
post_i386_opcodes/ia32_elf/subject.exe:     file format elf32-i386


Disassembly of section .init:

08048274 <_init>:
 8048274:	55                   	push   %ebp
 8048275:	89 e5                	mov    %esp,%ebp
 8048277:	53                   	push   %ebx
 8048278:	83 ec 04             	sub    $0x4,%esp
 804827b:	e8 00 00 00 00       	call   8048280 <_init+0xc>
 8048280:	5b                   	pop    %ebx
 8048281:	81 c3 d4 f0 00 00    	add    $0xf0d4,%ebx
 8048287:	8b 93 fc ff ff ff    	mov    -0x4(%ebx),%edx
 804828d:	85 d2                	test   %edx,%edx
 804828f:	74 05                	je     8048296 <_init+0x22>
 8048291:	e8 1e 00 00 00       	call   80482b4 <__gmon_start__@plt>
 8048296:	e8 d5 00 00 00       	call   8048370 <frame_dummy>
 804829b:	e8 e0 de 00 00       	call   8056180 <__do_global_ctors_aux>
 80482a0:	58                   	pop    %eax
 80482a1:	5b                   	pop    %ebx
 80482a2:	c9                   	leave  
 80482a3:	c3                   	ret    

Disassembly of section .plt:

080482a4 <__gmon_start__@plt-0x10>:
 80482a4:	ff 35 58 73 05 08    	pushl  0x8057358
 80482aa:	ff 25 5c 73 05 08    	jmp    *0x805735c
 80482b0:	00 00                	add    %al,(%eax)
	...

080482b4 <__gmon_start__@plt>:
 80482b4:	ff 25 60 73 05 08    	jmp    *0x8057360
 80482ba:	68 00 00 00 00       	push   $0x0
 80482bf:	e9 e0 ff ff ff       	jmp    80482a4 <_init+0x30>

080482c4 <__libc_start_main@plt>:
 80482c4:	ff 25 64 73 05 08    	jmp    *0x8057364
 80482ca:	68 08 00 00 00       	push   $0x8
 80482cf:	e9 d0 ff ff ff       	jmp    80482a4 <_init+0x30>

Disassembly of section .text:

080482e0 <_start>:
 80482e0:	31 ed                	xor    %ebp,%ebp
 80482e2:	5e                   	pop    %esi
 80482e3:	89 e1                	mov    %esp,%ecx
 80482e5:	83 e4 f0             	and    $0xfffffff0,%esp
 80482e8:	50                   	push   %eax
 80482e9:	54                   	push   %esp
 80482ea:	52                   	push   %edx
 80482eb:	68 10 61 05 08       	push   $0x8056110
 80482f0:	68 20 61 05 08       	push   $0x8056120
 80482f5:	51                   	push   %ecx
 80482f6:	56                   	push   %esi
 80482f7:	68 f8 60 05 08       	push   $0x80560f8
 80482fc:	e8 c3 ff ff ff       	call   80482c4 <__libc_start_main@plt>
 8048301:	f4                   	hlt    
 8048302:	90                   	nop
 8048303:	90                   	nop
 8048304:	90                   	nop
 8048305:	90                   	nop
 8048306:	90                   	nop
 8048307:	90                   	nop
 8048308:	90                   	nop
 8048309:	90                   	nop
 804830a:	90                   	nop
 804830b:	90                   	nop
 804830c:	90                   	nop
 804830d:	90                   	nop
 804830e:	90                   	nop
 804830f:	90                   	nop

08048310 <__do_global_dtors_aux>:
 8048310:	55                   	push   %ebp
 8048311:	89 e5                	mov    %esp,%ebp
 8048313:	53                   	push   %ebx
 8048314:	83 ec 04             	sub    $0x4,%esp
 8048317:	80 3d 6c 73 05 08 00 	cmpb   $0x0,0x805736c
 804831e:	75 3f                	jne    804835f <__do_global_dtors_aux+0x4f>
 8048320:	a1 70 73 05 08       	mov    0x8057370,%eax
 8048325:	bb 80 72 05 08       	mov    $0x8057280,%ebx
 804832a:	81 eb 7c 72 05 08    	sub    $0x805727c,%ebx
 8048330:	c1 fb 02             	sar    $0x2,%ebx
 8048333:	83 eb 01             	sub    $0x1,%ebx
 8048336:	39 d8                	cmp    %ebx,%eax
 8048338:	73 1e                	jae    8048358 <__do_global_dtors_aux+0x48>
 804833a:	8d b6 00 00 00 00    	lea    0x0(%esi),%esi
 8048340:	83 c0 01             	add    $0x1,%eax
 8048343:	a3 70 73 05 08       	mov    %eax,0x8057370
 8048348:	ff 14 85 7c 72 05 08 	call   *0x805727c(,%eax,4)
 804834f:	a1 70 73 05 08       	mov    0x8057370,%eax
 8048354:	39 d8                	cmp    %ebx,%eax
 8048356:	72 e8                	jb     8048340 <__do_global_dtors_aux+0x30>
 8048358:	c6 05 6c 73 05 08 01 	movb   $0x1,0x805736c
 804835f:	83 c4 04             	add    $0x4,%esp
 8048362:	5b                   	pop    %ebx
 8048363:	5d                   	pop    %ebp
 8048364:	c3                   	ret    
 8048365:	8d 74 26 00          	lea    0x0(%esi,%eiz,1),%esi
 8048369:	8d bc 27 00 00 00 00 	lea    0x0(%edi,%eiz,1),%edi

08048370 <frame_dummy>:
 8048370:	55                   	push   %ebp
 8048371:	89 e5                	mov    %esp,%ebp
 8048373:	83 ec 18             	sub    $0x18,%esp
 8048376:	a1 84 72 05 08       	mov    0x8057284,%eax
 804837b:	85 c0                	test   %eax,%eax
 804837d:	74 12                	je     8048391 <frame_dummy+0x21>
 804837f:	b8 00 00 00 00       	mov    $0x0,%eax
 8048384:	85 c0                	test   %eax,%eax
 8048386:	74 09                	je     8048391 <frame_dummy+0x21>
 8048388:	c7 04 24 84 72 05 08 	movl   $0x8057284,(%esp)
 804838f:	ff d0                	call   *%eax
 8048391:	c9                   	leave  
 8048392:	c3                   	ret    
 8048393:	90                   	nop

08048394 <bswap_plain>:
 8048394:	0f c8                	bswap  %eax
 8048396:	b8 00 00 00 00       	mov    $0x0,%eax
 804839b:	c3                   	ret    

0804839c <bswap_allregs>:
 804839c:	90                   	nop
 804839d:	66 a1 00 11 00 00    	mov    0x1100,%ax
 80483a3:	66 50                	push   %ax
 80483a5:	66 9d                	popfw  
 80483a7:	a1 00 10 00 00       	mov    0x1000,%eax
 80483ac:	8b 1d 04 10 00 00    	mov    0x1004,%ebx
 80483b2:	8b 0d 08 10 00 00    	mov    0x1008,%ecx
 80483b8:	8b 15 0c 10 00 00    	mov    0x100c,%edx
 80483be:	8b 2d 10 10 00 00    	mov    0x1010,%ebp
 80483c4:	8b 35 14 10 00 00    	mov    0x1014,%esi
 80483ca:	8b 3d 18 10 00 00    	mov    0x1018,%edi
 80483d0:	89 25 50 20 00 00    	mov    %esp,0x2050
 80483d6:	0f c8                	bswap  %eax
 80483d8:	a3 00 20 00 00       	mov    %eax,0x2000
 80483dd:	89 1d 04 20 00 00    	mov    %ebx,0x2004
 80483e3:	89 0d 08 20 00 00    	mov    %ecx,0x2008
 80483e9:	89 15 0c 20 00 00    	mov    %edx,0x200c
 80483ef:	89 2d 10 20 00 00    	mov    %ebp,0x2010
 80483f5:	89 35 14 20 00 00    	mov    %esi,0x2014
 80483fb:	89 3d 18 20 00 00    	mov    %edi,0x2018
 8048401:	0f 90 05 00 22 00 00 	seto   0x2200
 8048408:	0f 91 05 01 22 00 00 	setno  0x2201
 804840f:	0f 92 05 02 22 00 00 	setb   0x2202
 8048416:	0f 93 05 03 22 00 00 	setae  0x2203
 804841d:	0f 94 05 04 22 00 00 	sete   0x2204
 8048424:	0f 95 05 05 22 00 00 	setne  0x2205
 804842b:	0f 96 05 06 22 00 00 	setbe  0x2206
 8048432:	0f 97 05 07 22 00 00 	seta   0x2207
 8048439:	0f 98 05 08 22 00 00 	sets   0x2208
 8048440:	0f 99 05 09 22 00 00 	setns  0x2209
 8048447:	0f 9a 05 0a 22 00 00 	setp   0x220a
 804844e:	0f 9b 05 0b 22 00 00 	setnp  0x220b
 8048455:	0f 9c 05 0c 22 00 00 	setl   0x220c
 804845c:	0f 9d 05 0d 22 00 00 	setge  0x220d
 8048463:	0f 9e 05 0e 22 00 00 	setle  0x220e
 804846a:	0f 9f 05 0f 22 00 00 	setg   0x220f
 8048471:	66 9c                	pushfw 
 8048473:	66 58                	pop    %ax
 8048475:	66 a3 00 21 00 00    	mov    %ax,0x2100
 804847b:	a1 50 20 00 00       	mov    0x2050,%eax
 8048480:	29 e0                	sub    %esp,%eax
 8048482:	a3 20 20 00 00       	mov    %eax,0x2020
 8048487:	b8 00 00 00 00       	mov    $0x0,%eax
 804848c:	c3                   	ret    

0804848d <bswap_constant_simple>:
 804848d:	90                   	nop
 804848e:	66 6a 00             	pushw  $0x0
 8048491:	66 9d                	popfw  
 8048493:	b8 02 00 00 00       	mov    $0x2,%eax
 8048498:	bb 03 00 00 00       	mov    $0x3,%ebx
 804849d:	b9 04 00 00 00       	mov    $0x4,%ecx
 80484a2:	ba 05 00 00 00       	mov    $0x5,%edx
 80484a7:	bd 06 00 00 00       	mov    $0x6,%ebp
 80484ac:	be 07 00 00 00       	mov    $0x7,%esi
 80484b1:	bf 08 00 00 00       	mov    $0x8,%edi
 80484b6:	89 25 50 20 00 00    	mov    %esp,0x2050
 80484bc:	0f c8                	bswap  %eax
 80484be:	a3 00 20 00 00       	mov    %eax,0x2000
 80484c3:	89 1d 04 20 00 00    	mov    %ebx,0x2004
 80484c9:	89 0d 08 20 00 00    	mov    %ecx,0x2008
 80484cf:	89 15 0c 20 00 00    	mov    %edx,0x200c
 80484d5:	89 2d 10 20 00 00    	mov    %ebp,0x2010
 80484db:	89 35 14 20 00 00    	mov    %esi,0x2014
 80484e1:	89 3d 18 20 00 00    	mov    %edi,0x2018
 80484e7:	0f 90 05 00 22 00 00 	seto   0x2200
 80484ee:	0f 91 05 01 22 00 00 	setno  0x2201
 80484f5:	0f 92 05 02 22 00 00 	setb   0x2202
 80484fc:	0f 93 05 03 22 00 00 	setae  0x2203
 8048503:	0f 94 05 04 22 00 00 	sete   0x2204
 804850a:	0f 95 05 05 22 00 00 	setne  0x2205
 8048511:	0f 96 05 06 22 00 00 	setbe  0x2206
 8048518:	0f 97 05 07 22 00 00 	seta   0x2207
 804851f:	0f 98 05 08 22 00 00 	sets   0x2208
 8048526:	0f 99 05 09 22 00 00 	setns  0x2209
 804852d:	0f 9a 05 0a 22 00 00 	setp   0x220a
 8048534:	0f 9b 05 0b 22 00 00 	setnp  0x220b
 804853b:	0f 9c 05 0c 22 00 00 	setl   0x220c
 8048542:	0f 9d 05 0d 22 00 00 	setge  0x220d
 8048549:	0f 9e 05 0e 22 00 00 	setle  0x220e
 8048550:	0f 9f 05 0f 22 00 00 	setg   0x220f
 8048557:	66 9c                	pushfw 
 8048559:	66 58                	pop    %ax
 804855b:	66 a3 00 21 00 00    	mov    %ax,0x2100
 8048561:	a1 50 20 00 00       	mov    0x2050,%eax
 8048566:	29 e0                	sub    %esp,%eax
 8048568:	a3 20 20 00 00       	mov    %eax,0x2020
 804856d:	b8 00 00 00 00       	mov    $0x0,%eax
 8048572:	c3                   	ret    

08048573 <bswap_constant_complex1>:
 8048573:	90                   	nop
 8048574:	66 6a 00             	pushw  $0x0
 8048577:	66 9d                	popfw  
 8048579:	b8 84 79 b1 a3       	mov    $0xa3b17984,%eax
 804857e:	bb d7 1a 67 06       	mov    $0x6671ad7,%ebx
 8048583:	b9 48 52 68 46       	mov    $0x46685248,%ecx
 8048588:	ba c4 56 24 39       	mov    $0x392456c4,%edx
 804858d:	bd a4 60 89 bc       	mov    $0xbc8960a4,%ebp
 8048592:	be 78 2d 3c ad       	mov    $0xad3c2d78,%esi
 8048597:	bf 52 e1 65 e4       	mov    $0xe465e152,%edi
 804859c:	89 25 50 20 00 00    	mov    %esp,0x2050
 80485a2:	0f c8                	bswap  %eax
 80485a4:	a3 00 20 00 00       	mov    %eax,0x2000
 80485a9:	89 1d 04 20 00 00    	mov    %ebx,0x2004
 80485af:	89 0d 08 20 00 00    	mov    %ecx,0x2008
 80485b5:	89 15 0c 20 00 00    	mov    %edx,0x200c
 80485bb:	89 2d 10 20 00 00    	mov    %ebp,0x2010
 80485c1:	89 35 14 20 00 00    	mov    %esi,0x2014
 80485c7:	89 3d 18 20 00 00    	mov    %edi,0x2018
 80485cd:	0f 90 05 00 22 00 00 	seto   0x2200
 80485d4:	0f 91 05 01 22 00 00 	setno  0x2201
 80485db:	0f 92 05 02 22 00 00 	setb   0x2202
 80485e2:	0f 93 05 03 22 00 00 	setae  0x2203
 80485e9:	0f 94 05 04 22 00 00 	sete   0x2204
 80485f0:	0f 95 05 05 22 00 00 	setne  0x2205
 80485f7:	0f 96 05 06 22 00 00 	setbe  0x2206
 80485fe:	0f 97 05 07 22 00 00 	seta   0x2207
 8048605:	0f 98 05 08 22 00 00 	sets   0x2208
 804860c:	0f 99 05 09 22 00 00 	setns  0x2209
 8048613:	0f 9a 05 0a 22 00 00 	setp   0x220a
 804861a:	0f 9b 05 0b 22 00 00 	setnp  0x220b
 8048621:	0f 9c 05 0c 22 00 00 	setl   0x220c
 8048628:	0f 9d 05 0d 22 00 00 	setge  0x220d
 804862f:	0f 9e 05 0e 22 00 00 	setle  0x220e
 8048636:	0f 9f 05 0f 22 00 00 	setg   0x220f
 804863d:	66 9c                	pushfw 
 804863f:	66 58                	pop    %ax
 8048641:	66 a3 00 21 00 00    	mov    %ax,0x2100
 8048647:	a1 50 20 00 00       	mov    0x2050,%eax
 804864c:	29 e0                	sub    %esp,%eax
 804864e:	a3 20 20 00 00       	mov    %eax,0x2020
 8048653:	b8 00 00 00 00       	mov    $0x0,%eax
 8048658:	c3                   	ret    

08048659 <bswap_constant_complex2>:
 8048659:	90                   	nop
 804865a:	66 68 ff fe          	pushw  $0xfeff
 804865e:	66 9d                	popfw  
 8048660:	b8 e8 c0 3e 31       	mov    $0x313ec0e8,%eax
 8048665:	bb c3 81 6e 49       	mov    $0x496e81c3,%ebx
 804866a:	b9 b2 6c 3f 1e       	mov    $0x1e3f6cb2,%ecx
 804866f:	ba b3 25 69 4e       	mov    $0x4e6925b3,%edx
 8048674:	bd 10 26 31 4f       	mov    $0x4f312610,%ebp
 8048679:	be a5 a4 37 2f       	mov    $0x2f37a4a5,%esi
 804867e:	bf b4 17 a9 91       	mov    $0x91a917b4,%edi
 8048683:	89 25 50 20 00 00    	mov    %esp,0x2050
 8048689:	0f c8                	bswap  %eax
 804868b:	a3 00 20 00 00       	mov    %eax,0x2000
 8048690:	89 1d 04 20 00 00    	mov    %ebx,0x2004
 8048696:	89 0d 08 20 00 00    	mov    %ecx,0x2008
 804869c:	89 15 0c 20 00 00    	mov    %edx,0x200c
 80486a2:	89 2d 10 20 00 00    	mov    %ebp,0x2010
 80486a8:	89 35 14 20 00 00    	mov    %esi,0x2014
 80486ae:	89 3d 18 20 00 00    	mov    %edi,0x2018
 80486b4:	0f 90 05 00 22 00 00 	seto   0x2200
 80486bb:	0f 91 05 01 22 00 00 	setno  0x2201
 80486c2:	0f 92 05 02 22 00 00 	setb   0x2202
 80486c9:	0f 93 05 03 22 00 00 	setae  0x2203
 80486d0:	0f 94 05 04 22 00 00 	sete   0x2204
 80486d7:	0f 95 05 05 22 00 00 	setne  0x2205
 80486de:	0f 96 05 06 22 00 00 	setbe  0x2206
 80486e5:	0f 97 05 07 22 00 00 	seta   0x2207
 80486ec:	0f 98 05 08 22 00 00 	sets   0x2208
 80486f3:	0f 99 05 09 22 00 00 	setns  0x2209
 80486fa:	0f 9a 05 0a 22 00 00 	setp   0x220a
 8048701:	0f 9b 05 0b 22 00 00 	setnp  0x220b
 8048708:	0f 9c 05 0c 22 00 00 	setl   0x220c
 804870f:	0f 9d 05 0d 22 00 00 	setge  0x220d
 8048716:	0f 9e 05 0e 22 00 00 	setle  0x220e
 804871d:	0f 9f 05 0f 22 00 00 	setg   0x220f
 8048724:	66 9c                	pushfw 
 8048726:	66 58                	pop    %ax
 8048728:	66 a3 00 21 00 00    	mov    %ax,0x2100
 804872e:	a1 50 20 00 00       	mov    0x2050,%eax
 8048733:	29 e0                	sub    %esp,%eax
 8048735:	a3 20 20 00 00       	mov    %eax,0x2020
 804873a:	b8 00 00 00 00       	mov    $0x0,%eax
 804873f:	c3                   	ret    

08048740 <cmpxchg1_mv_plain>:
 8048740:	0f b0 c3             	cmpxchg %al,%bl
 8048743:	b8 00 00 00 00       	mov    $0x0,%eax
 8048748:	c3                   	ret    

08048749 <cmpxchg1_mv_allregs>:
 8048749:	90                   	nop
 804874a:	66 a1 00 11 00 00    	mov    0x1100,%ax
 8048750:	66 50                	push   %ax
 8048752:	66 9d                	popfw  
 8048754:	a1 00 10 00 00       	mov    0x1000,%eax
 8048759:	8b 1d 04 10 00 00    	mov    0x1004,%ebx
 804875f:	8b 0d 08 10 00 00    	mov    0x1008,%ecx
 8048765:	8b 15 0c 10 00 00    	mov    0x100c,%edx
 804876b:	8b 2d 10 10 00 00    	mov    0x1010,%ebp
 8048771:	8b 35 14 10 00 00    	mov    0x1014,%esi
 8048777:	8b 3d 18 10 00 00    	mov    0x1018,%edi
 804877d:	89 25 50 20 00 00    	mov    %esp,0x2050
 8048783:	0f b0 c3             	cmpxchg %al,%bl
 8048786:	a3 00 20 00 00       	mov    %eax,0x2000
 804878b:	89 1d 04 20 00 00    	mov    %ebx,0x2004
 8048791:	89 0d 08 20 00 00    	mov    %ecx,0x2008
 8048797:	89 15 0c 20 00 00    	mov    %edx,0x200c
 804879d:	89 2d 10 20 00 00    	mov    %ebp,0x2010
 80487a3:	89 35 14 20 00 00    	mov    %esi,0x2014
 80487a9:	89 3d 18 20 00 00    	mov    %edi,0x2018
 80487af:	0f 90 05 00 22 00 00 	seto   0x2200
 80487b6:	0f 91 05 01 22 00 00 	setno  0x2201
 80487bd:	0f 92 05 02 22 00 00 	setb   0x2202
 80487c4:	0f 93 05 03 22 00 00 	setae  0x2203
 80487cb:	0f 94 05 04 22 00 00 	sete   0x2204
 80487d2:	0f 95 05 05 22 00 00 	setne  0x2205
 80487d9:	0f 96 05 06 22 00 00 	setbe  0x2206
 80487e0:	0f 97 05 07 22 00 00 	seta   0x2207
 80487e7:	0f 98 05 08 22 00 00 	sets   0x2208
 80487ee:	0f 99 05 09 22 00 00 	setns  0x2209
 80487f5:	0f 9a 05 0a 22 00 00 	setp   0x220a
 80487fc:	0f 9b 05 0b 22 00 00 	setnp  0x220b
 8048803:	0f 9c 05 0c 22 00 00 	setl   0x220c
 804880a:	0f 9d 05 0d 22 00 00 	setge  0x220d
 8048811:	0f 9e 05 0e 22 00 00 	setle  0x220e
 8048818:	0f 9f 05 0f 22 00 00 	setg   0x220f
 804881f:	66 9c                	pushfw 
 8048821:	66 58                	pop    %ax
 8048823:	66 a3 00 21 00 00    	mov    %ax,0x2100
 8048829:	a1 50 20 00 00       	mov    0x2050,%eax
 804882e:	29 e0                	sub    %esp,%eax
 8048830:	a3 20 20 00 00       	mov    %eax,0x2020
 8048835:	b8 00 00 00 00       	mov    $0x0,%eax
 804883a:	c3                   	ret    

0804883b <cmpxchg1_mv_constant_simple>:
 804883b:	90                   	nop
 804883c:	66 6a 00             	pushw  $0x0
 804883f:	66 9d                	popfw  
 8048841:	b8 02 00 00 00       	mov    $0x2,%eax
 8048846:	bb 03 00 00 00       	mov    $0x3,%ebx
 804884b:	b9 04 00 00 00       	mov    $0x4,%ecx
 8048850:	ba 05 00 00 00       	mov    $0x5,%edx
 8048855:	bd 06 00 00 00       	mov    $0x6,%ebp
 804885a:	be 07 00 00 00       	mov    $0x7,%esi
 804885f:	bf 08 00 00 00       	mov    $0x8,%edi
 8048864:	89 25 50 20 00 00    	mov    %esp,0x2050
 804886a:	0f b0 c3             	cmpxchg %al,%bl
 804886d:	a3 00 20 00 00       	mov    %eax,0x2000
 8048872:	89 1d 04 20 00 00    	mov    %ebx,0x2004
 8048878:	89 0d 08 20 00 00    	mov    %ecx,0x2008
 804887e:	89 15 0c 20 00 00    	mov    %edx,0x200c
 8048884:	89 2d 10 20 00 00    	mov    %ebp,0x2010
 804888a:	89 35 14 20 00 00    	mov    %esi,0x2014
 8048890:	89 3d 18 20 00 00    	mov    %edi,0x2018
 8048896:	0f 90 05 00 22 00 00 	seto   0x2200
 804889d:	0f 91 05 01 22 00 00 	setno  0x2201
 80488a4:	0f 92 05 02 22 00 00 	setb   0x2202
 80488ab:	0f 93 05 03 22 00 00 	setae  0x2203
 80488b2:	0f 94 05 04 22 00 00 	sete   0x2204
 80488b9:	0f 95 05 05 22 00 00 	setne  0x2205
 80488c0:	0f 96 05 06 22 00 00 	setbe  0x2206
 80488c7:	0f 97 05 07 22 00 00 	seta   0x2207
 80488ce:	0f 98 05 08 22 00 00 	sets   0x2208
 80488d5:	0f 99 05 09 22 00 00 	setns  0x2209
 80488dc:	0f 9a 05 0a 22 00 00 	setp   0x220a
 80488e3:	0f 9b 05 0b 22 00 00 	setnp  0x220b
 80488ea:	0f 9c 05 0c 22 00 00 	setl   0x220c
 80488f1:	0f 9d 05 0d 22 00 00 	setge  0x220d
 80488f8:	0f 9e 05 0e 22 00 00 	setle  0x220e
 80488ff:	0f 9f 05 0f 22 00 00 	setg   0x220f
 8048906:	66 9c                	pushfw 
 8048908:	66 58                	pop    %ax
 804890a:	66 a3 00 21 00 00    	mov    %ax,0x2100
 8048910:	a1 50 20 00 00       	mov    0x2050,%eax
 8048915:	29 e0                	sub    %esp,%eax
 8048917:	a3 20 20 00 00       	mov    %eax,0x2020
 804891c:	b8 00 00 00 00       	mov    $0x0,%eax
 8048921:	c3                   	ret    

08048922 <cmpxchg1_mv_constant_complex1>:
 8048922:	90                   	nop
 8048923:	66 6a 00             	pushw  $0x0
 8048926:	66 9d                	popfw  
 8048928:	b8 84 79 b1 a3       	mov    $0xa3b17984,%eax
 804892d:	bb d7 1a 67 06       	mov    $0x6671ad7,%ebx
 8048932:	b9 48 52 68 46       	mov    $0x46685248,%ecx
 8048937:	ba c4 56 24 39       	mov    $0x392456c4,%edx
 804893c:	bd a4 60 89 bc       	mov    $0xbc8960a4,%ebp
 8048941:	be 78 2d 3c ad       	mov    $0xad3c2d78,%esi
 8048946:	bf 52 e1 65 e4       	mov    $0xe465e152,%edi
 804894b:	89 25 50 20 00 00    	mov    %esp,0x2050
 8048951:	0f b0 c3             	cmpxchg %al,%bl
 8048954:	a3 00 20 00 00       	mov    %eax,0x2000
 8048959:	89 1d 04 20 00 00    	mov    %ebx,0x2004
 804895f:	89 0d 08 20 00 00    	mov    %ecx,0x2008
 8048965:	89 15 0c 20 00 00    	mov    %edx,0x200c
 804896b:	89 2d 10 20 00 00    	mov    %ebp,0x2010
 8048971:	89 35 14 20 00 00    	mov    %esi,0x2014
 8048977:	89 3d 18 20 00 00    	mov    %edi,0x2018
 804897d:	0f 90 05 00 22 00 00 	seto   0x2200
 8048984:	0f 91 05 01 22 00 00 	setno  0x2201
 804898b:	0f 92 05 02 22 00 00 	setb   0x2202
 8048992:	0f 93 05 03 22 00 00 	setae  0x2203
 8048999:	0f 94 05 04 22 00 00 	sete   0x2204
 80489a0:	0f 95 05 05 22 00 00 	setne  0x2205
 80489a7:	0f 96 05 06 22 00 00 	setbe  0x2206
 80489ae:	0f 97 05 07 22 00 00 	seta   0x2207
 80489b5:	0f 98 05 08 22 00 00 	sets   0x2208
 80489bc:	0f 99 05 09 22 00 00 	setns  0x2209
 80489c3:	0f 9a 05 0a 22 00 00 	setp   0x220a
 80489ca:	0f 9b 05 0b 22 00 00 	setnp  0x220b
 80489d1:	0f 9c 05 0c 22 00 00 	setl   0x220c
 80489d8:	0f 9d 05 0d 22 00 00 	setge  0x220d
 80489df:	0f 9e 05 0e 22 00 00 	setle  0x220e
 80489e6:	0f 9f 05 0f 22 00 00 	setg   0x220f
 80489ed:	66 9c                	pushfw 
 80489ef:	66 58                	pop    %ax
 80489f1:	66 a3 00 21 00 00    	mov    %ax,0x2100
 80489f7:	a1 50 20 00 00       	mov    0x2050,%eax
 80489fc:	29 e0                	sub    %esp,%eax
 80489fe:	a3 20 20 00 00       	mov    %eax,0x2020
 8048a03:	b8 00 00 00 00       	mov    $0x0,%eax
 8048a08:	c3                   	ret    

08048a09 <cmpxchg1_mv_constant_complex2>:
 8048a09:	90                   	nop
 8048a0a:	66 68 ff fe          	pushw  $0xfeff
 8048a0e:	66 9d                	popfw  
 8048a10:	b8 e8 c0 3e 31       	mov    $0x313ec0e8,%eax
 8048a15:	bb c3 81 6e 49       	mov    $0x496e81c3,%ebx
 8048a1a:	b9 b2 6c 3f 1e       	mov    $0x1e3f6cb2,%ecx
 8048a1f:	ba b3 25 69 4e       	mov    $0x4e6925b3,%edx
 8048a24:	bd 10 26 31 4f       	mov    $0x4f312610,%ebp
 8048a29:	be a5 a4 37 2f       	mov    $0x2f37a4a5,%esi
 8048a2e:	bf b4 17 a9 91       	mov    $0x91a917b4,%edi
 8048a33:	89 25 50 20 00 00    	mov    %esp,0x2050
 8048a39:	0f b0 c3             	cmpxchg %al,%bl
 8048a3c:	a3 00 20 00 00       	mov    %eax,0x2000
 8048a41:	89 1d 04 20 00 00    	mov    %ebx,0x2004
 8048a47:	89 0d 08 20 00 00    	mov    %ecx,0x2008
 8048a4d:	89 15 0c 20 00 00    	mov    %edx,0x200c
 8048a53:	89 2d 10 20 00 00    	mov    %ebp,0x2010
 8048a59:	89 35 14 20 00 00    	mov    %esi,0x2014
 8048a5f:	89 3d 18 20 00 00    	mov    %edi,0x2018
 8048a65:	0f 90 05 00 22 00 00 	seto   0x2200
 8048a6c:	0f 91 05 01 22 00 00 	setno  0x2201
 8048a73:	0f 92 05 02 22 00 00 	setb   0x2202
 8048a7a:	0f 93 05 03 22 00 00 	setae  0x2203
 8048a81:	0f 94 05 04 22 00 00 	sete   0x2204
 8048a88:	0f 95 05 05 22 00 00 	setne  0x2205
 8048a8f:	0f 96 05 06 22 00 00 	setbe  0x2206
 8048a96:	0f 97 05 07 22 00 00 	seta   0x2207
 8048a9d:	0f 98 05 08 22 00 00 	sets   0x2208
 8048aa4:	0f 99 05 09 22 00 00 	setns  0x2209
 8048aab:	0f 9a 05 0a 22 00 00 	setp   0x220a
 8048ab2:	0f 9b 05 0b 22 00 00 	setnp  0x220b
 8048ab9:	0f 9c 05 0c 22 00 00 	setl   0x220c
 8048ac0:	0f 9d 05 0d 22 00 00 	setge  0x220d
 8048ac7:	0f 9e 05 0e 22 00 00 	setle  0x220e
 8048ace:	0f 9f 05 0f 22 00 00 	setg   0x220f
 8048ad5:	66 9c                	pushfw 
 8048ad7:	66 58                	pop    %ax
 8048ad9:	66 a3 00 21 00 00    	mov    %ax,0x2100
 8048adf:	a1 50 20 00 00       	mov    0x2050,%eax
 8048ae4:	29 e0                	sub    %esp,%eax
 8048ae6:	a3 20 20 00 00       	mov    %eax,0x2020
 8048aeb:	b8 00 00 00 00       	mov    $0x0,%eax
 8048af0:	c3                   	ret    

08048af1 <cmpxchg2_mv_plain>:
 8048af1:	66 0f b1 c3          	cmpxchg %ax,%bx
 8048af5:	b8 00 00 00 00       	mov    $0x0,%eax
 8048afa:	c3                   	ret    

08048afb <cmpxchg2_mv_allregs>:
 8048afb:	90                   	nop
 8048afc:	66 a1 00 11 00 00    	mov    0x1100,%ax
 8048b02:	66 50                	push   %ax
 8048b04:	66 9d                	popfw  
 8048b06:	a1 00 10 00 00       	mov    0x1000,%eax
 8048b0b:	8b 1d 04 10 00 00    	mov    0x1004,%ebx
 8048b11:	8b 0d 08 10 00 00    	mov    0x1008,%ecx
 8048b17:	8b 15 0c 10 00 00    	mov    0x100c,%edx
 8048b1d:	8b 2d 10 10 00 00    	mov    0x1010,%ebp
 8048b23:	8b 35 14 10 00 00    	mov    0x1014,%esi
 8048b29:	8b 3d 18 10 00 00    	mov    0x1018,%edi
 8048b2f:	89 25 50 20 00 00    	mov    %esp,0x2050
 8048b35:	66 0f b1 c3          	cmpxchg %ax,%bx
 8048b39:	a3 00 20 00 00       	mov    %eax,0x2000
 8048b3e:	89 1d 04 20 00 00    	mov    %ebx,0x2004
 8048b44:	89 0d 08 20 00 00    	mov    %ecx,0x2008
 8048b4a:	89 15 0c 20 00 00    	mov    %edx,0x200c
 8048b50:	89 2d 10 20 00 00    	mov    %ebp,0x2010
 8048b56:	89 35 14 20 00 00    	mov    %esi,0x2014
 8048b5c:	89 3d 18 20 00 00    	mov    %edi,0x2018
 8048b62:	0f 90 05 00 22 00 00 	seto   0x2200
 8048b69:	0f 91 05 01 22 00 00 	setno  0x2201
 8048b70:	0f 92 05 02 22 00 00 	setb   0x2202
 8048b77:	0f 93 05 03 22 00 00 	setae  0x2203
 8048b7e:	0f 94 05 04 22 00 00 	sete   0x2204
 8048b85:	0f 95 05 05 22 00 00 	setne  0x2205
 8048b8c:	0f 96 05 06 22 00 00 	setbe  0x2206
 8048b93:	0f 97 05 07 22 00 00 	seta   0x2207
 8048b9a:	0f 98 05 08 22 00 00 	sets   0x2208
 8048ba1:	0f 99 05 09 22 00 00 	setns  0x2209
 8048ba8:	0f 9a 05 0a 22 00 00 	setp   0x220a
 8048baf:	0f 9b 05 0b 22 00 00 	setnp  0x220b
 8048bb6:	0f 9c 05 0c 22 00 00 	setl   0x220c
 8048bbd:	0f 9d 05 0d 22 00 00 	setge  0x220d
 8048bc4:	0f 9e 05 0e 22 00 00 	setle  0x220e
 8048bcb:	0f 9f 05 0f 22 00 00 	setg   0x220f
 8048bd2:	66 9c                	pushfw 
 8048bd4:	66 58                	pop    %ax
 8048bd6:	66 a3 00 21 00 00    	mov    %ax,0x2100
 8048bdc:	a1 50 20 00 00       	mov    0x2050,%eax
 8048be1:	29 e0                	sub    %esp,%eax
 8048be3:	a3 20 20 00 00       	mov    %eax,0x2020
 8048be8:	b8 00 00 00 00       	mov    $0x0,%eax
 8048bed:	c3                   	ret    

08048bee <cmpxchg2_mv_constant_simple>:
 8048bee:	90                   	nop
 8048bef:	66 6a 00             	pushw  $0x0
 8048bf2:	66 9d                	popfw  
 8048bf4:	b8 02 00 00 00       	mov    $0x2,%eax
 8048bf9:	bb 03 00 00 00       	mov    $0x3,%ebx
 8048bfe:	b9 04 00 00 00       	mov    $0x4,%ecx
 8048c03:	ba 05 00 00 00       	mov    $0x5,%edx
 8048c08:	bd 06 00 00 00       	mov    $0x6,%ebp
 8048c0d:	be 07 00 00 00       	mov    $0x7,%esi
 8048c12:	bf 08 00 00 00       	mov    $0x8,%edi
 8048c17:	89 25 50 20 00 00    	mov    %esp,0x2050
 8048c1d:	66 0f b1 c3          	cmpxchg %ax,%bx
 8048c21:	a3 00 20 00 00       	mov    %eax,0x2000
 8048c26:	89 1d 04 20 00 00    	mov    %ebx,0x2004
 8048c2c:	89 0d 08 20 00 00    	mov    %ecx,0x2008
 8048c32:	89 15 0c 20 00 00    	mov    %edx,0x200c
 8048c38:	89 2d 10 20 00 00    	mov    %ebp,0x2010
 8048c3e:	89 35 14 20 00 00    	mov    %esi,0x2014
 8048c44:	89 3d 18 20 00 00    	mov    %edi,0x2018
 8048c4a:	0f 90 05 00 22 00 00 	seto   0x2200
 8048c51:	0f 91 05 01 22 00 00 	setno  0x2201
 8048c58:	0f 92 05 02 22 00 00 	setb   0x2202
 8048c5f:	0f 93 05 03 22 00 00 	setae  0x2203
 8048c66:	0f 94 05 04 22 00 00 	sete   0x2204
 8048c6d:	0f 95 05 05 22 00 00 	setne  0x2205
 8048c74:	0f 96 05 06 22 00 00 	setbe  0x2206
 8048c7b:	0f 97 05 07 22 00 00 	seta   0x2207
 8048c82:	0f 98 05 08 22 00 00 	sets   0x2208
 8048c89:	0f 99 05 09 22 00 00 	setns  0x2209
 8048c90:	0f 9a 05 0a 22 00 00 	setp   0x220a
 8048c97:	0f 9b 05 0b 22 00 00 	setnp  0x220b
 8048c9e:	0f 9c 05 0c 22 00 00 	setl   0x220c
 8048ca5:	0f 9d 05 0d 22 00 00 	setge  0x220d
 8048cac:	0f 9e 05 0e 22 00 00 	setle  0x220e
 8048cb3:	0f 9f 05 0f 22 00 00 	setg   0x220f
 8048cba:	66 9c                	pushfw 
 8048cbc:	66 58                	pop    %ax
 8048cbe:	66 a3 00 21 00 00    	mov    %ax,0x2100
 8048cc4:	a1 50 20 00 00       	mov    0x2050,%eax
 8048cc9:	29 e0                	sub    %esp,%eax
 8048ccb:	a3 20 20 00 00       	mov    %eax,0x2020
 8048cd0:	b8 00 00 00 00       	mov    $0x0,%eax
 8048cd5:	c3                   	ret    

08048cd6 <cmpxchg2_mv_constant_complex1>:
 8048cd6:	90                   	nop
 8048cd7:	66 6a 00             	pushw  $0x0
 8048cda:	66 9d                	popfw  
 8048cdc:	b8 84 79 b1 a3       	mov    $0xa3b17984,%eax
 8048ce1:	bb d7 1a 67 06       	mov    $0x6671ad7,%ebx
 8048ce6:	b9 48 52 68 46       	mov    $0x46685248,%ecx
 8048ceb:	ba c4 56 24 39       	mov    $0x392456c4,%edx
 8048cf0:	bd a4 60 89 bc       	mov    $0xbc8960a4,%ebp
 8048cf5:	be 78 2d 3c ad       	mov    $0xad3c2d78,%esi
 8048cfa:	bf 52 e1 65 e4       	mov    $0xe465e152,%edi
 8048cff:	89 25 50 20 00 00    	mov    %esp,0x2050
 8048d05:	66 0f b1 c3          	cmpxchg %ax,%bx
 8048d09:	a3 00 20 00 00       	mov    %eax,0x2000
 8048d0e:	89 1d 04 20 00 00    	mov    %ebx,0x2004
 8048d14:	89 0d 08 20 00 00    	mov    %ecx,0x2008
 8048d1a:	89 15 0c 20 00 00    	mov    %edx,0x200c
 8048d20:	89 2d 10 20 00 00    	mov    %ebp,0x2010
 8048d26:	89 35 14 20 00 00    	mov    %esi,0x2014
 8048d2c:	89 3d 18 20 00 00    	mov    %edi,0x2018
 8048d32:	0f 90 05 00 22 00 00 	seto   0x2200
 8048d39:	0f 91 05 01 22 00 00 	setno  0x2201
 8048d40:	0f 92 05 02 22 00 00 	setb   0x2202
 8048d47:	0f 93 05 03 22 00 00 	setae  0x2203
 8048d4e:	0f 94 05 04 22 00 00 	sete   0x2204
 8048d55:	0f 95 05 05 22 00 00 	setne  0x2205
 8048d5c:	0f 96 05 06 22 00 00 	setbe  0x2206
 8048d63:	0f 97 05 07 22 00 00 	seta   0x2207
 8048d6a:	0f 98 05 08 22 00 00 	sets   0x2208
 8048d71:	0f 99 05 09 22 00 00 	setns  0x2209
 8048d78:	0f 9a 05 0a 22 00 00 	setp   0x220a
 8048d7f:	0f 9b 05 0b 22 00 00 	setnp  0x220b
 8048d86:	0f 9c 05 0c 22 00 00 	setl   0x220c
 8048d8d:	0f 9d 05 0d 22 00 00 	setge  0x220d
 8048d94:	0f 9e 05 0e 22 00 00 	setle  0x220e
 8048d9b:	0f 9f 05 0f 22 00 00 	setg   0x220f
 8048da2:	66 9c                	pushfw 
 8048da4:	66 58                	pop    %ax
 8048da6:	66 a3 00 21 00 00    	mov    %ax,0x2100
 8048dac:	a1 50 20 00 00       	mov    0x2050,%eax
 8048db1:	29 e0                	sub    %esp,%eax
 8048db3:	a3 20 20 00 00       	mov    %eax,0x2020
 8048db8:	b8 00 00 00 00       	mov    $0x0,%eax
 8048dbd:	c3                   	ret    

08048dbe <cmpxchg2_mv_constant_complex2>:
 8048dbe:	90                   	nop
 8048dbf:	66 68 ff fe          	pushw  $0xfeff
 8048dc3:	66 9d                	popfw  
 8048dc5:	b8 e8 c0 3e 31       	mov    $0x313ec0e8,%eax
 8048dca:	bb c3 81 6e 49       	mov    $0x496e81c3,%ebx
 8048dcf:	b9 b2 6c 3f 1e       	mov    $0x1e3f6cb2,%ecx
 8048dd4:	ba b3 25 69 4e       	mov    $0x4e6925b3,%edx
 8048dd9:	bd 10 26 31 4f       	mov    $0x4f312610,%ebp
 8048dde:	be a5 a4 37 2f       	mov    $0x2f37a4a5,%esi
 8048de3:	bf b4 17 a9 91       	mov    $0x91a917b4,%edi
 8048de8:	89 25 50 20 00 00    	mov    %esp,0x2050
 8048dee:	66 0f b1 c3          	cmpxchg %ax,%bx
 8048df2:	a3 00 20 00 00       	mov    %eax,0x2000
 8048df7:	89 1d 04 20 00 00    	mov    %ebx,0x2004
 8048dfd:	89 0d 08 20 00 00    	mov    %ecx,0x2008
 8048e03:	89 15 0c 20 00 00    	mov    %edx,0x200c
 8048e09:	89 2d 10 20 00 00    	mov    %ebp,0x2010
 8048e0f:	89 35 14 20 00 00    	mov    %esi,0x2014
 8048e15:	89 3d 18 20 00 00    	mov    %edi,0x2018
 8048e1b:	0f 90 05 00 22 00 00 	seto   0x2200
 8048e22:	0f 91 05 01 22 00 00 	setno  0x2201
 8048e29:	0f 92 05 02 22 00 00 	setb   0x2202
 8048e30:	0f 93 05 03 22 00 00 	setae  0x2203
 8048e37:	0f 94 05 04 22 00 00 	sete   0x2204
 8048e3e:	0f 95 05 05 22 00 00 	setne  0x2205
 8048e45:	0f 96 05 06 22 00 00 	setbe  0x2206
 8048e4c:	0f 97 05 07 22 00 00 	seta   0x2207
 8048e53:	0f 98 05 08 22 00 00 	sets   0x2208
 8048e5a:	0f 99 05 09 22 00 00 	setns  0x2209
 8048e61:	0f 9a 05 0a 22 00 00 	setp   0x220a
 8048e68:	0f 9b 05 0b 22 00 00 	setnp  0x220b
 8048e6f:	0f 9c 05 0c 22 00 00 	setl   0x220c
 8048e76:	0f 9d 05 0d 22 00 00 	setge  0x220d
 8048e7d:	0f 9e 05 0e 22 00 00 	setle  0x220e
 8048e84:	0f 9f 05 0f 22 00 00 	setg   0x220f
 8048e8b:	66 9c                	pushfw 
 8048e8d:	66 58                	pop    %ax
 8048e8f:	66 a3 00 21 00 00    	mov    %ax,0x2100
 8048e95:	a1 50 20 00 00       	mov    0x2050,%eax
 8048e9a:	29 e0                	sub    %esp,%eax
 8048e9c:	a3 20 20 00 00       	mov    %eax,0x2020
 8048ea1:	b8 00 00 00 00       	mov    $0x0,%eax
 8048ea6:	c3                   	ret    

08048ea7 <cmpxchg3_plain>:
 8048ea7:	0f b1 c3             	cmpxchg %eax,%ebx
 8048eaa:	b8 00 00 00 00       	mov    $0x0,%eax
 8048eaf:	c3                   	ret    

08048eb0 <cmpxchg3_allregs>:
 8048eb0:	90                   	nop
 8048eb1:	66 a1 00 11 00 00    	mov    0x1100,%ax
 8048eb7:	66 50                	push   %ax
 8048eb9:	66 9d                	popfw  
 8048ebb:	a1 00 10 00 00       	mov    0x1000,%eax
 8048ec0:	8b 1d 04 10 00 00    	mov    0x1004,%ebx
 8048ec6:	8b 0d 08 10 00 00    	mov    0x1008,%ecx
 8048ecc:	8b 15 0c 10 00 00    	mov    0x100c,%edx
 8048ed2:	8b 2d 10 10 00 00    	mov    0x1010,%ebp
 8048ed8:	8b 35 14 10 00 00    	mov    0x1014,%esi
 8048ede:	8b 3d 18 10 00 00    	mov    0x1018,%edi
 8048ee4:	89 25 50 20 00 00    	mov    %esp,0x2050
 8048eea:	0f b1 c3             	cmpxchg %eax,%ebx
 8048eed:	a3 00 20 00 00       	mov    %eax,0x2000
 8048ef2:	89 1d 04 20 00 00    	mov    %ebx,0x2004
 8048ef8:	89 0d 08 20 00 00    	mov    %ecx,0x2008
 8048efe:	89 15 0c 20 00 00    	mov    %edx,0x200c
 8048f04:	89 2d 10 20 00 00    	mov    %ebp,0x2010
 8048f0a:	89 35 14 20 00 00    	mov    %esi,0x2014
 8048f10:	89 3d 18 20 00 00    	mov    %edi,0x2018
 8048f16:	0f 90 05 00 22 00 00 	seto   0x2200
 8048f1d:	0f 91 05 01 22 00 00 	setno  0x2201
 8048f24:	0f 92 05 02 22 00 00 	setb   0x2202
 8048f2b:	0f 93 05 03 22 00 00 	setae  0x2203
 8048f32:	0f 94 05 04 22 00 00 	sete   0x2204
 8048f39:	0f 95 05 05 22 00 00 	setne  0x2205
 8048f40:	0f 96 05 06 22 00 00 	setbe  0x2206
 8048f47:	0f 97 05 07 22 00 00 	seta   0x2207
 8048f4e:	0f 98 05 08 22 00 00 	sets   0x2208
 8048f55:	0f 99 05 09 22 00 00 	setns  0x2209
 8048f5c:	0f 9a 05 0a 22 00 00 	setp   0x220a
 8048f63:	0f 9b 05 0b 22 00 00 	setnp  0x220b
 8048f6a:	0f 9c 05 0c 22 00 00 	setl   0x220c
 8048f71:	0f 9d 05 0d 22 00 00 	setge  0x220d
 8048f78:	0f 9e 05 0e 22 00 00 	setle  0x220e
 8048f7f:	0f 9f 05 0f 22 00 00 	setg   0x220f
 8048f86:	66 9c                	pushfw 
 8048f88:	66 58                	pop    %ax
 8048f8a:	66 a3 00 21 00 00    	mov    %ax,0x2100
 8048f90:	a1 50 20 00 00       	mov    0x2050,%eax
 8048f95:	29 e0                	sub    %esp,%eax
 8048f97:	a3 20 20 00 00       	mov    %eax,0x2020
 8048f9c:	b8 00 00 00 00       	mov    $0x0,%eax
 8048fa1:	c3                   	ret    

08048fa2 <cmpxchg3_constant_simple>:
 8048fa2:	90                   	nop
 8048fa3:	66 6a 00             	pushw  $0x0
 8048fa6:	66 9d                	popfw  
 8048fa8:	b8 02 00 00 00       	mov    $0x2,%eax
 8048fad:	bb 03 00 00 00       	mov    $0x3,%ebx
 8048fb2:	b9 04 00 00 00       	mov    $0x4,%ecx
 8048fb7:	ba 05 00 00 00       	mov    $0x5,%edx
 8048fbc:	bd 06 00 00 00       	mov    $0x6,%ebp
 8048fc1:	be 07 00 00 00       	mov    $0x7,%esi
 8048fc6:	bf 08 00 00 00       	mov    $0x8,%edi
 8048fcb:	89 25 50 20 00 00    	mov    %esp,0x2050
 8048fd1:	0f b1 c3             	cmpxchg %eax,%ebx
 8048fd4:	a3 00 20 00 00       	mov    %eax,0x2000
 8048fd9:	89 1d 04 20 00 00    	mov    %ebx,0x2004
 8048fdf:	89 0d 08 20 00 00    	mov    %ecx,0x2008
 8048fe5:	89 15 0c 20 00 00    	mov    %edx,0x200c
 8048feb:	89 2d 10 20 00 00    	mov    %ebp,0x2010
 8048ff1:	89 35 14 20 00 00    	mov    %esi,0x2014
 8048ff7:	89 3d 18 20 00 00    	mov    %edi,0x2018
 8048ffd:	0f 90 05 00 22 00 00 	seto   0x2200
 8049004:	0f 91 05 01 22 00 00 	setno  0x2201
 804900b:	0f 92 05 02 22 00 00 	setb   0x2202
 8049012:	0f 93 05 03 22 00 00 	setae  0x2203
 8049019:	0f 94 05 04 22 00 00 	sete   0x2204
 8049020:	0f 95 05 05 22 00 00 	setne  0x2205
 8049027:	0f 96 05 06 22 00 00 	setbe  0x2206
 804902e:	0f 97 05 07 22 00 00 	seta   0x2207
 8049035:	0f 98 05 08 22 00 00 	sets   0x2208
 804903c:	0f 99 05 09 22 00 00 	setns  0x2209
 8049043:	0f 9a 05 0a 22 00 00 	setp   0x220a
 804904a:	0f 9b 05 0b 22 00 00 	setnp  0x220b
 8049051:	0f 9c 05 0c 22 00 00 	setl   0x220c
 8049058:	0f 9d 05 0d 22 00 00 	setge  0x220d
 804905f:	0f 9e 05 0e 22 00 00 	setle  0x220e
 8049066:	0f 9f 05 0f 22 00 00 	setg   0x220f
 804906d:	66 9c                	pushfw 
 804906f:	66 58                	pop    %ax
 8049071:	66 a3 00 21 00 00    	mov    %ax,0x2100
 8049077:	a1 50 20 00 00       	mov    0x2050,%eax
 804907c:	29 e0                	sub    %esp,%eax
 804907e:	a3 20 20 00 00       	mov    %eax,0x2020
 8049083:	b8 00 00 00 00       	mov    $0x0,%eax
 8049088:	c3                   	ret    

08049089 <cmpxchg3_constant_complex1>:
 8049089:	90                   	nop
 804908a:	66 6a 00             	pushw  $0x0
 804908d:	66 9d                	popfw  
 804908f:	b8 84 79 b1 a3       	mov    $0xa3b17984,%eax
 8049094:	bb d7 1a 67 06       	mov    $0x6671ad7,%ebx
 8049099:	b9 48 52 68 46       	mov    $0x46685248,%ecx
 804909e:	ba c4 56 24 39       	mov    $0x392456c4,%edx
 80490a3:	bd a4 60 89 bc       	mov    $0xbc8960a4,%ebp
 80490a8:	be 78 2d 3c ad       	mov    $0xad3c2d78,%esi
 80490ad:	bf 52 e1 65 e4       	mov    $0xe465e152,%edi
 80490b2:	89 25 50 20 00 00    	mov    %esp,0x2050
 80490b8:	0f b1 c3             	cmpxchg %eax,%ebx
 80490bb:	a3 00 20 00 00       	mov    %eax,0x2000
 80490c0:	89 1d 04 20 00 00    	mov    %ebx,0x2004
 80490c6:	89 0d 08 20 00 00    	mov    %ecx,0x2008
 80490cc:	89 15 0c 20 00 00    	mov    %edx,0x200c
 80490d2:	89 2d 10 20 00 00    	mov    %ebp,0x2010
 80490d8:	89 35 14 20 00 00    	mov    %esi,0x2014
 80490de:	89 3d 18 20 00 00    	mov    %edi,0x2018
 80490e4:	0f 90 05 00 22 00 00 	seto   0x2200
 80490eb:	0f 91 05 01 22 00 00 	setno  0x2201
 80490f2:	0f 92 05 02 22 00 00 	setb   0x2202
 80490f9:	0f 93 05 03 22 00 00 	setae  0x2203
 8049100:	0f 94 05 04 22 00 00 	sete   0x2204
 8049107:	0f 95 05 05 22 00 00 	setne  0x2205
 804910e:	0f 96 05 06 22 00 00 	setbe  0x2206
 8049115:	0f 97 05 07 22 00 00 	seta   0x2207
 804911c:	0f 98 05 08 22 00 00 	sets   0x2208
 8049123:	0f 99 05 09 22 00 00 	setns  0x2209
 804912a:	0f 9a 05 0a 22 00 00 	setp   0x220a
 8049131:	0f 9b 05 0b 22 00 00 	setnp  0x220b
 8049138:	0f 9c 05 0c 22 00 00 	setl   0x220c
 804913f:	0f 9d 05 0d 22 00 00 	setge  0x220d
 8049146:	0f 9e 05 0e 22 00 00 	setle  0x220e
 804914d:	0f 9f 05 0f 22 00 00 	setg   0x220f
 8049154:	66 9c                	pushfw 
 8049156:	66 58                	pop    %ax
 8049158:	66 a3 00 21 00 00    	mov    %ax,0x2100
 804915e:	a1 50 20 00 00       	mov    0x2050,%eax
 8049163:	29 e0                	sub    %esp,%eax
 8049165:	a3 20 20 00 00       	mov    %eax,0x2020
 804916a:	b8 00 00 00 00       	mov    $0x0,%eax
 804916f:	c3                   	ret    

08049170 <cmpxchg3_constant_complex2>:
 8049170:	90                   	nop
 8049171:	66 68 ff fe          	pushw  $0xfeff
 8049175:	66 9d                	popfw  
 8049177:	b8 e8 c0 3e 31       	mov    $0x313ec0e8,%eax
 804917c:	bb c3 81 6e 49       	mov    $0x496e81c3,%ebx
 8049181:	b9 b2 6c 3f 1e       	mov    $0x1e3f6cb2,%ecx
 8049186:	ba b3 25 69 4e       	mov    $0x4e6925b3,%edx
 804918b:	bd 10 26 31 4f       	mov    $0x4f312610,%ebp
 8049190:	be a5 a4 37 2f       	mov    $0x2f37a4a5,%esi
 8049195:	bf b4 17 a9 91       	mov    $0x91a917b4,%edi
 804919a:	89 25 50 20 00 00    	mov    %esp,0x2050
 80491a0:	0f b1 c3             	cmpxchg %eax,%ebx
 80491a3:	a3 00 20 00 00       	mov    %eax,0x2000
 80491a8:	89 1d 04 20 00 00    	mov    %ebx,0x2004
 80491ae:	89 0d 08 20 00 00    	mov    %ecx,0x2008
 80491b4:	89 15 0c 20 00 00    	mov    %edx,0x200c
 80491ba:	89 2d 10 20 00 00    	mov    %ebp,0x2010
 80491c0:	89 35 14 20 00 00    	mov    %esi,0x2014
 80491c6:	89 3d 18 20 00 00    	mov    %edi,0x2018
 80491cc:	0f 90 05 00 22 00 00 	seto   0x2200
 80491d3:	0f 91 05 01 22 00 00 	setno  0x2201
 80491da:	0f 92 05 02 22 00 00 	setb   0x2202
 80491e1:	0f 93 05 03 22 00 00 	setae  0x2203
 80491e8:	0f 94 05 04 22 00 00 	sete   0x2204
 80491ef:	0f 95 05 05 22 00 00 	setne  0x2205
 80491f6:	0f 96 05 06 22 00 00 	setbe  0x2206
 80491fd:	0f 97 05 07 22 00 00 	seta   0x2207
 8049204:	0f 98 05 08 22 00 00 	sets   0x2208
 804920b:	0f 99 05 09 22 00 00 	setns  0x2209
 8049212:	0f 9a 05 0a 22 00 00 	setp   0x220a
 8049219:	0f 9b 05 0b 22 00 00 	setnp  0x220b
 8049220:	0f 9c 05 0c 22 00 00 	setl   0x220c
 8049227:	0f 9d 05 0d 22 00 00 	setge  0x220d
 804922e:	0f 9e 05 0e 22 00 00 	setle  0x220e
 8049235:	0f 9f 05 0f 22 00 00 	setg   0x220f
 804923c:	66 9c                	pushfw 
 804923e:	66 58                	pop    %ax
 8049240:	66 a3 00 21 00 00    	mov    %ax,0x2100
 8049246:	a1 50 20 00 00       	mov    0x2050,%eax
 804924b:	29 e0                	sub    %esp,%eax
 804924d:	a3 20 20 00 00       	mov    %eax,0x2020
 8049252:	b8 00 00 00 00       	mov    $0x0,%eax
 8049257:	c3                   	ret    

08049258 <cmpxchg4_mv_plain>:
 8049258:	0f b1 03             	cmpxchg %eax,(%ebx)
 804925b:	b8 00 00 00 00       	mov    $0x0,%eax
 8049260:	c3                   	ret    

08049261 <cmpxchg4_mv_allregs>:
 8049261:	90                   	nop
 8049262:	66 a1 00 11 00 00    	mov    0x1100,%ax
 8049268:	66 50                	push   %ax
 804926a:	66 9d                	popfw  
 804926c:	a1 00 10 00 00       	mov    0x1000,%eax
 8049271:	8b 1d 04 10 00 00    	mov    0x1004,%ebx
 8049277:	8b 0d 08 10 00 00    	mov    0x1008,%ecx
 804927d:	8b 15 0c 10 00 00    	mov    0x100c,%edx
 8049283:	8b 2d 10 10 00 00    	mov    0x1010,%ebp
 8049289:	8b 35 14 10 00 00    	mov    0x1014,%esi
 804928f:	8b 3d 18 10 00 00    	mov    0x1018,%edi
 8049295:	89 25 50 20 00 00    	mov    %esp,0x2050
 804929b:	0f b1 03             	cmpxchg %eax,(%ebx)
 804929e:	a3 00 20 00 00       	mov    %eax,0x2000
 80492a3:	89 1d 04 20 00 00    	mov    %ebx,0x2004
 80492a9:	89 0d 08 20 00 00    	mov    %ecx,0x2008
 80492af:	89 15 0c 20 00 00    	mov    %edx,0x200c
 80492b5:	89 2d 10 20 00 00    	mov    %ebp,0x2010
 80492bb:	89 35 14 20 00 00    	mov    %esi,0x2014
 80492c1:	89 3d 18 20 00 00    	mov    %edi,0x2018
 80492c7:	0f 90 05 00 22 00 00 	seto   0x2200
 80492ce:	0f 91 05 01 22 00 00 	setno  0x2201
 80492d5:	0f 92 05 02 22 00 00 	setb   0x2202
 80492dc:	0f 93 05 03 22 00 00 	setae  0x2203
 80492e3:	0f 94 05 04 22 00 00 	sete   0x2204
 80492ea:	0f 95 05 05 22 00 00 	setne  0x2205
 80492f1:	0f 96 05 06 22 00 00 	setbe  0x2206
 80492f8:	0f 97 05 07 22 00 00 	seta   0x2207
 80492ff:	0f 98 05 08 22 00 00 	sets   0x2208
 8049306:	0f 99 05 09 22 00 00 	setns  0x2209
 804930d:	0f 9a 05 0a 22 00 00 	setp   0x220a
 8049314:	0f 9b 05 0b 22 00 00 	setnp  0x220b
 804931b:	0f 9c 05 0c 22 00 00 	setl   0x220c
 8049322:	0f 9d 05 0d 22 00 00 	setge  0x220d
 8049329:	0f 9e 05 0e 22 00 00 	setle  0x220e
 8049330:	0f 9f 05 0f 22 00 00 	setg   0x220f
 8049337:	66 9c                	pushfw 
 8049339:	66 58                	pop    %ax
 804933b:	66 a3 00 21 00 00    	mov    %ax,0x2100
 8049341:	a1 50 20 00 00       	mov    0x2050,%eax
 8049346:	29 e0                	sub    %esp,%eax
 8049348:	a3 20 20 00 00       	mov    %eax,0x2020
 804934d:	b8 00 00 00 00       	mov    $0x0,%eax
 8049352:	c3                   	ret    

08049353 <cmpxchg4_mv_constant_simple>:
 8049353:	90                   	nop
 8049354:	66 6a 00             	pushw  $0x0
 8049357:	66 9d                	popfw  
 8049359:	b8 02 00 00 00       	mov    $0x2,%eax
 804935e:	bb 03 00 00 00       	mov    $0x3,%ebx
 8049363:	b9 04 00 00 00       	mov    $0x4,%ecx
 8049368:	ba 05 00 00 00       	mov    $0x5,%edx
 804936d:	bd 06 00 00 00       	mov    $0x6,%ebp
 8049372:	be 07 00 00 00       	mov    $0x7,%esi
 8049377:	bf 08 00 00 00       	mov    $0x8,%edi
 804937c:	89 25 50 20 00 00    	mov    %esp,0x2050
 8049382:	0f b1 03             	cmpxchg %eax,(%ebx)
 8049385:	a3 00 20 00 00       	mov    %eax,0x2000
 804938a:	89 1d 04 20 00 00    	mov    %ebx,0x2004
 8049390:	89 0d 08 20 00 00    	mov    %ecx,0x2008
 8049396:	89 15 0c 20 00 00    	mov    %edx,0x200c
 804939c:	89 2d 10 20 00 00    	mov    %ebp,0x2010
 80493a2:	89 35 14 20 00 00    	mov    %esi,0x2014
 80493a8:	89 3d 18 20 00 00    	mov    %edi,0x2018
 80493ae:	0f 90 05 00 22 00 00 	seto   0x2200
 80493b5:	0f 91 05 01 22 00 00 	setno  0x2201
 80493bc:	0f 92 05 02 22 00 00 	setb   0x2202
 80493c3:	0f 93 05 03 22 00 00 	setae  0x2203
 80493ca:	0f 94 05 04 22 00 00 	sete   0x2204
 80493d1:	0f 95 05 05 22 00 00 	setne  0x2205
 80493d8:	0f 96 05 06 22 00 00 	setbe  0x2206
 80493df:	0f 97 05 07 22 00 00 	seta   0x2207
 80493e6:	0f 98 05 08 22 00 00 	sets   0x2208
 80493ed:	0f 99 05 09 22 00 00 	setns  0x2209
 80493f4:	0f 9a 05 0a 22 00 00 	setp   0x220a
 80493fb:	0f 9b 05 0b 22 00 00 	setnp  0x220b
 8049402:	0f 9c 05 0c 22 00 00 	setl   0x220c
 8049409:	0f 9d 05 0d 22 00 00 	setge  0x220d
 8049410:	0f 9e 05 0e 22 00 00 	setle  0x220e
 8049417:	0f 9f 05 0f 22 00 00 	setg   0x220f
 804941e:	66 9c                	pushfw 
 8049420:	66 58                	pop    %ax
 8049422:	66 a3 00 21 00 00    	mov    %ax,0x2100
 8049428:	a1 50 20 00 00       	mov    0x2050,%eax
 804942d:	29 e0                	sub    %esp,%eax
 804942f:	a3 20 20 00 00       	mov    %eax,0x2020
 8049434:	b8 00 00 00 00       	mov    $0x0,%eax
 8049439:	c3                   	ret    

0804943a <cmpxchg4_mv_constant_complex1>:
 804943a:	90                   	nop
 804943b:	66 6a 00             	pushw  $0x0
 804943e:	66 9d                	popfw  
 8049440:	b8 84 79 b1 a3       	mov    $0xa3b17984,%eax
 8049445:	bb d7 1a 67 06       	mov    $0x6671ad7,%ebx
 804944a:	b9 48 52 68 46       	mov    $0x46685248,%ecx
 804944f:	ba c4 56 24 39       	mov    $0x392456c4,%edx
 8049454:	bd a4 60 89 bc       	mov    $0xbc8960a4,%ebp
 8049459:	be 78 2d 3c ad       	mov    $0xad3c2d78,%esi
 804945e:	bf 52 e1 65 e4       	mov    $0xe465e152,%edi
 8049463:	89 25 50 20 00 00    	mov    %esp,0x2050
 8049469:	0f b1 03             	cmpxchg %eax,(%ebx)
 804946c:	a3 00 20 00 00       	mov    %eax,0x2000
 8049471:	89 1d 04 20 00 00    	mov    %ebx,0x2004
 8049477:	89 0d 08 20 00 00    	mov    %ecx,0x2008
 804947d:	89 15 0c 20 00 00    	mov    %edx,0x200c
 8049483:	89 2d 10 20 00 00    	mov    %ebp,0x2010
 8049489:	89 35 14 20 00 00    	mov    %esi,0x2014
 804948f:	89 3d 18 20 00 00    	mov    %edi,0x2018
 8049495:	0f 90 05 00 22 00 00 	seto   0x2200
 804949c:	0f 91 05 01 22 00 00 	setno  0x2201
 80494a3:	0f 92 05 02 22 00 00 	setb   0x2202
 80494aa:	0f 93 05 03 22 00 00 	setae  0x2203
 80494b1:	0f 94 05 04 22 00 00 	sete   0x2204
 80494b8:	0f 95 05 05 22 00 00 	setne  0x2205
 80494bf:	0f 96 05 06 22 00 00 	setbe  0x2206
 80494c6:	0f 97 05 07 22 00 00 	seta   0x2207
 80494cd:	0f 98 05 08 22 00 00 	sets   0x2208
 80494d4:	0f 99 05 09 22 00 00 	setns  0x2209
 80494db:	0f 9a 05 0a 22 00 00 	setp   0x220a
 80494e2:	0f 9b 05 0b 22 00 00 	setnp  0x220b
 80494e9:	0f 9c 05 0c 22 00 00 	setl   0x220c
 80494f0:	0f 9d 05 0d 22 00 00 	setge  0x220d
 80494f7:	0f 9e 05 0e 22 00 00 	setle  0x220e
 80494fe:	0f 9f 05 0f 22 00 00 	setg   0x220f
 8049505:	66 9c                	pushfw 
 8049507:	66 58                	pop    %ax
 8049509:	66 a3 00 21 00 00    	mov    %ax,0x2100
 804950f:	a1 50 20 00 00       	mov    0x2050,%eax
 8049514:	29 e0                	sub    %esp,%eax
 8049516:	a3 20 20 00 00       	mov    %eax,0x2020
 804951b:	b8 00 00 00 00       	mov    $0x0,%eax
 8049520:	c3                   	ret    

08049521 <cmpxchg4_mv_constant_complex2>:
 8049521:	90                   	nop
 8049522:	66 68 ff fe          	pushw  $0xfeff
 8049526:	66 9d                	popfw  
 8049528:	b8 e8 c0 3e 31       	mov    $0x313ec0e8,%eax
 804952d:	bb c3 81 6e 49       	mov    $0x496e81c3,%ebx
 8049532:	b9 b2 6c 3f 1e       	mov    $0x1e3f6cb2,%ecx
 8049537:	ba b3 25 69 4e       	mov    $0x4e6925b3,%edx
 804953c:	bd 10 26 31 4f       	mov    $0x4f312610,%ebp
 8049541:	be a5 a4 37 2f       	mov    $0x2f37a4a5,%esi
 8049546:	bf b4 17 a9 91       	mov    $0x91a917b4,%edi
 804954b:	89 25 50 20 00 00    	mov    %esp,0x2050
 8049551:	0f b1 03             	cmpxchg %eax,(%ebx)
 8049554:	a3 00 20 00 00       	mov    %eax,0x2000
 8049559:	89 1d 04 20 00 00    	mov    %ebx,0x2004
 804955f:	89 0d 08 20 00 00    	mov    %ecx,0x2008
 8049565:	89 15 0c 20 00 00    	mov    %edx,0x200c
 804956b:	89 2d 10 20 00 00    	mov    %ebp,0x2010
 8049571:	89 35 14 20 00 00    	mov    %esi,0x2014
 8049577:	89 3d 18 20 00 00    	mov    %edi,0x2018
 804957d:	0f 90 05 00 22 00 00 	seto   0x2200
 8049584:	0f 91 05 01 22 00 00 	setno  0x2201
 804958b:	0f 92 05 02 22 00 00 	setb   0x2202
 8049592:	0f 93 05 03 22 00 00 	setae  0x2203
 8049599:	0f 94 05 04 22 00 00 	sete   0x2204
 80495a0:	0f 95 05 05 22 00 00 	setne  0x2205
 80495a7:	0f 96 05 06 22 00 00 	setbe  0x2206
 80495ae:	0f 97 05 07 22 00 00 	seta   0x2207
 80495b5:	0f 98 05 08 22 00 00 	sets   0x2208
 80495bc:	0f 99 05 09 22 00 00 	setns  0x2209
 80495c3:	0f 9a 05 0a 22 00 00 	setp   0x220a
 80495ca:	0f 9b 05 0b 22 00 00 	setnp  0x220b
 80495d1:	0f 9c 05 0c 22 00 00 	setl   0x220c
 80495d8:	0f 9d 05 0d 22 00 00 	setge  0x220d
 80495df:	0f 9e 05 0e 22 00 00 	setle  0x220e
 80495e6:	0f 9f 05 0f 22 00 00 	setg   0x220f
 80495ed:	66 9c                	pushfw 
 80495ef:	66 58                	pop    %ax
 80495f1:	66 a3 00 21 00 00    	mov    %ax,0x2100
 80495f7:	a1 50 20 00 00       	mov    0x2050,%eax
 80495fc:	29 e0                	sub    %esp,%eax
 80495fe:	a3 20 20 00 00       	mov    %eax,0x2020
 8049603:	b8 00 00 00 00       	mov    $0x0,%eax
 8049608:	c3                   	ret    

08049609 <cmpxchg5_mv_plain>:
 8049609:	0f b0 c0             	cmpxchg %al,%al
 804960c:	b8 00 00 00 00       	mov    $0x0,%eax
 8049611:	c3                   	ret    

08049612 <cmpxchg5_mv_allregs>:
 8049612:	90                   	nop
 8049613:	66 a1 00 11 00 00    	mov    0x1100,%ax
 8049619:	66 50                	push   %ax
 804961b:	66 9d                	popfw  
 804961d:	a1 00 10 00 00       	mov    0x1000,%eax
 8049622:	8b 1d 04 10 00 00    	mov    0x1004,%ebx
 8049628:	8b 0d 08 10 00 00    	mov    0x1008,%ecx
 804962e:	8b 15 0c 10 00 00    	mov    0x100c,%edx
 8049634:	8b 2d 10 10 00 00    	mov    0x1010,%ebp
 804963a:	8b 35 14 10 00 00    	mov    0x1014,%esi
 8049640:	8b 3d 18 10 00 00    	mov    0x1018,%edi
 8049646:	89 25 50 20 00 00    	mov    %esp,0x2050
 804964c:	0f b0 c0             	cmpxchg %al,%al
 804964f:	a3 00 20 00 00       	mov    %eax,0x2000
 8049654:	89 1d 04 20 00 00    	mov    %ebx,0x2004
 804965a:	89 0d 08 20 00 00    	mov    %ecx,0x2008
 8049660:	89 15 0c 20 00 00    	mov    %edx,0x200c
 8049666:	89 2d 10 20 00 00    	mov    %ebp,0x2010
 804966c:	89 35 14 20 00 00    	mov    %esi,0x2014
 8049672:	89 3d 18 20 00 00    	mov    %edi,0x2018
 8049678:	0f 90 05 00 22 00 00 	seto   0x2200
 804967f:	0f 91 05 01 22 00 00 	setno  0x2201
 8049686:	0f 92 05 02 22 00 00 	setb   0x2202
 804968d:	0f 93 05 03 22 00 00 	setae  0x2203
 8049694:	0f 94 05 04 22 00 00 	sete   0x2204
 804969b:	0f 95 05 05 22 00 00 	setne  0x2205
 80496a2:	0f 96 05 06 22 00 00 	setbe  0x2206
 80496a9:	0f 97 05 07 22 00 00 	seta   0x2207
 80496b0:	0f 98 05 08 22 00 00 	sets   0x2208
 80496b7:	0f 99 05 09 22 00 00 	setns  0x2209
 80496be:	0f 9a 05 0a 22 00 00 	setp   0x220a
 80496c5:	0f 9b 05 0b 22 00 00 	setnp  0x220b
 80496cc:	0f 9c 05 0c 22 00 00 	setl   0x220c
 80496d3:	0f 9d 05 0d 22 00 00 	setge  0x220d
 80496da:	0f 9e 05 0e 22 00 00 	setle  0x220e
 80496e1:	0f 9f 05 0f 22 00 00 	setg   0x220f
 80496e8:	66 9c                	pushfw 
 80496ea:	66 58                	pop    %ax
 80496ec:	66 a3 00 21 00 00    	mov    %ax,0x2100
 80496f2:	a1 50 20 00 00       	mov    0x2050,%eax
 80496f7:	29 e0                	sub    %esp,%eax
 80496f9:	a3 20 20 00 00       	mov    %eax,0x2020
 80496fe:	b8 00 00 00 00       	mov    $0x0,%eax
 8049703:	c3                   	ret    

08049704 <cmpxchg5_mv_constant_simple>:
 8049704:	90                   	nop
 8049705:	66 6a 00             	pushw  $0x0
 8049708:	66 9d                	popfw  
 804970a:	b8 02 00 00 00       	mov    $0x2,%eax
 804970f:	bb 03 00 00 00       	mov    $0x3,%ebx
 8049714:	b9 04 00 00 00       	mov    $0x4,%ecx
 8049719:	ba 05 00 00 00       	mov    $0x5,%edx
 804971e:	bd 06 00 00 00       	mov    $0x6,%ebp
 8049723:	be 07 00 00 00       	mov    $0x7,%esi
 8049728:	bf 08 00 00 00       	mov    $0x8,%edi
 804972d:	89 25 50 20 00 00    	mov    %esp,0x2050
 8049733:	0f b0 c0             	cmpxchg %al,%al
 8049736:	a3 00 20 00 00       	mov    %eax,0x2000
 804973b:	89 1d 04 20 00 00    	mov    %ebx,0x2004
 8049741:	89 0d 08 20 00 00    	mov    %ecx,0x2008
 8049747:	89 15 0c 20 00 00    	mov    %edx,0x200c
 804974d:	89 2d 10 20 00 00    	mov    %ebp,0x2010
 8049753:	89 35 14 20 00 00    	mov    %esi,0x2014
 8049759:	89 3d 18 20 00 00    	mov    %edi,0x2018
 804975f:	0f 90 05 00 22 00 00 	seto   0x2200
 8049766:	0f 91 05 01 22 00 00 	setno  0x2201
 804976d:	0f 92 05 02 22 00 00 	setb   0x2202
 8049774:	0f 93 05 03 22 00 00 	setae  0x2203
 804977b:	0f 94 05 04 22 00 00 	sete   0x2204
 8049782:	0f 95 05 05 22 00 00 	setne  0x2205
 8049789:	0f 96 05 06 22 00 00 	setbe  0x2206
 8049790:	0f 97 05 07 22 00 00 	seta   0x2207
 8049797:	0f 98 05 08 22 00 00 	sets   0x2208
 804979e:	0f 99 05 09 22 00 00 	setns  0x2209
 80497a5:	0f 9a 05 0a 22 00 00 	setp   0x220a
 80497ac:	0f 9b 05 0b 22 00 00 	setnp  0x220b
 80497b3:	0f 9c 05 0c 22 00 00 	setl   0x220c
 80497ba:	0f 9d 05 0d 22 00 00 	setge  0x220d
 80497c1:	0f 9e 05 0e 22 00 00 	setle  0x220e
 80497c8:	0f 9f 05 0f 22 00 00 	setg   0x220f
 80497cf:	66 9c                	pushfw 
 80497d1:	66 58                	pop    %ax
 80497d3:	66 a3 00 21 00 00    	mov    %ax,0x2100
 80497d9:	a1 50 20 00 00       	mov    0x2050,%eax
 80497de:	29 e0                	sub    %esp,%eax
 80497e0:	a3 20 20 00 00       	mov    %eax,0x2020
 80497e5:	b8 00 00 00 00       	mov    $0x0,%eax
 80497ea:	c3                   	ret    

080497eb <cmpxchg5_mv_constant_complex1>:
 80497eb:	90                   	nop
 80497ec:	66 6a 00             	pushw  $0x0
 80497ef:	66 9d                	popfw  
 80497f1:	b8 84 79 b1 a3       	mov    $0xa3b17984,%eax
 80497f6:	bb d7 1a 67 06       	mov    $0x6671ad7,%ebx
 80497fb:	b9 48 52 68 46       	mov    $0x46685248,%ecx
 8049800:	ba c4 56 24 39       	mov    $0x392456c4,%edx
 8049805:	bd a4 60 89 bc       	mov    $0xbc8960a4,%ebp
 804980a:	be 78 2d 3c ad       	mov    $0xad3c2d78,%esi
 804980f:	bf 52 e1 65 e4       	mov    $0xe465e152,%edi
 8049814:	89 25 50 20 00 00    	mov    %esp,0x2050
 804981a:	0f b0 c0             	cmpxchg %al,%al
 804981d:	a3 00 20 00 00       	mov    %eax,0x2000
 8049822:	89 1d 04 20 00 00    	mov    %ebx,0x2004
 8049828:	89 0d 08 20 00 00    	mov    %ecx,0x2008
 804982e:	89 15 0c 20 00 00    	mov    %edx,0x200c
 8049834:	89 2d 10 20 00 00    	mov    %ebp,0x2010
 804983a:	89 35 14 20 00 00    	mov    %esi,0x2014
 8049840:	89 3d 18 20 00 00    	mov    %edi,0x2018
 8049846:	0f 90 05 00 22 00 00 	seto   0x2200
 804984d:	0f 91 05 01 22 00 00 	setno  0x2201
 8049854:	0f 92 05 02 22 00 00 	setb   0x2202
 804985b:	0f 93 05 03 22 00 00 	setae  0x2203
 8049862:	0f 94 05 04 22 00 00 	sete   0x2204
 8049869:	0f 95 05 05 22 00 00 	setne  0x2205
 8049870:	0f 96 05 06 22 00 00 	setbe  0x2206
 8049877:	0f 97 05 07 22 00 00 	seta   0x2207
 804987e:	0f 98 05 08 22 00 00 	sets   0x2208
 8049885:	0f 99 05 09 22 00 00 	setns  0x2209
 804988c:	0f 9a 05 0a 22 00 00 	setp   0x220a
 8049893:	0f 9b 05 0b 22 00 00 	setnp  0x220b
 804989a:	0f 9c 05 0c 22 00 00 	setl   0x220c
 80498a1:	0f 9d 05 0d 22 00 00 	setge  0x220d
 80498a8:	0f 9e 05 0e 22 00 00 	setle  0x220e
 80498af:	0f 9f 05 0f 22 00 00 	setg   0x220f
 80498b6:	66 9c                	pushfw 
 80498b8:	66 58                	pop    %ax
 80498ba:	66 a3 00 21 00 00    	mov    %ax,0x2100
 80498c0:	a1 50 20 00 00       	mov    0x2050,%eax
 80498c5:	29 e0                	sub    %esp,%eax
 80498c7:	a3 20 20 00 00       	mov    %eax,0x2020
 80498cc:	b8 00 00 00 00       	mov    $0x0,%eax
 80498d1:	c3                   	ret    

080498d2 <cmpxchg5_mv_constant_complex2>:
 80498d2:	90                   	nop
 80498d3:	66 68 ff fe          	pushw  $0xfeff
 80498d7:	66 9d                	popfw  
 80498d9:	b8 e8 c0 3e 31       	mov    $0x313ec0e8,%eax
 80498de:	bb c3 81 6e 49       	mov    $0x496e81c3,%ebx
 80498e3:	b9 b2 6c 3f 1e       	mov    $0x1e3f6cb2,%ecx
 80498e8:	ba b3 25 69 4e       	mov    $0x4e6925b3,%edx
 80498ed:	bd 10 26 31 4f       	mov    $0x4f312610,%ebp
 80498f2:	be a5 a4 37 2f       	mov    $0x2f37a4a5,%esi
 80498f7:	bf b4 17 a9 91       	mov    $0x91a917b4,%edi
 80498fc:	89 25 50 20 00 00    	mov    %esp,0x2050
 8049902:	0f b0 c0             	cmpxchg %al,%al
 8049905:	a3 00 20 00 00       	mov    %eax,0x2000
 804990a:	89 1d 04 20 00 00    	mov    %ebx,0x2004
 8049910:	89 0d 08 20 00 00    	mov    %ecx,0x2008
 8049916:	89 15 0c 20 00 00    	mov    %edx,0x200c
 804991c:	89 2d 10 20 00 00    	mov    %ebp,0x2010
 8049922:	89 35 14 20 00 00    	mov    %esi,0x2014
 8049928:	89 3d 18 20 00 00    	mov    %edi,0x2018
 804992e:	0f 90 05 00 22 00 00 	seto   0x2200
 8049935:	0f 91 05 01 22 00 00 	setno  0x2201
 804993c:	0f 92 05 02 22 00 00 	setb   0x2202
 8049943:	0f 93 05 03 22 00 00 	setae  0x2203
 804994a:	0f 94 05 04 22 00 00 	sete   0x2204
 8049951:	0f 95 05 05 22 00 00 	setne  0x2205
 8049958:	0f 96 05 06 22 00 00 	setbe  0x2206
 804995f:	0f 97 05 07 22 00 00 	seta   0x2207
 8049966:	0f 98 05 08 22 00 00 	sets   0x2208
 804996d:	0f 99 05 09 22 00 00 	setns  0x2209
 8049974:	0f 9a 05 0a 22 00 00 	setp   0x220a
 804997b:	0f 9b 05 0b 22 00 00 	setnp  0x220b
 8049982:	0f 9c 05 0c 22 00 00 	setl   0x220c
 8049989:	0f 9d 05 0d 22 00 00 	setge  0x220d
 8049990:	0f 9e 05 0e 22 00 00 	setle  0x220e
 8049997:	0f 9f 05 0f 22 00 00 	setg   0x220f
 804999e:	66 9c                	pushfw 
 80499a0:	66 58                	pop    %ax
 80499a2:	66 a3 00 21 00 00    	mov    %ax,0x2100
 80499a8:	a1 50 20 00 00       	mov    0x2050,%eax
 80499ad:	29 e0                	sub    %esp,%eax
 80499af:	a3 20 20 00 00       	mov    %eax,0x2020
 80499b4:	b8 00 00 00 00       	mov    $0x0,%eax
 80499b9:	c3                   	ret    

080499ba <cmpxchg_locked_mv_plain>:
 80499ba:	f0 0f b1 03          	lock cmpxchg %eax,(%ebx)
 80499be:	b8 00 00 00 00       	mov    $0x0,%eax
 80499c3:	c3                   	ret    

080499c4 <cmpxchg_locked_mv_allregs>:
 80499c4:	90                   	nop
 80499c5:	66 a1 00 11 00 00    	mov    0x1100,%ax
 80499cb:	66 50                	push   %ax
 80499cd:	66 9d                	popfw  
 80499cf:	a1 00 10 00 00       	mov    0x1000,%eax
 80499d4:	8b 1d 04 10 00 00    	mov    0x1004,%ebx
 80499da:	8b 0d 08 10 00 00    	mov    0x1008,%ecx
 80499e0:	8b 15 0c 10 00 00    	mov    0x100c,%edx
 80499e6:	8b 2d 10 10 00 00    	mov    0x1010,%ebp
 80499ec:	8b 35 14 10 00 00    	mov    0x1014,%esi
 80499f2:	8b 3d 18 10 00 00    	mov    0x1018,%edi
 80499f8:	89 25 50 20 00 00    	mov    %esp,0x2050
 80499fe:	f0 0f b1 03          	lock cmpxchg %eax,(%ebx)
 8049a02:	a3 00 20 00 00       	mov    %eax,0x2000
 8049a07:	89 1d 04 20 00 00    	mov    %ebx,0x2004
 8049a0d:	89 0d 08 20 00 00    	mov    %ecx,0x2008
 8049a13:	89 15 0c 20 00 00    	mov    %edx,0x200c
 8049a19:	89 2d 10 20 00 00    	mov    %ebp,0x2010
 8049a1f:	89 35 14 20 00 00    	mov    %esi,0x2014
 8049a25:	89 3d 18 20 00 00    	mov    %edi,0x2018
 8049a2b:	0f 90 05 00 22 00 00 	seto   0x2200
 8049a32:	0f 91 05 01 22 00 00 	setno  0x2201
 8049a39:	0f 92 05 02 22 00 00 	setb   0x2202
 8049a40:	0f 93 05 03 22 00 00 	setae  0x2203
 8049a47:	0f 94 05 04 22 00 00 	sete   0x2204
 8049a4e:	0f 95 05 05 22 00 00 	setne  0x2205
 8049a55:	0f 96 05 06 22 00 00 	setbe  0x2206
 8049a5c:	0f 97 05 07 22 00 00 	seta   0x2207
 8049a63:	0f 98 05 08 22 00 00 	sets   0x2208
 8049a6a:	0f 99 05 09 22 00 00 	setns  0x2209
 8049a71:	0f 9a 05 0a 22 00 00 	setp   0x220a
 8049a78:	0f 9b 05 0b 22 00 00 	setnp  0x220b
 8049a7f:	0f 9c 05 0c 22 00 00 	setl   0x220c
 8049a86:	0f 9d 05 0d 22 00 00 	setge  0x220d
 8049a8d:	0f 9e 05 0e 22 00 00 	setle  0x220e
 8049a94:	0f 9f 05 0f 22 00 00 	setg   0x220f
 8049a9b:	66 9c                	pushfw 
 8049a9d:	66 58                	pop    %ax
 8049a9f:	66 a3 00 21 00 00    	mov    %ax,0x2100
 8049aa5:	a1 50 20 00 00       	mov    0x2050,%eax
 8049aaa:	29 e0                	sub    %esp,%eax
 8049aac:	a3 20 20 00 00       	mov    %eax,0x2020
 8049ab1:	b8 00 00 00 00       	mov    $0x0,%eax
 8049ab6:	c3                   	ret    

08049ab7 <cmpxchg_locked_mv_constant_simple>:
 8049ab7:	90                   	nop
 8049ab8:	66 6a 00             	pushw  $0x0
 8049abb:	66 9d                	popfw  
 8049abd:	b8 02 00 00 00       	mov    $0x2,%eax
 8049ac2:	bb 03 00 00 00       	mov    $0x3,%ebx
 8049ac7:	b9 04 00 00 00       	mov    $0x4,%ecx
 8049acc:	ba 05 00 00 00       	mov    $0x5,%edx
 8049ad1:	bd 06 00 00 00       	mov    $0x6,%ebp
 8049ad6:	be 07 00 00 00       	mov    $0x7,%esi
 8049adb:	bf 08 00 00 00       	mov    $0x8,%edi
 8049ae0:	89 25 50 20 00 00    	mov    %esp,0x2050
 8049ae6:	f0 0f b1 03          	lock cmpxchg %eax,(%ebx)
 8049aea:	a3 00 20 00 00       	mov    %eax,0x2000
 8049aef:	89 1d 04 20 00 00    	mov    %ebx,0x2004
 8049af5:	89 0d 08 20 00 00    	mov    %ecx,0x2008
 8049afb:	89 15 0c 20 00 00    	mov    %edx,0x200c
 8049b01:	89 2d 10 20 00 00    	mov    %ebp,0x2010
 8049b07:	89 35 14 20 00 00    	mov    %esi,0x2014
 8049b0d:	89 3d 18 20 00 00    	mov    %edi,0x2018
 8049b13:	0f 90 05 00 22 00 00 	seto   0x2200
 8049b1a:	0f 91 05 01 22 00 00 	setno  0x2201
 8049b21:	0f 92 05 02 22 00 00 	setb   0x2202
 8049b28:	0f 93 05 03 22 00 00 	setae  0x2203
 8049b2f:	0f 94 05 04 22 00 00 	sete   0x2204
 8049b36:	0f 95 05 05 22 00 00 	setne  0x2205
 8049b3d:	0f 96 05 06 22 00 00 	setbe  0x2206
 8049b44:	0f 97 05 07 22 00 00 	seta   0x2207
 8049b4b:	0f 98 05 08 22 00 00 	sets   0x2208
 8049b52:	0f 99 05 09 22 00 00 	setns  0x2209
 8049b59:	0f 9a 05 0a 22 00 00 	setp   0x220a
 8049b60:	0f 9b 05 0b 22 00 00 	setnp  0x220b
 8049b67:	0f 9c 05 0c 22 00 00 	setl   0x220c
 8049b6e:	0f 9d 05 0d 22 00 00 	setge  0x220d
 8049b75:	0f 9e 05 0e 22 00 00 	setle  0x220e
 8049b7c:	0f 9f 05 0f 22 00 00 	setg   0x220f
 8049b83:	66 9c                	pushfw 
 8049b85:	66 58                	pop    %ax
 8049b87:	66 a3 00 21 00 00    	mov    %ax,0x2100
 8049b8d:	a1 50 20 00 00       	mov    0x2050,%eax
 8049b92:	29 e0                	sub    %esp,%eax
 8049b94:	a3 20 20 00 00       	mov    %eax,0x2020
 8049b99:	b8 00 00 00 00       	mov    $0x0,%eax
 8049b9e:	c3                   	ret    

08049b9f <cmpxchg_locked_mv_constant_complex1>:
 8049b9f:	90                   	nop
 8049ba0:	66 6a 00             	pushw  $0x0
 8049ba3:	66 9d                	popfw  
 8049ba5:	b8 84 79 b1 a3       	mov    $0xa3b17984,%eax
 8049baa:	bb d7 1a 67 06       	mov    $0x6671ad7,%ebx
 8049baf:	b9 48 52 68 46       	mov    $0x46685248,%ecx
 8049bb4:	ba c4 56 24 39       	mov    $0x392456c4,%edx
 8049bb9:	bd a4 60 89 bc       	mov    $0xbc8960a4,%ebp
 8049bbe:	be 78 2d 3c ad       	mov    $0xad3c2d78,%esi
 8049bc3:	bf 52 e1 65 e4       	mov    $0xe465e152,%edi
 8049bc8:	89 25 50 20 00 00    	mov    %esp,0x2050
 8049bce:	f0 0f b1 03          	lock cmpxchg %eax,(%ebx)
 8049bd2:	a3 00 20 00 00       	mov    %eax,0x2000
 8049bd7:	89 1d 04 20 00 00    	mov    %ebx,0x2004
 8049bdd:	89 0d 08 20 00 00    	mov    %ecx,0x2008
 8049be3:	89 15 0c 20 00 00    	mov    %edx,0x200c
 8049be9:	89 2d 10 20 00 00    	mov    %ebp,0x2010
 8049bef:	89 35 14 20 00 00    	mov    %esi,0x2014
 8049bf5:	89 3d 18 20 00 00    	mov    %edi,0x2018
 8049bfb:	0f 90 05 00 22 00 00 	seto   0x2200
 8049c02:	0f 91 05 01 22 00 00 	setno  0x2201
 8049c09:	0f 92 05 02 22 00 00 	setb   0x2202
 8049c10:	0f 93 05 03 22 00 00 	setae  0x2203
 8049c17:	0f 94 05 04 22 00 00 	sete   0x2204
 8049c1e:	0f 95 05 05 22 00 00 	setne  0x2205
 8049c25:	0f 96 05 06 22 00 00 	setbe  0x2206
 8049c2c:	0f 97 05 07 22 00 00 	seta   0x2207
 8049c33:	0f 98 05 08 22 00 00 	sets   0x2208
 8049c3a:	0f 99 05 09 22 00 00 	setns  0x2209
 8049c41:	0f 9a 05 0a 22 00 00 	setp   0x220a
 8049c48:	0f 9b 05 0b 22 00 00 	setnp  0x220b
 8049c4f:	0f 9c 05 0c 22 00 00 	setl   0x220c
 8049c56:	0f 9d 05 0d 22 00 00 	setge  0x220d
 8049c5d:	0f 9e 05 0e 22 00 00 	setle  0x220e
 8049c64:	0f 9f 05 0f 22 00 00 	setg   0x220f
 8049c6b:	66 9c                	pushfw 
 8049c6d:	66 58                	pop    %ax
 8049c6f:	66 a3 00 21 00 00    	mov    %ax,0x2100
 8049c75:	a1 50 20 00 00       	mov    0x2050,%eax
 8049c7a:	29 e0                	sub    %esp,%eax
 8049c7c:	a3 20 20 00 00       	mov    %eax,0x2020
 8049c81:	b8 00 00 00 00       	mov    $0x0,%eax
 8049c86:	c3                   	ret    

08049c87 <cmpxchg_locked_mv_constant_complex2>:
 8049c87:	90                   	nop
 8049c88:	66 68 ff fe          	pushw  $0xfeff
 8049c8c:	66 9d                	popfw  
 8049c8e:	b8 e8 c0 3e 31       	mov    $0x313ec0e8,%eax
 8049c93:	bb c3 81 6e 49       	mov    $0x496e81c3,%ebx
 8049c98:	b9 b2 6c 3f 1e       	mov    $0x1e3f6cb2,%ecx
 8049c9d:	ba b3 25 69 4e       	mov    $0x4e6925b3,%edx
 8049ca2:	bd 10 26 31 4f       	mov    $0x4f312610,%ebp
 8049ca7:	be a5 a4 37 2f       	mov    $0x2f37a4a5,%esi
 8049cac:	bf b4 17 a9 91       	mov    $0x91a917b4,%edi
 8049cb1:	89 25 50 20 00 00    	mov    %esp,0x2050
 8049cb7:	f0 0f b1 03          	lock cmpxchg %eax,(%ebx)
 8049cbb:	a3 00 20 00 00       	mov    %eax,0x2000
 8049cc0:	89 1d 04 20 00 00    	mov    %ebx,0x2004
 8049cc6:	89 0d 08 20 00 00    	mov    %ecx,0x2008
 8049ccc:	89 15 0c 20 00 00    	mov    %edx,0x200c
 8049cd2:	89 2d 10 20 00 00    	mov    %ebp,0x2010
 8049cd8:	89 35 14 20 00 00    	mov    %esi,0x2014
 8049cde:	89 3d 18 20 00 00    	mov    %edi,0x2018
 8049ce4:	0f 90 05 00 22 00 00 	seto   0x2200
 8049ceb:	0f 91 05 01 22 00 00 	setno  0x2201
 8049cf2:	0f 92 05 02 22 00 00 	setb   0x2202
 8049cf9:	0f 93 05 03 22 00 00 	setae  0x2203
 8049d00:	0f 94 05 04 22 00 00 	sete   0x2204
 8049d07:	0f 95 05 05 22 00 00 	setne  0x2205
 8049d0e:	0f 96 05 06 22 00 00 	setbe  0x2206
 8049d15:	0f 97 05 07 22 00 00 	seta   0x2207
 8049d1c:	0f 98 05 08 22 00 00 	sets   0x2208
 8049d23:	0f 99 05 09 22 00 00 	setns  0x2209
 8049d2a:	0f 9a 05 0a 22 00 00 	setp   0x220a
 8049d31:	0f 9b 05 0b 22 00 00 	setnp  0x220b
 8049d38:	0f 9c 05 0c 22 00 00 	setl   0x220c
 8049d3f:	0f 9d 05 0d 22 00 00 	setge  0x220d
 8049d46:	0f 9e 05 0e 22 00 00 	setle  0x220e
 8049d4d:	0f 9f 05 0f 22 00 00 	setg   0x220f
 8049d54:	66 9c                	pushfw 
 8049d56:	66 58                	pop    %ax
 8049d58:	66 a3 00 21 00 00    	mov    %ax,0x2100
 8049d5e:	a1 50 20 00 00       	mov    0x2050,%eax
 8049d63:	29 e0                	sub    %esp,%eax
 8049d65:	a3 20 20 00 00       	mov    %eax,0x2020
 8049d6a:	b8 00 00 00 00       	mov    $0x0,%eax
 8049d6f:	c3                   	ret    

08049d70 <cpuid_plain>:
 8049d70:	0f a2                	cpuid  
 8049d72:	b8 00 00 00 00       	mov    $0x0,%eax
 8049d77:	c3                   	ret    

08049d78 <cpuid_allregs>:
 8049d78:	90                   	nop
 8049d79:	66 a1 00 11 00 00    	mov    0x1100,%ax
 8049d7f:	66 50                	push   %ax
 8049d81:	66 9d                	popfw  
 8049d83:	a1 00 10 00 00       	mov    0x1000,%eax
 8049d88:	8b 1d 04 10 00 00    	mov    0x1004,%ebx
 8049d8e:	8b 0d 08 10 00 00    	mov    0x1008,%ecx
 8049d94:	8b 15 0c 10 00 00    	mov    0x100c,%edx
 8049d9a:	8b 2d 10 10 00 00    	mov    0x1010,%ebp
 8049da0:	8b 35 14 10 00 00    	mov    0x1014,%esi
 8049da6:	8b 3d 18 10 00 00    	mov    0x1018,%edi
 8049dac:	89 25 50 20 00 00    	mov    %esp,0x2050
 8049db2:	0f a2                	cpuid  
 8049db4:	a3 00 20 00 00       	mov    %eax,0x2000
 8049db9:	89 1d 04 20 00 00    	mov    %ebx,0x2004
 8049dbf:	89 0d 08 20 00 00    	mov    %ecx,0x2008
 8049dc5:	89 15 0c 20 00 00    	mov    %edx,0x200c
 8049dcb:	89 2d 10 20 00 00    	mov    %ebp,0x2010
 8049dd1:	89 35 14 20 00 00    	mov    %esi,0x2014
 8049dd7:	89 3d 18 20 00 00    	mov    %edi,0x2018
 8049ddd:	0f 90 05 00 22 00 00 	seto   0x2200
 8049de4:	0f 91 05 01 22 00 00 	setno  0x2201
 8049deb:	0f 92 05 02 22 00 00 	setb   0x2202
 8049df2:	0f 93 05 03 22 00 00 	setae  0x2203
 8049df9:	0f 94 05 04 22 00 00 	sete   0x2204
 8049e00:	0f 95 05 05 22 00 00 	setne  0x2205
 8049e07:	0f 96 05 06 22 00 00 	setbe  0x2206
 8049e0e:	0f 97 05 07 22 00 00 	seta   0x2207
 8049e15:	0f 98 05 08 22 00 00 	sets   0x2208
 8049e1c:	0f 99 05 09 22 00 00 	setns  0x2209
 8049e23:	0f 9a 05 0a 22 00 00 	setp   0x220a
 8049e2a:	0f 9b 05 0b 22 00 00 	setnp  0x220b
 8049e31:	0f 9c 05 0c 22 00 00 	setl   0x220c
 8049e38:	0f 9d 05 0d 22 00 00 	setge  0x220d
 8049e3f:	0f 9e 05 0e 22 00 00 	setle  0x220e
 8049e46:	0f 9f 05 0f 22 00 00 	setg   0x220f
 8049e4d:	66 9c                	pushfw 
 8049e4f:	66 58                	pop    %ax
 8049e51:	66 a3 00 21 00 00    	mov    %ax,0x2100
 8049e57:	a1 50 20 00 00       	mov    0x2050,%eax
 8049e5c:	29 e0                	sub    %esp,%eax
 8049e5e:	a3 20 20 00 00       	mov    %eax,0x2020
 8049e63:	b8 00 00 00 00       	mov    $0x0,%eax
 8049e68:	c3                   	ret    

08049e69 <cpuid_constant_simple>:
 8049e69:	90                   	nop
 8049e6a:	66 6a 00             	pushw  $0x0
 8049e6d:	66 9d                	popfw  
 8049e6f:	b8 02 00 00 00       	mov    $0x2,%eax
 8049e74:	bb 03 00 00 00       	mov    $0x3,%ebx
 8049e79:	b9 04 00 00 00       	mov    $0x4,%ecx
 8049e7e:	ba 05 00 00 00       	mov    $0x5,%edx
 8049e83:	bd 06 00 00 00       	mov    $0x6,%ebp
 8049e88:	be 07 00 00 00       	mov    $0x7,%esi
 8049e8d:	bf 08 00 00 00       	mov    $0x8,%edi
 8049e92:	89 25 50 20 00 00    	mov    %esp,0x2050
 8049e98:	0f a2                	cpuid  
 8049e9a:	a3 00 20 00 00       	mov    %eax,0x2000
 8049e9f:	89 1d 04 20 00 00    	mov    %ebx,0x2004
 8049ea5:	89 0d 08 20 00 00    	mov    %ecx,0x2008
 8049eab:	89 15 0c 20 00 00    	mov    %edx,0x200c
 8049eb1:	89 2d 10 20 00 00    	mov    %ebp,0x2010
 8049eb7:	89 35 14 20 00 00    	mov    %esi,0x2014
 8049ebd:	89 3d 18 20 00 00    	mov    %edi,0x2018
 8049ec3:	0f 90 05 00 22 00 00 	seto   0x2200
 8049eca:	0f 91 05 01 22 00 00 	setno  0x2201
 8049ed1:	0f 92 05 02 22 00 00 	setb   0x2202
 8049ed8:	0f 93 05 03 22 00 00 	setae  0x2203
 8049edf:	0f 94 05 04 22 00 00 	sete   0x2204
 8049ee6:	0f 95 05 05 22 00 00 	setne  0x2205
 8049eed:	0f 96 05 06 22 00 00 	setbe  0x2206
 8049ef4:	0f 97 05 07 22 00 00 	seta   0x2207
 8049efb:	0f 98 05 08 22 00 00 	sets   0x2208
 8049f02:	0f 99 05 09 22 00 00 	setns  0x2209
 8049f09:	0f 9a 05 0a 22 00 00 	setp   0x220a
 8049f10:	0f 9b 05 0b 22 00 00 	setnp  0x220b
 8049f17:	0f 9c 05 0c 22 00 00 	setl   0x220c
 8049f1e:	0f 9d 05 0d 22 00 00 	setge  0x220d
 8049f25:	0f 9e 05 0e 22 00 00 	setle  0x220e
 8049f2c:	0f 9f 05 0f 22 00 00 	setg   0x220f
 8049f33:	66 9c                	pushfw 
 8049f35:	66 58                	pop    %ax
 8049f37:	66 a3 00 21 00 00    	mov    %ax,0x2100
 8049f3d:	a1 50 20 00 00       	mov    0x2050,%eax
 8049f42:	29 e0                	sub    %esp,%eax
 8049f44:	a3 20 20 00 00       	mov    %eax,0x2020
 8049f49:	b8 00 00 00 00       	mov    $0x0,%eax
 8049f4e:	c3                   	ret    

08049f4f <cpuid_constant_complex1>:
 8049f4f:	90                   	nop
 8049f50:	66 6a 00             	pushw  $0x0
 8049f53:	66 9d                	popfw  
 8049f55:	b8 84 79 b1 a3       	mov    $0xa3b17984,%eax
 8049f5a:	bb d7 1a 67 06       	mov    $0x6671ad7,%ebx
 8049f5f:	b9 48 52 68 46       	mov    $0x46685248,%ecx
 8049f64:	ba c4 56 24 39       	mov    $0x392456c4,%edx
 8049f69:	bd a4 60 89 bc       	mov    $0xbc8960a4,%ebp
 8049f6e:	be 78 2d 3c ad       	mov    $0xad3c2d78,%esi
 8049f73:	bf 52 e1 65 e4       	mov    $0xe465e152,%edi
 8049f78:	89 25 50 20 00 00    	mov    %esp,0x2050
 8049f7e:	0f a2                	cpuid  
 8049f80:	a3 00 20 00 00       	mov    %eax,0x2000
 8049f85:	89 1d 04 20 00 00    	mov    %ebx,0x2004
 8049f8b:	89 0d 08 20 00 00    	mov    %ecx,0x2008
 8049f91:	89 15 0c 20 00 00    	mov    %edx,0x200c
 8049f97:	89 2d 10 20 00 00    	mov    %ebp,0x2010
 8049f9d:	89 35 14 20 00 00    	mov    %esi,0x2014
 8049fa3:	89 3d 18 20 00 00    	mov    %edi,0x2018
 8049fa9:	0f 90 05 00 22 00 00 	seto   0x2200
 8049fb0:	0f 91 05 01 22 00 00 	setno  0x2201
 8049fb7:	0f 92 05 02 22 00 00 	setb   0x2202
 8049fbe:	0f 93 05 03 22 00 00 	setae  0x2203
 8049fc5:	0f 94 05 04 22 00 00 	sete   0x2204
 8049fcc:	0f 95 05 05 22 00 00 	setne  0x2205
 8049fd3:	0f 96 05 06 22 00 00 	setbe  0x2206
 8049fda:	0f 97 05 07 22 00 00 	seta   0x2207
 8049fe1:	0f 98 05 08 22 00 00 	sets   0x2208
 8049fe8:	0f 99 05 09 22 00 00 	setns  0x2209
 8049fef:	0f 9a 05 0a 22 00 00 	setp   0x220a
 8049ff6:	0f 9b 05 0b 22 00 00 	setnp  0x220b
 8049ffd:	0f 9c 05 0c 22 00 00 	setl   0x220c
 804a004:	0f 9d 05 0d 22 00 00 	setge  0x220d
 804a00b:	0f 9e 05 0e 22 00 00 	setle  0x220e
 804a012:	0f 9f 05 0f 22 00 00 	setg   0x220f
 804a019:	66 9c                	pushfw 
 804a01b:	66 58                	pop    %ax
 804a01d:	66 a3 00 21 00 00    	mov    %ax,0x2100
 804a023:	a1 50 20 00 00       	mov    0x2050,%eax
 804a028:	29 e0                	sub    %esp,%eax
 804a02a:	a3 20 20 00 00       	mov    %eax,0x2020
 804a02f:	b8 00 00 00 00       	mov    $0x0,%eax
 804a034:	c3                   	ret    

0804a035 <cpuid_constant_complex2>:
 804a035:	90                   	nop
 804a036:	66 68 ff fe          	pushw  $0xfeff
 804a03a:	66 9d                	popfw  
 804a03c:	b8 e8 c0 3e 31       	mov    $0x313ec0e8,%eax
 804a041:	bb c3 81 6e 49       	mov    $0x496e81c3,%ebx
 804a046:	b9 b2 6c 3f 1e       	mov    $0x1e3f6cb2,%ecx
 804a04b:	ba b3 25 69 4e       	mov    $0x4e6925b3,%edx
 804a050:	bd 10 26 31 4f       	mov    $0x4f312610,%ebp
 804a055:	be a5 a4 37 2f       	mov    $0x2f37a4a5,%esi
 804a05a:	bf b4 17 a9 91       	mov    $0x91a917b4,%edi
 804a05f:	89 25 50 20 00 00    	mov    %esp,0x2050
 804a065:	0f a2                	cpuid  
 804a067:	a3 00 20 00 00       	mov    %eax,0x2000
 804a06c:	89 1d 04 20 00 00    	mov    %ebx,0x2004
 804a072:	89 0d 08 20 00 00    	mov    %ecx,0x2008
 804a078:	89 15 0c 20 00 00    	mov    %edx,0x200c
 804a07e:	89 2d 10 20 00 00    	mov    %ebp,0x2010
 804a084:	89 35 14 20 00 00    	mov    %esi,0x2014
 804a08a:	89 3d 18 20 00 00    	mov    %edi,0x2018
 804a090:	0f 90 05 00 22 00 00 	seto   0x2200
 804a097:	0f 91 05 01 22 00 00 	setno  0x2201
 804a09e:	0f 92 05 02 22 00 00 	setb   0x2202
 804a0a5:	0f 93 05 03 22 00 00 	setae  0x2203
 804a0ac:	0f 94 05 04 22 00 00 	sete   0x2204
 804a0b3:	0f 95 05 05 22 00 00 	setne  0x2205
 804a0ba:	0f 96 05 06 22 00 00 	setbe  0x2206
 804a0c1:	0f 97 05 07 22 00 00 	seta   0x2207
 804a0c8:	0f 98 05 08 22 00 00 	sets   0x2208
 804a0cf:	0f 99 05 09 22 00 00 	setns  0x2209
 804a0d6:	0f 9a 05 0a 22 00 00 	setp   0x220a
 804a0dd:	0f 9b 05 0b 22 00 00 	setnp  0x220b
 804a0e4:	0f 9c 05 0c 22 00 00 	setl   0x220c
 804a0eb:	0f 9d 05 0d 22 00 00 	setge  0x220d
 804a0f2:	0f 9e 05 0e 22 00 00 	setle  0x220e
 804a0f9:	0f 9f 05 0f 22 00 00 	setg   0x220f
 804a100:	66 9c                	pushfw 
 804a102:	66 58                	pop    %ax
 804a104:	66 a3 00 21 00 00    	mov    %ax,0x2100
 804a10a:	a1 50 20 00 00       	mov    0x2050,%eax
 804a10f:	29 e0                	sub    %esp,%eax
 804a111:	a3 20 20 00 00       	mov    %eax,0x2020
 804a116:	b8 00 00 00 00       	mov    $0x0,%eax
 804a11b:	c3                   	ret    

0804a11c <invd_plain>:
 804a11c:	0f 08                	invd   
 804a11e:	b8 00 00 00 00       	mov    $0x0,%eax
 804a123:	c3                   	ret    

0804a124 <invd_allregs>:
 804a124:	90                   	nop
 804a125:	66 a1 00 11 00 00    	mov    0x1100,%ax
 804a12b:	66 50                	push   %ax
 804a12d:	66 9d                	popfw  
 804a12f:	a1 00 10 00 00       	mov    0x1000,%eax
 804a134:	8b 1d 04 10 00 00    	mov    0x1004,%ebx
 804a13a:	8b 0d 08 10 00 00    	mov    0x1008,%ecx
 804a140:	8b 15 0c 10 00 00    	mov    0x100c,%edx
 804a146:	8b 2d 10 10 00 00    	mov    0x1010,%ebp
 804a14c:	8b 35 14 10 00 00    	mov    0x1014,%esi
 804a152:	8b 3d 18 10 00 00    	mov    0x1018,%edi
 804a158:	89 25 50 20 00 00    	mov    %esp,0x2050
 804a15e:	0f 08                	invd   
 804a160:	a3 00 20 00 00       	mov    %eax,0x2000
 804a165:	89 1d 04 20 00 00    	mov    %ebx,0x2004
 804a16b:	89 0d 08 20 00 00    	mov    %ecx,0x2008
 804a171:	89 15 0c 20 00 00    	mov    %edx,0x200c
 804a177:	89 2d 10 20 00 00    	mov    %ebp,0x2010
 804a17d:	89 35 14 20 00 00    	mov    %esi,0x2014
 804a183:	89 3d 18 20 00 00    	mov    %edi,0x2018
 804a189:	0f 90 05 00 22 00 00 	seto   0x2200
 804a190:	0f 91 05 01 22 00 00 	setno  0x2201
 804a197:	0f 92 05 02 22 00 00 	setb   0x2202
 804a19e:	0f 93 05 03 22 00 00 	setae  0x2203
 804a1a5:	0f 94 05 04 22 00 00 	sete   0x2204
 804a1ac:	0f 95 05 05 22 00 00 	setne  0x2205
 804a1b3:	0f 96 05 06 22 00 00 	setbe  0x2206
 804a1ba:	0f 97 05 07 22 00 00 	seta   0x2207
 804a1c1:	0f 98 05 08 22 00 00 	sets   0x2208
 804a1c8:	0f 99 05 09 22 00 00 	setns  0x2209
 804a1cf:	0f 9a 05 0a 22 00 00 	setp   0x220a
 804a1d6:	0f 9b 05 0b 22 00 00 	setnp  0x220b
 804a1dd:	0f 9c 05 0c 22 00 00 	setl   0x220c
 804a1e4:	0f 9d 05 0d 22 00 00 	setge  0x220d
 804a1eb:	0f 9e 05 0e 22 00 00 	setle  0x220e
 804a1f2:	0f 9f 05 0f 22 00 00 	setg   0x220f
 804a1f9:	66 9c                	pushfw 
 804a1fb:	66 58                	pop    %ax
 804a1fd:	66 a3 00 21 00 00    	mov    %ax,0x2100
 804a203:	a1 50 20 00 00       	mov    0x2050,%eax
 804a208:	29 e0                	sub    %esp,%eax
 804a20a:	a3 20 20 00 00       	mov    %eax,0x2020
 804a20f:	b8 00 00 00 00       	mov    $0x0,%eax
 804a214:	c3                   	ret    

0804a215 <invd_constant_simple>:
 804a215:	90                   	nop
 804a216:	66 6a 00             	pushw  $0x0
 804a219:	66 9d                	popfw  
 804a21b:	b8 02 00 00 00       	mov    $0x2,%eax
 804a220:	bb 03 00 00 00       	mov    $0x3,%ebx
 804a225:	b9 04 00 00 00       	mov    $0x4,%ecx
 804a22a:	ba 05 00 00 00       	mov    $0x5,%edx
 804a22f:	bd 06 00 00 00       	mov    $0x6,%ebp
 804a234:	be 07 00 00 00       	mov    $0x7,%esi
 804a239:	bf 08 00 00 00       	mov    $0x8,%edi
 804a23e:	89 25 50 20 00 00    	mov    %esp,0x2050
 804a244:	0f 08                	invd   
 804a246:	a3 00 20 00 00       	mov    %eax,0x2000
 804a24b:	89 1d 04 20 00 00    	mov    %ebx,0x2004
 804a251:	89 0d 08 20 00 00    	mov    %ecx,0x2008
 804a257:	89 15 0c 20 00 00    	mov    %edx,0x200c
 804a25d:	89 2d 10 20 00 00    	mov    %ebp,0x2010
 804a263:	89 35 14 20 00 00    	mov    %esi,0x2014
 804a269:	89 3d 18 20 00 00    	mov    %edi,0x2018
 804a26f:	0f 90 05 00 22 00 00 	seto   0x2200
 804a276:	0f 91 05 01 22 00 00 	setno  0x2201
 804a27d:	0f 92 05 02 22 00 00 	setb   0x2202
 804a284:	0f 93 05 03 22 00 00 	setae  0x2203
 804a28b:	0f 94 05 04 22 00 00 	sete   0x2204
 804a292:	0f 95 05 05 22 00 00 	setne  0x2205
 804a299:	0f 96 05 06 22 00 00 	setbe  0x2206
 804a2a0:	0f 97 05 07 22 00 00 	seta   0x2207
 804a2a7:	0f 98 05 08 22 00 00 	sets   0x2208
 804a2ae:	0f 99 05 09 22 00 00 	setns  0x2209
 804a2b5:	0f 9a 05 0a 22 00 00 	setp   0x220a
 804a2bc:	0f 9b 05 0b 22 00 00 	setnp  0x220b
 804a2c3:	0f 9c 05 0c 22 00 00 	setl   0x220c
 804a2ca:	0f 9d 05 0d 22 00 00 	setge  0x220d
 804a2d1:	0f 9e 05 0e 22 00 00 	setle  0x220e
 804a2d8:	0f 9f 05 0f 22 00 00 	setg   0x220f
 804a2df:	66 9c                	pushfw 
 804a2e1:	66 58                	pop    %ax
 804a2e3:	66 a3 00 21 00 00    	mov    %ax,0x2100
 804a2e9:	a1 50 20 00 00       	mov    0x2050,%eax
 804a2ee:	29 e0                	sub    %esp,%eax
 804a2f0:	a3 20 20 00 00       	mov    %eax,0x2020
 804a2f5:	b8 00 00 00 00       	mov    $0x0,%eax
 804a2fa:	c3                   	ret    

0804a2fb <invd_constant_complex1>:
 804a2fb:	90                   	nop
 804a2fc:	66 6a 00             	pushw  $0x0
 804a2ff:	66 9d                	popfw  
 804a301:	b8 84 79 b1 a3       	mov    $0xa3b17984,%eax
 804a306:	bb d7 1a 67 06       	mov    $0x6671ad7,%ebx
 804a30b:	b9 48 52 68 46       	mov    $0x46685248,%ecx
 804a310:	ba c4 56 24 39       	mov    $0x392456c4,%edx
 804a315:	bd a4 60 89 bc       	mov    $0xbc8960a4,%ebp
 804a31a:	be 78 2d 3c ad       	mov    $0xad3c2d78,%esi
 804a31f:	bf 52 e1 65 e4       	mov    $0xe465e152,%edi
 804a324:	89 25 50 20 00 00    	mov    %esp,0x2050
 804a32a:	0f 08                	invd   
 804a32c:	a3 00 20 00 00       	mov    %eax,0x2000
 804a331:	89 1d 04 20 00 00    	mov    %ebx,0x2004
 804a337:	89 0d 08 20 00 00    	mov    %ecx,0x2008
 804a33d:	89 15 0c 20 00 00    	mov    %edx,0x200c
 804a343:	89 2d 10 20 00 00    	mov    %ebp,0x2010
 804a349:	89 35 14 20 00 00    	mov    %esi,0x2014
 804a34f:	89 3d 18 20 00 00    	mov    %edi,0x2018
 804a355:	0f 90 05 00 22 00 00 	seto   0x2200
 804a35c:	0f 91 05 01 22 00 00 	setno  0x2201
 804a363:	0f 92 05 02 22 00 00 	setb   0x2202
 804a36a:	0f 93 05 03 22 00 00 	setae  0x2203
 804a371:	0f 94 05 04 22 00 00 	sete   0x2204
 804a378:	0f 95 05 05 22 00 00 	setne  0x2205
 804a37f:	0f 96 05 06 22 00 00 	setbe  0x2206
 804a386:	0f 97 05 07 22 00 00 	seta   0x2207
 804a38d:	0f 98 05 08 22 00 00 	sets   0x2208
 804a394:	0f 99 05 09 22 00 00 	setns  0x2209
 804a39b:	0f 9a 05 0a 22 00 00 	setp   0x220a
 804a3a2:	0f 9b 05 0b 22 00 00 	setnp  0x220b
 804a3a9:	0f 9c 05 0c 22 00 00 	setl   0x220c
 804a3b0:	0f 9d 05 0d 22 00 00 	setge  0x220d
 804a3b7:	0f 9e 05 0e 22 00 00 	setle  0x220e
 804a3be:	0f 9f 05 0f 22 00 00 	setg   0x220f
 804a3c5:	66 9c                	pushfw 
 804a3c7:	66 58                	pop    %ax
 804a3c9:	66 a3 00 21 00 00    	mov    %ax,0x2100
 804a3cf:	a1 50 20 00 00       	mov    0x2050,%eax
 804a3d4:	29 e0                	sub    %esp,%eax
 804a3d6:	a3 20 20 00 00       	mov    %eax,0x2020
 804a3db:	b8 00 00 00 00       	mov    $0x0,%eax
 804a3e0:	c3                   	ret    

0804a3e1 <invd_constant_complex2>:
 804a3e1:	90                   	nop
 804a3e2:	66 68 ff fe          	pushw  $0xfeff
 804a3e6:	66 9d                	popfw  
 804a3e8:	b8 e8 c0 3e 31       	mov    $0x313ec0e8,%eax
 804a3ed:	bb c3 81 6e 49       	mov    $0x496e81c3,%ebx
 804a3f2:	b9 b2 6c 3f 1e       	mov    $0x1e3f6cb2,%ecx
 804a3f7:	ba b3 25 69 4e       	mov    $0x4e6925b3,%edx
 804a3fc:	bd 10 26 31 4f       	mov    $0x4f312610,%ebp
 804a401:	be a5 a4 37 2f       	mov    $0x2f37a4a5,%esi
 804a406:	bf b4 17 a9 91       	mov    $0x91a917b4,%edi
 804a40b:	89 25 50 20 00 00    	mov    %esp,0x2050
 804a411:	0f 08                	invd   
 804a413:	a3 00 20 00 00       	mov    %eax,0x2000
 804a418:	89 1d 04 20 00 00    	mov    %ebx,0x2004
 804a41e:	89 0d 08 20 00 00    	mov    %ecx,0x2008
 804a424:	89 15 0c 20 00 00    	mov    %edx,0x200c
 804a42a:	89 2d 10 20 00 00    	mov    %ebp,0x2010
 804a430:	89 35 14 20 00 00    	mov    %esi,0x2014
 804a436:	89 3d 18 20 00 00    	mov    %edi,0x2018
 804a43c:	0f 90 05 00 22 00 00 	seto   0x2200
 804a443:	0f 91 05 01 22 00 00 	setno  0x2201
 804a44a:	0f 92 05 02 22 00 00 	setb   0x2202
 804a451:	0f 93 05 03 22 00 00 	setae  0x2203
 804a458:	0f 94 05 04 22 00 00 	sete   0x2204
 804a45f:	0f 95 05 05 22 00 00 	setne  0x2205
 804a466:	0f 96 05 06 22 00 00 	setbe  0x2206
 804a46d:	0f 97 05 07 22 00 00 	seta   0x2207
 804a474:	0f 98 05 08 22 00 00 	sets   0x2208
 804a47b:	0f 99 05 09 22 00 00 	setns  0x2209
 804a482:	0f 9a 05 0a 22 00 00 	setp   0x220a
 804a489:	0f 9b 05 0b 22 00 00 	setnp  0x220b
 804a490:	0f 9c 05 0c 22 00 00 	setl   0x220c
 804a497:	0f 9d 05 0d 22 00 00 	setge  0x220d
 804a49e:	0f 9e 05 0e 22 00 00 	setle  0x220e
 804a4a5:	0f 9f 05 0f 22 00 00 	setg   0x220f
 804a4ac:	66 9c                	pushfw 
 804a4ae:	66 58                	pop    %ax
 804a4b0:	66 a3 00 21 00 00    	mov    %ax,0x2100
 804a4b6:	a1 50 20 00 00       	mov    0x2050,%eax
 804a4bb:	29 e0                	sub    %esp,%eax
 804a4bd:	a3 20 20 00 00       	mov    %eax,0x2020
 804a4c2:	b8 00 00 00 00       	mov    $0x0,%eax
 804a4c7:	c3                   	ret    

0804a4c8 <invlpg_plain>:
 804a4c8:	0f 01 38             	invlpg (%eax)
 804a4cb:	b8 00 00 00 00       	mov    $0x0,%eax
 804a4d0:	c3                   	ret    

0804a4d1 <invlpg_allregs>:
 804a4d1:	90                   	nop
 804a4d2:	66 a1 00 11 00 00    	mov    0x1100,%ax
 804a4d8:	66 50                	push   %ax
 804a4da:	66 9d                	popfw  
 804a4dc:	a1 00 10 00 00       	mov    0x1000,%eax
 804a4e1:	8b 1d 04 10 00 00    	mov    0x1004,%ebx
 804a4e7:	8b 0d 08 10 00 00    	mov    0x1008,%ecx
 804a4ed:	8b 15 0c 10 00 00    	mov    0x100c,%edx
 804a4f3:	8b 2d 10 10 00 00    	mov    0x1010,%ebp
 804a4f9:	8b 35 14 10 00 00    	mov    0x1014,%esi
 804a4ff:	8b 3d 18 10 00 00    	mov    0x1018,%edi
 804a505:	89 25 50 20 00 00    	mov    %esp,0x2050
 804a50b:	0f 01 38             	invlpg (%eax)
 804a50e:	a3 00 20 00 00       	mov    %eax,0x2000
 804a513:	89 1d 04 20 00 00    	mov    %ebx,0x2004
 804a519:	89 0d 08 20 00 00    	mov    %ecx,0x2008
 804a51f:	89 15 0c 20 00 00    	mov    %edx,0x200c
 804a525:	89 2d 10 20 00 00    	mov    %ebp,0x2010
 804a52b:	89 35 14 20 00 00    	mov    %esi,0x2014
 804a531:	89 3d 18 20 00 00    	mov    %edi,0x2018
 804a537:	0f 90 05 00 22 00 00 	seto   0x2200
 804a53e:	0f 91 05 01 22 00 00 	setno  0x2201
 804a545:	0f 92 05 02 22 00 00 	setb   0x2202
 804a54c:	0f 93 05 03 22 00 00 	setae  0x2203
 804a553:	0f 94 05 04 22 00 00 	sete   0x2204
 804a55a:	0f 95 05 05 22 00 00 	setne  0x2205
 804a561:	0f 96 05 06 22 00 00 	setbe  0x2206
 804a568:	0f 97 05 07 22 00 00 	seta   0x2207
 804a56f:	0f 98 05 08 22 00 00 	sets   0x2208
 804a576:	0f 99 05 09 22 00 00 	setns  0x2209
 804a57d:	0f 9a 05 0a 22 00 00 	setp   0x220a
 804a584:	0f 9b 05 0b 22 00 00 	setnp  0x220b
 804a58b:	0f 9c 05 0c 22 00 00 	setl   0x220c
 804a592:	0f 9d 05 0d 22 00 00 	setge  0x220d
 804a599:	0f 9e 05 0e 22 00 00 	setle  0x220e
 804a5a0:	0f 9f 05 0f 22 00 00 	setg   0x220f
 804a5a7:	66 9c                	pushfw 
 804a5a9:	66 58                	pop    %ax
 804a5ab:	66 a3 00 21 00 00    	mov    %ax,0x2100
 804a5b1:	a1 50 20 00 00       	mov    0x2050,%eax
 804a5b6:	29 e0                	sub    %esp,%eax
 804a5b8:	a3 20 20 00 00       	mov    %eax,0x2020
 804a5bd:	b8 00 00 00 00       	mov    $0x0,%eax
 804a5c2:	c3                   	ret    

0804a5c3 <invlpg_constant_simple>:
 804a5c3:	90                   	nop
 804a5c4:	66 6a 00             	pushw  $0x0
 804a5c7:	66 9d                	popfw  
 804a5c9:	b8 02 00 00 00       	mov    $0x2,%eax
 804a5ce:	bb 03 00 00 00       	mov    $0x3,%ebx
 804a5d3:	b9 04 00 00 00       	mov    $0x4,%ecx
 804a5d8:	ba 05 00 00 00       	mov    $0x5,%edx
 804a5dd:	bd 06 00 00 00       	mov    $0x6,%ebp
 804a5e2:	be 07 00 00 00       	mov    $0x7,%esi
 804a5e7:	bf 08 00 00 00       	mov    $0x8,%edi
 804a5ec:	89 25 50 20 00 00    	mov    %esp,0x2050
 804a5f2:	0f 01 38             	invlpg (%eax)
 804a5f5:	a3 00 20 00 00       	mov    %eax,0x2000
 804a5fa:	89 1d 04 20 00 00    	mov    %ebx,0x2004
 804a600:	89 0d 08 20 00 00    	mov    %ecx,0x2008
 804a606:	89 15 0c 20 00 00    	mov    %edx,0x200c
 804a60c:	89 2d 10 20 00 00    	mov    %ebp,0x2010
 804a612:	89 35 14 20 00 00    	mov    %esi,0x2014
 804a618:	89 3d 18 20 00 00    	mov    %edi,0x2018
 804a61e:	0f 90 05 00 22 00 00 	seto   0x2200
 804a625:	0f 91 05 01 22 00 00 	setno  0x2201
 804a62c:	0f 92 05 02 22 00 00 	setb   0x2202
 804a633:	0f 93 05 03 22 00 00 	setae  0x2203
 804a63a:	0f 94 05 04 22 00 00 	sete   0x2204
 804a641:	0f 95 05 05 22 00 00 	setne  0x2205
 804a648:	0f 96 05 06 22 00 00 	setbe  0x2206
 804a64f:	0f 97 05 07 22 00 00 	seta   0x2207
 804a656:	0f 98 05 08 22 00 00 	sets   0x2208
 804a65d:	0f 99 05 09 22 00 00 	setns  0x2209
 804a664:	0f 9a 05 0a 22 00 00 	setp   0x220a
 804a66b:	0f 9b 05 0b 22 00 00 	setnp  0x220b
 804a672:	0f 9c 05 0c 22 00 00 	setl   0x220c
 804a679:	0f 9d 05 0d 22 00 00 	setge  0x220d
 804a680:	0f 9e 05 0e 22 00 00 	setle  0x220e
 804a687:	0f 9f 05 0f 22 00 00 	setg   0x220f
 804a68e:	66 9c                	pushfw 
 804a690:	66 58                	pop    %ax
 804a692:	66 a3 00 21 00 00    	mov    %ax,0x2100
 804a698:	a1 50 20 00 00       	mov    0x2050,%eax
 804a69d:	29 e0                	sub    %esp,%eax
 804a69f:	a3 20 20 00 00       	mov    %eax,0x2020
 804a6a4:	b8 00 00 00 00       	mov    $0x0,%eax
 804a6a9:	c3                   	ret    

0804a6aa <invlpg_constant_complex1>:
 804a6aa:	90                   	nop
 804a6ab:	66 6a 00             	pushw  $0x0
 804a6ae:	66 9d                	popfw  
 804a6b0:	b8 84 79 b1 a3       	mov    $0xa3b17984,%eax
 804a6b5:	bb d7 1a 67 06       	mov    $0x6671ad7,%ebx
 804a6ba:	b9 48 52 68 46       	mov    $0x46685248,%ecx
 804a6bf:	ba c4 56 24 39       	mov    $0x392456c4,%edx
 804a6c4:	bd a4 60 89 bc       	mov    $0xbc8960a4,%ebp
 804a6c9:	be 78 2d 3c ad       	mov    $0xad3c2d78,%esi
 804a6ce:	bf 52 e1 65 e4       	mov    $0xe465e152,%edi
 804a6d3:	89 25 50 20 00 00    	mov    %esp,0x2050
 804a6d9:	0f 01 38             	invlpg (%eax)
 804a6dc:	a3 00 20 00 00       	mov    %eax,0x2000
 804a6e1:	89 1d 04 20 00 00    	mov    %ebx,0x2004
 804a6e7:	89 0d 08 20 00 00    	mov    %ecx,0x2008
 804a6ed:	89 15 0c 20 00 00    	mov    %edx,0x200c
 804a6f3:	89 2d 10 20 00 00    	mov    %ebp,0x2010
 804a6f9:	89 35 14 20 00 00    	mov    %esi,0x2014
 804a6ff:	89 3d 18 20 00 00    	mov    %edi,0x2018
 804a705:	0f 90 05 00 22 00 00 	seto   0x2200
 804a70c:	0f 91 05 01 22 00 00 	setno  0x2201
 804a713:	0f 92 05 02 22 00 00 	setb   0x2202
 804a71a:	0f 93 05 03 22 00 00 	setae  0x2203
 804a721:	0f 94 05 04 22 00 00 	sete   0x2204
 804a728:	0f 95 05 05 22 00 00 	setne  0x2205
 804a72f:	0f 96 05 06 22 00 00 	setbe  0x2206
 804a736:	0f 97 05 07 22 00 00 	seta   0x2207
 804a73d:	0f 98 05 08 22 00 00 	sets   0x2208
 804a744:	0f 99 05 09 22 00 00 	setns  0x2209
 804a74b:	0f 9a 05 0a 22 00 00 	setp   0x220a
 804a752:	0f 9b 05 0b 22 00 00 	setnp  0x220b
 804a759:	0f 9c 05 0c 22 00 00 	setl   0x220c
 804a760:	0f 9d 05 0d 22 00 00 	setge  0x220d
 804a767:	0f 9e 05 0e 22 00 00 	setle  0x220e
 804a76e:	0f 9f 05 0f 22 00 00 	setg   0x220f
 804a775:	66 9c                	pushfw 
 804a777:	66 58                	pop    %ax
 804a779:	66 a3 00 21 00 00    	mov    %ax,0x2100
 804a77f:	a1 50 20 00 00       	mov    0x2050,%eax
 804a784:	29 e0                	sub    %esp,%eax
 804a786:	a3 20 20 00 00       	mov    %eax,0x2020
 804a78b:	b8 00 00 00 00       	mov    $0x0,%eax
 804a790:	c3                   	ret    

0804a791 <invlpg_constant_complex2>:
 804a791:	90                   	nop
 804a792:	66 68 ff fe          	pushw  $0xfeff
 804a796:	66 9d                	popfw  
 804a798:	b8 e8 c0 3e 31       	mov    $0x313ec0e8,%eax
 804a79d:	bb c3 81 6e 49       	mov    $0x496e81c3,%ebx
 804a7a2:	b9 b2 6c 3f 1e       	mov    $0x1e3f6cb2,%ecx
 804a7a7:	ba b3 25 69 4e       	mov    $0x4e6925b3,%edx
 804a7ac:	bd 10 26 31 4f       	mov    $0x4f312610,%ebp
 804a7b1:	be a5 a4 37 2f       	mov    $0x2f37a4a5,%esi
 804a7b6:	bf b4 17 a9 91       	mov    $0x91a917b4,%edi
 804a7bb:	89 25 50 20 00 00    	mov    %esp,0x2050
 804a7c1:	0f 01 38             	invlpg (%eax)
 804a7c4:	a3 00 20 00 00       	mov    %eax,0x2000
 804a7c9:	89 1d 04 20 00 00    	mov    %ebx,0x2004
 804a7cf:	89 0d 08 20 00 00    	mov    %ecx,0x2008
 804a7d5:	89 15 0c 20 00 00    	mov    %edx,0x200c
 804a7db:	89 2d 10 20 00 00    	mov    %ebp,0x2010
 804a7e1:	89 35 14 20 00 00    	mov    %esi,0x2014
 804a7e7:	89 3d 18 20 00 00    	mov    %edi,0x2018
 804a7ed:	0f 90 05 00 22 00 00 	seto   0x2200
 804a7f4:	0f 91 05 01 22 00 00 	setno  0x2201
 804a7fb:	0f 92 05 02 22 00 00 	setb   0x2202
 804a802:	0f 93 05 03 22 00 00 	setae  0x2203
 804a809:	0f 94 05 04 22 00 00 	sete   0x2204
 804a810:	0f 95 05 05 22 00 00 	setne  0x2205
 804a817:	0f 96 05 06 22 00 00 	setbe  0x2206
 804a81e:	0f 97 05 07 22 00 00 	seta   0x2207
 804a825:	0f 98 05 08 22 00 00 	sets   0x2208
 804a82c:	0f 99 05 09 22 00 00 	setns  0x2209
 804a833:	0f 9a 05 0a 22 00 00 	setp   0x220a
 804a83a:	0f 9b 05 0b 22 00 00 	setnp  0x220b
 804a841:	0f 9c 05 0c 22 00 00 	setl   0x220c
 804a848:	0f 9d 05 0d 22 00 00 	setge  0x220d
 804a84f:	0f 9e 05 0e 22 00 00 	setle  0x220e
 804a856:	0f 9f 05 0f 22 00 00 	setg   0x220f
 804a85d:	66 9c                	pushfw 
 804a85f:	66 58                	pop    %ax
 804a861:	66 a3 00 21 00 00    	mov    %ax,0x2100
 804a867:	a1 50 20 00 00       	mov    0x2050,%eax
 804a86c:	29 e0                	sub    %esp,%eax
 804a86e:	a3 20 20 00 00       	mov    %eax,0x2020
 804a873:	b8 00 00 00 00       	mov    $0x0,%eax
 804a878:	c3                   	ret    

0804a879 <wbinvd_plain>:
 804a879:	0f 09                	wbinvd 
 804a87b:	b8 00 00 00 00       	mov    $0x0,%eax
 804a880:	c3                   	ret    

0804a881 <wbinvd_allregs>:
 804a881:	90                   	nop
 804a882:	66 a1 00 11 00 00    	mov    0x1100,%ax
 804a888:	66 50                	push   %ax
 804a88a:	66 9d                	popfw  
 804a88c:	a1 00 10 00 00       	mov    0x1000,%eax
 804a891:	8b 1d 04 10 00 00    	mov    0x1004,%ebx
 804a897:	8b 0d 08 10 00 00    	mov    0x1008,%ecx
 804a89d:	8b 15 0c 10 00 00    	mov    0x100c,%edx
 804a8a3:	8b 2d 10 10 00 00    	mov    0x1010,%ebp
 804a8a9:	8b 35 14 10 00 00    	mov    0x1014,%esi
 804a8af:	8b 3d 18 10 00 00    	mov    0x1018,%edi
 804a8b5:	89 25 50 20 00 00    	mov    %esp,0x2050
 804a8bb:	0f 09                	wbinvd 
 804a8bd:	a3 00 20 00 00       	mov    %eax,0x2000
 804a8c2:	89 1d 04 20 00 00    	mov    %ebx,0x2004
 804a8c8:	89 0d 08 20 00 00    	mov    %ecx,0x2008
 804a8ce:	89 15 0c 20 00 00    	mov    %edx,0x200c
 804a8d4:	89 2d 10 20 00 00    	mov    %ebp,0x2010
 804a8da:	89 35 14 20 00 00    	mov    %esi,0x2014
 804a8e0:	89 3d 18 20 00 00    	mov    %edi,0x2018
 804a8e6:	0f 90 05 00 22 00 00 	seto   0x2200
 804a8ed:	0f 91 05 01 22 00 00 	setno  0x2201
 804a8f4:	0f 92 05 02 22 00 00 	setb   0x2202
 804a8fb:	0f 93 05 03 22 00 00 	setae  0x2203
 804a902:	0f 94 05 04 22 00 00 	sete   0x2204
 804a909:	0f 95 05 05 22 00 00 	setne  0x2205
 804a910:	0f 96 05 06 22 00 00 	setbe  0x2206
 804a917:	0f 97 05 07 22 00 00 	seta   0x2207
 804a91e:	0f 98 05 08 22 00 00 	sets   0x2208
 804a925:	0f 99 05 09 22 00 00 	setns  0x2209
 804a92c:	0f 9a 05 0a 22 00 00 	setp   0x220a
 804a933:	0f 9b 05 0b 22 00 00 	setnp  0x220b
 804a93a:	0f 9c 05 0c 22 00 00 	setl   0x220c
 804a941:	0f 9d 05 0d 22 00 00 	setge  0x220d
 804a948:	0f 9e 05 0e 22 00 00 	setle  0x220e
 804a94f:	0f 9f 05 0f 22 00 00 	setg   0x220f
 804a956:	66 9c                	pushfw 
 804a958:	66 58                	pop    %ax
 804a95a:	66 a3 00 21 00 00    	mov    %ax,0x2100
 804a960:	a1 50 20 00 00       	mov    0x2050,%eax
 804a965:	29 e0                	sub    %esp,%eax
 804a967:	a3 20 20 00 00       	mov    %eax,0x2020
 804a96c:	b8 00 00 00 00       	mov    $0x0,%eax
 804a971:	c3                   	ret    

0804a972 <wbinvd_constant_simple>:
 804a972:	90                   	nop
 804a973:	66 6a 00             	pushw  $0x0
 804a976:	66 9d                	popfw  
 804a978:	b8 02 00 00 00       	mov    $0x2,%eax
 804a97d:	bb 03 00 00 00       	mov    $0x3,%ebx
 804a982:	b9 04 00 00 00       	mov    $0x4,%ecx
 804a987:	ba 05 00 00 00       	mov    $0x5,%edx
 804a98c:	bd 06 00 00 00       	mov    $0x6,%ebp
 804a991:	be 07 00 00 00       	mov    $0x7,%esi
 804a996:	bf 08 00 00 00       	mov    $0x8,%edi
 804a99b:	89 25 50 20 00 00    	mov    %esp,0x2050
 804a9a1:	0f 09                	wbinvd 
 804a9a3:	a3 00 20 00 00       	mov    %eax,0x2000
 804a9a8:	89 1d 04 20 00 00    	mov    %ebx,0x2004
 804a9ae:	89 0d 08 20 00 00    	mov    %ecx,0x2008
 804a9b4:	89 15 0c 20 00 00    	mov    %edx,0x200c
 804a9ba:	89 2d 10 20 00 00    	mov    %ebp,0x2010
 804a9c0:	89 35 14 20 00 00    	mov    %esi,0x2014
 804a9c6:	89 3d 18 20 00 00    	mov    %edi,0x2018
 804a9cc:	0f 90 05 00 22 00 00 	seto   0x2200
 804a9d3:	0f 91 05 01 22 00 00 	setno  0x2201
 804a9da:	0f 92 05 02 22 00 00 	setb   0x2202
 804a9e1:	0f 93 05 03 22 00 00 	setae  0x2203
 804a9e8:	0f 94 05 04 22 00 00 	sete   0x2204
 804a9ef:	0f 95 05 05 22 00 00 	setne  0x2205
 804a9f6:	0f 96 05 06 22 00 00 	setbe  0x2206
 804a9fd:	0f 97 05 07 22 00 00 	seta   0x2207
 804aa04:	0f 98 05 08 22 00 00 	sets   0x2208
 804aa0b:	0f 99 05 09 22 00 00 	setns  0x2209
 804aa12:	0f 9a 05 0a 22 00 00 	setp   0x220a
 804aa19:	0f 9b 05 0b 22 00 00 	setnp  0x220b
 804aa20:	0f 9c 05 0c 22 00 00 	setl   0x220c
 804aa27:	0f 9d 05 0d 22 00 00 	setge  0x220d
 804aa2e:	0f 9e 05 0e 22 00 00 	setle  0x220e
 804aa35:	0f 9f 05 0f 22 00 00 	setg   0x220f
 804aa3c:	66 9c                	pushfw 
 804aa3e:	66 58                	pop    %ax
 804aa40:	66 a3 00 21 00 00    	mov    %ax,0x2100
 804aa46:	a1 50 20 00 00       	mov    0x2050,%eax
 804aa4b:	29 e0                	sub    %esp,%eax
 804aa4d:	a3 20 20 00 00       	mov    %eax,0x2020
 804aa52:	b8 00 00 00 00       	mov    $0x0,%eax
 804aa57:	c3                   	ret    

0804aa58 <wbinvd_constant_complex1>:
 804aa58:	90                   	nop
 804aa59:	66 6a 00             	pushw  $0x0
 804aa5c:	66 9d                	popfw  
 804aa5e:	b8 84 79 b1 a3       	mov    $0xa3b17984,%eax
 804aa63:	bb d7 1a 67 06       	mov    $0x6671ad7,%ebx
 804aa68:	b9 48 52 68 46       	mov    $0x46685248,%ecx
 804aa6d:	ba c4 56 24 39       	mov    $0x392456c4,%edx
 804aa72:	bd a4 60 89 bc       	mov    $0xbc8960a4,%ebp
 804aa77:	be 78 2d 3c ad       	mov    $0xad3c2d78,%esi
 804aa7c:	bf 52 e1 65 e4       	mov    $0xe465e152,%edi
 804aa81:	89 25 50 20 00 00    	mov    %esp,0x2050
 804aa87:	0f 09                	wbinvd 
 804aa89:	a3 00 20 00 00       	mov    %eax,0x2000
 804aa8e:	89 1d 04 20 00 00    	mov    %ebx,0x2004
 804aa94:	89 0d 08 20 00 00    	mov    %ecx,0x2008
 804aa9a:	89 15 0c 20 00 00    	mov    %edx,0x200c
 804aaa0:	89 2d 10 20 00 00    	mov    %ebp,0x2010
 804aaa6:	89 35 14 20 00 00    	mov    %esi,0x2014
 804aaac:	89 3d 18 20 00 00    	mov    %edi,0x2018
 804aab2:	0f 90 05 00 22 00 00 	seto   0x2200
 804aab9:	0f 91 05 01 22 00 00 	setno  0x2201
 804aac0:	0f 92 05 02 22 00 00 	setb   0x2202
 804aac7:	0f 93 05 03 22 00 00 	setae  0x2203
 804aace:	0f 94 05 04 22 00 00 	sete   0x2204
 804aad5:	0f 95 05 05 22 00 00 	setne  0x2205
 804aadc:	0f 96 05 06 22 00 00 	setbe  0x2206
 804aae3:	0f 97 05 07 22 00 00 	seta   0x2207
 804aaea:	0f 98 05 08 22 00 00 	sets   0x2208
 804aaf1:	0f 99 05 09 22 00 00 	setns  0x2209
 804aaf8:	0f 9a 05 0a 22 00 00 	setp   0x220a
 804aaff:	0f 9b 05 0b 22 00 00 	setnp  0x220b
 804ab06:	0f 9c 05 0c 22 00 00 	setl   0x220c
 804ab0d:	0f 9d 05 0d 22 00 00 	setge  0x220d
 804ab14:	0f 9e 05 0e 22 00 00 	setle  0x220e
 804ab1b:	0f 9f 05 0f 22 00 00 	setg   0x220f
 804ab22:	66 9c                	pushfw 
 804ab24:	66 58                	pop    %ax
 804ab26:	66 a3 00 21 00 00    	mov    %ax,0x2100
 804ab2c:	a1 50 20 00 00       	mov    0x2050,%eax
 804ab31:	29 e0                	sub    %esp,%eax
 804ab33:	a3 20 20 00 00       	mov    %eax,0x2020
 804ab38:	b8 00 00 00 00       	mov    $0x0,%eax
 804ab3d:	c3                   	ret    

0804ab3e <wbinvd_constant_complex2>:
 804ab3e:	90                   	nop
 804ab3f:	66 68 ff fe          	pushw  $0xfeff
 804ab43:	66 9d                	popfw  
 804ab45:	b8 e8 c0 3e 31       	mov    $0x313ec0e8,%eax
 804ab4a:	bb c3 81 6e 49       	mov    $0x496e81c3,%ebx
 804ab4f:	b9 b2 6c 3f 1e       	mov    $0x1e3f6cb2,%ecx
 804ab54:	ba b3 25 69 4e       	mov    $0x4e6925b3,%edx
 804ab59:	bd 10 26 31 4f       	mov    $0x4f312610,%ebp
 804ab5e:	be a5 a4 37 2f       	mov    $0x2f37a4a5,%esi
 804ab63:	bf b4 17 a9 91       	mov    $0x91a917b4,%edi
 804ab68:	89 25 50 20 00 00    	mov    %esp,0x2050
 804ab6e:	0f 09                	wbinvd 
 804ab70:	a3 00 20 00 00       	mov    %eax,0x2000
 804ab75:	89 1d 04 20 00 00    	mov    %ebx,0x2004
 804ab7b:	89 0d 08 20 00 00    	mov    %ecx,0x2008
 804ab81:	89 15 0c 20 00 00    	mov    %edx,0x200c
 804ab87:	89 2d 10 20 00 00    	mov    %ebp,0x2010
 804ab8d:	89 35 14 20 00 00    	mov    %esi,0x2014
 804ab93:	89 3d 18 20 00 00    	mov    %edi,0x2018
 804ab99:	0f 90 05 00 22 00 00 	seto   0x2200
 804aba0:	0f 91 05 01 22 00 00 	setno  0x2201
 804aba7:	0f 92 05 02 22 00 00 	setb   0x2202
 804abae:	0f 93 05 03 22 00 00 	setae  0x2203
 804abb5:	0f 94 05 04 22 00 00 	sete   0x2204
 804abbc:	0f 95 05 05 22 00 00 	setne  0x2205
 804abc3:	0f 96 05 06 22 00 00 	setbe  0x2206
 804abca:	0f 97 05 07 22 00 00 	seta   0x2207
 804abd1:	0f 98 05 08 22 00 00 	sets   0x2208
 804abd8:	0f 99 05 09 22 00 00 	setns  0x2209
 804abdf:	0f 9a 05 0a 22 00 00 	setp   0x220a
 804abe6:	0f 9b 05 0b 22 00 00 	setnp  0x220b
 804abed:	0f 9c 05 0c 22 00 00 	setl   0x220c
 804abf4:	0f 9d 05 0d 22 00 00 	setge  0x220d
 804abfb:	0f 9e 05 0e 22 00 00 	setle  0x220e
 804ac02:	0f 9f 05 0f 22 00 00 	setg   0x220f
 804ac09:	66 9c                	pushfw 
 804ac0b:	66 58                	pop    %ax
 804ac0d:	66 a3 00 21 00 00    	mov    %ax,0x2100
 804ac13:	a1 50 20 00 00       	mov    0x2050,%eax
 804ac18:	29 e0                	sub    %esp,%eax
 804ac1a:	a3 20 20 00 00       	mov    %eax,0x2020
 804ac1f:	b8 00 00 00 00       	mov    $0x0,%eax
 804ac24:	c3                   	ret    

0804ac25 <xadd1_mv_plain>:
 804ac25:	0f c0 c3             	xadd   %al,%bl
 804ac28:	b8 00 00 00 00       	mov    $0x0,%eax
 804ac2d:	c3                   	ret    

0804ac2e <xadd1_mv_allregs>:
 804ac2e:	90                   	nop
 804ac2f:	66 a1 00 11 00 00    	mov    0x1100,%ax
 804ac35:	66 50                	push   %ax
 804ac37:	66 9d                	popfw  
 804ac39:	a1 00 10 00 00       	mov    0x1000,%eax
 804ac3e:	8b 1d 04 10 00 00    	mov    0x1004,%ebx
 804ac44:	8b 0d 08 10 00 00    	mov    0x1008,%ecx
 804ac4a:	8b 15 0c 10 00 00    	mov    0x100c,%edx
 804ac50:	8b 2d 10 10 00 00    	mov    0x1010,%ebp
 804ac56:	8b 35 14 10 00 00    	mov    0x1014,%esi
 804ac5c:	8b 3d 18 10 00 00    	mov    0x1018,%edi
 804ac62:	89 25 50 20 00 00    	mov    %esp,0x2050
 804ac68:	0f c0 c3             	xadd   %al,%bl
 804ac6b:	a3 00 20 00 00       	mov    %eax,0x2000
 804ac70:	89 1d 04 20 00 00    	mov    %ebx,0x2004
 804ac76:	89 0d 08 20 00 00    	mov    %ecx,0x2008
 804ac7c:	89 15 0c 20 00 00    	mov    %edx,0x200c
 804ac82:	89 2d 10 20 00 00    	mov    %ebp,0x2010
 804ac88:	89 35 14 20 00 00    	mov    %esi,0x2014
 804ac8e:	89 3d 18 20 00 00    	mov    %edi,0x2018
 804ac94:	0f 90 05 00 22 00 00 	seto   0x2200
 804ac9b:	0f 91 05 01 22 00 00 	setno  0x2201
 804aca2:	0f 92 05 02 22 00 00 	setb   0x2202
 804aca9:	0f 93 05 03 22 00 00 	setae  0x2203
 804acb0:	0f 94 05 04 22 00 00 	sete   0x2204
 804acb7:	0f 95 05 05 22 00 00 	setne  0x2205
 804acbe:	0f 96 05 06 22 00 00 	setbe  0x2206
 804acc5:	0f 97 05 07 22 00 00 	seta   0x2207
 804accc:	0f 98 05 08 22 00 00 	sets   0x2208
 804acd3:	0f 99 05 09 22 00 00 	setns  0x2209
 804acda:	0f 9a 05 0a 22 00 00 	setp   0x220a
 804ace1:	0f 9b 05 0b 22 00 00 	setnp  0x220b
 804ace8:	0f 9c 05 0c 22 00 00 	setl   0x220c
 804acef:	0f 9d 05 0d 22 00 00 	setge  0x220d
 804acf6:	0f 9e 05 0e 22 00 00 	setle  0x220e
 804acfd:	0f 9f 05 0f 22 00 00 	setg   0x220f
 804ad04:	66 9c                	pushfw 
 804ad06:	66 58                	pop    %ax
 804ad08:	66 a3 00 21 00 00    	mov    %ax,0x2100
 804ad0e:	a1 50 20 00 00       	mov    0x2050,%eax
 804ad13:	29 e0                	sub    %esp,%eax
 804ad15:	a3 20 20 00 00       	mov    %eax,0x2020
 804ad1a:	b8 00 00 00 00       	mov    $0x0,%eax
 804ad1f:	c3                   	ret    

0804ad20 <xadd1_mv_constant_simple>:
 804ad20:	90                   	nop
 804ad21:	66 6a 00             	pushw  $0x0
 804ad24:	66 9d                	popfw  
 804ad26:	b8 02 00 00 00       	mov    $0x2,%eax
 804ad2b:	bb 03 00 00 00       	mov    $0x3,%ebx
 804ad30:	b9 04 00 00 00       	mov    $0x4,%ecx
 804ad35:	ba 05 00 00 00       	mov    $0x5,%edx
 804ad3a:	bd 06 00 00 00       	mov    $0x6,%ebp
 804ad3f:	be 07 00 00 00       	mov    $0x7,%esi
 804ad44:	bf 08 00 00 00       	mov    $0x8,%edi
 804ad49:	89 25 50 20 00 00    	mov    %esp,0x2050
 804ad4f:	0f c0 c3             	xadd   %al,%bl
 804ad52:	a3 00 20 00 00       	mov    %eax,0x2000
 804ad57:	89 1d 04 20 00 00    	mov    %ebx,0x2004
 804ad5d:	89 0d 08 20 00 00    	mov    %ecx,0x2008
 804ad63:	89 15 0c 20 00 00    	mov    %edx,0x200c
 804ad69:	89 2d 10 20 00 00    	mov    %ebp,0x2010
 804ad6f:	89 35 14 20 00 00    	mov    %esi,0x2014
 804ad75:	89 3d 18 20 00 00    	mov    %edi,0x2018
 804ad7b:	0f 90 05 00 22 00 00 	seto   0x2200
 804ad82:	0f 91 05 01 22 00 00 	setno  0x2201
 804ad89:	0f 92 05 02 22 00 00 	setb   0x2202
 804ad90:	0f 93 05 03 22 00 00 	setae  0x2203
 804ad97:	0f 94 05 04 22 00 00 	sete   0x2204
 804ad9e:	0f 95 05 05 22 00 00 	setne  0x2205
 804ada5:	0f 96 05 06 22 00 00 	setbe  0x2206
 804adac:	0f 97 05 07 22 00 00 	seta   0x2207
 804adb3:	0f 98 05 08 22 00 00 	sets   0x2208
 804adba:	0f 99 05 09 22 00 00 	setns  0x2209
 804adc1:	0f 9a 05 0a 22 00 00 	setp   0x220a
 804adc8:	0f 9b 05 0b 22 00 00 	setnp  0x220b
 804adcf:	0f 9c 05 0c 22 00 00 	setl   0x220c
 804add6:	0f 9d 05 0d 22 00 00 	setge  0x220d
 804addd:	0f 9e 05 0e 22 00 00 	setle  0x220e
 804ade4:	0f 9f 05 0f 22 00 00 	setg   0x220f
 804adeb:	66 9c                	pushfw 
 804aded:	66 58                	pop    %ax
 804adef:	66 a3 00 21 00 00    	mov    %ax,0x2100
 804adf5:	a1 50 20 00 00       	mov    0x2050,%eax
 804adfa:	29 e0                	sub    %esp,%eax
 804adfc:	a3 20 20 00 00       	mov    %eax,0x2020
 804ae01:	b8 00 00 00 00       	mov    $0x0,%eax
 804ae06:	c3                   	ret    

0804ae07 <xadd1_mv_constant_complex1>:
 804ae07:	90                   	nop
 804ae08:	66 6a 00             	pushw  $0x0
 804ae0b:	66 9d                	popfw  
 804ae0d:	b8 84 79 b1 a3       	mov    $0xa3b17984,%eax
 804ae12:	bb d7 1a 67 06       	mov    $0x6671ad7,%ebx
 804ae17:	b9 48 52 68 46       	mov    $0x46685248,%ecx
 804ae1c:	ba c4 56 24 39       	mov    $0x392456c4,%edx
 804ae21:	bd a4 60 89 bc       	mov    $0xbc8960a4,%ebp
 804ae26:	be 78 2d 3c ad       	mov    $0xad3c2d78,%esi
 804ae2b:	bf 52 e1 65 e4       	mov    $0xe465e152,%edi
 804ae30:	89 25 50 20 00 00    	mov    %esp,0x2050
 804ae36:	0f c0 c3             	xadd   %al,%bl
 804ae39:	a3 00 20 00 00       	mov    %eax,0x2000
 804ae3e:	89 1d 04 20 00 00    	mov    %ebx,0x2004
 804ae44:	89 0d 08 20 00 00    	mov    %ecx,0x2008
 804ae4a:	89 15 0c 20 00 00    	mov    %edx,0x200c
 804ae50:	89 2d 10 20 00 00    	mov    %ebp,0x2010
 804ae56:	89 35 14 20 00 00    	mov    %esi,0x2014
 804ae5c:	89 3d 18 20 00 00    	mov    %edi,0x2018
 804ae62:	0f 90 05 00 22 00 00 	seto   0x2200
 804ae69:	0f 91 05 01 22 00 00 	setno  0x2201
 804ae70:	0f 92 05 02 22 00 00 	setb   0x2202
 804ae77:	0f 93 05 03 22 00 00 	setae  0x2203
 804ae7e:	0f 94 05 04 22 00 00 	sete   0x2204
 804ae85:	0f 95 05 05 22 00 00 	setne  0x2205
 804ae8c:	0f 96 05 06 22 00 00 	setbe  0x2206
 804ae93:	0f 97 05 07 22 00 00 	seta   0x2207
 804ae9a:	0f 98 05 08 22 00 00 	sets   0x2208
 804aea1:	0f 99 05 09 22 00 00 	setns  0x2209
 804aea8:	0f 9a 05 0a 22 00 00 	setp   0x220a
 804aeaf:	0f 9b 05 0b 22 00 00 	setnp  0x220b
 804aeb6:	0f 9c 05 0c 22 00 00 	setl   0x220c
 804aebd:	0f 9d 05 0d 22 00 00 	setge  0x220d
 804aec4:	0f 9e 05 0e 22 00 00 	setle  0x220e
 804aecb:	0f 9f 05 0f 22 00 00 	setg   0x220f
 804aed2:	66 9c                	pushfw 
 804aed4:	66 58                	pop    %ax
 804aed6:	66 a3 00 21 00 00    	mov    %ax,0x2100
 804aedc:	a1 50 20 00 00       	mov    0x2050,%eax
 804aee1:	29 e0                	sub    %esp,%eax
 804aee3:	a3 20 20 00 00       	mov    %eax,0x2020
 804aee8:	b8 00 00 00 00       	mov    $0x0,%eax
 804aeed:	c3                   	ret    

0804aeee <xadd1_mv_constant_complex2>:
 804aeee:	90                   	nop
 804aeef:	66 68 ff fe          	pushw  $0xfeff
 804aef3:	66 9d                	popfw  
 804aef5:	b8 e8 c0 3e 31       	mov    $0x313ec0e8,%eax
 804aefa:	bb c3 81 6e 49       	mov    $0x496e81c3,%ebx
 804aeff:	b9 b2 6c 3f 1e       	mov    $0x1e3f6cb2,%ecx
 804af04:	ba b3 25 69 4e       	mov    $0x4e6925b3,%edx
 804af09:	bd 10 26 31 4f       	mov    $0x4f312610,%ebp
 804af0e:	be a5 a4 37 2f       	mov    $0x2f37a4a5,%esi
 804af13:	bf b4 17 a9 91       	mov    $0x91a917b4,%edi
 804af18:	89 25 50 20 00 00    	mov    %esp,0x2050
 804af1e:	0f c0 c3             	xadd   %al,%bl
 804af21:	a3 00 20 00 00       	mov    %eax,0x2000
 804af26:	89 1d 04 20 00 00    	mov    %ebx,0x2004
 804af2c:	89 0d 08 20 00 00    	mov    %ecx,0x2008
 804af32:	89 15 0c 20 00 00    	mov    %edx,0x200c
 804af38:	89 2d 10 20 00 00    	mov    %ebp,0x2010
 804af3e:	89 35 14 20 00 00    	mov    %esi,0x2014
 804af44:	89 3d 18 20 00 00    	mov    %edi,0x2018
 804af4a:	0f 90 05 00 22 00 00 	seto   0x2200
 804af51:	0f 91 05 01 22 00 00 	setno  0x2201
 804af58:	0f 92 05 02 22 00 00 	setb   0x2202
 804af5f:	0f 93 05 03 22 00 00 	setae  0x2203
 804af66:	0f 94 05 04 22 00 00 	sete   0x2204
 804af6d:	0f 95 05 05 22 00 00 	setne  0x2205
 804af74:	0f 96 05 06 22 00 00 	setbe  0x2206
 804af7b:	0f 97 05 07 22 00 00 	seta   0x2207
 804af82:	0f 98 05 08 22 00 00 	sets   0x2208
 804af89:	0f 99 05 09 22 00 00 	setns  0x2209
 804af90:	0f 9a 05 0a 22 00 00 	setp   0x220a
 804af97:	0f 9b 05 0b 22 00 00 	setnp  0x220b
 804af9e:	0f 9c 05 0c 22 00 00 	setl   0x220c
 804afa5:	0f 9d 05 0d 22 00 00 	setge  0x220d
 804afac:	0f 9e 05 0e 22 00 00 	setle  0x220e
 804afb3:	0f 9f 05 0f 22 00 00 	setg   0x220f
 804afba:	66 9c                	pushfw 
 804afbc:	66 58                	pop    %ax
 804afbe:	66 a3 00 21 00 00    	mov    %ax,0x2100
 804afc4:	a1 50 20 00 00       	mov    0x2050,%eax
 804afc9:	29 e0                	sub    %esp,%eax
 804afcb:	a3 20 20 00 00       	mov    %eax,0x2020
 804afd0:	b8 00 00 00 00       	mov    $0x0,%eax
 804afd5:	c3                   	ret    

0804afd6 <xadd2_mv_plain>:
 804afd6:	66 0f c1 c3          	xadd   %ax,%bx
 804afda:	b8 00 00 00 00       	mov    $0x0,%eax
 804afdf:	c3                   	ret    

0804afe0 <xadd2_mv_allregs>:
 804afe0:	90                   	nop
 804afe1:	66 a1 00 11 00 00    	mov    0x1100,%ax
 804afe7:	66 50                	push   %ax
 804afe9:	66 9d                	popfw  
 804afeb:	a1 00 10 00 00       	mov    0x1000,%eax
 804aff0:	8b 1d 04 10 00 00    	mov    0x1004,%ebx
 804aff6:	8b 0d 08 10 00 00    	mov    0x1008,%ecx
 804affc:	8b 15 0c 10 00 00    	mov    0x100c,%edx
 804b002:	8b 2d 10 10 00 00    	mov    0x1010,%ebp
 804b008:	8b 35 14 10 00 00    	mov    0x1014,%esi
 804b00e:	8b 3d 18 10 00 00    	mov    0x1018,%edi
 804b014:	89 25 50 20 00 00    	mov    %esp,0x2050
 804b01a:	66 0f c1 c3          	xadd   %ax,%bx
 804b01e:	a3 00 20 00 00       	mov    %eax,0x2000
 804b023:	89 1d 04 20 00 00    	mov    %ebx,0x2004
 804b029:	89 0d 08 20 00 00    	mov    %ecx,0x2008
 804b02f:	89 15 0c 20 00 00    	mov    %edx,0x200c
 804b035:	89 2d 10 20 00 00    	mov    %ebp,0x2010
 804b03b:	89 35 14 20 00 00    	mov    %esi,0x2014
 804b041:	89 3d 18 20 00 00    	mov    %edi,0x2018
 804b047:	0f 90 05 00 22 00 00 	seto   0x2200
 804b04e:	0f 91 05 01 22 00 00 	setno  0x2201
 804b055:	0f 92 05 02 22 00 00 	setb   0x2202
 804b05c:	0f 93 05 03 22 00 00 	setae  0x2203
 804b063:	0f 94 05 04 22 00 00 	sete   0x2204
 804b06a:	0f 95 05 05 22 00 00 	setne  0x2205
 804b071:	0f 96 05 06 22 00 00 	setbe  0x2206
 804b078:	0f 97 05 07 22 00 00 	seta   0x2207
 804b07f:	0f 98 05 08 22 00 00 	sets   0x2208
 804b086:	0f 99 05 09 22 00 00 	setns  0x2209
 804b08d:	0f 9a 05 0a 22 00 00 	setp   0x220a
 804b094:	0f 9b 05 0b 22 00 00 	setnp  0x220b
 804b09b:	0f 9c 05 0c 22 00 00 	setl   0x220c
 804b0a2:	0f 9d 05 0d 22 00 00 	setge  0x220d
 804b0a9:	0f 9e 05 0e 22 00 00 	setle  0x220e
 804b0b0:	0f 9f 05 0f 22 00 00 	setg   0x220f
 804b0b7:	66 9c                	pushfw 
 804b0b9:	66 58                	pop    %ax
 804b0bb:	66 a3 00 21 00 00    	mov    %ax,0x2100
 804b0c1:	a1 50 20 00 00       	mov    0x2050,%eax
 804b0c6:	29 e0                	sub    %esp,%eax
 804b0c8:	a3 20 20 00 00       	mov    %eax,0x2020
 804b0cd:	b8 00 00 00 00       	mov    $0x0,%eax
 804b0d2:	c3                   	ret    

0804b0d3 <xadd2_mv_constant_simple>:
 804b0d3:	90                   	nop
 804b0d4:	66 6a 00             	pushw  $0x0
 804b0d7:	66 9d                	popfw  
 804b0d9:	b8 02 00 00 00       	mov    $0x2,%eax
 804b0de:	bb 03 00 00 00       	mov    $0x3,%ebx
 804b0e3:	b9 04 00 00 00       	mov    $0x4,%ecx
 804b0e8:	ba 05 00 00 00       	mov    $0x5,%edx
 804b0ed:	bd 06 00 00 00       	mov    $0x6,%ebp
 804b0f2:	be 07 00 00 00       	mov    $0x7,%esi
 804b0f7:	bf 08 00 00 00       	mov    $0x8,%edi
 804b0fc:	89 25 50 20 00 00    	mov    %esp,0x2050
 804b102:	66 0f c1 c3          	xadd   %ax,%bx
 804b106:	a3 00 20 00 00       	mov    %eax,0x2000
 804b10b:	89 1d 04 20 00 00    	mov    %ebx,0x2004
 804b111:	89 0d 08 20 00 00    	mov    %ecx,0x2008
 804b117:	89 15 0c 20 00 00    	mov    %edx,0x200c
 804b11d:	89 2d 10 20 00 00    	mov    %ebp,0x2010
 804b123:	89 35 14 20 00 00    	mov    %esi,0x2014
 804b129:	89 3d 18 20 00 00    	mov    %edi,0x2018
 804b12f:	0f 90 05 00 22 00 00 	seto   0x2200
 804b136:	0f 91 05 01 22 00 00 	setno  0x2201
 804b13d:	0f 92 05 02 22 00 00 	setb   0x2202
 804b144:	0f 93 05 03 22 00 00 	setae  0x2203
 804b14b:	0f 94 05 04 22 00 00 	sete   0x2204
 804b152:	0f 95 05 05 22 00 00 	setne  0x2205
 804b159:	0f 96 05 06 22 00 00 	setbe  0x2206
 804b160:	0f 97 05 07 22 00 00 	seta   0x2207
 804b167:	0f 98 05 08 22 00 00 	sets   0x2208
 804b16e:	0f 99 05 09 22 00 00 	setns  0x2209
 804b175:	0f 9a 05 0a 22 00 00 	setp   0x220a
 804b17c:	0f 9b 05 0b 22 00 00 	setnp  0x220b
 804b183:	0f 9c 05 0c 22 00 00 	setl   0x220c
 804b18a:	0f 9d 05 0d 22 00 00 	setge  0x220d
 804b191:	0f 9e 05 0e 22 00 00 	setle  0x220e
 804b198:	0f 9f 05 0f 22 00 00 	setg   0x220f
 804b19f:	66 9c                	pushfw 
 804b1a1:	66 58                	pop    %ax
 804b1a3:	66 a3 00 21 00 00    	mov    %ax,0x2100
 804b1a9:	a1 50 20 00 00       	mov    0x2050,%eax
 804b1ae:	29 e0                	sub    %esp,%eax
 804b1b0:	a3 20 20 00 00       	mov    %eax,0x2020
 804b1b5:	b8 00 00 00 00       	mov    $0x0,%eax
 804b1ba:	c3                   	ret    

0804b1bb <xadd2_mv_constant_complex1>:
 804b1bb:	90                   	nop
 804b1bc:	66 6a 00             	pushw  $0x0
 804b1bf:	66 9d                	popfw  
 804b1c1:	b8 84 79 b1 a3       	mov    $0xa3b17984,%eax
 804b1c6:	bb d7 1a 67 06       	mov    $0x6671ad7,%ebx
 804b1cb:	b9 48 52 68 46       	mov    $0x46685248,%ecx
 804b1d0:	ba c4 56 24 39       	mov    $0x392456c4,%edx
 804b1d5:	bd a4 60 89 bc       	mov    $0xbc8960a4,%ebp
 804b1da:	be 78 2d 3c ad       	mov    $0xad3c2d78,%esi
 804b1df:	bf 52 e1 65 e4       	mov    $0xe465e152,%edi
 804b1e4:	89 25 50 20 00 00    	mov    %esp,0x2050
 804b1ea:	66 0f c1 c3          	xadd   %ax,%bx
 804b1ee:	a3 00 20 00 00       	mov    %eax,0x2000
 804b1f3:	89 1d 04 20 00 00    	mov    %ebx,0x2004
 804b1f9:	89 0d 08 20 00 00    	mov    %ecx,0x2008
 804b1ff:	89 15 0c 20 00 00    	mov    %edx,0x200c
 804b205:	89 2d 10 20 00 00    	mov    %ebp,0x2010
 804b20b:	89 35 14 20 00 00    	mov    %esi,0x2014
 804b211:	89 3d 18 20 00 00    	mov    %edi,0x2018
 804b217:	0f 90 05 00 22 00 00 	seto   0x2200
 804b21e:	0f 91 05 01 22 00 00 	setno  0x2201
 804b225:	0f 92 05 02 22 00 00 	setb   0x2202
 804b22c:	0f 93 05 03 22 00 00 	setae  0x2203
 804b233:	0f 94 05 04 22 00 00 	sete   0x2204
 804b23a:	0f 95 05 05 22 00 00 	setne  0x2205
 804b241:	0f 96 05 06 22 00 00 	setbe  0x2206
 804b248:	0f 97 05 07 22 00 00 	seta   0x2207
 804b24f:	0f 98 05 08 22 00 00 	sets   0x2208
 804b256:	0f 99 05 09 22 00 00 	setns  0x2209
 804b25d:	0f 9a 05 0a 22 00 00 	setp   0x220a
 804b264:	0f 9b 05 0b 22 00 00 	setnp  0x220b
 804b26b:	0f 9c 05 0c 22 00 00 	setl   0x220c
 804b272:	0f 9d 05 0d 22 00 00 	setge  0x220d
 804b279:	0f 9e 05 0e 22 00 00 	setle  0x220e
 804b280:	0f 9f 05 0f 22 00 00 	setg   0x220f
 804b287:	66 9c                	pushfw 
 804b289:	66 58                	pop    %ax
 804b28b:	66 a3 00 21 00 00    	mov    %ax,0x2100
 804b291:	a1 50 20 00 00       	mov    0x2050,%eax
 804b296:	29 e0                	sub    %esp,%eax
 804b298:	a3 20 20 00 00       	mov    %eax,0x2020
 804b29d:	b8 00 00 00 00       	mov    $0x0,%eax
 804b2a2:	c3                   	ret    

0804b2a3 <xadd2_mv_constant_complex2>:
 804b2a3:	90                   	nop
 804b2a4:	66 68 ff fe          	pushw  $0xfeff
 804b2a8:	66 9d                	popfw  
 804b2aa:	b8 e8 c0 3e 31       	mov    $0x313ec0e8,%eax
 804b2af:	bb c3 81 6e 49       	mov    $0x496e81c3,%ebx
 804b2b4:	b9 b2 6c 3f 1e       	mov    $0x1e3f6cb2,%ecx
 804b2b9:	ba b3 25 69 4e       	mov    $0x4e6925b3,%edx
 804b2be:	bd 10 26 31 4f       	mov    $0x4f312610,%ebp
 804b2c3:	be a5 a4 37 2f       	mov    $0x2f37a4a5,%esi
 804b2c8:	bf b4 17 a9 91       	mov    $0x91a917b4,%edi
 804b2cd:	89 25 50 20 00 00    	mov    %esp,0x2050
 804b2d3:	66 0f c1 c3          	xadd   %ax,%bx
 804b2d7:	a3 00 20 00 00       	mov    %eax,0x2000
 804b2dc:	89 1d 04 20 00 00    	mov    %ebx,0x2004
 804b2e2:	89 0d 08 20 00 00    	mov    %ecx,0x2008
 804b2e8:	89 15 0c 20 00 00    	mov    %edx,0x200c
 804b2ee:	89 2d 10 20 00 00    	mov    %ebp,0x2010
 804b2f4:	89 35 14 20 00 00    	mov    %esi,0x2014
 804b2fa:	89 3d 18 20 00 00    	mov    %edi,0x2018
 804b300:	0f 90 05 00 22 00 00 	seto   0x2200
 804b307:	0f 91 05 01 22 00 00 	setno  0x2201
 804b30e:	0f 92 05 02 22 00 00 	setb   0x2202
 804b315:	0f 93 05 03 22 00 00 	setae  0x2203
 804b31c:	0f 94 05 04 22 00 00 	sete   0x2204
 804b323:	0f 95 05 05 22 00 00 	setne  0x2205
 804b32a:	0f 96 05 06 22 00 00 	setbe  0x2206
 804b331:	0f 97 05 07 22 00 00 	seta   0x2207
 804b338:	0f 98 05 08 22 00 00 	sets   0x2208
 804b33f:	0f 99 05 09 22 00 00 	setns  0x2209
 804b346:	0f 9a 05 0a 22 00 00 	setp   0x220a
 804b34d:	0f 9b 05 0b 22 00 00 	setnp  0x220b
 804b354:	0f 9c 05 0c 22 00 00 	setl   0x220c
 804b35b:	0f 9d 05 0d 22 00 00 	setge  0x220d
 804b362:	0f 9e 05 0e 22 00 00 	setle  0x220e
 804b369:	0f 9f 05 0f 22 00 00 	setg   0x220f
 804b370:	66 9c                	pushfw 
 804b372:	66 58                	pop    %ax
 804b374:	66 a3 00 21 00 00    	mov    %ax,0x2100
 804b37a:	a1 50 20 00 00       	mov    0x2050,%eax
 804b37f:	29 e0                	sub    %esp,%eax
 804b381:	a3 20 20 00 00       	mov    %eax,0x2020
 804b386:	b8 00 00 00 00       	mov    $0x0,%eax
 804b38b:	c3                   	ret    

0804b38c <xadd3_plain>:
 804b38c:	0f c1 c3             	xadd   %eax,%ebx
 804b38f:	b8 00 00 00 00       	mov    $0x0,%eax
 804b394:	c3                   	ret    

0804b395 <xadd3_allregs>:
 804b395:	90                   	nop
 804b396:	66 a1 00 11 00 00    	mov    0x1100,%ax
 804b39c:	66 50                	push   %ax
 804b39e:	66 9d                	popfw  
 804b3a0:	a1 00 10 00 00       	mov    0x1000,%eax
 804b3a5:	8b 1d 04 10 00 00    	mov    0x1004,%ebx
 804b3ab:	8b 0d 08 10 00 00    	mov    0x1008,%ecx
 804b3b1:	8b 15 0c 10 00 00    	mov    0x100c,%edx
 804b3b7:	8b 2d 10 10 00 00    	mov    0x1010,%ebp
 804b3bd:	8b 35 14 10 00 00    	mov    0x1014,%esi
 804b3c3:	8b 3d 18 10 00 00    	mov    0x1018,%edi
 804b3c9:	89 25 50 20 00 00    	mov    %esp,0x2050
 804b3cf:	0f c1 c3             	xadd   %eax,%ebx
 804b3d2:	a3 00 20 00 00       	mov    %eax,0x2000
 804b3d7:	89 1d 04 20 00 00    	mov    %ebx,0x2004
 804b3dd:	89 0d 08 20 00 00    	mov    %ecx,0x2008
 804b3e3:	89 15 0c 20 00 00    	mov    %edx,0x200c
 804b3e9:	89 2d 10 20 00 00    	mov    %ebp,0x2010
 804b3ef:	89 35 14 20 00 00    	mov    %esi,0x2014
 804b3f5:	89 3d 18 20 00 00    	mov    %edi,0x2018
 804b3fb:	0f 90 05 00 22 00 00 	seto   0x2200
 804b402:	0f 91 05 01 22 00 00 	setno  0x2201
 804b409:	0f 92 05 02 22 00 00 	setb   0x2202
 804b410:	0f 93 05 03 22 00 00 	setae  0x2203
 804b417:	0f 94 05 04 22 00 00 	sete   0x2204
 804b41e:	0f 95 05 05 22 00 00 	setne  0x2205
 804b425:	0f 96 05 06 22 00 00 	setbe  0x2206
 804b42c:	0f 97 05 07 22 00 00 	seta   0x2207
 804b433:	0f 98 05 08 22 00 00 	sets   0x2208
 804b43a:	0f 99 05 09 22 00 00 	setns  0x2209
 804b441:	0f 9a 05 0a 22 00 00 	setp   0x220a
 804b448:	0f 9b 05 0b 22 00 00 	setnp  0x220b
 804b44f:	0f 9c 05 0c 22 00 00 	setl   0x220c
 804b456:	0f 9d 05 0d 22 00 00 	setge  0x220d
 804b45d:	0f 9e 05 0e 22 00 00 	setle  0x220e
 804b464:	0f 9f 05 0f 22 00 00 	setg   0x220f
 804b46b:	66 9c                	pushfw 
 804b46d:	66 58                	pop    %ax
 804b46f:	66 a3 00 21 00 00    	mov    %ax,0x2100
 804b475:	a1 50 20 00 00       	mov    0x2050,%eax
 804b47a:	29 e0                	sub    %esp,%eax
 804b47c:	a3 20 20 00 00       	mov    %eax,0x2020
 804b481:	b8 00 00 00 00       	mov    $0x0,%eax
 804b486:	c3                   	ret    

0804b487 <xadd3_constant_simple>:
 804b487:	90                   	nop
 804b488:	66 6a 00             	pushw  $0x0
 804b48b:	66 9d                	popfw  
 804b48d:	b8 02 00 00 00       	mov    $0x2,%eax
 804b492:	bb 03 00 00 00       	mov    $0x3,%ebx
 804b497:	b9 04 00 00 00       	mov    $0x4,%ecx
 804b49c:	ba 05 00 00 00       	mov    $0x5,%edx
 804b4a1:	bd 06 00 00 00       	mov    $0x6,%ebp
 804b4a6:	be 07 00 00 00       	mov    $0x7,%esi
 804b4ab:	bf 08 00 00 00       	mov    $0x8,%edi
 804b4b0:	89 25 50 20 00 00    	mov    %esp,0x2050
 804b4b6:	0f c1 c3             	xadd   %eax,%ebx
 804b4b9:	a3 00 20 00 00       	mov    %eax,0x2000
 804b4be:	89 1d 04 20 00 00    	mov    %ebx,0x2004
 804b4c4:	89 0d 08 20 00 00    	mov    %ecx,0x2008
 804b4ca:	89 15 0c 20 00 00    	mov    %edx,0x200c
 804b4d0:	89 2d 10 20 00 00    	mov    %ebp,0x2010
 804b4d6:	89 35 14 20 00 00    	mov    %esi,0x2014
 804b4dc:	89 3d 18 20 00 00    	mov    %edi,0x2018
 804b4e2:	0f 90 05 00 22 00 00 	seto   0x2200
 804b4e9:	0f 91 05 01 22 00 00 	setno  0x2201
 804b4f0:	0f 92 05 02 22 00 00 	setb   0x2202
 804b4f7:	0f 93 05 03 22 00 00 	setae  0x2203
 804b4fe:	0f 94 05 04 22 00 00 	sete   0x2204
 804b505:	0f 95 05 05 22 00 00 	setne  0x2205
 804b50c:	0f 96 05 06 22 00 00 	setbe  0x2206
 804b513:	0f 97 05 07 22 00 00 	seta   0x2207
 804b51a:	0f 98 05 08 22 00 00 	sets   0x2208
 804b521:	0f 99 05 09 22 00 00 	setns  0x2209
 804b528:	0f 9a 05 0a 22 00 00 	setp   0x220a
 804b52f:	0f 9b 05 0b 22 00 00 	setnp  0x220b
 804b536:	0f 9c 05 0c 22 00 00 	setl   0x220c
 804b53d:	0f 9d 05 0d 22 00 00 	setge  0x220d
 804b544:	0f 9e 05 0e 22 00 00 	setle  0x220e
 804b54b:	0f 9f 05 0f 22 00 00 	setg   0x220f
 804b552:	66 9c                	pushfw 
 804b554:	66 58                	pop    %ax
 804b556:	66 a3 00 21 00 00    	mov    %ax,0x2100
 804b55c:	a1 50 20 00 00       	mov    0x2050,%eax
 804b561:	29 e0                	sub    %esp,%eax
 804b563:	a3 20 20 00 00       	mov    %eax,0x2020
 804b568:	b8 00 00 00 00       	mov    $0x0,%eax
 804b56d:	c3                   	ret    

0804b56e <xadd3_constant_complex1>:
 804b56e:	90                   	nop
 804b56f:	66 6a 00             	pushw  $0x0
 804b572:	66 9d                	popfw  
 804b574:	b8 84 79 b1 a3       	mov    $0xa3b17984,%eax
 804b579:	bb d7 1a 67 06       	mov    $0x6671ad7,%ebx
 804b57e:	b9 48 52 68 46       	mov    $0x46685248,%ecx
 804b583:	ba c4 56 24 39       	mov    $0x392456c4,%edx
 804b588:	bd a4 60 89 bc       	mov    $0xbc8960a4,%ebp
 804b58d:	be 78 2d 3c ad       	mov    $0xad3c2d78,%esi
 804b592:	bf 52 e1 65 e4       	mov    $0xe465e152,%edi
 804b597:	89 25 50 20 00 00    	mov    %esp,0x2050
 804b59d:	0f c1 c3             	xadd   %eax,%ebx
 804b5a0:	a3 00 20 00 00       	mov    %eax,0x2000
 804b5a5:	89 1d 04 20 00 00    	mov    %ebx,0x2004
 804b5ab:	89 0d 08 20 00 00    	mov    %ecx,0x2008
 804b5b1:	89 15 0c 20 00 00    	mov    %edx,0x200c
 804b5b7:	89 2d 10 20 00 00    	mov    %ebp,0x2010
 804b5bd:	89 35 14 20 00 00    	mov    %esi,0x2014
 804b5c3:	89 3d 18 20 00 00    	mov    %edi,0x2018
 804b5c9:	0f 90 05 00 22 00 00 	seto   0x2200
 804b5d0:	0f 91 05 01 22 00 00 	setno  0x2201
 804b5d7:	0f 92 05 02 22 00 00 	setb   0x2202
 804b5de:	0f 93 05 03 22 00 00 	setae  0x2203
 804b5e5:	0f 94 05 04 22 00 00 	sete   0x2204
 804b5ec:	0f 95 05 05 22 00 00 	setne  0x2205
 804b5f3:	0f 96 05 06 22 00 00 	setbe  0x2206
 804b5fa:	0f 97 05 07 22 00 00 	seta   0x2207
 804b601:	0f 98 05 08 22 00 00 	sets   0x2208
 804b608:	0f 99 05 09 22 00 00 	setns  0x2209
 804b60f:	0f 9a 05 0a 22 00 00 	setp   0x220a
 804b616:	0f 9b 05 0b 22 00 00 	setnp  0x220b
 804b61d:	0f 9c 05 0c 22 00 00 	setl   0x220c
 804b624:	0f 9d 05 0d 22 00 00 	setge  0x220d
 804b62b:	0f 9e 05 0e 22 00 00 	setle  0x220e
 804b632:	0f 9f 05 0f 22 00 00 	setg   0x220f
 804b639:	66 9c                	pushfw 
 804b63b:	66 58                	pop    %ax
 804b63d:	66 a3 00 21 00 00    	mov    %ax,0x2100
 804b643:	a1 50 20 00 00       	mov    0x2050,%eax
 804b648:	29 e0                	sub    %esp,%eax
 804b64a:	a3 20 20 00 00       	mov    %eax,0x2020
 804b64f:	b8 00 00 00 00       	mov    $0x0,%eax
 804b654:	c3                   	ret    

0804b655 <xadd3_constant_complex2>:
 804b655:	90                   	nop
 804b656:	66 68 ff fe          	pushw  $0xfeff
 804b65a:	66 9d                	popfw  
 804b65c:	b8 e8 c0 3e 31       	mov    $0x313ec0e8,%eax
 804b661:	bb c3 81 6e 49       	mov    $0x496e81c3,%ebx
 804b666:	b9 b2 6c 3f 1e       	mov    $0x1e3f6cb2,%ecx
 804b66b:	ba b3 25 69 4e       	mov    $0x4e6925b3,%edx
 804b670:	bd 10 26 31 4f       	mov    $0x4f312610,%ebp
 804b675:	be a5 a4 37 2f       	mov    $0x2f37a4a5,%esi
 804b67a:	bf b4 17 a9 91       	mov    $0x91a917b4,%edi
 804b67f:	89 25 50 20 00 00    	mov    %esp,0x2050
 804b685:	0f c1 c3             	xadd   %eax,%ebx
 804b688:	a3 00 20 00 00       	mov    %eax,0x2000
 804b68d:	89 1d 04 20 00 00    	mov    %ebx,0x2004
 804b693:	89 0d 08 20 00 00    	mov    %ecx,0x2008
 804b699:	89 15 0c 20 00 00    	mov    %edx,0x200c
 804b69f:	89 2d 10 20 00 00    	mov    %ebp,0x2010
 804b6a5:	89 35 14 20 00 00    	mov    %esi,0x2014
 804b6ab:	89 3d 18 20 00 00    	mov    %edi,0x2018
 804b6b1:	0f 90 05 00 22 00 00 	seto   0x2200
 804b6b8:	0f 91 05 01 22 00 00 	setno  0x2201
 804b6bf:	0f 92 05 02 22 00 00 	setb   0x2202
 804b6c6:	0f 93 05 03 22 00 00 	setae  0x2203
 804b6cd:	0f 94 05 04 22 00 00 	sete   0x2204
 804b6d4:	0f 95 05 05 22 00 00 	setne  0x2205
 804b6db:	0f 96 05 06 22 00 00 	setbe  0x2206
 804b6e2:	0f 97 05 07 22 00 00 	seta   0x2207
 804b6e9:	0f 98 05 08 22 00 00 	sets   0x2208
 804b6f0:	0f 99 05 09 22 00 00 	setns  0x2209
 804b6f7:	0f 9a 05 0a 22 00 00 	setp   0x220a
 804b6fe:	0f 9b 05 0b 22 00 00 	setnp  0x220b
 804b705:	0f 9c 05 0c 22 00 00 	setl   0x220c
 804b70c:	0f 9d 05 0d 22 00 00 	setge  0x220d
 804b713:	0f 9e 05 0e 22 00 00 	setle  0x220e
 804b71a:	0f 9f 05 0f 22 00 00 	setg   0x220f
 804b721:	66 9c                	pushfw 
 804b723:	66 58                	pop    %ax
 804b725:	66 a3 00 21 00 00    	mov    %ax,0x2100
 804b72b:	a1 50 20 00 00       	mov    0x2050,%eax
 804b730:	29 e0                	sub    %esp,%eax
 804b732:	a3 20 20 00 00       	mov    %eax,0x2020
 804b737:	b8 00 00 00 00       	mov    $0x0,%eax
 804b73c:	c3                   	ret    

0804b73d <xadd4_mv_plain>:
 804b73d:	0f c1 03             	xadd   %eax,(%ebx)
 804b740:	b8 00 00 00 00       	mov    $0x0,%eax
 804b745:	c3                   	ret    

0804b746 <xadd4_mv_allregs>:
 804b746:	90                   	nop
 804b747:	66 a1 00 11 00 00    	mov    0x1100,%ax
 804b74d:	66 50                	push   %ax
 804b74f:	66 9d                	popfw  
 804b751:	a1 00 10 00 00       	mov    0x1000,%eax
 804b756:	8b 1d 04 10 00 00    	mov    0x1004,%ebx
 804b75c:	8b 0d 08 10 00 00    	mov    0x1008,%ecx
 804b762:	8b 15 0c 10 00 00    	mov    0x100c,%edx
 804b768:	8b 2d 10 10 00 00    	mov    0x1010,%ebp
 804b76e:	8b 35 14 10 00 00    	mov    0x1014,%esi
 804b774:	8b 3d 18 10 00 00    	mov    0x1018,%edi
 804b77a:	89 25 50 20 00 00    	mov    %esp,0x2050
 804b780:	0f c1 03             	xadd   %eax,(%ebx)
 804b783:	a3 00 20 00 00       	mov    %eax,0x2000
 804b788:	89 1d 04 20 00 00    	mov    %ebx,0x2004
 804b78e:	89 0d 08 20 00 00    	mov    %ecx,0x2008
 804b794:	89 15 0c 20 00 00    	mov    %edx,0x200c
 804b79a:	89 2d 10 20 00 00    	mov    %ebp,0x2010
 804b7a0:	89 35 14 20 00 00    	mov    %esi,0x2014
 804b7a6:	89 3d 18 20 00 00    	mov    %edi,0x2018
 804b7ac:	0f 90 05 00 22 00 00 	seto   0x2200
 804b7b3:	0f 91 05 01 22 00 00 	setno  0x2201
 804b7ba:	0f 92 05 02 22 00 00 	setb   0x2202
 804b7c1:	0f 93 05 03 22 00 00 	setae  0x2203
 804b7c8:	0f 94 05 04 22 00 00 	sete   0x2204
 804b7cf:	0f 95 05 05 22 00 00 	setne  0x2205
 804b7d6:	0f 96 05 06 22 00 00 	setbe  0x2206
 804b7dd:	0f 97 05 07 22 00 00 	seta   0x2207
 804b7e4:	0f 98 05 08 22 00 00 	sets   0x2208
 804b7eb:	0f 99 05 09 22 00 00 	setns  0x2209
 804b7f2:	0f 9a 05 0a 22 00 00 	setp   0x220a
 804b7f9:	0f 9b 05 0b 22 00 00 	setnp  0x220b
 804b800:	0f 9c 05 0c 22 00 00 	setl   0x220c
 804b807:	0f 9d 05 0d 22 00 00 	setge  0x220d
 804b80e:	0f 9e 05 0e 22 00 00 	setle  0x220e
 804b815:	0f 9f 05 0f 22 00 00 	setg   0x220f
 804b81c:	66 9c                	pushfw 
 804b81e:	66 58                	pop    %ax
 804b820:	66 a3 00 21 00 00    	mov    %ax,0x2100
 804b826:	a1 50 20 00 00       	mov    0x2050,%eax
 804b82b:	29 e0                	sub    %esp,%eax
 804b82d:	a3 20 20 00 00       	mov    %eax,0x2020
 804b832:	b8 00 00 00 00       	mov    $0x0,%eax
 804b837:	c3                   	ret    

0804b838 <xadd4_mv_constant_simple>:
 804b838:	90                   	nop
 804b839:	66 6a 00             	pushw  $0x0
 804b83c:	66 9d                	popfw  
 804b83e:	b8 02 00 00 00       	mov    $0x2,%eax
 804b843:	bb 03 00 00 00       	mov    $0x3,%ebx
 804b848:	b9 04 00 00 00       	mov    $0x4,%ecx
 804b84d:	ba 05 00 00 00       	mov    $0x5,%edx
 804b852:	bd 06 00 00 00       	mov    $0x6,%ebp
 804b857:	be 07 00 00 00       	mov    $0x7,%esi
 804b85c:	bf 08 00 00 00       	mov    $0x8,%edi
 804b861:	89 25 50 20 00 00    	mov    %esp,0x2050
 804b867:	0f c1 03             	xadd   %eax,(%ebx)
 804b86a:	a3 00 20 00 00       	mov    %eax,0x2000
 804b86f:	89 1d 04 20 00 00    	mov    %ebx,0x2004
 804b875:	89 0d 08 20 00 00    	mov    %ecx,0x2008
 804b87b:	89 15 0c 20 00 00    	mov    %edx,0x200c
 804b881:	89 2d 10 20 00 00    	mov    %ebp,0x2010
 804b887:	89 35 14 20 00 00    	mov    %esi,0x2014
 804b88d:	89 3d 18 20 00 00    	mov    %edi,0x2018
 804b893:	0f 90 05 00 22 00 00 	seto   0x2200
 804b89a:	0f 91 05 01 22 00 00 	setno  0x2201
 804b8a1:	0f 92 05 02 22 00 00 	setb   0x2202
 804b8a8:	0f 93 05 03 22 00 00 	setae  0x2203
 804b8af:	0f 94 05 04 22 00 00 	sete   0x2204
 804b8b6:	0f 95 05 05 22 00 00 	setne  0x2205
 804b8bd:	0f 96 05 06 22 00 00 	setbe  0x2206
 804b8c4:	0f 97 05 07 22 00 00 	seta   0x2207
 804b8cb:	0f 98 05 08 22 00 00 	sets   0x2208
 804b8d2:	0f 99 05 09 22 00 00 	setns  0x2209
 804b8d9:	0f 9a 05 0a 22 00 00 	setp   0x220a
 804b8e0:	0f 9b 05 0b 22 00 00 	setnp  0x220b
 804b8e7:	0f 9c 05 0c 22 00 00 	setl   0x220c
 804b8ee:	0f 9d 05 0d 22 00 00 	setge  0x220d
 804b8f5:	0f 9e 05 0e 22 00 00 	setle  0x220e
 804b8fc:	0f 9f 05 0f 22 00 00 	setg   0x220f
 804b903:	66 9c                	pushfw 
 804b905:	66 58                	pop    %ax
 804b907:	66 a3 00 21 00 00    	mov    %ax,0x2100
 804b90d:	a1 50 20 00 00       	mov    0x2050,%eax
 804b912:	29 e0                	sub    %esp,%eax
 804b914:	a3 20 20 00 00       	mov    %eax,0x2020
 804b919:	b8 00 00 00 00       	mov    $0x0,%eax
 804b91e:	c3                   	ret    

0804b91f <xadd4_mv_constant_complex1>:
 804b91f:	90                   	nop
 804b920:	66 6a 00             	pushw  $0x0
 804b923:	66 9d                	popfw  
 804b925:	b8 84 79 b1 a3       	mov    $0xa3b17984,%eax
 804b92a:	bb d7 1a 67 06       	mov    $0x6671ad7,%ebx
 804b92f:	b9 48 52 68 46       	mov    $0x46685248,%ecx
 804b934:	ba c4 56 24 39       	mov    $0x392456c4,%edx
 804b939:	bd a4 60 89 bc       	mov    $0xbc8960a4,%ebp
 804b93e:	be 78 2d 3c ad       	mov    $0xad3c2d78,%esi
 804b943:	bf 52 e1 65 e4       	mov    $0xe465e152,%edi
 804b948:	89 25 50 20 00 00    	mov    %esp,0x2050
 804b94e:	0f c1 03             	xadd   %eax,(%ebx)
 804b951:	a3 00 20 00 00       	mov    %eax,0x2000
 804b956:	89 1d 04 20 00 00    	mov    %ebx,0x2004
 804b95c:	89 0d 08 20 00 00    	mov    %ecx,0x2008
 804b962:	89 15 0c 20 00 00    	mov    %edx,0x200c
 804b968:	89 2d 10 20 00 00    	mov    %ebp,0x2010
 804b96e:	89 35 14 20 00 00    	mov    %esi,0x2014
 804b974:	89 3d 18 20 00 00    	mov    %edi,0x2018
 804b97a:	0f 90 05 00 22 00 00 	seto   0x2200
 804b981:	0f 91 05 01 22 00 00 	setno  0x2201
 804b988:	0f 92 05 02 22 00 00 	setb   0x2202
 804b98f:	0f 93 05 03 22 00 00 	setae  0x2203
 804b996:	0f 94 05 04 22 00 00 	sete   0x2204
 804b99d:	0f 95 05 05 22 00 00 	setne  0x2205
 804b9a4:	0f 96 05 06 22 00 00 	setbe  0x2206
 804b9ab:	0f 97 05 07 22 00 00 	seta   0x2207
 804b9b2:	0f 98 05 08 22 00 00 	sets   0x2208
 804b9b9:	0f 99 05 09 22 00 00 	setns  0x2209
 804b9c0:	0f 9a 05 0a 22 00 00 	setp   0x220a
 804b9c7:	0f 9b 05 0b 22 00 00 	setnp  0x220b
 804b9ce:	0f 9c 05 0c 22 00 00 	setl   0x220c
 804b9d5:	0f 9d 05 0d 22 00 00 	setge  0x220d
 804b9dc:	0f 9e 05 0e 22 00 00 	setle  0x220e
 804b9e3:	0f 9f 05 0f 22 00 00 	setg   0x220f
 804b9ea:	66 9c                	pushfw 
 804b9ec:	66 58                	pop    %ax
 804b9ee:	66 a3 00 21 00 00    	mov    %ax,0x2100
 804b9f4:	a1 50 20 00 00       	mov    0x2050,%eax
 804b9f9:	29 e0                	sub    %esp,%eax
 804b9fb:	a3 20 20 00 00       	mov    %eax,0x2020
 804ba00:	b8 00 00 00 00       	mov    $0x0,%eax
 804ba05:	c3                   	ret    

0804ba06 <xadd4_mv_constant_complex2>:
 804ba06:	90                   	nop
 804ba07:	66 68 ff fe          	pushw  $0xfeff
 804ba0b:	66 9d                	popfw  
 804ba0d:	b8 e8 c0 3e 31       	mov    $0x313ec0e8,%eax
 804ba12:	bb c3 81 6e 49       	mov    $0x496e81c3,%ebx
 804ba17:	b9 b2 6c 3f 1e       	mov    $0x1e3f6cb2,%ecx
 804ba1c:	ba b3 25 69 4e       	mov    $0x4e6925b3,%edx
 804ba21:	bd 10 26 31 4f       	mov    $0x4f312610,%ebp
 804ba26:	be a5 a4 37 2f       	mov    $0x2f37a4a5,%esi
 804ba2b:	bf b4 17 a9 91       	mov    $0x91a917b4,%edi
 804ba30:	89 25 50 20 00 00    	mov    %esp,0x2050
 804ba36:	0f c1 03             	xadd   %eax,(%ebx)
 804ba39:	a3 00 20 00 00       	mov    %eax,0x2000
 804ba3e:	89 1d 04 20 00 00    	mov    %ebx,0x2004
 804ba44:	89 0d 08 20 00 00    	mov    %ecx,0x2008
 804ba4a:	89 15 0c 20 00 00    	mov    %edx,0x200c
 804ba50:	89 2d 10 20 00 00    	mov    %ebp,0x2010
 804ba56:	89 35 14 20 00 00    	mov    %esi,0x2014
 804ba5c:	89 3d 18 20 00 00    	mov    %edi,0x2018
 804ba62:	0f 90 05 00 22 00 00 	seto   0x2200
 804ba69:	0f 91 05 01 22 00 00 	setno  0x2201
 804ba70:	0f 92 05 02 22 00 00 	setb   0x2202
 804ba77:	0f 93 05 03 22 00 00 	setae  0x2203
 804ba7e:	0f 94 05 04 22 00 00 	sete   0x2204
 804ba85:	0f 95 05 05 22 00 00 	setne  0x2205
 804ba8c:	0f 96 05 06 22 00 00 	setbe  0x2206
 804ba93:	0f 97 05 07 22 00 00 	seta   0x2207
 804ba9a:	0f 98 05 08 22 00 00 	sets   0x2208
 804baa1:	0f 99 05 09 22 00 00 	setns  0x2209
 804baa8:	0f 9a 05 0a 22 00 00 	setp   0x220a
 804baaf:	0f 9b 05 0b 22 00 00 	setnp  0x220b
 804bab6:	0f 9c 05 0c 22 00 00 	setl   0x220c
 804babd:	0f 9d 05 0d 22 00 00 	setge  0x220d
 804bac4:	0f 9e 05 0e 22 00 00 	setle  0x220e
 804bacb:	0f 9f 05 0f 22 00 00 	setg   0x220f
 804bad2:	66 9c                	pushfw 
 804bad4:	66 58                	pop    %ax
 804bad6:	66 a3 00 21 00 00    	mov    %ax,0x2100
 804badc:	a1 50 20 00 00       	mov    0x2050,%eax
 804bae1:	29 e0                	sub    %esp,%eax
 804bae3:	a3 20 20 00 00       	mov    %eax,0x2020
 804bae8:	b8 00 00 00 00       	mov    $0x0,%eax
 804baed:	c3                   	ret    

0804baee <xadd5_mv_plain>:
 804baee:	0f c0 c0             	xadd   %al,%al
 804baf1:	b8 00 00 00 00       	mov    $0x0,%eax
 804baf6:	c3                   	ret    

0804baf7 <xadd5_mv_allregs>:
 804baf7:	90                   	nop
 804baf8:	66 a1 00 11 00 00    	mov    0x1100,%ax
 804bafe:	66 50                	push   %ax
 804bb00:	66 9d                	popfw  
 804bb02:	a1 00 10 00 00       	mov    0x1000,%eax
 804bb07:	8b 1d 04 10 00 00    	mov    0x1004,%ebx
 804bb0d:	8b 0d 08 10 00 00    	mov    0x1008,%ecx
 804bb13:	8b 15 0c 10 00 00    	mov    0x100c,%edx
 804bb19:	8b 2d 10 10 00 00    	mov    0x1010,%ebp
 804bb1f:	8b 35 14 10 00 00    	mov    0x1014,%esi
 804bb25:	8b 3d 18 10 00 00    	mov    0x1018,%edi
 804bb2b:	89 25 50 20 00 00    	mov    %esp,0x2050
 804bb31:	0f c0 c0             	xadd   %al,%al
 804bb34:	a3 00 20 00 00       	mov    %eax,0x2000
 804bb39:	89 1d 04 20 00 00    	mov    %ebx,0x2004
 804bb3f:	89 0d 08 20 00 00    	mov    %ecx,0x2008
 804bb45:	89 15 0c 20 00 00    	mov    %edx,0x200c
 804bb4b:	89 2d 10 20 00 00    	mov    %ebp,0x2010
 804bb51:	89 35 14 20 00 00    	mov    %esi,0x2014
 804bb57:	89 3d 18 20 00 00    	mov    %edi,0x2018
 804bb5d:	0f 90 05 00 22 00 00 	seto   0x2200
 804bb64:	0f 91 05 01 22 00 00 	setno  0x2201
 804bb6b:	0f 92 05 02 22 00 00 	setb   0x2202
 804bb72:	0f 93 05 03 22 00 00 	setae  0x2203
 804bb79:	0f 94 05 04 22 00 00 	sete   0x2204
 804bb80:	0f 95 05 05 22 00 00 	setne  0x2205
 804bb87:	0f 96 05 06 22 00 00 	setbe  0x2206
 804bb8e:	0f 97 05 07 22 00 00 	seta   0x2207
 804bb95:	0f 98 05 08 22 00 00 	sets   0x2208
 804bb9c:	0f 99 05 09 22 00 00 	setns  0x2209
 804bba3:	0f 9a 05 0a 22 00 00 	setp   0x220a
 804bbaa:	0f 9b 05 0b 22 00 00 	setnp  0x220b
 804bbb1:	0f 9c 05 0c 22 00 00 	setl   0x220c
 804bbb8:	0f 9d 05 0d 22 00 00 	setge  0x220d
 804bbbf:	0f 9e 05 0e 22 00 00 	setle  0x220e
 804bbc6:	0f 9f 05 0f 22 00 00 	setg   0x220f
 804bbcd:	66 9c                	pushfw 
 804bbcf:	66 58                	pop    %ax
 804bbd1:	66 a3 00 21 00 00    	mov    %ax,0x2100
 804bbd7:	a1 50 20 00 00       	mov    0x2050,%eax
 804bbdc:	29 e0                	sub    %esp,%eax
 804bbde:	a3 20 20 00 00       	mov    %eax,0x2020
 804bbe3:	b8 00 00 00 00       	mov    $0x0,%eax
 804bbe8:	c3                   	ret    

0804bbe9 <xadd5_mv_constant_simple>:
 804bbe9:	90                   	nop
 804bbea:	66 6a 00             	pushw  $0x0
 804bbed:	66 9d                	popfw  
 804bbef:	b8 02 00 00 00       	mov    $0x2,%eax
 804bbf4:	bb 03 00 00 00       	mov    $0x3,%ebx
 804bbf9:	b9 04 00 00 00       	mov    $0x4,%ecx
 804bbfe:	ba 05 00 00 00       	mov    $0x5,%edx
 804bc03:	bd 06 00 00 00       	mov    $0x6,%ebp
 804bc08:	be 07 00 00 00       	mov    $0x7,%esi
 804bc0d:	bf 08 00 00 00       	mov    $0x8,%edi
 804bc12:	89 25 50 20 00 00    	mov    %esp,0x2050
 804bc18:	0f c0 c0             	xadd   %al,%al
 804bc1b:	a3 00 20 00 00       	mov    %eax,0x2000
 804bc20:	89 1d 04 20 00 00    	mov    %ebx,0x2004
 804bc26:	89 0d 08 20 00 00    	mov    %ecx,0x2008
 804bc2c:	89 15 0c 20 00 00    	mov    %edx,0x200c
 804bc32:	89 2d 10 20 00 00    	mov    %ebp,0x2010
 804bc38:	89 35 14 20 00 00    	mov    %esi,0x2014
 804bc3e:	89 3d 18 20 00 00    	mov    %edi,0x2018
 804bc44:	0f 90 05 00 22 00 00 	seto   0x2200
 804bc4b:	0f 91 05 01 22 00 00 	setno  0x2201
 804bc52:	0f 92 05 02 22 00 00 	setb   0x2202
 804bc59:	0f 93 05 03 22 00 00 	setae  0x2203
 804bc60:	0f 94 05 04 22 00 00 	sete   0x2204
 804bc67:	0f 95 05 05 22 00 00 	setne  0x2205
 804bc6e:	0f 96 05 06 22 00 00 	setbe  0x2206
 804bc75:	0f 97 05 07 22 00 00 	seta   0x2207
 804bc7c:	0f 98 05 08 22 00 00 	sets   0x2208
 804bc83:	0f 99 05 09 22 00 00 	setns  0x2209
 804bc8a:	0f 9a 05 0a 22 00 00 	setp   0x220a
 804bc91:	0f 9b 05 0b 22 00 00 	setnp  0x220b
 804bc98:	0f 9c 05 0c 22 00 00 	setl   0x220c
 804bc9f:	0f 9d 05 0d 22 00 00 	setge  0x220d
 804bca6:	0f 9e 05 0e 22 00 00 	setle  0x220e
 804bcad:	0f 9f 05 0f 22 00 00 	setg   0x220f
 804bcb4:	66 9c                	pushfw 
 804bcb6:	66 58                	pop    %ax
 804bcb8:	66 a3 00 21 00 00    	mov    %ax,0x2100
 804bcbe:	a1 50 20 00 00       	mov    0x2050,%eax
 804bcc3:	29 e0                	sub    %esp,%eax
 804bcc5:	a3 20 20 00 00       	mov    %eax,0x2020
 804bcca:	b8 00 00 00 00       	mov    $0x0,%eax
 804bccf:	c3                   	ret    

0804bcd0 <xadd5_mv_constant_complex1>:
 804bcd0:	90                   	nop
 804bcd1:	66 6a 00             	pushw  $0x0
 804bcd4:	66 9d                	popfw  
 804bcd6:	b8 84 79 b1 a3       	mov    $0xa3b17984,%eax
 804bcdb:	bb d7 1a 67 06       	mov    $0x6671ad7,%ebx
 804bce0:	b9 48 52 68 46       	mov    $0x46685248,%ecx
 804bce5:	ba c4 56 24 39       	mov    $0x392456c4,%edx
 804bcea:	bd a4 60 89 bc       	mov    $0xbc8960a4,%ebp
 804bcef:	be 78 2d 3c ad       	mov    $0xad3c2d78,%esi
 804bcf4:	bf 52 e1 65 e4       	mov    $0xe465e152,%edi
 804bcf9:	89 25 50 20 00 00    	mov    %esp,0x2050
 804bcff:	0f c0 c0             	xadd   %al,%al
 804bd02:	a3 00 20 00 00       	mov    %eax,0x2000
 804bd07:	89 1d 04 20 00 00    	mov    %ebx,0x2004
 804bd0d:	89 0d 08 20 00 00    	mov    %ecx,0x2008
 804bd13:	89 15 0c 20 00 00    	mov    %edx,0x200c
 804bd19:	89 2d 10 20 00 00    	mov    %ebp,0x2010
 804bd1f:	89 35 14 20 00 00    	mov    %esi,0x2014
 804bd25:	89 3d 18 20 00 00    	mov    %edi,0x2018
 804bd2b:	0f 90 05 00 22 00 00 	seto   0x2200
 804bd32:	0f 91 05 01 22 00 00 	setno  0x2201
 804bd39:	0f 92 05 02 22 00 00 	setb   0x2202
 804bd40:	0f 93 05 03 22 00 00 	setae  0x2203
 804bd47:	0f 94 05 04 22 00 00 	sete   0x2204
 804bd4e:	0f 95 05 05 22 00 00 	setne  0x2205
 804bd55:	0f 96 05 06 22 00 00 	setbe  0x2206
 804bd5c:	0f 97 05 07 22 00 00 	seta   0x2207
 804bd63:	0f 98 05 08 22 00 00 	sets   0x2208
 804bd6a:	0f 99 05 09 22 00 00 	setns  0x2209
 804bd71:	0f 9a 05 0a 22 00 00 	setp   0x220a
 804bd78:	0f 9b 05 0b 22 00 00 	setnp  0x220b
 804bd7f:	0f 9c 05 0c 22 00 00 	setl   0x220c
 804bd86:	0f 9d 05 0d 22 00 00 	setge  0x220d
 804bd8d:	0f 9e 05 0e 22 00 00 	setle  0x220e
 804bd94:	0f 9f 05 0f 22 00 00 	setg   0x220f
 804bd9b:	66 9c                	pushfw 
 804bd9d:	66 58                	pop    %ax
 804bd9f:	66 a3 00 21 00 00    	mov    %ax,0x2100
 804bda5:	a1 50 20 00 00       	mov    0x2050,%eax
 804bdaa:	29 e0                	sub    %esp,%eax
 804bdac:	a3 20 20 00 00       	mov    %eax,0x2020
 804bdb1:	b8 00 00 00 00       	mov    $0x0,%eax
 804bdb6:	c3                   	ret    

0804bdb7 <xadd5_mv_constant_complex2>:
 804bdb7:	90                   	nop
 804bdb8:	66 68 ff fe          	pushw  $0xfeff
 804bdbc:	66 9d                	popfw  
 804bdbe:	b8 e8 c0 3e 31       	mov    $0x313ec0e8,%eax
 804bdc3:	bb c3 81 6e 49       	mov    $0x496e81c3,%ebx
 804bdc8:	b9 b2 6c 3f 1e       	mov    $0x1e3f6cb2,%ecx
 804bdcd:	ba b3 25 69 4e       	mov    $0x4e6925b3,%edx
 804bdd2:	bd 10 26 31 4f       	mov    $0x4f312610,%ebp
 804bdd7:	be a5 a4 37 2f       	mov    $0x2f37a4a5,%esi
 804bddc:	bf b4 17 a9 91       	mov    $0x91a917b4,%edi
 804bde1:	89 25 50 20 00 00    	mov    %esp,0x2050
 804bde7:	0f c0 c0             	xadd   %al,%al
 804bdea:	a3 00 20 00 00       	mov    %eax,0x2000
 804bdef:	89 1d 04 20 00 00    	mov    %ebx,0x2004
 804bdf5:	89 0d 08 20 00 00    	mov    %ecx,0x2008
 804bdfb:	89 15 0c 20 00 00    	mov    %edx,0x200c
 804be01:	89 2d 10 20 00 00    	mov    %ebp,0x2010
 804be07:	89 35 14 20 00 00    	mov    %esi,0x2014
 804be0d:	89 3d 18 20 00 00    	mov    %edi,0x2018
 804be13:	0f 90 05 00 22 00 00 	seto   0x2200
 804be1a:	0f 91 05 01 22 00 00 	setno  0x2201
 804be21:	0f 92 05 02 22 00 00 	setb   0x2202
 804be28:	0f 93 05 03 22 00 00 	setae  0x2203
 804be2f:	0f 94 05 04 22 00 00 	sete   0x2204
 804be36:	0f 95 05 05 22 00 00 	setne  0x2205
 804be3d:	0f 96 05 06 22 00 00 	setbe  0x2206
 804be44:	0f 97 05 07 22 00 00 	seta   0x2207
 804be4b:	0f 98 05 08 22 00 00 	sets   0x2208
 804be52:	0f 99 05 09 22 00 00 	setns  0x2209
 804be59:	0f 9a 05 0a 22 00 00 	setp   0x220a
 804be60:	0f 9b 05 0b 22 00 00 	setnp  0x220b
 804be67:	0f 9c 05 0c 22 00 00 	setl   0x220c
 804be6e:	0f 9d 05 0d 22 00 00 	setge  0x220d
 804be75:	0f 9e 05 0e 22 00 00 	setle  0x220e
 804be7c:	0f 9f 05 0f 22 00 00 	setg   0x220f
 804be83:	66 9c                	pushfw 
 804be85:	66 58                	pop    %ax
 804be87:	66 a3 00 21 00 00    	mov    %ax,0x2100
 804be8d:	a1 50 20 00 00       	mov    0x2050,%eax
 804be92:	29 e0                	sub    %esp,%eax
 804be94:	a3 20 20 00 00       	mov    %eax,0x2020
 804be99:	b8 00 00 00 00       	mov    $0x0,%eax
 804be9e:	c3                   	ret    

0804be9f <xadd_locked_mv_plain>:
 804be9f:	f0 0f c1 03          	lock xadd %eax,(%ebx)
 804bea3:	b8 00 00 00 00       	mov    $0x0,%eax
 804bea8:	c3                   	ret    

0804bea9 <xadd_locked_mv_allregs>:
 804bea9:	90                   	nop
 804beaa:	66 a1 00 11 00 00    	mov    0x1100,%ax
 804beb0:	66 50                	push   %ax
 804beb2:	66 9d                	popfw  
 804beb4:	a1 00 10 00 00       	mov    0x1000,%eax
 804beb9:	8b 1d 04 10 00 00    	mov    0x1004,%ebx
 804bebf:	8b 0d 08 10 00 00    	mov    0x1008,%ecx
 804bec5:	8b 15 0c 10 00 00    	mov    0x100c,%edx
 804becb:	8b 2d 10 10 00 00    	mov    0x1010,%ebp
 804bed1:	8b 35 14 10 00 00    	mov    0x1014,%esi
 804bed7:	8b 3d 18 10 00 00    	mov    0x1018,%edi
 804bedd:	89 25 50 20 00 00    	mov    %esp,0x2050
 804bee3:	f0 0f c1 03          	lock xadd %eax,(%ebx)
 804bee7:	a3 00 20 00 00       	mov    %eax,0x2000
 804beec:	89 1d 04 20 00 00    	mov    %ebx,0x2004
 804bef2:	89 0d 08 20 00 00    	mov    %ecx,0x2008
 804bef8:	89 15 0c 20 00 00    	mov    %edx,0x200c
 804befe:	89 2d 10 20 00 00    	mov    %ebp,0x2010
 804bf04:	89 35 14 20 00 00    	mov    %esi,0x2014
 804bf0a:	89 3d 18 20 00 00    	mov    %edi,0x2018
 804bf10:	0f 90 05 00 22 00 00 	seto   0x2200
 804bf17:	0f 91 05 01 22 00 00 	setno  0x2201
 804bf1e:	0f 92 05 02 22 00 00 	setb   0x2202
 804bf25:	0f 93 05 03 22 00 00 	setae  0x2203
 804bf2c:	0f 94 05 04 22 00 00 	sete   0x2204
 804bf33:	0f 95 05 05 22 00 00 	setne  0x2205
 804bf3a:	0f 96 05 06 22 00 00 	setbe  0x2206
 804bf41:	0f 97 05 07 22 00 00 	seta   0x2207
 804bf48:	0f 98 05 08 22 00 00 	sets   0x2208
 804bf4f:	0f 99 05 09 22 00 00 	setns  0x2209
 804bf56:	0f 9a 05 0a 22 00 00 	setp   0x220a
 804bf5d:	0f 9b 05 0b 22 00 00 	setnp  0x220b
 804bf64:	0f 9c 05 0c 22 00 00 	setl   0x220c
 804bf6b:	0f 9d 05 0d 22 00 00 	setge  0x220d
 804bf72:	0f 9e 05 0e 22 00 00 	setle  0x220e
 804bf79:	0f 9f 05 0f 22 00 00 	setg   0x220f
 804bf80:	66 9c                	pushfw 
 804bf82:	66 58                	pop    %ax
 804bf84:	66 a3 00 21 00 00    	mov    %ax,0x2100
 804bf8a:	a1 50 20 00 00       	mov    0x2050,%eax
 804bf8f:	29 e0                	sub    %esp,%eax
 804bf91:	a3 20 20 00 00       	mov    %eax,0x2020
 804bf96:	b8 00 00 00 00       	mov    $0x0,%eax
 804bf9b:	c3                   	ret    

0804bf9c <xadd_locked_mv_constant_simple>:
 804bf9c:	90                   	nop
 804bf9d:	66 6a 00             	pushw  $0x0
 804bfa0:	66 9d                	popfw  
 804bfa2:	b8 02 00 00 00       	mov    $0x2,%eax
 804bfa7:	bb 03 00 00 00       	mov    $0x3,%ebx
 804bfac:	b9 04 00 00 00       	mov    $0x4,%ecx
 804bfb1:	ba 05 00 00 00       	mov    $0x5,%edx
 804bfb6:	bd 06 00 00 00       	mov    $0x6,%ebp
 804bfbb:	be 07 00 00 00       	mov    $0x7,%esi
 804bfc0:	bf 08 00 00 00       	mov    $0x8,%edi
 804bfc5:	89 25 50 20 00 00    	mov    %esp,0x2050
 804bfcb:	f0 0f c1 03          	lock xadd %eax,(%ebx)
 804bfcf:	a3 00 20 00 00       	mov    %eax,0x2000
 804bfd4:	89 1d 04 20 00 00    	mov    %ebx,0x2004
 804bfda:	89 0d 08 20 00 00    	mov    %ecx,0x2008
 804bfe0:	89 15 0c 20 00 00    	mov    %edx,0x200c
 804bfe6:	89 2d 10 20 00 00    	mov    %ebp,0x2010
 804bfec:	89 35 14 20 00 00    	mov    %esi,0x2014
 804bff2:	89 3d 18 20 00 00    	mov    %edi,0x2018
 804bff8:	0f 90 05 00 22 00 00 	seto   0x2200
 804bfff:	0f 91 05 01 22 00 00 	setno  0x2201
 804c006:	0f 92 05 02 22 00 00 	setb   0x2202
 804c00d:	0f 93 05 03 22 00 00 	setae  0x2203
 804c014:	0f 94 05 04 22 00 00 	sete   0x2204
 804c01b:	0f 95 05 05 22 00 00 	setne  0x2205
 804c022:	0f 96 05 06 22 00 00 	setbe  0x2206
 804c029:	0f 97 05 07 22 00 00 	seta   0x2207
 804c030:	0f 98 05 08 22 00 00 	sets   0x2208
 804c037:	0f 99 05 09 22 00 00 	setns  0x2209
 804c03e:	0f 9a 05 0a 22 00 00 	setp   0x220a
 804c045:	0f 9b 05 0b 22 00 00 	setnp  0x220b
 804c04c:	0f 9c 05 0c 22 00 00 	setl   0x220c
 804c053:	0f 9d 05 0d 22 00 00 	setge  0x220d
 804c05a:	0f 9e 05 0e 22 00 00 	setle  0x220e
 804c061:	0f 9f 05 0f 22 00 00 	setg   0x220f
 804c068:	66 9c                	pushfw 
 804c06a:	66 58                	pop    %ax
 804c06c:	66 a3 00 21 00 00    	mov    %ax,0x2100
 804c072:	a1 50 20 00 00       	mov    0x2050,%eax
 804c077:	29 e0                	sub    %esp,%eax
 804c079:	a3 20 20 00 00       	mov    %eax,0x2020
 804c07e:	b8 00 00 00 00       	mov    $0x0,%eax
 804c083:	c3                   	ret    

0804c084 <xadd_locked_mv_constant_complex1>:
 804c084:	90                   	nop
 804c085:	66 6a 00             	pushw  $0x0
 804c088:	66 9d                	popfw  
 804c08a:	b8 84 79 b1 a3       	mov    $0xa3b17984,%eax
 804c08f:	bb d7 1a 67 06       	mov    $0x6671ad7,%ebx
 804c094:	b9 48 52 68 46       	mov    $0x46685248,%ecx
 804c099:	ba c4 56 24 39       	mov    $0x392456c4,%edx
 804c09e:	bd a4 60 89 bc       	mov    $0xbc8960a4,%ebp
 804c0a3:	be 78 2d 3c ad       	mov    $0xad3c2d78,%esi
 804c0a8:	bf 52 e1 65 e4       	mov    $0xe465e152,%edi
 804c0ad:	89 25 50 20 00 00    	mov    %esp,0x2050
 804c0b3:	f0 0f c1 03          	lock xadd %eax,(%ebx)
 804c0b7:	a3 00 20 00 00       	mov    %eax,0x2000
 804c0bc:	89 1d 04 20 00 00    	mov    %ebx,0x2004
 804c0c2:	89 0d 08 20 00 00    	mov    %ecx,0x2008
 804c0c8:	89 15 0c 20 00 00    	mov    %edx,0x200c
 804c0ce:	89 2d 10 20 00 00    	mov    %ebp,0x2010
 804c0d4:	89 35 14 20 00 00    	mov    %esi,0x2014
 804c0da:	89 3d 18 20 00 00    	mov    %edi,0x2018
 804c0e0:	0f 90 05 00 22 00 00 	seto   0x2200
 804c0e7:	0f 91 05 01 22 00 00 	setno  0x2201
 804c0ee:	0f 92 05 02 22 00 00 	setb   0x2202
 804c0f5:	0f 93 05 03 22 00 00 	setae  0x2203
 804c0fc:	0f 94 05 04 22 00 00 	sete   0x2204
 804c103:	0f 95 05 05 22 00 00 	setne  0x2205
 804c10a:	0f 96 05 06 22 00 00 	setbe  0x2206
 804c111:	0f 97 05 07 22 00 00 	seta   0x2207
 804c118:	0f 98 05 08 22 00 00 	sets   0x2208
 804c11f:	0f 99 05 09 22 00 00 	setns  0x2209
 804c126:	0f 9a 05 0a 22 00 00 	setp   0x220a
 804c12d:	0f 9b 05 0b 22 00 00 	setnp  0x220b
 804c134:	0f 9c 05 0c 22 00 00 	setl   0x220c
 804c13b:	0f 9d 05 0d 22 00 00 	setge  0x220d
 804c142:	0f 9e 05 0e 22 00 00 	setle  0x220e
 804c149:	0f 9f 05 0f 22 00 00 	setg   0x220f
 804c150:	66 9c                	pushfw 
 804c152:	66 58                	pop    %ax
 804c154:	66 a3 00 21 00 00    	mov    %ax,0x2100
 804c15a:	a1 50 20 00 00       	mov    0x2050,%eax
 804c15f:	29 e0                	sub    %esp,%eax
 804c161:	a3 20 20 00 00       	mov    %eax,0x2020
 804c166:	b8 00 00 00 00       	mov    $0x0,%eax
 804c16b:	c3                   	ret    

0804c16c <xadd_locked_mv_constant_complex2>:
 804c16c:	90                   	nop
 804c16d:	66 68 ff fe          	pushw  $0xfeff
 804c171:	66 9d                	popfw  
 804c173:	b8 e8 c0 3e 31       	mov    $0x313ec0e8,%eax
 804c178:	bb c3 81 6e 49       	mov    $0x496e81c3,%ebx
 804c17d:	b9 b2 6c 3f 1e       	mov    $0x1e3f6cb2,%ecx
 804c182:	ba b3 25 69 4e       	mov    $0x4e6925b3,%edx
 804c187:	bd 10 26 31 4f       	mov    $0x4f312610,%ebp
 804c18c:	be a5 a4 37 2f       	mov    $0x2f37a4a5,%esi
 804c191:	bf b4 17 a9 91       	mov    $0x91a917b4,%edi
 804c196:	89 25 50 20 00 00    	mov    %esp,0x2050
 804c19c:	f0 0f c1 03          	lock xadd %eax,(%ebx)
 804c1a0:	a3 00 20 00 00       	mov    %eax,0x2000
 804c1a5:	89 1d 04 20 00 00    	mov    %ebx,0x2004
 804c1ab:	89 0d 08 20 00 00    	mov    %ecx,0x2008
 804c1b1:	89 15 0c 20 00 00    	mov    %edx,0x200c
 804c1b7:	89 2d 10 20 00 00    	mov    %ebp,0x2010
 804c1bd:	89 35 14 20 00 00    	mov    %esi,0x2014
 804c1c3:	89 3d 18 20 00 00    	mov    %edi,0x2018
 804c1c9:	0f 90 05 00 22 00 00 	seto   0x2200
 804c1d0:	0f 91 05 01 22 00 00 	setno  0x2201
 804c1d7:	0f 92 05 02 22 00 00 	setb   0x2202
 804c1de:	0f 93 05 03 22 00 00 	setae  0x2203
 804c1e5:	0f 94 05 04 22 00 00 	sete   0x2204
 804c1ec:	0f 95 05 05 22 00 00 	setne  0x2205
 804c1f3:	0f 96 05 06 22 00 00 	setbe  0x2206
 804c1fa:	0f 97 05 07 22 00 00 	seta   0x2207
 804c201:	0f 98 05 08 22 00 00 	sets   0x2208
 804c208:	0f 99 05 09 22 00 00 	setns  0x2209
 804c20f:	0f 9a 05 0a 22 00 00 	setp   0x220a
 804c216:	0f 9b 05 0b 22 00 00 	setnp  0x220b
 804c21d:	0f 9c 05 0c 22 00 00 	setl   0x220c
 804c224:	0f 9d 05 0d 22 00 00 	setge  0x220d
 804c22b:	0f 9e 05 0e 22 00 00 	setle  0x220e
 804c232:	0f 9f 05 0f 22 00 00 	setg   0x220f
 804c239:	66 9c                	pushfw 
 804c23b:	66 58                	pop    %ax
 804c23d:	66 a3 00 21 00 00    	mov    %ax,0x2100
 804c243:	a1 50 20 00 00       	mov    0x2050,%eax
 804c248:	29 e0                	sub    %esp,%eax
 804c24a:	a3 20 20 00 00       	mov    %eax,0x2020
 804c24f:	b8 00 00 00 00       	mov    $0x0,%eax
 804c254:	c3                   	ret    

0804c255 <cmpxchg8b_plain>:
 804c255:	0f c7 08             	cmpxchg8b (%eax)
 804c258:	b8 00 00 00 00       	mov    $0x0,%eax
 804c25d:	c3                   	ret    

0804c25e <cmpxchg8b_allregs>:
 804c25e:	90                   	nop
 804c25f:	66 a1 00 11 00 00    	mov    0x1100,%ax
 804c265:	66 50                	push   %ax
 804c267:	66 9d                	popfw  
 804c269:	a1 00 10 00 00       	mov    0x1000,%eax
 804c26e:	8b 1d 04 10 00 00    	mov    0x1004,%ebx
 804c274:	8b 0d 08 10 00 00    	mov    0x1008,%ecx
 804c27a:	8b 15 0c 10 00 00    	mov    0x100c,%edx
 804c280:	8b 2d 10 10 00 00    	mov    0x1010,%ebp
 804c286:	8b 35 14 10 00 00    	mov    0x1014,%esi
 804c28c:	8b 3d 18 10 00 00    	mov    0x1018,%edi
 804c292:	89 25 50 20 00 00    	mov    %esp,0x2050
 804c298:	0f c7 08             	cmpxchg8b (%eax)
 804c29b:	a3 00 20 00 00       	mov    %eax,0x2000
 804c2a0:	89 1d 04 20 00 00    	mov    %ebx,0x2004
 804c2a6:	89 0d 08 20 00 00    	mov    %ecx,0x2008
 804c2ac:	89 15 0c 20 00 00    	mov    %edx,0x200c
 804c2b2:	89 2d 10 20 00 00    	mov    %ebp,0x2010
 804c2b8:	89 35 14 20 00 00    	mov    %esi,0x2014
 804c2be:	89 3d 18 20 00 00    	mov    %edi,0x2018
 804c2c4:	0f 90 05 00 22 00 00 	seto   0x2200
 804c2cb:	0f 91 05 01 22 00 00 	setno  0x2201
 804c2d2:	0f 92 05 02 22 00 00 	setb   0x2202
 804c2d9:	0f 93 05 03 22 00 00 	setae  0x2203
 804c2e0:	0f 94 05 04 22 00 00 	sete   0x2204
 804c2e7:	0f 95 05 05 22 00 00 	setne  0x2205
 804c2ee:	0f 96 05 06 22 00 00 	setbe  0x2206
 804c2f5:	0f 97 05 07 22 00 00 	seta   0x2207
 804c2fc:	0f 98 05 08 22 00 00 	sets   0x2208
 804c303:	0f 99 05 09 22 00 00 	setns  0x2209
 804c30a:	0f 9a 05 0a 22 00 00 	setp   0x220a
 804c311:	0f 9b 05 0b 22 00 00 	setnp  0x220b
 804c318:	0f 9c 05 0c 22 00 00 	setl   0x220c
 804c31f:	0f 9d 05 0d 22 00 00 	setge  0x220d
 804c326:	0f 9e 05 0e 22 00 00 	setle  0x220e
 804c32d:	0f 9f 05 0f 22 00 00 	setg   0x220f
 804c334:	66 9c                	pushfw 
 804c336:	66 58                	pop    %ax
 804c338:	66 a3 00 21 00 00    	mov    %ax,0x2100
 804c33e:	a1 50 20 00 00       	mov    0x2050,%eax
 804c343:	29 e0                	sub    %esp,%eax
 804c345:	a3 20 20 00 00       	mov    %eax,0x2020
 804c34a:	b8 00 00 00 00       	mov    $0x0,%eax
 804c34f:	c3                   	ret    

0804c350 <cmpxchg8b_constant_simple>:
 804c350:	90                   	nop
 804c351:	66 6a 00             	pushw  $0x0
 804c354:	66 9d                	popfw  
 804c356:	b8 02 00 00 00       	mov    $0x2,%eax
 804c35b:	bb 03 00 00 00       	mov    $0x3,%ebx
 804c360:	b9 04 00 00 00       	mov    $0x4,%ecx
 804c365:	ba 05 00 00 00       	mov    $0x5,%edx
 804c36a:	bd 06 00 00 00       	mov    $0x6,%ebp
 804c36f:	be 07 00 00 00       	mov    $0x7,%esi
 804c374:	bf 08 00 00 00       	mov    $0x8,%edi
 804c379:	89 25 50 20 00 00    	mov    %esp,0x2050
 804c37f:	0f c7 08             	cmpxchg8b (%eax)
 804c382:	a3 00 20 00 00       	mov    %eax,0x2000
 804c387:	89 1d 04 20 00 00    	mov    %ebx,0x2004
 804c38d:	89 0d 08 20 00 00    	mov    %ecx,0x2008
 804c393:	89 15 0c 20 00 00    	mov    %edx,0x200c
 804c399:	89 2d 10 20 00 00    	mov    %ebp,0x2010
 804c39f:	89 35 14 20 00 00    	mov    %esi,0x2014
 804c3a5:	89 3d 18 20 00 00    	mov    %edi,0x2018
 804c3ab:	0f 90 05 00 22 00 00 	seto   0x2200
 804c3b2:	0f 91 05 01 22 00 00 	setno  0x2201
 804c3b9:	0f 92 05 02 22 00 00 	setb   0x2202
 804c3c0:	0f 93 05 03 22 00 00 	setae  0x2203
 804c3c7:	0f 94 05 04 22 00 00 	sete   0x2204
 804c3ce:	0f 95 05 05 22 00 00 	setne  0x2205
 804c3d5:	0f 96 05 06 22 00 00 	setbe  0x2206
 804c3dc:	0f 97 05 07 22 00 00 	seta   0x2207
 804c3e3:	0f 98 05 08 22 00 00 	sets   0x2208
 804c3ea:	0f 99 05 09 22 00 00 	setns  0x2209
 804c3f1:	0f 9a 05 0a 22 00 00 	setp   0x220a
 804c3f8:	0f 9b 05 0b 22 00 00 	setnp  0x220b
 804c3ff:	0f 9c 05 0c 22 00 00 	setl   0x220c
 804c406:	0f 9d 05 0d 22 00 00 	setge  0x220d
 804c40d:	0f 9e 05 0e 22 00 00 	setle  0x220e
 804c414:	0f 9f 05 0f 22 00 00 	setg   0x220f
 804c41b:	66 9c                	pushfw 
 804c41d:	66 58                	pop    %ax
 804c41f:	66 a3 00 21 00 00    	mov    %ax,0x2100
 804c425:	a1 50 20 00 00       	mov    0x2050,%eax
 804c42a:	29 e0                	sub    %esp,%eax
 804c42c:	a3 20 20 00 00       	mov    %eax,0x2020
 804c431:	b8 00 00 00 00       	mov    $0x0,%eax
 804c436:	c3                   	ret    

0804c437 <cmpxchg8b_constant_complex1>:
 804c437:	90                   	nop
 804c438:	66 6a 00             	pushw  $0x0
 804c43b:	66 9d                	popfw  
 804c43d:	b8 84 79 b1 a3       	mov    $0xa3b17984,%eax
 804c442:	bb d7 1a 67 06       	mov    $0x6671ad7,%ebx
 804c447:	b9 48 52 68 46       	mov    $0x46685248,%ecx
 804c44c:	ba c4 56 24 39       	mov    $0x392456c4,%edx
 804c451:	bd a4 60 89 bc       	mov    $0xbc8960a4,%ebp
 804c456:	be 78 2d 3c ad       	mov    $0xad3c2d78,%esi
 804c45b:	bf 52 e1 65 e4       	mov    $0xe465e152,%edi
 804c460:	89 25 50 20 00 00    	mov    %esp,0x2050
 804c466:	0f c7 08             	cmpxchg8b (%eax)
 804c469:	a3 00 20 00 00       	mov    %eax,0x2000
 804c46e:	89 1d 04 20 00 00    	mov    %ebx,0x2004
 804c474:	89 0d 08 20 00 00    	mov    %ecx,0x2008
 804c47a:	89 15 0c 20 00 00    	mov    %edx,0x200c
 804c480:	89 2d 10 20 00 00    	mov    %ebp,0x2010
 804c486:	89 35 14 20 00 00    	mov    %esi,0x2014
 804c48c:	89 3d 18 20 00 00    	mov    %edi,0x2018
 804c492:	0f 90 05 00 22 00 00 	seto   0x2200
 804c499:	0f 91 05 01 22 00 00 	setno  0x2201
 804c4a0:	0f 92 05 02 22 00 00 	setb   0x2202
 804c4a7:	0f 93 05 03 22 00 00 	setae  0x2203
 804c4ae:	0f 94 05 04 22 00 00 	sete   0x2204
 804c4b5:	0f 95 05 05 22 00 00 	setne  0x2205
 804c4bc:	0f 96 05 06 22 00 00 	setbe  0x2206
 804c4c3:	0f 97 05 07 22 00 00 	seta   0x2207
 804c4ca:	0f 98 05 08 22 00 00 	sets   0x2208
 804c4d1:	0f 99 05 09 22 00 00 	setns  0x2209
 804c4d8:	0f 9a 05 0a 22 00 00 	setp   0x220a
 804c4df:	0f 9b 05 0b 22 00 00 	setnp  0x220b
 804c4e6:	0f 9c 05 0c 22 00 00 	setl   0x220c
 804c4ed:	0f 9d 05 0d 22 00 00 	setge  0x220d
 804c4f4:	0f 9e 05 0e 22 00 00 	setle  0x220e
 804c4fb:	0f 9f 05 0f 22 00 00 	setg   0x220f
 804c502:	66 9c                	pushfw 
 804c504:	66 58                	pop    %ax
 804c506:	66 a3 00 21 00 00    	mov    %ax,0x2100
 804c50c:	a1 50 20 00 00       	mov    0x2050,%eax
 804c511:	29 e0                	sub    %esp,%eax
 804c513:	a3 20 20 00 00       	mov    %eax,0x2020
 804c518:	b8 00 00 00 00       	mov    $0x0,%eax
 804c51d:	c3                   	ret    

0804c51e <cmpxchg8b_constant_complex2>:
 804c51e:	90                   	nop
 804c51f:	66 68 ff fe          	pushw  $0xfeff
 804c523:	66 9d                	popfw  
 804c525:	b8 e8 c0 3e 31       	mov    $0x313ec0e8,%eax
 804c52a:	bb c3 81 6e 49       	mov    $0x496e81c3,%ebx
 804c52f:	b9 b2 6c 3f 1e       	mov    $0x1e3f6cb2,%ecx
 804c534:	ba b3 25 69 4e       	mov    $0x4e6925b3,%edx
 804c539:	bd 10 26 31 4f       	mov    $0x4f312610,%ebp
 804c53e:	be a5 a4 37 2f       	mov    $0x2f37a4a5,%esi
 804c543:	bf b4 17 a9 91       	mov    $0x91a917b4,%edi
 804c548:	89 25 50 20 00 00    	mov    %esp,0x2050
 804c54e:	0f c7 08             	cmpxchg8b (%eax)
 804c551:	a3 00 20 00 00       	mov    %eax,0x2000
 804c556:	89 1d 04 20 00 00    	mov    %ebx,0x2004
 804c55c:	89 0d 08 20 00 00    	mov    %ecx,0x2008
 804c562:	89 15 0c 20 00 00    	mov    %edx,0x200c
 804c568:	89 2d 10 20 00 00    	mov    %ebp,0x2010
 804c56e:	89 35 14 20 00 00    	mov    %esi,0x2014
 804c574:	89 3d 18 20 00 00    	mov    %edi,0x2018
 804c57a:	0f 90 05 00 22 00 00 	seto   0x2200
 804c581:	0f 91 05 01 22 00 00 	setno  0x2201
 804c588:	0f 92 05 02 22 00 00 	setb   0x2202
 804c58f:	0f 93 05 03 22 00 00 	setae  0x2203
 804c596:	0f 94 05 04 22 00 00 	sete   0x2204
 804c59d:	0f 95 05 05 22 00 00 	setne  0x2205
 804c5a4:	0f 96 05 06 22 00 00 	setbe  0x2206
 804c5ab:	0f 97 05 07 22 00 00 	seta   0x2207
 804c5b2:	0f 98 05 08 22 00 00 	sets   0x2208
 804c5b9:	0f 99 05 09 22 00 00 	setns  0x2209
 804c5c0:	0f 9a 05 0a 22 00 00 	setp   0x220a
 804c5c7:	0f 9b 05 0b 22 00 00 	setnp  0x220b
 804c5ce:	0f 9c 05 0c 22 00 00 	setl   0x220c
 804c5d5:	0f 9d 05 0d 22 00 00 	setge  0x220d
 804c5dc:	0f 9e 05 0e 22 00 00 	setle  0x220e
 804c5e3:	0f 9f 05 0f 22 00 00 	setg   0x220f
 804c5ea:	66 9c                	pushfw 
 804c5ec:	66 58                	pop    %ax
 804c5ee:	66 a3 00 21 00 00    	mov    %ax,0x2100
 804c5f4:	a1 50 20 00 00       	mov    0x2050,%eax
 804c5f9:	29 e0                	sub    %esp,%eax
 804c5fb:	a3 20 20 00 00       	mov    %eax,0x2020
 804c600:	b8 00 00 00 00       	mov    $0x0,%eax
 804c605:	c3                   	ret    

0804c606 <cmpxchg8b_locked_mv_plain>:
 804c606:	f0 0f c7 08          	lock cmpxchg8b (%eax)
 804c60a:	b8 00 00 00 00       	mov    $0x0,%eax
 804c60f:	c3                   	ret    

0804c610 <cmpxchg8b_locked_mv_allregs>:
 804c610:	90                   	nop
 804c611:	66 a1 00 11 00 00    	mov    0x1100,%ax
 804c617:	66 50                	push   %ax
 804c619:	66 9d                	popfw  
 804c61b:	a1 00 10 00 00       	mov    0x1000,%eax
 804c620:	8b 1d 04 10 00 00    	mov    0x1004,%ebx
 804c626:	8b 0d 08 10 00 00    	mov    0x1008,%ecx
 804c62c:	8b 15 0c 10 00 00    	mov    0x100c,%edx
 804c632:	8b 2d 10 10 00 00    	mov    0x1010,%ebp
 804c638:	8b 35 14 10 00 00    	mov    0x1014,%esi
 804c63e:	8b 3d 18 10 00 00    	mov    0x1018,%edi
 804c644:	89 25 50 20 00 00    	mov    %esp,0x2050
 804c64a:	f0 0f c7 08          	lock cmpxchg8b (%eax)
 804c64e:	a3 00 20 00 00       	mov    %eax,0x2000
 804c653:	89 1d 04 20 00 00    	mov    %ebx,0x2004
 804c659:	89 0d 08 20 00 00    	mov    %ecx,0x2008
 804c65f:	89 15 0c 20 00 00    	mov    %edx,0x200c
 804c665:	89 2d 10 20 00 00    	mov    %ebp,0x2010
 804c66b:	89 35 14 20 00 00    	mov    %esi,0x2014
 804c671:	89 3d 18 20 00 00    	mov    %edi,0x2018
 804c677:	0f 90 05 00 22 00 00 	seto   0x2200
 804c67e:	0f 91 05 01 22 00 00 	setno  0x2201
 804c685:	0f 92 05 02 22 00 00 	setb   0x2202
 804c68c:	0f 93 05 03 22 00 00 	setae  0x2203
 804c693:	0f 94 05 04 22 00 00 	sete   0x2204
 804c69a:	0f 95 05 05 22 00 00 	setne  0x2205
 804c6a1:	0f 96 05 06 22 00 00 	setbe  0x2206
 804c6a8:	0f 97 05 07 22 00 00 	seta   0x2207
 804c6af:	0f 98 05 08 22 00 00 	sets   0x2208
 804c6b6:	0f 99 05 09 22 00 00 	setns  0x2209
 804c6bd:	0f 9a 05 0a 22 00 00 	setp   0x220a
 804c6c4:	0f 9b 05 0b 22 00 00 	setnp  0x220b
 804c6cb:	0f 9c 05 0c 22 00 00 	setl   0x220c
 804c6d2:	0f 9d 05 0d 22 00 00 	setge  0x220d
 804c6d9:	0f 9e 05 0e 22 00 00 	setle  0x220e
 804c6e0:	0f 9f 05 0f 22 00 00 	setg   0x220f
 804c6e7:	66 9c                	pushfw 
 804c6e9:	66 58                	pop    %ax
 804c6eb:	66 a3 00 21 00 00    	mov    %ax,0x2100
 804c6f1:	a1 50 20 00 00       	mov    0x2050,%eax
 804c6f6:	29 e0                	sub    %esp,%eax
 804c6f8:	a3 20 20 00 00       	mov    %eax,0x2020
 804c6fd:	b8 00 00 00 00       	mov    $0x0,%eax
 804c702:	c3                   	ret    

0804c703 <cmpxchg8b_locked_mv_constant_simple>:
 804c703:	90                   	nop
 804c704:	66 6a 00             	pushw  $0x0
 804c707:	66 9d                	popfw  
 804c709:	b8 02 00 00 00       	mov    $0x2,%eax
 804c70e:	bb 03 00 00 00       	mov    $0x3,%ebx
 804c713:	b9 04 00 00 00       	mov    $0x4,%ecx
 804c718:	ba 05 00 00 00       	mov    $0x5,%edx
 804c71d:	bd 06 00 00 00       	mov    $0x6,%ebp
 804c722:	be 07 00 00 00       	mov    $0x7,%esi
 804c727:	bf 08 00 00 00       	mov    $0x8,%edi
 804c72c:	89 25 50 20 00 00    	mov    %esp,0x2050
 804c732:	f0 0f c7 08          	lock cmpxchg8b (%eax)
 804c736:	a3 00 20 00 00       	mov    %eax,0x2000
 804c73b:	89 1d 04 20 00 00    	mov    %ebx,0x2004
 804c741:	89 0d 08 20 00 00    	mov    %ecx,0x2008
 804c747:	89 15 0c 20 00 00    	mov    %edx,0x200c
 804c74d:	89 2d 10 20 00 00    	mov    %ebp,0x2010
 804c753:	89 35 14 20 00 00    	mov    %esi,0x2014
 804c759:	89 3d 18 20 00 00    	mov    %edi,0x2018
 804c75f:	0f 90 05 00 22 00 00 	seto   0x2200
 804c766:	0f 91 05 01 22 00 00 	setno  0x2201
 804c76d:	0f 92 05 02 22 00 00 	setb   0x2202
 804c774:	0f 93 05 03 22 00 00 	setae  0x2203
 804c77b:	0f 94 05 04 22 00 00 	sete   0x2204
 804c782:	0f 95 05 05 22 00 00 	setne  0x2205
 804c789:	0f 96 05 06 22 00 00 	setbe  0x2206
 804c790:	0f 97 05 07 22 00 00 	seta   0x2207
 804c797:	0f 98 05 08 22 00 00 	sets   0x2208
 804c79e:	0f 99 05 09 22 00 00 	setns  0x2209
 804c7a5:	0f 9a 05 0a 22 00 00 	setp   0x220a
 804c7ac:	0f 9b 05 0b 22 00 00 	setnp  0x220b
 804c7b3:	0f 9c 05 0c 22 00 00 	setl   0x220c
 804c7ba:	0f 9d 05 0d 22 00 00 	setge  0x220d
 804c7c1:	0f 9e 05 0e 22 00 00 	setle  0x220e
 804c7c8:	0f 9f 05 0f 22 00 00 	setg   0x220f
 804c7cf:	66 9c                	pushfw 
 804c7d1:	66 58                	pop    %ax
 804c7d3:	66 a3 00 21 00 00    	mov    %ax,0x2100
 804c7d9:	a1 50 20 00 00       	mov    0x2050,%eax
 804c7de:	29 e0                	sub    %esp,%eax
 804c7e0:	a3 20 20 00 00       	mov    %eax,0x2020
 804c7e5:	b8 00 00 00 00       	mov    $0x0,%eax
 804c7ea:	c3                   	ret    

0804c7eb <cmpxchg8b_locked_mv_constant_complex1>:
 804c7eb:	90                   	nop
 804c7ec:	66 6a 00             	pushw  $0x0
 804c7ef:	66 9d                	popfw  
 804c7f1:	b8 84 79 b1 a3       	mov    $0xa3b17984,%eax
 804c7f6:	bb d7 1a 67 06       	mov    $0x6671ad7,%ebx
 804c7fb:	b9 48 52 68 46       	mov    $0x46685248,%ecx
 804c800:	ba c4 56 24 39       	mov    $0x392456c4,%edx
 804c805:	bd a4 60 89 bc       	mov    $0xbc8960a4,%ebp
 804c80a:	be 78 2d 3c ad       	mov    $0xad3c2d78,%esi
 804c80f:	bf 52 e1 65 e4       	mov    $0xe465e152,%edi
 804c814:	89 25 50 20 00 00    	mov    %esp,0x2050
 804c81a:	f0 0f c7 08          	lock cmpxchg8b (%eax)
 804c81e:	a3 00 20 00 00       	mov    %eax,0x2000
 804c823:	89 1d 04 20 00 00    	mov    %ebx,0x2004
 804c829:	89 0d 08 20 00 00    	mov    %ecx,0x2008
 804c82f:	89 15 0c 20 00 00    	mov    %edx,0x200c
 804c835:	89 2d 10 20 00 00    	mov    %ebp,0x2010
 804c83b:	89 35 14 20 00 00    	mov    %esi,0x2014
 804c841:	89 3d 18 20 00 00    	mov    %edi,0x2018
 804c847:	0f 90 05 00 22 00 00 	seto   0x2200
 804c84e:	0f 91 05 01 22 00 00 	setno  0x2201
 804c855:	0f 92 05 02 22 00 00 	setb   0x2202
 804c85c:	0f 93 05 03 22 00 00 	setae  0x2203
 804c863:	0f 94 05 04 22 00 00 	sete   0x2204
 804c86a:	0f 95 05 05 22 00 00 	setne  0x2205
 804c871:	0f 96 05 06 22 00 00 	setbe  0x2206
 804c878:	0f 97 05 07 22 00 00 	seta   0x2207
 804c87f:	0f 98 05 08 22 00 00 	sets   0x2208
 804c886:	0f 99 05 09 22 00 00 	setns  0x2209
 804c88d:	0f 9a 05 0a 22 00 00 	setp   0x220a
 804c894:	0f 9b 05 0b 22 00 00 	setnp  0x220b
 804c89b:	0f 9c 05 0c 22 00 00 	setl   0x220c
 804c8a2:	0f 9d 05 0d 22 00 00 	setge  0x220d
 804c8a9:	0f 9e 05 0e 22 00 00 	setle  0x220e
 804c8b0:	0f 9f 05 0f 22 00 00 	setg   0x220f
 804c8b7:	66 9c                	pushfw 
 804c8b9:	66 58                	pop    %ax
 804c8bb:	66 a3 00 21 00 00    	mov    %ax,0x2100
 804c8c1:	a1 50 20 00 00       	mov    0x2050,%eax
 804c8c6:	29 e0                	sub    %esp,%eax
 804c8c8:	a3 20 20 00 00       	mov    %eax,0x2020
 804c8cd:	b8 00 00 00 00       	mov    $0x0,%eax
 804c8d2:	c3                   	ret    

0804c8d3 <cmpxchg8b_locked_mv_constant_complex2>:
 804c8d3:	90                   	nop
 804c8d4:	66 68 ff fe          	pushw  $0xfeff
 804c8d8:	66 9d                	popfw  
 804c8da:	b8 e8 c0 3e 31       	mov    $0x313ec0e8,%eax
 804c8df:	bb c3 81 6e 49       	mov    $0x496e81c3,%ebx
 804c8e4:	b9 b2 6c 3f 1e       	mov    $0x1e3f6cb2,%ecx
 804c8e9:	ba b3 25 69 4e       	mov    $0x4e6925b3,%edx
 804c8ee:	bd 10 26 31 4f       	mov    $0x4f312610,%ebp
 804c8f3:	be a5 a4 37 2f       	mov    $0x2f37a4a5,%esi
 804c8f8:	bf b4 17 a9 91       	mov    $0x91a917b4,%edi
 804c8fd:	89 25 50 20 00 00    	mov    %esp,0x2050
 804c903:	f0 0f c7 08          	lock cmpxchg8b (%eax)
 804c907:	a3 00 20 00 00       	mov    %eax,0x2000
 804c90c:	89 1d 04 20 00 00    	mov    %ebx,0x2004
 804c912:	89 0d 08 20 00 00    	mov    %ecx,0x2008
 804c918:	89 15 0c 20 00 00    	mov    %edx,0x200c
 804c91e:	89 2d 10 20 00 00    	mov    %ebp,0x2010
 804c924:	89 35 14 20 00 00    	mov    %esi,0x2014
 804c92a:	89 3d 18 20 00 00    	mov    %edi,0x2018
 804c930:	0f 90 05 00 22 00 00 	seto   0x2200
 804c937:	0f 91 05 01 22 00 00 	setno  0x2201
 804c93e:	0f 92 05 02 22 00 00 	setb   0x2202
 804c945:	0f 93 05 03 22 00 00 	setae  0x2203
 804c94c:	0f 94 05 04 22 00 00 	sete   0x2204
 804c953:	0f 95 05 05 22 00 00 	setne  0x2205
 804c95a:	0f 96 05 06 22 00 00 	setbe  0x2206
 804c961:	0f 97 05 07 22 00 00 	seta   0x2207
 804c968:	0f 98 05 08 22 00 00 	sets   0x2208
 804c96f:	0f 99 05 09 22 00 00 	setns  0x2209
 804c976:	0f 9a 05 0a 22 00 00 	setp   0x220a
 804c97d:	0f 9b 05 0b 22 00 00 	setnp  0x220b
 804c984:	0f 9c 05 0c 22 00 00 	setl   0x220c
 804c98b:	0f 9d 05 0d 22 00 00 	setge  0x220d
 804c992:	0f 9e 05 0e 22 00 00 	setle  0x220e
 804c999:	0f 9f 05 0f 22 00 00 	setg   0x220f
 804c9a0:	66 9c                	pushfw 
 804c9a2:	66 58                	pop    %ax
 804c9a4:	66 a3 00 21 00 00    	mov    %ax,0x2100
 804c9aa:	a1 50 20 00 00       	mov    0x2050,%eax
 804c9af:	29 e0                	sub    %esp,%eax
 804c9b1:	a3 20 20 00 00       	mov    %eax,0x2020
 804c9b6:	b8 00 00 00 00       	mov    $0x0,%eax
 804c9bb:	c3                   	ret    

0804c9bc <rdtsc_plain>:
 804c9bc:	0f 31                	rdtsc  
 804c9be:	b8 00 00 00 00       	mov    $0x0,%eax
 804c9c3:	c3                   	ret    

0804c9c4 <rdtsc_allregs>:
 804c9c4:	90                   	nop
 804c9c5:	66 a1 00 11 00 00    	mov    0x1100,%ax
 804c9cb:	66 50                	push   %ax
 804c9cd:	66 9d                	popfw  
 804c9cf:	a1 00 10 00 00       	mov    0x1000,%eax
 804c9d4:	8b 1d 04 10 00 00    	mov    0x1004,%ebx
 804c9da:	8b 0d 08 10 00 00    	mov    0x1008,%ecx
 804c9e0:	8b 15 0c 10 00 00    	mov    0x100c,%edx
 804c9e6:	8b 2d 10 10 00 00    	mov    0x1010,%ebp
 804c9ec:	8b 35 14 10 00 00    	mov    0x1014,%esi
 804c9f2:	8b 3d 18 10 00 00    	mov    0x1018,%edi
 804c9f8:	89 25 50 20 00 00    	mov    %esp,0x2050
 804c9fe:	0f 31                	rdtsc  
 804ca00:	a3 00 20 00 00       	mov    %eax,0x2000
 804ca05:	89 1d 04 20 00 00    	mov    %ebx,0x2004
 804ca0b:	89 0d 08 20 00 00    	mov    %ecx,0x2008
 804ca11:	89 15 0c 20 00 00    	mov    %edx,0x200c
 804ca17:	89 2d 10 20 00 00    	mov    %ebp,0x2010
 804ca1d:	89 35 14 20 00 00    	mov    %esi,0x2014
 804ca23:	89 3d 18 20 00 00    	mov    %edi,0x2018
 804ca29:	0f 90 05 00 22 00 00 	seto   0x2200
 804ca30:	0f 91 05 01 22 00 00 	setno  0x2201
 804ca37:	0f 92 05 02 22 00 00 	setb   0x2202
 804ca3e:	0f 93 05 03 22 00 00 	setae  0x2203
 804ca45:	0f 94 05 04 22 00 00 	sete   0x2204
 804ca4c:	0f 95 05 05 22 00 00 	setne  0x2205
 804ca53:	0f 96 05 06 22 00 00 	setbe  0x2206
 804ca5a:	0f 97 05 07 22 00 00 	seta   0x2207
 804ca61:	0f 98 05 08 22 00 00 	sets   0x2208
 804ca68:	0f 99 05 09 22 00 00 	setns  0x2209
 804ca6f:	0f 9a 05 0a 22 00 00 	setp   0x220a
 804ca76:	0f 9b 05 0b 22 00 00 	setnp  0x220b
 804ca7d:	0f 9c 05 0c 22 00 00 	setl   0x220c
 804ca84:	0f 9d 05 0d 22 00 00 	setge  0x220d
 804ca8b:	0f 9e 05 0e 22 00 00 	setle  0x220e
 804ca92:	0f 9f 05 0f 22 00 00 	setg   0x220f
 804ca99:	66 9c                	pushfw 
 804ca9b:	66 58                	pop    %ax
 804ca9d:	66 a3 00 21 00 00    	mov    %ax,0x2100
 804caa3:	a1 50 20 00 00       	mov    0x2050,%eax
 804caa8:	29 e0                	sub    %esp,%eax
 804caaa:	a3 20 20 00 00       	mov    %eax,0x2020
 804caaf:	b8 00 00 00 00       	mov    $0x0,%eax
 804cab4:	c3                   	ret    

0804cab5 <rdtsc_constant_simple>:
 804cab5:	90                   	nop
 804cab6:	66 6a 00             	pushw  $0x0
 804cab9:	66 9d                	popfw  
 804cabb:	b8 02 00 00 00       	mov    $0x2,%eax
 804cac0:	bb 03 00 00 00       	mov    $0x3,%ebx
 804cac5:	b9 04 00 00 00       	mov    $0x4,%ecx
 804caca:	ba 05 00 00 00       	mov    $0x5,%edx
 804cacf:	bd 06 00 00 00       	mov    $0x6,%ebp
 804cad4:	be 07 00 00 00       	mov    $0x7,%esi
 804cad9:	bf 08 00 00 00       	mov    $0x8,%edi
 804cade:	89 25 50 20 00 00    	mov    %esp,0x2050
 804cae4:	0f 31                	rdtsc  
 804cae6:	a3 00 20 00 00       	mov    %eax,0x2000
 804caeb:	89 1d 04 20 00 00    	mov    %ebx,0x2004
 804caf1:	89 0d 08 20 00 00    	mov    %ecx,0x2008
 804caf7:	89 15 0c 20 00 00    	mov    %edx,0x200c
 804cafd:	89 2d 10 20 00 00    	mov    %ebp,0x2010
 804cb03:	89 35 14 20 00 00    	mov    %esi,0x2014
 804cb09:	89 3d 18 20 00 00    	mov    %edi,0x2018
 804cb0f:	0f 90 05 00 22 00 00 	seto   0x2200
 804cb16:	0f 91 05 01 22 00 00 	setno  0x2201
 804cb1d:	0f 92 05 02 22 00 00 	setb   0x2202
 804cb24:	0f 93 05 03 22 00 00 	setae  0x2203
 804cb2b:	0f 94 05 04 22 00 00 	sete   0x2204
 804cb32:	0f 95 05 05 22 00 00 	setne  0x2205
 804cb39:	0f 96 05 06 22 00 00 	setbe  0x2206
 804cb40:	0f 97 05 07 22 00 00 	seta   0x2207
 804cb47:	0f 98 05 08 22 00 00 	sets   0x2208
 804cb4e:	0f 99 05 09 22 00 00 	setns  0x2209
 804cb55:	0f 9a 05 0a 22 00 00 	setp   0x220a
 804cb5c:	0f 9b 05 0b 22 00 00 	setnp  0x220b
 804cb63:	0f 9c 05 0c 22 00 00 	setl   0x220c
 804cb6a:	0f 9d 05 0d 22 00 00 	setge  0x220d
 804cb71:	0f 9e 05 0e 22 00 00 	setle  0x220e
 804cb78:	0f 9f 05 0f 22 00 00 	setg   0x220f
 804cb7f:	66 9c                	pushfw 
 804cb81:	66 58                	pop    %ax
 804cb83:	66 a3 00 21 00 00    	mov    %ax,0x2100
 804cb89:	a1 50 20 00 00       	mov    0x2050,%eax
 804cb8e:	29 e0                	sub    %esp,%eax
 804cb90:	a3 20 20 00 00       	mov    %eax,0x2020
 804cb95:	b8 00 00 00 00       	mov    $0x0,%eax
 804cb9a:	c3                   	ret    

0804cb9b <rdtsc_constant_complex1>:
 804cb9b:	90                   	nop
 804cb9c:	66 6a 00             	pushw  $0x0
 804cb9f:	66 9d                	popfw  
 804cba1:	b8 84 79 b1 a3       	mov    $0xa3b17984,%eax
 804cba6:	bb d7 1a 67 06       	mov    $0x6671ad7,%ebx
 804cbab:	b9 48 52 68 46       	mov    $0x46685248,%ecx
 804cbb0:	ba c4 56 24 39       	mov    $0x392456c4,%edx
 804cbb5:	bd a4 60 89 bc       	mov    $0xbc8960a4,%ebp
 804cbba:	be 78 2d 3c ad       	mov    $0xad3c2d78,%esi
 804cbbf:	bf 52 e1 65 e4       	mov    $0xe465e152,%edi
 804cbc4:	89 25 50 20 00 00    	mov    %esp,0x2050
 804cbca:	0f 31                	rdtsc  
 804cbcc:	a3 00 20 00 00       	mov    %eax,0x2000
 804cbd1:	89 1d 04 20 00 00    	mov    %ebx,0x2004
 804cbd7:	89 0d 08 20 00 00    	mov    %ecx,0x2008
 804cbdd:	89 15 0c 20 00 00    	mov    %edx,0x200c
 804cbe3:	89 2d 10 20 00 00    	mov    %ebp,0x2010
 804cbe9:	89 35 14 20 00 00    	mov    %esi,0x2014
 804cbef:	89 3d 18 20 00 00    	mov    %edi,0x2018
 804cbf5:	0f 90 05 00 22 00 00 	seto   0x2200
 804cbfc:	0f 91 05 01 22 00 00 	setno  0x2201
 804cc03:	0f 92 05 02 22 00 00 	setb   0x2202
 804cc0a:	0f 93 05 03 22 00 00 	setae  0x2203
 804cc11:	0f 94 05 04 22 00 00 	sete   0x2204
 804cc18:	0f 95 05 05 22 00 00 	setne  0x2205
 804cc1f:	0f 96 05 06 22 00 00 	setbe  0x2206
 804cc26:	0f 97 05 07 22 00 00 	seta   0x2207
 804cc2d:	0f 98 05 08 22 00 00 	sets   0x2208
 804cc34:	0f 99 05 09 22 00 00 	setns  0x2209
 804cc3b:	0f 9a 05 0a 22 00 00 	setp   0x220a
 804cc42:	0f 9b 05 0b 22 00 00 	setnp  0x220b
 804cc49:	0f 9c 05 0c 22 00 00 	setl   0x220c
 804cc50:	0f 9d 05 0d 22 00 00 	setge  0x220d
 804cc57:	0f 9e 05 0e 22 00 00 	setle  0x220e
 804cc5e:	0f 9f 05 0f 22 00 00 	setg   0x220f
 804cc65:	66 9c                	pushfw 
 804cc67:	66 58                	pop    %ax
 804cc69:	66 a3 00 21 00 00    	mov    %ax,0x2100
 804cc6f:	a1 50 20 00 00       	mov    0x2050,%eax
 804cc74:	29 e0                	sub    %esp,%eax
 804cc76:	a3 20 20 00 00       	mov    %eax,0x2020
 804cc7b:	b8 00 00 00 00       	mov    $0x0,%eax
 804cc80:	c3                   	ret    

0804cc81 <rdtsc_constant_complex2>:
 804cc81:	90                   	nop
 804cc82:	66 68 ff fe          	pushw  $0xfeff
 804cc86:	66 9d                	popfw  
 804cc88:	b8 e8 c0 3e 31       	mov    $0x313ec0e8,%eax
 804cc8d:	bb c3 81 6e 49       	mov    $0x496e81c3,%ebx
 804cc92:	b9 b2 6c 3f 1e       	mov    $0x1e3f6cb2,%ecx
 804cc97:	ba b3 25 69 4e       	mov    $0x4e6925b3,%edx
 804cc9c:	bd 10 26 31 4f       	mov    $0x4f312610,%ebp
 804cca1:	be a5 a4 37 2f       	mov    $0x2f37a4a5,%esi
 804cca6:	bf b4 17 a9 91       	mov    $0x91a917b4,%edi
 804ccab:	89 25 50 20 00 00    	mov    %esp,0x2050
 804ccb1:	0f 31                	rdtsc  
 804ccb3:	a3 00 20 00 00       	mov    %eax,0x2000
 804ccb8:	89 1d 04 20 00 00    	mov    %ebx,0x2004
 804ccbe:	89 0d 08 20 00 00    	mov    %ecx,0x2008
 804ccc4:	89 15 0c 20 00 00    	mov    %edx,0x200c
 804ccca:	89 2d 10 20 00 00    	mov    %ebp,0x2010
 804ccd0:	89 35 14 20 00 00    	mov    %esi,0x2014
 804ccd6:	89 3d 18 20 00 00    	mov    %edi,0x2018
 804ccdc:	0f 90 05 00 22 00 00 	seto   0x2200
 804cce3:	0f 91 05 01 22 00 00 	setno  0x2201
 804ccea:	0f 92 05 02 22 00 00 	setb   0x2202
 804ccf1:	0f 93 05 03 22 00 00 	setae  0x2203
 804ccf8:	0f 94 05 04 22 00 00 	sete   0x2204
 804ccff:	0f 95 05 05 22 00 00 	setne  0x2205
 804cd06:	0f 96 05 06 22 00 00 	setbe  0x2206
 804cd0d:	0f 97 05 07 22 00 00 	seta   0x2207
 804cd14:	0f 98 05 08 22 00 00 	sets   0x2208
 804cd1b:	0f 99 05 09 22 00 00 	setns  0x2209
 804cd22:	0f 9a 05 0a 22 00 00 	setp   0x220a
 804cd29:	0f 9b 05 0b 22 00 00 	setnp  0x220b
 804cd30:	0f 9c 05 0c 22 00 00 	setl   0x220c
 804cd37:	0f 9d 05 0d 22 00 00 	setge  0x220d
 804cd3e:	0f 9e 05 0e 22 00 00 	setle  0x220e
 804cd45:	0f 9f 05 0f 22 00 00 	setg   0x220f
 804cd4c:	66 9c                	pushfw 
 804cd4e:	66 58                	pop    %ax
 804cd50:	66 a3 00 21 00 00    	mov    %ax,0x2100
 804cd56:	a1 50 20 00 00       	mov    0x2050,%eax
 804cd5b:	29 e0                	sub    %esp,%eax
 804cd5d:	a3 20 20 00 00       	mov    %eax,0x2020
 804cd62:	b8 00 00 00 00       	mov    $0x0,%eax
 804cd67:	c3                   	ret    

0804cd68 <rdmsr_plain>:
 804cd68:	0f 32                	rdmsr  
 804cd6a:	b8 00 00 00 00       	mov    $0x0,%eax
 804cd6f:	c3                   	ret    

0804cd70 <rdmsr_allregs>:
 804cd70:	90                   	nop
 804cd71:	66 a1 00 11 00 00    	mov    0x1100,%ax
 804cd77:	66 50                	push   %ax
 804cd79:	66 9d                	popfw  
 804cd7b:	a1 00 10 00 00       	mov    0x1000,%eax
 804cd80:	8b 1d 04 10 00 00    	mov    0x1004,%ebx
 804cd86:	8b 0d 08 10 00 00    	mov    0x1008,%ecx
 804cd8c:	8b 15 0c 10 00 00    	mov    0x100c,%edx
 804cd92:	8b 2d 10 10 00 00    	mov    0x1010,%ebp
 804cd98:	8b 35 14 10 00 00    	mov    0x1014,%esi
 804cd9e:	8b 3d 18 10 00 00    	mov    0x1018,%edi
 804cda4:	89 25 50 20 00 00    	mov    %esp,0x2050
 804cdaa:	0f 32                	rdmsr  
 804cdac:	a3 00 20 00 00       	mov    %eax,0x2000
 804cdb1:	89 1d 04 20 00 00    	mov    %ebx,0x2004
 804cdb7:	89 0d 08 20 00 00    	mov    %ecx,0x2008
 804cdbd:	89 15 0c 20 00 00    	mov    %edx,0x200c
 804cdc3:	89 2d 10 20 00 00    	mov    %ebp,0x2010
 804cdc9:	89 35 14 20 00 00    	mov    %esi,0x2014
 804cdcf:	89 3d 18 20 00 00    	mov    %edi,0x2018
 804cdd5:	0f 90 05 00 22 00 00 	seto   0x2200
 804cddc:	0f 91 05 01 22 00 00 	setno  0x2201
 804cde3:	0f 92 05 02 22 00 00 	setb   0x2202
 804cdea:	0f 93 05 03 22 00 00 	setae  0x2203
 804cdf1:	0f 94 05 04 22 00 00 	sete   0x2204
 804cdf8:	0f 95 05 05 22 00 00 	setne  0x2205
 804cdff:	0f 96 05 06 22 00 00 	setbe  0x2206
 804ce06:	0f 97 05 07 22 00 00 	seta   0x2207
 804ce0d:	0f 98 05 08 22 00 00 	sets   0x2208
 804ce14:	0f 99 05 09 22 00 00 	setns  0x2209
 804ce1b:	0f 9a 05 0a 22 00 00 	setp   0x220a
 804ce22:	0f 9b 05 0b 22 00 00 	setnp  0x220b
 804ce29:	0f 9c 05 0c 22 00 00 	setl   0x220c
 804ce30:	0f 9d 05 0d 22 00 00 	setge  0x220d
 804ce37:	0f 9e 05 0e 22 00 00 	setle  0x220e
 804ce3e:	0f 9f 05 0f 22 00 00 	setg   0x220f
 804ce45:	66 9c                	pushfw 
 804ce47:	66 58                	pop    %ax
 804ce49:	66 a3 00 21 00 00    	mov    %ax,0x2100
 804ce4f:	a1 50 20 00 00       	mov    0x2050,%eax
 804ce54:	29 e0                	sub    %esp,%eax
 804ce56:	a3 20 20 00 00       	mov    %eax,0x2020
 804ce5b:	b8 00 00 00 00       	mov    $0x0,%eax
 804ce60:	c3                   	ret    

0804ce61 <rdmsr_constant_simple>:
 804ce61:	90                   	nop
 804ce62:	66 6a 00             	pushw  $0x0
 804ce65:	66 9d                	popfw  
 804ce67:	b8 02 00 00 00       	mov    $0x2,%eax
 804ce6c:	bb 03 00 00 00       	mov    $0x3,%ebx
 804ce71:	b9 04 00 00 00       	mov    $0x4,%ecx
 804ce76:	ba 05 00 00 00       	mov    $0x5,%edx
 804ce7b:	bd 06 00 00 00       	mov    $0x6,%ebp
 804ce80:	be 07 00 00 00       	mov    $0x7,%esi
 804ce85:	bf 08 00 00 00       	mov    $0x8,%edi
 804ce8a:	89 25 50 20 00 00    	mov    %esp,0x2050
 804ce90:	0f 32                	rdmsr  
 804ce92:	a3 00 20 00 00       	mov    %eax,0x2000
 804ce97:	89 1d 04 20 00 00    	mov    %ebx,0x2004
 804ce9d:	89 0d 08 20 00 00    	mov    %ecx,0x2008
 804cea3:	89 15 0c 20 00 00    	mov    %edx,0x200c
 804cea9:	89 2d 10 20 00 00    	mov    %ebp,0x2010
 804ceaf:	89 35 14 20 00 00    	mov    %esi,0x2014
 804ceb5:	89 3d 18 20 00 00    	mov    %edi,0x2018
 804cebb:	0f 90 05 00 22 00 00 	seto   0x2200
 804cec2:	0f 91 05 01 22 00 00 	setno  0x2201
 804cec9:	0f 92 05 02 22 00 00 	setb   0x2202
 804ced0:	0f 93 05 03 22 00 00 	setae  0x2203
 804ced7:	0f 94 05 04 22 00 00 	sete   0x2204
 804cede:	0f 95 05 05 22 00 00 	setne  0x2205
 804cee5:	0f 96 05 06 22 00 00 	setbe  0x2206
 804ceec:	0f 97 05 07 22 00 00 	seta   0x2207
 804cef3:	0f 98 05 08 22 00 00 	sets   0x2208
 804cefa:	0f 99 05 09 22 00 00 	setns  0x2209
 804cf01:	0f 9a 05 0a 22 00 00 	setp   0x220a
 804cf08:	0f 9b 05 0b 22 00 00 	setnp  0x220b
 804cf0f:	0f 9c 05 0c 22 00 00 	setl   0x220c
 804cf16:	0f 9d 05 0d 22 00 00 	setge  0x220d
 804cf1d:	0f 9e 05 0e 22 00 00 	setle  0x220e
 804cf24:	0f 9f 05 0f 22 00 00 	setg   0x220f
 804cf2b:	66 9c                	pushfw 
 804cf2d:	66 58                	pop    %ax
 804cf2f:	66 a3 00 21 00 00    	mov    %ax,0x2100
 804cf35:	a1 50 20 00 00       	mov    0x2050,%eax
 804cf3a:	29 e0                	sub    %esp,%eax
 804cf3c:	a3 20 20 00 00       	mov    %eax,0x2020
 804cf41:	b8 00 00 00 00       	mov    $0x0,%eax
 804cf46:	c3                   	ret    

0804cf47 <rdmsr_constant_complex1>:
 804cf47:	90                   	nop
 804cf48:	66 6a 00             	pushw  $0x0
 804cf4b:	66 9d                	popfw  
 804cf4d:	b8 84 79 b1 a3       	mov    $0xa3b17984,%eax
 804cf52:	bb d7 1a 67 06       	mov    $0x6671ad7,%ebx
 804cf57:	b9 48 52 68 46       	mov    $0x46685248,%ecx
 804cf5c:	ba c4 56 24 39       	mov    $0x392456c4,%edx
 804cf61:	bd a4 60 89 bc       	mov    $0xbc8960a4,%ebp
 804cf66:	be 78 2d 3c ad       	mov    $0xad3c2d78,%esi
 804cf6b:	bf 52 e1 65 e4       	mov    $0xe465e152,%edi
 804cf70:	89 25 50 20 00 00    	mov    %esp,0x2050
 804cf76:	0f 32                	rdmsr  
 804cf78:	a3 00 20 00 00       	mov    %eax,0x2000
 804cf7d:	89 1d 04 20 00 00    	mov    %ebx,0x2004
 804cf83:	89 0d 08 20 00 00    	mov    %ecx,0x2008
 804cf89:	89 15 0c 20 00 00    	mov    %edx,0x200c
 804cf8f:	89 2d 10 20 00 00    	mov    %ebp,0x2010
 804cf95:	89 35 14 20 00 00    	mov    %esi,0x2014
 804cf9b:	89 3d 18 20 00 00    	mov    %edi,0x2018
 804cfa1:	0f 90 05 00 22 00 00 	seto   0x2200
 804cfa8:	0f 91 05 01 22 00 00 	setno  0x2201
 804cfaf:	0f 92 05 02 22 00 00 	setb   0x2202
 804cfb6:	0f 93 05 03 22 00 00 	setae  0x2203
 804cfbd:	0f 94 05 04 22 00 00 	sete   0x2204
 804cfc4:	0f 95 05 05 22 00 00 	setne  0x2205
 804cfcb:	0f 96 05 06 22 00 00 	setbe  0x2206
 804cfd2:	0f 97 05 07 22 00 00 	seta   0x2207
 804cfd9:	0f 98 05 08 22 00 00 	sets   0x2208
 804cfe0:	0f 99 05 09 22 00 00 	setns  0x2209
 804cfe7:	0f 9a 05 0a 22 00 00 	setp   0x220a
 804cfee:	0f 9b 05 0b 22 00 00 	setnp  0x220b
 804cff5:	0f 9c 05 0c 22 00 00 	setl   0x220c
 804cffc:	0f 9d 05 0d 22 00 00 	setge  0x220d
 804d003:	0f 9e 05 0e 22 00 00 	setle  0x220e
 804d00a:	0f 9f 05 0f 22 00 00 	setg   0x220f
 804d011:	66 9c                	pushfw 
 804d013:	66 58                	pop    %ax
 804d015:	66 a3 00 21 00 00    	mov    %ax,0x2100
 804d01b:	a1 50 20 00 00       	mov    0x2050,%eax
 804d020:	29 e0                	sub    %esp,%eax
 804d022:	a3 20 20 00 00       	mov    %eax,0x2020
 804d027:	b8 00 00 00 00       	mov    $0x0,%eax
 804d02c:	c3                   	ret    

0804d02d <rdmsr_constant_complex2>:
 804d02d:	90                   	nop
 804d02e:	66 68 ff fe          	pushw  $0xfeff
 804d032:	66 9d                	popfw  
 804d034:	b8 e8 c0 3e 31       	mov    $0x313ec0e8,%eax
 804d039:	bb c3 81 6e 49       	mov    $0x496e81c3,%ebx
 804d03e:	b9 b2 6c 3f 1e       	mov    $0x1e3f6cb2,%ecx
 804d043:	ba b3 25 69 4e       	mov    $0x4e6925b3,%edx
 804d048:	bd 10 26 31 4f       	mov    $0x4f312610,%ebp
 804d04d:	be a5 a4 37 2f       	mov    $0x2f37a4a5,%esi
 804d052:	bf b4 17 a9 91       	mov    $0x91a917b4,%edi
 804d057:	89 25 50 20 00 00    	mov    %esp,0x2050
 804d05d:	0f 32                	rdmsr  
 804d05f:	a3 00 20 00 00       	mov    %eax,0x2000
 804d064:	89 1d 04 20 00 00    	mov    %ebx,0x2004
 804d06a:	89 0d 08 20 00 00    	mov    %ecx,0x2008
 804d070:	89 15 0c 20 00 00    	mov    %edx,0x200c
 804d076:	89 2d 10 20 00 00    	mov    %ebp,0x2010
 804d07c:	89 35 14 20 00 00    	mov    %esi,0x2014
 804d082:	89 3d 18 20 00 00    	mov    %edi,0x2018
 804d088:	0f 90 05 00 22 00 00 	seto   0x2200
 804d08f:	0f 91 05 01 22 00 00 	setno  0x2201
 804d096:	0f 92 05 02 22 00 00 	setb   0x2202
 804d09d:	0f 93 05 03 22 00 00 	setae  0x2203
 804d0a4:	0f 94 05 04 22 00 00 	sete   0x2204
 804d0ab:	0f 95 05 05 22 00 00 	setne  0x2205
 804d0b2:	0f 96 05 06 22 00 00 	setbe  0x2206
 804d0b9:	0f 97 05 07 22 00 00 	seta   0x2207
 804d0c0:	0f 98 05 08 22 00 00 	sets   0x2208
 804d0c7:	0f 99 05 09 22 00 00 	setns  0x2209
 804d0ce:	0f 9a 05 0a 22 00 00 	setp   0x220a
 804d0d5:	0f 9b 05 0b 22 00 00 	setnp  0x220b
 804d0dc:	0f 9c 05 0c 22 00 00 	setl   0x220c
 804d0e3:	0f 9d 05 0d 22 00 00 	setge  0x220d
 804d0ea:	0f 9e 05 0e 22 00 00 	setle  0x220e
 804d0f1:	0f 9f 05 0f 22 00 00 	setg   0x220f
 804d0f8:	66 9c                	pushfw 
 804d0fa:	66 58                	pop    %ax
 804d0fc:	66 a3 00 21 00 00    	mov    %ax,0x2100
 804d102:	a1 50 20 00 00       	mov    0x2050,%eax
 804d107:	29 e0                	sub    %esp,%eax
 804d109:	a3 20 20 00 00       	mov    %eax,0x2020
 804d10e:	b8 00 00 00 00       	mov    $0x0,%eax
 804d113:	c3                   	ret    

0804d114 <wrmsr_plain>:
 804d114:	0f 30                	wrmsr  
 804d116:	b8 00 00 00 00       	mov    $0x0,%eax
 804d11b:	c3                   	ret    

0804d11c <wrmsr_allregs>:
 804d11c:	90                   	nop
 804d11d:	66 a1 00 11 00 00    	mov    0x1100,%ax
 804d123:	66 50                	push   %ax
 804d125:	66 9d                	popfw  
 804d127:	a1 00 10 00 00       	mov    0x1000,%eax
 804d12c:	8b 1d 04 10 00 00    	mov    0x1004,%ebx
 804d132:	8b 0d 08 10 00 00    	mov    0x1008,%ecx
 804d138:	8b 15 0c 10 00 00    	mov    0x100c,%edx
 804d13e:	8b 2d 10 10 00 00    	mov    0x1010,%ebp
 804d144:	8b 35 14 10 00 00    	mov    0x1014,%esi
 804d14a:	8b 3d 18 10 00 00    	mov    0x1018,%edi
 804d150:	89 25 50 20 00 00    	mov    %esp,0x2050
 804d156:	0f 30                	wrmsr  
 804d158:	a3 00 20 00 00       	mov    %eax,0x2000
 804d15d:	89 1d 04 20 00 00    	mov    %ebx,0x2004
 804d163:	89 0d 08 20 00 00    	mov    %ecx,0x2008
 804d169:	89 15 0c 20 00 00    	mov    %edx,0x200c
 804d16f:	89 2d 10 20 00 00    	mov    %ebp,0x2010
 804d175:	89 35 14 20 00 00    	mov    %esi,0x2014
 804d17b:	89 3d 18 20 00 00    	mov    %edi,0x2018
 804d181:	0f 90 05 00 22 00 00 	seto   0x2200
 804d188:	0f 91 05 01 22 00 00 	setno  0x2201
 804d18f:	0f 92 05 02 22 00 00 	setb   0x2202
 804d196:	0f 93 05 03 22 00 00 	setae  0x2203
 804d19d:	0f 94 05 04 22 00 00 	sete   0x2204
 804d1a4:	0f 95 05 05 22 00 00 	setne  0x2205
 804d1ab:	0f 96 05 06 22 00 00 	setbe  0x2206
 804d1b2:	0f 97 05 07 22 00 00 	seta   0x2207
 804d1b9:	0f 98 05 08 22 00 00 	sets   0x2208
 804d1c0:	0f 99 05 09 22 00 00 	setns  0x2209
 804d1c7:	0f 9a 05 0a 22 00 00 	setp   0x220a
 804d1ce:	0f 9b 05 0b 22 00 00 	setnp  0x220b
 804d1d5:	0f 9c 05 0c 22 00 00 	setl   0x220c
 804d1dc:	0f 9d 05 0d 22 00 00 	setge  0x220d
 804d1e3:	0f 9e 05 0e 22 00 00 	setle  0x220e
 804d1ea:	0f 9f 05 0f 22 00 00 	setg   0x220f
 804d1f1:	66 9c                	pushfw 
 804d1f3:	66 58                	pop    %ax
 804d1f5:	66 a3 00 21 00 00    	mov    %ax,0x2100
 804d1fb:	a1 50 20 00 00       	mov    0x2050,%eax
 804d200:	29 e0                	sub    %esp,%eax
 804d202:	a3 20 20 00 00       	mov    %eax,0x2020
 804d207:	b8 00 00 00 00       	mov    $0x0,%eax
 804d20c:	c3                   	ret    

0804d20d <wrmsr_constant_simple>:
 804d20d:	90                   	nop
 804d20e:	66 6a 00             	pushw  $0x0
 804d211:	66 9d                	popfw  
 804d213:	b8 02 00 00 00       	mov    $0x2,%eax
 804d218:	bb 03 00 00 00       	mov    $0x3,%ebx
 804d21d:	b9 04 00 00 00       	mov    $0x4,%ecx
 804d222:	ba 05 00 00 00       	mov    $0x5,%edx
 804d227:	bd 06 00 00 00       	mov    $0x6,%ebp
 804d22c:	be 07 00 00 00       	mov    $0x7,%esi
 804d231:	bf 08 00 00 00       	mov    $0x8,%edi
 804d236:	89 25 50 20 00 00    	mov    %esp,0x2050
 804d23c:	0f 30                	wrmsr  
 804d23e:	a3 00 20 00 00       	mov    %eax,0x2000
 804d243:	89 1d 04 20 00 00    	mov    %ebx,0x2004
 804d249:	89 0d 08 20 00 00    	mov    %ecx,0x2008
 804d24f:	89 15 0c 20 00 00    	mov    %edx,0x200c
 804d255:	89 2d 10 20 00 00    	mov    %ebp,0x2010
 804d25b:	89 35 14 20 00 00    	mov    %esi,0x2014
 804d261:	89 3d 18 20 00 00    	mov    %edi,0x2018
 804d267:	0f 90 05 00 22 00 00 	seto   0x2200
 804d26e:	0f 91 05 01 22 00 00 	setno  0x2201
 804d275:	0f 92 05 02 22 00 00 	setb   0x2202
 804d27c:	0f 93 05 03 22 00 00 	setae  0x2203
 804d283:	0f 94 05 04 22 00 00 	sete   0x2204
 804d28a:	0f 95 05 05 22 00 00 	setne  0x2205
 804d291:	0f 96 05 06 22 00 00 	setbe  0x2206
 804d298:	0f 97 05 07 22 00 00 	seta   0x2207
 804d29f:	0f 98 05 08 22 00 00 	sets   0x2208
 804d2a6:	0f 99 05 09 22 00 00 	setns  0x2209
 804d2ad:	0f 9a 05 0a 22 00 00 	setp   0x220a
 804d2b4:	0f 9b 05 0b 22 00 00 	setnp  0x220b
 804d2bb:	0f 9c 05 0c 22 00 00 	setl   0x220c
 804d2c2:	0f 9d 05 0d 22 00 00 	setge  0x220d
 804d2c9:	0f 9e 05 0e 22 00 00 	setle  0x220e
 804d2d0:	0f 9f 05 0f 22 00 00 	setg   0x220f
 804d2d7:	66 9c                	pushfw 
 804d2d9:	66 58                	pop    %ax
 804d2db:	66 a3 00 21 00 00    	mov    %ax,0x2100
 804d2e1:	a1 50 20 00 00       	mov    0x2050,%eax
 804d2e6:	29 e0                	sub    %esp,%eax
 804d2e8:	a3 20 20 00 00       	mov    %eax,0x2020
 804d2ed:	b8 00 00 00 00       	mov    $0x0,%eax
 804d2f2:	c3                   	ret    

0804d2f3 <wrmsr_constant_complex1>:
 804d2f3:	90                   	nop
 804d2f4:	66 6a 00             	pushw  $0x0
 804d2f7:	66 9d                	popfw  
 804d2f9:	b8 84 79 b1 a3       	mov    $0xa3b17984,%eax
 804d2fe:	bb d7 1a 67 06       	mov    $0x6671ad7,%ebx
 804d303:	b9 48 52 68 46       	mov    $0x46685248,%ecx
 804d308:	ba c4 56 24 39       	mov    $0x392456c4,%edx
 804d30d:	bd a4 60 89 bc       	mov    $0xbc8960a4,%ebp
 804d312:	be 78 2d 3c ad       	mov    $0xad3c2d78,%esi
 804d317:	bf 52 e1 65 e4       	mov    $0xe465e152,%edi
 804d31c:	89 25 50 20 00 00    	mov    %esp,0x2050
 804d322:	0f 30                	wrmsr  
 804d324:	a3 00 20 00 00       	mov    %eax,0x2000
 804d329:	89 1d 04 20 00 00    	mov    %ebx,0x2004
 804d32f:	89 0d 08 20 00 00    	mov    %ecx,0x2008
 804d335:	89 15 0c 20 00 00    	mov    %edx,0x200c
 804d33b:	89 2d 10 20 00 00    	mov    %ebp,0x2010
 804d341:	89 35 14 20 00 00    	mov    %esi,0x2014
 804d347:	89 3d 18 20 00 00    	mov    %edi,0x2018
 804d34d:	0f 90 05 00 22 00 00 	seto   0x2200
 804d354:	0f 91 05 01 22 00 00 	setno  0x2201
 804d35b:	0f 92 05 02 22 00 00 	setb   0x2202
 804d362:	0f 93 05 03 22 00 00 	setae  0x2203
 804d369:	0f 94 05 04 22 00 00 	sete   0x2204
 804d370:	0f 95 05 05 22 00 00 	setne  0x2205
 804d377:	0f 96 05 06 22 00 00 	setbe  0x2206
 804d37e:	0f 97 05 07 22 00 00 	seta   0x2207
 804d385:	0f 98 05 08 22 00 00 	sets   0x2208
 804d38c:	0f 99 05 09 22 00 00 	setns  0x2209
 804d393:	0f 9a 05 0a 22 00 00 	setp   0x220a
 804d39a:	0f 9b 05 0b 22 00 00 	setnp  0x220b
 804d3a1:	0f 9c 05 0c 22 00 00 	setl   0x220c
 804d3a8:	0f 9d 05 0d 22 00 00 	setge  0x220d
 804d3af:	0f 9e 05 0e 22 00 00 	setle  0x220e
 804d3b6:	0f 9f 05 0f 22 00 00 	setg   0x220f
 804d3bd:	66 9c                	pushfw 
 804d3bf:	66 58                	pop    %ax
 804d3c1:	66 a3 00 21 00 00    	mov    %ax,0x2100
 804d3c7:	a1 50 20 00 00       	mov    0x2050,%eax
 804d3cc:	29 e0                	sub    %esp,%eax
 804d3ce:	a3 20 20 00 00       	mov    %eax,0x2020
 804d3d3:	b8 00 00 00 00       	mov    $0x0,%eax
 804d3d8:	c3                   	ret    

0804d3d9 <wrmsr_constant_complex2>:
 804d3d9:	90                   	nop
 804d3da:	66 68 ff fe          	pushw  $0xfeff
 804d3de:	66 9d                	popfw  
 804d3e0:	b8 e8 c0 3e 31       	mov    $0x313ec0e8,%eax
 804d3e5:	bb c3 81 6e 49       	mov    $0x496e81c3,%ebx
 804d3ea:	b9 b2 6c 3f 1e       	mov    $0x1e3f6cb2,%ecx
 804d3ef:	ba b3 25 69 4e       	mov    $0x4e6925b3,%edx
 804d3f4:	bd 10 26 31 4f       	mov    $0x4f312610,%ebp
 804d3f9:	be a5 a4 37 2f       	mov    $0x2f37a4a5,%esi
 804d3fe:	bf b4 17 a9 91       	mov    $0x91a917b4,%edi
 804d403:	89 25 50 20 00 00    	mov    %esp,0x2050
 804d409:	0f 30                	wrmsr  
 804d40b:	a3 00 20 00 00       	mov    %eax,0x2000
 804d410:	89 1d 04 20 00 00    	mov    %ebx,0x2004
 804d416:	89 0d 08 20 00 00    	mov    %ecx,0x2008
 804d41c:	89 15 0c 20 00 00    	mov    %edx,0x200c
 804d422:	89 2d 10 20 00 00    	mov    %ebp,0x2010
 804d428:	89 35 14 20 00 00    	mov    %esi,0x2014
 804d42e:	89 3d 18 20 00 00    	mov    %edi,0x2018
 804d434:	0f 90 05 00 22 00 00 	seto   0x2200
 804d43b:	0f 91 05 01 22 00 00 	setno  0x2201
 804d442:	0f 92 05 02 22 00 00 	setb   0x2202
 804d449:	0f 93 05 03 22 00 00 	setae  0x2203
 804d450:	0f 94 05 04 22 00 00 	sete   0x2204
 804d457:	0f 95 05 05 22 00 00 	setne  0x2205
 804d45e:	0f 96 05 06 22 00 00 	setbe  0x2206
 804d465:	0f 97 05 07 22 00 00 	seta   0x2207
 804d46c:	0f 98 05 08 22 00 00 	sets   0x2208
 804d473:	0f 99 05 09 22 00 00 	setns  0x2209
 804d47a:	0f 9a 05 0a 22 00 00 	setp   0x220a
 804d481:	0f 9b 05 0b 22 00 00 	setnp  0x220b
 804d488:	0f 9c 05 0c 22 00 00 	setl   0x220c
 804d48f:	0f 9d 05 0d 22 00 00 	setge  0x220d
 804d496:	0f 9e 05 0e 22 00 00 	setle  0x220e
 804d49d:	0f 9f 05 0f 22 00 00 	setg   0x220f
 804d4a4:	66 9c                	pushfw 
 804d4a6:	66 58                	pop    %ax
 804d4a8:	66 a3 00 21 00 00    	mov    %ax,0x2100
 804d4ae:	a1 50 20 00 00       	mov    0x2050,%eax
 804d4b3:	29 e0                	sub    %esp,%eax
 804d4b5:	a3 20 20 00 00       	mov    %eax,0x2020
 804d4ba:	b8 00 00 00 00       	mov    $0x0,%eax
 804d4bf:	c3                   	ret    

0804d4c0 <cmov1_plain>:
 804d4c0:	66 0f 47 c3          	cmova  %bx,%ax
 804d4c4:	b8 00 00 00 00       	mov    $0x0,%eax
 804d4c9:	c3                   	ret    

0804d4ca <cmov1_allregs>:
 804d4ca:	90                   	nop
 804d4cb:	66 a1 00 11 00 00    	mov    0x1100,%ax
 804d4d1:	66 50                	push   %ax
 804d4d3:	66 9d                	popfw  
 804d4d5:	a1 00 10 00 00       	mov    0x1000,%eax
 804d4da:	8b 1d 04 10 00 00    	mov    0x1004,%ebx
 804d4e0:	8b 0d 08 10 00 00    	mov    0x1008,%ecx
 804d4e6:	8b 15 0c 10 00 00    	mov    0x100c,%edx
 804d4ec:	8b 2d 10 10 00 00    	mov    0x1010,%ebp
 804d4f2:	8b 35 14 10 00 00    	mov    0x1014,%esi
 804d4f8:	8b 3d 18 10 00 00    	mov    0x1018,%edi
 804d4fe:	89 25 50 20 00 00    	mov    %esp,0x2050
 804d504:	66 0f 47 c3          	cmova  %bx,%ax
 804d508:	a3 00 20 00 00       	mov    %eax,0x2000
 804d50d:	89 1d 04 20 00 00    	mov    %ebx,0x2004
 804d513:	89 0d 08 20 00 00    	mov    %ecx,0x2008
 804d519:	89 15 0c 20 00 00    	mov    %edx,0x200c
 804d51f:	89 2d 10 20 00 00    	mov    %ebp,0x2010
 804d525:	89 35 14 20 00 00    	mov    %esi,0x2014
 804d52b:	89 3d 18 20 00 00    	mov    %edi,0x2018
 804d531:	0f 90 05 00 22 00 00 	seto   0x2200
 804d538:	0f 91 05 01 22 00 00 	setno  0x2201
 804d53f:	0f 92 05 02 22 00 00 	setb   0x2202
 804d546:	0f 93 05 03 22 00 00 	setae  0x2203
 804d54d:	0f 94 05 04 22 00 00 	sete   0x2204
 804d554:	0f 95 05 05 22 00 00 	setne  0x2205
 804d55b:	0f 96 05 06 22 00 00 	setbe  0x2206
 804d562:	0f 97 05 07 22 00 00 	seta   0x2207
 804d569:	0f 98 05 08 22 00 00 	sets   0x2208
 804d570:	0f 99 05 09 22 00 00 	setns  0x2209
 804d577:	0f 9a 05 0a 22 00 00 	setp   0x220a
 804d57e:	0f 9b 05 0b 22 00 00 	setnp  0x220b
 804d585:	0f 9c 05 0c 22 00 00 	setl   0x220c
 804d58c:	0f 9d 05 0d 22 00 00 	setge  0x220d
 804d593:	0f 9e 05 0e 22 00 00 	setle  0x220e
 804d59a:	0f 9f 05 0f 22 00 00 	setg   0x220f
 804d5a1:	66 9c                	pushfw 
 804d5a3:	66 58                	pop    %ax
 804d5a5:	66 a3 00 21 00 00    	mov    %ax,0x2100
 804d5ab:	a1 50 20 00 00       	mov    0x2050,%eax
 804d5b0:	29 e0                	sub    %esp,%eax
 804d5b2:	a3 20 20 00 00       	mov    %eax,0x2020
 804d5b7:	b8 00 00 00 00       	mov    $0x0,%eax
 804d5bc:	c3                   	ret    

0804d5bd <cmov1_constant_simple>:
 804d5bd:	90                   	nop
 804d5be:	66 6a 00             	pushw  $0x0
 804d5c1:	66 9d                	popfw  
 804d5c3:	b8 02 00 00 00       	mov    $0x2,%eax
 804d5c8:	bb 03 00 00 00       	mov    $0x3,%ebx
 804d5cd:	b9 04 00 00 00       	mov    $0x4,%ecx
 804d5d2:	ba 05 00 00 00       	mov    $0x5,%edx
 804d5d7:	bd 06 00 00 00       	mov    $0x6,%ebp
 804d5dc:	be 07 00 00 00       	mov    $0x7,%esi
 804d5e1:	bf 08 00 00 00       	mov    $0x8,%edi
 804d5e6:	89 25 50 20 00 00    	mov    %esp,0x2050
 804d5ec:	66 0f 47 c3          	cmova  %bx,%ax
 804d5f0:	a3 00 20 00 00       	mov    %eax,0x2000
 804d5f5:	89 1d 04 20 00 00    	mov    %ebx,0x2004
 804d5fb:	89 0d 08 20 00 00    	mov    %ecx,0x2008
 804d601:	89 15 0c 20 00 00    	mov    %edx,0x200c
 804d607:	89 2d 10 20 00 00    	mov    %ebp,0x2010
 804d60d:	89 35 14 20 00 00    	mov    %esi,0x2014
 804d613:	89 3d 18 20 00 00    	mov    %edi,0x2018
 804d619:	0f 90 05 00 22 00 00 	seto   0x2200
 804d620:	0f 91 05 01 22 00 00 	setno  0x2201
 804d627:	0f 92 05 02 22 00 00 	setb   0x2202
 804d62e:	0f 93 05 03 22 00 00 	setae  0x2203
 804d635:	0f 94 05 04 22 00 00 	sete   0x2204
 804d63c:	0f 95 05 05 22 00 00 	setne  0x2205
 804d643:	0f 96 05 06 22 00 00 	setbe  0x2206
 804d64a:	0f 97 05 07 22 00 00 	seta   0x2207
 804d651:	0f 98 05 08 22 00 00 	sets   0x2208
 804d658:	0f 99 05 09 22 00 00 	setns  0x2209
 804d65f:	0f 9a 05 0a 22 00 00 	setp   0x220a
 804d666:	0f 9b 05 0b 22 00 00 	setnp  0x220b
 804d66d:	0f 9c 05 0c 22 00 00 	setl   0x220c
 804d674:	0f 9d 05 0d 22 00 00 	setge  0x220d
 804d67b:	0f 9e 05 0e 22 00 00 	setle  0x220e
 804d682:	0f 9f 05 0f 22 00 00 	setg   0x220f
 804d689:	66 9c                	pushfw 
 804d68b:	66 58                	pop    %ax
 804d68d:	66 a3 00 21 00 00    	mov    %ax,0x2100
 804d693:	a1 50 20 00 00       	mov    0x2050,%eax
 804d698:	29 e0                	sub    %esp,%eax
 804d69a:	a3 20 20 00 00       	mov    %eax,0x2020
 804d69f:	b8 00 00 00 00       	mov    $0x0,%eax
 804d6a4:	c3                   	ret    

0804d6a5 <cmov1_constant_complex1>:
 804d6a5:	90                   	nop
 804d6a6:	66 6a 00             	pushw  $0x0
 804d6a9:	66 9d                	popfw  
 804d6ab:	b8 84 79 b1 a3       	mov    $0xa3b17984,%eax
 804d6b0:	bb d7 1a 67 06       	mov    $0x6671ad7,%ebx
 804d6b5:	b9 48 52 68 46       	mov    $0x46685248,%ecx
 804d6ba:	ba c4 56 24 39       	mov    $0x392456c4,%edx
 804d6bf:	bd a4 60 89 bc       	mov    $0xbc8960a4,%ebp
 804d6c4:	be 78 2d 3c ad       	mov    $0xad3c2d78,%esi
 804d6c9:	bf 52 e1 65 e4       	mov    $0xe465e152,%edi
 804d6ce:	89 25 50 20 00 00    	mov    %esp,0x2050
 804d6d4:	66 0f 47 c3          	cmova  %bx,%ax
 804d6d8:	a3 00 20 00 00       	mov    %eax,0x2000
 804d6dd:	89 1d 04 20 00 00    	mov    %ebx,0x2004
 804d6e3:	89 0d 08 20 00 00    	mov    %ecx,0x2008
 804d6e9:	89 15 0c 20 00 00    	mov    %edx,0x200c
 804d6ef:	89 2d 10 20 00 00    	mov    %ebp,0x2010
 804d6f5:	89 35 14 20 00 00    	mov    %esi,0x2014
 804d6fb:	89 3d 18 20 00 00    	mov    %edi,0x2018
 804d701:	0f 90 05 00 22 00 00 	seto   0x2200
 804d708:	0f 91 05 01 22 00 00 	setno  0x2201
 804d70f:	0f 92 05 02 22 00 00 	setb   0x2202
 804d716:	0f 93 05 03 22 00 00 	setae  0x2203
 804d71d:	0f 94 05 04 22 00 00 	sete   0x2204
 804d724:	0f 95 05 05 22 00 00 	setne  0x2205
 804d72b:	0f 96 05 06 22 00 00 	setbe  0x2206
 804d732:	0f 97 05 07 22 00 00 	seta   0x2207
 804d739:	0f 98 05 08 22 00 00 	sets   0x2208
 804d740:	0f 99 05 09 22 00 00 	setns  0x2209
 804d747:	0f 9a 05 0a 22 00 00 	setp   0x220a
 804d74e:	0f 9b 05 0b 22 00 00 	setnp  0x220b
 804d755:	0f 9c 05 0c 22 00 00 	setl   0x220c
 804d75c:	0f 9d 05 0d 22 00 00 	setge  0x220d
 804d763:	0f 9e 05 0e 22 00 00 	setle  0x220e
 804d76a:	0f 9f 05 0f 22 00 00 	setg   0x220f
 804d771:	66 9c                	pushfw 
 804d773:	66 58                	pop    %ax
 804d775:	66 a3 00 21 00 00    	mov    %ax,0x2100
 804d77b:	a1 50 20 00 00       	mov    0x2050,%eax
 804d780:	29 e0                	sub    %esp,%eax
 804d782:	a3 20 20 00 00       	mov    %eax,0x2020
 804d787:	b8 00 00 00 00       	mov    $0x0,%eax
 804d78c:	c3                   	ret    

0804d78d <cmov1_constant_complex2>:
 804d78d:	90                   	nop
 804d78e:	66 68 ff fe          	pushw  $0xfeff
 804d792:	66 9d                	popfw  
 804d794:	b8 e8 c0 3e 31       	mov    $0x313ec0e8,%eax
 804d799:	bb c3 81 6e 49       	mov    $0x496e81c3,%ebx
 804d79e:	b9 b2 6c 3f 1e       	mov    $0x1e3f6cb2,%ecx
 804d7a3:	ba b3 25 69 4e       	mov    $0x4e6925b3,%edx
 804d7a8:	bd 10 26 31 4f       	mov    $0x4f312610,%ebp
 804d7ad:	be a5 a4 37 2f       	mov    $0x2f37a4a5,%esi
 804d7b2:	bf b4 17 a9 91       	mov    $0x91a917b4,%edi
 804d7b7:	89 25 50 20 00 00    	mov    %esp,0x2050
 804d7bd:	66 0f 47 c3          	cmova  %bx,%ax
 804d7c1:	a3 00 20 00 00       	mov    %eax,0x2000
 804d7c6:	89 1d 04 20 00 00    	mov    %ebx,0x2004
 804d7cc:	89 0d 08 20 00 00    	mov    %ecx,0x2008
 804d7d2:	89 15 0c 20 00 00    	mov    %edx,0x200c
 804d7d8:	89 2d 10 20 00 00    	mov    %ebp,0x2010
 804d7de:	89 35 14 20 00 00    	mov    %esi,0x2014
 804d7e4:	89 3d 18 20 00 00    	mov    %edi,0x2018
 804d7ea:	0f 90 05 00 22 00 00 	seto   0x2200
 804d7f1:	0f 91 05 01 22 00 00 	setno  0x2201
 804d7f8:	0f 92 05 02 22 00 00 	setb   0x2202
 804d7ff:	0f 93 05 03 22 00 00 	setae  0x2203
 804d806:	0f 94 05 04 22 00 00 	sete   0x2204
 804d80d:	0f 95 05 05 22 00 00 	setne  0x2205
 804d814:	0f 96 05 06 22 00 00 	setbe  0x2206
 804d81b:	0f 97 05 07 22 00 00 	seta   0x2207
 804d822:	0f 98 05 08 22 00 00 	sets   0x2208
 804d829:	0f 99 05 09 22 00 00 	setns  0x2209
 804d830:	0f 9a 05 0a 22 00 00 	setp   0x220a
 804d837:	0f 9b 05 0b 22 00 00 	setnp  0x220b
 804d83e:	0f 9c 05 0c 22 00 00 	setl   0x220c
 804d845:	0f 9d 05 0d 22 00 00 	setge  0x220d
 804d84c:	0f 9e 05 0e 22 00 00 	setle  0x220e
 804d853:	0f 9f 05 0f 22 00 00 	setg   0x220f
 804d85a:	66 9c                	pushfw 
 804d85c:	66 58                	pop    %ax
 804d85e:	66 a3 00 21 00 00    	mov    %ax,0x2100
 804d864:	a1 50 20 00 00       	mov    0x2050,%eax
 804d869:	29 e0                	sub    %esp,%eax
 804d86b:	a3 20 20 00 00       	mov    %eax,0x2020
 804d870:	b8 00 00 00 00       	mov    $0x0,%eax
 804d875:	c3                   	ret    

0804d876 <cmov2_mv_plain>:
 804d876:	66 0f 47 c3          	cmova  %bx,%ax
 804d87a:	b8 00 00 00 00       	mov    $0x0,%eax
 804d87f:	c3                   	ret    

0804d880 <cmov2_mv_allregs>:
 804d880:	90                   	nop
 804d881:	66 a1 00 11 00 00    	mov    0x1100,%ax
 804d887:	66 50                	push   %ax
 804d889:	66 9d                	popfw  
 804d88b:	a1 00 10 00 00       	mov    0x1000,%eax
 804d890:	8b 1d 04 10 00 00    	mov    0x1004,%ebx
 804d896:	8b 0d 08 10 00 00    	mov    0x1008,%ecx
 804d89c:	8b 15 0c 10 00 00    	mov    0x100c,%edx
 804d8a2:	8b 2d 10 10 00 00    	mov    0x1010,%ebp
 804d8a8:	8b 35 14 10 00 00    	mov    0x1014,%esi
 804d8ae:	8b 3d 18 10 00 00    	mov    0x1018,%edi
 804d8b4:	89 25 50 20 00 00    	mov    %esp,0x2050
 804d8ba:	66 0f 47 c3          	cmova  %bx,%ax
 804d8be:	a3 00 20 00 00       	mov    %eax,0x2000
 804d8c3:	89 1d 04 20 00 00    	mov    %ebx,0x2004
 804d8c9:	89 0d 08 20 00 00    	mov    %ecx,0x2008
 804d8cf:	89 15 0c 20 00 00    	mov    %edx,0x200c
 804d8d5:	89 2d 10 20 00 00    	mov    %ebp,0x2010
 804d8db:	89 35 14 20 00 00    	mov    %esi,0x2014
 804d8e1:	89 3d 18 20 00 00    	mov    %edi,0x2018
 804d8e7:	0f 90 05 00 22 00 00 	seto   0x2200
 804d8ee:	0f 91 05 01 22 00 00 	setno  0x2201
 804d8f5:	0f 92 05 02 22 00 00 	setb   0x2202
 804d8fc:	0f 93 05 03 22 00 00 	setae  0x2203
 804d903:	0f 94 05 04 22 00 00 	sete   0x2204
 804d90a:	0f 95 05 05 22 00 00 	setne  0x2205
 804d911:	0f 96 05 06 22 00 00 	setbe  0x2206
 804d918:	0f 97 05 07 22 00 00 	seta   0x2207
 804d91f:	0f 98 05 08 22 00 00 	sets   0x2208
 804d926:	0f 99 05 09 22 00 00 	setns  0x2209
 804d92d:	0f 9a 05 0a 22 00 00 	setp   0x220a
 804d934:	0f 9b 05 0b 22 00 00 	setnp  0x220b
 804d93b:	0f 9c 05 0c 22 00 00 	setl   0x220c
 804d942:	0f 9d 05 0d 22 00 00 	setge  0x220d
 804d949:	0f 9e 05 0e 22 00 00 	setle  0x220e
 804d950:	0f 9f 05 0f 22 00 00 	setg   0x220f
 804d957:	66 9c                	pushfw 
 804d959:	66 58                	pop    %ax
 804d95b:	66 a3 00 21 00 00    	mov    %ax,0x2100
 804d961:	a1 50 20 00 00       	mov    0x2050,%eax
 804d966:	29 e0                	sub    %esp,%eax
 804d968:	a3 20 20 00 00       	mov    %eax,0x2020
 804d96d:	b8 00 00 00 00       	mov    $0x0,%eax
 804d972:	c3                   	ret    

0804d973 <cmov2_mv_constant_simple>:
 804d973:	90                   	nop
 804d974:	66 6a 00             	pushw  $0x0
 804d977:	66 9d                	popfw  
 804d979:	b8 02 00 00 00       	mov    $0x2,%eax
 804d97e:	bb 03 00 00 00       	mov    $0x3,%ebx
 804d983:	b9 04 00 00 00       	mov    $0x4,%ecx
 804d988:	ba 05 00 00 00       	mov    $0x5,%edx
 804d98d:	bd 06 00 00 00       	mov    $0x6,%ebp
 804d992:	be 07 00 00 00       	mov    $0x7,%esi
 804d997:	bf 08 00 00 00       	mov    $0x8,%edi
 804d99c:	89 25 50 20 00 00    	mov    %esp,0x2050
 804d9a2:	66 0f 47 c3          	cmova  %bx,%ax
 804d9a6:	a3 00 20 00 00       	mov    %eax,0x2000
 804d9ab:	89 1d 04 20 00 00    	mov    %ebx,0x2004
 804d9b1:	89 0d 08 20 00 00    	mov    %ecx,0x2008
 804d9b7:	89 15 0c 20 00 00    	mov    %edx,0x200c
 804d9bd:	89 2d 10 20 00 00    	mov    %ebp,0x2010
 804d9c3:	89 35 14 20 00 00    	mov    %esi,0x2014
 804d9c9:	89 3d 18 20 00 00    	mov    %edi,0x2018
 804d9cf:	0f 90 05 00 22 00 00 	seto   0x2200
 804d9d6:	0f 91 05 01 22 00 00 	setno  0x2201
 804d9dd:	0f 92 05 02 22 00 00 	setb   0x2202
 804d9e4:	0f 93 05 03 22 00 00 	setae  0x2203
 804d9eb:	0f 94 05 04 22 00 00 	sete   0x2204
 804d9f2:	0f 95 05 05 22 00 00 	setne  0x2205
 804d9f9:	0f 96 05 06 22 00 00 	setbe  0x2206
 804da00:	0f 97 05 07 22 00 00 	seta   0x2207
 804da07:	0f 98 05 08 22 00 00 	sets   0x2208
 804da0e:	0f 99 05 09 22 00 00 	setns  0x2209
 804da15:	0f 9a 05 0a 22 00 00 	setp   0x220a
 804da1c:	0f 9b 05 0b 22 00 00 	setnp  0x220b
 804da23:	0f 9c 05 0c 22 00 00 	setl   0x220c
 804da2a:	0f 9d 05 0d 22 00 00 	setge  0x220d
 804da31:	0f 9e 05 0e 22 00 00 	setle  0x220e
 804da38:	0f 9f 05 0f 22 00 00 	setg   0x220f
 804da3f:	66 9c                	pushfw 
 804da41:	66 58                	pop    %ax
 804da43:	66 a3 00 21 00 00    	mov    %ax,0x2100
 804da49:	a1 50 20 00 00       	mov    0x2050,%eax
 804da4e:	29 e0                	sub    %esp,%eax
 804da50:	a3 20 20 00 00       	mov    %eax,0x2020
 804da55:	b8 00 00 00 00       	mov    $0x0,%eax
 804da5a:	c3                   	ret    

0804da5b <cmov2_mv_constant_complex1>:
 804da5b:	90                   	nop
 804da5c:	66 6a 00             	pushw  $0x0
 804da5f:	66 9d                	popfw  
 804da61:	b8 84 79 b1 a3       	mov    $0xa3b17984,%eax
 804da66:	bb d7 1a 67 06       	mov    $0x6671ad7,%ebx
 804da6b:	b9 48 52 68 46       	mov    $0x46685248,%ecx
 804da70:	ba c4 56 24 39       	mov    $0x392456c4,%edx
 804da75:	bd a4 60 89 bc       	mov    $0xbc8960a4,%ebp
 804da7a:	be 78 2d 3c ad       	mov    $0xad3c2d78,%esi
 804da7f:	bf 52 e1 65 e4       	mov    $0xe465e152,%edi
 804da84:	89 25 50 20 00 00    	mov    %esp,0x2050
 804da8a:	66 0f 47 c3          	cmova  %bx,%ax
 804da8e:	a3 00 20 00 00       	mov    %eax,0x2000
 804da93:	89 1d 04 20 00 00    	mov    %ebx,0x2004
 804da99:	89 0d 08 20 00 00    	mov    %ecx,0x2008
 804da9f:	89 15 0c 20 00 00    	mov    %edx,0x200c
 804daa5:	89 2d 10 20 00 00    	mov    %ebp,0x2010
 804daab:	89 35 14 20 00 00    	mov    %esi,0x2014
 804dab1:	89 3d 18 20 00 00    	mov    %edi,0x2018
 804dab7:	0f 90 05 00 22 00 00 	seto   0x2200
 804dabe:	0f 91 05 01 22 00 00 	setno  0x2201
 804dac5:	0f 92 05 02 22 00 00 	setb   0x2202
 804dacc:	0f 93 05 03 22 00 00 	setae  0x2203
 804dad3:	0f 94 05 04 22 00 00 	sete   0x2204
 804dada:	0f 95 05 05 22 00 00 	setne  0x2205
 804dae1:	0f 96 05 06 22 00 00 	setbe  0x2206
 804dae8:	0f 97 05 07 22 00 00 	seta   0x2207
 804daef:	0f 98 05 08 22 00 00 	sets   0x2208
 804daf6:	0f 99 05 09 22 00 00 	setns  0x2209
 804dafd:	0f 9a 05 0a 22 00 00 	setp   0x220a
 804db04:	0f 9b 05 0b 22 00 00 	setnp  0x220b
 804db0b:	0f 9c 05 0c 22 00 00 	setl   0x220c
 804db12:	0f 9d 05 0d 22 00 00 	setge  0x220d
 804db19:	0f 9e 05 0e 22 00 00 	setle  0x220e
 804db20:	0f 9f 05 0f 22 00 00 	setg   0x220f
 804db27:	66 9c                	pushfw 
 804db29:	66 58                	pop    %ax
 804db2b:	66 a3 00 21 00 00    	mov    %ax,0x2100
 804db31:	a1 50 20 00 00       	mov    0x2050,%eax
 804db36:	29 e0                	sub    %esp,%eax
 804db38:	a3 20 20 00 00       	mov    %eax,0x2020
 804db3d:	b8 00 00 00 00       	mov    $0x0,%eax
 804db42:	c3                   	ret    

0804db43 <cmov2_mv_constant_complex2>:
 804db43:	90                   	nop
 804db44:	66 68 ff fe          	pushw  $0xfeff
 804db48:	66 9d                	popfw  
 804db4a:	b8 e8 c0 3e 31       	mov    $0x313ec0e8,%eax
 804db4f:	bb c3 81 6e 49       	mov    $0x496e81c3,%ebx
 804db54:	b9 b2 6c 3f 1e       	mov    $0x1e3f6cb2,%ecx
 804db59:	ba b3 25 69 4e       	mov    $0x4e6925b3,%edx
 804db5e:	bd 10 26 31 4f       	mov    $0x4f312610,%ebp
 804db63:	be a5 a4 37 2f       	mov    $0x2f37a4a5,%esi
 804db68:	bf b4 17 a9 91       	mov    $0x91a917b4,%edi
 804db6d:	89 25 50 20 00 00    	mov    %esp,0x2050
 804db73:	66 0f 47 c3          	cmova  %bx,%ax
 804db77:	a3 00 20 00 00       	mov    %eax,0x2000
 804db7c:	89 1d 04 20 00 00    	mov    %ebx,0x2004
 804db82:	89 0d 08 20 00 00    	mov    %ecx,0x2008
 804db88:	89 15 0c 20 00 00    	mov    %edx,0x200c
 804db8e:	89 2d 10 20 00 00    	mov    %ebp,0x2010
 804db94:	89 35 14 20 00 00    	mov    %esi,0x2014
 804db9a:	89 3d 18 20 00 00    	mov    %edi,0x2018
 804dba0:	0f 90 05 00 22 00 00 	seto   0x2200
 804dba7:	0f 91 05 01 22 00 00 	setno  0x2201
 804dbae:	0f 92 05 02 22 00 00 	setb   0x2202
 804dbb5:	0f 93 05 03 22 00 00 	setae  0x2203
 804dbbc:	0f 94 05 04 22 00 00 	sete   0x2204
 804dbc3:	0f 95 05 05 22 00 00 	setne  0x2205
 804dbca:	0f 96 05 06 22 00 00 	setbe  0x2206
 804dbd1:	0f 97 05 07 22 00 00 	seta   0x2207
 804dbd8:	0f 98 05 08 22 00 00 	sets   0x2208
 804dbdf:	0f 99 05 09 22 00 00 	setns  0x2209
 804dbe6:	0f 9a 05 0a 22 00 00 	setp   0x220a
 804dbed:	0f 9b 05 0b 22 00 00 	setnp  0x220b
 804dbf4:	0f 9c 05 0c 22 00 00 	setl   0x220c
 804dbfb:	0f 9d 05 0d 22 00 00 	setge  0x220d
 804dc02:	0f 9e 05 0e 22 00 00 	setle  0x220e
 804dc09:	0f 9f 05 0f 22 00 00 	setg   0x220f
 804dc10:	66 9c                	pushfw 
 804dc12:	66 58                	pop    %ax
 804dc14:	66 a3 00 21 00 00    	mov    %ax,0x2100
 804dc1a:	a1 50 20 00 00       	mov    0x2050,%eax
 804dc1f:	29 e0                	sub    %esp,%eax
 804dc21:	a3 20 20 00 00       	mov    %eax,0x2020
 804dc26:	b8 00 00 00 00       	mov    $0x0,%eax
 804dc2b:	c3                   	ret    

0804dc2c <cmov3_mv_plain>:
 804dc2c:	66 0f 47 43 0c       	cmova  0xc(%ebx),%ax
 804dc31:	b8 00 00 00 00       	mov    $0x0,%eax
 804dc36:	c3                   	ret    

0804dc37 <cmov3_mv_allregs>:
 804dc37:	90                   	nop
 804dc38:	66 a1 00 11 00 00    	mov    0x1100,%ax
 804dc3e:	66 50                	push   %ax
 804dc40:	66 9d                	popfw  
 804dc42:	a1 00 10 00 00       	mov    0x1000,%eax
 804dc47:	8b 1d 04 10 00 00    	mov    0x1004,%ebx
 804dc4d:	8b 0d 08 10 00 00    	mov    0x1008,%ecx
 804dc53:	8b 15 0c 10 00 00    	mov    0x100c,%edx
 804dc59:	8b 2d 10 10 00 00    	mov    0x1010,%ebp
 804dc5f:	8b 35 14 10 00 00    	mov    0x1014,%esi
 804dc65:	8b 3d 18 10 00 00    	mov    0x1018,%edi
 804dc6b:	89 25 50 20 00 00    	mov    %esp,0x2050
 804dc71:	66 0f 47 43 0c       	cmova  0xc(%ebx),%ax
 804dc76:	a3 00 20 00 00       	mov    %eax,0x2000
 804dc7b:	89 1d 04 20 00 00    	mov    %ebx,0x2004
 804dc81:	89 0d 08 20 00 00    	mov    %ecx,0x2008
 804dc87:	89 15 0c 20 00 00    	mov    %edx,0x200c
 804dc8d:	89 2d 10 20 00 00    	mov    %ebp,0x2010
 804dc93:	89 35 14 20 00 00    	mov    %esi,0x2014
 804dc99:	89 3d 18 20 00 00    	mov    %edi,0x2018
 804dc9f:	0f 90 05 00 22 00 00 	seto   0x2200
 804dca6:	0f 91 05 01 22 00 00 	setno  0x2201
 804dcad:	0f 92 05 02 22 00 00 	setb   0x2202
 804dcb4:	0f 93 05 03 22 00 00 	setae  0x2203
 804dcbb:	0f 94 05 04 22 00 00 	sete   0x2204
 804dcc2:	0f 95 05 05 22 00 00 	setne  0x2205
 804dcc9:	0f 96 05 06 22 00 00 	setbe  0x2206
 804dcd0:	0f 97 05 07 22 00 00 	seta   0x2207
 804dcd7:	0f 98 05 08 22 00 00 	sets   0x2208
 804dcde:	0f 99 05 09 22 00 00 	setns  0x2209
 804dce5:	0f 9a 05 0a 22 00 00 	setp   0x220a
 804dcec:	0f 9b 05 0b 22 00 00 	setnp  0x220b
 804dcf3:	0f 9c 05 0c 22 00 00 	setl   0x220c
 804dcfa:	0f 9d 05 0d 22 00 00 	setge  0x220d
 804dd01:	0f 9e 05 0e 22 00 00 	setle  0x220e
 804dd08:	0f 9f 05 0f 22 00 00 	setg   0x220f
 804dd0f:	66 9c                	pushfw 
 804dd11:	66 58                	pop    %ax
 804dd13:	66 a3 00 21 00 00    	mov    %ax,0x2100
 804dd19:	a1 50 20 00 00       	mov    0x2050,%eax
 804dd1e:	29 e0                	sub    %esp,%eax
 804dd20:	a3 20 20 00 00       	mov    %eax,0x2020
 804dd25:	b8 00 00 00 00       	mov    $0x0,%eax
 804dd2a:	c3                   	ret    

0804dd2b <cmov3_mv_constant_simple>:
 804dd2b:	90                   	nop
 804dd2c:	66 6a 00             	pushw  $0x0
 804dd2f:	66 9d                	popfw  
 804dd31:	b8 02 00 00 00       	mov    $0x2,%eax
 804dd36:	bb 03 00 00 00       	mov    $0x3,%ebx
 804dd3b:	b9 04 00 00 00       	mov    $0x4,%ecx
 804dd40:	ba 05 00 00 00       	mov    $0x5,%edx
 804dd45:	bd 06 00 00 00       	mov    $0x6,%ebp
 804dd4a:	be 07 00 00 00       	mov    $0x7,%esi
 804dd4f:	bf 08 00 00 00       	mov    $0x8,%edi
 804dd54:	89 25 50 20 00 00    	mov    %esp,0x2050
 804dd5a:	66 0f 47 43 0c       	cmova  0xc(%ebx),%ax
 804dd5f:	a3 00 20 00 00       	mov    %eax,0x2000
 804dd64:	89 1d 04 20 00 00    	mov    %ebx,0x2004
 804dd6a:	89 0d 08 20 00 00    	mov    %ecx,0x2008
 804dd70:	89 15 0c 20 00 00    	mov    %edx,0x200c
 804dd76:	89 2d 10 20 00 00    	mov    %ebp,0x2010
 804dd7c:	89 35 14 20 00 00    	mov    %esi,0x2014
 804dd82:	89 3d 18 20 00 00    	mov    %edi,0x2018
 804dd88:	0f 90 05 00 22 00 00 	seto   0x2200
 804dd8f:	0f 91 05 01 22 00 00 	setno  0x2201
 804dd96:	0f 92 05 02 22 00 00 	setb   0x2202
 804dd9d:	0f 93 05 03 22 00 00 	setae  0x2203
 804dda4:	0f 94 05 04 22 00 00 	sete   0x2204
 804ddab:	0f 95 05 05 22 00 00 	setne  0x2205
 804ddb2:	0f 96 05 06 22 00 00 	setbe  0x2206
 804ddb9:	0f 97 05 07 22 00 00 	seta   0x2207
 804ddc0:	0f 98 05 08 22 00 00 	sets   0x2208
 804ddc7:	0f 99 05 09 22 00 00 	setns  0x2209
 804ddce:	0f 9a 05 0a 22 00 00 	setp   0x220a
 804ddd5:	0f 9b 05 0b 22 00 00 	setnp  0x220b
 804dddc:	0f 9c 05 0c 22 00 00 	setl   0x220c
 804dde3:	0f 9d 05 0d 22 00 00 	setge  0x220d
 804ddea:	0f 9e 05 0e 22 00 00 	setle  0x220e
 804ddf1:	0f 9f 05 0f 22 00 00 	setg   0x220f
 804ddf8:	66 9c                	pushfw 
 804ddfa:	66 58                	pop    %ax
 804ddfc:	66 a3 00 21 00 00    	mov    %ax,0x2100
 804de02:	a1 50 20 00 00       	mov    0x2050,%eax
 804de07:	29 e0                	sub    %esp,%eax
 804de09:	a3 20 20 00 00       	mov    %eax,0x2020
 804de0e:	b8 00 00 00 00       	mov    $0x0,%eax
 804de13:	c3                   	ret    

0804de14 <cmov3_mv_constant_complex1>:
 804de14:	90                   	nop
 804de15:	66 6a 00             	pushw  $0x0
 804de18:	66 9d                	popfw  
 804de1a:	b8 84 79 b1 a3       	mov    $0xa3b17984,%eax
 804de1f:	bb d7 1a 67 06       	mov    $0x6671ad7,%ebx
 804de24:	b9 48 52 68 46       	mov    $0x46685248,%ecx
 804de29:	ba c4 56 24 39       	mov    $0x392456c4,%edx
 804de2e:	bd a4 60 89 bc       	mov    $0xbc8960a4,%ebp
 804de33:	be 78 2d 3c ad       	mov    $0xad3c2d78,%esi
 804de38:	bf 52 e1 65 e4       	mov    $0xe465e152,%edi
 804de3d:	89 25 50 20 00 00    	mov    %esp,0x2050
 804de43:	66 0f 47 43 0c       	cmova  0xc(%ebx),%ax
 804de48:	a3 00 20 00 00       	mov    %eax,0x2000
 804de4d:	89 1d 04 20 00 00    	mov    %ebx,0x2004
 804de53:	89 0d 08 20 00 00    	mov    %ecx,0x2008
 804de59:	89 15 0c 20 00 00    	mov    %edx,0x200c
 804de5f:	89 2d 10 20 00 00    	mov    %ebp,0x2010
 804de65:	89 35 14 20 00 00    	mov    %esi,0x2014
 804de6b:	89 3d 18 20 00 00    	mov    %edi,0x2018
 804de71:	0f 90 05 00 22 00 00 	seto   0x2200
 804de78:	0f 91 05 01 22 00 00 	setno  0x2201
 804de7f:	0f 92 05 02 22 00 00 	setb   0x2202
 804de86:	0f 93 05 03 22 00 00 	setae  0x2203
 804de8d:	0f 94 05 04 22 00 00 	sete   0x2204
 804de94:	0f 95 05 05 22 00 00 	setne  0x2205
 804de9b:	0f 96 05 06 22 00 00 	setbe  0x2206
 804dea2:	0f 97 05 07 22 00 00 	seta   0x2207
 804dea9:	0f 98 05 08 22 00 00 	sets   0x2208
 804deb0:	0f 99 05 09 22 00 00 	setns  0x2209
 804deb7:	0f 9a 05 0a 22 00 00 	setp   0x220a
 804debe:	0f 9b 05 0b 22 00 00 	setnp  0x220b
 804dec5:	0f 9c 05 0c 22 00 00 	setl   0x220c
 804decc:	0f 9d 05 0d 22 00 00 	setge  0x220d
 804ded3:	0f 9e 05 0e 22 00 00 	setle  0x220e
 804deda:	0f 9f 05 0f 22 00 00 	setg   0x220f
 804dee1:	66 9c                	pushfw 
 804dee3:	66 58                	pop    %ax
 804dee5:	66 a3 00 21 00 00    	mov    %ax,0x2100
 804deeb:	a1 50 20 00 00       	mov    0x2050,%eax
 804def0:	29 e0                	sub    %esp,%eax
 804def2:	a3 20 20 00 00       	mov    %eax,0x2020
 804def7:	b8 00 00 00 00       	mov    $0x0,%eax
 804defc:	c3                   	ret    

0804defd <cmov3_mv_constant_complex2>:
 804defd:	90                   	nop
 804defe:	66 68 ff fe          	pushw  $0xfeff
 804df02:	66 9d                	popfw  
 804df04:	b8 e8 c0 3e 31       	mov    $0x313ec0e8,%eax
 804df09:	bb c3 81 6e 49       	mov    $0x496e81c3,%ebx
 804df0e:	b9 b2 6c 3f 1e       	mov    $0x1e3f6cb2,%ecx
 804df13:	ba b3 25 69 4e       	mov    $0x4e6925b3,%edx
 804df18:	bd 10 26 31 4f       	mov    $0x4f312610,%ebp
 804df1d:	be a5 a4 37 2f       	mov    $0x2f37a4a5,%esi
 804df22:	bf b4 17 a9 91       	mov    $0x91a917b4,%edi
 804df27:	89 25 50 20 00 00    	mov    %esp,0x2050
 804df2d:	66 0f 47 43 0c       	cmova  0xc(%ebx),%ax
 804df32:	a3 00 20 00 00       	mov    %eax,0x2000
 804df37:	89 1d 04 20 00 00    	mov    %ebx,0x2004
 804df3d:	89 0d 08 20 00 00    	mov    %ecx,0x2008
 804df43:	89 15 0c 20 00 00    	mov    %edx,0x200c
 804df49:	89 2d 10 20 00 00    	mov    %ebp,0x2010
 804df4f:	89 35 14 20 00 00    	mov    %esi,0x2014
 804df55:	89 3d 18 20 00 00    	mov    %edi,0x2018
 804df5b:	0f 90 05 00 22 00 00 	seto   0x2200
 804df62:	0f 91 05 01 22 00 00 	setno  0x2201
 804df69:	0f 92 05 02 22 00 00 	setb   0x2202
 804df70:	0f 93 05 03 22 00 00 	setae  0x2203
 804df77:	0f 94 05 04 22 00 00 	sete   0x2204
 804df7e:	0f 95 05 05 22 00 00 	setne  0x2205
 804df85:	0f 96 05 06 22 00 00 	setbe  0x2206
 804df8c:	0f 97 05 07 22 00 00 	seta   0x2207
 804df93:	0f 98 05 08 22 00 00 	sets   0x2208
 804df9a:	0f 99 05 09 22 00 00 	setns  0x2209
 804dfa1:	0f 9a 05 0a 22 00 00 	setp   0x220a
 804dfa8:	0f 9b 05 0b 22 00 00 	setnp  0x220b
 804dfaf:	0f 9c 05 0c 22 00 00 	setl   0x220c
 804dfb6:	0f 9d 05 0d 22 00 00 	setge  0x220d
 804dfbd:	0f 9e 05 0e 22 00 00 	setle  0x220e
 804dfc4:	0f 9f 05 0f 22 00 00 	setg   0x220f
 804dfcb:	66 9c                	pushfw 
 804dfcd:	66 58                	pop    %ax
 804dfcf:	66 a3 00 21 00 00    	mov    %ax,0x2100
 804dfd5:	a1 50 20 00 00       	mov    0x2050,%eax
 804dfda:	29 e0                	sub    %esp,%eax
 804dfdc:	a3 20 20 00 00       	mov    %eax,0x2020
 804dfe1:	b8 00 00 00 00       	mov    $0x0,%eax
 804dfe6:	c3                   	ret    

0804dfe7 <cmov4_mv_plain>:
 804dfe7:	0f 47 43 22          	cmova  0x22(%ebx),%eax
 804dfeb:	b8 00 00 00 00       	mov    $0x0,%eax
 804dff0:	c3                   	ret    

0804dff1 <cmov4_mv_allregs>:
 804dff1:	90                   	nop
 804dff2:	66 a1 00 11 00 00    	mov    0x1100,%ax
 804dff8:	66 50                	push   %ax
 804dffa:	66 9d                	popfw  
 804dffc:	a1 00 10 00 00       	mov    0x1000,%eax
 804e001:	8b 1d 04 10 00 00    	mov    0x1004,%ebx
 804e007:	8b 0d 08 10 00 00    	mov    0x1008,%ecx
 804e00d:	8b 15 0c 10 00 00    	mov    0x100c,%edx
 804e013:	8b 2d 10 10 00 00    	mov    0x1010,%ebp
 804e019:	8b 35 14 10 00 00    	mov    0x1014,%esi
 804e01f:	8b 3d 18 10 00 00    	mov    0x1018,%edi
 804e025:	89 25 50 20 00 00    	mov    %esp,0x2050
 804e02b:	0f 47 43 22          	cmova  0x22(%ebx),%eax
 804e02f:	a3 00 20 00 00       	mov    %eax,0x2000
 804e034:	89 1d 04 20 00 00    	mov    %ebx,0x2004
 804e03a:	89 0d 08 20 00 00    	mov    %ecx,0x2008
 804e040:	89 15 0c 20 00 00    	mov    %edx,0x200c
 804e046:	89 2d 10 20 00 00    	mov    %ebp,0x2010
 804e04c:	89 35 14 20 00 00    	mov    %esi,0x2014
 804e052:	89 3d 18 20 00 00    	mov    %edi,0x2018
 804e058:	0f 90 05 00 22 00 00 	seto   0x2200
 804e05f:	0f 91 05 01 22 00 00 	setno  0x2201
 804e066:	0f 92 05 02 22 00 00 	setb   0x2202
 804e06d:	0f 93 05 03 22 00 00 	setae  0x2203
 804e074:	0f 94 05 04 22 00 00 	sete   0x2204
 804e07b:	0f 95 05 05 22 00 00 	setne  0x2205
 804e082:	0f 96 05 06 22 00 00 	setbe  0x2206
 804e089:	0f 97 05 07 22 00 00 	seta   0x2207
 804e090:	0f 98 05 08 22 00 00 	sets   0x2208
 804e097:	0f 99 05 09 22 00 00 	setns  0x2209
 804e09e:	0f 9a 05 0a 22 00 00 	setp   0x220a
 804e0a5:	0f 9b 05 0b 22 00 00 	setnp  0x220b
 804e0ac:	0f 9c 05 0c 22 00 00 	setl   0x220c
 804e0b3:	0f 9d 05 0d 22 00 00 	setge  0x220d
 804e0ba:	0f 9e 05 0e 22 00 00 	setle  0x220e
 804e0c1:	0f 9f 05 0f 22 00 00 	setg   0x220f
 804e0c8:	66 9c                	pushfw 
 804e0ca:	66 58                	pop    %ax
 804e0cc:	66 a3 00 21 00 00    	mov    %ax,0x2100
 804e0d2:	a1 50 20 00 00       	mov    0x2050,%eax
 804e0d7:	29 e0                	sub    %esp,%eax
 804e0d9:	a3 20 20 00 00       	mov    %eax,0x2020
 804e0de:	b8 00 00 00 00       	mov    $0x0,%eax
 804e0e3:	c3                   	ret    

0804e0e4 <cmov4_mv_constant_simple>:
 804e0e4:	90                   	nop
 804e0e5:	66 6a 00             	pushw  $0x0
 804e0e8:	66 9d                	popfw  
 804e0ea:	b8 02 00 00 00       	mov    $0x2,%eax
 804e0ef:	bb 03 00 00 00       	mov    $0x3,%ebx
 804e0f4:	b9 04 00 00 00       	mov    $0x4,%ecx
 804e0f9:	ba 05 00 00 00       	mov    $0x5,%edx
 804e0fe:	bd 06 00 00 00       	mov    $0x6,%ebp
 804e103:	be 07 00 00 00       	mov    $0x7,%esi
 804e108:	bf 08 00 00 00       	mov    $0x8,%edi
 804e10d:	89 25 50 20 00 00    	mov    %esp,0x2050
 804e113:	0f 47 43 22          	cmova  0x22(%ebx),%eax
 804e117:	a3 00 20 00 00       	mov    %eax,0x2000
 804e11c:	89 1d 04 20 00 00    	mov    %ebx,0x2004
 804e122:	89 0d 08 20 00 00    	mov    %ecx,0x2008
 804e128:	89 15 0c 20 00 00    	mov    %edx,0x200c
 804e12e:	89 2d 10 20 00 00    	mov    %ebp,0x2010
 804e134:	89 35 14 20 00 00    	mov    %esi,0x2014
 804e13a:	89 3d 18 20 00 00    	mov    %edi,0x2018
 804e140:	0f 90 05 00 22 00 00 	seto   0x2200
 804e147:	0f 91 05 01 22 00 00 	setno  0x2201
 804e14e:	0f 92 05 02 22 00 00 	setb   0x2202
 804e155:	0f 93 05 03 22 00 00 	setae  0x2203
 804e15c:	0f 94 05 04 22 00 00 	sete   0x2204
 804e163:	0f 95 05 05 22 00 00 	setne  0x2205
 804e16a:	0f 96 05 06 22 00 00 	setbe  0x2206
 804e171:	0f 97 05 07 22 00 00 	seta   0x2207
 804e178:	0f 98 05 08 22 00 00 	sets   0x2208
 804e17f:	0f 99 05 09 22 00 00 	setns  0x2209
 804e186:	0f 9a 05 0a 22 00 00 	setp   0x220a
 804e18d:	0f 9b 05 0b 22 00 00 	setnp  0x220b
 804e194:	0f 9c 05 0c 22 00 00 	setl   0x220c
 804e19b:	0f 9d 05 0d 22 00 00 	setge  0x220d
 804e1a2:	0f 9e 05 0e 22 00 00 	setle  0x220e
 804e1a9:	0f 9f 05 0f 22 00 00 	setg   0x220f
 804e1b0:	66 9c                	pushfw 
 804e1b2:	66 58                	pop    %ax
 804e1b4:	66 a3 00 21 00 00    	mov    %ax,0x2100
 804e1ba:	a1 50 20 00 00       	mov    0x2050,%eax
 804e1bf:	29 e0                	sub    %esp,%eax
 804e1c1:	a3 20 20 00 00       	mov    %eax,0x2020
 804e1c6:	b8 00 00 00 00       	mov    $0x0,%eax
 804e1cb:	c3                   	ret    

0804e1cc <cmov4_mv_constant_complex1>:
 804e1cc:	90                   	nop
 804e1cd:	66 6a 00             	pushw  $0x0
 804e1d0:	66 9d                	popfw  
 804e1d2:	b8 84 79 b1 a3       	mov    $0xa3b17984,%eax
 804e1d7:	bb d7 1a 67 06       	mov    $0x6671ad7,%ebx
 804e1dc:	b9 48 52 68 46       	mov    $0x46685248,%ecx
 804e1e1:	ba c4 56 24 39       	mov    $0x392456c4,%edx
 804e1e6:	bd a4 60 89 bc       	mov    $0xbc8960a4,%ebp
 804e1eb:	be 78 2d 3c ad       	mov    $0xad3c2d78,%esi
 804e1f0:	bf 52 e1 65 e4       	mov    $0xe465e152,%edi
 804e1f5:	89 25 50 20 00 00    	mov    %esp,0x2050
 804e1fb:	0f 47 43 22          	cmova  0x22(%ebx),%eax
 804e1ff:	a3 00 20 00 00       	mov    %eax,0x2000
 804e204:	89 1d 04 20 00 00    	mov    %ebx,0x2004
 804e20a:	89 0d 08 20 00 00    	mov    %ecx,0x2008
 804e210:	89 15 0c 20 00 00    	mov    %edx,0x200c
 804e216:	89 2d 10 20 00 00    	mov    %ebp,0x2010
 804e21c:	89 35 14 20 00 00    	mov    %esi,0x2014
 804e222:	89 3d 18 20 00 00    	mov    %edi,0x2018
 804e228:	0f 90 05 00 22 00 00 	seto   0x2200
 804e22f:	0f 91 05 01 22 00 00 	setno  0x2201
 804e236:	0f 92 05 02 22 00 00 	setb   0x2202
 804e23d:	0f 93 05 03 22 00 00 	setae  0x2203
 804e244:	0f 94 05 04 22 00 00 	sete   0x2204
 804e24b:	0f 95 05 05 22 00 00 	setne  0x2205
 804e252:	0f 96 05 06 22 00 00 	setbe  0x2206
 804e259:	0f 97 05 07 22 00 00 	seta   0x2207
 804e260:	0f 98 05 08 22 00 00 	sets   0x2208
 804e267:	0f 99 05 09 22 00 00 	setns  0x2209
 804e26e:	0f 9a 05 0a 22 00 00 	setp   0x220a
 804e275:	0f 9b 05 0b 22 00 00 	setnp  0x220b
 804e27c:	0f 9c 05 0c 22 00 00 	setl   0x220c
 804e283:	0f 9d 05 0d 22 00 00 	setge  0x220d
 804e28a:	0f 9e 05 0e 22 00 00 	setle  0x220e
 804e291:	0f 9f 05 0f 22 00 00 	setg   0x220f
 804e298:	66 9c                	pushfw 
 804e29a:	66 58                	pop    %ax
 804e29c:	66 a3 00 21 00 00    	mov    %ax,0x2100
 804e2a2:	a1 50 20 00 00       	mov    0x2050,%eax
 804e2a7:	29 e0                	sub    %esp,%eax
 804e2a9:	a3 20 20 00 00       	mov    %eax,0x2020
 804e2ae:	b8 00 00 00 00       	mov    $0x0,%eax
 804e2b3:	c3                   	ret    

0804e2b4 <cmov4_mv_constant_complex2>:
 804e2b4:	90                   	nop
 804e2b5:	66 68 ff fe          	pushw  $0xfeff
 804e2b9:	66 9d                	popfw  
 804e2bb:	b8 e8 c0 3e 31       	mov    $0x313ec0e8,%eax
 804e2c0:	bb c3 81 6e 49       	mov    $0x496e81c3,%ebx
 804e2c5:	b9 b2 6c 3f 1e       	mov    $0x1e3f6cb2,%ecx
 804e2ca:	ba b3 25 69 4e       	mov    $0x4e6925b3,%edx
 804e2cf:	bd 10 26 31 4f       	mov    $0x4f312610,%ebp
 804e2d4:	be a5 a4 37 2f       	mov    $0x2f37a4a5,%esi
 804e2d9:	bf b4 17 a9 91       	mov    $0x91a917b4,%edi
 804e2de:	89 25 50 20 00 00    	mov    %esp,0x2050
 804e2e4:	0f 47 43 22          	cmova  0x22(%ebx),%eax
 804e2e8:	a3 00 20 00 00       	mov    %eax,0x2000
 804e2ed:	89 1d 04 20 00 00    	mov    %ebx,0x2004
 804e2f3:	89 0d 08 20 00 00    	mov    %ecx,0x2008
 804e2f9:	89 15 0c 20 00 00    	mov    %edx,0x200c
 804e2ff:	89 2d 10 20 00 00    	mov    %ebp,0x2010
 804e305:	89 35 14 20 00 00    	mov    %esi,0x2014
 804e30b:	89 3d 18 20 00 00    	mov    %edi,0x2018
 804e311:	0f 90 05 00 22 00 00 	seto   0x2200
 804e318:	0f 91 05 01 22 00 00 	setno  0x2201
 804e31f:	0f 92 05 02 22 00 00 	setb   0x2202
 804e326:	0f 93 05 03 22 00 00 	setae  0x2203
 804e32d:	0f 94 05 04 22 00 00 	sete   0x2204
 804e334:	0f 95 05 05 22 00 00 	setne  0x2205
 804e33b:	0f 96 05 06 22 00 00 	setbe  0x2206
 804e342:	0f 97 05 07 22 00 00 	seta   0x2207
 804e349:	0f 98 05 08 22 00 00 	sets   0x2208
 804e350:	0f 99 05 09 22 00 00 	setns  0x2209
 804e357:	0f 9a 05 0a 22 00 00 	setp   0x220a
 804e35e:	0f 9b 05 0b 22 00 00 	setnp  0x220b
 804e365:	0f 9c 05 0c 22 00 00 	setl   0x220c
 804e36c:	0f 9d 05 0d 22 00 00 	setge  0x220d
 804e373:	0f 9e 05 0e 22 00 00 	setle  0x220e
 804e37a:	0f 9f 05 0f 22 00 00 	setg   0x220f
 804e381:	66 9c                	pushfw 
 804e383:	66 58                	pop    %ax
 804e385:	66 a3 00 21 00 00    	mov    %ax,0x2100
 804e38b:	a1 50 20 00 00       	mov    0x2050,%eax
 804e390:	29 e0                	sub    %esp,%eax
 804e392:	a3 20 20 00 00       	mov    %eax,0x2020
 804e397:	b8 00 00 00 00       	mov    $0x0,%eax
 804e39c:	c3                   	ret    

0804e39d <cmov_w_with_code_0_plain>:
 804e39d:	3c 02                	cmp    $0x2,%al
 804e39f:	66 0f 40 d8          	cmovo  %ax,%bx
 804e3a3:	b8 00 00 00 00       	mov    $0x0,%eax
 804e3a8:	c3                   	ret    

0804e3a9 <cmov_w_with_code_0_allregs>:
 804e3a9:	90                   	nop
 804e3aa:	66 a1 00 11 00 00    	mov    0x1100,%ax
 804e3b0:	66 50                	push   %ax
 804e3b2:	66 9d                	popfw  
 804e3b4:	a1 00 10 00 00       	mov    0x1000,%eax
 804e3b9:	8b 1d 04 10 00 00    	mov    0x1004,%ebx
 804e3bf:	8b 0d 08 10 00 00    	mov    0x1008,%ecx
 804e3c5:	8b 15 0c 10 00 00    	mov    0x100c,%edx
 804e3cb:	8b 2d 10 10 00 00    	mov    0x1010,%ebp
 804e3d1:	8b 35 14 10 00 00    	mov    0x1014,%esi
 804e3d7:	8b 3d 18 10 00 00    	mov    0x1018,%edi
 804e3dd:	89 25 50 20 00 00    	mov    %esp,0x2050
 804e3e3:	3c 02                	cmp    $0x2,%al
 804e3e5:	66 0f 40 d8          	cmovo  %ax,%bx
 804e3e9:	a3 00 20 00 00       	mov    %eax,0x2000
 804e3ee:	89 1d 04 20 00 00    	mov    %ebx,0x2004
 804e3f4:	89 0d 08 20 00 00    	mov    %ecx,0x2008
 804e3fa:	89 15 0c 20 00 00    	mov    %edx,0x200c
 804e400:	89 2d 10 20 00 00    	mov    %ebp,0x2010
 804e406:	89 35 14 20 00 00    	mov    %esi,0x2014
 804e40c:	89 3d 18 20 00 00    	mov    %edi,0x2018
 804e412:	0f 90 05 00 22 00 00 	seto   0x2200
 804e419:	0f 91 05 01 22 00 00 	setno  0x2201
 804e420:	0f 92 05 02 22 00 00 	setb   0x2202
 804e427:	0f 93 05 03 22 00 00 	setae  0x2203
 804e42e:	0f 94 05 04 22 00 00 	sete   0x2204
 804e435:	0f 95 05 05 22 00 00 	setne  0x2205
 804e43c:	0f 96 05 06 22 00 00 	setbe  0x2206
 804e443:	0f 97 05 07 22 00 00 	seta   0x2207
 804e44a:	0f 98 05 08 22 00 00 	sets   0x2208
 804e451:	0f 99 05 09 22 00 00 	setns  0x2209
 804e458:	0f 9a 05 0a 22 00 00 	setp   0x220a
 804e45f:	0f 9b 05 0b 22 00 00 	setnp  0x220b
 804e466:	0f 9c 05 0c 22 00 00 	setl   0x220c
 804e46d:	0f 9d 05 0d 22 00 00 	setge  0x220d
 804e474:	0f 9e 05 0e 22 00 00 	setle  0x220e
 804e47b:	0f 9f 05 0f 22 00 00 	setg   0x220f
 804e482:	66 9c                	pushfw 
 804e484:	66 58                	pop    %ax
 804e486:	66 a3 00 21 00 00    	mov    %ax,0x2100
 804e48c:	a1 50 20 00 00       	mov    0x2050,%eax
 804e491:	29 e0                	sub    %esp,%eax
 804e493:	a3 20 20 00 00       	mov    %eax,0x2020
 804e498:	b8 00 00 00 00       	mov    $0x0,%eax
 804e49d:	c3                   	ret    

0804e49e <cmov_w_with_code_0_constant_simple>:
 804e49e:	90                   	nop
 804e49f:	66 6a 00             	pushw  $0x0
 804e4a2:	66 9d                	popfw  
 804e4a4:	b8 02 00 00 00       	mov    $0x2,%eax
 804e4a9:	bb 03 00 00 00       	mov    $0x3,%ebx
 804e4ae:	b9 04 00 00 00       	mov    $0x4,%ecx
 804e4b3:	ba 05 00 00 00       	mov    $0x5,%edx
 804e4b8:	bd 06 00 00 00       	mov    $0x6,%ebp
 804e4bd:	be 07 00 00 00       	mov    $0x7,%esi
 804e4c2:	bf 08 00 00 00       	mov    $0x8,%edi
 804e4c7:	89 25 50 20 00 00    	mov    %esp,0x2050
 804e4cd:	3c 02                	cmp    $0x2,%al
 804e4cf:	66 0f 40 d8          	cmovo  %ax,%bx
 804e4d3:	a3 00 20 00 00       	mov    %eax,0x2000
 804e4d8:	89 1d 04 20 00 00    	mov    %ebx,0x2004
 804e4de:	89 0d 08 20 00 00    	mov    %ecx,0x2008
 804e4e4:	89 15 0c 20 00 00    	mov    %edx,0x200c
 804e4ea:	89 2d 10 20 00 00    	mov    %ebp,0x2010
 804e4f0:	89 35 14 20 00 00    	mov    %esi,0x2014
 804e4f6:	89 3d 18 20 00 00    	mov    %edi,0x2018
 804e4fc:	0f 90 05 00 22 00 00 	seto   0x2200
 804e503:	0f 91 05 01 22 00 00 	setno  0x2201
 804e50a:	0f 92 05 02 22 00 00 	setb   0x2202
 804e511:	0f 93 05 03 22 00 00 	setae  0x2203
 804e518:	0f 94 05 04 22 00 00 	sete   0x2204
 804e51f:	0f 95 05 05 22 00 00 	setne  0x2205
 804e526:	0f 96 05 06 22 00 00 	setbe  0x2206
 804e52d:	0f 97 05 07 22 00 00 	seta   0x2207
 804e534:	0f 98 05 08 22 00 00 	sets   0x2208
 804e53b:	0f 99 05 09 22 00 00 	setns  0x2209
 804e542:	0f 9a 05 0a 22 00 00 	setp   0x220a
 804e549:	0f 9b 05 0b 22 00 00 	setnp  0x220b
 804e550:	0f 9c 05 0c 22 00 00 	setl   0x220c
 804e557:	0f 9d 05 0d 22 00 00 	setge  0x220d
 804e55e:	0f 9e 05 0e 22 00 00 	setle  0x220e
 804e565:	0f 9f 05 0f 22 00 00 	setg   0x220f
 804e56c:	66 9c                	pushfw 
 804e56e:	66 58                	pop    %ax
 804e570:	66 a3 00 21 00 00    	mov    %ax,0x2100
 804e576:	a1 50 20 00 00       	mov    0x2050,%eax
 804e57b:	29 e0                	sub    %esp,%eax
 804e57d:	a3 20 20 00 00       	mov    %eax,0x2020
 804e582:	b8 00 00 00 00       	mov    $0x0,%eax
 804e587:	c3                   	ret    

0804e588 <cmov_w_with_code_0_constant_complex1>:
 804e588:	90                   	nop
 804e589:	66 6a 00             	pushw  $0x0
 804e58c:	66 9d                	popfw  
 804e58e:	b8 84 79 b1 a3       	mov    $0xa3b17984,%eax
 804e593:	bb d7 1a 67 06       	mov    $0x6671ad7,%ebx
 804e598:	b9 48 52 68 46       	mov    $0x46685248,%ecx
 804e59d:	ba c4 56 24 39       	mov    $0x392456c4,%edx
 804e5a2:	bd a4 60 89 bc       	mov    $0xbc8960a4,%ebp
 804e5a7:	be 78 2d 3c ad       	mov    $0xad3c2d78,%esi
 804e5ac:	bf 52 e1 65 e4       	mov    $0xe465e152,%edi
 804e5b1:	89 25 50 20 00 00    	mov    %esp,0x2050
 804e5b7:	3c 02                	cmp    $0x2,%al
 804e5b9:	66 0f 40 d8          	cmovo  %ax,%bx
 804e5bd:	a3 00 20 00 00       	mov    %eax,0x2000
 804e5c2:	89 1d 04 20 00 00    	mov    %ebx,0x2004
 804e5c8:	89 0d 08 20 00 00    	mov    %ecx,0x2008
 804e5ce:	89 15 0c 20 00 00    	mov    %edx,0x200c
 804e5d4:	89 2d 10 20 00 00    	mov    %ebp,0x2010
 804e5da:	89 35 14 20 00 00    	mov    %esi,0x2014
 804e5e0:	89 3d 18 20 00 00    	mov    %edi,0x2018
 804e5e6:	0f 90 05 00 22 00 00 	seto   0x2200
 804e5ed:	0f 91 05 01 22 00 00 	setno  0x2201
 804e5f4:	0f 92 05 02 22 00 00 	setb   0x2202
 804e5fb:	0f 93 05 03 22 00 00 	setae  0x2203
 804e602:	0f 94 05 04 22 00 00 	sete   0x2204
 804e609:	0f 95 05 05 22 00 00 	setne  0x2205
 804e610:	0f 96 05 06 22 00 00 	setbe  0x2206
 804e617:	0f 97 05 07 22 00 00 	seta   0x2207
 804e61e:	0f 98 05 08 22 00 00 	sets   0x2208
 804e625:	0f 99 05 09 22 00 00 	setns  0x2209
 804e62c:	0f 9a 05 0a 22 00 00 	setp   0x220a
 804e633:	0f 9b 05 0b 22 00 00 	setnp  0x220b
 804e63a:	0f 9c 05 0c 22 00 00 	setl   0x220c
 804e641:	0f 9d 05 0d 22 00 00 	setge  0x220d
 804e648:	0f 9e 05 0e 22 00 00 	setle  0x220e
 804e64f:	0f 9f 05 0f 22 00 00 	setg   0x220f
 804e656:	66 9c                	pushfw 
 804e658:	66 58                	pop    %ax
 804e65a:	66 a3 00 21 00 00    	mov    %ax,0x2100
 804e660:	a1 50 20 00 00       	mov    0x2050,%eax
 804e665:	29 e0                	sub    %esp,%eax
 804e667:	a3 20 20 00 00       	mov    %eax,0x2020
 804e66c:	b8 00 00 00 00       	mov    $0x0,%eax
 804e671:	c3                   	ret    

0804e672 <cmov_w_with_code_0_constant_complex2>:
 804e672:	90                   	nop
 804e673:	66 68 ff fe          	pushw  $0xfeff
 804e677:	66 9d                	popfw  
 804e679:	b8 e8 c0 3e 31       	mov    $0x313ec0e8,%eax
 804e67e:	bb c3 81 6e 49       	mov    $0x496e81c3,%ebx
 804e683:	b9 b2 6c 3f 1e       	mov    $0x1e3f6cb2,%ecx
 804e688:	ba b3 25 69 4e       	mov    $0x4e6925b3,%edx
 804e68d:	bd 10 26 31 4f       	mov    $0x4f312610,%ebp
 804e692:	be a5 a4 37 2f       	mov    $0x2f37a4a5,%esi
 804e697:	bf b4 17 a9 91       	mov    $0x91a917b4,%edi
 804e69c:	89 25 50 20 00 00    	mov    %esp,0x2050
 804e6a2:	3c 02                	cmp    $0x2,%al
 804e6a4:	66 0f 40 d8          	cmovo  %ax,%bx
 804e6a8:	a3 00 20 00 00       	mov    %eax,0x2000
 804e6ad:	89 1d 04 20 00 00    	mov    %ebx,0x2004
 804e6b3:	89 0d 08 20 00 00    	mov    %ecx,0x2008
 804e6b9:	89 15 0c 20 00 00    	mov    %edx,0x200c
 804e6bf:	89 2d 10 20 00 00    	mov    %ebp,0x2010
 804e6c5:	89 35 14 20 00 00    	mov    %esi,0x2014
 804e6cb:	89 3d 18 20 00 00    	mov    %edi,0x2018
 804e6d1:	0f 90 05 00 22 00 00 	seto   0x2200
 804e6d8:	0f 91 05 01 22 00 00 	setno  0x2201
 804e6df:	0f 92 05 02 22 00 00 	setb   0x2202
 804e6e6:	0f 93 05 03 22 00 00 	setae  0x2203
 804e6ed:	0f 94 05 04 22 00 00 	sete   0x2204
 804e6f4:	0f 95 05 05 22 00 00 	setne  0x2205
 804e6fb:	0f 96 05 06 22 00 00 	setbe  0x2206
 804e702:	0f 97 05 07 22 00 00 	seta   0x2207
 804e709:	0f 98 05 08 22 00 00 	sets   0x2208
 804e710:	0f 99 05 09 22 00 00 	setns  0x2209
 804e717:	0f 9a 05 0a 22 00 00 	setp   0x220a
 804e71e:	0f 9b 05 0b 22 00 00 	setnp  0x220b
 804e725:	0f 9c 05 0c 22 00 00 	setl   0x220c
 804e72c:	0f 9d 05 0d 22 00 00 	setge  0x220d
 804e733:	0f 9e 05 0e 22 00 00 	setle  0x220e
 804e73a:	0f 9f 05 0f 22 00 00 	setg   0x220f
 804e741:	66 9c                	pushfw 
 804e743:	66 58                	pop    %ax
 804e745:	66 a3 00 21 00 00    	mov    %ax,0x2100
 804e74b:	a1 50 20 00 00       	mov    0x2050,%eax
 804e750:	29 e0                	sub    %esp,%eax
 804e752:	a3 20 20 00 00       	mov    %eax,0x2020
 804e757:	b8 00 00 00 00       	mov    $0x0,%eax
 804e75c:	c3                   	ret    

0804e75d <cmov_w_with_code_1_mv_plain>:
 804e75d:	3c 02                	cmp    $0x2,%al
 804e75f:	66 0f 41 d8          	cmovno %ax,%bx
 804e763:	b8 00 00 00 00       	mov    $0x0,%eax
 804e768:	c3                   	ret    

0804e769 <cmov_w_with_code_1_mv_allregs>:
 804e769:	90                   	nop
 804e76a:	66 a1 00 11 00 00    	mov    0x1100,%ax
 804e770:	66 50                	push   %ax
 804e772:	66 9d                	popfw  
 804e774:	a1 00 10 00 00       	mov    0x1000,%eax
 804e779:	8b 1d 04 10 00 00    	mov    0x1004,%ebx
 804e77f:	8b 0d 08 10 00 00    	mov    0x1008,%ecx
 804e785:	8b 15 0c 10 00 00    	mov    0x100c,%edx
 804e78b:	8b 2d 10 10 00 00    	mov    0x1010,%ebp
 804e791:	8b 35 14 10 00 00    	mov    0x1014,%esi
 804e797:	8b 3d 18 10 00 00    	mov    0x1018,%edi
 804e79d:	89 25 50 20 00 00    	mov    %esp,0x2050
 804e7a3:	3c 02                	cmp    $0x2,%al
 804e7a5:	66 0f 41 d8          	cmovno %ax,%bx
 804e7a9:	a3 00 20 00 00       	mov    %eax,0x2000
 804e7ae:	89 1d 04 20 00 00    	mov    %ebx,0x2004
 804e7b4:	89 0d 08 20 00 00    	mov    %ecx,0x2008
 804e7ba:	89 15 0c 20 00 00    	mov    %edx,0x200c
 804e7c0:	89 2d 10 20 00 00    	mov    %ebp,0x2010
 804e7c6:	89 35 14 20 00 00    	mov    %esi,0x2014
 804e7cc:	89 3d 18 20 00 00    	mov    %edi,0x2018
 804e7d2:	0f 90 05 00 22 00 00 	seto   0x2200
 804e7d9:	0f 91 05 01 22 00 00 	setno  0x2201
 804e7e0:	0f 92 05 02 22 00 00 	setb   0x2202
 804e7e7:	0f 93 05 03 22 00 00 	setae  0x2203
 804e7ee:	0f 94 05 04 22 00 00 	sete   0x2204
 804e7f5:	0f 95 05 05 22 00 00 	setne  0x2205
 804e7fc:	0f 96 05 06 22 00 00 	setbe  0x2206
 804e803:	0f 97 05 07 22 00 00 	seta   0x2207
 804e80a:	0f 98 05 08 22 00 00 	sets   0x2208
 804e811:	0f 99 05 09 22 00 00 	setns  0x2209
 804e818:	0f 9a 05 0a 22 00 00 	setp   0x220a
 804e81f:	0f 9b 05 0b 22 00 00 	setnp  0x220b
 804e826:	0f 9c 05 0c 22 00 00 	setl   0x220c
 804e82d:	0f 9d 05 0d 22 00 00 	setge  0x220d
 804e834:	0f 9e 05 0e 22 00 00 	setle  0x220e
 804e83b:	0f 9f 05 0f 22 00 00 	setg   0x220f
 804e842:	66 9c                	pushfw 
 804e844:	66 58                	pop    %ax
 804e846:	66 a3 00 21 00 00    	mov    %ax,0x2100
 804e84c:	a1 50 20 00 00       	mov    0x2050,%eax
 804e851:	29 e0                	sub    %esp,%eax
 804e853:	a3 20 20 00 00       	mov    %eax,0x2020
 804e858:	b8 00 00 00 00       	mov    $0x0,%eax
 804e85d:	c3                   	ret    

0804e85e <cmov_w_with_code_1_mv_constant_simple>:
 804e85e:	90                   	nop
 804e85f:	66 6a 00             	pushw  $0x0
 804e862:	66 9d                	popfw  
 804e864:	b8 02 00 00 00       	mov    $0x2,%eax
 804e869:	bb 03 00 00 00       	mov    $0x3,%ebx
 804e86e:	b9 04 00 00 00       	mov    $0x4,%ecx
 804e873:	ba 05 00 00 00       	mov    $0x5,%edx
 804e878:	bd 06 00 00 00       	mov    $0x6,%ebp
 804e87d:	be 07 00 00 00       	mov    $0x7,%esi
 804e882:	bf 08 00 00 00       	mov    $0x8,%edi
 804e887:	89 25 50 20 00 00    	mov    %esp,0x2050
 804e88d:	3c 02                	cmp    $0x2,%al
 804e88f:	66 0f 41 d8          	cmovno %ax,%bx
 804e893:	a3 00 20 00 00       	mov    %eax,0x2000
 804e898:	89 1d 04 20 00 00    	mov    %ebx,0x2004
 804e89e:	89 0d 08 20 00 00    	mov    %ecx,0x2008
 804e8a4:	89 15 0c 20 00 00    	mov    %edx,0x200c
 804e8aa:	89 2d 10 20 00 00    	mov    %ebp,0x2010
 804e8b0:	89 35 14 20 00 00    	mov    %esi,0x2014
 804e8b6:	89 3d 18 20 00 00    	mov    %edi,0x2018
 804e8bc:	0f 90 05 00 22 00 00 	seto   0x2200
 804e8c3:	0f 91 05 01 22 00 00 	setno  0x2201
 804e8ca:	0f 92 05 02 22 00 00 	setb   0x2202
 804e8d1:	0f 93 05 03 22 00 00 	setae  0x2203
 804e8d8:	0f 94 05 04 22 00 00 	sete   0x2204
 804e8df:	0f 95 05 05 22 00 00 	setne  0x2205
 804e8e6:	0f 96 05 06 22 00 00 	setbe  0x2206
 804e8ed:	0f 97 05 07 22 00 00 	seta   0x2207
 804e8f4:	0f 98 05 08 22 00 00 	sets   0x2208
 804e8fb:	0f 99 05 09 22 00 00 	setns  0x2209
 804e902:	0f 9a 05 0a 22 00 00 	setp   0x220a
 804e909:	0f 9b 05 0b 22 00 00 	setnp  0x220b
 804e910:	0f 9c 05 0c 22 00 00 	setl   0x220c
 804e917:	0f 9d 05 0d 22 00 00 	setge  0x220d
 804e91e:	0f 9e 05 0e 22 00 00 	setle  0x220e
 804e925:	0f 9f 05 0f 22 00 00 	setg   0x220f
 804e92c:	66 9c                	pushfw 
 804e92e:	66 58                	pop    %ax
 804e930:	66 a3 00 21 00 00    	mov    %ax,0x2100
 804e936:	a1 50 20 00 00       	mov    0x2050,%eax
 804e93b:	29 e0                	sub    %esp,%eax
 804e93d:	a3 20 20 00 00       	mov    %eax,0x2020
 804e942:	b8 00 00 00 00       	mov    $0x0,%eax
 804e947:	c3                   	ret    

0804e948 <cmov_w_with_code_1_mv_constant_complex1>:
 804e948:	90                   	nop
 804e949:	66 6a 00             	pushw  $0x0
 804e94c:	66 9d                	popfw  
 804e94e:	b8 84 79 b1 a3       	mov    $0xa3b17984,%eax
 804e953:	bb d7 1a 67 06       	mov    $0x6671ad7,%ebx
 804e958:	b9 48 52 68 46       	mov    $0x46685248,%ecx
 804e95d:	ba c4 56 24 39       	mov    $0x392456c4,%edx
 804e962:	bd a4 60 89 bc       	mov    $0xbc8960a4,%ebp
 804e967:	be 78 2d 3c ad       	mov    $0xad3c2d78,%esi
 804e96c:	bf 52 e1 65 e4       	mov    $0xe465e152,%edi
 804e971:	89 25 50 20 00 00    	mov    %esp,0x2050
 804e977:	3c 02                	cmp    $0x2,%al
 804e979:	66 0f 41 d8          	cmovno %ax,%bx
 804e97d:	a3 00 20 00 00       	mov    %eax,0x2000
 804e982:	89 1d 04 20 00 00    	mov    %ebx,0x2004
 804e988:	89 0d 08 20 00 00    	mov    %ecx,0x2008
 804e98e:	89 15 0c 20 00 00    	mov    %edx,0x200c
 804e994:	89 2d 10 20 00 00    	mov    %ebp,0x2010
 804e99a:	89 35 14 20 00 00    	mov    %esi,0x2014
 804e9a0:	89 3d 18 20 00 00    	mov    %edi,0x2018
 804e9a6:	0f 90 05 00 22 00 00 	seto   0x2200
 804e9ad:	0f 91 05 01 22 00 00 	setno  0x2201
 804e9b4:	0f 92 05 02 22 00 00 	setb   0x2202
 804e9bb:	0f 93 05 03 22 00 00 	setae  0x2203
 804e9c2:	0f 94 05 04 22 00 00 	sete   0x2204
 804e9c9:	0f 95 05 05 22 00 00 	setne  0x2205
 804e9d0:	0f 96 05 06 22 00 00 	setbe  0x2206
 804e9d7:	0f 97 05 07 22 00 00 	seta   0x2207
 804e9de:	0f 98 05 08 22 00 00 	sets   0x2208
 804e9e5:	0f 99 05 09 22 00 00 	setns  0x2209
 804e9ec:	0f 9a 05 0a 22 00 00 	setp   0x220a
 804e9f3:	0f 9b 05 0b 22 00 00 	setnp  0x220b
 804e9fa:	0f 9c 05 0c 22 00 00 	setl   0x220c
 804ea01:	0f 9d 05 0d 22 00 00 	setge  0x220d
 804ea08:	0f 9e 05 0e 22 00 00 	setle  0x220e
 804ea0f:	0f 9f 05 0f 22 00 00 	setg   0x220f
 804ea16:	66 9c                	pushfw 
 804ea18:	66 58                	pop    %ax
 804ea1a:	66 a3 00 21 00 00    	mov    %ax,0x2100
 804ea20:	a1 50 20 00 00       	mov    0x2050,%eax
 804ea25:	29 e0                	sub    %esp,%eax
 804ea27:	a3 20 20 00 00       	mov    %eax,0x2020
 804ea2c:	b8 00 00 00 00       	mov    $0x0,%eax
 804ea31:	c3                   	ret    

0804ea32 <cmov_w_with_code_1_mv_constant_complex2>:
 804ea32:	90                   	nop
 804ea33:	66 68 ff fe          	pushw  $0xfeff
 804ea37:	66 9d                	popfw  
 804ea39:	b8 e8 c0 3e 31       	mov    $0x313ec0e8,%eax
 804ea3e:	bb c3 81 6e 49       	mov    $0x496e81c3,%ebx
 804ea43:	b9 b2 6c 3f 1e       	mov    $0x1e3f6cb2,%ecx
 804ea48:	ba b3 25 69 4e       	mov    $0x4e6925b3,%edx
 804ea4d:	bd 10 26 31 4f       	mov    $0x4f312610,%ebp
 804ea52:	be a5 a4 37 2f       	mov    $0x2f37a4a5,%esi
 804ea57:	bf b4 17 a9 91       	mov    $0x91a917b4,%edi
 804ea5c:	89 25 50 20 00 00    	mov    %esp,0x2050
 804ea62:	3c 02                	cmp    $0x2,%al
 804ea64:	66 0f 41 d8          	cmovno %ax,%bx
 804ea68:	a3 00 20 00 00       	mov    %eax,0x2000
 804ea6d:	89 1d 04 20 00 00    	mov    %ebx,0x2004
 804ea73:	89 0d 08 20 00 00    	mov    %ecx,0x2008
 804ea79:	89 15 0c 20 00 00    	mov    %edx,0x200c
 804ea7f:	89 2d 10 20 00 00    	mov    %ebp,0x2010
 804ea85:	89 35 14 20 00 00    	mov    %esi,0x2014
 804ea8b:	89 3d 18 20 00 00    	mov    %edi,0x2018
 804ea91:	0f 90 05 00 22 00 00 	seto   0x2200
 804ea98:	0f 91 05 01 22 00 00 	setno  0x2201
 804ea9f:	0f 92 05 02 22 00 00 	setb   0x2202
 804eaa6:	0f 93 05 03 22 00 00 	setae  0x2203
 804eaad:	0f 94 05 04 22 00 00 	sete   0x2204
 804eab4:	0f 95 05 05 22 00 00 	setne  0x2205
 804eabb:	0f 96 05 06 22 00 00 	setbe  0x2206
 804eac2:	0f 97 05 07 22 00 00 	seta   0x2207
 804eac9:	0f 98 05 08 22 00 00 	sets   0x2208
 804ead0:	0f 99 05 09 22 00 00 	setns  0x2209
 804ead7:	0f 9a 05 0a 22 00 00 	setp   0x220a
 804eade:	0f 9b 05 0b 22 00 00 	setnp  0x220b
 804eae5:	0f 9c 05 0c 22 00 00 	setl   0x220c
 804eaec:	0f 9d 05 0d 22 00 00 	setge  0x220d
 804eaf3:	0f 9e 05 0e 22 00 00 	setle  0x220e
 804eafa:	0f 9f 05 0f 22 00 00 	setg   0x220f
 804eb01:	66 9c                	pushfw 
 804eb03:	66 58                	pop    %ax
 804eb05:	66 a3 00 21 00 00    	mov    %ax,0x2100
 804eb0b:	a1 50 20 00 00       	mov    0x2050,%eax
 804eb10:	29 e0                	sub    %esp,%eax
 804eb12:	a3 20 20 00 00       	mov    %eax,0x2020
 804eb17:	b8 00 00 00 00       	mov    $0x0,%eax
 804eb1c:	c3                   	ret    

0804eb1d <cmov_w_with_code_2_mv_plain>:
 804eb1d:	3c 02                	cmp    $0x2,%al
 804eb1f:	66 0f 42 d8          	cmovb  %ax,%bx
 804eb23:	b8 00 00 00 00       	mov    $0x0,%eax
 804eb28:	c3                   	ret    

0804eb29 <cmov_w_with_code_2_mv_allregs>:
 804eb29:	90                   	nop
 804eb2a:	66 a1 00 11 00 00    	mov    0x1100,%ax
 804eb30:	66 50                	push   %ax
 804eb32:	66 9d                	popfw  
 804eb34:	a1 00 10 00 00       	mov    0x1000,%eax
 804eb39:	8b 1d 04 10 00 00    	mov    0x1004,%ebx
 804eb3f:	8b 0d 08 10 00 00    	mov    0x1008,%ecx
 804eb45:	8b 15 0c 10 00 00    	mov    0x100c,%edx
 804eb4b:	8b 2d 10 10 00 00    	mov    0x1010,%ebp
 804eb51:	8b 35 14 10 00 00    	mov    0x1014,%esi
 804eb57:	8b 3d 18 10 00 00    	mov    0x1018,%edi
 804eb5d:	89 25 50 20 00 00    	mov    %esp,0x2050
 804eb63:	3c 02                	cmp    $0x2,%al
 804eb65:	66 0f 42 d8          	cmovb  %ax,%bx
 804eb69:	a3 00 20 00 00       	mov    %eax,0x2000
 804eb6e:	89 1d 04 20 00 00    	mov    %ebx,0x2004
 804eb74:	89 0d 08 20 00 00    	mov    %ecx,0x2008
 804eb7a:	89 15 0c 20 00 00    	mov    %edx,0x200c
 804eb80:	89 2d 10 20 00 00    	mov    %ebp,0x2010
 804eb86:	89 35 14 20 00 00    	mov    %esi,0x2014
 804eb8c:	89 3d 18 20 00 00    	mov    %edi,0x2018
 804eb92:	0f 90 05 00 22 00 00 	seto   0x2200
 804eb99:	0f 91 05 01 22 00 00 	setno  0x2201
 804eba0:	0f 92 05 02 22 00 00 	setb   0x2202
 804eba7:	0f 93 05 03 22 00 00 	setae  0x2203
 804ebae:	0f 94 05 04 22 00 00 	sete   0x2204
 804ebb5:	0f 95 05 05 22 00 00 	setne  0x2205
 804ebbc:	0f 96 05 06 22 00 00 	setbe  0x2206
 804ebc3:	0f 97 05 07 22 00 00 	seta   0x2207
 804ebca:	0f 98 05 08 22 00 00 	sets   0x2208
 804ebd1:	0f 99 05 09 22 00 00 	setns  0x2209
 804ebd8:	0f 9a 05 0a 22 00 00 	setp   0x220a
 804ebdf:	0f 9b 05 0b 22 00 00 	setnp  0x220b
 804ebe6:	0f 9c 05 0c 22 00 00 	setl   0x220c
 804ebed:	0f 9d 05 0d 22 00 00 	setge  0x220d
 804ebf4:	0f 9e 05 0e 22 00 00 	setle  0x220e
 804ebfb:	0f 9f 05 0f 22 00 00 	setg   0x220f
 804ec02:	66 9c                	pushfw 
 804ec04:	66 58                	pop    %ax
 804ec06:	66 a3 00 21 00 00    	mov    %ax,0x2100
 804ec0c:	a1 50 20 00 00       	mov    0x2050,%eax
 804ec11:	29 e0                	sub    %esp,%eax
 804ec13:	a3 20 20 00 00       	mov    %eax,0x2020
 804ec18:	b8 00 00 00 00       	mov    $0x0,%eax
 804ec1d:	c3                   	ret    

0804ec1e <cmov_w_with_code_2_mv_constant_simple>:
 804ec1e:	90                   	nop
 804ec1f:	66 6a 00             	pushw  $0x0
 804ec22:	66 9d                	popfw  
 804ec24:	b8 02 00 00 00       	mov    $0x2,%eax
 804ec29:	bb 03 00 00 00       	mov    $0x3,%ebx
 804ec2e:	b9 04 00 00 00       	mov    $0x4,%ecx
 804ec33:	ba 05 00 00 00       	mov    $0x5,%edx
 804ec38:	bd 06 00 00 00       	mov    $0x6,%ebp
 804ec3d:	be 07 00 00 00       	mov    $0x7,%esi
 804ec42:	bf 08 00 00 00       	mov    $0x8,%edi
 804ec47:	89 25 50 20 00 00    	mov    %esp,0x2050
 804ec4d:	3c 02                	cmp    $0x2,%al
 804ec4f:	66 0f 42 d8          	cmovb  %ax,%bx
 804ec53:	a3 00 20 00 00       	mov    %eax,0x2000
 804ec58:	89 1d 04 20 00 00    	mov    %ebx,0x2004
 804ec5e:	89 0d 08 20 00 00    	mov    %ecx,0x2008
 804ec64:	89 15 0c 20 00 00    	mov    %edx,0x200c
 804ec6a:	89 2d 10 20 00 00    	mov    %ebp,0x2010
 804ec70:	89 35 14 20 00 00    	mov    %esi,0x2014
 804ec76:	89 3d 18 20 00 00    	mov    %edi,0x2018
 804ec7c:	0f 90 05 00 22 00 00 	seto   0x2200
 804ec83:	0f 91 05 01 22 00 00 	setno  0x2201
 804ec8a:	0f 92 05 02 22 00 00 	setb   0x2202
 804ec91:	0f 93 05 03 22 00 00 	setae  0x2203
 804ec98:	0f 94 05 04 22 00 00 	sete   0x2204
 804ec9f:	0f 95 05 05 22 00 00 	setne  0x2205
 804eca6:	0f 96 05 06 22 00 00 	setbe  0x2206
 804ecad:	0f 97 05 07 22 00 00 	seta   0x2207
 804ecb4:	0f 98 05 08 22 00 00 	sets   0x2208
 804ecbb:	0f 99 05 09 22 00 00 	setns  0x2209
 804ecc2:	0f 9a 05 0a 22 00 00 	setp   0x220a
 804ecc9:	0f 9b 05 0b 22 00 00 	setnp  0x220b
 804ecd0:	0f 9c 05 0c 22 00 00 	setl   0x220c
 804ecd7:	0f 9d 05 0d 22 00 00 	setge  0x220d
 804ecde:	0f 9e 05 0e 22 00 00 	setle  0x220e
 804ece5:	0f 9f 05 0f 22 00 00 	setg   0x220f
 804ecec:	66 9c                	pushfw 
 804ecee:	66 58                	pop    %ax
 804ecf0:	66 a3 00 21 00 00    	mov    %ax,0x2100
 804ecf6:	a1 50 20 00 00       	mov    0x2050,%eax
 804ecfb:	29 e0                	sub    %esp,%eax
 804ecfd:	a3 20 20 00 00       	mov    %eax,0x2020
 804ed02:	b8 00 00 00 00       	mov    $0x0,%eax
 804ed07:	c3                   	ret    

0804ed08 <cmov_w_with_code_2_mv_constant_complex1>:
 804ed08:	90                   	nop
 804ed09:	66 6a 00             	pushw  $0x0
 804ed0c:	66 9d                	popfw  
 804ed0e:	b8 84 79 b1 a3       	mov    $0xa3b17984,%eax
 804ed13:	bb d7 1a 67 06       	mov    $0x6671ad7,%ebx
 804ed18:	b9 48 52 68 46       	mov    $0x46685248,%ecx
 804ed1d:	ba c4 56 24 39       	mov    $0x392456c4,%edx
 804ed22:	bd a4 60 89 bc       	mov    $0xbc8960a4,%ebp
 804ed27:	be 78 2d 3c ad       	mov    $0xad3c2d78,%esi
 804ed2c:	bf 52 e1 65 e4       	mov    $0xe465e152,%edi
 804ed31:	89 25 50 20 00 00    	mov    %esp,0x2050
 804ed37:	3c 02                	cmp    $0x2,%al
 804ed39:	66 0f 42 d8          	cmovb  %ax,%bx
 804ed3d:	a3 00 20 00 00       	mov    %eax,0x2000
 804ed42:	89 1d 04 20 00 00    	mov    %ebx,0x2004
 804ed48:	89 0d 08 20 00 00    	mov    %ecx,0x2008
 804ed4e:	89 15 0c 20 00 00    	mov    %edx,0x200c
 804ed54:	89 2d 10 20 00 00    	mov    %ebp,0x2010
 804ed5a:	89 35 14 20 00 00    	mov    %esi,0x2014
 804ed60:	89 3d 18 20 00 00    	mov    %edi,0x2018
 804ed66:	0f 90 05 00 22 00 00 	seto   0x2200
 804ed6d:	0f 91 05 01 22 00 00 	setno  0x2201
 804ed74:	0f 92 05 02 22 00 00 	setb   0x2202
 804ed7b:	0f 93 05 03 22 00 00 	setae  0x2203
 804ed82:	0f 94 05 04 22 00 00 	sete   0x2204
 804ed89:	0f 95 05 05 22 00 00 	setne  0x2205
 804ed90:	0f 96 05 06 22 00 00 	setbe  0x2206
 804ed97:	0f 97 05 07 22 00 00 	seta   0x2207
 804ed9e:	0f 98 05 08 22 00 00 	sets   0x2208
 804eda5:	0f 99 05 09 22 00 00 	setns  0x2209
 804edac:	0f 9a 05 0a 22 00 00 	setp   0x220a
 804edb3:	0f 9b 05 0b 22 00 00 	setnp  0x220b
 804edba:	0f 9c 05 0c 22 00 00 	setl   0x220c
 804edc1:	0f 9d 05 0d 22 00 00 	setge  0x220d
 804edc8:	0f 9e 05 0e 22 00 00 	setle  0x220e
 804edcf:	0f 9f 05 0f 22 00 00 	setg   0x220f
 804edd6:	66 9c                	pushfw 
 804edd8:	66 58                	pop    %ax
 804edda:	66 a3 00 21 00 00    	mov    %ax,0x2100
 804ede0:	a1 50 20 00 00       	mov    0x2050,%eax
 804ede5:	29 e0                	sub    %esp,%eax
 804ede7:	a3 20 20 00 00       	mov    %eax,0x2020
 804edec:	b8 00 00 00 00       	mov    $0x0,%eax
 804edf1:	c3                   	ret    

0804edf2 <cmov_w_with_code_2_mv_constant_complex2>:
 804edf2:	90                   	nop
 804edf3:	66 68 ff fe          	pushw  $0xfeff
 804edf7:	66 9d                	popfw  
 804edf9:	b8 e8 c0 3e 31       	mov    $0x313ec0e8,%eax
 804edfe:	bb c3 81 6e 49       	mov    $0x496e81c3,%ebx
 804ee03:	b9 b2 6c 3f 1e       	mov    $0x1e3f6cb2,%ecx
 804ee08:	ba b3 25 69 4e       	mov    $0x4e6925b3,%edx
 804ee0d:	bd 10 26 31 4f       	mov    $0x4f312610,%ebp
 804ee12:	be a5 a4 37 2f       	mov    $0x2f37a4a5,%esi
 804ee17:	bf b4 17 a9 91       	mov    $0x91a917b4,%edi
 804ee1c:	89 25 50 20 00 00    	mov    %esp,0x2050
 804ee22:	3c 02                	cmp    $0x2,%al
 804ee24:	66 0f 42 d8          	cmovb  %ax,%bx
 804ee28:	a3 00 20 00 00       	mov    %eax,0x2000
 804ee2d:	89 1d 04 20 00 00    	mov    %ebx,0x2004
 804ee33:	89 0d 08 20 00 00    	mov    %ecx,0x2008
 804ee39:	89 15 0c 20 00 00    	mov    %edx,0x200c
 804ee3f:	89 2d 10 20 00 00    	mov    %ebp,0x2010
 804ee45:	89 35 14 20 00 00    	mov    %esi,0x2014
 804ee4b:	89 3d 18 20 00 00    	mov    %edi,0x2018
 804ee51:	0f 90 05 00 22 00 00 	seto   0x2200
 804ee58:	0f 91 05 01 22 00 00 	setno  0x2201
 804ee5f:	0f 92 05 02 22 00 00 	setb   0x2202
 804ee66:	0f 93 05 03 22 00 00 	setae  0x2203
 804ee6d:	0f 94 05 04 22 00 00 	sete   0x2204
 804ee74:	0f 95 05 05 22 00 00 	setne  0x2205
 804ee7b:	0f 96 05 06 22 00 00 	setbe  0x2206
 804ee82:	0f 97 05 07 22 00 00 	seta   0x2207
 804ee89:	0f 98 05 08 22 00 00 	sets   0x2208
 804ee90:	0f 99 05 09 22 00 00 	setns  0x2209
 804ee97:	0f 9a 05 0a 22 00 00 	setp   0x220a
 804ee9e:	0f 9b 05 0b 22 00 00 	setnp  0x220b
 804eea5:	0f 9c 05 0c 22 00 00 	setl   0x220c
 804eeac:	0f 9d 05 0d 22 00 00 	setge  0x220d
 804eeb3:	0f 9e 05 0e 22 00 00 	setle  0x220e
 804eeba:	0f 9f 05 0f 22 00 00 	setg   0x220f
 804eec1:	66 9c                	pushfw 
 804eec3:	66 58                	pop    %ax
 804eec5:	66 a3 00 21 00 00    	mov    %ax,0x2100
 804eecb:	a1 50 20 00 00       	mov    0x2050,%eax
 804eed0:	29 e0                	sub    %esp,%eax
 804eed2:	a3 20 20 00 00       	mov    %eax,0x2020
 804eed7:	b8 00 00 00 00       	mov    $0x0,%eax
 804eedc:	c3                   	ret    

0804eedd <cmov_w_with_code_3_mv_plain>:
 804eedd:	3c 02                	cmp    $0x2,%al
 804eedf:	66 0f 43 d8          	cmovae %ax,%bx
 804eee3:	b8 00 00 00 00       	mov    $0x0,%eax
 804eee8:	c3                   	ret    

0804eee9 <cmov_w_with_code_3_mv_allregs>:
 804eee9:	90                   	nop
 804eeea:	66 a1 00 11 00 00    	mov    0x1100,%ax
 804eef0:	66 50                	push   %ax
 804eef2:	66 9d                	popfw  
 804eef4:	a1 00 10 00 00       	mov    0x1000,%eax
 804eef9:	8b 1d 04 10 00 00    	mov    0x1004,%ebx
 804eeff:	8b 0d 08 10 00 00    	mov    0x1008,%ecx
 804ef05:	8b 15 0c 10 00 00    	mov    0x100c,%edx
 804ef0b:	8b 2d 10 10 00 00    	mov    0x1010,%ebp
 804ef11:	8b 35 14 10 00 00    	mov    0x1014,%esi
 804ef17:	8b 3d 18 10 00 00    	mov    0x1018,%edi
 804ef1d:	89 25 50 20 00 00    	mov    %esp,0x2050
 804ef23:	3c 02                	cmp    $0x2,%al
 804ef25:	66 0f 43 d8          	cmovae %ax,%bx
 804ef29:	a3 00 20 00 00       	mov    %eax,0x2000
 804ef2e:	89 1d 04 20 00 00    	mov    %ebx,0x2004
 804ef34:	89 0d 08 20 00 00    	mov    %ecx,0x2008
 804ef3a:	89 15 0c 20 00 00    	mov    %edx,0x200c
 804ef40:	89 2d 10 20 00 00    	mov    %ebp,0x2010
 804ef46:	89 35 14 20 00 00    	mov    %esi,0x2014
 804ef4c:	89 3d 18 20 00 00    	mov    %edi,0x2018
 804ef52:	0f 90 05 00 22 00 00 	seto   0x2200
 804ef59:	0f 91 05 01 22 00 00 	setno  0x2201
 804ef60:	0f 92 05 02 22 00 00 	setb   0x2202
 804ef67:	0f 93 05 03 22 00 00 	setae  0x2203
 804ef6e:	0f 94 05 04 22 00 00 	sete   0x2204
 804ef75:	0f 95 05 05 22 00 00 	setne  0x2205
 804ef7c:	0f 96 05 06 22 00 00 	setbe  0x2206
 804ef83:	0f 97 05 07 22 00 00 	seta   0x2207
 804ef8a:	0f 98 05 08 22 00 00 	sets   0x2208
 804ef91:	0f 99 05 09 22 00 00 	setns  0x2209
 804ef98:	0f 9a 05 0a 22 00 00 	setp   0x220a
 804ef9f:	0f 9b 05 0b 22 00 00 	setnp  0x220b
 804efa6:	0f 9c 05 0c 22 00 00 	setl   0x220c
 804efad:	0f 9d 05 0d 22 00 00 	setge  0x220d
 804efb4:	0f 9e 05 0e 22 00 00 	setle  0x220e
 804efbb:	0f 9f 05 0f 22 00 00 	setg   0x220f
 804efc2:	66 9c                	pushfw 
 804efc4:	66 58                	pop    %ax
 804efc6:	66 a3 00 21 00 00    	mov    %ax,0x2100
 804efcc:	a1 50 20 00 00       	mov    0x2050,%eax
 804efd1:	29 e0                	sub    %esp,%eax
 804efd3:	a3 20 20 00 00       	mov    %eax,0x2020
 804efd8:	b8 00 00 00 00       	mov    $0x0,%eax
 804efdd:	c3                   	ret    

0804efde <cmov_w_with_code_3_mv_constant_simple>:
 804efde:	90                   	nop
 804efdf:	66 6a 00             	pushw  $0x0
 804efe2:	66 9d                	popfw  
 804efe4:	b8 02 00 00 00       	mov    $0x2,%eax
 804efe9:	bb 03 00 00 00       	mov    $0x3,%ebx
 804efee:	b9 04 00 00 00       	mov    $0x4,%ecx
 804eff3:	ba 05 00 00 00       	mov    $0x5,%edx
 804eff8:	bd 06 00 00 00       	mov    $0x6,%ebp
 804effd:	be 07 00 00 00       	mov    $0x7,%esi
 804f002:	bf 08 00 00 00       	mov    $0x8,%edi
 804f007:	89 25 50 20 00 00    	mov    %esp,0x2050
 804f00d:	3c 02                	cmp    $0x2,%al
 804f00f:	66 0f 43 d8          	cmovae %ax,%bx
 804f013:	a3 00 20 00 00       	mov    %eax,0x2000
 804f018:	89 1d 04 20 00 00    	mov    %ebx,0x2004
 804f01e:	89 0d 08 20 00 00    	mov    %ecx,0x2008
 804f024:	89 15 0c 20 00 00    	mov    %edx,0x200c
 804f02a:	89 2d 10 20 00 00    	mov    %ebp,0x2010
 804f030:	89 35 14 20 00 00    	mov    %esi,0x2014
 804f036:	89 3d 18 20 00 00    	mov    %edi,0x2018
 804f03c:	0f 90 05 00 22 00 00 	seto   0x2200
 804f043:	0f 91 05 01 22 00 00 	setno  0x2201
 804f04a:	0f 92 05 02 22 00 00 	setb   0x2202
 804f051:	0f 93 05 03 22 00 00 	setae  0x2203
 804f058:	0f 94 05 04 22 00 00 	sete   0x2204
 804f05f:	0f 95 05 05 22 00 00 	setne  0x2205
 804f066:	0f 96 05 06 22 00 00 	setbe  0x2206
 804f06d:	0f 97 05 07 22 00 00 	seta   0x2207
 804f074:	0f 98 05 08 22 00 00 	sets   0x2208
 804f07b:	0f 99 05 09 22 00 00 	setns  0x2209
 804f082:	0f 9a 05 0a 22 00 00 	setp   0x220a
 804f089:	0f 9b 05 0b 22 00 00 	setnp  0x220b
 804f090:	0f 9c 05 0c 22 00 00 	setl   0x220c
 804f097:	0f 9d 05 0d 22 00 00 	setge  0x220d
 804f09e:	0f 9e 05 0e 22 00 00 	setle  0x220e
 804f0a5:	0f 9f 05 0f 22 00 00 	setg   0x220f
 804f0ac:	66 9c                	pushfw 
 804f0ae:	66 58                	pop    %ax
 804f0b0:	66 a3 00 21 00 00    	mov    %ax,0x2100
 804f0b6:	a1 50 20 00 00       	mov    0x2050,%eax
 804f0bb:	29 e0                	sub    %esp,%eax
 804f0bd:	a3 20 20 00 00       	mov    %eax,0x2020
 804f0c2:	b8 00 00 00 00       	mov    $0x0,%eax
 804f0c7:	c3                   	ret    

0804f0c8 <cmov_w_with_code_3_mv_constant_complex1>:
 804f0c8:	90                   	nop
 804f0c9:	66 6a 00             	pushw  $0x0
 804f0cc:	66 9d                	popfw  
 804f0ce:	b8 84 79 b1 a3       	mov    $0xa3b17984,%eax
 804f0d3:	bb d7 1a 67 06       	mov    $0x6671ad7,%ebx
 804f0d8:	b9 48 52 68 46       	mov    $0x46685248,%ecx
 804f0dd:	ba c4 56 24 39       	mov    $0x392456c4,%edx
 804f0e2:	bd a4 60 89 bc       	mov    $0xbc8960a4,%ebp
 804f0e7:	be 78 2d 3c ad       	mov    $0xad3c2d78,%esi
 804f0ec:	bf 52 e1 65 e4       	mov    $0xe465e152,%edi
 804f0f1:	89 25 50 20 00 00    	mov    %esp,0x2050
 804f0f7:	3c 02                	cmp    $0x2,%al
 804f0f9:	66 0f 43 d8          	cmovae %ax,%bx
 804f0fd:	a3 00 20 00 00       	mov    %eax,0x2000
 804f102:	89 1d 04 20 00 00    	mov    %ebx,0x2004
 804f108:	89 0d 08 20 00 00    	mov    %ecx,0x2008
 804f10e:	89 15 0c 20 00 00    	mov    %edx,0x200c
 804f114:	89 2d 10 20 00 00    	mov    %ebp,0x2010
 804f11a:	89 35 14 20 00 00    	mov    %esi,0x2014
 804f120:	89 3d 18 20 00 00    	mov    %edi,0x2018
 804f126:	0f 90 05 00 22 00 00 	seto   0x2200
 804f12d:	0f 91 05 01 22 00 00 	setno  0x2201
 804f134:	0f 92 05 02 22 00 00 	setb   0x2202
 804f13b:	0f 93 05 03 22 00 00 	setae  0x2203
 804f142:	0f 94 05 04 22 00 00 	sete   0x2204
 804f149:	0f 95 05 05 22 00 00 	setne  0x2205
 804f150:	0f 96 05 06 22 00 00 	setbe  0x2206
 804f157:	0f 97 05 07 22 00 00 	seta   0x2207
 804f15e:	0f 98 05 08 22 00 00 	sets   0x2208
 804f165:	0f 99 05 09 22 00 00 	setns  0x2209
 804f16c:	0f 9a 05 0a 22 00 00 	setp   0x220a
 804f173:	0f 9b 05 0b 22 00 00 	setnp  0x220b
 804f17a:	0f 9c 05 0c 22 00 00 	setl   0x220c
 804f181:	0f 9d 05 0d 22 00 00 	setge  0x220d
 804f188:	0f 9e 05 0e 22 00 00 	setle  0x220e
 804f18f:	0f 9f 05 0f 22 00 00 	setg   0x220f
 804f196:	66 9c                	pushfw 
 804f198:	66 58                	pop    %ax
 804f19a:	66 a3 00 21 00 00    	mov    %ax,0x2100
 804f1a0:	a1 50 20 00 00       	mov    0x2050,%eax
 804f1a5:	29 e0                	sub    %esp,%eax
 804f1a7:	a3 20 20 00 00       	mov    %eax,0x2020
 804f1ac:	b8 00 00 00 00       	mov    $0x0,%eax
 804f1b1:	c3                   	ret    

0804f1b2 <cmov_w_with_code_3_mv_constant_complex2>:
 804f1b2:	90                   	nop
 804f1b3:	66 68 ff fe          	pushw  $0xfeff
 804f1b7:	66 9d                	popfw  
 804f1b9:	b8 e8 c0 3e 31       	mov    $0x313ec0e8,%eax
 804f1be:	bb c3 81 6e 49       	mov    $0x496e81c3,%ebx
 804f1c3:	b9 b2 6c 3f 1e       	mov    $0x1e3f6cb2,%ecx
 804f1c8:	ba b3 25 69 4e       	mov    $0x4e6925b3,%edx
 804f1cd:	bd 10 26 31 4f       	mov    $0x4f312610,%ebp
 804f1d2:	be a5 a4 37 2f       	mov    $0x2f37a4a5,%esi
 804f1d7:	bf b4 17 a9 91       	mov    $0x91a917b4,%edi
 804f1dc:	89 25 50 20 00 00    	mov    %esp,0x2050
 804f1e2:	3c 02                	cmp    $0x2,%al
 804f1e4:	66 0f 43 d8          	cmovae %ax,%bx
 804f1e8:	a3 00 20 00 00       	mov    %eax,0x2000
 804f1ed:	89 1d 04 20 00 00    	mov    %ebx,0x2004
 804f1f3:	89 0d 08 20 00 00    	mov    %ecx,0x2008
 804f1f9:	89 15 0c 20 00 00    	mov    %edx,0x200c
 804f1ff:	89 2d 10 20 00 00    	mov    %ebp,0x2010
 804f205:	89 35 14 20 00 00    	mov    %esi,0x2014
 804f20b:	89 3d 18 20 00 00    	mov    %edi,0x2018
 804f211:	0f 90 05 00 22 00 00 	seto   0x2200
 804f218:	0f 91 05 01 22 00 00 	setno  0x2201
 804f21f:	0f 92 05 02 22 00 00 	setb   0x2202
 804f226:	0f 93 05 03 22 00 00 	setae  0x2203
 804f22d:	0f 94 05 04 22 00 00 	sete   0x2204
 804f234:	0f 95 05 05 22 00 00 	setne  0x2205
 804f23b:	0f 96 05 06 22 00 00 	setbe  0x2206
 804f242:	0f 97 05 07 22 00 00 	seta   0x2207
 804f249:	0f 98 05 08 22 00 00 	sets   0x2208
 804f250:	0f 99 05 09 22 00 00 	setns  0x2209
 804f257:	0f 9a 05 0a 22 00 00 	setp   0x220a
 804f25e:	0f 9b 05 0b 22 00 00 	setnp  0x220b
 804f265:	0f 9c 05 0c 22 00 00 	setl   0x220c
 804f26c:	0f 9d 05 0d 22 00 00 	setge  0x220d
 804f273:	0f 9e 05 0e 22 00 00 	setle  0x220e
 804f27a:	0f 9f 05 0f 22 00 00 	setg   0x220f
 804f281:	66 9c                	pushfw 
 804f283:	66 58                	pop    %ax
 804f285:	66 a3 00 21 00 00    	mov    %ax,0x2100
 804f28b:	a1 50 20 00 00       	mov    0x2050,%eax
 804f290:	29 e0                	sub    %esp,%eax
 804f292:	a3 20 20 00 00       	mov    %eax,0x2020
 804f297:	b8 00 00 00 00       	mov    $0x0,%eax
 804f29c:	c3                   	ret    

0804f29d <cmov_w_with_code_4_mv_plain>:
 804f29d:	3c 02                	cmp    $0x2,%al
 804f29f:	66 0f 44 d8          	cmove  %ax,%bx
 804f2a3:	b8 00 00 00 00       	mov    $0x0,%eax
 804f2a8:	c3                   	ret    

0804f2a9 <cmov_w_with_code_4_mv_allregs>:
 804f2a9:	90                   	nop
 804f2aa:	66 a1 00 11 00 00    	mov    0x1100,%ax
 804f2b0:	66 50                	push   %ax
 804f2b2:	66 9d                	popfw  
 804f2b4:	a1 00 10 00 00       	mov    0x1000,%eax
 804f2b9:	8b 1d 04 10 00 00    	mov    0x1004,%ebx
 804f2bf:	8b 0d 08 10 00 00    	mov    0x1008,%ecx
 804f2c5:	8b 15 0c 10 00 00    	mov    0x100c,%edx
 804f2cb:	8b 2d 10 10 00 00    	mov    0x1010,%ebp
 804f2d1:	8b 35 14 10 00 00    	mov    0x1014,%esi
 804f2d7:	8b 3d 18 10 00 00    	mov    0x1018,%edi
 804f2dd:	89 25 50 20 00 00    	mov    %esp,0x2050
 804f2e3:	3c 02                	cmp    $0x2,%al
 804f2e5:	66 0f 44 d8          	cmove  %ax,%bx
 804f2e9:	a3 00 20 00 00       	mov    %eax,0x2000
 804f2ee:	89 1d 04 20 00 00    	mov    %ebx,0x2004
 804f2f4:	89 0d 08 20 00 00    	mov    %ecx,0x2008
 804f2fa:	89 15 0c 20 00 00    	mov    %edx,0x200c
 804f300:	89 2d 10 20 00 00    	mov    %ebp,0x2010
 804f306:	89 35 14 20 00 00    	mov    %esi,0x2014
 804f30c:	89 3d 18 20 00 00    	mov    %edi,0x2018
 804f312:	0f 90 05 00 22 00 00 	seto   0x2200
 804f319:	0f 91 05 01 22 00 00 	setno  0x2201
 804f320:	0f 92 05 02 22 00 00 	setb   0x2202
 804f327:	0f 93 05 03 22 00 00 	setae  0x2203
 804f32e:	0f 94 05 04 22 00 00 	sete   0x2204
 804f335:	0f 95 05 05 22 00 00 	setne  0x2205
 804f33c:	0f 96 05 06 22 00 00 	setbe  0x2206
 804f343:	0f 97 05 07 22 00 00 	seta   0x2207
 804f34a:	0f 98 05 08 22 00 00 	sets   0x2208
 804f351:	0f 99 05 09 22 00 00 	setns  0x2209
 804f358:	0f 9a 05 0a 22 00 00 	setp   0x220a
 804f35f:	0f 9b 05 0b 22 00 00 	setnp  0x220b
 804f366:	0f 9c 05 0c 22 00 00 	setl   0x220c
 804f36d:	0f 9d 05 0d 22 00 00 	setge  0x220d
 804f374:	0f 9e 05 0e 22 00 00 	setle  0x220e
 804f37b:	0f 9f 05 0f 22 00 00 	setg   0x220f
 804f382:	66 9c                	pushfw 
 804f384:	66 58                	pop    %ax
 804f386:	66 a3 00 21 00 00    	mov    %ax,0x2100
 804f38c:	a1 50 20 00 00       	mov    0x2050,%eax
 804f391:	29 e0                	sub    %esp,%eax
 804f393:	a3 20 20 00 00       	mov    %eax,0x2020
 804f398:	b8 00 00 00 00       	mov    $0x0,%eax
 804f39d:	c3                   	ret    

0804f39e <cmov_w_with_code_4_mv_constant_simple>:
 804f39e:	90                   	nop
 804f39f:	66 6a 00             	pushw  $0x0
 804f3a2:	66 9d                	popfw  
 804f3a4:	b8 02 00 00 00       	mov    $0x2,%eax
 804f3a9:	bb 03 00 00 00       	mov    $0x3,%ebx
 804f3ae:	b9 04 00 00 00       	mov    $0x4,%ecx
 804f3b3:	ba 05 00 00 00       	mov    $0x5,%edx
 804f3b8:	bd 06 00 00 00       	mov    $0x6,%ebp
 804f3bd:	be 07 00 00 00       	mov    $0x7,%esi
 804f3c2:	bf 08 00 00 00       	mov    $0x8,%edi
 804f3c7:	89 25 50 20 00 00    	mov    %esp,0x2050
 804f3cd:	3c 02                	cmp    $0x2,%al
 804f3cf:	66 0f 44 d8          	cmove  %ax,%bx
 804f3d3:	a3 00 20 00 00       	mov    %eax,0x2000
 804f3d8:	89 1d 04 20 00 00    	mov    %ebx,0x2004
 804f3de:	89 0d 08 20 00 00    	mov    %ecx,0x2008
 804f3e4:	89 15 0c 20 00 00    	mov    %edx,0x200c
 804f3ea:	89 2d 10 20 00 00    	mov    %ebp,0x2010
 804f3f0:	89 35 14 20 00 00    	mov    %esi,0x2014
 804f3f6:	89 3d 18 20 00 00    	mov    %edi,0x2018
 804f3fc:	0f 90 05 00 22 00 00 	seto   0x2200
 804f403:	0f 91 05 01 22 00 00 	setno  0x2201
 804f40a:	0f 92 05 02 22 00 00 	setb   0x2202
 804f411:	0f 93 05 03 22 00 00 	setae  0x2203
 804f418:	0f 94 05 04 22 00 00 	sete   0x2204
 804f41f:	0f 95 05 05 22 00 00 	setne  0x2205
 804f426:	0f 96 05 06 22 00 00 	setbe  0x2206
 804f42d:	0f 97 05 07 22 00 00 	seta   0x2207
 804f434:	0f 98 05 08 22 00 00 	sets   0x2208
 804f43b:	0f 99 05 09 22 00 00 	setns  0x2209
 804f442:	0f 9a 05 0a 22 00 00 	setp   0x220a
 804f449:	0f 9b 05 0b 22 00 00 	setnp  0x220b
 804f450:	0f 9c 05 0c 22 00 00 	setl   0x220c
 804f457:	0f 9d 05 0d 22 00 00 	setge  0x220d
 804f45e:	0f 9e 05 0e 22 00 00 	setle  0x220e
 804f465:	0f 9f 05 0f 22 00 00 	setg   0x220f
 804f46c:	66 9c                	pushfw 
 804f46e:	66 58                	pop    %ax
 804f470:	66 a3 00 21 00 00    	mov    %ax,0x2100
 804f476:	a1 50 20 00 00       	mov    0x2050,%eax
 804f47b:	29 e0                	sub    %esp,%eax
 804f47d:	a3 20 20 00 00       	mov    %eax,0x2020
 804f482:	b8 00 00 00 00       	mov    $0x0,%eax
 804f487:	c3                   	ret    

0804f488 <cmov_w_with_code_4_mv_constant_complex1>:
 804f488:	90                   	nop
 804f489:	66 6a 00             	pushw  $0x0
 804f48c:	66 9d                	popfw  
 804f48e:	b8 84 79 b1 a3       	mov    $0xa3b17984,%eax
 804f493:	bb d7 1a 67 06       	mov    $0x6671ad7,%ebx
 804f498:	b9 48 52 68 46       	mov    $0x46685248,%ecx
 804f49d:	ba c4 56 24 39       	mov    $0x392456c4,%edx
 804f4a2:	bd a4 60 89 bc       	mov    $0xbc8960a4,%ebp
 804f4a7:	be 78 2d 3c ad       	mov    $0xad3c2d78,%esi
 804f4ac:	bf 52 e1 65 e4       	mov    $0xe465e152,%edi
 804f4b1:	89 25 50 20 00 00    	mov    %esp,0x2050
 804f4b7:	3c 02                	cmp    $0x2,%al
 804f4b9:	66 0f 44 d8          	cmove  %ax,%bx
 804f4bd:	a3 00 20 00 00       	mov    %eax,0x2000
 804f4c2:	89 1d 04 20 00 00    	mov    %ebx,0x2004
 804f4c8:	89 0d 08 20 00 00    	mov    %ecx,0x2008
 804f4ce:	89 15 0c 20 00 00    	mov    %edx,0x200c
 804f4d4:	89 2d 10 20 00 00    	mov    %ebp,0x2010
 804f4da:	89 35 14 20 00 00    	mov    %esi,0x2014
 804f4e0:	89 3d 18 20 00 00    	mov    %edi,0x2018
 804f4e6:	0f 90 05 00 22 00 00 	seto   0x2200
 804f4ed:	0f 91 05 01 22 00 00 	setno  0x2201
 804f4f4:	0f 92 05 02 22 00 00 	setb   0x2202
 804f4fb:	0f 93 05 03 22 00 00 	setae  0x2203
 804f502:	0f 94 05 04 22 00 00 	sete   0x2204
 804f509:	0f 95 05 05 22 00 00 	setne  0x2205
 804f510:	0f 96 05 06 22 00 00 	setbe  0x2206
 804f517:	0f 97 05 07 22 00 00 	seta   0x2207
 804f51e:	0f 98 05 08 22 00 00 	sets   0x2208
 804f525:	0f 99 05 09 22 00 00 	setns  0x2209
 804f52c:	0f 9a 05 0a 22 00 00 	setp   0x220a
 804f533:	0f 9b 05 0b 22 00 00 	setnp  0x220b
 804f53a:	0f 9c 05 0c 22 00 00 	setl   0x220c
 804f541:	0f 9d 05 0d 22 00 00 	setge  0x220d
 804f548:	0f 9e 05 0e 22 00 00 	setle  0x220e
 804f54f:	0f 9f 05 0f 22 00 00 	setg   0x220f
 804f556:	66 9c                	pushfw 
 804f558:	66 58                	pop    %ax
 804f55a:	66 a3 00 21 00 00    	mov    %ax,0x2100
 804f560:	a1 50 20 00 00       	mov    0x2050,%eax
 804f565:	29 e0                	sub    %esp,%eax
 804f567:	a3 20 20 00 00       	mov    %eax,0x2020
 804f56c:	b8 00 00 00 00       	mov    $0x0,%eax
 804f571:	c3                   	ret    

0804f572 <cmov_w_with_code_4_mv_constant_complex2>:
 804f572:	90                   	nop
 804f573:	66 68 ff fe          	pushw  $0xfeff
 804f577:	66 9d                	popfw  
 804f579:	b8 e8 c0 3e 31       	mov    $0x313ec0e8,%eax
 804f57e:	bb c3 81 6e 49       	mov    $0x496e81c3,%ebx
 804f583:	b9 b2 6c 3f 1e       	mov    $0x1e3f6cb2,%ecx
 804f588:	ba b3 25 69 4e       	mov    $0x4e6925b3,%edx
 804f58d:	bd 10 26 31 4f       	mov    $0x4f312610,%ebp
 804f592:	be a5 a4 37 2f       	mov    $0x2f37a4a5,%esi
 804f597:	bf b4 17 a9 91       	mov    $0x91a917b4,%edi
 804f59c:	89 25 50 20 00 00    	mov    %esp,0x2050
 804f5a2:	3c 02                	cmp    $0x2,%al
 804f5a4:	66 0f 44 d8          	cmove  %ax,%bx
 804f5a8:	a3 00 20 00 00       	mov    %eax,0x2000
 804f5ad:	89 1d 04 20 00 00    	mov    %ebx,0x2004
 804f5b3:	89 0d 08 20 00 00    	mov    %ecx,0x2008
 804f5b9:	89 15 0c 20 00 00    	mov    %edx,0x200c
 804f5bf:	89 2d 10 20 00 00    	mov    %ebp,0x2010
 804f5c5:	89 35 14 20 00 00    	mov    %esi,0x2014
 804f5cb:	89 3d 18 20 00 00    	mov    %edi,0x2018
 804f5d1:	0f 90 05 00 22 00 00 	seto   0x2200
 804f5d8:	0f 91 05 01 22 00 00 	setno  0x2201
 804f5df:	0f 92 05 02 22 00 00 	setb   0x2202
 804f5e6:	0f 93 05 03 22 00 00 	setae  0x2203
 804f5ed:	0f 94 05 04 22 00 00 	sete   0x2204
 804f5f4:	0f 95 05 05 22 00 00 	setne  0x2205
 804f5fb:	0f 96 05 06 22 00 00 	setbe  0x2206
 804f602:	0f 97 05 07 22 00 00 	seta   0x2207
 804f609:	0f 98 05 08 22 00 00 	sets   0x2208
 804f610:	0f 99 05 09 22 00 00 	setns  0x2209
 804f617:	0f 9a 05 0a 22 00 00 	setp   0x220a
 804f61e:	0f 9b 05 0b 22 00 00 	setnp  0x220b
 804f625:	0f 9c 05 0c 22 00 00 	setl   0x220c
 804f62c:	0f 9d 05 0d 22 00 00 	setge  0x220d
 804f633:	0f 9e 05 0e 22 00 00 	setle  0x220e
 804f63a:	0f 9f 05 0f 22 00 00 	setg   0x220f
 804f641:	66 9c                	pushfw 
 804f643:	66 58                	pop    %ax
 804f645:	66 a3 00 21 00 00    	mov    %ax,0x2100
 804f64b:	a1 50 20 00 00       	mov    0x2050,%eax
 804f650:	29 e0                	sub    %esp,%eax
 804f652:	a3 20 20 00 00       	mov    %eax,0x2020
 804f657:	b8 00 00 00 00       	mov    $0x0,%eax
 804f65c:	c3                   	ret    

0804f65d <cmov_w_with_code_5_mv_plain>:
 804f65d:	3c 02                	cmp    $0x2,%al
 804f65f:	66 0f 45 d8          	cmovne %ax,%bx
 804f663:	b8 00 00 00 00       	mov    $0x0,%eax
 804f668:	c3                   	ret    

0804f669 <cmov_w_with_code_5_mv_allregs>:
 804f669:	90                   	nop
 804f66a:	66 a1 00 11 00 00    	mov    0x1100,%ax
 804f670:	66 50                	push   %ax
 804f672:	66 9d                	popfw  
 804f674:	a1 00 10 00 00       	mov    0x1000,%eax
 804f679:	8b 1d 04 10 00 00    	mov    0x1004,%ebx
 804f67f:	8b 0d 08 10 00 00    	mov    0x1008,%ecx
 804f685:	8b 15 0c 10 00 00    	mov    0x100c,%edx
 804f68b:	8b 2d 10 10 00 00    	mov    0x1010,%ebp
 804f691:	8b 35 14 10 00 00    	mov    0x1014,%esi
 804f697:	8b 3d 18 10 00 00    	mov    0x1018,%edi
 804f69d:	89 25 50 20 00 00    	mov    %esp,0x2050
 804f6a3:	3c 02                	cmp    $0x2,%al
 804f6a5:	66 0f 45 d8          	cmovne %ax,%bx
 804f6a9:	a3 00 20 00 00       	mov    %eax,0x2000
 804f6ae:	89 1d 04 20 00 00    	mov    %ebx,0x2004
 804f6b4:	89 0d 08 20 00 00    	mov    %ecx,0x2008
 804f6ba:	89 15 0c 20 00 00    	mov    %edx,0x200c
 804f6c0:	89 2d 10 20 00 00    	mov    %ebp,0x2010
 804f6c6:	89 35 14 20 00 00    	mov    %esi,0x2014
 804f6cc:	89 3d 18 20 00 00    	mov    %edi,0x2018
 804f6d2:	0f 90 05 00 22 00 00 	seto   0x2200
 804f6d9:	0f 91 05 01 22 00 00 	setno  0x2201
 804f6e0:	0f 92 05 02 22 00 00 	setb   0x2202
 804f6e7:	0f 93 05 03 22 00 00 	setae  0x2203
 804f6ee:	0f 94 05 04 22 00 00 	sete   0x2204
 804f6f5:	0f 95 05 05 22 00 00 	setne  0x2205
 804f6fc:	0f 96 05 06 22 00 00 	setbe  0x2206
 804f703:	0f 97 05 07 22 00 00 	seta   0x2207
 804f70a:	0f 98 05 08 22 00 00 	sets   0x2208
 804f711:	0f 99 05 09 22 00 00 	setns  0x2209
 804f718:	0f 9a 05 0a 22 00 00 	setp   0x220a
 804f71f:	0f 9b 05 0b 22 00 00 	setnp  0x220b
 804f726:	0f 9c 05 0c 22 00 00 	setl   0x220c
 804f72d:	0f 9d 05 0d 22 00 00 	setge  0x220d
 804f734:	0f 9e 05 0e 22 00 00 	setle  0x220e
 804f73b:	0f 9f 05 0f 22 00 00 	setg   0x220f
 804f742:	66 9c                	pushfw 
 804f744:	66 58                	pop    %ax
 804f746:	66 a3 00 21 00 00    	mov    %ax,0x2100
 804f74c:	a1 50 20 00 00       	mov    0x2050,%eax
 804f751:	29 e0                	sub    %esp,%eax
 804f753:	a3 20 20 00 00       	mov    %eax,0x2020
 804f758:	b8 00 00 00 00       	mov    $0x0,%eax
 804f75d:	c3                   	ret    

0804f75e <cmov_w_with_code_5_mv_constant_simple>:
 804f75e:	90                   	nop
 804f75f:	66 6a 00             	pushw  $0x0
 804f762:	66 9d                	popfw  
 804f764:	b8 02 00 00 00       	mov    $0x2,%eax
 804f769:	bb 03 00 00 00       	mov    $0x3,%ebx
 804f76e:	b9 04 00 00 00       	mov    $0x4,%ecx
 804f773:	ba 05 00 00 00       	mov    $0x5,%edx
 804f778:	bd 06 00 00 00       	mov    $0x6,%ebp
 804f77d:	be 07 00 00 00       	mov    $0x7,%esi
 804f782:	bf 08 00 00 00       	mov    $0x8,%edi
 804f787:	89 25 50 20 00 00    	mov    %esp,0x2050
 804f78d:	3c 02                	cmp    $0x2,%al
 804f78f:	66 0f 45 d8          	cmovne %ax,%bx
 804f793:	a3 00 20 00 00       	mov    %eax,0x2000
 804f798:	89 1d 04 20 00 00    	mov    %ebx,0x2004
 804f79e:	89 0d 08 20 00 00    	mov    %ecx,0x2008
 804f7a4:	89 15 0c 20 00 00    	mov    %edx,0x200c
 804f7aa:	89 2d 10 20 00 00    	mov    %ebp,0x2010
 804f7b0:	89 35 14 20 00 00    	mov    %esi,0x2014
 804f7b6:	89 3d 18 20 00 00    	mov    %edi,0x2018
 804f7bc:	0f 90 05 00 22 00 00 	seto   0x2200
 804f7c3:	0f 91 05 01 22 00 00 	setno  0x2201
 804f7ca:	0f 92 05 02 22 00 00 	setb   0x2202
 804f7d1:	0f 93 05 03 22 00 00 	setae  0x2203
 804f7d8:	0f 94 05 04 22 00 00 	sete   0x2204
 804f7df:	0f 95 05 05 22 00 00 	setne  0x2205
 804f7e6:	0f 96 05 06 22 00 00 	setbe  0x2206
 804f7ed:	0f 97 05 07 22 00 00 	seta   0x2207
 804f7f4:	0f 98 05 08 22 00 00 	sets   0x2208
 804f7fb:	0f 99 05 09 22 00 00 	setns  0x2209
 804f802:	0f 9a 05 0a 22 00 00 	setp   0x220a
 804f809:	0f 9b 05 0b 22 00 00 	setnp  0x220b
 804f810:	0f 9c 05 0c 22 00 00 	setl   0x220c
 804f817:	0f 9d 05 0d 22 00 00 	setge  0x220d
 804f81e:	0f 9e 05 0e 22 00 00 	setle  0x220e
 804f825:	0f 9f 05 0f 22 00 00 	setg   0x220f
 804f82c:	66 9c                	pushfw 
 804f82e:	66 58                	pop    %ax
 804f830:	66 a3 00 21 00 00    	mov    %ax,0x2100
 804f836:	a1 50 20 00 00       	mov    0x2050,%eax
 804f83b:	29 e0                	sub    %esp,%eax
 804f83d:	a3 20 20 00 00       	mov    %eax,0x2020
 804f842:	b8 00 00 00 00       	mov    $0x0,%eax
 804f847:	c3                   	ret    

0804f848 <cmov_w_with_code_5_mv_constant_complex1>:
 804f848:	90                   	nop
 804f849:	66 6a 00             	pushw  $0x0
 804f84c:	66 9d                	popfw  
 804f84e:	b8 84 79 b1 a3       	mov    $0xa3b17984,%eax
 804f853:	bb d7 1a 67 06       	mov    $0x6671ad7,%ebx
 804f858:	b9 48 52 68 46       	mov    $0x46685248,%ecx
 804f85d:	ba c4 56 24 39       	mov    $0x392456c4,%edx
 804f862:	bd a4 60 89 bc       	mov    $0xbc8960a4,%ebp
 804f867:	be 78 2d 3c ad       	mov    $0xad3c2d78,%esi
 804f86c:	bf 52 e1 65 e4       	mov    $0xe465e152,%edi
 804f871:	89 25 50 20 00 00    	mov    %esp,0x2050
 804f877:	3c 02                	cmp    $0x2,%al
 804f879:	66 0f 45 d8          	cmovne %ax,%bx
 804f87d:	a3 00 20 00 00       	mov    %eax,0x2000
 804f882:	89 1d 04 20 00 00    	mov    %ebx,0x2004
 804f888:	89 0d 08 20 00 00    	mov    %ecx,0x2008
 804f88e:	89 15 0c 20 00 00    	mov    %edx,0x200c
 804f894:	89 2d 10 20 00 00    	mov    %ebp,0x2010
 804f89a:	89 35 14 20 00 00    	mov    %esi,0x2014
 804f8a0:	89 3d 18 20 00 00    	mov    %edi,0x2018
 804f8a6:	0f 90 05 00 22 00 00 	seto   0x2200
 804f8ad:	0f 91 05 01 22 00 00 	setno  0x2201
 804f8b4:	0f 92 05 02 22 00 00 	setb   0x2202
 804f8bb:	0f 93 05 03 22 00 00 	setae  0x2203
 804f8c2:	0f 94 05 04 22 00 00 	sete   0x2204
 804f8c9:	0f 95 05 05 22 00 00 	setne  0x2205
 804f8d0:	0f 96 05 06 22 00 00 	setbe  0x2206
 804f8d7:	0f 97 05 07 22 00 00 	seta   0x2207
 804f8de:	0f 98 05 08 22 00 00 	sets   0x2208
 804f8e5:	0f 99 05 09 22 00 00 	setns  0x2209
 804f8ec:	0f 9a 05 0a 22 00 00 	setp   0x220a
 804f8f3:	0f 9b 05 0b 22 00 00 	setnp  0x220b
 804f8fa:	0f 9c 05 0c 22 00 00 	setl   0x220c
 804f901:	0f 9d 05 0d 22 00 00 	setge  0x220d
 804f908:	0f 9e 05 0e 22 00 00 	setle  0x220e
 804f90f:	0f 9f 05 0f 22 00 00 	setg   0x220f
 804f916:	66 9c                	pushfw 
 804f918:	66 58                	pop    %ax
 804f91a:	66 a3 00 21 00 00    	mov    %ax,0x2100
 804f920:	a1 50 20 00 00       	mov    0x2050,%eax
 804f925:	29 e0                	sub    %esp,%eax
 804f927:	a3 20 20 00 00       	mov    %eax,0x2020
 804f92c:	b8 00 00 00 00       	mov    $0x0,%eax
 804f931:	c3                   	ret    

0804f932 <cmov_w_with_code_5_mv_constant_complex2>:
 804f932:	90                   	nop
 804f933:	66 68 ff fe          	pushw  $0xfeff
 804f937:	66 9d                	popfw  
 804f939:	b8 e8 c0 3e 31       	mov    $0x313ec0e8,%eax
 804f93e:	bb c3 81 6e 49       	mov    $0x496e81c3,%ebx
 804f943:	b9 b2 6c 3f 1e       	mov    $0x1e3f6cb2,%ecx
 804f948:	ba b3 25 69 4e       	mov    $0x4e6925b3,%edx
 804f94d:	bd 10 26 31 4f       	mov    $0x4f312610,%ebp
 804f952:	be a5 a4 37 2f       	mov    $0x2f37a4a5,%esi
 804f957:	bf b4 17 a9 91       	mov    $0x91a917b4,%edi
 804f95c:	89 25 50 20 00 00    	mov    %esp,0x2050
 804f962:	3c 02                	cmp    $0x2,%al
 804f964:	66 0f 45 d8          	cmovne %ax,%bx
 804f968:	a3 00 20 00 00       	mov    %eax,0x2000
 804f96d:	89 1d 04 20 00 00    	mov    %ebx,0x2004
 804f973:	89 0d 08 20 00 00    	mov    %ecx,0x2008
 804f979:	89 15 0c 20 00 00    	mov    %edx,0x200c
 804f97f:	89 2d 10 20 00 00    	mov    %ebp,0x2010
 804f985:	89 35 14 20 00 00    	mov    %esi,0x2014
 804f98b:	89 3d 18 20 00 00    	mov    %edi,0x2018
 804f991:	0f 90 05 00 22 00 00 	seto   0x2200
 804f998:	0f 91 05 01 22 00 00 	setno  0x2201
 804f99f:	0f 92 05 02 22 00 00 	setb   0x2202
 804f9a6:	0f 93 05 03 22 00 00 	setae  0x2203
 804f9ad:	0f 94 05 04 22 00 00 	sete   0x2204
 804f9b4:	0f 95 05 05 22 00 00 	setne  0x2205
 804f9bb:	0f 96 05 06 22 00 00 	setbe  0x2206
 804f9c2:	0f 97 05 07 22 00 00 	seta   0x2207
 804f9c9:	0f 98 05 08 22 00 00 	sets   0x2208
 804f9d0:	0f 99 05 09 22 00 00 	setns  0x2209
 804f9d7:	0f 9a 05 0a 22 00 00 	setp   0x220a
 804f9de:	0f 9b 05 0b 22 00 00 	setnp  0x220b
 804f9e5:	0f 9c 05 0c 22 00 00 	setl   0x220c
 804f9ec:	0f 9d 05 0d 22 00 00 	setge  0x220d
 804f9f3:	0f 9e 05 0e 22 00 00 	setle  0x220e
 804f9fa:	0f 9f 05 0f 22 00 00 	setg   0x220f
 804fa01:	66 9c                	pushfw 
 804fa03:	66 58                	pop    %ax
 804fa05:	66 a3 00 21 00 00    	mov    %ax,0x2100
 804fa0b:	a1 50 20 00 00       	mov    0x2050,%eax
 804fa10:	29 e0                	sub    %esp,%eax
 804fa12:	a3 20 20 00 00       	mov    %eax,0x2020
 804fa17:	b8 00 00 00 00       	mov    $0x0,%eax
 804fa1c:	c3                   	ret    

0804fa1d <cmov_w_with_code_6_mv_plain>:
 804fa1d:	3c 02                	cmp    $0x2,%al
 804fa1f:	66 0f 46 d8          	cmovbe %ax,%bx
 804fa23:	b8 00 00 00 00       	mov    $0x0,%eax
 804fa28:	c3                   	ret    

0804fa29 <cmov_w_with_code_6_mv_allregs>:
 804fa29:	90                   	nop
 804fa2a:	66 a1 00 11 00 00    	mov    0x1100,%ax
 804fa30:	66 50                	push   %ax
 804fa32:	66 9d                	popfw  
 804fa34:	a1 00 10 00 00       	mov    0x1000,%eax
 804fa39:	8b 1d 04 10 00 00    	mov    0x1004,%ebx
 804fa3f:	8b 0d 08 10 00 00    	mov    0x1008,%ecx
 804fa45:	8b 15 0c 10 00 00    	mov    0x100c,%edx
 804fa4b:	8b 2d 10 10 00 00    	mov    0x1010,%ebp
 804fa51:	8b 35 14 10 00 00    	mov    0x1014,%esi
 804fa57:	8b 3d 18 10 00 00    	mov    0x1018,%edi
 804fa5d:	89 25 50 20 00 00    	mov    %esp,0x2050
 804fa63:	3c 02                	cmp    $0x2,%al
 804fa65:	66 0f 46 d8          	cmovbe %ax,%bx
 804fa69:	a3 00 20 00 00       	mov    %eax,0x2000
 804fa6e:	89 1d 04 20 00 00    	mov    %ebx,0x2004
 804fa74:	89 0d 08 20 00 00    	mov    %ecx,0x2008
 804fa7a:	89 15 0c 20 00 00    	mov    %edx,0x200c
 804fa80:	89 2d 10 20 00 00    	mov    %ebp,0x2010
 804fa86:	89 35 14 20 00 00    	mov    %esi,0x2014
 804fa8c:	89 3d 18 20 00 00    	mov    %edi,0x2018
 804fa92:	0f 90 05 00 22 00 00 	seto   0x2200
 804fa99:	0f 91 05 01 22 00 00 	setno  0x2201
 804faa0:	0f 92 05 02 22 00 00 	setb   0x2202
 804faa7:	0f 93 05 03 22 00 00 	setae  0x2203
 804faae:	0f 94 05 04 22 00 00 	sete   0x2204
 804fab5:	0f 95 05 05 22 00 00 	setne  0x2205
 804fabc:	0f 96 05 06 22 00 00 	setbe  0x2206
 804fac3:	0f 97 05 07 22 00 00 	seta   0x2207
 804faca:	0f 98 05 08 22 00 00 	sets   0x2208
 804fad1:	0f 99 05 09 22 00 00 	setns  0x2209
 804fad8:	0f 9a 05 0a 22 00 00 	setp   0x220a
 804fadf:	0f 9b 05 0b 22 00 00 	setnp  0x220b
 804fae6:	0f 9c 05 0c 22 00 00 	setl   0x220c
 804faed:	0f 9d 05 0d 22 00 00 	setge  0x220d
 804faf4:	0f 9e 05 0e 22 00 00 	setle  0x220e
 804fafb:	0f 9f 05 0f 22 00 00 	setg   0x220f
 804fb02:	66 9c                	pushfw 
 804fb04:	66 58                	pop    %ax
 804fb06:	66 a3 00 21 00 00    	mov    %ax,0x2100
 804fb0c:	a1 50 20 00 00       	mov    0x2050,%eax
 804fb11:	29 e0                	sub    %esp,%eax
 804fb13:	a3 20 20 00 00       	mov    %eax,0x2020
 804fb18:	b8 00 00 00 00       	mov    $0x0,%eax
 804fb1d:	c3                   	ret    

0804fb1e <cmov_w_with_code_6_mv_constant_simple>:
 804fb1e:	90                   	nop
 804fb1f:	66 6a 00             	pushw  $0x0
 804fb22:	66 9d                	popfw  
 804fb24:	b8 02 00 00 00       	mov    $0x2,%eax
 804fb29:	bb 03 00 00 00       	mov    $0x3,%ebx
 804fb2e:	b9 04 00 00 00       	mov    $0x4,%ecx
 804fb33:	ba 05 00 00 00       	mov    $0x5,%edx
 804fb38:	bd 06 00 00 00       	mov    $0x6,%ebp
 804fb3d:	be 07 00 00 00       	mov    $0x7,%esi
 804fb42:	bf 08 00 00 00       	mov    $0x8,%edi
 804fb47:	89 25 50 20 00 00    	mov    %esp,0x2050
 804fb4d:	3c 02                	cmp    $0x2,%al
 804fb4f:	66 0f 46 d8          	cmovbe %ax,%bx
 804fb53:	a3 00 20 00 00       	mov    %eax,0x2000
 804fb58:	89 1d 04 20 00 00    	mov    %ebx,0x2004
 804fb5e:	89 0d 08 20 00 00    	mov    %ecx,0x2008
 804fb64:	89 15 0c 20 00 00    	mov    %edx,0x200c
 804fb6a:	89 2d 10 20 00 00    	mov    %ebp,0x2010
 804fb70:	89 35 14 20 00 00    	mov    %esi,0x2014
 804fb76:	89 3d 18 20 00 00    	mov    %edi,0x2018
 804fb7c:	0f 90 05 00 22 00 00 	seto   0x2200
 804fb83:	0f 91 05 01 22 00 00 	setno  0x2201
 804fb8a:	0f 92 05 02 22 00 00 	setb   0x2202
 804fb91:	0f 93 05 03 22 00 00 	setae  0x2203
 804fb98:	0f 94 05 04 22 00 00 	sete   0x2204
 804fb9f:	0f 95 05 05 22 00 00 	setne  0x2205
 804fba6:	0f 96 05 06 22 00 00 	setbe  0x2206
 804fbad:	0f 97 05 07 22 00 00 	seta   0x2207
 804fbb4:	0f 98 05 08 22 00 00 	sets   0x2208
 804fbbb:	0f 99 05 09 22 00 00 	setns  0x2209
 804fbc2:	0f 9a 05 0a 22 00 00 	setp   0x220a
 804fbc9:	0f 9b 05 0b 22 00 00 	setnp  0x220b
 804fbd0:	0f 9c 05 0c 22 00 00 	setl   0x220c
 804fbd7:	0f 9d 05 0d 22 00 00 	setge  0x220d
 804fbde:	0f 9e 05 0e 22 00 00 	setle  0x220e
 804fbe5:	0f 9f 05 0f 22 00 00 	setg   0x220f
 804fbec:	66 9c                	pushfw 
 804fbee:	66 58                	pop    %ax
 804fbf0:	66 a3 00 21 00 00    	mov    %ax,0x2100
 804fbf6:	a1 50 20 00 00       	mov    0x2050,%eax
 804fbfb:	29 e0                	sub    %esp,%eax
 804fbfd:	a3 20 20 00 00       	mov    %eax,0x2020
 804fc02:	b8 00 00 00 00       	mov    $0x0,%eax
 804fc07:	c3                   	ret    

0804fc08 <cmov_w_with_code_6_mv_constant_complex1>:
 804fc08:	90                   	nop
 804fc09:	66 6a 00             	pushw  $0x0
 804fc0c:	66 9d                	popfw  
 804fc0e:	b8 84 79 b1 a3       	mov    $0xa3b17984,%eax
 804fc13:	bb d7 1a 67 06       	mov    $0x6671ad7,%ebx
 804fc18:	b9 48 52 68 46       	mov    $0x46685248,%ecx
 804fc1d:	ba c4 56 24 39       	mov    $0x392456c4,%edx
 804fc22:	bd a4 60 89 bc       	mov    $0xbc8960a4,%ebp
 804fc27:	be 78 2d 3c ad       	mov    $0xad3c2d78,%esi
 804fc2c:	bf 52 e1 65 e4       	mov    $0xe465e152,%edi
 804fc31:	89 25 50 20 00 00    	mov    %esp,0x2050
 804fc37:	3c 02                	cmp    $0x2,%al
 804fc39:	66 0f 46 d8          	cmovbe %ax,%bx
 804fc3d:	a3 00 20 00 00       	mov    %eax,0x2000
 804fc42:	89 1d 04 20 00 00    	mov    %ebx,0x2004
 804fc48:	89 0d 08 20 00 00    	mov    %ecx,0x2008
 804fc4e:	89 15 0c 20 00 00    	mov    %edx,0x200c
 804fc54:	89 2d 10 20 00 00    	mov    %ebp,0x2010
 804fc5a:	89 35 14 20 00 00    	mov    %esi,0x2014
 804fc60:	89 3d 18 20 00 00    	mov    %edi,0x2018
 804fc66:	0f 90 05 00 22 00 00 	seto   0x2200
 804fc6d:	0f 91 05 01 22 00 00 	setno  0x2201
 804fc74:	0f 92 05 02 22 00 00 	setb   0x2202
 804fc7b:	0f 93 05 03 22 00 00 	setae  0x2203
 804fc82:	0f 94 05 04 22 00 00 	sete   0x2204
 804fc89:	0f 95 05 05 22 00 00 	setne  0x2205
 804fc90:	0f 96 05 06 22 00 00 	setbe  0x2206
 804fc97:	0f 97 05 07 22 00 00 	seta   0x2207
 804fc9e:	0f 98 05 08 22 00 00 	sets   0x2208
 804fca5:	0f 99 05 09 22 00 00 	setns  0x2209
 804fcac:	0f 9a 05 0a 22 00 00 	setp   0x220a
 804fcb3:	0f 9b 05 0b 22 00 00 	setnp  0x220b
 804fcba:	0f 9c 05 0c 22 00 00 	setl   0x220c
 804fcc1:	0f 9d 05 0d 22 00 00 	setge  0x220d
 804fcc8:	0f 9e 05 0e 22 00 00 	setle  0x220e
 804fccf:	0f 9f 05 0f 22 00 00 	setg   0x220f
 804fcd6:	66 9c                	pushfw 
 804fcd8:	66 58                	pop    %ax
 804fcda:	66 a3 00 21 00 00    	mov    %ax,0x2100
 804fce0:	a1 50 20 00 00       	mov    0x2050,%eax
 804fce5:	29 e0                	sub    %esp,%eax
 804fce7:	a3 20 20 00 00       	mov    %eax,0x2020
 804fcec:	b8 00 00 00 00       	mov    $0x0,%eax
 804fcf1:	c3                   	ret    

0804fcf2 <cmov_w_with_code_6_mv_constant_complex2>:
 804fcf2:	90                   	nop
 804fcf3:	66 68 ff fe          	pushw  $0xfeff
 804fcf7:	66 9d                	popfw  
 804fcf9:	b8 e8 c0 3e 31       	mov    $0x313ec0e8,%eax
 804fcfe:	bb c3 81 6e 49       	mov    $0x496e81c3,%ebx
 804fd03:	b9 b2 6c 3f 1e       	mov    $0x1e3f6cb2,%ecx
 804fd08:	ba b3 25 69 4e       	mov    $0x4e6925b3,%edx
 804fd0d:	bd 10 26 31 4f       	mov    $0x4f312610,%ebp
 804fd12:	be a5 a4 37 2f       	mov    $0x2f37a4a5,%esi
 804fd17:	bf b4 17 a9 91       	mov    $0x91a917b4,%edi
 804fd1c:	89 25 50 20 00 00    	mov    %esp,0x2050
 804fd22:	3c 02                	cmp    $0x2,%al
 804fd24:	66 0f 46 d8          	cmovbe %ax,%bx
 804fd28:	a3 00 20 00 00       	mov    %eax,0x2000
 804fd2d:	89 1d 04 20 00 00    	mov    %ebx,0x2004
 804fd33:	89 0d 08 20 00 00    	mov    %ecx,0x2008
 804fd39:	89 15 0c 20 00 00    	mov    %edx,0x200c
 804fd3f:	89 2d 10 20 00 00    	mov    %ebp,0x2010
 804fd45:	89 35 14 20 00 00    	mov    %esi,0x2014
 804fd4b:	89 3d 18 20 00 00    	mov    %edi,0x2018
 804fd51:	0f 90 05 00 22 00 00 	seto   0x2200
 804fd58:	0f 91 05 01 22 00 00 	setno  0x2201
 804fd5f:	0f 92 05 02 22 00 00 	setb   0x2202
 804fd66:	0f 93 05 03 22 00 00 	setae  0x2203
 804fd6d:	0f 94 05 04 22 00 00 	sete   0x2204
 804fd74:	0f 95 05 05 22 00 00 	setne  0x2205
 804fd7b:	0f 96 05 06 22 00 00 	setbe  0x2206
 804fd82:	0f 97 05 07 22 00 00 	seta   0x2207
 804fd89:	0f 98 05 08 22 00 00 	sets   0x2208
 804fd90:	0f 99 05 09 22 00 00 	setns  0x2209
 804fd97:	0f 9a 05 0a 22 00 00 	setp   0x220a
 804fd9e:	0f 9b 05 0b 22 00 00 	setnp  0x220b
 804fda5:	0f 9c 05 0c 22 00 00 	setl   0x220c
 804fdac:	0f 9d 05 0d 22 00 00 	setge  0x220d
 804fdb3:	0f 9e 05 0e 22 00 00 	setle  0x220e
 804fdba:	0f 9f 05 0f 22 00 00 	setg   0x220f
 804fdc1:	66 9c                	pushfw 
 804fdc3:	66 58                	pop    %ax
 804fdc5:	66 a3 00 21 00 00    	mov    %ax,0x2100
 804fdcb:	a1 50 20 00 00       	mov    0x2050,%eax
 804fdd0:	29 e0                	sub    %esp,%eax
 804fdd2:	a3 20 20 00 00       	mov    %eax,0x2020
 804fdd7:	b8 00 00 00 00       	mov    $0x0,%eax
 804fddc:	c3                   	ret    

0804fddd <cmov_w_with_code_7_mv_plain>:
 804fddd:	3c 02                	cmp    $0x2,%al
 804fddf:	66 0f 47 d8          	cmova  %ax,%bx
 804fde3:	b8 00 00 00 00       	mov    $0x0,%eax
 804fde8:	c3                   	ret    

0804fde9 <cmov_w_with_code_7_mv_allregs>:
 804fde9:	90                   	nop
 804fdea:	66 a1 00 11 00 00    	mov    0x1100,%ax
 804fdf0:	66 50                	push   %ax
 804fdf2:	66 9d                	popfw  
 804fdf4:	a1 00 10 00 00       	mov    0x1000,%eax
 804fdf9:	8b 1d 04 10 00 00    	mov    0x1004,%ebx
 804fdff:	8b 0d 08 10 00 00    	mov    0x1008,%ecx
 804fe05:	8b 15 0c 10 00 00    	mov    0x100c,%edx
 804fe0b:	8b 2d 10 10 00 00    	mov    0x1010,%ebp
 804fe11:	8b 35 14 10 00 00    	mov    0x1014,%esi
 804fe17:	8b 3d 18 10 00 00    	mov    0x1018,%edi
 804fe1d:	89 25 50 20 00 00    	mov    %esp,0x2050
 804fe23:	3c 02                	cmp    $0x2,%al
 804fe25:	66 0f 47 d8          	cmova  %ax,%bx
 804fe29:	a3 00 20 00 00       	mov    %eax,0x2000
 804fe2e:	89 1d 04 20 00 00    	mov    %ebx,0x2004
 804fe34:	89 0d 08 20 00 00    	mov    %ecx,0x2008
 804fe3a:	89 15 0c 20 00 00    	mov    %edx,0x200c
 804fe40:	89 2d 10 20 00 00    	mov    %ebp,0x2010
 804fe46:	89 35 14 20 00 00    	mov    %esi,0x2014
 804fe4c:	89 3d 18 20 00 00    	mov    %edi,0x2018
 804fe52:	0f 90 05 00 22 00 00 	seto   0x2200
 804fe59:	0f 91 05 01 22 00 00 	setno  0x2201
 804fe60:	0f 92 05 02 22 00 00 	setb   0x2202
 804fe67:	0f 93 05 03 22 00 00 	setae  0x2203
 804fe6e:	0f 94 05 04 22 00 00 	sete   0x2204
 804fe75:	0f 95 05 05 22 00 00 	setne  0x2205
 804fe7c:	0f 96 05 06 22 00 00 	setbe  0x2206
 804fe83:	0f 97 05 07 22 00 00 	seta   0x2207
 804fe8a:	0f 98 05 08 22 00 00 	sets   0x2208
 804fe91:	0f 99 05 09 22 00 00 	setns  0x2209
 804fe98:	0f 9a 05 0a 22 00 00 	setp   0x220a
 804fe9f:	0f 9b 05 0b 22 00 00 	setnp  0x220b
 804fea6:	0f 9c 05 0c 22 00 00 	setl   0x220c
 804fead:	0f 9d 05 0d 22 00 00 	setge  0x220d
 804feb4:	0f 9e 05 0e 22 00 00 	setle  0x220e
 804febb:	0f 9f 05 0f 22 00 00 	setg   0x220f
 804fec2:	66 9c                	pushfw 
 804fec4:	66 58                	pop    %ax
 804fec6:	66 a3 00 21 00 00    	mov    %ax,0x2100
 804fecc:	a1 50 20 00 00       	mov    0x2050,%eax
 804fed1:	29 e0                	sub    %esp,%eax
 804fed3:	a3 20 20 00 00       	mov    %eax,0x2020
 804fed8:	b8 00 00 00 00       	mov    $0x0,%eax
 804fedd:	c3                   	ret    

0804fede <cmov_w_with_code_7_mv_constant_simple>:
 804fede:	90                   	nop
 804fedf:	66 6a 00             	pushw  $0x0
 804fee2:	66 9d                	popfw  
 804fee4:	b8 02 00 00 00       	mov    $0x2,%eax
 804fee9:	bb 03 00 00 00       	mov    $0x3,%ebx
 804feee:	b9 04 00 00 00       	mov    $0x4,%ecx
 804fef3:	ba 05 00 00 00       	mov    $0x5,%edx
 804fef8:	bd 06 00 00 00       	mov    $0x6,%ebp
 804fefd:	be 07 00 00 00       	mov    $0x7,%esi
 804ff02:	bf 08 00 00 00       	mov    $0x8,%edi
 804ff07:	89 25 50 20 00 00    	mov    %esp,0x2050
 804ff0d:	3c 02                	cmp    $0x2,%al
 804ff0f:	66 0f 47 d8          	cmova  %ax,%bx
 804ff13:	a3 00 20 00 00       	mov    %eax,0x2000
 804ff18:	89 1d 04 20 00 00    	mov    %ebx,0x2004
 804ff1e:	89 0d 08 20 00 00    	mov    %ecx,0x2008
 804ff24:	89 15 0c 20 00 00    	mov    %edx,0x200c
 804ff2a:	89 2d 10 20 00 00    	mov    %ebp,0x2010
 804ff30:	89 35 14 20 00 00    	mov    %esi,0x2014
 804ff36:	89 3d 18 20 00 00    	mov    %edi,0x2018
 804ff3c:	0f 90 05 00 22 00 00 	seto   0x2200
 804ff43:	0f 91 05 01 22 00 00 	setno  0x2201
 804ff4a:	0f 92 05 02 22 00 00 	setb   0x2202
 804ff51:	0f 93 05 03 22 00 00 	setae  0x2203
 804ff58:	0f 94 05 04 22 00 00 	sete   0x2204
 804ff5f:	0f 95 05 05 22 00 00 	setne  0x2205
 804ff66:	0f 96 05 06 22 00 00 	setbe  0x2206
 804ff6d:	0f 97 05 07 22 00 00 	seta   0x2207
 804ff74:	0f 98 05 08 22 00 00 	sets   0x2208
 804ff7b:	0f 99 05 09 22 00 00 	setns  0x2209
 804ff82:	0f 9a 05 0a 22 00 00 	setp   0x220a
 804ff89:	0f 9b 05 0b 22 00 00 	setnp  0x220b
 804ff90:	0f 9c 05 0c 22 00 00 	setl   0x220c
 804ff97:	0f 9d 05 0d 22 00 00 	setge  0x220d
 804ff9e:	0f 9e 05 0e 22 00 00 	setle  0x220e
 804ffa5:	0f 9f 05 0f 22 00 00 	setg   0x220f
 804ffac:	66 9c                	pushfw 
 804ffae:	66 58                	pop    %ax
 804ffb0:	66 a3 00 21 00 00    	mov    %ax,0x2100
 804ffb6:	a1 50 20 00 00       	mov    0x2050,%eax
 804ffbb:	29 e0                	sub    %esp,%eax
 804ffbd:	a3 20 20 00 00       	mov    %eax,0x2020
 804ffc2:	b8 00 00 00 00       	mov    $0x0,%eax
 804ffc7:	c3                   	ret    

0804ffc8 <cmov_w_with_code_7_mv_constant_complex1>:
 804ffc8:	90                   	nop
 804ffc9:	66 6a 00             	pushw  $0x0
 804ffcc:	66 9d                	popfw  
 804ffce:	b8 84 79 b1 a3       	mov    $0xa3b17984,%eax
 804ffd3:	bb d7 1a 67 06       	mov    $0x6671ad7,%ebx
 804ffd8:	b9 48 52 68 46       	mov    $0x46685248,%ecx
 804ffdd:	ba c4 56 24 39       	mov    $0x392456c4,%edx
 804ffe2:	bd a4 60 89 bc       	mov    $0xbc8960a4,%ebp
 804ffe7:	be 78 2d 3c ad       	mov    $0xad3c2d78,%esi
 804ffec:	bf 52 e1 65 e4       	mov    $0xe465e152,%edi
 804fff1:	89 25 50 20 00 00    	mov    %esp,0x2050
 804fff7:	3c 02                	cmp    $0x2,%al
 804fff9:	66 0f 47 d8          	cmova  %ax,%bx
 804fffd:	a3 00 20 00 00       	mov    %eax,0x2000
 8050002:	89 1d 04 20 00 00    	mov    %ebx,0x2004
 8050008:	89 0d 08 20 00 00    	mov    %ecx,0x2008
 805000e:	89 15 0c 20 00 00    	mov    %edx,0x200c
 8050014:	89 2d 10 20 00 00    	mov    %ebp,0x2010
 805001a:	89 35 14 20 00 00    	mov    %esi,0x2014
 8050020:	89 3d 18 20 00 00    	mov    %edi,0x2018
 8050026:	0f 90 05 00 22 00 00 	seto   0x2200
 805002d:	0f 91 05 01 22 00 00 	setno  0x2201
 8050034:	0f 92 05 02 22 00 00 	setb   0x2202
 805003b:	0f 93 05 03 22 00 00 	setae  0x2203
 8050042:	0f 94 05 04 22 00 00 	sete   0x2204
 8050049:	0f 95 05 05 22 00 00 	setne  0x2205
 8050050:	0f 96 05 06 22 00 00 	setbe  0x2206
 8050057:	0f 97 05 07 22 00 00 	seta   0x2207
 805005e:	0f 98 05 08 22 00 00 	sets   0x2208
 8050065:	0f 99 05 09 22 00 00 	setns  0x2209
 805006c:	0f 9a 05 0a 22 00 00 	setp   0x220a
 8050073:	0f 9b 05 0b 22 00 00 	setnp  0x220b
 805007a:	0f 9c 05 0c 22 00 00 	setl   0x220c
 8050081:	0f 9d 05 0d 22 00 00 	setge  0x220d
 8050088:	0f 9e 05 0e 22 00 00 	setle  0x220e
 805008f:	0f 9f 05 0f 22 00 00 	setg   0x220f
 8050096:	66 9c                	pushfw 
 8050098:	66 58                	pop    %ax
 805009a:	66 a3 00 21 00 00    	mov    %ax,0x2100
 80500a0:	a1 50 20 00 00       	mov    0x2050,%eax
 80500a5:	29 e0                	sub    %esp,%eax
 80500a7:	a3 20 20 00 00       	mov    %eax,0x2020
 80500ac:	b8 00 00 00 00       	mov    $0x0,%eax
 80500b1:	c3                   	ret    

080500b2 <cmov_w_with_code_7_mv_constant_complex2>:
 80500b2:	90                   	nop
 80500b3:	66 68 ff fe          	pushw  $0xfeff
 80500b7:	66 9d                	popfw  
 80500b9:	b8 e8 c0 3e 31       	mov    $0x313ec0e8,%eax
 80500be:	bb c3 81 6e 49       	mov    $0x496e81c3,%ebx
 80500c3:	b9 b2 6c 3f 1e       	mov    $0x1e3f6cb2,%ecx
 80500c8:	ba b3 25 69 4e       	mov    $0x4e6925b3,%edx
 80500cd:	bd 10 26 31 4f       	mov    $0x4f312610,%ebp
 80500d2:	be a5 a4 37 2f       	mov    $0x2f37a4a5,%esi
 80500d7:	bf b4 17 a9 91       	mov    $0x91a917b4,%edi
 80500dc:	89 25 50 20 00 00    	mov    %esp,0x2050
 80500e2:	3c 02                	cmp    $0x2,%al
 80500e4:	66 0f 47 d8          	cmova  %ax,%bx
 80500e8:	a3 00 20 00 00       	mov    %eax,0x2000
 80500ed:	89 1d 04 20 00 00    	mov    %ebx,0x2004
 80500f3:	89 0d 08 20 00 00    	mov    %ecx,0x2008
 80500f9:	89 15 0c 20 00 00    	mov    %edx,0x200c
 80500ff:	89 2d 10 20 00 00    	mov    %ebp,0x2010
 8050105:	89 35 14 20 00 00    	mov    %esi,0x2014
 805010b:	89 3d 18 20 00 00    	mov    %edi,0x2018
 8050111:	0f 90 05 00 22 00 00 	seto   0x2200
 8050118:	0f 91 05 01 22 00 00 	setno  0x2201
 805011f:	0f 92 05 02 22 00 00 	setb   0x2202
 8050126:	0f 93 05 03 22 00 00 	setae  0x2203
 805012d:	0f 94 05 04 22 00 00 	sete   0x2204
 8050134:	0f 95 05 05 22 00 00 	setne  0x2205
 805013b:	0f 96 05 06 22 00 00 	setbe  0x2206
 8050142:	0f 97 05 07 22 00 00 	seta   0x2207
 8050149:	0f 98 05 08 22 00 00 	sets   0x2208
 8050150:	0f 99 05 09 22 00 00 	setns  0x2209
 8050157:	0f 9a 05 0a 22 00 00 	setp   0x220a
 805015e:	0f 9b 05 0b 22 00 00 	setnp  0x220b
 8050165:	0f 9c 05 0c 22 00 00 	setl   0x220c
 805016c:	0f 9d 05 0d 22 00 00 	setge  0x220d
 8050173:	0f 9e 05 0e 22 00 00 	setle  0x220e
 805017a:	0f 9f 05 0f 22 00 00 	setg   0x220f
 8050181:	66 9c                	pushfw 
 8050183:	66 58                	pop    %ax
 8050185:	66 a3 00 21 00 00    	mov    %ax,0x2100
 805018b:	a1 50 20 00 00       	mov    0x2050,%eax
 8050190:	29 e0                	sub    %esp,%eax
 8050192:	a3 20 20 00 00       	mov    %eax,0x2020
 8050197:	b8 00 00 00 00       	mov    $0x0,%eax
 805019c:	c3                   	ret    

0805019d <cmov_w_with_code_8_mv_plain>:
 805019d:	3c 02                	cmp    $0x2,%al
 805019f:	66 0f 48 d8          	cmovs  %ax,%bx
 80501a3:	b8 00 00 00 00       	mov    $0x0,%eax
 80501a8:	c3                   	ret    

080501a9 <cmov_w_with_code_8_mv_allregs>:
 80501a9:	90                   	nop
 80501aa:	66 a1 00 11 00 00    	mov    0x1100,%ax
 80501b0:	66 50                	push   %ax
 80501b2:	66 9d                	popfw  
 80501b4:	a1 00 10 00 00       	mov    0x1000,%eax
 80501b9:	8b 1d 04 10 00 00    	mov    0x1004,%ebx
 80501bf:	8b 0d 08 10 00 00    	mov    0x1008,%ecx
 80501c5:	8b 15 0c 10 00 00    	mov    0x100c,%edx
 80501cb:	8b 2d 10 10 00 00    	mov    0x1010,%ebp
 80501d1:	8b 35 14 10 00 00    	mov    0x1014,%esi
 80501d7:	8b 3d 18 10 00 00    	mov    0x1018,%edi
 80501dd:	89 25 50 20 00 00    	mov    %esp,0x2050
 80501e3:	3c 02                	cmp    $0x2,%al
 80501e5:	66 0f 48 d8          	cmovs  %ax,%bx
 80501e9:	a3 00 20 00 00       	mov    %eax,0x2000
 80501ee:	89 1d 04 20 00 00    	mov    %ebx,0x2004
 80501f4:	89 0d 08 20 00 00    	mov    %ecx,0x2008
 80501fa:	89 15 0c 20 00 00    	mov    %edx,0x200c
 8050200:	89 2d 10 20 00 00    	mov    %ebp,0x2010
 8050206:	89 35 14 20 00 00    	mov    %esi,0x2014
 805020c:	89 3d 18 20 00 00    	mov    %edi,0x2018
 8050212:	0f 90 05 00 22 00 00 	seto   0x2200
 8050219:	0f 91 05 01 22 00 00 	setno  0x2201
 8050220:	0f 92 05 02 22 00 00 	setb   0x2202
 8050227:	0f 93 05 03 22 00 00 	setae  0x2203
 805022e:	0f 94 05 04 22 00 00 	sete   0x2204
 8050235:	0f 95 05 05 22 00 00 	setne  0x2205
 805023c:	0f 96 05 06 22 00 00 	setbe  0x2206
 8050243:	0f 97 05 07 22 00 00 	seta   0x2207
 805024a:	0f 98 05 08 22 00 00 	sets   0x2208
 8050251:	0f 99 05 09 22 00 00 	setns  0x2209
 8050258:	0f 9a 05 0a 22 00 00 	setp   0x220a
 805025f:	0f 9b 05 0b 22 00 00 	setnp  0x220b
 8050266:	0f 9c 05 0c 22 00 00 	setl   0x220c
 805026d:	0f 9d 05 0d 22 00 00 	setge  0x220d
 8050274:	0f 9e 05 0e 22 00 00 	setle  0x220e
 805027b:	0f 9f 05 0f 22 00 00 	setg   0x220f
 8050282:	66 9c                	pushfw 
 8050284:	66 58                	pop    %ax
 8050286:	66 a3 00 21 00 00    	mov    %ax,0x2100
 805028c:	a1 50 20 00 00       	mov    0x2050,%eax
 8050291:	29 e0                	sub    %esp,%eax
 8050293:	a3 20 20 00 00       	mov    %eax,0x2020
 8050298:	b8 00 00 00 00       	mov    $0x0,%eax
 805029d:	c3                   	ret    

0805029e <cmov_w_with_code_8_mv_constant_simple>:
 805029e:	90                   	nop
 805029f:	66 6a 00             	pushw  $0x0
 80502a2:	66 9d                	popfw  
 80502a4:	b8 02 00 00 00       	mov    $0x2,%eax
 80502a9:	bb 03 00 00 00       	mov    $0x3,%ebx
 80502ae:	b9 04 00 00 00       	mov    $0x4,%ecx
 80502b3:	ba 05 00 00 00       	mov    $0x5,%edx
 80502b8:	bd 06 00 00 00       	mov    $0x6,%ebp
 80502bd:	be 07 00 00 00       	mov    $0x7,%esi
 80502c2:	bf 08 00 00 00       	mov    $0x8,%edi
 80502c7:	89 25 50 20 00 00    	mov    %esp,0x2050
 80502cd:	3c 02                	cmp    $0x2,%al
 80502cf:	66 0f 48 d8          	cmovs  %ax,%bx
 80502d3:	a3 00 20 00 00       	mov    %eax,0x2000
 80502d8:	89 1d 04 20 00 00    	mov    %ebx,0x2004
 80502de:	89 0d 08 20 00 00    	mov    %ecx,0x2008
 80502e4:	89 15 0c 20 00 00    	mov    %edx,0x200c
 80502ea:	89 2d 10 20 00 00    	mov    %ebp,0x2010
 80502f0:	89 35 14 20 00 00    	mov    %esi,0x2014
 80502f6:	89 3d 18 20 00 00    	mov    %edi,0x2018
 80502fc:	0f 90 05 00 22 00 00 	seto   0x2200
 8050303:	0f 91 05 01 22 00 00 	setno  0x2201
 805030a:	0f 92 05 02 22 00 00 	setb   0x2202
 8050311:	0f 93 05 03 22 00 00 	setae  0x2203
 8050318:	0f 94 05 04 22 00 00 	sete   0x2204
 805031f:	0f 95 05 05 22 00 00 	setne  0x2205
 8050326:	0f 96 05 06 22 00 00 	setbe  0x2206
 805032d:	0f 97 05 07 22 00 00 	seta   0x2207
 8050334:	0f 98 05 08 22 00 00 	sets   0x2208
 805033b:	0f 99 05 09 22 00 00 	setns  0x2209
 8050342:	0f 9a 05 0a 22 00 00 	setp   0x220a
 8050349:	0f 9b 05 0b 22 00 00 	setnp  0x220b
 8050350:	0f 9c 05 0c 22 00 00 	setl   0x220c
 8050357:	0f 9d 05 0d 22 00 00 	setge  0x220d
 805035e:	0f 9e 05 0e 22 00 00 	setle  0x220e
 8050365:	0f 9f 05 0f 22 00 00 	setg   0x220f
 805036c:	66 9c                	pushfw 
 805036e:	66 58                	pop    %ax
 8050370:	66 a3 00 21 00 00    	mov    %ax,0x2100
 8050376:	a1 50 20 00 00       	mov    0x2050,%eax
 805037b:	29 e0                	sub    %esp,%eax
 805037d:	a3 20 20 00 00       	mov    %eax,0x2020
 8050382:	b8 00 00 00 00       	mov    $0x0,%eax
 8050387:	c3                   	ret    

08050388 <cmov_w_with_code_8_mv_constant_complex1>:
 8050388:	90                   	nop
 8050389:	66 6a 00             	pushw  $0x0
 805038c:	66 9d                	popfw  
 805038e:	b8 84 79 b1 a3       	mov    $0xa3b17984,%eax
 8050393:	bb d7 1a 67 06       	mov    $0x6671ad7,%ebx
 8050398:	b9 48 52 68 46       	mov    $0x46685248,%ecx
 805039d:	ba c4 56 24 39       	mov    $0x392456c4,%edx
 80503a2:	bd a4 60 89 bc       	mov    $0xbc8960a4,%ebp
 80503a7:	be 78 2d 3c ad       	mov    $0xad3c2d78,%esi
 80503ac:	bf 52 e1 65 e4       	mov    $0xe465e152,%edi
 80503b1:	89 25 50 20 00 00    	mov    %esp,0x2050
 80503b7:	3c 02                	cmp    $0x2,%al
 80503b9:	66 0f 48 d8          	cmovs  %ax,%bx
 80503bd:	a3 00 20 00 00       	mov    %eax,0x2000
 80503c2:	89 1d 04 20 00 00    	mov    %ebx,0x2004
 80503c8:	89 0d 08 20 00 00    	mov    %ecx,0x2008
 80503ce:	89 15 0c 20 00 00    	mov    %edx,0x200c
 80503d4:	89 2d 10 20 00 00    	mov    %ebp,0x2010
 80503da:	89 35 14 20 00 00    	mov    %esi,0x2014
 80503e0:	89 3d 18 20 00 00    	mov    %edi,0x2018
 80503e6:	0f 90 05 00 22 00 00 	seto   0x2200
 80503ed:	0f 91 05 01 22 00 00 	setno  0x2201
 80503f4:	0f 92 05 02 22 00 00 	setb   0x2202
 80503fb:	0f 93 05 03 22 00 00 	setae  0x2203
 8050402:	0f 94 05 04 22 00 00 	sete   0x2204
 8050409:	0f 95 05 05 22 00 00 	setne  0x2205
 8050410:	0f 96 05 06 22 00 00 	setbe  0x2206
 8050417:	0f 97 05 07 22 00 00 	seta   0x2207
 805041e:	0f 98 05 08 22 00 00 	sets   0x2208
 8050425:	0f 99 05 09 22 00 00 	setns  0x2209
 805042c:	0f 9a 05 0a 22 00 00 	setp   0x220a
 8050433:	0f 9b 05 0b 22 00 00 	setnp  0x220b
 805043a:	0f 9c 05 0c 22 00 00 	setl   0x220c
 8050441:	0f 9d 05 0d 22 00 00 	setge  0x220d
 8050448:	0f 9e 05 0e 22 00 00 	setle  0x220e
 805044f:	0f 9f 05 0f 22 00 00 	setg   0x220f
 8050456:	66 9c                	pushfw 
 8050458:	66 58                	pop    %ax
 805045a:	66 a3 00 21 00 00    	mov    %ax,0x2100
 8050460:	a1 50 20 00 00       	mov    0x2050,%eax
 8050465:	29 e0                	sub    %esp,%eax
 8050467:	a3 20 20 00 00       	mov    %eax,0x2020
 805046c:	b8 00 00 00 00       	mov    $0x0,%eax
 8050471:	c3                   	ret    

08050472 <cmov_w_with_code_8_mv_constant_complex2>:
 8050472:	90                   	nop
 8050473:	66 68 ff fe          	pushw  $0xfeff
 8050477:	66 9d                	popfw  
 8050479:	b8 e8 c0 3e 31       	mov    $0x313ec0e8,%eax
 805047e:	bb c3 81 6e 49       	mov    $0x496e81c3,%ebx
 8050483:	b9 b2 6c 3f 1e       	mov    $0x1e3f6cb2,%ecx
 8050488:	ba b3 25 69 4e       	mov    $0x4e6925b3,%edx
 805048d:	bd 10 26 31 4f       	mov    $0x4f312610,%ebp
 8050492:	be a5 a4 37 2f       	mov    $0x2f37a4a5,%esi
 8050497:	bf b4 17 a9 91       	mov    $0x91a917b4,%edi
 805049c:	89 25 50 20 00 00    	mov    %esp,0x2050
 80504a2:	3c 02                	cmp    $0x2,%al
 80504a4:	66 0f 48 d8          	cmovs  %ax,%bx
 80504a8:	a3 00 20 00 00       	mov    %eax,0x2000
 80504ad:	89 1d 04 20 00 00    	mov    %ebx,0x2004
 80504b3:	89 0d 08 20 00 00    	mov    %ecx,0x2008
 80504b9:	89 15 0c 20 00 00    	mov    %edx,0x200c
 80504bf:	89 2d 10 20 00 00    	mov    %ebp,0x2010
 80504c5:	89 35 14 20 00 00    	mov    %esi,0x2014
 80504cb:	89 3d 18 20 00 00    	mov    %edi,0x2018
 80504d1:	0f 90 05 00 22 00 00 	seto   0x2200
 80504d8:	0f 91 05 01 22 00 00 	setno  0x2201
 80504df:	0f 92 05 02 22 00 00 	setb   0x2202
 80504e6:	0f 93 05 03 22 00 00 	setae  0x2203
 80504ed:	0f 94 05 04 22 00 00 	sete   0x2204
 80504f4:	0f 95 05 05 22 00 00 	setne  0x2205
 80504fb:	0f 96 05 06 22 00 00 	setbe  0x2206
 8050502:	0f 97 05 07 22 00 00 	seta   0x2207
 8050509:	0f 98 05 08 22 00 00 	sets   0x2208
 8050510:	0f 99 05 09 22 00 00 	setns  0x2209
 8050517:	0f 9a 05 0a 22 00 00 	setp   0x220a
 805051e:	0f 9b 05 0b 22 00 00 	setnp  0x220b
 8050525:	0f 9c 05 0c 22 00 00 	setl   0x220c
 805052c:	0f 9d 05 0d 22 00 00 	setge  0x220d
 8050533:	0f 9e 05 0e 22 00 00 	setle  0x220e
 805053a:	0f 9f 05 0f 22 00 00 	setg   0x220f
 8050541:	66 9c                	pushfw 
 8050543:	66 58                	pop    %ax
 8050545:	66 a3 00 21 00 00    	mov    %ax,0x2100
 805054b:	a1 50 20 00 00       	mov    0x2050,%eax
 8050550:	29 e0                	sub    %esp,%eax
 8050552:	a3 20 20 00 00       	mov    %eax,0x2020
 8050557:	b8 00 00 00 00       	mov    $0x0,%eax
 805055c:	c3                   	ret    

0805055d <cmov_w_with_code_9_mv_plain>:
 805055d:	3c 02                	cmp    $0x2,%al
 805055f:	66 0f 49 d8          	cmovns %ax,%bx
 8050563:	b8 00 00 00 00       	mov    $0x0,%eax
 8050568:	c3                   	ret    

08050569 <cmov_w_with_code_9_mv_allregs>:
 8050569:	90                   	nop
 805056a:	66 a1 00 11 00 00    	mov    0x1100,%ax
 8050570:	66 50                	push   %ax
 8050572:	66 9d                	popfw  
 8050574:	a1 00 10 00 00       	mov    0x1000,%eax
 8050579:	8b 1d 04 10 00 00    	mov    0x1004,%ebx
 805057f:	8b 0d 08 10 00 00    	mov    0x1008,%ecx
 8050585:	8b 15 0c 10 00 00    	mov    0x100c,%edx
 805058b:	8b 2d 10 10 00 00    	mov    0x1010,%ebp
 8050591:	8b 35 14 10 00 00    	mov    0x1014,%esi
 8050597:	8b 3d 18 10 00 00    	mov    0x1018,%edi
 805059d:	89 25 50 20 00 00    	mov    %esp,0x2050
 80505a3:	3c 02                	cmp    $0x2,%al
 80505a5:	66 0f 49 d8          	cmovns %ax,%bx
 80505a9:	a3 00 20 00 00       	mov    %eax,0x2000
 80505ae:	89 1d 04 20 00 00    	mov    %ebx,0x2004
 80505b4:	89 0d 08 20 00 00    	mov    %ecx,0x2008
 80505ba:	89 15 0c 20 00 00    	mov    %edx,0x200c
 80505c0:	89 2d 10 20 00 00    	mov    %ebp,0x2010
 80505c6:	89 35 14 20 00 00    	mov    %esi,0x2014
 80505cc:	89 3d 18 20 00 00    	mov    %edi,0x2018
 80505d2:	0f 90 05 00 22 00 00 	seto   0x2200
 80505d9:	0f 91 05 01 22 00 00 	setno  0x2201
 80505e0:	0f 92 05 02 22 00 00 	setb   0x2202
 80505e7:	0f 93 05 03 22 00 00 	setae  0x2203
 80505ee:	0f 94 05 04 22 00 00 	sete   0x2204
 80505f5:	0f 95 05 05 22 00 00 	setne  0x2205
 80505fc:	0f 96 05 06 22 00 00 	setbe  0x2206
 8050603:	0f 97 05 07 22 00 00 	seta   0x2207
 805060a:	0f 98 05 08 22 00 00 	sets   0x2208
 8050611:	0f 99 05 09 22 00 00 	setns  0x2209
 8050618:	0f 9a 05 0a 22 00 00 	setp   0x220a
 805061f:	0f 9b 05 0b 22 00 00 	setnp  0x220b
 8050626:	0f 9c 05 0c 22 00 00 	setl   0x220c
 805062d:	0f 9d 05 0d 22 00 00 	setge  0x220d
 8050634:	0f 9e 05 0e 22 00 00 	setle  0x220e
 805063b:	0f 9f 05 0f 22 00 00 	setg   0x220f
 8050642:	66 9c                	pushfw 
 8050644:	66 58                	pop    %ax
 8050646:	66 a3 00 21 00 00    	mov    %ax,0x2100
 805064c:	a1 50 20 00 00       	mov    0x2050,%eax
 8050651:	29 e0                	sub    %esp,%eax
 8050653:	a3 20 20 00 00       	mov    %eax,0x2020
 8050658:	b8 00 00 00 00       	mov    $0x0,%eax
 805065d:	c3                   	ret    

0805065e <cmov_w_with_code_9_mv_constant_simple>:
 805065e:	90                   	nop
 805065f:	66 6a 00             	pushw  $0x0
 8050662:	66 9d                	popfw  
 8050664:	b8 02 00 00 00       	mov    $0x2,%eax
 8050669:	bb 03 00 00 00       	mov    $0x3,%ebx
 805066e:	b9 04 00 00 00       	mov    $0x4,%ecx
 8050673:	ba 05 00 00 00       	mov    $0x5,%edx
 8050678:	bd 06 00 00 00       	mov    $0x6,%ebp
 805067d:	be 07 00 00 00       	mov    $0x7,%esi
 8050682:	bf 08 00 00 00       	mov    $0x8,%edi
 8050687:	89 25 50 20 00 00    	mov    %esp,0x2050
 805068d:	3c 02                	cmp    $0x2,%al
 805068f:	66 0f 49 d8          	cmovns %ax,%bx
 8050693:	a3 00 20 00 00       	mov    %eax,0x2000
 8050698:	89 1d 04 20 00 00    	mov    %ebx,0x2004
 805069e:	89 0d 08 20 00 00    	mov    %ecx,0x2008
 80506a4:	89 15 0c 20 00 00    	mov    %edx,0x200c
 80506aa:	89 2d 10 20 00 00    	mov    %ebp,0x2010
 80506b0:	89 35 14 20 00 00    	mov    %esi,0x2014
 80506b6:	89 3d 18 20 00 00    	mov    %edi,0x2018
 80506bc:	0f 90 05 00 22 00 00 	seto   0x2200
 80506c3:	0f 91 05 01 22 00 00 	setno  0x2201
 80506ca:	0f 92 05 02 22 00 00 	setb   0x2202
 80506d1:	0f 93 05 03 22 00 00 	setae  0x2203
 80506d8:	0f 94 05 04 22 00 00 	sete   0x2204
 80506df:	0f 95 05 05 22 00 00 	setne  0x2205
 80506e6:	0f 96 05 06 22 00 00 	setbe  0x2206
 80506ed:	0f 97 05 07 22 00 00 	seta   0x2207
 80506f4:	0f 98 05 08 22 00 00 	sets   0x2208
 80506fb:	0f 99 05 09 22 00 00 	setns  0x2209
 8050702:	0f 9a 05 0a 22 00 00 	setp   0x220a
 8050709:	0f 9b 05 0b 22 00 00 	setnp  0x220b
 8050710:	0f 9c 05 0c 22 00 00 	setl   0x220c
 8050717:	0f 9d 05 0d 22 00 00 	setge  0x220d
 805071e:	0f 9e 05 0e 22 00 00 	setle  0x220e
 8050725:	0f 9f 05 0f 22 00 00 	setg   0x220f
 805072c:	66 9c                	pushfw 
 805072e:	66 58                	pop    %ax
 8050730:	66 a3 00 21 00 00    	mov    %ax,0x2100
 8050736:	a1 50 20 00 00       	mov    0x2050,%eax
 805073b:	29 e0                	sub    %esp,%eax
 805073d:	a3 20 20 00 00       	mov    %eax,0x2020
 8050742:	b8 00 00 00 00       	mov    $0x0,%eax
 8050747:	c3                   	ret    

08050748 <cmov_w_with_code_9_mv_constant_complex1>:
 8050748:	90                   	nop
 8050749:	66 6a 00             	pushw  $0x0
 805074c:	66 9d                	popfw  
 805074e:	b8 84 79 b1 a3       	mov    $0xa3b17984,%eax
 8050753:	bb d7 1a 67 06       	mov    $0x6671ad7,%ebx
 8050758:	b9 48 52 68 46       	mov    $0x46685248,%ecx
 805075d:	ba c4 56 24 39       	mov    $0x392456c4,%edx
 8050762:	bd a4 60 89 bc       	mov    $0xbc8960a4,%ebp
 8050767:	be 78 2d 3c ad       	mov    $0xad3c2d78,%esi
 805076c:	bf 52 e1 65 e4       	mov    $0xe465e152,%edi
 8050771:	89 25 50 20 00 00    	mov    %esp,0x2050
 8050777:	3c 02                	cmp    $0x2,%al
 8050779:	66 0f 49 d8          	cmovns %ax,%bx
 805077d:	a3 00 20 00 00       	mov    %eax,0x2000
 8050782:	89 1d 04 20 00 00    	mov    %ebx,0x2004
 8050788:	89 0d 08 20 00 00    	mov    %ecx,0x2008
 805078e:	89 15 0c 20 00 00    	mov    %edx,0x200c
 8050794:	89 2d 10 20 00 00    	mov    %ebp,0x2010
 805079a:	89 35 14 20 00 00    	mov    %esi,0x2014
 80507a0:	89 3d 18 20 00 00    	mov    %edi,0x2018
 80507a6:	0f 90 05 00 22 00 00 	seto   0x2200
 80507ad:	0f 91 05 01 22 00 00 	setno  0x2201
 80507b4:	0f 92 05 02 22 00 00 	setb   0x2202
 80507bb:	0f 93 05 03 22 00 00 	setae  0x2203
 80507c2:	0f 94 05 04 22 00 00 	sete   0x2204
 80507c9:	0f 95 05 05 22 00 00 	setne  0x2205
 80507d0:	0f 96 05 06 22 00 00 	setbe  0x2206
 80507d7:	0f 97 05 07 22 00 00 	seta   0x2207
 80507de:	0f 98 05 08 22 00 00 	sets   0x2208
 80507e5:	0f 99 05 09 22 00 00 	setns  0x2209
 80507ec:	0f 9a 05 0a 22 00 00 	setp   0x220a
 80507f3:	0f 9b 05 0b 22 00 00 	setnp  0x220b
 80507fa:	0f 9c 05 0c 22 00 00 	setl   0x220c
 8050801:	0f 9d 05 0d 22 00 00 	setge  0x220d
 8050808:	0f 9e 05 0e 22 00 00 	setle  0x220e
 805080f:	0f 9f 05 0f 22 00 00 	setg   0x220f
 8050816:	66 9c                	pushfw 
 8050818:	66 58                	pop    %ax
 805081a:	66 a3 00 21 00 00    	mov    %ax,0x2100
 8050820:	a1 50 20 00 00       	mov    0x2050,%eax
 8050825:	29 e0                	sub    %esp,%eax
 8050827:	a3 20 20 00 00       	mov    %eax,0x2020
 805082c:	b8 00 00 00 00       	mov    $0x0,%eax
 8050831:	c3                   	ret    

08050832 <cmov_w_with_code_9_mv_constant_complex2>:
 8050832:	90                   	nop
 8050833:	66 68 ff fe          	pushw  $0xfeff
 8050837:	66 9d                	popfw  
 8050839:	b8 e8 c0 3e 31       	mov    $0x313ec0e8,%eax
 805083e:	bb c3 81 6e 49       	mov    $0x496e81c3,%ebx
 8050843:	b9 b2 6c 3f 1e       	mov    $0x1e3f6cb2,%ecx
 8050848:	ba b3 25 69 4e       	mov    $0x4e6925b3,%edx
 805084d:	bd 10 26 31 4f       	mov    $0x4f312610,%ebp
 8050852:	be a5 a4 37 2f       	mov    $0x2f37a4a5,%esi
 8050857:	bf b4 17 a9 91       	mov    $0x91a917b4,%edi
 805085c:	89 25 50 20 00 00    	mov    %esp,0x2050
 8050862:	3c 02                	cmp    $0x2,%al
 8050864:	66 0f 49 d8          	cmovns %ax,%bx
 8050868:	a3 00 20 00 00       	mov    %eax,0x2000
 805086d:	89 1d 04 20 00 00    	mov    %ebx,0x2004
 8050873:	89 0d 08 20 00 00    	mov    %ecx,0x2008
 8050879:	89 15 0c 20 00 00    	mov    %edx,0x200c
 805087f:	89 2d 10 20 00 00    	mov    %ebp,0x2010
 8050885:	89 35 14 20 00 00    	mov    %esi,0x2014
 805088b:	89 3d 18 20 00 00    	mov    %edi,0x2018
 8050891:	0f 90 05 00 22 00 00 	seto   0x2200
 8050898:	0f 91 05 01 22 00 00 	setno  0x2201
 805089f:	0f 92 05 02 22 00 00 	setb   0x2202
 80508a6:	0f 93 05 03 22 00 00 	setae  0x2203
 80508ad:	0f 94 05 04 22 00 00 	sete   0x2204
 80508b4:	0f 95 05 05 22 00 00 	setne  0x2205
 80508bb:	0f 96 05 06 22 00 00 	setbe  0x2206
 80508c2:	0f 97 05 07 22 00 00 	seta   0x2207
 80508c9:	0f 98 05 08 22 00 00 	sets   0x2208
 80508d0:	0f 99 05 09 22 00 00 	setns  0x2209
 80508d7:	0f 9a 05 0a 22 00 00 	setp   0x220a
 80508de:	0f 9b 05 0b 22 00 00 	setnp  0x220b
 80508e5:	0f 9c 05 0c 22 00 00 	setl   0x220c
 80508ec:	0f 9d 05 0d 22 00 00 	setge  0x220d
 80508f3:	0f 9e 05 0e 22 00 00 	setle  0x220e
 80508fa:	0f 9f 05 0f 22 00 00 	setg   0x220f
 8050901:	66 9c                	pushfw 
 8050903:	66 58                	pop    %ax
 8050905:	66 a3 00 21 00 00    	mov    %ax,0x2100
 805090b:	a1 50 20 00 00       	mov    0x2050,%eax
 8050910:	29 e0                	sub    %esp,%eax
 8050912:	a3 20 20 00 00       	mov    %eax,0x2020
 8050917:	b8 00 00 00 00       	mov    $0x0,%eax
 805091c:	c3                   	ret    

0805091d <cmov_w_with_code_a_mv_plain>:
 805091d:	3c 02                	cmp    $0x2,%al
 805091f:	66 0f 4a d8          	cmovp  %ax,%bx
 8050923:	b8 00 00 00 00       	mov    $0x0,%eax
 8050928:	c3                   	ret    

08050929 <cmov_w_with_code_a_mv_allregs>:
 8050929:	90                   	nop
 805092a:	66 a1 00 11 00 00    	mov    0x1100,%ax
 8050930:	66 50                	push   %ax
 8050932:	66 9d                	popfw  
 8050934:	a1 00 10 00 00       	mov    0x1000,%eax
 8050939:	8b 1d 04 10 00 00    	mov    0x1004,%ebx
 805093f:	8b 0d 08 10 00 00    	mov    0x1008,%ecx
 8050945:	8b 15 0c 10 00 00    	mov    0x100c,%edx
 805094b:	8b 2d 10 10 00 00    	mov    0x1010,%ebp
 8050951:	8b 35 14 10 00 00    	mov    0x1014,%esi
 8050957:	8b 3d 18 10 00 00    	mov    0x1018,%edi
 805095d:	89 25 50 20 00 00    	mov    %esp,0x2050
 8050963:	3c 02                	cmp    $0x2,%al
 8050965:	66 0f 4a d8          	cmovp  %ax,%bx
 8050969:	a3 00 20 00 00       	mov    %eax,0x2000
 805096e:	89 1d 04 20 00 00    	mov    %ebx,0x2004
 8050974:	89 0d 08 20 00 00    	mov    %ecx,0x2008
 805097a:	89 15 0c 20 00 00    	mov    %edx,0x200c
 8050980:	89 2d 10 20 00 00    	mov    %ebp,0x2010
 8050986:	89 35 14 20 00 00    	mov    %esi,0x2014
 805098c:	89 3d 18 20 00 00    	mov    %edi,0x2018
 8050992:	0f 90 05 00 22 00 00 	seto   0x2200
 8050999:	0f 91 05 01 22 00 00 	setno  0x2201
 80509a0:	0f 92 05 02 22 00 00 	setb   0x2202
 80509a7:	0f 93 05 03 22 00 00 	setae  0x2203
 80509ae:	0f 94 05 04 22 00 00 	sete   0x2204
 80509b5:	0f 95 05 05 22 00 00 	setne  0x2205
 80509bc:	0f 96 05 06 22 00 00 	setbe  0x2206
 80509c3:	0f 97 05 07 22 00 00 	seta   0x2207
 80509ca:	0f 98 05 08 22 00 00 	sets   0x2208
 80509d1:	0f 99 05 09 22 00 00 	setns  0x2209
 80509d8:	0f 9a 05 0a 22 00 00 	setp   0x220a
 80509df:	0f 9b 05 0b 22 00 00 	setnp  0x220b
 80509e6:	0f 9c 05 0c 22 00 00 	setl   0x220c
 80509ed:	0f 9d 05 0d 22 00 00 	setge  0x220d
 80509f4:	0f 9e 05 0e 22 00 00 	setle  0x220e
 80509fb:	0f 9f 05 0f 22 00 00 	setg   0x220f
 8050a02:	66 9c                	pushfw 
 8050a04:	66 58                	pop    %ax
 8050a06:	66 a3 00 21 00 00    	mov    %ax,0x2100
 8050a0c:	a1 50 20 00 00       	mov    0x2050,%eax
 8050a11:	29 e0                	sub    %esp,%eax
 8050a13:	a3 20 20 00 00       	mov    %eax,0x2020
 8050a18:	b8 00 00 00 00       	mov    $0x0,%eax
 8050a1d:	c3                   	ret    

08050a1e <cmov_w_with_code_a_mv_constant_simple>:
 8050a1e:	90                   	nop
 8050a1f:	66 6a 00             	pushw  $0x0
 8050a22:	66 9d                	popfw  
 8050a24:	b8 02 00 00 00       	mov    $0x2,%eax
 8050a29:	bb 03 00 00 00       	mov    $0x3,%ebx
 8050a2e:	b9 04 00 00 00       	mov    $0x4,%ecx
 8050a33:	ba 05 00 00 00       	mov    $0x5,%edx
 8050a38:	bd 06 00 00 00       	mov    $0x6,%ebp
 8050a3d:	be 07 00 00 00       	mov    $0x7,%esi
 8050a42:	bf 08 00 00 00       	mov    $0x8,%edi
 8050a47:	89 25 50 20 00 00    	mov    %esp,0x2050
 8050a4d:	3c 02                	cmp    $0x2,%al
 8050a4f:	66 0f 4a d8          	cmovp  %ax,%bx
 8050a53:	a3 00 20 00 00       	mov    %eax,0x2000
 8050a58:	89 1d 04 20 00 00    	mov    %ebx,0x2004
 8050a5e:	89 0d 08 20 00 00    	mov    %ecx,0x2008
 8050a64:	89 15 0c 20 00 00    	mov    %edx,0x200c
 8050a6a:	89 2d 10 20 00 00    	mov    %ebp,0x2010
 8050a70:	89 35 14 20 00 00    	mov    %esi,0x2014
 8050a76:	89 3d 18 20 00 00    	mov    %edi,0x2018
 8050a7c:	0f 90 05 00 22 00 00 	seto   0x2200
 8050a83:	0f 91 05 01 22 00 00 	setno  0x2201
 8050a8a:	0f 92 05 02 22 00 00 	setb   0x2202
 8050a91:	0f 93 05 03 22 00 00 	setae  0x2203
 8050a98:	0f 94 05 04 22 00 00 	sete   0x2204
 8050a9f:	0f 95 05 05 22 00 00 	setne  0x2205
 8050aa6:	0f 96 05 06 22 00 00 	setbe  0x2206
 8050aad:	0f 97 05 07 22 00 00 	seta   0x2207
 8050ab4:	0f 98 05 08 22 00 00 	sets   0x2208
 8050abb:	0f 99 05 09 22 00 00 	setns  0x2209
 8050ac2:	0f 9a 05 0a 22 00 00 	setp   0x220a
 8050ac9:	0f 9b 05 0b 22 00 00 	setnp  0x220b
 8050ad0:	0f 9c 05 0c 22 00 00 	setl   0x220c
 8050ad7:	0f 9d 05 0d 22 00 00 	setge  0x220d
 8050ade:	0f 9e 05 0e 22 00 00 	setle  0x220e
 8050ae5:	0f 9f 05 0f 22 00 00 	setg   0x220f
 8050aec:	66 9c                	pushfw 
 8050aee:	66 58                	pop    %ax
 8050af0:	66 a3 00 21 00 00    	mov    %ax,0x2100
 8050af6:	a1 50 20 00 00       	mov    0x2050,%eax
 8050afb:	29 e0                	sub    %esp,%eax
 8050afd:	a3 20 20 00 00       	mov    %eax,0x2020
 8050b02:	b8 00 00 00 00       	mov    $0x0,%eax
 8050b07:	c3                   	ret    

08050b08 <cmov_w_with_code_a_mv_constant_complex1>:
 8050b08:	90                   	nop
 8050b09:	66 6a 00             	pushw  $0x0
 8050b0c:	66 9d                	popfw  
 8050b0e:	b8 84 79 b1 a3       	mov    $0xa3b17984,%eax
 8050b13:	bb d7 1a 67 06       	mov    $0x6671ad7,%ebx
 8050b18:	b9 48 52 68 46       	mov    $0x46685248,%ecx
 8050b1d:	ba c4 56 24 39       	mov    $0x392456c4,%edx
 8050b22:	bd a4 60 89 bc       	mov    $0xbc8960a4,%ebp
 8050b27:	be 78 2d 3c ad       	mov    $0xad3c2d78,%esi
 8050b2c:	bf 52 e1 65 e4       	mov    $0xe465e152,%edi
 8050b31:	89 25 50 20 00 00    	mov    %esp,0x2050
 8050b37:	3c 02                	cmp    $0x2,%al
 8050b39:	66 0f 4a d8          	cmovp  %ax,%bx
 8050b3d:	a3 00 20 00 00       	mov    %eax,0x2000
 8050b42:	89 1d 04 20 00 00    	mov    %ebx,0x2004
 8050b48:	89 0d 08 20 00 00    	mov    %ecx,0x2008
 8050b4e:	89 15 0c 20 00 00    	mov    %edx,0x200c
 8050b54:	89 2d 10 20 00 00    	mov    %ebp,0x2010
 8050b5a:	89 35 14 20 00 00    	mov    %esi,0x2014
 8050b60:	89 3d 18 20 00 00    	mov    %edi,0x2018
 8050b66:	0f 90 05 00 22 00 00 	seto   0x2200
 8050b6d:	0f 91 05 01 22 00 00 	setno  0x2201
 8050b74:	0f 92 05 02 22 00 00 	setb   0x2202
 8050b7b:	0f 93 05 03 22 00 00 	setae  0x2203
 8050b82:	0f 94 05 04 22 00 00 	sete   0x2204
 8050b89:	0f 95 05 05 22 00 00 	setne  0x2205
 8050b90:	0f 96 05 06 22 00 00 	setbe  0x2206
 8050b97:	0f 97 05 07 22 00 00 	seta   0x2207
 8050b9e:	0f 98 05 08 22 00 00 	sets   0x2208
 8050ba5:	0f 99 05 09 22 00 00 	setns  0x2209
 8050bac:	0f 9a 05 0a 22 00 00 	setp   0x220a
 8050bb3:	0f 9b 05 0b 22 00 00 	setnp  0x220b
 8050bba:	0f 9c 05 0c 22 00 00 	setl   0x220c
 8050bc1:	0f 9d 05 0d 22 00 00 	setge  0x220d
 8050bc8:	0f 9e 05 0e 22 00 00 	setle  0x220e
 8050bcf:	0f 9f 05 0f 22 00 00 	setg   0x220f
 8050bd6:	66 9c                	pushfw 
 8050bd8:	66 58                	pop    %ax
 8050bda:	66 a3 00 21 00 00    	mov    %ax,0x2100
 8050be0:	a1 50 20 00 00       	mov    0x2050,%eax
 8050be5:	29 e0                	sub    %esp,%eax
 8050be7:	a3 20 20 00 00       	mov    %eax,0x2020
 8050bec:	b8 00 00 00 00       	mov    $0x0,%eax
 8050bf1:	c3                   	ret    

08050bf2 <cmov_w_with_code_a_mv_constant_complex2>:
 8050bf2:	90                   	nop
 8050bf3:	66 68 ff fe          	pushw  $0xfeff
 8050bf7:	66 9d                	popfw  
 8050bf9:	b8 e8 c0 3e 31       	mov    $0x313ec0e8,%eax
 8050bfe:	bb c3 81 6e 49       	mov    $0x496e81c3,%ebx
 8050c03:	b9 b2 6c 3f 1e       	mov    $0x1e3f6cb2,%ecx
 8050c08:	ba b3 25 69 4e       	mov    $0x4e6925b3,%edx
 8050c0d:	bd 10 26 31 4f       	mov    $0x4f312610,%ebp
 8050c12:	be a5 a4 37 2f       	mov    $0x2f37a4a5,%esi
 8050c17:	bf b4 17 a9 91       	mov    $0x91a917b4,%edi
 8050c1c:	89 25 50 20 00 00    	mov    %esp,0x2050
 8050c22:	3c 02                	cmp    $0x2,%al
 8050c24:	66 0f 4a d8          	cmovp  %ax,%bx
 8050c28:	a3 00 20 00 00       	mov    %eax,0x2000
 8050c2d:	89 1d 04 20 00 00    	mov    %ebx,0x2004
 8050c33:	89 0d 08 20 00 00    	mov    %ecx,0x2008
 8050c39:	89 15 0c 20 00 00    	mov    %edx,0x200c
 8050c3f:	89 2d 10 20 00 00    	mov    %ebp,0x2010
 8050c45:	89 35 14 20 00 00    	mov    %esi,0x2014
 8050c4b:	89 3d 18 20 00 00    	mov    %edi,0x2018
 8050c51:	0f 90 05 00 22 00 00 	seto   0x2200
 8050c58:	0f 91 05 01 22 00 00 	setno  0x2201
 8050c5f:	0f 92 05 02 22 00 00 	setb   0x2202
 8050c66:	0f 93 05 03 22 00 00 	setae  0x2203
 8050c6d:	0f 94 05 04 22 00 00 	sete   0x2204
 8050c74:	0f 95 05 05 22 00 00 	setne  0x2205
 8050c7b:	0f 96 05 06 22 00 00 	setbe  0x2206
 8050c82:	0f 97 05 07 22 00 00 	seta   0x2207
 8050c89:	0f 98 05 08 22 00 00 	sets   0x2208
 8050c90:	0f 99 05 09 22 00 00 	setns  0x2209
 8050c97:	0f 9a 05 0a 22 00 00 	setp   0x220a
 8050c9e:	0f 9b 05 0b 22 00 00 	setnp  0x220b
 8050ca5:	0f 9c 05 0c 22 00 00 	setl   0x220c
 8050cac:	0f 9d 05 0d 22 00 00 	setge  0x220d
 8050cb3:	0f 9e 05 0e 22 00 00 	setle  0x220e
 8050cba:	0f 9f 05 0f 22 00 00 	setg   0x220f
 8050cc1:	66 9c                	pushfw 
 8050cc3:	66 58                	pop    %ax
 8050cc5:	66 a3 00 21 00 00    	mov    %ax,0x2100
 8050ccb:	a1 50 20 00 00       	mov    0x2050,%eax
 8050cd0:	29 e0                	sub    %esp,%eax
 8050cd2:	a3 20 20 00 00       	mov    %eax,0x2020
 8050cd7:	b8 00 00 00 00       	mov    $0x0,%eax
 8050cdc:	c3                   	ret    

08050cdd <cmov_w_with_code_b_mv_plain>:
 8050cdd:	3c 02                	cmp    $0x2,%al
 8050cdf:	66 0f 4b d8          	cmovnp %ax,%bx
 8050ce3:	b8 00 00 00 00       	mov    $0x0,%eax
 8050ce8:	c3                   	ret    

08050ce9 <cmov_w_with_code_b_mv_allregs>:
 8050ce9:	90                   	nop
 8050cea:	66 a1 00 11 00 00    	mov    0x1100,%ax
 8050cf0:	66 50                	push   %ax
 8050cf2:	66 9d                	popfw  
 8050cf4:	a1 00 10 00 00       	mov    0x1000,%eax
 8050cf9:	8b 1d 04 10 00 00    	mov    0x1004,%ebx
 8050cff:	8b 0d 08 10 00 00    	mov    0x1008,%ecx
 8050d05:	8b 15 0c 10 00 00    	mov    0x100c,%edx
 8050d0b:	8b 2d 10 10 00 00    	mov    0x1010,%ebp
 8050d11:	8b 35 14 10 00 00    	mov    0x1014,%esi
 8050d17:	8b 3d 18 10 00 00    	mov    0x1018,%edi
 8050d1d:	89 25 50 20 00 00    	mov    %esp,0x2050
 8050d23:	3c 02                	cmp    $0x2,%al
 8050d25:	66 0f 4b d8          	cmovnp %ax,%bx
 8050d29:	a3 00 20 00 00       	mov    %eax,0x2000
 8050d2e:	89 1d 04 20 00 00    	mov    %ebx,0x2004
 8050d34:	89 0d 08 20 00 00    	mov    %ecx,0x2008
 8050d3a:	89 15 0c 20 00 00    	mov    %edx,0x200c
 8050d40:	89 2d 10 20 00 00    	mov    %ebp,0x2010
 8050d46:	89 35 14 20 00 00    	mov    %esi,0x2014
 8050d4c:	89 3d 18 20 00 00    	mov    %edi,0x2018
 8050d52:	0f 90 05 00 22 00 00 	seto   0x2200
 8050d59:	0f 91 05 01 22 00 00 	setno  0x2201
 8050d60:	0f 92 05 02 22 00 00 	setb   0x2202
 8050d67:	0f 93 05 03 22 00 00 	setae  0x2203
 8050d6e:	0f 94 05 04 22 00 00 	sete   0x2204
 8050d75:	0f 95 05 05 22 00 00 	setne  0x2205
 8050d7c:	0f 96 05 06 22 00 00 	setbe  0x2206
 8050d83:	0f 97 05 07 22 00 00 	seta   0x2207
 8050d8a:	0f 98 05 08 22 00 00 	sets   0x2208
 8050d91:	0f 99 05 09 22 00 00 	setns  0x2209
 8050d98:	0f 9a 05 0a 22 00 00 	setp   0x220a
 8050d9f:	0f 9b 05 0b 22 00 00 	setnp  0x220b
 8050da6:	0f 9c 05 0c 22 00 00 	setl   0x220c
 8050dad:	0f 9d 05 0d 22 00 00 	setge  0x220d
 8050db4:	0f 9e 05 0e 22 00 00 	setle  0x220e
 8050dbb:	0f 9f 05 0f 22 00 00 	setg   0x220f
 8050dc2:	66 9c                	pushfw 
 8050dc4:	66 58                	pop    %ax
 8050dc6:	66 a3 00 21 00 00    	mov    %ax,0x2100
 8050dcc:	a1 50 20 00 00       	mov    0x2050,%eax
 8050dd1:	29 e0                	sub    %esp,%eax
 8050dd3:	a3 20 20 00 00       	mov    %eax,0x2020
 8050dd8:	b8 00 00 00 00       	mov    $0x0,%eax
 8050ddd:	c3                   	ret    

08050dde <cmov_w_with_code_b_mv_constant_simple>:
 8050dde:	90                   	nop
 8050ddf:	66 6a 00             	pushw  $0x0
 8050de2:	66 9d                	popfw  
 8050de4:	b8 02 00 00 00       	mov    $0x2,%eax
 8050de9:	bb 03 00 00 00       	mov    $0x3,%ebx
 8050dee:	b9 04 00 00 00       	mov    $0x4,%ecx
 8050df3:	ba 05 00 00 00       	mov    $0x5,%edx
 8050df8:	bd 06 00 00 00       	mov    $0x6,%ebp
 8050dfd:	be 07 00 00 00       	mov    $0x7,%esi
 8050e02:	bf 08 00 00 00       	mov    $0x8,%edi
 8050e07:	89 25 50 20 00 00    	mov    %esp,0x2050
 8050e0d:	3c 02                	cmp    $0x2,%al
 8050e0f:	66 0f 4b d8          	cmovnp %ax,%bx
 8050e13:	a3 00 20 00 00       	mov    %eax,0x2000
 8050e18:	89 1d 04 20 00 00    	mov    %ebx,0x2004
 8050e1e:	89 0d 08 20 00 00    	mov    %ecx,0x2008
 8050e24:	89 15 0c 20 00 00    	mov    %edx,0x200c
 8050e2a:	89 2d 10 20 00 00    	mov    %ebp,0x2010
 8050e30:	89 35 14 20 00 00    	mov    %esi,0x2014
 8050e36:	89 3d 18 20 00 00    	mov    %edi,0x2018
 8050e3c:	0f 90 05 00 22 00 00 	seto   0x2200
 8050e43:	0f 91 05 01 22 00 00 	setno  0x2201
 8050e4a:	0f 92 05 02 22 00 00 	setb   0x2202
 8050e51:	0f 93 05 03 22 00 00 	setae  0x2203
 8050e58:	0f 94 05 04 22 00 00 	sete   0x2204
 8050e5f:	0f 95 05 05 22 00 00 	setne  0x2205
 8050e66:	0f 96 05 06 22 00 00 	setbe  0x2206
 8050e6d:	0f 97 05 07 22 00 00 	seta   0x2207
 8050e74:	0f 98 05 08 22 00 00 	sets   0x2208
 8050e7b:	0f 99 05 09 22 00 00 	setns  0x2209
 8050e82:	0f 9a 05 0a 22 00 00 	setp   0x220a
 8050e89:	0f 9b 05 0b 22 00 00 	setnp  0x220b
 8050e90:	0f 9c 05 0c 22 00 00 	setl   0x220c
 8050e97:	0f 9d 05 0d 22 00 00 	setge  0x220d
 8050e9e:	0f 9e 05 0e 22 00 00 	setle  0x220e
 8050ea5:	0f 9f 05 0f 22 00 00 	setg   0x220f
 8050eac:	66 9c                	pushfw 
 8050eae:	66 58                	pop    %ax
 8050eb0:	66 a3 00 21 00 00    	mov    %ax,0x2100
 8050eb6:	a1 50 20 00 00       	mov    0x2050,%eax
 8050ebb:	29 e0                	sub    %esp,%eax
 8050ebd:	a3 20 20 00 00       	mov    %eax,0x2020
 8050ec2:	b8 00 00 00 00       	mov    $0x0,%eax
 8050ec7:	c3                   	ret    

08050ec8 <cmov_w_with_code_b_mv_constant_complex1>:
 8050ec8:	90                   	nop
 8050ec9:	66 6a 00             	pushw  $0x0
 8050ecc:	66 9d                	popfw  
 8050ece:	b8 84 79 b1 a3       	mov    $0xa3b17984,%eax
 8050ed3:	bb d7 1a 67 06       	mov    $0x6671ad7,%ebx
 8050ed8:	b9 48 52 68 46       	mov    $0x46685248,%ecx
 8050edd:	ba c4 56 24 39       	mov    $0x392456c4,%edx
 8050ee2:	bd a4 60 89 bc       	mov    $0xbc8960a4,%ebp
 8050ee7:	be 78 2d 3c ad       	mov    $0xad3c2d78,%esi
 8050eec:	bf 52 e1 65 e4       	mov    $0xe465e152,%edi
 8050ef1:	89 25 50 20 00 00    	mov    %esp,0x2050
 8050ef7:	3c 02                	cmp    $0x2,%al
 8050ef9:	66 0f 4b d8          	cmovnp %ax,%bx
 8050efd:	a3 00 20 00 00       	mov    %eax,0x2000
 8050f02:	89 1d 04 20 00 00    	mov    %ebx,0x2004
 8050f08:	89 0d 08 20 00 00    	mov    %ecx,0x2008
 8050f0e:	89 15 0c 20 00 00    	mov    %edx,0x200c
 8050f14:	89 2d 10 20 00 00    	mov    %ebp,0x2010
 8050f1a:	89 35 14 20 00 00    	mov    %esi,0x2014
 8050f20:	89 3d 18 20 00 00    	mov    %edi,0x2018
 8050f26:	0f 90 05 00 22 00 00 	seto   0x2200
 8050f2d:	0f 91 05 01 22 00 00 	setno  0x2201
 8050f34:	0f 92 05 02 22 00 00 	setb   0x2202
 8050f3b:	0f 93 05 03 22 00 00 	setae  0x2203
 8050f42:	0f 94 05 04 22 00 00 	sete   0x2204
 8050f49:	0f 95 05 05 22 00 00 	setne  0x2205
 8050f50:	0f 96 05 06 22 00 00 	setbe  0x2206
 8050f57:	0f 97 05 07 22 00 00 	seta   0x2207
 8050f5e:	0f 98 05 08 22 00 00 	sets   0x2208
 8050f65:	0f 99 05 09 22 00 00 	setns  0x2209
 8050f6c:	0f 9a 05 0a 22 00 00 	setp   0x220a
 8050f73:	0f 9b 05 0b 22 00 00 	setnp  0x220b
 8050f7a:	0f 9c 05 0c 22 00 00 	setl   0x220c
 8050f81:	0f 9d 05 0d 22 00 00 	setge  0x220d
 8050f88:	0f 9e 05 0e 22 00 00 	setle  0x220e
 8050f8f:	0f 9f 05 0f 22 00 00 	setg   0x220f
 8050f96:	66 9c                	pushfw 
 8050f98:	66 58                	pop    %ax
 8050f9a:	66 a3 00 21 00 00    	mov    %ax,0x2100
 8050fa0:	a1 50 20 00 00       	mov    0x2050,%eax
 8050fa5:	29 e0                	sub    %esp,%eax
 8050fa7:	a3 20 20 00 00       	mov    %eax,0x2020
 8050fac:	b8 00 00 00 00       	mov    $0x0,%eax
 8050fb1:	c3                   	ret    

08050fb2 <cmov_w_with_code_b_mv_constant_complex2>:
 8050fb2:	90                   	nop
 8050fb3:	66 68 ff fe          	pushw  $0xfeff
 8050fb7:	66 9d                	popfw  
 8050fb9:	b8 e8 c0 3e 31       	mov    $0x313ec0e8,%eax
 8050fbe:	bb c3 81 6e 49       	mov    $0x496e81c3,%ebx
 8050fc3:	b9 b2 6c 3f 1e       	mov    $0x1e3f6cb2,%ecx
 8050fc8:	ba b3 25 69 4e       	mov    $0x4e6925b3,%edx
 8050fcd:	bd 10 26 31 4f       	mov    $0x4f312610,%ebp
 8050fd2:	be a5 a4 37 2f       	mov    $0x2f37a4a5,%esi
 8050fd7:	bf b4 17 a9 91       	mov    $0x91a917b4,%edi
 8050fdc:	89 25 50 20 00 00    	mov    %esp,0x2050
 8050fe2:	3c 02                	cmp    $0x2,%al
 8050fe4:	66 0f 4b d8          	cmovnp %ax,%bx
 8050fe8:	a3 00 20 00 00       	mov    %eax,0x2000
 8050fed:	89 1d 04 20 00 00    	mov    %ebx,0x2004
 8050ff3:	89 0d 08 20 00 00    	mov    %ecx,0x2008
 8050ff9:	89 15 0c 20 00 00    	mov    %edx,0x200c
 8050fff:	89 2d 10 20 00 00    	mov    %ebp,0x2010
 8051005:	89 35 14 20 00 00    	mov    %esi,0x2014
 805100b:	89 3d 18 20 00 00    	mov    %edi,0x2018
 8051011:	0f 90 05 00 22 00 00 	seto   0x2200
 8051018:	0f 91 05 01 22 00 00 	setno  0x2201
 805101f:	0f 92 05 02 22 00 00 	setb   0x2202
 8051026:	0f 93 05 03 22 00 00 	setae  0x2203
 805102d:	0f 94 05 04 22 00 00 	sete   0x2204
 8051034:	0f 95 05 05 22 00 00 	setne  0x2205
 805103b:	0f 96 05 06 22 00 00 	setbe  0x2206
 8051042:	0f 97 05 07 22 00 00 	seta   0x2207
 8051049:	0f 98 05 08 22 00 00 	sets   0x2208
 8051050:	0f 99 05 09 22 00 00 	setns  0x2209
 8051057:	0f 9a 05 0a 22 00 00 	setp   0x220a
 805105e:	0f 9b 05 0b 22 00 00 	setnp  0x220b
 8051065:	0f 9c 05 0c 22 00 00 	setl   0x220c
 805106c:	0f 9d 05 0d 22 00 00 	setge  0x220d
 8051073:	0f 9e 05 0e 22 00 00 	setle  0x220e
 805107a:	0f 9f 05 0f 22 00 00 	setg   0x220f
 8051081:	66 9c                	pushfw 
 8051083:	66 58                	pop    %ax
 8051085:	66 a3 00 21 00 00    	mov    %ax,0x2100
 805108b:	a1 50 20 00 00       	mov    0x2050,%eax
 8051090:	29 e0                	sub    %esp,%eax
 8051092:	a3 20 20 00 00       	mov    %eax,0x2020
 8051097:	b8 00 00 00 00       	mov    $0x0,%eax
 805109c:	c3                   	ret    

0805109d <cmov_w_with_code_c_mv_plain>:
 805109d:	3c 02                	cmp    $0x2,%al
 805109f:	66 0f 4c d8          	cmovl  %ax,%bx
 80510a3:	b8 00 00 00 00       	mov    $0x0,%eax
 80510a8:	c3                   	ret    

080510a9 <cmov_w_with_code_c_mv_allregs>:
 80510a9:	90                   	nop
 80510aa:	66 a1 00 11 00 00    	mov    0x1100,%ax
 80510b0:	66 50                	push   %ax
 80510b2:	66 9d                	popfw  
 80510b4:	a1 00 10 00 00       	mov    0x1000,%eax
 80510b9:	8b 1d 04 10 00 00    	mov    0x1004,%ebx
 80510bf:	8b 0d 08 10 00 00    	mov    0x1008,%ecx
 80510c5:	8b 15 0c 10 00 00    	mov    0x100c,%edx
 80510cb:	8b 2d 10 10 00 00    	mov    0x1010,%ebp
 80510d1:	8b 35 14 10 00 00    	mov    0x1014,%esi
 80510d7:	8b 3d 18 10 00 00    	mov    0x1018,%edi
 80510dd:	89 25 50 20 00 00    	mov    %esp,0x2050
 80510e3:	3c 02                	cmp    $0x2,%al
 80510e5:	66 0f 4c d8          	cmovl  %ax,%bx
 80510e9:	a3 00 20 00 00       	mov    %eax,0x2000
 80510ee:	89 1d 04 20 00 00    	mov    %ebx,0x2004
 80510f4:	89 0d 08 20 00 00    	mov    %ecx,0x2008
 80510fa:	89 15 0c 20 00 00    	mov    %edx,0x200c
 8051100:	89 2d 10 20 00 00    	mov    %ebp,0x2010
 8051106:	89 35 14 20 00 00    	mov    %esi,0x2014
 805110c:	89 3d 18 20 00 00    	mov    %edi,0x2018
 8051112:	0f 90 05 00 22 00 00 	seto   0x2200
 8051119:	0f 91 05 01 22 00 00 	setno  0x2201
 8051120:	0f 92 05 02 22 00 00 	setb   0x2202
 8051127:	0f 93 05 03 22 00 00 	setae  0x2203
 805112e:	0f 94 05 04 22 00 00 	sete   0x2204
 8051135:	0f 95 05 05 22 00 00 	setne  0x2205
 805113c:	0f 96 05 06 22 00 00 	setbe  0x2206
 8051143:	0f 97 05 07 22 00 00 	seta   0x2207
 805114a:	0f 98 05 08 22 00 00 	sets   0x2208
 8051151:	0f 99 05 09 22 00 00 	setns  0x2209
 8051158:	0f 9a 05 0a 22 00 00 	setp   0x220a
 805115f:	0f 9b 05 0b 22 00 00 	setnp  0x220b
 8051166:	0f 9c 05 0c 22 00 00 	setl   0x220c
 805116d:	0f 9d 05 0d 22 00 00 	setge  0x220d
 8051174:	0f 9e 05 0e 22 00 00 	setle  0x220e
 805117b:	0f 9f 05 0f 22 00 00 	setg   0x220f
 8051182:	66 9c                	pushfw 
 8051184:	66 58                	pop    %ax
 8051186:	66 a3 00 21 00 00    	mov    %ax,0x2100
 805118c:	a1 50 20 00 00       	mov    0x2050,%eax
 8051191:	29 e0                	sub    %esp,%eax
 8051193:	a3 20 20 00 00       	mov    %eax,0x2020
 8051198:	b8 00 00 00 00       	mov    $0x0,%eax
 805119d:	c3                   	ret    

0805119e <cmov_w_with_code_c_mv_constant_simple>:
 805119e:	90                   	nop
 805119f:	66 6a 00             	pushw  $0x0
 80511a2:	66 9d                	popfw  
 80511a4:	b8 02 00 00 00       	mov    $0x2,%eax
 80511a9:	bb 03 00 00 00       	mov    $0x3,%ebx
 80511ae:	b9 04 00 00 00       	mov    $0x4,%ecx
 80511b3:	ba 05 00 00 00       	mov    $0x5,%edx
 80511b8:	bd 06 00 00 00       	mov    $0x6,%ebp
 80511bd:	be 07 00 00 00       	mov    $0x7,%esi
 80511c2:	bf 08 00 00 00       	mov    $0x8,%edi
 80511c7:	89 25 50 20 00 00    	mov    %esp,0x2050
 80511cd:	3c 02                	cmp    $0x2,%al
 80511cf:	66 0f 4c d8          	cmovl  %ax,%bx
 80511d3:	a3 00 20 00 00       	mov    %eax,0x2000
 80511d8:	89 1d 04 20 00 00    	mov    %ebx,0x2004
 80511de:	89 0d 08 20 00 00    	mov    %ecx,0x2008
 80511e4:	89 15 0c 20 00 00    	mov    %edx,0x200c
 80511ea:	89 2d 10 20 00 00    	mov    %ebp,0x2010
 80511f0:	89 35 14 20 00 00    	mov    %esi,0x2014
 80511f6:	89 3d 18 20 00 00    	mov    %edi,0x2018
 80511fc:	0f 90 05 00 22 00 00 	seto   0x2200
 8051203:	0f 91 05 01 22 00 00 	setno  0x2201
 805120a:	0f 92 05 02 22 00 00 	setb   0x2202
 8051211:	0f 93 05 03 22 00 00 	setae  0x2203
 8051218:	0f 94 05 04 22 00 00 	sete   0x2204
 805121f:	0f 95 05 05 22 00 00 	setne  0x2205
 8051226:	0f 96 05 06 22 00 00 	setbe  0x2206
 805122d:	0f 97 05 07 22 00 00 	seta   0x2207
 8051234:	0f 98 05 08 22 00 00 	sets   0x2208
 805123b:	0f 99 05 09 22 00 00 	setns  0x2209
 8051242:	0f 9a 05 0a 22 00 00 	setp   0x220a
 8051249:	0f 9b 05 0b 22 00 00 	setnp  0x220b
 8051250:	0f 9c 05 0c 22 00 00 	setl   0x220c
 8051257:	0f 9d 05 0d 22 00 00 	setge  0x220d
 805125e:	0f 9e 05 0e 22 00 00 	setle  0x220e
 8051265:	0f 9f 05 0f 22 00 00 	setg   0x220f
 805126c:	66 9c                	pushfw 
 805126e:	66 58                	pop    %ax
 8051270:	66 a3 00 21 00 00    	mov    %ax,0x2100
 8051276:	a1 50 20 00 00       	mov    0x2050,%eax
 805127b:	29 e0                	sub    %esp,%eax
 805127d:	a3 20 20 00 00       	mov    %eax,0x2020
 8051282:	b8 00 00 00 00       	mov    $0x0,%eax
 8051287:	c3                   	ret    

08051288 <cmov_w_with_code_c_mv_constant_complex1>:
 8051288:	90                   	nop
 8051289:	66 6a 00             	pushw  $0x0
 805128c:	66 9d                	popfw  
 805128e:	b8 84 79 b1 a3       	mov    $0xa3b17984,%eax
 8051293:	bb d7 1a 67 06       	mov    $0x6671ad7,%ebx
 8051298:	b9 48 52 68 46       	mov    $0x46685248,%ecx
 805129d:	ba c4 56 24 39       	mov    $0x392456c4,%edx
 80512a2:	bd a4 60 89 bc       	mov    $0xbc8960a4,%ebp
 80512a7:	be 78 2d 3c ad       	mov    $0xad3c2d78,%esi
 80512ac:	bf 52 e1 65 e4       	mov    $0xe465e152,%edi
 80512b1:	89 25 50 20 00 00    	mov    %esp,0x2050
 80512b7:	3c 02                	cmp    $0x2,%al
 80512b9:	66 0f 4c d8          	cmovl  %ax,%bx
 80512bd:	a3 00 20 00 00       	mov    %eax,0x2000
 80512c2:	89 1d 04 20 00 00    	mov    %ebx,0x2004
 80512c8:	89 0d 08 20 00 00    	mov    %ecx,0x2008
 80512ce:	89 15 0c 20 00 00    	mov    %edx,0x200c
 80512d4:	89 2d 10 20 00 00    	mov    %ebp,0x2010
 80512da:	89 35 14 20 00 00    	mov    %esi,0x2014
 80512e0:	89 3d 18 20 00 00    	mov    %edi,0x2018
 80512e6:	0f 90 05 00 22 00 00 	seto   0x2200
 80512ed:	0f 91 05 01 22 00 00 	setno  0x2201
 80512f4:	0f 92 05 02 22 00 00 	setb   0x2202
 80512fb:	0f 93 05 03 22 00 00 	setae  0x2203
 8051302:	0f 94 05 04 22 00 00 	sete   0x2204
 8051309:	0f 95 05 05 22 00 00 	setne  0x2205
 8051310:	0f 96 05 06 22 00 00 	setbe  0x2206
 8051317:	0f 97 05 07 22 00 00 	seta   0x2207
 805131e:	0f 98 05 08 22 00 00 	sets   0x2208
 8051325:	0f 99 05 09 22 00 00 	setns  0x2209
 805132c:	0f 9a 05 0a 22 00 00 	setp   0x220a
 8051333:	0f 9b 05 0b 22 00 00 	setnp  0x220b
 805133a:	0f 9c 05 0c 22 00 00 	setl   0x220c
 8051341:	0f 9d 05 0d 22 00 00 	setge  0x220d
 8051348:	0f 9e 05 0e 22 00 00 	setle  0x220e
 805134f:	0f 9f 05 0f 22 00 00 	setg   0x220f
 8051356:	66 9c                	pushfw 
 8051358:	66 58                	pop    %ax
 805135a:	66 a3 00 21 00 00    	mov    %ax,0x2100
 8051360:	a1 50 20 00 00       	mov    0x2050,%eax
 8051365:	29 e0                	sub    %esp,%eax
 8051367:	a3 20 20 00 00       	mov    %eax,0x2020
 805136c:	b8 00 00 00 00       	mov    $0x0,%eax
 8051371:	c3                   	ret    

08051372 <cmov_w_with_code_c_mv_constant_complex2>:
 8051372:	90                   	nop
 8051373:	66 68 ff fe          	pushw  $0xfeff
 8051377:	66 9d                	popfw  
 8051379:	b8 e8 c0 3e 31       	mov    $0x313ec0e8,%eax
 805137e:	bb c3 81 6e 49       	mov    $0x496e81c3,%ebx
 8051383:	b9 b2 6c 3f 1e       	mov    $0x1e3f6cb2,%ecx
 8051388:	ba b3 25 69 4e       	mov    $0x4e6925b3,%edx
 805138d:	bd 10 26 31 4f       	mov    $0x4f312610,%ebp
 8051392:	be a5 a4 37 2f       	mov    $0x2f37a4a5,%esi
 8051397:	bf b4 17 a9 91       	mov    $0x91a917b4,%edi
 805139c:	89 25 50 20 00 00    	mov    %esp,0x2050
 80513a2:	3c 02                	cmp    $0x2,%al
 80513a4:	66 0f 4c d8          	cmovl  %ax,%bx
 80513a8:	a3 00 20 00 00       	mov    %eax,0x2000
 80513ad:	89 1d 04 20 00 00    	mov    %ebx,0x2004
 80513b3:	89 0d 08 20 00 00    	mov    %ecx,0x2008
 80513b9:	89 15 0c 20 00 00    	mov    %edx,0x200c
 80513bf:	89 2d 10 20 00 00    	mov    %ebp,0x2010
 80513c5:	89 35 14 20 00 00    	mov    %esi,0x2014
 80513cb:	89 3d 18 20 00 00    	mov    %edi,0x2018
 80513d1:	0f 90 05 00 22 00 00 	seto   0x2200
 80513d8:	0f 91 05 01 22 00 00 	setno  0x2201
 80513df:	0f 92 05 02 22 00 00 	setb   0x2202
 80513e6:	0f 93 05 03 22 00 00 	setae  0x2203
 80513ed:	0f 94 05 04 22 00 00 	sete   0x2204
 80513f4:	0f 95 05 05 22 00 00 	setne  0x2205
 80513fb:	0f 96 05 06 22 00 00 	setbe  0x2206
 8051402:	0f 97 05 07 22 00 00 	seta   0x2207
 8051409:	0f 98 05 08 22 00 00 	sets   0x2208
 8051410:	0f 99 05 09 22 00 00 	setns  0x2209
 8051417:	0f 9a 05 0a 22 00 00 	setp   0x220a
 805141e:	0f 9b 05 0b 22 00 00 	setnp  0x220b
 8051425:	0f 9c 05 0c 22 00 00 	setl   0x220c
 805142c:	0f 9d 05 0d 22 00 00 	setge  0x220d
 8051433:	0f 9e 05 0e 22 00 00 	setle  0x220e
 805143a:	0f 9f 05 0f 22 00 00 	setg   0x220f
 8051441:	66 9c                	pushfw 
 8051443:	66 58                	pop    %ax
 8051445:	66 a3 00 21 00 00    	mov    %ax,0x2100
 805144b:	a1 50 20 00 00       	mov    0x2050,%eax
 8051450:	29 e0                	sub    %esp,%eax
 8051452:	a3 20 20 00 00       	mov    %eax,0x2020
 8051457:	b8 00 00 00 00       	mov    $0x0,%eax
 805145c:	c3                   	ret    

0805145d <cmov_w_with_code_d_mv_plain>:
 805145d:	3c 02                	cmp    $0x2,%al
 805145f:	66 0f 4d d8          	cmovge %ax,%bx
 8051463:	b8 00 00 00 00       	mov    $0x0,%eax
 8051468:	c3                   	ret    

08051469 <cmov_w_with_code_d_mv_allregs>:
 8051469:	90                   	nop
 805146a:	66 a1 00 11 00 00    	mov    0x1100,%ax
 8051470:	66 50                	push   %ax
 8051472:	66 9d                	popfw  
 8051474:	a1 00 10 00 00       	mov    0x1000,%eax
 8051479:	8b 1d 04 10 00 00    	mov    0x1004,%ebx
 805147f:	8b 0d 08 10 00 00    	mov    0x1008,%ecx
 8051485:	8b 15 0c 10 00 00    	mov    0x100c,%edx
 805148b:	8b 2d 10 10 00 00    	mov    0x1010,%ebp
 8051491:	8b 35 14 10 00 00    	mov    0x1014,%esi
 8051497:	8b 3d 18 10 00 00    	mov    0x1018,%edi
 805149d:	89 25 50 20 00 00    	mov    %esp,0x2050
 80514a3:	3c 02                	cmp    $0x2,%al
 80514a5:	66 0f 4d d8          	cmovge %ax,%bx
 80514a9:	a3 00 20 00 00       	mov    %eax,0x2000
 80514ae:	89 1d 04 20 00 00    	mov    %ebx,0x2004
 80514b4:	89 0d 08 20 00 00    	mov    %ecx,0x2008
 80514ba:	89 15 0c 20 00 00    	mov    %edx,0x200c
 80514c0:	89 2d 10 20 00 00    	mov    %ebp,0x2010
 80514c6:	89 35 14 20 00 00    	mov    %esi,0x2014
 80514cc:	89 3d 18 20 00 00    	mov    %edi,0x2018
 80514d2:	0f 90 05 00 22 00 00 	seto   0x2200
 80514d9:	0f 91 05 01 22 00 00 	setno  0x2201
 80514e0:	0f 92 05 02 22 00 00 	setb   0x2202
 80514e7:	0f 93 05 03 22 00 00 	setae  0x2203
 80514ee:	0f 94 05 04 22 00 00 	sete   0x2204
 80514f5:	0f 95 05 05 22 00 00 	setne  0x2205
 80514fc:	0f 96 05 06 22 00 00 	setbe  0x2206
 8051503:	0f 97 05 07 22 00 00 	seta   0x2207
 805150a:	0f 98 05 08 22 00 00 	sets   0x2208
 8051511:	0f 99 05 09 22 00 00 	setns  0x2209
 8051518:	0f 9a 05 0a 22 00 00 	setp   0x220a
 805151f:	0f 9b 05 0b 22 00 00 	setnp  0x220b
 8051526:	0f 9c 05 0c 22 00 00 	setl   0x220c
 805152d:	0f 9d 05 0d 22 00 00 	setge  0x220d
 8051534:	0f 9e 05 0e 22 00 00 	setle  0x220e
 805153b:	0f 9f 05 0f 22 00 00 	setg   0x220f
 8051542:	66 9c                	pushfw 
 8051544:	66 58                	pop    %ax
 8051546:	66 a3 00 21 00 00    	mov    %ax,0x2100
 805154c:	a1 50 20 00 00       	mov    0x2050,%eax
 8051551:	29 e0                	sub    %esp,%eax
 8051553:	a3 20 20 00 00       	mov    %eax,0x2020
 8051558:	b8 00 00 00 00       	mov    $0x0,%eax
 805155d:	c3                   	ret    

0805155e <cmov_w_with_code_d_mv_constant_simple>:
 805155e:	90                   	nop
 805155f:	66 6a 00             	pushw  $0x0
 8051562:	66 9d                	popfw  
 8051564:	b8 02 00 00 00       	mov    $0x2,%eax
 8051569:	bb 03 00 00 00       	mov    $0x3,%ebx
 805156e:	b9 04 00 00 00       	mov    $0x4,%ecx
 8051573:	ba 05 00 00 00       	mov    $0x5,%edx
 8051578:	bd 06 00 00 00       	mov    $0x6,%ebp
 805157d:	be 07 00 00 00       	mov    $0x7,%esi
 8051582:	bf 08 00 00 00       	mov    $0x8,%edi
 8051587:	89 25 50 20 00 00    	mov    %esp,0x2050
 805158d:	3c 02                	cmp    $0x2,%al
 805158f:	66 0f 4d d8          	cmovge %ax,%bx
 8051593:	a3 00 20 00 00       	mov    %eax,0x2000
 8051598:	89 1d 04 20 00 00    	mov    %ebx,0x2004
 805159e:	89 0d 08 20 00 00    	mov    %ecx,0x2008
 80515a4:	89 15 0c 20 00 00    	mov    %edx,0x200c
 80515aa:	89 2d 10 20 00 00    	mov    %ebp,0x2010
 80515b0:	89 35 14 20 00 00    	mov    %esi,0x2014
 80515b6:	89 3d 18 20 00 00    	mov    %edi,0x2018
 80515bc:	0f 90 05 00 22 00 00 	seto   0x2200
 80515c3:	0f 91 05 01 22 00 00 	setno  0x2201
 80515ca:	0f 92 05 02 22 00 00 	setb   0x2202
 80515d1:	0f 93 05 03 22 00 00 	setae  0x2203
 80515d8:	0f 94 05 04 22 00 00 	sete   0x2204
 80515df:	0f 95 05 05 22 00 00 	setne  0x2205
 80515e6:	0f 96 05 06 22 00 00 	setbe  0x2206
 80515ed:	0f 97 05 07 22 00 00 	seta   0x2207
 80515f4:	0f 98 05 08 22 00 00 	sets   0x2208
 80515fb:	0f 99 05 09 22 00 00 	setns  0x2209
 8051602:	0f 9a 05 0a 22 00 00 	setp   0x220a
 8051609:	0f 9b 05 0b 22 00 00 	setnp  0x220b
 8051610:	0f 9c 05 0c 22 00 00 	setl   0x220c
 8051617:	0f 9d 05 0d 22 00 00 	setge  0x220d
 805161e:	0f 9e 05 0e 22 00 00 	setle  0x220e
 8051625:	0f 9f 05 0f 22 00 00 	setg   0x220f
 805162c:	66 9c                	pushfw 
 805162e:	66 58                	pop    %ax
 8051630:	66 a3 00 21 00 00    	mov    %ax,0x2100
 8051636:	a1 50 20 00 00       	mov    0x2050,%eax
 805163b:	29 e0                	sub    %esp,%eax
 805163d:	a3 20 20 00 00       	mov    %eax,0x2020
 8051642:	b8 00 00 00 00       	mov    $0x0,%eax
 8051647:	c3                   	ret    

08051648 <cmov_w_with_code_d_mv_constant_complex1>:
 8051648:	90                   	nop
 8051649:	66 6a 00             	pushw  $0x0
 805164c:	66 9d                	popfw  
 805164e:	b8 84 79 b1 a3       	mov    $0xa3b17984,%eax
 8051653:	bb d7 1a 67 06       	mov    $0x6671ad7,%ebx
 8051658:	b9 48 52 68 46       	mov    $0x46685248,%ecx
 805165d:	ba c4 56 24 39       	mov    $0x392456c4,%edx
 8051662:	bd a4 60 89 bc       	mov    $0xbc8960a4,%ebp
 8051667:	be 78 2d 3c ad       	mov    $0xad3c2d78,%esi
 805166c:	bf 52 e1 65 e4       	mov    $0xe465e152,%edi
 8051671:	89 25 50 20 00 00    	mov    %esp,0x2050
 8051677:	3c 02                	cmp    $0x2,%al
 8051679:	66 0f 4d d8          	cmovge %ax,%bx
 805167d:	a3 00 20 00 00       	mov    %eax,0x2000
 8051682:	89 1d 04 20 00 00    	mov    %ebx,0x2004
 8051688:	89 0d 08 20 00 00    	mov    %ecx,0x2008
 805168e:	89 15 0c 20 00 00    	mov    %edx,0x200c
 8051694:	89 2d 10 20 00 00    	mov    %ebp,0x2010
 805169a:	89 35 14 20 00 00    	mov    %esi,0x2014
 80516a0:	89 3d 18 20 00 00    	mov    %edi,0x2018
 80516a6:	0f 90 05 00 22 00 00 	seto   0x2200
 80516ad:	0f 91 05 01 22 00 00 	setno  0x2201
 80516b4:	0f 92 05 02 22 00 00 	setb   0x2202
 80516bb:	0f 93 05 03 22 00 00 	setae  0x2203
 80516c2:	0f 94 05 04 22 00 00 	sete   0x2204
 80516c9:	0f 95 05 05 22 00 00 	setne  0x2205
 80516d0:	0f 96 05 06 22 00 00 	setbe  0x2206
 80516d7:	0f 97 05 07 22 00 00 	seta   0x2207
 80516de:	0f 98 05 08 22 00 00 	sets   0x2208
 80516e5:	0f 99 05 09 22 00 00 	setns  0x2209
 80516ec:	0f 9a 05 0a 22 00 00 	setp   0x220a
 80516f3:	0f 9b 05 0b 22 00 00 	setnp  0x220b
 80516fa:	0f 9c 05 0c 22 00 00 	setl   0x220c
 8051701:	0f 9d 05 0d 22 00 00 	setge  0x220d
 8051708:	0f 9e 05 0e 22 00 00 	setle  0x220e
 805170f:	0f 9f 05 0f 22 00 00 	setg   0x220f
 8051716:	66 9c                	pushfw 
 8051718:	66 58                	pop    %ax
 805171a:	66 a3 00 21 00 00    	mov    %ax,0x2100
 8051720:	a1 50 20 00 00       	mov    0x2050,%eax
 8051725:	29 e0                	sub    %esp,%eax
 8051727:	a3 20 20 00 00       	mov    %eax,0x2020
 805172c:	b8 00 00 00 00       	mov    $0x0,%eax
 8051731:	c3                   	ret    

08051732 <cmov_w_with_code_d_mv_constant_complex2>:
 8051732:	90                   	nop
 8051733:	66 68 ff fe          	pushw  $0xfeff
 8051737:	66 9d                	popfw  
 8051739:	b8 e8 c0 3e 31       	mov    $0x313ec0e8,%eax
 805173e:	bb c3 81 6e 49       	mov    $0x496e81c3,%ebx
 8051743:	b9 b2 6c 3f 1e       	mov    $0x1e3f6cb2,%ecx
 8051748:	ba b3 25 69 4e       	mov    $0x4e6925b3,%edx
 805174d:	bd 10 26 31 4f       	mov    $0x4f312610,%ebp
 8051752:	be a5 a4 37 2f       	mov    $0x2f37a4a5,%esi
 8051757:	bf b4 17 a9 91       	mov    $0x91a917b4,%edi
 805175c:	89 25 50 20 00 00    	mov    %esp,0x2050
 8051762:	3c 02                	cmp    $0x2,%al
 8051764:	66 0f 4d d8          	cmovge %ax,%bx
 8051768:	a3 00 20 00 00       	mov    %eax,0x2000
 805176d:	89 1d 04 20 00 00    	mov    %ebx,0x2004
 8051773:	89 0d 08 20 00 00    	mov    %ecx,0x2008
 8051779:	89 15 0c 20 00 00    	mov    %edx,0x200c
 805177f:	89 2d 10 20 00 00    	mov    %ebp,0x2010
 8051785:	89 35 14 20 00 00    	mov    %esi,0x2014
 805178b:	89 3d 18 20 00 00    	mov    %edi,0x2018
 8051791:	0f 90 05 00 22 00 00 	seto   0x2200
 8051798:	0f 91 05 01 22 00 00 	setno  0x2201
 805179f:	0f 92 05 02 22 00 00 	setb   0x2202
 80517a6:	0f 93 05 03 22 00 00 	setae  0x2203
 80517ad:	0f 94 05 04 22 00 00 	sete   0x2204
 80517b4:	0f 95 05 05 22 00 00 	setne  0x2205
 80517bb:	0f 96 05 06 22 00 00 	setbe  0x2206
 80517c2:	0f 97 05 07 22 00 00 	seta   0x2207
 80517c9:	0f 98 05 08 22 00 00 	sets   0x2208
 80517d0:	0f 99 05 09 22 00 00 	setns  0x2209
 80517d7:	0f 9a 05 0a 22 00 00 	setp   0x220a
 80517de:	0f 9b 05 0b 22 00 00 	setnp  0x220b
 80517e5:	0f 9c 05 0c 22 00 00 	setl   0x220c
 80517ec:	0f 9d 05 0d 22 00 00 	setge  0x220d
 80517f3:	0f 9e 05 0e 22 00 00 	setle  0x220e
 80517fa:	0f 9f 05 0f 22 00 00 	setg   0x220f
 8051801:	66 9c                	pushfw 
 8051803:	66 58                	pop    %ax
 8051805:	66 a3 00 21 00 00    	mov    %ax,0x2100
 805180b:	a1 50 20 00 00       	mov    0x2050,%eax
 8051810:	29 e0                	sub    %esp,%eax
 8051812:	a3 20 20 00 00       	mov    %eax,0x2020
 8051817:	b8 00 00 00 00       	mov    $0x0,%eax
 805181c:	c3                   	ret    

0805181d <cmov_w_with_code_e_mv_plain>:
 805181d:	3c 02                	cmp    $0x2,%al
 805181f:	66 0f 4e d8          	cmovle %ax,%bx
 8051823:	b8 00 00 00 00       	mov    $0x0,%eax
 8051828:	c3                   	ret    

08051829 <cmov_w_with_code_e_mv_allregs>:
 8051829:	90                   	nop
 805182a:	66 a1 00 11 00 00    	mov    0x1100,%ax
 8051830:	66 50                	push   %ax
 8051832:	66 9d                	popfw  
 8051834:	a1 00 10 00 00       	mov    0x1000,%eax
 8051839:	8b 1d 04 10 00 00    	mov    0x1004,%ebx
 805183f:	8b 0d 08 10 00 00    	mov    0x1008,%ecx
 8051845:	8b 15 0c 10 00 00    	mov    0x100c,%edx
 805184b:	8b 2d 10 10 00 00    	mov    0x1010,%ebp
 8051851:	8b 35 14 10 00 00    	mov    0x1014,%esi
 8051857:	8b 3d 18 10 00 00    	mov    0x1018,%edi
 805185d:	89 25 50 20 00 00    	mov    %esp,0x2050
 8051863:	3c 02                	cmp    $0x2,%al
 8051865:	66 0f 4e d8          	cmovle %ax,%bx
 8051869:	a3 00 20 00 00       	mov    %eax,0x2000
 805186e:	89 1d 04 20 00 00    	mov    %ebx,0x2004
 8051874:	89 0d 08 20 00 00    	mov    %ecx,0x2008
 805187a:	89 15 0c 20 00 00    	mov    %edx,0x200c
 8051880:	89 2d 10 20 00 00    	mov    %ebp,0x2010
 8051886:	89 35 14 20 00 00    	mov    %esi,0x2014
 805188c:	89 3d 18 20 00 00    	mov    %edi,0x2018
 8051892:	0f 90 05 00 22 00 00 	seto   0x2200
 8051899:	0f 91 05 01 22 00 00 	setno  0x2201
 80518a0:	0f 92 05 02 22 00 00 	setb   0x2202
 80518a7:	0f 93 05 03 22 00 00 	setae  0x2203
 80518ae:	0f 94 05 04 22 00 00 	sete   0x2204
 80518b5:	0f 95 05 05 22 00 00 	setne  0x2205
 80518bc:	0f 96 05 06 22 00 00 	setbe  0x2206
 80518c3:	0f 97 05 07 22 00 00 	seta   0x2207
 80518ca:	0f 98 05 08 22 00 00 	sets   0x2208
 80518d1:	0f 99 05 09 22 00 00 	setns  0x2209
 80518d8:	0f 9a 05 0a 22 00 00 	setp   0x220a
 80518df:	0f 9b 05 0b 22 00 00 	setnp  0x220b
 80518e6:	0f 9c 05 0c 22 00 00 	setl   0x220c
 80518ed:	0f 9d 05 0d 22 00 00 	setge  0x220d
 80518f4:	0f 9e 05 0e 22 00 00 	setle  0x220e
 80518fb:	0f 9f 05 0f 22 00 00 	setg   0x220f
 8051902:	66 9c                	pushfw 
 8051904:	66 58                	pop    %ax
 8051906:	66 a3 00 21 00 00    	mov    %ax,0x2100
 805190c:	a1 50 20 00 00       	mov    0x2050,%eax
 8051911:	29 e0                	sub    %esp,%eax
 8051913:	a3 20 20 00 00       	mov    %eax,0x2020
 8051918:	b8 00 00 00 00       	mov    $0x0,%eax
 805191d:	c3                   	ret    

0805191e <cmov_w_with_code_e_mv_constant_simple>:
 805191e:	90                   	nop
 805191f:	66 6a 00             	pushw  $0x0
 8051922:	66 9d                	popfw  
 8051924:	b8 02 00 00 00       	mov    $0x2,%eax
 8051929:	bb 03 00 00 00       	mov    $0x3,%ebx
 805192e:	b9 04 00 00 00       	mov    $0x4,%ecx
 8051933:	ba 05 00 00 00       	mov    $0x5,%edx
 8051938:	bd 06 00 00 00       	mov    $0x6,%ebp
 805193d:	be 07 00 00 00       	mov    $0x7,%esi
 8051942:	bf 08 00 00 00       	mov    $0x8,%edi
 8051947:	89 25 50 20 00 00    	mov    %esp,0x2050
 805194d:	3c 02                	cmp    $0x2,%al
 805194f:	66 0f 4e d8          	cmovle %ax,%bx
 8051953:	a3 00 20 00 00       	mov    %eax,0x2000
 8051958:	89 1d 04 20 00 00    	mov    %ebx,0x2004
 805195e:	89 0d 08 20 00 00    	mov    %ecx,0x2008
 8051964:	89 15 0c 20 00 00    	mov    %edx,0x200c
 805196a:	89 2d 10 20 00 00    	mov    %ebp,0x2010
 8051970:	89 35 14 20 00 00    	mov    %esi,0x2014
 8051976:	89 3d 18 20 00 00    	mov    %edi,0x2018
 805197c:	0f 90 05 00 22 00 00 	seto   0x2200
 8051983:	0f 91 05 01 22 00 00 	setno  0x2201
 805198a:	0f 92 05 02 22 00 00 	setb   0x2202
 8051991:	0f 93 05 03 22 00 00 	setae  0x2203
 8051998:	0f 94 05 04 22 00 00 	sete   0x2204
 805199f:	0f 95 05 05 22 00 00 	setne  0x2205
 80519a6:	0f 96 05 06 22 00 00 	setbe  0x2206
 80519ad:	0f 97 05 07 22 00 00 	seta   0x2207
 80519b4:	0f 98 05 08 22 00 00 	sets   0x2208
 80519bb:	0f 99 05 09 22 00 00 	setns  0x2209
 80519c2:	0f 9a 05 0a 22 00 00 	setp   0x220a
 80519c9:	0f 9b 05 0b 22 00 00 	setnp  0x220b
 80519d0:	0f 9c 05 0c 22 00 00 	setl   0x220c
 80519d7:	0f 9d 05 0d 22 00 00 	setge  0x220d
 80519de:	0f 9e 05 0e 22 00 00 	setle  0x220e
 80519e5:	0f 9f 05 0f 22 00 00 	setg   0x220f
 80519ec:	66 9c                	pushfw 
 80519ee:	66 58                	pop    %ax
 80519f0:	66 a3 00 21 00 00    	mov    %ax,0x2100
 80519f6:	a1 50 20 00 00       	mov    0x2050,%eax
 80519fb:	29 e0                	sub    %esp,%eax
 80519fd:	a3 20 20 00 00       	mov    %eax,0x2020
 8051a02:	b8 00 00 00 00       	mov    $0x0,%eax
 8051a07:	c3                   	ret    

08051a08 <cmov_w_with_code_e_mv_constant_complex1>:
 8051a08:	90                   	nop
 8051a09:	66 6a 00             	pushw  $0x0
 8051a0c:	66 9d                	popfw  
 8051a0e:	b8 84 79 b1 a3       	mov    $0xa3b17984,%eax
 8051a13:	bb d7 1a 67 06       	mov    $0x6671ad7,%ebx
 8051a18:	b9 48 52 68 46       	mov    $0x46685248,%ecx
 8051a1d:	ba c4 56 24 39       	mov    $0x392456c4,%edx
 8051a22:	bd a4 60 89 bc       	mov    $0xbc8960a4,%ebp
 8051a27:	be 78 2d 3c ad       	mov    $0xad3c2d78,%esi
 8051a2c:	bf 52 e1 65 e4       	mov    $0xe465e152,%edi
 8051a31:	89 25 50 20 00 00    	mov    %esp,0x2050
 8051a37:	3c 02                	cmp    $0x2,%al
 8051a39:	66 0f 4e d8          	cmovle %ax,%bx
 8051a3d:	a3 00 20 00 00       	mov    %eax,0x2000
 8051a42:	89 1d 04 20 00 00    	mov    %ebx,0x2004
 8051a48:	89 0d 08 20 00 00    	mov    %ecx,0x2008
 8051a4e:	89 15 0c 20 00 00    	mov    %edx,0x200c
 8051a54:	89 2d 10 20 00 00    	mov    %ebp,0x2010
 8051a5a:	89 35 14 20 00 00    	mov    %esi,0x2014
 8051a60:	89 3d 18 20 00 00    	mov    %edi,0x2018
 8051a66:	0f 90 05 00 22 00 00 	seto   0x2200
 8051a6d:	0f 91 05 01 22 00 00 	setno  0x2201
 8051a74:	0f 92 05 02 22 00 00 	setb   0x2202
 8051a7b:	0f 93 05 03 22 00 00 	setae  0x2203
 8051a82:	0f 94 05 04 22 00 00 	sete   0x2204
 8051a89:	0f 95 05 05 22 00 00 	setne  0x2205
 8051a90:	0f 96 05 06 22 00 00 	setbe  0x2206
 8051a97:	0f 97 05 07 22 00 00 	seta   0x2207
 8051a9e:	0f 98 05 08 22 00 00 	sets   0x2208
 8051aa5:	0f 99 05 09 22 00 00 	setns  0x2209
 8051aac:	0f 9a 05 0a 22 00 00 	setp   0x220a
 8051ab3:	0f 9b 05 0b 22 00 00 	setnp  0x220b
 8051aba:	0f 9c 05 0c 22 00 00 	setl   0x220c
 8051ac1:	0f 9d 05 0d 22 00 00 	setge  0x220d
 8051ac8:	0f 9e 05 0e 22 00 00 	setle  0x220e
 8051acf:	0f 9f 05 0f 22 00 00 	setg   0x220f
 8051ad6:	66 9c                	pushfw 
 8051ad8:	66 58                	pop    %ax
 8051ada:	66 a3 00 21 00 00    	mov    %ax,0x2100
 8051ae0:	a1 50 20 00 00       	mov    0x2050,%eax
 8051ae5:	29 e0                	sub    %esp,%eax
 8051ae7:	a3 20 20 00 00       	mov    %eax,0x2020
 8051aec:	b8 00 00 00 00       	mov    $0x0,%eax
 8051af1:	c3                   	ret    

08051af2 <cmov_w_with_code_e_mv_constant_complex2>:
 8051af2:	90                   	nop
 8051af3:	66 68 ff fe          	pushw  $0xfeff
 8051af7:	66 9d                	popfw  
 8051af9:	b8 e8 c0 3e 31       	mov    $0x313ec0e8,%eax
 8051afe:	bb c3 81 6e 49       	mov    $0x496e81c3,%ebx
 8051b03:	b9 b2 6c 3f 1e       	mov    $0x1e3f6cb2,%ecx
 8051b08:	ba b3 25 69 4e       	mov    $0x4e6925b3,%edx
 8051b0d:	bd 10 26 31 4f       	mov    $0x4f312610,%ebp
 8051b12:	be a5 a4 37 2f       	mov    $0x2f37a4a5,%esi
 8051b17:	bf b4 17 a9 91       	mov    $0x91a917b4,%edi
 8051b1c:	89 25 50 20 00 00    	mov    %esp,0x2050
 8051b22:	3c 02                	cmp    $0x2,%al
 8051b24:	66 0f 4e d8          	cmovle %ax,%bx
 8051b28:	a3 00 20 00 00       	mov    %eax,0x2000
 8051b2d:	89 1d 04 20 00 00    	mov    %ebx,0x2004
 8051b33:	89 0d 08 20 00 00    	mov    %ecx,0x2008
 8051b39:	89 15 0c 20 00 00    	mov    %edx,0x200c
 8051b3f:	89 2d 10 20 00 00    	mov    %ebp,0x2010
 8051b45:	89 35 14 20 00 00    	mov    %esi,0x2014
 8051b4b:	89 3d 18 20 00 00    	mov    %edi,0x2018
 8051b51:	0f 90 05 00 22 00 00 	seto   0x2200
 8051b58:	0f 91 05 01 22 00 00 	setno  0x2201
 8051b5f:	0f 92 05 02 22 00 00 	setb   0x2202
 8051b66:	0f 93 05 03 22 00 00 	setae  0x2203
 8051b6d:	0f 94 05 04 22 00 00 	sete   0x2204
 8051b74:	0f 95 05 05 22 00 00 	setne  0x2205
 8051b7b:	0f 96 05 06 22 00 00 	setbe  0x2206
 8051b82:	0f 97 05 07 22 00 00 	seta   0x2207
 8051b89:	0f 98 05 08 22 00 00 	sets   0x2208
 8051b90:	0f 99 05 09 22 00 00 	setns  0x2209
 8051b97:	0f 9a 05 0a 22 00 00 	setp   0x220a
 8051b9e:	0f 9b 05 0b 22 00 00 	setnp  0x220b
 8051ba5:	0f 9c 05 0c 22 00 00 	setl   0x220c
 8051bac:	0f 9d 05 0d 22 00 00 	setge  0x220d
 8051bb3:	0f 9e 05 0e 22 00 00 	setle  0x220e
 8051bba:	0f 9f 05 0f 22 00 00 	setg   0x220f
 8051bc1:	66 9c                	pushfw 
 8051bc3:	66 58                	pop    %ax
 8051bc5:	66 a3 00 21 00 00    	mov    %ax,0x2100
 8051bcb:	a1 50 20 00 00       	mov    0x2050,%eax
 8051bd0:	29 e0                	sub    %esp,%eax
 8051bd2:	a3 20 20 00 00       	mov    %eax,0x2020
 8051bd7:	b8 00 00 00 00       	mov    $0x0,%eax
 8051bdc:	c3                   	ret    

08051bdd <cmov_w_with_code_f_mv_plain>:
 8051bdd:	3c 02                	cmp    $0x2,%al
 8051bdf:	66 0f 4f d8          	cmovg  %ax,%bx
 8051be3:	b8 00 00 00 00       	mov    $0x0,%eax
 8051be8:	c3                   	ret    

08051be9 <cmov_w_with_code_f_mv_allregs>:
 8051be9:	90                   	nop
 8051bea:	66 a1 00 11 00 00    	mov    0x1100,%ax
 8051bf0:	66 50                	push   %ax
 8051bf2:	66 9d                	popfw  
 8051bf4:	a1 00 10 00 00       	mov    0x1000,%eax
 8051bf9:	8b 1d 04 10 00 00    	mov    0x1004,%ebx
 8051bff:	8b 0d 08 10 00 00    	mov    0x1008,%ecx
 8051c05:	8b 15 0c 10 00 00    	mov    0x100c,%edx
 8051c0b:	8b 2d 10 10 00 00    	mov    0x1010,%ebp
 8051c11:	8b 35 14 10 00 00    	mov    0x1014,%esi
 8051c17:	8b 3d 18 10 00 00    	mov    0x1018,%edi
 8051c1d:	89 25 50 20 00 00    	mov    %esp,0x2050
 8051c23:	3c 02                	cmp    $0x2,%al
 8051c25:	66 0f 4f d8          	cmovg  %ax,%bx
 8051c29:	a3 00 20 00 00       	mov    %eax,0x2000
 8051c2e:	89 1d 04 20 00 00    	mov    %ebx,0x2004
 8051c34:	89 0d 08 20 00 00    	mov    %ecx,0x2008
 8051c3a:	89 15 0c 20 00 00    	mov    %edx,0x200c
 8051c40:	89 2d 10 20 00 00    	mov    %ebp,0x2010
 8051c46:	89 35 14 20 00 00    	mov    %esi,0x2014
 8051c4c:	89 3d 18 20 00 00    	mov    %edi,0x2018
 8051c52:	0f 90 05 00 22 00 00 	seto   0x2200
 8051c59:	0f 91 05 01 22 00 00 	setno  0x2201
 8051c60:	0f 92 05 02 22 00 00 	setb   0x2202
 8051c67:	0f 93 05 03 22 00 00 	setae  0x2203
 8051c6e:	0f 94 05 04 22 00 00 	sete   0x2204
 8051c75:	0f 95 05 05 22 00 00 	setne  0x2205
 8051c7c:	0f 96 05 06 22 00 00 	setbe  0x2206
 8051c83:	0f 97 05 07 22 00 00 	seta   0x2207
 8051c8a:	0f 98 05 08 22 00 00 	sets   0x2208
 8051c91:	0f 99 05 09 22 00 00 	setns  0x2209
 8051c98:	0f 9a 05 0a 22 00 00 	setp   0x220a
 8051c9f:	0f 9b 05 0b 22 00 00 	setnp  0x220b
 8051ca6:	0f 9c 05 0c 22 00 00 	setl   0x220c
 8051cad:	0f 9d 05 0d 22 00 00 	setge  0x220d
 8051cb4:	0f 9e 05 0e 22 00 00 	setle  0x220e
 8051cbb:	0f 9f 05 0f 22 00 00 	setg   0x220f
 8051cc2:	66 9c                	pushfw 
 8051cc4:	66 58                	pop    %ax
 8051cc6:	66 a3 00 21 00 00    	mov    %ax,0x2100
 8051ccc:	a1 50 20 00 00       	mov    0x2050,%eax
 8051cd1:	29 e0                	sub    %esp,%eax
 8051cd3:	a3 20 20 00 00       	mov    %eax,0x2020
 8051cd8:	b8 00 00 00 00       	mov    $0x0,%eax
 8051cdd:	c3                   	ret    

08051cde <cmov_w_with_code_f_mv_constant_simple>:
 8051cde:	90                   	nop
 8051cdf:	66 6a 00             	pushw  $0x0
 8051ce2:	66 9d                	popfw  
 8051ce4:	b8 02 00 00 00       	mov    $0x2,%eax
 8051ce9:	bb 03 00 00 00       	mov    $0x3,%ebx
 8051cee:	b9 04 00 00 00       	mov    $0x4,%ecx
 8051cf3:	ba 05 00 00 00       	mov    $0x5,%edx
 8051cf8:	bd 06 00 00 00       	mov    $0x6,%ebp
 8051cfd:	be 07 00 00 00       	mov    $0x7,%esi
 8051d02:	bf 08 00 00 00       	mov    $0x8,%edi
 8051d07:	89 25 50 20 00 00    	mov    %esp,0x2050
 8051d0d:	3c 02                	cmp    $0x2,%al
 8051d0f:	66 0f 4f d8          	cmovg  %ax,%bx
 8051d13:	a3 00 20 00 00       	mov    %eax,0x2000
 8051d18:	89 1d 04 20 00 00    	mov    %ebx,0x2004
 8051d1e:	89 0d 08 20 00 00    	mov    %ecx,0x2008
 8051d24:	89 15 0c 20 00 00    	mov    %edx,0x200c
 8051d2a:	89 2d 10 20 00 00    	mov    %ebp,0x2010
 8051d30:	89 35 14 20 00 00    	mov    %esi,0x2014
 8051d36:	89 3d 18 20 00 00    	mov    %edi,0x2018
 8051d3c:	0f 90 05 00 22 00 00 	seto   0x2200
 8051d43:	0f 91 05 01 22 00 00 	setno  0x2201
 8051d4a:	0f 92 05 02 22 00 00 	setb   0x2202
 8051d51:	0f 93 05 03 22 00 00 	setae  0x2203
 8051d58:	0f 94 05 04 22 00 00 	sete   0x2204
 8051d5f:	0f 95 05 05 22 00 00 	setne  0x2205
 8051d66:	0f 96 05 06 22 00 00 	setbe  0x2206
 8051d6d:	0f 97 05 07 22 00 00 	seta   0x2207
 8051d74:	0f 98 05 08 22 00 00 	sets   0x2208
 8051d7b:	0f 99 05 09 22 00 00 	setns  0x2209
 8051d82:	0f 9a 05 0a 22 00 00 	setp   0x220a
 8051d89:	0f 9b 05 0b 22 00 00 	setnp  0x220b
 8051d90:	0f 9c 05 0c 22 00 00 	setl   0x220c
 8051d97:	0f 9d 05 0d 22 00 00 	setge  0x220d
 8051d9e:	0f 9e 05 0e 22 00 00 	setle  0x220e
 8051da5:	0f 9f 05 0f 22 00 00 	setg   0x220f
 8051dac:	66 9c                	pushfw 
 8051dae:	66 58                	pop    %ax
 8051db0:	66 a3 00 21 00 00    	mov    %ax,0x2100
 8051db6:	a1 50 20 00 00       	mov    0x2050,%eax
 8051dbb:	29 e0                	sub    %esp,%eax
 8051dbd:	a3 20 20 00 00       	mov    %eax,0x2020
 8051dc2:	b8 00 00 00 00       	mov    $0x0,%eax
 8051dc7:	c3                   	ret    

08051dc8 <cmov_w_with_code_f_mv_constant_complex1>:
 8051dc8:	90                   	nop
 8051dc9:	66 6a 00             	pushw  $0x0
 8051dcc:	66 9d                	popfw  
 8051dce:	b8 84 79 b1 a3       	mov    $0xa3b17984,%eax
 8051dd3:	bb d7 1a 67 06       	mov    $0x6671ad7,%ebx
 8051dd8:	b9 48 52 68 46       	mov    $0x46685248,%ecx
 8051ddd:	ba c4 56 24 39       	mov    $0x392456c4,%edx
 8051de2:	bd a4 60 89 bc       	mov    $0xbc8960a4,%ebp
 8051de7:	be 78 2d 3c ad       	mov    $0xad3c2d78,%esi
 8051dec:	bf 52 e1 65 e4       	mov    $0xe465e152,%edi
 8051df1:	89 25 50 20 00 00    	mov    %esp,0x2050
 8051df7:	3c 02                	cmp    $0x2,%al
 8051df9:	66 0f 4f d8          	cmovg  %ax,%bx
 8051dfd:	a3 00 20 00 00       	mov    %eax,0x2000
 8051e02:	89 1d 04 20 00 00    	mov    %ebx,0x2004
 8051e08:	89 0d 08 20 00 00    	mov    %ecx,0x2008
 8051e0e:	89 15 0c 20 00 00    	mov    %edx,0x200c
 8051e14:	89 2d 10 20 00 00    	mov    %ebp,0x2010
 8051e1a:	89 35 14 20 00 00    	mov    %esi,0x2014
 8051e20:	89 3d 18 20 00 00    	mov    %edi,0x2018
 8051e26:	0f 90 05 00 22 00 00 	seto   0x2200
 8051e2d:	0f 91 05 01 22 00 00 	setno  0x2201
 8051e34:	0f 92 05 02 22 00 00 	setb   0x2202
 8051e3b:	0f 93 05 03 22 00 00 	setae  0x2203
 8051e42:	0f 94 05 04 22 00 00 	sete   0x2204
 8051e49:	0f 95 05 05 22 00 00 	setne  0x2205
 8051e50:	0f 96 05 06 22 00 00 	setbe  0x2206
 8051e57:	0f 97 05 07 22 00 00 	seta   0x2207
 8051e5e:	0f 98 05 08 22 00 00 	sets   0x2208
 8051e65:	0f 99 05 09 22 00 00 	setns  0x2209
 8051e6c:	0f 9a 05 0a 22 00 00 	setp   0x220a
 8051e73:	0f 9b 05 0b 22 00 00 	setnp  0x220b
 8051e7a:	0f 9c 05 0c 22 00 00 	setl   0x220c
 8051e81:	0f 9d 05 0d 22 00 00 	setge  0x220d
 8051e88:	0f 9e 05 0e 22 00 00 	setle  0x220e
 8051e8f:	0f 9f 05 0f 22 00 00 	setg   0x220f
 8051e96:	66 9c                	pushfw 
 8051e98:	66 58                	pop    %ax
 8051e9a:	66 a3 00 21 00 00    	mov    %ax,0x2100
 8051ea0:	a1 50 20 00 00       	mov    0x2050,%eax
 8051ea5:	29 e0                	sub    %esp,%eax
 8051ea7:	a3 20 20 00 00       	mov    %eax,0x2020
 8051eac:	b8 00 00 00 00       	mov    $0x0,%eax
 8051eb1:	c3                   	ret    

08051eb2 <cmov_w_with_code_f_mv_constant_complex2>:
 8051eb2:	90                   	nop
 8051eb3:	66 68 ff fe          	pushw  $0xfeff
 8051eb7:	66 9d                	popfw  
 8051eb9:	b8 e8 c0 3e 31       	mov    $0x313ec0e8,%eax
 8051ebe:	bb c3 81 6e 49       	mov    $0x496e81c3,%ebx
 8051ec3:	b9 b2 6c 3f 1e       	mov    $0x1e3f6cb2,%ecx
 8051ec8:	ba b3 25 69 4e       	mov    $0x4e6925b3,%edx
 8051ecd:	bd 10 26 31 4f       	mov    $0x4f312610,%ebp
 8051ed2:	be a5 a4 37 2f       	mov    $0x2f37a4a5,%esi
 8051ed7:	bf b4 17 a9 91       	mov    $0x91a917b4,%edi
 8051edc:	89 25 50 20 00 00    	mov    %esp,0x2050
 8051ee2:	3c 02                	cmp    $0x2,%al
 8051ee4:	66 0f 4f d8          	cmovg  %ax,%bx
 8051ee8:	a3 00 20 00 00       	mov    %eax,0x2000
 8051eed:	89 1d 04 20 00 00    	mov    %ebx,0x2004
 8051ef3:	89 0d 08 20 00 00    	mov    %ecx,0x2008
 8051ef9:	89 15 0c 20 00 00    	mov    %edx,0x200c
 8051eff:	89 2d 10 20 00 00    	mov    %ebp,0x2010
 8051f05:	89 35 14 20 00 00    	mov    %esi,0x2014
 8051f0b:	89 3d 18 20 00 00    	mov    %edi,0x2018
 8051f11:	0f 90 05 00 22 00 00 	seto   0x2200
 8051f18:	0f 91 05 01 22 00 00 	setno  0x2201
 8051f1f:	0f 92 05 02 22 00 00 	setb   0x2202
 8051f26:	0f 93 05 03 22 00 00 	setae  0x2203
 8051f2d:	0f 94 05 04 22 00 00 	sete   0x2204
 8051f34:	0f 95 05 05 22 00 00 	setne  0x2205
 8051f3b:	0f 96 05 06 22 00 00 	setbe  0x2206
 8051f42:	0f 97 05 07 22 00 00 	seta   0x2207
 8051f49:	0f 98 05 08 22 00 00 	sets   0x2208
 8051f50:	0f 99 05 09 22 00 00 	setns  0x2209
 8051f57:	0f 9a 05 0a 22 00 00 	setp   0x220a
 8051f5e:	0f 9b 05 0b 22 00 00 	setnp  0x220b
 8051f65:	0f 9c 05 0c 22 00 00 	setl   0x220c
 8051f6c:	0f 9d 05 0d 22 00 00 	setge  0x220d
 8051f73:	0f 9e 05 0e 22 00 00 	setle  0x220e
 8051f7a:	0f 9f 05 0f 22 00 00 	setg   0x220f
 8051f81:	66 9c                	pushfw 
 8051f83:	66 58                	pop    %ax
 8051f85:	66 a3 00 21 00 00    	mov    %ax,0x2100
 8051f8b:	a1 50 20 00 00       	mov    0x2050,%eax
 8051f90:	29 e0                	sub    %esp,%eax
 8051f92:	a3 20 20 00 00       	mov    %eax,0x2020
 8051f97:	b8 00 00 00 00       	mov    $0x0,%eax
 8051f9c:	c3                   	ret    

08051f9d <cmov_l_with_code_0_plain>:
 8051f9d:	3c 02                	cmp    $0x2,%al
 8051f9f:	0f 40 d8             	cmovo  %eax,%ebx
 8051fa2:	b8 00 00 00 00       	mov    $0x0,%eax
 8051fa7:	c3                   	ret    

08051fa8 <cmov_l_with_code_0_allregs>:
 8051fa8:	90                   	nop
 8051fa9:	66 a1 00 11 00 00    	mov    0x1100,%ax
 8051faf:	66 50                	push   %ax
 8051fb1:	66 9d                	popfw  
 8051fb3:	a1 00 10 00 00       	mov    0x1000,%eax
 8051fb8:	8b 1d 04 10 00 00    	mov    0x1004,%ebx
 8051fbe:	8b 0d 08 10 00 00    	mov    0x1008,%ecx
 8051fc4:	8b 15 0c 10 00 00    	mov    0x100c,%edx
 8051fca:	8b 2d 10 10 00 00    	mov    0x1010,%ebp
 8051fd0:	8b 35 14 10 00 00    	mov    0x1014,%esi
 8051fd6:	8b 3d 18 10 00 00    	mov    0x1018,%edi
 8051fdc:	89 25 50 20 00 00    	mov    %esp,0x2050
 8051fe2:	3c 02                	cmp    $0x2,%al
 8051fe4:	0f 40 d8             	cmovo  %eax,%ebx
 8051fe7:	a3 00 20 00 00       	mov    %eax,0x2000
 8051fec:	89 1d 04 20 00 00    	mov    %ebx,0x2004
 8051ff2:	89 0d 08 20 00 00    	mov    %ecx,0x2008
 8051ff8:	89 15 0c 20 00 00    	mov    %edx,0x200c
 8051ffe:	89 2d 10 20 00 00    	mov    %ebp,0x2010
 8052004:	89 35 14 20 00 00    	mov    %esi,0x2014
 805200a:	89 3d 18 20 00 00    	mov    %edi,0x2018
 8052010:	0f 90 05 00 22 00 00 	seto   0x2200
 8052017:	0f 91 05 01 22 00 00 	setno  0x2201
 805201e:	0f 92 05 02 22 00 00 	setb   0x2202
 8052025:	0f 93 05 03 22 00 00 	setae  0x2203
 805202c:	0f 94 05 04 22 00 00 	sete   0x2204
 8052033:	0f 95 05 05 22 00 00 	setne  0x2205
 805203a:	0f 96 05 06 22 00 00 	setbe  0x2206
 8052041:	0f 97 05 07 22 00 00 	seta   0x2207
 8052048:	0f 98 05 08 22 00 00 	sets   0x2208
 805204f:	0f 99 05 09 22 00 00 	setns  0x2209
 8052056:	0f 9a 05 0a 22 00 00 	setp   0x220a
 805205d:	0f 9b 05 0b 22 00 00 	setnp  0x220b
 8052064:	0f 9c 05 0c 22 00 00 	setl   0x220c
 805206b:	0f 9d 05 0d 22 00 00 	setge  0x220d
 8052072:	0f 9e 05 0e 22 00 00 	setle  0x220e
 8052079:	0f 9f 05 0f 22 00 00 	setg   0x220f
 8052080:	66 9c                	pushfw 
 8052082:	66 58                	pop    %ax
 8052084:	66 a3 00 21 00 00    	mov    %ax,0x2100
 805208a:	a1 50 20 00 00       	mov    0x2050,%eax
 805208f:	29 e0                	sub    %esp,%eax
 8052091:	a3 20 20 00 00       	mov    %eax,0x2020
 8052096:	b8 00 00 00 00       	mov    $0x0,%eax
 805209b:	c3                   	ret    

0805209c <cmov_l_with_code_0_constant_simple>:
 805209c:	90                   	nop
 805209d:	66 6a 00             	pushw  $0x0
 80520a0:	66 9d                	popfw  
 80520a2:	b8 02 00 00 00       	mov    $0x2,%eax
 80520a7:	bb 03 00 00 00       	mov    $0x3,%ebx
 80520ac:	b9 04 00 00 00       	mov    $0x4,%ecx
 80520b1:	ba 05 00 00 00       	mov    $0x5,%edx
 80520b6:	bd 06 00 00 00       	mov    $0x6,%ebp
 80520bb:	be 07 00 00 00       	mov    $0x7,%esi
 80520c0:	bf 08 00 00 00       	mov    $0x8,%edi
 80520c5:	89 25 50 20 00 00    	mov    %esp,0x2050
 80520cb:	3c 02                	cmp    $0x2,%al
 80520cd:	0f 40 d8             	cmovo  %eax,%ebx
 80520d0:	a3 00 20 00 00       	mov    %eax,0x2000
 80520d5:	89 1d 04 20 00 00    	mov    %ebx,0x2004
 80520db:	89 0d 08 20 00 00    	mov    %ecx,0x2008
 80520e1:	89 15 0c 20 00 00    	mov    %edx,0x200c
 80520e7:	89 2d 10 20 00 00    	mov    %ebp,0x2010
 80520ed:	89 35 14 20 00 00    	mov    %esi,0x2014
 80520f3:	89 3d 18 20 00 00    	mov    %edi,0x2018
 80520f9:	0f 90 05 00 22 00 00 	seto   0x2200
 8052100:	0f 91 05 01 22 00 00 	setno  0x2201
 8052107:	0f 92 05 02 22 00 00 	setb   0x2202
 805210e:	0f 93 05 03 22 00 00 	setae  0x2203
 8052115:	0f 94 05 04 22 00 00 	sete   0x2204
 805211c:	0f 95 05 05 22 00 00 	setne  0x2205
 8052123:	0f 96 05 06 22 00 00 	setbe  0x2206
 805212a:	0f 97 05 07 22 00 00 	seta   0x2207
 8052131:	0f 98 05 08 22 00 00 	sets   0x2208
 8052138:	0f 99 05 09 22 00 00 	setns  0x2209
 805213f:	0f 9a 05 0a 22 00 00 	setp   0x220a
 8052146:	0f 9b 05 0b 22 00 00 	setnp  0x220b
 805214d:	0f 9c 05 0c 22 00 00 	setl   0x220c
 8052154:	0f 9d 05 0d 22 00 00 	setge  0x220d
 805215b:	0f 9e 05 0e 22 00 00 	setle  0x220e
 8052162:	0f 9f 05 0f 22 00 00 	setg   0x220f
 8052169:	66 9c                	pushfw 
 805216b:	66 58                	pop    %ax
 805216d:	66 a3 00 21 00 00    	mov    %ax,0x2100
 8052173:	a1 50 20 00 00       	mov    0x2050,%eax
 8052178:	29 e0                	sub    %esp,%eax
 805217a:	a3 20 20 00 00       	mov    %eax,0x2020
 805217f:	b8 00 00 00 00       	mov    $0x0,%eax
 8052184:	c3                   	ret    

08052185 <cmov_l_with_code_0_constant_complex1>:
 8052185:	90                   	nop
 8052186:	66 6a 00             	pushw  $0x0
 8052189:	66 9d                	popfw  
 805218b:	b8 84 79 b1 a3       	mov    $0xa3b17984,%eax
 8052190:	bb d7 1a 67 06       	mov    $0x6671ad7,%ebx
 8052195:	b9 48 52 68 46       	mov    $0x46685248,%ecx
 805219a:	ba c4 56 24 39       	mov    $0x392456c4,%edx
 805219f:	bd a4 60 89 bc       	mov    $0xbc8960a4,%ebp
 80521a4:	be 78 2d 3c ad       	mov    $0xad3c2d78,%esi
 80521a9:	bf 52 e1 65 e4       	mov    $0xe465e152,%edi
 80521ae:	89 25 50 20 00 00    	mov    %esp,0x2050
 80521b4:	3c 02                	cmp    $0x2,%al
 80521b6:	0f 40 d8             	cmovo  %eax,%ebx
 80521b9:	a3 00 20 00 00       	mov    %eax,0x2000
 80521be:	89 1d 04 20 00 00    	mov    %ebx,0x2004
 80521c4:	89 0d 08 20 00 00    	mov    %ecx,0x2008
 80521ca:	89 15 0c 20 00 00    	mov    %edx,0x200c
 80521d0:	89 2d 10 20 00 00    	mov    %ebp,0x2010
 80521d6:	89 35 14 20 00 00    	mov    %esi,0x2014
 80521dc:	89 3d 18 20 00 00    	mov    %edi,0x2018
 80521e2:	0f 90 05 00 22 00 00 	seto   0x2200
 80521e9:	0f 91 05 01 22 00 00 	setno  0x2201
 80521f0:	0f 92 05 02 22 00 00 	setb   0x2202
 80521f7:	0f 93 05 03 22 00 00 	setae  0x2203
 80521fe:	0f 94 05 04 22 00 00 	sete   0x2204
 8052205:	0f 95 05 05 22 00 00 	setne  0x2205
 805220c:	0f 96 05 06 22 00 00 	setbe  0x2206
 8052213:	0f 97 05 07 22 00 00 	seta   0x2207
 805221a:	0f 98 05 08 22 00 00 	sets   0x2208
 8052221:	0f 99 05 09 22 00 00 	setns  0x2209
 8052228:	0f 9a 05 0a 22 00 00 	setp   0x220a
 805222f:	0f 9b 05 0b 22 00 00 	setnp  0x220b
 8052236:	0f 9c 05 0c 22 00 00 	setl   0x220c
 805223d:	0f 9d 05 0d 22 00 00 	setge  0x220d
 8052244:	0f 9e 05 0e 22 00 00 	setle  0x220e
 805224b:	0f 9f 05 0f 22 00 00 	setg   0x220f
 8052252:	66 9c                	pushfw 
 8052254:	66 58                	pop    %ax
 8052256:	66 a3 00 21 00 00    	mov    %ax,0x2100
 805225c:	a1 50 20 00 00       	mov    0x2050,%eax
 8052261:	29 e0                	sub    %esp,%eax
 8052263:	a3 20 20 00 00       	mov    %eax,0x2020
 8052268:	b8 00 00 00 00       	mov    $0x0,%eax
 805226d:	c3                   	ret    

0805226e <cmov_l_with_code_0_constant_complex2>:
 805226e:	90                   	nop
 805226f:	66 68 ff fe          	pushw  $0xfeff
 8052273:	66 9d                	popfw  
 8052275:	b8 e8 c0 3e 31       	mov    $0x313ec0e8,%eax
 805227a:	bb c3 81 6e 49       	mov    $0x496e81c3,%ebx
 805227f:	b9 b2 6c 3f 1e       	mov    $0x1e3f6cb2,%ecx
 8052284:	ba b3 25 69 4e       	mov    $0x4e6925b3,%edx
 8052289:	bd 10 26 31 4f       	mov    $0x4f312610,%ebp
 805228e:	be a5 a4 37 2f       	mov    $0x2f37a4a5,%esi
 8052293:	bf b4 17 a9 91       	mov    $0x91a917b4,%edi
 8052298:	89 25 50 20 00 00    	mov    %esp,0x2050
 805229e:	3c 02                	cmp    $0x2,%al
 80522a0:	0f 40 d8             	cmovo  %eax,%ebx
 80522a3:	a3 00 20 00 00       	mov    %eax,0x2000
 80522a8:	89 1d 04 20 00 00    	mov    %ebx,0x2004
 80522ae:	89 0d 08 20 00 00    	mov    %ecx,0x2008
 80522b4:	89 15 0c 20 00 00    	mov    %edx,0x200c
 80522ba:	89 2d 10 20 00 00    	mov    %ebp,0x2010
 80522c0:	89 35 14 20 00 00    	mov    %esi,0x2014
 80522c6:	89 3d 18 20 00 00    	mov    %edi,0x2018
 80522cc:	0f 90 05 00 22 00 00 	seto   0x2200
 80522d3:	0f 91 05 01 22 00 00 	setno  0x2201
 80522da:	0f 92 05 02 22 00 00 	setb   0x2202
 80522e1:	0f 93 05 03 22 00 00 	setae  0x2203
 80522e8:	0f 94 05 04 22 00 00 	sete   0x2204
 80522ef:	0f 95 05 05 22 00 00 	setne  0x2205
 80522f6:	0f 96 05 06 22 00 00 	setbe  0x2206
 80522fd:	0f 97 05 07 22 00 00 	seta   0x2207
 8052304:	0f 98 05 08 22 00 00 	sets   0x2208
 805230b:	0f 99 05 09 22 00 00 	setns  0x2209
 8052312:	0f 9a 05 0a 22 00 00 	setp   0x220a
 8052319:	0f 9b 05 0b 22 00 00 	setnp  0x220b
 8052320:	0f 9c 05 0c 22 00 00 	setl   0x220c
 8052327:	0f 9d 05 0d 22 00 00 	setge  0x220d
 805232e:	0f 9e 05 0e 22 00 00 	setle  0x220e
 8052335:	0f 9f 05 0f 22 00 00 	setg   0x220f
 805233c:	66 9c                	pushfw 
 805233e:	66 58                	pop    %ax
 8052340:	66 a3 00 21 00 00    	mov    %ax,0x2100
 8052346:	a1 50 20 00 00       	mov    0x2050,%eax
 805234b:	29 e0                	sub    %esp,%eax
 805234d:	a3 20 20 00 00       	mov    %eax,0x2020
 8052352:	b8 00 00 00 00       	mov    $0x0,%eax
 8052357:	c3                   	ret    

08052358 <cmov_l_with_code_1_mv_plain>:
 8052358:	3c 02                	cmp    $0x2,%al
 805235a:	0f 41 d8             	cmovno %eax,%ebx
 805235d:	b8 00 00 00 00       	mov    $0x0,%eax
 8052362:	c3                   	ret    

08052363 <cmov_l_with_code_1_mv_allregs>:
 8052363:	90                   	nop
 8052364:	66 a1 00 11 00 00    	mov    0x1100,%ax
 805236a:	66 50                	push   %ax
 805236c:	66 9d                	popfw  
 805236e:	a1 00 10 00 00       	mov    0x1000,%eax
 8052373:	8b 1d 04 10 00 00    	mov    0x1004,%ebx
 8052379:	8b 0d 08 10 00 00    	mov    0x1008,%ecx
 805237f:	8b 15 0c 10 00 00    	mov    0x100c,%edx
 8052385:	8b 2d 10 10 00 00    	mov    0x1010,%ebp
 805238b:	8b 35 14 10 00 00    	mov    0x1014,%esi
 8052391:	8b 3d 18 10 00 00    	mov    0x1018,%edi
 8052397:	89 25 50 20 00 00    	mov    %esp,0x2050
 805239d:	3c 02                	cmp    $0x2,%al
 805239f:	0f 41 d8             	cmovno %eax,%ebx
 80523a2:	a3 00 20 00 00       	mov    %eax,0x2000
 80523a7:	89 1d 04 20 00 00    	mov    %ebx,0x2004
 80523ad:	89 0d 08 20 00 00    	mov    %ecx,0x2008
 80523b3:	89 15 0c 20 00 00    	mov    %edx,0x200c
 80523b9:	89 2d 10 20 00 00    	mov    %ebp,0x2010
 80523bf:	89 35 14 20 00 00    	mov    %esi,0x2014
 80523c5:	89 3d 18 20 00 00    	mov    %edi,0x2018
 80523cb:	0f 90 05 00 22 00 00 	seto   0x2200
 80523d2:	0f 91 05 01 22 00 00 	setno  0x2201
 80523d9:	0f 92 05 02 22 00 00 	setb   0x2202
 80523e0:	0f 93 05 03 22 00 00 	setae  0x2203
 80523e7:	0f 94 05 04 22 00 00 	sete   0x2204
 80523ee:	0f 95 05 05 22 00 00 	setne  0x2205
 80523f5:	0f 96 05 06 22 00 00 	setbe  0x2206
 80523fc:	0f 97 05 07 22 00 00 	seta   0x2207
 8052403:	0f 98 05 08 22 00 00 	sets   0x2208
 805240a:	0f 99 05 09 22 00 00 	setns  0x2209
 8052411:	0f 9a 05 0a 22 00 00 	setp   0x220a
 8052418:	0f 9b 05 0b 22 00 00 	setnp  0x220b
 805241f:	0f 9c 05 0c 22 00 00 	setl   0x220c
 8052426:	0f 9d 05 0d 22 00 00 	setge  0x220d
 805242d:	0f 9e 05 0e 22 00 00 	setle  0x220e
 8052434:	0f 9f 05 0f 22 00 00 	setg   0x220f
 805243b:	66 9c                	pushfw 
 805243d:	66 58                	pop    %ax
 805243f:	66 a3 00 21 00 00    	mov    %ax,0x2100
 8052445:	a1 50 20 00 00       	mov    0x2050,%eax
 805244a:	29 e0                	sub    %esp,%eax
 805244c:	a3 20 20 00 00       	mov    %eax,0x2020
 8052451:	b8 00 00 00 00       	mov    $0x0,%eax
 8052456:	c3                   	ret    

08052457 <cmov_l_with_code_1_mv_constant_simple>:
 8052457:	90                   	nop
 8052458:	66 6a 00             	pushw  $0x0
 805245b:	66 9d                	popfw  
 805245d:	b8 02 00 00 00       	mov    $0x2,%eax
 8052462:	bb 03 00 00 00       	mov    $0x3,%ebx
 8052467:	b9 04 00 00 00       	mov    $0x4,%ecx
 805246c:	ba 05 00 00 00       	mov    $0x5,%edx
 8052471:	bd 06 00 00 00       	mov    $0x6,%ebp
 8052476:	be 07 00 00 00       	mov    $0x7,%esi
 805247b:	bf 08 00 00 00       	mov    $0x8,%edi
 8052480:	89 25 50 20 00 00    	mov    %esp,0x2050
 8052486:	3c 02                	cmp    $0x2,%al
 8052488:	0f 41 d8             	cmovno %eax,%ebx
 805248b:	a3 00 20 00 00       	mov    %eax,0x2000
 8052490:	89 1d 04 20 00 00    	mov    %ebx,0x2004
 8052496:	89 0d 08 20 00 00    	mov    %ecx,0x2008
 805249c:	89 15 0c 20 00 00    	mov    %edx,0x200c
 80524a2:	89 2d 10 20 00 00    	mov    %ebp,0x2010
 80524a8:	89 35 14 20 00 00    	mov    %esi,0x2014
 80524ae:	89 3d 18 20 00 00    	mov    %edi,0x2018
 80524b4:	0f 90 05 00 22 00 00 	seto   0x2200
 80524bb:	0f 91 05 01 22 00 00 	setno  0x2201
 80524c2:	0f 92 05 02 22 00 00 	setb   0x2202
 80524c9:	0f 93 05 03 22 00 00 	setae  0x2203
 80524d0:	0f 94 05 04 22 00 00 	sete   0x2204
 80524d7:	0f 95 05 05 22 00 00 	setne  0x2205
 80524de:	0f 96 05 06 22 00 00 	setbe  0x2206
 80524e5:	0f 97 05 07 22 00 00 	seta   0x2207
 80524ec:	0f 98 05 08 22 00 00 	sets   0x2208
 80524f3:	0f 99 05 09 22 00 00 	setns  0x2209
 80524fa:	0f 9a 05 0a 22 00 00 	setp   0x220a
 8052501:	0f 9b 05 0b 22 00 00 	setnp  0x220b
 8052508:	0f 9c 05 0c 22 00 00 	setl   0x220c
 805250f:	0f 9d 05 0d 22 00 00 	setge  0x220d
 8052516:	0f 9e 05 0e 22 00 00 	setle  0x220e
 805251d:	0f 9f 05 0f 22 00 00 	setg   0x220f
 8052524:	66 9c                	pushfw 
 8052526:	66 58                	pop    %ax
 8052528:	66 a3 00 21 00 00    	mov    %ax,0x2100
 805252e:	a1 50 20 00 00       	mov    0x2050,%eax
 8052533:	29 e0                	sub    %esp,%eax
 8052535:	a3 20 20 00 00       	mov    %eax,0x2020
 805253a:	b8 00 00 00 00       	mov    $0x0,%eax
 805253f:	c3                   	ret    

08052540 <cmov_l_with_code_1_mv_constant_complex1>:
 8052540:	90                   	nop
 8052541:	66 6a 00             	pushw  $0x0
 8052544:	66 9d                	popfw  
 8052546:	b8 84 79 b1 a3       	mov    $0xa3b17984,%eax
 805254b:	bb d7 1a 67 06       	mov    $0x6671ad7,%ebx
 8052550:	b9 48 52 68 46       	mov    $0x46685248,%ecx
 8052555:	ba c4 56 24 39       	mov    $0x392456c4,%edx
 805255a:	bd a4 60 89 bc       	mov    $0xbc8960a4,%ebp
 805255f:	be 78 2d 3c ad       	mov    $0xad3c2d78,%esi
 8052564:	bf 52 e1 65 e4       	mov    $0xe465e152,%edi
 8052569:	89 25 50 20 00 00    	mov    %esp,0x2050
 805256f:	3c 02                	cmp    $0x2,%al
 8052571:	0f 41 d8             	cmovno %eax,%ebx
 8052574:	a3 00 20 00 00       	mov    %eax,0x2000
 8052579:	89 1d 04 20 00 00    	mov    %ebx,0x2004
 805257f:	89 0d 08 20 00 00    	mov    %ecx,0x2008
 8052585:	89 15 0c 20 00 00    	mov    %edx,0x200c
 805258b:	89 2d 10 20 00 00    	mov    %ebp,0x2010
 8052591:	89 35 14 20 00 00    	mov    %esi,0x2014
 8052597:	89 3d 18 20 00 00    	mov    %edi,0x2018
 805259d:	0f 90 05 00 22 00 00 	seto   0x2200
 80525a4:	0f 91 05 01 22 00 00 	setno  0x2201
 80525ab:	0f 92 05 02 22 00 00 	setb   0x2202
 80525b2:	0f 93 05 03 22 00 00 	setae  0x2203
 80525b9:	0f 94 05 04 22 00 00 	sete   0x2204
 80525c0:	0f 95 05 05 22 00 00 	setne  0x2205
 80525c7:	0f 96 05 06 22 00 00 	setbe  0x2206
 80525ce:	0f 97 05 07 22 00 00 	seta   0x2207
 80525d5:	0f 98 05 08 22 00 00 	sets   0x2208
 80525dc:	0f 99 05 09 22 00 00 	setns  0x2209
 80525e3:	0f 9a 05 0a 22 00 00 	setp   0x220a
 80525ea:	0f 9b 05 0b 22 00 00 	setnp  0x220b
 80525f1:	0f 9c 05 0c 22 00 00 	setl   0x220c
 80525f8:	0f 9d 05 0d 22 00 00 	setge  0x220d
 80525ff:	0f 9e 05 0e 22 00 00 	setle  0x220e
 8052606:	0f 9f 05 0f 22 00 00 	setg   0x220f
 805260d:	66 9c                	pushfw 
 805260f:	66 58                	pop    %ax
 8052611:	66 a3 00 21 00 00    	mov    %ax,0x2100
 8052617:	a1 50 20 00 00       	mov    0x2050,%eax
 805261c:	29 e0                	sub    %esp,%eax
 805261e:	a3 20 20 00 00       	mov    %eax,0x2020
 8052623:	b8 00 00 00 00       	mov    $0x0,%eax
 8052628:	c3                   	ret    

08052629 <cmov_l_with_code_1_mv_constant_complex2>:
 8052629:	90                   	nop
 805262a:	66 68 ff fe          	pushw  $0xfeff
 805262e:	66 9d                	popfw  
 8052630:	b8 e8 c0 3e 31       	mov    $0x313ec0e8,%eax
 8052635:	bb c3 81 6e 49       	mov    $0x496e81c3,%ebx
 805263a:	b9 b2 6c 3f 1e       	mov    $0x1e3f6cb2,%ecx
 805263f:	ba b3 25 69 4e       	mov    $0x4e6925b3,%edx
 8052644:	bd 10 26 31 4f       	mov    $0x4f312610,%ebp
 8052649:	be a5 a4 37 2f       	mov    $0x2f37a4a5,%esi
 805264e:	bf b4 17 a9 91       	mov    $0x91a917b4,%edi
 8052653:	89 25 50 20 00 00    	mov    %esp,0x2050
 8052659:	3c 02                	cmp    $0x2,%al
 805265b:	0f 41 d8             	cmovno %eax,%ebx
 805265e:	a3 00 20 00 00       	mov    %eax,0x2000
 8052663:	89 1d 04 20 00 00    	mov    %ebx,0x2004
 8052669:	89 0d 08 20 00 00    	mov    %ecx,0x2008
 805266f:	89 15 0c 20 00 00    	mov    %edx,0x200c
 8052675:	89 2d 10 20 00 00    	mov    %ebp,0x2010
 805267b:	89 35 14 20 00 00    	mov    %esi,0x2014
 8052681:	89 3d 18 20 00 00    	mov    %edi,0x2018
 8052687:	0f 90 05 00 22 00 00 	seto   0x2200
 805268e:	0f 91 05 01 22 00 00 	setno  0x2201
 8052695:	0f 92 05 02 22 00 00 	setb   0x2202
 805269c:	0f 93 05 03 22 00 00 	setae  0x2203
 80526a3:	0f 94 05 04 22 00 00 	sete   0x2204
 80526aa:	0f 95 05 05 22 00 00 	setne  0x2205
 80526b1:	0f 96 05 06 22 00 00 	setbe  0x2206
 80526b8:	0f 97 05 07 22 00 00 	seta   0x2207
 80526bf:	0f 98 05 08 22 00 00 	sets   0x2208
 80526c6:	0f 99 05 09 22 00 00 	setns  0x2209
 80526cd:	0f 9a 05 0a 22 00 00 	setp   0x220a
 80526d4:	0f 9b 05 0b 22 00 00 	setnp  0x220b
 80526db:	0f 9c 05 0c 22 00 00 	setl   0x220c
 80526e2:	0f 9d 05 0d 22 00 00 	setge  0x220d
 80526e9:	0f 9e 05 0e 22 00 00 	setle  0x220e
 80526f0:	0f 9f 05 0f 22 00 00 	setg   0x220f
 80526f7:	66 9c                	pushfw 
 80526f9:	66 58                	pop    %ax
 80526fb:	66 a3 00 21 00 00    	mov    %ax,0x2100
 8052701:	a1 50 20 00 00       	mov    0x2050,%eax
 8052706:	29 e0                	sub    %esp,%eax
 8052708:	a3 20 20 00 00       	mov    %eax,0x2020
 805270d:	b8 00 00 00 00       	mov    $0x0,%eax
 8052712:	c3                   	ret    

08052713 <cmov_l_with_code_2_mv_plain>:
 8052713:	3c 02                	cmp    $0x2,%al
 8052715:	0f 42 d8             	cmovb  %eax,%ebx
 8052718:	b8 00 00 00 00       	mov    $0x0,%eax
 805271d:	c3                   	ret    

0805271e <cmov_l_with_code_2_mv_allregs>:
 805271e:	90                   	nop
 805271f:	66 a1 00 11 00 00    	mov    0x1100,%ax
 8052725:	66 50                	push   %ax
 8052727:	66 9d                	popfw  
 8052729:	a1 00 10 00 00       	mov    0x1000,%eax
 805272e:	8b 1d 04 10 00 00    	mov    0x1004,%ebx
 8052734:	8b 0d 08 10 00 00    	mov    0x1008,%ecx
 805273a:	8b 15 0c 10 00 00    	mov    0x100c,%edx
 8052740:	8b 2d 10 10 00 00    	mov    0x1010,%ebp
 8052746:	8b 35 14 10 00 00    	mov    0x1014,%esi
 805274c:	8b 3d 18 10 00 00    	mov    0x1018,%edi
 8052752:	89 25 50 20 00 00    	mov    %esp,0x2050
 8052758:	3c 02                	cmp    $0x2,%al
 805275a:	0f 42 d8             	cmovb  %eax,%ebx
 805275d:	a3 00 20 00 00       	mov    %eax,0x2000
 8052762:	89 1d 04 20 00 00    	mov    %ebx,0x2004
 8052768:	89 0d 08 20 00 00    	mov    %ecx,0x2008
 805276e:	89 15 0c 20 00 00    	mov    %edx,0x200c
 8052774:	89 2d 10 20 00 00    	mov    %ebp,0x2010
 805277a:	89 35 14 20 00 00    	mov    %esi,0x2014
 8052780:	89 3d 18 20 00 00    	mov    %edi,0x2018
 8052786:	0f 90 05 00 22 00 00 	seto   0x2200
 805278d:	0f 91 05 01 22 00 00 	setno  0x2201
 8052794:	0f 92 05 02 22 00 00 	setb   0x2202
 805279b:	0f 93 05 03 22 00 00 	setae  0x2203
 80527a2:	0f 94 05 04 22 00 00 	sete   0x2204
 80527a9:	0f 95 05 05 22 00 00 	setne  0x2205
 80527b0:	0f 96 05 06 22 00 00 	setbe  0x2206
 80527b7:	0f 97 05 07 22 00 00 	seta   0x2207
 80527be:	0f 98 05 08 22 00 00 	sets   0x2208
 80527c5:	0f 99 05 09 22 00 00 	setns  0x2209
 80527cc:	0f 9a 05 0a 22 00 00 	setp   0x220a
 80527d3:	0f 9b 05 0b 22 00 00 	setnp  0x220b
 80527da:	0f 9c 05 0c 22 00 00 	setl   0x220c
 80527e1:	0f 9d 05 0d 22 00 00 	setge  0x220d
 80527e8:	0f 9e 05 0e 22 00 00 	setle  0x220e
 80527ef:	0f 9f 05 0f 22 00 00 	setg   0x220f
 80527f6:	66 9c                	pushfw 
 80527f8:	66 58                	pop    %ax
 80527fa:	66 a3 00 21 00 00    	mov    %ax,0x2100
 8052800:	a1 50 20 00 00       	mov    0x2050,%eax
 8052805:	29 e0                	sub    %esp,%eax
 8052807:	a3 20 20 00 00       	mov    %eax,0x2020
 805280c:	b8 00 00 00 00       	mov    $0x0,%eax
 8052811:	c3                   	ret    

08052812 <cmov_l_with_code_2_mv_constant_simple>:
 8052812:	90                   	nop
 8052813:	66 6a 00             	pushw  $0x0
 8052816:	66 9d                	popfw  
 8052818:	b8 02 00 00 00       	mov    $0x2,%eax
 805281d:	bb 03 00 00 00       	mov    $0x3,%ebx
 8052822:	b9 04 00 00 00       	mov    $0x4,%ecx
 8052827:	ba 05 00 00 00       	mov    $0x5,%edx
 805282c:	bd 06 00 00 00       	mov    $0x6,%ebp
 8052831:	be 07 00 00 00       	mov    $0x7,%esi
 8052836:	bf 08 00 00 00       	mov    $0x8,%edi
 805283b:	89 25 50 20 00 00    	mov    %esp,0x2050
 8052841:	3c 02                	cmp    $0x2,%al
 8052843:	0f 42 d8             	cmovb  %eax,%ebx
 8052846:	a3 00 20 00 00       	mov    %eax,0x2000
 805284b:	89 1d 04 20 00 00    	mov    %ebx,0x2004
 8052851:	89 0d 08 20 00 00    	mov    %ecx,0x2008
 8052857:	89 15 0c 20 00 00    	mov    %edx,0x200c
 805285d:	89 2d 10 20 00 00    	mov    %ebp,0x2010
 8052863:	89 35 14 20 00 00    	mov    %esi,0x2014
 8052869:	89 3d 18 20 00 00    	mov    %edi,0x2018
 805286f:	0f 90 05 00 22 00 00 	seto   0x2200
 8052876:	0f 91 05 01 22 00 00 	setno  0x2201
 805287d:	0f 92 05 02 22 00 00 	setb   0x2202
 8052884:	0f 93 05 03 22 00 00 	setae  0x2203
 805288b:	0f 94 05 04 22 00 00 	sete   0x2204
 8052892:	0f 95 05 05 22 00 00 	setne  0x2205
 8052899:	0f 96 05 06 22 00 00 	setbe  0x2206
 80528a0:	0f 97 05 07 22 00 00 	seta   0x2207
 80528a7:	0f 98 05 08 22 00 00 	sets   0x2208
 80528ae:	0f 99 05 09 22 00 00 	setns  0x2209
 80528b5:	0f 9a 05 0a 22 00 00 	setp   0x220a
 80528bc:	0f 9b 05 0b 22 00 00 	setnp  0x220b
 80528c3:	0f 9c 05 0c 22 00 00 	setl   0x220c
 80528ca:	0f 9d 05 0d 22 00 00 	setge  0x220d
 80528d1:	0f 9e 05 0e 22 00 00 	setle  0x220e
 80528d8:	0f 9f 05 0f 22 00 00 	setg   0x220f
 80528df:	66 9c                	pushfw 
 80528e1:	66 58                	pop    %ax
 80528e3:	66 a3 00 21 00 00    	mov    %ax,0x2100
 80528e9:	a1 50 20 00 00       	mov    0x2050,%eax
 80528ee:	29 e0                	sub    %esp,%eax
 80528f0:	a3 20 20 00 00       	mov    %eax,0x2020
 80528f5:	b8 00 00 00 00       	mov    $0x0,%eax
 80528fa:	c3                   	ret    

080528fb <cmov_l_with_code_2_mv_constant_complex1>:
 80528fb:	90                   	nop
 80528fc:	66 6a 00             	pushw  $0x0
 80528ff:	66 9d                	popfw  
 8052901:	b8 84 79 b1 a3       	mov    $0xa3b17984,%eax
 8052906:	bb d7 1a 67 06       	mov    $0x6671ad7,%ebx
 805290b:	b9 48 52 68 46       	mov    $0x46685248,%ecx
 8052910:	ba c4 56 24 39       	mov    $0x392456c4,%edx
 8052915:	bd a4 60 89 bc       	mov    $0xbc8960a4,%ebp
 805291a:	be 78 2d 3c ad       	mov    $0xad3c2d78,%esi
 805291f:	bf 52 e1 65 e4       	mov    $0xe465e152,%edi
 8052924:	89 25 50 20 00 00    	mov    %esp,0x2050
 805292a:	3c 02                	cmp    $0x2,%al
 805292c:	0f 42 d8             	cmovb  %eax,%ebx
 805292f:	a3 00 20 00 00       	mov    %eax,0x2000
 8052934:	89 1d 04 20 00 00    	mov    %ebx,0x2004
 805293a:	89 0d 08 20 00 00    	mov    %ecx,0x2008
 8052940:	89 15 0c 20 00 00    	mov    %edx,0x200c
 8052946:	89 2d 10 20 00 00    	mov    %ebp,0x2010
 805294c:	89 35 14 20 00 00    	mov    %esi,0x2014
 8052952:	89 3d 18 20 00 00    	mov    %edi,0x2018
 8052958:	0f 90 05 00 22 00 00 	seto   0x2200
 805295f:	0f 91 05 01 22 00 00 	setno  0x2201
 8052966:	0f 92 05 02 22 00 00 	setb   0x2202
 805296d:	0f 93 05 03 22 00 00 	setae  0x2203
 8052974:	0f 94 05 04 22 00 00 	sete   0x2204
 805297b:	0f 95 05 05 22 00 00 	setne  0x2205
 8052982:	0f 96 05 06 22 00 00 	setbe  0x2206
 8052989:	0f 97 05 07 22 00 00 	seta   0x2207
 8052990:	0f 98 05 08 22 00 00 	sets   0x2208
 8052997:	0f 99 05 09 22 00 00 	setns  0x2209
 805299e:	0f 9a 05 0a 22 00 00 	setp   0x220a
 80529a5:	0f 9b 05 0b 22 00 00 	setnp  0x220b
 80529ac:	0f 9c 05 0c 22 00 00 	setl   0x220c
 80529b3:	0f 9d 05 0d 22 00 00 	setge  0x220d
 80529ba:	0f 9e 05 0e 22 00 00 	setle  0x220e
 80529c1:	0f 9f 05 0f 22 00 00 	setg   0x220f
 80529c8:	66 9c                	pushfw 
 80529ca:	66 58                	pop    %ax
 80529cc:	66 a3 00 21 00 00    	mov    %ax,0x2100
 80529d2:	a1 50 20 00 00       	mov    0x2050,%eax
 80529d7:	29 e0                	sub    %esp,%eax
 80529d9:	a3 20 20 00 00       	mov    %eax,0x2020
 80529de:	b8 00 00 00 00       	mov    $0x0,%eax
 80529e3:	c3                   	ret    

080529e4 <cmov_l_with_code_2_mv_constant_complex2>:
 80529e4:	90                   	nop
 80529e5:	66 68 ff fe          	pushw  $0xfeff
 80529e9:	66 9d                	popfw  
 80529eb:	b8 e8 c0 3e 31       	mov    $0x313ec0e8,%eax
 80529f0:	bb c3 81 6e 49       	mov    $0x496e81c3,%ebx
 80529f5:	b9 b2 6c 3f 1e       	mov    $0x1e3f6cb2,%ecx
 80529fa:	ba b3 25 69 4e       	mov    $0x4e6925b3,%edx
 80529ff:	bd 10 26 31 4f       	mov    $0x4f312610,%ebp
 8052a04:	be a5 a4 37 2f       	mov    $0x2f37a4a5,%esi
 8052a09:	bf b4 17 a9 91       	mov    $0x91a917b4,%edi
 8052a0e:	89 25 50 20 00 00    	mov    %esp,0x2050
 8052a14:	3c 02                	cmp    $0x2,%al
 8052a16:	0f 42 d8             	cmovb  %eax,%ebx
 8052a19:	a3 00 20 00 00       	mov    %eax,0x2000
 8052a1e:	89 1d 04 20 00 00    	mov    %ebx,0x2004
 8052a24:	89 0d 08 20 00 00    	mov    %ecx,0x2008
 8052a2a:	89 15 0c 20 00 00    	mov    %edx,0x200c
 8052a30:	89 2d 10 20 00 00    	mov    %ebp,0x2010
 8052a36:	89 35 14 20 00 00    	mov    %esi,0x2014
 8052a3c:	89 3d 18 20 00 00    	mov    %edi,0x2018
 8052a42:	0f 90 05 00 22 00 00 	seto   0x2200
 8052a49:	0f 91 05 01 22 00 00 	setno  0x2201
 8052a50:	0f 92 05 02 22 00 00 	setb   0x2202
 8052a57:	0f 93 05 03 22 00 00 	setae  0x2203
 8052a5e:	0f 94 05 04 22 00 00 	sete   0x2204
 8052a65:	0f 95 05 05 22 00 00 	setne  0x2205
 8052a6c:	0f 96 05 06 22 00 00 	setbe  0x2206
 8052a73:	0f 97 05 07 22 00 00 	seta   0x2207
 8052a7a:	0f 98 05 08 22 00 00 	sets   0x2208
 8052a81:	0f 99 05 09 22 00 00 	setns  0x2209
 8052a88:	0f 9a 05 0a 22 00 00 	setp   0x220a
 8052a8f:	0f 9b 05 0b 22 00 00 	setnp  0x220b
 8052a96:	0f 9c 05 0c 22 00 00 	setl   0x220c
 8052a9d:	0f 9d 05 0d 22 00 00 	setge  0x220d
 8052aa4:	0f 9e 05 0e 22 00 00 	setle  0x220e
 8052aab:	0f 9f 05 0f 22 00 00 	setg   0x220f
 8052ab2:	66 9c                	pushfw 
 8052ab4:	66 58                	pop    %ax
 8052ab6:	66 a3 00 21 00 00    	mov    %ax,0x2100
 8052abc:	a1 50 20 00 00       	mov    0x2050,%eax
 8052ac1:	29 e0                	sub    %esp,%eax
 8052ac3:	a3 20 20 00 00       	mov    %eax,0x2020
 8052ac8:	b8 00 00 00 00       	mov    $0x0,%eax
 8052acd:	c3                   	ret    

08052ace <cmov_l_with_code_3_mv_plain>:
 8052ace:	3c 02                	cmp    $0x2,%al
 8052ad0:	0f 43 d8             	cmovae %eax,%ebx
 8052ad3:	b8 00 00 00 00       	mov    $0x0,%eax
 8052ad8:	c3                   	ret    

08052ad9 <cmov_l_with_code_3_mv_allregs>:
 8052ad9:	90                   	nop
 8052ada:	66 a1 00 11 00 00    	mov    0x1100,%ax
 8052ae0:	66 50                	push   %ax
 8052ae2:	66 9d                	popfw  
 8052ae4:	a1 00 10 00 00       	mov    0x1000,%eax
 8052ae9:	8b 1d 04 10 00 00    	mov    0x1004,%ebx
 8052aef:	8b 0d 08 10 00 00    	mov    0x1008,%ecx
 8052af5:	8b 15 0c 10 00 00    	mov    0x100c,%edx
 8052afb:	8b 2d 10 10 00 00    	mov    0x1010,%ebp
 8052b01:	8b 35 14 10 00 00    	mov    0x1014,%esi
 8052b07:	8b 3d 18 10 00 00    	mov    0x1018,%edi
 8052b0d:	89 25 50 20 00 00    	mov    %esp,0x2050
 8052b13:	3c 02                	cmp    $0x2,%al
 8052b15:	0f 43 d8             	cmovae %eax,%ebx
 8052b18:	a3 00 20 00 00       	mov    %eax,0x2000
 8052b1d:	89 1d 04 20 00 00    	mov    %ebx,0x2004
 8052b23:	89 0d 08 20 00 00    	mov    %ecx,0x2008
 8052b29:	89 15 0c 20 00 00    	mov    %edx,0x200c
 8052b2f:	89 2d 10 20 00 00    	mov    %ebp,0x2010
 8052b35:	89 35 14 20 00 00    	mov    %esi,0x2014
 8052b3b:	89 3d 18 20 00 00    	mov    %edi,0x2018
 8052b41:	0f 90 05 00 22 00 00 	seto   0x2200
 8052b48:	0f 91 05 01 22 00 00 	setno  0x2201
 8052b4f:	0f 92 05 02 22 00 00 	setb   0x2202
 8052b56:	0f 93 05 03 22 00 00 	setae  0x2203
 8052b5d:	0f 94 05 04 22 00 00 	sete   0x2204
 8052b64:	0f 95 05 05 22 00 00 	setne  0x2205
 8052b6b:	0f 96 05 06 22 00 00 	setbe  0x2206
 8052b72:	0f 97 05 07 22 00 00 	seta   0x2207
 8052b79:	0f 98 05 08 22 00 00 	sets   0x2208
 8052b80:	0f 99 05 09 22 00 00 	setns  0x2209
 8052b87:	0f 9a 05 0a 22 00 00 	setp   0x220a
 8052b8e:	0f 9b 05 0b 22 00 00 	setnp  0x220b
 8052b95:	0f 9c 05 0c 22 00 00 	setl   0x220c
 8052b9c:	0f 9d 05 0d 22 00 00 	setge  0x220d
 8052ba3:	0f 9e 05 0e 22 00 00 	setle  0x220e
 8052baa:	0f 9f 05 0f 22 00 00 	setg   0x220f
 8052bb1:	66 9c                	pushfw 
 8052bb3:	66 58                	pop    %ax
 8052bb5:	66 a3 00 21 00 00    	mov    %ax,0x2100
 8052bbb:	a1 50 20 00 00       	mov    0x2050,%eax
 8052bc0:	29 e0                	sub    %esp,%eax
 8052bc2:	a3 20 20 00 00       	mov    %eax,0x2020
 8052bc7:	b8 00 00 00 00       	mov    $0x0,%eax
 8052bcc:	c3                   	ret    

08052bcd <cmov_l_with_code_3_mv_constant_simple>:
 8052bcd:	90                   	nop
 8052bce:	66 6a 00             	pushw  $0x0
 8052bd1:	66 9d                	popfw  
 8052bd3:	b8 02 00 00 00       	mov    $0x2,%eax
 8052bd8:	bb 03 00 00 00       	mov    $0x3,%ebx
 8052bdd:	b9 04 00 00 00       	mov    $0x4,%ecx
 8052be2:	ba 05 00 00 00       	mov    $0x5,%edx
 8052be7:	bd 06 00 00 00       	mov    $0x6,%ebp
 8052bec:	be 07 00 00 00       	mov    $0x7,%esi
 8052bf1:	bf 08 00 00 00       	mov    $0x8,%edi
 8052bf6:	89 25 50 20 00 00    	mov    %esp,0x2050
 8052bfc:	3c 02                	cmp    $0x2,%al
 8052bfe:	0f 43 d8             	cmovae %eax,%ebx
 8052c01:	a3 00 20 00 00       	mov    %eax,0x2000
 8052c06:	89 1d 04 20 00 00    	mov    %ebx,0x2004
 8052c0c:	89 0d 08 20 00 00    	mov    %ecx,0x2008
 8052c12:	89 15 0c 20 00 00    	mov    %edx,0x200c
 8052c18:	89 2d 10 20 00 00    	mov    %ebp,0x2010
 8052c1e:	89 35 14 20 00 00    	mov    %esi,0x2014
 8052c24:	89 3d 18 20 00 00    	mov    %edi,0x2018
 8052c2a:	0f 90 05 00 22 00 00 	seto   0x2200
 8052c31:	0f 91 05 01 22 00 00 	setno  0x2201
 8052c38:	0f 92 05 02 22 00 00 	setb   0x2202
 8052c3f:	0f 93 05 03 22 00 00 	setae  0x2203
 8052c46:	0f 94 05 04 22 00 00 	sete   0x2204
 8052c4d:	0f 95 05 05 22 00 00 	setne  0x2205
 8052c54:	0f 96 05 06 22 00 00 	setbe  0x2206
 8052c5b:	0f 97 05 07 22 00 00 	seta   0x2207
 8052c62:	0f 98 05 08 22 00 00 	sets   0x2208
 8052c69:	0f 99 05 09 22 00 00 	setns  0x2209
 8052c70:	0f 9a 05 0a 22 00 00 	setp   0x220a
 8052c77:	0f 9b 05 0b 22 00 00 	setnp  0x220b
 8052c7e:	0f 9c 05 0c 22 00 00 	setl   0x220c
 8052c85:	0f 9d 05 0d 22 00 00 	setge  0x220d
 8052c8c:	0f 9e 05 0e 22 00 00 	setle  0x220e
 8052c93:	0f 9f 05 0f 22 00 00 	setg   0x220f
 8052c9a:	66 9c                	pushfw 
 8052c9c:	66 58                	pop    %ax
 8052c9e:	66 a3 00 21 00 00    	mov    %ax,0x2100
 8052ca4:	a1 50 20 00 00       	mov    0x2050,%eax
 8052ca9:	29 e0                	sub    %esp,%eax
 8052cab:	a3 20 20 00 00       	mov    %eax,0x2020
 8052cb0:	b8 00 00 00 00       	mov    $0x0,%eax
 8052cb5:	c3                   	ret    

08052cb6 <cmov_l_with_code_3_mv_constant_complex1>:
 8052cb6:	90                   	nop
 8052cb7:	66 6a 00             	pushw  $0x0
 8052cba:	66 9d                	popfw  
 8052cbc:	b8 84 79 b1 a3       	mov    $0xa3b17984,%eax
 8052cc1:	bb d7 1a 67 06       	mov    $0x6671ad7,%ebx
 8052cc6:	b9 48 52 68 46       	mov    $0x46685248,%ecx
 8052ccb:	ba c4 56 24 39       	mov    $0x392456c4,%edx
 8052cd0:	bd a4 60 89 bc       	mov    $0xbc8960a4,%ebp
 8052cd5:	be 78 2d 3c ad       	mov    $0xad3c2d78,%esi
 8052cda:	bf 52 e1 65 e4       	mov    $0xe465e152,%edi
 8052cdf:	89 25 50 20 00 00    	mov    %esp,0x2050
 8052ce5:	3c 02                	cmp    $0x2,%al
 8052ce7:	0f 43 d8             	cmovae %eax,%ebx
 8052cea:	a3 00 20 00 00       	mov    %eax,0x2000
 8052cef:	89 1d 04 20 00 00    	mov    %ebx,0x2004
 8052cf5:	89 0d 08 20 00 00    	mov    %ecx,0x2008
 8052cfb:	89 15 0c 20 00 00    	mov    %edx,0x200c
 8052d01:	89 2d 10 20 00 00    	mov    %ebp,0x2010
 8052d07:	89 35 14 20 00 00    	mov    %esi,0x2014
 8052d0d:	89 3d 18 20 00 00    	mov    %edi,0x2018
 8052d13:	0f 90 05 00 22 00 00 	seto   0x2200
 8052d1a:	0f 91 05 01 22 00 00 	setno  0x2201
 8052d21:	0f 92 05 02 22 00 00 	setb   0x2202
 8052d28:	0f 93 05 03 22 00 00 	setae  0x2203
 8052d2f:	0f 94 05 04 22 00 00 	sete   0x2204
 8052d36:	0f 95 05 05 22 00 00 	setne  0x2205
 8052d3d:	0f 96 05 06 22 00 00 	setbe  0x2206
 8052d44:	0f 97 05 07 22 00 00 	seta   0x2207
 8052d4b:	0f 98 05 08 22 00 00 	sets   0x2208
 8052d52:	0f 99 05 09 22 00 00 	setns  0x2209
 8052d59:	0f 9a 05 0a 22 00 00 	setp   0x220a
 8052d60:	0f 9b 05 0b 22 00 00 	setnp  0x220b
 8052d67:	0f 9c 05 0c 22 00 00 	setl   0x220c
 8052d6e:	0f 9d 05 0d 22 00 00 	setge  0x220d
 8052d75:	0f 9e 05 0e 22 00 00 	setle  0x220e
 8052d7c:	0f 9f 05 0f 22 00 00 	setg   0x220f
 8052d83:	66 9c                	pushfw 
 8052d85:	66 58                	pop    %ax
 8052d87:	66 a3 00 21 00 00    	mov    %ax,0x2100
 8052d8d:	a1 50 20 00 00       	mov    0x2050,%eax
 8052d92:	29 e0                	sub    %esp,%eax
 8052d94:	a3 20 20 00 00       	mov    %eax,0x2020
 8052d99:	b8 00 00 00 00       	mov    $0x0,%eax
 8052d9e:	c3                   	ret    

08052d9f <cmov_l_with_code_3_mv_constant_complex2>:
 8052d9f:	90                   	nop
 8052da0:	66 68 ff fe          	pushw  $0xfeff
 8052da4:	66 9d                	popfw  
 8052da6:	b8 e8 c0 3e 31       	mov    $0x313ec0e8,%eax
 8052dab:	bb c3 81 6e 49       	mov    $0x496e81c3,%ebx
 8052db0:	b9 b2 6c 3f 1e       	mov    $0x1e3f6cb2,%ecx
 8052db5:	ba b3 25 69 4e       	mov    $0x4e6925b3,%edx
 8052dba:	bd 10 26 31 4f       	mov    $0x4f312610,%ebp
 8052dbf:	be a5 a4 37 2f       	mov    $0x2f37a4a5,%esi
 8052dc4:	bf b4 17 a9 91       	mov    $0x91a917b4,%edi
 8052dc9:	89 25 50 20 00 00    	mov    %esp,0x2050
 8052dcf:	3c 02                	cmp    $0x2,%al
 8052dd1:	0f 43 d8             	cmovae %eax,%ebx
 8052dd4:	a3 00 20 00 00       	mov    %eax,0x2000
 8052dd9:	89 1d 04 20 00 00    	mov    %ebx,0x2004
 8052ddf:	89 0d 08 20 00 00    	mov    %ecx,0x2008
 8052de5:	89 15 0c 20 00 00    	mov    %edx,0x200c
 8052deb:	89 2d 10 20 00 00    	mov    %ebp,0x2010
 8052df1:	89 35 14 20 00 00    	mov    %esi,0x2014
 8052df7:	89 3d 18 20 00 00    	mov    %edi,0x2018
 8052dfd:	0f 90 05 00 22 00 00 	seto   0x2200
 8052e04:	0f 91 05 01 22 00 00 	setno  0x2201
 8052e0b:	0f 92 05 02 22 00 00 	setb   0x2202
 8052e12:	0f 93 05 03 22 00 00 	setae  0x2203
 8052e19:	0f 94 05 04 22 00 00 	sete   0x2204
 8052e20:	0f 95 05 05 22 00 00 	setne  0x2205
 8052e27:	0f 96 05 06 22 00 00 	setbe  0x2206
 8052e2e:	0f 97 05 07 22 00 00 	seta   0x2207
 8052e35:	0f 98 05 08 22 00 00 	sets   0x2208
 8052e3c:	0f 99 05 09 22 00 00 	setns  0x2209
 8052e43:	0f 9a 05 0a 22 00 00 	setp   0x220a
 8052e4a:	0f 9b 05 0b 22 00 00 	setnp  0x220b
 8052e51:	0f 9c 05 0c 22 00 00 	setl   0x220c
 8052e58:	0f 9d 05 0d 22 00 00 	setge  0x220d
 8052e5f:	0f 9e 05 0e 22 00 00 	setle  0x220e
 8052e66:	0f 9f 05 0f 22 00 00 	setg   0x220f
 8052e6d:	66 9c                	pushfw 
 8052e6f:	66 58                	pop    %ax
 8052e71:	66 a3 00 21 00 00    	mov    %ax,0x2100
 8052e77:	a1 50 20 00 00       	mov    0x2050,%eax
 8052e7c:	29 e0                	sub    %esp,%eax
 8052e7e:	a3 20 20 00 00       	mov    %eax,0x2020
 8052e83:	b8 00 00 00 00       	mov    $0x0,%eax
 8052e88:	c3                   	ret    

08052e89 <cmov_l_with_code_4_mv_plain>:
 8052e89:	3c 02                	cmp    $0x2,%al
 8052e8b:	0f 44 d8             	cmove  %eax,%ebx
 8052e8e:	b8 00 00 00 00       	mov    $0x0,%eax
 8052e93:	c3                   	ret    

08052e94 <cmov_l_with_code_4_mv_allregs>:
 8052e94:	90                   	nop
 8052e95:	66 a1 00 11 00 00    	mov    0x1100,%ax
 8052e9b:	66 50                	push   %ax
 8052e9d:	66 9d                	popfw  
 8052e9f:	a1 00 10 00 00       	mov    0x1000,%eax
 8052ea4:	8b 1d 04 10 00 00    	mov    0x1004,%ebx
 8052eaa:	8b 0d 08 10 00 00    	mov    0x1008,%ecx
 8052eb0:	8b 15 0c 10 00 00    	mov    0x100c,%edx
 8052eb6:	8b 2d 10 10 00 00    	mov    0x1010,%ebp
 8052ebc:	8b 35 14 10 00 00    	mov    0x1014,%esi
 8052ec2:	8b 3d 18 10 00 00    	mov    0x1018,%edi
 8052ec8:	89 25 50 20 00 00    	mov    %esp,0x2050
 8052ece:	3c 02                	cmp    $0x2,%al
 8052ed0:	0f 44 d8             	cmove  %eax,%ebx
 8052ed3:	a3 00 20 00 00       	mov    %eax,0x2000
 8052ed8:	89 1d 04 20 00 00    	mov    %ebx,0x2004
 8052ede:	89 0d 08 20 00 00    	mov    %ecx,0x2008
 8052ee4:	89 15 0c 20 00 00    	mov    %edx,0x200c
 8052eea:	89 2d 10 20 00 00    	mov    %ebp,0x2010
 8052ef0:	89 35 14 20 00 00    	mov    %esi,0x2014
 8052ef6:	89 3d 18 20 00 00    	mov    %edi,0x2018
 8052efc:	0f 90 05 00 22 00 00 	seto   0x2200
 8052f03:	0f 91 05 01 22 00 00 	setno  0x2201
 8052f0a:	0f 92 05 02 22 00 00 	setb   0x2202
 8052f11:	0f 93 05 03 22 00 00 	setae  0x2203
 8052f18:	0f 94 05 04 22 00 00 	sete   0x2204
 8052f1f:	0f 95 05 05 22 00 00 	setne  0x2205
 8052f26:	0f 96 05 06 22 00 00 	setbe  0x2206
 8052f2d:	0f 97 05 07 22 00 00 	seta   0x2207
 8052f34:	0f 98 05 08 22 00 00 	sets   0x2208
 8052f3b:	0f 99 05 09 22 00 00 	setns  0x2209
 8052f42:	0f 9a 05 0a 22 00 00 	setp   0x220a
 8052f49:	0f 9b 05 0b 22 00 00 	setnp  0x220b
 8052f50:	0f 9c 05 0c 22 00 00 	setl   0x220c
 8052f57:	0f 9d 05 0d 22 00 00 	setge  0x220d
 8052f5e:	0f 9e 05 0e 22 00 00 	setle  0x220e
 8052f65:	0f 9f 05 0f 22 00 00 	setg   0x220f
 8052f6c:	66 9c                	pushfw 
 8052f6e:	66 58                	pop    %ax
 8052f70:	66 a3 00 21 00 00    	mov    %ax,0x2100
 8052f76:	a1 50 20 00 00       	mov    0x2050,%eax
 8052f7b:	29 e0                	sub    %esp,%eax
 8052f7d:	a3 20 20 00 00       	mov    %eax,0x2020
 8052f82:	b8 00 00 00 00       	mov    $0x0,%eax
 8052f87:	c3                   	ret    

08052f88 <cmov_l_with_code_4_mv_constant_simple>:
 8052f88:	90                   	nop
 8052f89:	66 6a 00             	pushw  $0x0
 8052f8c:	66 9d                	popfw  
 8052f8e:	b8 02 00 00 00       	mov    $0x2,%eax
 8052f93:	bb 03 00 00 00       	mov    $0x3,%ebx
 8052f98:	b9 04 00 00 00       	mov    $0x4,%ecx
 8052f9d:	ba 05 00 00 00       	mov    $0x5,%edx
 8052fa2:	bd 06 00 00 00       	mov    $0x6,%ebp
 8052fa7:	be 07 00 00 00       	mov    $0x7,%esi
 8052fac:	bf 08 00 00 00       	mov    $0x8,%edi
 8052fb1:	89 25 50 20 00 00    	mov    %esp,0x2050
 8052fb7:	3c 02                	cmp    $0x2,%al
 8052fb9:	0f 44 d8             	cmove  %eax,%ebx
 8052fbc:	a3 00 20 00 00       	mov    %eax,0x2000
 8052fc1:	89 1d 04 20 00 00    	mov    %ebx,0x2004
 8052fc7:	89 0d 08 20 00 00    	mov    %ecx,0x2008
 8052fcd:	89 15 0c 20 00 00    	mov    %edx,0x200c
 8052fd3:	89 2d 10 20 00 00    	mov    %ebp,0x2010
 8052fd9:	89 35 14 20 00 00    	mov    %esi,0x2014
 8052fdf:	89 3d 18 20 00 00    	mov    %edi,0x2018
 8052fe5:	0f 90 05 00 22 00 00 	seto   0x2200
 8052fec:	0f 91 05 01 22 00 00 	setno  0x2201
 8052ff3:	0f 92 05 02 22 00 00 	setb   0x2202
 8052ffa:	0f 93 05 03 22 00 00 	setae  0x2203
 8053001:	0f 94 05 04 22 00 00 	sete   0x2204
 8053008:	0f 95 05 05 22 00 00 	setne  0x2205
 805300f:	0f 96 05 06 22 00 00 	setbe  0x2206
 8053016:	0f 97 05 07 22 00 00 	seta   0x2207
 805301d:	0f 98 05 08 22 00 00 	sets   0x2208
 8053024:	0f 99 05 09 22 00 00 	setns  0x2209
 805302b:	0f 9a 05 0a 22 00 00 	setp   0x220a
 8053032:	0f 9b 05 0b 22 00 00 	setnp  0x220b
 8053039:	0f 9c 05 0c 22 00 00 	setl   0x220c
 8053040:	0f 9d 05 0d 22 00 00 	setge  0x220d
 8053047:	0f 9e 05 0e 22 00 00 	setle  0x220e
 805304e:	0f 9f 05 0f 22 00 00 	setg   0x220f
 8053055:	66 9c                	pushfw 
 8053057:	66 58                	pop    %ax
 8053059:	66 a3 00 21 00 00    	mov    %ax,0x2100
 805305f:	a1 50 20 00 00       	mov    0x2050,%eax
 8053064:	29 e0                	sub    %esp,%eax
 8053066:	a3 20 20 00 00       	mov    %eax,0x2020
 805306b:	b8 00 00 00 00       	mov    $0x0,%eax
 8053070:	c3                   	ret    

08053071 <cmov_l_with_code_4_mv_constant_complex1>:
 8053071:	90                   	nop
 8053072:	66 6a 00             	pushw  $0x0
 8053075:	66 9d                	popfw  
 8053077:	b8 84 79 b1 a3       	mov    $0xa3b17984,%eax
 805307c:	bb d7 1a 67 06       	mov    $0x6671ad7,%ebx
 8053081:	b9 48 52 68 46       	mov    $0x46685248,%ecx
 8053086:	ba c4 56 24 39       	mov    $0x392456c4,%edx
 805308b:	bd a4 60 89 bc       	mov    $0xbc8960a4,%ebp
 8053090:	be 78 2d 3c ad       	mov    $0xad3c2d78,%esi
 8053095:	bf 52 e1 65 e4       	mov    $0xe465e152,%edi
 805309a:	89 25 50 20 00 00    	mov    %esp,0x2050
 80530a0:	3c 02                	cmp    $0x2,%al
 80530a2:	0f 44 d8             	cmove  %eax,%ebx
 80530a5:	a3 00 20 00 00       	mov    %eax,0x2000
 80530aa:	89 1d 04 20 00 00    	mov    %ebx,0x2004
 80530b0:	89 0d 08 20 00 00    	mov    %ecx,0x2008
 80530b6:	89 15 0c 20 00 00    	mov    %edx,0x200c
 80530bc:	89 2d 10 20 00 00    	mov    %ebp,0x2010
 80530c2:	89 35 14 20 00 00    	mov    %esi,0x2014
 80530c8:	89 3d 18 20 00 00    	mov    %edi,0x2018
 80530ce:	0f 90 05 00 22 00 00 	seto   0x2200
 80530d5:	0f 91 05 01 22 00 00 	setno  0x2201
 80530dc:	0f 92 05 02 22 00 00 	setb   0x2202
 80530e3:	0f 93 05 03 22 00 00 	setae  0x2203
 80530ea:	0f 94 05 04 22 00 00 	sete   0x2204
 80530f1:	0f 95 05 05 22 00 00 	setne  0x2205
 80530f8:	0f 96 05 06 22 00 00 	setbe  0x2206
 80530ff:	0f 97 05 07 22 00 00 	seta   0x2207
 8053106:	0f 98 05 08 22 00 00 	sets   0x2208
 805310d:	0f 99 05 09 22 00 00 	setns  0x2209
 8053114:	0f 9a 05 0a 22 00 00 	setp   0x220a
 805311b:	0f 9b 05 0b 22 00 00 	setnp  0x220b
 8053122:	0f 9c 05 0c 22 00 00 	setl   0x220c
 8053129:	0f 9d 05 0d 22 00 00 	setge  0x220d
 8053130:	0f 9e 05 0e 22 00 00 	setle  0x220e
 8053137:	0f 9f 05 0f 22 00 00 	setg   0x220f
 805313e:	66 9c                	pushfw 
 8053140:	66 58                	pop    %ax
 8053142:	66 a3 00 21 00 00    	mov    %ax,0x2100
 8053148:	a1 50 20 00 00       	mov    0x2050,%eax
 805314d:	29 e0                	sub    %esp,%eax
 805314f:	a3 20 20 00 00       	mov    %eax,0x2020
 8053154:	b8 00 00 00 00       	mov    $0x0,%eax
 8053159:	c3                   	ret    

0805315a <cmov_l_with_code_4_mv_constant_complex2>:
 805315a:	90                   	nop
 805315b:	66 68 ff fe          	pushw  $0xfeff
 805315f:	66 9d                	popfw  
 8053161:	b8 e8 c0 3e 31       	mov    $0x313ec0e8,%eax
 8053166:	bb c3 81 6e 49       	mov    $0x496e81c3,%ebx
 805316b:	b9 b2 6c 3f 1e       	mov    $0x1e3f6cb2,%ecx
 8053170:	ba b3 25 69 4e       	mov    $0x4e6925b3,%edx
 8053175:	bd 10 26 31 4f       	mov    $0x4f312610,%ebp
 805317a:	be a5 a4 37 2f       	mov    $0x2f37a4a5,%esi
 805317f:	bf b4 17 a9 91       	mov    $0x91a917b4,%edi
 8053184:	89 25 50 20 00 00    	mov    %esp,0x2050
 805318a:	3c 02                	cmp    $0x2,%al
 805318c:	0f 44 d8             	cmove  %eax,%ebx
 805318f:	a3 00 20 00 00       	mov    %eax,0x2000
 8053194:	89 1d 04 20 00 00    	mov    %ebx,0x2004
 805319a:	89 0d 08 20 00 00    	mov    %ecx,0x2008
 80531a0:	89 15 0c 20 00 00    	mov    %edx,0x200c
 80531a6:	89 2d 10 20 00 00    	mov    %ebp,0x2010
 80531ac:	89 35 14 20 00 00    	mov    %esi,0x2014
 80531b2:	89 3d 18 20 00 00    	mov    %edi,0x2018
 80531b8:	0f 90 05 00 22 00 00 	seto   0x2200
 80531bf:	0f 91 05 01 22 00 00 	setno  0x2201
 80531c6:	0f 92 05 02 22 00 00 	setb   0x2202
 80531cd:	0f 93 05 03 22 00 00 	setae  0x2203
 80531d4:	0f 94 05 04 22 00 00 	sete   0x2204
 80531db:	0f 95 05 05 22 00 00 	setne  0x2205
 80531e2:	0f 96 05 06 22 00 00 	setbe  0x2206
 80531e9:	0f 97 05 07 22 00 00 	seta   0x2207
 80531f0:	0f 98 05 08 22 00 00 	sets   0x2208
 80531f7:	0f 99 05 09 22 00 00 	setns  0x2209
 80531fe:	0f 9a 05 0a 22 00 00 	setp   0x220a
 8053205:	0f 9b 05 0b 22 00 00 	setnp  0x220b
 805320c:	0f 9c 05 0c 22 00 00 	setl   0x220c
 8053213:	0f 9d 05 0d 22 00 00 	setge  0x220d
 805321a:	0f 9e 05 0e 22 00 00 	setle  0x220e
 8053221:	0f 9f 05 0f 22 00 00 	setg   0x220f
 8053228:	66 9c                	pushfw 
 805322a:	66 58                	pop    %ax
 805322c:	66 a3 00 21 00 00    	mov    %ax,0x2100
 8053232:	a1 50 20 00 00       	mov    0x2050,%eax
 8053237:	29 e0                	sub    %esp,%eax
 8053239:	a3 20 20 00 00       	mov    %eax,0x2020
 805323e:	b8 00 00 00 00       	mov    $0x0,%eax
 8053243:	c3                   	ret    

08053244 <cmov_l_with_code_5_mv_plain>:
 8053244:	3c 02                	cmp    $0x2,%al
 8053246:	0f 45 d8             	cmovne %eax,%ebx
 8053249:	b8 00 00 00 00       	mov    $0x0,%eax
 805324e:	c3                   	ret    

0805324f <cmov_l_with_code_5_mv_allregs>:
 805324f:	90                   	nop
 8053250:	66 a1 00 11 00 00    	mov    0x1100,%ax
 8053256:	66 50                	push   %ax
 8053258:	66 9d                	popfw  
 805325a:	a1 00 10 00 00       	mov    0x1000,%eax
 805325f:	8b 1d 04 10 00 00    	mov    0x1004,%ebx
 8053265:	8b 0d 08 10 00 00    	mov    0x1008,%ecx
 805326b:	8b 15 0c 10 00 00    	mov    0x100c,%edx
 8053271:	8b 2d 10 10 00 00    	mov    0x1010,%ebp
 8053277:	8b 35 14 10 00 00    	mov    0x1014,%esi
 805327d:	8b 3d 18 10 00 00    	mov    0x1018,%edi
 8053283:	89 25 50 20 00 00    	mov    %esp,0x2050
 8053289:	3c 02                	cmp    $0x2,%al
 805328b:	0f 45 d8             	cmovne %eax,%ebx
 805328e:	a3 00 20 00 00       	mov    %eax,0x2000
 8053293:	89 1d 04 20 00 00    	mov    %ebx,0x2004
 8053299:	89 0d 08 20 00 00    	mov    %ecx,0x2008
 805329f:	89 15 0c 20 00 00    	mov    %edx,0x200c
 80532a5:	89 2d 10 20 00 00    	mov    %ebp,0x2010
 80532ab:	89 35 14 20 00 00    	mov    %esi,0x2014
 80532b1:	89 3d 18 20 00 00    	mov    %edi,0x2018
 80532b7:	0f 90 05 00 22 00 00 	seto   0x2200
 80532be:	0f 91 05 01 22 00 00 	setno  0x2201
 80532c5:	0f 92 05 02 22 00 00 	setb   0x2202
 80532cc:	0f 93 05 03 22 00 00 	setae  0x2203
 80532d3:	0f 94 05 04 22 00 00 	sete   0x2204
 80532da:	0f 95 05 05 22 00 00 	setne  0x2205
 80532e1:	0f 96 05 06 22 00 00 	setbe  0x2206
 80532e8:	0f 97 05 07 22 00 00 	seta   0x2207
 80532ef:	0f 98 05 08 22 00 00 	sets   0x2208
 80532f6:	0f 99 05 09 22 00 00 	setns  0x2209
 80532fd:	0f 9a 05 0a 22 00 00 	setp   0x220a
 8053304:	0f 9b 05 0b 22 00 00 	setnp  0x220b
 805330b:	0f 9c 05 0c 22 00 00 	setl   0x220c
 8053312:	0f 9d 05 0d 22 00 00 	setge  0x220d
 8053319:	0f 9e 05 0e 22 00 00 	setle  0x220e
 8053320:	0f 9f 05 0f 22 00 00 	setg   0x220f
 8053327:	66 9c                	pushfw 
 8053329:	66 58                	pop    %ax
 805332b:	66 a3 00 21 00 00    	mov    %ax,0x2100
 8053331:	a1 50 20 00 00       	mov    0x2050,%eax
 8053336:	29 e0                	sub    %esp,%eax
 8053338:	a3 20 20 00 00       	mov    %eax,0x2020
 805333d:	b8 00 00 00 00       	mov    $0x0,%eax
 8053342:	c3                   	ret    

08053343 <cmov_l_with_code_5_mv_constant_simple>:
 8053343:	90                   	nop
 8053344:	66 6a 00             	pushw  $0x0
 8053347:	66 9d                	popfw  
 8053349:	b8 02 00 00 00       	mov    $0x2,%eax
 805334e:	bb 03 00 00 00       	mov    $0x3,%ebx
 8053353:	b9 04 00 00 00       	mov    $0x4,%ecx
 8053358:	ba 05 00 00 00       	mov    $0x5,%edx
 805335d:	bd 06 00 00 00       	mov    $0x6,%ebp
 8053362:	be 07 00 00 00       	mov    $0x7,%esi
 8053367:	bf 08 00 00 00       	mov    $0x8,%edi
 805336c:	89 25 50 20 00 00    	mov    %esp,0x2050
 8053372:	3c 02                	cmp    $0x2,%al
 8053374:	0f 45 d8             	cmovne %eax,%ebx
 8053377:	a3 00 20 00 00       	mov    %eax,0x2000
 805337c:	89 1d 04 20 00 00    	mov    %ebx,0x2004
 8053382:	89 0d 08 20 00 00    	mov    %ecx,0x2008
 8053388:	89 15 0c 20 00 00    	mov    %edx,0x200c
 805338e:	89 2d 10 20 00 00    	mov    %ebp,0x2010
 8053394:	89 35 14 20 00 00    	mov    %esi,0x2014
 805339a:	89 3d 18 20 00 00    	mov    %edi,0x2018
 80533a0:	0f 90 05 00 22 00 00 	seto   0x2200
 80533a7:	0f 91 05 01 22 00 00 	setno  0x2201
 80533ae:	0f 92 05 02 22 00 00 	setb   0x2202
 80533b5:	0f 93 05 03 22 00 00 	setae  0x2203
 80533bc:	0f 94 05 04 22 00 00 	sete   0x2204
 80533c3:	0f 95 05 05 22 00 00 	setne  0x2205
 80533ca:	0f 96 05 06 22 00 00 	setbe  0x2206
 80533d1:	0f 97 05 07 22 00 00 	seta   0x2207
 80533d8:	0f 98 05 08 22 00 00 	sets   0x2208
 80533df:	0f 99 05 09 22 00 00 	setns  0x2209
 80533e6:	0f 9a 05 0a 22 00 00 	setp   0x220a
 80533ed:	0f 9b 05 0b 22 00 00 	setnp  0x220b
 80533f4:	0f 9c 05 0c 22 00 00 	setl   0x220c
 80533fb:	0f 9d 05 0d 22 00 00 	setge  0x220d
 8053402:	0f 9e 05 0e 22 00 00 	setle  0x220e
 8053409:	0f 9f 05 0f 22 00 00 	setg   0x220f
 8053410:	66 9c                	pushfw 
 8053412:	66 58                	pop    %ax
 8053414:	66 a3 00 21 00 00    	mov    %ax,0x2100
 805341a:	a1 50 20 00 00       	mov    0x2050,%eax
 805341f:	29 e0                	sub    %esp,%eax
 8053421:	a3 20 20 00 00       	mov    %eax,0x2020
 8053426:	b8 00 00 00 00       	mov    $0x0,%eax
 805342b:	c3                   	ret    

0805342c <cmov_l_with_code_5_mv_constant_complex1>:
 805342c:	90                   	nop
 805342d:	66 6a 00             	pushw  $0x0
 8053430:	66 9d                	popfw  
 8053432:	b8 84 79 b1 a3       	mov    $0xa3b17984,%eax
 8053437:	bb d7 1a 67 06       	mov    $0x6671ad7,%ebx
 805343c:	b9 48 52 68 46       	mov    $0x46685248,%ecx
 8053441:	ba c4 56 24 39       	mov    $0x392456c4,%edx
 8053446:	bd a4 60 89 bc       	mov    $0xbc8960a4,%ebp
 805344b:	be 78 2d 3c ad       	mov    $0xad3c2d78,%esi
 8053450:	bf 52 e1 65 e4       	mov    $0xe465e152,%edi
 8053455:	89 25 50 20 00 00    	mov    %esp,0x2050
 805345b:	3c 02                	cmp    $0x2,%al
 805345d:	0f 45 d8             	cmovne %eax,%ebx
 8053460:	a3 00 20 00 00       	mov    %eax,0x2000
 8053465:	89 1d 04 20 00 00    	mov    %ebx,0x2004
 805346b:	89 0d 08 20 00 00    	mov    %ecx,0x2008
 8053471:	89 15 0c 20 00 00    	mov    %edx,0x200c
 8053477:	89 2d 10 20 00 00    	mov    %ebp,0x2010
 805347d:	89 35 14 20 00 00    	mov    %esi,0x2014
 8053483:	89 3d 18 20 00 00    	mov    %edi,0x2018
 8053489:	0f 90 05 00 22 00 00 	seto   0x2200
 8053490:	0f 91 05 01 22 00 00 	setno  0x2201
 8053497:	0f 92 05 02 22 00 00 	setb   0x2202
 805349e:	0f 93 05 03 22 00 00 	setae  0x2203
 80534a5:	0f 94 05 04 22 00 00 	sete   0x2204
 80534ac:	0f 95 05 05 22 00 00 	setne  0x2205
 80534b3:	0f 96 05 06 22 00 00 	setbe  0x2206
 80534ba:	0f 97 05 07 22 00 00 	seta   0x2207
 80534c1:	0f 98 05 08 22 00 00 	sets   0x2208
 80534c8:	0f 99 05 09 22 00 00 	setns  0x2209
 80534cf:	0f 9a 05 0a 22 00 00 	setp   0x220a
 80534d6:	0f 9b 05 0b 22 00 00 	setnp  0x220b
 80534dd:	0f 9c 05 0c 22 00 00 	setl   0x220c
 80534e4:	0f 9d 05 0d 22 00 00 	setge  0x220d
 80534eb:	0f 9e 05 0e 22 00 00 	setle  0x220e
 80534f2:	0f 9f 05 0f 22 00 00 	setg   0x220f
 80534f9:	66 9c                	pushfw 
 80534fb:	66 58                	pop    %ax
 80534fd:	66 a3 00 21 00 00    	mov    %ax,0x2100
 8053503:	a1 50 20 00 00       	mov    0x2050,%eax
 8053508:	29 e0                	sub    %esp,%eax
 805350a:	a3 20 20 00 00       	mov    %eax,0x2020
 805350f:	b8 00 00 00 00       	mov    $0x0,%eax
 8053514:	c3                   	ret    

08053515 <cmov_l_with_code_5_mv_constant_complex2>:
 8053515:	90                   	nop
 8053516:	66 68 ff fe          	pushw  $0xfeff
 805351a:	66 9d                	popfw  
 805351c:	b8 e8 c0 3e 31       	mov    $0x313ec0e8,%eax
 8053521:	bb c3 81 6e 49       	mov    $0x496e81c3,%ebx
 8053526:	b9 b2 6c 3f 1e       	mov    $0x1e3f6cb2,%ecx
 805352b:	ba b3 25 69 4e       	mov    $0x4e6925b3,%edx
 8053530:	bd 10 26 31 4f       	mov    $0x4f312610,%ebp
 8053535:	be a5 a4 37 2f       	mov    $0x2f37a4a5,%esi
 805353a:	bf b4 17 a9 91       	mov    $0x91a917b4,%edi
 805353f:	89 25 50 20 00 00    	mov    %esp,0x2050
 8053545:	3c 02                	cmp    $0x2,%al
 8053547:	0f 45 d8             	cmovne %eax,%ebx
 805354a:	a3 00 20 00 00       	mov    %eax,0x2000
 805354f:	89 1d 04 20 00 00    	mov    %ebx,0x2004
 8053555:	89 0d 08 20 00 00    	mov    %ecx,0x2008
 805355b:	89 15 0c 20 00 00    	mov    %edx,0x200c
 8053561:	89 2d 10 20 00 00    	mov    %ebp,0x2010
 8053567:	89 35 14 20 00 00    	mov    %esi,0x2014
 805356d:	89 3d 18 20 00 00    	mov    %edi,0x2018
 8053573:	0f 90 05 00 22 00 00 	seto   0x2200
 805357a:	0f 91 05 01 22 00 00 	setno  0x2201
 8053581:	0f 92 05 02 22 00 00 	setb   0x2202
 8053588:	0f 93 05 03 22 00 00 	setae  0x2203
 805358f:	0f 94 05 04 22 00 00 	sete   0x2204
 8053596:	0f 95 05 05 22 00 00 	setne  0x2205
 805359d:	0f 96 05 06 22 00 00 	setbe  0x2206
 80535a4:	0f 97 05 07 22 00 00 	seta   0x2207
 80535ab:	0f 98 05 08 22 00 00 	sets   0x2208
 80535b2:	0f 99 05 09 22 00 00 	setns  0x2209
 80535b9:	0f 9a 05 0a 22 00 00 	setp   0x220a
 80535c0:	0f 9b 05 0b 22 00 00 	setnp  0x220b
 80535c7:	0f 9c 05 0c 22 00 00 	setl   0x220c
 80535ce:	0f 9d 05 0d 22 00 00 	setge  0x220d
 80535d5:	0f 9e 05 0e 22 00 00 	setle  0x220e
 80535dc:	0f 9f 05 0f 22 00 00 	setg   0x220f
 80535e3:	66 9c                	pushfw 
 80535e5:	66 58                	pop    %ax
 80535e7:	66 a3 00 21 00 00    	mov    %ax,0x2100
 80535ed:	a1 50 20 00 00       	mov    0x2050,%eax
 80535f2:	29 e0                	sub    %esp,%eax
 80535f4:	a3 20 20 00 00       	mov    %eax,0x2020
 80535f9:	b8 00 00 00 00       	mov    $0x0,%eax
 80535fe:	c3                   	ret    

080535ff <cmov_l_with_code_6_mv_plain>:
 80535ff:	3c 02                	cmp    $0x2,%al
 8053601:	0f 46 d8             	cmovbe %eax,%ebx
 8053604:	b8 00 00 00 00       	mov    $0x0,%eax
 8053609:	c3                   	ret    

0805360a <cmov_l_with_code_6_mv_allregs>:
 805360a:	90                   	nop
 805360b:	66 a1 00 11 00 00    	mov    0x1100,%ax
 8053611:	66 50                	push   %ax
 8053613:	66 9d                	popfw  
 8053615:	a1 00 10 00 00       	mov    0x1000,%eax
 805361a:	8b 1d 04 10 00 00    	mov    0x1004,%ebx
 8053620:	8b 0d 08 10 00 00    	mov    0x1008,%ecx
 8053626:	8b 15 0c 10 00 00    	mov    0x100c,%edx
 805362c:	8b 2d 10 10 00 00    	mov    0x1010,%ebp
 8053632:	8b 35 14 10 00 00    	mov    0x1014,%esi
 8053638:	8b 3d 18 10 00 00    	mov    0x1018,%edi
 805363e:	89 25 50 20 00 00    	mov    %esp,0x2050
 8053644:	3c 02                	cmp    $0x2,%al
 8053646:	0f 46 d8             	cmovbe %eax,%ebx
 8053649:	a3 00 20 00 00       	mov    %eax,0x2000
 805364e:	89 1d 04 20 00 00    	mov    %ebx,0x2004
 8053654:	89 0d 08 20 00 00    	mov    %ecx,0x2008
 805365a:	89 15 0c 20 00 00    	mov    %edx,0x200c
 8053660:	89 2d 10 20 00 00    	mov    %ebp,0x2010
 8053666:	89 35 14 20 00 00    	mov    %esi,0x2014
 805366c:	89 3d 18 20 00 00    	mov    %edi,0x2018
 8053672:	0f 90 05 00 22 00 00 	seto   0x2200
 8053679:	0f 91 05 01 22 00 00 	setno  0x2201
 8053680:	0f 92 05 02 22 00 00 	setb   0x2202
 8053687:	0f 93 05 03 22 00 00 	setae  0x2203
 805368e:	0f 94 05 04 22 00 00 	sete   0x2204
 8053695:	0f 95 05 05 22 00 00 	setne  0x2205
 805369c:	0f 96 05 06 22 00 00 	setbe  0x2206
 80536a3:	0f 97 05 07 22 00 00 	seta   0x2207
 80536aa:	0f 98 05 08 22 00 00 	sets   0x2208
 80536b1:	0f 99 05 09 22 00 00 	setns  0x2209
 80536b8:	0f 9a 05 0a 22 00 00 	setp   0x220a
 80536bf:	0f 9b 05 0b 22 00 00 	setnp  0x220b
 80536c6:	0f 9c 05 0c 22 00 00 	setl   0x220c
 80536cd:	0f 9d 05 0d 22 00 00 	setge  0x220d
 80536d4:	0f 9e 05 0e 22 00 00 	setle  0x220e
 80536db:	0f 9f 05 0f 22 00 00 	setg   0x220f
 80536e2:	66 9c                	pushfw 
 80536e4:	66 58                	pop    %ax
 80536e6:	66 a3 00 21 00 00    	mov    %ax,0x2100
 80536ec:	a1 50 20 00 00       	mov    0x2050,%eax
 80536f1:	29 e0                	sub    %esp,%eax
 80536f3:	a3 20 20 00 00       	mov    %eax,0x2020
 80536f8:	b8 00 00 00 00       	mov    $0x0,%eax
 80536fd:	c3                   	ret    

080536fe <cmov_l_with_code_6_mv_constant_simple>:
 80536fe:	90                   	nop
 80536ff:	66 6a 00             	pushw  $0x0
 8053702:	66 9d                	popfw  
 8053704:	b8 02 00 00 00       	mov    $0x2,%eax
 8053709:	bb 03 00 00 00       	mov    $0x3,%ebx
 805370e:	b9 04 00 00 00       	mov    $0x4,%ecx
 8053713:	ba 05 00 00 00       	mov    $0x5,%edx
 8053718:	bd 06 00 00 00       	mov    $0x6,%ebp
 805371d:	be 07 00 00 00       	mov    $0x7,%esi
 8053722:	bf 08 00 00 00       	mov    $0x8,%edi
 8053727:	89 25 50 20 00 00    	mov    %esp,0x2050
 805372d:	3c 02                	cmp    $0x2,%al
 805372f:	0f 46 d8             	cmovbe %eax,%ebx
 8053732:	a3 00 20 00 00       	mov    %eax,0x2000
 8053737:	89 1d 04 20 00 00    	mov    %ebx,0x2004
 805373d:	89 0d 08 20 00 00    	mov    %ecx,0x2008
 8053743:	89 15 0c 20 00 00    	mov    %edx,0x200c
 8053749:	89 2d 10 20 00 00    	mov    %ebp,0x2010
 805374f:	89 35 14 20 00 00    	mov    %esi,0x2014
 8053755:	89 3d 18 20 00 00    	mov    %edi,0x2018
 805375b:	0f 90 05 00 22 00 00 	seto   0x2200
 8053762:	0f 91 05 01 22 00 00 	setno  0x2201
 8053769:	0f 92 05 02 22 00 00 	setb   0x2202
 8053770:	0f 93 05 03 22 00 00 	setae  0x2203
 8053777:	0f 94 05 04 22 00 00 	sete   0x2204
 805377e:	0f 95 05 05 22 00 00 	setne  0x2205
 8053785:	0f 96 05 06 22 00 00 	setbe  0x2206
 805378c:	0f 97 05 07 22 00 00 	seta   0x2207
 8053793:	0f 98 05 08 22 00 00 	sets   0x2208
 805379a:	0f 99 05 09 22 00 00 	setns  0x2209
 80537a1:	0f 9a 05 0a 22 00 00 	setp   0x220a
 80537a8:	0f 9b 05 0b 22 00 00 	setnp  0x220b
 80537af:	0f 9c 05 0c 22 00 00 	setl   0x220c
 80537b6:	0f 9d 05 0d 22 00 00 	setge  0x220d
 80537bd:	0f 9e 05 0e 22 00 00 	setle  0x220e
 80537c4:	0f 9f 05 0f 22 00 00 	setg   0x220f
 80537cb:	66 9c                	pushfw 
 80537cd:	66 58                	pop    %ax
 80537cf:	66 a3 00 21 00 00    	mov    %ax,0x2100
 80537d5:	a1 50 20 00 00       	mov    0x2050,%eax
 80537da:	29 e0                	sub    %esp,%eax
 80537dc:	a3 20 20 00 00       	mov    %eax,0x2020
 80537e1:	b8 00 00 00 00       	mov    $0x0,%eax
 80537e6:	c3                   	ret    

080537e7 <cmov_l_with_code_6_mv_constant_complex1>:
 80537e7:	90                   	nop
 80537e8:	66 6a 00             	pushw  $0x0
 80537eb:	66 9d                	popfw  
 80537ed:	b8 84 79 b1 a3       	mov    $0xa3b17984,%eax
 80537f2:	bb d7 1a 67 06       	mov    $0x6671ad7,%ebx
 80537f7:	b9 48 52 68 46       	mov    $0x46685248,%ecx
 80537fc:	ba c4 56 24 39       	mov    $0x392456c4,%edx
 8053801:	bd a4 60 89 bc       	mov    $0xbc8960a4,%ebp
 8053806:	be 78 2d 3c ad       	mov    $0xad3c2d78,%esi
 805380b:	bf 52 e1 65 e4       	mov    $0xe465e152,%edi
 8053810:	89 25 50 20 00 00    	mov    %esp,0x2050
 8053816:	3c 02                	cmp    $0x2,%al
 8053818:	0f 46 d8             	cmovbe %eax,%ebx
 805381b:	a3 00 20 00 00       	mov    %eax,0x2000
 8053820:	89 1d 04 20 00 00    	mov    %ebx,0x2004
 8053826:	89 0d 08 20 00 00    	mov    %ecx,0x2008
 805382c:	89 15 0c 20 00 00    	mov    %edx,0x200c
 8053832:	89 2d 10 20 00 00    	mov    %ebp,0x2010
 8053838:	89 35 14 20 00 00    	mov    %esi,0x2014
 805383e:	89 3d 18 20 00 00    	mov    %edi,0x2018
 8053844:	0f 90 05 00 22 00 00 	seto   0x2200
 805384b:	0f 91 05 01 22 00 00 	setno  0x2201
 8053852:	0f 92 05 02 22 00 00 	setb   0x2202
 8053859:	0f 93 05 03 22 00 00 	setae  0x2203
 8053860:	0f 94 05 04 22 00 00 	sete   0x2204
 8053867:	0f 95 05 05 22 00 00 	setne  0x2205
 805386e:	0f 96 05 06 22 00 00 	setbe  0x2206
 8053875:	0f 97 05 07 22 00 00 	seta   0x2207
 805387c:	0f 98 05 08 22 00 00 	sets   0x2208
 8053883:	0f 99 05 09 22 00 00 	setns  0x2209
 805388a:	0f 9a 05 0a 22 00 00 	setp   0x220a
 8053891:	0f 9b 05 0b 22 00 00 	setnp  0x220b
 8053898:	0f 9c 05 0c 22 00 00 	setl   0x220c
 805389f:	0f 9d 05 0d 22 00 00 	setge  0x220d
 80538a6:	0f 9e 05 0e 22 00 00 	setle  0x220e
 80538ad:	0f 9f 05 0f 22 00 00 	setg   0x220f
 80538b4:	66 9c                	pushfw 
 80538b6:	66 58                	pop    %ax
 80538b8:	66 a3 00 21 00 00    	mov    %ax,0x2100
 80538be:	a1 50 20 00 00       	mov    0x2050,%eax
 80538c3:	29 e0                	sub    %esp,%eax
 80538c5:	a3 20 20 00 00       	mov    %eax,0x2020
 80538ca:	b8 00 00 00 00       	mov    $0x0,%eax
 80538cf:	c3                   	ret    

080538d0 <cmov_l_with_code_6_mv_constant_complex2>:
 80538d0:	90                   	nop
 80538d1:	66 68 ff fe          	pushw  $0xfeff
 80538d5:	66 9d                	popfw  
 80538d7:	b8 e8 c0 3e 31       	mov    $0x313ec0e8,%eax
 80538dc:	bb c3 81 6e 49       	mov    $0x496e81c3,%ebx
 80538e1:	b9 b2 6c 3f 1e       	mov    $0x1e3f6cb2,%ecx
 80538e6:	ba b3 25 69 4e       	mov    $0x4e6925b3,%edx
 80538eb:	bd 10 26 31 4f       	mov    $0x4f312610,%ebp
 80538f0:	be a5 a4 37 2f       	mov    $0x2f37a4a5,%esi
 80538f5:	bf b4 17 a9 91       	mov    $0x91a917b4,%edi
 80538fa:	89 25 50 20 00 00    	mov    %esp,0x2050
 8053900:	3c 02                	cmp    $0x2,%al
 8053902:	0f 46 d8             	cmovbe %eax,%ebx
 8053905:	a3 00 20 00 00       	mov    %eax,0x2000
 805390a:	89 1d 04 20 00 00    	mov    %ebx,0x2004
 8053910:	89 0d 08 20 00 00    	mov    %ecx,0x2008
 8053916:	89 15 0c 20 00 00    	mov    %edx,0x200c
 805391c:	89 2d 10 20 00 00    	mov    %ebp,0x2010
 8053922:	89 35 14 20 00 00    	mov    %esi,0x2014
 8053928:	89 3d 18 20 00 00    	mov    %edi,0x2018
 805392e:	0f 90 05 00 22 00 00 	seto   0x2200
 8053935:	0f 91 05 01 22 00 00 	setno  0x2201
 805393c:	0f 92 05 02 22 00 00 	setb   0x2202
 8053943:	0f 93 05 03 22 00 00 	setae  0x2203
 805394a:	0f 94 05 04 22 00 00 	sete   0x2204
 8053951:	0f 95 05 05 22 00 00 	setne  0x2205
 8053958:	0f 96 05 06 22 00 00 	setbe  0x2206
 805395f:	0f 97 05 07 22 00 00 	seta   0x2207
 8053966:	0f 98 05 08 22 00 00 	sets   0x2208
 805396d:	0f 99 05 09 22 00 00 	setns  0x2209
 8053974:	0f 9a 05 0a 22 00 00 	setp   0x220a
 805397b:	0f 9b 05 0b 22 00 00 	setnp  0x220b
 8053982:	0f 9c 05 0c 22 00 00 	setl   0x220c
 8053989:	0f 9d 05 0d 22 00 00 	setge  0x220d
 8053990:	0f 9e 05 0e 22 00 00 	setle  0x220e
 8053997:	0f 9f 05 0f 22 00 00 	setg   0x220f
 805399e:	66 9c                	pushfw 
 80539a0:	66 58                	pop    %ax
 80539a2:	66 a3 00 21 00 00    	mov    %ax,0x2100
 80539a8:	a1 50 20 00 00       	mov    0x2050,%eax
 80539ad:	29 e0                	sub    %esp,%eax
 80539af:	a3 20 20 00 00       	mov    %eax,0x2020
 80539b4:	b8 00 00 00 00       	mov    $0x0,%eax
 80539b9:	c3                   	ret    

080539ba <cmov_l_with_code_7_mv_plain>:
 80539ba:	3c 02                	cmp    $0x2,%al
 80539bc:	0f 47 d8             	cmova  %eax,%ebx
 80539bf:	b8 00 00 00 00       	mov    $0x0,%eax
 80539c4:	c3                   	ret    

080539c5 <cmov_l_with_code_7_mv_allregs>:
 80539c5:	90                   	nop
 80539c6:	66 a1 00 11 00 00    	mov    0x1100,%ax
 80539cc:	66 50                	push   %ax
 80539ce:	66 9d                	popfw  
 80539d0:	a1 00 10 00 00       	mov    0x1000,%eax
 80539d5:	8b 1d 04 10 00 00    	mov    0x1004,%ebx
 80539db:	8b 0d 08 10 00 00    	mov    0x1008,%ecx
 80539e1:	8b 15 0c 10 00 00    	mov    0x100c,%edx
 80539e7:	8b 2d 10 10 00 00    	mov    0x1010,%ebp
 80539ed:	8b 35 14 10 00 00    	mov    0x1014,%esi
 80539f3:	8b 3d 18 10 00 00    	mov    0x1018,%edi
 80539f9:	89 25 50 20 00 00    	mov    %esp,0x2050
 80539ff:	3c 02                	cmp    $0x2,%al
 8053a01:	0f 47 d8             	cmova  %eax,%ebx
 8053a04:	a3 00 20 00 00       	mov    %eax,0x2000
 8053a09:	89 1d 04 20 00 00    	mov    %ebx,0x2004
 8053a0f:	89 0d 08 20 00 00    	mov    %ecx,0x2008
 8053a15:	89 15 0c 20 00 00    	mov    %edx,0x200c
 8053a1b:	89 2d 10 20 00 00    	mov    %ebp,0x2010
 8053a21:	89 35 14 20 00 00    	mov    %esi,0x2014
 8053a27:	89 3d 18 20 00 00    	mov    %edi,0x2018
 8053a2d:	0f 90 05 00 22 00 00 	seto   0x2200
 8053a34:	0f 91 05 01 22 00 00 	setno  0x2201
 8053a3b:	0f 92 05 02 22 00 00 	setb   0x2202
 8053a42:	0f 93 05 03 22 00 00 	setae  0x2203
 8053a49:	0f 94 05 04 22 00 00 	sete   0x2204
 8053a50:	0f 95 05 05 22 00 00 	setne  0x2205
 8053a57:	0f 96 05 06 22 00 00 	setbe  0x2206
 8053a5e:	0f 97 05 07 22 00 00 	seta   0x2207
 8053a65:	0f 98 05 08 22 00 00 	sets   0x2208
 8053a6c:	0f 99 05 09 22 00 00 	setns  0x2209
 8053a73:	0f 9a 05 0a 22 00 00 	setp   0x220a
 8053a7a:	0f 9b 05 0b 22 00 00 	setnp  0x220b
 8053a81:	0f 9c 05 0c 22 00 00 	setl   0x220c
 8053a88:	0f 9d 05 0d 22 00 00 	setge  0x220d
 8053a8f:	0f 9e 05 0e 22 00 00 	setle  0x220e
 8053a96:	0f 9f 05 0f 22 00 00 	setg   0x220f
 8053a9d:	66 9c                	pushfw 
 8053a9f:	66 58                	pop    %ax
 8053aa1:	66 a3 00 21 00 00    	mov    %ax,0x2100
 8053aa7:	a1 50 20 00 00       	mov    0x2050,%eax
 8053aac:	29 e0                	sub    %esp,%eax
 8053aae:	a3 20 20 00 00       	mov    %eax,0x2020
 8053ab3:	b8 00 00 00 00       	mov    $0x0,%eax
 8053ab8:	c3                   	ret    

08053ab9 <cmov_l_with_code_7_mv_constant_simple>:
 8053ab9:	90                   	nop
 8053aba:	66 6a 00             	pushw  $0x0
 8053abd:	66 9d                	popfw  
 8053abf:	b8 02 00 00 00       	mov    $0x2,%eax
 8053ac4:	bb 03 00 00 00       	mov    $0x3,%ebx
 8053ac9:	b9 04 00 00 00       	mov    $0x4,%ecx
 8053ace:	ba 05 00 00 00       	mov    $0x5,%edx
 8053ad3:	bd 06 00 00 00       	mov    $0x6,%ebp
 8053ad8:	be 07 00 00 00       	mov    $0x7,%esi
 8053add:	bf 08 00 00 00       	mov    $0x8,%edi
 8053ae2:	89 25 50 20 00 00    	mov    %esp,0x2050
 8053ae8:	3c 02                	cmp    $0x2,%al
 8053aea:	0f 47 d8             	cmova  %eax,%ebx
 8053aed:	a3 00 20 00 00       	mov    %eax,0x2000
 8053af2:	89 1d 04 20 00 00    	mov    %ebx,0x2004
 8053af8:	89 0d 08 20 00 00    	mov    %ecx,0x2008
 8053afe:	89 15 0c 20 00 00    	mov    %edx,0x200c
 8053b04:	89 2d 10 20 00 00    	mov    %ebp,0x2010
 8053b0a:	89 35 14 20 00 00    	mov    %esi,0x2014
 8053b10:	89 3d 18 20 00 00    	mov    %edi,0x2018
 8053b16:	0f 90 05 00 22 00 00 	seto   0x2200
 8053b1d:	0f 91 05 01 22 00 00 	setno  0x2201
 8053b24:	0f 92 05 02 22 00 00 	setb   0x2202
 8053b2b:	0f 93 05 03 22 00 00 	setae  0x2203
 8053b32:	0f 94 05 04 22 00 00 	sete   0x2204
 8053b39:	0f 95 05 05 22 00 00 	setne  0x2205
 8053b40:	0f 96 05 06 22 00 00 	setbe  0x2206
 8053b47:	0f 97 05 07 22 00 00 	seta   0x2207
 8053b4e:	0f 98 05 08 22 00 00 	sets   0x2208
 8053b55:	0f 99 05 09 22 00 00 	setns  0x2209
 8053b5c:	0f 9a 05 0a 22 00 00 	setp   0x220a
 8053b63:	0f 9b 05 0b 22 00 00 	setnp  0x220b
 8053b6a:	0f 9c 05 0c 22 00 00 	setl   0x220c
 8053b71:	0f 9d 05 0d 22 00 00 	setge  0x220d
 8053b78:	0f 9e 05 0e 22 00 00 	setle  0x220e
 8053b7f:	0f 9f 05 0f 22 00 00 	setg   0x220f
 8053b86:	66 9c                	pushfw 
 8053b88:	66 58                	pop    %ax
 8053b8a:	66 a3 00 21 00 00    	mov    %ax,0x2100
 8053b90:	a1 50 20 00 00       	mov    0x2050,%eax
 8053b95:	29 e0                	sub    %esp,%eax
 8053b97:	a3 20 20 00 00       	mov    %eax,0x2020
 8053b9c:	b8 00 00 00 00       	mov    $0x0,%eax
 8053ba1:	c3                   	ret    

08053ba2 <cmov_l_with_code_7_mv_constant_complex1>:
 8053ba2:	90                   	nop
 8053ba3:	66 6a 00             	pushw  $0x0
 8053ba6:	66 9d                	popfw  
 8053ba8:	b8 84 79 b1 a3       	mov    $0xa3b17984,%eax
 8053bad:	bb d7 1a 67 06       	mov    $0x6671ad7,%ebx
 8053bb2:	b9 48 52 68 46       	mov    $0x46685248,%ecx
 8053bb7:	ba c4 56 24 39       	mov    $0x392456c4,%edx
 8053bbc:	bd a4 60 89 bc       	mov    $0xbc8960a4,%ebp
 8053bc1:	be 78 2d 3c ad       	mov    $0xad3c2d78,%esi
 8053bc6:	bf 52 e1 65 e4       	mov    $0xe465e152,%edi
 8053bcb:	89 25 50 20 00 00    	mov    %esp,0x2050
 8053bd1:	3c 02                	cmp    $0x2,%al
 8053bd3:	0f 47 d8             	cmova  %eax,%ebx
 8053bd6:	a3 00 20 00 00       	mov    %eax,0x2000
 8053bdb:	89 1d 04 20 00 00    	mov    %ebx,0x2004
 8053be1:	89 0d 08 20 00 00    	mov    %ecx,0x2008
 8053be7:	89 15 0c 20 00 00    	mov    %edx,0x200c
 8053bed:	89 2d 10 20 00 00    	mov    %ebp,0x2010
 8053bf3:	89 35 14 20 00 00    	mov    %esi,0x2014
 8053bf9:	89 3d 18 20 00 00    	mov    %edi,0x2018
 8053bff:	0f 90 05 00 22 00 00 	seto   0x2200
 8053c06:	0f 91 05 01 22 00 00 	setno  0x2201
 8053c0d:	0f 92 05 02 22 00 00 	setb   0x2202
 8053c14:	0f 93 05 03 22 00 00 	setae  0x2203
 8053c1b:	0f 94 05 04 22 00 00 	sete   0x2204
 8053c22:	0f 95 05 05 22 00 00 	setne  0x2205
 8053c29:	0f 96 05 06 22 00 00 	setbe  0x2206
 8053c30:	0f 97 05 07 22 00 00 	seta   0x2207
 8053c37:	0f 98 05 08 22 00 00 	sets   0x2208
 8053c3e:	0f 99 05 09 22 00 00 	setns  0x2209
 8053c45:	0f 9a 05 0a 22 00 00 	setp   0x220a
 8053c4c:	0f 9b 05 0b 22 00 00 	setnp  0x220b
 8053c53:	0f 9c 05 0c 22 00 00 	setl   0x220c
 8053c5a:	0f 9d 05 0d 22 00 00 	setge  0x220d
 8053c61:	0f 9e 05 0e 22 00 00 	setle  0x220e
 8053c68:	0f 9f 05 0f 22 00 00 	setg   0x220f
 8053c6f:	66 9c                	pushfw 
 8053c71:	66 58                	pop    %ax
 8053c73:	66 a3 00 21 00 00    	mov    %ax,0x2100
 8053c79:	a1 50 20 00 00       	mov    0x2050,%eax
 8053c7e:	29 e0                	sub    %esp,%eax
 8053c80:	a3 20 20 00 00       	mov    %eax,0x2020
 8053c85:	b8 00 00 00 00       	mov    $0x0,%eax
 8053c8a:	c3                   	ret    

08053c8b <cmov_l_with_code_7_mv_constant_complex2>:
 8053c8b:	90                   	nop
 8053c8c:	66 68 ff fe          	pushw  $0xfeff
 8053c90:	66 9d                	popfw  
 8053c92:	b8 e8 c0 3e 31       	mov    $0x313ec0e8,%eax
 8053c97:	bb c3 81 6e 49       	mov    $0x496e81c3,%ebx
 8053c9c:	b9 b2 6c 3f 1e       	mov    $0x1e3f6cb2,%ecx
 8053ca1:	ba b3 25 69 4e       	mov    $0x4e6925b3,%edx
 8053ca6:	bd 10 26 31 4f       	mov    $0x4f312610,%ebp
 8053cab:	be a5 a4 37 2f       	mov    $0x2f37a4a5,%esi
 8053cb0:	bf b4 17 a9 91       	mov    $0x91a917b4,%edi
 8053cb5:	89 25 50 20 00 00    	mov    %esp,0x2050
 8053cbb:	3c 02                	cmp    $0x2,%al
 8053cbd:	0f 47 d8             	cmova  %eax,%ebx
 8053cc0:	a3 00 20 00 00       	mov    %eax,0x2000
 8053cc5:	89 1d 04 20 00 00    	mov    %ebx,0x2004
 8053ccb:	89 0d 08 20 00 00    	mov    %ecx,0x2008
 8053cd1:	89 15 0c 20 00 00    	mov    %edx,0x200c
 8053cd7:	89 2d 10 20 00 00    	mov    %ebp,0x2010
 8053cdd:	89 35 14 20 00 00    	mov    %esi,0x2014
 8053ce3:	89 3d 18 20 00 00    	mov    %edi,0x2018
 8053ce9:	0f 90 05 00 22 00 00 	seto   0x2200
 8053cf0:	0f 91 05 01 22 00 00 	setno  0x2201
 8053cf7:	0f 92 05 02 22 00 00 	setb   0x2202
 8053cfe:	0f 93 05 03 22 00 00 	setae  0x2203
 8053d05:	0f 94 05 04 22 00 00 	sete   0x2204
 8053d0c:	0f 95 05 05 22 00 00 	setne  0x2205
 8053d13:	0f 96 05 06 22 00 00 	setbe  0x2206
 8053d1a:	0f 97 05 07 22 00 00 	seta   0x2207
 8053d21:	0f 98 05 08 22 00 00 	sets   0x2208
 8053d28:	0f 99 05 09 22 00 00 	setns  0x2209
 8053d2f:	0f 9a 05 0a 22 00 00 	setp   0x220a
 8053d36:	0f 9b 05 0b 22 00 00 	setnp  0x220b
 8053d3d:	0f 9c 05 0c 22 00 00 	setl   0x220c
 8053d44:	0f 9d 05 0d 22 00 00 	setge  0x220d
 8053d4b:	0f 9e 05 0e 22 00 00 	setle  0x220e
 8053d52:	0f 9f 05 0f 22 00 00 	setg   0x220f
 8053d59:	66 9c                	pushfw 
 8053d5b:	66 58                	pop    %ax
 8053d5d:	66 a3 00 21 00 00    	mov    %ax,0x2100
 8053d63:	a1 50 20 00 00       	mov    0x2050,%eax
 8053d68:	29 e0                	sub    %esp,%eax
 8053d6a:	a3 20 20 00 00       	mov    %eax,0x2020
 8053d6f:	b8 00 00 00 00       	mov    $0x0,%eax
 8053d74:	c3                   	ret    

08053d75 <cmov_l_with_code_8_mv_plain>:
 8053d75:	3c 02                	cmp    $0x2,%al
 8053d77:	0f 48 d8             	cmovs  %eax,%ebx
 8053d7a:	b8 00 00 00 00       	mov    $0x0,%eax
 8053d7f:	c3                   	ret    

08053d80 <cmov_l_with_code_8_mv_allregs>:
 8053d80:	90                   	nop
 8053d81:	66 a1 00 11 00 00    	mov    0x1100,%ax
 8053d87:	66 50                	push   %ax
 8053d89:	66 9d                	popfw  
 8053d8b:	a1 00 10 00 00       	mov    0x1000,%eax
 8053d90:	8b 1d 04 10 00 00    	mov    0x1004,%ebx
 8053d96:	8b 0d 08 10 00 00    	mov    0x1008,%ecx
 8053d9c:	8b 15 0c 10 00 00    	mov    0x100c,%edx
 8053da2:	8b 2d 10 10 00 00    	mov    0x1010,%ebp
 8053da8:	8b 35 14 10 00 00    	mov    0x1014,%esi
 8053dae:	8b 3d 18 10 00 00    	mov    0x1018,%edi
 8053db4:	89 25 50 20 00 00    	mov    %esp,0x2050
 8053dba:	3c 02                	cmp    $0x2,%al
 8053dbc:	0f 48 d8             	cmovs  %eax,%ebx
 8053dbf:	a3 00 20 00 00       	mov    %eax,0x2000
 8053dc4:	89 1d 04 20 00 00    	mov    %ebx,0x2004
 8053dca:	89 0d 08 20 00 00    	mov    %ecx,0x2008
 8053dd0:	89 15 0c 20 00 00    	mov    %edx,0x200c
 8053dd6:	89 2d 10 20 00 00    	mov    %ebp,0x2010
 8053ddc:	89 35 14 20 00 00    	mov    %esi,0x2014
 8053de2:	89 3d 18 20 00 00    	mov    %edi,0x2018
 8053de8:	0f 90 05 00 22 00 00 	seto   0x2200
 8053def:	0f 91 05 01 22 00 00 	setno  0x2201
 8053df6:	0f 92 05 02 22 00 00 	setb   0x2202
 8053dfd:	0f 93 05 03 22 00 00 	setae  0x2203
 8053e04:	0f 94 05 04 22 00 00 	sete   0x2204
 8053e0b:	0f 95 05 05 22 00 00 	setne  0x2205
 8053e12:	0f 96 05 06 22 00 00 	setbe  0x2206
 8053e19:	0f 97 05 07 22 00 00 	seta   0x2207
 8053e20:	0f 98 05 08 22 00 00 	sets   0x2208
 8053e27:	0f 99 05 09 22 00 00 	setns  0x2209
 8053e2e:	0f 9a 05 0a 22 00 00 	setp   0x220a
 8053e35:	0f 9b 05 0b 22 00 00 	setnp  0x220b
 8053e3c:	0f 9c 05 0c 22 00 00 	setl   0x220c
 8053e43:	0f 9d 05 0d 22 00 00 	setge  0x220d
 8053e4a:	0f 9e 05 0e 22 00 00 	setle  0x220e
 8053e51:	0f 9f 05 0f 22 00 00 	setg   0x220f
 8053e58:	66 9c                	pushfw 
 8053e5a:	66 58                	pop    %ax
 8053e5c:	66 a3 00 21 00 00    	mov    %ax,0x2100
 8053e62:	a1 50 20 00 00       	mov    0x2050,%eax
 8053e67:	29 e0                	sub    %esp,%eax
 8053e69:	a3 20 20 00 00       	mov    %eax,0x2020
 8053e6e:	b8 00 00 00 00       	mov    $0x0,%eax
 8053e73:	c3                   	ret    

08053e74 <cmov_l_with_code_8_mv_constant_simple>:
 8053e74:	90                   	nop
 8053e75:	66 6a 00             	pushw  $0x0
 8053e78:	66 9d                	popfw  
 8053e7a:	b8 02 00 00 00       	mov    $0x2,%eax
 8053e7f:	bb 03 00 00 00       	mov    $0x3,%ebx
 8053e84:	b9 04 00 00 00       	mov    $0x4,%ecx
 8053e89:	ba 05 00 00 00       	mov    $0x5,%edx
 8053e8e:	bd 06 00 00 00       	mov    $0x6,%ebp
 8053e93:	be 07 00 00 00       	mov    $0x7,%esi
 8053e98:	bf 08 00 00 00       	mov    $0x8,%edi
 8053e9d:	89 25 50 20 00 00    	mov    %esp,0x2050
 8053ea3:	3c 02                	cmp    $0x2,%al
 8053ea5:	0f 48 d8             	cmovs  %eax,%ebx
 8053ea8:	a3 00 20 00 00       	mov    %eax,0x2000
 8053ead:	89 1d 04 20 00 00    	mov    %ebx,0x2004
 8053eb3:	89 0d 08 20 00 00    	mov    %ecx,0x2008
 8053eb9:	89 15 0c 20 00 00    	mov    %edx,0x200c
 8053ebf:	89 2d 10 20 00 00    	mov    %ebp,0x2010
 8053ec5:	89 35 14 20 00 00    	mov    %esi,0x2014
 8053ecb:	89 3d 18 20 00 00    	mov    %edi,0x2018
 8053ed1:	0f 90 05 00 22 00 00 	seto   0x2200
 8053ed8:	0f 91 05 01 22 00 00 	setno  0x2201
 8053edf:	0f 92 05 02 22 00 00 	setb   0x2202
 8053ee6:	0f 93 05 03 22 00 00 	setae  0x2203
 8053eed:	0f 94 05 04 22 00 00 	sete   0x2204
 8053ef4:	0f 95 05 05 22 00 00 	setne  0x2205
 8053efb:	0f 96 05 06 22 00 00 	setbe  0x2206
 8053f02:	0f 97 05 07 22 00 00 	seta   0x2207
 8053f09:	0f 98 05 08 22 00 00 	sets   0x2208
 8053f10:	0f 99 05 09 22 00 00 	setns  0x2209
 8053f17:	0f 9a 05 0a 22 00 00 	setp   0x220a
 8053f1e:	0f 9b 05 0b 22 00 00 	setnp  0x220b
 8053f25:	0f 9c 05 0c 22 00 00 	setl   0x220c
 8053f2c:	0f 9d 05 0d 22 00 00 	setge  0x220d
 8053f33:	0f 9e 05 0e 22 00 00 	setle  0x220e
 8053f3a:	0f 9f 05 0f 22 00 00 	setg   0x220f
 8053f41:	66 9c                	pushfw 
 8053f43:	66 58                	pop    %ax
 8053f45:	66 a3 00 21 00 00    	mov    %ax,0x2100
 8053f4b:	a1 50 20 00 00       	mov    0x2050,%eax
 8053f50:	29 e0                	sub    %esp,%eax
 8053f52:	a3 20 20 00 00       	mov    %eax,0x2020
 8053f57:	b8 00 00 00 00       	mov    $0x0,%eax
 8053f5c:	c3                   	ret    

08053f5d <cmov_l_with_code_8_mv_constant_complex1>:
 8053f5d:	90                   	nop
 8053f5e:	66 6a 00             	pushw  $0x0
 8053f61:	66 9d                	popfw  
 8053f63:	b8 84 79 b1 a3       	mov    $0xa3b17984,%eax
 8053f68:	bb d7 1a 67 06       	mov    $0x6671ad7,%ebx
 8053f6d:	b9 48 52 68 46       	mov    $0x46685248,%ecx
 8053f72:	ba c4 56 24 39       	mov    $0x392456c4,%edx
 8053f77:	bd a4 60 89 bc       	mov    $0xbc8960a4,%ebp
 8053f7c:	be 78 2d 3c ad       	mov    $0xad3c2d78,%esi
 8053f81:	bf 52 e1 65 e4       	mov    $0xe465e152,%edi
 8053f86:	89 25 50 20 00 00    	mov    %esp,0x2050
 8053f8c:	3c 02                	cmp    $0x2,%al
 8053f8e:	0f 48 d8             	cmovs  %eax,%ebx
 8053f91:	a3 00 20 00 00       	mov    %eax,0x2000
 8053f96:	89 1d 04 20 00 00    	mov    %ebx,0x2004
 8053f9c:	89 0d 08 20 00 00    	mov    %ecx,0x2008
 8053fa2:	89 15 0c 20 00 00    	mov    %edx,0x200c
 8053fa8:	89 2d 10 20 00 00    	mov    %ebp,0x2010
 8053fae:	89 35 14 20 00 00    	mov    %esi,0x2014
 8053fb4:	89 3d 18 20 00 00    	mov    %edi,0x2018
 8053fba:	0f 90 05 00 22 00 00 	seto   0x2200
 8053fc1:	0f 91 05 01 22 00 00 	setno  0x2201
 8053fc8:	0f 92 05 02 22 00 00 	setb   0x2202
 8053fcf:	0f 93 05 03 22 00 00 	setae  0x2203
 8053fd6:	0f 94 05 04 22 00 00 	sete   0x2204
 8053fdd:	0f 95 05 05 22 00 00 	setne  0x2205
 8053fe4:	0f 96 05 06 22 00 00 	setbe  0x2206
 8053feb:	0f 97 05 07 22 00 00 	seta   0x2207
 8053ff2:	0f 98 05 08 22 00 00 	sets   0x2208
 8053ff9:	0f 99 05 09 22 00 00 	setns  0x2209
 8054000:	0f 9a 05 0a 22 00 00 	setp   0x220a
 8054007:	0f 9b 05 0b 22 00 00 	setnp  0x220b
 805400e:	0f 9c 05 0c 22 00 00 	setl   0x220c
 8054015:	0f 9d 05 0d 22 00 00 	setge  0x220d
 805401c:	0f 9e 05 0e 22 00 00 	setle  0x220e
 8054023:	0f 9f 05 0f 22 00 00 	setg   0x220f
 805402a:	66 9c                	pushfw 
 805402c:	66 58                	pop    %ax
 805402e:	66 a3 00 21 00 00    	mov    %ax,0x2100
 8054034:	a1 50 20 00 00       	mov    0x2050,%eax
 8054039:	29 e0                	sub    %esp,%eax
 805403b:	a3 20 20 00 00       	mov    %eax,0x2020
 8054040:	b8 00 00 00 00       	mov    $0x0,%eax
 8054045:	c3                   	ret    

08054046 <cmov_l_with_code_8_mv_constant_complex2>:
 8054046:	90                   	nop
 8054047:	66 68 ff fe          	pushw  $0xfeff
 805404b:	66 9d                	popfw  
 805404d:	b8 e8 c0 3e 31       	mov    $0x313ec0e8,%eax
 8054052:	bb c3 81 6e 49       	mov    $0x496e81c3,%ebx
 8054057:	b9 b2 6c 3f 1e       	mov    $0x1e3f6cb2,%ecx
 805405c:	ba b3 25 69 4e       	mov    $0x4e6925b3,%edx
 8054061:	bd 10 26 31 4f       	mov    $0x4f312610,%ebp
 8054066:	be a5 a4 37 2f       	mov    $0x2f37a4a5,%esi
 805406b:	bf b4 17 a9 91       	mov    $0x91a917b4,%edi
 8054070:	89 25 50 20 00 00    	mov    %esp,0x2050
 8054076:	3c 02                	cmp    $0x2,%al
 8054078:	0f 48 d8             	cmovs  %eax,%ebx
 805407b:	a3 00 20 00 00       	mov    %eax,0x2000
 8054080:	89 1d 04 20 00 00    	mov    %ebx,0x2004
 8054086:	89 0d 08 20 00 00    	mov    %ecx,0x2008
 805408c:	89 15 0c 20 00 00    	mov    %edx,0x200c
 8054092:	89 2d 10 20 00 00    	mov    %ebp,0x2010
 8054098:	89 35 14 20 00 00    	mov    %esi,0x2014
 805409e:	89 3d 18 20 00 00    	mov    %edi,0x2018
 80540a4:	0f 90 05 00 22 00 00 	seto   0x2200
 80540ab:	0f 91 05 01 22 00 00 	setno  0x2201
 80540b2:	0f 92 05 02 22 00 00 	setb   0x2202
 80540b9:	0f 93 05 03 22 00 00 	setae  0x2203
 80540c0:	0f 94 05 04 22 00 00 	sete   0x2204
 80540c7:	0f 95 05 05 22 00 00 	setne  0x2205
 80540ce:	0f 96 05 06 22 00 00 	setbe  0x2206
 80540d5:	0f 97 05 07 22 00 00 	seta   0x2207
 80540dc:	0f 98 05 08 22 00 00 	sets   0x2208
 80540e3:	0f 99 05 09 22 00 00 	setns  0x2209
 80540ea:	0f 9a 05 0a 22 00 00 	setp   0x220a
 80540f1:	0f 9b 05 0b 22 00 00 	setnp  0x220b
 80540f8:	0f 9c 05 0c 22 00 00 	setl   0x220c
 80540ff:	0f 9d 05 0d 22 00 00 	setge  0x220d
 8054106:	0f 9e 05 0e 22 00 00 	setle  0x220e
 805410d:	0f 9f 05 0f 22 00 00 	setg   0x220f
 8054114:	66 9c                	pushfw 
 8054116:	66 58                	pop    %ax
 8054118:	66 a3 00 21 00 00    	mov    %ax,0x2100
 805411e:	a1 50 20 00 00       	mov    0x2050,%eax
 8054123:	29 e0                	sub    %esp,%eax
 8054125:	a3 20 20 00 00       	mov    %eax,0x2020
 805412a:	b8 00 00 00 00       	mov    $0x0,%eax
 805412f:	c3                   	ret    

08054130 <cmov_l_with_code_9_mv_plain>:
 8054130:	3c 02                	cmp    $0x2,%al
 8054132:	0f 49 d8             	cmovns %eax,%ebx
 8054135:	b8 00 00 00 00       	mov    $0x0,%eax
 805413a:	c3                   	ret    

0805413b <cmov_l_with_code_9_mv_allregs>:
 805413b:	90                   	nop
 805413c:	66 a1 00 11 00 00    	mov    0x1100,%ax
 8054142:	66 50                	push   %ax
 8054144:	66 9d                	popfw  
 8054146:	a1 00 10 00 00       	mov    0x1000,%eax
 805414b:	8b 1d 04 10 00 00    	mov    0x1004,%ebx
 8054151:	8b 0d 08 10 00 00    	mov    0x1008,%ecx
 8054157:	8b 15 0c 10 00 00    	mov    0x100c,%edx
 805415d:	8b 2d 10 10 00 00    	mov    0x1010,%ebp
 8054163:	8b 35 14 10 00 00    	mov    0x1014,%esi
 8054169:	8b 3d 18 10 00 00    	mov    0x1018,%edi
 805416f:	89 25 50 20 00 00    	mov    %esp,0x2050
 8054175:	3c 02                	cmp    $0x2,%al
 8054177:	0f 49 d8             	cmovns %eax,%ebx
 805417a:	a3 00 20 00 00       	mov    %eax,0x2000
 805417f:	89 1d 04 20 00 00    	mov    %ebx,0x2004
 8054185:	89 0d 08 20 00 00    	mov    %ecx,0x2008
 805418b:	89 15 0c 20 00 00    	mov    %edx,0x200c
 8054191:	89 2d 10 20 00 00    	mov    %ebp,0x2010
 8054197:	89 35 14 20 00 00    	mov    %esi,0x2014
 805419d:	89 3d 18 20 00 00    	mov    %edi,0x2018
 80541a3:	0f 90 05 00 22 00 00 	seto   0x2200
 80541aa:	0f 91 05 01 22 00 00 	setno  0x2201
 80541b1:	0f 92 05 02 22 00 00 	setb   0x2202
 80541b8:	0f 93 05 03 22 00 00 	setae  0x2203
 80541bf:	0f 94 05 04 22 00 00 	sete   0x2204
 80541c6:	0f 95 05 05 22 00 00 	setne  0x2205
 80541cd:	0f 96 05 06 22 00 00 	setbe  0x2206
 80541d4:	0f 97 05 07 22 00 00 	seta   0x2207
 80541db:	0f 98 05 08 22 00 00 	sets   0x2208
 80541e2:	0f 99 05 09 22 00 00 	setns  0x2209
 80541e9:	0f 9a 05 0a 22 00 00 	setp   0x220a
 80541f0:	0f 9b 05 0b 22 00 00 	setnp  0x220b
 80541f7:	0f 9c 05 0c 22 00 00 	setl   0x220c
 80541fe:	0f 9d 05 0d 22 00 00 	setge  0x220d
 8054205:	0f 9e 05 0e 22 00 00 	setle  0x220e
 805420c:	0f 9f 05 0f 22 00 00 	setg   0x220f
 8054213:	66 9c                	pushfw 
 8054215:	66 58                	pop    %ax
 8054217:	66 a3 00 21 00 00    	mov    %ax,0x2100
 805421d:	a1 50 20 00 00       	mov    0x2050,%eax
 8054222:	29 e0                	sub    %esp,%eax
 8054224:	a3 20 20 00 00       	mov    %eax,0x2020
 8054229:	b8 00 00 00 00       	mov    $0x0,%eax
 805422e:	c3                   	ret    

0805422f <cmov_l_with_code_9_mv_constant_simple>:
 805422f:	90                   	nop
 8054230:	66 6a 00             	pushw  $0x0
 8054233:	66 9d                	popfw  
 8054235:	b8 02 00 00 00       	mov    $0x2,%eax
 805423a:	bb 03 00 00 00       	mov    $0x3,%ebx
 805423f:	b9 04 00 00 00       	mov    $0x4,%ecx
 8054244:	ba 05 00 00 00       	mov    $0x5,%edx
 8054249:	bd 06 00 00 00       	mov    $0x6,%ebp
 805424e:	be 07 00 00 00       	mov    $0x7,%esi
 8054253:	bf 08 00 00 00       	mov    $0x8,%edi
 8054258:	89 25 50 20 00 00    	mov    %esp,0x2050
 805425e:	3c 02                	cmp    $0x2,%al
 8054260:	0f 49 d8             	cmovns %eax,%ebx
 8054263:	a3 00 20 00 00       	mov    %eax,0x2000
 8054268:	89 1d 04 20 00 00    	mov    %ebx,0x2004
 805426e:	89 0d 08 20 00 00    	mov    %ecx,0x2008
 8054274:	89 15 0c 20 00 00    	mov    %edx,0x200c
 805427a:	89 2d 10 20 00 00    	mov    %ebp,0x2010
 8054280:	89 35 14 20 00 00    	mov    %esi,0x2014
 8054286:	89 3d 18 20 00 00    	mov    %edi,0x2018
 805428c:	0f 90 05 00 22 00 00 	seto   0x2200
 8054293:	0f 91 05 01 22 00 00 	setno  0x2201
 805429a:	0f 92 05 02 22 00 00 	setb   0x2202
 80542a1:	0f 93 05 03 22 00 00 	setae  0x2203
 80542a8:	0f 94 05 04 22 00 00 	sete   0x2204
 80542af:	0f 95 05 05 22 00 00 	setne  0x2205
 80542b6:	0f 96 05 06 22 00 00 	setbe  0x2206
 80542bd:	0f 97 05 07 22 00 00 	seta   0x2207
 80542c4:	0f 98 05 08 22 00 00 	sets   0x2208
 80542cb:	0f 99 05 09 22 00 00 	setns  0x2209
 80542d2:	0f 9a 05 0a 22 00 00 	setp   0x220a
 80542d9:	0f 9b 05 0b 22 00 00 	setnp  0x220b
 80542e0:	0f 9c 05 0c 22 00 00 	setl   0x220c
 80542e7:	0f 9d 05 0d 22 00 00 	setge  0x220d
 80542ee:	0f 9e 05 0e 22 00 00 	setle  0x220e
 80542f5:	0f 9f 05 0f 22 00 00 	setg   0x220f
 80542fc:	66 9c                	pushfw 
 80542fe:	66 58                	pop    %ax
 8054300:	66 a3 00 21 00 00    	mov    %ax,0x2100
 8054306:	a1 50 20 00 00       	mov    0x2050,%eax
 805430b:	29 e0                	sub    %esp,%eax
 805430d:	a3 20 20 00 00       	mov    %eax,0x2020
 8054312:	b8 00 00 00 00       	mov    $0x0,%eax
 8054317:	c3                   	ret    

08054318 <cmov_l_with_code_9_mv_constant_complex1>:
 8054318:	90                   	nop
 8054319:	66 6a 00             	pushw  $0x0
 805431c:	66 9d                	popfw  
 805431e:	b8 84 79 b1 a3       	mov    $0xa3b17984,%eax
 8054323:	bb d7 1a 67 06       	mov    $0x6671ad7,%ebx
 8054328:	b9 48 52 68 46       	mov    $0x46685248,%ecx
 805432d:	ba c4 56 24 39       	mov    $0x392456c4,%edx
 8054332:	bd a4 60 89 bc       	mov    $0xbc8960a4,%ebp
 8054337:	be 78 2d 3c ad       	mov    $0xad3c2d78,%esi
 805433c:	bf 52 e1 65 e4       	mov    $0xe465e152,%edi
 8054341:	89 25 50 20 00 00    	mov    %esp,0x2050
 8054347:	3c 02                	cmp    $0x2,%al
 8054349:	0f 49 d8             	cmovns %eax,%ebx
 805434c:	a3 00 20 00 00       	mov    %eax,0x2000
 8054351:	89 1d 04 20 00 00    	mov    %ebx,0x2004
 8054357:	89 0d 08 20 00 00    	mov    %ecx,0x2008
 805435d:	89 15 0c 20 00 00    	mov    %edx,0x200c
 8054363:	89 2d 10 20 00 00    	mov    %ebp,0x2010
 8054369:	89 35 14 20 00 00    	mov    %esi,0x2014
 805436f:	89 3d 18 20 00 00    	mov    %edi,0x2018
 8054375:	0f 90 05 00 22 00 00 	seto   0x2200
 805437c:	0f 91 05 01 22 00 00 	setno  0x2201
 8054383:	0f 92 05 02 22 00 00 	setb   0x2202
 805438a:	0f 93 05 03 22 00 00 	setae  0x2203
 8054391:	0f 94 05 04 22 00 00 	sete   0x2204
 8054398:	0f 95 05 05 22 00 00 	setne  0x2205
 805439f:	0f 96 05 06 22 00 00 	setbe  0x2206
 80543a6:	0f 97 05 07 22 00 00 	seta   0x2207
 80543ad:	0f 98 05 08 22 00 00 	sets   0x2208
 80543b4:	0f 99 05 09 22 00 00 	setns  0x2209
 80543bb:	0f 9a 05 0a 22 00 00 	setp   0x220a
 80543c2:	0f 9b 05 0b 22 00 00 	setnp  0x220b
 80543c9:	0f 9c 05 0c 22 00 00 	setl   0x220c
 80543d0:	0f 9d 05 0d 22 00 00 	setge  0x220d
 80543d7:	0f 9e 05 0e 22 00 00 	setle  0x220e
 80543de:	0f 9f 05 0f 22 00 00 	setg   0x220f
 80543e5:	66 9c                	pushfw 
 80543e7:	66 58                	pop    %ax
 80543e9:	66 a3 00 21 00 00    	mov    %ax,0x2100
 80543ef:	a1 50 20 00 00       	mov    0x2050,%eax
 80543f4:	29 e0                	sub    %esp,%eax
 80543f6:	a3 20 20 00 00       	mov    %eax,0x2020
 80543fb:	b8 00 00 00 00       	mov    $0x0,%eax
 8054400:	c3                   	ret    

08054401 <cmov_l_with_code_9_mv_constant_complex2>:
 8054401:	90                   	nop
 8054402:	66 68 ff fe          	pushw  $0xfeff
 8054406:	66 9d                	popfw  
 8054408:	b8 e8 c0 3e 31       	mov    $0x313ec0e8,%eax
 805440d:	bb c3 81 6e 49       	mov    $0x496e81c3,%ebx
 8054412:	b9 b2 6c 3f 1e       	mov    $0x1e3f6cb2,%ecx
 8054417:	ba b3 25 69 4e       	mov    $0x4e6925b3,%edx
 805441c:	bd 10 26 31 4f       	mov    $0x4f312610,%ebp
 8054421:	be a5 a4 37 2f       	mov    $0x2f37a4a5,%esi
 8054426:	bf b4 17 a9 91       	mov    $0x91a917b4,%edi
 805442b:	89 25 50 20 00 00    	mov    %esp,0x2050
 8054431:	3c 02                	cmp    $0x2,%al
 8054433:	0f 49 d8             	cmovns %eax,%ebx
 8054436:	a3 00 20 00 00       	mov    %eax,0x2000
 805443b:	89 1d 04 20 00 00    	mov    %ebx,0x2004
 8054441:	89 0d 08 20 00 00    	mov    %ecx,0x2008
 8054447:	89 15 0c 20 00 00    	mov    %edx,0x200c
 805444d:	89 2d 10 20 00 00    	mov    %ebp,0x2010
 8054453:	89 35 14 20 00 00    	mov    %esi,0x2014
 8054459:	89 3d 18 20 00 00    	mov    %edi,0x2018
 805445f:	0f 90 05 00 22 00 00 	seto   0x2200
 8054466:	0f 91 05 01 22 00 00 	setno  0x2201
 805446d:	0f 92 05 02 22 00 00 	setb   0x2202
 8054474:	0f 93 05 03 22 00 00 	setae  0x2203
 805447b:	0f 94 05 04 22 00 00 	sete   0x2204
 8054482:	0f 95 05 05 22 00 00 	setne  0x2205
 8054489:	0f 96 05 06 22 00 00 	setbe  0x2206
 8054490:	0f 97 05 07 22 00 00 	seta   0x2207
 8054497:	0f 98 05 08 22 00 00 	sets   0x2208
 805449e:	0f 99 05 09 22 00 00 	setns  0x2209
 80544a5:	0f 9a 05 0a 22 00 00 	setp   0x220a
 80544ac:	0f 9b 05 0b 22 00 00 	setnp  0x220b
 80544b3:	0f 9c 05 0c 22 00 00 	setl   0x220c
 80544ba:	0f 9d 05 0d 22 00 00 	setge  0x220d
 80544c1:	0f 9e 05 0e 22 00 00 	setle  0x220e
 80544c8:	0f 9f 05 0f 22 00 00 	setg   0x220f
 80544cf:	66 9c                	pushfw 
 80544d1:	66 58                	pop    %ax
 80544d3:	66 a3 00 21 00 00    	mov    %ax,0x2100
 80544d9:	a1 50 20 00 00       	mov    0x2050,%eax
 80544de:	29 e0                	sub    %esp,%eax
 80544e0:	a3 20 20 00 00       	mov    %eax,0x2020
 80544e5:	b8 00 00 00 00       	mov    $0x0,%eax
 80544ea:	c3                   	ret    

080544eb <cmov_l_with_code_a_mv_plain>:
 80544eb:	3c 02                	cmp    $0x2,%al
 80544ed:	0f 4a d8             	cmovp  %eax,%ebx
 80544f0:	b8 00 00 00 00       	mov    $0x0,%eax
 80544f5:	c3                   	ret    

080544f6 <cmov_l_with_code_a_mv_allregs>:
 80544f6:	90                   	nop
 80544f7:	66 a1 00 11 00 00    	mov    0x1100,%ax
 80544fd:	66 50                	push   %ax
 80544ff:	66 9d                	popfw  
 8054501:	a1 00 10 00 00       	mov    0x1000,%eax
 8054506:	8b 1d 04 10 00 00    	mov    0x1004,%ebx
 805450c:	8b 0d 08 10 00 00    	mov    0x1008,%ecx
 8054512:	8b 15 0c 10 00 00    	mov    0x100c,%edx
 8054518:	8b 2d 10 10 00 00    	mov    0x1010,%ebp
 805451e:	8b 35 14 10 00 00    	mov    0x1014,%esi
 8054524:	8b 3d 18 10 00 00    	mov    0x1018,%edi
 805452a:	89 25 50 20 00 00    	mov    %esp,0x2050
 8054530:	3c 02                	cmp    $0x2,%al
 8054532:	0f 4a d8             	cmovp  %eax,%ebx
 8054535:	a3 00 20 00 00       	mov    %eax,0x2000
 805453a:	89 1d 04 20 00 00    	mov    %ebx,0x2004
 8054540:	89 0d 08 20 00 00    	mov    %ecx,0x2008
 8054546:	89 15 0c 20 00 00    	mov    %edx,0x200c
 805454c:	89 2d 10 20 00 00    	mov    %ebp,0x2010
 8054552:	89 35 14 20 00 00    	mov    %esi,0x2014
 8054558:	89 3d 18 20 00 00    	mov    %edi,0x2018
 805455e:	0f 90 05 00 22 00 00 	seto   0x2200
 8054565:	0f 91 05 01 22 00 00 	setno  0x2201
 805456c:	0f 92 05 02 22 00 00 	setb   0x2202
 8054573:	0f 93 05 03 22 00 00 	setae  0x2203
 805457a:	0f 94 05 04 22 00 00 	sete   0x2204
 8054581:	0f 95 05 05 22 00 00 	setne  0x2205
 8054588:	0f 96 05 06 22 00 00 	setbe  0x2206
 805458f:	0f 97 05 07 22 00 00 	seta   0x2207
 8054596:	0f 98 05 08 22 00 00 	sets   0x2208
 805459d:	0f 99 05 09 22 00 00 	setns  0x2209
 80545a4:	0f 9a 05 0a 22 00 00 	setp   0x220a
 80545ab:	0f 9b 05 0b 22 00 00 	setnp  0x220b
 80545b2:	0f 9c 05 0c 22 00 00 	setl   0x220c
 80545b9:	0f 9d 05 0d 22 00 00 	setge  0x220d
 80545c0:	0f 9e 05 0e 22 00 00 	setle  0x220e
 80545c7:	0f 9f 05 0f 22 00 00 	setg   0x220f
 80545ce:	66 9c                	pushfw 
 80545d0:	66 58                	pop    %ax
 80545d2:	66 a3 00 21 00 00    	mov    %ax,0x2100
 80545d8:	a1 50 20 00 00       	mov    0x2050,%eax
 80545dd:	29 e0                	sub    %esp,%eax
 80545df:	a3 20 20 00 00       	mov    %eax,0x2020
 80545e4:	b8 00 00 00 00       	mov    $0x0,%eax
 80545e9:	c3                   	ret    

080545ea <cmov_l_with_code_a_mv_constant_simple>:
 80545ea:	90                   	nop
 80545eb:	66 6a 00             	pushw  $0x0
 80545ee:	66 9d                	popfw  
 80545f0:	b8 02 00 00 00       	mov    $0x2,%eax
 80545f5:	bb 03 00 00 00       	mov    $0x3,%ebx
 80545fa:	b9 04 00 00 00       	mov    $0x4,%ecx
 80545ff:	ba 05 00 00 00       	mov    $0x5,%edx
 8054604:	bd 06 00 00 00       	mov    $0x6,%ebp
 8054609:	be 07 00 00 00       	mov    $0x7,%esi
 805460e:	bf 08 00 00 00       	mov    $0x8,%edi
 8054613:	89 25 50 20 00 00    	mov    %esp,0x2050
 8054619:	3c 02                	cmp    $0x2,%al
 805461b:	0f 4a d8             	cmovp  %eax,%ebx
 805461e:	a3 00 20 00 00       	mov    %eax,0x2000
 8054623:	89 1d 04 20 00 00    	mov    %ebx,0x2004
 8054629:	89 0d 08 20 00 00    	mov    %ecx,0x2008
 805462f:	89 15 0c 20 00 00    	mov    %edx,0x200c
 8054635:	89 2d 10 20 00 00    	mov    %ebp,0x2010
 805463b:	89 35 14 20 00 00    	mov    %esi,0x2014
 8054641:	89 3d 18 20 00 00    	mov    %edi,0x2018
 8054647:	0f 90 05 00 22 00 00 	seto   0x2200
 805464e:	0f 91 05 01 22 00 00 	setno  0x2201
 8054655:	0f 92 05 02 22 00 00 	setb   0x2202
 805465c:	0f 93 05 03 22 00 00 	setae  0x2203
 8054663:	0f 94 05 04 22 00 00 	sete   0x2204
 805466a:	0f 95 05 05 22 00 00 	setne  0x2205
 8054671:	0f 96 05 06 22 00 00 	setbe  0x2206
 8054678:	0f 97 05 07 22 00 00 	seta   0x2207
 805467f:	0f 98 05 08 22 00 00 	sets   0x2208
 8054686:	0f 99 05 09 22 00 00 	setns  0x2209
 805468d:	0f 9a 05 0a 22 00 00 	setp   0x220a
 8054694:	0f 9b 05 0b 22 00 00 	setnp  0x220b
 805469b:	0f 9c 05 0c 22 00 00 	setl   0x220c
 80546a2:	0f 9d 05 0d 22 00 00 	setge  0x220d
 80546a9:	0f 9e 05 0e 22 00 00 	setle  0x220e
 80546b0:	0f 9f 05 0f 22 00 00 	setg   0x220f
 80546b7:	66 9c                	pushfw 
 80546b9:	66 58                	pop    %ax
 80546bb:	66 a3 00 21 00 00    	mov    %ax,0x2100
 80546c1:	a1 50 20 00 00       	mov    0x2050,%eax
 80546c6:	29 e0                	sub    %esp,%eax
 80546c8:	a3 20 20 00 00       	mov    %eax,0x2020
 80546cd:	b8 00 00 00 00       	mov    $0x0,%eax
 80546d2:	c3                   	ret    

080546d3 <cmov_l_with_code_a_mv_constant_complex1>:
 80546d3:	90                   	nop
 80546d4:	66 6a 00             	pushw  $0x0
 80546d7:	66 9d                	popfw  
 80546d9:	b8 84 79 b1 a3       	mov    $0xa3b17984,%eax
 80546de:	bb d7 1a 67 06       	mov    $0x6671ad7,%ebx
 80546e3:	b9 48 52 68 46       	mov    $0x46685248,%ecx
 80546e8:	ba c4 56 24 39       	mov    $0x392456c4,%edx
 80546ed:	bd a4 60 89 bc       	mov    $0xbc8960a4,%ebp
 80546f2:	be 78 2d 3c ad       	mov    $0xad3c2d78,%esi
 80546f7:	bf 52 e1 65 e4       	mov    $0xe465e152,%edi
 80546fc:	89 25 50 20 00 00    	mov    %esp,0x2050
 8054702:	3c 02                	cmp    $0x2,%al
 8054704:	0f 4a d8             	cmovp  %eax,%ebx
 8054707:	a3 00 20 00 00       	mov    %eax,0x2000
 805470c:	89 1d 04 20 00 00    	mov    %ebx,0x2004
 8054712:	89 0d 08 20 00 00    	mov    %ecx,0x2008
 8054718:	89 15 0c 20 00 00    	mov    %edx,0x200c
 805471e:	89 2d 10 20 00 00    	mov    %ebp,0x2010
 8054724:	89 35 14 20 00 00    	mov    %esi,0x2014
 805472a:	89 3d 18 20 00 00    	mov    %edi,0x2018
 8054730:	0f 90 05 00 22 00 00 	seto   0x2200
 8054737:	0f 91 05 01 22 00 00 	setno  0x2201
 805473e:	0f 92 05 02 22 00 00 	setb   0x2202
 8054745:	0f 93 05 03 22 00 00 	setae  0x2203
 805474c:	0f 94 05 04 22 00 00 	sete   0x2204
 8054753:	0f 95 05 05 22 00 00 	setne  0x2205
 805475a:	0f 96 05 06 22 00 00 	setbe  0x2206
 8054761:	0f 97 05 07 22 00 00 	seta   0x2207
 8054768:	0f 98 05 08 22 00 00 	sets   0x2208
 805476f:	0f 99 05 09 22 00 00 	setns  0x2209
 8054776:	0f 9a 05 0a 22 00 00 	setp   0x220a
 805477d:	0f 9b 05 0b 22 00 00 	setnp  0x220b
 8054784:	0f 9c 05 0c 22 00 00 	setl   0x220c
 805478b:	0f 9d 05 0d 22 00 00 	setge  0x220d
 8054792:	0f 9e 05 0e 22 00 00 	setle  0x220e
 8054799:	0f 9f 05 0f 22 00 00 	setg   0x220f
 80547a0:	66 9c                	pushfw 
 80547a2:	66 58                	pop    %ax
 80547a4:	66 a3 00 21 00 00    	mov    %ax,0x2100
 80547aa:	a1 50 20 00 00       	mov    0x2050,%eax
 80547af:	29 e0                	sub    %esp,%eax
 80547b1:	a3 20 20 00 00       	mov    %eax,0x2020
 80547b6:	b8 00 00 00 00       	mov    $0x0,%eax
 80547bb:	c3                   	ret    

080547bc <cmov_l_with_code_a_mv_constant_complex2>:
 80547bc:	90                   	nop
 80547bd:	66 68 ff fe          	pushw  $0xfeff
 80547c1:	66 9d                	popfw  
 80547c3:	b8 e8 c0 3e 31       	mov    $0x313ec0e8,%eax
 80547c8:	bb c3 81 6e 49       	mov    $0x496e81c3,%ebx
 80547cd:	b9 b2 6c 3f 1e       	mov    $0x1e3f6cb2,%ecx
 80547d2:	ba b3 25 69 4e       	mov    $0x4e6925b3,%edx
 80547d7:	bd 10 26 31 4f       	mov    $0x4f312610,%ebp
 80547dc:	be a5 a4 37 2f       	mov    $0x2f37a4a5,%esi
 80547e1:	bf b4 17 a9 91       	mov    $0x91a917b4,%edi
 80547e6:	89 25 50 20 00 00    	mov    %esp,0x2050
 80547ec:	3c 02                	cmp    $0x2,%al
 80547ee:	0f 4a d8             	cmovp  %eax,%ebx
 80547f1:	a3 00 20 00 00       	mov    %eax,0x2000
 80547f6:	89 1d 04 20 00 00    	mov    %ebx,0x2004
 80547fc:	89 0d 08 20 00 00    	mov    %ecx,0x2008
 8054802:	89 15 0c 20 00 00    	mov    %edx,0x200c
 8054808:	89 2d 10 20 00 00    	mov    %ebp,0x2010
 805480e:	89 35 14 20 00 00    	mov    %esi,0x2014
 8054814:	89 3d 18 20 00 00    	mov    %edi,0x2018
 805481a:	0f 90 05 00 22 00 00 	seto   0x2200
 8054821:	0f 91 05 01 22 00 00 	setno  0x2201
 8054828:	0f 92 05 02 22 00 00 	setb   0x2202
 805482f:	0f 93 05 03 22 00 00 	setae  0x2203
 8054836:	0f 94 05 04 22 00 00 	sete   0x2204
 805483d:	0f 95 05 05 22 00 00 	setne  0x2205
 8054844:	0f 96 05 06 22 00 00 	setbe  0x2206
 805484b:	0f 97 05 07 22 00 00 	seta   0x2207
 8054852:	0f 98 05 08 22 00 00 	sets   0x2208
 8054859:	0f 99 05 09 22 00 00 	setns  0x2209
 8054860:	0f 9a 05 0a 22 00 00 	setp   0x220a
 8054867:	0f 9b 05 0b 22 00 00 	setnp  0x220b
 805486e:	0f 9c 05 0c 22 00 00 	setl   0x220c
 8054875:	0f 9d 05 0d 22 00 00 	setge  0x220d
 805487c:	0f 9e 05 0e 22 00 00 	setle  0x220e
 8054883:	0f 9f 05 0f 22 00 00 	setg   0x220f
 805488a:	66 9c                	pushfw 
 805488c:	66 58                	pop    %ax
 805488e:	66 a3 00 21 00 00    	mov    %ax,0x2100
 8054894:	a1 50 20 00 00       	mov    0x2050,%eax
 8054899:	29 e0                	sub    %esp,%eax
 805489b:	a3 20 20 00 00       	mov    %eax,0x2020
 80548a0:	b8 00 00 00 00       	mov    $0x0,%eax
 80548a5:	c3                   	ret    

080548a6 <cmov_l_with_code_b_mv_plain>:
 80548a6:	3c 02                	cmp    $0x2,%al
 80548a8:	0f 4b d8             	cmovnp %eax,%ebx
 80548ab:	b8 00 00 00 00       	mov    $0x0,%eax
 80548b0:	c3                   	ret    

080548b1 <cmov_l_with_code_b_mv_allregs>:
 80548b1:	90                   	nop
 80548b2:	66 a1 00 11 00 00    	mov    0x1100,%ax
 80548b8:	66 50                	push   %ax
 80548ba:	66 9d                	popfw  
 80548bc:	a1 00 10 00 00       	mov    0x1000,%eax
 80548c1:	8b 1d 04 10 00 00    	mov    0x1004,%ebx
 80548c7:	8b 0d 08 10 00 00    	mov    0x1008,%ecx
 80548cd:	8b 15 0c 10 00 00    	mov    0x100c,%edx
 80548d3:	8b 2d 10 10 00 00    	mov    0x1010,%ebp
 80548d9:	8b 35 14 10 00 00    	mov    0x1014,%esi
 80548df:	8b 3d 18 10 00 00    	mov    0x1018,%edi
 80548e5:	89 25 50 20 00 00    	mov    %esp,0x2050
 80548eb:	3c 02                	cmp    $0x2,%al
 80548ed:	0f 4b d8             	cmovnp %eax,%ebx
 80548f0:	a3 00 20 00 00       	mov    %eax,0x2000
 80548f5:	89 1d 04 20 00 00    	mov    %ebx,0x2004
 80548fb:	89 0d 08 20 00 00    	mov    %ecx,0x2008
 8054901:	89 15 0c 20 00 00    	mov    %edx,0x200c
 8054907:	89 2d 10 20 00 00    	mov    %ebp,0x2010
 805490d:	89 35 14 20 00 00    	mov    %esi,0x2014
 8054913:	89 3d 18 20 00 00    	mov    %edi,0x2018
 8054919:	0f 90 05 00 22 00 00 	seto   0x2200
 8054920:	0f 91 05 01 22 00 00 	setno  0x2201
 8054927:	0f 92 05 02 22 00 00 	setb   0x2202
 805492e:	0f 93 05 03 22 00 00 	setae  0x2203
 8054935:	0f 94 05 04 22 00 00 	sete   0x2204
 805493c:	0f 95 05 05 22 00 00 	setne  0x2205
 8054943:	0f 96 05 06 22 00 00 	setbe  0x2206
 805494a:	0f 97 05 07 22 00 00 	seta   0x2207
 8054951:	0f 98 05 08 22 00 00 	sets   0x2208
 8054958:	0f 99 05 09 22 00 00 	setns  0x2209
 805495f:	0f 9a 05 0a 22 00 00 	setp   0x220a
 8054966:	0f 9b 05 0b 22 00 00 	setnp  0x220b
 805496d:	0f 9c 05 0c 22 00 00 	setl   0x220c
 8054974:	0f 9d 05 0d 22 00 00 	setge  0x220d
 805497b:	0f 9e 05 0e 22 00 00 	setle  0x220e
 8054982:	0f 9f 05 0f 22 00 00 	setg   0x220f
 8054989:	66 9c                	pushfw 
 805498b:	66 58                	pop    %ax
 805498d:	66 a3 00 21 00 00    	mov    %ax,0x2100
 8054993:	a1 50 20 00 00       	mov    0x2050,%eax
 8054998:	29 e0                	sub    %esp,%eax
 805499a:	a3 20 20 00 00       	mov    %eax,0x2020
 805499f:	b8 00 00 00 00       	mov    $0x0,%eax
 80549a4:	c3                   	ret    

080549a5 <cmov_l_with_code_b_mv_constant_simple>:
 80549a5:	90                   	nop
 80549a6:	66 6a 00             	pushw  $0x0
 80549a9:	66 9d                	popfw  
 80549ab:	b8 02 00 00 00       	mov    $0x2,%eax
 80549b0:	bb 03 00 00 00       	mov    $0x3,%ebx
 80549b5:	b9 04 00 00 00       	mov    $0x4,%ecx
 80549ba:	ba 05 00 00 00       	mov    $0x5,%edx
 80549bf:	bd 06 00 00 00       	mov    $0x6,%ebp
 80549c4:	be 07 00 00 00       	mov    $0x7,%esi
 80549c9:	bf 08 00 00 00       	mov    $0x8,%edi
 80549ce:	89 25 50 20 00 00    	mov    %esp,0x2050
 80549d4:	3c 02                	cmp    $0x2,%al
 80549d6:	0f 4b d8             	cmovnp %eax,%ebx
 80549d9:	a3 00 20 00 00       	mov    %eax,0x2000
 80549de:	89 1d 04 20 00 00    	mov    %ebx,0x2004
 80549e4:	89 0d 08 20 00 00    	mov    %ecx,0x2008
 80549ea:	89 15 0c 20 00 00    	mov    %edx,0x200c
 80549f0:	89 2d 10 20 00 00    	mov    %ebp,0x2010
 80549f6:	89 35 14 20 00 00    	mov    %esi,0x2014
 80549fc:	89 3d 18 20 00 00    	mov    %edi,0x2018
 8054a02:	0f 90 05 00 22 00 00 	seto   0x2200
 8054a09:	0f 91 05 01 22 00 00 	setno  0x2201
 8054a10:	0f 92 05 02 22 00 00 	setb   0x2202
 8054a17:	0f 93 05 03 22 00 00 	setae  0x2203
 8054a1e:	0f 94 05 04 22 00 00 	sete   0x2204
 8054a25:	0f 95 05 05 22 00 00 	setne  0x2205
 8054a2c:	0f 96 05 06 22 00 00 	setbe  0x2206
 8054a33:	0f 97 05 07 22 00 00 	seta   0x2207
 8054a3a:	0f 98 05 08 22 00 00 	sets   0x2208
 8054a41:	0f 99 05 09 22 00 00 	setns  0x2209
 8054a48:	0f 9a 05 0a 22 00 00 	setp   0x220a
 8054a4f:	0f 9b 05 0b 22 00 00 	setnp  0x220b
 8054a56:	0f 9c 05 0c 22 00 00 	setl   0x220c
 8054a5d:	0f 9d 05 0d 22 00 00 	setge  0x220d
 8054a64:	0f 9e 05 0e 22 00 00 	setle  0x220e
 8054a6b:	0f 9f 05 0f 22 00 00 	setg   0x220f
 8054a72:	66 9c                	pushfw 
 8054a74:	66 58                	pop    %ax
 8054a76:	66 a3 00 21 00 00    	mov    %ax,0x2100
 8054a7c:	a1 50 20 00 00       	mov    0x2050,%eax
 8054a81:	29 e0                	sub    %esp,%eax
 8054a83:	a3 20 20 00 00       	mov    %eax,0x2020
 8054a88:	b8 00 00 00 00       	mov    $0x0,%eax
 8054a8d:	c3                   	ret    

08054a8e <cmov_l_with_code_b_mv_constant_complex1>:
 8054a8e:	90                   	nop
 8054a8f:	66 6a 00             	pushw  $0x0
 8054a92:	66 9d                	popfw  
 8054a94:	b8 84 79 b1 a3       	mov    $0xa3b17984,%eax
 8054a99:	bb d7 1a 67 06       	mov    $0x6671ad7,%ebx
 8054a9e:	b9 48 52 68 46       	mov    $0x46685248,%ecx
 8054aa3:	ba c4 56 24 39       	mov    $0x392456c4,%edx
 8054aa8:	bd a4 60 89 bc       	mov    $0xbc8960a4,%ebp
 8054aad:	be 78 2d 3c ad       	mov    $0xad3c2d78,%esi
 8054ab2:	bf 52 e1 65 e4       	mov    $0xe465e152,%edi
 8054ab7:	89 25 50 20 00 00    	mov    %esp,0x2050
 8054abd:	3c 02                	cmp    $0x2,%al
 8054abf:	0f 4b d8             	cmovnp %eax,%ebx
 8054ac2:	a3 00 20 00 00       	mov    %eax,0x2000
 8054ac7:	89 1d 04 20 00 00    	mov    %ebx,0x2004
 8054acd:	89 0d 08 20 00 00    	mov    %ecx,0x2008
 8054ad3:	89 15 0c 20 00 00    	mov    %edx,0x200c
 8054ad9:	89 2d 10 20 00 00    	mov    %ebp,0x2010
 8054adf:	89 35 14 20 00 00    	mov    %esi,0x2014
 8054ae5:	89 3d 18 20 00 00    	mov    %edi,0x2018
 8054aeb:	0f 90 05 00 22 00 00 	seto   0x2200
 8054af2:	0f 91 05 01 22 00 00 	setno  0x2201
 8054af9:	0f 92 05 02 22 00 00 	setb   0x2202
 8054b00:	0f 93 05 03 22 00 00 	setae  0x2203
 8054b07:	0f 94 05 04 22 00 00 	sete   0x2204
 8054b0e:	0f 95 05 05 22 00 00 	setne  0x2205
 8054b15:	0f 96 05 06 22 00 00 	setbe  0x2206
 8054b1c:	0f 97 05 07 22 00 00 	seta   0x2207
 8054b23:	0f 98 05 08 22 00 00 	sets   0x2208
 8054b2a:	0f 99 05 09 22 00 00 	setns  0x2209
 8054b31:	0f 9a 05 0a 22 00 00 	setp   0x220a
 8054b38:	0f 9b 05 0b 22 00 00 	setnp  0x220b
 8054b3f:	0f 9c 05 0c 22 00 00 	setl   0x220c
 8054b46:	0f 9d 05 0d 22 00 00 	setge  0x220d
 8054b4d:	0f 9e 05 0e 22 00 00 	setle  0x220e
 8054b54:	0f 9f 05 0f 22 00 00 	setg   0x220f
 8054b5b:	66 9c                	pushfw 
 8054b5d:	66 58                	pop    %ax
 8054b5f:	66 a3 00 21 00 00    	mov    %ax,0x2100
 8054b65:	a1 50 20 00 00       	mov    0x2050,%eax
 8054b6a:	29 e0                	sub    %esp,%eax
 8054b6c:	a3 20 20 00 00       	mov    %eax,0x2020
 8054b71:	b8 00 00 00 00       	mov    $0x0,%eax
 8054b76:	c3                   	ret    

08054b77 <cmov_l_with_code_b_mv_constant_complex2>:
 8054b77:	90                   	nop
 8054b78:	66 68 ff fe          	pushw  $0xfeff
 8054b7c:	66 9d                	popfw  
 8054b7e:	b8 e8 c0 3e 31       	mov    $0x313ec0e8,%eax
 8054b83:	bb c3 81 6e 49       	mov    $0x496e81c3,%ebx
 8054b88:	b9 b2 6c 3f 1e       	mov    $0x1e3f6cb2,%ecx
 8054b8d:	ba b3 25 69 4e       	mov    $0x4e6925b3,%edx
 8054b92:	bd 10 26 31 4f       	mov    $0x4f312610,%ebp
 8054b97:	be a5 a4 37 2f       	mov    $0x2f37a4a5,%esi
 8054b9c:	bf b4 17 a9 91       	mov    $0x91a917b4,%edi
 8054ba1:	89 25 50 20 00 00    	mov    %esp,0x2050
 8054ba7:	3c 02                	cmp    $0x2,%al
 8054ba9:	0f 4b d8             	cmovnp %eax,%ebx
 8054bac:	a3 00 20 00 00       	mov    %eax,0x2000
 8054bb1:	89 1d 04 20 00 00    	mov    %ebx,0x2004
 8054bb7:	89 0d 08 20 00 00    	mov    %ecx,0x2008
 8054bbd:	89 15 0c 20 00 00    	mov    %edx,0x200c
 8054bc3:	89 2d 10 20 00 00    	mov    %ebp,0x2010
 8054bc9:	89 35 14 20 00 00    	mov    %esi,0x2014
 8054bcf:	89 3d 18 20 00 00    	mov    %edi,0x2018
 8054bd5:	0f 90 05 00 22 00 00 	seto   0x2200
 8054bdc:	0f 91 05 01 22 00 00 	setno  0x2201
 8054be3:	0f 92 05 02 22 00 00 	setb   0x2202
 8054bea:	0f 93 05 03 22 00 00 	setae  0x2203
 8054bf1:	0f 94 05 04 22 00 00 	sete   0x2204
 8054bf8:	0f 95 05 05 22 00 00 	setne  0x2205
 8054bff:	0f 96 05 06 22 00 00 	setbe  0x2206
 8054c06:	0f 97 05 07 22 00 00 	seta   0x2207
 8054c0d:	0f 98 05 08 22 00 00 	sets   0x2208
 8054c14:	0f 99 05 09 22 00 00 	setns  0x2209
 8054c1b:	0f 9a 05 0a 22 00 00 	setp   0x220a
 8054c22:	0f 9b 05 0b 22 00 00 	setnp  0x220b
 8054c29:	0f 9c 05 0c 22 00 00 	setl   0x220c
 8054c30:	0f 9d 05 0d 22 00 00 	setge  0x220d
 8054c37:	0f 9e 05 0e 22 00 00 	setle  0x220e
 8054c3e:	0f 9f 05 0f 22 00 00 	setg   0x220f
 8054c45:	66 9c                	pushfw 
 8054c47:	66 58                	pop    %ax
 8054c49:	66 a3 00 21 00 00    	mov    %ax,0x2100
 8054c4f:	a1 50 20 00 00       	mov    0x2050,%eax
 8054c54:	29 e0                	sub    %esp,%eax
 8054c56:	a3 20 20 00 00       	mov    %eax,0x2020
 8054c5b:	b8 00 00 00 00       	mov    $0x0,%eax
 8054c60:	c3                   	ret    

08054c61 <cmov_l_with_code_c_mv_plain>:
 8054c61:	3c 02                	cmp    $0x2,%al
 8054c63:	0f 4c d8             	cmovl  %eax,%ebx
 8054c66:	b8 00 00 00 00       	mov    $0x0,%eax
 8054c6b:	c3                   	ret    

08054c6c <cmov_l_with_code_c_mv_allregs>:
 8054c6c:	90                   	nop
 8054c6d:	66 a1 00 11 00 00    	mov    0x1100,%ax
 8054c73:	66 50                	push   %ax
 8054c75:	66 9d                	popfw  
 8054c77:	a1 00 10 00 00       	mov    0x1000,%eax
 8054c7c:	8b 1d 04 10 00 00    	mov    0x1004,%ebx
 8054c82:	8b 0d 08 10 00 00    	mov    0x1008,%ecx
 8054c88:	8b 15 0c 10 00 00    	mov    0x100c,%edx
 8054c8e:	8b 2d 10 10 00 00    	mov    0x1010,%ebp
 8054c94:	8b 35 14 10 00 00    	mov    0x1014,%esi
 8054c9a:	8b 3d 18 10 00 00    	mov    0x1018,%edi
 8054ca0:	89 25 50 20 00 00    	mov    %esp,0x2050
 8054ca6:	3c 02                	cmp    $0x2,%al
 8054ca8:	0f 4c d8             	cmovl  %eax,%ebx
 8054cab:	a3 00 20 00 00       	mov    %eax,0x2000
 8054cb0:	89 1d 04 20 00 00    	mov    %ebx,0x2004
 8054cb6:	89 0d 08 20 00 00    	mov    %ecx,0x2008
 8054cbc:	89 15 0c 20 00 00    	mov    %edx,0x200c
 8054cc2:	89 2d 10 20 00 00    	mov    %ebp,0x2010
 8054cc8:	89 35 14 20 00 00    	mov    %esi,0x2014
 8054cce:	89 3d 18 20 00 00    	mov    %edi,0x2018
 8054cd4:	0f 90 05 00 22 00 00 	seto   0x2200
 8054cdb:	0f 91 05 01 22 00 00 	setno  0x2201
 8054ce2:	0f 92 05 02 22 00 00 	setb   0x2202
 8054ce9:	0f 93 05 03 22 00 00 	setae  0x2203
 8054cf0:	0f 94 05 04 22 00 00 	sete   0x2204
 8054cf7:	0f 95 05 05 22 00 00 	setne  0x2205
 8054cfe:	0f 96 05 06 22 00 00 	setbe  0x2206
 8054d05:	0f 97 05 07 22 00 00 	seta   0x2207
 8054d0c:	0f 98 05 08 22 00 00 	sets   0x2208
 8054d13:	0f 99 05 09 22 00 00 	setns  0x2209
 8054d1a:	0f 9a 05 0a 22 00 00 	setp   0x220a
 8054d21:	0f 9b 05 0b 22 00 00 	setnp  0x220b
 8054d28:	0f 9c 05 0c 22 00 00 	setl   0x220c
 8054d2f:	0f 9d 05 0d 22 00 00 	setge  0x220d
 8054d36:	0f 9e 05 0e 22 00 00 	setle  0x220e
 8054d3d:	0f 9f 05 0f 22 00 00 	setg   0x220f
 8054d44:	66 9c                	pushfw 
 8054d46:	66 58                	pop    %ax
 8054d48:	66 a3 00 21 00 00    	mov    %ax,0x2100
 8054d4e:	a1 50 20 00 00       	mov    0x2050,%eax
 8054d53:	29 e0                	sub    %esp,%eax
 8054d55:	a3 20 20 00 00       	mov    %eax,0x2020
 8054d5a:	b8 00 00 00 00       	mov    $0x0,%eax
 8054d5f:	c3                   	ret    

08054d60 <cmov_l_with_code_c_mv_constant_simple>:
 8054d60:	90                   	nop
 8054d61:	66 6a 00             	pushw  $0x0
 8054d64:	66 9d                	popfw  
 8054d66:	b8 02 00 00 00       	mov    $0x2,%eax
 8054d6b:	bb 03 00 00 00       	mov    $0x3,%ebx
 8054d70:	b9 04 00 00 00       	mov    $0x4,%ecx
 8054d75:	ba 05 00 00 00       	mov    $0x5,%edx
 8054d7a:	bd 06 00 00 00       	mov    $0x6,%ebp
 8054d7f:	be 07 00 00 00       	mov    $0x7,%esi
 8054d84:	bf 08 00 00 00       	mov    $0x8,%edi
 8054d89:	89 25 50 20 00 00    	mov    %esp,0x2050
 8054d8f:	3c 02                	cmp    $0x2,%al
 8054d91:	0f 4c d8             	cmovl  %eax,%ebx
 8054d94:	a3 00 20 00 00       	mov    %eax,0x2000
 8054d99:	89 1d 04 20 00 00    	mov    %ebx,0x2004
 8054d9f:	89 0d 08 20 00 00    	mov    %ecx,0x2008
 8054da5:	89 15 0c 20 00 00    	mov    %edx,0x200c
 8054dab:	89 2d 10 20 00 00    	mov    %ebp,0x2010
 8054db1:	89 35 14 20 00 00    	mov    %esi,0x2014
 8054db7:	89 3d 18 20 00 00    	mov    %edi,0x2018
 8054dbd:	0f 90 05 00 22 00 00 	seto   0x2200
 8054dc4:	0f 91 05 01 22 00 00 	setno  0x2201
 8054dcb:	0f 92 05 02 22 00 00 	setb   0x2202
 8054dd2:	0f 93 05 03 22 00 00 	setae  0x2203
 8054dd9:	0f 94 05 04 22 00 00 	sete   0x2204
 8054de0:	0f 95 05 05 22 00 00 	setne  0x2205
 8054de7:	0f 96 05 06 22 00 00 	setbe  0x2206
 8054dee:	0f 97 05 07 22 00 00 	seta   0x2207
 8054df5:	0f 98 05 08 22 00 00 	sets   0x2208
 8054dfc:	0f 99 05 09 22 00 00 	setns  0x2209
 8054e03:	0f 9a 05 0a 22 00 00 	setp   0x220a
 8054e0a:	0f 9b 05 0b 22 00 00 	setnp  0x220b
 8054e11:	0f 9c 05 0c 22 00 00 	setl   0x220c
 8054e18:	0f 9d 05 0d 22 00 00 	setge  0x220d
 8054e1f:	0f 9e 05 0e 22 00 00 	setle  0x220e
 8054e26:	0f 9f 05 0f 22 00 00 	setg   0x220f
 8054e2d:	66 9c                	pushfw 
 8054e2f:	66 58                	pop    %ax
 8054e31:	66 a3 00 21 00 00    	mov    %ax,0x2100
 8054e37:	a1 50 20 00 00       	mov    0x2050,%eax
 8054e3c:	29 e0                	sub    %esp,%eax
 8054e3e:	a3 20 20 00 00       	mov    %eax,0x2020
 8054e43:	b8 00 00 00 00       	mov    $0x0,%eax
 8054e48:	c3                   	ret    

08054e49 <cmov_l_with_code_c_mv_constant_complex1>:
 8054e49:	90                   	nop
 8054e4a:	66 6a 00             	pushw  $0x0
 8054e4d:	66 9d                	popfw  
 8054e4f:	b8 84 79 b1 a3       	mov    $0xa3b17984,%eax
 8054e54:	bb d7 1a 67 06       	mov    $0x6671ad7,%ebx
 8054e59:	b9 48 52 68 46       	mov    $0x46685248,%ecx
 8054e5e:	ba c4 56 24 39       	mov    $0x392456c4,%edx
 8054e63:	bd a4 60 89 bc       	mov    $0xbc8960a4,%ebp
 8054e68:	be 78 2d 3c ad       	mov    $0xad3c2d78,%esi
 8054e6d:	bf 52 e1 65 e4       	mov    $0xe465e152,%edi
 8054e72:	89 25 50 20 00 00    	mov    %esp,0x2050
 8054e78:	3c 02                	cmp    $0x2,%al
 8054e7a:	0f 4c d8             	cmovl  %eax,%ebx
 8054e7d:	a3 00 20 00 00       	mov    %eax,0x2000
 8054e82:	89 1d 04 20 00 00    	mov    %ebx,0x2004
 8054e88:	89 0d 08 20 00 00    	mov    %ecx,0x2008
 8054e8e:	89 15 0c 20 00 00    	mov    %edx,0x200c
 8054e94:	89 2d 10 20 00 00    	mov    %ebp,0x2010
 8054e9a:	89 35 14 20 00 00    	mov    %esi,0x2014
 8054ea0:	89 3d 18 20 00 00    	mov    %edi,0x2018
 8054ea6:	0f 90 05 00 22 00 00 	seto   0x2200
 8054ead:	0f 91 05 01 22 00 00 	setno  0x2201
 8054eb4:	0f 92 05 02 22 00 00 	setb   0x2202
 8054ebb:	0f 93 05 03 22 00 00 	setae  0x2203
 8054ec2:	0f 94 05 04 22 00 00 	sete   0x2204
 8054ec9:	0f 95 05 05 22 00 00 	setne  0x2205
 8054ed0:	0f 96 05 06 22 00 00 	setbe  0x2206
 8054ed7:	0f 97 05 07 22 00 00 	seta   0x2207
 8054ede:	0f 98 05 08 22 00 00 	sets   0x2208
 8054ee5:	0f 99 05 09 22 00 00 	setns  0x2209
 8054eec:	0f 9a 05 0a 22 00 00 	setp   0x220a
 8054ef3:	0f 9b 05 0b 22 00 00 	setnp  0x220b
 8054efa:	0f 9c 05 0c 22 00 00 	setl   0x220c
 8054f01:	0f 9d 05 0d 22 00 00 	setge  0x220d
 8054f08:	0f 9e 05 0e 22 00 00 	setle  0x220e
 8054f0f:	0f 9f 05 0f 22 00 00 	setg   0x220f
 8054f16:	66 9c                	pushfw 
 8054f18:	66 58                	pop    %ax
 8054f1a:	66 a3 00 21 00 00    	mov    %ax,0x2100
 8054f20:	a1 50 20 00 00       	mov    0x2050,%eax
 8054f25:	29 e0                	sub    %esp,%eax
 8054f27:	a3 20 20 00 00       	mov    %eax,0x2020
 8054f2c:	b8 00 00 00 00       	mov    $0x0,%eax
 8054f31:	c3                   	ret    

08054f32 <cmov_l_with_code_c_mv_constant_complex2>:
 8054f32:	90                   	nop
 8054f33:	66 68 ff fe          	pushw  $0xfeff
 8054f37:	66 9d                	popfw  
 8054f39:	b8 e8 c0 3e 31       	mov    $0x313ec0e8,%eax
 8054f3e:	bb c3 81 6e 49       	mov    $0x496e81c3,%ebx
 8054f43:	b9 b2 6c 3f 1e       	mov    $0x1e3f6cb2,%ecx
 8054f48:	ba b3 25 69 4e       	mov    $0x4e6925b3,%edx
 8054f4d:	bd 10 26 31 4f       	mov    $0x4f312610,%ebp
 8054f52:	be a5 a4 37 2f       	mov    $0x2f37a4a5,%esi
 8054f57:	bf b4 17 a9 91       	mov    $0x91a917b4,%edi
 8054f5c:	89 25 50 20 00 00    	mov    %esp,0x2050
 8054f62:	3c 02                	cmp    $0x2,%al
 8054f64:	0f 4c d8             	cmovl  %eax,%ebx
 8054f67:	a3 00 20 00 00       	mov    %eax,0x2000
 8054f6c:	89 1d 04 20 00 00    	mov    %ebx,0x2004
 8054f72:	89 0d 08 20 00 00    	mov    %ecx,0x2008
 8054f78:	89 15 0c 20 00 00    	mov    %edx,0x200c
 8054f7e:	89 2d 10 20 00 00    	mov    %ebp,0x2010
 8054f84:	89 35 14 20 00 00    	mov    %esi,0x2014
 8054f8a:	89 3d 18 20 00 00    	mov    %edi,0x2018
 8054f90:	0f 90 05 00 22 00 00 	seto   0x2200
 8054f97:	0f 91 05 01 22 00 00 	setno  0x2201
 8054f9e:	0f 92 05 02 22 00 00 	setb   0x2202
 8054fa5:	0f 93 05 03 22 00 00 	setae  0x2203
 8054fac:	0f 94 05 04 22 00 00 	sete   0x2204
 8054fb3:	0f 95 05 05 22 00 00 	setne  0x2205
 8054fba:	0f 96 05 06 22 00 00 	setbe  0x2206
 8054fc1:	0f 97 05 07 22 00 00 	seta   0x2207
 8054fc8:	0f 98 05 08 22 00 00 	sets   0x2208
 8054fcf:	0f 99 05 09 22 00 00 	setns  0x2209
 8054fd6:	0f 9a 05 0a 22 00 00 	setp   0x220a
 8054fdd:	0f 9b 05 0b 22 00 00 	setnp  0x220b
 8054fe4:	0f 9c 05 0c 22 00 00 	setl   0x220c
 8054feb:	0f 9d 05 0d 22 00 00 	setge  0x220d
 8054ff2:	0f 9e 05 0e 22 00 00 	setle  0x220e
 8054ff9:	0f 9f 05 0f 22 00 00 	setg   0x220f
 8055000:	66 9c                	pushfw 
 8055002:	66 58                	pop    %ax
 8055004:	66 a3 00 21 00 00    	mov    %ax,0x2100
 805500a:	a1 50 20 00 00       	mov    0x2050,%eax
 805500f:	29 e0                	sub    %esp,%eax
 8055011:	a3 20 20 00 00       	mov    %eax,0x2020
 8055016:	b8 00 00 00 00       	mov    $0x0,%eax
 805501b:	c3                   	ret    

0805501c <cmov_l_with_code_d_mv_plain>:
 805501c:	3c 02                	cmp    $0x2,%al
 805501e:	0f 4d d8             	cmovge %eax,%ebx
 8055021:	b8 00 00 00 00       	mov    $0x0,%eax
 8055026:	c3                   	ret    

08055027 <cmov_l_with_code_d_mv_allregs>:
 8055027:	90                   	nop
 8055028:	66 a1 00 11 00 00    	mov    0x1100,%ax
 805502e:	66 50                	push   %ax
 8055030:	66 9d                	popfw  
 8055032:	a1 00 10 00 00       	mov    0x1000,%eax
 8055037:	8b 1d 04 10 00 00    	mov    0x1004,%ebx
 805503d:	8b 0d 08 10 00 00    	mov    0x1008,%ecx
 8055043:	8b 15 0c 10 00 00    	mov    0x100c,%edx
 8055049:	8b 2d 10 10 00 00    	mov    0x1010,%ebp
 805504f:	8b 35 14 10 00 00    	mov    0x1014,%esi
 8055055:	8b 3d 18 10 00 00    	mov    0x1018,%edi
 805505b:	89 25 50 20 00 00    	mov    %esp,0x2050
 8055061:	3c 02                	cmp    $0x2,%al
 8055063:	0f 4d d8             	cmovge %eax,%ebx
 8055066:	a3 00 20 00 00       	mov    %eax,0x2000
 805506b:	89 1d 04 20 00 00    	mov    %ebx,0x2004
 8055071:	89 0d 08 20 00 00    	mov    %ecx,0x2008
 8055077:	89 15 0c 20 00 00    	mov    %edx,0x200c
 805507d:	89 2d 10 20 00 00    	mov    %ebp,0x2010
 8055083:	89 35 14 20 00 00    	mov    %esi,0x2014
 8055089:	89 3d 18 20 00 00    	mov    %edi,0x2018
 805508f:	0f 90 05 00 22 00 00 	seto   0x2200
 8055096:	0f 91 05 01 22 00 00 	setno  0x2201
 805509d:	0f 92 05 02 22 00 00 	setb   0x2202
 80550a4:	0f 93 05 03 22 00 00 	setae  0x2203
 80550ab:	0f 94 05 04 22 00 00 	sete   0x2204
 80550b2:	0f 95 05 05 22 00 00 	setne  0x2205
 80550b9:	0f 96 05 06 22 00 00 	setbe  0x2206
 80550c0:	0f 97 05 07 22 00 00 	seta   0x2207
 80550c7:	0f 98 05 08 22 00 00 	sets   0x2208
 80550ce:	0f 99 05 09 22 00 00 	setns  0x2209
 80550d5:	0f 9a 05 0a 22 00 00 	setp   0x220a
 80550dc:	0f 9b 05 0b 22 00 00 	setnp  0x220b
 80550e3:	0f 9c 05 0c 22 00 00 	setl   0x220c
 80550ea:	0f 9d 05 0d 22 00 00 	setge  0x220d
 80550f1:	0f 9e 05 0e 22 00 00 	setle  0x220e
 80550f8:	0f 9f 05 0f 22 00 00 	setg   0x220f
 80550ff:	66 9c                	pushfw 
 8055101:	66 58                	pop    %ax
 8055103:	66 a3 00 21 00 00    	mov    %ax,0x2100
 8055109:	a1 50 20 00 00       	mov    0x2050,%eax
 805510e:	29 e0                	sub    %esp,%eax
 8055110:	a3 20 20 00 00       	mov    %eax,0x2020
 8055115:	b8 00 00 00 00       	mov    $0x0,%eax
 805511a:	c3                   	ret    

0805511b <cmov_l_with_code_d_mv_constant_simple>:
 805511b:	90                   	nop
 805511c:	66 6a 00             	pushw  $0x0
 805511f:	66 9d                	popfw  
 8055121:	b8 02 00 00 00       	mov    $0x2,%eax
 8055126:	bb 03 00 00 00       	mov    $0x3,%ebx
 805512b:	b9 04 00 00 00       	mov    $0x4,%ecx
 8055130:	ba 05 00 00 00       	mov    $0x5,%edx
 8055135:	bd 06 00 00 00       	mov    $0x6,%ebp
 805513a:	be 07 00 00 00       	mov    $0x7,%esi
 805513f:	bf 08 00 00 00       	mov    $0x8,%edi
 8055144:	89 25 50 20 00 00    	mov    %esp,0x2050
 805514a:	3c 02                	cmp    $0x2,%al
 805514c:	0f 4d d8             	cmovge %eax,%ebx
 805514f:	a3 00 20 00 00       	mov    %eax,0x2000
 8055154:	89 1d 04 20 00 00    	mov    %ebx,0x2004
 805515a:	89 0d 08 20 00 00    	mov    %ecx,0x2008
 8055160:	89 15 0c 20 00 00    	mov    %edx,0x200c
 8055166:	89 2d 10 20 00 00    	mov    %ebp,0x2010
 805516c:	89 35 14 20 00 00    	mov    %esi,0x2014
 8055172:	89 3d 18 20 00 00    	mov    %edi,0x2018
 8055178:	0f 90 05 00 22 00 00 	seto   0x2200
 805517f:	0f 91 05 01 22 00 00 	setno  0x2201
 8055186:	0f 92 05 02 22 00 00 	setb   0x2202
 805518d:	0f 93 05 03 22 00 00 	setae  0x2203
 8055194:	0f 94 05 04 22 00 00 	sete   0x2204
 805519b:	0f 95 05 05 22 00 00 	setne  0x2205
 80551a2:	0f 96 05 06 22 00 00 	setbe  0x2206
 80551a9:	0f 97 05 07 22 00 00 	seta   0x2207
 80551b0:	0f 98 05 08 22 00 00 	sets   0x2208
 80551b7:	0f 99 05 09 22 00 00 	setns  0x2209
 80551be:	0f 9a 05 0a 22 00 00 	setp   0x220a
 80551c5:	0f 9b 05 0b 22 00 00 	setnp  0x220b
 80551cc:	0f 9c 05 0c 22 00 00 	setl   0x220c
 80551d3:	0f 9d 05 0d 22 00 00 	setge  0x220d
 80551da:	0f 9e 05 0e 22 00 00 	setle  0x220e
 80551e1:	0f 9f 05 0f 22 00 00 	setg   0x220f
 80551e8:	66 9c                	pushfw 
 80551ea:	66 58                	pop    %ax
 80551ec:	66 a3 00 21 00 00    	mov    %ax,0x2100
 80551f2:	a1 50 20 00 00       	mov    0x2050,%eax
 80551f7:	29 e0                	sub    %esp,%eax
 80551f9:	a3 20 20 00 00       	mov    %eax,0x2020
 80551fe:	b8 00 00 00 00       	mov    $0x0,%eax
 8055203:	c3                   	ret    

08055204 <cmov_l_with_code_d_mv_constant_complex1>:
 8055204:	90                   	nop
 8055205:	66 6a 00             	pushw  $0x0
 8055208:	66 9d                	popfw  
 805520a:	b8 84 79 b1 a3       	mov    $0xa3b17984,%eax
 805520f:	bb d7 1a 67 06       	mov    $0x6671ad7,%ebx
 8055214:	b9 48 52 68 46       	mov    $0x46685248,%ecx
 8055219:	ba c4 56 24 39       	mov    $0x392456c4,%edx
 805521e:	bd a4 60 89 bc       	mov    $0xbc8960a4,%ebp
 8055223:	be 78 2d 3c ad       	mov    $0xad3c2d78,%esi
 8055228:	bf 52 e1 65 e4       	mov    $0xe465e152,%edi
 805522d:	89 25 50 20 00 00    	mov    %esp,0x2050
 8055233:	3c 02                	cmp    $0x2,%al
 8055235:	0f 4d d8             	cmovge %eax,%ebx
 8055238:	a3 00 20 00 00       	mov    %eax,0x2000
 805523d:	89 1d 04 20 00 00    	mov    %ebx,0x2004
 8055243:	89 0d 08 20 00 00    	mov    %ecx,0x2008
 8055249:	89 15 0c 20 00 00    	mov    %edx,0x200c
 805524f:	89 2d 10 20 00 00    	mov    %ebp,0x2010
 8055255:	89 35 14 20 00 00    	mov    %esi,0x2014
 805525b:	89 3d 18 20 00 00    	mov    %edi,0x2018
 8055261:	0f 90 05 00 22 00 00 	seto   0x2200
 8055268:	0f 91 05 01 22 00 00 	setno  0x2201
 805526f:	0f 92 05 02 22 00 00 	setb   0x2202
 8055276:	0f 93 05 03 22 00 00 	setae  0x2203
 805527d:	0f 94 05 04 22 00 00 	sete   0x2204
 8055284:	0f 95 05 05 22 00 00 	setne  0x2205
 805528b:	0f 96 05 06 22 00 00 	setbe  0x2206
 8055292:	0f 97 05 07 22 00 00 	seta   0x2207
 8055299:	0f 98 05 08 22 00 00 	sets   0x2208
 80552a0:	0f 99 05 09 22 00 00 	setns  0x2209
 80552a7:	0f 9a 05 0a 22 00 00 	setp   0x220a
 80552ae:	0f 9b 05 0b 22 00 00 	setnp  0x220b
 80552b5:	0f 9c 05 0c 22 00 00 	setl   0x220c
 80552bc:	0f 9d 05 0d 22 00 00 	setge  0x220d
 80552c3:	0f 9e 05 0e 22 00 00 	setle  0x220e
 80552ca:	0f 9f 05 0f 22 00 00 	setg   0x220f
 80552d1:	66 9c                	pushfw 
 80552d3:	66 58                	pop    %ax
 80552d5:	66 a3 00 21 00 00    	mov    %ax,0x2100
 80552db:	a1 50 20 00 00       	mov    0x2050,%eax
 80552e0:	29 e0                	sub    %esp,%eax
 80552e2:	a3 20 20 00 00       	mov    %eax,0x2020
 80552e7:	b8 00 00 00 00       	mov    $0x0,%eax
 80552ec:	c3                   	ret    

080552ed <cmov_l_with_code_d_mv_constant_complex2>:
 80552ed:	90                   	nop
 80552ee:	66 68 ff fe          	pushw  $0xfeff
 80552f2:	66 9d                	popfw  
 80552f4:	b8 e8 c0 3e 31       	mov    $0x313ec0e8,%eax
 80552f9:	bb c3 81 6e 49       	mov    $0x496e81c3,%ebx
 80552fe:	b9 b2 6c 3f 1e       	mov    $0x1e3f6cb2,%ecx
 8055303:	ba b3 25 69 4e       	mov    $0x4e6925b3,%edx
 8055308:	bd 10 26 31 4f       	mov    $0x4f312610,%ebp
 805530d:	be a5 a4 37 2f       	mov    $0x2f37a4a5,%esi
 8055312:	bf b4 17 a9 91       	mov    $0x91a917b4,%edi
 8055317:	89 25 50 20 00 00    	mov    %esp,0x2050
 805531d:	3c 02                	cmp    $0x2,%al
 805531f:	0f 4d d8             	cmovge %eax,%ebx
 8055322:	a3 00 20 00 00       	mov    %eax,0x2000
 8055327:	89 1d 04 20 00 00    	mov    %ebx,0x2004
 805532d:	89 0d 08 20 00 00    	mov    %ecx,0x2008
 8055333:	89 15 0c 20 00 00    	mov    %edx,0x200c
 8055339:	89 2d 10 20 00 00    	mov    %ebp,0x2010
 805533f:	89 35 14 20 00 00    	mov    %esi,0x2014
 8055345:	89 3d 18 20 00 00    	mov    %edi,0x2018
 805534b:	0f 90 05 00 22 00 00 	seto   0x2200
 8055352:	0f 91 05 01 22 00 00 	setno  0x2201
 8055359:	0f 92 05 02 22 00 00 	setb   0x2202
 8055360:	0f 93 05 03 22 00 00 	setae  0x2203
 8055367:	0f 94 05 04 22 00 00 	sete   0x2204
 805536e:	0f 95 05 05 22 00 00 	setne  0x2205
 8055375:	0f 96 05 06 22 00 00 	setbe  0x2206
 805537c:	0f 97 05 07 22 00 00 	seta   0x2207
 8055383:	0f 98 05 08 22 00 00 	sets   0x2208
 805538a:	0f 99 05 09 22 00 00 	setns  0x2209
 8055391:	0f 9a 05 0a 22 00 00 	setp   0x220a
 8055398:	0f 9b 05 0b 22 00 00 	setnp  0x220b
 805539f:	0f 9c 05 0c 22 00 00 	setl   0x220c
 80553a6:	0f 9d 05 0d 22 00 00 	setge  0x220d
 80553ad:	0f 9e 05 0e 22 00 00 	setle  0x220e
 80553b4:	0f 9f 05 0f 22 00 00 	setg   0x220f
 80553bb:	66 9c                	pushfw 
 80553bd:	66 58                	pop    %ax
 80553bf:	66 a3 00 21 00 00    	mov    %ax,0x2100
 80553c5:	a1 50 20 00 00       	mov    0x2050,%eax
 80553ca:	29 e0                	sub    %esp,%eax
 80553cc:	a3 20 20 00 00       	mov    %eax,0x2020
 80553d1:	b8 00 00 00 00       	mov    $0x0,%eax
 80553d6:	c3                   	ret    

080553d7 <cmov_l_with_code_e_mv_plain>:
 80553d7:	3c 02                	cmp    $0x2,%al
 80553d9:	0f 4e d8             	cmovle %eax,%ebx
 80553dc:	b8 00 00 00 00       	mov    $0x0,%eax
 80553e1:	c3                   	ret    

080553e2 <cmov_l_with_code_e_mv_allregs>:
 80553e2:	90                   	nop
 80553e3:	66 a1 00 11 00 00    	mov    0x1100,%ax
 80553e9:	66 50                	push   %ax
 80553eb:	66 9d                	popfw  
 80553ed:	a1 00 10 00 00       	mov    0x1000,%eax
 80553f2:	8b 1d 04 10 00 00    	mov    0x1004,%ebx
 80553f8:	8b 0d 08 10 00 00    	mov    0x1008,%ecx
 80553fe:	8b 15 0c 10 00 00    	mov    0x100c,%edx
 8055404:	8b 2d 10 10 00 00    	mov    0x1010,%ebp
 805540a:	8b 35 14 10 00 00    	mov    0x1014,%esi
 8055410:	8b 3d 18 10 00 00    	mov    0x1018,%edi
 8055416:	89 25 50 20 00 00    	mov    %esp,0x2050
 805541c:	3c 02                	cmp    $0x2,%al
 805541e:	0f 4e d8             	cmovle %eax,%ebx
 8055421:	a3 00 20 00 00       	mov    %eax,0x2000
 8055426:	89 1d 04 20 00 00    	mov    %ebx,0x2004
 805542c:	89 0d 08 20 00 00    	mov    %ecx,0x2008
 8055432:	89 15 0c 20 00 00    	mov    %edx,0x200c
 8055438:	89 2d 10 20 00 00    	mov    %ebp,0x2010
 805543e:	89 35 14 20 00 00    	mov    %esi,0x2014
 8055444:	89 3d 18 20 00 00    	mov    %edi,0x2018
 805544a:	0f 90 05 00 22 00 00 	seto   0x2200
 8055451:	0f 91 05 01 22 00 00 	setno  0x2201
 8055458:	0f 92 05 02 22 00 00 	setb   0x2202
 805545f:	0f 93 05 03 22 00 00 	setae  0x2203
 8055466:	0f 94 05 04 22 00 00 	sete   0x2204
 805546d:	0f 95 05 05 22 00 00 	setne  0x2205
 8055474:	0f 96 05 06 22 00 00 	setbe  0x2206
 805547b:	0f 97 05 07 22 00 00 	seta   0x2207
 8055482:	0f 98 05 08 22 00 00 	sets   0x2208
 8055489:	0f 99 05 09 22 00 00 	setns  0x2209
 8055490:	0f 9a 05 0a 22 00 00 	setp   0x220a
 8055497:	0f 9b 05 0b 22 00 00 	setnp  0x220b
 805549e:	0f 9c 05 0c 22 00 00 	setl   0x220c
 80554a5:	0f 9d 05 0d 22 00 00 	setge  0x220d
 80554ac:	0f 9e 05 0e 22 00 00 	setle  0x220e
 80554b3:	0f 9f 05 0f 22 00 00 	setg   0x220f
 80554ba:	66 9c                	pushfw 
 80554bc:	66 58                	pop    %ax
 80554be:	66 a3 00 21 00 00    	mov    %ax,0x2100
 80554c4:	a1 50 20 00 00       	mov    0x2050,%eax
 80554c9:	29 e0                	sub    %esp,%eax
 80554cb:	a3 20 20 00 00       	mov    %eax,0x2020
 80554d0:	b8 00 00 00 00       	mov    $0x0,%eax
 80554d5:	c3                   	ret    

080554d6 <cmov_l_with_code_e_mv_constant_simple>:
 80554d6:	90                   	nop
 80554d7:	66 6a 00             	pushw  $0x0
 80554da:	66 9d                	popfw  
 80554dc:	b8 02 00 00 00       	mov    $0x2,%eax
 80554e1:	bb 03 00 00 00       	mov    $0x3,%ebx
 80554e6:	b9 04 00 00 00       	mov    $0x4,%ecx
 80554eb:	ba 05 00 00 00       	mov    $0x5,%edx
 80554f0:	bd 06 00 00 00       	mov    $0x6,%ebp
 80554f5:	be 07 00 00 00       	mov    $0x7,%esi
 80554fa:	bf 08 00 00 00       	mov    $0x8,%edi
 80554ff:	89 25 50 20 00 00    	mov    %esp,0x2050
 8055505:	3c 02                	cmp    $0x2,%al
 8055507:	0f 4e d8             	cmovle %eax,%ebx
 805550a:	a3 00 20 00 00       	mov    %eax,0x2000
 805550f:	89 1d 04 20 00 00    	mov    %ebx,0x2004
 8055515:	89 0d 08 20 00 00    	mov    %ecx,0x2008
 805551b:	89 15 0c 20 00 00    	mov    %edx,0x200c
 8055521:	89 2d 10 20 00 00    	mov    %ebp,0x2010
 8055527:	89 35 14 20 00 00    	mov    %esi,0x2014
 805552d:	89 3d 18 20 00 00    	mov    %edi,0x2018
 8055533:	0f 90 05 00 22 00 00 	seto   0x2200
 805553a:	0f 91 05 01 22 00 00 	setno  0x2201
 8055541:	0f 92 05 02 22 00 00 	setb   0x2202
 8055548:	0f 93 05 03 22 00 00 	setae  0x2203
 805554f:	0f 94 05 04 22 00 00 	sete   0x2204
 8055556:	0f 95 05 05 22 00 00 	setne  0x2205
 805555d:	0f 96 05 06 22 00 00 	setbe  0x2206
 8055564:	0f 97 05 07 22 00 00 	seta   0x2207
 805556b:	0f 98 05 08 22 00 00 	sets   0x2208
 8055572:	0f 99 05 09 22 00 00 	setns  0x2209
 8055579:	0f 9a 05 0a 22 00 00 	setp   0x220a
 8055580:	0f 9b 05 0b 22 00 00 	setnp  0x220b
 8055587:	0f 9c 05 0c 22 00 00 	setl   0x220c
 805558e:	0f 9d 05 0d 22 00 00 	setge  0x220d
 8055595:	0f 9e 05 0e 22 00 00 	setle  0x220e
 805559c:	0f 9f 05 0f 22 00 00 	setg   0x220f
 80555a3:	66 9c                	pushfw 
 80555a5:	66 58                	pop    %ax
 80555a7:	66 a3 00 21 00 00    	mov    %ax,0x2100
 80555ad:	a1 50 20 00 00       	mov    0x2050,%eax
 80555b2:	29 e0                	sub    %esp,%eax
 80555b4:	a3 20 20 00 00       	mov    %eax,0x2020
 80555b9:	b8 00 00 00 00       	mov    $0x0,%eax
 80555be:	c3                   	ret    

080555bf <cmov_l_with_code_e_mv_constant_complex1>:
 80555bf:	90                   	nop
 80555c0:	66 6a 00             	pushw  $0x0
 80555c3:	66 9d                	popfw  
 80555c5:	b8 84 79 b1 a3       	mov    $0xa3b17984,%eax
 80555ca:	bb d7 1a 67 06       	mov    $0x6671ad7,%ebx
 80555cf:	b9 48 52 68 46       	mov    $0x46685248,%ecx
 80555d4:	ba c4 56 24 39       	mov    $0x392456c4,%edx
 80555d9:	bd a4 60 89 bc       	mov    $0xbc8960a4,%ebp
 80555de:	be 78 2d 3c ad       	mov    $0xad3c2d78,%esi
 80555e3:	bf 52 e1 65 e4       	mov    $0xe465e152,%edi
 80555e8:	89 25 50 20 00 00    	mov    %esp,0x2050
 80555ee:	3c 02                	cmp    $0x2,%al
 80555f0:	0f 4e d8             	cmovle %eax,%ebx
 80555f3:	a3 00 20 00 00       	mov    %eax,0x2000
 80555f8:	89 1d 04 20 00 00    	mov    %ebx,0x2004
 80555fe:	89 0d 08 20 00 00    	mov    %ecx,0x2008
 8055604:	89 15 0c 20 00 00    	mov    %edx,0x200c
 805560a:	89 2d 10 20 00 00    	mov    %ebp,0x2010
 8055610:	89 35 14 20 00 00    	mov    %esi,0x2014
 8055616:	89 3d 18 20 00 00    	mov    %edi,0x2018
 805561c:	0f 90 05 00 22 00 00 	seto   0x2200
 8055623:	0f 91 05 01 22 00 00 	setno  0x2201
 805562a:	0f 92 05 02 22 00 00 	setb   0x2202
 8055631:	0f 93 05 03 22 00 00 	setae  0x2203
 8055638:	0f 94 05 04 22 00 00 	sete   0x2204
 805563f:	0f 95 05 05 22 00 00 	setne  0x2205
 8055646:	0f 96 05 06 22 00 00 	setbe  0x2206
 805564d:	0f 97 05 07 22 00 00 	seta   0x2207
 8055654:	0f 98 05 08 22 00 00 	sets   0x2208
 805565b:	0f 99 05 09 22 00 00 	setns  0x2209
 8055662:	0f 9a 05 0a 22 00 00 	setp   0x220a
 8055669:	0f 9b 05 0b 22 00 00 	setnp  0x220b
 8055670:	0f 9c 05 0c 22 00 00 	setl   0x220c
 8055677:	0f 9d 05 0d 22 00 00 	setge  0x220d
 805567e:	0f 9e 05 0e 22 00 00 	setle  0x220e
 8055685:	0f 9f 05 0f 22 00 00 	setg   0x220f
 805568c:	66 9c                	pushfw 
 805568e:	66 58                	pop    %ax
 8055690:	66 a3 00 21 00 00    	mov    %ax,0x2100
 8055696:	a1 50 20 00 00       	mov    0x2050,%eax
 805569b:	29 e0                	sub    %esp,%eax
 805569d:	a3 20 20 00 00       	mov    %eax,0x2020
 80556a2:	b8 00 00 00 00       	mov    $0x0,%eax
 80556a7:	c3                   	ret    

080556a8 <cmov_l_with_code_e_mv_constant_complex2>:
 80556a8:	90                   	nop
 80556a9:	66 68 ff fe          	pushw  $0xfeff
 80556ad:	66 9d                	popfw  
 80556af:	b8 e8 c0 3e 31       	mov    $0x313ec0e8,%eax
 80556b4:	bb c3 81 6e 49       	mov    $0x496e81c3,%ebx
 80556b9:	b9 b2 6c 3f 1e       	mov    $0x1e3f6cb2,%ecx
 80556be:	ba b3 25 69 4e       	mov    $0x4e6925b3,%edx
 80556c3:	bd 10 26 31 4f       	mov    $0x4f312610,%ebp
 80556c8:	be a5 a4 37 2f       	mov    $0x2f37a4a5,%esi
 80556cd:	bf b4 17 a9 91       	mov    $0x91a917b4,%edi
 80556d2:	89 25 50 20 00 00    	mov    %esp,0x2050
 80556d8:	3c 02                	cmp    $0x2,%al
 80556da:	0f 4e d8             	cmovle %eax,%ebx
 80556dd:	a3 00 20 00 00       	mov    %eax,0x2000
 80556e2:	89 1d 04 20 00 00    	mov    %ebx,0x2004
 80556e8:	89 0d 08 20 00 00    	mov    %ecx,0x2008
 80556ee:	89 15 0c 20 00 00    	mov    %edx,0x200c
 80556f4:	89 2d 10 20 00 00    	mov    %ebp,0x2010
 80556fa:	89 35 14 20 00 00    	mov    %esi,0x2014
 8055700:	89 3d 18 20 00 00    	mov    %edi,0x2018
 8055706:	0f 90 05 00 22 00 00 	seto   0x2200
 805570d:	0f 91 05 01 22 00 00 	setno  0x2201
 8055714:	0f 92 05 02 22 00 00 	setb   0x2202
 805571b:	0f 93 05 03 22 00 00 	setae  0x2203
 8055722:	0f 94 05 04 22 00 00 	sete   0x2204
 8055729:	0f 95 05 05 22 00 00 	setne  0x2205
 8055730:	0f 96 05 06 22 00 00 	setbe  0x2206
 8055737:	0f 97 05 07 22 00 00 	seta   0x2207
 805573e:	0f 98 05 08 22 00 00 	sets   0x2208
 8055745:	0f 99 05 09 22 00 00 	setns  0x2209
 805574c:	0f 9a 05 0a 22 00 00 	setp   0x220a
 8055753:	0f 9b 05 0b 22 00 00 	setnp  0x220b
 805575a:	0f 9c 05 0c 22 00 00 	setl   0x220c
 8055761:	0f 9d 05 0d 22 00 00 	setge  0x220d
 8055768:	0f 9e 05 0e 22 00 00 	setle  0x220e
 805576f:	0f 9f 05 0f 22 00 00 	setg   0x220f
 8055776:	66 9c                	pushfw 
 8055778:	66 58                	pop    %ax
 805577a:	66 a3 00 21 00 00    	mov    %ax,0x2100
 8055780:	a1 50 20 00 00       	mov    0x2050,%eax
 8055785:	29 e0                	sub    %esp,%eax
 8055787:	a3 20 20 00 00       	mov    %eax,0x2020
 805578c:	b8 00 00 00 00       	mov    $0x0,%eax
 8055791:	c3                   	ret    

08055792 <cmov_l_with_code_f_mv_plain>:
 8055792:	3c 02                	cmp    $0x2,%al
 8055794:	0f 4f d8             	cmovg  %eax,%ebx
 8055797:	b8 00 00 00 00       	mov    $0x0,%eax
 805579c:	c3                   	ret    

0805579d <cmov_l_with_code_f_mv_allregs>:
 805579d:	90                   	nop
 805579e:	66 a1 00 11 00 00    	mov    0x1100,%ax
 80557a4:	66 50                	push   %ax
 80557a6:	66 9d                	popfw  
 80557a8:	a1 00 10 00 00       	mov    0x1000,%eax
 80557ad:	8b 1d 04 10 00 00    	mov    0x1004,%ebx
 80557b3:	8b 0d 08 10 00 00    	mov    0x1008,%ecx
 80557b9:	8b 15 0c 10 00 00    	mov    0x100c,%edx
 80557bf:	8b 2d 10 10 00 00    	mov    0x1010,%ebp
 80557c5:	8b 35 14 10 00 00    	mov    0x1014,%esi
 80557cb:	8b 3d 18 10 00 00    	mov    0x1018,%edi
 80557d1:	89 25 50 20 00 00    	mov    %esp,0x2050
 80557d7:	3c 02                	cmp    $0x2,%al
 80557d9:	0f 4f d8             	cmovg  %eax,%ebx
 80557dc:	a3 00 20 00 00       	mov    %eax,0x2000
 80557e1:	89 1d 04 20 00 00    	mov    %ebx,0x2004
 80557e7:	89 0d 08 20 00 00    	mov    %ecx,0x2008
 80557ed:	89 15 0c 20 00 00    	mov    %edx,0x200c
 80557f3:	89 2d 10 20 00 00    	mov    %ebp,0x2010
 80557f9:	89 35 14 20 00 00    	mov    %esi,0x2014
 80557ff:	89 3d 18 20 00 00    	mov    %edi,0x2018
 8055805:	0f 90 05 00 22 00 00 	seto   0x2200
 805580c:	0f 91 05 01 22 00 00 	setno  0x2201
 8055813:	0f 92 05 02 22 00 00 	setb   0x2202
 805581a:	0f 93 05 03 22 00 00 	setae  0x2203
 8055821:	0f 94 05 04 22 00 00 	sete   0x2204
 8055828:	0f 95 05 05 22 00 00 	setne  0x2205
 805582f:	0f 96 05 06 22 00 00 	setbe  0x2206
 8055836:	0f 97 05 07 22 00 00 	seta   0x2207
 805583d:	0f 98 05 08 22 00 00 	sets   0x2208
 8055844:	0f 99 05 09 22 00 00 	setns  0x2209
 805584b:	0f 9a 05 0a 22 00 00 	setp   0x220a
 8055852:	0f 9b 05 0b 22 00 00 	setnp  0x220b
 8055859:	0f 9c 05 0c 22 00 00 	setl   0x220c
 8055860:	0f 9d 05 0d 22 00 00 	setge  0x220d
 8055867:	0f 9e 05 0e 22 00 00 	setle  0x220e
 805586e:	0f 9f 05 0f 22 00 00 	setg   0x220f
 8055875:	66 9c                	pushfw 
 8055877:	66 58                	pop    %ax
 8055879:	66 a3 00 21 00 00    	mov    %ax,0x2100
 805587f:	a1 50 20 00 00       	mov    0x2050,%eax
 8055884:	29 e0                	sub    %esp,%eax
 8055886:	a3 20 20 00 00       	mov    %eax,0x2020
 805588b:	b8 00 00 00 00       	mov    $0x0,%eax
 8055890:	c3                   	ret    

08055891 <cmov_l_with_code_f_mv_constant_simple>:
 8055891:	90                   	nop
 8055892:	66 6a 00             	pushw  $0x0
 8055895:	66 9d                	popfw  
 8055897:	b8 02 00 00 00       	mov    $0x2,%eax
 805589c:	bb 03 00 00 00       	mov    $0x3,%ebx
 80558a1:	b9 04 00 00 00       	mov    $0x4,%ecx
 80558a6:	ba 05 00 00 00       	mov    $0x5,%edx
 80558ab:	bd 06 00 00 00       	mov    $0x6,%ebp
 80558b0:	be 07 00 00 00       	mov    $0x7,%esi
 80558b5:	bf 08 00 00 00       	mov    $0x8,%edi
 80558ba:	89 25 50 20 00 00    	mov    %esp,0x2050
 80558c0:	3c 02                	cmp    $0x2,%al
 80558c2:	0f 4f d8             	cmovg  %eax,%ebx
 80558c5:	a3 00 20 00 00       	mov    %eax,0x2000
 80558ca:	89 1d 04 20 00 00    	mov    %ebx,0x2004
 80558d0:	89 0d 08 20 00 00    	mov    %ecx,0x2008
 80558d6:	89 15 0c 20 00 00    	mov    %edx,0x200c
 80558dc:	89 2d 10 20 00 00    	mov    %ebp,0x2010
 80558e2:	89 35 14 20 00 00    	mov    %esi,0x2014
 80558e8:	89 3d 18 20 00 00    	mov    %edi,0x2018
 80558ee:	0f 90 05 00 22 00 00 	seto   0x2200
 80558f5:	0f 91 05 01 22 00 00 	setno  0x2201
 80558fc:	0f 92 05 02 22 00 00 	setb   0x2202
 8055903:	0f 93 05 03 22 00 00 	setae  0x2203
 805590a:	0f 94 05 04 22 00 00 	sete   0x2204
 8055911:	0f 95 05 05 22 00 00 	setne  0x2205
 8055918:	0f 96 05 06 22 00 00 	setbe  0x2206
 805591f:	0f 97 05 07 22 00 00 	seta   0x2207
 8055926:	0f 98 05 08 22 00 00 	sets   0x2208
 805592d:	0f 99 05 09 22 00 00 	setns  0x2209
 8055934:	0f 9a 05 0a 22 00 00 	setp   0x220a
 805593b:	0f 9b 05 0b 22 00 00 	setnp  0x220b
 8055942:	0f 9c 05 0c 22 00 00 	setl   0x220c
 8055949:	0f 9d 05 0d 22 00 00 	setge  0x220d
 8055950:	0f 9e 05 0e 22 00 00 	setle  0x220e
 8055957:	0f 9f 05 0f 22 00 00 	setg   0x220f
 805595e:	66 9c                	pushfw 
 8055960:	66 58                	pop    %ax
 8055962:	66 a3 00 21 00 00    	mov    %ax,0x2100
 8055968:	a1 50 20 00 00       	mov    0x2050,%eax
 805596d:	29 e0                	sub    %esp,%eax
 805596f:	a3 20 20 00 00       	mov    %eax,0x2020
 8055974:	b8 00 00 00 00       	mov    $0x0,%eax
 8055979:	c3                   	ret    

0805597a <cmov_l_with_code_f_mv_constant_complex1>:
 805597a:	90                   	nop
 805597b:	66 6a 00             	pushw  $0x0
 805597e:	66 9d                	popfw  
 8055980:	b8 84 79 b1 a3       	mov    $0xa3b17984,%eax
 8055985:	bb d7 1a 67 06       	mov    $0x6671ad7,%ebx
 805598a:	b9 48 52 68 46       	mov    $0x46685248,%ecx
 805598f:	ba c4 56 24 39       	mov    $0x392456c4,%edx
 8055994:	bd a4 60 89 bc       	mov    $0xbc8960a4,%ebp
 8055999:	be 78 2d 3c ad       	mov    $0xad3c2d78,%esi
 805599e:	bf 52 e1 65 e4       	mov    $0xe465e152,%edi
 80559a3:	89 25 50 20 00 00    	mov    %esp,0x2050
 80559a9:	3c 02                	cmp    $0x2,%al
 80559ab:	0f 4f d8             	cmovg  %eax,%ebx
 80559ae:	a3 00 20 00 00       	mov    %eax,0x2000
 80559b3:	89 1d 04 20 00 00    	mov    %ebx,0x2004
 80559b9:	89 0d 08 20 00 00    	mov    %ecx,0x2008
 80559bf:	89 15 0c 20 00 00    	mov    %edx,0x200c
 80559c5:	89 2d 10 20 00 00    	mov    %ebp,0x2010
 80559cb:	89 35 14 20 00 00    	mov    %esi,0x2014
 80559d1:	89 3d 18 20 00 00    	mov    %edi,0x2018
 80559d7:	0f 90 05 00 22 00 00 	seto   0x2200
 80559de:	0f 91 05 01 22 00 00 	setno  0x2201
 80559e5:	0f 92 05 02 22 00 00 	setb   0x2202
 80559ec:	0f 93 05 03 22 00 00 	setae  0x2203
 80559f3:	0f 94 05 04 22 00 00 	sete   0x2204
 80559fa:	0f 95 05 05 22 00 00 	setne  0x2205
 8055a01:	0f 96 05 06 22 00 00 	setbe  0x2206
 8055a08:	0f 97 05 07 22 00 00 	seta   0x2207
 8055a0f:	0f 98 05 08 22 00 00 	sets   0x2208
 8055a16:	0f 99 05 09 22 00 00 	setns  0x2209
 8055a1d:	0f 9a 05 0a 22 00 00 	setp   0x220a
 8055a24:	0f 9b 05 0b 22 00 00 	setnp  0x220b
 8055a2b:	0f 9c 05 0c 22 00 00 	setl   0x220c
 8055a32:	0f 9d 05 0d 22 00 00 	setge  0x220d
 8055a39:	0f 9e 05 0e 22 00 00 	setle  0x220e
 8055a40:	0f 9f 05 0f 22 00 00 	setg   0x220f
 8055a47:	66 9c                	pushfw 
 8055a49:	66 58                	pop    %ax
 8055a4b:	66 a3 00 21 00 00    	mov    %ax,0x2100
 8055a51:	a1 50 20 00 00       	mov    0x2050,%eax
 8055a56:	29 e0                	sub    %esp,%eax
 8055a58:	a3 20 20 00 00       	mov    %eax,0x2020
 8055a5d:	b8 00 00 00 00       	mov    $0x0,%eax
 8055a62:	c3                   	ret    

08055a63 <cmov_l_with_code_f_mv_constant_complex2>:
 8055a63:	90                   	nop
 8055a64:	66 68 ff fe          	pushw  $0xfeff
 8055a68:	66 9d                	popfw  
 8055a6a:	b8 e8 c0 3e 31       	mov    $0x313ec0e8,%eax
 8055a6f:	bb c3 81 6e 49       	mov    $0x496e81c3,%ebx
 8055a74:	b9 b2 6c 3f 1e       	mov    $0x1e3f6cb2,%ecx
 8055a79:	ba b3 25 69 4e       	mov    $0x4e6925b3,%edx
 8055a7e:	bd 10 26 31 4f       	mov    $0x4f312610,%ebp
 8055a83:	be a5 a4 37 2f       	mov    $0x2f37a4a5,%esi
 8055a88:	bf b4 17 a9 91       	mov    $0x91a917b4,%edi
 8055a8d:	89 25 50 20 00 00    	mov    %esp,0x2050
 8055a93:	3c 02                	cmp    $0x2,%al
 8055a95:	0f 4f d8             	cmovg  %eax,%ebx
 8055a98:	a3 00 20 00 00       	mov    %eax,0x2000
 8055a9d:	89 1d 04 20 00 00    	mov    %ebx,0x2004
 8055aa3:	89 0d 08 20 00 00    	mov    %ecx,0x2008
 8055aa9:	89 15 0c 20 00 00    	mov    %edx,0x200c
 8055aaf:	89 2d 10 20 00 00    	mov    %ebp,0x2010
 8055ab5:	89 35 14 20 00 00    	mov    %esi,0x2014
 8055abb:	89 3d 18 20 00 00    	mov    %edi,0x2018
 8055ac1:	0f 90 05 00 22 00 00 	seto   0x2200
 8055ac8:	0f 91 05 01 22 00 00 	setno  0x2201
 8055acf:	0f 92 05 02 22 00 00 	setb   0x2202
 8055ad6:	0f 93 05 03 22 00 00 	setae  0x2203
 8055add:	0f 94 05 04 22 00 00 	sete   0x2204
 8055ae4:	0f 95 05 05 22 00 00 	setne  0x2205
 8055aeb:	0f 96 05 06 22 00 00 	setbe  0x2206
 8055af2:	0f 97 05 07 22 00 00 	seta   0x2207
 8055af9:	0f 98 05 08 22 00 00 	sets   0x2208
 8055b00:	0f 99 05 09 22 00 00 	setns  0x2209
 8055b07:	0f 9a 05 0a 22 00 00 	setp   0x220a
 8055b0e:	0f 9b 05 0b 22 00 00 	setnp  0x220b
 8055b15:	0f 9c 05 0c 22 00 00 	setl   0x220c
 8055b1c:	0f 9d 05 0d 22 00 00 	setge  0x220d
 8055b23:	0f 9e 05 0e 22 00 00 	setle  0x220e
 8055b2a:	0f 9f 05 0f 22 00 00 	setg   0x220f
 8055b31:	66 9c                	pushfw 
 8055b33:	66 58                	pop    %ax
 8055b35:	66 a3 00 21 00 00    	mov    %ax,0x2100
 8055b3b:	a1 50 20 00 00       	mov    0x2050,%eax
 8055b40:	29 e0                	sub    %esp,%eax
 8055b42:	a3 20 20 00 00       	mov    %eax,0x2020
 8055b47:	b8 00 00 00 00       	mov    $0x0,%eax
 8055b4c:	c3                   	ret    

08055b4d <callAll>:
 8055b4d:	e8 42 28 ff ff       	call   8048394 <bswap_plain>
 8055b52:	e8 45 28 ff ff       	call   804839c <bswap_allregs>
 8055b57:	e8 31 29 ff ff       	call   804848d <bswap_constant_simple>
 8055b5c:	e8 12 2a ff ff       	call   8048573 <bswap_constant_complex1>
 8055b61:	e8 f3 2a ff ff       	call   8048659 <bswap_constant_complex2>
 8055b66:	e8 d5 2b ff ff       	call   8048740 <cmpxchg1_mv_plain>
 8055b6b:	e8 d9 2b ff ff       	call   8048749 <cmpxchg1_mv_allregs>
 8055b70:	e8 c6 2c ff ff       	call   804883b <cmpxchg1_mv_constant_simple>
 8055b75:	e8 a8 2d ff ff       	call   8048922 <cmpxchg1_mv_constant_complex1>
 8055b7a:	e8 8a 2e ff ff       	call   8048a09 <cmpxchg1_mv_constant_complex2>
 8055b7f:	e8 6d 2f ff ff       	call   8048af1 <cmpxchg2_mv_plain>
 8055b84:	e8 72 2f ff ff       	call   8048afb <cmpxchg2_mv_allregs>
 8055b89:	e8 60 30 ff ff       	call   8048bee <cmpxchg2_mv_constant_simple>
 8055b8e:	e8 43 31 ff ff       	call   8048cd6 <cmpxchg2_mv_constant_complex1>
 8055b93:	e8 26 32 ff ff       	call   8048dbe <cmpxchg2_mv_constant_complex2>
 8055b98:	e8 0a 33 ff ff       	call   8048ea7 <cmpxchg3_plain>
 8055b9d:	e8 0e 33 ff ff       	call   8048eb0 <cmpxchg3_allregs>
 8055ba2:	e8 fb 33 ff ff       	call   8048fa2 <cmpxchg3_constant_simple>
 8055ba7:	e8 dd 34 ff ff       	call   8049089 <cmpxchg3_constant_complex1>
 8055bac:	e8 bf 35 ff ff       	call   8049170 <cmpxchg3_constant_complex2>
 8055bb1:	e8 a2 36 ff ff       	call   8049258 <cmpxchg4_mv_plain>
 8055bb6:	e8 a6 36 ff ff       	call   8049261 <cmpxchg4_mv_allregs>
 8055bbb:	e8 93 37 ff ff       	call   8049353 <cmpxchg4_mv_constant_simple>
 8055bc0:	e8 75 38 ff ff       	call   804943a <cmpxchg4_mv_constant_complex1>
 8055bc5:	e8 57 39 ff ff       	call   8049521 <cmpxchg4_mv_constant_complex2>
 8055bca:	e8 3a 3a ff ff       	call   8049609 <cmpxchg5_mv_plain>
 8055bcf:	e8 3e 3a ff ff       	call   8049612 <cmpxchg5_mv_allregs>
 8055bd4:	e8 2b 3b ff ff       	call   8049704 <cmpxchg5_mv_constant_simple>
 8055bd9:	e8 0d 3c ff ff       	call   80497eb <cmpxchg5_mv_constant_complex1>
 8055bde:	e8 ef 3c ff ff       	call   80498d2 <cmpxchg5_mv_constant_complex2>
 8055be3:	e8 d2 3d ff ff       	call   80499ba <cmpxchg_locked_mv_plain>
 8055be8:	e8 d7 3d ff ff       	call   80499c4 <cmpxchg_locked_mv_allregs>
 8055bed:	e8 c5 3e ff ff       	call   8049ab7 <cmpxchg_locked_mv_constant_simple>
 8055bf2:	e8 a8 3f ff ff       	call   8049b9f <cmpxchg_locked_mv_constant_complex1>
 8055bf7:	e8 8b 40 ff ff       	call   8049c87 <cmpxchg_locked_mv_constant_complex2>
 8055bfc:	e8 6f 41 ff ff       	call   8049d70 <cpuid_plain>
 8055c01:	e8 72 41 ff ff       	call   8049d78 <cpuid_allregs>
 8055c06:	e8 5e 42 ff ff       	call   8049e69 <cpuid_constant_simple>
 8055c0b:	e8 3f 43 ff ff       	call   8049f4f <cpuid_constant_complex1>
 8055c10:	e8 20 44 ff ff       	call   804a035 <cpuid_constant_complex2>
 8055c15:	e8 02 45 ff ff       	call   804a11c <invd_plain>
 8055c1a:	e8 05 45 ff ff       	call   804a124 <invd_allregs>
 8055c1f:	e8 f1 45 ff ff       	call   804a215 <invd_constant_simple>
 8055c24:	e8 d2 46 ff ff       	call   804a2fb <invd_constant_complex1>
 8055c29:	e8 b3 47 ff ff       	call   804a3e1 <invd_constant_complex2>
 8055c2e:	e8 95 48 ff ff       	call   804a4c8 <invlpg_plain>
 8055c33:	e8 99 48 ff ff       	call   804a4d1 <invlpg_allregs>
 8055c38:	e8 86 49 ff ff       	call   804a5c3 <invlpg_constant_simple>
 8055c3d:	e8 68 4a ff ff       	call   804a6aa <invlpg_constant_complex1>
 8055c42:	e8 4a 4b ff ff       	call   804a791 <invlpg_constant_complex2>
 8055c47:	e8 2d 4c ff ff       	call   804a879 <wbinvd_plain>
 8055c4c:	e8 30 4c ff ff       	call   804a881 <wbinvd_allregs>
 8055c51:	e8 1c 4d ff ff       	call   804a972 <wbinvd_constant_simple>
 8055c56:	e8 fd 4d ff ff       	call   804aa58 <wbinvd_constant_complex1>
 8055c5b:	e8 de 4e ff ff       	call   804ab3e <wbinvd_constant_complex2>
 8055c60:	e8 c0 4f ff ff       	call   804ac25 <xadd1_mv_plain>
 8055c65:	e8 c4 4f ff ff       	call   804ac2e <xadd1_mv_allregs>
 8055c6a:	e8 b1 50 ff ff       	call   804ad20 <xadd1_mv_constant_simple>
 8055c6f:	e8 93 51 ff ff       	call   804ae07 <xadd1_mv_constant_complex1>
 8055c74:	e8 75 52 ff ff       	call   804aeee <xadd1_mv_constant_complex2>
 8055c79:	e8 58 53 ff ff       	call   804afd6 <xadd2_mv_plain>
 8055c7e:	e8 5d 53 ff ff       	call   804afe0 <xadd2_mv_allregs>
 8055c83:	e8 4b 54 ff ff       	call   804b0d3 <xadd2_mv_constant_simple>
 8055c88:	e8 2e 55 ff ff       	call   804b1bb <xadd2_mv_constant_complex1>
 8055c8d:	e8 11 56 ff ff       	call   804b2a3 <xadd2_mv_constant_complex2>
 8055c92:	e8 f5 56 ff ff       	call   804b38c <xadd3_plain>
 8055c97:	e8 f9 56 ff ff       	call   804b395 <xadd3_allregs>
 8055c9c:	e8 e6 57 ff ff       	call   804b487 <xadd3_constant_simple>
 8055ca1:	e8 c8 58 ff ff       	call   804b56e <xadd3_constant_complex1>
 8055ca6:	e8 aa 59 ff ff       	call   804b655 <xadd3_constant_complex2>
 8055cab:	e8 8d 5a ff ff       	call   804b73d <xadd4_mv_plain>
 8055cb0:	e8 91 5a ff ff       	call   804b746 <xadd4_mv_allregs>
 8055cb5:	e8 7e 5b ff ff       	call   804b838 <xadd4_mv_constant_simple>
 8055cba:	e8 60 5c ff ff       	call   804b91f <xadd4_mv_constant_complex1>
 8055cbf:	e8 42 5d ff ff       	call   804ba06 <xadd4_mv_constant_complex2>
 8055cc4:	e8 25 5e ff ff       	call   804baee <xadd5_mv_plain>
 8055cc9:	e8 29 5e ff ff       	call   804baf7 <xadd5_mv_allregs>
 8055cce:	e8 16 5f ff ff       	call   804bbe9 <xadd5_mv_constant_simple>
 8055cd3:	e8 f8 5f ff ff       	call   804bcd0 <xadd5_mv_constant_complex1>
 8055cd8:	e8 da 60 ff ff       	call   804bdb7 <xadd5_mv_constant_complex2>
 8055cdd:	e8 bd 61 ff ff       	call   804be9f <xadd_locked_mv_plain>
 8055ce2:	e8 c2 61 ff ff       	call   804bea9 <xadd_locked_mv_allregs>
 8055ce7:	e8 b0 62 ff ff       	call   804bf9c <xadd_locked_mv_constant_simple>
 8055cec:	e8 93 63 ff ff       	call   804c084 <xadd_locked_mv_constant_complex1>
 8055cf1:	e8 76 64 ff ff       	call   804c16c <xadd_locked_mv_constant_complex2>
 8055cf6:	e8 5a 65 ff ff       	call   804c255 <cmpxchg8b_plain>
 8055cfb:	e8 5e 65 ff ff       	call   804c25e <cmpxchg8b_allregs>
 8055d00:	e8 4b 66 ff ff       	call   804c350 <cmpxchg8b_constant_simple>
 8055d05:	e8 2d 67 ff ff       	call   804c437 <cmpxchg8b_constant_complex1>
 8055d0a:	e8 0f 68 ff ff       	call   804c51e <cmpxchg8b_constant_complex2>
 8055d0f:	e8 f2 68 ff ff       	call   804c606 <cmpxchg8b_locked_mv_plain>
 8055d14:	e8 f7 68 ff ff       	call   804c610 <cmpxchg8b_locked_mv_allregs>
 8055d19:	e8 e5 69 ff ff       	call   804c703 <cmpxchg8b_locked_mv_constant_simple>
 8055d1e:	e8 c8 6a ff ff       	call   804c7eb <cmpxchg8b_locked_mv_constant_complex1>
 8055d23:	e8 ab 6b ff ff       	call   804c8d3 <cmpxchg8b_locked_mv_constant_complex2>
 8055d28:	e8 8f 6c ff ff       	call   804c9bc <rdtsc_plain>
 8055d2d:	e8 92 6c ff ff       	call   804c9c4 <rdtsc_allregs>
 8055d32:	e8 7e 6d ff ff       	call   804cab5 <rdtsc_constant_simple>
 8055d37:	e8 5f 6e ff ff       	call   804cb9b <rdtsc_constant_complex1>
 8055d3c:	e8 40 6f ff ff       	call   804cc81 <rdtsc_constant_complex2>
 8055d41:	e8 22 70 ff ff       	call   804cd68 <rdmsr_plain>
 8055d46:	e8 25 70 ff ff       	call   804cd70 <rdmsr_allregs>
 8055d4b:	e8 11 71 ff ff       	call   804ce61 <rdmsr_constant_simple>
 8055d50:	e8 f2 71 ff ff       	call   804cf47 <rdmsr_constant_complex1>
 8055d55:	e8 d3 72 ff ff       	call   804d02d <rdmsr_constant_complex2>
 8055d5a:	e8 b5 73 ff ff       	call   804d114 <wrmsr_plain>
 8055d5f:	e8 b8 73 ff ff       	call   804d11c <wrmsr_allregs>
 8055d64:	e8 a4 74 ff ff       	call   804d20d <wrmsr_constant_simple>
 8055d69:	e8 85 75 ff ff       	call   804d2f3 <wrmsr_constant_complex1>
 8055d6e:	e8 66 76 ff ff       	call   804d3d9 <wrmsr_constant_complex2>
 8055d73:	e8 48 77 ff ff       	call   804d4c0 <cmov1_plain>
 8055d78:	e8 4d 77 ff ff       	call   804d4ca <cmov1_allregs>
 8055d7d:	e8 3b 78 ff ff       	call   804d5bd <cmov1_constant_simple>
 8055d82:	e8 1e 79 ff ff       	call   804d6a5 <cmov1_constant_complex1>
 8055d87:	e8 01 7a ff ff       	call   804d78d <cmov1_constant_complex2>
 8055d8c:	e8 e5 7a ff ff       	call   804d876 <cmov2_mv_plain>
 8055d91:	e8 ea 7a ff ff       	call   804d880 <cmov2_mv_allregs>
 8055d96:	e8 d8 7b ff ff       	call   804d973 <cmov2_mv_constant_simple>
 8055d9b:	e8 bb 7c ff ff       	call   804da5b <cmov2_mv_constant_complex1>
 8055da0:	e8 9e 7d ff ff       	call   804db43 <cmov2_mv_constant_complex2>
 8055da5:	e8 82 7e ff ff       	call   804dc2c <cmov3_mv_plain>
 8055daa:	e8 88 7e ff ff       	call   804dc37 <cmov3_mv_allregs>
 8055daf:	e8 77 7f ff ff       	call   804dd2b <cmov3_mv_constant_simple>
 8055db4:	e8 5b 80 ff ff       	call   804de14 <cmov3_mv_constant_complex1>
 8055db9:	e8 3f 81 ff ff       	call   804defd <cmov3_mv_constant_complex2>
 8055dbe:	e8 24 82 ff ff       	call   804dfe7 <cmov4_mv_plain>
 8055dc3:	e8 29 82 ff ff       	call   804dff1 <cmov4_mv_allregs>
 8055dc8:	e8 17 83 ff ff       	call   804e0e4 <cmov4_mv_constant_simple>
 8055dcd:	e8 fa 83 ff ff       	call   804e1cc <cmov4_mv_constant_complex1>
 8055dd2:	e8 dd 84 ff ff       	call   804e2b4 <cmov4_mv_constant_complex2>
 8055dd7:	e8 c1 85 ff ff       	call   804e39d <cmov_w_with_code_0_plain>
 8055ddc:	e8 c8 85 ff ff       	call   804e3a9 <cmov_w_with_code_0_allregs>
 8055de1:	e8 b8 86 ff ff       	call   804e49e <cmov_w_with_code_0_constant_simple>
 8055de6:	e8 9d 87 ff ff       	call   804e588 <cmov_w_with_code_0_constant_complex1>
 8055deb:	e8 82 88 ff ff       	call   804e672 <cmov_w_with_code_0_constant_complex2>
 8055df0:	e8 68 89 ff ff       	call   804e75d <cmov_w_with_code_1_mv_plain>
 8055df5:	e8 6f 89 ff ff       	call   804e769 <cmov_w_with_code_1_mv_allregs>
 8055dfa:	e8 5f 8a ff ff       	call   804e85e <cmov_w_with_code_1_mv_constant_simple>
 8055dff:	e8 44 8b ff ff       	call   804e948 <cmov_w_with_code_1_mv_constant_complex1>
 8055e04:	e8 29 8c ff ff       	call   804ea32 <cmov_w_with_code_1_mv_constant_complex2>
 8055e09:	e8 0f 8d ff ff       	call   804eb1d <cmov_w_with_code_2_mv_plain>
 8055e0e:	e8 16 8d ff ff       	call   804eb29 <cmov_w_with_code_2_mv_allregs>
 8055e13:	e8 06 8e ff ff       	call   804ec1e <cmov_w_with_code_2_mv_constant_simple>
 8055e18:	e8 eb 8e ff ff       	call   804ed08 <cmov_w_with_code_2_mv_constant_complex1>
 8055e1d:	e8 d0 8f ff ff       	call   804edf2 <cmov_w_with_code_2_mv_constant_complex2>
 8055e22:	e8 b6 90 ff ff       	call   804eedd <cmov_w_with_code_3_mv_plain>
 8055e27:	e8 bd 90 ff ff       	call   804eee9 <cmov_w_with_code_3_mv_allregs>
 8055e2c:	e8 ad 91 ff ff       	call   804efde <cmov_w_with_code_3_mv_constant_simple>
 8055e31:	e8 92 92 ff ff       	call   804f0c8 <cmov_w_with_code_3_mv_constant_complex1>
 8055e36:	e8 77 93 ff ff       	call   804f1b2 <cmov_w_with_code_3_mv_constant_complex2>
 8055e3b:	e8 5d 94 ff ff       	call   804f29d <cmov_w_with_code_4_mv_plain>
 8055e40:	e8 64 94 ff ff       	call   804f2a9 <cmov_w_with_code_4_mv_allregs>
 8055e45:	e8 54 95 ff ff       	call   804f39e <cmov_w_with_code_4_mv_constant_simple>
 8055e4a:	e8 39 96 ff ff       	call   804f488 <cmov_w_with_code_4_mv_constant_complex1>
 8055e4f:	e8 1e 97 ff ff       	call   804f572 <cmov_w_with_code_4_mv_constant_complex2>
 8055e54:	e8 04 98 ff ff       	call   804f65d <cmov_w_with_code_5_mv_plain>
 8055e59:	e8 0b 98 ff ff       	call   804f669 <cmov_w_with_code_5_mv_allregs>
 8055e5e:	e8 fb 98 ff ff       	call   804f75e <cmov_w_with_code_5_mv_constant_simple>
 8055e63:	e8 e0 99 ff ff       	call   804f848 <cmov_w_with_code_5_mv_constant_complex1>
 8055e68:	e8 c5 9a ff ff       	call   804f932 <cmov_w_with_code_5_mv_constant_complex2>
 8055e6d:	e8 ab 9b ff ff       	call   804fa1d <cmov_w_with_code_6_mv_plain>
 8055e72:	e8 b2 9b ff ff       	call   804fa29 <cmov_w_with_code_6_mv_allregs>
 8055e77:	e8 a2 9c ff ff       	call   804fb1e <cmov_w_with_code_6_mv_constant_simple>
 8055e7c:	e8 87 9d ff ff       	call   804fc08 <cmov_w_with_code_6_mv_constant_complex1>
 8055e81:	e8 6c 9e ff ff       	call   804fcf2 <cmov_w_with_code_6_mv_constant_complex2>
 8055e86:	e8 52 9f ff ff       	call   804fddd <cmov_w_with_code_7_mv_plain>
 8055e8b:	e8 59 9f ff ff       	call   804fde9 <cmov_w_with_code_7_mv_allregs>
 8055e90:	e8 49 a0 ff ff       	call   804fede <cmov_w_with_code_7_mv_constant_simple>
 8055e95:	e8 2e a1 ff ff       	call   804ffc8 <cmov_w_with_code_7_mv_constant_complex1>
 8055e9a:	e8 13 a2 ff ff       	call   80500b2 <cmov_w_with_code_7_mv_constant_complex2>
 8055e9f:	e8 f9 a2 ff ff       	call   805019d <cmov_w_with_code_8_mv_plain>
 8055ea4:	e8 00 a3 ff ff       	call   80501a9 <cmov_w_with_code_8_mv_allregs>
 8055ea9:	e8 f0 a3 ff ff       	call   805029e <cmov_w_with_code_8_mv_constant_simple>
 8055eae:	e8 d5 a4 ff ff       	call   8050388 <cmov_w_with_code_8_mv_constant_complex1>
 8055eb3:	e8 ba a5 ff ff       	call   8050472 <cmov_w_with_code_8_mv_constant_complex2>
 8055eb8:	e8 a0 a6 ff ff       	call   805055d <cmov_w_with_code_9_mv_plain>
 8055ebd:	e8 a7 a6 ff ff       	call   8050569 <cmov_w_with_code_9_mv_allregs>
 8055ec2:	e8 97 a7 ff ff       	call   805065e <cmov_w_with_code_9_mv_constant_simple>
 8055ec7:	e8 7c a8 ff ff       	call   8050748 <cmov_w_with_code_9_mv_constant_complex1>
 8055ecc:	e8 61 a9 ff ff       	call   8050832 <cmov_w_with_code_9_mv_constant_complex2>
 8055ed1:	e8 47 aa ff ff       	call   805091d <cmov_w_with_code_a_mv_plain>
 8055ed6:	e8 4e aa ff ff       	call   8050929 <cmov_w_with_code_a_mv_allregs>
 8055edb:	e8 3e ab ff ff       	call   8050a1e <cmov_w_with_code_a_mv_constant_simple>
 8055ee0:	e8 23 ac ff ff       	call   8050b08 <cmov_w_with_code_a_mv_constant_complex1>
 8055ee5:	e8 08 ad ff ff       	call   8050bf2 <cmov_w_with_code_a_mv_constant_complex2>
 8055eea:	e8 ee ad ff ff       	call   8050cdd <cmov_w_with_code_b_mv_plain>
 8055eef:	e8 f5 ad ff ff       	call   8050ce9 <cmov_w_with_code_b_mv_allregs>
 8055ef4:	e8 e5 ae ff ff       	call   8050dde <cmov_w_with_code_b_mv_constant_simple>
 8055ef9:	e8 ca af ff ff       	call   8050ec8 <cmov_w_with_code_b_mv_constant_complex1>
 8055efe:	e8 af b0 ff ff       	call   8050fb2 <cmov_w_with_code_b_mv_constant_complex2>
 8055f03:	e8 95 b1 ff ff       	call   805109d <cmov_w_with_code_c_mv_plain>
 8055f08:	e8 9c b1 ff ff       	call   80510a9 <cmov_w_with_code_c_mv_allregs>
 8055f0d:	e8 8c b2 ff ff       	call   805119e <cmov_w_with_code_c_mv_constant_simple>
 8055f12:	e8 71 b3 ff ff       	call   8051288 <cmov_w_with_code_c_mv_constant_complex1>
 8055f17:	e8 56 b4 ff ff       	call   8051372 <cmov_w_with_code_c_mv_constant_complex2>
 8055f1c:	e8 3c b5 ff ff       	call   805145d <cmov_w_with_code_d_mv_plain>
 8055f21:	e8 43 b5 ff ff       	call   8051469 <cmov_w_with_code_d_mv_allregs>
 8055f26:	e8 33 b6 ff ff       	call   805155e <cmov_w_with_code_d_mv_constant_simple>
 8055f2b:	e8 18 b7 ff ff       	call   8051648 <cmov_w_with_code_d_mv_constant_complex1>
 8055f30:	e8 fd b7 ff ff       	call   8051732 <cmov_w_with_code_d_mv_constant_complex2>
 8055f35:	e8 e3 b8 ff ff       	call   805181d <cmov_w_with_code_e_mv_plain>
 8055f3a:	e8 ea b8 ff ff       	call   8051829 <cmov_w_with_code_e_mv_allregs>
 8055f3f:	e8 da b9 ff ff       	call   805191e <cmov_w_with_code_e_mv_constant_simple>
 8055f44:	e8 bf ba ff ff       	call   8051a08 <cmov_w_with_code_e_mv_constant_complex1>
 8055f49:	e8 a4 bb ff ff       	call   8051af2 <cmov_w_with_code_e_mv_constant_complex2>
 8055f4e:	e8 8a bc ff ff       	call   8051bdd <cmov_w_with_code_f_mv_plain>
 8055f53:	e8 91 bc ff ff       	call   8051be9 <cmov_w_with_code_f_mv_allregs>
 8055f58:	e8 81 bd ff ff       	call   8051cde <cmov_w_with_code_f_mv_constant_simple>
 8055f5d:	e8 66 be ff ff       	call   8051dc8 <cmov_w_with_code_f_mv_constant_complex1>
 8055f62:	e8 4b bf ff ff       	call   8051eb2 <cmov_w_with_code_f_mv_constant_complex2>
 8055f67:	e8 31 c0 ff ff       	call   8051f9d <cmov_l_with_code_0_plain>
 8055f6c:	e8 37 c0 ff ff       	call   8051fa8 <cmov_l_with_code_0_allregs>
 8055f71:	e8 26 c1 ff ff       	call   805209c <cmov_l_with_code_0_constant_simple>
 8055f76:	e8 0a c2 ff ff       	call   8052185 <cmov_l_with_code_0_constant_complex1>
 8055f7b:	e8 ee c2 ff ff       	call   805226e <cmov_l_with_code_0_constant_complex2>
 8055f80:	e8 d3 c3 ff ff       	call   8052358 <cmov_l_with_code_1_mv_plain>
 8055f85:	e8 d9 c3 ff ff       	call   8052363 <cmov_l_with_code_1_mv_allregs>
 8055f8a:	e8 c8 c4 ff ff       	call   8052457 <cmov_l_with_code_1_mv_constant_simple>
 8055f8f:	e8 ac c5 ff ff       	call   8052540 <cmov_l_with_code_1_mv_constant_complex1>
 8055f94:	e8 90 c6 ff ff       	call   8052629 <cmov_l_with_code_1_mv_constant_complex2>
 8055f99:	e8 75 c7 ff ff       	call   8052713 <cmov_l_with_code_2_mv_plain>
 8055f9e:	e8 7b c7 ff ff       	call   805271e <cmov_l_with_code_2_mv_allregs>
 8055fa3:	e8 6a c8 ff ff       	call   8052812 <cmov_l_with_code_2_mv_constant_simple>
 8055fa8:	e8 4e c9 ff ff       	call   80528fb <cmov_l_with_code_2_mv_constant_complex1>
 8055fad:	e8 32 ca ff ff       	call   80529e4 <cmov_l_with_code_2_mv_constant_complex2>
 8055fb2:	e8 17 cb ff ff       	call   8052ace <cmov_l_with_code_3_mv_plain>
 8055fb7:	e8 1d cb ff ff       	call   8052ad9 <cmov_l_with_code_3_mv_allregs>
 8055fbc:	e8 0c cc ff ff       	call   8052bcd <cmov_l_with_code_3_mv_constant_simple>
 8055fc1:	e8 f0 cc ff ff       	call   8052cb6 <cmov_l_with_code_3_mv_constant_complex1>
 8055fc6:	e8 d4 cd ff ff       	call   8052d9f <cmov_l_with_code_3_mv_constant_complex2>
 8055fcb:	e8 b9 ce ff ff       	call   8052e89 <cmov_l_with_code_4_mv_plain>
 8055fd0:	e8 bf ce ff ff       	call   8052e94 <cmov_l_with_code_4_mv_allregs>
 8055fd5:	e8 ae cf ff ff       	call   8052f88 <cmov_l_with_code_4_mv_constant_simple>
 8055fda:	e8 92 d0 ff ff       	call   8053071 <cmov_l_with_code_4_mv_constant_complex1>
 8055fdf:	e8 76 d1 ff ff       	call   805315a <cmov_l_with_code_4_mv_constant_complex2>
 8055fe4:	e8 5b d2 ff ff       	call   8053244 <cmov_l_with_code_5_mv_plain>
 8055fe9:	e8 61 d2 ff ff       	call   805324f <cmov_l_with_code_5_mv_allregs>
 8055fee:	e8 50 d3 ff ff       	call   8053343 <cmov_l_with_code_5_mv_constant_simple>
 8055ff3:	e8 34 d4 ff ff       	call   805342c <cmov_l_with_code_5_mv_constant_complex1>
 8055ff8:	e8 18 d5 ff ff       	call   8053515 <cmov_l_with_code_5_mv_constant_complex2>
 8055ffd:	e8 fd d5 ff ff       	call   80535ff <cmov_l_with_code_6_mv_plain>
 8056002:	e8 03 d6 ff ff       	call   805360a <cmov_l_with_code_6_mv_allregs>
 8056007:	e8 f2 d6 ff ff       	call   80536fe <cmov_l_with_code_6_mv_constant_simple>
 805600c:	e8 d6 d7 ff ff       	call   80537e7 <cmov_l_with_code_6_mv_constant_complex1>
 8056011:	e8 ba d8 ff ff       	call   80538d0 <cmov_l_with_code_6_mv_constant_complex2>
 8056016:	e8 9f d9 ff ff       	call   80539ba <cmov_l_with_code_7_mv_plain>
 805601b:	e8 a5 d9 ff ff       	call   80539c5 <cmov_l_with_code_7_mv_allregs>
 8056020:	e8 94 da ff ff       	call   8053ab9 <cmov_l_with_code_7_mv_constant_simple>
 8056025:	e8 78 db ff ff       	call   8053ba2 <cmov_l_with_code_7_mv_constant_complex1>
 805602a:	e8 5c dc ff ff       	call   8053c8b <cmov_l_with_code_7_mv_constant_complex2>
 805602f:	e8 41 dd ff ff       	call   8053d75 <cmov_l_with_code_8_mv_plain>
 8056034:	e8 47 dd ff ff       	call   8053d80 <cmov_l_with_code_8_mv_allregs>
 8056039:	e8 36 de ff ff       	call   8053e74 <cmov_l_with_code_8_mv_constant_simple>
 805603e:	e8 1a df ff ff       	call   8053f5d <cmov_l_with_code_8_mv_constant_complex1>
 8056043:	e8 fe df ff ff       	call   8054046 <cmov_l_with_code_8_mv_constant_complex2>
 8056048:	e8 e3 e0 ff ff       	call   8054130 <cmov_l_with_code_9_mv_plain>
 805604d:	e8 e9 e0 ff ff       	call   805413b <cmov_l_with_code_9_mv_allregs>
 8056052:	e8 d8 e1 ff ff       	call   805422f <cmov_l_with_code_9_mv_constant_simple>
 8056057:	e8 bc e2 ff ff       	call   8054318 <cmov_l_with_code_9_mv_constant_complex1>
 805605c:	e8 a0 e3 ff ff       	call   8054401 <cmov_l_with_code_9_mv_constant_complex2>
 8056061:	e8 85 e4 ff ff       	call   80544eb <cmov_l_with_code_a_mv_plain>
 8056066:	e8 8b e4 ff ff       	call   80544f6 <cmov_l_with_code_a_mv_allregs>
 805606b:	e8 7a e5 ff ff       	call   80545ea <cmov_l_with_code_a_mv_constant_simple>
 8056070:	e8 5e e6 ff ff       	call   80546d3 <cmov_l_with_code_a_mv_constant_complex1>
 8056075:	e8 42 e7 ff ff       	call   80547bc <cmov_l_with_code_a_mv_constant_complex2>
 805607a:	e8 27 e8 ff ff       	call   80548a6 <cmov_l_with_code_b_mv_plain>
 805607f:	e8 2d e8 ff ff       	call   80548b1 <cmov_l_with_code_b_mv_allregs>
 8056084:	e8 1c e9 ff ff       	call   80549a5 <cmov_l_with_code_b_mv_constant_simple>
 8056089:	e8 00 ea ff ff       	call   8054a8e <cmov_l_with_code_b_mv_constant_complex1>
 805608e:	e8 e4 ea ff ff       	call   8054b77 <cmov_l_with_code_b_mv_constant_complex2>
 8056093:	e8 c9 eb ff ff       	call   8054c61 <cmov_l_with_code_c_mv_plain>
 8056098:	e8 cf eb ff ff       	call   8054c6c <cmov_l_with_code_c_mv_allregs>
 805609d:	e8 be ec ff ff       	call   8054d60 <cmov_l_with_code_c_mv_constant_simple>
 80560a2:	e8 a2 ed ff ff       	call   8054e49 <cmov_l_with_code_c_mv_constant_complex1>
 80560a7:	e8 86 ee ff ff       	call   8054f32 <cmov_l_with_code_c_mv_constant_complex2>
 80560ac:	e8 6b ef ff ff       	call   805501c <cmov_l_with_code_d_mv_plain>
 80560b1:	e8 71 ef ff ff       	call   8055027 <cmov_l_with_code_d_mv_allregs>
 80560b6:	e8 60 f0 ff ff       	call   805511b <cmov_l_with_code_d_mv_constant_simple>
 80560bb:	e8 44 f1 ff ff       	call   8055204 <cmov_l_with_code_d_mv_constant_complex1>
 80560c0:	e8 28 f2 ff ff       	call   80552ed <cmov_l_with_code_d_mv_constant_complex2>
 80560c5:	e8 0d f3 ff ff       	call   80553d7 <cmov_l_with_code_e_mv_plain>
 80560ca:	e8 13 f3 ff ff       	call   80553e2 <cmov_l_with_code_e_mv_allregs>
 80560cf:	e8 02 f4 ff ff       	call   80554d6 <cmov_l_with_code_e_mv_constant_simple>
 80560d4:	e8 e6 f4 ff ff       	call   80555bf <cmov_l_with_code_e_mv_constant_complex1>
 80560d9:	e8 ca f5 ff ff       	call   80556a8 <cmov_l_with_code_e_mv_constant_complex2>
 80560de:	e8 af f6 ff ff       	call   8055792 <cmov_l_with_code_f_mv_plain>
 80560e3:	e8 b5 f6 ff ff       	call   805579d <cmov_l_with_code_f_mv_allregs>
 80560e8:	e8 a4 f7 ff ff       	call   8055891 <cmov_l_with_code_f_mv_constant_simple>
 80560ed:	e8 88 f8 ff ff       	call   805597a <cmov_l_with_code_f_mv_constant_complex1>
 80560f2:	e8 6c f9 ff ff       	call   8055a63 <cmov_l_with_code_f_mv_constant_complex2>
 80560f7:	90                   	nop

080560f8 <main>:
 80560f8:	55                   	push   %ebp
 80560f9:	89 e5                	mov    %esp,%ebp
 80560fb:	b8 00 00 00 00       	mov    $0x0,%eax
 8056100:	5d                   	pop    %ebp
 8056101:	c3                   	ret    
 8056102:	90                   	nop
 8056103:	90                   	nop
 8056104:	90                   	nop
 8056105:	90                   	nop
 8056106:	90                   	nop
 8056107:	90                   	nop
 8056108:	90                   	nop
 8056109:	90                   	nop
 805610a:	90                   	nop
 805610b:	90                   	nop
 805610c:	90                   	nop
 805610d:	90                   	nop
 805610e:	90                   	nop
 805610f:	90                   	nop

08056110 <__libc_csu_fini>:
 8056110:	55                   	push   %ebp
 8056111:	89 e5                	mov    %esp,%ebp
 8056113:	5d                   	pop    %ebp
 8056114:	c3                   	ret    
 8056115:	8d 74 26 00          	lea    0x0(%esi,%eiz,1),%esi
 8056119:	8d bc 27 00 00 00 00 	lea    0x0(%edi,%eiz,1),%edi

08056120 <__libc_csu_init>:
 8056120:	55                   	push   %ebp
 8056121:	89 e5                	mov    %esp,%ebp
 8056123:	57                   	push   %edi
 8056124:	56                   	push   %esi
 8056125:	53                   	push   %ebx
 8056126:	e8 4f 00 00 00       	call   805617a <__i686.get_pc_thunk.bx>
 805612b:	81 c3 29 12 00 00    	add    $0x1229,%ebx
 8056131:	83 ec 1c             	sub    $0x1c,%esp
 8056134:	e8 3b 21 ff ff       	call   8048274 <_init>
 8056139:	8d bb 20 ff ff ff    	lea    -0xe0(%ebx),%edi
 805613f:	8d 83 20 ff ff ff    	lea    -0xe0(%ebx),%eax
 8056145:	29 c7                	sub    %eax,%edi
 8056147:	c1 ff 02             	sar    $0x2,%edi
 805614a:	85 ff                	test   %edi,%edi
 805614c:	74 24                	je     8056172 <__libc_csu_init+0x52>
 805614e:	31 f6                	xor    %esi,%esi
 8056150:	8b 45 10             	mov    0x10(%ebp),%eax
 8056153:	89 44 24 08          	mov    %eax,0x8(%esp)
 8056157:	8b 45 0c             	mov    0xc(%ebp),%eax
 805615a:	89 44 24 04          	mov    %eax,0x4(%esp)
 805615e:	8b 45 08             	mov    0x8(%ebp),%eax
 8056161:	89 04 24             	mov    %eax,(%esp)
 8056164:	ff 94 b3 20 ff ff ff 	call   *-0xe0(%ebx,%esi,4)
 805616b:	83 c6 01             	add    $0x1,%esi
 805616e:	39 fe                	cmp    %edi,%esi
 8056170:	72 de                	jb     8056150 <__libc_csu_init+0x30>
 8056172:	83 c4 1c             	add    $0x1c,%esp
 8056175:	5b                   	pop    %ebx
 8056176:	5e                   	pop    %esi
 8056177:	5f                   	pop    %edi
 8056178:	5d                   	pop    %ebp
 8056179:	c3                   	ret    

0805617a <__i686.get_pc_thunk.bx>:
 805617a:	8b 1c 24             	mov    (%esp),%ebx
 805617d:	c3                   	ret    
 805617e:	90                   	nop
 805617f:	90                   	nop

08056180 <__do_global_ctors_aux>:
 8056180:	55                   	push   %ebp
 8056181:	89 e5                	mov    %esp,%ebp
 8056183:	53                   	push   %ebx
 8056184:	83 ec 04             	sub    $0x4,%esp
 8056187:	a1 74 72 05 08       	mov    0x8057274,%eax
 805618c:	83 f8 ff             	cmp    $0xffffffff,%eax
 805618f:	74 13                	je     80561a4 <__do_global_ctors_aux+0x24>
 8056191:	bb 74 72 05 08       	mov    $0x8057274,%ebx
 8056196:	66 90                	xchg   %ax,%ax
 8056198:	83 eb 04             	sub    $0x4,%ebx
 805619b:	ff d0                	call   *%eax
 805619d:	8b 03                	mov    (%ebx),%eax
 805619f:	83 f8 ff             	cmp    $0xffffffff,%eax
 80561a2:	75 f4                	jne    8056198 <__do_global_ctors_aux+0x18>
 80561a4:	83 c4 04             	add    $0x4,%esp
 80561a7:	5b                   	pop    %ebx
 80561a8:	5d                   	pop    %ebp
 80561a9:	c3                   	ret    
 80561aa:	90                   	nop
 80561ab:	90                   	nop

Disassembly of section .fini:

080561ac <_fini>:
 80561ac:	55                   	push   %ebp
 80561ad:	89 e5                	mov    %esp,%ebp
 80561af:	53                   	push   %ebx
 80561b0:	83 ec 04             	sub    $0x4,%esp
 80561b3:	e8 00 00 00 00       	call   80561b8 <_fini+0xc>
 80561b8:	5b                   	pop    %ebx
 80561b9:	81 c3 9c 11 00 00    	add    $0x119c,%ebx
 80561bf:	e8 4c 21 ff ff       	call   8048310 <__do_global_dtors_aux>
 80561c4:	59                   	pop    %ecx
 80561c5:	5b                   	pop    %ebx
 80561c6:	c9                   	leave  
 80561c7:	c3                   	ret    
