
        .section        .rodata.str1.1,"aMS",@progbits,1
.LC_ret:
        .string "exit block"

.LC_0:
        .string "block 0"

.LC_1:
        .string "block 1"

.LC_2:
        .string "block 2"

.LC_3:
        .string "block 3"

.LC_4:
        .string "block 4"

.LC_5:
        .string "block 5"

.LC_6:
        .string "block 6"

.LC_7:
        .string "block 7"

.LC_8:
        .string "block 8"

.LC_9:
        .string "block 9"

.LC_10:
        .string "block 10"

.LC_11:
        .string "block 11"

.LC_12:
        .string "block 12"

.LC_13:
        .string "block 13"

.LC_14:
        .string "block 14"

.LC_15:
        .string "block 15"

.LC_16:
        .string "block 16"

.LC_17:
        .string "block 17"

.LC_18:
        .string "block 18"

.LC_19:
        .string "block 19"

        .text
        .local  conditions
        .comm   conditions,4000,32
        .p2align 4,,15
        .type   initConditions, @function
initConditions:
.LFB0:
        .cfi_startproc
        pushl   %esi
        .cfi_def_cfa_offset 8
        .cfi_offset 6, -8
        pushl   %ebx
        .cfi_def_cfa_offset 12
        .cfi_offset 3, -12
        leal    1000(%eax), %ebx
        movl    %eax, %esi
        .p2align 4,,10
        .p2align 3
.L2:
        leal    1(%eax), %edx
        movl    %edx, %ecx
        subl    %esi, %ecx
        cmpl    %ebx, %edx
        movl    %eax, conditions-4(,%ecx,4)
        movl    %edx, %eax
        jne     .L2
        popl    %ebx
        .cfi_restore 3
        .cfi_def_cfa_offset 8
        popl    %esi
        .cfi_restore 6
        .cfi_def_cfa_offset 4
        ret
        .cfi_endproc
.LFE0:
        .size   initConditions, .-initConditions



        .type   test_1_blocks_variant_0_edges_2, @function
test_1_blocks_variant_0_edges_2:
# B0:
#   goto B2;
#
# B1:
#   return;
#
# B2:
#   goto B1;
#

.L_1_0_0:
        jmp .L_1_0_2
.L_1_0_1:
        pushl   $.LC_ret
        calll   puts
        addl    $4, %esp
        movl    $0, %eax
        ret        
        
.L_1_0_2:
        pushl   $.LC_2
        calll   puts
        addl    $4, %esp

        jmp    .L_1_0_1

.L_1_0_FE1:
        .size   test_1_blocks_variant_0_edges_2, .-test_1_blocks_variant_0_edges_2


        .type   test_1_blocks_variant_1_edges_3, @function
test_1_blocks_variant_1_edges_3:
# B0:
#   goto B2;
#
# B1:
#   return;
#
# B2:
#   if(...) goto B1;
#   goto B2;
#

.L_2_1_0:
        jmp .L_2_1_2
.L_2_1_1:
        pushl   $.LC_ret
        calll   puts
        addl    $4, %esp
        movl    $0, %eax
        ret        
        
.L_2_1_2:
        pushl   $.LC_2
        calll   puts
        addl    $4, %esp

        cmpl    $0, conditions+100
        je     .L_2_1_1

        jmp    .L_2_1_2

.L_2_1_FE1:
        .size   test_1_blocks_variant_1_edges_3, .-test_1_blocks_variant_1_edges_3


        .type   test_2_blocks_variant_0_edges_3, @function
test_2_blocks_variant_0_edges_3:
# B0:
#   goto B2;
#
# B1:
#   return;
#
# B2:
#   goto B3;
#
# B3:
#   goto B1;
#

.L_3_0_0:
        jmp .L_3_0_2
.L_3_0_1:
        pushl   $.LC_ret
        calll   puts
        addl    $4, %esp
        movl    $0, %eax
        ret        
        
.L_3_0_2:
        pushl   $.LC_2
        calll   puts
        addl    $4, %esp

        jmp    .L_3_0_3

.L_3_0_3:
        pushl   $.LC_3
        calll   puts
        addl    $4, %esp

        jmp    .L_3_0_1

.L_3_0_FE1:
        .size   test_2_blocks_variant_0_edges_3, .-test_2_blocks_variant_0_edges_3


        .type   test_2_blocks_variant_1_edges_4, @function
test_2_blocks_variant_1_edges_4:
# B0:
#   goto B2;
#
# B1:
#   return;
#
# B2:
#   goto B3;
#
# B3:
#   if(...) goto B1;
#   goto B2;
#

.L_4_1_0:
        jmp .L_4_1_2
.L_4_1_1:
        pushl   $.LC_ret
        calll   puts
        addl    $4, %esp
        movl    $0, %eax
        ret        
        
.L_4_1_2:
        pushl   $.LC_2
        calll   puts
        addl    $4, %esp

        jmp    .L_4_1_3

.L_4_1_3:
        pushl   $.LC_3
        calll   puts
        addl    $4, %esp

        cmpl    $0, conditions+100
        je     .L_4_1_1

        jmp    .L_4_1_2

.L_4_1_FE1:
        .size   test_2_blocks_variant_1_edges_4, .-test_2_blocks_variant_1_edges_4


        .type   test_2_blocks_variant_2_edges_4, @function
test_2_blocks_variant_2_edges_4:
# B0:
#   goto B2;
#
# B1:
#   return;
#
# B2:
#   goto B3;
#
# B3:
#   if(...) goto B1;
#   goto B3;
#

.L_5_2_0:
        jmp .L_5_2_2
.L_5_2_1:
        pushl   $.LC_ret
        calll   puts
        addl    $4, %esp
        movl    $0, %eax
        ret        
        
.L_5_2_2:
        pushl   $.LC_2
        calll   puts
        addl    $4, %esp

        jmp    .L_5_2_3

.L_5_2_3:
        pushl   $.LC_3
        calll   puts
        addl    $4, %esp

        cmpl    $0, conditions+100
        je     .L_5_2_1

        jmp    .L_5_2_3

.L_5_2_FE1:
        .size   test_2_blocks_variant_2_edges_4, .-test_2_blocks_variant_2_edges_4


        .type   test_2_blocks_variant_3_edges_4, @function
test_2_blocks_variant_3_edges_4:
# B0:
#   goto B2;
#
# B1:
#   return;
#
# B2:
#   if(...) goto B1;
#   goto B3;
#
# B3:
#   goto B1;
#

.L_6_3_0:
        jmp .L_6_3_2
.L_6_3_1:
        pushl   $.LC_ret
        calll   puts
        addl    $4, %esp
        movl    $0, %eax
        ret        
        
.L_6_3_2:
        pushl   $.LC_2
        calll   puts
        addl    $4, %esp

        cmpl    $0, conditions+100
        je     .L_6_3_1

        jmp    .L_6_3_3

.L_6_3_3:
        pushl   $.LC_3
        calll   puts
        addl    $4, %esp

        jmp    .L_6_3_1

.L_6_3_FE1:
        .size   test_2_blocks_variant_3_edges_4, .-test_2_blocks_variant_3_edges_4


        .type   test_2_blocks_variant_4_edges_4, @function
test_2_blocks_variant_4_edges_4:
# B0:
#   goto B2;
#
# B1:
#   return;
#
# B2:
#   if(...) goto B1;
#   goto B3;
#
# B3:
#   goto B2;
#

.L_7_4_0:
        jmp .L_7_4_2
.L_7_4_1:
        pushl   $.LC_ret
        calll   puts
        addl    $4, %esp
        movl    $0, %eax
        ret        
        
.L_7_4_2:
        pushl   $.LC_2
        calll   puts
        addl    $4, %esp

        cmpl    $0, conditions+100
        je     .L_7_4_1

        jmp    .L_7_4_3

.L_7_4_3:
        pushl   $.LC_3
        calll   puts
        addl    $4, %esp

        jmp    .L_7_4_2

.L_7_4_FE1:
        .size   test_2_blocks_variant_4_edges_4, .-test_2_blocks_variant_4_edges_4


        .type   test_2_blocks_variant_5_edges_4, @function
test_2_blocks_variant_5_edges_4:
# B0:
#   goto B2;
#
# B1:
#   return;
#
# B2:
#   if(...) goto B1;
#   goto B3;
#
# B3:
#   goto B3;
#

.L_8_5_0:
        jmp .L_8_5_2
.L_8_5_1:
        pushl   $.LC_ret
        calll   puts
        addl    $4, %esp
        movl    $0, %eax
        ret        
        
.L_8_5_2:
        pushl   $.LC_2
        calll   puts
        addl    $4, %esp

        cmpl    $0, conditions+100
        je     .L_8_5_1

        jmp    .L_8_5_3

.L_8_5_3:
        pushl   $.LC_3
        calll   puts
        addl    $4, %esp

        jmp    .L_8_5_3

.L_8_5_FE1:
        .size   test_2_blocks_variant_5_edges_4, .-test_2_blocks_variant_5_edges_4


        .type   test_2_blocks_variant_6_edges_4, @function
test_2_blocks_variant_6_edges_4:
# B0:
#   goto B2;
#
# B1:
#   return;
#
# B2:
#   if(...) goto B2;
#   goto B3;
#
# B3:
#   goto B1;
#

.L_9_6_0:
        jmp .L_9_6_2
.L_9_6_1:
        pushl   $.LC_ret
        calll   puts
        addl    $4, %esp
        movl    $0, %eax
        ret        
        
.L_9_6_2:
        pushl   $.LC_2
        calll   puts
        addl    $4, %esp

        cmpl    $0, conditions+100
        je     .L_9_6_2

        jmp    .L_9_6_3

.L_9_6_3:
        pushl   $.LC_3
        calll   puts
        addl    $4, %esp

        jmp    .L_9_6_1

.L_9_6_FE1:
        .size   test_2_blocks_variant_6_edges_4, .-test_2_blocks_variant_6_edges_4


        .type   test_2_blocks_variant_7_edges_5, @function
test_2_blocks_variant_7_edges_5:
# B0:
#   goto B2;
#
# B1:
#   return;
#
# B2:
#   goto B3;
#
# B3:
#   if(...) goto B1;
#   if(...) goto B2;
#   goto B3;
#

.L_10_7_0:
        jmp .L_10_7_2
.L_10_7_1:
        pushl   $.LC_ret
        calll   puts
        addl    $4, %esp
        movl    $0, %eax
        ret        
        
.L_10_7_2:
        pushl   $.LC_2
        calll   puts
        addl    $4, %esp

        jmp    .L_10_7_3

.L_10_7_3:
        pushl   $.LC_3
        calll   puts
        addl    $4, %esp

        cmpl    $0, conditions+100
        je     .L_10_7_1

        cmpl    $0, conditions+104
        je     .L_10_7_2

        jmp    .L_10_7_3

.L_10_7_FE1:
        .size   test_2_blocks_variant_7_edges_5, .-test_2_blocks_variant_7_edges_5


        .type   test_2_blocks_variant_8_edges_5, @function
test_2_blocks_variant_8_edges_5:
# B0:
#   goto B2;
#
# B1:
#   return;
#
# B2:
#   if(...) goto B1;
#   goto B3;
#
# B3:
#   if(...) goto B1;
#   goto B2;
#

.L_11_8_0:
        jmp .L_11_8_2
.L_11_8_1:
        pushl   $.LC_ret
        calll   puts
        addl    $4, %esp
        movl    $0, %eax
        ret        
        
.L_11_8_2:
        pushl   $.LC_2
        calll   puts
        addl    $4, %esp

        cmpl    $0, conditions+100
        je     .L_11_8_1

        jmp    .L_11_8_3

.L_11_8_3:
        pushl   $.LC_3
        calll   puts
        addl    $4, %esp

        cmpl    $0, conditions+104
        je     .L_11_8_1

        jmp    .L_11_8_2

.L_11_8_FE1:
        .size   test_2_blocks_variant_8_edges_5, .-test_2_blocks_variant_8_edges_5


        .type   test_2_blocks_variant_9_edges_5, @function
test_2_blocks_variant_9_edges_5:
# B0:
#   goto B2;
#
# B1:
#   return;
#
# B2:
#   if(...) goto B1;
#   goto B3;
#
# B3:
#   if(...) goto B1;
#   goto B3;
#

.L_12_9_0:
        jmp .L_12_9_2
.L_12_9_1:
        pushl   $.LC_ret
        calll   puts
        addl    $4, %esp
        movl    $0, %eax
        ret        
        
.L_12_9_2:
        pushl   $.LC_2
        calll   puts
        addl    $4, %esp

        cmpl    $0, conditions+100
        je     .L_12_9_1

        jmp    .L_12_9_3

.L_12_9_3:
        pushl   $.LC_3
        calll   puts
        addl    $4, %esp

        cmpl    $0, conditions+104
        je     .L_12_9_1

        jmp    .L_12_9_3

.L_12_9_FE1:
        .size   test_2_blocks_variant_9_edges_5, .-test_2_blocks_variant_9_edges_5


        .type   test_2_blocks_variant_10_edges_5, @function
test_2_blocks_variant_10_edges_5:
# B0:
#   goto B2;
#
# B1:
#   return;
#
# B2:
#   if(...) goto B1;
#   goto B3;
#
# B3:
#   if(...) goto B2;
#   goto B3;
#

.L_13_10_0:
        jmp .L_13_10_2
.L_13_10_1:
        pushl   $.LC_ret
        calll   puts
        addl    $4, %esp
        movl    $0, %eax
        ret        
        
.L_13_10_2:
        pushl   $.LC_2
        calll   puts
        addl    $4, %esp

        cmpl    $0, conditions+100
        je     .L_13_10_1

        jmp    .L_13_10_3

.L_13_10_3:
        pushl   $.LC_3
        calll   puts
        addl    $4, %esp

        cmpl    $0, conditions+104
        je     .L_13_10_2

        jmp    .L_13_10_3

.L_13_10_FE1:
        .size   test_2_blocks_variant_10_edges_5, .-test_2_blocks_variant_10_edges_5


        .type   test_2_blocks_variant_11_edges_5, @function
test_2_blocks_variant_11_edges_5:
# B0:
#   goto B2;
#
# B1:
#   return;
#
# B2:
#   if(...) goto B2;
#   goto B3;
#
# B3:
#   if(...) goto B1;
#   goto B2;
#

.L_14_11_0:
        jmp .L_14_11_2
.L_14_11_1:
        pushl   $.LC_ret
        calll   puts
        addl    $4, %esp
        movl    $0, %eax
        ret        
        
.L_14_11_2:
        pushl   $.LC_2
        calll   puts
        addl    $4, %esp

        cmpl    $0, conditions+100
        je     .L_14_11_2

        jmp    .L_14_11_3

.L_14_11_3:
        pushl   $.LC_3
        calll   puts
        addl    $4, %esp

        cmpl    $0, conditions+104
        je     .L_14_11_1

        jmp    .L_14_11_2

.L_14_11_FE1:
        .size   test_2_blocks_variant_11_edges_5, .-test_2_blocks_variant_11_edges_5


        .type   test_2_blocks_variant_12_edges_5, @function
test_2_blocks_variant_12_edges_5:
# B0:
#   goto B2;
#
# B1:
#   return;
#
# B2:
#   if(...) goto B2;
#   goto B3;
#
# B3:
#   if(...) goto B1;
#   goto B3;
#

.L_15_12_0:
        jmp .L_15_12_2
.L_15_12_1:
        pushl   $.LC_ret
        calll   puts
        addl    $4, %esp
        movl    $0, %eax
        ret        
        
.L_15_12_2:
        pushl   $.LC_2
        calll   puts
        addl    $4, %esp

        cmpl    $0, conditions+100
        je     .L_15_12_2

        jmp    .L_15_12_3

.L_15_12_3:
        pushl   $.LC_3
        calll   puts
        addl    $4, %esp

        cmpl    $0, conditions+104
        je     .L_15_12_1

        jmp    .L_15_12_3

.L_15_12_FE1:
        .size   test_2_blocks_variant_12_edges_5, .-test_2_blocks_variant_12_edges_5


        .type   test_2_blocks_variant_13_edges_5, @function
test_2_blocks_variant_13_edges_5:
# B0:
#   goto B2;
#
# B1:
#   return;
#
# B2:
#   if(...) goto B1;
#   if(...) goto B2;
#   goto B3;
#
# B3:
#   goto B1;
#

.L_16_13_0:
        jmp .L_16_13_2
.L_16_13_1:
        pushl   $.LC_ret
        calll   puts
        addl    $4, %esp
        movl    $0, %eax
        ret        
        
.L_16_13_2:
        pushl   $.LC_2
        calll   puts
        addl    $4, %esp

        cmpl    $0, conditions+100
        je     .L_16_13_1

        cmpl    $0, conditions+104
        je     .L_16_13_2

        jmp    .L_16_13_3

.L_16_13_3:
        pushl   $.LC_3
        calll   puts
        addl    $4, %esp

        jmp    .L_16_13_1

.L_16_13_FE1:
        .size   test_2_blocks_variant_13_edges_5, .-test_2_blocks_variant_13_edges_5


        .type   test_2_blocks_variant_14_edges_5, @function
test_2_blocks_variant_14_edges_5:
# B0:
#   goto B2;
#
# B1:
#   return;
#
# B2:
#   if(...) goto B1;
#   if(...) goto B2;
#   goto B3;
#
# B3:
#   goto B2;
#

.L_17_14_0:
        jmp .L_17_14_2
.L_17_14_1:
        pushl   $.LC_ret
        calll   puts
        addl    $4, %esp
        movl    $0, %eax
        ret        
        
.L_17_14_2:
        pushl   $.LC_2
        calll   puts
        addl    $4, %esp

        cmpl    $0, conditions+100
        je     .L_17_14_1

        cmpl    $0, conditions+104
        je     .L_17_14_2

        jmp    .L_17_14_3

.L_17_14_3:
        pushl   $.LC_3
        calll   puts
        addl    $4, %esp

        jmp    .L_17_14_2

.L_17_14_FE1:
        .size   test_2_blocks_variant_14_edges_5, .-test_2_blocks_variant_14_edges_5


        .type   test_2_blocks_variant_15_edges_5, @function
test_2_blocks_variant_15_edges_5:
# B0:
#   goto B2;
#
# B1:
#   return;
#
# B2:
#   if(...) goto B1;
#   if(...) goto B2;
#   goto B3;
#
# B3:
#   goto B3;
#

.L_18_15_0:
        jmp .L_18_15_2
.L_18_15_1:
        pushl   $.LC_ret
        calll   puts
        addl    $4, %esp
        movl    $0, %eax
        ret        
        
.L_18_15_2:
        pushl   $.LC_2
        calll   puts
        addl    $4, %esp

        cmpl    $0, conditions+100
        je     .L_18_15_1

        cmpl    $0, conditions+104
        je     .L_18_15_2

        jmp    .L_18_15_3

.L_18_15_3:
        pushl   $.LC_3
        calll   puts
        addl    $4, %esp

        jmp    .L_18_15_3

.L_18_15_FE1:
        .size   test_2_blocks_variant_15_edges_5, .-test_2_blocks_variant_15_edges_5


        .type   test_2_blocks_variant_16_edges_6, @function
test_2_blocks_variant_16_edges_6:
# B0:
#   goto B2;
#
# B1:
#   return;
#
# B2:
#   if(...) goto B1;
#   goto B3;
#
# B3:
#   if(...) goto B1;
#   if(...) goto B2;
#   goto B3;
#

.L_19_16_0:
        jmp .L_19_16_2
.L_19_16_1:
        pushl   $.LC_ret
        calll   puts
        addl    $4, %esp
        movl    $0, %eax
        ret        
        
.L_19_16_2:
        pushl   $.LC_2
        calll   puts
        addl    $4, %esp

        cmpl    $0, conditions+100
        je     .L_19_16_1

        jmp    .L_19_16_3

.L_19_16_3:
        pushl   $.LC_3
        calll   puts
        addl    $4, %esp

        cmpl    $0, conditions+104
        je     .L_19_16_1

        cmpl    $0, conditions+108
        je     .L_19_16_2

        jmp    .L_19_16_3

.L_19_16_FE1:
        .size   test_2_blocks_variant_16_edges_6, .-test_2_blocks_variant_16_edges_6


        .type   test_2_blocks_variant_17_edges_6, @function
test_2_blocks_variant_17_edges_6:
# B0:
#   goto B2;
#
# B1:
#   return;
#
# B2:
#   if(...) goto B2;
#   goto B3;
#
# B3:
#   if(...) goto B1;
#   if(...) goto B2;
#   goto B3;
#

.L_20_17_0:
        jmp .L_20_17_2
.L_20_17_1:
        pushl   $.LC_ret
        calll   puts
        addl    $4, %esp
        movl    $0, %eax
        ret        
        
.L_20_17_2:
        pushl   $.LC_2
        calll   puts
        addl    $4, %esp

        cmpl    $0, conditions+100
        je     .L_20_17_2

        jmp    .L_20_17_3

.L_20_17_3:
        pushl   $.LC_3
        calll   puts
        addl    $4, %esp

        cmpl    $0, conditions+104
        je     .L_20_17_1

        cmpl    $0, conditions+108
        je     .L_20_17_2

        jmp    .L_20_17_3

.L_20_17_FE1:
        .size   test_2_blocks_variant_17_edges_6, .-test_2_blocks_variant_17_edges_6


        .type   test_2_blocks_variant_18_edges_6, @function
test_2_blocks_variant_18_edges_6:
# B0:
#   goto B2;
#
# B1:
#   return;
#
# B2:
#   if(...) goto B1;
#   if(...) goto B2;
#   goto B3;
#
# B3:
#   if(...) goto B1;
#   goto B2;
#

.L_21_18_0:
        jmp .L_21_18_2
.L_21_18_1:
        pushl   $.LC_ret
        calll   puts
        addl    $4, %esp
        movl    $0, %eax
        ret        
        
.L_21_18_2:
        pushl   $.LC_2
        calll   puts
        addl    $4, %esp

        cmpl    $0, conditions+100
        je     .L_21_18_1

        cmpl    $0, conditions+104
        je     .L_21_18_2

        jmp    .L_21_18_3

.L_21_18_3:
        pushl   $.LC_3
        calll   puts
        addl    $4, %esp

        cmpl    $0, conditions+108
        je     .L_21_18_1

        jmp    .L_21_18_2

.L_21_18_FE1:
        .size   test_2_blocks_variant_18_edges_6, .-test_2_blocks_variant_18_edges_6


        .type   test_2_blocks_variant_19_edges_6, @function
test_2_blocks_variant_19_edges_6:
# B0:
#   goto B2;
#
# B1:
#   return;
#
# B2:
#   if(...) goto B1;
#   if(...) goto B2;
#   goto B3;
#
# B3:
#   if(...) goto B1;
#   goto B3;
#

.L_22_19_0:
        jmp .L_22_19_2
.L_22_19_1:
        pushl   $.LC_ret
        calll   puts
        addl    $4, %esp
        movl    $0, %eax
        ret        
        
.L_22_19_2:
        pushl   $.LC_2
        calll   puts
        addl    $4, %esp

        cmpl    $0, conditions+100
        je     .L_22_19_1

        cmpl    $0, conditions+104
        je     .L_22_19_2

        jmp    .L_22_19_3

.L_22_19_3:
        pushl   $.LC_3
        calll   puts
        addl    $4, %esp

        cmpl    $0, conditions+108
        je     .L_22_19_1

        jmp    .L_22_19_3

.L_22_19_FE1:
        .size   test_2_blocks_variant_19_edges_6, .-test_2_blocks_variant_19_edges_6


        .type   test_2_blocks_variant_20_edges_6, @function
test_2_blocks_variant_20_edges_6:
# B0:
#   goto B2;
#
# B1:
#   return;
#
# B2:
#   if(...) goto B1;
#   if(...) goto B2;
#   goto B3;
#
# B3:
#   if(...) goto B2;
#   goto B3;
#

.L_23_20_0:
        jmp .L_23_20_2
.L_23_20_1:
        pushl   $.LC_ret
        calll   puts
        addl    $4, %esp
        movl    $0, %eax
        ret        
        
.L_23_20_2:
        pushl   $.LC_2
        calll   puts
        addl    $4, %esp

        cmpl    $0, conditions+100
        je     .L_23_20_1

        cmpl    $0, conditions+104
        je     .L_23_20_2

        jmp    .L_23_20_3

.L_23_20_3:
        pushl   $.LC_3
        calll   puts
        addl    $4, %esp

        cmpl    $0, conditions+108
        je     .L_23_20_2

        jmp    .L_23_20_3

.L_23_20_FE1:
        .size   test_2_blocks_variant_20_edges_6, .-test_2_blocks_variant_20_edges_6


        .type   test_2_blocks_variant_21_edges_7, @function
test_2_blocks_variant_21_edges_7:
# B0:
#   goto B2;
#
# B1:
#   return;
#
# B2:
#   if(...) goto B1;
#   if(...) goto B2;
#   goto B3;
#
# B3:
#   if(...) goto B1;
#   if(...) goto B2;
#   goto B3;
#

.L_24_21_0:
        jmp .L_24_21_2
.L_24_21_1:
        pushl   $.LC_ret
        calll   puts
        addl    $4, %esp
        movl    $0, %eax
        ret        
        
.L_24_21_2:
        pushl   $.LC_2
        calll   puts
        addl    $4, %esp

        cmpl    $0, conditions+100
        je     .L_24_21_1

        cmpl    $0, conditions+104
        je     .L_24_21_2

        jmp    .L_24_21_3

.L_24_21_3:
        pushl   $.LC_3
        calll   puts
        addl    $4, %esp

        cmpl    $0, conditions+108
        je     .L_24_21_1

        cmpl    $0, conditions+112
        je     .L_24_21_2

        jmp    .L_24_21_3

.L_24_21_FE1:
        .size   test_2_blocks_variant_21_edges_7, .-test_2_blocks_variant_21_edges_7


        .type   test_3_blocks_variant_0_edges_4, @function
test_3_blocks_variant_0_edges_4:
# B0:
#   goto B2;
#
# B1:
#   return;
#
# B2:
#   goto B3;
#
# B3:
#   goto B4;
#
# B4:
#   goto B1;
#

.L_25_0_0:
        jmp .L_25_0_2
.L_25_0_1:
        pushl   $.LC_ret
        calll   puts
        addl    $4, %esp
        movl    $0, %eax
        ret        
        
.L_25_0_2:
        pushl   $.LC_2
        calll   puts
        addl    $4, %esp

        jmp    .L_25_0_3

.L_25_0_3:
        pushl   $.LC_3
        calll   puts
        addl    $4, %esp

        jmp    .L_25_0_4

.L_25_0_4:
        pushl   $.LC_4
        calll   puts
        addl    $4, %esp

        jmp    .L_25_0_1

.L_25_0_FE1:
        .size   test_3_blocks_variant_0_edges_4, .-test_3_blocks_variant_0_edges_4


        .type   test_3_blocks_variant_1_edges_5, @function
test_3_blocks_variant_1_edges_5:
# B0:
#   goto B2;
#
# B1:
#   return;
#
# B2:
#   goto B3;
#
# B3:
#   goto B4;
#
# B4:
#   if(...) goto B1;
#   goto B2;
#

.L_26_1_0:
        jmp .L_26_1_2
.L_26_1_1:
        pushl   $.LC_ret
        calll   puts
        addl    $4, %esp
        movl    $0, %eax
        ret        
        
.L_26_1_2:
        pushl   $.LC_2
        calll   puts
        addl    $4, %esp

        jmp    .L_26_1_3

.L_26_1_3:
        pushl   $.LC_3
        calll   puts
        addl    $4, %esp

        jmp    .L_26_1_4

.L_26_1_4:
        pushl   $.LC_4
        calll   puts
        addl    $4, %esp

        cmpl    $0, conditions+100
        je     .L_26_1_1

        jmp    .L_26_1_2

.L_26_1_FE1:
        .size   test_3_blocks_variant_1_edges_5, .-test_3_blocks_variant_1_edges_5


        .type   test_3_blocks_variant_2_edges_5, @function
test_3_blocks_variant_2_edges_5:
# B0:
#   goto B2;
#
# B1:
#   return;
#
# B2:
#   goto B3;
#
# B3:
#   goto B4;
#
# B4:
#   if(...) goto B1;
#   goto B3;
#

.L_27_2_0:
        jmp .L_27_2_2
.L_27_2_1:
        pushl   $.LC_ret
        calll   puts
        addl    $4, %esp
        movl    $0, %eax
        ret        
        
.L_27_2_2:
        pushl   $.LC_2
        calll   puts
        addl    $4, %esp

        jmp    .L_27_2_3

.L_27_2_3:
        pushl   $.LC_3
        calll   puts
        addl    $4, %esp

        jmp    .L_27_2_4

.L_27_2_4:
        pushl   $.LC_4
        calll   puts
        addl    $4, %esp

        cmpl    $0, conditions+100
        je     .L_27_2_1

        jmp    .L_27_2_3

.L_27_2_FE1:
        .size   test_3_blocks_variant_2_edges_5, .-test_3_blocks_variant_2_edges_5


        .type   test_3_blocks_variant_3_edges_5, @function
test_3_blocks_variant_3_edges_5:
# B0:
#   goto B2;
#
# B1:
#   return;
#
# B2:
#   goto B3;
#
# B3:
#   goto B4;
#
# B4:
#   if(...) goto B1;
#   goto B4;
#

.L_28_3_0:
        jmp .L_28_3_2
.L_28_3_1:
        pushl   $.LC_ret
        calll   puts
        addl    $4, %esp
        movl    $0, %eax
        ret        
        
.L_28_3_2:
        pushl   $.LC_2
        calll   puts
        addl    $4, %esp

        jmp    .L_28_3_3

.L_28_3_3:
        pushl   $.LC_3
        calll   puts
        addl    $4, %esp

        jmp    .L_28_3_4

.L_28_3_4:
        pushl   $.LC_4
        calll   puts
        addl    $4, %esp

        cmpl    $0, conditions+100
        je     .L_28_3_1

        jmp    .L_28_3_4

.L_28_3_FE1:
        .size   test_3_blocks_variant_3_edges_5, .-test_3_blocks_variant_3_edges_5


        .type   test_3_blocks_variant_4_edges_5, @function
test_3_blocks_variant_4_edges_5:
# B0:
#   goto B2;
#
# B1:
#   return;
#
# B2:
#   goto B3;
#
# B3:
#   if(...) goto B1;
#   goto B4;
#
# B4:
#   goto B1;
#

.L_29_4_0:
        jmp .L_29_4_2
.L_29_4_1:
        pushl   $.LC_ret
        calll   puts
        addl    $4, %esp
        movl    $0, %eax
        ret        
        
.L_29_4_2:
        pushl   $.LC_2
        calll   puts
        addl    $4, %esp

        jmp    .L_29_4_3

.L_29_4_3:
        pushl   $.LC_3
        calll   puts
        addl    $4, %esp

        cmpl    $0, conditions+100
        je     .L_29_4_1

        jmp    .L_29_4_4

.L_29_4_4:
        pushl   $.LC_4
        calll   puts
        addl    $4, %esp

        jmp    .L_29_4_1

.L_29_4_FE1:
        .size   test_3_blocks_variant_4_edges_5, .-test_3_blocks_variant_4_edges_5


        .type   test_3_blocks_variant_5_edges_5, @function
test_3_blocks_variant_5_edges_5:
# B0:
#   goto B2;
#
# B1:
#   return;
#
# B2:
#   goto B3;
#
# B3:
#   if(...) goto B1;
#   goto B4;
#
# B4:
#   goto B2;
#

.L_30_5_0:
        jmp .L_30_5_2
.L_30_5_1:
        pushl   $.LC_ret
        calll   puts
        addl    $4, %esp
        movl    $0, %eax
        ret        
        
.L_30_5_2:
        pushl   $.LC_2
        calll   puts
        addl    $4, %esp

        jmp    .L_30_5_3

.L_30_5_3:
        pushl   $.LC_3
        calll   puts
        addl    $4, %esp

        cmpl    $0, conditions+100
        je     .L_30_5_1

        jmp    .L_30_5_4

.L_30_5_4:
        pushl   $.LC_4
        calll   puts
        addl    $4, %esp

        jmp    .L_30_5_2

.L_30_5_FE1:
        .size   test_3_blocks_variant_5_edges_5, .-test_3_blocks_variant_5_edges_5


        .type   test_3_blocks_variant_6_edges_5, @function
test_3_blocks_variant_6_edges_5:
# B0:
#   goto B2;
#
# B1:
#   return;
#
# B2:
#   goto B3;
#
# B3:
#   if(...) goto B1;
#   goto B4;
#
# B4:
#   goto B3;
#

.L_31_6_0:
        jmp .L_31_6_2
.L_31_6_1:
        pushl   $.LC_ret
        calll   puts
        addl    $4, %esp
        movl    $0, %eax
        ret        
        
.L_31_6_2:
        pushl   $.LC_2
        calll   puts
        addl    $4, %esp

        jmp    .L_31_6_3

.L_31_6_3:
        pushl   $.LC_3
        calll   puts
        addl    $4, %esp

        cmpl    $0, conditions+100
        je     .L_31_6_1

        jmp    .L_31_6_4

.L_31_6_4:
        pushl   $.LC_4
        calll   puts
        addl    $4, %esp

        jmp    .L_31_6_3

.L_31_6_FE1:
        .size   test_3_blocks_variant_6_edges_5, .-test_3_blocks_variant_6_edges_5


        .type   test_3_blocks_variant_7_edges_5, @function
test_3_blocks_variant_7_edges_5:
# B0:
#   goto B2;
#
# B1:
#   return;
#
# B2:
#   goto B3;
#
# B3:
#   if(...) goto B1;
#   goto B4;
#
# B4:
#   goto B4;
#

.L_32_7_0:
        jmp .L_32_7_2
.L_32_7_1:
        pushl   $.LC_ret
        calll   puts
        addl    $4, %esp
        movl    $0, %eax
        ret        
        
.L_32_7_2:
        pushl   $.LC_2
        calll   puts
        addl    $4, %esp

        jmp    .L_32_7_3

.L_32_7_3:
        pushl   $.LC_3
        calll   puts
        addl    $4, %esp

        cmpl    $0, conditions+100
        je     .L_32_7_1

        jmp    .L_32_7_4

.L_32_7_4:
        pushl   $.LC_4
        calll   puts
        addl    $4, %esp

        jmp    .L_32_7_4

.L_32_7_FE1:
        .size   test_3_blocks_variant_7_edges_5, .-test_3_blocks_variant_7_edges_5


        .type   test_3_blocks_variant_8_edges_5, @function
test_3_blocks_variant_8_edges_5:
# B0:
#   goto B2;
#
# B1:
#   return;
#
# B2:
#   goto B3;
#
# B3:
#   if(...) goto B2;
#   goto B4;
#
# B4:
#   goto B1;
#

.L_33_8_0:
        jmp .L_33_8_2
.L_33_8_1:
        pushl   $.LC_ret
        calll   puts
        addl    $4, %esp
        movl    $0, %eax
        ret        
        
.L_33_8_2:
        pushl   $.LC_2
        calll   puts
        addl    $4, %esp

        jmp    .L_33_8_3

.L_33_8_3:
        pushl   $.LC_3
        calll   puts
        addl    $4, %esp

        cmpl    $0, conditions+100
        je     .L_33_8_2

        jmp    .L_33_8_4

.L_33_8_4:
        pushl   $.LC_4
        calll   puts
        addl    $4, %esp

        jmp    .L_33_8_1

.L_33_8_FE1:
        .size   test_3_blocks_variant_8_edges_5, .-test_3_blocks_variant_8_edges_5


        .type   test_3_blocks_variant_9_edges_5, @function
test_3_blocks_variant_9_edges_5:
# B0:
#   goto B2;
#
# B1:
#   return;
#
# B2:
#   goto B3;
#
# B3:
#   if(...) goto B3;
#   goto B4;
#
# B4:
#   goto B1;
#

.L_34_9_0:
        jmp .L_34_9_2
.L_34_9_1:
        pushl   $.LC_ret
        calll   puts
        addl    $4, %esp
        movl    $0, %eax
        ret        
        
.L_34_9_2:
        pushl   $.LC_2
        calll   puts
        addl    $4, %esp

        jmp    .L_34_9_3

.L_34_9_3:
        pushl   $.LC_3
        calll   puts
        addl    $4, %esp

        cmpl    $0, conditions+100
        je     .L_34_9_3

        jmp    .L_34_9_4

.L_34_9_4:
        pushl   $.LC_4
        calll   puts
        addl    $4, %esp

        jmp    .L_34_9_1

.L_34_9_FE1:
        .size   test_3_blocks_variant_9_edges_5, .-test_3_blocks_variant_9_edges_5


        .type   test_3_blocks_variant_10_edges_5, @function
test_3_blocks_variant_10_edges_5:
# B0:
#   goto B2;
#
# B1:
#   return;
#
# B2:
#   if(...) goto B1;
#   goto B3;
#
# B3:
#   goto B4;
#
# B4:
#   goto B1;
#

.L_35_10_0:
        jmp .L_35_10_2
.L_35_10_1:
        pushl   $.LC_ret
        calll   puts
        addl    $4, %esp
        movl    $0, %eax
        ret        
        
.L_35_10_2:
        pushl   $.LC_2
        calll   puts
        addl    $4, %esp

        cmpl    $0, conditions+100
        je     .L_35_10_1

        jmp    .L_35_10_3

.L_35_10_3:
        pushl   $.LC_3
        calll   puts
        addl    $4, %esp

        jmp    .L_35_10_4

.L_35_10_4:
        pushl   $.LC_4
        calll   puts
        addl    $4, %esp

        jmp    .L_35_10_1

.L_35_10_FE1:
        .size   test_3_blocks_variant_10_edges_5, .-test_3_blocks_variant_10_edges_5


        .type   test_3_blocks_variant_11_edges_5, @function
test_3_blocks_variant_11_edges_5:
# B0:
#   goto B2;
#
# B1:
#   return;
#
# B2:
#   if(...) goto B1;
#   goto B3;
#
# B3:
#   goto B4;
#
# B4:
#   goto B2;
#

.L_36_11_0:
        jmp .L_36_11_2
.L_36_11_1:
        pushl   $.LC_ret
        calll   puts
        addl    $4, %esp
        movl    $0, %eax
        ret        
        
.L_36_11_2:
        pushl   $.LC_2
        calll   puts
        addl    $4, %esp

        cmpl    $0, conditions+100
        je     .L_36_11_1

        jmp    .L_36_11_3

.L_36_11_3:
        pushl   $.LC_3
        calll   puts
        addl    $4, %esp

        jmp    .L_36_11_4

.L_36_11_4:
        pushl   $.LC_4
        calll   puts
        addl    $4, %esp

        jmp    .L_36_11_2

.L_36_11_FE1:
        .size   test_3_blocks_variant_11_edges_5, .-test_3_blocks_variant_11_edges_5


        .type   test_3_blocks_variant_12_edges_5, @function
test_3_blocks_variant_12_edges_5:
# B0:
#   goto B2;
#
# B1:
#   return;
#
# B2:
#   if(...) goto B1;
#   goto B3;
#
# B3:
#   goto B4;
#
# B4:
#   goto B3;
#

.L_37_12_0:
        jmp .L_37_12_2
.L_37_12_1:
        pushl   $.LC_ret
        calll   puts
        addl    $4, %esp
        movl    $0, %eax
        ret        
        
.L_37_12_2:
        pushl   $.LC_2
        calll   puts
        addl    $4, %esp

        cmpl    $0, conditions+100
        je     .L_37_12_1

        jmp    .L_37_12_3

.L_37_12_3:
        pushl   $.LC_3
        calll   puts
        addl    $4, %esp

        jmp    .L_37_12_4

.L_37_12_4:
        pushl   $.LC_4
        calll   puts
        addl    $4, %esp

        jmp    .L_37_12_3

.L_37_12_FE1:
        .size   test_3_blocks_variant_12_edges_5, .-test_3_blocks_variant_12_edges_5


        .type   test_3_blocks_variant_13_edges_5, @function
test_3_blocks_variant_13_edges_5:
# B0:
#   goto B2;
#
# B1:
#   return;
#
# B2:
#   if(...) goto B1;
#   goto B3;
#
# B3:
#   goto B4;
#
# B4:
#   goto B4;
#

.L_38_13_0:
        jmp .L_38_13_2
.L_38_13_1:
        pushl   $.LC_ret
        calll   puts
        addl    $4, %esp
        movl    $0, %eax
        ret        
        
.L_38_13_2:
        pushl   $.LC_2
        calll   puts
        addl    $4, %esp

        cmpl    $0, conditions+100
        je     .L_38_13_1

        jmp    .L_38_13_3

.L_38_13_3:
        pushl   $.LC_3
        calll   puts
        addl    $4, %esp

        jmp    .L_38_13_4

.L_38_13_4:
        pushl   $.LC_4
        calll   puts
        addl    $4, %esp

        jmp    .L_38_13_4

.L_38_13_FE1:
        .size   test_3_blocks_variant_13_edges_5, .-test_3_blocks_variant_13_edges_5


        .type   test_3_blocks_variant_14_edges_5, @function
test_3_blocks_variant_14_edges_5:
# B0:
#   goto B2;
#
# B1:
#   return;
#
# B2:
#   if(...) goto B2;
#   goto B3;
#
# B3:
#   goto B4;
#
# B4:
#   goto B1;
#

.L_39_14_0:
        jmp .L_39_14_2
.L_39_14_1:
        pushl   $.LC_ret
        calll   puts
        addl    $4, %esp
        movl    $0, %eax
        ret        
        
.L_39_14_2:
        pushl   $.LC_2
        calll   puts
        addl    $4, %esp

        cmpl    $0, conditions+100
        je     .L_39_14_2

        jmp    .L_39_14_3

.L_39_14_3:
        pushl   $.LC_3
        calll   puts
        addl    $4, %esp

        jmp    .L_39_14_4

.L_39_14_4:
        pushl   $.LC_4
        calll   puts
        addl    $4, %esp

        jmp    .L_39_14_1

.L_39_14_FE1:
        .size   test_3_blocks_variant_14_edges_5, .-test_3_blocks_variant_14_edges_5


        .type   test_3_blocks_variant_15_edges_5, @function
test_3_blocks_variant_15_edges_5:
# B0:
#   goto B2;
#
# B1:
#   return;
#
# B2:
#   if(...) goto B3;
#   goto B4;
#
# B3:
#   goto B1;
#
# B4:
#   goto B1;
#

.L_40_15_0:
        jmp .L_40_15_2
.L_40_15_1:
        pushl   $.LC_ret
        calll   puts
        addl    $4, %esp
        movl    $0, %eax
        ret        
        
.L_40_15_2:
        pushl   $.LC_2
        calll   puts
        addl    $4, %esp

        cmpl    $0, conditions+100
        je     .L_40_15_3

        jmp    .L_40_15_4

.L_40_15_3:
        pushl   $.LC_3
        calll   puts
        addl    $4, %esp

        jmp    .L_40_15_1

.L_40_15_4:
        pushl   $.LC_4
        calll   puts
        addl    $4, %esp

        jmp    .L_40_15_1

.L_40_15_FE1:
        .size   test_3_blocks_variant_15_edges_5, .-test_3_blocks_variant_15_edges_5


        .type   test_3_blocks_variant_16_edges_5, @function
test_3_blocks_variant_16_edges_5:
# B0:
#   goto B2;
#
# B1:
#   return;
#
# B2:
#   if(...) goto B3;
#   goto B4;
#
# B3:
#   goto B1;
#
# B4:
#   goto B2;
#

.L_41_16_0:
        jmp .L_41_16_2
.L_41_16_1:
        pushl   $.LC_ret
        calll   puts
        addl    $4, %esp
        movl    $0, %eax
        ret        
        
.L_41_16_2:
        pushl   $.LC_2
        calll   puts
        addl    $4, %esp

        cmpl    $0, conditions+100
        je     .L_41_16_3

        jmp    .L_41_16_4

.L_41_16_3:
        pushl   $.LC_3
        calll   puts
        addl    $4, %esp

        jmp    .L_41_16_1

.L_41_16_4:
        pushl   $.LC_4
        calll   puts
        addl    $4, %esp

        jmp    .L_41_16_2

.L_41_16_FE1:
        .size   test_3_blocks_variant_16_edges_5, .-test_3_blocks_variant_16_edges_5


        .type   test_3_blocks_variant_17_edges_5, @function
test_3_blocks_variant_17_edges_5:
# B0:
#   goto B2;
#
# B1:
#   return;
#
# B2:
#   if(...) goto B3;
#   goto B4;
#
# B3:
#   goto B1;
#
# B4:
#   goto B3;
#

.L_42_17_0:
        jmp .L_42_17_2
.L_42_17_1:
        pushl   $.LC_ret
        calll   puts
        addl    $4, %esp
        movl    $0, %eax
        ret        
        
.L_42_17_2:
        pushl   $.LC_2
        calll   puts
        addl    $4, %esp

        cmpl    $0, conditions+100
        je     .L_42_17_3

        jmp    .L_42_17_4

.L_42_17_3:
        pushl   $.LC_3
        calll   puts
        addl    $4, %esp

        jmp    .L_42_17_1

.L_42_17_4:
        pushl   $.LC_4
        calll   puts
        addl    $4, %esp

        jmp    .L_42_17_3

.L_42_17_FE1:
        .size   test_3_blocks_variant_17_edges_5, .-test_3_blocks_variant_17_edges_5


        .type   test_3_blocks_variant_18_edges_5, @function
test_3_blocks_variant_18_edges_5:
# B0:
#   goto B2;
#
# B1:
#   return;
#
# B2:
#   if(...) goto B3;
#   goto B4;
#
# B3:
#   goto B1;
#
# B4:
#   goto B4;
#

.L_43_18_0:
        jmp .L_43_18_2
.L_43_18_1:
        pushl   $.LC_ret
        calll   puts
        addl    $4, %esp
        movl    $0, %eax
        ret        
        
.L_43_18_2:
        pushl   $.LC_2
        calll   puts
        addl    $4, %esp

        cmpl    $0, conditions+100
        je     .L_43_18_3

        jmp    .L_43_18_4

.L_43_18_3:
        pushl   $.LC_3
        calll   puts
        addl    $4, %esp

        jmp    .L_43_18_1

.L_43_18_4:
        pushl   $.LC_4
        calll   puts
        addl    $4, %esp

        jmp    .L_43_18_4

.L_43_18_FE1:
        .size   test_3_blocks_variant_18_edges_5, .-test_3_blocks_variant_18_edges_5


        .type   test_3_blocks_variant_19_edges_6, @function
test_3_blocks_variant_19_edges_6:
# B0:
#   goto B2;
#
# B1:
#   return;
#
# B2:
#   goto B3;
#
# B3:
#   goto B4;
#
# B4:
#   if(...) goto B1;
#   if(...) goto B2;
#   goto B3;
#

.L_44_19_0:
        jmp .L_44_19_2
.L_44_19_1:
        pushl   $.LC_ret
        calll   puts
        addl    $4, %esp
        movl    $0, %eax
        ret        
        
.L_44_19_2:
        pushl   $.LC_2
        calll   puts
        addl    $4, %esp

        jmp    .L_44_19_3

.L_44_19_3:
        pushl   $.LC_3
        calll   puts
        addl    $4, %esp

        jmp    .L_44_19_4

.L_44_19_4:
        pushl   $.LC_4
        calll   puts
        addl    $4, %esp

        cmpl    $0, conditions+100
        je     .L_44_19_1

        cmpl    $0, conditions+104
        je     .L_44_19_2

        jmp    .L_44_19_3

.L_44_19_FE1:
        .size   test_3_blocks_variant_19_edges_6, .-test_3_blocks_variant_19_edges_6


        .type   test_3_blocks_variant_20_edges_6, @function
test_3_blocks_variant_20_edges_6:
# B0:
#   goto B2;
#
# B1:
#   return;
#
# B2:
#   goto B3;
#
# B3:
#   goto B4;
#
# B4:
#   if(...) goto B1;
#   if(...) goto B2;
#   goto B4;
#

.L_45_20_0:
        jmp .L_45_20_2
.L_45_20_1:
        pushl   $.LC_ret
        calll   puts
        addl    $4, %esp
        movl    $0, %eax
        ret        
        
.L_45_20_2:
        pushl   $.LC_2
        calll   puts
        addl    $4, %esp

        jmp    .L_45_20_3

.L_45_20_3:
        pushl   $.LC_3
        calll   puts
        addl    $4, %esp

        jmp    .L_45_20_4

.L_45_20_4:
        pushl   $.LC_4
        calll   puts
        addl    $4, %esp

        cmpl    $0, conditions+100
        je     .L_45_20_1

        cmpl    $0, conditions+104
        je     .L_45_20_2

        jmp    .L_45_20_4

.L_45_20_FE1:
        .size   test_3_blocks_variant_20_edges_6, .-test_3_blocks_variant_20_edges_6


        .type   test_3_blocks_variant_21_edges_6, @function
test_3_blocks_variant_21_edges_6:
# B0:
#   goto B2;
#
# B1:
#   return;
#
# B2:
#   goto B3;
#
# B3:
#   goto B4;
#
# B4:
#   if(...) goto B1;
#   if(...) goto B3;
#   goto B4;
#

.L_46_21_0:
        jmp .L_46_21_2
.L_46_21_1:
        pushl   $.LC_ret
        calll   puts
        addl    $4, %esp
        movl    $0, %eax
        ret        
        
.L_46_21_2:
        pushl   $.LC_2
        calll   puts
        addl    $4, %esp

        jmp    .L_46_21_3

.L_46_21_3:
        pushl   $.LC_3
        calll   puts
        addl    $4, %esp

        jmp    .L_46_21_4

.L_46_21_4:
        pushl   $.LC_4
        calll   puts
        addl    $4, %esp

        cmpl    $0, conditions+100
        je     .L_46_21_1

        cmpl    $0, conditions+104
        je     .L_46_21_3

        jmp    .L_46_21_4

.L_46_21_FE1:
        .size   test_3_blocks_variant_21_edges_6, .-test_3_blocks_variant_21_edges_6


        .type   test_3_blocks_variant_22_edges_6, @function
test_3_blocks_variant_22_edges_6:
# B0:
#   goto B2;
#
# B1:
#   return;
#
# B2:
#   goto B3;
#
# B3:
#   if(...) goto B1;
#   goto B4;
#
# B4:
#   if(...) goto B1;
#   goto B2;
#

.L_47_22_0:
        jmp .L_47_22_2
.L_47_22_1:
        pushl   $.LC_ret
        calll   puts
        addl    $4, %esp
        movl    $0, %eax
        ret        
        
.L_47_22_2:
        pushl   $.LC_2
        calll   puts
        addl    $4, %esp

        jmp    .L_47_22_3

.L_47_22_3:
        pushl   $.LC_3
        calll   puts
        addl    $4, %esp

        cmpl    $0, conditions+100
        je     .L_47_22_1

        jmp    .L_47_22_4

.L_47_22_4:
        pushl   $.LC_4
        calll   puts
        addl    $4, %esp

        cmpl    $0, conditions+104
        je     .L_47_22_1

        jmp    .L_47_22_2

.L_47_22_FE1:
        .size   test_3_blocks_variant_22_edges_6, .-test_3_blocks_variant_22_edges_6


        .type   test_3_blocks_variant_23_edges_6, @function
test_3_blocks_variant_23_edges_6:
# B0:
#   goto B2;
#
# B1:
#   return;
#
# B2:
#   goto B3;
#
# B3:
#   if(...) goto B1;
#   goto B4;
#
# B4:
#   if(...) goto B1;
#   goto B3;
#

.L_48_23_0:
        jmp .L_48_23_2
.L_48_23_1:
        pushl   $.LC_ret
        calll   puts
        addl    $4, %esp
        movl    $0, %eax
        ret        
        
.L_48_23_2:
        pushl   $.LC_2
        calll   puts
        addl    $4, %esp

        jmp    .L_48_23_3

.L_48_23_3:
        pushl   $.LC_3
        calll   puts
        addl    $4, %esp

        cmpl    $0, conditions+100
        je     .L_48_23_1

        jmp    .L_48_23_4

.L_48_23_4:
        pushl   $.LC_4
        calll   puts
        addl    $4, %esp

        cmpl    $0, conditions+104
        je     .L_48_23_1

        jmp    .L_48_23_3

.L_48_23_FE1:
        .size   test_3_blocks_variant_23_edges_6, .-test_3_blocks_variant_23_edges_6


        .type   test_3_blocks_variant_24_edges_6, @function
test_3_blocks_variant_24_edges_6:
# B0:
#   goto B2;
#
# B1:
#   return;
#
# B2:
#   goto B3;
#
# B3:
#   if(...) goto B1;
#   goto B4;
#
# B4:
#   if(...) goto B1;
#   goto B4;
#

.L_49_24_0:
        jmp .L_49_24_2
.L_49_24_1:
        pushl   $.LC_ret
        calll   puts
        addl    $4, %esp
        movl    $0, %eax
        ret        
        
.L_49_24_2:
        pushl   $.LC_2
        calll   puts
        addl    $4, %esp

        jmp    .L_49_24_3

.L_49_24_3:
        pushl   $.LC_3
        calll   puts
        addl    $4, %esp

        cmpl    $0, conditions+100
        je     .L_49_24_1

        jmp    .L_49_24_4

.L_49_24_4:
        pushl   $.LC_4
        calll   puts
        addl    $4, %esp

        cmpl    $0, conditions+104
        je     .L_49_24_1

        jmp    .L_49_24_4

.L_49_24_FE1:
        .size   test_3_blocks_variant_24_edges_6, .-test_3_blocks_variant_24_edges_6


        .type   test_3_blocks_variant_25_edges_6, @function
test_3_blocks_variant_25_edges_6:
# B0:
#   goto B2;
#
# B1:
#   return;
#
# B2:
#   goto B3;
#
# B3:
#   if(...) goto B1;
#   goto B4;
#
# B4:
#   if(...) goto B2;
#   goto B3;
#

.L_50_25_0:
        jmp .L_50_25_2
.L_50_25_1:
        pushl   $.LC_ret
        calll   puts
        addl    $4, %esp
        movl    $0, %eax
        ret        
        
.L_50_25_2:
        pushl   $.LC_2
        calll   puts
        addl    $4, %esp

        jmp    .L_50_25_3

.L_50_25_3:
        pushl   $.LC_3
        calll   puts
        addl    $4, %esp

        cmpl    $0, conditions+100
        je     .L_50_25_1

        jmp    .L_50_25_4

.L_50_25_4:
        pushl   $.LC_4
        calll   puts
        addl    $4, %esp

        cmpl    $0, conditions+104
        je     .L_50_25_2

        jmp    .L_50_25_3

.L_50_25_FE1:
        .size   test_3_blocks_variant_25_edges_6, .-test_3_blocks_variant_25_edges_6


        .type   test_3_blocks_variant_26_edges_6, @function
test_3_blocks_variant_26_edges_6:
# B0:
#   goto B2;
#
# B1:
#   return;
#
# B2:
#   goto B3;
#
# B3:
#   if(...) goto B1;
#   goto B4;
#
# B4:
#   if(...) goto B2;
#   goto B4;
#

.L_51_26_0:
        jmp .L_51_26_2
.L_51_26_1:
        pushl   $.LC_ret
        calll   puts
        addl    $4, %esp
        movl    $0, %eax
        ret        
        
.L_51_26_2:
        pushl   $.LC_2
        calll   puts
        addl    $4, %esp

        jmp    .L_51_26_3

.L_51_26_3:
        pushl   $.LC_3
        calll   puts
        addl    $4, %esp

        cmpl    $0, conditions+100
        je     .L_51_26_1

        jmp    .L_51_26_4

.L_51_26_4:
        pushl   $.LC_4
        calll   puts
        addl    $4, %esp

        cmpl    $0, conditions+104
        je     .L_51_26_2

        jmp    .L_51_26_4

.L_51_26_FE1:
        .size   test_3_blocks_variant_26_edges_6, .-test_3_blocks_variant_26_edges_6


        .type   test_3_blocks_variant_27_edges_6, @function
test_3_blocks_variant_27_edges_6:
# B0:
#   goto B2;
#
# B1:
#   return;
#
# B2:
#   goto B3;
#
# B3:
#   if(...) goto B1;
#   goto B4;
#
# B4:
#   if(...) goto B3;
#   goto B4;
#

.L_52_27_0:
        jmp .L_52_27_2
.L_52_27_1:
        pushl   $.LC_ret
        calll   puts
        addl    $4, %esp
        movl    $0, %eax
        ret        
        
.L_52_27_2:
        pushl   $.LC_2
        calll   puts
        addl    $4, %esp

        jmp    .L_52_27_3

.L_52_27_3:
        pushl   $.LC_3
        calll   puts
        addl    $4, %esp

        cmpl    $0, conditions+100
        je     .L_52_27_1

        jmp    .L_52_27_4

.L_52_27_4:
        pushl   $.LC_4
        calll   puts
        addl    $4, %esp

        cmpl    $0, conditions+104
        je     .L_52_27_3

        jmp    .L_52_27_4

.L_52_27_FE1:
        .size   test_3_blocks_variant_27_edges_6, .-test_3_blocks_variant_27_edges_6


        .type   test_3_blocks_variant_28_edges_6, @function
test_3_blocks_variant_28_edges_6:
# B0:
#   goto B2;
#
# B1:
#   return;
#
# B2:
#   goto B3;
#
# B3:
#   if(...) goto B2;
#   goto B4;
#
# B4:
#   if(...) goto B1;
#   goto B2;
#

.L_53_28_0:
        jmp .L_53_28_2
.L_53_28_1:
        pushl   $.LC_ret
        calll   puts
        addl    $4, %esp
        movl    $0, %eax
        ret        
        
.L_53_28_2:
        pushl   $.LC_2
        calll   puts
        addl    $4, %esp

        jmp    .L_53_28_3

.L_53_28_3:
        pushl   $.LC_3
        calll   puts
        addl    $4, %esp

        cmpl    $0, conditions+100
        je     .L_53_28_2

        jmp    .L_53_28_4

.L_53_28_4:
        pushl   $.LC_4
        calll   puts
        addl    $4, %esp

        cmpl    $0, conditions+104
        je     .L_53_28_1

        jmp    .L_53_28_2

.L_53_28_FE1:
        .size   test_3_blocks_variant_28_edges_6, .-test_3_blocks_variant_28_edges_6


        .type   test_3_blocks_variant_29_edges_6, @function
test_3_blocks_variant_29_edges_6:
# B0:
#   goto B2;
#
# B1:
#   return;
#
# B2:
#   goto B3;
#
# B3:
#   if(...) goto B2;
#   goto B4;
#
# B4:
#   if(...) goto B1;
#   goto B3;
#

.L_54_29_0:
        jmp .L_54_29_2
.L_54_29_1:
        pushl   $.LC_ret
        calll   puts
        addl    $4, %esp
        movl    $0, %eax
        ret        
        
.L_54_29_2:
        pushl   $.LC_2
        calll   puts
        addl    $4, %esp

        jmp    .L_54_29_3

.L_54_29_3:
        pushl   $.LC_3
        calll   puts
        addl    $4, %esp

        cmpl    $0, conditions+100
        je     .L_54_29_2

        jmp    .L_54_29_4

.L_54_29_4:
        pushl   $.LC_4
        calll   puts
        addl    $4, %esp

        cmpl    $0, conditions+104
        je     .L_54_29_1

        jmp    .L_54_29_3

.L_54_29_FE1:
        .size   test_3_blocks_variant_29_edges_6, .-test_3_blocks_variant_29_edges_6


        .type   test_3_blocks_variant_30_edges_6, @function
test_3_blocks_variant_30_edges_6:
# B0:
#   goto B2;
#
# B1:
#   return;
#
# B2:
#   goto B3;
#
# B3:
#   if(...) goto B2;
#   goto B4;
#
# B4:
#   if(...) goto B1;
#   goto B4;
#

.L_55_30_0:
        jmp .L_55_30_2
.L_55_30_1:
        pushl   $.LC_ret
        calll   puts
        addl    $4, %esp
        movl    $0, %eax
        ret        
        
.L_55_30_2:
        pushl   $.LC_2
        calll   puts
        addl    $4, %esp

        jmp    .L_55_30_3

.L_55_30_3:
        pushl   $.LC_3
        calll   puts
        addl    $4, %esp

        cmpl    $0, conditions+100
        je     .L_55_30_2

        jmp    .L_55_30_4

.L_55_30_4:
        pushl   $.LC_4
        calll   puts
        addl    $4, %esp

        cmpl    $0, conditions+104
        je     .L_55_30_1

        jmp    .L_55_30_4

.L_55_30_FE1:
        .size   test_3_blocks_variant_30_edges_6, .-test_3_blocks_variant_30_edges_6


        .type   test_3_blocks_variant_31_edges_6, @function
test_3_blocks_variant_31_edges_6:
# B0:
#   goto B2;
#
# B1:
#   return;
#
# B2:
#   goto B3;
#
# B3:
#   if(...) goto B3;
#   goto B4;
#
# B4:
#   if(...) goto B1;
#   goto B2;
#

.L_56_31_0:
        jmp .L_56_31_2
.L_56_31_1:
        pushl   $.LC_ret
        calll   puts
        addl    $4, %esp
        movl    $0, %eax
        ret        
        
.L_56_31_2:
        pushl   $.LC_2
        calll   puts
        addl    $4, %esp

        jmp    .L_56_31_3

.L_56_31_3:
        pushl   $.LC_3
        calll   puts
        addl    $4, %esp

        cmpl    $0, conditions+100
        je     .L_56_31_3

        jmp    .L_56_31_4

.L_56_31_4:
        pushl   $.LC_4
        calll   puts
        addl    $4, %esp

        cmpl    $0, conditions+104
        je     .L_56_31_1

        jmp    .L_56_31_2

.L_56_31_FE1:
        .size   test_3_blocks_variant_31_edges_6, .-test_3_blocks_variant_31_edges_6


        .type   test_3_blocks_variant_32_edges_6, @function
test_3_blocks_variant_32_edges_6:
# B0:
#   goto B2;
#
# B1:
#   return;
#
# B2:
#   goto B3;
#
# B3:
#   if(...) goto B3;
#   goto B4;
#
# B4:
#   if(...) goto B1;
#   goto B3;
#

.L_57_32_0:
        jmp .L_57_32_2
.L_57_32_1:
        pushl   $.LC_ret
        calll   puts
        addl    $4, %esp
        movl    $0, %eax
        ret        
        
.L_57_32_2:
        pushl   $.LC_2
        calll   puts
        addl    $4, %esp

        jmp    .L_57_32_3

.L_57_32_3:
        pushl   $.LC_3
        calll   puts
        addl    $4, %esp

        cmpl    $0, conditions+100
        je     .L_57_32_3

        jmp    .L_57_32_4

.L_57_32_4:
        pushl   $.LC_4
        calll   puts
        addl    $4, %esp

        cmpl    $0, conditions+104
        je     .L_57_32_1

        jmp    .L_57_32_3

.L_57_32_FE1:
        .size   test_3_blocks_variant_32_edges_6, .-test_3_blocks_variant_32_edges_6


        .type   test_3_blocks_variant_33_edges_6, @function
test_3_blocks_variant_33_edges_6:
# B0:
#   goto B2;
#
# B1:
#   return;
#
# B2:
#   goto B3;
#
# B3:
#   if(...) goto B3;
#   goto B4;
#
# B4:
#   if(...) goto B1;
#   goto B4;
#

.L_58_33_0:
        jmp .L_58_33_2
.L_58_33_1:
        pushl   $.LC_ret
        calll   puts
        addl    $4, %esp
        movl    $0, %eax
        ret        
        
.L_58_33_2:
        pushl   $.LC_2
        calll   puts
        addl    $4, %esp

        jmp    .L_58_33_3

.L_58_33_3:
        pushl   $.LC_3
        calll   puts
        addl    $4, %esp

        cmpl    $0, conditions+100
        je     .L_58_33_3

        jmp    .L_58_33_4

.L_58_33_4:
        pushl   $.LC_4
        calll   puts
        addl    $4, %esp

        cmpl    $0, conditions+104
        je     .L_58_33_1

        jmp    .L_58_33_4

.L_58_33_FE1:
        .size   test_3_blocks_variant_33_edges_6, .-test_3_blocks_variant_33_edges_6


        .type   test_3_blocks_variant_34_edges_6, @function
test_3_blocks_variant_34_edges_6:
# B0:
#   goto B2;
#
# B1:
#   return;
#
# B2:
#   goto B3;
#
# B3:
#   if(...) goto B1;
#   if(...) goto B2;
#   goto B4;
#
# B4:
#   goto B1;
#

.L_59_34_0:
        jmp .L_59_34_2
.L_59_34_1:
        pushl   $.LC_ret
        calll   puts
        addl    $4, %esp
        movl    $0, %eax
        ret        
        
.L_59_34_2:
        pushl   $.LC_2
        calll   puts
        addl    $4, %esp

        jmp    .L_59_34_3

.L_59_34_3:
        pushl   $.LC_3
        calll   puts
        addl    $4, %esp

        cmpl    $0, conditions+100
        je     .L_59_34_1

        cmpl    $0, conditions+104
        je     .L_59_34_2

        jmp    .L_59_34_4

.L_59_34_4:
        pushl   $.LC_4
        calll   puts
        addl    $4, %esp

        jmp    .L_59_34_1

.L_59_34_FE1:
        .size   test_3_blocks_variant_34_edges_6, .-test_3_blocks_variant_34_edges_6


        .type   test_3_blocks_variant_35_edges_6, @function
test_3_blocks_variant_35_edges_6:
# B0:
#   goto B2;
#
# B1:
#   return;
#
# B2:
#   goto B3;
#
# B3:
#   if(...) goto B1;
#   if(...) goto B2;
#   goto B4;
#
# B4:
#   goto B2;
#

.L_60_35_0:
        jmp .L_60_35_2
.L_60_35_1:
        pushl   $.LC_ret
        calll   puts
        addl    $4, %esp
        movl    $0, %eax
        ret        
        
.L_60_35_2:
        pushl   $.LC_2
        calll   puts
        addl    $4, %esp

        jmp    .L_60_35_3

.L_60_35_3:
        pushl   $.LC_3
        calll   puts
        addl    $4, %esp

        cmpl    $0, conditions+100
        je     .L_60_35_1

        cmpl    $0, conditions+104
        je     .L_60_35_2

        jmp    .L_60_35_4

.L_60_35_4:
        pushl   $.LC_4
        calll   puts
        addl    $4, %esp

        jmp    .L_60_35_2

.L_60_35_FE1:
        .size   test_3_blocks_variant_35_edges_6, .-test_3_blocks_variant_35_edges_6


        .type   test_3_blocks_variant_36_edges_6, @function
test_3_blocks_variant_36_edges_6:
# B0:
#   goto B2;
#
# B1:
#   return;
#
# B2:
#   goto B3;
#
# B3:
#   if(...) goto B1;
#   if(...) goto B2;
#   goto B4;
#
# B4:
#   goto B3;
#

.L_61_36_0:
        jmp .L_61_36_2
.L_61_36_1:
        pushl   $.LC_ret
        calll   puts
        addl    $4, %esp
        movl    $0, %eax
        ret        
        
.L_61_36_2:
        pushl   $.LC_2
        calll   puts
        addl    $4, %esp

        jmp    .L_61_36_3

.L_61_36_3:
        pushl   $.LC_3
        calll   puts
        addl    $4, %esp

        cmpl    $0, conditions+100
        je     .L_61_36_1

        cmpl    $0, conditions+104
        je     .L_61_36_2

        jmp    .L_61_36_4

.L_61_36_4:
        pushl   $.LC_4
        calll   puts
        addl    $4, %esp

        jmp    .L_61_36_3

.L_61_36_FE1:
        .size   test_3_blocks_variant_36_edges_6, .-test_3_blocks_variant_36_edges_6


        .type   test_3_blocks_variant_37_edges_6, @function
test_3_blocks_variant_37_edges_6:
# B0:
#   goto B2;
#
# B1:
#   return;
#
# B2:
#   goto B3;
#
# B3:
#   if(...) goto B1;
#   if(...) goto B2;
#   goto B4;
#
# B4:
#   goto B4;
#

.L_62_37_0:
        jmp .L_62_37_2
.L_62_37_1:
        pushl   $.LC_ret
        calll   puts
        addl    $4, %esp
        movl    $0, %eax
        ret        
        
.L_62_37_2:
        pushl   $.LC_2
        calll   puts
        addl    $4, %esp

        jmp    .L_62_37_3

.L_62_37_3:
        pushl   $.LC_3
        calll   puts
        addl    $4, %esp

        cmpl    $0, conditions+100
        je     .L_62_37_1

        cmpl    $0, conditions+104
        je     .L_62_37_2

        jmp    .L_62_37_4

.L_62_37_4:
        pushl   $.LC_4
        calll   puts
        addl    $4, %esp

        jmp    .L_62_37_4

.L_62_37_FE1:
        .size   test_3_blocks_variant_37_edges_6, .-test_3_blocks_variant_37_edges_6


        .type   test_3_blocks_variant_38_edges_6, @function
test_3_blocks_variant_38_edges_6:
# B0:
#   goto B2;
#
# B1:
#   return;
#
# B2:
#   goto B3;
#
# B3:
#   if(...) goto B1;
#   if(...) goto B3;
#   goto B4;
#
# B4:
#   goto B1;
#

.L_63_38_0:
        jmp .L_63_38_2
.L_63_38_1:
        pushl   $.LC_ret
        calll   puts
        addl    $4, %esp
        movl    $0, %eax
        ret        
        
.L_63_38_2:
        pushl   $.LC_2
        calll   puts
        addl    $4, %esp

        jmp    .L_63_38_3

.L_63_38_3:
        pushl   $.LC_3
        calll   puts
        addl    $4, %esp

        cmpl    $0, conditions+100
        je     .L_63_38_1

        cmpl    $0, conditions+104
        je     .L_63_38_3

        jmp    .L_63_38_4

.L_63_38_4:
        pushl   $.LC_4
        calll   puts
        addl    $4, %esp

        jmp    .L_63_38_1

.L_63_38_FE1:
        .size   test_3_blocks_variant_38_edges_6, .-test_3_blocks_variant_38_edges_6


        .type   test_3_blocks_variant_39_edges_6, @function
test_3_blocks_variant_39_edges_6:
# B0:
#   goto B2;
#
# B1:
#   return;
#
# B2:
#   goto B3;
#
# B3:
#   if(...) goto B1;
#   if(...) goto B3;
#   goto B4;
#
# B4:
#   goto B2;
#

.L_64_39_0:
        jmp .L_64_39_2
.L_64_39_1:
        pushl   $.LC_ret
        calll   puts
        addl    $4, %esp
        movl    $0, %eax
        ret        
        
.L_64_39_2:
        pushl   $.LC_2
        calll   puts
        addl    $4, %esp

        jmp    .L_64_39_3

.L_64_39_3:
        pushl   $.LC_3
        calll   puts
        addl    $4, %esp

        cmpl    $0, conditions+100
        je     .L_64_39_1

        cmpl    $0, conditions+104
        je     .L_64_39_3

        jmp    .L_64_39_4

.L_64_39_4:
        pushl   $.LC_4
        calll   puts
        addl    $4, %esp

        jmp    .L_64_39_2

.L_64_39_FE1:
        .size   test_3_blocks_variant_39_edges_6, .-test_3_blocks_variant_39_edges_6


        .type   test_3_blocks_variant_40_edges_6, @function
test_3_blocks_variant_40_edges_6:
# B0:
#   goto B2;
#
# B1:
#   return;
#
# B2:
#   goto B3;
#
# B3:
#   if(...) goto B1;
#   if(...) goto B3;
#   goto B4;
#
# B4:
#   goto B3;
#

.L_65_40_0:
        jmp .L_65_40_2
.L_65_40_1:
        pushl   $.LC_ret
        calll   puts
        addl    $4, %esp
        movl    $0, %eax
        ret        
        
.L_65_40_2:
        pushl   $.LC_2
        calll   puts
        addl    $4, %esp

        jmp    .L_65_40_3

.L_65_40_3:
        pushl   $.LC_3
        calll   puts
        addl    $4, %esp

        cmpl    $0, conditions+100
        je     .L_65_40_1

        cmpl    $0, conditions+104
        je     .L_65_40_3

        jmp    .L_65_40_4

.L_65_40_4:
        pushl   $.LC_4
        calll   puts
        addl    $4, %esp

        jmp    .L_65_40_3

.L_65_40_FE1:
        .size   test_3_blocks_variant_40_edges_6, .-test_3_blocks_variant_40_edges_6


        .type   test_3_blocks_variant_41_edges_6, @function
test_3_blocks_variant_41_edges_6:
# B0:
#   goto B2;
#
# B1:
#   return;
#
# B2:
#   goto B3;
#
# B3:
#   if(...) goto B1;
#   if(...) goto B3;
#   goto B4;
#
# B4:
#   goto B4;
#

.L_66_41_0:
        jmp .L_66_41_2
.L_66_41_1:
        pushl   $.LC_ret
        calll   puts
        addl    $4, %esp
        movl    $0, %eax
        ret        
        
.L_66_41_2:
        pushl   $.LC_2
        calll   puts
        addl    $4, %esp

        jmp    .L_66_41_3

.L_66_41_3:
        pushl   $.LC_3
        calll   puts
        addl    $4, %esp

        cmpl    $0, conditions+100
        je     .L_66_41_1

        cmpl    $0, conditions+104
        je     .L_66_41_3

        jmp    .L_66_41_4

.L_66_41_4:
        pushl   $.LC_4
        calll   puts
        addl    $4, %esp

        jmp    .L_66_41_4

.L_66_41_FE1:
        .size   test_3_blocks_variant_41_edges_6, .-test_3_blocks_variant_41_edges_6


        .type   test_3_blocks_variant_42_edges_6, @function
test_3_blocks_variant_42_edges_6:
# B0:
#   goto B2;
#
# B1:
#   return;
#
# B2:
#   goto B3;
#
# B3:
#   if(...) goto B2;
#   if(...) goto B3;
#   goto B4;
#
# B4:
#   goto B1;
#

.L_67_42_0:
        jmp .L_67_42_2
.L_67_42_1:
        pushl   $.LC_ret
        calll   puts
        addl    $4, %esp
        movl    $0, %eax
        ret        
        
.L_67_42_2:
        pushl   $.LC_2
        calll   puts
        addl    $4, %esp

        jmp    .L_67_42_3

.L_67_42_3:
        pushl   $.LC_3
        calll   puts
        addl    $4, %esp

        cmpl    $0, conditions+100
        je     .L_67_42_2

        cmpl    $0, conditions+104
        je     .L_67_42_3

        jmp    .L_67_42_4

.L_67_42_4:
        pushl   $.LC_4
        calll   puts
        addl    $4, %esp

        jmp    .L_67_42_1

.L_67_42_FE1:
        .size   test_3_blocks_variant_42_edges_6, .-test_3_blocks_variant_42_edges_6


        .type   test_3_blocks_variant_43_edges_6, @function
test_3_blocks_variant_43_edges_6:
# B0:
#   goto B2;
#
# B1:
#   return;
#
# B2:
#   if(...) goto B1;
#   goto B3;
#
# B3:
#   goto B4;
#
# B4:
#   if(...) goto B1;
#   goto B2;
#

.L_68_43_0:
        jmp .L_68_43_2
.L_68_43_1:
        pushl   $.LC_ret
        calll   puts
        addl    $4, %esp
        movl    $0, %eax
        ret        
        
.L_68_43_2:
        pushl   $.LC_2
        calll   puts
        addl    $4, %esp

        cmpl    $0, conditions+100
        je     .L_68_43_1

        jmp    .L_68_43_3

.L_68_43_3:
        pushl   $.LC_3
        calll   puts
        addl    $4, %esp

        jmp    .L_68_43_4

.L_68_43_4:
        pushl   $.LC_4
        calll   puts
        addl    $4, %esp

        cmpl    $0, conditions+104
        je     .L_68_43_1

        jmp    .L_68_43_2

.L_68_43_FE1:
        .size   test_3_blocks_variant_43_edges_6, .-test_3_blocks_variant_43_edges_6


        .type   test_3_blocks_variant_44_edges_6, @function
test_3_blocks_variant_44_edges_6:
# B0:
#   goto B2;
#
# B1:
#   return;
#
# B2:
#   if(...) goto B1;
#   goto B3;
#
# B3:
#   goto B4;
#
# B4:
#   if(...) goto B1;
#   goto B3;
#

.L_69_44_0:
        jmp .L_69_44_2
.L_69_44_1:
        pushl   $.LC_ret
        calll   puts
        addl    $4, %esp
        movl    $0, %eax
        ret        
        
.L_69_44_2:
        pushl   $.LC_2
        calll   puts
        addl    $4, %esp

        cmpl    $0, conditions+100
        je     .L_69_44_1

        jmp    .L_69_44_3

.L_69_44_3:
        pushl   $.LC_3
        calll   puts
        addl    $4, %esp

        jmp    .L_69_44_4

.L_69_44_4:
        pushl   $.LC_4
        calll   puts
        addl    $4, %esp

        cmpl    $0, conditions+104
        je     .L_69_44_1

        jmp    .L_69_44_3

.L_69_44_FE1:
        .size   test_3_blocks_variant_44_edges_6, .-test_3_blocks_variant_44_edges_6


        .type   test_3_blocks_variant_45_edges_6, @function
test_3_blocks_variant_45_edges_6:
# B0:
#   goto B2;
#
# B1:
#   return;
#
# B2:
#   if(...) goto B1;
#   goto B3;
#
# B3:
#   goto B4;
#
# B4:
#   if(...) goto B1;
#   goto B4;
#

.L_70_45_0:
        jmp .L_70_45_2
.L_70_45_1:
        pushl   $.LC_ret
        calll   puts
        addl    $4, %esp
        movl    $0, %eax
        ret        
        
.L_70_45_2:
        pushl   $.LC_2
        calll   puts
        addl    $4, %esp

        cmpl    $0, conditions+100
        je     .L_70_45_1

        jmp    .L_70_45_3

.L_70_45_3:
        pushl   $.LC_3
        calll   puts
        addl    $4, %esp

        jmp    .L_70_45_4

.L_70_45_4:
        pushl   $.LC_4
        calll   puts
        addl    $4, %esp

        cmpl    $0, conditions+104
        je     .L_70_45_1

        jmp    .L_70_45_4

.L_70_45_FE1:
        .size   test_3_blocks_variant_45_edges_6, .-test_3_blocks_variant_45_edges_6


        .type   test_3_blocks_variant_46_edges_6, @function
test_3_blocks_variant_46_edges_6:
# B0:
#   goto B2;
#
# B1:
#   return;
#
# B2:
#   if(...) goto B1;
#   goto B3;
#
# B3:
#   goto B4;
#
# B4:
#   if(...) goto B2;
#   goto B3;
#

.L_71_46_0:
        jmp .L_71_46_2
.L_71_46_1:
        pushl   $.LC_ret
        calll   puts
        addl    $4, %esp
        movl    $0, %eax
        ret        
        
.L_71_46_2:
        pushl   $.LC_2
        calll   puts
        addl    $4, %esp

        cmpl    $0, conditions+100
        je     .L_71_46_1

        jmp    .L_71_46_3

.L_71_46_3:
        pushl   $.LC_3
        calll   puts
        addl    $4, %esp

        jmp    .L_71_46_4

.L_71_46_4:
        pushl   $.LC_4
        calll   puts
        addl    $4, %esp

        cmpl    $0, conditions+104
        je     .L_71_46_2

        jmp    .L_71_46_3

.L_71_46_FE1:
        .size   test_3_blocks_variant_46_edges_6, .-test_3_blocks_variant_46_edges_6


        .type   test_3_blocks_variant_47_edges_6, @function
test_3_blocks_variant_47_edges_6:
# B0:
#   goto B2;
#
# B1:
#   return;
#
# B2:
#   if(...) goto B1;
#   goto B3;
#
# B3:
#   goto B4;
#
# B4:
#   if(...) goto B2;
#   goto B4;
#

.L_72_47_0:
        jmp .L_72_47_2
.L_72_47_1:
        pushl   $.LC_ret
        calll   puts
        addl    $4, %esp
        movl    $0, %eax
        ret        
        
.L_72_47_2:
        pushl   $.LC_2
        calll   puts
        addl    $4, %esp

        cmpl    $0, conditions+100
        je     .L_72_47_1

        jmp    .L_72_47_3

.L_72_47_3:
        pushl   $.LC_3
        calll   puts
        addl    $4, %esp

        jmp    .L_72_47_4

.L_72_47_4:
        pushl   $.LC_4
        calll   puts
        addl    $4, %esp

        cmpl    $0, conditions+104
        je     .L_72_47_2

        jmp    .L_72_47_4

.L_72_47_FE1:
        .size   test_3_blocks_variant_47_edges_6, .-test_3_blocks_variant_47_edges_6


        .type   test_3_blocks_variant_48_edges_6, @function
test_3_blocks_variant_48_edges_6:
# B0:
#   goto B2;
#
# B1:
#   return;
#
# B2:
#   if(...) goto B1;
#   goto B3;
#
# B3:
#   goto B4;
#
# B4:
#   if(...) goto B3;
#   goto B4;
#

.L_73_48_0:
        jmp .L_73_48_2
.L_73_48_1:
        pushl   $.LC_ret
        calll   puts
        addl    $4, %esp
        movl    $0, %eax
        ret        
        
.L_73_48_2:
        pushl   $.LC_2
        calll   puts
        addl    $4, %esp

        cmpl    $0, conditions+100
        je     .L_73_48_1

        jmp    .L_73_48_3

.L_73_48_3:
        pushl   $.LC_3
        calll   puts
        addl    $4, %esp

        jmp    .L_73_48_4

.L_73_48_4:
        pushl   $.LC_4
        calll   puts
        addl    $4, %esp

        cmpl    $0, conditions+104
        je     .L_73_48_3

        jmp    .L_73_48_4

.L_73_48_FE1:
        .size   test_3_blocks_variant_48_edges_6, .-test_3_blocks_variant_48_edges_6


        .type   test_3_blocks_variant_49_edges_6, @function
test_3_blocks_variant_49_edges_6:
# B0:
#   goto B2;
#
# B1:
#   return;
#
# B2:
#   if(...) goto B1;
#   goto B3;
#
# B3:
#   if(...) goto B1;
#   goto B4;
#
# B4:
#   goto B1;
#

.L_74_49_0:
        jmp .L_74_49_2
.L_74_49_1:
        pushl   $.LC_ret
        calll   puts
        addl    $4, %esp
        movl    $0, %eax
        ret        
        
.L_74_49_2:
        pushl   $.LC_2
        calll   puts
        addl    $4, %esp

        cmpl    $0, conditions+100
        je     .L_74_49_1

        jmp    .L_74_49_3

.L_74_49_3:
        pushl   $.LC_3
        calll   puts
        addl    $4, %esp

        cmpl    $0, conditions+104
        je     .L_74_49_1

        jmp    .L_74_49_4

.L_74_49_4:
        pushl   $.LC_4
        calll   puts
        addl    $4, %esp

        jmp    .L_74_49_1

.L_74_49_FE1:
        .size   test_3_blocks_variant_49_edges_6, .-test_3_blocks_variant_49_edges_6


        .type   test_3_blocks_variant_50_edges_6, @function
test_3_blocks_variant_50_edges_6:
# B0:
#   goto B2;
#
# B1:
#   return;
#
# B2:
#   if(...) goto B1;
#   goto B3;
#
# B3:
#   if(...) goto B1;
#   goto B4;
#
# B4:
#   goto B2;
#

.L_75_50_0:
        jmp .L_75_50_2
.L_75_50_1:
        pushl   $.LC_ret
        calll   puts
        addl    $4, %esp
        movl    $0, %eax
        ret        
        
.L_75_50_2:
        pushl   $.LC_2
        calll   puts
        addl    $4, %esp

        cmpl    $0, conditions+100
        je     .L_75_50_1

        jmp    .L_75_50_3

.L_75_50_3:
        pushl   $.LC_3
        calll   puts
        addl    $4, %esp

        cmpl    $0, conditions+104
        je     .L_75_50_1

        jmp    .L_75_50_4

.L_75_50_4:
        pushl   $.LC_4
        calll   puts
        addl    $4, %esp

        jmp    .L_75_50_2

.L_75_50_FE1:
        .size   test_3_blocks_variant_50_edges_6, .-test_3_blocks_variant_50_edges_6


        .type   test_3_blocks_variant_51_edges_6, @function
test_3_blocks_variant_51_edges_6:
# B0:
#   goto B2;
#
# B1:
#   return;
#
# B2:
#   if(...) goto B1;
#   goto B3;
#
# B3:
#   if(...) goto B1;
#   goto B4;
#
# B4:
#   goto B3;
#

.L_76_51_0:
        jmp .L_76_51_2
.L_76_51_1:
        pushl   $.LC_ret
        calll   puts
        addl    $4, %esp
        movl    $0, %eax
        ret        
        
.L_76_51_2:
        pushl   $.LC_2
        calll   puts
        addl    $4, %esp

        cmpl    $0, conditions+100
        je     .L_76_51_1

        jmp    .L_76_51_3

.L_76_51_3:
        pushl   $.LC_3
        calll   puts
        addl    $4, %esp

        cmpl    $0, conditions+104
        je     .L_76_51_1

        jmp    .L_76_51_4

.L_76_51_4:
        pushl   $.LC_4
        calll   puts
        addl    $4, %esp

        jmp    .L_76_51_3

.L_76_51_FE1:
        .size   test_3_blocks_variant_51_edges_6, .-test_3_blocks_variant_51_edges_6


        .type   test_3_blocks_variant_52_edges_6, @function
test_3_blocks_variant_52_edges_6:
# B0:
#   goto B2;
#
# B1:
#   return;
#
# B2:
#   if(...) goto B1;
#   goto B3;
#
# B3:
#   if(...) goto B1;
#   goto B4;
#
# B4:
#   goto B4;
#

.L_77_52_0:
        jmp .L_77_52_2
.L_77_52_1:
        pushl   $.LC_ret
        calll   puts
        addl    $4, %esp
        movl    $0, %eax
        ret        
        
.L_77_52_2:
        pushl   $.LC_2
        calll   puts
        addl    $4, %esp

        cmpl    $0, conditions+100
        je     .L_77_52_1

        jmp    .L_77_52_3

.L_77_52_3:
        pushl   $.LC_3
        calll   puts
        addl    $4, %esp

        cmpl    $0, conditions+104
        je     .L_77_52_1

        jmp    .L_77_52_4

.L_77_52_4:
        pushl   $.LC_4
        calll   puts
        addl    $4, %esp

        jmp    .L_77_52_4

.L_77_52_FE1:
        .size   test_3_blocks_variant_52_edges_6, .-test_3_blocks_variant_52_edges_6


        .type   test_3_blocks_variant_53_edges_6, @function
test_3_blocks_variant_53_edges_6:
# B0:
#   goto B2;
#
# B1:
#   return;
#
# B2:
#   if(...) goto B1;
#   goto B3;
#
# B3:
#   if(...) goto B2;
#   goto B4;
#
# B4:
#   goto B1;
#

.L_78_53_0:
        jmp .L_78_53_2
.L_78_53_1:
        pushl   $.LC_ret
        calll   puts
        addl    $4, %esp
        movl    $0, %eax
        ret        
        
.L_78_53_2:
        pushl   $.LC_2
        calll   puts
        addl    $4, %esp

        cmpl    $0, conditions+100
        je     .L_78_53_1

        jmp    .L_78_53_3

.L_78_53_3:
        pushl   $.LC_3
        calll   puts
        addl    $4, %esp

        cmpl    $0, conditions+104
        je     .L_78_53_2

        jmp    .L_78_53_4

.L_78_53_4:
        pushl   $.LC_4
        calll   puts
        addl    $4, %esp

        jmp    .L_78_53_1

.L_78_53_FE1:
        .size   test_3_blocks_variant_53_edges_6, .-test_3_blocks_variant_53_edges_6


        .type   test_3_blocks_variant_54_edges_6, @function
test_3_blocks_variant_54_edges_6:
# B0:
#   goto B2;
#
# B1:
#   return;
#
# B2:
#   if(...) goto B1;
#   goto B3;
#
# B3:
#   if(...) goto B2;
#   goto B4;
#
# B4:
#   goto B2;
#

.L_79_54_0:
        jmp .L_79_54_2
.L_79_54_1:
        pushl   $.LC_ret
        calll   puts
        addl    $4, %esp
        movl    $0, %eax
        ret        
        
.L_79_54_2:
        pushl   $.LC_2
        calll   puts
        addl    $4, %esp

        cmpl    $0, conditions+100
        je     .L_79_54_1

        jmp    .L_79_54_3

.L_79_54_3:
        pushl   $.LC_3
        calll   puts
        addl    $4, %esp

        cmpl    $0, conditions+104
        je     .L_79_54_2

        jmp    .L_79_54_4

.L_79_54_4:
        pushl   $.LC_4
        calll   puts
        addl    $4, %esp

        jmp    .L_79_54_2

.L_79_54_FE1:
        .size   test_3_blocks_variant_54_edges_6, .-test_3_blocks_variant_54_edges_6


        .type   test_3_blocks_variant_55_edges_6, @function
test_3_blocks_variant_55_edges_6:
# B0:
#   goto B2;
#
# B1:
#   return;
#
# B2:
#   if(...) goto B1;
#   goto B3;
#
# B3:
#   if(...) goto B2;
#   goto B4;
#
# B4:
#   goto B3;
#

.L_80_55_0:
        jmp .L_80_55_2
.L_80_55_1:
        pushl   $.LC_ret
        calll   puts
        addl    $4, %esp
        movl    $0, %eax
        ret        
        
.L_80_55_2:
        pushl   $.LC_2
        calll   puts
        addl    $4, %esp

        cmpl    $0, conditions+100
        je     .L_80_55_1

        jmp    .L_80_55_3

.L_80_55_3:
        pushl   $.LC_3
        calll   puts
        addl    $4, %esp

        cmpl    $0, conditions+104
        je     .L_80_55_2

        jmp    .L_80_55_4

.L_80_55_4:
        pushl   $.LC_4
        calll   puts
        addl    $4, %esp

        jmp    .L_80_55_3

.L_80_55_FE1:
        .size   test_3_blocks_variant_55_edges_6, .-test_3_blocks_variant_55_edges_6


        .type   test_3_blocks_variant_56_edges_6, @function
test_3_blocks_variant_56_edges_6:
# B0:
#   goto B2;
#
# B1:
#   return;
#
# B2:
#   if(...) goto B1;
#   goto B3;
#
# B3:
#   if(...) goto B2;
#   goto B4;
#
# B4:
#   goto B4;
#

.L_81_56_0:
        jmp .L_81_56_2
.L_81_56_1:
        pushl   $.LC_ret
        calll   puts
        addl    $4, %esp
        movl    $0, %eax
        ret        
        
.L_81_56_2:
        pushl   $.LC_2
        calll   puts
        addl    $4, %esp

        cmpl    $0, conditions+100
        je     .L_81_56_1

        jmp    .L_81_56_3

.L_81_56_3:
        pushl   $.LC_3
        calll   puts
        addl    $4, %esp

        cmpl    $0, conditions+104
        je     .L_81_56_2

        jmp    .L_81_56_4

.L_81_56_4:
        pushl   $.LC_4
        calll   puts
        addl    $4, %esp

        jmp    .L_81_56_4

.L_81_56_FE1:
        .size   test_3_blocks_variant_56_edges_6, .-test_3_blocks_variant_56_edges_6


        .type   test_3_blocks_variant_57_edges_6, @function
test_3_blocks_variant_57_edges_6:
# B0:
#   goto B2;
#
# B1:
#   return;
#
# B2:
#   if(...) goto B1;
#   goto B3;
#
# B3:
#   if(...) goto B3;
#   goto B4;
#
# B4:
#   goto B1;
#

.L_82_57_0:
        jmp .L_82_57_2
.L_82_57_1:
        pushl   $.LC_ret
        calll   puts
        addl    $4, %esp
        movl    $0, %eax
        ret        
        
.L_82_57_2:
        pushl   $.LC_2
        calll   puts
        addl    $4, %esp

        cmpl    $0, conditions+100
        je     .L_82_57_1

        jmp    .L_82_57_3

.L_82_57_3:
        pushl   $.LC_3
        calll   puts
        addl    $4, %esp

        cmpl    $0, conditions+104
        je     .L_82_57_3

        jmp    .L_82_57_4

.L_82_57_4:
        pushl   $.LC_4
        calll   puts
        addl    $4, %esp

        jmp    .L_82_57_1

.L_82_57_FE1:
        .size   test_3_blocks_variant_57_edges_6, .-test_3_blocks_variant_57_edges_6


        .type   test_3_blocks_variant_58_edges_6, @function
test_3_blocks_variant_58_edges_6:
# B0:
#   goto B2;
#
# B1:
#   return;
#
# B2:
#   if(...) goto B1;
#   goto B3;
#
# B3:
#   if(...) goto B3;
#   goto B4;
#
# B4:
#   goto B2;
#

.L_83_58_0:
        jmp .L_83_58_2
.L_83_58_1:
        pushl   $.LC_ret
        calll   puts
        addl    $4, %esp
        movl    $0, %eax
        ret        
        
.L_83_58_2:
        pushl   $.LC_2
        calll   puts
        addl    $4, %esp

        cmpl    $0, conditions+100
        je     .L_83_58_1

        jmp    .L_83_58_3

.L_83_58_3:
        pushl   $.LC_3
        calll   puts
        addl    $4, %esp

        cmpl    $0, conditions+104
        je     .L_83_58_3

        jmp    .L_83_58_4

.L_83_58_4:
        pushl   $.LC_4
        calll   puts
        addl    $4, %esp

        jmp    .L_83_58_2

.L_83_58_FE1:
        .size   test_3_blocks_variant_58_edges_6, .-test_3_blocks_variant_58_edges_6


        .type   test_3_blocks_variant_59_edges_6, @function
test_3_blocks_variant_59_edges_6:
# B0:
#   goto B2;
#
# B1:
#   return;
#
# B2:
#   if(...) goto B1;
#   goto B3;
#
# B3:
#   if(...) goto B3;
#   goto B4;
#
# B4:
#   goto B3;
#

.L_84_59_0:
        jmp .L_84_59_2
.L_84_59_1:
        pushl   $.LC_ret
        calll   puts
        addl    $4, %esp
        movl    $0, %eax
        ret        
        
.L_84_59_2:
        pushl   $.LC_2
        calll   puts
        addl    $4, %esp

        cmpl    $0, conditions+100
        je     .L_84_59_1

        jmp    .L_84_59_3

.L_84_59_3:
        pushl   $.LC_3
        calll   puts
        addl    $4, %esp

        cmpl    $0, conditions+104
        je     .L_84_59_3

        jmp    .L_84_59_4

.L_84_59_4:
        pushl   $.LC_4
        calll   puts
        addl    $4, %esp

        jmp    .L_84_59_3

.L_84_59_FE1:
        .size   test_3_blocks_variant_59_edges_6, .-test_3_blocks_variant_59_edges_6


        .type   test_3_blocks_variant_60_edges_6, @function
test_3_blocks_variant_60_edges_6:
# B0:
#   goto B2;
#
# B1:
#   return;
#
# B2:
#   if(...) goto B1;
#   goto B3;
#
# B3:
#   if(...) goto B3;
#   goto B4;
#
# B4:
#   goto B4;
#

.L_85_60_0:
        jmp .L_85_60_2
.L_85_60_1:
        pushl   $.LC_ret
        calll   puts
        addl    $4, %esp
        movl    $0, %eax
        ret        
        
.L_85_60_2:
        pushl   $.LC_2
        calll   puts
        addl    $4, %esp

        cmpl    $0, conditions+100
        je     .L_85_60_1

        jmp    .L_85_60_3

.L_85_60_3:
        pushl   $.LC_3
        calll   puts
        addl    $4, %esp

        cmpl    $0, conditions+104
        je     .L_85_60_3

        jmp    .L_85_60_4

.L_85_60_4:
        pushl   $.LC_4
        calll   puts
        addl    $4, %esp

        jmp    .L_85_60_4

.L_85_60_FE1:
        .size   test_3_blocks_variant_60_edges_6, .-test_3_blocks_variant_60_edges_6


        .type   test_3_blocks_variant_61_edges_6, @function
test_3_blocks_variant_61_edges_6:
# B0:
#   goto B2;
#
# B1:
#   return;
#
# B2:
#   if(...) goto B2;
#   goto B3;
#
# B3:
#   goto B4;
#
# B4:
#   if(...) goto B1;
#   goto B2;
#

.L_86_61_0:
        jmp .L_86_61_2
.L_86_61_1:
        pushl   $.LC_ret
        calll   puts
        addl    $4, %esp
        movl    $0, %eax
        ret        
        
.L_86_61_2:
        pushl   $.LC_2
        calll   puts
        addl    $4, %esp

        cmpl    $0, conditions+100
        je     .L_86_61_2

        jmp    .L_86_61_3

.L_86_61_3:
        pushl   $.LC_3
        calll   puts
        addl    $4, %esp

        jmp    .L_86_61_4

.L_86_61_4:
        pushl   $.LC_4
        calll   puts
        addl    $4, %esp

        cmpl    $0, conditions+104
        je     .L_86_61_1

        jmp    .L_86_61_2

.L_86_61_FE1:
        .size   test_3_blocks_variant_61_edges_6, .-test_3_blocks_variant_61_edges_6


        .type   test_3_blocks_variant_62_edges_6, @function
test_3_blocks_variant_62_edges_6:
# B0:
#   goto B2;
#
# B1:
#   return;
#
# B2:
#   if(...) goto B2;
#   goto B3;
#
# B3:
#   goto B4;
#
# B4:
#   if(...) goto B1;
#   goto B3;
#

.L_87_62_0:
        jmp .L_87_62_2
.L_87_62_1:
        pushl   $.LC_ret
        calll   puts
        addl    $4, %esp
        movl    $0, %eax
        ret        
        
.L_87_62_2:
        pushl   $.LC_2
        calll   puts
        addl    $4, %esp

        cmpl    $0, conditions+100
        je     .L_87_62_2

        jmp    .L_87_62_3

.L_87_62_3:
        pushl   $.LC_3
        calll   puts
        addl    $4, %esp

        jmp    .L_87_62_4

.L_87_62_4:
        pushl   $.LC_4
        calll   puts
        addl    $4, %esp

        cmpl    $0, conditions+104
        je     .L_87_62_1

        jmp    .L_87_62_3

.L_87_62_FE1:
        .size   test_3_blocks_variant_62_edges_6, .-test_3_blocks_variant_62_edges_6


        .type   test_3_blocks_variant_63_edges_6, @function
test_3_blocks_variant_63_edges_6:
# B0:
#   goto B2;
#
# B1:
#   return;
#
# B2:
#   if(...) goto B2;
#   goto B3;
#
# B3:
#   goto B4;
#
# B4:
#   if(...) goto B1;
#   goto B4;
#

.L_88_63_0:
        jmp .L_88_63_2
.L_88_63_1:
        pushl   $.LC_ret
        calll   puts
        addl    $4, %esp
        movl    $0, %eax
        ret        
        
.L_88_63_2:
        pushl   $.LC_2
        calll   puts
        addl    $4, %esp

        cmpl    $0, conditions+100
        je     .L_88_63_2

        jmp    .L_88_63_3

.L_88_63_3:
        pushl   $.LC_3
        calll   puts
        addl    $4, %esp

        jmp    .L_88_63_4

.L_88_63_4:
        pushl   $.LC_4
        calll   puts
        addl    $4, %esp

        cmpl    $0, conditions+104
        je     .L_88_63_1

        jmp    .L_88_63_4

.L_88_63_FE1:
        .size   test_3_blocks_variant_63_edges_6, .-test_3_blocks_variant_63_edges_6


        .type   test_3_blocks_variant_64_edges_6, @function
test_3_blocks_variant_64_edges_6:
# B0:
#   goto B2;
#
# B1:
#   return;
#
# B2:
#   if(...) goto B2;
#   goto B3;
#
# B3:
#   if(...) goto B1;
#   goto B4;
#
# B4:
#   goto B1;
#

.L_89_64_0:
        jmp .L_89_64_2
.L_89_64_1:
        pushl   $.LC_ret
        calll   puts
        addl    $4, %esp
        movl    $0, %eax
        ret        
        
.L_89_64_2:
        pushl   $.LC_2
        calll   puts
        addl    $4, %esp

        cmpl    $0, conditions+100
        je     .L_89_64_2

        jmp    .L_89_64_3

.L_89_64_3:
        pushl   $.LC_3
        calll   puts
        addl    $4, %esp

        cmpl    $0, conditions+104
        je     .L_89_64_1

        jmp    .L_89_64_4

.L_89_64_4:
        pushl   $.LC_4
        calll   puts
        addl    $4, %esp

        jmp    .L_89_64_1

.L_89_64_FE1:
        .size   test_3_blocks_variant_64_edges_6, .-test_3_blocks_variant_64_edges_6


        .type   test_3_blocks_variant_65_edges_6, @function
test_3_blocks_variant_65_edges_6:
# B0:
#   goto B2;
#
# B1:
#   return;
#
# B2:
#   if(...) goto B2;
#   goto B3;
#
# B3:
#   if(...) goto B1;
#   goto B4;
#
# B4:
#   goto B2;
#

.L_90_65_0:
        jmp .L_90_65_2
.L_90_65_1:
        pushl   $.LC_ret
        calll   puts
        addl    $4, %esp
        movl    $0, %eax
        ret        
        
.L_90_65_2:
        pushl   $.LC_2
        calll   puts
        addl    $4, %esp

        cmpl    $0, conditions+100
        je     .L_90_65_2

        jmp    .L_90_65_3

.L_90_65_3:
        pushl   $.LC_3
        calll   puts
        addl    $4, %esp

        cmpl    $0, conditions+104
        je     .L_90_65_1

        jmp    .L_90_65_4

.L_90_65_4:
        pushl   $.LC_4
        calll   puts
        addl    $4, %esp

        jmp    .L_90_65_2

.L_90_65_FE1:
        .size   test_3_blocks_variant_65_edges_6, .-test_3_blocks_variant_65_edges_6


        .type   test_3_blocks_variant_66_edges_6, @function
test_3_blocks_variant_66_edges_6:
# B0:
#   goto B2;
#
# B1:
#   return;
#
# B2:
#   if(...) goto B2;
#   goto B3;
#
# B3:
#   if(...) goto B1;
#   goto B4;
#
# B4:
#   goto B3;
#

.L_91_66_0:
        jmp .L_91_66_2
.L_91_66_1:
        pushl   $.LC_ret
        calll   puts
        addl    $4, %esp
        movl    $0, %eax
        ret        
        
.L_91_66_2:
        pushl   $.LC_2
        calll   puts
        addl    $4, %esp

        cmpl    $0, conditions+100
        je     .L_91_66_2

        jmp    .L_91_66_3

.L_91_66_3:
        pushl   $.LC_3
        calll   puts
        addl    $4, %esp

        cmpl    $0, conditions+104
        je     .L_91_66_1

        jmp    .L_91_66_4

.L_91_66_4:
        pushl   $.LC_4
        calll   puts
        addl    $4, %esp

        jmp    .L_91_66_3

.L_91_66_FE1:
        .size   test_3_blocks_variant_66_edges_6, .-test_3_blocks_variant_66_edges_6


        .type   test_3_blocks_variant_67_edges_6, @function
test_3_blocks_variant_67_edges_6:
# B0:
#   goto B2;
#
# B1:
#   return;
#
# B2:
#   if(...) goto B2;
#   goto B3;
#
# B3:
#   if(...) goto B1;
#   goto B4;
#
# B4:
#   goto B4;
#

.L_92_67_0:
        jmp .L_92_67_2
.L_92_67_1:
        pushl   $.LC_ret
        calll   puts
        addl    $4, %esp
        movl    $0, %eax
        ret        
        
.L_92_67_2:
        pushl   $.LC_2
        calll   puts
        addl    $4, %esp

        cmpl    $0, conditions+100
        je     .L_92_67_2

        jmp    .L_92_67_3

.L_92_67_3:
        pushl   $.LC_3
        calll   puts
        addl    $4, %esp

        cmpl    $0, conditions+104
        je     .L_92_67_1

        jmp    .L_92_67_4

.L_92_67_4:
        pushl   $.LC_4
        calll   puts
        addl    $4, %esp

        jmp    .L_92_67_4

.L_92_67_FE1:
        .size   test_3_blocks_variant_67_edges_6, .-test_3_blocks_variant_67_edges_6


        .type   test_3_blocks_variant_68_edges_6, @function
test_3_blocks_variant_68_edges_6:
# B0:
#   goto B2;
#
# B1:
#   return;
#
# B2:
#   if(...) goto B2;
#   goto B3;
#
# B3:
#   if(...) goto B2;
#   goto B4;
#
# B4:
#   goto B1;
#

.L_93_68_0:
        jmp .L_93_68_2
.L_93_68_1:
        pushl   $.LC_ret
        calll   puts
        addl    $4, %esp
        movl    $0, %eax
        ret        
        
.L_93_68_2:
        pushl   $.LC_2
        calll   puts
        addl    $4, %esp

        cmpl    $0, conditions+100
        je     .L_93_68_2

        jmp    .L_93_68_3

.L_93_68_3:
        pushl   $.LC_3
        calll   puts
        addl    $4, %esp

        cmpl    $0, conditions+104
        je     .L_93_68_2

        jmp    .L_93_68_4

.L_93_68_4:
        pushl   $.LC_4
        calll   puts
        addl    $4, %esp

        jmp    .L_93_68_1

.L_93_68_FE1:
        .size   test_3_blocks_variant_68_edges_6, .-test_3_blocks_variant_68_edges_6


        .type   test_3_blocks_variant_69_edges_6, @function
test_3_blocks_variant_69_edges_6:
# B0:
#   goto B2;
#
# B1:
#   return;
#
# B2:
#   if(...) goto B2;
#   goto B3;
#
# B3:
#   if(...) goto B3;
#   goto B4;
#
# B4:
#   goto B1;
#

.L_94_69_0:
        jmp .L_94_69_2
.L_94_69_1:
        pushl   $.LC_ret
        calll   puts
        addl    $4, %esp
        movl    $0, %eax
        ret        
        
.L_94_69_2:
        pushl   $.LC_2
        calll   puts
        addl    $4, %esp

        cmpl    $0, conditions+100
        je     .L_94_69_2

        jmp    .L_94_69_3

.L_94_69_3:
        pushl   $.LC_3
        calll   puts
        addl    $4, %esp

        cmpl    $0, conditions+104
        je     .L_94_69_3

        jmp    .L_94_69_4

.L_94_69_4:
        pushl   $.LC_4
        calll   puts
        addl    $4, %esp

        jmp    .L_94_69_1

.L_94_69_FE1:
        .size   test_3_blocks_variant_69_edges_6, .-test_3_blocks_variant_69_edges_6


        .type   test_3_blocks_variant_70_edges_6, @function
test_3_blocks_variant_70_edges_6:
# B0:
#   goto B2;
#
# B1:
#   return;
#
# B2:
#   if(...) goto B3;
#   goto B4;
#
# B3:
#   goto B1;
#
# B4:
#   if(...) goto B1;
#   goto B2;
#

.L_95_70_0:
        jmp .L_95_70_2
.L_95_70_1:
        pushl   $.LC_ret
        calll   puts
        addl    $4, %esp
        movl    $0, %eax
        ret        
        
.L_95_70_2:
        pushl   $.LC_2
        calll   puts
        addl    $4, %esp

        cmpl    $0, conditions+100
        je     .L_95_70_3

        jmp    .L_95_70_4

.L_95_70_3:
        pushl   $.LC_3
        calll   puts
        addl    $4, %esp

        jmp    .L_95_70_1

.L_95_70_4:
        pushl   $.LC_4
        calll   puts
        addl    $4, %esp

        cmpl    $0, conditions+104
        je     .L_95_70_1

        jmp    .L_95_70_2

.L_95_70_FE1:
        .size   test_3_blocks_variant_70_edges_6, .-test_3_blocks_variant_70_edges_6


        .type   test_3_blocks_variant_71_edges_6, @function
test_3_blocks_variant_71_edges_6:
# B0:
#   goto B2;
#
# B1:
#   return;
#
# B2:
#   if(...) goto B3;
#   goto B4;
#
# B3:
#   goto B1;
#
# B4:
#   if(...) goto B1;
#   goto B3;
#

.L_96_71_0:
        jmp .L_96_71_2
.L_96_71_1:
        pushl   $.LC_ret
        calll   puts
        addl    $4, %esp
        movl    $0, %eax
        ret        
        
.L_96_71_2:
        pushl   $.LC_2
        calll   puts
        addl    $4, %esp

        cmpl    $0, conditions+100
        je     .L_96_71_3

        jmp    .L_96_71_4

.L_96_71_3:
        pushl   $.LC_3
        calll   puts
        addl    $4, %esp

        jmp    .L_96_71_1

.L_96_71_4:
        pushl   $.LC_4
        calll   puts
        addl    $4, %esp

        cmpl    $0, conditions+104
        je     .L_96_71_1

        jmp    .L_96_71_3

.L_96_71_FE1:
        .size   test_3_blocks_variant_71_edges_6, .-test_3_blocks_variant_71_edges_6


        .type   test_3_blocks_variant_72_edges_6, @function
test_3_blocks_variant_72_edges_6:
# B0:
#   goto B2;
#
# B1:
#   return;
#
# B2:
#   if(...) goto B3;
#   goto B4;
#
# B3:
#   goto B1;
#
# B4:
#   if(...) goto B1;
#   goto B4;
#

.L_97_72_0:
        jmp .L_97_72_2
.L_97_72_1:
        pushl   $.LC_ret
        calll   puts
        addl    $4, %esp
        movl    $0, %eax
        ret        
        
.L_97_72_2:
        pushl   $.LC_2
        calll   puts
        addl    $4, %esp

        cmpl    $0, conditions+100
        je     .L_97_72_3

        jmp    .L_97_72_4

.L_97_72_3:
        pushl   $.LC_3
        calll   puts
        addl    $4, %esp

        jmp    .L_97_72_1

.L_97_72_4:
        pushl   $.LC_4
        calll   puts
        addl    $4, %esp

        cmpl    $0, conditions+104
        je     .L_97_72_1

        jmp    .L_97_72_4

.L_97_72_FE1:
        .size   test_3_blocks_variant_72_edges_6, .-test_3_blocks_variant_72_edges_6


        .type   test_3_blocks_variant_73_edges_6, @function
test_3_blocks_variant_73_edges_6:
# B0:
#   goto B2;
#
# B1:
#   return;
#
# B2:
#   if(...) goto B3;
#   goto B4;
#
# B3:
#   goto B1;
#
# B4:
#   if(...) goto B2;
#   goto B3;
#

.L_98_73_0:
        jmp .L_98_73_2
.L_98_73_1:
        pushl   $.LC_ret
        calll   puts
        addl    $4, %esp
        movl    $0, %eax
        ret        
        
.L_98_73_2:
        pushl   $.LC_2
        calll   puts
        addl    $4, %esp

        cmpl    $0, conditions+100
        je     .L_98_73_3

        jmp    .L_98_73_4

.L_98_73_3:
        pushl   $.LC_3
        calll   puts
        addl    $4, %esp

        jmp    .L_98_73_1

.L_98_73_4:
        pushl   $.LC_4
        calll   puts
        addl    $4, %esp

        cmpl    $0, conditions+104
        je     .L_98_73_2

        jmp    .L_98_73_3

.L_98_73_FE1:
        .size   test_3_blocks_variant_73_edges_6, .-test_3_blocks_variant_73_edges_6


        .type   test_3_blocks_variant_74_edges_6, @function
test_3_blocks_variant_74_edges_6:
# B0:
#   goto B2;
#
# B1:
#   return;
#
# B2:
#   if(...) goto B3;
#   goto B4;
#
# B3:
#   goto B1;
#
# B4:
#   if(...) goto B2;
#   goto B4;
#

.L_99_74_0:
        jmp .L_99_74_2
.L_99_74_1:
        pushl   $.LC_ret
        calll   puts
        addl    $4, %esp
        movl    $0, %eax
        ret        
        
.L_99_74_2:
        pushl   $.LC_2
        calll   puts
        addl    $4, %esp

        cmpl    $0, conditions+100
        je     .L_99_74_3

        jmp    .L_99_74_4

.L_99_74_3:
        pushl   $.LC_3
        calll   puts
        addl    $4, %esp

        jmp    .L_99_74_1

.L_99_74_4:
        pushl   $.LC_4
        calll   puts
        addl    $4, %esp

        cmpl    $0, conditions+104
        je     .L_99_74_2

        jmp    .L_99_74_4

.L_99_74_FE1:
        .size   test_3_blocks_variant_74_edges_6, .-test_3_blocks_variant_74_edges_6


        .type   test_3_blocks_variant_75_edges_6, @function
test_3_blocks_variant_75_edges_6:
# B0:
#   goto B2;
#
# B1:
#   return;
#
# B2:
#   if(...) goto B3;
#   goto B4;
#
# B3:
#   goto B1;
#
# B4:
#   if(...) goto B3;
#   goto B4;
#

.L_100_75_0:
        jmp .L_100_75_2
.L_100_75_1:
        pushl   $.LC_ret
        calll   puts
        addl    $4, %esp
        movl    $0, %eax
        ret        
        
.L_100_75_2:
        pushl   $.LC_2
        calll   puts
        addl    $4, %esp

        cmpl    $0, conditions+100
        je     .L_100_75_3

        jmp    .L_100_75_4

.L_100_75_3:
        pushl   $.LC_3
        calll   puts
        addl    $4, %esp

        jmp    .L_100_75_1

.L_100_75_4:
        pushl   $.LC_4
        calll   puts
        addl    $4, %esp

        cmpl    $0, conditions+104
        je     .L_100_75_3

        jmp    .L_100_75_4

.L_100_75_FE1:
        .size   test_3_blocks_variant_75_edges_6, .-test_3_blocks_variant_75_edges_6


        .type   test_3_blocks_variant_76_edges_6, @function
test_3_blocks_variant_76_edges_6:
# B0:
#   goto B2;
#
# B1:
#   return;
#
# B2:
#   if(...) goto B3;
#   goto B4;
#
# B3:
#   goto B2;
#
# B4:
#   if(...) goto B1;
#   goto B2;
#

.L_101_76_0:
        jmp .L_101_76_2
.L_101_76_1:
        pushl   $.LC_ret
        calll   puts
        addl    $4, %esp
        movl    $0, %eax
        ret        
        
.L_101_76_2:
        pushl   $.LC_2
        calll   puts
        addl    $4, %esp

        cmpl    $0, conditions+100
        je     .L_101_76_3

        jmp    .L_101_76_4

.L_101_76_3:
        pushl   $.LC_3
        calll   puts
        addl    $4, %esp

        jmp    .L_101_76_2

.L_101_76_4:
        pushl   $.LC_4
        calll   puts
        addl    $4, %esp

        cmpl    $0, conditions+104
        je     .L_101_76_1

        jmp    .L_101_76_2

.L_101_76_FE1:
        .size   test_3_blocks_variant_76_edges_6, .-test_3_blocks_variant_76_edges_6


        .type   test_3_blocks_variant_77_edges_6, @function
test_3_blocks_variant_77_edges_6:
# B0:
#   goto B2;
#
# B1:
#   return;
#
# B2:
#   if(...) goto B3;
#   goto B4;
#
# B3:
#   goto B2;
#
# B4:
#   if(...) goto B1;
#   goto B3;
#

.L_102_77_0:
        jmp .L_102_77_2
.L_102_77_1:
        pushl   $.LC_ret
        calll   puts
        addl    $4, %esp
        movl    $0, %eax
        ret        
        
.L_102_77_2:
        pushl   $.LC_2
        calll   puts
        addl    $4, %esp

        cmpl    $0, conditions+100
        je     .L_102_77_3

        jmp    .L_102_77_4

.L_102_77_3:
        pushl   $.LC_3
        calll   puts
        addl    $4, %esp

        jmp    .L_102_77_2

.L_102_77_4:
        pushl   $.LC_4
        calll   puts
        addl    $4, %esp

        cmpl    $0, conditions+104
        je     .L_102_77_1

        jmp    .L_102_77_3

.L_102_77_FE1:
        .size   test_3_blocks_variant_77_edges_6, .-test_3_blocks_variant_77_edges_6


        .type   test_3_blocks_variant_78_edges_6, @function
test_3_blocks_variant_78_edges_6:
# B0:
#   goto B2;
#
# B1:
#   return;
#
# B2:
#   if(...) goto B3;
#   goto B4;
#
# B3:
#   goto B2;
#
# B4:
#   if(...) goto B1;
#   goto B4;
#

.L_103_78_0:
        jmp .L_103_78_2
.L_103_78_1:
        pushl   $.LC_ret
        calll   puts
        addl    $4, %esp
        movl    $0, %eax
        ret        
        
.L_103_78_2:
        pushl   $.LC_2
        calll   puts
        addl    $4, %esp

        cmpl    $0, conditions+100
        je     .L_103_78_3

        jmp    .L_103_78_4

.L_103_78_3:
        pushl   $.LC_3
        calll   puts
        addl    $4, %esp

        jmp    .L_103_78_2

.L_103_78_4:
        pushl   $.LC_4
        calll   puts
        addl    $4, %esp

        cmpl    $0, conditions+104
        je     .L_103_78_1

        jmp    .L_103_78_4

.L_103_78_FE1:
        .size   test_3_blocks_variant_78_edges_6, .-test_3_blocks_variant_78_edges_6


        .type   test_3_blocks_variant_79_edges_6, @function
test_3_blocks_variant_79_edges_6:
# B0:
#   goto B2;
#
# B1:
#   return;
#
# B2:
#   if(...) goto B3;
#   goto B4;
#
# B3:
#   goto B3;
#
# B4:
#   if(...) goto B1;
#   goto B2;
#

.L_104_79_0:
        jmp .L_104_79_2
.L_104_79_1:
        pushl   $.LC_ret
        calll   puts
        addl    $4, %esp
        movl    $0, %eax
        ret        
        
.L_104_79_2:
        pushl   $.LC_2
        calll   puts
        addl    $4, %esp

        cmpl    $0, conditions+100
        je     .L_104_79_3

        jmp    .L_104_79_4

.L_104_79_3:
        pushl   $.LC_3
        calll   puts
        addl    $4, %esp

        jmp    .L_104_79_3

.L_104_79_4:
        pushl   $.LC_4
        calll   puts
        addl    $4, %esp

        cmpl    $0, conditions+104
        je     .L_104_79_1

        jmp    .L_104_79_2

.L_104_79_FE1:
        .size   test_3_blocks_variant_79_edges_6, .-test_3_blocks_variant_79_edges_6


        .type   test_3_blocks_variant_80_edges_6, @function
test_3_blocks_variant_80_edges_6:
# B0:
#   goto B2;
#
# B1:
#   return;
#
# B2:
#   if(...) goto B3;
#   goto B4;
#
# B3:
#   goto B3;
#
# B4:
#   if(...) goto B1;
#   goto B3;
#

.L_105_80_0:
        jmp .L_105_80_2
.L_105_80_1:
        pushl   $.LC_ret
        calll   puts
        addl    $4, %esp
        movl    $0, %eax
        ret        
        
.L_105_80_2:
        pushl   $.LC_2
        calll   puts
        addl    $4, %esp

        cmpl    $0, conditions+100
        je     .L_105_80_3

        jmp    .L_105_80_4

.L_105_80_3:
        pushl   $.LC_3
        calll   puts
        addl    $4, %esp

        jmp    .L_105_80_3

.L_105_80_4:
        pushl   $.LC_4
        calll   puts
        addl    $4, %esp

        cmpl    $0, conditions+104
        je     .L_105_80_1

        jmp    .L_105_80_3

.L_105_80_FE1:
        .size   test_3_blocks_variant_80_edges_6, .-test_3_blocks_variant_80_edges_6


        .type   test_3_blocks_variant_81_edges_6, @function
test_3_blocks_variant_81_edges_6:
# B0:
#   goto B2;
#
# B1:
#   return;
#
# B2:
#   if(...) goto B3;
#   goto B4;
#
# B3:
#   goto B3;
#
# B4:
#   if(...) goto B1;
#   goto B4;
#

.L_106_81_0:
        jmp .L_106_81_2
.L_106_81_1:
        pushl   $.LC_ret
        calll   puts
        addl    $4, %esp
        movl    $0, %eax
        ret        
        
.L_106_81_2:
        pushl   $.LC_2
        calll   puts
        addl    $4, %esp

        cmpl    $0, conditions+100
        je     .L_106_81_3

        jmp    .L_106_81_4

.L_106_81_3:
        pushl   $.LC_3
        calll   puts
        addl    $4, %esp

        jmp    .L_106_81_3

.L_106_81_4:
        pushl   $.LC_4
        calll   puts
        addl    $4, %esp

        cmpl    $0, conditions+104
        je     .L_106_81_1

        jmp    .L_106_81_4

.L_106_81_FE1:
        .size   test_3_blocks_variant_81_edges_6, .-test_3_blocks_variant_81_edges_6


        .type   test_3_blocks_variant_82_edges_6, @function
test_3_blocks_variant_82_edges_6:
# B0:
#   goto B2;
#
# B1:
#   return;
#
# B2:
#   if(...) goto B3;
#   goto B4;
#
# B3:
#   goto B4;
#
# B4:
#   if(...) goto B1;
#   goto B2;
#

.L_107_82_0:
        jmp .L_107_82_2
.L_107_82_1:
        pushl   $.LC_ret
        calll   puts
        addl    $4, %esp
        movl    $0, %eax
        ret        
        
.L_107_82_2:
        pushl   $.LC_2
        calll   puts
        addl    $4, %esp

        cmpl    $0, conditions+100
        je     .L_107_82_3

        jmp    .L_107_82_4

.L_107_82_3:
        pushl   $.LC_3
        calll   puts
        addl    $4, %esp

        jmp    .L_107_82_4

.L_107_82_4:
        pushl   $.LC_4
        calll   puts
        addl    $4, %esp

        cmpl    $0, conditions+104
        je     .L_107_82_1

        jmp    .L_107_82_2

.L_107_82_FE1:
        .size   test_3_blocks_variant_82_edges_6, .-test_3_blocks_variant_82_edges_6


        .type   test_3_blocks_variant_83_edges_6, @function
test_3_blocks_variant_83_edges_6:
# B0:
#   goto B2;
#
# B1:
#   return;
#
# B2:
#   if(...) goto B3;
#   goto B4;
#
# B3:
#   goto B4;
#
# B4:
#   if(...) goto B1;
#   goto B3;
#

.L_108_83_0:
        jmp .L_108_83_2
.L_108_83_1:
        pushl   $.LC_ret
        calll   puts
        addl    $4, %esp
        movl    $0, %eax
        ret        
        
.L_108_83_2:
        pushl   $.LC_2
        calll   puts
        addl    $4, %esp

        cmpl    $0, conditions+100
        je     .L_108_83_3

        jmp    .L_108_83_4

.L_108_83_3:
        pushl   $.LC_3
        calll   puts
        addl    $4, %esp

        jmp    .L_108_83_4

.L_108_83_4:
        pushl   $.LC_4
        calll   puts
        addl    $4, %esp

        cmpl    $0, conditions+104
        je     .L_108_83_1

        jmp    .L_108_83_3

.L_108_83_FE1:
        .size   test_3_blocks_variant_83_edges_6, .-test_3_blocks_variant_83_edges_6


        .type   test_3_blocks_variant_84_edges_6, @function
test_3_blocks_variant_84_edges_6:
# B0:
#   goto B2;
#
# B1:
#   return;
#
# B2:
#   if(...) goto B3;
#   goto B4;
#
# B3:
#   goto B4;
#
# B4:
#   if(...) goto B1;
#   goto B4;
#

.L_109_84_0:
        jmp .L_109_84_2
.L_109_84_1:
        pushl   $.LC_ret
        calll   puts
        addl    $4, %esp
        movl    $0, %eax
        ret        
        
.L_109_84_2:
        pushl   $.LC_2
        calll   puts
        addl    $4, %esp

        cmpl    $0, conditions+100
        je     .L_109_84_3

        jmp    .L_109_84_4

.L_109_84_3:
        pushl   $.LC_3
        calll   puts
        addl    $4, %esp

        jmp    .L_109_84_4

.L_109_84_4:
        pushl   $.LC_4
        calll   puts
        addl    $4, %esp

        cmpl    $0, conditions+104
        je     .L_109_84_1

        jmp    .L_109_84_4

.L_109_84_FE1:
        .size   test_3_blocks_variant_84_edges_6, .-test_3_blocks_variant_84_edges_6


        .type   test_3_blocks_variant_85_edges_6, @function
test_3_blocks_variant_85_edges_6:
# B0:
#   goto B2;
#
# B1:
#   return;
#
# B2:
#   if(...) goto B1;
#   if(...) goto B2;
#   goto B3;
#
# B3:
#   goto B4;
#
# B4:
#   goto B1;
#

.L_110_85_0:
        jmp .L_110_85_2
.L_110_85_1:
        pushl   $.LC_ret
        calll   puts
        addl    $4, %esp
        movl    $0, %eax
        ret        
        
.L_110_85_2:
        pushl   $.LC_2
        calll   puts
        addl    $4, %esp

        cmpl    $0, conditions+100
        je     .L_110_85_1

        cmpl    $0, conditions+104
        je     .L_110_85_2

        jmp    .L_110_85_3

.L_110_85_3:
        pushl   $.LC_3
        calll   puts
        addl    $4, %esp

        jmp    .L_110_85_4

.L_110_85_4:
        pushl   $.LC_4
        calll   puts
        addl    $4, %esp

        jmp    .L_110_85_1

.L_110_85_FE1:
        .size   test_3_blocks_variant_85_edges_6, .-test_3_blocks_variant_85_edges_6


        .type   test_3_blocks_variant_86_edges_6, @function
test_3_blocks_variant_86_edges_6:
# B0:
#   goto B2;
#
# B1:
#   return;
#
# B2:
#   if(...) goto B1;
#   if(...) goto B2;
#   goto B3;
#
# B3:
#   goto B4;
#
# B4:
#   goto B2;
#

.L_111_86_0:
        jmp .L_111_86_2
.L_111_86_1:
        pushl   $.LC_ret
        calll   puts
        addl    $4, %esp
        movl    $0, %eax
        ret        
        
.L_111_86_2:
        pushl   $.LC_2
        calll   puts
        addl    $4, %esp

        cmpl    $0, conditions+100
        je     .L_111_86_1

        cmpl    $0, conditions+104
        je     .L_111_86_2

        jmp    .L_111_86_3

.L_111_86_3:
        pushl   $.LC_3
        calll   puts
        addl    $4, %esp

        jmp    .L_111_86_4

.L_111_86_4:
        pushl   $.LC_4
        calll   puts
        addl    $4, %esp

        jmp    .L_111_86_2

.L_111_86_FE1:
        .size   test_3_blocks_variant_86_edges_6, .-test_3_blocks_variant_86_edges_6


        .type   test_3_blocks_variant_87_edges_6, @function
test_3_blocks_variant_87_edges_6:
# B0:
#   goto B2;
#
# B1:
#   return;
#
# B2:
#   if(...) goto B1;
#   if(...) goto B2;
#   goto B3;
#
# B3:
#   goto B4;
#
# B4:
#   goto B3;
#

.L_112_87_0:
        jmp .L_112_87_2
.L_112_87_1:
        pushl   $.LC_ret
        calll   puts
        addl    $4, %esp
        movl    $0, %eax
        ret        
        
.L_112_87_2:
        pushl   $.LC_2
        calll   puts
        addl    $4, %esp

        cmpl    $0, conditions+100
        je     .L_112_87_1

        cmpl    $0, conditions+104
        je     .L_112_87_2

        jmp    .L_112_87_3

.L_112_87_3:
        pushl   $.LC_3
        calll   puts
        addl    $4, %esp

        jmp    .L_112_87_4

.L_112_87_4:
        pushl   $.LC_4
        calll   puts
        addl    $4, %esp

        jmp    .L_112_87_3

.L_112_87_FE1:
        .size   test_3_blocks_variant_87_edges_6, .-test_3_blocks_variant_87_edges_6


        .type   test_3_blocks_variant_88_edges_6, @function
test_3_blocks_variant_88_edges_6:
# B0:
#   goto B2;
#
# B1:
#   return;
#
# B2:
#   if(...) goto B1;
#   if(...) goto B2;
#   goto B3;
#
# B3:
#   goto B4;
#
# B4:
#   goto B4;
#

.L_113_88_0:
        jmp .L_113_88_2
.L_113_88_1:
        pushl   $.LC_ret
        calll   puts
        addl    $4, %esp
        movl    $0, %eax
        ret        
        
.L_113_88_2:
        pushl   $.LC_2
        calll   puts
        addl    $4, %esp

        cmpl    $0, conditions+100
        je     .L_113_88_1

        cmpl    $0, conditions+104
        je     .L_113_88_2

        jmp    .L_113_88_3

.L_113_88_3:
        pushl   $.LC_3
        calll   puts
        addl    $4, %esp

        jmp    .L_113_88_4

.L_113_88_4:
        pushl   $.LC_4
        calll   puts
        addl    $4, %esp

        jmp    .L_113_88_4

.L_113_88_FE1:
        .size   test_3_blocks_variant_88_edges_6, .-test_3_blocks_variant_88_edges_6


        .type   test_3_blocks_variant_89_edges_6, @function
test_3_blocks_variant_89_edges_6:
# B0:
#   goto B2;
#
# B1:
#   return;
#
# B2:
#   if(...) goto B1;
#   if(...) goto B3;
#   goto B4;
#
# B3:
#   goto B1;
#
# B4:
#   goto B1;
#

.L_114_89_0:
        jmp .L_114_89_2
.L_114_89_1:
        pushl   $.LC_ret
        calll   puts
        addl    $4, %esp
        movl    $0, %eax
        ret        
        
.L_114_89_2:
        pushl   $.LC_2
        calll   puts
        addl    $4, %esp

        cmpl    $0, conditions+100
        je     .L_114_89_1

        cmpl    $0, conditions+104
        je     .L_114_89_3

        jmp    .L_114_89_4

.L_114_89_3:
        pushl   $.LC_3
        calll   puts
        addl    $4, %esp

        jmp    .L_114_89_1

.L_114_89_4:
        pushl   $.LC_4
        calll   puts
        addl    $4, %esp

        jmp    .L_114_89_1

.L_114_89_FE1:
        .size   test_3_blocks_variant_89_edges_6, .-test_3_blocks_variant_89_edges_6


        .type   test_3_blocks_variant_90_edges_6, @function
test_3_blocks_variant_90_edges_6:
# B0:
#   goto B2;
#
# B1:
#   return;
#
# B2:
#   if(...) goto B1;
#   if(...) goto B3;
#   goto B4;
#
# B3:
#   goto B1;
#
# B4:
#   goto B2;
#

.L_115_90_0:
        jmp .L_115_90_2
.L_115_90_1:
        pushl   $.LC_ret
        calll   puts
        addl    $4, %esp
        movl    $0, %eax
        ret        
        
.L_115_90_2:
        pushl   $.LC_2
        calll   puts
        addl    $4, %esp

        cmpl    $0, conditions+100
        je     .L_115_90_1

        cmpl    $0, conditions+104
        je     .L_115_90_3

        jmp    .L_115_90_4

.L_115_90_3:
        pushl   $.LC_3
        calll   puts
        addl    $4, %esp

        jmp    .L_115_90_1

.L_115_90_4:
        pushl   $.LC_4
        calll   puts
        addl    $4, %esp

        jmp    .L_115_90_2

.L_115_90_FE1:
        .size   test_3_blocks_variant_90_edges_6, .-test_3_blocks_variant_90_edges_6


        .type   test_3_blocks_variant_91_edges_6, @function
test_3_blocks_variant_91_edges_6:
# B0:
#   goto B2;
#
# B1:
#   return;
#
# B2:
#   if(...) goto B1;
#   if(...) goto B3;
#   goto B4;
#
# B3:
#   goto B1;
#
# B4:
#   goto B3;
#

.L_116_91_0:
        jmp .L_116_91_2
.L_116_91_1:
        pushl   $.LC_ret
        calll   puts
        addl    $4, %esp
        movl    $0, %eax
        ret        
        
.L_116_91_2:
        pushl   $.LC_2
        calll   puts
        addl    $4, %esp

        cmpl    $0, conditions+100
        je     .L_116_91_1

        cmpl    $0, conditions+104
        je     .L_116_91_3

        jmp    .L_116_91_4

.L_116_91_3:
        pushl   $.LC_3
        calll   puts
        addl    $4, %esp

        jmp    .L_116_91_1

.L_116_91_4:
        pushl   $.LC_4
        calll   puts
        addl    $4, %esp

        jmp    .L_116_91_3

.L_116_91_FE1:
        .size   test_3_blocks_variant_91_edges_6, .-test_3_blocks_variant_91_edges_6


        .type   test_3_blocks_variant_92_edges_6, @function
test_3_blocks_variant_92_edges_6:
# B0:
#   goto B2;
#
# B1:
#   return;
#
# B2:
#   if(...) goto B1;
#   if(...) goto B3;
#   goto B4;
#
# B3:
#   goto B1;
#
# B4:
#   goto B4;
#

.L_117_92_0:
        jmp .L_117_92_2
.L_117_92_1:
        pushl   $.LC_ret
        calll   puts
        addl    $4, %esp
        movl    $0, %eax
        ret        
        
.L_117_92_2:
        pushl   $.LC_2
        calll   puts
        addl    $4, %esp

        cmpl    $0, conditions+100
        je     .L_117_92_1

        cmpl    $0, conditions+104
        je     .L_117_92_3

        jmp    .L_117_92_4

.L_117_92_3:
        pushl   $.LC_3
        calll   puts
        addl    $4, %esp

        jmp    .L_117_92_1

.L_117_92_4:
        pushl   $.LC_4
        calll   puts
        addl    $4, %esp

        jmp    .L_117_92_4

.L_117_92_FE1:
        .size   test_3_blocks_variant_92_edges_6, .-test_3_blocks_variant_92_edges_6


        .type   test_3_blocks_variant_93_edges_6, @function
test_3_blocks_variant_93_edges_6:
# B0:
#   goto B2;
#
# B1:
#   return;
#
# B2:
#   if(...) goto B1;
#   if(...) goto B3;
#   goto B4;
#
# B3:
#   goto B2;
#
# B4:
#   goto B2;
#

.L_118_93_0:
        jmp .L_118_93_2
.L_118_93_1:
        pushl   $.LC_ret
        calll   puts
        addl    $4, %esp
        movl    $0, %eax
        ret        
        
.L_118_93_2:
        pushl   $.LC_2
        calll   puts
        addl    $4, %esp

        cmpl    $0, conditions+100
        je     .L_118_93_1

        cmpl    $0, conditions+104
        je     .L_118_93_3

        jmp    .L_118_93_4

.L_118_93_3:
        pushl   $.LC_3
        calll   puts
        addl    $4, %esp

        jmp    .L_118_93_2

.L_118_93_4:
        pushl   $.LC_4
        calll   puts
        addl    $4, %esp

        jmp    .L_118_93_2

.L_118_93_FE1:
        .size   test_3_blocks_variant_93_edges_6, .-test_3_blocks_variant_93_edges_6


        .type   test_3_blocks_variant_94_edges_6, @function
test_3_blocks_variant_94_edges_6:
# B0:
#   goto B2;
#
# B1:
#   return;
#
# B2:
#   if(...) goto B1;
#   if(...) goto B3;
#   goto B4;
#
# B3:
#   goto B2;
#
# B4:
#   goto B3;
#

.L_119_94_0:
        jmp .L_119_94_2
.L_119_94_1:
        pushl   $.LC_ret
        calll   puts
        addl    $4, %esp
        movl    $0, %eax
        ret        
        
.L_119_94_2:
        pushl   $.LC_2
        calll   puts
        addl    $4, %esp

        cmpl    $0, conditions+100
        je     .L_119_94_1

        cmpl    $0, conditions+104
        je     .L_119_94_3

        jmp    .L_119_94_4

.L_119_94_3:
        pushl   $.LC_3
        calll   puts
        addl    $4, %esp

        jmp    .L_119_94_2

.L_119_94_4:
        pushl   $.LC_4
        calll   puts
        addl    $4, %esp

        jmp    .L_119_94_3

.L_119_94_FE1:
        .size   test_3_blocks_variant_94_edges_6, .-test_3_blocks_variant_94_edges_6


        .type   test_3_blocks_variant_95_edges_6, @function
test_3_blocks_variant_95_edges_6:
# B0:
#   goto B2;
#
# B1:
#   return;
#
# B2:
#   if(...) goto B1;
#   if(...) goto B3;
#   goto B4;
#
# B3:
#   goto B2;
#
# B4:
#   goto B4;
#

.L_120_95_0:
        jmp .L_120_95_2
.L_120_95_1:
        pushl   $.LC_ret
        calll   puts
        addl    $4, %esp
        movl    $0, %eax
        ret        
        
.L_120_95_2:
        pushl   $.LC_2
        calll   puts
        addl    $4, %esp

        cmpl    $0, conditions+100
        je     .L_120_95_1

        cmpl    $0, conditions+104
        je     .L_120_95_3

        jmp    .L_120_95_4

.L_120_95_3:
        pushl   $.LC_3
        calll   puts
        addl    $4, %esp

        jmp    .L_120_95_2

.L_120_95_4:
        pushl   $.LC_4
        calll   puts
        addl    $4, %esp

        jmp    .L_120_95_4

.L_120_95_FE1:
        .size   test_3_blocks_variant_95_edges_6, .-test_3_blocks_variant_95_edges_6


        .type   test_3_blocks_variant_96_edges_6, @function
test_3_blocks_variant_96_edges_6:
# B0:
#   goto B2;
#
# B1:
#   return;
#
# B2:
#   if(...) goto B1;
#   if(...) goto B3;
#   goto B4;
#
# B3:
#   goto B3;
#
# B4:
#   goto B3;
#

.L_121_96_0:
        jmp .L_121_96_2
.L_121_96_1:
        pushl   $.LC_ret
        calll   puts
        addl    $4, %esp
        movl    $0, %eax
        ret        
        
.L_121_96_2:
        pushl   $.LC_2
        calll   puts
        addl    $4, %esp

        cmpl    $0, conditions+100
        je     .L_121_96_1

        cmpl    $0, conditions+104
        je     .L_121_96_3

        jmp    .L_121_96_4

.L_121_96_3:
        pushl   $.LC_3
        calll   puts
        addl    $4, %esp

        jmp    .L_121_96_3

.L_121_96_4:
        pushl   $.LC_4
        calll   puts
        addl    $4, %esp

        jmp    .L_121_96_3

.L_121_96_FE1:
        .size   test_3_blocks_variant_96_edges_6, .-test_3_blocks_variant_96_edges_6


        .type   test_3_blocks_variant_97_edges_6, @function
test_3_blocks_variant_97_edges_6:
# B0:
#   goto B2;
#
# B1:
#   return;
#
# B2:
#   if(...) goto B1;
#   if(...) goto B3;
#   goto B4;
#
# B3:
#   goto B3;
#
# B4:
#   goto B4;
#

.L_122_97_0:
        jmp .L_122_97_2
.L_122_97_1:
        pushl   $.LC_ret
        calll   puts
        addl    $4, %esp
        movl    $0, %eax
        ret        
        
.L_122_97_2:
        pushl   $.LC_2
        calll   puts
        addl    $4, %esp

        cmpl    $0, conditions+100
        je     .L_122_97_1

        cmpl    $0, conditions+104
        je     .L_122_97_3

        jmp    .L_122_97_4

.L_122_97_3:
        pushl   $.LC_3
        calll   puts
        addl    $4, %esp

        jmp    .L_122_97_3

.L_122_97_4:
        pushl   $.LC_4
        calll   puts
        addl    $4, %esp

        jmp    .L_122_97_4

.L_122_97_FE1:
        .size   test_3_blocks_variant_97_edges_6, .-test_3_blocks_variant_97_edges_6


        .type   test_3_blocks_variant_98_edges_6, @function
test_3_blocks_variant_98_edges_6:
# B0:
#   goto B2;
#
# B1:
#   return;
#
# B2:
#   if(...) goto B1;
#   if(...) goto B3;
#   goto B4;
#
# B3:
#   goto B4;
#
# B4:
#   goto B3;
#

.L_123_98_0:
        jmp .L_123_98_2
.L_123_98_1:
        pushl   $.LC_ret
        calll   puts
        addl    $4, %esp
        movl    $0, %eax
        ret        
        
.L_123_98_2:
        pushl   $.LC_2
        calll   puts
        addl    $4, %esp

        cmpl    $0, conditions+100
        je     .L_123_98_1

        cmpl    $0, conditions+104
        je     .L_123_98_3

        jmp    .L_123_98_4

.L_123_98_3:
        pushl   $.LC_3
        calll   puts
        addl    $4, %esp

        jmp    .L_123_98_4

.L_123_98_4:
        pushl   $.LC_4
        calll   puts
        addl    $4, %esp

        jmp    .L_123_98_3

.L_123_98_FE1:
        .size   test_3_blocks_variant_98_edges_6, .-test_3_blocks_variant_98_edges_6


        .type   test_3_blocks_variant_99_edges_6, @function
test_3_blocks_variant_99_edges_6:
# B0:
#   goto B2;
#
# B1:
#   return;
#
# B2:
#   if(...) goto B2;
#   if(...) goto B3;
#   goto B4;
#
# B3:
#   goto B1;
#
# B4:
#   goto B1;
#

.L_124_99_0:
        jmp .L_124_99_2
.L_124_99_1:
        pushl   $.LC_ret
        calll   puts
        addl    $4, %esp
        movl    $0, %eax
        ret        
        
.L_124_99_2:
        pushl   $.LC_2
        calll   puts
        addl    $4, %esp

        cmpl    $0, conditions+100
        je     .L_124_99_2

        cmpl    $0, conditions+104
        je     .L_124_99_3

        jmp    .L_124_99_4

.L_124_99_3:
        pushl   $.LC_3
        calll   puts
        addl    $4, %esp

        jmp    .L_124_99_1

.L_124_99_4:
        pushl   $.LC_4
        calll   puts
        addl    $4, %esp

        jmp    .L_124_99_1

.L_124_99_FE1:
        .size   test_3_blocks_variant_99_edges_6, .-test_3_blocks_variant_99_edges_6


        .type   test_3_blocks_variant_100_edges_6, @function
test_3_blocks_variant_100_edges_6:
# B0:
#   goto B2;
#
# B1:
#   return;
#
# B2:
#   if(...) goto B2;
#   if(...) goto B3;
#   goto B4;
#
# B3:
#   goto B1;
#
# B4:
#   goto B2;
#

.L_125_100_0:
        jmp .L_125_100_2
.L_125_100_1:
        pushl   $.LC_ret
        calll   puts
        addl    $4, %esp
        movl    $0, %eax
        ret        
        
.L_125_100_2:
        pushl   $.LC_2
        calll   puts
        addl    $4, %esp

        cmpl    $0, conditions+100
        je     .L_125_100_2

        cmpl    $0, conditions+104
        je     .L_125_100_3

        jmp    .L_125_100_4

.L_125_100_3:
        pushl   $.LC_3
        calll   puts
        addl    $4, %esp

        jmp    .L_125_100_1

.L_125_100_4:
        pushl   $.LC_4
        calll   puts
        addl    $4, %esp

        jmp    .L_125_100_2

.L_125_100_FE1:
        .size   test_3_blocks_variant_100_edges_6, .-test_3_blocks_variant_100_edges_6


        .type   test_3_blocks_variant_101_edges_6, @function
test_3_blocks_variant_101_edges_6:
# B0:
#   goto B2;
#
# B1:
#   return;
#
# B2:
#   if(...) goto B2;
#   if(...) goto B3;
#   goto B4;
#
# B3:
#   goto B1;
#
# B4:
#   goto B3;
#

.L_126_101_0:
        jmp .L_126_101_2
.L_126_101_1:
        pushl   $.LC_ret
        calll   puts
        addl    $4, %esp
        movl    $0, %eax
        ret        
        
.L_126_101_2:
        pushl   $.LC_2
        calll   puts
        addl    $4, %esp

        cmpl    $0, conditions+100
        je     .L_126_101_2

        cmpl    $0, conditions+104
        je     .L_126_101_3

        jmp    .L_126_101_4

.L_126_101_3:
        pushl   $.LC_3
        calll   puts
        addl    $4, %esp

        jmp    .L_126_101_1

.L_126_101_4:
        pushl   $.LC_4
        calll   puts
        addl    $4, %esp

        jmp    .L_126_101_3

.L_126_101_FE1:
        .size   test_3_blocks_variant_101_edges_6, .-test_3_blocks_variant_101_edges_6


        .type   test_3_blocks_variant_102_edges_6, @function
test_3_blocks_variant_102_edges_6:
# B0:
#   goto B2;
#
# B1:
#   return;
#
# B2:
#   if(...) goto B2;
#   if(...) goto B3;
#   goto B4;
#
# B3:
#   goto B1;
#
# B4:
#   goto B4;
#

.L_127_102_0:
        jmp .L_127_102_2
.L_127_102_1:
        pushl   $.LC_ret
        calll   puts
        addl    $4, %esp
        movl    $0, %eax
        ret        
        
.L_127_102_2:
        pushl   $.LC_2
        calll   puts
        addl    $4, %esp

        cmpl    $0, conditions+100
        je     .L_127_102_2

        cmpl    $0, conditions+104
        je     .L_127_102_3

        jmp    .L_127_102_4

.L_127_102_3:
        pushl   $.LC_3
        calll   puts
        addl    $4, %esp

        jmp    .L_127_102_1

.L_127_102_4:
        pushl   $.LC_4
        calll   puts
        addl    $4, %esp

        jmp    .L_127_102_4

.L_127_102_FE1:
        .size   test_3_blocks_variant_102_edges_6, .-test_3_blocks_variant_102_edges_6


        .type   test_3_blocks_variant_103_edges_7, @function
test_3_blocks_variant_103_edges_7:
# B0:
#   goto B2;
#
# B1:
#   return;
#
# B2:
#   goto B3;
#
# B3:
#   goto B4;
#
# B4:
#   if(...) goto B1;
#   if(...) goto B2;
#   if(...) goto B3;
#   goto B4;
#

.L_128_103_0:
        jmp .L_128_103_2
.L_128_103_1:
        pushl   $.LC_ret
        calll   puts
        addl    $4, %esp
        movl    $0, %eax
        ret        
        
.L_128_103_2:
        pushl   $.LC_2
        calll   puts
        addl    $4, %esp

        jmp    .L_128_103_3

.L_128_103_3:
        pushl   $.LC_3
        calll   puts
        addl    $4, %esp

        jmp    .L_128_103_4

.L_128_103_4:
        pushl   $.LC_4
        calll   puts
        addl    $4, %esp

        cmpl    $0, conditions+100
        je     .L_128_103_1

        cmpl    $0, conditions+104
        je     .L_128_103_2

        cmpl    $0, conditions+108
        je     .L_128_103_3

        jmp    .L_128_103_4

.L_128_103_FE1:
        .size   test_3_blocks_variant_103_edges_7, .-test_3_blocks_variant_103_edges_7


        .type   test_3_blocks_variant_104_edges_7, @function
test_3_blocks_variant_104_edges_7:
# B0:
#   goto B2;
#
# B1:
#   return;
#
# B2:
#   goto B3;
#
# B3:
#   if(...) goto B1;
#   goto B4;
#
# B4:
#   if(...) goto B1;
#   if(...) goto B2;
#   goto B3;
#

.L_129_104_0:
        jmp .L_129_104_2
.L_129_104_1:
        pushl   $.LC_ret
        calll   puts
        addl    $4, %esp
        movl    $0, %eax
        ret        
        
.L_129_104_2:
        pushl   $.LC_2
        calll   puts
        addl    $4, %esp

        jmp    .L_129_104_3

.L_129_104_3:
        pushl   $.LC_3
        calll   puts
        addl    $4, %esp

        cmpl    $0, conditions+100
        je     .L_129_104_1

        jmp    .L_129_104_4

.L_129_104_4:
        pushl   $.LC_4
        calll   puts
        addl    $4, %esp

        cmpl    $0, conditions+104
        je     .L_129_104_1

        cmpl    $0, conditions+108
        je     .L_129_104_2

        jmp    .L_129_104_3

.L_129_104_FE1:
        .size   test_3_blocks_variant_104_edges_7, .-test_3_blocks_variant_104_edges_7


        .type   test_3_blocks_variant_105_edges_7, @function
test_3_blocks_variant_105_edges_7:
# B0:
#   goto B2;
#
# B1:
#   return;
#
# B2:
#   goto B3;
#
# B3:
#   if(...) goto B1;
#   goto B4;
#
# B4:
#   if(...) goto B1;
#   if(...) goto B2;
#   goto B4;
#

.L_130_105_0:
        jmp .L_130_105_2
.L_130_105_1:
        pushl   $.LC_ret
        calll   puts
        addl    $4, %esp
        movl    $0, %eax
        ret        
        
.L_130_105_2:
        pushl   $.LC_2
        calll   puts
        addl    $4, %esp

        jmp    .L_130_105_3

.L_130_105_3:
        pushl   $.LC_3
        calll   puts
        addl    $4, %esp

        cmpl    $0, conditions+100
        je     .L_130_105_1

        jmp    .L_130_105_4

.L_130_105_4:
        pushl   $.LC_4
        calll   puts
        addl    $4, %esp

        cmpl    $0, conditions+104
        je     .L_130_105_1

        cmpl    $0, conditions+108
        je     .L_130_105_2

        jmp    .L_130_105_4

.L_130_105_FE1:
        .size   test_3_blocks_variant_105_edges_7, .-test_3_blocks_variant_105_edges_7


        .type   test_3_blocks_variant_106_edges_7, @function
test_3_blocks_variant_106_edges_7:
# B0:
#   goto B2;
#
# B1:
#   return;
#
# B2:
#   goto B3;
#
# B3:
#   if(...) goto B1;
#   goto B4;
#
# B4:
#   if(...) goto B1;
#   if(...) goto B3;
#   goto B4;
#

.L_131_106_0:
        jmp .L_131_106_2
.L_131_106_1:
        pushl   $.LC_ret
        calll   puts
        addl    $4, %esp
        movl    $0, %eax
        ret        
        
.L_131_106_2:
        pushl   $.LC_2
        calll   puts
        addl    $4, %esp

        jmp    .L_131_106_3

.L_131_106_3:
        pushl   $.LC_3
        calll   puts
        addl    $4, %esp

        cmpl    $0, conditions+100
        je     .L_131_106_1

        jmp    .L_131_106_4

.L_131_106_4:
        pushl   $.LC_4
        calll   puts
        addl    $4, %esp

        cmpl    $0, conditions+104
        je     .L_131_106_1

        cmpl    $0, conditions+108
        je     .L_131_106_3

        jmp    .L_131_106_4

.L_131_106_FE1:
        .size   test_3_blocks_variant_106_edges_7, .-test_3_blocks_variant_106_edges_7


        .type   test_3_blocks_variant_107_edges_7, @function
test_3_blocks_variant_107_edges_7:
# B0:
#   goto B2;
#
# B1:
#   return;
#
# B2:
#   goto B3;
#
# B3:
#   if(...) goto B1;
#   goto B4;
#
# B4:
#   if(...) goto B2;
#   if(...) goto B3;
#   goto B4;
#

.L_132_107_0:
        jmp .L_132_107_2
.L_132_107_1:
        pushl   $.LC_ret
        calll   puts
        addl    $4, %esp
        movl    $0, %eax
        ret        
        
.L_132_107_2:
        pushl   $.LC_2
        calll   puts
        addl    $4, %esp

        jmp    .L_132_107_3

.L_132_107_3:
        pushl   $.LC_3
        calll   puts
        addl    $4, %esp

        cmpl    $0, conditions+100
        je     .L_132_107_1

        jmp    .L_132_107_4

.L_132_107_4:
        pushl   $.LC_4
        calll   puts
        addl    $4, %esp

        cmpl    $0, conditions+104
        je     .L_132_107_2

        cmpl    $0, conditions+108
        je     .L_132_107_3

        jmp    .L_132_107_4

.L_132_107_FE1:
        .size   test_3_blocks_variant_107_edges_7, .-test_3_blocks_variant_107_edges_7


        .type   test_3_blocks_variant_108_edges_7, @function
test_3_blocks_variant_108_edges_7:
# B0:
#   goto B2;
#
# B1:
#   return;
#
# B2:
#   goto B3;
#
# B3:
#   if(...) goto B2;
#   goto B4;
#
# B4:
#   if(...) goto B1;
#   if(...) goto B2;
#   goto B3;
#

.L_133_108_0:
        jmp .L_133_108_2
.L_133_108_1:
        pushl   $.LC_ret
        calll   puts
        addl    $4, %esp
        movl    $0, %eax
        ret        
        
.L_133_108_2:
        pushl   $.LC_2
        calll   puts
        addl    $4, %esp

        jmp    .L_133_108_3

.L_133_108_3:
        pushl   $.LC_3
        calll   puts
        addl    $4, %esp

        cmpl    $0, conditions+100
        je     .L_133_108_2

        jmp    .L_133_108_4

.L_133_108_4:
        pushl   $.LC_4
        calll   puts
        addl    $4, %esp

        cmpl    $0, conditions+104
        je     .L_133_108_1

        cmpl    $0, conditions+108
        je     .L_133_108_2

        jmp    .L_133_108_3

.L_133_108_FE1:
        .size   test_3_blocks_variant_108_edges_7, .-test_3_blocks_variant_108_edges_7


        .type   test_3_blocks_variant_109_edges_7, @function
test_3_blocks_variant_109_edges_7:
# B0:
#   goto B2;
#
# B1:
#   return;
#
# B2:
#   goto B3;
#
# B3:
#   if(...) goto B2;
#   goto B4;
#
# B4:
#   if(...) goto B1;
#   if(...) goto B2;
#   goto B4;
#

.L_134_109_0:
        jmp .L_134_109_2
.L_134_109_1:
        pushl   $.LC_ret
        calll   puts
        addl    $4, %esp
        movl    $0, %eax
        ret        
        
.L_134_109_2:
        pushl   $.LC_2
        calll   puts
        addl    $4, %esp

        jmp    .L_134_109_3

.L_134_109_3:
        pushl   $.LC_3
        calll   puts
        addl    $4, %esp

        cmpl    $0, conditions+100
        je     .L_134_109_2

        jmp    .L_134_109_4

.L_134_109_4:
        pushl   $.LC_4
        calll   puts
        addl    $4, %esp

        cmpl    $0, conditions+104
        je     .L_134_109_1

        cmpl    $0, conditions+108
        je     .L_134_109_2

        jmp    .L_134_109_4

.L_134_109_FE1:
        .size   test_3_blocks_variant_109_edges_7, .-test_3_blocks_variant_109_edges_7


        .type   test_3_blocks_variant_110_edges_7, @function
test_3_blocks_variant_110_edges_7:
# B0:
#   goto B2;
#
# B1:
#   return;
#
# B2:
#   goto B3;
#
# B3:
#   if(...) goto B2;
#   goto B4;
#
# B4:
#   if(...) goto B1;
#   if(...) goto B3;
#   goto B4;
#

.L_135_110_0:
        jmp .L_135_110_2
.L_135_110_1:
        pushl   $.LC_ret
        calll   puts
        addl    $4, %esp
        movl    $0, %eax
        ret        
        
.L_135_110_2:
        pushl   $.LC_2
        calll   puts
        addl    $4, %esp

        jmp    .L_135_110_3

.L_135_110_3:
        pushl   $.LC_3
        calll   puts
        addl    $4, %esp

        cmpl    $0, conditions+100
        je     .L_135_110_2

        jmp    .L_135_110_4

.L_135_110_4:
        pushl   $.LC_4
        calll   puts
        addl    $4, %esp

        cmpl    $0, conditions+104
        je     .L_135_110_1

        cmpl    $0, conditions+108
        je     .L_135_110_3

        jmp    .L_135_110_4

.L_135_110_FE1:
        .size   test_3_blocks_variant_110_edges_7, .-test_3_blocks_variant_110_edges_7


        .type   test_3_blocks_variant_111_edges_7, @function
test_3_blocks_variant_111_edges_7:
# B0:
#   goto B2;
#
# B1:
#   return;
#
# B2:
#   goto B3;
#
# B3:
#   if(...) goto B3;
#   goto B4;
#
# B4:
#   if(...) goto B1;
#   if(...) goto B2;
#   goto B3;
#

.L_136_111_0:
        jmp .L_136_111_2
.L_136_111_1:
        pushl   $.LC_ret
        calll   puts
        addl    $4, %esp
        movl    $0, %eax
        ret        
        
.L_136_111_2:
        pushl   $.LC_2
        calll   puts
        addl    $4, %esp

        jmp    .L_136_111_3

.L_136_111_3:
        pushl   $.LC_3
        calll   puts
        addl    $4, %esp

        cmpl    $0, conditions+100
        je     .L_136_111_3

        jmp    .L_136_111_4

.L_136_111_4:
        pushl   $.LC_4
        calll   puts
        addl    $4, %esp

        cmpl    $0, conditions+104
        je     .L_136_111_1

        cmpl    $0, conditions+108
        je     .L_136_111_2

        jmp    .L_136_111_3

.L_136_111_FE1:
        .size   test_3_blocks_variant_111_edges_7, .-test_3_blocks_variant_111_edges_7


        .type   test_3_blocks_variant_112_edges_7, @function
test_3_blocks_variant_112_edges_7:
# B0:
#   goto B2;
#
# B1:
#   return;
#
# B2:
#   goto B3;
#
# B3:
#   if(...) goto B3;
#   goto B4;
#
# B4:
#   if(...) goto B1;
#   if(...) goto B2;
#   goto B4;
#

.L_137_112_0:
        jmp .L_137_112_2
.L_137_112_1:
        pushl   $.LC_ret
        calll   puts
        addl    $4, %esp
        movl    $0, %eax
        ret        
        
.L_137_112_2:
        pushl   $.LC_2
        calll   puts
        addl    $4, %esp

        jmp    .L_137_112_3

.L_137_112_3:
        pushl   $.LC_3
        calll   puts
        addl    $4, %esp

        cmpl    $0, conditions+100
        je     .L_137_112_3

        jmp    .L_137_112_4

.L_137_112_4:
        pushl   $.LC_4
        calll   puts
        addl    $4, %esp

        cmpl    $0, conditions+104
        je     .L_137_112_1

        cmpl    $0, conditions+108
        je     .L_137_112_2

        jmp    .L_137_112_4

.L_137_112_FE1:
        .size   test_3_blocks_variant_112_edges_7, .-test_3_blocks_variant_112_edges_7


        .type   test_3_blocks_variant_113_edges_7, @function
test_3_blocks_variant_113_edges_7:
# B0:
#   goto B2;
#
# B1:
#   return;
#
# B2:
#   goto B3;
#
# B3:
#   if(...) goto B3;
#   goto B4;
#
# B4:
#   if(...) goto B1;
#   if(...) goto B3;
#   goto B4;
#

.L_138_113_0:
        jmp .L_138_113_2
.L_138_113_1:
        pushl   $.LC_ret
        calll   puts
        addl    $4, %esp
        movl    $0, %eax
        ret        
        
.L_138_113_2:
        pushl   $.LC_2
        calll   puts
        addl    $4, %esp

        jmp    .L_138_113_3

.L_138_113_3:
        pushl   $.LC_3
        calll   puts
        addl    $4, %esp

        cmpl    $0, conditions+100
        je     .L_138_113_3

        jmp    .L_138_113_4

.L_138_113_4:
        pushl   $.LC_4
        calll   puts
        addl    $4, %esp

        cmpl    $0, conditions+104
        je     .L_138_113_1

        cmpl    $0, conditions+108
        je     .L_138_113_3

        jmp    .L_138_113_4

.L_138_113_FE1:
        .size   test_3_blocks_variant_113_edges_7, .-test_3_blocks_variant_113_edges_7


        .type   test_3_blocks_variant_114_edges_7, @function
test_3_blocks_variant_114_edges_7:
# B0:
#   goto B2;
#
# B1:
#   return;
#
# B2:
#   goto B3;
#
# B3:
#   if(...) goto B1;
#   if(...) goto B2;
#   goto B4;
#
# B4:
#   if(...) goto B1;
#   goto B2;
#

.L_139_114_0:
        jmp .L_139_114_2
.L_139_114_1:
        pushl   $.LC_ret
        calll   puts
        addl    $4, %esp
        movl    $0, %eax
        ret        
        
.L_139_114_2:
        pushl   $.LC_2
        calll   puts
        addl    $4, %esp

        jmp    .L_139_114_3

.L_139_114_3:
        pushl   $.LC_3
        calll   puts
        addl    $4, %esp

        cmpl    $0, conditions+100
        je     .L_139_114_1

        cmpl    $0, conditions+104
        je     .L_139_114_2

        jmp    .L_139_114_4

.L_139_114_4:
        pushl   $.LC_4
        calll   puts
        addl    $4, %esp

        cmpl    $0, conditions+108
        je     .L_139_114_1

        jmp    .L_139_114_2

.L_139_114_FE1:
        .size   test_3_blocks_variant_114_edges_7, .-test_3_blocks_variant_114_edges_7


        .type   test_3_blocks_variant_115_edges_7, @function
test_3_blocks_variant_115_edges_7:
# B0:
#   goto B2;
#
# B1:
#   return;
#
# B2:
#   goto B3;
#
# B3:
#   if(...) goto B1;
#   if(...) goto B2;
#   goto B4;
#
# B4:
#   if(...) goto B1;
#   goto B3;
#

.L_140_115_0:
        jmp .L_140_115_2
.L_140_115_1:
        pushl   $.LC_ret
        calll   puts
        addl    $4, %esp
        movl    $0, %eax
        ret        
        
.L_140_115_2:
        pushl   $.LC_2
        calll   puts
        addl    $4, %esp

        jmp    .L_140_115_3

.L_140_115_3:
        pushl   $.LC_3
        calll   puts
        addl    $4, %esp

        cmpl    $0, conditions+100
        je     .L_140_115_1

        cmpl    $0, conditions+104
        je     .L_140_115_2

        jmp    .L_140_115_4

.L_140_115_4:
        pushl   $.LC_4
        calll   puts
        addl    $4, %esp

        cmpl    $0, conditions+108
        je     .L_140_115_1

        jmp    .L_140_115_3

.L_140_115_FE1:
        .size   test_3_blocks_variant_115_edges_7, .-test_3_blocks_variant_115_edges_7


        .type   test_3_blocks_variant_116_edges_7, @function
test_3_blocks_variant_116_edges_7:
# B0:
#   goto B2;
#
# B1:
#   return;
#
# B2:
#   goto B3;
#
# B3:
#   if(...) goto B1;
#   if(...) goto B2;
#   goto B4;
#
# B4:
#   if(...) goto B1;
#   goto B4;
#

.L_141_116_0:
        jmp .L_141_116_2
.L_141_116_1:
        pushl   $.LC_ret
        calll   puts
        addl    $4, %esp
        movl    $0, %eax
        ret        
        
.L_141_116_2:
        pushl   $.LC_2
        calll   puts
        addl    $4, %esp

        jmp    .L_141_116_3

.L_141_116_3:
        pushl   $.LC_3
        calll   puts
        addl    $4, %esp

        cmpl    $0, conditions+100
        je     .L_141_116_1

        cmpl    $0, conditions+104
        je     .L_141_116_2

        jmp    .L_141_116_4

.L_141_116_4:
        pushl   $.LC_4
        calll   puts
        addl    $4, %esp

        cmpl    $0, conditions+108
        je     .L_141_116_1

        jmp    .L_141_116_4

.L_141_116_FE1:
        .size   test_3_blocks_variant_116_edges_7, .-test_3_blocks_variant_116_edges_7


        .type   test_3_blocks_variant_117_edges_7, @function
test_3_blocks_variant_117_edges_7:
# B0:
#   goto B2;
#
# B1:
#   return;
#
# B2:
#   goto B3;
#
# B3:
#   if(...) goto B1;
#   if(...) goto B2;
#   goto B4;
#
# B4:
#   if(...) goto B2;
#   goto B3;
#

.L_142_117_0:
        jmp .L_142_117_2
.L_142_117_1:
        pushl   $.LC_ret
        calll   puts
        addl    $4, %esp
        movl    $0, %eax
        ret        
        
.L_142_117_2:
        pushl   $.LC_2
        calll   puts
        addl    $4, %esp

        jmp    .L_142_117_3

.L_142_117_3:
        pushl   $.LC_3
        calll   puts
        addl    $4, %esp

        cmpl    $0, conditions+100
        je     .L_142_117_1

        cmpl    $0, conditions+104
        je     .L_142_117_2

        jmp    .L_142_117_4

.L_142_117_4:
        pushl   $.LC_4
        calll   puts
        addl    $4, %esp

        cmpl    $0, conditions+108
        je     .L_142_117_2

        jmp    .L_142_117_3

.L_142_117_FE1:
        .size   test_3_blocks_variant_117_edges_7, .-test_3_blocks_variant_117_edges_7


        .type   test_3_blocks_variant_118_edges_7, @function
test_3_blocks_variant_118_edges_7:
# B0:
#   goto B2;
#
# B1:
#   return;
#
# B2:
#   goto B3;
#
# B3:
#   if(...) goto B1;
#   if(...) goto B2;
#   goto B4;
#
# B4:
#   if(...) goto B2;
#   goto B4;
#

.L_143_118_0:
        jmp .L_143_118_2
.L_143_118_1:
        pushl   $.LC_ret
        calll   puts
        addl    $4, %esp
        movl    $0, %eax
        ret        
        
.L_143_118_2:
        pushl   $.LC_2
        calll   puts
        addl    $4, %esp

        jmp    .L_143_118_3

.L_143_118_3:
        pushl   $.LC_3
        calll   puts
        addl    $4, %esp

        cmpl    $0, conditions+100
        je     .L_143_118_1

        cmpl    $0, conditions+104
        je     .L_143_118_2

        jmp    .L_143_118_4

.L_143_118_4:
        pushl   $.LC_4
        calll   puts
        addl    $4, %esp

        cmpl    $0, conditions+108
        je     .L_143_118_2

        jmp    .L_143_118_4

.L_143_118_FE1:
        .size   test_3_blocks_variant_118_edges_7, .-test_3_blocks_variant_118_edges_7


        .type   test_3_blocks_variant_119_edges_7, @function
test_3_blocks_variant_119_edges_7:
# B0:
#   goto B2;
#
# B1:
#   return;
#
# B2:
#   goto B3;
#
# B3:
#   if(...) goto B1;
#   if(...) goto B2;
#   goto B4;
#
# B4:
#   if(...) goto B3;
#   goto B4;
#

.L_144_119_0:
        jmp .L_144_119_2
.L_144_119_1:
        pushl   $.LC_ret
        calll   puts
        addl    $4, %esp
        movl    $0, %eax
        ret        
        
.L_144_119_2:
        pushl   $.LC_2
        calll   puts
        addl    $4, %esp

        jmp    .L_144_119_3

.L_144_119_3:
        pushl   $.LC_3
        calll   puts
        addl    $4, %esp

        cmpl    $0, conditions+100
        je     .L_144_119_1

        cmpl    $0, conditions+104
        je     .L_144_119_2

        jmp    .L_144_119_4

.L_144_119_4:
        pushl   $.LC_4
        calll   puts
        addl    $4, %esp

        cmpl    $0, conditions+108
        je     .L_144_119_3

        jmp    .L_144_119_4

.L_144_119_FE1:
        .size   test_3_blocks_variant_119_edges_7, .-test_3_blocks_variant_119_edges_7


        .type   test_3_blocks_variant_120_edges_7, @function
test_3_blocks_variant_120_edges_7:
# B0:
#   goto B2;
#
# B1:
#   return;
#
# B2:
#   goto B3;
#
# B3:
#   if(...) goto B1;
#   if(...) goto B3;
#   goto B4;
#
# B4:
#   if(...) goto B1;
#   goto B2;
#

.L_145_120_0:
        jmp .L_145_120_2
.L_145_120_1:
        pushl   $.LC_ret
        calll   puts
        addl    $4, %esp
        movl    $0, %eax
        ret        
        
.L_145_120_2:
        pushl   $.LC_2
        calll   puts
        addl    $4, %esp

        jmp    .L_145_120_3

.L_145_120_3:
        pushl   $.LC_3
        calll   puts
        addl    $4, %esp

        cmpl    $0, conditions+100
        je     .L_145_120_1

        cmpl    $0, conditions+104
        je     .L_145_120_3

        jmp    .L_145_120_4

.L_145_120_4:
        pushl   $.LC_4
        calll   puts
        addl    $4, %esp

        cmpl    $0, conditions+108
        je     .L_145_120_1

        jmp    .L_145_120_2

.L_145_120_FE1:
        .size   test_3_blocks_variant_120_edges_7, .-test_3_blocks_variant_120_edges_7


        .type   test_3_blocks_variant_121_edges_7, @function
test_3_blocks_variant_121_edges_7:
# B0:
#   goto B2;
#
# B1:
#   return;
#
# B2:
#   goto B3;
#
# B3:
#   if(...) goto B1;
#   if(...) goto B3;
#   goto B4;
#
# B4:
#   if(...) goto B1;
#   goto B3;
#

.L_146_121_0:
        jmp .L_146_121_2
.L_146_121_1:
        pushl   $.LC_ret
        calll   puts
        addl    $4, %esp
        movl    $0, %eax
        ret        
        
.L_146_121_2:
        pushl   $.LC_2
        calll   puts
        addl    $4, %esp

        jmp    .L_146_121_3

.L_146_121_3:
        pushl   $.LC_3
        calll   puts
        addl    $4, %esp

        cmpl    $0, conditions+100
        je     .L_146_121_1

        cmpl    $0, conditions+104
        je     .L_146_121_3

        jmp    .L_146_121_4

.L_146_121_4:
        pushl   $.LC_4
        calll   puts
        addl    $4, %esp

        cmpl    $0, conditions+108
        je     .L_146_121_1

        jmp    .L_146_121_3

.L_146_121_FE1:
        .size   test_3_blocks_variant_121_edges_7, .-test_3_blocks_variant_121_edges_7


        .type   test_3_blocks_variant_122_edges_7, @function
test_3_blocks_variant_122_edges_7:
# B0:
#   goto B2;
#
# B1:
#   return;
#
# B2:
#   goto B3;
#
# B3:
#   if(...) goto B1;
#   if(...) goto B3;
#   goto B4;
#
# B4:
#   if(...) goto B1;
#   goto B4;
#

.L_147_122_0:
        jmp .L_147_122_2
.L_147_122_1:
        pushl   $.LC_ret
        calll   puts
        addl    $4, %esp
        movl    $0, %eax
        ret        
        
.L_147_122_2:
        pushl   $.LC_2
        calll   puts
        addl    $4, %esp

        jmp    .L_147_122_3

.L_147_122_3:
        pushl   $.LC_3
        calll   puts
        addl    $4, %esp

        cmpl    $0, conditions+100
        je     .L_147_122_1

        cmpl    $0, conditions+104
        je     .L_147_122_3

        jmp    .L_147_122_4

.L_147_122_4:
        pushl   $.LC_4
        calll   puts
        addl    $4, %esp

        cmpl    $0, conditions+108
        je     .L_147_122_1

        jmp    .L_147_122_4

.L_147_122_FE1:
        .size   test_3_blocks_variant_122_edges_7, .-test_3_blocks_variant_122_edges_7


        .type   test_3_blocks_variant_123_edges_7, @function
test_3_blocks_variant_123_edges_7:
# B0:
#   goto B2;
#
# B1:
#   return;
#
# B2:
#   goto B3;
#
# B3:
#   if(...) goto B1;
#   if(...) goto B3;
#   goto B4;
#
# B4:
#   if(...) goto B2;
#   goto B3;
#

.L_148_123_0:
        jmp .L_148_123_2
.L_148_123_1:
        pushl   $.LC_ret
        calll   puts
        addl    $4, %esp
        movl    $0, %eax
        ret        
        
.L_148_123_2:
        pushl   $.LC_2
        calll   puts
        addl    $4, %esp

        jmp    .L_148_123_3

.L_148_123_3:
        pushl   $.LC_3
        calll   puts
        addl    $4, %esp

        cmpl    $0, conditions+100
        je     .L_148_123_1

        cmpl    $0, conditions+104
        je     .L_148_123_3

        jmp    .L_148_123_4

.L_148_123_4:
        pushl   $.LC_4
        calll   puts
        addl    $4, %esp

        cmpl    $0, conditions+108
        je     .L_148_123_2

        jmp    .L_148_123_3

.L_148_123_FE1:
        .size   test_3_blocks_variant_123_edges_7, .-test_3_blocks_variant_123_edges_7


        .type   test_3_blocks_variant_124_edges_7, @function
test_3_blocks_variant_124_edges_7:
# B0:
#   goto B2;
#
# B1:
#   return;
#
# B2:
#   goto B3;
#
# B3:
#   if(...) goto B1;
#   if(...) goto B3;
#   goto B4;
#
# B4:
#   if(...) goto B2;
#   goto B4;
#

.L_149_124_0:
        jmp .L_149_124_2
.L_149_124_1:
        pushl   $.LC_ret
        calll   puts
        addl    $4, %esp
        movl    $0, %eax
        ret        
        
.L_149_124_2:
        pushl   $.LC_2
        calll   puts
        addl    $4, %esp

        jmp    .L_149_124_3

.L_149_124_3:
        pushl   $.LC_3
        calll   puts
        addl    $4, %esp

        cmpl    $0, conditions+100
        je     .L_149_124_1

        cmpl    $0, conditions+104
        je     .L_149_124_3

        jmp    .L_149_124_4

.L_149_124_4:
        pushl   $.LC_4
        calll   puts
        addl    $4, %esp

        cmpl    $0, conditions+108
        je     .L_149_124_2

        jmp    .L_149_124_4

.L_149_124_FE1:
        .size   test_3_blocks_variant_124_edges_7, .-test_3_blocks_variant_124_edges_7


        .type   test_3_blocks_variant_125_edges_7, @function
test_3_blocks_variant_125_edges_7:
# B0:
#   goto B2;
#
# B1:
#   return;
#
# B2:
#   goto B3;
#
# B3:
#   if(...) goto B1;
#   if(...) goto B3;
#   goto B4;
#
# B4:
#   if(...) goto B3;
#   goto B4;
#

.L_150_125_0:
        jmp .L_150_125_2
.L_150_125_1:
        pushl   $.LC_ret
        calll   puts
        addl    $4, %esp
        movl    $0, %eax
        ret        
        
.L_150_125_2:
        pushl   $.LC_2
        calll   puts
        addl    $4, %esp

        jmp    .L_150_125_3

.L_150_125_3:
        pushl   $.LC_3
        calll   puts
        addl    $4, %esp

        cmpl    $0, conditions+100
        je     .L_150_125_1

        cmpl    $0, conditions+104
        je     .L_150_125_3

        jmp    .L_150_125_4

.L_150_125_4:
        pushl   $.LC_4
        calll   puts
        addl    $4, %esp

        cmpl    $0, conditions+108
        je     .L_150_125_3

        jmp    .L_150_125_4

.L_150_125_FE1:
        .size   test_3_blocks_variant_125_edges_7, .-test_3_blocks_variant_125_edges_7


        .type   test_3_blocks_variant_126_edges_7, @function
test_3_blocks_variant_126_edges_7:
# B0:
#   goto B2;
#
# B1:
#   return;
#
# B2:
#   goto B3;
#
# B3:
#   if(...) goto B2;
#   if(...) goto B3;
#   goto B4;
#
# B4:
#   if(...) goto B1;
#   goto B2;
#

.L_151_126_0:
        jmp .L_151_126_2
.L_151_126_1:
        pushl   $.LC_ret
        calll   puts
        addl    $4, %esp
        movl    $0, %eax
        ret        
        
.L_151_126_2:
        pushl   $.LC_2
        calll   puts
        addl    $4, %esp

        jmp    .L_151_126_3

.L_151_126_3:
        pushl   $.LC_3
        calll   puts
        addl    $4, %esp

        cmpl    $0, conditions+100
        je     .L_151_126_2

        cmpl    $0, conditions+104
        je     .L_151_126_3

        jmp    .L_151_126_4

.L_151_126_4:
        pushl   $.LC_4
        calll   puts
        addl    $4, %esp

        cmpl    $0, conditions+108
        je     .L_151_126_1

        jmp    .L_151_126_2

.L_151_126_FE1:
        .size   test_3_blocks_variant_126_edges_7, .-test_3_blocks_variant_126_edges_7


        .type   test_3_blocks_variant_127_edges_7, @function
test_3_blocks_variant_127_edges_7:
# B0:
#   goto B2;
#
# B1:
#   return;
#
# B2:
#   goto B3;
#
# B3:
#   if(...) goto B2;
#   if(...) goto B3;
#   goto B4;
#
# B4:
#   if(...) goto B1;
#   goto B3;
#

.L_152_127_0:
        jmp .L_152_127_2
.L_152_127_1:
        pushl   $.LC_ret
        calll   puts
        addl    $4, %esp
        movl    $0, %eax
        ret        
        
.L_152_127_2:
        pushl   $.LC_2
        calll   puts
        addl    $4, %esp

        jmp    .L_152_127_3

.L_152_127_3:
        pushl   $.LC_3
        calll   puts
        addl    $4, %esp

        cmpl    $0, conditions+100
        je     .L_152_127_2

        cmpl    $0, conditions+104
        je     .L_152_127_3

        jmp    .L_152_127_4

.L_152_127_4:
        pushl   $.LC_4
        calll   puts
        addl    $4, %esp

        cmpl    $0, conditions+108
        je     .L_152_127_1

        jmp    .L_152_127_3

.L_152_127_FE1:
        .size   test_3_blocks_variant_127_edges_7, .-test_3_blocks_variant_127_edges_7


        .type   test_3_blocks_variant_128_edges_7, @function
test_3_blocks_variant_128_edges_7:
# B0:
#   goto B2;
#
# B1:
#   return;
#
# B2:
#   goto B3;
#
# B3:
#   if(...) goto B2;
#   if(...) goto B3;
#   goto B4;
#
# B4:
#   if(...) goto B1;
#   goto B4;
#

.L_153_128_0:
        jmp .L_153_128_2
.L_153_128_1:
        pushl   $.LC_ret
        calll   puts
        addl    $4, %esp
        movl    $0, %eax
        ret        
        
.L_153_128_2:
        pushl   $.LC_2
        calll   puts
        addl    $4, %esp

        jmp    .L_153_128_3

.L_153_128_3:
        pushl   $.LC_3
        calll   puts
        addl    $4, %esp

        cmpl    $0, conditions+100
        je     .L_153_128_2

        cmpl    $0, conditions+104
        je     .L_153_128_3

        jmp    .L_153_128_4

.L_153_128_4:
        pushl   $.LC_4
        calll   puts
        addl    $4, %esp

        cmpl    $0, conditions+108
        je     .L_153_128_1

        jmp    .L_153_128_4

.L_153_128_FE1:
        .size   test_3_blocks_variant_128_edges_7, .-test_3_blocks_variant_128_edges_7


        .type   test_3_blocks_variant_129_edges_7, @function
test_3_blocks_variant_129_edges_7:
# B0:
#   goto B2;
#
# B1:
#   return;
#
# B2:
#   goto B3;
#
# B3:
#   if(...) goto B1;
#   if(...) goto B2;
#   if(...) goto B3;
#   goto B4;
#
# B4:
#   goto B1;
#

.L_154_129_0:
        jmp .L_154_129_2
.L_154_129_1:
        pushl   $.LC_ret
        calll   puts
        addl    $4, %esp
        movl    $0, %eax
        ret        
        
.L_154_129_2:
        pushl   $.LC_2
        calll   puts
        addl    $4, %esp

        jmp    .L_154_129_3

.L_154_129_3:
        pushl   $.LC_3
        calll   puts
        addl    $4, %esp

        cmpl    $0, conditions+100
        je     .L_154_129_1

        cmpl    $0, conditions+104
        je     .L_154_129_2

        cmpl    $0, conditions+108
        je     .L_154_129_3

        jmp    .L_154_129_4

.L_154_129_4:
        pushl   $.LC_4
        calll   puts
        addl    $4, %esp

        jmp    .L_154_129_1

.L_154_129_FE1:
        .size   test_3_blocks_variant_129_edges_7, .-test_3_blocks_variant_129_edges_7


        .type   test_3_blocks_variant_130_edges_7, @function
test_3_blocks_variant_130_edges_7:
# B0:
#   goto B2;
#
# B1:
#   return;
#
# B2:
#   goto B3;
#
# B3:
#   if(...) goto B1;
#   if(...) goto B2;
#   if(...) goto B3;
#   goto B4;
#
# B4:
#   goto B2;
#

.L_155_130_0:
        jmp .L_155_130_2
.L_155_130_1:
        pushl   $.LC_ret
        calll   puts
        addl    $4, %esp
        movl    $0, %eax
        ret        
        
.L_155_130_2:
        pushl   $.LC_2
        calll   puts
        addl    $4, %esp

        jmp    .L_155_130_3

.L_155_130_3:
        pushl   $.LC_3
        calll   puts
        addl    $4, %esp

        cmpl    $0, conditions+100
        je     .L_155_130_1

        cmpl    $0, conditions+104
        je     .L_155_130_2

        cmpl    $0, conditions+108
        je     .L_155_130_3

        jmp    .L_155_130_4

.L_155_130_4:
        pushl   $.LC_4
        calll   puts
        addl    $4, %esp

        jmp    .L_155_130_2

.L_155_130_FE1:
        .size   test_3_blocks_variant_130_edges_7, .-test_3_blocks_variant_130_edges_7


        .type   test_3_blocks_variant_131_edges_7, @function
test_3_blocks_variant_131_edges_7:
# B0:
#   goto B2;
#
# B1:
#   return;
#
# B2:
#   goto B3;
#
# B3:
#   if(...) goto B1;
#   if(...) goto B2;
#   if(...) goto B3;
#   goto B4;
#
# B4:
#   goto B3;
#

.L_156_131_0:
        jmp .L_156_131_2
.L_156_131_1:
        pushl   $.LC_ret
        calll   puts
        addl    $4, %esp
        movl    $0, %eax
        ret        
        
.L_156_131_2:
        pushl   $.LC_2
        calll   puts
        addl    $4, %esp

        jmp    .L_156_131_3

.L_156_131_3:
        pushl   $.LC_3
        calll   puts
        addl    $4, %esp

        cmpl    $0, conditions+100
        je     .L_156_131_1

        cmpl    $0, conditions+104
        je     .L_156_131_2

        cmpl    $0, conditions+108
        je     .L_156_131_3

        jmp    .L_156_131_4

.L_156_131_4:
        pushl   $.LC_4
        calll   puts
        addl    $4, %esp

        jmp    .L_156_131_3

.L_156_131_FE1:
        .size   test_3_blocks_variant_131_edges_7, .-test_3_blocks_variant_131_edges_7


        .type   test_3_blocks_variant_132_edges_7, @function
test_3_blocks_variant_132_edges_7:
# B0:
#   goto B2;
#
# B1:
#   return;
#
# B2:
#   goto B3;
#
# B3:
#   if(...) goto B1;
#   if(...) goto B2;
#   if(...) goto B3;
#   goto B4;
#
# B4:
#   goto B4;
#

.L_157_132_0:
        jmp .L_157_132_2
.L_157_132_1:
        pushl   $.LC_ret
        calll   puts
        addl    $4, %esp
        movl    $0, %eax
        ret        
        
.L_157_132_2:
        pushl   $.LC_2
        calll   puts
        addl    $4, %esp

        jmp    .L_157_132_3

.L_157_132_3:
        pushl   $.LC_3
        calll   puts
        addl    $4, %esp

        cmpl    $0, conditions+100
        je     .L_157_132_1

        cmpl    $0, conditions+104
        je     .L_157_132_2

        cmpl    $0, conditions+108
        je     .L_157_132_3

        jmp    .L_157_132_4

.L_157_132_4:
        pushl   $.LC_4
        calll   puts
        addl    $4, %esp

        jmp    .L_157_132_4

.L_157_132_FE1:
        .size   test_3_blocks_variant_132_edges_7, .-test_3_blocks_variant_132_edges_7


        .type   test_3_blocks_variant_133_edges_7, @function
test_3_blocks_variant_133_edges_7:
# B0:
#   goto B2;
#
# B1:
#   return;
#
# B2:
#   if(...) goto B1;
#   goto B3;
#
# B3:
#   goto B4;
#
# B4:
#   if(...) goto B1;
#   if(...) goto B2;
#   goto B3;
#

.L_158_133_0:
        jmp .L_158_133_2
.L_158_133_1:
        pushl   $.LC_ret
        calll   puts
        addl    $4, %esp
        movl    $0, %eax
        ret        
        
.L_158_133_2:
        pushl   $.LC_2
        calll   puts
        addl    $4, %esp

        cmpl    $0, conditions+100
        je     .L_158_133_1

        jmp    .L_158_133_3

.L_158_133_3:
        pushl   $.LC_3
        calll   puts
        addl    $4, %esp

        jmp    .L_158_133_4

.L_158_133_4:
        pushl   $.LC_4
        calll   puts
        addl    $4, %esp

        cmpl    $0, conditions+104
        je     .L_158_133_1

        cmpl    $0, conditions+108
        je     .L_158_133_2

        jmp    .L_158_133_3

.L_158_133_FE1:
        .size   test_3_blocks_variant_133_edges_7, .-test_3_blocks_variant_133_edges_7


        .type   test_3_blocks_variant_134_edges_7, @function
test_3_blocks_variant_134_edges_7:
# B0:
#   goto B2;
#
# B1:
#   return;
#
# B2:
#   if(...) goto B1;
#   goto B3;
#
# B3:
#   goto B4;
#
# B4:
#   if(...) goto B1;
#   if(...) goto B2;
#   goto B4;
#

.L_159_134_0:
        jmp .L_159_134_2
.L_159_134_1:
        pushl   $.LC_ret
        calll   puts
        addl    $4, %esp
        movl    $0, %eax
        ret        
        
.L_159_134_2:
        pushl   $.LC_2
        calll   puts
        addl    $4, %esp

        cmpl    $0, conditions+100
        je     .L_159_134_1

        jmp    .L_159_134_3

.L_159_134_3:
        pushl   $.LC_3
        calll   puts
        addl    $4, %esp

        jmp    .L_159_134_4

.L_159_134_4:
        pushl   $.LC_4
        calll   puts
        addl    $4, %esp

        cmpl    $0, conditions+104
        je     .L_159_134_1

        cmpl    $0, conditions+108
        je     .L_159_134_2

        jmp    .L_159_134_4

.L_159_134_FE1:
        .size   test_3_blocks_variant_134_edges_7, .-test_3_blocks_variant_134_edges_7


        .type   test_3_blocks_variant_135_edges_7, @function
test_3_blocks_variant_135_edges_7:
# B0:
#   goto B2;
#
# B1:
#   return;
#
# B2:
#   if(...) goto B1;
#   goto B3;
#
# B3:
#   goto B4;
#
# B4:
#   if(...) goto B1;
#   if(...) goto B3;
#   goto B4;
#

.L_160_135_0:
        jmp .L_160_135_2
.L_160_135_1:
        pushl   $.LC_ret
        calll   puts
        addl    $4, %esp
        movl    $0, %eax
        ret        
        
.L_160_135_2:
        pushl   $.LC_2
        calll   puts
        addl    $4, %esp

        cmpl    $0, conditions+100
        je     .L_160_135_1

        jmp    .L_160_135_3

.L_160_135_3:
        pushl   $.LC_3
        calll   puts
        addl    $4, %esp

        jmp    .L_160_135_4

.L_160_135_4:
        pushl   $.LC_4
        calll   puts
        addl    $4, %esp

        cmpl    $0, conditions+104
        je     .L_160_135_1

        cmpl    $0, conditions+108
        je     .L_160_135_3

        jmp    .L_160_135_4

.L_160_135_FE1:
        .size   test_3_blocks_variant_135_edges_7, .-test_3_blocks_variant_135_edges_7


        .type   test_3_blocks_variant_136_edges_7, @function
test_3_blocks_variant_136_edges_7:
# B0:
#   goto B2;
#
# B1:
#   return;
#
# B2:
#   if(...) goto B1;
#   goto B3;
#
# B3:
#   goto B4;
#
# B4:
#   if(...) goto B2;
#   if(...) goto B3;
#   goto B4;
#

.L_161_136_0:
        jmp .L_161_136_2
.L_161_136_1:
        pushl   $.LC_ret
        calll   puts
        addl    $4, %esp
        movl    $0, %eax
        ret        
        
.L_161_136_2:
        pushl   $.LC_2
        calll   puts
        addl    $4, %esp

        cmpl    $0, conditions+100
        je     .L_161_136_1

        jmp    .L_161_136_3

.L_161_136_3:
        pushl   $.LC_3
        calll   puts
        addl    $4, %esp

        jmp    .L_161_136_4

.L_161_136_4:
        pushl   $.LC_4
        calll   puts
        addl    $4, %esp

        cmpl    $0, conditions+104
        je     .L_161_136_2

        cmpl    $0, conditions+108
        je     .L_161_136_3

        jmp    .L_161_136_4

.L_161_136_FE1:
        .size   test_3_blocks_variant_136_edges_7, .-test_3_blocks_variant_136_edges_7


        .type   test_3_blocks_variant_137_edges_7, @function
test_3_blocks_variant_137_edges_7:
# B0:
#   goto B2;
#
# B1:
#   return;
#
# B2:
#   if(...) goto B1;
#   goto B3;
#
# B3:
#   if(...) goto B1;
#   goto B4;
#
# B4:
#   if(...) goto B1;
#   goto B2;
#

.L_162_137_0:
        jmp .L_162_137_2
.L_162_137_1:
        pushl   $.LC_ret
        calll   puts
        addl    $4, %esp
        movl    $0, %eax
        ret        
        
.L_162_137_2:
        pushl   $.LC_2
        calll   puts
        addl    $4, %esp

        cmpl    $0, conditions+100
        je     .L_162_137_1

        jmp    .L_162_137_3

.L_162_137_3:
        pushl   $.LC_3
        calll   puts
        addl    $4, %esp

        cmpl    $0, conditions+104
        je     .L_162_137_1

        jmp    .L_162_137_4

.L_162_137_4:
        pushl   $.LC_4
        calll   puts
        addl    $4, %esp

        cmpl    $0, conditions+108
        je     .L_162_137_1

        jmp    .L_162_137_2

.L_162_137_FE1:
        .size   test_3_blocks_variant_137_edges_7, .-test_3_blocks_variant_137_edges_7


        .type   test_3_blocks_variant_138_edges_7, @function
test_3_blocks_variant_138_edges_7:
# B0:
#   goto B2;
#
# B1:
#   return;
#
# B2:
#   if(...) goto B1;
#   goto B3;
#
# B3:
#   if(...) goto B1;
#   goto B4;
#
# B4:
#   if(...) goto B1;
#   goto B3;
#

.L_163_138_0:
        jmp .L_163_138_2
.L_163_138_1:
        pushl   $.LC_ret
        calll   puts
        addl    $4, %esp
        movl    $0, %eax
        ret        
        
.L_163_138_2:
        pushl   $.LC_2
        calll   puts
        addl    $4, %esp

        cmpl    $0, conditions+100
        je     .L_163_138_1

        jmp    .L_163_138_3

.L_163_138_3:
        pushl   $.LC_3
        calll   puts
        addl    $4, %esp

        cmpl    $0, conditions+104
        je     .L_163_138_1

        jmp    .L_163_138_4

.L_163_138_4:
        pushl   $.LC_4
        calll   puts
        addl    $4, %esp

        cmpl    $0, conditions+108
        je     .L_163_138_1

        jmp    .L_163_138_3

.L_163_138_FE1:
        .size   test_3_blocks_variant_138_edges_7, .-test_3_blocks_variant_138_edges_7


        .type   test_3_blocks_variant_139_edges_7, @function
test_3_blocks_variant_139_edges_7:
# B0:
#   goto B2;
#
# B1:
#   return;
#
# B2:
#   if(...) goto B1;
#   goto B3;
#
# B3:
#   if(...) goto B1;
#   goto B4;
#
# B4:
#   if(...) goto B1;
#   goto B4;
#

.L_164_139_0:
        jmp .L_164_139_2
.L_164_139_1:
        pushl   $.LC_ret
        calll   puts
        addl    $4, %esp
        movl    $0, %eax
        ret        
        
.L_164_139_2:
        pushl   $.LC_2
        calll   puts
        addl    $4, %esp

        cmpl    $0, conditions+100
        je     .L_164_139_1

        jmp    .L_164_139_3

.L_164_139_3:
        pushl   $.LC_3
        calll   puts
        addl    $4, %esp

        cmpl    $0, conditions+104
        je     .L_164_139_1

        jmp    .L_164_139_4

.L_164_139_4:
        pushl   $.LC_4
        calll   puts
        addl    $4, %esp

        cmpl    $0, conditions+108
        je     .L_164_139_1

        jmp    .L_164_139_4

.L_164_139_FE1:
        .size   test_3_blocks_variant_139_edges_7, .-test_3_blocks_variant_139_edges_7


        .type   test_3_blocks_variant_140_edges_7, @function
test_3_blocks_variant_140_edges_7:
# B0:
#   goto B2;
#
# B1:
#   return;
#
# B2:
#   if(...) goto B1;
#   goto B3;
#
# B3:
#   if(...) goto B1;
#   goto B4;
#
# B4:
#   if(...) goto B2;
#   goto B3;
#

.L_165_140_0:
        jmp .L_165_140_2
.L_165_140_1:
        pushl   $.LC_ret
        calll   puts
        addl    $4, %esp
        movl    $0, %eax
        ret        
        
.L_165_140_2:
        pushl   $.LC_2
        calll   puts
        addl    $4, %esp

        cmpl    $0, conditions+100
        je     .L_165_140_1

        jmp    .L_165_140_3

.L_165_140_3:
        pushl   $.LC_3
        calll   puts
        addl    $4, %esp

        cmpl    $0, conditions+104
        je     .L_165_140_1

        jmp    .L_165_140_4

.L_165_140_4:
        pushl   $.LC_4
        calll   puts
        addl    $4, %esp

        cmpl    $0, conditions+108
        je     .L_165_140_2

        jmp    .L_165_140_3

.L_165_140_FE1:
        .size   test_3_blocks_variant_140_edges_7, .-test_3_blocks_variant_140_edges_7


        .type   test_3_blocks_variant_141_edges_7, @function
test_3_blocks_variant_141_edges_7:
# B0:
#   goto B2;
#
# B1:
#   return;
#
# B2:
#   if(...) goto B1;
#   goto B3;
#
# B3:
#   if(...) goto B1;
#   goto B4;
#
# B4:
#   if(...) goto B2;
#   goto B4;
#

.L_166_141_0:
        jmp .L_166_141_2
.L_166_141_1:
        pushl   $.LC_ret
        calll   puts
        addl    $4, %esp
        movl    $0, %eax
        ret        
        
.L_166_141_2:
        pushl   $.LC_2
        calll   puts
        addl    $4, %esp

        cmpl    $0, conditions+100
        je     .L_166_141_1

        jmp    .L_166_141_3

.L_166_141_3:
        pushl   $.LC_3
        calll   puts
        addl    $4, %esp

        cmpl    $0, conditions+104
        je     .L_166_141_1

        jmp    .L_166_141_4

.L_166_141_4:
        pushl   $.LC_4
        calll   puts
        addl    $4, %esp

        cmpl    $0, conditions+108
        je     .L_166_141_2

        jmp    .L_166_141_4

.L_166_141_FE1:
        .size   test_3_blocks_variant_141_edges_7, .-test_3_blocks_variant_141_edges_7


        .type   test_3_blocks_variant_142_edges_7, @function
test_3_blocks_variant_142_edges_7:
# B0:
#   goto B2;
#
# B1:
#   return;
#
# B2:
#   if(...) goto B1;
#   goto B3;
#
# B3:
#   if(...) goto B1;
#   goto B4;
#
# B4:
#   if(...) goto B3;
#   goto B4;
#

.L_167_142_0:
        jmp .L_167_142_2
.L_167_142_1:
        pushl   $.LC_ret
        calll   puts
        addl    $4, %esp
        movl    $0, %eax
        ret        
        
.L_167_142_2:
        pushl   $.LC_2
        calll   puts
        addl    $4, %esp

        cmpl    $0, conditions+100
        je     .L_167_142_1

        jmp    .L_167_142_3

.L_167_142_3:
        pushl   $.LC_3
        calll   puts
        addl    $4, %esp

        cmpl    $0, conditions+104
        je     .L_167_142_1

        jmp    .L_167_142_4

.L_167_142_4:
        pushl   $.LC_4
        calll   puts
        addl    $4, %esp

        cmpl    $0, conditions+108
        je     .L_167_142_3

        jmp    .L_167_142_4

.L_167_142_FE1:
        .size   test_3_blocks_variant_142_edges_7, .-test_3_blocks_variant_142_edges_7


        .type   test_3_blocks_variant_143_edges_7, @function
test_3_blocks_variant_143_edges_7:
# B0:
#   goto B2;
#
# B1:
#   return;
#
# B2:
#   if(...) goto B1;
#   goto B3;
#
# B3:
#   if(...) goto B2;
#   goto B4;
#
# B4:
#   if(...) goto B1;
#   goto B2;
#

.L_168_143_0:
        jmp .L_168_143_2
.L_168_143_1:
        pushl   $.LC_ret
        calll   puts
        addl    $4, %esp
        movl    $0, %eax
        ret        
        
.L_168_143_2:
        pushl   $.LC_2
        calll   puts
        addl    $4, %esp

        cmpl    $0, conditions+100
        je     .L_168_143_1

        jmp    .L_168_143_3

.L_168_143_3:
        pushl   $.LC_3
        calll   puts
        addl    $4, %esp

        cmpl    $0, conditions+104
        je     .L_168_143_2

        jmp    .L_168_143_4

.L_168_143_4:
        pushl   $.LC_4
        calll   puts
        addl    $4, %esp

        cmpl    $0, conditions+108
        je     .L_168_143_1

        jmp    .L_168_143_2

.L_168_143_FE1:
        .size   test_3_blocks_variant_143_edges_7, .-test_3_blocks_variant_143_edges_7


        .type   test_3_blocks_variant_144_edges_7, @function
test_3_blocks_variant_144_edges_7:
# B0:
#   goto B2;
#
# B1:
#   return;
#
# B2:
#   if(...) goto B1;
#   goto B3;
#
# B3:
#   if(...) goto B2;
#   goto B4;
#
# B4:
#   if(...) goto B1;
#   goto B3;
#

.L_169_144_0:
        jmp .L_169_144_2
.L_169_144_1:
        pushl   $.LC_ret
        calll   puts
        addl    $4, %esp
        movl    $0, %eax
        ret        
        
.L_169_144_2:
        pushl   $.LC_2
        calll   puts
        addl    $4, %esp

        cmpl    $0, conditions+100
        je     .L_169_144_1

        jmp    .L_169_144_3

.L_169_144_3:
        pushl   $.LC_3
        calll   puts
        addl    $4, %esp

        cmpl    $0, conditions+104
        je     .L_169_144_2

        jmp    .L_169_144_4

.L_169_144_4:
        pushl   $.LC_4
        calll   puts
        addl    $4, %esp

        cmpl    $0, conditions+108
        je     .L_169_144_1

        jmp    .L_169_144_3

.L_169_144_FE1:
        .size   test_3_blocks_variant_144_edges_7, .-test_3_blocks_variant_144_edges_7


        .type   test_3_blocks_variant_145_edges_7, @function
test_3_blocks_variant_145_edges_7:
# B0:
#   goto B2;
#
# B1:
#   return;
#
# B2:
#   if(...) goto B1;
#   goto B3;
#
# B3:
#   if(...) goto B2;
#   goto B4;
#
# B4:
#   if(...) goto B1;
#   goto B4;
#

.L_170_145_0:
        jmp .L_170_145_2
.L_170_145_1:
        pushl   $.LC_ret
        calll   puts
        addl    $4, %esp
        movl    $0, %eax
        ret        
        
.L_170_145_2:
        pushl   $.LC_2
        calll   puts
        addl    $4, %esp

        cmpl    $0, conditions+100
        je     .L_170_145_1

        jmp    .L_170_145_3

.L_170_145_3:
        pushl   $.LC_3
        calll   puts
        addl    $4, %esp

        cmpl    $0, conditions+104
        je     .L_170_145_2

        jmp    .L_170_145_4

.L_170_145_4:
        pushl   $.LC_4
        calll   puts
        addl    $4, %esp

        cmpl    $0, conditions+108
        je     .L_170_145_1

        jmp    .L_170_145_4

.L_170_145_FE1:
        .size   test_3_blocks_variant_145_edges_7, .-test_3_blocks_variant_145_edges_7


        .type   test_3_blocks_variant_146_edges_7, @function
test_3_blocks_variant_146_edges_7:
# B0:
#   goto B2;
#
# B1:
#   return;
#
# B2:
#   if(...) goto B1;
#   goto B3;
#
# B3:
#   if(...) goto B2;
#   goto B4;
#
# B4:
#   if(...) goto B2;
#   goto B3;
#

.L_171_146_0:
        jmp .L_171_146_2
.L_171_146_1:
        pushl   $.LC_ret
        calll   puts
        addl    $4, %esp
        movl    $0, %eax
        ret        
        
.L_171_146_2:
        pushl   $.LC_2
        calll   puts
        addl    $4, %esp

        cmpl    $0, conditions+100
        je     .L_171_146_1

        jmp    .L_171_146_3

.L_171_146_3:
        pushl   $.LC_3
        calll   puts
        addl    $4, %esp

        cmpl    $0, conditions+104
        je     .L_171_146_2

        jmp    .L_171_146_4

.L_171_146_4:
        pushl   $.LC_4
        calll   puts
        addl    $4, %esp

        cmpl    $0, conditions+108
        je     .L_171_146_2

        jmp    .L_171_146_3

.L_171_146_FE1:
        .size   test_3_blocks_variant_146_edges_7, .-test_3_blocks_variant_146_edges_7


        .type   test_3_blocks_variant_147_edges_7, @function
test_3_blocks_variant_147_edges_7:
# B0:
#   goto B2;
#
# B1:
#   return;
#
# B2:
#   if(...) goto B1;
#   goto B3;
#
# B3:
#   if(...) goto B2;
#   goto B4;
#
# B4:
#   if(...) goto B2;
#   goto B4;
#

.L_172_147_0:
        jmp .L_172_147_2
.L_172_147_1:
        pushl   $.LC_ret
        calll   puts
        addl    $4, %esp
        movl    $0, %eax
        ret        
        
.L_172_147_2:
        pushl   $.LC_2
        calll   puts
        addl    $4, %esp

        cmpl    $0, conditions+100
        je     .L_172_147_1

        jmp    .L_172_147_3

.L_172_147_3:
        pushl   $.LC_3
        calll   puts
        addl    $4, %esp

        cmpl    $0, conditions+104
        je     .L_172_147_2

        jmp    .L_172_147_4

.L_172_147_4:
        pushl   $.LC_4
        calll   puts
        addl    $4, %esp

        cmpl    $0, conditions+108
        je     .L_172_147_2

        jmp    .L_172_147_4

.L_172_147_FE1:
        .size   test_3_blocks_variant_147_edges_7, .-test_3_blocks_variant_147_edges_7


        .type   test_3_blocks_variant_148_edges_7, @function
test_3_blocks_variant_148_edges_7:
# B0:
#   goto B2;
#
# B1:
#   return;
#
# B2:
#   if(...) goto B1;
#   goto B3;
#
# B3:
#   if(...) goto B2;
#   goto B4;
#
# B4:
#   if(...) goto B3;
#   goto B4;
#

.L_173_148_0:
        jmp .L_173_148_2
.L_173_148_1:
        pushl   $.LC_ret
        calll   puts
        addl    $4, %esp
        movl    $0, %eax
        ret        
        
.L_173_148_2:
        pushl   $.LC_2
        calll   puts
        addl    $4, %esp

        cmpl    $0, conditions+100
        je     .L_173_148_1

        jmp    .L_173_148_3

.L_173_148_3:
        pushl   $.LC_3
        calll   puts
        addl    $4, %esp

        cmpl    $0, conditions+104
        je     .L_173_148_2

        jmp    .L_173_148_4

.L_173_148_4:
        pushl   $.LC_4
        calll   puts
        addl    $4, %esp

        cmpl    $0, conditions+108
        je     .L_173_148_3

        jmp    .L_173_148_4

.L_173_148_FE1:
        .size   test_3_blocks_variant_148_edges_7, .-test_3_blocks_variant_148_edges_7


        .type   test_3_blocks_variant_149_edges_7, @function
test_3_blocks_variant_149_edges_7:
# B0:
#   goto B2;
#
# B1:
#   return;
#
# B2:
#   if(...) goto B1;
#   goto B3;
#
# B3:
#   if(...) goto B3;
#   goto B4;
#
# B4:
#   if(...) goto B1;
#   goto B2;
#

.L_174_149_0:
        jmp .L_174_149_2
.L_174_149_1:
        pushl   $.LC_ret
        calll   puts
        addl    $4, %esp
        movl    $0, %eax
        ret        
        
.L_174_149_2:
        pushl   $.LC_2
        calll   puts
        addl    $4, %esp

        cmpl    $0, conditions+100
        je     .L_174_149_1

        jmp    .L_174_149_3

.L_174_149_3:
        pushl   $.LC_3
        calll   puts
        addl    $4, %esp

        cmpl    $0, conditions+104
        je     .L_174_149_3

        jmp    .L_174_149_4

.L_174_149_4:
        pushl   $.LC_4
        calll   puts
        addl    $4, %esp

        cmpl    $0, conditions+108
        je     .L_174_149_1

        jmp    .L_174_149_2

.L_174_149_FE1:
        .size   test_3_blocks_variant_149_edges_7, .-test_3_blocks_variant_149_edges_7


        .type   test_3_blocks_variant_150_edges_7, @function
test_3_blocks_variant_150_edges_7:
# B0:
#   goto B2;
#
# B1:
#   return;
#
# B2:
#   if(...) goto B1;
#   goto B3;
#
# B3:
#   if(...) goto B3;
#   goto B4;
#
# B4:
#   if(...) goto B1;
#   goto B3;
#

.L_175_150_0:
        jmp .L_175_150_2
.L_175_150_1:
        pushl   $.LC_ret
        calll   puts
        addl    $4, %esp
        movl    $0, %eax
        ret        
        
.L_175_150_2:
        pushl   $.LC_2
        calll   puts
        addl    $4, %esp

        cmpl    $0, conditions+100
        je     .L_175_150_1

        jmp    .L_175_150_3

.L_175_150_3:
        pushl   $.LC_3
        calll   puts
        addl    $4, %esp

        cmpl    $0, conditions+104
        je     .L_175_150_3

        jmp    .L_175_150_4

.L_175_150_4:
        pushl   $.LC_4
        calll   puts
        addl    $4, %esp

        cmpl    $0, conditions+108
        je     .L_175_150_1

        jmp    .L_175_150_3

.L_175_150_FE1:
        .size   test_3_blocks_variant_150_edges_7, .-test_3_blocks_variant_150_edges_7


        .type   test_3_blocks_variant_151_edges_7, @function
test_3_blocks_variant_151_edges_7:
# B0:
#   goto B2;
#
# B1:
#   return;
#
# B2:
#   if(...) goto B1;
#   goto B3;
#
# B3:
#   if(...) goto B3;
#   goto B4;
#
# B4:
#   if(...) goto B1;
#   goto B4;
#

.L_176_151_0:
        jmp .L_176_151_2
.L_176_151_1:
        pushl   $.LC_ret
        calll   puts
        addl    $4, %esp
        movl    $0, %eax
        ret        
        
.L_176_151_2:
        pushl   $.LC_2
        calll   puts
        addl    $4, %esp

        cmpl    $0, conditions+100
        je     .L_176_151_1

        jmp    .L_176_151_3

.L_176_151_3:
        pushl   $.LC_3
        calll   puts
        addl    $4, %esp

        cmpl    $0, conditions+104
        je     .L_176_151_3

        jmp    .L_176_151_4

.L_176_151_4:
        pushl   $.LC_4
        calll   puts
        addl    $4, %esp

        cmpl    $0, conditions+108
        je     .L_176_151_1

        jmp    .L_176_151_4

.L_176_151_FE1:
        .size   test_3_blocks_variant_151_edges_7, .-test_3_blocks_variant_151_edges_7


        .type   test_3_blocks_variant_152_edges_7, @function
test_3_blocks_variant_152_edges_7:
# B0:
#   goto B2;
#
# B1:
#   return;
#
# B2:
#   if(...) goto B1;
#   goto B3;
#
# B3:
#   if(...) goto B3;
#   goto B4;
#
# B4:
#   if(...) goto B2;
#   goto B3;
#

.L_177_152_0:
        jmp .L_177_152_2
.L_177_152_1:
        pushl   $.LC_ret
        calll   puts
        addl    $4, %esp
        movl    $0, %eax
        ret        
        
.L_177_152_2:
        pushl   $.LC_2
        calll   puts
        addl    $4, %esp

        cmpl    $0, conditions+100
        je     .L_177_152_1

        jmp    .L_177_152_3

.L_177_152_3:
        pushl   $.LC_3
        calll   puts
        addl    $4, %esp

        cmpl    $0, conditions+104
        je     .L_177_152_3

        jmp    .L_177_152_4

.L_177_152_4:
        pushl   $.LC_4
        calll   puts
        addl    $4, %esp

        cmpl    $0, conditions+108
        je     .L_177_152_2

        jmp    .L_177_152_3

.L_177_152_FE1:
        .size   test_3_blocks_variant_152_edges_7, .-test_3_blocks_variant_152_edges_7


        .type   test_3_blocks_variant_153_edges_7, @function
test_3_blocks_variant_153_edges_7:
# B0:
#   goto B2;
#
# B1:
#   return;
#
# B2:
#   if(...) goto B1;
#   goto B3;
#
# B3:
#   if(...) goto B3;
#   goto B4;
#
# B4:
#   if(...) goto B2;
#   goto B4;
#

.L_178_153_0:
        jmp .L_178_153_2
.L_178_153_1:
        pushl   $.LC_ret
        calll   puts
        addl    $4, %esp
        movl    $0, %eax
        ret        
        
.L_178_153_2:
        pushl   $.LC_2
        calll   puts
        addl    $4, %esp

        cmpl    $0, conditions+100
        je     .L_178_153_1

        jmp    .L_178_153_3

.L_178_153_3:
        pushl   $.LC_3
        calll   puts
        addl    $4, %esp

        cmpl    $0, conditions+104
        je     .L_178_153_3

        jmp    .L_178_153_4

.L_178_153_4:
        pushl   $.LC_4
        calll   puts
        addl    $4, %esp

        cmpl    $0, conditions+108
        je     .L_178_153_2

        jmp    .L_178_153_4

.L_178_153_FE1:
        .size   test_3_blocks_variant_153_edges_7, .-test_3_blocks_variant_153_edges_7


        .type   test_3_blocks_variant_154_edges_7, @function
test_3_blocks_variant_154_edges_7:
# B0:
#   goto B2;
#
# B1:
#   return;
#
# B2:
#   if(...) goto B1;
#   goto B3;
#
# B3:
#   if(...) goto B3;
#   goto B4;
#
# B4:
#   if(...) goto B3;
#   goto B4;
#

.L_179_154_0:
        jmp .L_179_154_2
.L_179_154_1:
        pushl   $.LC_ret
        calll   puts
        addl    $4, %esp
        movl    $0, %eax
        ret        
        
.L_179_154_2:
        pushl   $.LC_2
        calll   puts
        addl    $4, %esp

        cmpl    $0, conditions+100
        je     .L_179_154_1

        jmp    .L_179_154_3

.L_179_154_3:
        pushl   $.LC_3
        calll   puts
        addl    $4, %esp

        cmpl    $0, conditions+104
        je     .L_179_154_3

        jmp    .L_179_154_4

.L_179_154_4:
        pushl   $.LC_4
        calll   puts
        addl    $4, %esp

        cmpl    $0, conditions+108
        je     .L_179_154_3

        jmp    .L_179_154_4

.L_179_154_FE1:
        .size   test_3_blocks_variant_154_edges_7, .-test_3_blocks_variant_154_edges_7


        .type   test_3_blocks_variant_155_edges_7, @function
test_3_blocks_variant_155_edges_7:
# B0:
#   goto B2;
#
# B1:
#   return;
#
# B2:
#   if(...) goto B1;
#   goto B3;
#
# B3:
#   if(...) goto B1;
#   if(...) goto B2;
#   goto B4;
#
# B4:
#   goto B1;
#

.L_180_155_0:
        jmp .L_180_155_2
.L_180_155_1:
        pushl   $.LC_ret
        calll   puts
        addl    $4, %esp
        movl    $0, %eax
        ret        
        
.L_180_155_2:
        pushl   $.LC_2
        calll   puts
        addl    $4, %esp

        cmpl    $0, conditions+100
        je     .L_180_155_1

        jmp    .L_180_155_3

.L_180_155_3:
        pushl   $.LC_3
        calll   puts
        addl    $4, %esp

        cmpl    $0, conditions+104
        je     .L_180_155_1

        cmpl    $0, conditions+108
        je     .L_180_155_2

        jmp    .L_180_155_4

.L_180_155_4:
        pushl   $.LC_4
        calll   puts
        addl    $4, %esp

        jmp    .L_180_155_1

.L_180_155_FE1:
        .size   test_3_blocks_variant_155_edges_7, .-test_3_blocks_variant_155_edges_7


        .type   test_3_blocks_variant_156_edges_7, @function
test_3_blocks_variant_156_edges_7:
# B0:
#   goto B2;
#
# B1:
#   return;
#
# B2:
#   if(...) goto B1;
#   goto B3;
#
# B3:
#   if(...) goto B1;
#   if(...) goto B2;
#   goto B4;
#
# B4:
#   goto B2;
#

.L_181_156_0:
        jmp .L_181_156_2
.L_181_156_1:
        pushl   $.LC_ret
        calll   puts
        addl    $4, %esp
        movl    $0, %eax
        ret        
        
.L_181_156_2:
        pushl   $.LC_2
        calll   puts
        addl    $4, %esp

        cmpl    $0, conditions+100
        je     .L_181_156_1

        jmp    .L_181_156_3

.L_181_156_3:
        pushl   $.LC_3
        calll   puts
        addl    $4, %esp

        cmpl    $0, conditions+104
        je     .L_181_156_1

        cmpl    $0, conditions+108
        je     .L_181_156_2

        jmp    .L_181_156_4

.L_181_156_4:
        pushl   $.LC_4
        calll   puts
        addl    $4, %esp

        jmp    .L_181_156_2

.L_181_156_FE1:
        .size   test_3_blocks_variant_156_edges_7, .-test_3_blocks_variant_156_edges_7


        .type   test_3_blocks_variant_157_edges_7, @function
test_3_blocks_variant_157_edges_7:
# B0:
#   goto B2;
#
# B1:
#   return;
#
# B2:
#   if(...) goto B1;
#   goto B3;
#
# B3:
#   if(...) goto B1;
#   if(...) goto B2;
#   goto B4;
#
# B4:
#   goto B3;
#

.L_182_157_0:
        jmp .L_182_157_2
.L_182_157_1:
        pushl   $.LC_ret
        calll   puts
        addl    $4, %esp
        movl    $0, %eax
        ret        
        
.L_182_157_2:
        pushl   $.LC_2
        calll   puts
        addl    $4, %esp

        cmpl    $0, conditions+100
        je     .L_182_157_1

        jmp    .L_182_157_3

.L_182_157_3:
        pushl   $.LC_3
        calll   puts
        addl    $4, %esp

        cmpl    $0, conditions+104
        je     .L_182_157_1

        cmpl    $0, conditions+108
        je     .L_182_157_2

        jmp    .L_182_157_4

.L_182_157_4:
        pushl   $.LC_4
        calll   puts
        addl    $4, %esp

        jmp    .L_182_157_3

.L_182_157_FE1:
        .size   test_3_blocks_variant_157_edges_7, .-test_3_blocks_variant_157_edges_7


        .type   test_3_blocks_variant_158_edges_7, @function
test_3_blocks_variant_158_edges_7:
# B0:
#   goto B2;
#
# B1:
#   return;
#
# B2:
#   if(...) goto B1;
#   goto B3;
#
# B3:
#   if(...) goto B1;
#   if(...) goto B2;
#   goto B4;
#
# B4:
#   goto B4;
#

.L_183_158_0:
        jmp .L_183_158_2
.L_183_158_1:
        pushl   $.LC_ret
        calll   puts
        addl    $4, %esp
        movl    $0, %eax
        ret        
        
.L_183_158_2:
        pushl   $.LC_2
        calll   puts
        addl    $4, %esp

        cmpl    $0, conditions+100
        je     .L_183_158_1

        jmp    .L_183_158_3

.L_183_158_3:
        pushl   $.LC_3
        calll   puts
        addl    $4, %esp

        cmpl    $0, conditions+104
        je     .L_183_158_1

        cmpl    $0, conditions+108
        je     .L_183_158_2

        jmp    .L_183_158_4

.L_183_158_4:
        pushl   $.LC_4
        calll   puts
        addl    $4, %esp

        jmp    .L_183_158_4

.L_183_158_FE1:
        .size   test_3_blocks_variant_158_edges_7, .-test_3_blocks_variant_158_edges_7


        .type   test_3_blocks_variant_159_edges_7, @function
test_3_blocks_variant_159_edges_7:
# B0:
#   goto B2;
#
# B1:
#   return;
#
# B2:
#   if(...) goto B1;
#   goto B3;
#
# B3:
#   if(...) goto B1;
#   if(...) goto B3;
#   goto B4;
#
# B4:
#   goto B1;
#

.L_184_159_0:
        jmp .L_184_159_2
.L_184_159_1:
        pushl   $.LC_ret
        calll   puts
        addl    $4, %esp
        movl    $0, %eax
        ret        
        
.L_184_159_2:
        pushl   $.LC_2
        calll   puts
        addl    $4, %esp

        cmpl    $0, conditions+100
        je     .L_184_159_1

        jmp    .L_184_159_3

.L_184_159_3:
        pushl   $.LC_3
        calll   puts
        addl    $4, %esp

        cmpl    $0, conditions+104
        je     .L_184_159_1

        cmpl    $0, conditions+108
        je     .L_184_159_3

        jmp    .L_184_159_4

.L_184_159_4:
        pushl   $.LC_4
        calll   puts
        addl    $4, %esp

        jmp    .L_184_159_1

.L_184_159_FE1:
        .size   test_3_blocks_variant_159_edges_7, .-test_3_blocks_variant_159_edges_7


        .type   test_3_blocks_variant_160_edges_7, @function
test_3_blocks_variant_160_edges_7:
# B0:
#   goto B2;
#
# B1:
#   return;
#
# B2:
#   if(...) goto B1;
#   goto B3;
#
# B3:
#   if(...) goto B1;
#   if(...) goto B3;
#   goto B4;
#
# B4:
#   goto B2;
#

.L_185_160_0:
        jmp .L_185_160_2
.L_185_160_1:
        pushl   $.LC_ret
        calll   puts
        addl    $4, %esp
        movl    $0, %eax
        ret        
        
.L_185_160_2:
        pushl   $.LC_2
        calll   puts
        addl    $4, %esp

        cmpl    $0, conditions+100
        je     .L_185_160_1

        jmp    .L_185_160_3

.L_185_160_3:
        pushl   $.LC_3
        calll   puts
        addl    $4, %esp

        cmpl    $0, conditions+104
        je     .L_185_160_1

        cmpl    $0, conditions+108
        je     .L_185_160_3

        jmp    .L_185_160_4

.L_185_160_4:
        pushl   $.LC_4
        calll   puts
        addl    $4, %esp

        jmp    .L_185_160_2

.L_185_160_FE1:
        .size   test_3_blocks_variant_160_edges_7, .-test_3_blocks_variant_160_edges_7


        .type   test_3_blocks_variant_161_edges_7, @function
test_3_blocks_variant_161_edges_7:
# B0:
#   goto B2;
#
# B1:
#   return;
#
# B2:
#   if(...) goto B1;
#   goto B3;
#
# B3:
#   if(...) goto B1;
#   if(...) goto B3;
#   goto B4;
#
# B4:
#   goto B3;
#

.L_186_161_0:
        jmp .L_186_161_2
.L_186_161_1:
        pushl   $.LC_ret
        calll   puts
        addl    $4, %esp
        movl    $0, %eax
        ret        
        
.L_186_161_2:
        pushl   $.LC_2
        calll   puts
        addl    $4, %esp

        cmpl    $0, conditions+100
        je     .L_186_161_1

        jmp    .L_186_161_3

.L_186_161_3:
        pushl   $.LC_3
        calll   puts
        addl    $4, %esp

        cmpl    $0, conditions+104
        je     .L_186_161_1

        cmpl    $0, conditions+108
        je     .L_186_161_3

        jmp    .L_186_161_4

.L_186_161_4:
        pushl   $.LC_4
        calll   puts
        addl    $4, %esp

        jmp    .L_186_161_3

.L_186_161_FE1:
        .size   test_3_blocks_variant_161_edges_7, .-test_3_blocks_variant_161_edges_7


        .type   test_3_blocks_variant_162_edges_7, @function
test_3_blocks_variant_162_edges_7:
# B0:
#   goto B2;
#
# B1:
#   return;
#
# B2:
#   if(...) goto B1;
#   goto B3;
#
# B3:
#   if(...) goto B1;
#   if(...) goto B3;
#   goto B4;
#
# B4:
#   goto B4;
#

.L_187_162_0:
        jmp .L_187_162_2
.L_187_162_1:
        pushl   $.LC_ret
        calll   puts
        addl    $4, %esp
        movl    $0, %eax
        ret        
        
.L_187_162_2:
        pushl   $.LC_2
        calll   puts
        addl    $4, %esp

        cmpl    $0, conditions+100
        je     .L_187_162_1

        jmp    .L_187_162_3

.L_187_162_3:
        pushl   $.LC_3
        calll   puts
        addl    $4, %esp

        cmpl    $0, conditions+104
        je     .L_187_162_1

        cmpl    $0, conditions+108
        je     .L_187_162_3

        jmp    .L_187_162_4

.L_187_162_4:
        pushl   $.LC_4
        calll   puts
        addl    $4, %esp

        jmp    .L_187_162_4

.L_187_162_FE1:
        .size   test_3_blocks_variant_162_edges_7, .-test_3_blocks_variant_162_edges_7


        .type   test_3_blocks_variant_163_edges_7, @function
test_3_blocks_variant_163_edges_7:
# B0:
#   goto B2;
#
# B1:
#   return;
#
# B2:
#   if(...) goto B1;
#   goto B3;
#
# B3:
#   if(...) goto B2;
#   if(...) goto B3;
#   goto B4;
#
# B4:
#   goto B1;
#

.L_188_163_0:
        jmp .L_188_163_2
.L_188_163_1:
        pushl   $.LC_ret
        calll   puts
        addl    $4, %esp
        movl    $0, %eax
        ret        
        
.L_188_163_2:
        pushl   $.LC_2
        calll   puts
        addl    $4, %esp

        cmpl    $0, conditions+100
        je     .L_188_163_1

        jmp    .L_188_163_3

.L_188_163_3:
        pushl   $.LC_3
        calll   puts
        addl    $4, %esp

        cmpl    $0, conditions+104
        je     .L_188_163_2

        cmpl    $0, conditions+108
        je     .L_188_163_3

        jmp    .L_188_163_4

.L_188_163_4:
        pushl   $.LC_4
        calll   puts
        addl    $4, %esp

        jmp    .L_188_163_1

.L_188_163_FE1:
        .size   test_3_blocks_variant_163_edges_7, .-test_3_blocks_variant_163_edges_7


        .type   test_3_blocks_variant_164_edges_7, @function
test_3_blocks_variant_164_edges_7:
# B0:
#   goto B2;
#
# B1:
#   return;
#
# B2:
#   if(...) goto B1;
#   goto B3;
#
# B3:
#   if(...) goto B2;
#   if(...) goto B3;
#   goto B4;
#
# B4:
#   goto B2;
#

.L_189_164_0:
        jmp .L_189_164_2
.L_189_164_1:
        pushl   $.LC_ret
        calll   puts
        addl    $4, %esp
        movl    $0, %eax
        ret        
        
.L_189_164_2:
        pushl   $.LC_2
        calll   puts
        addl    $4, %esp

        cmpl    $0, conditions+100
        je     .L_189_164_1

        jmp    .L_189_164_3

.L_189_164_3:
        pushl   $.LC_3
        calll   puts
        addl    $4, %esp

        cmpl    $0, conditions+104
        je     .L_189_164_2

        cmpl    $0, conditions+108
        je     .L_189_164_3

        jmp    .L_189_164_4

.L_189_164_4:
        pushl   $.LC_4
        calll   puts
        addl    $4, %esp

        jmp    .L_189_164_2

.L_189_164_FE1:
        .size   test_3_blocks_variant_164_edges_7, .-test_3_blocks_variant_164_edges_7


        .type   test_3_blocks_variant_165_edges_7, @function
test_3_blocks_variant_165_edges_7:
# B0:
#   goto B2;
#
# B1:
#   return;
#
# B2:
#   if(...) goto B1;
#   goto B3;
#
# B3:
#   if(...) goto B2;
#   if(...) goto B3;
#   goto B4;
#
# B4:
#   goto B3;
#

.L_190_165_0:
        jmp .L_190_165_2
.L_190_165_1:
        pushl   $.LC_ret
        calll   puts
        addl    $4, %esp
        movl    $0, %eax
        ret        
        
.L_190_165_2:
        pushl   $.LC_2
        calll   puts
        addl    $4, %esp

        cmpl    $0, conditions+100
        je     .L_190_165_1

        jmp    .L_190_165_3

.L_190_165_3:
        pushl   $.LC_3
        calll   puts
        addl    $4, %esp

        cmpl    $0, conditions+104
        je     .L_190_165_2

        cmpl    $0, conditions+108
        je     .L_190_165_3

        jmp    .L_190_165_4

.L_190_165_4:
        pushl   $.LC_4
        calll   puts
        addl    $4, %esp

        jmp    .L_190_165_3

.L_190_165_FE1:
        .size   test_3_blocks_variant_165_edges_7, .-test_3_blocks_variant_165_edges_7


        .type   test_3_blocks_variant_166_edges_7, @function
test_3_blocks_variant_166_edges_7:
# B0:
#   goto B2;
#
# B1:
#   return;
#
# B2:
#   if(...) goto B1;
#   goto B3;
#
# B3:
#   if(...) goto B2;
#   if(...) goto B3;
#   goto B4;
#
# B4:
#   goto B4;
#

.L_191_166_0:
        jmp .L_191_166_2
.L_191_166_1:
        pushl   $.LC_ret
        calll   puts
        addl    $4, %esp
        movl    $0, %eax
        ret        
        
.L_191_166_2:
        pushl   $.LC_2
        calll   puts
        addl    $4, %esp

        cmpl    $0, conditions+100
        je     .L_191_166_1

        jmp    .L_191_166_3

.L_191_166_3:
        pushl   $.LC_3
        calll   puts
        addl    $4, %esp

        cmpl    $0, conditions+104
        je     .L_191_166_2

        cmpl    $0, conditions+108
        je     .L_191_166_3

        jmp    .L_191_166_4

.L_191_166_4:
        pushl   $.LC_4
        calll   puts
        addl    $4, %esp

        jmp    .L_191_166_4

.L_191_166_FE1:
        .size   test_3_blocks_variant_166_edges_7, .-test_3_blocks_variant_166_edges_7


        .type   test_3_blocks_variant_167_edges_7, @function
test_3_blocks_variant_167_edges_7:
# B0:
#   goto B2;
#
# B1:
#   return;
#
# B2:
#   if(...) goto B2;
#   goto B3;
#
# B3:
#   goto B4;
#
# B4:
#   if(...) goto B1;
#   if(...) goto B2;
#   goto B3;
#

.L_192_167_0:
        jmp .L_192_167_2
.L_192_167_1:
        pushl   $.LC_ret
        calll   puts
        addl    $4, %esp
        movl    $0, %eax
        ret        
        
.L_192_167_2:
        pushl   $.LC_2
        calll   puts
        addl    $4, %esp

        cmpl    $0, conditions+100
        je     .L_192_167_2

        jmp    .L_192_167_3

.L_192_167_3:
        pushl   $.LC_3
        calll   puts
        addl    $4, %esp

        jmp    .L_192_167_4

.L_192_167_4:
        pushl   $.LC_4
        calll   puts
        addl    $4, %esp

        cmpl    $0, conditions+104
        je     .L_192_167_1

        cmpl    $0, conditions+108
        je     .L_192_167_2

        jmp    .L_192_167_3

.L_192_167_FE1:
        .size   test_3_blocks_variant_167_edges_7, .-test_3_blocks_variant_167_edges_7


        .type   test_3_blocks_variant_168_edges_7, @function
test_3_blocks_variant_168_edges_7:
# B0:
#   goto B2;
#
# B1:
#   return;
#
# B2:
#   if(...) goto B2;
#   goto B3;
#
# B3:
#   goto B4;
#
# B4:
#   if(...) goto B1;
#   if(...) goto B2;
#   goto B4;
#

.L_193_168_0:
        jmp .L_193_168_2
.L_193_168_1:
        pushl   $.LC_ret
        calll   puts
        addl    $4, %esp
        movl    $0, %eax
        ret        
        
.L_193_168_2:
        pushl   $.LC_2
        calll   puts
        addl    $4, %esp

        cmpl    $0, conditions+100
        je     .L_193_168_2

        jmp    .L_193_168_3

.L_193_168_3:
        pushl   $.LC_3
        calll   puts
        addl    $4, %esp

        jmp    .L_193_168_4

.L_193_168_4:
        pushl   $.LC_4
        calll   puts
        addl    $4, %esp

        cmpl    $0, conditions+104
        je     .L_193_168_1

        cmpl    $0, conditions+108
        je     .L_193_168_2

        jmp    .L_193_168_4

.L_193_168_FE1:
        .size   test_3_blocks_variant_168_edges_7, .-test_3_blocks_variant_168_edges_7


        .type   test_3_blocks_variant_169_edges_7, @function
test_3_blocks_variant_169_edges_7:
# B0:
#   goto B2;
#
# B1:
#   return;
#
# B2:
#   if(...) goto B2;
#   goto B3;
#
# B3:
#   goto B4;
#
# B4:
#   if(...) goto B1;
#   if(...) goto B3;
#   goto B4;
#

.L_194_169_0:
        jmp .L_194_169_2
.L_194_169_1:
        pushl   $.LC_ret
        calll   puts
        addl    $4, %esp
        movl    $0, %eax
        ret        
        
.L_194_169_2:
        pushl   $.LC_2
        calll   puts
        addl    $4, %esp

        cmpl    $0, conditions+100
        je     .L_194_169_2

        jmp    .L_194_169_3

.L_194_169_3:
        pushl   $.LC_3
        calll   puts
        addl    $4, %esp

        jmp    .L_194_169_4

.L_194_169_4:
        pushl   $.LC_4
        calll   puts
        addl    $4, %esp

        cmpl    $0, conditions+104
        je     .L_194_169_1

        cmpl    $0, conditions+108
        je     .L_194_169_3

        jmp    .L_194_169_4

.L_194_169_FE1:
        .size   test_3_blocks_variant_169_edges_7, .-test_3_blocks_variant_169_edges_7


        .type   test_3_blocks_variant_170_edges_7, @function
test_3_blocks_variant_170_edges_7:
# B0:
#   goto B2;
#
# B1:
#   return;
#
# B2:
#   if(...) goto B2;
#   goto B3;
#
# B3:
#   if(...) goto B1;
#   goto B4;
#
# B4:
#   if(...) goto B1;
#   goto B2;
#

.L_195_170_0:
        jmp .L_195_170_2
.L_195_170_1:
        pushl   $.LC_ret
        calll   puts
        addl    $4, %esp
        movl    $0, %eax
        ret        
        
.L_195_170_2:
        pushl   $.LC_2
        calll   puts
        addl    $4, %esp

        cmpl    $0, conditions+100
        je     .L_195_170_2

        jmp    .L_195_170_3

.L_195_170_3:
        pushl   $.LC_3
        calll   puts
        addl    $4, %esp

        cmpl    $0, conditions+104
        je     .L_195_170_1

        jmp    .L_195_170_4

.L_195_170_4:
        pushl   $.LC_4
        calll   puts
        addl    $4, %esp

        cmpl    $0, conditions+108
        je     .L_195_170_1

        jmp    .L_195_170_2

.L_195_170_FE1:
        .size   test_3_blocks_variant_170_edges_7, .-test_3_blocks_variant_170_edges_7


        .type   test_3_blocks_variant_171_edges_7, @function
test_3_blocks_variant_171_edges_7:
# B0:
#   goto B2;
#
# B1:
#   return;
#
# B2:
#   if(...) goto B2;
#   goto B3;
#
# B3:
#   if(...) goto B1;
#   goto B4;
#
# B4:
#   if(...) goto B1;
#   goto B3;
#

.L_196_171_0:
        jmp .L_196_171_2
.L_196_171_1:
        pushl   $.LC_ret
        calll   puts
        addl    $4, %esp
        movl    $0, %eax
        ret        
        
.L_196_171_2:
        pushl   $.LC_2
        calll   puts
        addl    $4, %esp

        cmpl    $0, conditions+100
        je     .L_196_171_2

        jmp    .L_196_171_3

.L_196_171_3:
        pushl   $.LC_3
        calll   puts
        addl    $4, %esp

        cmpl    $0, conditions+104
        je     .L_196_171_1

        jmp    .L_196_171_4

.L_196_171_4:
        pushl   $.LC_4
        calll   puts
        addl    $4, %esp

        cmpl    $0, conditions+108
        je     .L_196_171_1

        jmp    .L_196_171_3

.L_196_171_FE1:
        .size   test_3_blocks_variant_171_edges_7, .-test_3_blocks_variant_171_edges_7


        .type   test_3_blocks_variant_172_edges_7, @function
test_3_blocks_variant_172_edges_7:
# B0:
#   goto B2;
#
# B1:
#   return;
#
# B2:
#   if(...) goto B2;
#   goto B3;
#
# B3:
#   if(...) goto B1;
#   goto B4;
#
# B4:
#   if(...) goto B1;
#   goto B4;
#

.L_197_172_0:
        jmp .L_197_172_2
.L_197_172_1:
        pushl   $.LC_ret
        calll   puts
        addl    $4, %esp
        movl    $0, %eax
        ret        
        
.L_197_172_2:
        pushl   $.LC_2
        calll   puts
        addl    $4, %esp

        cmpl    $0, conditions+100
        je     .L_197_172_2

        jmp    .L_197_172_3

.L_197_172_3:
        pushl   $.LC_3
        calll   puts
        addl    $4, %esp

        cmpl    $0, conditions+104
        je     .L_197_172_1

        jmp    .L_197_172_4

.L_197_172_4:
        pushl   $.LC_4
        calll   puts
        addl    $4, %esp

        cmpl    $0, conditions+108
        je     .L_197_172_1

        jmp    .L_197_172_4

.L_197_172_FE1:
        .size   test_3_blocks_variant_172_edges_7, .-test_3_blocks_variant_172_edges_7


        .type   test_3_blocks_variant_173_edges_7, @function
test_3_blocks_variant_173_edges_7:
# B0:
#   goto B2;
#
# B1:
#   return;
#
# B2:
#   if(...) goto B2;
#   goto B3;
#
# B3:
#   if(...) goto B1;
#   goto B4;
#
# B4:
#   if(...) goto B2;
#   goto B3;
#

.L_198_173_0:
        jmp .L_198_173_2
.L_198_173_1:
        pushl   $.LC_ret
        calll   puts
        addl    $4, %esp
        movl    $0, %eax
        ret        
        
.L_198_173_2:
        pushl   $.LC_2
        calll   puts
        addl    $4, %esp

        cmpl    $0, conditions+100
        je     .L_198_173_2

        jmp    .L_198_173_3

.L_198_173_3:
        pushl   $.LC_3
        calll   puts
        addl    $4, %esp

        cmpl    $0, conditions+104
        je     .L_198_173_1

        jmp    .L_198_173_4

.L_198_173_4:
        pushl   $.LC_4
        calll   puts
        addl    $4, %esp

        cmpl    $0, conditions+108
        je     .L_198_173_2

        jmp    .L_198_173_3

.L_198_173_FE1:
        .size   test_3_blocks_variant_173_edges_7, .-test_3_blocks_variant_173_edges_7


        .type   test_3_blocks_variant_174_edges_7, @function
test_3_blocks_variant_174_edges_7:
# B0:
#   goto B2;
#
# B1:
#   return;
#
# B2:
#   if(...) goto B2;
#   goto B3;
#
# B3:
#   if(...) goto B1;
#   goto B4;
#
# B4:
#   if(...) goto B2;
#   goto B4;
#

.L_199_174_0:
        jmp .L_199_174_2
.L_199_174_1:
        pushl   $.LC_ret
        calll   puts
        addl    $4, %esp
        movl    $0, %eax
        ret        
        
.L_199_174_2:
        pushl   $.LC_2
        calll   puts
        addl    $4, %esp

        cmpl    $0, conditions+100
        je     .L_199_174_2

        jmp    .L_199_174_3

.L_199_174_3:
        pushl   $.LC_3
        calll   puts
        addl    $4, %esp

        cmpl    $0, conditions+104
        je     .L_199_174_1

        jmp    .L_199_174_4

.L_199_174_4:
        pushl   $.LC_4
        calll   puts
        addl    $4, %esp

        cmpl    $0, conditions+108
        je     .L_199_174_2

        jmp    .L_199_174_4

.L_199_174_FE1:
        .size   test_3_blocks_variant_174_edges_7, .-test_3_blocks_variant_174_edges_7


        .type   test_3_blocks_variant_175_edges_7, @function
test_3_blocks_variant_175_edges_7:
# B0:
#   goto B2;
#
# B1:
#   return;
#
# B2:
#   if(...) goto B2;
#   goto B3;
#
# B3:
#   if(...) goto B1;
#   goto B4;
#
# B4:
#   if(...) goto B3;
#   goto B4;
#

.L_200_175_0:
        jmp .L_200_175_2
.L_200_175_1:
        pushl   $.LC_ret
        calll   puts
        addl    $4, %esp
        movl    $0, %eax
        ret        
        
.L_200_175_2:
        pushl   $.LC_2
        calll   puts
        addl    $4, %esp

        cmpl    $0, conditions+100
        je     .L_200_175_2

        jmp    .L_200_175_3

.L_200_175_3:
        pushl   $.LC_3
        calll   puts
        addl    $4, %esp

        cmpl    $0, conditions+104
        je     .L_200_175_1

        jmp    .L_200_175_4

.L_200_175_4:
        pushl   $.LC_4
        calll   puts
        addl    $4, %esp

        cmpl    $0, conditions+108
        je     .L_200_175_3

        jmp    .L_200_175_4

.L_200_175_FE1:
        .size   test_3_blocks_variant_175_edges_7, .-test_3_blocks_variant_175_edges_7


        .type   test_3_blocks_variant_176_edges_7, @function
test_3_blocks_variant_176_edges_7:
# B0:
#   goto B2;
#
# B1:
#   return;
#
# B2:
#   if(...) goto B2;
#   goto B3;
#
# B3:
#   if(...) goto B2;
#   goto B4;
#
# B4:
#   if(...) goto B1;
#   goto B2;
#

.L_201_176_0:
        jmp .L_201_176_2
.L_201_176_1:
        pushl   $.LC_ret
        calll   puts
        addl    $4, %esp
        movl    $0, %eax
        ret        
        
.L_201_176_2:
        pushl   $.LC_2
        calll   puts
        addl    $4, %esp

        cmpl    $0, conditions+100
        je     .L_201_176_2

        jmp    .L_201_176_3

.L_201_176_3:
        pushl   $.LC_3
        calll   puts
        addl    $4, %esp

        cmpl    $0, conditions+104
        je     .L_201_176_2

        jmp    .L_201_176_4

.L_201_176_4:
        pushl   $.LC_4
        calll   puts
        addl    $4, %esp

        cmpl    $0, conditions+108
        je     .L_201_176_1

        jmp    .L_201_176_2

.L_201_176_FE1:
        .size   test_3_blocks_variant_176_edges_7, .-test_3_blocks_variant_176_edges_7


        .type   test_3_blocks_variant_177_edges_7, @function
test_3_blocks_variant_177_edges_7:
# B0:
#   goto B2;
#
# B1:
#   return;
#
# B2:
#   if(...) goto B2;
#   goto B3;
#
# B3:
#   if(...) goto B2;
#   goto B4;
#
# B4:
#   if(...) goto B1;
#   goto B3;
#

.L_202_177_0:
        jmp .L_202_177_2
.L_202_177_1:
        pushl   $.LC_ret
        calll   puts
        addl    $4, %esp
        movl    $0, %eax
        ret        
        
.L_202_177_2:
        pushl   $.LC_2
        calll   puts
        addl    $4, %esp

        cmpl    $0, conditions+100
        je     .L_202_177_2

        jmp    .L_202_177_3

.L_202_177_3:
        pushl   $.LC_3
        calll   puts
        addl    $4, %esp

        cmpl    $0, conditions+104
        je     .L_202_177_2

        jmp    .L_202_177_4

.L_202_177_4:
        pushl   $.LC_4
        calll   puts
        addl    $4, %esp

        cmpl    $0, conditions+108
        je     .L_202_177_1

        jmp    .L_202_177_3

.L_202_177_FE1:
        .size   test_3_blocks_variant_177_edges_7, .-test_3_blocks_variant_177_edges_7


        .type   test_3_blocks_variant_178_edges_7, @function
test_3_blocks_variant_178_edges_7:
# B0:
#   goto B2;
#
# B1:
#   return;
#
# B2:
#   if(...) goto B2;
#   goto B3;
#
# B3:
#   if(...) goto B2;
#   goto B4;
#
# B4:
#   if(...) goto B1;
#   goto B4;
#

.L_203_178_0:
        jmp .L_203_178_2
.L_203_178_1:
        pushl   $.LC_ret
        calll   puts
        addl    $4, %esp
        movl    $0, %eax
        ret        
        
.L_203_178_2:
        pushl   $.LC_2
        calll   puts
        addl    $4, %esp

        cmpl    $0, conditions+100
        je     .L_203_178_2

        jmp    .L_203_178_3

.L_203_178_3:
        pushl   $.LC_3
        calll   puts
        addl    $4, %esp

        cmpl    $0, conditions+104
        je     .L_203_178_2

        jmp    .L_203_178_4

.L_203_178_4:
        pushl   $.LC_4
        calll   puts
        addl    $4, %esp

        cmpl    $0, conditions+108
        je     .L_203_178_1

        jmp    .L_203_178_4

.L_203_178_FE1:
        .size   test_3_blocks_variant_178_edges_7, .-test_3_blocks_variant_178_edges_7


        .type   test_3_blocks_variant_179_edges_7, @function
test_3_blocks_variant_179_edges_7:
# B0:
#   goto B2;
#
# B1:
#   return;
#
# B2:
#   if(...) goto B2;
#   goto B3;
#
# B3:
#   if(...) goto B3;
#   goto B4;
#
# B4:
#   if(...) goto B1;
#   goto B2;
#

.L_204_179_0:
        jmp .L_204_179_2
.L_204_179_1:
        pushl   $.LC_ret
        calll   puts
        addl    $4, %esp
        movl    $0, %eax
        ret        
        
.L_204_179_2:
        pushl   $.LC_2
        calll   puts
        addl    $4, %esp

        cmpl    $0, conditions+100
        je     .L_204_179_2

        jmp    .L_204_179_3

.L_204_179_3:
        pushl   $.LC_3
        calll   puts
        addl    $4, %esp

        cmpl    $0, conditions+104
        je     .L_204_179_3

        jmp    .L_204_179_4

.L_204_179_4:
        pushl   $.LC_4
        calll   puts
        addl    $4, %esp

        cmpl    $0, conditions+108
        je     .L_204_179_1

        jmp    .L_204_179_2

.L_204_179_FE1:
        .size   test_3_blocks_variant_179_edges_7, .-test_3_blocks_variant_179_edges_7


        .type   test_3_blocks_variant_180_edges_7, @function
test_3_blocks_variant_180_edges_7:
# B0:
#   goto B2;
#
# B1:
#   return;
#
# B2:
#   if(...) goto B2;
#   goto B3;
#
# B3:
#   if(...) goto B3;
#   goto B4;
#
# B4:
#   if(...) goto B1;
#   goto B3;
#

.L_205_180_0:
        jmp .L_205_180_2
.L_205_180_1:
        pushl   $.LC_ret
        calll   puts
        addl    $4, %esp
        movl    $0, %eax
        ret        
        
.L_205_180_2:
        pushl   $.LC_2
        calll   puts
        addl    $4, %esp

        cmpl    $0, conditions+100
        je     .L_205_180_2

        jmp    .L_205_180_3

.L_205_180_3:
        pushl   $.LC_3
        calll   puts
        addl    $4, %esp

        cmpl    $0, conditions+104
        je     .L_205_180_3

        jmp    .L_205_180_4

.L_205_180_4:
        pushl   $.LC_4
        calll   puts
        addl    $4, %esp

        cmpl    $0, conditions+108
        je     .L_205_180_1

        jmp    .L_205_180_3

.L_205_180_FE1:
        .size   test_3_blocks_variant_180_edges_7, .-test_3_blocks_variant_180_edges_7


        .type   test_3_blocks_variant_181_edges_7, @function
test_3_blocks_variant_181_edges_7:
# B0:
#   goto B2;
#
# B1:
#   return;
#
# B2:
#   if(...) goto B2;
#   goto B3;
#
# B3:
#   if(...) goto B3;
#   goto B4;
#
# B4:
#   if(...) goto B1;
#   goto B4;
#

.L_206_181_0:
        jmp .L_206_181_2
.L_206_181_1:
        pushl   $.LC_ret
        calll   puts
        addl    $4, %esp
        movl    $0, %eax
        ret        
        
.L_206_181_2:
        pushl   $.LC_2
        calll   puts
        addl    $4, %esp

        cmpl    $0, conditions+100
        je     .L_206_181_2

        jmp    .L_206_181_3

.L_206_181_3:
        pushl   $.LC_3
        calll   puts
        addl    $4, %esp

        cmpl    $0, conditions+104
        je     .L_206_181_3

        jmp    .L_206_181_4

.L_206_181_4:
        pushl   $.LC_4
        calll   puts
        addl    $4, %esp

        cmpl    $0, conditions+108
        je     .L_206_181_1

        jmp    .L_206_181_4

.L_206_181_FE1:
        .size   test_3_blocks_variant_181_edges_7, .-test_3_blocks_variant_181_edges_7


        .type   test_3_blocks_variant_182_edges_7, @function
test_3_blocks_variant_182_edges_7:
# B0:
#   goto B2;
#
# B1:
#   return;
#
# B2:
#   if(...) goto B2;
#   goto B3;
#
# B3:
#   if(...) goto B1;
#   if(...) goto B2;
#   goto B4;
#
# B4:
#   goto B1;
#

.L_207_182_0:
        jmp .L_207_182_2
.L_207_182_1:
        pushl   $.LC_ret
        calll   puts
        addl    $4, %esp
        movl    $0, %eax
        ret        
        
.L_207_182_2:
        pushl   $.LC_2
        calll   puts
        addl    $4, %esp

        cmpl    $0, conditions+100
        je     .L_207_182_2

        jmp    .L_207_182_3

.L_207_182_3:
        pushl   $.LC_3
        calll   puts
        addl    $4, %esp

        cmpl    $0, conditions+104
        je     .L_207_182_1

        cmpl    $0, conditions+108
        je     .L_207_182_2

        jmp    .L_207_182_4

.L_207_182_4:
        pushl   $.LC_4
        calll   puts
        addl    $4, %esp

        jmp    .L_207_182_1

.L_207_182_FE1:
        .size   test_3_blocks_variant_182_edges_7, .-test_3_blocks_variant_182_edges_7


        .type   test_3_blocks_variant_183_edges_7, @function
test_3_blocks_variant_183_edges_7:
# B0:
#   goto B2;
#
# B1:
#   return;
#
# B2:
#   if(...) goto B2;
#   goto B3;
#
# B3:
#   if(...) goto B1;
#   if(...) goto B2;
#   goto B4;
#
# B4:
#   goto B2;
#

.L_208_183_0:
        jmp .L_208_183_2
.L_208_183_1:
        pushl   $.LC_ret
        calll   puts
        addl    $4, %esp
        movl    $0, %eax
        ret        
        
.L_208_183_2:
        pushl   $.LC_2
        calll   puts
        addl    $4, %esp

        cmpl    $0, conditions+100
        je     .L_208_183_2

        jmp    .L_208_183_3

.L_208_183_3:
        pushl   $.LC_3
        calll   puts
        addl    $4, %esp

        cmpl    $0, conditions+104
        je     .L_208_183_1

        cmpl    $0, conditions+108
        je     .L_208_183_2

        jmp    .L_208_183_4

.L_208_183_4:
        pushl   $.LC_4
        calll   puts
        addl    $4, %esp

        jmp    .L_208_183_2

.L_208_183_FE1:
        .size   test_3_blocks_variant_183_edges_7, .-test_3_blocks_variant_183_edges_7


        .type   test_3_blocks_variant_184_edges_7, @function
test_3_blocks_variant_184_edges_7:
# B0:
#   goto B2;
#
# B1:
#   return;
#
# B2:
#   if(...) goto B2;
#   goto B3;
#
# B3:
#   if(...) goto B1;
#   if(...) goto B2;
#   goto B4;
#
# B4:
#   goto B3;
#

.L_209_184_0:
        jmp .L_209_184_2
.L_209_184_1:
        pushl   $.LC_ret
        calll   puts
        addl    $4, %esp
        movl    $0, %eax
        ret        
        
.L_209_184_2:
        pushl   $.LC_2
        calll   puts
        addl    $4, %esp

        cmpl    $0, conditions+100
        je     .L_209_184_2

        jmp    .L_209_184_3

.L_209_184_3:
        pushl   $.LC_3
        calll   puts
        addl    $4, %esp

        cmpl    $0, conditions+104
        je     .L_209_184_1

        cmpl    $0, conditions+108
        je     .L_209_184_2

        jmp    .L_209_184_4

.L_209_184_4:
        pushl   $.LC_4
        calll   puts
        addl    $4, %esp

        jmp    .L_209_184_3

.L_209_184_FE1:
        .size   test_3_blocks_variant_184_edges_7, .-test_3_blocks_variant_184_edges_7


        .type   test_3_blocks_variant_185_edges_7, @function
test_3_blocks_variant_185_edges_7:
# B0:
#   goto B2;
#
# B1:
#   return;
#
# B2:
#   if(...) goto B2;
#   goto B3;
#
# B3:
#   if(...) goto B1;
#   if(...) goto B2;
#   goto B4;
#
# B4:
#   goto B4;
#

.L_210_185_0:
        jmp .L_210_185_2
.L_210_185_1:
        pushl   $.LC_ret
        calll   puts
        addl    $4, %esp
        movl    $0, %eax
        ret        
        
.L_210_185_2:
        pushl   $.LC_2
        calll   puts
        addl    $4, %esp

        cmpl    $0, conditions+100
        je     .L_210_185_2

        jmp    .L_210_185_3

.L_210_185_3:
        pushl   $.LC_3
        calll   puts
        addl    $4, %esp

        cmpl    $0, conditions+104
        je     .L_210_185_1

        cmpl    $0, conditions+108
        je     .L_210_185_2

        jmp    .L_210_185_4

.L_210_185_4:
        pushl   $.LC_4
        calll   puts
        addl    $4, %esp

        jmp    .L_210_185_4

.L_210_185_FE1:
        .size   test_3_blocks_variant_185_edges_7, .-test_3_blocks_variant_185_edges_7


        .type   test_3_blocks_variant_186_edges_7, @function
test_3_blocks_variant_186_edges_7:
# B0:
#   goto B2;
#
# B1:
#   return;
#
# B2:
#   if(...) goto B2;
#   goto B3;
#
# B3:
#   if(...) goto B1;
#   if(...) goto B3;
#   goto B4;
#
# B4:
#   goto B1;
#

.L_211_186_0:
        jmp .L_211_186_2
.L_211_186_1:
        pushl   $.LC_ret
        calll   puts
        addl    $4, %esp
        movl    $0, %eax
        ret        
        
.L_211_186_2:
        pushl   $.LC_2
        calll   puts
        addl    $4, %esp

        cmpl    $0, conditions+100
        je     .L_211_186_2

        jmp    .L_211_186_3

.L_211_186_3:
        pushl   $.LC_3
        calll   puts
        addl    $4, %esp

        cmpl    $0, conditions+104
        je     .L_211_186_1

        cmpl    $0, conditions+108
        je     .L_211_186_3

        jmp    .L_211_186_4

.L_211_186_4:
        pushl   $.LC_4
        calll   puts
        addl    $4, %esp

        jmp    .L_211_186_1

.L_211_186_FE1:
        .size   test_3_blocks_variant_186_edges_7, .-test_3_blocks_variant_186_edges_7


        .type   test_3_blocks_variant_187_edges_7, @function
test_3_blocks_variant_187_edges_7:
# B0:
#   goto B2;
#
# B1:
#   return;
#
# B2:
#   if(...) goto B2;
#   goto B3;
#
# B3:
#   if(...) goto B1;
#   if(...) goto B3;
#   goto B4;
#
# B4:
#   goto B2;
#

.L_212_187_0:
        jmp .L_212_187_2
.L_212_187_1:
        pushl   $.LC_ret
        calll   puts
        addl    $4, %esp
        movl    $0, %eax
        ret        
        
.L_212_187_2:
        pushl   $.LC_2
        calll   puts
        addl    $4, %esp

        cmpl    $0, conditions+100
        je     .L_212_187_2

        jmp    .L_212_187_3

.L_212_187_3:
        pushl   $.LC_3
        calll   puts
        addl    $4, %esp

        cmpl    $0, conditions+104
        je     .L_212_187_1

        cmpl    $0, conditions+108
        je     .L_212_187_3

        jmp    .L_212_187_4

.L_212_187_4:
        pushl   $.LC_4
        calll   puts
        addl    $4, %esp

        jmp    .L_212_187_2

.L_212_187_FE1:
        .size   test_3_blocks_variant_187_edges_7, .-test_3_blocks_variant_187_edges_7


        .type   test_3_blocks_variant_188_edges_7, @function
test_3_blocks_variant_188_edges_7:
# B0:
#   goto B2;
#
# B1:
#   return;
#
# B2:
#   if(...) goto B2;
#   goto B3;
#
# B3:
#   if(...) goto B1;
#   if(...) goto B3;
#   goto B4;
#
# B4:
#   goto B3;
#

.L_213_188_0:
        jmp .L_213_188_2
.L_213_188_1:
        pushl   $.LC_ret
        calll   puts
        addl    $4, %esp
        movl    $0, %eax
        ret        
        
.L_213_188_2:
        pushl   $.LC_2
        calll   puts
        addl    $4, %esp

        cmpl    $0, conditions+100
        je     .L_213_188_2

        jmp    .L_213_188_3

.L_213_188_3:
        pushl   $.LC_3
        calll   puts
        addl    $4, %esp

        cmpl    $0, conditions+104
        je     .L_213_188_1

        cmpl    $0, conditions+108
        je     .L_213_188_3

        jmp    .L_213_188_4

.L_213_188_4:
        pushl   $.LC_4
        calll   puts
        addl    $4, %esp

        jmp    .L_213_188_3

.L_213_188_FE1:
        .size   test_3_blocks_variant_188_edges_7, .-test_3_blocks_variant_188_edges_7


        .type   test_3_blocks_variant_189_edges_7, @function
test_3_blocks_variant_189_edges_7:
# B0:
#   goto B2;
#
# B1:
#   return;
#
# B2:
#   if(...) goto B2;
#   goto B3;
#
# B3:
#   if(...) goto B1;
#   if(...) goto B3;
#   goto B4;
#
# B4:
#   goto B4;
#

.L_214_189_0:
        jmp .L_214_189_2
.L_214_189_1:
        pushl   $.LC_ret
        calll   puts
        addl    $4, %esp
        movl    $0, %eax
        ret        
        
.L_214_189_2:
        pushl   $.LC_2
        calll   puts
        addl    $4, %esp

        cmpl    $0, conditions+100
        je     .L_214_189_2

        jmp    .L_214_189_3

.L_214_189_3:
        pushl   $.LC_3
        calll   puts
        addl    $4, %esp

        cmpl    $0, conditions+104
        je     .L_214_189_1

        cmpl    $0, conditions+108
        je     .L_214_189_3

        jmp    .L_214_189_4

.L_214_189_4:
        pushl   $.LC_4
        calll   puts
        addl    $4, %esp

        jmp    .L_214_189_4

.L_214_189_FE1:
        .size   test_3_blocks_variant_189_edges_7, .-test_3_blocks_variant_189_edges_7


        .type   test_3_blocks_variant_190_edges_7, @function
test_3_blocks_variant_190_edges_7:
# B0:
#   goto B2;
#
# B1:
#   return;
#
# B2:
#   if(...) goto B2;
#   goto B3;
#
# B3:
#   if(...) goto B2;
#   if(...) goto B3;
#   goto B4;
#
# B4:
#   goto B1;
#

.L_215_190_0:
        jmp .L_215_190_2
.L_215_190_1:
        pushl   $.LC_ret
        calll   puts
        addl    $4, %esp
        movl    $0, %eax
        ret        
        
.L_215_190_2:
        pushl   $.LC_2
        calll   puts
        addl    $4, %esp

        cmpl    $0, conditions+100
        je     .L_215_190_2

        jmp    .L_215_190_3

.L_215_190_3:
        pushl   $.LC_3
        calll   puts
        addl    $4, %esp

        cmpl    $0, conditions+104
        je     .L_215_190_2

        cmpl    $0, conditions+108
        je     .L_215_190_3

        jmp    .L_215_190_4

.L_215_190_4:
        pushl   $.LC_4
        calll   puts
        addl    $4, %esp

        jmp    .L_215_190_1

.L_215_190_FE1:
        .size   test_3_blocks_variant_190_edges_7, .-test_3_blocks_variant_190_edges_7


        .type   test_3_blocks_variant_191_edges_7, @function
test_3_blocks_variant_191_edges_7:
# B0:
#   goto B2;
#
# B1:
#   return;
#
# B2:
#   if(...) goto B3;
#   goto B4;
#
# B3:
#   goto B1;
#
# B4:
#   if(...) goto B1;
#   if(...) goto B2;
#   goto B3;
#

.L_216_191_0:
        jmp .L_216_191_2
.L_216_191_1:
        pushl   $.LC_ret
        calll   puts
        addl    $4, %esp
        movl    $0, %eax
        ret        
        
.L_216_191_2:
        pushl   $.LC_2
        calll   puts
        addl    $4, %esp

        cmpl    $0, conditions+100
        je     .L_216_191_3

        jmp    .L_216_191_4

.L_216_191_3:
        pushl   $.LC_3
        calll   puts
        addl    $4, %esp

        jmp    .L_216_191_1

.L_216_191_4:
        pushl   $.LC_4
        calll   puts
        addl    $4, %esp

        cmpl    $0, conditions+104
        je     .L_216_191_1

        cmpl    $0, conditions+108
        je     .L_216_191_2

        jmp    .L_216_191_3

.L_216_191_FE1:
        .size   test_3_blocks_variant_191_edges_7, .-test_3_blocks_variant_191_edges_7


        .type   test_3_blocks_variant_192_edges_7, @function
test_3_blocks_variant_192_edges_7:
# B0:
#   goto B2;
#
# B1:
#   return;
#
# B2:
#   if(...) goto B3;
#   goto B4;
#
# B3:
#   goto B1;
#
# B4:
#   if(...) goto B1;
#   if(...) goto B2;
#   goto B4;
#

.L_217_192_0:
        jmp .L_217_192_2
.L_217_192_1:
        pushl   $.LC_ret
        calll   puts
        addl    $4, %esp
        movl    $0, %eax
        ret        
        
.L_217_192_2:
        pushl   $.LC_2
        calll   puts
        addl    $4, %esp

        cmpl    $0, conditions+100
        je     .L_217_192_3

        jmp    .L_217_192_4

.L_217_192_3:
        pushl   $.LC_3
        calll   puts
        addl    $4, %esp

        jmp    .L_217_192_1

.L_217_192_4:
        pushl   $.LC_4
        calll   puts
        addl    $4, %esp

        cmpl    $0, conditions+104
        je     .L_217_192_1

        cmpl    $0, conditions+108
        je     .L_217_192_2

        jmp    .L_217_192_4

.L_217_192_FE1:
        .size   test_3_blocks_variant_192_edges_7, .-test_3_blocks_variant_192_edges_7


        .type   test_3_blocks_variant_193_edges_7, @function
test_3_blocks_variant_193_edges_7:
# B0:
#   goto B2;
#
# B1:
#   return;
#
# B2:
#   if(...) goto B3;
#   goto B4;
#
# B3:
#   goto B1;
#
# B4:
#   if(...) goto B1;
#   if(...) goto B3;
#   goto B4;
#

.L_218_193_0:
        jmp .L_218_193_2
.L_218_193_1:
        pushl   $.LC_ret
        calll   puts
        addl    $4, %esp
        movl    $0, %eax
        ret        
        
.L_218_193_2:
        pushl   $.LC_2
        calll   puts
        addl    $4, %esp

        cmpl    $0, conditions+100
        je     .L_218_193_3

        jmp    .L_218_193_4

.L_218_193_3:
        pushl   $.LC_3
        calll   puts
        addl    $4, %esp

        jmp    .L_218_193_1

.L_218_193_4:
        pushl   $.LC_4
        calll   puts
        addl    $4, %esp

        cmpl    $0, conditions+104
        je     .L_218_193_1

        cmpl    $0, conditions+108
        je     .L_218_193_3

        jmp    .L_218_193_4

.L_218_193_FE1:
        .size   test_3_blocks_variant_193_edges_7, .-test_3_blocks_variant_193_edges_7


        .type   test_3_blocks_variant_194_edges_7, @function
test_3_blocks_variant_194_edges_7:
# B0:
#   goto B2;
#
# B1:
#   return;
#
# B2:
#   if(...) goto B3;
#   goto B4;
#
# B3:
#   goto B1;
#
# B4:
#   if(...) goto B2;
#   if(...) goto B3;
#   goto B4;
#

.L_219_194_0:
        jmp .L_219_194_2
.L_219_194_1:
        pushl   $.LC_ret
        calll   puts
        addl    $4, %esp
        movl    $0, %eax
        ret        
        
.L_219_194_2:
        pushl   $.LC_2
        calll   puts
        addl    $4, %esp

        cmpl    $0, conditions+100
        je     .L_219_194_3

        jmp    .L_219_194_4

.L_219_194_3:
        pushl   $.LC_3
        calll   puts
        addl    $4, %esp

        jmp    .L_219_194_1

.L_219_194_4:
        pushl   $.LC_4
        calll   puts
        addl    $4, %esp

        cmpl    $0, conditions+104
        je     .L_219_194_2

        cmpl    $0, conditions+108
        je     .L_219_194_3

        jmp    .L_219_194_4

.L_219_194_FE1:
        .size   test_3_blocks_variant_194_edges_7, .-test_3_blocks_variant_194_edges_7


        .type   test_3_blocks_variant_195_edges_7, @function
test_3_blocks_variant_195_edges_7:
# B0:
#   goto B2;
#
# B1:
#   return;
#
# B2:
#   if(...) goto B3;
#   goto B4;
#
# B3:
#   goto B2;
#
# B4:
#   if(...) goto B1;
#   if(...) goto B2;
#   goto B3;
#

.L_220_195_0:
        jmp .L_220_195_2
.L_220_195_1:
        pushl   $.LC_ret
        calll   puts
        addl    $4, %esp
        movl    $0, %eax
        ret        
        
.L_220_195_2:
        pushl   $.LC_2
        calll   puts
        addl    $4, %esp

        cmpl    $0, conditions+100
        je     .L_220_195_3

        jmp    .L_220_195_4

.L_220_195_3:
        pushl   $.LC_3
        calll   puts
        addl    $4, %esp

        jmp    .L_220_195_2

.L_220_195_4:
        pushl   $.LC_4
        calll   puts
        addl    $4, %esp

        cmpl    $0, conditions+104
        je     .L_220_195_1

        cmpl    $0, conditions+108
        je     .L_220_195_2

        jmp    .L_220_195_3

.L_220_195_FE1:
        .size   test_3_blocks_variant_195_edges_7, .-test_3_blocks_variant_195_edges_7


        .type   test_3_blocks_variant_196_edges_7, @function
test_3_blocks_variant_196_edges_7:
# B0:
#   goto B2;
#
# B1:
#   return;
#
# B2:
#   if(...) goto B3;
#   goto B4;
#
# B3:
#   goto B2;
#
# B4:
#   if(...) goto B1;
#   if(...) goto B2;
#   goto B4;
#

.L_221_196_0:
        jmp .L_221_196_2
.L_221_196_1:
        pushl   $.LC_ret
        calll   puts
        addl    $4, %esp
        movl    $0, %eax
        ret        
        
.L_221_196_2:
        pushl   $.LC_2
        calll   puts
        addl    $4, %esp

        cmpl    $0, conditions+100
        je     .L_221_196_3

        jmp    .L_221_196_4

.L_221_196_3:
        pushl   $.LC_3
        calll   puts
        addl    $4, %esp

        jmp    .L_221_196_2

.L_221_196_4:
        pushl   $.LC_4
        calll   puts
        addl    $4, %esp

        cmpl    $0, conditions+104
        je     .L_221_196_1

        cmpl    $0, conditions+108
        je     .L_221_196_2

        jmp    .L_221_196_4

.L_221_196_FE1:
        .size   test_3_blocks_variant_196_edges_7, .-test_3_blocks_variant_196_edges_7


        .type   test_3_blocks_variant_197_edges_7, @function
test_3_blocks_variant_197_edges_7:
# B0:
#   goto B2;
#
# B1:
#   return;
#
# B2:
#   if(...) goto B3;
#   goto B4;
#
# B3:
#   goto B2;
#
# B4:
#   if(...) goto B1;
#   if(...) goto B3;
#   goto B4;
#

.L_222_197_0:
        jmp .L_222_197_2
.L_222_197_1:
        pushl   $.LC_ret
        calll   puts
        addl    $4, %esp
        movl    $0, %eax
        ret        
        
.L_222_197_2:
        pushl   $.LC_2
        calll   puts
        addl    $4, %esp

        cmpl    $0, conditions+100
        je     .L_222_197_3

        jmp    .L_222_197_4

.L_222_197_3:
        pushl   $.LC_3
        calll   puts
        addl    $4, %esp

        jmp    .L_222_197_2

.L_222_197_4:
        pushl   $.LC_4
        calll   puts
        addl    $4, %esp

        cmpl    $0, conditions+104
        je     .L_222_197_1

        cmpl    $0, conditions+108
        je     .L_222_197_3

        jmp    .L_222_197_4

.L_222_197_FE1:
        .size   test_3_blocks_variant_197_edges_7, .-test_3_blocks_variant_197_edges_7


        .type   test_3_blocks_variant_198_edges_7, @function
test_3_blocks_variant_198_edges_7:
# B0:
#   goto B2;
#
# B1:
#   return;
#
# B2:
#   if(...) goto B3;
#   goto B4;
#
# B3:
#   goto B3;
#
# B4:
#   if(...) goto B1;
#   if(...) goto B2;
#   goto B3;
#

.L_223_198_0:
        jmp .L_223_198_2
.L_223_198_1:
        pushl   $.LC_ret
        calll   puts
        addl    $4, %esp
        movl    $0, %eax
        ret        
        
.L_223_198_2:
        pushl   $.LC_2
        calll   puts
        addl    $4, %esp

        cmpl    $0, conditions+100
        je     .L_223_198_3

        jmp    .L_223_198_4

.L_223_198_3:
        pushl   $.LC_3
        calll   puts
        addl    $4, %esp

        jmp    .L_223_198_3

.L_223_198_4:
        pushl   $.LC_4
        calll   puts
        addl    $4, %esp

        cmpl    $0, conditions+104
        je     .L_223_198_1

        cmpl    $0, conditions+108
        je     .L_223_198_2

        jmp    .L_223_198_3

.L_223_198_FE1:
        .size   test_3_blocks_variant_198_edges_7, .-test_3_blocks_variant_198_edges_7


        .type   test_3_blocks_variant_199_edges_7, @function
test_3_blocks_variant_199_edges_7:
# B0:
#   goto B2;
#
# B1:
#   return;
#
# B2:
#   if(...) goto B3;
#   goto B4;
#
# B3:
#   goto B3;
#
# B4:
#   if(...) goto B1;
#   if(...) goto B2;
#   goto B4;
#

.L_224_199_0:
        jmp .L_224_199_2
.L_224_199_1:
        pushl   $.LC_ret
        calll   puts
        addl    $4, %esp
        movl    $0, %eax
        ret        
        
.L_224_199_2:
        pushl   $.LC_2
        calll   puts
        addl    $4, %esp

        cmpl    $0, conditions+100
        je     .L_224_199_3

        jmp    .L_224_199_4

.L_224_199_3:
        pushl   $.LC_3
        calll   puts
        addl    $4, %esp

        jmp    .L_224_199_3

.L_224_199_4:
        pushl   $.LC_4
        calll   puts
        addl    $4, %esp

        cmpl    $0, conditions+104
        je     .L_224_199_1

        cmpl    $0, conditions+108
        je     .L_224_199_2

        jmp    .L_224_199_4

.L_224_199_FE1:
        .size   test_3_blocks_variant_199_edges_7, .-test_3_blocks_variant_199_edges_7


        .type   test_3_blocks_variant_200_edges_7, @function
test_3_blocks_variant_200_edges_7:
# B0:
#   goto B2;
#
# B1:
#   return;
#
# B2:
#   if(...) goto B3;
#   goto B4;
#
# B3:
#   goto B3;
#
# B4:
#   if(...) goto B1;
#   if(...) goto B3;
#   goto B4;
#

.L_225_200_0:
        jmp .L_225_200_2
.L_225_200_1:
        pushl   $.LC_ret
        calll   puts
        addl    $4, %esp
        movl    $0, %eax
        ret        
        
.L_225_200_2:
        pushl   $.LC_2
        calll   puts
        addl    $4, %esp

        cmpl    $0, conditions+100
        je     .L_225_200_3

        jmp    .L_225_200_4

.L_225_200_3:
        pushl   $.LC_3
        calll   puts
        addl    $4, %esp

        jmp    .L_225_200_3

.L_225_200_4:
        pushl   $.LC_4
        calll   puts
        addl    $4, %esp

        cmpl    $0, conditions+104
        je     .L_225_200_1

        cmpl    $0, conditions+108
        je     .L_225_200_3

        jmp    .L_225_200_4

.L_225_200_FE1:
        .size   test_3_blocks_variant_200_edges_7, .-test_3_blocks_variant_200_edges_7


        .type   test_3_blocks_variant_201_edges_7, @function
test_3_blocks_variant_201_edges_7:
# B0:
#   goto B2;
#
# B1:
#   return;
#
# B2:
#   if(...) goto B3;
#   goto B4;
#
# B3:
#   goto B4;
#
# B4:
#   if(...) goto B1;
#   if(...) goto B2;
#   goto B3;
#

.L_226_201_0:
        jmp .L_226_201_2
.L_226_201_1:
        pushl   $.LC_ret
        calll   puts
        addl    $4, %esp
        movl    $0, %eax
        ret        
        
.L_226_201_2:
        pushl   $.LC_2
        calll   puts
        addl    $4, %esp

        cmpl    $0, conditions+100
        je     .L_226_201_3

        jmp    .L_226_201_4

.L_226_201_3:
        pushl   $.LC_3
        calll   puts
        addl    $4, %esp

        jmp    .L_226_201_4

.L_226_201_4:
        pushl   $.LC_4
        calll   puts
        addl    $4, %esp

        cmpl    $0, conditions+104
        je     .L_226_201_1

        cmpl    $0, conditions+108
        je     .L_226_201_2

        jmp    .L_226_201_3

.L_226_201_FE1:
        .size   test_3_blocks_variant_201_edges_7, .-test_3_blocks_variant_201_edges_7


        .type   test_3_blocks_variant_202_edges_7, @function
test_3_blocks_variant_202_edges_7:
# B0:
#   goto B2;
#
# B1:
#   return;
#
# B2:
#   if(...) goto B3;
#   goto B4;
#
# B3:
#   goto B4;
#
# B4:
#   if(...) goto B1;
#   if(...) goto B2;
#   goto B4;
#

.L_227_202_0:
        jmp .L_227_202_2
.L_227_202_1:
        pushl   $.LC_ret
        calll   puts
        addl    $4, %esp
        movl    $0, %eax
        ret        
        
.L_227_202_2:
        pushl   $.LC_2
        calll   puts
        addl    $4, %esp

        cmpl    $0, conditions+100
        je     .L_227_202_3

        jmp    .L_227_202_4

.L_227_202_3:
        pushl   $.LC_3
        calll   puts
        addl    $4, %esp

        jmp    .L_227_202_4

.L_227_202_4:
        pushl   $.LC_4
        calll   puts
        addl    $4, %esp

        cmpl    $0, conditions+104
        je     .L_227_202_1

        cmpl    $0, conditions+108
        je     .L_227_202_2

        jmp    .L_227_202_4

.L_227_202_FE1:
        .size   test_3_blocks_variant_202_edges_7, .-test_3_blocks_variant_202_edges_7


        .type   test_3_blocks_variant_203_edges_7, @function
test_3_blocks_variant_203_edges_7:
# B0:
#   goto B2;
#
# B1:
#   return;
#
# B2:
#   if(...) goto B3;
#   goto B4;
#
# B3:
#   goto B4;
#
# B4:
#   if(...) goto B1;
#   if(...) goto B3;
#   goto B4;
#

.L_228_203_0:
        jmp .L_228_203_2
.L_228_203_1:
        pushl   $.LC_ret
        calll   puts
        addl    $4, %esp
        movl    $0, %eax
        ret        
        
.L_228_203_2:
        pushl   $.LC_2
        calll   puts
        addl    $4, %esp

        cmpl    $0, conditions+100
        je     .L_228_203_3

        jmp    .L_228_203_4

.L_228_203_3:
        pushl   $.LC_3
        calll   puts
        addl    $4, %esp

        jmp    .L_228_203_4

.L_228_203_4:
        pushl   $.LC_4
        calll   puts
        addl    $4, %esp

        cmpl    $0, conditions+104
        je     .L_228_203_1

        cmpl    $0, conditions+108
        je     .L_228_203_3

        jmp    .L_228_203_4

.L_228_203_FE1:
        .size   test_3_blocks_variant_203_edges_7, .-test_3_blocks_variant_203_edges_7


        .type   test_3_blocks_variant_204_edges_7, @function
test_3_blocks_variant_204_edges_7:
# B0:
#   goto B2;
#
# B1:
#   return;
#
# B2:
#   if(...) goto B3;
#   goto B4;
#
# B3:
#   if(...) goto B1;
#   goto B2;
#
# B4:
#   if(...) goto B1;
#   goto B2;
#

.L_229_204_0:
        jmp .L_229_204_2
.L_229_204_1:
        pushl   $.LC_ret
        calll   puts
        addl    $4, %esp
        movl    $0, %eax
        ret        
        
.L_229_204_2:
        pushl   $.LC_2
        calll   puts
        addl    $4, %esp

        cmpl    $0, conditions+100
        je     .L_229_204_3

        jmp    .L_229_204_4

.L_229_204_3:
        pushl   $.LC_3
        calll   puts
        addl    $4, %esp

        cmpl    $0, conditions+104
        je     .L_229_204_1

        jmp    .L_229_204_2

.L_229_204_4:
        pushl   $.LC_4
        calll   puts
        addl    $4, %esp

        cmpl    $0, conditions+108
        je     .L_229_204_1

        jmp    .L_229_204_2

.L_229_204_FE1:
        .size   test_3_blocks_variant_204_edges_7, .-test_3_blocks_variant_204_edges_7


        .type   test_3_blocks_variant_205_edges_7, @function
test_3_blocks_variant_205_edges_7:
# B0:
#   goto B2;
#
# B1:
#   return;
#
# B2:
#   if(...) goto B3;
#   goto B4;
#
# B3:
#   if(...) goto B1;
#   goto B2;
#
# B4:
#   if(...) goto B1;
#   goto B3;
#

.L_230_205_0:
        jmp .L_230_205_2
.L_230_205_1:
        pushl   $.LC_ret
        calll   puts
        addl    $4, %esp
        movl    $0, %eax
        ret        
        
.L_230_205_2:
        pushl   $.LC_2
        calll   puts
        addl    $4, %esp

        cmpl    $0, conditions+100
        je     .L_230_205_3

        jmp    .L_230_205_4

.L_230_205_3:
        pushl   $.LC_3
        calll   puts
        addl    $4, %esp

        cmpl    $0, conditions+104
        je     .L_230_205_1

        jmp    .L_230_205_2

.L_230_205_4:
        pushl   $.LC_4
        calll   puts
        addl    $4, %esp

        cmpl    $0, conditions+108
        je     .L_230_205_1

        jmp    .L_230_205_3

.L_230_205_FE1:
        .size   test_3_blocks_variant_205_edges_7, .-test_3_blocks_variant_205_edges_7


        .type   test_3_blocks_variant_206_edges_7, @function
test_3_blocks_variant_206_edges_7:
# B0:
#   goto B2;
#
# B1:
#   return;
#
# B2:
#   if(...) goto B3;
#   goto B4;
#
# B3:
#   if(...) goto B1;
#   goto B2;
#
# B4:
#   if(...) goto B1;
#   goto B4;
#

.L_231_206_0:
        jmp .L_231_206_2
.L_231_206_1:
        pushl   $.LC_ret
        calll   puts
        addl    $4, %esp
        movl    $0, %eax
        ret        
        
.L_231_206_2:
        pushl   $.LC_2
        calll   puts
        addl    $4, %esp

        cmpl    $0, conditions+100
        je     .L_231_206_3

        jmp    .L_231_206_4

.L_231_206_3:
        pushl   $.LC_3
        calll   puts
        addl    $4, %esp

        cmpl    $0, conditions+104
        je     .L_231_206_1

        jmp    .L_231_206_2

.L_231_206_4:
        pushl   $.LC_4
        calll   puts
        addl    $4, %esp

        cmpl    $0, conditions+108
        je     .L_231_206_1

        jmp    .L_231_206_4

.L_231_206_FE1:
        .size   test_3_blocks_variant_206_edges_7, .-test_3_blocks_variant_206_edges_7


        .type   test_3_blocks_variant_207_edges_7, @function
test_3_blocks_variant_207_edges_7:
# B0:
#   goto B2;
#
# B1:
#   return;
#
# B2:
#   if(...) goto B3;
#   goto B4;
#
# B3:
#   if(...) goto B1;
#   goto B2;
#
# B4:
#   if(...) goto B2;
#   goto B3;
#

.L_232_207_0:
        jmp .L_232_207_2
.L_232_207_1:
        pushl   $.LC_ret
        calll   puts
        addl    $4, %esp
        movl    $0, %eax
        ret        
        
.L_232_207_2:
        pushl   $.LC_2
        calll   puts
        addl    $4, %esp

        cmpl    $0, conditions+100
        je     .L_232_207_3

        jmp    .L_232_207_4

.L_232_207_3:
        pushl   $.LC_3
        calll   puts
        addl    $4, %esp

        cmpl    $0, conditions+104
        je     .L_232_207_1

        jmp    .L_232_207_2

.L_232_207_4:
        pushl   $.LC_4
        calll   puts
        addl    $4, %esp

        cmpl    $0, conditions+108
        je     .L_232_207_2

        jmp    .L_232_207_3

.L_232_207_FE1:
        .size   test_3_blocks_variant_207_edges_7, .-test_3_blocks_variant_207_edges_7


        .type   test_3_blocks_variant_208_edges_7, @function
test_3_blocks_variant_208_edges_7:
# B0:
#   goto B2;
#
# B1:
#   return;
#
# B2:
#   if(...) goto B3;
#   goto B4;
#
# B3:
#   if(...) goto B1;
#   goto B2;
#
# B4:
#   if(...) goto B2;
#   goto B4;
#

.L_233_208_0:
        jmp .L_233_208_2
.L_233_208_1:
        pushl   $.LC_ret
        calll   puts
        addl    $4, %esp
        movl    $0, %eax
        ret        
        
.L_233_208_2:
        pushl   $.LC_2
        calll   puts
        addl    $4, %esp

        cmpl    $0, conditions+100
        je     .L_233_208_3

        jmp    .L_233_208_4

.L_233_208_3:
        pushl   $.LC_3
        calll   puts
        addl    $4, %esp

        cmpl    $0, conditions+104
        je     .L_233_208_1

        jmp    .L_233_208_2

.L_233_208_4:
        pushl   $.LC_4
        calll   puts
        addl    $4, %esp

        cmpl    $0, conditions+108
        je     .L_233_208_2

        jmp    .L_233_208_4

.L_233_208_FE1:
        .size   test_3_blocks_variant_208_edges_7, .-test_3_blocks_variant_208_edges_7


        .type   test_3_blocks_variant_209_edges_7, @function
test_3_blocks_variant_209_edges_7:
# B0:
#   goto B2;
#
# B1:
#   return;
#
# B2:
#   if(...) goto B3;
#   goto B4;
#
# B3:
#   if(...) goto B1;
#   goto B2;
#
# B4:
#   if(...) goto B3;
#   goto B4;
#

.L_234_209_0:
        jmp .L_234_209_2
.L_234_209_1:
        pushl   $.LC_ret
        calll   puts
        addl    $4, %esp
        movl    $0, %eax
        ret        
        
.L_234_209_2:
        pushl   $.LC_2
        calll   puts
        addl    $4, %esp

        cmpl    $0, conditions+100
        je     .L_234_209_3

        jmp    .L_234_209_4

.L_234_209_3:
        pushl   $.LC_3
        calll   puts
        addl    $4, %esp

        cmpl    $0, conditions+104
        je     .L_234_209_1

        jmp    .L_234_209_2

.L_234_209_4:
        pushl   $.LC_4
        calll   puts
        addl    $4, %esp

        cmpl    $0, conditions+108
        je     .L_234_209_3

        jmp    .L_234_209_4

.L_234_209_FE1:
        .size   test_3_blocks_variant_209_edges_7, .-test_3_blocks_variant_209_edges_7


        .type   test_3_blocks_variant_210_edges_7, @function
test_3_blocks_variant_210_edges_7:
# B0:
#   goto B2;
#
# B1:
#   return;
#
# B2:
#   if(...) goto B3;
#   goto B4;
#
# B3:
#   if(...) goto B1;
#   goto B3;
#
# B4:
#   if(...) goto B1;
#   goto B3;
#

.L_235_210_0:
        jmp .L_235_210_2
.L_235_210_1:
        pushl   $.LC_ret
        calll   puts
        addl    $4, %esp
        movl    $0, %eax
        ret        
        
.L_235_210_2:
        pushl   $.LC_2
        calll   puts
        addl    $4, %esp

        cmpl    $0, conditions+100
        je     .L_235_210_3

        jmp    .L_235_210_4

.L_235_210_3:
        pushl   $.LC_3
        calll   puts
        addl    $4, %esp

        cmpl    $0, conditions+104
        je     .L_235_210_1

        jmp    .L_235_210_3

.L_235_210_4:
        pushl   $.LC_4
        calll   puts
        addl    $4, %esp

        cmpl    $0, conditions+108
        je     .L_235_210_1

        jmp    .L_235_210_3

.L_235_210_FE1:
        .size   test_3_blocks_variant_210_edges_7, .-test_3_blocks_variant_210_edges_7


        .type   test_3_blocks_variant_211_edges_7, @function
test_3_blocks_variant_211_edges_7:
# B0:
#   goto B2;
#
# B1:
#   return;
#
# B2:
#   if(...) goto B3;
#   goto B4;
#
# B3:
#   if(...) goto B1;
#   goto B3;
#
# B4:
#   if(...) goto B1;
#   goto B4;
#

.L_236_211_0:
        jmp .L_236_211_2
.L_236_211_1:
        pushl   $.LC_ret
        calll   puts
        addl    $4, %esp
        movl    $0, %eax
        ret        
        
.L_236_211_2:
        pushl   $.LC_2
        calll   puts
        addl    $4, %esp

        cmpl    $0, conditions+100
        je     .L_236_211_3

        jmp    .L_236_211_4

.L_236_211_3:
        pushl   $.LC_3
        calll   puts
        addl    $4, %esp

        cmpl    $0, conditions+104
        je     .L_236_211_1

        jmp    .L_236_211_3

.L_236_211_4:
        pushl   $.LC_4
        calll   puts
        addl    $4, %esp

        cmpl    $0, conditions+108
        je     .L_236_211_1

        jmp    .L_236_211_4

.L_236_211_FE1:
        .size   test_3_blocks_variant_211_edges_7, .-test_3_blocks_variant_211_edges_7


        .type   test_3_blocks_variant_212_edges_7, @function
test_3_blocks_variant_212_edges_7:
# B0:
#   goto B2;
#
# B1:
#   return;
#
# B2:
#   if(...) goto B3;
#   goto B4;
#
# B3:
#   if(...) goto B1;
#   goto B3;
#
# B4:
#   if(...) goto B2;
#   goto B3;
#

.L_237_212_0:
        jmp .L_237_212_2
.L_237_212_1:
        pushl   $.LC_ret
        calll   puts
        addl    $4, %esp
        movl    $0, %eax
        ret        
        
.L_237_212_2:
        pushl   $.LC_2
        calll   puts
        addl    $4, %esp

        cmpl    $0, conditions+100
        je     .L_237_212_3

        jmp    .L_237_212_4

.L_237_212_3:
        pushl   $.LC_3
        calll   puts
        addl    $4, %esp

        cmpl    $0, conditions+104
        je     .L_237_212_1

        jmp    .L_237_212_3

.L_237_212_4:
        pushl   $.LC_4
        calll   puts
        addl    $4, %esp

        cmpl    $0, conditions+108
        je     .L_237_212_2

        jmp    .L_237_212_3

.L_237_212_FE1:
        .size   test_3_blocks_variant_212_edges_7, .-test_3_blocks_variant_212_edges_7


        .type   test_3_blocks_variant_213_edges_7, @function
test_3_blocks_variant_213_edges_7:
# B0:
#   goto B2;
#
# B1:
#   return;
#
# B2:
#   if(...) goto B3;
#   goto B4;
#
# B3:
#   if(...) goto B1;
#   goto B3;
#
# B4:
#   if(...) goto B2;
#   goto B4;
#

.L_238_213_0:
        jmp .L_238_213_2
.L_238_213_1:
        pushl   $.LC_ret
        calll   puts
        addl    $4, %esp
        movl    $0, %eax
        ret        
        
.L_238_213_2:
        pushl   $.LC_2
        calll   puts
        addl    $4, %esp

        cmpl    $0, conditions+100
        je     .L_238_213_3

        jmp    .L_238_213_4

.L_238_213_3:
        pushl   $.LC_3
        calll   puts
        addl    $4, %esp

        cmpl    $0, conditions+104
        je     .L_238_213_1

        jmp    .L_238_213_3

.L_238_213_4:
        pushl   $.LC_4
        calll   puts
        addl    $4, %esp

        cmpl    $0, conditions+108
        je     .L_238_213_2

        jmp    .L_238_213_4

.L_238_213_FE1:
        .size   test_3_blocks_variant_213_edges_7, .-test_3_blocks_variant_213_edges_7


        .type   test_3_blocks_variant_214_edges_7, @function
test_3_blocks_variant_214_edges_7:
# B0:
#   goto B2;
#
# B1:
#   return;
#
# B2:
#   if(...) goto B3;
#   goto B4;
#
# B3:
#   if(...) goto B1;
#   goto B3;
#
# B4:
#   if(...) goto B3;
#   goto B4;
#

.L_239_214_0:
        jmp .L_239_214_2
.L_239_214_1:
        pushl   $.LC_ret
        calll   puts
        addl    $4, %esp
        movl    $0, %eax
        ret        
        
.L_239_214_2:
        pushl   $.LC_2
        calll   puts
        addl    $4, %esp

        cmpl    $0, conditions+100
        je     .L_239_214_3

        jmp    .L_239_214_4

.L_239_214_3:
        pushl   $.LC_3
        calll   puts
        addl    $4, %esp

        cmpl    $0, conditions+104
        je     .L_239_214_1

        jmp    .L_239_214_3

.L_239_214_4:
        pushl   $.LC_4
        calll   puts
        addl    $4, %esp

        cmpl    $0, conditions+108
        je     .L_239_214_3

        jmp    .L_239_214_4

.L_239_214_FE1:
        .size   test_3_blocks_variant_214_edges_7, .-test_3_blocks_variant_214_edges_7


        .type   test_3_blocks_variant_215_edges_7, @function
test_3_blocks_variant_215_edges_7:
# B0:
#   goto B2;
#
# B1:
#   return;
#
# B2:
#   if(...) goto B3;
#   goto B4;
#
# B3:
#   if(...) goto B1;
#   goto B4;
#
# B4:
#   if(...) goto B1;
#   goto B3;
#

.L_240_215_0:
        jmp .L_240_215_2
.L_240_215_1:
        pushl   $.LC_ret
        calll   puts
        addl    $4, %esp
        movl    $0, %eax
        ret        
        
.L_240_215_2:
        pushl   $.LC_2
        calll   puts
        addl    $4, %esp

        cmpl    $0, conditions+100
        je     .L_240_215_3

        jmp    .L_240_215_4

.L_240_215_3:
        pushl   $.LC_3
        calll   puts
        addl    $4, %esp

        cmpl    $0, conditions+104
        je     .L_240_215_1

        jmp    .L_240_215_4

.L_240_215_4:
        pushl   $.LC_4
        calll   puts
        addl    $4, %esp

        cmpl    $0, conditions+108
        je     .L_240_215_1

        jmp    .L_240_215_3

.L_240_215_FE1:
        .size   test_3_blocks_variant_215_edges_7, .-test_3_blocks_variant_215_edges_7


        .type   test_3_blocks_variant_216_edges_7, @function
test_3_blocks_variant_216_edges_7:
# B0:
#   goto B2;
#
# B1:
#   return;
#
# B2:
#   if(...) goto B3;
#   goto B4;
#
# B3:
#   if(...) goto B1;
#   goto B4;
#
# B4:
#   if(...) goto B2;
#   goto B3;
#

.L_241_216_0:
        jmp .L_241_216_2
.L_241_216_1:
        pushl   $.LC_ret
        calll   puts
        addl    $4, %esp
        movl    $0, %eax
        ret        
        
.L_241_216_2:
        pushl   $.LC_2
        calll   puts
        addl    $4, %esp

        cmpl    $0, conditions+100
        je     .L_241_216_3

        jmp    .L_241_216_4

.L_241_216_3:
        pushl   $.LC_3
        calll   puts
        addl    $4, %esp

        cmpl    $0, conditions+104
        je     .L_241_216_1

        jmp    .L_241_216_4

.L_241_216_4:
        pushl   $.LC_4
        calll   puts
        addl    $4, %esp

        cmpl    $0, conditions+108
        je     .L_241_216_2

        jmp    .L_241_216_3

.L_241_216_FE1:
        .size   test_3_blocks_variant_216_edges_7, .-test_3_blocks_variant_216_edges_7


        .type   test_3_blocks_variant_217_edges_7, @function
test_3_blocks_variant_217_edges_7:
# B0:
#   goto B2;
#
# B1:
#   return;
#
# B2:
#   if(...) goto B3;
#   goto B4;
#
# B3:
#   if(...) goto B1;
#   goto B4;
#
# B4:
#   if(...) goto B2;
#   goto B4;
#

.L_242_217_0:
        jmp .L_242_217_2
.L_242_217_1:
        pushl   $.LC_ret
        calll   puts
        addl    $4, %esp
        movl    $0, %eax
        ret        
        
.L_242_217_2:
        pushl   $.LC_2
        calll   puts
        addl    $4, %esp

        cmpl    $0, conditions+100
        je     .L_242_217_3

        jmp    .L_242_217_4

.L_242_217_3:
        pushl   $.LC_3
        calll   puts
        addl    $4, %esp

        cmpl    $0, conditions+104
        je     .L_242_217_1

        jmp    .L_242_217_4

.L_242_217_4:
        pushl   $.LC_4
        calll   puts
        addl    $4, %esp

        cmpl    $0, conditions+108
        je     .L_242_217_2

        jmp    .L_242_217_4

.L_242_217_FE1:
        .size   test_3_blocks_variant_217_edges_7, .-test_3_blocks_variant_217_edges_7


        .type   test_3_blocks_variant_218_edges_7, @function
test_3_blocks_variant_218_edges_7:
# B0:
#   goto B2;
#
# B1:
#   return;
#
# B2:
#   if(...) goto B3;
#   goto B4;
#
# B3:
#   if(...) goto B1;
#   goto B4;
#
# B4:
#   if(...) goto B3;
#   goto B4;
#

.L_243_218_0:
        jmp .L_243_218_2
.L_243_218_1:
        pushl   $.LC_ret
        calll   puts
        addl    $4, %esp
        movl    $0, %eax
        ret        
        
.L_243_218_2:
        pushl   $.LC_2
        calll   puts
        addl    $4, %esp

        cmpl    $0, conditions+100
        je     .L_243_218_3

        jmp    .L_243_218_4

.L_243_218_3:
        pushl   $.LC_3
        calll   puts
        addl    $4, %esp

        cmpl    $0, conditions+104
        je     .L_243_218_1

        jmp    .L_243_218_4

.L_243_218_4:
        pushl   $.LC_4
        calll   puts
        addl    $4, %esp

        cmpl    $0, conditions+108
        je     .L_243_218_3

        jmp    .L_243_218_4

.L_243_218_FE1:
        .size   test_3_blocks_variant_218_edges_7, .-test_3_blocks_variant_218_edges_7


        .type   test_3_blocks_variant_219_edges_7, @function
test_3_blocks_variant_219_edges_7:
# B0:
#   goto B2;
#
# B1:
#   return;
#
# B2:
#   if(...) goto B1;
#   if(...) goto B2;
#   goto B3;
#
# B3:
#   goto B4;
#
# B4:
#   if(...) goto B1;
#   goto B2;
#

.L_244_219_0:
        jmp .L_244_219_2
.L_244_219_1:
        pushl   $.LC_ret
        calll   puts
        addl    $4, %esp
        movl    $0, %eax
        ret        
        
.L_244_219_2:
        pushl   $.LC_2
        calll   puts
        addl    $4, %esp

        cmpl    $0, conditions+100
        je     .L_244_219_1

        cmpl    $0, conditions+104
        je     .L_244_219_2

        jmp    .L_244_219_3

.L_244_219_3:
        pushl   $.LC_3
        calll   puts
        addl    $4, %esp

        jmp    .L_244_219_4

.L_244_219_4:
        pushl   $.LC_4
        calll   puts
        addl    $4, %esp

        cmpl    $0, conditions+108
        je     .L_244_219_1

        jmp    .L_244_219_2

.L_244_219_FE1:
        .size   test_3_blocks_variant_219_edges_7, .-test_3_blocks_variant_219_edges_7


        .type   test_3_blocks_variant_220_edges_7, @function
test_3_blocks_variant_220_edges_7:
# B0:
#   goto B2;
#
# B1:
#   return;
#
# B2:
#   if(...) goto B1;
#   if(...) goto B2;
#   goto B3;
#
# B3:
#   goto B4;
#
# B4:
#   if(...) goto B1;
#   goto B3;
#

.L_245_220_0:
        jmp .L_245_220_2
.L_245_220_1:
        pushl   $.LC_ret
        calll   puts
        addl    $4, %esp
        movl    $0, %eax
        ret        
        
.L_245_220_2:
        pushl   $.LC_2
        calll   puts
        addl    $4, %esp

        cmpl    $0, conditions+100
        je     .L_245_220_1

        cmpl    $0, conditions+104
        je     .L_245_220_2

        jmp    .L_245_220_3

.L_245_220_3:
        pushl   $.LC_3
        calll   puts
        addl    $4, %esp

        jmp    .L_245_220_4

.L_245_220_4:
        pushl   $.LC_4
        calll   puts
        addl    $4, %esp

        cmpl    $0, conditions+108
        je     .L_245_220_1

        jmp    .L_245_220_3

.L_245_220_FE1:
        .size   test_3_blocks_variant_220_edges_7, .-test_3_blocks_variant_220_edges_7


        .type   test_3_blocks_variant_221_edges_7, @function
test_3_blocks_variant_221_edges_7:
# B0:
#   goto B2;
#
# B1:
#   return;
#
# B2:
#   if(...) goto B1;
#   if(...) goto B2;
#   goto B3;
#
# B3:
#   goto B4;
#
# B4:
#   if(...) goto B1;
#   goto B4;
#

.L_246_221_0:
        jmp .L_246_221_2
.L_246_221_1:
        pushl   $.LC_ret
        calll   puts
        addl    $4, %esp
        movl    $0, %eax
        ret        
        
.L_246_221_2:
        pushl   $.LC_2
        calll   puts
        addl    $4, %esp

        cmpl    $0, conditions+100
        je     .L_246_221_1

        cmpl    $0, conditions+104
        je     .L_246_221_2

        jmp    .L_246_221_3

.L_246_221_3:
        pushl   $.LC_3
        calll   puts
        addl    $4, %esp

        jmp    .L_246_221_4

.L_246_221_4:
        pushl   $.LC_4
        calll   puts
        addl    $4, %esp

        cmpl    $0, conditions+108
        je     .L_246_221_1

        jmp    .L_246_221_4

.L_246_221_FE1:
        .size   test_3_blocks_variant_221_edges_7, .-test_3_blocks_variant_221_edges_7


        .type   test_3_blocks_variant_222_edges_7, @function
test_3_blocks_variant_222_edges_7:
# B0:
#   goto B2;
#
# B1:
#   return;
#
# B2:
#   if(...) goto B1;
#   if(...) goto B2;
#   goto B3;
#
# B3:
#   goto B4;
#
# B4:
#   if(...) goto B2;
#   goto B3;
#

.L_247_222_0:
        jmp .L_247_222_2
.L_247_222_1:
        pushl   $.LC_ret
        calll   puts
        addl    $4, %esp
        movl    $0, %eax
        ret        
        
.L_247_222_2:
        pushl   $.LC_2
        calll   puts
        addl    $4, %esp

        cmpl    $0, conditions+100
        je     .L_247_222_1

        cmpl    $0, conditions+104
        je     .L_247_222_2

        jmp    .L_247_222_3

.L_247_222_3:
        pushl   $.LC_3
        calll   puts
        addl    $4, %esp

        jmp    .L_247_222_4

.L_247_222_4:
        pushl   $.LC_4
        calll   puts
        addl    $4, %esp

        cmpl    $0, conditions+108
        je     .L_247_222_2

        jmp    .L_247_222_3

.L_247_222_FE1:
        .size   test_3_blocks_variant_222_edges_7, .-test_3_blocks_variant_222_edges_7


        .type   test_3_blocks_variant_223_edges_7, @function
test_3_blocks_variant_223_edges_7:
# B0:
#   goto B2;
#
# B1:
#   return;
#
# B2:
#   if(...) goto B1;
#   if(...) goto B2;
#   goto B3;
#
# B3:
#   goto B4;
#
# B4:
#   if(...) goto B2;
#   goto B4;
#

.L_248_223_0:
        jmp .L_248_223_2
.L_248_223_1:
        pushl   $.LC_ret
        calll   puts
        addl    $4, %esp
        movl    $0, %eax
        ret        
        
.L_248_223_2:
        pushl   $.LC_2
        calll   puts
        addl    $4, %esp

        cmpl    $0, conditions+100
        je     .L_248_223_1

        cmpl    $0, conditions+104
        je     .L_248_223_2

        jmp    .L_248_223_3

.L_248_223_3:
        pushl   $.LC_3
        calll   puts
        addl    $4, %esp

        jmp    .L_248_223_4

.L_248_223_4:
        pushl   $.LC_4
        calll   puts
        addl    $4, %esp

        cmpl    $0, conditions+108
        je     .L_248_223_2

        jmp    .L_248_223_4

.L_248_223_FE1:
        .size   test_3_blocks_variant_223_edges_7, .-test_3_blocks_variant_223_edges_7


        .type   test_3_blocks_variant_224_edges_7, @function
test_3_blocks_variant_224_edges_7:
# B0:
#   goto B2;
#
# B1:
#   return;
#
# B2:
#   if(...) goto B1;
#   if(...) goto B2;
#   goto B3;
#
# B3:
#   goto B4;
#
# B4:
#   if(...) goto B3;
#   goto B4;
#

.L_249_224_0:
        jmp .L_249_224_2
.L_249_224_1:
        pushl   $.LC_ret
        calll   puts
        addl    $4, %esp
        movl    $0, %eax
        ret        
        
.L_249_224_2:
        pushl   $.LC_2
        calll   puts
        addl    $4, %esp

        cmpl    $0, conditions+100
        je     .L_249_224_1

        cmpl    $0, conditions+104
        je     .L_249_224_2

        jmp    .L_249_224_3

