
all_i386_opcodes/ia32_elf/subject.exe:     file format elf32-i386


Disassembly of section .init:

080482cc <_init>:
 80482cc:	55                   	push   %ebp
 80482cd:	89 e5                	mov    %esp,%ebp
 80482cf:	53                   	push   %ebx
 80482d0:	83 ec 04             	sub    $0x4,%esp
 80482d3:	e8 00 00 00 00       	call   80482d8 <_init+0xc>
 80482d8:	5b                   	pop    %ebx
 80482d9:	81 c3 2c ee 02 00    	add    $0x2ee2c,%ebx
 80482df:	8b 93 fc ff ff ff    	mov    -0x4(%ebx),%edx
 80482e5:	85 d2                	test   %edx,%edx
 80482e7:	74 05                	je     80482ee <_init+0x22>
 80482e9:	e8 1e 00 00 00       	call   804830c <__gmon_start__@plt>
 80482ee:	e8 dd 00 00 00       	call   80483d0 <frame_dummy>
 80482f3:	e8 38 dc 02 00       	call   8075f30 <__do_global_ctors_aux>
 80482f8:	58                   	pop    %eax
 80482f9:	5b                   	pop    %ebx
 80482fa:	c9                   	leave  
 80482fb:	c3                   	ret    

Disassembly of section .plt:

080482fc <__gmon_start__@plt-0x10>:
 80482fc:	ff 35 08 71 07 08    	pushl  0x8077108
 8048302:	ff 25 0c 71 07 08    	jmp    *0x807710c
 8048308:	00 00                	add    %al,(%eax)
	...

0804830c <__gmon_start__@plt>:
 804830c:	ff 25 10 71 07 08    	jmp    *0x8077110
 8048312:	68 00 00 00 00       	push   $0x0
 8048317:	e9 e0 ff ff ff       	jmp    80482fc <_init+0x30>

0804831c <__libc_start_main@plt>:
 804831c:	ff 25 14 71 07 08    	jmp    *0x8077114
 8048322:	68 08 00 00 00       	push   $0x8
 8048327:	e9 d0 ff ff ff       	jmp    80482fc <_init+0x30>

0804832c <malloc@plt>:
 804832c:	ff 25 18 71 07 08    	jmp    *0x8077118
 8048332:	68 10 00 00 00       	push   $0x10
 8048337:	e9 c0 ff ff ff       	jmp    80482fc <_init+0x30>

Disassembly of section .text:

08048340 <_start>:
 8048340:	31 ed                	xor    %ebp,%ebp
 8048342:	5e                   	pop    %esi
 8048343:	89 e1                	mov    %esp,%ecx
 8048345:	83 e4 f0             	and    $0xfffffff0,%esp
 8048348:	50                   	push   %eax
 8048349:	54                   	push   %esp
 804834a:	52                   	push   %edx
 804834b:	68 c0 5e 07 08       	push   $0x8075ec0
 8048350:	68 d0 5e 07 08       	push   $0x8075ed0
 8048355:	51                   	push   %ecx
 8048356:	56                   	push   %esi
 8048357:	68 b4 2d 07 08       	push   $0x8072db4
 804835c:	e8 bb ff ff ff       	call   804831c <__libc_start_main@plt>
 8048361:	f4                   	hlt    
 8048362:	90                   	nop
 8048363:	90                   	nop
 8048364:	90                   	nop
 8048365:	90                   	nop
 8048366:	90                   	nop
 8048367:	90                   	nop
 8048368:	90                   	nop
 8048369:	90                   	nop
 804836a:	90                   	nop
 804836b:	90                   	nop
 804836c:	90                   	nop
 804836d:	90                   	nop
 804836e:	90                   	nop
 804836f:	90                   	nop

08048370 <__do_global_dtors_aux>:
 8048370:	55                   	push   %ebp
 8048371:	89 e5                	mov    %esp,%ebp
 8048373:	53                   	push   %ebx
 8048374:	83 ec 04             	sub    $0x4,%esp
 8048377:	80 3d 20 71 07 08 00 	cmpb   $0x0,0x8077120
 804837e:	75 3f                	jne    80483bf <__do_global_dtors_aux+0x4f>
 8048380:	a1 24 71 07 08       	mov    0x8077124,%eax
 8048385:	bb 30 70 07 08       	mov    $0x8077030,%ebx
 804838a:	81 eb 2c 70 07 08    	sub    $0x807702c,%ebx
 8048390:	c1 fb 02             	sar    $0x2,%ebx
 8048393:	83 eb 01             	sub    $0x1,%ebx
 8048396:	39 d8                	cmp    %ebx,%eax
 8048398:	73 1e                	jae    80483b8 <__do_global_dtors_aux+0x48>
 804839a:	8d b6 00 00 00 00    	lea    0x0(%esi),%esi
 80483a0:	83 c0 01             	add    $0x1,%eax
 80483a3:	a3 24 71 07 08       	mov    %eax,0x8077124
 80483a8:	ff 14 85 2c 70 07 08 	call   *0x807702c(,%eax,4)
 80483af:	a1 24 71 07 08       	mov    0x8077124,%eax
 80483b4:	39 d8                	cmp    %ebx,%eax
 80483b6:	72 e8                	jb     80483a0 <__do_global_dtors_aux+0x30>
 80483b8:	c6 05 20 71 07 08 01 	movb   $0x1,0x8077120
 80483bf:	83 c4 04             	add    $0x4,%esp
 80483c2:	5b                   	pop    %ebx
 80483c3:	5d                   	pop    %ebp
 80483c4:	c3                   	ret    
 80483c5:	8d 74 26 00          	lea    0x0(%esi,%eiz,1),%esi
 80483c9:	8d bc 27 00 00 00 00 	lea    0x0(%edi,%eiz,1),%edi

080483d0 <frame_dummy>:
 80483d0:	55                   	push   %ebp
 80483d1:	89 e5                	mov    %esp,%ebp
 80483d3:	83 ec 18             	sub    $0x18,%esp
 80483d6:	a1 34 70 07 08       	mov    0x8077034,%eax
 80483db:	85 c0                	test   %eax,%eax
 80483dd:	74 12                	je     80483f1 <frame_dummy+0x21>
 80483df:	b8 00 00 00 00       	mov    $0x0,%eax
 80483e4:	85 c0                	test   %eax,%eax
 80483e6:	74 09                	je     80483f1 <frame_dummy+0x21>
 80483e8:	c7 04 24 34 70 07 08 	movl   $0x8077034,(%esp)
 80483ef:	ff d0                	call   *%eax
 80483f1:	c9                   	leave  
 80483f2:	c3                   	ret    
 80483f3:	90                   	nop

080483f4 <aaa_flags_clear>:
 80483f4:	b8 02 00 00 00       	mov    $0x2,%eax
 80483f9:	48                   	dec    %eax
 80483fa:	a0 00 10 00 00       	mov    0x1000,%al
 80483ff:	8a 25 04 10 00 00    	mov    0x1004,%ah
 8048405:	37                   	aaa    
 8048406:	a2 00 20 00 00       	mov    %al,0x2000
 804840b:	88 25 04 20 00 00    	mov    %ah,0x2004
 8048411:	73 07                	jae    804841a <aaa_flags_clear+0x26>
 8048413:	c6 05 00 21 00 00 01 	movb   $0x1,0x2100
 804841a:	90                   	nop
 804841b:	75 07                	jne    8048424 <aaa_flags_clear+0x30>
 804841d:	c6 05 01 21 00 00 02 	movb   $0x2,0x2101
 8048424:	90                   	nop
 8048425:	79 07                	jns    804842e <aaa_flags_clear+0x3a>
 8048427:	c6 05 02 21 00 00 03 	movb   $0x3,0x2102
 804842e:	90                   	nop
 804842f:	7b 07                	jnp    8048438 <aaa_flags_clear+0x44>
 8048431:	c6 05 03 21 00 00 04 	movb   $0x4,0x2103
 8048438:	90                   	nop
 8048439:	71 07                	jno    8048442 <aaa_flags_clear+0x4e>
 804843b:	c6 05 04 21 00 00 05 	movb   $0x5,0x2104
 8048442:	90                   	nop
 8048443:	c3                   	ret    

08048444 <aaa_flags_clear_constant>:
 8048444:	b8 02 00 00 00       	mov    $0x2,%eax
 8048449:	48                   	dec    %eax
 804844a:	b0 01                	mov    $0x1,%al
 804844c:	b4 02                	mov    $0x2,%ah
 804844e:	37                   	aaa    
 804844f:	a2 00 20 00 00       	mov    %al,0x2000
 8048454:	88 25 04 20 00 00    	mov    %ah,0x2004
 804845a:	73 07                	jae    8048463 <aaa_flags_clear_constant+0x1f>
 804845c:	c6 05 00 21 00 00 01 	movb   $0x1,0x2100
 8048463:	90                   	nop
 8048464:	75 07                	jne    804846d <aaa_flags_clear_constant+0x29>
 8048466:	c6 05 01 21 00 00 02 	movb   $0x2,0x2101
 804846d:	90                   	nop
 804846e:	79 07                	jns    8048477 <aaa_flags_clear_constant+0x33>
 8048470:	c6 05 02 21 00 00 03 	movb   $0x3,0x2102
 8048477:	90                   	nop
 8048478:	7b 07                	jnp    8048481 <aaa_flags_clear_constant+0x3d>
 804847a:	c6 05 03 21 00 00 04 	movb   $0x4,0x2103
 8048481:	90                   	nop
 8048482:	71 07                	jno    804848b <aaa_flags_clear_constant+0x47>
 8048484:	c6 05 04 21 00 00 05 	movb   $0x5,0x2104
 804848b:	90                   	nop
 804848c:	c3                   	ret    

0804848d <aaa_flags_clear_allregs>:
 804848d:	b8 02 00 00 00       	mov    $0x2,%eax
 8048492:	48                   	dec    %eax
 8048493:	a1 00 10 00 00       	mov    0x1000,%eax
 8048498:	8b 1d 04 10 00 00    	mov    0x1004,%ebx
 804849e:	8b 0d 08 10 00 00    	mov    0x1008,%ecx
 80484a4:	8b 15 0c 10 00 00    	mov    0x100c,%edx
 80484aa:	8b 2d 10 10 00 00    	mov    0x1010,%ebp
 80484b0:	8b 35 14 10 00 00    	mov    0x1014,%esi
 80484b6:	8b 3d 18 10 00 00    	mov    0x1018,%edi
 80484bc:	8b 25 1c 10 00 00    	mov    0x101c,%esp
 80484c2:	37                   	aaa    
 80484c3:	a3 00 20 00 00       	mov    %eax,0x2000
 80484c8:	89 1d 04 20 00 00    	mov    %ebx,0x2004
 80484ce:	89 0d 08 20 00 00    	mov    %ecx,0x2008
 80484d4:	89 15 0c 20 00 00    	mov    %edx,0x200c
 80484da:	89 2d 10 20 00 00    	mov    %ebp,0x2010
 80484e0:	89 35 14 20 00 00    	mov    %esi,0x2014
 80484e6:	89 3d 18 20 00 00    	mov    %edi,0x2018
 80484ec:	89 25 1c 20 00 00    	mov    %esp,0x201c
 80484f2:	c3                   	ret    

080484f3 <aaa_flags_set1>:
 80484f3:	b8 00 00 00 00       	mov    $0x0,%eax
 80484f8:	f7 d8                	neg    %eax
 80484fa:	a0 00 10 00 00       	mov    0x1000,%al
 80484ff:	8a 25 04 10 00 00    	mov    0x1004,%ah
 8048505:	37                   	aaa    
 8048506:	a2 00 20 00 00       	mov    %al,0x2000
 804850b:	88 25 04 20 00 00    	mov    %ah,0x2004
 8048511:	73 07                	jae    804851a <aaa_flags_set1+0x27>
 8048513:	c6 05 00 21 00 00 01 	movb   $0x1,0x2100
 804851a:	90                   	nop
 804851b:	75 07                	jne    8048524 <aaa_flags_set1+0x31>
 804851d:	c6 05 01 21 00 00 02 	movb   $0x2,0x2101
 8048524:	90                   	nop
 8048525:	79 07                	jns    804852e <aaa_flags_set1+0x3b>
 8048527:	c6 05 02 21 00 00 03 	movb   $0x3,0x2102
 804852e:	90                   	nop
 804852f:	7b 07                	jnp    8048538 <aaa_flags_set1+0x45>
 8048531:	c6 05 03 21 00 00 04 	movb   $0x4,0x2103
 8048538:	90                   	nop
 8048539:	71 07                	jno    8048542 <aaa_flags_set1+0x4f>
 804853b:	c6 05 04 21 00 00 05 	movb   $0x5,0x2104
 8048542:	90                   	nop
 8048543:	c3                   	ret    

08048544 <aaa_flags_set1_constant>:
 8048544:	b8 00 00 00 00       	mov    $0x0,%eax
 8048549:	f7 d8                	neg    %eax
 804854b:	b0 01                	mov    $0x1,%al
 804854d:	b4 02                	mov    $0x2,%ah
 804854f:	37                   	aaa    
 8048550:	a2 00 20 00 00       	mov    %al,0x2000
 8048555:	88 25 04 20 00 00    	mov    %ah,0x2004
 804855b:	73 07                	jae    8048564 <aaa_flags_set1_constant+0x20>
 804855d:	c6 05 00 21 00 00 01 	movb   $0x1,0x2100
 8048564:	90                   	nop
 8048565:	75 07                	jne    804856e <aaa_flags_set1_constant+0x2a>
 8048567:	c6 05 01 21 00 00 02 	movb   $0x2,0x2101
 804856e:	90                   	nop
 804856f:	79 07                	jns    8048578 <aaa_flags_set1_constant+0x34>
 8048571:	c6 05 02 21 00 00 03 	movb   $0x3,0x2102
 8048578:	90                   	nop
 8048579:	7b 07                	jnp    8048582 <aaa_flags_set1_constant+0x3e>
 804857b:	c6 05 03 21 00 00 04 	movb   $0x4,0x2103
 8048582:	90                   	nop
 8048583:	71 07                	jno    804858c <aaa_flags_set1_constant+0x48>
 8048585:	c6 05 04 21 00 00 05 	movb   $0x5,0x2104
 804858c:	90                   	nop
 804858d:	c3                   	ret    

0804858e <aaa_flags_set1_allregs>:
 804858e:	b8 00 00 00 00       	mov    $0x0,%eax
 8048593:	f7 d8                	neg    %eax
 8048595:	a1 00 10 00 00       	mov    0x1000,%eax
 804859a:	8b 1d 04 10 00 00    	mov    0x1004,%ebx
 80485a0:	8b 0d 08 10 00 00    	mov    0x1008,%ecx
 80485a6:	8b 15 0c 10 00 00    	mov    0x100c,%edx
 80485ac:	8b 2d 10 10 00 00    	mov    0x1010,%ebp
 80485b2:	8b 35 14 10 00 00    	mov    0x1014,%esi
 80485b8:	8b 3d 18 10 00 00    	mov    0x1018,%edi
 80485be:	8b 25 1c 10 00 00    	mov    0x101c,%esp
 80485c4:	37                   	aaa    
 80485c5:	a3 00 20 00 00       	mov    %eax,0x2000
 80485ca:	89 1d 04 20 00 00    	mov    %ebx,0x2004
 80485d0:	89 0d 08 20 00 00    	mov    %ecx,0x2008
 80485d6:	89 15 0c 20 00 00    	mov    %edx,0x200c
 80485dc:	89 2d 10 20 00 00    	mov    %ebp,0x2010
 80485e2:	89 35 14 20 00 00    	mov    %esi,0x2014
 80485e8:	89 3d 18 20 00 00    	mov    %edi,0x2018
 80485ee:	89 25 1c 20 00 00    	mov    %esp,0x201c
 80485f4:	c3                   	ret    

080485f5 <aaa_flags_set2>:
 80485f5:	b8 02 00 00 00       	mov    $0x2,%eax
 80485fa:	f7 d8                	neg    %eax
 80485fc:	a0 00 10 00 00       	mov    0x1000,%al
 8048601:	8a 25 04 10 00 00    	mov    0x1004,%ah
 8048607:	37                   	aaa    
 8048608:	a2 00 20 00 00       	mov    %al,0x2000
 804860d:	88 25 04 20 00 00    	mov    %ah,0x2004
 8048613:	73 07                	jae    804861c <aaa_flags_set2+0x27>
 8048615:	c6 05 00 21 00 00 01 	movb   $0x1,0x2100
 804861c:	90                   	nop
 804861d:	75 07                	jne    8048626 <aaa_flags_set2+0x31>
 804861f:	c6 05 01 21 00 00 02 	movb   $0x2,0x2101
 8048626:	90                   	nop
 8048627:	79 07                	jns    8048630 <aaa_flags_set2+0x3b>
 8048629:	c6 05 02 21 00 00 03 	movb   $0x3,0x2102
 8048630:	90                   	nop
 8048631:	7b 07                	jnp    804863a <aaa_flags_set2+0x45>
 8048633:	c6 05 03 21 00 00 04 	movb   $0x4,0x2103
 804863a:	90                   	nop
 804863b:	71 07                	jno    8048644 <aaa_flags_set2+0x4f>
 804863d:	c6 05 04 21 00 00 05 	movb   $0x5,0x2104
 8048644:	90                   	nop
 8048645:	c3                   	ret    

08048646 <aaa_flags_set2_constant>:
 8048646:	b8 02 00 00 00       	mov    $0x2,%eax
 804864b:	f7 d8                	neg    %eax
 804864d:	b0 01                	mov    $0x1,%al
 804864f:	b4 02                	mov    $0x2,%ah
 8048651:	37                   	aaa    
 8048652:	a2 00 20 00 00       	mov    %al,0x2000
 8048657:	88 25 04 20 00 00    	mov    %ah,0x2004
 804865d:	73 07                	jae    8048666 <aaa_flags_set2_constant+0x20>
 804865f:	c6 05 00 21 00 00 01 	movb   $0x1,0x2100
 8048666:	90                   	nop
 8048667:	75 07                	jne    8048670 <aaa_flags_set2_constant+0x2a>
 8048669:	c6 05 01 21 00 00 02 	movb   $0x2,0x2101
 8048670:	90                   	nop
 8048671:	79 07                	jns    804867a <aaa_flags_set2_constant+0x34>
 8048673:	c6 05 02 21 00 00 03 	movb   $0x3,0x2102
 804867a:	90                   	nop
 804867b:	7b 07                	jnp    8048684 <aaa_flags_set2_constant+0x3e>
 804867d:	c6 05 03 21 00 00 04 	movb   $0x4,0x2103
 8048684:	90                   	nop
 8048685:	71 07                	jno    804868e <aaa_flags_set2_constant+0x48>
 8048687:	c6 05 04 21 00 00 05 	movb   $0x5,0x2104
 804868e:	90                   	nop
 804868f:	c3                   	ret    

08048690 <aaa_flags_set2_allregs>:
 8048690:	b8 02 00 00 00       	mov    $0x2,%eax
 8048695:	f7 d8                	neg    %eax
 8048697:	a1 00 10 00 00       	mov    0x1000,%eax
 804869c:	8b 1d 04 10 00 00    	mov    0x1004,%ebx
 80486a2:	8b 0d 08 10 00 00    	mov    0x1008,%ecx
 80486a8:	8b 15 0c 10 00 00    	mov    0x100c,%edx
 80486ae:	8b 2d 10 10 00 00    	mov    0x1010,%ebp
 80486b4:	8b 35 14 10 00 00    	mov    0x1014,%esi
 80486ba:	8b 3d 18 10 00 00    	mov    0x1018,%edi
 80486c0:	8b 25 1c 10 00 00    	mov    0x101c,%esp
 80486c6:	37                   	aaa    
 80486c7:	a3 00 20 00 00       	mov    %eax,0x2000
 80486cc:	89 1d 04 20 00 00    	mov    %ebx,0x2004
 80486d2:	89 0d 08 20 00 00    	mov    %ecx,0x2008
 80486d8:	89 15 0c 20 00 00    	mov    %edx,0x200c
 80486de:	89 2d 10 20 00 00    	mov    %ebp,0x2010
 80486e4:	89 35 14 20 00 00    	mov    %esi,0x2014
 80486ea:	89 3d 18 20 00 00    	mov    %edi,0x2018
 80486f0:	89 25 1c 20 00 00    	mov    %esp,0x201c
 80486f6:	c3                   	ret    

080486f7 <aaa_flags_cmp>:
 80486f7:	a1 00 11 00 00       	mov    0x1100,%eax
 80486fc:	8b 1d 04 11 00 00    	mov    0x1104,%ebx
 8048702:	39 c3                	cmp    %eax,%ebx
 8048704:	a0 00 10 00 00       	mov    0x1000,%al
 8048709:	8a 25 04 10 00 00    	mov    0x1004,%ah
 804870f:	37                   	aaa    
 8048710:	a2 00 20 00 00       	mov    %al,0x2000
 8048715:	88 25 04 20 00 00    	mov    %ah,0x2004
 804871b:	73 07                	jae    8048724 <aaa_flags_cmp+0x2d>
 804871d:	c6 05 00 21 00 00 01 	movb   $0x1,0x2100
 8048724:	90                   	nop
 8048725:	75 07                	jne    804872e <aaa_flags_cmp+0x37>
 8048727:	c6 05 01 21 00 00 02 	movb   $0x2,0x2101
 804872e:	90                   	nop
 804872f:	79 07                	jns    8048738 <aaa_flags_cmp+0x41>
 8048731:	c6 05 02 21 00 00 03 	movb   $0x3,0x2102
 8048738:	90                   	nop
 8048739:	7b 07                	jnp    8048742 <aaa_flags_cmp+0x4b>
 804873b:	c6 05 03 21 00 00 04 	movb   $0x4,0x2103
 8048742:	90                   	nop
 8048743:	71 07                	jno    804874c <aaa_flags_cmp+0x55>
 8048745:	c6 05 04 21 00 00 05 	movb   $0x5,0x2104
 804874c:	90                   	nop
 804874d:	c3                   	ret    

0804874e <aaa_flags_cmp_constant>:
 804874e:	a1 00 11 00 00       	mov    0x1100,%eax
 8048753:	8b 1d 04 11 00 00    	mov    0x1104,%ebx
 8048759:	39 c3                	cmp    %eax,%ebx
 804875b:	b0 01                	mov    $0x1,%al
 804875d:	b4 02                	mov    $0x2,%ah
 804875f:	37                   	aaa    
 8048760:	a2 00 20 00 00       	mov    %al,0x2000
 8048765:	88 25 04 20 00 00    	mov    %ah,0x2004
 804876b:	73 07                	jae    8048774 <aaa_flags_cmp_constant+0x26>
 804876d:	c6 05 00 21 00 00 01 	movb   $0x1,0x2100
 8048774:	90                   	nop
 8048775:	75 07                	jne    804877e <aaa_flags_cmp_constant+0x30>
 8048777:	c6 05 01 21 00 00 02 	movb   $0x2,0x2101
 804877e:	90                   	nop
 804877f:	79 07                	jns    8048788 <aaa_flags_cmp_constant+0x3a>
 8048781:	c6 05 02 21 00 00 03 	movb   $0x3,0x2102
 8048788:	90                   	nop
 8048789:	7b 07                	jnp    8048792 <aaa_flags_cmp_constant+0x44>
 804878b:	c6 05 03 21 00 00 04 	movb   $0x4,0x2103
 8048792:	90                   	nop
 8048793:	71 07                	jno    804879c <aaa_flags_cmp_constant+0x4e>
 8048795:	c6 05 04 21 00 00 05 	movb   $0x5,0x2104
 804879c:	90                   	nop
 804879d:	c3                   	ret    

0804879e <aaa_flags_cmp_allregs>:
 804879e:	a1 00 11 00 00       	mov    0x1100,%eax
 80487a3:	8b 1d 04 11 00 00    	mov    0x1104,%ebx
 80487a9:	39 c3                	cmp    %eax,%ebx
 80487ab:	a1 00 10 00 00       	mov    0x1000,%eax
 80487b0:	8b 1d 04 10 00 00    	mov    0x1004,%ebx
 80487b6:	8b 0d 08 10 00 00    	mov    0x1008,%ecx
 80487bc:	8b 15 0c 10 00 00    	mov    0x100c,%edx
 80487c2:	8b 2d 10 10 00 00    	mov    0x1010,%ebp
 80487c8:	8b 35 14 10 00 00    	mov    0x1014,%esi
 80487ce:	8b 3d 18 10 00 00    	mov    0x1018,%edi
 80487d4:	8b 25 1c 10 00 00    	mov    0x101c,%esp
 80487da:	37                   	aaa    
 80487db:	a3 00 20 00 00       	mov    %eax,0x2000
 80487e0:	89 1d 04 20 00 00    	mov    %ebx,0x2004
 80487e6:	89 0d 08 20 00 00    	mov    %ecx,0x2008
 80487ec:	89 15 0c 20 00 00    	mov    %edx,0x200c
 80487f2:	89 2d 10 20 00 00    	mov    %ebp,0x2010
 80487f8:	89 35 14 20 00 00    	mov    %esi,0x2014
 80487fe:	89 3d 18 20 00 00    	mov    %edi,0x2018
 8048804:	89 25 1c 20 00 00    	mov    %esp,0x201c
 804880a:	c3                   	ret    

0804880b <aad1>:
 804880b:	a0 00 10 00 00       	mov    0x1000,%al
 8048810:	8a 25 04 10 00 00    	mov    0x1004,%ah
 8048816:	d5 0a                	aad    $0xa
 8048818:	a2 00 20 00 00       	mov    %al,0x2000
 804881d:	88 25 04 20 00 00    	mov    %ah,0x2004
 8048823:	73 07                	jae    804882c <aad1+0x21>
 8048825:	c6 05 00 21 00 00 01 	movb   $0x1,0x2100
 804882c:	90                   	nop
 804882d:	75 07                	jne    8048836 <aad1+0x2b>
 804882f:	c6 05 01 21 00 00 02 	movb   $0x2,0x2101
 8048836:	90                   	nop
 8048837:	79 07                	jns    8048840 <aad1+0x35>
 8048839:	c6 05 02 21 00 00 03 	movb   $0x3,0x2102
 8048840:	90                   	nop
 8048841:	7b 07                	jnp    804884a <aad1+0x3f>
 8048843:	c6 05 03 21 00 00 04 	movb   $0x4,0x2103
 804884a:	90                   	nop
 804884b:	71 07                	jno    8048854 <aad1+0x49>
 804884d:	c6 05 04 21 00 00 05 	movb   $0x5,0x2104
 8048854:	90                   	nop
 8048855:	c3                   	ret    

08048856 <aad1_constant>:
 8048856:	b0 01                	mov    $0x1,%al
 8048858:	b4 02                	mov    $0x2,%ah
 804885a:	d5 0a                	aad    $0xa
 804885c:	a2 00 20 00 00       	mov    %al,0x2000
 8048861:	88 25 04 20 00 00    	mov    %ah,0x2004
 8048867:	73 07                	jae    8048870 <aad1_constant+0x1a>
 8048869:	c6 05 00 21 00 00 01 	movb   $0x1,0x2100
 8048870:	90                   	nop
 8048871:	75 07                	jne    804887a <aad1_constant+0x24>
 8048873:	c6 05 01 21 00 00 02 	movb   $0x2,0x2101
 804887a:	90                   	nop
 804887b:	79 07                	jns    8048884 <aad1_constant+0x2e>
 804887d:	c6 05 02 21 00 00 03 	movb   $0x3,0x2102
 8048884:	90                   	nop
 8048885:	7b 07                	jnp    804888e <aad1_constant+0x38>
 8048887:	c6 05 03 21 00 00 04 	movb   $0x4,0x2103
 804888e:	90                   	nop
 804888f:	71 07                	jno    8048898 <aad1_constant+0x42>
 8048891:	c6 05 04 21 00 00 05 	movb   $0x5,0x2104
 8048898:	90                   	nop
 8048899:	c3                   	ret    

0804889a <aad1_allregs>:
 804889a:	a1 00 10 00 00       	mov    0x1000,%eax
 804889f:	8b 1d 04 10 00 00    	mov    0x1004,%ebx
 80488a5:	8b 0d 08 10 00 00    	mov    0x1008,%ecx
 80488ab:	8b 15 0c 10 00 00    	mov    0x100c,%edx
 80488b1:	8b 2d 10 10 00 00    	mov    0x1010,%ebp
 80488b7:	8b 35 14 10 00 00    	mov    0x1014,%esi
 80488bd:	8b 3d 18 10 00 00    	mov    0x1018,%edi
 80488c3:	8b 25 1c 10 00 00    	mov    0x101c,%esp
 80488c9:	d5 0a                	aad    $0xa
 80488cb:	a3 00 20 00 00       	mov    %eax,0x2000
 80488d0:	89 1d 04 20 00 00    	mov    %ebx,0x2004
 80488d6:	89 0d 08 20 00 00    	mov    %ecx,0x2008
 80488dc:	89 15 0c 20 00 00    	mov    %edx,0x200c
 80488e2:	89 2d 10 20 00 00    	mov    %ebp,0x2010
 80488e8:	89 35 14 20 00 00    	mov    %esi,0x2014
 80488ee:	89 3d 18 20 00 00    	mov    %edi,0x2018
 80488f4:	89 25 1c 20 00 00    	mov    %esp,0x201c
 80488fa:	c3                   	ret    

080488fb <aad2>:
 80488fb:	a0 00 10 00 00       	mov    0x1000,%al
 8048900:	8a 25 04 10 00 00    	mov    0x1004,%ah
 8048906:	d5 0f                	aad    $0xf
 8048908:	a2 00 20 00 00       	mov    %al,0x2000
 804890d:	88 25 04 20 00 00    	mov    %ah,0x2004
 8048913:	73 07                	jae    804891c <aad2+0x21>
 8048915:	c6 05 00 21 00 00 01 	movb   $0x1,0x2100
 804891c:	90                   	nop
 804891d:	75 07                	jne    8048926 <aad2+0x2b>
 804891f:	c6 05 01 21 00 00 02 	movb   $0x2,0x2101
 8048926:	90                   	nop
 8048927:	79 07                	jns    8048930 <aad2+0x35>
 8048929:	c6 05 02 21 00 00 03 	movb   $0x3,0x2102
 8048930:	90                   	nop
 8048931:	7b 07                	jnp    804893a <aad2+0x3f>
 8048933:	c6 05 03 21 00 00 04 	movb   $0x4,0x2103
 804893a:	90                   	nop
 804893b:	71 07                	jno    8048944 <aad2+0x49>
 804893d:	c6 05 04 21 00 00 05 	movb   $0x5,0x2104
 8048944:	90                   	nop
 8048945:	c3                   	ret    

08048946 <aad2_constant>:
 8048946:	b0 01                	mov    $0x1,%al
 8048948:	b4 02                	mov    $0x2,%ah
 804894a:	d5 0f                	aad    $0xf
 804894c:	a2 00 20 00 00       	mov    %al,0x2000
 8048951:	88 25 04 20 00 00    	mov    %ah,0x2004
 8048957:	73 07                	jae    8048960 <aad2_constant+0x1a>
 8048959:	c6 05 00 21 00 00 01 	movb   $0x1,0x2100
 8048960:	90                   	nop
 8048961:	75 07                	jne    804896a <aad2_constant+0x24>
 8048963:	c6 05 01 21 00 00 02 	movb   $0x2,0x2101
 804896a:	90                   	nop
 804896b:	79 07                	jns    8048974 <aad2_constant+0x2e>
 804896d:	c6 05 02 21 00 00 03 	movb   $0x3,0x2102
 8048974:	90                   	nop
 8048975:	7b 07                	jnp    804897e <aad2_constant+0x38>
 8048977:	c6 05 03 21 00 00 04 	movb   $0x4,0x2103
 804897e:	90                   	nop
 804897f:	71 07                	jno    8048988 <aad2_constant+0x42>
 8048981:	c6 05 04 21 00 00 05 	movb   $0x5,0x2104
 8048988:	90                   	nop
 8048989:	c3                   	ret    

0804898a <aad2_allregs>:
 804898a:	a1 00 10 00 00       	mov    0x1000,%eax
 804898f:	8b 1d 04 10 00 00    	mov    0x1004,%ebx
 8048995:	8b 0d 08 10 00 00    	mov    0x1008,%ecx
 804899b:	8b 15 0c 10 00 00    	mov    0x100c,%edx
 80489a1:	8b 2d 10 10 00 00    	mov    0x1010,%ebp
 80489a7:	8b 35 14 10 00 00    	mov    0x1014,%esi
 80489ad:	8b 3d 18 10 00 00    	mov    0x1018,%edi
 80489b3:	8b 25 1c 10 00 00    	mov    0x101c,%esp
 80489b9:	d5 0f                	aad    $0xf
 80489bb:	a3 00 20 00 00       	mov    %eax,0x2000
 80489c0:	89 1d 04 20 00 00    	mov    %ebx,0x2004
 80489c6:	89 0d 08 20 00 00    	mov    %ecx,0x2008
 80489cc:	89 15 0c 20 00 00    	mov    %edx,0x200c
 80489d2:	89 2d 10 20 00 00    	mov    %ebp,0x2010
 80489d8:	89 35 14 20 00 00    	mov    %esi,0x2014
 80489de:	89 3d 18 20 00 00    	mov    %edi,0x2018
 80489e4:	89 25 1c 20 00 00    	mov    %esp,0x201c
 80489ea:	c3                   	ret    

080489eb <aam1>:
 80489eb:	a0 00 10 00 00       	mov    0x1000,%al
 80489f0:	d4 0a                	aam    $0xa
 80489f2:	a2 00 20 00 00       	mov    %al,0x2000
 80489f7:	88 25 04 20 00 00    	mov    %ah,0x2004
 80489fd:	73 07                	jae    8048a06 <aam1+0x1b>
 80489ff:	c6 05 00 21 00 00 01 	movb   $0x1,0x2100
 8048a06:	90                   	nop
 8048a07:	75 07                	jne    8048a10 <aam1+0x25>
 8048a09:	c6 05 01 21 00 00 02 	movb   $0x2,0x2101
 8048a10:	90                   	nop
 8048a11:	79 07                	jns    8048a1a <aam1+0x2f>
 8048a13:	c6 05 02 21 00 00 03 	movb   $0x3,0x2102
 8048a1a:	90                   	nop
 8048a1b:	7b 07                	jnp    8048a24 <aam1+0x39>
 8048a1d:	c6 05 03 21 00 00 04 	movb   $0x4,0x2103
 8048a24:	90                   	nop
 8048a25:	71 07                	jno    8048a2e <aam1+0x43>
 8048a27:	c6 05 04 21 00 00 05 	movb   $0x5,0x2104
 8048a2e:	90                   	nop
 8048a2f:	c3                   	ret    

08048a30 <aam1_constant>:
 8048a30:	b0 01                	mov    $0x1,%al
 8048a32:	d4 0a                	aam    $0xa
 8048a34:	a2 00 20 00 00       	mov    %al,0x2000
 8048a39:	88 25 04 20 00 00    	mov    %ah,0x2004
 8048a3f:	73 07                	jae    8048a48 <aam1_constant+0x18>
 8048a41:	c6 05 00 21 00 00 01 	movb   $0x1,0x2100
 8048a48:	90                   	nop
 8048a49:	75 07                	jne    8048a52 <aam1_constant+0x22>
 8048a4b:	c6 05 01 21 00 00 02 	movb   $0x2,0x2101
 8048a52:	90                   	nop
 8048a53:	79 07                	jns    8048a5c <aam1_constant+0x2c>
 8048a55:	c6 05 02 21 00 00 03 	movb   $0x3,0x2102
 8048a5c:	90                   	nop
 8048a5d:	7b 07                	jnp    8048a66 <aam1_constant+0x36>
 8048a5f:	c6 05 03 21 00 00 04 	movb   $0x4,0x2103
 8048a66:	90                   	nop
 8048a67:	71 07                	jno    8048a70 <aam1_constant+0x40>
 8048a69:	c6 05 04 21 00 00 05 	movb   $0x5,0x2104
 8048a70:	90                   	nop
 8048a71:	c3                   	ret    

08048a72 <aam1_allregs>:
 8048a72:	a1 00 10 00 00       	mov    0x1000,%eax
 8048a77:	8b 1d 04 10 00 00    	mov    0x1004,%ebx
 8048a7d:	8b 0d 08 10 00 00    	mov    0x1008,%ecx
 8048a83:	8b 15 0c 10 00 00    	mov    0x100c,%edx
 8048a89:	8b 2d 10 10 00 00    	mov    0x1010,%ebp
 8048a8f:	8b 35 14 10 00 00    	mov    0x1014,%esi
 8048a95:	8b 3d 18 10 00 00    	mov    0x1018,%edi
 8048a9b:	8b 25 1c 10 00 00    	mov    0x101c,%esp
 8048aa1:	d4 0a                	aam    $0xa
 8048aa3:	a3 00 20 00 00       	mov    %eax,0x2000
 8048aa8:	89 1d 04 20 00 00    	mov    %ebx,0x2004
 8048aae:	89 0d 08 20 00 00    	mov    %ecx,0x2008
 8048ab4:	89 15 0c 20 00 00    	mov    %edx,0x200c
 8048aba:	89 2d 10 20 00 00    	mov    %ebp,0x2010
 8048ac0:	89 35 14 20 00 00    	mov    %esi,0x2014
 8048ac6:	89 3d 18 20 00 00    	mov    %edi,0x2018
 8048acc:	89 25 1c 20 00 00    	mov    %esp,0x201c
 8048ad2:	c3                   	ret    

08048ad3 <aam2>:
 8048ad3:	a0 00 10 00 00       	mov    0x1000,%al
 8048ad8:	d4 0f                	aam    $0xf
 8048ada:	a2 00 20 00 00       	mov    %al,0x2000
 8048adf:	88 25 04 20 00 00    	mov    %ah,0x2004
 8048ae5:	73 07                	jae    8048aee <aam2+0x1b>
 8048ae7:	c6 05 00 21 00 00 01 	movb   $0x1,0x2100
 8048aee:	90                   	nop
 8048aef:	75 07                	jne    8048af8 <aam2+0x25>
 8048af1:	c6 05 01 21 00 00 02 	movb   $0x2,0x2101
 8048af8:	90                   	nop
 8048af9:	79 07                	jns    8048b02 <aam2+0x2f>
 8048afb:	c6 05 02 21 00 00 03 	movb   $0x3,0x2102
 8048b02:	90                   	nop
 8048b03:	7b 07                	jnp    8048b0c <aam2+0x39>
 8048b05:	c6 05 03 21 00 00 04 	movb   $0x4,0x2103
 8048b0c:	90                   	nop
 8048b0d:	71 07                	jno    8048b16 <aam2+0x43>
 8048b0f:	c6 05 04 21 00 00 05 	movb   $0x5,0x2104
 8048b16:	90                   	nop
 8048b17:	c3                   	ret    

08048b18 <aam2_constant>:
 8048b18:	b0 01                	mov    $0x1,%al
 8048b1a:	d4 0f                	aam    $0xf
 8048b1c:	a2 00 20 00 00       	mov    %al,0x2000
 8048b21:	88 25 04 20 00 00    	mov    %ah,0x2004
 8048b27:	73 07                	jae    8048b30 <aam2_constant+0x18>
 8048b29:	c6 05 00 21 00 00 01 	movb   $0x1,0x2100
 8048b30:	90                   	nop
 8048b31:	75 07                	jne    8048b3a <aam2_constant+0x22>
 8048b33:	c6 05 01 21 00 00 02 	movb   $0x2,0x2101
 8048b3a:	90                   	nop
 8048b3b:	79 07                	jns    8048b44 <aam2_constant+0x2c>
 8048b3d:	c6 05 02 21 00 00 03 	movb   $0x3,0x2102
 8048b44:	90                   	nop
 8048b45:	7b 07                	jnp    8048b4e <aam2_constant+0x36>
 8048b47:	c6 05 03 21 00 00 04 	movb   $0x4,0x2103
 8048b4e:	90                   	nop
 8048b4f:	71 07                	jno    8048b58 <aam2_constant+0x40>
 8048b51:	c6 05 04 21 00 00 05 	movb   $0x5,0x2104
 8048b58:	90                   	nop
 8048b59:	c3                   	ret    

08048b5a <aam2_allregs>:
 8048b5a:	a1 00 10 00 00       	mov    0x1000,%eax
 8048b5f:	8b 1d 04 10 00 00    	mov    0x1004,%ebx
 8048b65:	8b 0d 08 10 00 00    	mov    0x1008,%ecx
 8048b6b:	8b 15 0c 10 00 00    	mov    0x100c,%edx
 8048b71:	8b 2d 10 10 00 00    	mov    0x1010,%ebp
 8048b77:	8b 35 14 10 00 00    	mov    0x1014,%esi
 8048b7d:	8b 3d 18 10 00 00    	mov    0x1018,%edi
 8048b83:	8b 25 1c 10 00 00    	mov    0x101c,%esp
 8048b89:	d4 0f                	aam    $0xf
 8048b8b:	a3 00 20 00 00       	mov    %eax,0x2000
 8048b90:	89 1d 04 20 00 00    	mov    %ebx,0x2004
 8048b96:	89 0d 08 20 00 00    	mov    %ecx,0x2008
 8048b9c:	89 15 0c 20 00 00    	mov    %edx,0x200c
 8048ba2:	89 2d 10 20 00 00    	mov    %ebp,0x2010
 8048ba8:	89 35 14 20 00 00    	mov    %esi,0x2014
 8048bae:	89 3d 18 20 00 00    	mov    %edi,0x2018
 8048bb4:	89 25 1c 20 00 00    	mov    %esp,0x201c
 8048bba:	c3                   	ret    

08048bbb <aas_flags_clear>:
 8048bbb:	b8 02 00 00 00       	mov    $0x2,%eax
 8048bc0:	48                   	dec    %eax
 8048bc1:	a0 00 10 00 00       	mov    0x1000,%al
 8048bc6:	8a 25 04 10 00 00    	mov    0x1004,%ah
 8048bcc:	3f                   	aas    
 8048bcd:	a2 00 20 00 00       	mov    %al,0x2000
 8048bd2:	88 25 04 20 00 00    	mov    %ah,0x2004
 8048bd8:	73 07                	jae    8048be1 <aas_flags_clear+0x26>
 8048bda:	c6 05 00 21 00 00 01 	movb   $0x1,0x2100
 8048be1:	90                   	nop
 8048be2:	75 07                	jne    8048beb <aas_flags_clear+0x30>
 8048be4:	c6 05 01 21 00 00 02 	movb   $0x2,0x2101
 8048beb:	90                   	nop
 8048bec:	79 07                	jns    8048bf5 <aas_flags_clear+0x3a>
 8048bee:	c6 05 02 21 00 00 03 	movb   $0x3,0x2102
 8048bf5:	90                   	nop
 8048bf6:	7b 07                	jnp    8048bff <aas_flags_clear+0x44>
 8048bf8:	c6 05 03 21 00 00 04 	movb   $0x4,0x2103
 8048bff:	90                   	nop
 8048c00:	71 07                	jno    8048c09 <aas_flags_clear+0x4e>
 8048c02:	c6 05 04 21 00 00 05 	movb   $0x5,0x2104
 8048c09:	90                   	nop
 8048c0a:	c3                   	ret    

08048c0b <aas_flags_clear_constant>:
 8048c0b:	b8 02 00 00 00       	mov    $0x2,%eax
 8048c10:	48                   	dec    %eax
 8048c11:	b0 01                	mov    $0x1,%al
 8048c13:	b4 02                	mov    $0x2,%ah
 8048c15:	3f                   	aas    
 8048c16:	a2 00 20 00 00       	mov    %al,0x2000
 8048c1b:	88 25 04 20 00 00    	mov    %ah,0x2004
 8048c21:	73 07                	jae    8048c2a <aas_flags_clear_constant+0x1f>
 8048c23:	c6 05 00 21 00 00 01 	movb   $0x1,0x2100
 8048c2a:	90                   	nop
 8048c2b:	75 07                	jne    8048c34 <aas_flags_clear_constant+0x29>
 8048c2d:	c6 05 01 21 00 00 02 	movb   $0x2,0x2101
 8048c34:	90                   	nop
 8048c35:	79 07                	jns    8048c3e <aas_flags_clear_constant+0x33>
 8048c37:	c6 05 02 21 00 00 03 	movb   $0x3,0x2102
 8048c3e:	90                   	nop
 8048c3f:	7b 07                	jnp    8048c48 <aas_flags_clear_constant+0x3d>
 8048c41:	c6 05 03 21 00 00 04 	movb   $0x4,0x2103
 8048c48:	90                   	nop
 8048c49:	71 07                	jno    8048c52 <aas_flags_clear_constant+0x47>
 8048c4b:	c6 05 04 21 00 00 05 	movb   $0x5,0x2104
 8048c52:	90                   	nop
 8048c53:	c3                   	ret    

08048c54 <aas_flags_clear_allregs>:
 8048c54:	b8 02 00 00 00       	mov    $0x2,%eax
 8048c59:	48                   	dec    %eax
 8048c5a:	a1 00 10 00 00       	mov    0x1000,%eax
 8048c5f:	8b 1d 04 10 00 00    	mov    0x1004,%ebx
 8048c65:	8b 0d 08 10 00 00    	mov    0x1008,%ecx
 8048c6b:	8b 15 0c 10 00 00    	mov    0x100c,%edx
 8048c71:	8b 2d 10 10 00 00    	mov    0x1010,%ebp
 8048c77:	8b 35 14 10 00 00    	mov    0x1014,%esi
 8048c7d:	8b 3d 18 10 00 00    	mov    0x1018,%edi
 8048c83:	8b 25 1c 10 00 00    	mov    0x101c,%esp
 8048c89:	3f                   	aas    
 8048c8a:	a3 00 20 00 00       	mov    %eax,0x2000
 8048c8f:	89 1d 04 20 00 00    	mov    %ebx,0x2004
 8048c95:	89 0d 08 20 00 00    	mov    %ecx,0x2008
 8048c9b:	89 15 0c 20 00 00    	mov    %edx,0x200c
 8048ca1:	89 2d 10 20 00 00    	mov    %ebp,0x2010
 8048ca7:	89 35 14 20 00 00    	mov    %esi,0x2014
 8048cad:	89 3d 18 20 00 00    	mov    %edi,0x2018
 8048cb3:	89 25 1c 20 00 00    	mov    %esp,0x201c
 8048cb9:	c3                   	ret    

08048cba <aas_flags_set1>:
 8048cba:	b8 00 00 00 00       	mov    $0x0,%eax
 8048cbf:	f7 d8                	neg    %eax
 8048cc1:	a0 00 10 00 00       	mov    0x1000,%al
 8048cc6:	8a 25 04 10 00 00    	mov    0x1004,%ah
 8048ccc:	3f                   	aas    
 8048ccd:	a2 00 20 00 00       	mov    %al,0x2000
 8048cd2:	88 25 04 20 00 00    	mov    %ah,0x2004
 8048cd8:	73 07                	jae    8048ce1 <aas_flags_set1+0x27>
 8048cda:	c6 05 00 21 00 00 01 	movb   $0x1,0x2100
 8048ce1:	90                   	nop
 8048ce2:	75 07                	jne    8048ceb <aas_flags_set1+0x31>
 8048ce4:	c6 05 01 21 00 00 02 	movb   $0x2,0x2101
 8048ceb:	90                   	nop
 8048cec:	79 07                	jns    8048cf5 <aas_flags_set1+0x3b>
 8048cee:	c6 05 02 21 00 00 03 	movb   $0x3,0x2102
 8048cf5:	90                   	nop
 8048cf6:	7b 07                	jnp    8048cff <aas_flags_set1+0x45>
 8048cf8:	c6 05 03 21 00 00 04 	movb   $0x4,0x2103
 8048cff:	90                   	nop
 8048d00:	71 07                	jno    8048d09 <aas_flags_set1+0x4f>
 8048d02:	c6 05 04 21 00 00 05 	movb   $0x5,0x2104
 8048d09:	90                   	nop
 8048d0a:	c3                   	ret    

08048d0b <aas_flags_set1_constant>:
 8048d0b:	b8 00 00 00 00       	mov    $0x0,%eax
 8048d10:	f7 d8                	neg    %eax
 8048d12:	b0 01                	mov    $0x1,%al
 8048d14:	b4 02                	mov    $0x2,%ah
 8048d16:	3f                   	aas    
 8048d17:	a2 00 20 00 00       	mov    %al,0x2000
 8048d1c:	88 25 04 20 00 00    	mov    %ah,0x2004
 8048d22:	73 07                	jae    8048d2b <aas_flags_set1_constant+0x20>
 8048d24:	c6 05 00 21 00 00 01 	movb   $0x1,0x2100
 8048d2b:	90                   	nop
 8048d2c:	75 07                	jne    8048d35 <aas_flags_set1_constant+0x2a>
 8048d2e:	c6 05 01 21 00 00 02 	movb   $0x2,0x2101
 8048d35:	90                   	nop
 8048d36:	79 07                	jns    8048d3f <aas_flags_set1_constant+0x34>
 8048d38:	c6 05 02 21 00 00 03 	movb   $0x3,0x2102
 8048d3f:	90                   	nop
 8048d40:	7b 07                	jnp    8048d49 <aas_flags_set1_constant+0x3e>
 8048d42:	c6 05 03 21 00 00 04 	movb   $0x4,0x2103
 8048d49:	90                   	nop
 8048d4a:	71 07                	jno    8048d53 <aas_flags_set1_constant+0x48>
 8048d4c:	c6 05 04 21 00 00 05 	movb   $0x5,0x2104
 8048d53:	90                   	nop
 8048d54:	c3                   	ret    

08048d55 <aas_flags_set1_allregs>:
 8048d55:	b8 00 00 00 00       	mov    $0x0,%eax
 8048d5a:	f7 d8                	neg    %eax
 8048d5c:	a1 00 10 00 00       	mov    0x1000,%eax
 8048d61:	8b 1d 04 10 00 00    	mov    0x1004,%ebx
 8048d67:	8b 0d 08 10 00 00    	mov    0x1008,%ecx
 8048d6d:	8b 15 0c 10 00 00    	mov    0x100c,%edx
 8048d73:	8b 2d 10 10 00 00    	mov    0x1010,%ebp
 8048d79:	8b 35 14 10 00 00    	mov    0x1014,%esi
 8048d7f:	8b 3d 18 10 00 00    	mov    0x1018,%edi
 8048d85:	8b 25 1c 10 00 00    	mov    0x101c,%esp
 8048d8b:	3f                   	aas    
 8048d8c:	a3 00 20 00 00       	mov    %eax,0x2000
 8048d91:	89 1d 04 20 00 00    	mov    %ebx,0x2004
 8048d97:	89 0d 08 20 00 00    	mov    %ecx,0x2008
 8048d9d:	89 15 0c 20 00 00    	mov    %edx,0x200c
 8048da3:	89 2d 10 20 00 00    	mov    %ebp,0x2010
 8048da9:	89 35 14 20 00 00    	mov    %esi,0x2014
 8048daf:	89 3d 18 20 00 00    	mov    %edi,0x2018
 8048db5:	89 25 1c 20 00 00    	mov    %esp,0x201c
 8048dbb:	c3                   	ret    

08048dbc <aas_flags_set2>:
 8048dbc:	b8 02 00 00 00       	mov    $0x2,%eax
 8048dc1:	f7 d8                	neg    %eax
 8048dc3:	a0 00 10 00 00       	mov    0x1000,%al
 8048dc8:	8a 25 04 10 00 00    	mov    0x1004,%ah
 8048dce:	3f                   	aas    
 8048dcf:	a2 00 20 00 00       	mov    %al,0x2000
 8048dd4:	88 25 04 20 00 00    	mov    %ah,0x2004
 8048dda:	73 07                	jae    8048de3 <aas_flags_set2+0x27>
 8048ddc:	c6 05 00 21 00 00 01 	movb   $0x1,0x2100
 8048de3:	90                   	nop
 8048de4:	75 07                	jne    8048ded <aas_flags_set2+0x31>
 8048de6:	c6 05 01 21 00 00 02 	movb   $0x2,0x2101
 8048ded:	90                   	nop
 8048dee:	79 07                	jns    8048df7 <aas_flags_set2+0x3b>
 8048df0:	c6 05 02 21 00 00 03 	movb   $0x3,0x2102
 8048df7:	90                   	nop
 8048df8:	7b 07                	jnp    8048e01 <aas_flags_set2+0x45>
 8048dfa:	c6 05 03 21 00 00 04 	movb   $0x4,0x2103
 8048e01:	90                   	nop
 8048e02:	71 07                	jno    8048e0b <aas_flags_set2+0x4f>
 8048e04:	c6 05 04 21 00 00 05 	movb   $0x5,0x2104
 8048e0b:	90                   	nop
 8048e0c:	c3                   	ret    

08048e0d <aas_flags_set2_constant>:
 8048e0d:	b8 02 00 00 00       	mov    $0x2,%eax
 8048e12:	f7 d8                	neg    %eax
 8048e14:	b0 01                	mov    $0x1,%al
 8048e16:	b4 02                	mov    $0x2,%ah
 8048e18:	3f                   	aas    
 8048e19:	a2 00 20 00 00       	mov    %al,0x2000
 8048e1e:	88 25 04 20 00 00    	mov    %ah,0x2004
 8048e24:	73 07                	jae    8048e2d <aas_flags_set2_constant+0x20>
 8048e26:	c6 05 00 21 00 00 01 	movb   $0x1,0x2100
 8048e2d:	90                   	nop
 8048e2e:	75 07                	jne    8048e37 <aas_flags_set2_constant+0x2a>
 8048e30:	c6 05 01 21 00 00 02 	movb   $0x2,0x2101
 8048e37:	90                   	nop
 8048e38:	79 07                	jns    8048e41 <aas_flags_set2_constant+0x34>
 8048e3a:	c6 05 02 21 00 00 03 	movb   $0x3,0x2102
 8048e41:	90                   	nop
 8048e42:	7b 07                	jnp    8048e4b <aas_flags_set2_constant+0x3e>
 8048e44:	c6 05 03 21 00 00 04 	movb   $0x4,0x2103
 8048e4b:	90                   	nop
 8048e4c:	71 07                	jno    8048e55 <aas_flags_set2_constant+0x48>
 8048e4e:	c6 05 04 21 00 00 05 	movb   $0x5,0x2104
 8048e55:	90                   	nop
 8048e56:	c3                   	ret    

08048e57 <aas_flags_set2_allregs>:
 8048e57:	b8 02 00 00 00       	mov    $0x2,%eax
 8048e5c:	f7 d8                	neg    %eax
 8048e5e:	a1 00 10 00 00       	mov    0x1000,%eax
 8048e63:	8b 1d 04 10 00 00    	mov    0x1004,%ebx
 8048e69:	8b 0d 08 10 00 00    	mov    0x1008,%ecx
 8048e6f:	8b 15 0c 10 00 00    	mov    0x100c,%edx
 8048e75:	8b 2d 10 10 00 00    	mov    0x1010,%ebp
 8048e7b:	8b 35 14 10 00 00    	mov    0x1014,%esi
 8048e81:	8b 3d 18 10 00 00    	mov    0x1018,%edi
 8048e87:	8b 25 1c 10 00 00    	mov    0x101c,%esp
 8048e8d:	3f                   	aas    
 8048e8e:	a3 00 20 00 00       	mov    %eax,0x2000
 8048e93:	89 1d 04 20 00 00    	mov    %ebx,0x2004
 8048e99:	89 0d 08 20 00 00    	mov    %ecx,0x2008
 8048e9f:	89 15 0c 20 00 00    	mov    %edx,0x200c
 8048ea5:	89 2d 10 20 00 00    	mov    %ebp,0x2010
 8048eab:	89 35 14 20 00 00    	mov    %esi,0x2014
 8048eb1:	89 3d 18 20 00 00    	mov    %edi,0x2018
 8048eb7:	89 25 1c 20 00 00    	mov    %esp,0x201c
 8048ebd:	c3                   	ret    

08048ebe <aas_flags_cmp>:
 8048ebe:	a1 00 11 00 00       	mov    0x1100,%eax
 8048ec3:	8b 1d 04 11 00 00    	mov    0x1104,%ebx
 8048ec9:	39 c3                	cmp    %eax,%ebx
 8048ecb:	a0 00 10 00 00       	mov    0x1000,%al
 8048ed0:	8a 25 04 10 00 00    	mov    0x1004,%ah
 8048ed6:	3f                   	aas    
 8048ed7:	a2 00 20 00 00       	mov    %al,0x2000
 8048edc:	88 25 04 20 00 00    	mov    %ah,0x2004
 8048ee2:	73 07                	jae    8048eeb <aas_flags_cmp+0x2d>
 8048ee4:	c6 05 00 21 00 00 01 	movb   $0x1,0x2100
 8048eeb:	90                   	nop
 8048eec:	75 07                	jne    8048ef5 <aas_flags_cmp+0x37>
 8048eee:	c6 05 01 21 00 00 02 	movb   $0x2,0x2101
 8048ef5:	90                   	nop
 8048ef6:	79 07                	jns    8048eff <aas_flags_cmp+0x41>
 8048ef8:	c6 05 02 21 00 00 03 	movb   $0x3,0x2102
 8048eff:	90                   	nop
 8048f00:	7b 07                	jnp    8048f09 <aas_flags_cmp+0x4b>
 8048f02:	c6 05 03 21 00 00 04 	movb   $0x4,0x2103
 8048f09:	90                   	nop
 8048f0a:	71 07                	jno    8048f13 <aas_flags_cmp+0x55>
 8048f0c:	c6 05 04 21 00 00 05 	movb   $0x5,0x2104
 8048f13:	90                   	nop
 8048f14:	c3                   	ret    

08048f15 <aas_flags_cmp_constant>:
 8048f15:	a1 00 11 00 00       	mov    0x1100,%eax
 8048f1a:	8b 1d 04 11 00 00    	mov    0x1104,%ebx
 8048f20:	39 c3                	cmp    %eax,%ebx
 8048f22:	b0 01                	mov    $0x1,%al
 8048f24:	b4 02                	mov    $0x2,%ah
 8048f26:	3f                   	aas    
 8048f27:	a2 00 20 00 00       	mov    %al,0x2000
 8048f2c:	88 25 04 20 00 00    	mov    %ah,0x2004
 8048f32:	73 07                	jae    8048f3b <aas_flags_cmp_constant+0x26>
 8048f34:	c6 05 00 21 00 00 01 	movb   $0x1,0x2100
 8048f3b:	90                   	nop
 8048f3c:	75 07                	jne    8048f45 <aas_flags_cmp_constant+0x30>
 8048f3e:	c6 05 01 21 00 00 02 	movb   $0x2,0x2101
 8048f45:	90                   	nop
 8048f46:	79 07                	jns    8048f4f <aas_flags_cmp_constant+0x3a>
 8048f48:	c6 05 02 21 00 00 03 	movb   $0x3,0x2102
 8048f4f:	90                   	nop
 8048f50:	7b 07                	jnp    8048f59 <aas_flags_cmp_constant+0x44>
 8048f52:	c6 05 03 21 00 00 04 	movb   $0x4,0x2103
 8048f59:	90                   	nop
 8048f5a:	71 07                	jno    8048f63 <aas_flags_cmp_constant+0x4e>
 8048f5c:	c6 05 04 21 00 00 05 	movb   $0x5,0x2104
 8048f63:	90                   	nop
 8048f64:	c3                   	ret    

08048f65 <aas_flags_cmp_allregs>:
 8048f65:	a1 00 11 00 00       	mov    0x1100,%eax
 8048f6a:	8b 1d 04 11 00 00    	mov    0x1104,%ebx
 8048f70:	39 c3                	cmp    %eax,%ebx
 8048f72:	a1 00 10 00 00       	mov    0x1000,%eax
 8048f77:	8b 1d 04 10 00 00    	mov    0x1004,%ebx
 8048f7d:	8b 0d 08 10 00 00    	mov    0x1008,%ecx
 8048f83:	8b 15 0c 10 00 00    	mov    0x100c,%edx
 8048f89:	8b 2d 10 10 00 00    	mov    0x1010,%ebp
 8048f8f:	8b 35 14 10 00 00    	mov    0x1014,%esi
 8048f95:	8b 3d 18 10 00 00    	mov    0x1018,%edi
 8048f9b:	8b 25 1c 10 00 00    	mov    0x101c,%esp
 8048fa1:	3f                   	aas    
 8048fa2:	a3 00 20 00 00       	mov    %eax,0x2000
 8048fa7:	89 1d 04 20 00 00    	mov    %ebx,0x2004
 8048fad:	89 0d 08 20 00 00    	mov    %ecx,0x2008
 8048fb3:	89 15 0c 20 00 00    	mov    %edx,0x200c
 8048fb9:	89 2d 10 20 00 00    	mov    %ebp,0x2010
 8048fbf:	89 35 14 20 00 00    	mov    %esi,0x2014
 8048fc5:	89 3d 18 20 00 00    	mov    %edi,0x2018
 8048fcb:	89 25 1c 20 00 00    	mov    %esp,0x201c
 8048fd1:	c3                   	ret    

08048fd2 <adc1_flags_clear>:
 8048fd2:	b8 02 00 00 00       	mov    $0x2,%eax
 8048fd7:	48                   	dec    %eax
 8048fd8:	a0 00 10 00 00       	mov    0x1000,%al
 8048fdd:	14 10                	adc    $0x10,%al
 8048fdf:	a2 00 20 00 00       	mov    %al,0x2000
 8048fe4:	73 07                	jae    8048fed <adc1_flags_clear+0x1b>
 8048fe6:	c6 05 00 21 00 00 01 	movb   $0x1,0x2100
 8048fed:	90                   	nop
 8048fee:	75 07                	jne    8048ff7 <adc1_flags_clear+0x25>
 8048ff0:	c6 05 01 21 00 00 02 	movb   $0x2,0x2101
 8048ff7:	90                   	nop
 8048ff8:	79 07                	jns    8049001 <adc1_flags_clear+0x2f>
 8048ffa:	c6 05 02 21 00 00 03 	movb   $0x3,0x2102
 8049001:	90                   	nop
 8049002:	7b 07                	jnp    804900b <adc1_flags_clear+0x39>
 8049004:	c6 05 03 21 00 00 04 	movb   $0x4,0x2103
 804900b:	90                   	nop
 804900c:	71 07                	jno    8049015 <adc1_flags_clear+0x43>
 804900e:	c6 05 04 21 00 00 05 	movb   $0x5,0x2104
 8049015:	90                   	nop
 8049016:	c3                   	ret    

08049017 <adc1_flags_clear_constant>:
 8049017:	b8 02 00 00 00       	mov    $0x2,%eax
 804901c:	48                   	dec    %eax
 804901d:	b0 01                	mov    $0x1,%al
 804901f:	14 10                	adc    $0x10,%al
 8049021:	a2 00 20 00 00       	mov    %al,0x2000
 8049026:	73 07                	jae    804902f <adc1_flags_clear_constant+0x18>
 8049028:	c6 05 00 21 00 00 01 	movb   $0x1,0x2100
 804902f:	90                   	nop
 8049030:	75 07                	jne    8049039 <adc1_flags_clear_constant+0x22>
 8049032:	c6 05 01 21 00 00 02 	movb   $0x2,0x2101
 8049039:	90                   	nop
 804903a:	79 07                	jns    8049043 <adc1_flags_clear_constant+0x2c>
 804903c:	c6 05 02 21 00 00 03 	movb   $0x3,0x2102
 8049043:	90                   	nop
 8049044:	7b 07                	jnp    804904d <adc1_flags_clear_constant+0x36>
 8049046:	c6 05 03 21 00 00 04 	movb   $0x4,0x2103
 804904d:	90                   	nop
 804904e:	71 07                	jno    8049057 <adc1_flags_clear_constant+0x40>
 8049050:	c6 05 04 21 00 00 05 	movb   $0x5,0x2104
 8049057:	90                   	nop
 8049058:	c3                   	ret    

08049059 <adc1_flags_clear_allregs>:
 8049059:	b8 02 00 00 00       	mov    $0x2,%eax
 804905e:	48                   	dec    %eax
 804905f:	a1 00 10 00 00       	mov    0x1000,%eax
 8049064:	8b 1d 04 10 00 00    	mov    0x1004,%ebx
 804906a:	8b 0d 08 10 00 00    	mov    0x1008,%ecx
 8049070:	8b 15 0c 10 00 00    	mov    0x100c,%edx
 8049076:	8b 2d 10 10 00 00    	mov    0x1010,%ebp
 804907c:	8b 35 14 10 00 00    	mov    0x1014,%esi
 8049082:	8b 3d 18 10 00 00    	mov    0x1018,%edi
 8049088:	8b 25 1c 10 00 00    	mov    0x101c,%esp
 804908e:	14 10                	adc    $0x10,%al
 8049090:	a3 00 20 00 00       	mov    %eax,0x2000
 8049095:	89 1d 04 20 00 00    	mov    %ebx,0x2004
 804909b:	89 0d 08 20 00 00    	mov    %ecx,0x2008
 80490a1:	89 15 0c 20 00 00    	mov    %edx,0x200c
 80490a7:	89 2d 10 20 00 00    	mov    %ebp,0x2010
 80490ad:	89 35 14 20 00 00    	mov    %esi,0x2014
 80490b3:	89 3d 18 20 00 00    	mov    %edi,0x2018
 80490b9:	89 25 1c 20 00 00    	mov    %esp,0x201c
 80490bf:	c3                   	ret    

080490c0 <adc1_flags_set1>:
 80490c0:	b8 00 00 00 00       	mov    $0x0,%eax
 80490c5:	f7 d8                	neg    %eax
 80490c7:	a0 00 10 00 00       	mov    0x1000,%al
 80490cc:	14 10                	adc    $0x10,%al
 80490ce:	a2 00 20 00 00       	mov    %al,0x2000
 80490d3:	73 07                	jae    80490dc <adc1_flags_set1+0x1c>
 80490d5:	c6 05 00 21 00 00 01 	movb   $0x1,0x2100
 80490dc:	90                   	nop
 80490dd:	75 07                	jne    80490e6 <adc1_flags_set1+0x26>
 80490df:	c6 05 01 21 00 00 02 	movb   $0x2,0x2101
 80490e6:	90                   	nop
 80490e7:	79 07                	jns    80490f0 <adc1_flags_set1+0x30>
 80490e9:	c6 05 02 21 00 00 03 	movb   $0x3,0x2102
 80490f0:	90                   	nop
 80490f1:	7b 07                	jnp    80490fa <adc1_flags_set1+0x3a>
 80490f3:	c6 05 03 21 00 00 04 	movb   $0x4,0x2103
 80490fa:	90                   	nop
 80490fb:	71 07                	jno    8049104 <adc1_flags_set1+0x44>
 80490fd:	c6 05 04 21 00 00 05 	movb   $0x5,0x2104
 8049104:	90                   	nop
 8049105:	c3                   	ret    

08049106 <adc1_flags_set1_constant>:
 8049106:	b8 00 00 00 00       	mov    $0x0,%eax
 804910b:	f7 d8                	neg    %eax
 804910d:	b0 01                	mov    $0x1,%al
 804910f:	14 10                	adc    $0x10,%al
 8049111:	a2 00 20 00 00       	mov    %al,0x2000
 8049116:	73 07                	jae    804911f <adc1_flags_set1_constant+0x19>
 8049118:	c6 05 00 21 00 00 01 	movb   $0x1,0x2100
 804911f:	90                   	nop
 8049120:	75 07                	jne    8049129 <adc1_flags_set1_constant+0x23>
 8049122:	c6 05 01 21 00 00 02 	movb   $0x2,0x2101
 8049129:	90                   	nop
 804912a:	79 07                	jns    8049133 <adc1_flags_set1_constant+0x2d>
 804912c:	c6 05 02 21 00 00 03 	movb   $0x3,0x2102
 8049133:	90                   	nop
 8049134:	7b 07                	jnp    804913d <adc1_flags_set1_constant+0x37>
 8049136:	c6 05 03 21 00 00 04 	movb   $0x4,0x2103
 804913d:	90                   	nop
 804913e:	71 07                	jno    8049147 <adc1_flags_set1_constant+0x41>
 8049140:	c6 05 04 21 00 00 05 	movb   $0x5,0x2104
 8049147:	90                   	nop
 8049148:	c3                   	ret    

08049149 <adc1_flags_set1_allregs>:
 8049149:	b8 00 00 00 00       	mov    $0x0,%eax
 804914e:	f7 d8                	neg    %eax
 8049150:	a1 00 10 00 00       	mov    0x1000,%eax
 8049155:	8b 1d 04 10 00 00    	mov    0x1004,%ebx
 804915b:	8b 0d 08 10 00 00    	mov    0x1008,%ecx
 8049161:	8b 15 0c 10 00 00    	mov    0x100c,%edx
 8049167:	8b 2d 10 10 00 00    	mov    0x1010,%ebp
 804916d:	8b 35 14 10 00 00    	mov    0x1014,%esi
 8049173:	8b 3d 18 10 00 00    	mov    0x1018,%edi
 8049179:	8b 25 1c 10 00 00    	mov    0x101c,%esp
 804917f:	14 10                	adc    $0x10,%al
 8049181:	a3 00 20 00 00       	mov    %eax,0x2000
 8049186:	89 1d 04 20 00 00    	mov    %ebx,0x2004
 804918c:	89 0d 08 20 00 00    	mov    %ecx,0x2008
 8049192:	89 15 0c 20 00 00    	mov    %edx,0x200c
 8049198:	89 2d 10 20 00 00    	mov    %ebp,0x2010
 804919e:	89 35 14 20 00 00    	mov    %esi,0x2014
 80491a4:	89 3d 18 20 00 00    	mov    %edi,0x2018
 80491aa:	89 25 1c 20 00 00    	mov    %esp,0x201c
 80491b0:	c3                   	ret    

080491b1 <adc1_flags_set2>:
 80491b1:	b8 02 00 00 00       	mov    $0x2,%eax
 80491b6:	f7 d8                	neg    %eax
 80491b8:	a0 00 10 00 00       	mov    0x1000,%al
 80491bd:	14 10                	adc    $0x10,%al
 80491bf:	a2 00 20 00 00       	mov    %al,0x2000
 80491c4:	73 07                	jae    80491cd <adc1_flags_set2+0x1c>
 80491c6:	c6 05 00 21 00 00 01 	movb   $0x1,0x2100
 80491cd:	90                   	nop
 80491ce:	75 07                	jne    80491d7 <adc1_flags_set2+0x26>
 80491d0:	c6 05 01 21 00 00 02 	movb   $0x2,0x2101
 80491d7:	90                   	nop
 80491d8:	79 07                	jns    80491e1 <adc1_flags_set2+0x30>
 80491da:	c6 05 02 21 00 00 03 	movb   $0x3,0x2102
 80491e1:	90                   	nop
 80491e2:	7b 07                	jnp    80491eb <adc1_flags_set2+0x3a>
 80491e4:	c6 05 03 21 00 00 04 	movb   $0x4,0x2103
 80491eb:	90                   	nop
 80491ec:	71 07                	jno    80491f5 <adc1_flags_set2+0x44>
 80491ee:	c6 05 04 21 00 00 05 	movb   $0x5,0x2104
 80491f5:	90                   	nop
 80491f6:	c3                   	ret    

080491f7 <adc1_flags_set2_constant>:
 80491f7:	b8 02 00 00 00       	mov    $0x2,%eax
 80491fc:	f7 d8                	neg    %eax
 80491fe:	b0 01                	mov    $0x1,%al
 8049200:	14 10                	adc    $0x10,%al
 8049202:	a2 00 20 00 00       	mov    %al,0x2000
 8049207:	73 07                	jae    8049210 <adc1_flags_set2_constant+0x19>
 8049209:	c6 05 00 21 00 00 01 	movb   $0x1,0x2100
 8049210:	90                   	nop
 8049211:	75 07                	jne    804921a <adc1_flags_set2_constant+0x23>
 8049213:	c6 05 01 21 00 00 02 	movb   $0x2,0x2101
 804921a:	90                   	nop
 804921b:	79 07                	jns    8049224 <adc1_flags_set2_constant+0x2d>
 804921d:	c6 05 02 21 00 00 03 	movb   $0x3,0x2102
 8049224:	90                   	nop
 8049225:	7b 07                	jnp    804922e <adc1_flags_set2_constant+0x37>
 8049227:	c6 05 03 21 00 00 04 	movb   $0x4,0x2103
 804922e:	90                   	nop
 804922f:	71 07                	jno    8049238 <adc1_flags_set2_constant+0x41>
 8049231:	c6 05 04 21 00 00 05 	movb   $0x5,0x2104
 8049238:	90                   	nop
 8049239:	c3                   	ret    

0804923a <adc1_flags_set2_allregs>:
 804923a:	b8 02 00 00 00       	mov    $0x2,%eax
 804923f:	f7 d8                	neg    %eax
 8049241:	a1 00 10 00 00       	mov    0x1000,%eax
 8049246:	8b 1d 04 10 00 00    	mov    0x1004,%ebx
 804924c:	8b 0d 08 10 00 00    	mov    0x1008,%ecx
 8049252:	8b 15 0c 10 00 00    	mov    0x100c,%edx
 8049258:	8b 2d 10 10 00 00    	mov    0x1010,%ebp
 804925e:	8b 35 14 10 00 00    	mov    0x1014,%esi
 8049264:	8b 3d 18 10 00 00    	mov    0x1018,%edi
 804926a:	8b 25 1c 10 00 00    	mov    0x101c,%esp
 8049270:	14 10                	adc    $0x10,%al
 8049272:	a3 00 20 00 00       	mov    %eax,0x2000
 8049277:	89 1d 04 20 00 00    	mov    %ebx,0x2004
 804927d:	89 0d 08 20 00 00    	mov    %ecx,0x2008
 8049283:	89 15 0c 20 00 00    	mov    %edx,0x200c
 8049289:	89 2d 10 20 00 00    	mov    %ebp,0x2010
 804928f:	89 35 14 20 00 00    	mov    %esi,0x2014
 8049295:	89 3d 18 20 00 00    	mov    %edi,0x2018
 804929b:	89 25 1c 20 00 00    	mov    %esp,0x201c
 80492a1:	c3                   	ret    

080492a2 <adc1_flags_cmp>:
 80492a2:	a1 00 11 00 00       	mov    0x1100,%eax
 80492a7:	8b 1d 04 11 00 00    	mov    0x1104,%ebx
 80492ad:	39 c3                	cmp    %eax,%ebx
 80492af:	a0 00 10 00 00       	mov    0x1000,%al
 80492b4:	14 10                	adc    $0x10,%al
 80492b6:	a2 00 20 00 00       	mov    %al,0x2000
 80492bb:	73 07                	jae    80492c4 <adc1_flags_cmp+0x22>
 80492bd:	c6 05 00 21 00 00 01 	movb   $0x1,0x2100
 80492c4:	90                   	nop
 80492c5:	75 07                	jne    80492ce <adc1_flags_cmp+0x2c>
 80492c7:	c6 05 01 21 00 00 02 	movb   $0x2,0x2101
 80492ce:	90                   	nop
 80492cf:	79 07                	jns    80492d8 <adc1_flags_cmp+0x36>
 80492d1:	c6 05 02 21 00 00 03 	movb   $0x3,0x2102
 80492d8:	90                   	nop
 80492d9:	7b 07                	jnp    80492e2 <adc1_flags_cmp+0x40>
 80492db:	c6 05 03 21 00 00 04 	movb   $0x4,0x2103
 80492e2:	90                   	nop
 80492e3:	71 07                	jno    80492ec <adc1_flags_cmp+0x4a>
 80492e5:	c6 05 04 21 00 00 05 	movb   $0x5,0x2104
 80492ec:	90                   	nop
 80492ed:	c3                   	ret    

080492ee <adc1_flags_cmp_constant>:
 80492ee:	a1 00 11 00 00       	mov    0x1100,%eax
 80492f3:	8b 1d 04 11 00 00    	mov    0x1104,%ebx
 80492f9:	39 c3                	cmp    %eax,%ebx
 80492fb:	b0 01                	mov    $0x1,%al
 80492fd:	14 10                	adc    $0x10,%al
 80492ff:	a2 00 20 00 00       	mov    %al,0x2000
 8049304:	73 07                	jae    804930d <adc1_flags_cmp_constant+0x1f>
 8049306:	c6 05 00 21 00 00 01 	movb   $0x1,0x2100
 804930d:	90                   	nop
 804930e:	75 07                	jne    8049317 <adc1_flags_cmp_constant+0x29>
 8049310:	c6 05 01 21 00 00 02 	movb   $0x2,0x2101
 8049317:	90                   	nop
 8049318:	79 07                	jns    8049321 <adc1_flags_cmp_constant+0x33>
 804931a:	c6 05 02 21 00 00 03 	movb   $0x3,0x2102
 8049321:	90                   	nop
 8049322:	7b 07                	jnp    804932b <adc1_flags_cmp_constant+0x3d>
 8049324:	c6 05 03 21 00 00 04 	movb   $0x4,0x2103
 804932b:	90                   	nop
 804932c:	71 07                	jno    8049335 <adc1_flags_cmp_constant+0x47>
 804932e:	c6 05 04 21 00 00 05 	movb   $0x5,0x2104
 8049335:	90                   	nop
 8049336:	c3                   	ret    

08049337 <adc1_flags_cmp_allregs>:
 8049337:	a1 00 11 00 00       	mov    0x1100,%eax
 804933c:	8b 1d 04 11 00 00    	mov    0x1104,%ebx
 8049342:	39 c3                	cmp    %eax,%ebx
 8049344:	a1 00 10 00 00       	mov    0x1000,%eax
 8049349:	8b 1d 04 10 00 00    	mov    0x1004,%ebx
 804934f:	8b 0d 08 10 00 00    	mov    0x1008,%ecx
 8049355:	8b 15 0c 10 00 00    	mov    0x100c,%edx
 804935b:	8b 2d 10 10 00 00    	mov    0x1010,%ebp
 8049361:	8b 35 14 10 00 00    	mov    0x1014,%esi
 8049367:	8b 3d 18 10 00 00    	mov    0x1018,%edi
 804936d:	8b 25 1c 10 00 00    	mov    0x101c,%esp
 8049373:	14 10                	adc    $0x10,%al
 8049375:	a3 00 20 00 00       	mov    %eax,0x2000
 804937a:	89 1d 04 20 00 00    	mov    %ebx,0x2004
 8049380:	89 0d 08 20 00 00    	mov    %ecx,0x2008
 8049386:	89 15 0c 20 00 00    	mov    %edx,0x200c
 804938c:	89 2d 10 20 00 00    	mov    %ebp,0x2010
 8049392:	89 35 14 20 00 00    	mov    %esi,0x2014
 8049398:	89 3d 18 20 00 00    	mov    %edi,0x2018
 804939e:	89 25 1c 20 00 00    	mov    %esp,0x201c
 80493a4:	c3                   	ret    

080493a5 <adc2_flags_clear>:
 80493a5:	b8 02 00 00 00       	mov    $0x2,%eax
 80493aa:	48                   	dec    %eax
 80493ab:	66 a1 00 10 00 00    	mov    0x1000,%ax
 80493b1:	66 83 d0 10          	adc    $0x10,%ax
 80493b5:	66 a3 00 20 00 00    	mov    %ax,0x2000
 80493bb:	73 07                	jae    80493c4 <adc2_flags_clear+0x1f>
 80493bd:	c6 05 00 21 00 00 01 	movb   $0x1,0x2100
 80493c4:	90                   	nop
 80493c5:	75 07                	jne    80493ce <adc2_flags_clear+0x29>
 80493c7:	c6 05 01 21 00 00 02 	movb   $0x2,0x2101
 80493ce:	90                   	nop
 80493cf:	79 07                	jns    80493d8 <adc2_flags_clear+0x33>
 80493d1:	c6 05 02 21 00 00 03 	movb   $0x3,0x2102
 80493d8:	90                   	nop
 80493d9:	7b 07                	jnp    80493e2 <adc2_flags_clear+0x3d>
 80493db:	c6 05 03 21 00 00 04 	movb   $0x4,0x2103
 80493e2:	90                   	nop
 80493e3:	71 07                	jno    80493ec <adc2_flags_clear+0x47>
 80493e5:	c6 05 04 21 00 00 05 	movb   $0x5,0x2104
 80493ec:	90                   	nop
 80493ed:	c3                   	ret    

080493ee <adc2_flags_clear_constant>:
 80493ee:	b8 02 00 00 00       	mov    $0x2,%eax
 80493f3:	48                   	dec    %eax
 80493f4:	66 b8 01 00          	mov    $0x1,%ax
 80493f8:	66 83 d0 10          	adc    $0x10,%ax
 80493fc:	66 a3 00 20 00 00    	mov    %ax,0x2000
 8049402:	73 07                	jae    804940b <adc2_flags_clear_constant+0x1d>
 8049404:	c6 05 00 21 00 00 01 	movb   $0x1,0x2100
 804940b:	90                   	nop
 804940c:	75 07                	jne    8049415 <adc2_flags_clear_constant+0x27>
 804940e:	c6 05 01 21 00 00 02 	movb   $0x2,0x2101
 8049415:	90                   	nop
 8049416:	79 07                	jns    804941f <adc2_flags_clear_constant+0x31>
 8049418:	c6 05 02 21 00 00 03 	movb   $0x3,0x2102
 804941f:	90                   	nop
 8049420:	7b 07                	jnp    8049429 <adc2_flags_clear_constant+0x3b>
 8049422:	c6 05 03 21 00 00 04 	movb   $0x4,0x2103
 8049429:	90                   	nop
 804942a:	71 07                	jno    8049433 <adc2_flags_clear_constant+0x45>
 804942c:	c6 05 04 21 00 00 05 	movb   $0x5,0x2104
 8049433:	90                   	nop
 8049434:	c3                   	ret    

08049435 <adc2_flags_clear_allregs>:
 8049435:	b8 02 00 00 00       	mov    $0x2,%eax
 804943a:	48                   	dec    %eax
 804943b:	a1 00 10 00 00       	mov    0x1000,%eax
 8049440:	8b 1d 04 10 00 00    	mov    0x1004,%ebx
 8049446:	8b 0d 08 10 00 00    	mov    0x1008,%ecx
 804944c:	8b 15 0c 10 00 00    	mov    0x100c,%edx
 8049452:	8b 2d 10 10 00 00    	mov    0x1010,%ebp
 8049458:	8b 35 14 10 00 00    	mov    0x1014,%esi
 804945e:	8b 3d 18 10 00 00    	mov    0x1018,%edi
 8049464:	8b 25 1c 10 00 00    	mov    0x101c,%esp
 804946a:	66 83 d0 10          	adc    $0x10,%ax
 804946e:	a3 00 20 00 00       	mov    %eax,0x2000
 8049473:	89 1d 04 20 00 00    	mov    %ebx,0x2004
 8049479:	89 0d 08 20 00 00    	mov    %ecx,0x2008
 804947f:	89 15 0c 20 00 00    	mov    %edx,0x200c
 8049485:	89 2d 10 20 00 00    	mov    %ebp,0x2010
 804948b:	89 35 14 20 00 00    	mov    %esi,0x2014
 8049491:	89 3d 18 20 00 00    	mov    %edi,0x2018
 8049497:	89 25 1c 20 00 00    	mov    %esp,0x201c
 804949d:	c3                   	ret    

0804949e <adc2_flags_set1>:
 804949e:	b8 00 00 00 00       	mov    $0x0,%eax
 80494a3:	f7 d8                	neg    %eax
 80494a5:	66 a1 00 10 00 00    	mov    0x1000,%ax
 80494ab:	66 83 d0 10          	adc    $0x10,%ax
 80494af:	66 a3 00 20 00 00    	mov    %ax,0x2000
 80494b5:	73 07                	jae    80494be <adc2_flags_set1+0x20>
 80494b7:	c6 05 00 21 00 00 01 	movb   $0x1,0x2100
 80494be:	90                   	nop
 80494bf:	75 07                	jne    80494c8 <adc2_flags_set1+0x2a>
 80494c1:	c6 05 01 21 00 00 02 	movb   $0x2,0x2101
 80494c8:	90                   	nop
 80494c9:	79 07                	jns    80494d2 <adc2_flags_set1+0x34>
 80494cb:	c6 05 02 21 00 00 03 	movb   $0x3,0x2102
 80494d2:	90                   	nop
 80494d3:	7b 07                	jnp    80494dc <adc2_flags_set1+0x3e>
 80494d5:	c6 05 03 21 00 00 04 	movb   $0x4,0x2103
 80494dc:	90                   	nop
 80494dd:	71 07                	jno    80494e6 <adc2_flags_set1+0x48>
 80494df:	c6 05 04 21 00 00 05 	movb   $0x5,0x2104
 80494e6:	90                   	nop
 80494e7:	c3                   	ret    

080494e8 <adc2_flags_set1_constant>:
 80494e8:	b8 00 00 00 00       	mov    $0x0,%eax
 80494ed:	f7 d8                	neg    %eax
 80494ef:	66 b8 01 00          	mov    $0x1,%ax
 80494f3:	66 83 d0 10          	adc    $0x10,%ax
 80494f7:	66 a3 00 20 00 00    	mov    %ax,0x2000
 80494fd:	73 07                	jae    8049506 <adc2_flags_set1_constant+0x1e>
 80494ff:	c6 05 00 21 00 00 01 	movb   $0x1,0x2100
 8049506:	90                   	nop
 8049507:	75 07                	jne    8049510 <adc2_flags_set1_constant+0x28>
 8049509:	c6 05 01 21 00 00 02 	movb   $0x2,0x2101
 8049510:	90                   	nop
 8049511:	79 07                	jns    804951a <adc2_flags_set1_constant+0x32>
 8049513:	c6 05 02 21 00 00 03 	movb   $0x3,0x2102
 804951a:	90                   	nop
 804951b:	7b 07                	jnp    8049524 <adc2_flags_set1_constant+0x3c>
 804951d:	c6 05 03 21 00 00 04 	movb   $0x4,0x2103
 8049524:	90                   	nop
 8049525:	71 07                	jno    804952e <adc2_flags_set1_constant+0x46>
 8049527:	c6 05 04 21 00 00 05 	movb   $0x5,0x2104
 804952e:	90                   	nop
 804952f:	c3                   	ret    

08049530 <adc2_flags_set1_allregs>:
 8049530:	b8 00 00 00 00       	mov    $0x0,%eax
 8049535:	f7 d8                	neg    %eax
 8049537:	a1 00 10 00 00       	mov    0x1000,%eax
 804953c:	8b 1d 04 10 00 00    	mov    0x1004,%ebx
 8049542:	8b 0d 08 10 00 00    	mov    0x1008,%ecx
 8049548:	8b 15 0c 10 00 00    	mov    0x100c,%edx
 804954e:	8b 2d 10 10 00 00    	mov    0x1010,%ebp
 8049554:	8b 35 14 10 00 00    	mov    0x1014,%esi
 804955a:	8b 3d 18 10 00 00    	mov    0x1018,%edi
 8049560:	8b 25 1c 10 00 00    	mov    0x101c,%esp
 8049566:	66 83 d0 10          	adc    $0x10,%ax
 804956a:	a3 00 20 00 00       	mov    %eax,0x2000
 804956f:	89 1d 04 20 00 00    	mov    %ebx,0x2004
 8049575:	89 0d 08 20 00 00    	mov    %ecx,0x2008
 804957b:	89 15 0c 20 00 00    	mov    %edx,0x200c
 8049581:	89 2d 10 20 00 00    	mov    %ebp,0x2010
 8049587:	89 35 14 20 00 00    	mov    %esi,0x2014
 804958d:	89 3d 18 20 00 00    	mov    %edi,0x2018
 8049593:	89 25 1c 20 00 00    	mov    %esp,0x201c
 8049599:	c3                   	ret    

0804959a <adc2_flags_set2>:
 804959a:	b8 02 00 00 00       	mov    $0x2,%eax
 804959f:	f7 d8                	neg    %eax
 80495a1:	66 a1 00 10 00 00    	mov    0x1000,%ax
 80495a7:	66 83 d0 10          	adc    $0x10,%ax
 80495ab:	66 a3 00 20 00 00    	mov    %ax,0x2000
 80495b1:	73 07                	jae    80495ba <adc2_flags_set2+0x20>
 80495b3:	c6 05 00 21 00 00 01 	movb   $0x1,0x2100
 80495ba:	90                   	nop
 80495bb:	75 07                	jne    80495c4 <adc2_flags_set2+0x2a>
 80495bd:	c6 05 01 21 00 00 02 	movb   $0x2,0x2101
 80495c4:	90                   	nop
 80495c5:	79 07                	jns    80495ce <adc2_flags_set2+0x34>
 80495c7:	c6 05 02 21 00 00 03 	movb   $0x3,0x2102
 80495ce:	90                   	nop
 80495cf:	7b 07                	jnp    80495d8 <adc2_flags_set2+0x3e>
 80495d1:	c6 05 03 21 00 00 04 	movb   $0x4,0x2103
 80495d8:	90                   	nop
 80495d9:	71 07                	jno    80495e2 <adc2_flags_set2+0x48>
 80495db:	c6 05 04 21 00 00 05 	movb   $0x5,0x2104
 80495e2:	90                   	nop
 80495e3:	c3                   	ret    

080495e4 <adc2_flags_set2_constant>:
 80495e4:	b8 02 00 00 00       	mov    $0x2,%eax
 80495e9:	f7 d8                	neg    %eax
 80495eb:	66 b8 01 00          	mov    $0x1,%ax
 80495ef:	66 83 d0 10          	adc    $0x10,%ax
 80495f3:	66 a3 00 20 00 00    	mov    %ax,0x2000
 80495f9:	73 07                	jae    8049602 <adc2_flags_set2_constant+0x1e>
 80495fb:	c6 05 00 21 00 00 01 	movb   $0x1,0x2100
 8049602:	90                   	nop
 8049603:	75 07                	jne    804960c <adc2_flags_set2_constant+0x28>
 8049605:	c6 05 01 21 00 00 02 	movb   $0x2,0x2101
 804960c:	90                   	nop
 804960d:	79 07                	jns    8049616 <adc2_flags_set2_constant+0x32>
 804960f:	c6 05 02 21 00 00 03 	movb   $0x3,0x2102
 8049616:	90                   	nop
 8049617:	7b 07                	jnp    8049620 <adc2_flags_set2_constant+0x3c>
 8049619:	c6 05 03 21 00 00 04 	movb   $0x4,0x2103
 8049620:	90                   	nop
 8049621:	71 07                	jno    804962a <adc2_flags_set2_constant+0x46>
 8049623:	c6 05 04 21 00 00 05 	movb   $0x5,0x2104
 804962a:	90                   	nop
 804962b:	c3                   	ret    

0804962c <adc2_flags_set2_allregs>:
 804962c:	b8 02 00 00 00       	mov    $0x2,%eax
 8049631:	f7 d8                	neg    %eax
 8049633:	a1 00 10 00 00       	mov    0x1000,%eax
 8049638:	8b 1d 04 10 00 00    	mov    0x1004,%ebx
 804963e:	8b 0d 08 10 00 00    	mov    0x1008,%ecx
 8049644:	8b 15 0c 10 00 00    	mov    0x100c,%edx
 804964a:	8b 2d 10 10 00 00    	mov    0x1010,%ebp
 8049650:	8b 35 14 10 00 00    	mov    0x1014,%esi
 8049656:	8b 3d 18 10 00 00    	mov    0x1018,%edi
 804965c:	8b 25 1c 10 00 00    	mov    0x101c,%esp
 8049662:	66 83 d0 10          	adc    $0x10,%ax
 8049666:	a3 00 20 00 00       	mov    %eax,0x2000
 804966b:	89 1d 04 20 00 00    	mov    %ebx,0x2004
 8049671:	89 0d 08 20 00 00    	mov    %ecx,0x2008
 8049677:	89 15 0c 20 00 00    	mov    %edx,0x200c
 804967d:	89 2d 10 20 00 00    	mov    %ebp,0x2010
 8049683:	89 35 14 20 00 00    	mov    %esi,0x2014
 8049689:	89 3d 18 20 00 00    	mov    %edi,0x2018
 804968f:	89 25 1c 20 00 00    	mov    %esp,0x201c
 8049695:	c3                   	ret    

08049696 <adc2_flags_cmp>:
 8049696:	a1 00 11 00 00       	mov    0x1100,%eax
 804969b:	8b 1d 04 11 00 00    	mov    0x1104,%ebx
 80496a1:	39 c3                	cmp    %eax,%ebx
 80496a3:	66 a1 00 10 00 00    	mov    0x1000,%ax
 80496a9:	66 83 d0 10          	adc    $0x10,%ax
 80496ad:	66 a3 00 20 00 00    	mov    %ax,0x2000
 80496b3:	73 07                	jae    80496bc <adc2_flags_cmp+0x26>
 80496b5:	c6 05 00 21 00 00 01 	movb   $0x1,0x2100
 80496bc:	90                   	nop
 80496bd:	75 07                	jne    80496c6 <adc2_flags_cmp+0x30>
 80496bf:	c6 05 01 21 00 00 02 	movb   $0x2,0x2101
 80496c6:	90                   	nop
 80496c7:	79 07                	jns    80496d0 <adc2_flags_cmp+0x3a>
 80496c9:	c6 05 02 21 00 00 03 	movb   $0x3,0x2102
 80496d0:	90                   	nop
 80496d1:	7b 07                	jnp    80496da <adc2_flags_cmp+0x44>
 80496d3:	c6 05 03 21 00 00 04 	movb   $0x4,0x2103
 80496da:	90                   	nop
 80496db:	71 07                	jno    80496e4 <adc2_flags_cmp+0x4e>
 80496dd:	c6 05 04 21 00 00 05 	movb   $0x5,0x2104
 80496e4:	90                   	nop
 80496e5:	c3                   	ret    

080496e6 <adc2_flags_cmp_constant>:
 80496e6:	a1 00 11 00 00       	mov    0x1100,%eax
 80496eb:	8b 1d 04 11 00 00    	mov    0x1104,%ebx
 80496f1:	39 c3                	cmp    %eax,%ebx
 80496f3:	66 b8 01 00          	mov    $0x1,%ax
 80496f7:	66 83 d0 10          	adc    $0x10,%ax
 80496fb:	66 a3 00 20 00 00    	mov    %ax,0x2000
 8049701:	73 07                	jae    804970a <adc2_flags_cmp_constant+0x24>
 8049703:	c6 05 00 21 00 00 01 	movb   $0x1,0x2100
 804970a:	90                   	nop
 804970b:	75 07                	jne    8049714 <adc2_flags_cmp_constant+0x2e>
 804970d:	c6 05 01 21 00 00 02 	movb   $0x2,0x2101
 8049714:	90                   	nop
 8049715:	79 07                	jns    804971e <adc2_flags_cmp_constant+0x38>
 8049717:	c6 05 02 21 00 00 03 	movb   $0x3,0x2102
 804971e:	90                   	nop
 804971f:	7b 07                	jnp    8049728 <adc2_flags_cmp_constant+0x42>
 8049721:	c6 05 03 21 00 00 04 	movb   $0x4,0x2103
 8049728:	90                   	nop
 8049729:	71 07                	jno    8049732 <adc2_flags_cmp_constant+0x4c>
 804972b:	c6 05 04 21 00 00 05 	movb   $0x5,0x2104
 8049732:	90                   	nop
 8049733:	c3                   	ret    

08049734 <adc2_flags_cmp_allregs>:
 8049734:	a1 00 11 00 00       	mov    0x1100,%eax
 8049739:	8b 1d 04 11 00 00    	mov    0x1104,%ebx
 804973f:	39 c3                	cmp    %eax,%ebx
 8049741:	a1 00 10 00 00       	mov    0x1000,%eax
 8049746:	8b 1d 04 10 00 00    	mov    0x1004,%ebx
 804974c:	8b 0d 08 10 00 00    	mov    0x1008,%ecx
 8049752:	8b 15 0c 10 00 00    	mov    0x100c,%edx
 8049758:	8b 2d 10 10 00 00    	mov    0x1010,%ebp
 804975e:	8b 35 14 10 00 00    	mov    0x1014,%esi
 8049764:	8b 3d 18 10 00 00    	mov    0x1018,%edi
 804976a:	8b 25 1c 10 00 00    	mov    0x101c,%esp
 8049770:	66 83 d0 10          	adc    $0x10,%ax
 8049774:	a3 00 20 00 00       	mov    %eax,0x2000
 8049779:	89 1d 04 20 00 00    	mov    %ebx,0x2004
 804977f:	89 0d 08 20 00 00    	mov    %ecx,0x2008
 8049785:	89 15 0c 20 00 00    	mov    %edx,0x200c
 804978b:	89 2d 10 20 00 00    	mov    %ebp,0x2010
 8049791:	89 35 14 20 00 00    	mov    %esi,0x2014
 8049797:	89 3d 18 20 00 00    	mov    %edi,0x2018
 804979d:	89 25 1c 20 00 00    	mov    %esp,0x201c
 80497a3:	c3                   	ret    

080497a4 <adc2a_flags_clear>:
 80497a4:	b8 02 00 00 00       	mov    $0x2,%eax
 80497a9:	48                   	dec    %eax
 80497aa:	66 a1 00 10 00 00    	mov    0x1000,%ax
 80497b0:	66 15 10 00          	adc    $0x10,%ax
 80497b4:	66 a3 00 20 00 00    	mov    %ax,0x2000
 80497ba:	73 07                	jae    80497c3 <adc2a_flags_clear+0x1f>
 80497bc:	c6 05 00 21 00 00 01 	movb   $0x1,0x2100
 80497c3:	90                   	nop
 80497c4:	75 07                	jne    80497cd <adc2a_flags_clear+0x29>
 80497c6:	c6 05 01 21 00 00 02 	movb   $0x2,0x2101
 80497cd:	90                   	nop
 80497ce:	79 07                	jns    80497d7 <adc2a_flags_clear+0x33>
 80497d0:	c6 05 02 21 00 00 03 	movb   $0x3,0x2102
 80497d7:	90                   	nop
 80497d8:	7b 07                	jnp    80497e1 <adc2a_flags_clear+0x3d>
 80497da:	c6 05 03 21 00 00 04 	movb   $0x4,0x2103
 80497e1:	90                   	nop
 80497e2:	71 07                	jno    80497eb <adc2a_flags_clear+0x47>
 80497e4:	c6 05 04 21 00 00 05 	movb   $0x5,0x2104
 80497eb:	90                   	nop
 80497ec:	c3                   	ret    

080497ed <adc2a_flags_clear_constant>:
 80497ed:	b8 02 00 00 00       	mov    $0x2,%eax
 80497f2:	48                   	dec    %eax
 80497f3:	66 b8 01 00          	mov    $0x1,%ax
 80497f7:	66 15 10 00          	adc    $0x10,%ax
 80497fb:	66 a3 00 20 00 00    	mov    %ax,0x2000
 8049801:	73 07                	jae    804980a <adc2a_flags_clear_constant+0x1d>
 8049803:	c6 05 00 21 00 00 01 	movb   $0x1,0x2100
 804980a:	90                   	nop
 804980b:	75 07                	jne    8049814 <adc2a_flags_clear_constant+0x27>
 804980d:	c6 05 01 21 00 00 02 	movb   $0x2,0x2101
 8049814:	90                   	nop
 8049815:	79 07                	jns    804981e <adc2a_flags_clear_constant+0x31>
 8049817:	c6 05 02 21 00 00 03 	movb   $0x3,0x2102
 804981e:	90                   	nop
 804981f:	7b 07                	jnp    8049828 <adc2a_flags_clear_constant+0x3b>
 8049821:	c6 05 03 21 00 00 04 	movb   $0x4,0x2103
 8049828:	90                   	nop
 8049829:	71 07                	jno    8049832 <adc2a_flags_clear_constant+0x45>
 804982b:	c6 05 04 21 00 00 05 	movb   $0x5,0x2104
 8049832:	90                   	nop
 8049833:	c3                   	ret    

08049834 <adc2a_flags_clear_allregs>:
 8049834:	b8 02 00 00 00       	mov    $0x2,%eax
 8049839:	48                   	dec    %eax
 804983a:	a1 00 10 00 00       	mov    0x1000,%eax
 804983f:	8b 1d 04 10 00 00    	mov    0x1004,%ebx
 8049845:	8b 0d 08 10 00 00    	mov    0x1008,%ecx
 804984b:	8b 15 0c 10 00 00    	mov    0x100c,%edx
 8049851:	8b 2d 10 10 00 00    	mov    0x1010,%ebp
 8049857:	8b 35 14 10 00 00    	mov    0x1014,%esi
 804985d:	8b 3d 18 10 00 00    	mov    0x1018,%edi
 8049863:	8b 25 1c 10 00 00    	mov    0x101c,%esp
 8049869:	66 15 10 00          	adc    $0x10,%ax
 804986d:	a3 00 20 00 00       	mov    %eax,0x2000
 8049872:	89 1d 04 20 00 00    	mov    %ebx,0x2004
 8049878:	89 0d 08 20 00 00    	mov    %ecx,0x2008
 804987e:	89 15 0c 20 00 00    	mov    %edx,0x200c
 8049884:	89 2d 10 20 00 00    	mov    %ebp,0x2010
 804988a:	89 35 14 20 00 00    	mov    %esi,0x2014
 8049890:	89 3d 18 20 00 00    	mov    %edi,0x2018
 8049896:	89 25 1c 20 00 00    	mov    %esp,0x201c
 804989c:	c3                   	ret    

0804989d <adc2a_flags_set1>:
 804989d:	b8 00 00 00 00       	mov    $0x0,%eax
 80498a2:	f7 d8                	neg    %eax
 80498a4:	66 a1 00 10 00 00    	mov    0x1000,%ax
 80498aa:	66 15 10 00          	adc    $0x10,%ax
 80498ae:	66 a3 00 20 00 00    	mov    %ax,0x2000
 80498b4:	73 07                	jae    80498bd <adc2a_flags_set1+0x20>
 80498b6:	c6 05 00 21 00 00 01 	movb   $0x1,0x2100
 80498bd:	90                   	nop
 80498be:	75 07                	jne    80498c7 <adc2a_flags_set1+0x2a>
 80498c0:	c6 05 01 21 00 00 02 	movb   $0x2,0x2101
 80498c7:	90                   	nop
 80498c8:	79 07                	jns    80498d1 <adc2a_flags_set1+0x34>
 80498ca:	c6 05 02 21 00 00 03 	movb   $0x3,0x2102
 80498d1:	90                   	nop
 80498d2:	7b 07                	jnp    80498db <adc2a_flags_set1+0x3e>
 80498d4:	c6 05 03 21 00 00 04 	movb   $0x4,0x2103
 80498db:	90                   	nop
 80498dc:	71 07                	jno    80498e5 <adc2a_flags_set1+0x48>
 80498de:	c6 05 04 21 00 00 05 	movb   $0x5,0x2104
 80498e5:	90                   	nop
 80498e6:	c3                   	ret    

080498e7 <adc2a_flags_set1_constant>:
 80498e7:	b8 00 00 00 00       	mov    $0x0,%eax
 80498ec:	f7 d8                	neg    %eax
 80498ee:	66 b8 01 00          	mov    $0x1,%ax
 80498f2:	66 15 10 00          	adc    $0x10,%ax
 80498f6:	66 a3 00 20 00 00    	mov    %ax,0x2000
 80498fc:	73 07                	jae    8049905 <adc2a_flags_set1_constant+0x1e>
 80498fe:	c6 05 00 21 00 00 01 	movb   $0x1,0x2100
 8049905:	90                   	nop
 8049906:	75 07                	jne    804990f <adc2a_flags_set1_constant+0x28>
 8049908:	c6 05 01 21 00 00 02 	movb   $0x2,0x2101
 804990f:	90                   	nop
 8049910:	79 07                	jns    8049919 <adc2a_flags_set1_constant+0x32>
 8049912:	c6 05 02 21 00 00 03 	movb   $0x3,0x2102
 8049919:	90                   	nop
 804991a:	7b 07                	jnp    8049923 <adc2a_flags_set1_constant+0x3c>
 804991c:	c6 05 03 21 00 00 04 	movb   $0x4,0x2103
 8049923:	90                   	nop
 8049924:	71 07                	jno    804992d <adc2a_flags_set1_constant+0x46>
 8049926:	c6 05 04 21 00 00 05 	movb   $0x5,0x2104
 804992d:	90                   	nop
 804992e:	c3                   	ret    

0804992f <adc2a_flags_set1_allregs>:
 804992f:	b8 00 00 00 00       	mov    $0x0,%eax
 8049934:	f7 d8                	neg    %eax
 8049936:	a1 00 10 00 00       	mov    0x1000,%eax
 804993b:	8b 1d 04 10 00 00    	mov    0x1004,%ebx
 8049941:	8b 0d 08 10 00 00    	mov    0x1008,%ecx
 8049947:	8b 15 0c 10 00 00    	mov    0x100c,%edx
 804994d:	8b 2d 10 10 00 00    	mov    0x1010,%ebp
 8049953:	8b 35 14 10 00 00    	mov    0x1014,%esi
 8049959:	8b 3d 18 10 00 00    	mov    0x1018,%edi
 804995f:	8b 25 1c 10 00 00    	mov    0x101c,%esp
 8049965:	66 15 10 00          	adc    $0x10,%ax
 8049969:	a3 00 20 00 00       	mov    %eax,0x2000
 804996e:	89 1d 04 20 00 00    	mov    %ebx,0x2004
 8049974:	89 0d 08 20 00 00    	mov    %ecx,0x2008
 804997a:	89 15 0c 20 00 00    	mov    %edx,0x200c
 8049980:	89 2d 10 20 00 00    	mov    %ebp,0x2010
 8049986:	89 35 14 20 00 00    	mov    %esi,0x2014
 804998c:	89 3d 18 20 00 00    	mov    %edi,0x2018
 8049992:	89 25 1c 20 00 00    	mov    %esp,0x201c
 8049998:	c3                   	ret    

08049999 <adc2a_flags_set2>:
 8049999:	b8 02 00 00 00       	mov    $0x2,%eax
 804999e:	f7 d8                	neg    %eax
 80499a0:	66 a1 00 10 00 00    	mov    0x1000,%ax
 80499a6:	66 15 10 00          	adc    $0x10,%ax
 80499aa:	66 a3 00 20 00 00    	mov    %ax,0x2000
 80499b0:	73 07                	jae    80499b9 <adc2a_flags_set2+0x20>
 80499b2:	c6 05 00 21 00 00 01 	movb   $0x1,0x2100
 80499b9:	90                   	nop
 80499ba:	75 07                	jne    80499c3 <adc2a_flags_set2+0x2a>
 80499bc:	c6 05 01 21 00 00 02 	movb   $0x2,0x2101
 80499c3:	90                   	nop
 80499c4:	79 07                	jns    80499cd <adc2a_flags_set2+0x34>
 80499c6:	c6 05 02 21 00 00 03 	movb   $0x3,0x2102
 80499cd:	90                   	nop
 80499ce:	7b 07                	jnp    80499d7 <adc2a_flags_set2+0x3e>
 80499d0:	c6 05 03 21 00 00 04 	movb   $0x4,0x2103
 80499d7:	90                   	nop
 80499d8:	71 07                	jno    80499e1 <adc2a_flags_set2+0x48>
 80499da:	c6 05 04 21 00 00 05 	movb   $0x5,0x2104
 80499e1:	90                   	nop
 80499e2:	c3                   	ret    

080499e3 <adc2a_flags_set2_constant>:
 80499e3:	b8 02 00 00 00       	mov    $0x2,%eax
 80499e8:	f7 d8                	neg    %eax
 80499ea:	66 b8 01 00          	mov    $0x1,%ax
 80499ee:	66 15 10 00          	adc    $0x10,%ax
 80499f2:	66 a3 00 20 00 00    	mov    %ax,0x2000
 80499f8:	73 07                	jae    8049a01 <adc2a_flags_set2_constant+0x1e>
 80499fa:	c6 05 00 21 00 00 01 	movb   $0x1,0x2100
 8049a01:	90                   	nop
 8049a02:	75 07                	jne    8049a0b <adc2a_flags_set2_constant+0x28>
 8049a04:	c6 05 01 21 00 00 02 	movb   $0x2,0x2101
 8049a0b:	90                   	nop
 8049a0c:	79 07                	jns    8049a15 <adc2a_flags_set2_constant+0x32>
 8049a0e:	c6 05 02 21 00 00 03 	movb   $0x3,0x2102
 8049a15:	90                   	nop
 8049a16:	7b 07                	jnp    8049a1f <adc2a_flags_set2_constant+0x3c>
 8049a18:	c6 05 03 21 00 00 04 	movb   $0x4,0x2103
 8049a1f:	90                   	nop
 8049a20:	71 07                	jno    8049a29 <adc2a_flags_set2_constant+0x46>
 8049a22:	c6 05 04 21 00 00 05 	movb   $0x5,0x2104
 8049a29:	90                   	nop
 8049a2a:	c3                   	ret    

08049a2b <adc2a_flags_set2_allregs>:
 8049a2b:	b8 02 00 00 00       	mov    $0x2,%eax
 8049a30:	f7 d8                	neg    %eax
 8049a32:	a1 00 10 00 00       	mov    0x1000,%eax
 8049a37:	8b 1d 04 10 00 00    	mov    0x1004,%ebx
 8049a3d:	8b 0d 08 10 00 00    	mov    0x1008,%ecx
 8049a43:	8b 15 0c 10 00 00    	mov    0x100c,%edx
 8049a49:	8b 2d 10 10 00 00    	mov    0x1010,%ebp
 8049a4f:	8b 35 14 10 00 00    	mov    0x1014,%esi
 8049a55:	8b 3d 18 10 00 00    	mov    0x1018,%edi
 8049a5b:	8b 25 1c 10 00 00    	mov    0x101c,%esp
 8049a61:	66 15 10 00          	adc    $0x10,%ax
 8049a65:	a3 00 20 00 00       	mov    %eax,0x2000
 8049a6a:	89 1d 04 20 00 00    	mov    %ebx,0x2004
 8049a70:	89 0d 08 20 00 00    	mov    %ecx,0x2008
 8049a76:	89 15 0c 20 00 00    	mov    %edx,0x200c
 8049a7c:	89 2d 10 20 00 00    	mov    %ebp,0x2010
 8049a82:	89 35 14 20 00 00    	mov    %esi,0x2014
 8049a88:	89 3d 18 20 00 00    	mov    %edi,0x2018
 8049a8e:	89 25 1c 20 00 00    	mov    %esp,0x201c
 8049a94:	c3                   	ret    

08049a95 <adc2a_flags_cmp>:
 8049a95:	a1 00 11 00 00       	mov    0x1100,%eax
 8049a9a:	8b 1d 04 11 00 00    	mov    0x1104,%ebx
 8049aa0:	39 c3                	cmp    %eax,%ebx
 8049aa2:	66 a1 00 10 00 00    	mov    0x1000,%ax
 8049aa8:	66 15 10 00          	adc    $0x10,%ax
 8049aac:	66 a3 00 20 00 00    	mov    %ax,0x2000
 8049ab2:	73 07                	jae    8049abb <adc2a_flags_cmp+0x26>
 8049ab4:	c6 05 00 21 00 00 01 	movb   $0x1,0x2100
 8049abb:	90                   	nop
 8049abc:	75 07                	jne    8049ac5 <adc2a_flags_cmp+0x30>
 8049abe:	c6 05 01 21 00 00 02 	movb   $0x2,0x2101
 8049ac5:	90                   	nop
 8049ac6:	79 07                	jns    8049acf <adc2a_flags_cmp+0x3a>
 8049ac8:	c6 05 02 21 00 00 03 	movb   $0x3,0x2102
 8049acf:	90                   	nop
 8049ad0:	7b 07                	jnp    8049ad9 <adc2a_flags_cmp+0x44>
 8049ad2:	c6 05 03 21 00 00 04 	movb   $0x4,0x2103
 8049ad9:	90                   	nop
 8049ada:	71 07                	jno    8049ae3 <adc2a_flags_cmp+0x4e>
 8049adc:	c6 05 04 21 00 00 05 	movb   $0x5,0x2104
 8049ae3:	90                   	nop
 8049ae4:	c3                   	ret    

08049ae5 <adc2a_flags_cmp_constant>:
 8049ae5:	a1 00 11 00 00       	mov    0x1100,%eax
 8049aea:	8b 1d 04 11 00 00    	mov    0x1104,%ebx
 8049af0:	39 c3                	cmp    %eax,%ebx
 8049af2:	66 b8 01 00          	mov    $0x1,%ax
 8049af6:	66 15 10 00          	adc    $0x10,%ax
 8049afa:	66 a3 00 20 00 00    	mov    %ax,0x2000
 8049b00:	73 07                	jae    8049b09 <adc2a_flags_cmp_constant+0x24>
 8049b02:	c6 05 00 21 00 00 01 	movb   $0x1,0x2100
 8049b09:	90                   	nop
 8049b0a:	75 07                	jne    8049b13 <adc2a_flags_cmp_constant+0x2e>
 8049b0c:	c6 05 01 21 00 00 02 	movb   $0x2,0x2101
 8049b13:	90                   	nop
 8049b14:	79 07                	jns    8049b1d <adc2a_flags_cmp_constant+0x38>
 8049b16:	c6 05 02 21 00 00 03 	movb   $0x3,0x2102
 8049b1d:	90                   	nop
 8049b1e:	7b 07                	jnp    8049b27 <adc2a_flags_cmp_constant+0x42>
 8049b20:	c6 05 03 21 00 00 04 	movb   $0x4,0x2103
 8049b27:	90                   	nop
 8049b28:	71 07                	jno    8049b31 <adc2a_flags_cmp_constant+0x4c>
 8049b2a:	c6 05 04 21 00 00 05 	movb   $0x5,0x2104
 8049b31:	90                   	nop
 8049b32:	c3                   	ret    

08049b33 <adc2a_flags_cmp_allregs>:
 8049b33:	a1 00 11 00 00       	mov    0x1100,%eax
 8049b38:	8b 1d 04 11 00 00    	mov    0x1104,%ebx
 8049b3e:	39 c3                	cmp    %eax,%ebx
 8049b40:	a1 00 10 00 00       	mov    0x1000,%eax
 8049b45:	8b 1d 04 10 00 00    	mov    0x1004,%ebx
 8049b4b:	8b 0d 08 10 00 00    	mov    0x1008,%ecx
 8049b51:	8b 15 0c 10 00 00    	mov    0x100c,%edx
 8049b57:	8b 2d 10 10 00 00    	mov    0x1010,%ebp
 8049b5d:	8b 35 14 10 00 00    	mov    0x1014,%esi
 8049b63:	8b 3d 18 10 00 00    	mov    0x1018,%edi
 8049b69:	8b 25 1c 10 00 00    	mov    0x101c,%esp
 8049b6f:	66 15 10 00          	adc    $0x10,%ax
 8049b73:	a3 00 20 00 00       	mov    %eax,0x2000
 8049b78:	89 1d 04 20 00 00    	mov    %ebx,0x2004
 8049b7e:	89 0d 08 20 00 00    	mov    %ecx,0x2008
 8049b84:	89 15 0c 20 00 00    	mov    %edx,0x200c
 8049b8a:	89 2d 10 20 00 00    	mov    %ebp,0x2010
 8049b90:	89 35 14 20 00 00    	mov    %esi,0x2014
 8049b96:	89 3d 18 20 00 00    	mov    %edi,0x2018
 8049b9c:	89 25 1c 20 00 00    	mov    %esp,0x201c
 8049ba2:	c3                   	ret    

08049ba3 <adc3_flags_clear>:
 8049ba3:	b8 02 00 00 00       	mov    $0x2,%eax
 8049ba8:	48                   	dec    %eax
 8049ba9:	a1 00 10 00 00       	mov    0x1000,%eax
 8049bae:	83 d0 10             	adc    $0x10,%eax
 8049bb1:	a3 00 20 00 00       	mov    %eax,0x2000
 8049bb6:	73 07                	jae    8049bbf <adc3_flags_clear+0x1c>
 8049bb8:	c6 05 00 21 00 00 01 	movb   $0x1,0x2100
 8049bbf:	90                   	nop
 8049bc0:	75 07                	jne    8049bc9 <adc3_flags_clear+0x26>
 8049bc2:	c6 05 01 21 00 00 02 	movb   $0x2,0x2101
 8049bc9:	90                   	nop
 8049bca:	79 07                	jns    8049bd3 <adc3_flags_clear+0x30>
 8049bcc:	c6 05 02 21 00 00 03 	movb   $0x3,0x2102
 8049bd3:	90                   	nop
 8049bd4:	7b 07                	jnp    8049bdd <adc3_flags_clear+0x3a>
 8049bd6:	c6 05 03 21 00 00 04 	movb   $0x4,0x2103
 8049bdd:	90                   	nop
 8049bde:	71 07                	jno    8049be7 <adc3_flags_clear+0x44>
 8049be0:	c6 05 04 21 00 00 05 	movb   $0x5,0x2104
 8049be7:	90                   	nop
 8049be8:	c3                   	ret    

08049be9 <adc3_flags_clear_constant>:
 8049be9:	b8 02 00 00 00       	mov    $0x2,%eax
 8049bee:	48                   	dec    %eax
 8049bef:	b8 01 00 00 00       	mov    $0x1,%eax
 8049bf4:	83 d0 10             	adc    $0x10,%eax
 8049bf7:	a3 00 20 00 00       	mov    %eax,0x2000
 8049bfc:	73 07                	jae    8049c05 <adc3_flags_clear_constant+0x1c>
 8049bfe:	c6 05 00 21 00 00 01 	movb   $0x1,0x2100
 8049c05:	90                   	nop
 8049c06:	75 07                	jne    8049c0f <adc3_flags_clear_constant+0x26>
 8049c08:	c6 05 01 21 00 00 02 	movb   $0x2,0x2101
 8049c0f:	90                   	nop
 8049c10:	79 07                	jns    8049c19 <adc3_flags_clear_constant+0x30>
 8049c12:	c6 05 02 21 00 00 03 	movb   $0x3,0x2102
 8049c19:	90                   	nop
 8049c1a:	7b 07                	jnp    8049c23 <adc3_flags_clear_constant+0x3a>
 8049c1c:	c6 05 03 21 00 00 04 	movb   $0x4,0x2103
 8049c23:	90                   	nop
 8049c24:	71 07                	jno    8049c2d <adc3_flags_clear_constant+0x44>
 8049c26:	c6 05 04 21 00 00 05 	movb   $0x5,0x2104
 8049c2d:	90                   	nop
 8049c2e:	c3                   	ret    

08049c2f <adc3_flags_clear_allregs>:
 8049c2f:	b8 02 00 00 00       	mov    $0x2,%eax
 8049c34:	48                   	dec    %eax
 8049c35:	a1 00 10 00 00       	mov    0x1000,%eax
 8049c3a:	8b 1d 04 10 00 00    	mov    0x1004,%ebx
 8049c40:	8b 0d 08 10 00 00    	mov    0x1008,%ecx
 8049c46:	8b 15 0c 10 00 00    	mov    0x100c,%edx
 8049c4c:	8b 2d 10 10 00 00    	mov    0x1010,%ebp
 8049c52:	8b 35 14 10 00 00    	mov    0x1014,%esi
 8049c58:	8b 3d 18 10 00 00    	mov    0x1018,%edi
 8049c5e:	8b 25 1c 10 00 00    	mov    0x101c,%esp
 8049c64:	83 d0 10             	adc    $0x10,%eax
 8049c67:	a3 00 20 00 00       	mov    %eax,0x2000
 8049c6c:	89 1d 04 20 00 00    	mov    %ebx,0x2004
 8049c72:	89 0d 08 20 00 00    	mov    %ecx,0x2008
 8049c78:	89 15 0c 20 00 00    	mov    %edx,0x200c
 8049c7e:	89 2d 10 20 00 00    	mov    %ebp,0x2010
 8049c84:	89 35 14 20 00 00    	mov    %esi,0x2014
 8049c8a:	89 3d 18 20 00 00    	mov    %edi,0x2018
 8049c90:	89 25 1c 20 00 00    	mov    %esp,0x201c
 8049c96:	c3                   	ret    

08049c97 <adc3_flags_set1>:
 8049c97:	b8 00 00 00 00       	mov    $0x0,%eax
 8049c9c:	f7 d8                	neg    %eax
 8049c9e:	a1 00 10 00 00       	mov    0x1000,%eax
 8049ca3:	83 d0 10             	adc    $0x10,%eax
 8049ca6:	a3 00 20 00 00       	mov    %eax,0x2000
 8049cab:	73 07                	jae    8049cb4 <adc3_flags_set1+0x1d>
 8049cad:	c6 05 00 21 00 00 01 	movb   $0x1,0x2100
 8049cb4:	90                   	nop
 8049cb5:	75 07                	jne    8049cbe <adc3_flags_set1+0x27>
 8049cb7:	c6 05 01 21 00 00 02 	movb   $0x2,0x2101
 8049cbe:	90                   	nop
 8049cbf:	79 07                	jns    8049cc8 <adc3_flags_set1+0x31>
 8049cc1:	c6 05 02 21 00 00 03 	movb   $0x3,0x2102
 8049cc8:	90                   	nop
 8049cc9:	7b 07                	jnp    8049cd2 <adc3_flags_set1+0x3b>
 8049ccb:	c6 05 03 21 00 00 04 	movb   $0x4,0x2103
 8049cd2:	90                   	nop
 8049cd3:	71 07                	jno    8049cdc <adc3_flags_set1+0x45>
 8049cd5:	c6 05 04 21 00 00 05 	movb   $0x5,0x2104
 8049cdc:	90                   	nop
 8049cdd:	c3                   	ret    

08049cde <adc3_flags_set1_constant>:
 8049cde:	b8 00 00 00 00       	mov    $0x0,%eax
 8049ce3:	f7 d8                	neg    %eax
 8049ce5:	b8 01 00 00 00       	mov    $0x1,%eax
 8049cea:	83 d0 10             	adc    $0x10,%eax
 8049ced:	a3 00 20 00 00       	mov    %eax,0x2000
 8049cf2:	73 07                	jae    8049cfb <adc3_flags_set1_constant+0x1d>
 8049cf4:	c6 05 00 21 00 00 01 	movb   $0x1,0x2100
 8049cfb:	90                   	nop
 8049cfc:	75 07                	jne    8049d05 <adc3_flags_set1_constant+0x27>
 8049cfe:	c6 05 01 21 00 00 02 	movb   $0x2,0x2101
 8049d05:	90                   	nop
 8049d06:	79 07                	jns    8049d0f <adc3_flags_set1_constant+0x31>
 8049d08:	c6 05 02 21 00 00 03 	movb   $0x3,0x2102
 8049d0f:	90                   	nop
 8049d10:	7b 07                	jnp    8049d19 <adc3_flags_set1_constant+0x3b>
 8049d12:	c6 05 03 21 00 00 04 	movb   $0x4,0x2103
 8049d19:	90                   	nop
 8049d1a:	71 07                	jno    8049d23 <adc3_flags_set1_constant+0x45>
 8049d1c:	c6 05 04 21 00 00 05 	movb   $0x5,0x2104
 8049d23:	90                   	nop
 8049d24:	c3                   	ret    

08049d25 <adc3_flags_set1_allregs>:
 8049d25:	b8 00 00 00 00       	mov    $0x0,%eax
 8049d2a:	f7 d8                	neg    %eax
 8049d2c:	a1 00 10 00 00       	mov    0x1000,%eax
 8049d31:	8b 1d 04 10 00 00    	mov    0x1004,%ebx
 8049d37:	8b 0d 08 10 00 00    	mov    0x1008,%ecx
 8049d3d:	8b 15 0c 10 00 00    	mov    0x100c,%edx
 8049d43:	8b 2d 10 10 00 00    	mov    0x1010,%ebp
 8049d49:	8b 35 14 10 00 00    	mov    0x1014,%esi
 8049d4f:	8b 3d 18 10 00 00    	mov    0x1018,%edi
 8049d55:	8b 25 1c 10 00 00    	mov    0x101c,%esp
 8049d5b:	83 d0 10             	adc    $0x10,%eax
 8049d5e:	a3 00 20 00 00       	mov    %eax,0x2000
 8049d63:	89 1d 04 20 00 00    	mov    %ebx,0x2004
 8049d69:	89 0d 08 20 00 00    	mov    %ecx,0x2008
 8049d6f:	89 15 0c 20 00 00    	mov    %edx,0x200c
 8049d75:	89 2d 10 20 00 00    	mov    %ebp,0x2010
 8049d7b:	89 35 14 20 00 00    	mov    %esi,0x2014
 8049d81:	89 3d 18 20 00 00    	mov    %edi,0x2018
 8049d87:	89 25 1c 20 00 00    	mov    %esp,0x201c
 8049d8d:	c3                   	ret    

08049d8e <adc3_flags_set2>:
 8049d8e:	b8 02 00 00 00       	mov    $0x2,%eax
 8049d93:	f7 d8                	neg    %eax
 8049d95:	a1 00 10 00 00       	mov    0x1000,%eax
 8049d9a:	83 d0 10             	adc    $0x10,%eax
 8049d9d:	a3 00 20 00 00       	mov    %eax,0x2000
 8049da2:	73 07                	jae    8049dab <adc3_flags_set2+0x1d>
 8049da4:	c6 05 00 21 00 00 01 	movb   $0x1,0x2100
 8049dab:	90                   	nop
 8049dac:	75 07                	jne    8049db5 <adc3_flags_set2+0x27>
 8049dae:	c6 05 01 21 00 00 02 	movb   $0x2,0x2101
 8049db5:	90                   	nop
 8049db6:	79 07                	jns    8049dbf <adc3_flags_set2+0x31>
 8049db8:	c6 05 02 21 00 00 03 	movb   $0x3,0x2102
 8049dbf:	90                   	nop
 8049dc0:	7b 07                	jnp    8049dc9 <adc3_flags_set2+0x3b>
 8049dc2:	c6 05 03 21 00 00 04 	movb   $0x4,0x2103
 8049dc9:	90                   	nop
 8049dca:	71 07                	jno    8049dd3 <adc3_flags_set2+0x45>
 8049dcc:	c6 05 04 21 00 00 05 	movb   $0x5,0x2104
 8049dd3:	90                   	nop
 8049dd4:	c3                   	ret    

08049dd5 <adc3_flags_set2_constant>:
 8049dd5:	b8 02 00 00 00       	mov    $0x2,%eax
 8049dda:	f7 d8                	neg    %eax
 8049ddc:	b8 01 00 00 00       	mov    $0x1,%eax
 8049de1:	83 d0 10             	adc    $0x10,%eax
 8049de4:	a3 00 20 00 00       	mov    %eax,0x2000
 8049de9:	73 07                	jae    8049df2 <adc3_flags_set2_constant+0x1d>
 8049deb:	c6 05 00 21 00 00 01 	movb   $0x1,0x2100
 8049df2:	90                   	nop
 8049df3:	75 07                	jne    8049dfc <adc3_flags_set2_constant+0x27>
 8049df5:	c6 05 01 21 00 00 02 	movb   $0x2,0x2101
 8049dfc:	90                   	nop
 8049dfd:	79 07                	jns    8049e06 <adc3_flags_set2_constant+0x31>
 8049dff:	c6 05 02 21 00 00 03 	movb   $0x3,0x2102
 8049e06:	90                   	nop
 8049e07:	7b 07                	jnp    8049e10 <adc3_flags_set2_constant+0x3b>
 8049e09:	c6 05 03 21 00 00 04 	movb   $0x4,0x2103
 8049e10:	90                   	nop
 8049e11:	71 07                	jno    8049e1a <adc3_flags_set2_constant+0x45>
 8049e13:	c6 05 04 21 00 00 05 	movb   $0x5,0x2104
 8049e1a:	90                   	nop
 8049e1b:	c3                   	ret    

08049e1c <adc3_flags_set2_allregs>:
 8049e1c:	b8 02 00 00 00       	mov    $0x2,%eax
 8049e21:	f7 d8                	neg    %eax
 8049e23:	a1 00 10 00 00       	mov    0x1000,%eax
 8049e28:	8b 1d 04 10 00 00    	mov    0x1004,%ebx
 8049e2e:	8b 0d 08 10 00 00    	mov    0x1008,%ecx
 8049e34:	8b 15 0c 10 00 00    	mov    0x100c,%edx
 8049e3a:	8b 2d 10 10 00 00    	mov    0x1010,%ebp
 8049e40:	8b 35 14 10 00 00    	mov    0x1014,%esi
 8049e46:	8b 3d 18 10 00 00    	mov    0x1018,%edi
 8049e4c:	8b 25 1c 10 00 00    	mov    0x101c,%esp
 8049e52:	83 d0 10             	adc    $0x10,%eax
 8049e55:	a3 00 20 00 00       	mov    %eax,0x2000
 8049e5a:	89 1d 04 20 00 00    	mov    %ebx,0x2004
 8049e60:	89 0d 08 20 00 00    	mov    %ecx,0x2008
 8049e66:	89 15 0c 20 00 00    	mov    %edx,0x200c
 8049e6c:	89 2d 10 20 00 00    	mov    %ebp,0x2010
 8049e72:	89 35 14 20 00 00    	mov    %esi,0x2014
 8049e78:	89 3d 18 20 00 00    	mov    %edi,0x2018
 8049e7e:	89 25 1c 20 00 00    	mov    %esp,0x201c
 8049e84:	c3                   	ret    

08049e85 <adc3_flags_cmp>:
 8049e85:	a1 00 11 00 00       	mov    0x1100,%eax
 8049e8a:	8b 1d 04 11 00 00    	mov    0x1104,%ebx
 8049e90:	39 c3                	cmp    %eax,%ebx
 8049e92:	a1 00 10 00 00       	mov    0x1000,%eax
 8049e97:	83 d0 10             	adc    $0x10,%eax
 8049e9a:	a3 00 20 00 00       	mov    %eax,0x2000
 8049e9f:	73 07                	jae    8049ea8 <adc3_flags_cmp+0x23>
 8049ea1:	c6 05 00 21 00 00 01 	movb   $0x1,0x2100
 8049ea8:	90                   	nop
 8049ea9:	75 07                	jne    8049eb2 <adc3_flags_cmp+0x2d>
 8049eab:	c6 05 01 21 00 00 02 	movb   $0x2,0x2101
 8049eb2:	90                   	nop
 8049eb3:	79 07                	jns    8049ebc <adc3_flags_cmp+0x37>
 8049eb5:	c6 05 02 21 00 00 03 	movb   $0x3,0x2102
 8049ebc:	90                   	nop
 8049ebd:	7b 07                	jnp    8049ec6 <adc3_flags_cmp+0x41>
 8049ebf:	c6 05 03 21 00 00 04 	movb   $0x4,0x2103
 8049ec6:	90                   	nop
 8049ec7:	71 07                	jno    8049ed0 <adc3_flags_cmp+0x4b>
 8049ec9:	c6 05 04 21 00 00 05 	movb   $0x5,0x2104
 8049ed0:	90                   	nop
 8049ed1:	c3                   	ret    

08049ed2 <adc3_flags_cmp_constant>:
 8049ed2:	a1 00 11 00 00       	mov    0x1100,%eax
 8049ed7:	8b 1d 04 11 00 00    	mov    0x1104,%ebx
 8049edd:	39 c3                	cmp    %eax,%ebx
 8049edf:	b8 01 00 00 00       	mov    $0x1,%eax
 8049ee4:	83 d0 10             	adc    $0x10,%eax
 8049ee7:	a3 00 20 00 00       	mov    %eax,0x2000
 8049eec:	73 07                	jae    8049ef5 <adc3_flags_cmp_constant+0x23>
 8049eee:	c6 05 00 21 00 00 01 	movb   $0x1,0x2100
 8049ef5:	90                   	nop
 8049ef6:	75 07                	jne    8049eff <adc3_flags_cmp_constant+0x2d>
 8049ef8:	c6 05 01 21 00 00 02 	movb   $0x2,0x2101
 8049eff:	90                   	nop
 8049f00:	79 07                	jns    8049f09 <adc3_flags_cmp_constant+0x37>
 8049f02:	c6 05 02 21 00 00 03 	movb   $0x3,0x2102
 8049f09:	90                   	nop
 8049f0a:	7b 07                	jnp    8049f13 <adc3_flags_cmp_constant+0x41>
 8049f0c:	c6 05 03 21 00 00 04 	movb   $0x4,0x2103
 8049f13:	90                   	nop
 8049f14:	71 07                	jno    8049f1d <adc3_flags_cmp_constant+0x4b>
 8049f16:	c6 05 04 21 00 00 05 	movb   $0x5,0x2104
 8049f1d:	90                   	nop
 8049f1e:	c3                   	ret    

08049f1f <adc3_flags_cmp_allregs>:
 8049f1f:	a1 00 11 00 00       	mov    0x1100,%eax
 8049f24:	8b 1d 04 11 00 00    	mov    0x1104,%ebx
 8049f2a:	39 c3                	cmp    %eax,%ebx
 8049f2c:	a1 00 10 00 00       	mov    0x1000,%eax
 8049f31:	8b 1d 04 10 00 00    	mov    0x1004,%ebx
 8049f37:	8b 0d 08 10 00 00    	mov    0x1008,%ecx
 8049f3d:	8b 15 0c 10 00 00    	mov    0x100c,%edx
 8049f43:	8b 2d 10 10 00 00    	mov    0x1010,%ebp
 8049f49:	8b 35 14 10 00 00    	mov    0x1014,%esi
 8049f4f:	8b 3d 18 10 00 00    	mov    0x1018,%edi
 8049f55:	8b 25 1c 10 00 00    	mov    0x101c,%esp
 8049f5b:	83 d0 10             	adc    $0x10,%eax
 8049f5e:	a3 00 20 00 00       	mov    %eax,0x2000
 8049f63:	89 1d 04 20 00 00    	mov    %ebx,0x2004
 8049f69:	89 0d 08 20 00 00    	mov    %ecx,0x2008
 8049f6f:	89 15 0c 20 00 00    	mov    %edx,0x200c
 8049f75:	89 2d 10 20 00 00    	mov    %ebp,0x2010
 8049f7b:	89 35 14 20 00 00    	mov    %esi,0x2014
 8049f81:	89 3d 18 20 00 00    	mov    %edi,0x2018
 8049f87:	89 25 1c 20 00 00    	mov    %esp,0x201c
 8049f8d:	c3                   	ret    

08049f8e <adc3a_flags_clear>:
 8049f8e:	b8 02 00 00 00       	mov    $0x2,%eax
 8049f93:	48                   	dec    %eax
 8049f94:	a1 00 10 00 00       	mov    0x1000,%eax
 8049f99:	15 10 00 00 00       	adc    $0x10,%eax
 8049f9e:	a3 00 20 00 00       	mov    %eax,0x2000
 8049fa3:	73 07                	jae    8049fac <adc3a_flags_clear+0x1e>
 8049fa5:	c6 05 00 21 00 00 01 	movb   $0x1,0x2100
 8049fac:	90                   	nop
 8049fad:	75 07                	jne    8049fb6 <adc3a_flags_clear+0x28>
 8049faf:	c6 05 01 21 00 00 02 	movb   $0x2,0x2101
 8049fb6:	90                   	nop
 8049fb7:	79 07                	jns    8049fc0 <adc3a_flags_clear+0x32>
 8049fb9:	c6 05 02 21 00 00 03 	movb   $0x3,0x2102
 8049fc0:	90                   	nop
 8049fc1:	7b 07                	jnp    8049fca <adc3a_flags_clear+0x3c>
 8049fc3:	c6 05 03 21 00 00 04 	movb   $0x4,0x2103
 8049fca:	90                   	nop
 8049fcb:	71 07                	jno    8049fd4 <adc3a_flags_clear+0x46>
 8049fcd:	c6 05 04 21 00 00 05 	movb   $0x5,0x2104
 8049fd4:	90                   	nop
 8049fd5:	c3                   	ret    

08049fd6 <adc3a_flags_clear_constant>:
 8049fd6:	b8 02 00 00 00       	mov    $0x2,%eax
 8049fdb:	48                   	dec    %eax
 8049fdc:	b8 01 00 00 00       	mov    $0x1,%eax
 8049fe1:	15 10 00 00 00       	adc    $0x10,%eax
 8049fe6:	a3 00 20 00 00       	mov    %eax,0x2000
 8049feb:	73 07                	jae    8049ff4 <adc3a_flags_clear_constant+0x1e>
 8049fed:	c6 05 00 21 00 00 01 	movb   $0x1,0x2100
 8049ff4:	90                   	nop
 8049ff5:	75 07                	jne    8049ffe <adc3a_flags_clear_constant+0x28>
 8049ff7:	c6 05 01 21 00 00 02 	movb   $0x2,0x2101
 8049ffe:	90                   	nop
 8049fff:	79 07                	jns    804a008 <adc3a_flags_clear_constant+0x32>
 804a001:	c6 05 02 21 00 00 03 	movb   $0x3,0x2102
 804a008:	90                   	nop
 804a009:	7b 07                	jnp    804a012 <adc3a_flags_clear_constant+0x3c>
 804a00b:	c6 05 03 21 00 00 04 	movb   $0x4,0x2103
 804a012:	90                   	nop
 804a013:	71 07                	jno    804a01c <adc3a_flags_clear_constant+0x46>
 804a015:	c6 05 04 21 00 00 05 	movb   $0x5,0x2104
 804a01c:	90                   	nop
 804a01d:	c3                   	ret    

0804a01e <adc3a_flags_clear_allregs>:
 804a01e:	b8 02 00 00 00       	mov    $0x2,%eax
 804a023:	48                   	dec    %eax
 804a024:	a1 00 10 00 00       	mov    0x1000,%eax
 804a029:	8b 1d 04 10 00 00    	mov    0x1004,%ebx
 804a02f:	8b 0d 08 10 00 00    	mov    0x1008,%ecx
 804a035:	8b 15 0c 10 00 00    	mov    0x100c,%edx
 804a03b:	8b 2d 10 10 00 00    	mov    0x1010,%ebp
 804a041:	8b 35 14 10 00 00    	mov    0x1014,%esi
 804a047:	8b 3d 18 10 00 00    	mov    0x1018,%edi
 804a04d:	8b 25 1c 10 00 00    	mov    0x101c,%esp
 804a053:	15 10 00 00 00       	adc    $0x10,%eax
 804a058:	a3 00 20 00 00       	mov    %eax,0x2000
 804a05d:	89 1d 04 20 00 00    	mov    %ebx,0x2004
 804a063:	89 0d 08 20 00 00    	mov    %ecx,0x2008
 804a069:	89 15 0c 20 00 00    	mov    %edx,0x200c
 804a06f:	89 2d 10 20 00 00    	mov    %ebp,0x2010
 804a075:	89 35 14 20 00 00    	mov    %esi,0x2014
 804a07b:	89 3d 18 20 00 00    	mov    %edi,0x2018
 804a081:	89 25 1c 20 00 00    	mov    %esp,0x201c
 804a087:	c3                   	ret    

0804a088 <adc3a_flags_set1>:
 804a088:	b8 00 00 00 00       	mov    $0x0,%eax
 804a08d:	f7 d8                	neg    %eax
 804a08f:	a1 00 10 00 00       	mov    0x1000,%eax
 804a094:	15 10 00 00 00       	adc    $0x10,%eax
 804a099:	a3 00 20 00 00       	mov    %eax,0x2000
 804a09e:	73 07                	jae    804a0a7 <adc3a_flags_set1+0x1f>
 804a0a0:	c6 05 00 21 00 00 01 	movb   $0x1,0x2100
 804a0a7:	90                   	nop
 804a0a8:	75 07                	jne    804a0b1 <adc3a_flags_set1+0x29>
 804a0aa:	c6 05 01 21 00 00 02 	movb   $0x2,0x2101
 804a0b1:	90                   	nop
 804a0b2:	79 07                	jns    804a0bb <adc3a_flags_set1+0x33>
 804a0b4:	c6 05 02 21 00 00 03 	movb   $0x3,0x2102
 804a0bb:	90                   	nop
 804a0bc:	7b 07                	jnp    804a0c5 <adc3a_flags_set1+0x3d>
 804a0be:	c6 05 03 21 00 00 04 	movb   $0x4,0x2103
 804a0c5:	90                   	nop
 804a0c6:	71 07                	jno    804a0cf <adc3a_flags_set1+0x47>
 804a0c8:	c6 05 04 21 00 00 05 	movb   $0x5,0x2104
 804a0cf:	90                   	nop
 804a0d0:	c3                   	ret    

0804a0d1 <adc3a_flags_set1_constant>:
 804a0d1:	b8 00 00 00 00       	mov    $0x0,%eax
 804a0d6:	f7 d8                	neg    %eax
 804a0d8:	b8 01 00 00 00       	mov    $0x1,%eax
 804a0dd:	15 10 00 00 00       	adc    $0x10,%eax
 804a0e2:	a3 00 20 00 00       	mov    %eax,0x2000
 804a0e7:	73 07                	jae    804a0f0 <adc3a_flags_set1_constant+0x1f>
 804a0e9:	c6 05 00 21 00 00 01 	movb   $0x1,0x2100
 804a0f0:	90                   	nop
 804a0f1:	75 07                	jne    804a0fa <adc3a_flags_set1_constant+0x29>
 804a0f3:	c6 05 01 21 00 00 02 	movb   $0x2,0x2101
 804a0fa:	90                   	nop
 804a0fb:	79 07                	jns    804a104 <adc3a_flags_set1_constant+0x33>
 804a0fd:	c6 05 02 21 00 00 03 	movb   $0x3,0x2102
 804a104:	90                   	nop
 804a105:	7b 07                	jnp    804a10e <adc3a_flags_set1_constant+0x3d>
 804a107:	c6 05 03 21 00 00 04 	movb   $0x4,0x2103
 804a10e:	90                   	nop
 804a10f:	71 07                	jno    804a118 <adc3a_flags_set1_constant+0x47>
 804a111:	c6 05 04 21 00 00 05 	movb   $0x5,0x2104
 804a118:	90                   	nop
 804a119:	c3                   	ret    

0804a11a <adc3a_flags_set1_allregs>:
 804a11a:	b8 00 00 00 00       	mov    $0x0,%eax
 804a11f:	f7 d8                	neg    %eax
 804a121:	a1 00 10 00 00       	mov    0x1000,%eax
 804a126:	8b 1d 04 10 00 00    	mov    0x1004,%ebx
 804a12c:	8b 0d 08 10 00 00    	mov    0x1008,%ecx
 804a132:	8b 15 0c 10 00 00    	mov    0x100c,%edx
 804a138:	8b 2d 10 10 00 00    	mov    0x1010,%ebp
 804a13e:	8b 35 14 10 00 00    	mov    0x1014,%esi
 804a144:	8b 3d 18 10 00 00    	mov    0x1018,%edi
 804a14a:	8b 25 1c 10 00 00    	mov    0x101c,%esp
 804a150:	15 10 00 00 00       	adc    $0x10,%eax
 804a155:	a3 00 20 00 00       	mov    %eax,0x2000
 804a15a:	89 1d 04 20 00 00    	mov    %ebx,0x2004
 804a160:	89 0d 08 20 00 00    	mov    %ecx,0x2008
 804a166:	89 15 0c 20 00 00    	mov    %edx,0x200c
 804a16c:	89 2d 10 20 00 00    	mov    %ebp,0x2010
 804a172:	89 35 14 20 00 00    	mov    %esi,0x2014
 804a178:	89 3d 18 20 00 00    	mov    %edi,0x2018
 804a17e:	89 25 1c 20 00 00    	mov    %esp,0x201c
 804a184:	c3                   	ret    

0804a185 <adc3a_flags_set2>:
 804a185:	b8 02 00 00 00       	mov    $0x2,%eax
 804a18a:	f7 d8                	neg    %eax
 804a18c:	a1 00 10 00 00       	mov    0x1000,%eax
 804a191:	15 10 00 00 00       	adc    $0x10,%eax
 804a196:	a3 00 20 00 00       	mov    %eax,0x2000
 804a19b:	73 07                	jae    804a1a4 <adc3a_flags_set2+0x1f>
 804a19d:	c6 05 00 21 00 00 01 	movb   $0x1,0x2100
 804a1a4:	90                   	nop
 804a1a5:	75 07                	jne    804a1ae <adc3a_flags_set2+0x29>
 804a1a7:	c6 05 01 21 00 00 02 	movb   $0x2,0x2101
 804a1ae:	90                   	nop
 804a1af:	79 07                	jns    804a1b8 <adc3a_flags_set2+0x33>
 804a1b1:	c6 05 02 21 00 00 03 	movb   $0x3,0x2102
 804a1b8:	90                   	nop
 804a1b9:	7b 07                	jnp    804a1c2 <adc3a_flags_set2+0x3d>
 804a1bb:	c6 05 03 21 00 00 04 	movb   $0x4,0x2103
 804a1c2:	90                   	nop
 804a1c3:	71 07                	jno    804a1cc <adc3a_flags_set2+0x47>
 804a1c5:	c6 05 04 21 00 00 05 	movb   $0x5,0x2104
 804a1cc:	90                   	nop
 804a1cd:	c3                   	ret    

0804a1ce <adc3a_flags_set2_constant>:
 804a1ce:	b8 02 00 00 00       	mov    $0x2,%eax
 804a1d3:	f7 d8                	neg    %eax
 804a1d5:	b8 01 00 00 00       	mov    $0x1,%eax
 804a1da:	15 10 00 00 00       	adc    $0x10,%eax
 804a1df:	a3 00 20 00 00       	mov    %eax,0x2000
 804a1e4:	73 07                	jae    804a1ed <adc3a_flags_set2_constant+0x1f>
 804a1e6:	c6 05 00 21 00 00 01 	movb   $0x1,0x2100
 804a1ed:	90                   	nop
 804a1ee:	75 07                	jne    804a1f7 <adc3a_flags_set2_constant+0x29>
 804a1f0:	c6 05 01 21 00 00 02 	movb   $0x2,0x2101
 804a1f7:	90                   	nop
 804a1f8:	79 07                	jns    804a201 <adc3a_flags_set2_constant+0x33>
 804a1fa:	c6 05 02 21 00 00 03 	movb   $0x3,0x2102
 804a201:	90                   	nop
 804a202:	7b 07                	jnp    804a20b <adc3a_flags_set2_constant+0x3d>
 804a204:	c6 05 03 21 00 00 04 	movb   $0x4,0x2103
 804a20b:	90                   	nop
 804a20c:	71 07                	jno    804a215 <adc3a_flags_set2_constant+0x47>
 804a20e:	c6 05 04 21 00 00 05 	movb   $0x5,0x2104
 804a215:	90                   	nop
 804a216:	c3                   	ret    

0804a217 <adc3a_flags_set2_allregs>:
 804a217:	b8 02 00 00 00       	mov    $0x2,%eax
 804a21c:	f7 d8                	neg    %eax
 804a21e:	a1 00 10 00 00       	mov    0x1000,%eax
 804a223:	8b 1d 04 10 00 00    	mov    0x1004,%ebx
 804a229:	8b 0d 08 10 00 00    	mov    0x1008,%ecx
 804a22f:	8b 15 0c 10 00 00    	mov    0x100c,%edx
 804a235:	8b 2d 10 10 00 00    	mov    0x1010,%ebp
 804a23b:	8b 35 14 10 00 00    	mov    0x1014,%esi
 804a241:	8b 3d 18 10 00 00    	mov    0x1018,%edi
 804a247:	8b 25 1c 10 00 00    	mov    0x101c,%esp
 804a24d:	15 10 00 00 00       	adc    $0x10,%eax
 804a252:	a3 00 20 00 00       	mov    %eax,0x2000
 804a257:	89 1d 04 20 00 00    	mov    %ebx,0x2004
 804a25d:	89 0d 08 20 00 00    	mov    %ecx,0x2008
 804a263:	89 15 0c 20 00 00    	mov    %edx,0x200c
 804a269:	89 2d 10 20 00 00    	mov    %ebp,0x2010
 804a26f:	89 35 14 20 00 00    	mov    %esi,0x2014
 804a275:	89 3d 18 20 00 00    	mov    %edi,0x2018
 804a27b:	89 25 1c 20 00 00    	mov    %esp,0x201c
 804a281:	c3                   	ret    

0804a282 <adc3a_flags_cmp>:
 804a282:	a1 00 11 00 00       	mov    0x1100,%eax
 804a287:	8b 1d 04 11 00 00    	mov    0x1104,%ebx
 804a28d:	39 c3                	cmp    %eax,%ebx
 804a28f:	a1 00 10 00 00       	mov    0x1000,%eax
 804a294:	15 10 00 00 00       	adc    $0x10,%eax
 804a299:	a3 00 20 00 00       	mov    %eax,0x2000
 804a29e:	73 07                	jae    804a2a7 <adc3a_flags_cmp+0x25>
 804a2a0:	c6 05 00 21 00 00 01 	movb   $0x1,0x2100
 804a2a7:	90                   	nop
 804a2a8:	75 07                	jne    804a2b1 <adc3a_flags_cmp+0x2f>
 804a2aa:	c6 05 01 21 00 00 02 	movb   $0x2,0x2101
 804a2b1:	90                   	nop
 804a2b2:	79 07                	jns    804a2bb <adc3a_flags_cmp+0x39>
 804a2b4:	c6 05 02 21 00 00 03 	movb   $0x3,0x2102
 804a2bb:	90                   	nop
 804a2bc:	7b 07                	jnp    804a2c5 <adc3a_flags_cmp+0x43>
 804a2be:	c6 05 03 21 00 00 04 	movb   $0x4,0x2103
 804a2c5:	90                   	nop
 804a2c6:	71 07                	jno    804a2cf <adc3a_flags_cmp+0x4d>
 804a2c8:	c6 05 04 21 00 00 05 	movb   $0x5,0x2104
 804a2cf:	90                   	nop
 804a2d0:	c3                   	ret    

0804a2d1 <adc3a_flags_cmp_constant>:
 804a2d1:	a1 00 11 00 00       	mov    0x1100,%eax
 804a2d6:	8b 1d 04 11 00 00    	mov    0x1104,%ebx
 804a2dc:	39 c3                	cmp    %eax,%ebx
 804a2de:	b8 01 00 00 00       	mov    $0x1,%eax
 804a2e3:	15 10 00 00 00       	adc    $0x10,%eax
 804a2e8:	a3 00 20 00 00       	mov    %eax,0x2000
 804a2ed:	73 07                	jae    804a2f6 <adc3a_flags_cmp_constant+0x25>
 804a2ef:	c6 05 00 21 00 00 01 	movb   $0x1,0x2100
 804a2f6:	90                   	nop
 804a2f7:	75 07                	jne    804a300 <adc3a_flags_cmp_constant+0x2f>
 804a2f9:	c6 05 01 21 00 00 02 	movb   $0x2,0x2101
 804a300:	90                   	nop
 804a301:	79 07                	jns    804a30a <adc3a_flags_cmp_constant+0x39>
 804a303:	c6 05 02 21 00 00 03 	movb   $0x3,0x2102
 804a30a:	90                   	nop
 804a30b:	7b 07                	jnp    804a314 <adc3a_flags_cmp_constant+0x43>
 804a30d:	c6 05 03 21 00 00 04 	movb   $0x4,0x2103
 804a314:	90                   	nop
 804a315:	71 07                	jno    804a31e <adc3a_flags_cmp_constant+0x4d>
 804a317:	c6 05 04 21 00 00 05 	movb   $0x5,0x2104
 804a31e:	90                   	nop
 804a31f:	c3                   	ret    

0804a320 <adc3a_flags_cmp_allregs>:
 804a320:	a1 00 11 00 00       	mov    0x1100,%eax
 804a325:	8b 1d 04 11 00 00    	mov    0x1104,%ebx
 804a32b:	39 c3                	cmp    %eax,%ebx
 804a32d:	a1 00 10 00 00       	mov    0x1000,%eax
 804a332:	8b 1d 04 10 00 00    	mov    0x1004,%ebx
 804a338:	8b 0d 08 10 00 00    	mov    0x1008,%ecx
 804a33e:	8b 15 0c 10 00 00    	mov    0x100c,%edx
 804a344:	8b 2d 10 10 00 00    	mov    0x1010,%ebp
 804a34a:	8b 35 14 10 00 00    	mov    0x1014,%esi
 804a350:	8b 3d 18 10 00 00    	mov    0x1018,%edi
 804a356:	8b 25 1c 10 00 00    	mov    0x101c,%esp
 804a35c:	15 10 00 00 00       	adc    $0x10,%eax
 804a361:	a3 00 20 00 00       	mov    %eax,0x2000
 804a366:	89 1d 04 20 00 00    	mov    %ebx,0x2004
 804a36c:	89 0d 08 20 00 00    	mov    %ecx,0x2008
 804a372:	89 15 0c 20 00 00    	mov    %edx,0x200c
 804a378:	89 2d 10 20 00 00    	mov    %ebp,0x2010
 804a37e:	89 35 14 20 00 00    	mov    %esi,0x2014
 804a384:	89 3d 18 20 00 00    	mov    %edi,0x2018
 804a38a:	89 25 1c 20 00 00    	mov    %esp,0x201c
 804a390:	c3                   	ret    

0804a391 <adc4_flags_clear>:
 804a391:	b8 02 00 00 00       	mov    $0x2,%eax
 804a396:	48                   	dec    %eax
 804a397:	a1 00 10 00 00       	mov    0x1000,%eax
 804a39c:	8b 2d 04 10 00 00    	mov    0x1004,%ebp
 804a3a2:	13 45 08             	adc    0x8(%ebp),%eax
 804a3a5:	a3 00 20 00 00       	mov    %eax,0x2000
 804a3aa:	73 07                	jae    804a3b3 <adc4_flags_clear+0x22>
 804a3ac:	c6 05 00 21 00 00 01 	movb   $0x1,0x2100
 804a3b3:	90                   	nop
 804a3b4:	75 07                	jne    804a3bd <adc4_flags_clear+0x2c>
 804a3b6:	c6 05 01 21 00 00 02 	movb   $0x2,0x2101
 804a3bd:	90                   	nop
 804a3be:	79 07                	jns    804a3c7 <adc4_flags_clear+0x36>
 804a3c0:	c6 05 02 21 00 00 03 	movb   $0x3,0x2102
 804a3c7:	90                   	nop
 804a3c8:	7b 07                	jnp    804a3d1 <adc4_flags_clear+0x40>
 804a3ca:	c6 05 03 21 00 00 04 	movb   $0x4,0x2103
 804a3d1:	90                   	nop
 804a3d2:	71 07                	jno    804a3db <adc4_flags_clear+0x4a>
 804a3d4:	c6 05 04 21 00 00 05 	movb   $0x5,0x2104
 804a3db:	90                   	nop
 804a3dc:	c3                   	ret    

0804a3dd <adc4_flags_clear_constant>:
 804a3dd:	b8 02 00 00 00       	mov    $0x2,%eax
 804a3e2:	48                   	dec    %eax
 804a3e3:	b8 01 00 00 00       	mov    $0x1,%eax
 804a3e8:	bd 02 00 00 00       	mov    $0x2,%ebp
 804a3ed:	13 45 08             	adc    0x8(%ebp),%eax
 804a3f0:	a3 00 20 00 00       	mov    %eax,0x2000
 804a3f5:	73 07                	jae    804a3fe <adc4_flags_clear_constant+0x21>
 804a3f7:	c6 05 00 21 00 00 01 	movb   $0x1,0x2100
 804a3fe:	90                   	nop
 804a3ff:	75 07                	jne    804a408 <adc4_flags_clear_constant+0x2b>
 804a401:	c6 05 01 21 00 00 02 	movb   $0x2,0x2101
 804a408:	90                   	nop
 804a409:	79 07                	jns    804a412 <adc4_flags_clear_constant+0x35>
 804a40b:	c6 05 02 21 00 00 03 	movb   $0x3,0x2102
 804a412:	90                   	nop
 804a413:	7b 07                	jnp    804a41c <adc4_flags_clear_constant+0x3f>
 804a415:	c6 05 03 21 00 00 04 	movb   $0x4,0x2103
 804a41c:	90                   	nop
 804a41d:	71 07                	jno    804a426 <adc4_flags_clear_constant+0x49>
 804a41f:	c6 05 04 21 00 00 05 	movb   $0x5,0x2104
 804a426:	90                   	nop
 804a427:	c3                   	ret    

0804a428 <adc4_flags_clear_allregs>:
 804a428:	b8 02 00 00 00       	mov    $0x2,%eax
 804a42d:	48                   	dec    %eax
 804a42e:	a1 00 10 00 00       	mov    0x1000,%eax
 804a433:	8b 1d 04 10 00 00    	mov    0x1004,%ebx
 804a439:	8b 0d 08 10 00 00    	mov    0x1008,%ecx
 804a43f:	8b 15 0c 10 00 00    	mov    0x100c,%edx
 804a445:	8b 2d 10 10 00 00    	mov    0x1010,%ebp
 804a44b:	8b 35 14 10 00 00    	mov    0x1014,%esi
 804a451:	8b 3d 18 10 00 00    	mov    0x1018,%edi
 804a457:	8b 25 1c 10 00 00    	mov    0x101c,%esp
 804a45d:	13 45 08             	adc    0x8(%ebp),%eax
 804a460:	a3 00 20 00 00       	mov    %eax,0x2000
 804a465:	89 1d 04 20 00 00    	mov    %ebx,0x2004
 804a46b:	89 0d 08 20 00 00    	mov    %ecx,0x2008
 804a471:	89 15 0c 20 00 00    	mov    %edx,0x200c
 804a477:	89 2d 10 20 00 00    	mov    %ebp,0x2010
 804a47d:	89 35 14 20 00 00    	mov    %esi,0x2014
 804a483:	89 3d 18 20 00 00    	mov    %edi,0x2018
 804a489:	89 25 1c 20 00 00    	mov    %esp,0x201c
 804a48f:	c3                   	ret    

0804a490 <adc4_flags_set1>:
 804a490:	b8 00 00 00 00       	mov    $0x0,%eax
 804a495:	f7 d8                	neg    %eax
 804a497:	a1 00 10 00 00       	mov    0x1000,%eax
 804a49c:	8b 2d 04 10 00 00    	mov    0x1004,%ebp
 804a4a2:	13 45 08             	adc    0x8(%ebp),%eax
 804a4a5:	a3 00 20 00 00       	mov    %eax,0x2000
 804a4aa:	73 07                	jae    804a4b3 <adc4_flags_set1+0x23>
 804a4ac:	c6 05 00 21 00 00 01 	movb   $0x1,0x2100
 804a4b3:	90                   	nop
 804a4b4:	75 07                	jne    804a4bd <adc4_flags_set1+0x2d>
 804a4b6:	c6 05 01 21 00 00 02 	movb   $0x2,0x2101
 804a4bd:	90                   	nop
 804a4be:	79 07                	jns    804a4c7 <adc4_flags_set1+0x37>
 804a4c0:	c6 05 02 21 00 00 03 	movb   $0x3,0x2102
 804a4c7:	90                   	nop
 804a4c8:	7b 07                	jnp    804a4d1 <adc4_flags_set1+0x41>
 804a4ca:	c6 05 03 21 00 00 04 	movb   $0x4,0x2103
 804a4d1:	90                   	nop
 804a4d2:	71 07                	jno    804a4db <adc4_flags_set1+0x4b>
 804a4d4:	c6 05 04 21 00 00 05 	movb   $0x5,0x2104
 804a4db:	90                   	nop
 804a4dc:	c3                   	ret    

0804a4dd <adc4_flags_set1_constant>:
 804a4dd:	b8 00 00 00 00       	mov    $0x0,%eax
 804a4e2:	f7 d8                	neg    %eax
 804a4e4:	b8 01 00 00 00       	mov    $0x1,%eax
 804a4e9:	bd 02 00 00 00       	mov    $0x2,%ebp
 804a4ee:	13 45 08             	adc    0x8(%ebp),%eax
 804a4f1:	a3 00 20 00 00       	mov    %eax,0x2000
 804a4f6:	73 07                	jae    804a4ff <adc4_flags_set1_constant+0x22>
 804a4f8:	c6 05 00 21 00 00 01 	movb   $0x1,0x2100
 804a4ff:	90                   	nop
 804a500:	75 07                	jne    804a509 <adc4_flags_set1_constant+0x2c>
 804a502:	c6 05 01 21 00 00 02 	movb   $0x2,0x2101
 804a509:	90                   	nop
 804a50a:	79 07                	jns    804a513 <adc4_flags_set1_constant+0x36>
 804a50c:	c6 05 02 21 00 00 03 	movb   $0x3,0x2102
 804a513:	90                   	nop
 804a514:	7b 07                	jnp    804a51d <adc4_flags_set1_constant+0x40>
 804a516:	c6 05 03 21 00 00 04 	movb   $0x4,0x2103
 804a51d:	90                   	nop
 804a51e:	71 07                	jno    804a527 <adc4_flags_set1_constant+0x4a>
 804a520:	c6 05 04 21 00 00 05 	movb   $0x5,0x2104
 804a527:	90                   	nop
 804a528:	c3                   	ret    

0804a529 <adc4_flags_set1_allregs>:
 804a529:	b8 00 00 00 00       	mov    $0x0,%eax
 804a52e:	f7 d8                	neg    %eax
 804a530:	a1 00 10 00 00       	mov    0x1000,%eax
 804a535:	8b 1d 04 10 00 00    	mov    0x1004,%ebx
 804a53b:	8b 0d 08 10 00 00    	mov    0x1008,%ecx
 804a541:	8b 15 0c 10 00 00    	mov    0x100c,%edx
 804a547:	8b 2d 10 10 00 00    	mov    0x1010,%ebp
 804a54d:	8b 35 14 10 00 00    	mov    0x1014,%esi
 804a553:	8b 3d 18 10 00 00    	mov    0x1018,%edi
 804a559:	8b 25 1c 10 00 00    	mov    0x101c,%esp
 804a55f:	13 45 08             	adc    0x8(%ebp),%eax
 804a562:	a3 00 20 00 00       	mov    %eax,0x2000
 804a567:	89 1d 04 20 00 00    	mov    %ebx,0x2004
 804a56d:	89 0d 08 20 00 00    	mov    %ecx,0x2008
 804a573:	89 15 0c 20 00 00    	mov    %edx,0x200c
 804a579:	89 2d 10 20 00 00    	mov    %ebp,0x2010
 804a57f:	89 35 14 20 00 00    	mov    %esi,0x2014
 804a585:	89 3d 18 20 00 00    	mov    %edi,0x2018
 804a58b:	89 25 1c 20 00 00    	mov    %esp,0x201c
 804a591:	c3                   	ret    

0804a592 <adc4_flags_set2>:
 804a592:	b8 02 00 00 00       	mov    $0x2,%eax
 804a597:	f7 d8                	neg    %eax
 804a599:	a1 00 10 00 00       	mov    0x1000,%eax
 804a59e:	8b 2d 04 10 00 00    	mov    0x1004,%ebp
 804a5a4:	13 45 08             	adc    0x8(%ebp),%eax
 804a5a7:	a3 00 20 00 00       	mov    %eax,0x2000
 804a5ac:	73 07                	jae    804a5b5 <adc4_flags_set2+0x23>
 804a5ae:	c6 05 00 21 00 00 01 	movb   $0x1,0x2100
 804a5b5:	90                   	nop
 804a5b6:	75 07                	jne    804a5bf <adc4_flags_set2+0x2d>
 804a5b8:	c6 05 01 21 00 00 02 	movb   $0x2,0x2101
 804a5bf:	90                   	nop
 804a5c0:	79 07                	jns    804a5c9 <adc4_flags_set2+0x37>
 804a5c2:	c6 05 02 21 00 00 03 	movb   $0x3,0x2102
 804a5c9:	90                   	nop
 804a5ca:	7b 07                	jnp    804a5d3 <adc4_flags_set2+0x41>
 804a5cc:	c6 05 03 21 00 00 04 	movb   $0x4,0x2103
 804a5d3:	90                   	nop
 804a5d4:	71 07                	jno    804a5dd <adc4_flags_set2+0x4b>
 804a5d6:	c6 05 04 21 00 00 05 	movb   $0x5,0x2104
 804a5dd:	90                   	nop
 804a5de:	c3                   	ret    

0804a5df <adc4_flags_set2_constant>:
 804a5df:	b8 02 00 00 00       	mov    $0x2,%eax
 804a5e4:	f7 d8                	neg    %eax
 804a5e6:	b8 01 00 00 00       	mov    $0x1,%eax
 804a5eb:	bd 02 00 00 00       	mov    $0x2,%ebp
 804a5f0:	13 45 08             	adc    0x8(%ebp),%eax
 804a5f3:	a3 00 20 00 00       	mov    %eax,0x2000
 804a5f8:	73 07                	jae    804a601 <adc4_flags_set2_constant+0x22>
 804a5fa:	c6 05 00 21 00 00 01 	movb   $0x1,0x2100
 804a601:	90                   	nop
 804a602:	75 07                	jne    804a60b <adc4_flags_set2_constant+0x2c>
 804a604:	c6 05 01 21 00 00 02 	movb   $0x2,0x2101
 804a60b:	90                   	nop
 804a60c:	79 07                	jns    804a615 <adc4_flags_set2_constant+0x36>
 804a60e:	c6 05 02 21 00 00 03 	movb   $0x3,0x2102
 804a615:	90                   	nop
 804a616:	7b 07                	jnp    804a61f <adc4_flags_set2_constant+0x40>
 804a618:	c6 05 03 21 00 00 04 	movb   $0x4,0x2103
 804a61f:	90                   	nop
 804a620:	71 07                	jno    804a629 <adc4_flags_set2_constant+0x4a>
 804a622:	c6 05 04 21 00 00 05 	movb   $0x5,0x2104
 804a629:	90                   	nop
 804a62a:	c3                   	ret    

0804a62b <adc4_flags_set2_allregs>:
 804a62b:	b8 02 00 00 00       	mov    $0x2,%eax
 804a630:	f7 d8                	neg    %eax
 804a632:	a1 00 10 00 00       	mov    0x1000,%eax
 804a637:	8b 1d 04 10 00 00    	mov    0x1004,%ebx
 804a63d:	8b 0d 08 10 00 00    	mov    0x1008,%ecx
 804a643:	8b 15 0c 10 00 00    	mov    0x100c,%edx
 804a649:	8b 2d 10 10 00 00    	mov    0x1010,%ebp
 804a64f:	8b 35 14 10 00 00    	mov    0x1014,%esi
 804a655:	8b 3d 18 10 00 00    	mov    0x1018,%edi
 804a65b:	8b 25 1c 10 00 00    	mov    0x101c,%esp
 804a661:	13 45 08             	adc    0x8(%ebp),%eax
 804a664:	a3 00 20 00 00       	mov    %eax,0x2000
 804a669:	89 1d 04 20 00 00    	mov    %ebx,0x2004
 804a66f:	89 0d 08 20 00 00    	mov    %ecx,0x2008
 804a675:	89 15 0c 20 00 00    	mov    %edx,0x200c
 804a67b:	89 2d 10 20 00 00    	mov    %ebp,0x2010
 804a681:	89 35 14 20 00 00    	mov    %esi,0x2014
 804a687:	89 3d 18 20 00 00    	mov    %edi,0x2018
 804a68d:	89 25 1c 20 00 00    	mov    %esp,0x201c
 804a693:	c3                   	ret    

0804a694 <adc4_flags_cmp>:
 804a694:	a1 00 11 00 00       	mov    0x1100,%eax
 804a699:	8b 1d 04 11 00 00    	mov    0x1104,%ebx
 804a69f:	39 c3                	cmp    %eax,%ebx
 804a6a1:	a1 00 10 00 00       	mov    0x1000,%eax
 804a6a6:	8b 2d 04 10 00 00    	mov    0x1004,%ebp
 804a6ac:	13 45 08             	adc    0x8(%ebp),%eax
 804a6af:	a3 00 20 00 00       	mov    %eax,0x2000
 804a6b4:	73 07                	jae    804a6bd <adc4_flags_cmp+0x29>
 804a6b6:	c6 05 00 21 00 00 01 	movb   $0x1,0x2100
 804a6bd:	90                   	nop
 804a6be:	75 07                	jne    804a6c7 <adc4_flags_cmp+0x33>
 804a6c0:	c6 05 01 21 00 00 02 	movb   $0x2,0x2101
 804a6c7:	90                   	nop
 804a6c8:	79 07                	jns    804a6d1 <adc4_flags_cmp+0x3d>
 804a6ca:	c6 05 02 21 00 00 03 	movb   $0x3,0x2102
 804a6d1:	90                   	nop
 804a6d2:	7b 07                	jnp    804a6db <adc4_flags_cmp+0x47>
 804a6d4:	c6 05 03 21 00 00 04 	movb   $0x4,0x2103
 804a6db:	90                   	nop
 804a6dc:	71 07                	jno    804a6e5 <adc4_flags_cmp+0x51>
 804a6de:	c6 05 04 21 00 00 05 	movb   $0x5,0x2104
 804a6e5:	90                   	nop
 804a6e6:	c3                   	ret    

0804a6e7 <adc4_flags_cmp_constant>:
 804a6e7:	a1 00 11 00 00       	mov    0x1100,%eax
 804a6ec:	8b 1d 04 11 00 00    	mov    0x1104,%ebx
 804a6f2:	39 c3                	cmp    %eax,%ebx
 804a6f4:	b8 01 00 00 00       	mov    $0x1,%eax
 804a6f9:	bd 02 00 00 00       	mov    $0x2,%ebp
 804a6fe:	13 45 08             	adc    0x8(%ebp),%eax
 804a701:	a3 00 20 00 00       	mov    %eax,0x2000
 804a706:	73 07                	jae    804a70f <adc4_flags_cmp_constant+0x28>
 804a708:	c6 05 00 21 00 00 01 	movb   $0x1,0x2100
 804a70f:	90                   	nop
 804a710:	75 07                	jne    804a719 <adc4_flags_cmp_constant+0x32>
 804a712:	c6 05 01 21 00 00 02 	movb   $0x2,0x2101
 804a719:	90                   	nop
 804a71a:	79 07                	jns    804a723 <adc4_flags_cmp_constant+0x3c>
 804a71c:	c6 05 02 21 00 00 03 	movb   $0x3,0x2102
 804a723:	90                   	nop
 804a724:	7b 07                	jnp    804a72d <adc4_flags_cmp_constant+0x46>
 804a726:	c6 05 03 21 00 00 04 	movb   $0x4,0x2103
 804a72d:	90                   	nop
 804a72e:	71 07                	jno    804a737 <adc4_flags_cmp_constant+0x50>
 804a730:	c6 05 04 21 00 00 05 	movb   $0x5,0x2104
 804a737:	90                   	nop
 804a738:	c3                   	ret    

0804a739 <adc4_flags_cmp_allregs>:
 804a739:	a1 00 11 00 00       	mov    0x1100,%eax
 804a73e:	8b 1d 04 11 00 00    	mov    0x1104,%ebx
 804a744:	39 c3                	cmp    %eax,%ebx
 804a746:	a1 00 10 00 00       	mov    0x1000,%eax
 804a74b:	8b 1d 04 10 00 00    	mov    0x1004,%ebx
 804a751:	8b 0d 08 10 00 00    	mov    0x1008,%ecx
 804a757:	8b 15 0c 10 00 00    	mov    0x100c,%edx
 804a75d:	8b 2d 10 10 00 00    	mov    0x1010,%ebp
 804a763:	8b 35 14 10 00 00    	mov    0x1014,%esi
 804a769:	8b 3d 18 10 00 00    	mov    0x1018,%edi
 804a76f:	8b 25 1c 10 00 00    	mov    0x101c,%esp
 804a775:	13 45 08             	adc    0x8(%ebp),%eax
 804a778:	a3 00 20 00 00       	mov    %eax,0x2000
 804a77d:	89 1d 04 20 00 00    	mov    %ebx,0x2004
 804a783:	89 0d 08 20 00 00    	mov    %ecx,0x2008
 804a789:	89 15 0c 20 00 00    	mov    %edx,0x200c
 804a78f:	89 2d 10 20 00 00    	mov    %ebp,0x2010
 804a795:	89 35 14 20 00 00    	mov    %esi,0x2014
 804a79b:	89 3d 18 20 00 00    	mov    %edi,0x2018
 804a7a1:	89 25 1c 20 00 00    	mov    %esp,0x201c
 804a7a7:	c3                   	ret    

0804a7a8 <adc_locked>:
 804a7a8:	f0 13 45 08          	lock adc 0x8(%ebp),%eax
 804a7ac:	c3                   	ret    

0804a7ad <adc_locked_constant>:
 804a7ad:	f0 13 45 08          	lock adc 0x8(%ebp),%eax
 804a7b1:	c3                   	ret    

0804a7b2 <adc_locked_allregs>:
 804a7b2:	a1 00 10 00 00       	mov    0x1000,%eax
 804a7b7:	8b 1d 04 10 00 00    	mov    0x1004,%ebx
 804a7bd:	8b 0d 08 10 00 00    	mov    0x1008,%ecx
 804a7c3:	8b 15 0c 10 00 00    	mov    0x100c,%edx
 804a7c9:	8b 2d 10 10 00 00    	mov    0x1010,%ebp
 804a7cf:	8b 35 14 10 00 00    	mov    0x1014,%esi
 804a7d5:	8b 3d 18 10 00 00    	mov    0x1018,%edi
 804a7db:	8b 25 1c 10 00 00    	mov    0x101c,%esp
 804a7e1:	f0 13 45 08          	lock adc 0x8(%ebp),%eax
 804a7e5:	a3 00 20 00 00       	mov    %eax,0x2000
 804a7ea:	89 1d 04 20 00 00    	mov    %ebx,0x2004
 804a7f0:	89 0d 08 20 00 00    	mov    %ecx,0x2008
 804a7f6:	89 15 0c 20 00 00    	mov    %edx,0x200c
 804a7fc:	89 2d 10 20 00 00    	mov    %ebp,0x2010
 804a802:	89 35 14 20 00 00    	mov    %esi,0x2014
 804a808:	89 3d 18 20 00 00    	mov    %edi,0x2018
 804a80e:	89 25 1c 20 00 00    	mov    %esp,0x201c
 804a814:	c3                   	ret    

0804a815 <add1>:
 804a815:	a0 00 10 00 00       	mov    0x1000,%al
 804a81a:	04 02                	add    $0x2,%al
 804a81c:	a2 00 20 00 00       	mov    %al,0x2000
 804a821:	73 07                	jae    804a82a <add1+0x15>
 804a823:	c6 05 00 21 00 00 01 	movb   $0x1,0x2100
 804a82a:	90                   	nop
 804a82b:	75 07                	jne    804a834 <add1+0x1f>
 804a82d:	c6 05 01 21 00 00 02 	movb   $0x2,0x2101
 804a834:	90                   	nop
 804a835:	79 07                	jns    804a83e <add1+0x29>
 804a837:	c6 05 02 21 00 00 03 	movb   $0x3,0x2102
 804a83e:	90                   	nop
 804a83f:	7b 07                	jnp    804a848 <add1+0x33>
 804a841:	c6 05 03 21 00 00 04 	movb   $0x4,0x2103
 804a848:	90                   	nop
 804a849:	71 07                	jno    804a852 <add1+0x3d>
 804a84b:	c6 05 04 21 00 00 05 	movb   $0x5,0x2104
 804a852:	90                   	nop
 804a853:	c3                   	ret    

0804a854 <add1_constant>:
 804a854:	b0 01                	mov    $0x1,%al
 804a856:	04 02                	add    $0x2,%al
 804a858:	a2 00 20 00 00       	mov    %al,0x2000
 804a85d:	73 07                	jae    804a866 <add1_constant+0x12>
 804a85f:	c6 05 00 21 00 00 01 	movb   $0x1,0x2100
 804a866:	90                   	nop
 804a867:	75 07                	jne    804a870 <add1_constant+0x1c>
 804a869:	c6 05 01 21 00 00 02 	movb   $0x2,0x2101
 804a870:	90                   	nop
 804a871:	79 07                	jns    804a87a <add1_constant+0x26>
 804a873:	c6 05 02 21 00 00 03 	movb   $0x3,0x2102
 804a87a:	90                   	nop
 804a87b:	7b 07                	jnp    804a884 <add1_constant+0x30>
 804a87d:	c6 05 03 21 00 00 04 	movb   $0x4,0x2103
 804a884:	90                   	nop
 804a885:	71 07                	jno    804a88e <add1_constant+0x3a>
 804a887:	c6 05 04 21 00 00 05 	movb   $0x5,0x2104
 804a88e:	90                   	nop
 804a88f:	c3                   	ret    

0804a890 <add1_allregs>:
 804a890:	a1 00 10 00 00       	mov    0x1000,%eax
 804a895:	8b 1d 04 10 00 00    	mov    0x1004,%ebx
 804a89b:	8b 0d 08 10 00 00    	mov    0x1008,%ecx
 804a8a1:	8b 15 0c 10 00 00    	mov    0x100c,%edx
 804a8a7:	8b 2d 10 10 00 00    	mov    0x1010,%ebp
 804a8ad:	8b 35 14 10 00 00    	mov    0x1014,%esi
 804a8b3:	8b 3d 18 10 00 00    	mov    0x1018,%edi
 804a8b9:	8b 25 1c 10 00 00    	mov    0x101c,%esp
 804a8bf:	04 02                	add    $0x2,%al
 804a8c1:	a3 00 20 00 00       	mov    %eax,0x2000
 804a8c6:	89 1d 04 20 00 00    	mov    %ebx,0x2004
 804a8cc:	89 0d 08 20 00 00    	mov    %ecx,0x2008
 804a8d2:	89 15 0c 20 00 00    	mov    %edx,0x200c
 804a8d8:	89 2d 10 20 00 00    	mov    %ebp,0x2010
 804a8de:	89 35 14 20 00 00    	mov    %esi,0x2014
 804a8e4:	89 3d 18 20 00 00    	mov    %edi,0x2018
 804a8ea:	89 25 1c 20 00 00    	mov    %esp,0x201c
 804a8f0:	c3                   	ret    

0804a8f1 <add2>:
 804a8f1:	a0 00 10 00 00       	mov    0x1000,%al
 804a8f6:	04 fe                	add    $0xfe,%al
 804a8f8:	a2 00 20 00 00       	mov    %al,0x2000
 804a8fd:	73 07                	jae    804a906 <add2+0x15>
 804a8ff:	c6 05 00 21 00 00 01 	movb   $0x1,0x2100
 804a906:	90                   	nop
 804a907:	75 07                	jne    804a910 <add2+0x1f>
 804a909:	c6 05 01 21 00 00 02 	movb   $0x2,0x2101
 804a910:	90                   	nop
 804a911:	79 07                	jns    804a91a <add2+0x29>
 804a913:	c6 05 02 21 00 00 03 	movb   $0x3,0x2102
 804a91a:	90                   	nop
 804a91b:	7b 07                	jnp    804a924 <add2+0x33>
 804a91d:	c6 05 03 21 00 00 04 	movb   $0x4,0x2103
 804a924:	90                   	nop
 804a925:	71 07                	jno    804a92e <add2+0x3d>
 804a927:	c6 05 04 21 00 00 05 	movb   $0x5,0x2104
 804a92e:	90                   	nop
 804a92f:	c3                   	ret    

0804a930 <add2_constant>:
 804a930:	b0 01                	mov    $0x1,%al
 804a932:	04 fe                	add    $0xfe,%al
 804a934:	a2 00 20 00 00       	mov    %al,0x2000
 804a939:	73 07                	jae    804a942 <add2_constant+0x12>
 804a93b:	c6 05 00 21 00 00 01 	movb   $0x1,0x2100
 804a942:	90                   	nop
 804a943:	75 07                	jne    804a94c <add2_constant+0x1c>
 804a945:	c6 05 01 21 00 00 02 	movb   $0x2,0x2101
 804a94c:	90                   	nop
 804a94d:	79 07                	jns    804a956 <add2_constant+0x26>
 804a94f:	c6 05 02 21 00 00 03 	movb   $0x3,0x2102
 804a956:	90                   	nop
 804a957:	7b 07                	jnp    804a960 <add2_constant+0x30>
 804a959:	c6 05 03 21 00 00 04 	movb   $0x4,0x2103
 804a960:	90                   	nop
 804a961:	71 07                	jno    804a96a <add2_constant+0x3a>
 804a963:	c6 05 04 21 00 00 05 	movb   $0x5,0x2104
 804a96a:	90                   	nop
 804a96b:	c3                   	ret    

0804a96c <add2_allregs>:
 804a96c:	a1 00 10 00 00       	mov    0x1000,%eax
 804a971:	8b 1d 04 10 00 00    	mov    0x1004,%ebx
 804a977:	8b 0d 08 10 00 00    	mov    0x1008,%ecx
 804a97d:	8b 15 0c 10 00 00    	mov    0x100c,%edx
 804a983:	8b 2d 10 10 00 00    	mov    0x1010,%ebp
 804a989:	8b 35 14 10 00 00    	mov    0x1014,%esi
 804a98f:	8b 3d 18 10 00 00    	mov    0x1018,%edi
 804a995:	8b 25 1c 10 00 00    	mov    0x101c,%esp
 804a99b:	04 fe                	add    $0xfe,%al
 804a99d:	a3 00 20 00 00       	mov    %eax,0x2000
 804a9a2:	89 1d 04 20 00 00    	mov    %ebx,0x2004
 804a9a8:	89 0d 08 20 00 00    	mov    %ecx,0x2008
 804a9ae:	89 15 0c 20 00 00    	mov    %edx,0x200c
 804a9b4:	89 2d 10 20 00 00    	mov    %ebp,0x2010
 804a9ba:	89 35 14 20 00 00    	mov    %esi,0x2014
 804a9c0:	89 3d 18 20 00 00    	mov    %edi,0x2018
 804a9c6:	89 25 1c 20 00 00    	mov    %esp,0x201c
 804a9cc:	c3                   	ret    

0804a9cd <add3>:
 804a9cd:	66 a1 00 10 00 00    	mov    0x1000,%ax
 804a9d3:	66 05 02 00          	add    $0x2,%ax
 804a9d7:	66 a3 00 20 00 00    	mov    %ax,0x2000
 804a9dd:	73 07                	jae    804a9e6 <add3+0x19>
 804a9df:	c6 05 00 21 00 00 01 	movb   $0x1,0x2100
 804a9e6:	90                   	nop
 804a9e7:	75 07                	jne    804a9f0 <add3+0x23>
 804a9e9:	c6 05 01 21 00 00 02 	movb   $0x2,0x2101
 804a9f0:	90                   	nop
 804a9f1:	79 07                	jns    804a9fa <add3+0x2d>
 804a9f3:	c6 05 02 21 00 00 03 	movb   $0x3,0x2102
 804a9fa:	90                   	nop
 804a9fb:	7b 07                	jnp    804aa04 <add3+0x37>
 804a9fd:	c6 05 03 21 00 00 04 	movb   $0x4,0x2103
 804aa04:	90                   	nop
 804aa05:	71 07                	jno    804aa0e <add3+0x41>
 804aa07:	c6 05 04 21 00 00 05 	movb   $0x5,0x2104
 804aa0e:	90                   	nop
 804aa0f:	c3                   	ret    

0804aa10 <add3_constant>:
 804aa10:	66 b8 01 00          	mov    $0x1,%ax
 804aa14:	66 05 02 00          	add    $0x2,%ax
 804aa18:	66 a3 00 20 00 00    	mov    %ax,0x2000
 804aa1e:	73 07                	jae    804aa27 <add3_constant+0x17>
 804aa20:	c6 05 00 21 00 00 01 	movb   $0x1,0x2100
 804aa27:	90                   	nop
 804aa28:	75 07                	jne    804aa31 <add3_constant+0x21>
 804aa2a:	c6 05 01 21 00 00 02 	movb   $0x2,0x2101
 804aa31:	90                   	nop
 804aa32:	79 07                	jns    804aa3b <add3_constant+0x2b>
 804aa34:	c6 05 02 21 00 00 03 	movb   $0x3,0x2102
 804aa3b:	90                   	nop
 804aa3c:	7b 07                	jnp    804aa45 <add3_constant+0x35>
 804aa3e:	c6 05 03 21 00 00 04 	movb   $0x4,0x2103
 804aa45:	90                   	nop
 804aa46:	71 07                	jno    804aa4f <add3_constant+0x3f>
 804aa48:	c6 05 04 21 00 00 05 	movb   $0x5,0x2104
 804aa4f:	90                   	nop
 804aa50:	c3                   	ret    

0804aa51 <add3_allregs>:
 804aa51:	a1 00 10 00 00       	mov    0x1000,%eax
 804aa56:	8b 1d 04 10 00 00    	mov    0x1004,%ebx
 804aa5c:	8b 0d 08 10 00 00    	mov    0x1008,%ecx
 804aa62:	8b 15 0c 10 00 00    	mov    0x100c,%edx
 804aa68:	8b 2d 10 10 00 00    	mov    0x1010,%ebp
 804aa6e:	8b 35 14 10 00 00    	mov    0x1014,%esi
 804aa74:	8b 3d 18 10 00 00    	mov    0x1018,%edi
 804aa7a:	8b 25 1c 10 00 00    	mov    0x101c,%esp
 804aa80:	66 05 02 00          	add    $0x2,%ax
 804aa84:	a3 00 20 00 00       	mov    %eax,0x2000
 804aa89:	89 1d 04 20 00 00    	mov    %ebx,0x2004
 804aa8f:	89 0d 08 20 00 00    	mov    %ecx,0x2008
 804aa95:	89 15 0c 20 00 00    	mov    %edx,0x200c
 804aa9b:	89 2d 10 20 00 00    	mov    %ebp,0x2010
 804aaa1:	89 35 14 20 00 00    	mov    %esi,0x2014
 804aaa7:	89 3d 18 20 00 00    	mov    %edi,0x2018
 804aaad:	89 25 1c 20 00 00    	mov    %esp,0x201c
 804aab3:	c3                   	ret    

0804aab4 <add4>:
 804aab4:	66 a1 00 10 00 00    	mov    0x1000,%ax
 804aaba:	66 05 fe ff          	add    $0xfffe,%ax
 804aabe:	66 a3 00 20 00 00    	mov    %ax,0x2000
 804aac4:	73 07                	jae    804aacd <add4+0x19>
 804aac6:	c6 05 00 21 00 00 01 	movb   $0x1,0x2100
 804aacd:	90                   	nop
 804aace:	75 07                	jne    804aad7 <add4+0x23>
 804aad0:	c6 05 01 21 00 00 02 	movb   $0x2,0x2101
 804aad7:	90                   	nop
 804aad8:	79 07                	jns    804aae1 <add4+0x2d>
 804aada:	c6 05 02 21 00 00 03 	movb   $0x3,0x2102
 804aae1:	90                   	nop
 804aae2:	7b 07                	jnp    804aaeb <add4+0x37>
 804aae4:	c6 05 03 21 00 00 04 	movb   $0x4,0x2103
 804aaeb:	90                   	nop
 804aaec:	71 07                	jno    804aaf5 <add4+0x41>
 804aaee:	c6 05 04 21 00 00 05 	movb   $0x5,0x2104
 804aaf5:	90                   	nop
 804aaf6:	c3                   	ret    

0804aaf7 <add4_constant>:
 804aaf7:	66 b8 01 00          	mov    $0x1,%ax
 804aafb:	66 05 fe ff          	add    $0xfffe,%ax
 804aaff:	66 a3 00 20 00 00    	mov    %ax,0x2000
 804ab05:	73 07                	jae    804ab0e <add4_constant+0x17>
 804ab07:	c6 05 00 21 00 00 01 	movb   $0x1,0x2100
 804ab0e:	90                   	nop
 804ab0f:	75 07                	jne    804ab18 <add4_constant+0x21>
 804ab11:	c6 05 01 21 00 00 02 	movb   $0x2,0x2101
 804ab18:	90                   	nop
 804ab19:	79 07                	jns    804ab22 <add4_constant+0x2b>
 804ab1b:	c6 05 02 21 00 00 03 	movb   $0x3,0x2102
 804ab22:	90                   	nop
 804ab23:	7b 07                	jnp    804ab2c <add4_constant+0x35>
 804ab25:	c6 05 03 21 00 00 04 	movb   $0x4,0x2103
 804ab2c:	90                   	nop
 804ab2d:	71 07                	jno    804ab36 <add4_constant+0x3f>
 804ab2f:	c6 05 04 21 00 00 05 	movb   $0x5,0x2104
 804ab36:	90                   	nop
 804ab37:	c3                   	ret    

0804ab38 <add4_allregs>:
 804ab38:	a1 00 10 00 00       	mov    0x1000,%eax
 804ab3d:	8b 1d 04 10 00 00    	mov    0x1004,%ebx
 804ab43:	8b 0d 08 10 00 00    	mov    0x1008,%ecx
 804ab49:	8b 15 0c 10 00 00    	mov    0x100c,%edx
 804ab4f:	8b 2d 10 10 00 00    	mov    0x1010,%ebp
 804ab55:	8b 35 14 10 00 00    	mov    0x1014,%esi
 804ab5b:	8b 3d 18 10 00 00    	mov    0x1018,%edi
 804ab61:	8b 25 1c 10 00 00    	mov    0x101c,%esp
 804ab67:	66 05 fe ff          	add    $0xfffe,%ax
 804ab6b:	a3 00 20 00 00       	mov    %eax,0x2000
 804ab70:	89 1d 04 20 00 00    	mov    %ebx,0x2004
 804ab76:	89 0d 08 20 00 00    	mov    %ecx,0x2008
 804ab7c:	89 15 0c 20 00 00    	mov    %edx,0x200c
 804ab82:	89 2d 10 20 00 00    	mov    %ebp,0x2010
 804ab88:	89 35 14 20 00 00    	mov    %esi,0x2014
 804ab8e:	89 3d 18 20 00 00    	mov    %edi,0x2018
 804ab94:	89 25 1c 20 00 00    	mov    %esp,0x201c
 804ab9a:	c3                   	ret    

0804ab9b <add5>:
 804ab9b:	a1 00 10 00 00       	mov    0x1000,%eax
 804aba0:	05 02 00 00 00       	add    $0x2,%eax
 804aba5:	a3 00 20 00 00       	mov    %eax,0x2000
 804abaa:	73 07                	jae    804abb3 <add5+0x18>
 804abac:	c6 05 00 21 00 00 01 	movb   $0x1,0x2100
 804abb3:	90                   	nop
 804abb4:	75 07                	jne    804abbd <add5+0x22>
 804abb6:	c6 05 01 21 00 00 02 	movb   $0x2,0x2101
 804abbd:	90                   	nop
 804abbe:	79 07                	jns    804abc7 <add5+0x2c>
 804abc0:	c6 05 02 21 00 00 03 	movb   $0x3,0x2102
 804abc7:	90                   	nop
 804abc8:	7b 07                	jnp    804abd1 <add5+0x36>
 804abca:	c6 05 03 21 00 00 04 	movb   $0x4,0x2103
 804abd1:	90                   	nop
 804abd2:	71 07                	jno    804abdb <add5+0x40>
 804abd4:	c6 05 04 21 00 00 05 	movb   $0x5,0x2104
 804abdb:	90                   	nop
 804abdc:	c3                   	ret    

0804abdd <add5_constant>:
 804abdd:	b8 01 00 00 00       	mov    $0x1,%eax
 804abe2:	05 02 00 00 00       	add    $0x2,%eax
 804abe7:	a3 00 20 00 00       	mov    %eax,0x2000
 804abec:	73 07                	jae    804abf5 <add5_constant+0x18>
 804abee:	c6 05 00 21 00 00 01 	movb   $0x1,0x2100
 804abf5:	90                   	nop
 804abf6:	75 07                	jne    804abff <add5_constant+0x22>
 804abf8:	c6 05 01 21 00 00 02 	movb   $0x2,0x2101
 804abff:	90                   	nop
 804ac00:	79 07                	jns    804ac09 <add5_constant+0x2c>
 804ac02:	c6 05 02 21 00 00 03 	movb   $0x3,0x2102
 804ac09:	90                   	nop
 804ac0a:	7b 07                	jnp    804ac13 <add5_constant+0x36>
 804ac0c:	c6 05 03 21 00 00 04 	movb   $0x4,0x2103
 804ac13:	90                   	nop
 804ac14:	71 07                	jno    804ac1d <add5_constant+0x40>
 804ac16:	c6 05 04 21 00 00 05 	movb   $0x5,0x2104
 804ac1d:	90                   	nop
 804ac1e:	c3                   	ret    

0804ac1f <add5_allregs>:
 804ac1f:	a1 00 10 00 00       	mov    0x1000,%eax
 804ac24:	8b 1d 04 10 00 00    	mov    0x1004,%ebx
 804ac2a:	8b 0d 08 10 00 00    	mov    0x1008,%ecx
 804ac30:	8b 15 0c 10 00 00    	mov    0x100c,%edx
 804ac36:	8b 2d 10 10 00 00    	mov    0x1010,%ebp
 804ac3c:	8b 35 14 10 00 00    	mov    0x1014,%esi
 804ac42:	8b 3d 18 10 00 00    	mov    0x1018,%edi
 804ac48:	8b 25 1c 10 00 00    	mov    0x101c,%esp
 804ac4e:	05 02 00 00 00       	add    $0x2,%eax
 804ac53:	a3 00 20 00 00       	mov    %eax,0x2000
 804ac58:	89 1d 04 20 00 00    	mov    %ebx,0x2004
 804ac5e:	89 0d 08 20 00 00    	mov    %ecx,0x2008
 804ac64:	89 15 0c 20 00 00    	mov    %edx,0x200c
 804ac6a:	89 2d 10 20 00 00    	mov    %ebp,0x2010
 804ac70:	89 35 14 20 00 00    	mov    %esi,0x2014
 804ac76:	89 3d 18 20 00 00    	mov    %edi,0x2018
 804ac7c:	89 25 1c 20 00 00    	mov    %esp,0x201c
 804ac82:	c3                   	ret    

0804ac83 <add6>:
 804ac83:	a1 00 10 00 00       	mov    0x1000,%eax
 804ac88:	05 fe ff ff ff       	add    $0xfffffffe,%eax
 804ac8d:	a3 00 20 00 00       	mov    %eax,0x2000
 804ac92:	73 07                	jae    804ac9b <add6+0x18>
 804ac94:	c6 05 00 21 00 00 01 	movb   $0x1,0x2100
 804ac9b:	90                   	nop
 804ac9c:	75 07                	jne    804aca5 <add6+0x22>
 804ac9e:	c6 05 01 21 00 00 02 	movb   $0x2,0x2101
 804aca5:	90                   	nop
 804aca6:	79 07                	jns    804acaf <add6+0x2c>
 804aca8:	c6 05 02 21 00 00 03 	movb   $0x3,0x2102
 804acaf:	90                   	nop
 804acb0:	7b 07                	jnp    804acb9 <add6+0x36>
 804acb2:	c6 05 03 21 00 00 04 	movb   $0x4,0x2103
 804acb9:	90                   	nop
 804acba:	71 07                	jno    804acc3 <add6+0x40>
 804acbc:	c6 05 04 21 00 00 05 	movb   $0x5,0x2104
 804acc3:	90                   	nop
 804acc4:	c3                   	ret    

0804acc5 <add6_constant>:
 804acc5:	b8 01 00 00 00       	mov    $0x1,%eax
 804acca:	05 fe ff ff ff       	add    $0xfffffffe,%eax
 804accf:	a3 00 20 00 00       	mov    %eax,0x2000
 804acd4:	73 07                	jae    804acdd <add6_constant+0x18>
 804acd6:	c6 05 00 21 00 00 01 	movb   $0x1,0x2100
 804acdd:	90                   	nop
 804acde:	75 07                	jne    804ace7 <add6_constant+0x22>
 804ace0:	c6 05 01 21 00 00 02 	movb   $0x2,0x2101
 804ace7:	90                   	nop
 804ace8:	79 07                	jns    804acf1 <add6_constant+0x2c>
 804acea:	c6 05 02 21 00 00 03 	movb   $0x3,0x2102
 804acf1:	90                   	nop
 804acf2:	7b 07                	jnp    804acfb <add6_constant+0x36>
 804acf4:	c6 05 03 21 00 00 04 	movb   $0x4,0x2103
 804acfb:	90                   	nop
 804acfc:	71 07                	jno    804ad05 <add6_constant+0x40>
 804acfe:	c6 05 04 21 00 00 05 	movb   $0x5,0x2104
 804ad05:	90                   	nop
 804ad06:	c3                   	ret    

0804ad07 <add6_allregs>:
 804ad07:	a1 00 10 00 00       	mov    0x1000,%eax
 804ad0c:	8b 1d 04 10 00 00    	mov    0x1004,%ebx
 804ad12:	8b 0d 08 10 00 00    	mov    0x1008,%ecx
 804ad18:	8b 15 0c 10 00 00    	mov    0x100c,%edx
 804ad1e:	8b 2d 10 10 00 00    	mov    0x1010,%ebp
 804ad24:	8b 35 14 10 00 00    	mov    0x1014,%esi
 804ad2a:	8b 3d 18 10 00 00    	mov    0x1018,%edi
 804ad30:	8b 25 1c 10 00 00    	mov    0x101c,%esp
 804ad36:	05 fe ff ff ff       	add    $0xfffffffe,%eax
 804ad3b:	a3 00 20 00 00       	mov    %eax,0x2000
 804ad40:	89 1d 04 20 00 00    	mov    %ebx,0x2004
 804ad46:	89 0d 08 20 00 00    	mov    %ecx,0x2008
 804ad4c:	89 15 0c 20 00 00    	mov    %edx,0x200c
 804ad52:	89 2d 10 20 00 00    	mov    %ebp,0x2010
 804ad58:	89 35 14 20 00 00    	mov    %esi,0x2014
 804ad5e:	89 3d 18 20 00 00    	mov    %edi,0x2018
 804ad64:	89 25 1c 20 00 00    	mov    %esp,0x201c
 804ad6a:	c3                   	ret    

0804ad6b <add7>:
 804ad6b:	a1 00 10 00 00       	mov    0x1000,%eax
 804ad70:	8b 2d 04 10 00 00    	mov    0x1004,%ebp
 804ad76:	03 45 08             	add    0x8(%ebp),%eax
 804ad79:	a3 00 20 00 00       	mov    %eax,0x2000
 804ad7e:	73 07                	jae    804ad87 <add7+0x1c>
 804ad80:	c6 05 00 21 00 00 01 	movb   $0x1,0x2100
 804ad87:	90                   	nop
 804ad88:	75 07                	jne    804ad91 <add7+0x26>
 804ad8a:	c6 05 01 21 00 00 02 	movb   $0x2,0x2101
 804ad91:	90                   	nop
 804ad92:	79 07                	jns    804ad9b <add7+0x30>
 804ad94:	c6 05 02 21 00 00 03 	movb   $0x3,0x2102
 804ad9b:	90                   	nop
 804ad9c:	7b 07                	jnp    804ada5 <add7+0x3a>
 804ad9e:	c6 05 03 21 00 00 04 	movb   $0x4,0x2103
 804ada5:	90                   	nop
 804ada6:	71 07                	jno    804adaf <add7+0x44>
 804ada8:	c6 05 04 21 00 00 05 	movb   $0x5,0x2104
 804adaf:	90                   	nop
 804adb0:	c3                   	ret    

0804adb1 <add7_constant>:
 804adb1:	b8 01 00 00 00       	mov    $0x1,%eax
 804adb6:	bd 02 00 00 00       	mov    $0x2,%ebp
 804adbb:	03 45 08             	add    0x8(%ebp),%eax
 804adbe:	a3 00 20 00 00       	mov    %eax,0x2000
 804adc3:	73 07                	jae    804adcc <add7_constant+0x1b>
 804adc5:	c6 05 00 21 00 00 01 	movb   $0x1,0x2100
 804adcc:	90                   	nop
 804adcd:	75 07                	jne    804add6 <add7_constant+0x25>
 804adcf:	c6 05 01 21 00 00 02 	movb   $0x2,0x2101
 804add6:	90                   	nop
 804add7:	79 07                	jns    804ade0 <add7_constant+0x2f>
 804add9:	c6 05 02 21 00 00 03 	movb   $0x3,0x2102
 804ade0:	90                   	nop
 804ade1:	7b 07                	jnp    804adea <add7_constant+0x39>
 804ade3:	c6 05 03 21 00 00 04 	movb   $0x4,0x2103
 804adea:	90                   	nop
 804adeb:	71 07                	jno    804adf4 <add7_constant+0x43>
 804aded:	c6 05 04 21 00 00 05 	movb   $0x5,0x2104
 804adf4:	90                   	nop
 804adf5:	c3                   	ret    

0804adf6 <add7_allregs>:
 804adf6:	a1 00 10 00 00       	mov    0x1000,%eax
 804adfb:	8b 1d 04 10 00 00    	mov    0x1004,%ebx
 804ae01:	8b 0d 08 10 00 00    	mov    0x1008,%ecx
 804ae07:	8b 15 0c 10 00 00    	mov    0x100c,%edx
 804ae0d:	8b 2d 10 10 00 00    	mov    0x1010,%ebp
 804ae13:	8b 35 14 10 00 00    	mov    0x1014,%esi
 804ae19:	8b 3d 18 10 00 00    	mov    0x1018,%edi
 804ae1f:	8b 25 1c 10 00 00    	mov    0x101c,%esp
 804ae25:	03 45 08             	add    0x8(%ebp),%eax
 804ae28:	a3 00 20 00 00       	mov    %eax,0x2000
 804ae2d:	89 1d 04 20 00 00    	mov    %ebx,0x2004
 804ae33:	89 0d 08 20 00 00    	mov    %ecx,0x2008
 804ae39:	89 15 0c 20 00 00    	mov    %edx,0x200c
 804ae3f:	89 2d 10 20 00 00    	mov    %ebp,0x2010
 804ae45:	89 35 14 20 00 00    	mov    %esi,0x2014
 804ae4b:	89 3d 18 20 00 00    	mov    %edi,0x2018
 804ae51:	89 25 1c 20 00 00    	mov    %esp,0x201c
 804ae57:	c3                   	ret    

0804ae58 <add_locked>:
 804ae58:	f0 03 45 08          	lock add 0x8(%ebp),%eax
 804ae5c:	c3                   	ret    

0804ae5d <add_locked_constant>:
 804ae5d:	f0 03 45 08          	lock add 0x8(%ebp),%eax
 804ae61:	c3                   	ret    

0804ae62 <add_locked_allregs>:
 804ae62:	a1 00 10 00 00       	mov    0x1000,%eax
 804ae67:	8b 1d 04 10 00 00    	mov    0x1004,%ebx
 804ae6d:	8b 0d 08 10 00 00    	mov    0x1008,%ecx
 804ae73:	8b 15 0c 10 00 00    	mov    0x100c,%edx
 804ae79:	8b 2d 10 10 00 00    	mov    0x1010,%ebp
 804ae7f:	8b 35 14 10 00 00    	mov    0x1014,%esi
 804ae85:	8b 3d 18 10 00 00    	mov    0x1018,%edi
 804ae8b:	8b 25 1c 10 00 00    	mov    0x101c,%esp
 804ae91:	f0 03 45 08          	lock add 0x8(%ebp),%eax
 804ae95:	a3 00 20 00 00       	mov    %eax,0x2000
 804ae9a:	89 1d 04 20 00 00    	mov    %ebx,0x2004
 804aea0:	89 0d 08 20 00 00    	mov    %ecx,0x2008
 804aea6:	89 15 0c 20 00 00    	mov    %edx,0x200c
 804aeac:	89 2d 10 20 00 00    	mov    %ebp,0x2010
 804aeb2:	89 35 14 20 00 00    	mov    %esi,0x2014
 804aeb8:	89 3d 18 20 00 00    	mov    %edi,0x2018
 804aebe:	89 25 1c 20 00 00    	mov    %esp,0x201c
 804aec4:	c3                   	ret    

0804aec5 <and1>:
 804aec5:	a0 00 10 00 00       	mov    0x1000,%al
 804aeca:	24 02                	and    $0x2,%al
 804aecc:	a2 00 20 00 00       	mov    %al,0x2000
 804aed1:	73 07                	jae    804aeda <and1+0x15>
 804aed3:	c6 05 00 21 00 00 01 	movb   $0x1,0x2100
 804aeda:	90                   	nop
 804aedb:	75 07                	jne    804aee4 <and1+0x1f>
 804aedd:	c6 05 01 21 00 00 02 	movb   $0x2,0x2101
 804aee4:	90                   	nop
 804aee5:	79 07                	jns    804aeee <and1+0x29>
 804aee7:	c6 05 02 21 00 00 03 	movb   $0x3,0x2102
 804aeee:	90                   	nop
 804aeef:	7b 07                	jnp    804aef8 <and1+0x33>
 804aef1:	c6 05 03 21 00 00 04 	movb   $0x4,0x2103
 804aef8:	90                   	nop
 804aef9:	71 07                	jno    804af02 <and1+0x3d>
 804aefb:	c6 05 04 21 00 00 05 	movb   $0x5,0x2104
 804af02:	90                   	nop
 804af03:	c3                   	ret    

0804af04 <and1_constant>:
 804af04:	b0 01                	mov    $0x1,%al
 804af06:	24 02                	and    $0x2,%al
 804af08:	a2 00 20 00 00       	mov    %al,0x2000
 804af0d:	73 07                	jae    804af16 <and1_constant+0x12>
 804af0f:	c6 05 00 21 00 00 01 	movb   $0x1,0x2100
 804af16:	90                   	nop
 804af17:	75 07                	jne    804af20 <and1_constant+0x1c>
 804af19:	c6 05 01 21 00 00 02 	movb   $0x2,0x2101
 804af20:	90                   	nop
 804af21:	79 07                	jns    804af2a <and1_constant+0x26>
 804af23:	c6 05 02 21 00 00 03 	movb   $0x3,0x2102
 804af2a:	90                   	nop
 804af2b:	7b 07                	jnp    804af34 <and1_constant+0x30>
 804af2d:	c6 05 03 21 00 00 04 	movb   $0x4,0x2103
 804af34:	90                   	nop
 804af35:	71 07                	jno    804af3e <and1_constant+0x3a>
 804af37:	c6 05 04 21 00 00 05 	movb   $0x5,0x2104
 804af3e:	90                   	nop
 804af3f:	c3                   	ret    

0804af40 <and1_allregs>:
 804af40:	a1 00 10 00 00       	mov    0x1000,%eax
 804af45:	8b 1d 04 10 00 00    	mov    0x1004,%ebx
 804af4b:	8b 0d 08 10 00 00    	mov    0x1008,%ecx
 804af51:	8b 15 0c 10 00 00    	mov    0x100c,%edx
 804af57:	8b 2d 10 10 00 00    	mov    0x1010,%ebp
 804af5d:	8b 35 14 10 00 00    	mov    0x1014,%esi
 804af63:	8b 3d 18 10 00 00    	mov    0x1018,%edi
 804af69:	8b 25 1c 10 00 00    	mov    0x101c,%esp
 804af6f:	24 02                	and    $0x2,%al
 804af71:	a3 00 20 00 00       	mov    %eax,0x2000
 804af76:	89 1d 04 20 00 00    	mov    %ebx,0x2004
 804af7c:	89 0d 08 20 00 00    	mov    %ecx,0x2008
 804af82:	89 15 0c 20 00 00    	mov    %edx,0x200c
 804af88:	89 2d 10 20 00 00    	mov    %ebp,0x2010
 804af8e:	89 35 14 20 00 00    	mov    %esi,0x2014
 804af94:	89 3d 18 20 00 00    	mov    %edi,0x2018
 804af9a:	89 25 1c 20 00 00    	mov    %esp,0x201c
 804afa0:	c3                   	ret    

0804afa1 <and2>:
 804afa1:	a0 00 10 00 00       	mov    0x1000,%al
 804afa6:	24 fe                	and    $0xfe,%al
 804afa8:	a2 00 20 00 00       	mov    %al,0x2000
 804afad:	73 07                	jae    804afb6 <and2+0x15>
 804afaf:	c6 05 00 21 00 00 01 	movb   $0x1,0x2100
 804afb6:	90                   	nop
 804afb7:	75 07                	jne    804afc0 <and2+0x1f>
 804afb9:	c6 05 01 21 00 00 02 	movb   $0x2,0x2101
 804afc0:	90                   	nop
 804afc1:	79 07                	jns    804afca <and2+0x29>
 804afc3:	c6 05 02 21 00 00 03 	movb   $0x3,0x2102
 804afca:	90                   	nop
 804afcb:	7b 07                	jnp    804afd4 <and2+0x33>
 804afcd:	c6 05 03 21 00 00 04 	movb   $0x4,0x2103
 804afd4:	90                   	nop
 804afd5:	71 07                	jno    804afde <and2+0x3d>
 804afd7:	c6 05 04 21 00 00 05 	movb   $0x5,0x2104
 804afde:	90                   	nop
 804afdf:	c3                   	ret    

0804afe0 <and2_constant>:
 804afe0:	b0 01                	mov    $0x1,%al
 804afe2:	24 fe                	and    $0xfe,%al
 804afe4:	a2 00 20 00 00       	mov    %al,0x2000
 804afe9:	73 07                	jae    804aff2 <and2_constant+0x12>
 804afeb:	c6 05 00 21 00 00 01 	movb   $0x1,0x2100
 804aff2:	90                   	nop
 804aff3:	75 07                	jne    804affc <and2_constant+0x1c>
 804aff5:	c6 05 01 21 00 00 02 	movb   $0x2,0x2101
 804affc:	90                   	nop
 804affd:	79 07                	jns    804b006 <and2_constant+0x26>
 804afff:	c6 05 02 21 00 00 03 	movb   $0x3,0x2102
 804b006:	90                   	nop
 804b007:	7b 07                	jnp    804b010 <and2_constant+0x30>
 804b009:	c6 05 03 21 00 00 04 	movb   $0x4,0x2103
 804b010:	90                   	nop
 804b011:	71 07                	jno    804b01a <and2_constant+0x3a>
 804b013:	c6 05 04 21 00 00 05 	movb   $0x5,0x2104
 804b01a:	90                   	nop
 804b01b:	c3                   	ret    

0804b01c <and2_allregs>:
 804b01c:	a1 00 10 00 00       	mov    0x1000,%eax
 804b021:	8b 1d 04 10 00 00    	mov    0x1004,%ebx
 804b027:	8b 0d 08 10 00 00    	mov    0x1008,%ecx
 804b02d:	8b 15 0c 10 00 00    	mov    0x100c,%edx
 804b033:	8b 2d 10 10 00 00    	mov    0x1010,%ebp
 804b039:	8b 35 14 10 00 00    	mov    0x1014,%esi
 804b03f:	8b 3d 18 10 00 00    	mov    0x1018,%edi
 804b045:	8b 25 1c 10 00 00    	mov    0x101c,%esp
 804b04b:	24 fe                	and    $0xfe,%al
 804b04d:	a3 00 20 00 00       	mov    %eax,0x2000
 804b052:	89 1d 04 20 00 00    	mov    %ebx,0x2004
 804b058:	89 0d 08 20 00 00    	mov    %ecx,0x2008
 804b05e:	89 15 0c 20 00 00    	mov    %edx,0x200c
 804b064:	89 2d 10 20 00 00    	mov    %ebp,0x2010
 804b06a:	89 35 14 20 00 00    	mov    %esi,0x2014
 804b070:	89 3d 18 20 00 00    	mov    %edi,0x2018
 804b076:	89 25 1c 20 00 00    	mov    %esp,0x201c
 804b07c:	c3                   	ret    

0804b07d <and3>:
 804b07d:	66 a1 00 10 00 00    	mov    0x1000,%ax
 804b083:	66 25 02 00          	and    $0x2,%ax
 804b087:	66 a3 00 20 00 00    	mov    %ax,0x2000
 804b08d:	73 07                	jae    804b096 <and3+0x19>
 804b08f:	c6 05 00 21 00 00 01 	movb   $0x1,0x2100
 804b096:	90                   	nop
 804b097:	75 07                	jne    804b0a0 <and3+0x23>
 804b099:	c6 05 01 21 00 00 02 	movb   $0x2,0x2101
 804b0a0:	90                   	nop
 804b0a1:	79 07                	jns    804b0aa <and3+0x2d>
 804b0a3:	c6 05 02 21 00 00 03 	movb   $0x3,0x2102
 804b0aa:	90                   	nop
 804b0ab:	7b 07                	jnp    804b0b4 <and3+0x37>
 804b0ad:	c6 05 03 21 00 00 04 	movb   $0x4,0x2103
 804b0b4:	90                   	nop
 804b0b5:	71 07                	jno    804b0be <and3+0x41>
 804b0b7:	c6 05 04 21 00 00 05 	movb   $0x5,0x2104
 804b0be:	90                   	nop
 804b0bf:	c3                   	ret    

0804b0c0 <and3_constant>:
 804b0c0:	66 b8 01 00          	mov    $0x1,%ax
 804b0c4:	66 25 02 00          	and    $0x2,%ax
 804b0c8:	66 a3 00 20 00 00    	mov    %ax,0x2000
 804b0ce:	73 07                	jae    804b0d7 <and3_constant+0x17>
 804b0d0:	c6 05 00 21 00 00 01 	movb   $0x1,0x2100
 804b0d7:	90                   	nop
 804b0d8:	75 07                	jne    804b0e1 <and3_constant+0x21>
 804b0da:	c6 05 01 21 00 00 02 	movb   $0x2,0x2101
 804b0e1:	90                   	nop
 804b0e2:	79 07                	jns    804b0eb <and3_constant+0x2b>
 804b0e4:	c6 05 02 21 00 00 03 	movb   $0x3,0x2102
 804b0eb:	90                   	nop
 804b0ec:	7b 07                	jnp    804b0f5 <and3_constant+0x35>
 804b0ee:	c6 05 03 21 00 00 04 	movb   $0x4,0x2103
 804b0f5:	90                   	nop
 804b0f6:	71 07                	jno    804b0ff <and3_constant+0x3f>
 804b0f8:	c6 05 04 21 00 00 05 	movb   $0x5,0x2104
 804b0ff:	90                   	nop
 804b100:	c3                   	ret    

0804b101 <and3_allregs>:
 804b101:	a1 00 10 00 00       	mov    0x1000,%eax
 804b106:	8b 1d 04 10 00 00    	mov    0x1004,%ebx
 804b10c:	8b 0d 08 10 00 00    	mov    0x1008,%ecx
 804b112:	8b 15 0c 10 00 00    	mov    0x100c,%edx
 804b118:	8b 2d 10 10 00 00    	mov    0x1010,%ebp
 804b11e:	8b 35 14 10 00 00    	mov    0x1014,%esi
 804b124:	8b 3d 18 10 00 00    	mov    0x1018,%edi
 804b12a:	8b 25 1c 10 00 00    	mov    0x101c,%esp
 804b130:	66 25 02 00          	and    $0x2,%ax
 804b134:	a3 00 20 00 00       	mov    %eax,0x2000
 804b139:	89 1d 04 20 00 00    	mov    %ebx,0x2004
 804b13f:	89 0d 08 20 00 00    	mov    %ecx,0x2008
 804b145:	89 15 0c 20 00 00    	mov    %edx,0x200c
 804b14b:	89 2d 10 20 00 00    	mov    %ebp,0x2010
 804b151:	89 35 14 20 00 00    	mov    %esi,0x2014
 804b157:	89 3d 18 20 00 00    	mov    %edi,0x2018
 804b15d:	89 25 1c 20 00 00    	mov    %esp,0x201c
 804b163:	c3                   	ret    

0804b164 <and4>:
 804b164:	66 a1 00 10 00 00    	mov    0x1000,%ax
 804b16a:	66 25 fe ff          	and    $0xfffe,%ax
 804b16e:	66 a3 00 20 00 00    	mov    %ax,0x2000
 804b174:	73 07                	jae    804b17d <and4+0x19>
 804b176:	c6 05 00 21 00 00 01 	movb   $0x1,0x2100
 804b17d:	90                   	nop
 804b17e:	75 07                	jne    804b187 <and4+0x23>
 804b180:	c6 05 01 21 00 00 02 	movb   $0x2,0x2101
 804b187:	90                   	nop
 804b188:	79 07                	jns    804b191 <and4+0x2d>
 804b18a:	c6 05 02 21 00 00 03 	movb   $0x3,0x2102
 804b191:	90                   	nop
 804b192:	7b 07                	jnp    804b19b <and4+0x37>
 804b194:	c6 05 03 21 00 00 04 	movb   $0x4,0x2103
 804b19b:	90                   	nop
 804b19c:	71 07                	jno    804b1a5 <and4+0x41>
 804b19e:	c6 05 04 21 00 00 05 	movb   $0x5,0x2104
 804b1a5:	90                   	nop
 804b1a6:	c3                   	ret    

0804b1a7 <and4_constant>:
 804b1a7:	66 b8 01 00          	mov    $0x1,%ax
 804b1ab:	66 25 fe ff          	and    $0xfffe,%ax
 804b1af:	66 a3 00 20 00 00    	mov    %ax,0x2000
 804b1b5:	73 07                	jae    804b1be <and4_constant+0x17>
 804b1b7:	c6 05 00 21 00 00 01 	movb   $0x1,0x2100
 804b1be:	90                   	nop
 804b1bf:	75 07                	jne    804b1c8 <and4_constant+0x21>
 804b1c1:	c6 05 01 21 00 00 02 	movb   $0x2,0x2101
 804b1c8:	90                   	nop
 804b1c9:	79 07                	jns    804b1d2 <and4_constant+0x2b>
 804b1cb:	c6 05 02 21 00 00 03 	movb   $0x3,0x2102
 804b1d2:	90                   	nop
 804b1d3:	7b 07                	jnp    804b1dc <and4_constant+0x35>
 804b1d5:	c6 05 03 21 00 00 04 	movb   $0x4,0x2103
 804b1dc:	90                   	nop
 804b1dd:	71 07                	jno    804b1e6 <and4_constant+0x3f>
 804b1df:	c6 05 04 21 00 00 05 	movb   $0x5,0x2104
 804b1e6:	90                   	nop
 804b1e7:	c3                   	ret    

0804b1e8 <and4_allregs>:
 804b1e8:	a1 00 10 00 00       	mov    0x1000,%eax
 804b1ed:	8b 1d 04 10 00 00    	mov    0x1004,%ebx
 804b1f3:	8b 0d 08 10 00 00    	mov    0x1008,%ecx
 804b1f9:	8b 15 0c 10 00 00    	mov    0x100c,%edx
 804b1ff:	8b 2d 10 10 00 00    	mov    0x1010,%ebp
 804b205:	8b 35 14 10 00 00    	mov    0x1014,%esi
 804b20b:	8b 3d 18 10 00 00    	mov    0x1018,%edi
 804b211:	8b 25 1c 10 00 00    	mov    0x101c,%esp
 804b217:	66 25 fe ff          	and    $0xfffe,%ax
 804b21b:	a3 00 20 00 00       	mov    %eax,0x2000
 804b220:	89 1d 04 20 00 00    	mov    %ebx,0x2004
 804b226:	89 0d 08 20 00 00    	mov    %ecx,0x2008
 804b22c:	89 15 0c 20 00 00    	mov    %edx,0x200c
 804b232:	89 2d 10 20 00 00    	mov    %ebp,0x2010
 804b238:	89 35 14 20 00 00    	mov    %esi,0x2014
 804b23e:	89 3d 18 20 00 00    	mov    %edi,0x2018
 804b244:	89 25 1c 20 00 00    	mov    %esp,0x201c
 804b24a:	c3                   	ret    

0804b24b <and5>:
 804b24b:	a1 00 10 00 00       	mov    0x1000,%eax
 804b250:	25 02 00 00 00       	and    $0x2,%eax
 804b255:	a3 00 20 00 00       	mov    %eax,0x2000
 804b25a:	73 07                	jae    804b263 <and5+0x18>
 804b25c:	c6 05 00 21 00 00 01 	movb   $0x1,0x2100
 804b263:	90                   	nop
 804b264:	75 07                	jne    804b26d <and5+0x22>
 804b266:	c6 05 01 21 00 00 02 	movb   $0x2,0x2101
 804b26d:	90                   	nop
 804b26e:	79 07                	jns    804b277 <and5+0x2c>
 804b270:	c6 05 02 21 00 00 03 	movb   $0x3,0x2102
 804b277:	90                   	nop
 804b278:	7b 07                	jnp    804b281 <and5+0x36>
 804b27a:	c6 05 03 21 00 00 04 	movb   $0x4,0x2103
 804b281:	90                   	nop
 804b282:	71 07                	jno    804b28b <and5+0x40>
 804b284:	c6 05 04 21 00 00 05 	movb   $0x5,0x2104
 804b28b:	90                   	nop
 804b28c:	c3                   	ret    

0804b28d <and5_constant>:
 804b28d:	b8 01 00 00 00       	mov    $0x1,%eax
 804b292:	25 02 00 00 00       	and    $0x2,%eax
 804b297:	a3 00 20 00 00       	mov    %eax,0x2000
 804b29c:	73 07                	jae    804b2a5 <and5_constant+0x18>
 804b29e:	c6 05 00 21 00 00 01 	movb   $0x1,0x2100
 804b2a5:	90                   	nop
 804b2a6:	75 07                	jne    804b2af <and5_constant+0x22>
 804b2a8:	c6 05 01 21 00 00 02 	movb   $0x2,0x2101
 804b2af:	90                   	nop
 804b2b0:	79 07                	jns    804b2b9 <and5_constant+0x2c>
 804b2b2:	c6 05 02 21 00 00 03 	movb   $0x3,0x2102
 804b2b9:	90                   	nop
 804b2ba:	7b 07                	jnp    804b2c3 <and5_constant+0x36>
 804b2bc:	c6 05 03 21 00 00 04 	movb   $0x4,0x2103
 804b2c3:	90                   	nop
 804b2c4:	71 07                	jno    804b2cd <and5_constant+0x40>
 804b2c6:	c6 05 04 21 00 00 05 	movb   $0x5,0x2104
 804b2cd:	90                   	nop
 804b2ce:	c3                   	ret    

0804b2cf <and5_allregs>:
 804b2cf:	a1 00 10 00 00       	mov    0x1000,%eax
 804b2d4:	8b 1d 04 10 00 00    	mov    0x1004,%ebx
 804b2da:	8b 0d 08 10 00 00    	mov    0x1008,%ecx
 804b2e0:	8b 15 0c 10 00 00    	mov    0x100c,%edx
 804b2e6:	8b 2d 10 10 00 00    	mov    0x1010,%ebp
 804b2ec:	8b 35 14 10 00 00    	mov    0x1014,%esi
 804b2f2:	8b 3d 18 10 00 00    	mov    0x1018,%edi
 804b2f8:	8b 25 1c 10 00 00    	mov    0x101c,%esp
 804b2fe:	25 02 00 00 00       	and    $0x2,%eax
 804b303:	a3 00 20 00 00       	mov    %eax,0x2000
 804b308:	89 1d 04 20 00 00    	mov    %ebx,0x2004
 804b30e:	89 0d 08 20 00 00    	mov    %ecx,0x2008
 804b314:	89 15 0c 20 00 00    	mov    %edx,0x200c
 804b31a:	89 2d 10 20 00 00    	mov    %ebp,0x2010
 804b320:	89 35 14 20 00 00    	mov    %esi,0x2014
 804b326:	89 3d 18 20 00 00    	mov    %edi,0x2018
 804b32c:	89 25 1c 20 00 00    	mov    %esp,0x201c
 804b332:	c3                   	ret    

0804b333 <and6>:
 804b333:	a1 00 10 00 00       	mov    0x1000,%eax
 804b338:	25 fe ff ff ff       	and    $0xfffffffe,%eax
 804b33d:	a3 00 20 00 00       	mov    %eax,0x2000
 804b342:	73 07                	jae    804b34b <and6+0x18>
 804b344:	c6 05 00 21 00 00 01 	movb   $0x1,0x2100
 804b34b:	90                   	nop
 804b34c:	75 07                	jne    804b355 <and6+0x22>
 804b34e:	c6 05 01 21 00 00 02 	movb   $0x2,0x2101
 804b355:	90                   	nop
 804b356:	79 07                	jns    804b35f <and6+0x2c>
 804b358:	c6 05 02 21 00 00 03 	movb   $0x3,0x2102
 804b35f:	90                   	nop
 804b360:	7b 07                	jnp    804b369 <and6+0x36>
 804b362:	c6 05 03 21 00 00 04 	movb   $0x4,0x2103
 804b369:	90                   	nop
 804b36a:	71 07                	jno    804b373 <and6+0x40>
 804b36c:	c6 05 04 21 00 00 05 	movb   $0x5,0x2104
 804b373:	90                   	nop
 804b374:	c3                   	ret    

0804b375 <and6_constant>:
 804b375:	b8 01 00 00 00       	mov    $0x1,%eax
 804b37a:	25 fe ff ff ff       	and    $0xfffffffe,%eax
 804b37f:	a3 00 20 00 00       	mov    %eax,0x2000
 804b384:	73 07                	jae    804b38d <and6_constant+0x18>
 804b386:	c6 05 00 21 00 00 01 	movb   $0x1,0x2100
 804b38d:	90                   	nop
 804b38e:	75 07                	jne    804b397 <and6_constant+0x22>
 804b390:	c6 05 01 21 00 00 02 	movb   $0x2,0x2101
 804b397:	90                   	nop
 804b398:	79 07                	jns    804b3a1 <and6_constant+0x2c>
 804b39a:	c6 05 02 21 00 00 03 	movb   $0x3,0x2102
 804b3a1:	90                   	nop
 804b3a2:	7b 07                	jnp    804b3ab <and6_constant+0x36>
 804b3a4:	c6 05 03 21 00 00 04 	movb   $0x4,0x2103
 804b3ab:	90                   	nop
 804b3ac:	71 07                	jno    804b3b5 <and6_constant+0x40>
 804b3ae:	c6 05 04 21 00 00 05 	movb   $0x5,0x2104
 804b3b5:	90                   	nop
 804b3b6:	c3                   	ret    

0804b3b7 <and6_allregs>:
 804b3b7:	a1 00 10 00 00       	mov    0x1000,%eax
 804b3bc:	8b 1d 04 10 00 00    	mov    0x1004,%ebx
 804b3c2:	8b 0d 08 10 00 00    	mov    0x1008,%ecx
 804b3c8:	8b 15 0c 10 00 00    	mov    0x100c,%edx
 804b3ce:	8b 2d 10 10 00 00    	mov    0x1010,%ebp
 804b3d4:	8b 35 14 10 00 00    	mov    0x1014,%esi
 804b3da:	8b 3d 18 10 00 00    	mov    0x1018,%edi
 804b3e0:	8b 25 1c 10 00 00    	mov    0x101c,%esp
 804b3e6:	25 fe ff ff ff       	and    $0xfffffffe,%eax
 804b3eb:	a3 00 20 00 00       	mov    %eax,0x2000
 804b3f0:	89 1d 04 20 00 00    	mov    %ebx,0x2004
 804b3f6:	89 0d 08 20 00 00    	mov    %ecx,0x2008
 804b3fc:	89 15 0c 20 00 00    	mov    %edx,0x200c
 804b402:	89 2d 10 20 00 00    	mov    %ebp,0x2010
 804b408:	89 35 14 20 00 00    	mov    %esi,0x2014
 804b40e:	89 3d 18 20 00 00    	mov    %edi,0x2018
 804b414:	89 25 1c 20 00 00    	mov    %esp,0x201c
 804b41a:	c3                   	ret    

0804b41b <and7>:
 804b41b:	a1 00 10 00 00       	mov    0x1000,%eax
 804b420:	8b 2d 04 10 00 00    	mov    0x1004,%ebp
 804b426:	23 45 08             	and    0x8(%ebp),%eax
 804b429:	a3 00 20 00 00       	mov    %eax,0x2000
 804b42e:	73 07                	jae    804b437 <and7+0x1c>
 804b430:	c6 05 00 21 00 00 01 	movb   $0x1,0x2100
 804b437:	90                   	nop
 804b438:	75 07                	jne    804b441 <and7+0x26>
 804b43a:	c6 05 01 21 00 00 02 	movb   $0x2,0x2101
 804b441:	90                   	nop
 804b442:	79 07                	jns    804b44b <and7+0x30>
 804b444:	c6 05 02 21 00 00 03 	movb   $0x3,0x2102
 804b44b:	90                   	nop
 804b44c:	7b 07                	jnp    804b455 <and7+0x3a>
 804b44e:	c6 05 03 21 00 00 04 	movb   $0x4,0x2103
 804b455:	90                   	nop
 804b456:	71 07                	jno    804b45f <and7+0x44>
 804b458:	c6 05 04 21 00 00 05 	movb   $0x5,0x2104
 804b45f:	90                   	nop
 804b460:	c3                   	ret    

0804b461 <and7_constant>:
 804b461:	b8 01 00 00 00       	mov    $0x1,%eax
 804b466:	bd 02 00 00 00       	mov    $0x2,%ebp
 804b46b:	23 45 08             	and    0x8(%ebp),%eax
 804b46e:	a3 00 20 00 00       	mov    %eax,0x2000
 804b473:	73 07                	jae    804b47c <and7_constant+0x1b>
 804b475:	c6 05 00 21 00 00 01 	movb   $0x1,0x2100
 804b47c:	90                   	nop
 804b47d:	75 07                	jne    804b486 <and7_constant+0x25>
 804b47f:	c6 05 01 21 00 00 02 	movb   $0x2,0x2101
 804b486:	90                   	nop
 804b487:	79 07                	jns    804b490 <and7_constant+0x2f>
 804b489:	c6 05 02 21 00 00 03 	movb   $0x3,0x2102
 804b490:	90                   	nop
 804b491:	7b 07                	jnp    804b49a <and7_constant+0x39>
 804b493:	c6 05 03 21 00 00 04 	movb   $0x4,0x2103
 804b49a:	90                   	nop
 804b49b:	71 07                	jno    804b4a4 <and7_constant+0x43>
 804b49d:	c6 05 04 21 00 00 05 	movb   $0x5,0x2104
 804b4a4:	90                   	nop
 804b4a5:	c3                   	ret    

0804b4a6 <and7_allregs>:
 804b4a6:	a1 00 10 00 00       	mov    0x1000,%eax
 804b4ab:	8b 1d 04 10 00 00    	mov    0x1004,%ebx
 804b4b1:	8b 0d 08 10 00 00    	mov    0x1008,%ecx
 804b4b7:	8b 15 0c 10 00 00    	mov    0x100c,%edx
 804b4bd:	8b 2d 10 10 00 00    	mov    0x1010,%ebp
 804b4c3:	8b 35 14 10 00 00    	mov    0x1014,%esi
 804b4c9:	8b 3d 18 10 00 00    	mov    0x1018,%edi
 804b4cf:	8b 25 1c 10 00 00    	mov    0x101c,%esp
 804b4d5:	23 45 08             	and    0x8(%ebp),%eax
 804b4d8:	a3 00 20 00 00       	mov    %eax,0x2000
 804b4dd:	89 1d 04 20 00 00    	mov    %ebx,0x2004
 804b4e3:	89 0d 08 20 00 00    	mov    %ecx,0x2008
 804b4e9:	89 15 0c 20 00 00    	mov    %edx,0x200c
 804b4ef:	89 2d 10 20 00 00    	mov    %ebp,0x2010
 804b4f5:	89 35 14 20 00 00    	mov    %esi,0x2014
 804b4fb:	89 3d 18 20 00 00    	mov    %edi,0x2018
 804b501:	89 25 1c 20 00 00    	mov    %esp,0x201c
 804b507:	c3                   	ret    

0804b508 <and_locked>:
 804b508:	f0 23 45 08          	lock and 0x8(%ebp),%eax
 804b50c:	c3                   	ret    

0804b50d <and_locked_constant>:
 804b50d:	f0 23 45 08          	lock and 0x8(%ebp),%eax
 804b511:	c3                   	ret    

0804b512 <and_locked_allregs>:
 804b512:	a1 00 10 00 00       	mov    0x1000,%eax
 804b517:	8b 1d 04 10 00 00    	mov    0x1004,%ebx
 804b51d:	8b 0d 08 10 00 00    	mov    0x1008,%ecx
 804b523:	8b 15 0c 10 00 00    	mov    0x100c,%edx
 804b529:	8b 2d 10 10 00 00    	mov    0x1010,%ebp
 804b52f:	8b 35 14 10 00 00    	mov    0x1014,%esi
 804b535:	8b 3d 18 10 00 00    	mov    0x1018,%edi
 804b53b:	8b 25 1c 10 00 00    	mov    0x101c,%esp
 804b541:	f0 23 45 08          	lock and 0x8(%ebp),%eax
 804b545:	a3 00 20 00 00       	mov    %eax,0x2000
 804b54a:	89 1d 04 20 00 00    	mov    %ebx,0x2004
 804b550:	89 0d 08 20 00 00    	mov    %ecx,0x2008
 804b556:	89 15 0c 20 00 00    	mov    %edx,0x200c
 804b55c:	89 2d 10 20 00 00    	mov    %ebp,0x2010
 804b562:	89 35 14 20 00 00    	mov    %esi,0x2014
 804b568:	89 3d 18 20 00 00    	mov    %edi,0x2018
 804b56e:	89 25 1c 20 00 00    	mov    %esp,0x201c
 804b574:	c3                   	ret    

0804b575 <arpl>:
 804b575:	66 a1 00 10 00 00    	mov    0x1000,%ax
 804b57b:	66 8b 1d 04 10 00 00 	mov    0x1004,%bx
 804b582:	63 c3                	arpl   %ax,%bx
 804b584:	73 07                	jae    804b58d <arpl+0x18>
 804b586:	c6 05 00 21 00 00 01 	movb   $0x1,0x2100
 804b58d:	90                   	nop
 804b58e:	75 07                	jne    804b597 <arpl+0x22>
 804b590:	c6 05 01 21 00 00 02 	movb   $0x2,0x2101
 804b597:	90                   	nop
 804b598:	79 07                	jns    804b5a1 <arpl+0x2c>
 804b59a:	c6 05 02 21 00 00 03 	movb   $0x3,0x2102
 804b5a1:	90                   	nop
 804b5a2:	7b 07                	jnp    804b5ab <arpl+0x36>
 804b5a4:	c6 05 03 21 00 00 04 	movb   $0x4,0x2103
 804b5ab:	90                   	nop
 804b5ac:	71 07                	jno    804b5b5 <arpl+0x40>
 804b5ae:	c6 05 04 21 00 00 05 	movb   $0x5,0x2104
 804b5b5:	90                   	nop
 804b5b6:	c3                   	ret    

0804b5b7 <arpl_constant>:
 804b5b7:	66 b8 01 00          	mov    $0x1,%ax
 804b5bb:	66 bb 02 00          	mov    $0x2,%bx
 804b5bf:	63 c3                	arpl   %ax,%bx
 804b5c1:	73 07                	jae    804b5ca <arpl_constant+0x13>
 804b5c3:	c6 05 00 21 00 00 01 	movb   $0x1,0x2100
 804b5ca:	90                   	nop
 804b5cb:	75 07                	jne    804b5d4 <arpl_constant+0x1d>
 804b5cd:	c6 05 01 21 00 00 02 	movb   $0x2,0x2101
 804b5d4:	90                   	nop
 804b5d5:	79 07                	jns    804b5de <arpl_constant+0x27>
 804b5d7:	c6 05 02 21 00 00 03 	movb   $0x3,0x2102
 804b5de:	90                   	nop
 804b5df:	7b 07                	jnp    804b5e8 <arpl_constant+0x31>
 804b5e1:	c6 05 03 21 00 00 04 	movb   $0x4,0x2103
 804b5e8:	90                   	nop
 804b5e9:	71 07                	jno    804b5f2 <arpl_constant+0x3b>
 804b5eb:	c6 05 04 21 00 00 05 	movb   $0x5,0x2104
 804b5f2:	90                   	nop
 804b5f3:	c3                   	ret    

0804b5f4 <arpl_allregs>:
 804b5f4:	a1 00 10 00 00       	mov    0x1000,%eax
 804b5f9:	8b 1d 04 10 00 00    	mov    0x1004,%ebx
 804b5ff:	8b 0d 08 10 00 00    	mov    0x1008,%ecx
 804b605:	8b 15 0c 10 00 00    	mov    0x100c,%edx
 804b60b:	8b 2d 10 10 00 00    	mov    0x1010,%ebp
 804b611:	8b 35 14 10 00 00    	mov    0x1014,%esi
 804b617:	8b 3d 18 10 00 00    	mov    0x1018,%edi
 804b61d:	8b 25 1c 10 00 00    	mov    0x101c,%esp
 804b623:	63 c3                	arpl   %ax,%bx
 804b625:	a3 00 20 00 00       	mov    %eax,0x2000
 804b62a:	89 1d 04 20 00 00    	mov    %ebx,0x2004
 804b630:	89 0d 08 20 00 00    	mov    %ecx,0x2008
 804b636:	89 15 0c 20 00 00    	mov    %edx,0x200c
 804b63c:	89 2d 10 20 00 00    	mov    %ebp,0x2010
 804b642:	89 35 14 20 00 00    	mov    %esi,0x2014
 804b648:	89 3d 18 20 00 00    	mov    %edi,0x2018
 804b64e:	89 25 1c 20 00 00    	mov    %esp,0x201c
 804b654:	c3                   	ret    

0804b655 <bound1>:
 804b655:	66 a1 00 10 00 00    	mov    0x1000,%ax
 804b65b:	66 8b 1d 04 10 00 00 	mov    0x1004,%bx
 804b662:	67 66 62 07          	addr16 bound %ax,(%bx)
 804b666:	73 07                	jae    804b66f <bound1+0x1a>
 804b668:	c6 05 00 21 00 00 01 	movb   $0x1,0x2100
 804b66f:	90                   	nop
 804b670:	75 07                	jne    804b679 <bound1+0x24>
 804b672:	c6 05 01 21 00 00 02 	movb   $0x2,0x2101
 804b679:	90                   	nop
 804b67a:	79 07                	jns    804b683 <bound1+0x2e>
 804b67c:	c6 05 02 21 00 00 03 	movb   $0x3,0x2102
 804b683:	90                   	nop
 804b684:	7b 07                	jnp    804b68d <bound1+0x38>
 804b686:	c6 05 03 21 00 00 04 	movb   $0x4,0x2103
 804b68d:	90                   	nop
 804b68e:	71 07                	jno    804b697 <bound1+0x42>
 804b690:	c6 05 04 21 00 00 05 	movb   $0x5,0x2104
 804b697:	90                   	nop
 804b698:	c3                   	ret    

0804b699 <bound1_constant>:
 804b699:	66 b8 01 00          	mov    $0x1,%ax
 804b69d:	66 bb 02 00          	mov    $0x2,%bx
 804b6a1:	67 66 62 07          	addr16 bound %ax,(%bx)
 804b6a5:	73 07                	jae    804b6ae <bound1_constant+0x15>
 804b6a7:	c6 05 00 21 00 00 01 	movb   $0x1,0x2100
 804b6ae:	90                   	nop
 804b6af:	75 07                	jne    804b6b8 <bound1_constant+0x1f>
 804b6b1:	c6 05 01 21 00 00 02 	movb   $0x2,0x2101
 804b6b8:	90                   	nop
 804b6b9:	79 07                	jns    804b6c2 <bound1_constant+0x29>
 804b6bb:	c6 05 02 21 00 00 03 	movb   $0x3,0x2102
 804b6c2:	90                   	nop
 804b6c3:	7b 07                	jnp    804b6cc <bound1_constant+0x33>
 804b6c5:	c6 05 03 21 00 00 04 	movb   $0x4,0x2103
 804b6cc:	90                   	nop
 804b6cd:	71 07                	jno    804b6d6 <bound1_constant+0x3d>
 804b6cf:	c6 05 04 21 00 00 05 	movb   $0x5,0x2104
 804b6d6:	90                   	nop
 804b6d7:	c3                   	ret    

0804b6d8 <bound1_allregs>:
 804b6d8:	a1 00 10 00 00       	mov    0x1000,%eax
 804b6dd:	8b 1d 04 10 00 00    	mov    0x1004,%ebx
 804b6e3:	8b 0d 08 10 00 00    	mov    0x1008,%ecx
 804b6e9:	8b 15 0c 10 00 00    	mov    0x100c,%edx
 804b6ef:	8b 2d 10 10 00 00    	mov    0x1010,%ebp
 804b6f5:	8b 35 14 10 00 00    	mov    0x1014,%esi
 804b6fb:	8b 3d 18 10 00 00    	mov    0x1018,%edi
 804b701:	8b 25 1c 10 00 00    	mov    0x101c,%esp
 804b707:	67 66 62 07          	addr16 bound %ax,(%bx)
 804b70b:	a3 00 20 00 00       	mov    %eax,0x2000
 804b710:	89 1d 04 20 00 00    	mov    %ebx,0x2004
 804b716:	89 0d 08 20 00 00    	mov    %ecx,0x2008
 804b71c:	89 15 0c 20 00 00    	mov    %edx,0x200c
 804b722:	89 2d 10 20 00 00    	mov    %ebp,0x2010
 804b728:	89 35 14 20 00 00    	mov    %esi,0x2014
 804b72e:	89 3d 18 20 00 00    	mov    %edi,0x2018
 804b734:	89 25 1c 20 00 00    	mov    %esp,0x201c
 804b73a:	c3                   	ret    

0804b73b <bound2>:
 804b73b:	a1 00 10 00 00       	mov    0x1000,%eax
 804b740:	8b 1d 04 10 00 00    	mov    0x1004,%ebx
 804b746:	62 03                	bound  %eax,(%ebx)
 804b748:	73 07                	jae    804b751 <bound2+0x16>
 804b74a:	c6 05 00 21 00 00 01 	movb   $0x1,0x2100
 804b751:	90                   	nop
 804b752:	75 07                	jne    804b75b <bound2+0x20>
 804b754:	c6 05 01 21 00 00 02 	movb   $0x2,0x2101
 804b75b:	90                   	nop
 804b75c:	79 07                	jns    804b765 <bound2+0x2a>
 804b75e:	c6 05 02 21 00 00 03 	movb   $0x3,0x2102
 804b765:	90                   	nop
 804b766:	7b 07                	jnp    804b76f <bound2+0x34>
 804b768:	c6 05 03 21 00 00 04 	movb   $0x4,0x2103
 804b76f:	90                   	nop
 804b770:	71 07                	jno    804b779 <bound2+0x3e>
 804b772:	c6 05 04 21 00 00 05 	movb   $0x5,0x2104
 804b779:	90                   	nop
 804b77a:	c3                   	ret    

0804b77b <bound2_constant>:
 804b77b:	b8 01 00 00 00       	mov    $0x1,%eax
 804b780:	bb 02 00 00 00       	mov    $0x2,%ebx
 804b785:	62 03                	bound  %eax,(%ebx)
 804b787:	73 07                	jae    804b790 <bound2_constant+0x15>
 804b789:	c6 05 00 21 00 00 01 	movb   $0x1,0x2100
 804b790:	90                   	nop
 804b791:	75 07                	jne    804b79a <bound2_constant+0x1f>
 804b793:	c6 05 01 21 00 00 02 	movb   $0x2,0x2101
 804b79a:	90                   	nop
 804b79b:	79 07                	jns    804b7a4 <bound2_constant+0x29>
 804b79d:	c6 05 02 21 00 00 03 	movb   $0x3,0x2102
 804b7a4:	90                   	nop
 804b7a5:	7b 07                	jnp    804b7ae <bound2_constant+0x33>
 804b7a7:	c6 05 03 21 00 00 04 	movb   $0x4,0x2103
 804b7ae:	90                   	nop
 804b7af:	71 07                	jno    804b7b8 <bound2_constant+0x3d>
 804b7b1:	c6 05 04 21 00 00 05 	movb   $0x5,0x2104
 804b7b8:	90                   	nop
 804b7b9:	c3                   	ret    

0804b7ba <bound2_allregs>:
 804b7ba:	a1 00 10 00 00       	mov    0x1000,%eax
 804b7bf:	8b 1d 04 10 00 00    	mov    0x1004,%ebx
 804b7c5:	8b 0d 08 10 00 00    	mov    0x1008,%ecx
 804b7cb:	8b 15 0c 10 00 00    	mov    0x100c,%edx
 804b7d1:	8b 2d 10 10 00 00    	mov    0x1010,%ebp
 804b7d7:	8b 35 14 10 00 00    	mov    0x1014,%esi
 804b7dd:	8b 3d 18 10 00 00    	mov    0x1018,%edi
 804b7e3:	8b 25 1c 10 00 00    	mov    0x101c,%esp
 804b7e9:	62 03                	bound  %eax,(%ebx)
 804b7eb:	a3 00 20 00 00       	mov    %eax,0x2000
 804b7f0:	89 1d 04 20 00 00    	mov    %ebx,0x2004
 804b7f6:	89 0d 08 20 00 00    	mov    %ecx,0x2008
 804b7fc:	89 15 0c 20 00 00    	mov    %edx,0x200c
 804b802:	89 2d 10 20 00 00    	mov    %ebp,0x2010
 804b808:	89 35 14 20 00 00    	mov    %esi,0x2014
 804b80e:	89 3d 18 20 00 00    	mov    %edi,0x2018
 804b814:	89 25 1c 20 00 00    	mov    %esp,0x201c
 804b81a:	c3                   	ret    

0804b81b <bsf1>:
 804b81b:	66 8b 1d 00 10 00 00 	mov    0x1000,%bx
 804b822:	67 66 0f bc 07       	addr16 bsf (%bx),%ax
 804b827:	66 a3 00 20 00 00    	mov    %ax,0x2000
 804b82d:	73 07                	jae    804b836 <bsf1+0x1b>
 804b82f:	c6 05 00 21 00 00 01 	movb   $0x1,0x2100
 804b836:	90                   	nop
 804b837:	75 07                	jne    804b840 <bsf1+0x25>
 804b839:	c6 05 01 21 00 00 02 	movb   $0x2,0x2101
 804b840:	90                   	nop
 804b841:	79 07                	jns    804b84a <bsf1+0x2f>
 804b843:	c6 05 02 21 00 00 03 	movb   $0x3,0x2102
 804b84a:	90                   	nop
 804b84b:	7b 07                	jnp    804b854 <bsf1+0x39>
 804b84d:	c6 05 03 21 00 00 04 	movb   $0x4,0x2103
 804b854:	90                   	nop
 804b855:	71 07                	jno    804b85e <bsf1+0x43>
 804b857:	c6 05 04 21 00 00 05 	movb   $0x5,0x2104
 804b85e:	90                   	nop
 804b85f:	c3                   	ret    

0804b860 <bsf1_constant>:
 804b860:	66 bb 01 00          	mov    $0x1,%bx
 804b864:	67 66 0f bc 07       	addr16 bsf (%bx),%ax
 804b869:	66 a3 00 20 00 00    	mov    %ax,0x2000
 804b86f:	73 07                	jae    804b878 <bsf1_constant+0x18>
 804b871:	c6 05 00 21 00 00 01 	movb   $0x1,0x2100
 804b878:	90                   	nop
 804b879:	75 07                	jne    804b882 <bsf1_constant+0x22>
 804b87b:	c6 05 01 21 00 00 02 	movb   $0x2,0x2101
 804b882:	90                   	nop
 804b883:	79 07                	jns    804b88c <bsf1_constant+0x2c>
 804b885:	c6 05 02 21 00 00 03 	movb   $0x3,0x2102
 804b88c:	90                   	nop
 804b88d:	7b 07                	jnp    804b896 <bsf1_constant+0x36>
 804b88f:	c6 05 03 21 00 00 04 	movb   $0x4,0x2103
 804b896:	90                   	nop
 804b897:	71 07                	jno    804b8a0 <bsf1_constant+0x40>
 804b899:	c6 05 04 21 00 00 05 	movb   $0x5,0x2104
 804b8a0:	90                   	nop
 804b8a1:	c3                   	ret    

0804b8a2 <bsf1_allregs>:
 804b8a2:	a1 00 10 00 00       	mov    0x1000,%eax
 804b8a7:	8b 1d 04 10 00 00    	mov    0x1004,%ebx
 804b8ad:	8b 0d 08 10 00 00    	mov    0x1008,%ecx
 804b8b3:	8b 15 0c 10 00 00    	mov    0x100c,%edx
 804b8b9:	8b 2d 10 10 00 00    	mov    0x1010,%ebp
 804b8bf:	8b 35 14 10 00 00    	mov    0x1014,%esi
 804b8c5:	8b 3d 18 10 00 00    	mov    0x1018,%edi
 804b8cb:	8b 25 1c 10 00 00    	mov    0x101c,%esp
 804b8d1:	67 66 0f bc 07       	addr16 bsf (%bx),%ax
 804b8d6:	a3 00 20 00 00       	mov    %eax,0x2000
 804b8db:	89 1d 04 20 00 00    	mov    %ebx,0x2004
 804b8e1:	89 0d 08 20 00 00    	mov    %ecx,0x2008
 804b8e7:	89 15 0c 20 00 00    	mov    %edx,0x200c
 804b8ed:	89 2d 10 20 00 00    	mov    %ebp,0x2010
 804b8f3:	89 35 14 20 00 00    	mov    %esi,0x2014
 804b8f9:	89 3d 18 20 00 00    	mov    %edi,0x2018
 804b8ff:	89 25 1c 20 00 00    	mov    %esp,0x201c
 804b905:	c3                   	ret    

0804b906 <bsf2>:
 804b906:	8b 1d 00 10 00 00    	mov    0x1000,%ebx
 804b90c:	0f bc 03             	bsf    (%ebx),%eax
 804b90f:	a3 00 20 00 00       	mov    %eax,0x2000
 804b914:	73 07                	jae    804b91d <bsf2+0x17>
 804b916:	c6 05 00 21 00 00 01 	movb   $0x1,0x2100
 804b91d:	90                   	nop
 804b91e:	75 07                	jne    804b927 <bsf2+0x21>
 804b920:	c6 05 01 21 00 00 02 	movb   $0x2,0x2101
 804b927:	90                   	nop
 804b928:	79 07                	jns    804b931 <bsf2+0x2b>
 804b92a:	c6 05 02 21 00 00 03 	movb   $0x3,0x2102
 804b931:	90                   	nop
 804b932:	7b 07                	jnp    804b93b <bsf2+0x35>
 804b934:	c6 05 03 21 00 00 04 	movb   $0x4,0x2103
 804b93b:	90                   	nop
 804b93c:	71 07                	jno    804b945 <bsf2+0x3f>
 804b93e:	c6 05 04 21 00 00 05 	movb   $0x5,0x2104
 804b945:	90                   	nop
 804b946:	c3                   	ret    

0804b947 <bsf2_constant>:
 804b947:	bb 01 00 00 00       	mov    $0x1,%ebx
 804b94c:	0f bc 03             	bsf    (%ebx),%eax
 804b94f:	a3 00 20 00 00       	mov    %eax,0x2000
 804b954:	73 07                	jae    804b95d <bsf2_constant+0x16>
 804b956:	c6 05 00 21 00 00 01 	movb   $0x1,0x2100
 804b95d:	90                   	nop
 804b95e:	75 07                	jne    804b967 <bsf2_constant+0x20>
 804b960:	c6 05 01 21 00 00 02 	movb   $0x2,0x2101
 804b967:	90                   	nop
 804b968:	79 07                	jns    804b971 <bsf2_constant+0x2a>
 804b96a:	c6 05 02 21 00 00 03 	movb   $0x3,0x2102
 804b971:	90                   	nop
 804b972:	7b 07                	jnp    804b97b <bsf2_constant+0x34>
 804b974:	c6 05 03 21 00 00 04 	movb   $0x4,0x2103
 804b97b:	90                   	nop
 804b97c:	71 07                	jno    804b985 <bsf2_constant+0x3e>
 804b97e:	c6 05 04 21 00 00 05 	movb   $0x5,0x2104
 804b985:	90                   	nop
 804b986:	c3                   	ret    

0804b987 <bsf2_allregs>:
 804b987:	a1 00 10 00 00       	mov    0x1000,%eax
 804b98c:	8b 1d 04 10 00 00    	mov    0x1004,%ebx
 804b992:	8b 0d 08 10 00 00    	mov    0x1008,%ecx
 804b998:	8b 15 0c 10 00 00    	mov    0x100c,%edx
 804b99e:	8b 2d 10 10 00 00    	mov    0x1010,%ebp
 804b9a4:	8b 35 14 10 00 00    	mov    0x1014,%esi
 804b9aa:	8b 3d 18 10 00 00    	mov    0x1018,%edi
 804b9b0:	8b 25 1c 10 00 00    	mov    0x101c,%esp
 804b9b6:	0f bc 03             	bsf    (%ebx),%eax
 804b9b9:	a3 00 20 00 00       	mov    %eax,0x2000
 804b9be:	89 1d 04 20 00 00    	mov    %ebx,0x2004
 804b9c4:	89 0d 08 20 00 00    	mov    %ecx,0x2008
 804b9ca:	89 15 0c 20 00 00    	mov    %edx,0x200c
 804b9d0:	89 2d 10 20 00 00    	mov    %ebp,0x2010
 804b9d6:	89 35 14 20 00 00    	mov    %esi,0x2014
 804b9dc:	89 3d 18 20 00 00    	mov    %edi,0x2018
 804b9e2:	89 25 1c 20 00 00    	mov    %esp,0x201c
 804b9e8:	c3                   	ret    

0804b9e9 <bsf3>:
 804b9e9:	66 8b 1d 00 10 00 00 	mov    0x1000,%bx
 804b9f0:	67 0f bc 07          	addr16 bsf (%bx),%eax
 804b9f4:	a3 00 20 00 00       	mov    %eax,0x2000
 804b9f9:	73 07                	jae    804ba02 <bsf3+0x19>
 804b9fb:	c6 05 00 21 00 00 01 	movb   $0x1,0x2100
 804ba02:	90                   	nop
 804ba03:	75 07                	jne    804ba0c <bsf3+0x23>
 804ba05:	c6 05 01 21 00 00 02 	movb   $0x2,0x2101
 804ba0c:	90                   	nop
 804ba0d:	79 07                	jns    804ba16 <bsf3+0x2d>
 804ba0f:	c6 05 02 21 00 00 03 	movb   $0x3,0x2102
 804ba16:	90                   	nop
 804ba17:	7b 07                	jnp    804ba20 <bsf3+0x37>
 804ba19:	c6 05 03 21 00 00 04 	movb   $0x4,0x2103
 804ba20:	90                   	nop
 804ba21:	71 07                	jno    804ba2a <bsf3+0x41>
 804ba23:	c6 05 04 21 00 00 05 	movb   $0x5,0x2104
 804ba2a:	90                   	nop
 804ba2b:	c3                   	ret    

0804ba2c <bsf3_constant>:
 804ba2c:	66 bb 01 00          	mov    $0x1,%bx
 804ba30:	67 0f bc 07          	addr16 bsf (%bx),%eax
 804ba34:	a3 00 20 00 00       	mov    %eax,0x2000
 804ba39:	73 07                	jae    804ba42 <bsf3_constant+0x16>
 804ba3b:	c6 05 00 21 00 00 01 	movb   $0x1,0x2100
 804ba42:	90                   	nop
 804ba43:	75 07                	jne    804ba4c <bsf3_constant+0x20>
 804ba45:	c6 05 01 21 00 00 02 	movb   $0x2,0x2101
 804ba4c:	90                   	nop
 804ba4d:	79 07                	jns    804ba56 <bsf3_constant+0x2a>
 804ba4f:	c6 05 02 21 00 00 03 	movb   $0x3,0x2102
 804ba56:	90                   	nop
 804ba57:	7b 07                	jnp    804ba60 <bsf3_constant+0x34>
 804ba59:	c6 05 03 21 00 00 04 	movb   $0x4,0x2103
 804ba60:	90                   	nop
 804ba61:	71 07                	jno    804ba6a <bsf3_constant+0x3e>
 804ba63:	c6 05 04 21 00 00 05 	movb   $0x5,0x2104
 804ba6a:	90                   	nop
 804ba6b:	c3                   	ret    

0804ba6c <bsf3_allregs>:
 804ba6c:	a1 00 10 00 00       	mov    0x1000,%eax
 804ba71:	8b 1d 04 10 00 00    	mov    0x1004,%ebx
 804ba77:	8b 0d 08 10 00 00    	mov    0x1008,%ecx
 804ba7d:	8b 15 0c 10 00 00    	mov    0x100c,%edx
 804ba83:	8b 2d 10 10 00 00    	mov    0x1010,%ebp
 804ba89:	8b 35 14 10 00 00    	mov    0x1014,%esi
 804ba8f:	8b 3d 18 10 00 00    	mov    0x1018,%edi
 804ba95:	8b 25 1c 10 00 00    	mov    0x101c,%esp
 804ba9b:	67 0f bc 07          	addr16 bsf (%bx),%eax
 804ba9f:	a3 00 20 00 00       	mov    %eax,0x2000
 804baa4:	89 1d 04 20 00 00    	mov    %ebx,0x2004
 804baaa:	89 0d 08 20 00 00    	mov    %ecx,0x2008
 804bab0:	89 15 0c 20 00 00    	mov    %edx,0x200c
 804bab6:	89 2d 10 20 00 00    	mov    %ebp,0x2010
 804babc:	89 35 14 20 00 00    	mov    %esi,0x2014
 804bac2:	89 3d 18 20 00 00    	mov    %edi,0x2018
 804bac8:	89 25 1c 20 00 00    	mov    %esp,0x201c
 804bace:	c3                   	ret    

0804bacf <bsf4>:
 804bacf:	8b 1d 00 10 00 00    	mov    0x1000,%ebx
 804bad5:	66 0f bc 03          	bsf    (%ebx),%ax
 804bad9:	a3 00 20 00 00       	mov    %eax,0x2000
 804bade:	73 07                	jae    804bae7 <bsf4+0x18>
 804bae0:	c6 05 00 21 00 00 01 	movb   $0x1,0x2100
 804bae7:	90                   	nop
 804bae8:	75 07                	jne    804baf1 <bsf4+0x22>
 804baea:	c6 05 01 21 00 00 02 	movb   $0x2,0x2101
 804baf1:	90                   	nop
 804baf2:	79 07                	jns    804bafb <bsf4+0x2c>
 804baf4:	c6 05 02 21 00 00 03 	movb   $0x3,0x2102
 804bafb:	90                   	nop
 804bafc:	7b 07                	jnp    804bb05 <bsf4+0x36>
 804bafe:	c6 05 03 21 00 00 04 	movb   $0x4,0x2103
 804bb05:	90                   	nop
 804bb06:	71 07                	jno    804bb0f <bsf4+0x40>
 804bb08:	c6 05 04 21 00 00 05 	movb   $0x5,0x2104
 804bb0f:	90                   	nop
 804bb10:	c3                   	ret    

0804bb11 <bsf4_constant>:
 804bb11:	bb 01 00 00 00       	mov    $0x1,%ebx
 804bb16:	66 0f bc 03          	bsf    (%ebx),%ax
 804bb1a:	a3 00 20 00 00       	mov    %eax,0x2000
 804bb1f:	73 07                	jae    804bb28 <bsf4_constant+0x17>
 804bb21:	c6 05 00 21 00 00 01 	movb   $0x1,0x2100
 804bb28:	90                   	nop
 804bb29:	75 07                	jne    804bb32 <bsf4_constant+0x21>
 804bb2b:	c6 05 01 21 00 00 02 	movb   $0x2,0x2101
 804bb32:	90                   	nop
 804bb33:	79 07                	jns    804bb3c <bsf4_constant+0x2b>
 804bb35:	c6 05 02 21 00 00 03 	movb   $0x3,0x2102
 804bb3c:	90                   	nop
 804bb3d:	7b 07                	jnp    804bb46 <bsf4_constant+0x35>
 804bb3f:	c6 05 03 21 00 00 04 	movb   $0x4,0x2103
 804bb46:	90                   	nop
 804bb47:	71 07                	jno    804bb50 <bsf4_constant+0x3f>
 804bb49:	c6 05 04 21 00 00 05 	movb   $0x5,0x2104
 804bb50:	90                   	nop
 804bb51:	c3                   	ret    

0804bb52 <bsf4_allregs>:
 804bb52:	a1 00 10 00 00       	mov    0x1000,%eax
 804bb57:	8b 1d 04 10 00 00    	mov    0x1004,%ebx
 804bb5d:	8b 0d 08 10 00 00    	mov    0x1008,%ecx
 804bb63:	8b 15 0c 10 00 00    	mov    0x100c,%edx
 804bb69:	8b 2d 10 10 00 00    	mov    0x1010,%ebp
 804bb6f:	8b 35 14 10 00 00    	mov    0x1014,%esi
 804bb75:	8b 3d 18 10 00 00    	mov    0x1018,%edi
 804bb7b:	8b 25 1c 10 00 00    	mov    0x101c,%esp
 804bb81:	66 0f bc 03          	bsf    (%ebx),%ax
 804bb85:	a3 00 20 00 00       	mov    %eax,0x2000
 804bb8a:	89 1d 04 20 00 00    	mov    %ebx,0x2004
 804bb90:	89 0d 08 20 00 00    	mov    %ecx,0x2008
 804bb96:	89 15 0c 20 00 00    	mov    %edx,0x200c
 804bb9c:	89 2d 10 20 00 00    	mov    %ebp,0x2010
 804bba2:	89 35 14 20 00 00    	mov    %esi,0x2014
 804bba8:	89 3d 18 20 00 00    	mov    %edi,0x2018
 804bbae:	89 25 1c 20 00 00    	mov    %esp,0x201c
 804bbb4:	c3                   	ret    

0804bbb5 <bsr1>:
 804bbb5:	66 8b 1d 00 10 00 00 	mov    0x1000,%bx
 804bbbc:	67 66 0f bd 07       	addr16 bsr (%bx),%ax
 804bbc1:	66 a3 00 20 00 00    	mov    %ax,0x2000
 804bbc7:	73 07                	jae    804bbd0 <bsr1+0x1b>
 804bbc9:	c6 05 00 21 00 00 01 	movb   $0x1,0x2100
 804bbd0:	90                   	nop
 804bbd1:	75 07                	jne    804bbda <bsr1+0x25>
 804bbd3:	c6 05 01 21 00 00 02 	movb   $0x2,0x2101
 804bbda:	90                   	nop
 804bbdb:	79 07                	jns    804bbe4 <bsr1+0x2f>
 804bbdd:	c6 05 02 21 00 00 03 	movb   $0x3,0x2102
 804bbe4:	90                   	nop
 804bbe5:	7b 07                	jnp    804bbee <bsr1+0x39>
 804bbe7:	c6 05 03 21 00 00 04 	movb   $0x4,0x2103
 804bbee:	90                   	nop
 804bbef:	71 07                	jno    804bbf8 <bsr1+0x43>
 804bbf1:	c6 05 04 21 00 00 05 	movb   $0x5,0x2104
 804bbf8:	90                   	nop
 804bbf9:	c3                   	ret    

0804bbfa <bsr1_constant>:
 804bbfa:	66 bb 01 00          	mov    $0x1,%bx
 804bbfe:	67 66 0f bd 07       	addr16 bsr (%bx),%ax
 804bc03:	66 a3 00 20 00 00    	mov    %ax,0x2000
 804bc09:	73 07                	jae    804bc12 <bsr1_constant+0x18>
 804bc0b:	c6 05 00 21 00 00 01 	movb   $0x1,0x2100
 804bc12:	90                   	nop
 804bc13:	75 07                	jne    804bc1c <bsr1_constant+0x22>
 804bc15:	c6 05 01 21 00 00 02 	movb   $0x2,0x2101
 804bc1c:	90                   	nop
 804bc1d:	79 07                	jns    804bc26 <bsr1_constant+0x2c>
 804bc1f:	c6 05 02 21 00 00 03 	movb   $0x3,0x2102
 804bc26:	90                   	nop
 804bc27:	7b 07                	jnp    804bc30 <bsr1_constant+0x36>
 804bc29:	c6 05 03 21 00 00 04 	movb   $0x4,0x2103
 804bc30:	90                   	nop
 804bc31:	71 07                	jno    804bc3a <bsr1_constant+0x40>
 804bc33:	c6 05 04 21 00 00 05 	movb   $0x5,0x2104
 804bc3a:	90                   	nop
 804bc3b:	c3                   	ret    

0804bc3c <bsr1_allregs>:
 804bc3c:	a1 00 10 00 00       	mov    0x1000,%eax
 804bc41:	8b 1d 04 10 00 00    	mov    0x1004,%ebx
 804bc47:	8b 0d 08 10 00 00    	mov    0x1008,%ecx
 804bc4d:	8b 15 0c 10 00 00    	mov    0x100c,%edx
 804bc53:	8b 2d 10 10 00 00    	mov    0x1010,%ebp
 804bc59:	8b 35 14 10 00 00    	mov    0x1014,%esi
 804bc5f:	8b 3d 18 10 00 00    	mov    0x1018,%edi
 804bc65:	8b 25 1c 10 00 00    	mov    0x101c,%esp
 804bc6b:	67 66 0f bd 07       	addr16 bsr (%bx),%ax
 804bc70:	a3 00 20 00 00       	mov    %eax,0x2000
 804bc75:	89 1d 04 20 00 00    	mov    %ebx,0x2004
 804bc7b:	89 0d 08 20 00 00    	mov    %ecx,0x2008
 804bc81:	89 15 0c 20 00 00    	mov    %edx,0x200c
 804bc87:	89 2d 10 20 00 00    	mov    %ebp,0x2010
 804bc8d:	89 35 14 20 00 00    	mov    %esi,0x2014
 804bc93:	89 3d 18 20 00 00    	mov    %edi,0x2018
 804bc99:	89 25 1c 20 00 00    	mov    %esp,0x201c
 804bc9f:	c3                   	ret    

0804bca0 <bsr2>:
 804bca0:	8b 1d 00 10 00 00    	mov    0x1000,%ebx
 804bca6:	0f bd 03             	bsr    (%ebx),%eax
 804bca9:	a3 00 20 00 00       	mov    %eax,0x2000
 804bcae:	73 07                	jae    804bcb7 <bsr2+0x17>
 804bcb0:	c6 05 00 21 00 00 01 	movb   $0x1,0x2100
 804bcb7:	90                   	nop
 804bcb8:	75 07                	jne    804bcc1 <bsr2+0x21>
 804bcba:	c6 05 01 21 00 00 02 	movb   $0x2,0x2101
 804bcc1:	90                   	nop
 804bcc2:	79 07                	jns    804bccb <bsr2+0x2b>
 804bcc4:	c6 05 02 21 00 00 03 	movb   $0x3,0x2102
 804bccb:	90                   	nop
 804bccc:	7b 07                	jnp    804bcd5 <bsr2+0x35>
 804bcce:	c6 05 03 21 00 00 04 	movb   $0x4,0x2103
 804bcd5:	90                   	nop
 804bcd6:	71 07                	jno    804bcdf <bsr2+0x3f>
 804bcd8:	c6 05 04 21 00 00 05 	movb   $0x5,0x2104
 804bcdf:	90                   	nop
 804bce0:	c3                   	ret    

0804bce1 <bsr2_constant>:
 804bce1:	bb 01 00 00 00       	mov    $0x1,%ebx
 804bce6:	0f bd 03             	bsr    (%ebx),%eax
 804bce9:	a3 00 20 00 00       	mov    %eax,0x2000
 804bcee:	73 07                	jae    804bcf7 <bsr2_constant+0x16>
 804bcf0:	c6 05 00 21 00 00 01 	movb   $0x1,0x2100
 804bcf7:	90                   	nop
 804bcf8:	75 07                	jne    804bd01 <bsr2_constant+0x20>
 804bcfa:	c6 05 01 21 00 00 02 	movb   $0x2,0x2101
 804bd01:	90                   	nop
 804bd02:	79 07                	jns    804bd0b <bsr2_constant+0x2a>
 804bd04:	c6 05 02 21 00 00 03 	movb   $0x3,0x2102
 804bd0b:	90                   	nop
 804bd0c:	7b 07                	jnp    804bd15 <bsr2_constant+0x34>
 804bd0e:	c6 05 03 21 00 00 04 	movb   $0x4,0x2103
 804bd15:	90                   	nop
 804bd16:	71 07                	jno    804bd1f <bsr2_constant+0x3e>
 804bd18:	c6 05 04 21 00 00 05 	movb   $0x5,0x2104
 804bd1f:	90                   	nop
 804bd20:	c3                   	ret    

0804bd21 <bsr2_allregs>:
 804bd21:	a1 00 10 00 00       	mov    0x1000,%eax
 804bd26:	8b 1d 04 10 00 00    	mov    0x1004,%ebx
 804bd2c:	8b 0d 08 10 00 00    	mov    0x1008,%ecx
 804bd32:	8b 15 0c 10 00 00    	mov    0x100c,%edx
 804bd38:	8b 2d 10 10 00 00    	mov    0x1010,%ebp
 804bd3e:	8b 35 14 10 00 00    	mov    0x1014,%esi
 804bd44:	8b 3d 18 10 00 00    	mov    0x1018,%edi
 804bd4a:	8b 25 1c 10 00 00    	mov    0x101c,%esp
 804bd50:	0f bd 03             	bsr    (%ebx),%eax
 804bd53:	a3 00 20 00 00       	mov    %eax,0x2000
 804bd58:	89 1d 04 20 00 00    	mov    %ebx,0x2004
 804bd5e:	89 0d 08 20 00 00    	mov    %ecx,0x2008
 804bd64:	89 15 0c 20 00 00    	mov    %edx,0x200c
 804bd6a:	89 2d 10 20 00 00    	mov    %ebp,0x2010
 804bd70:	89 35 14 20 00 00    	mov    %esi,0x2014
 804bd76:	89 3d 18 20 00 00    	mov    %edi,0x2018
 804bd7c:	89 25 1c 20 00 00    	mov    %esp,0x201c
 804bd82:	c3                   	ret    

0804bd83 <bsr3>:
 804bd83:	66 8b 1d 00 10 00 00 	mov    0x1000,%bx
 804bd8a:	67 0f bd 07          	addr16 bsr (%bx),%eax
 804bd8e:	66 a3 00 20 00 00    	mov    %ax,0x2000
 804bd94:	73 07                	jae    804bd9d <bsr3+0x1a>
 804bd96:	c6 05 00 21 00 00 01 	movb   $0x1,0x2100
 804bd9d:	90                   	nop
 804bd9e:	75 07                	jne    804bda7 <bsr3+0x24>
 804bda0:	c6 05 01 21 00 00 02 	movb   $0x2,0x2101
 804bda7:	90                   	nop
 804bda8:	79 07                	jns    804bdb1 <bsr3+0x2e>
 804bdaa:	c6 05 02 21 00 00 03 	movb   $0x3,0x2102
 804bdb1:	90                   	nop
 804bdb2:	7b 07                	jnp    804bdbb <bsr3+0x38>
 804bdb4:	c6 05 03 21 00 00 04 	movb   $0x4,0x2103
 804bdbb:	90                   	nop
 804bdbc:	71 07                	jno    804bdc5 <bsr3+0x42>
 804bdbe:	c6 05 04 21 00 00 05 	movb   $0x5,0x2104
 804bdc5:	90                   	nop
 804bdc6:	c3                   	ret    

0804bdc7 <bsr3_constant>:
 804bdc7:	66 bb 01 00          	mov    $0x1,%bx
 804bdcb:	67 0f bd 07          	addr16 bsr (%bx),%eax
 804bdcf:	66 a3 00 20 00 00    	mov    %ax,0x2000
 804bdd5:	73 07                	jae    804bdde <bsr3_constant+0x17>
 804bdd7:	c6 05 00 21 00 00 01 	movb   $0x1,0x2100
 804bdde:	90                   	nop
 804bddf:	75 07                	jne    804bde8 <bsr3_constant+0x21>
 804bde1:	c6 05 01 21 00 00 02 	movb   $0x2,0x2101
 804bde8:	90                   	nop
 804bde9:	79 07                	jns    804bdf2 <bsr3_constant+0x2b>
 804bdeb:	c6 05 02 21 00 00 03 	movb   $0x3,0x2102
 804bdf2:	90                   	nop
 804bdf3:	7b 07                	jnp    804bdfc <bsr3_constant+0x35>
 804bdf5:	c6 05 03 21 00 00 04 	movb   $0x4,0x2103
 804bdfc:	90                   	nop
 804bdfd:	71 07                	jno    804be06 <bsr3_constant+0x3f>
 804bdff:	c6 05 04 21 00 00 05 	movb   $0x5,0x2104
 804be06:	90                   	nop
 804be07:	c3                   	ret    

0804be08 <bsr3_allregs>:
 804be08:	a1 00 10 00 00       	mov    0x1000,%eax
 804be0d:	8b 1d 04 10 00 00    	mov    0x1004,%ebx
 804be13:	8b 0d 08 10 00 00    	mov    0x1008,%ecx
 804be19:	8b 15 0c 10 00 00    	mov    0x100c,%edx
 804be1f:	8b 2d 10 10 00 00    	mov    0x1010,%ebp
 804be25:	8b 35 14 10 00 00    	mov    0x1014,%esi
 804be2b:	8b 3d 18 10 00 00    	mov    0x1018,%edi
 804be31:	8b 25 1c 10 00 00    	mov    0x101c,%esp
 804be37:	67 0f bd 07          	addr16 bsr (%bx),%eax
 804be3b:	a3 00 20 00 00       	mov    %eax,0x2000
 804be40:	89 1d 04 20 00 00    	mov    %ebx,0x2004
 804be46:	89 0d 08 20 00 00    	mov    %ecx,0x2008
 804be4c:	89 15 0c 20 00 00    	mov    %edx,0x200c
 804be52:	89 2d 10 20 00 00    	mov    %ebp,0x2010
 804be58:	89 35 14 20 00 00    	mov    %esi,0x2014
 804be5e:	89 3d 18 20 00 00    	mov    %edi,0x2018
 804be64:	89 25 1c 20 00 00    	mov    %esp,0x201c
 804be6a:	c3                   	ret    

0804be6b <bsr4>:
 804be6b:	8b 1d 00 10 00 00    	mov    0x1000,%ebx
 804be71:	66 0f bd 03          	bsr    (%ebx),%ax
 804be75:	66 a3 00 20 00 00    	mov    %ax,0x2000
 804be7b:	73 07                	jae    804be84 <bsr4+0x19>
 804be7d:	c6 05 00 21 00 00 01 	movb   $0x1,0x2100
 804be84:	90                   	nop
 804be85:	75 07                	jne    804be8e <bsr4+0x23>
 804be87:	c6 05 01 21 00 00 02 	movb   $0x2,0x2101
 804be8e:	90                   	nop
 804be8f:	79 07                	jns    804be98 <bsr4+0x2d>
 804be91:	c6 05 02 21 00 00 03 	movb   $0x3,0x2102
 804be98:	90                   	nop
 804be99:	7b 07                	jnp    804bea2 <bsr4+0x37>
 804be9b:	c6 05 03 21 00 00 04 	movb   $0x4,0x2103
 804bea2:	90                   	nop
 804bea3:	71 07                	jno    804beac <bsr4+0x41>
 804bea5:	c6 05 04 21 00 00 05 	movb   $0x5,0x2104
 804beac:	90                   	nop
 804bead:	c3                   	ret    

0804beae <bsr4_constant>:
 804beae:	bb 01 00 00 00       	mov    $0x1,%ebx
 804beb3:	66 0f bd 03          	bsr    (%ebx),%ax
 804beb7:	66 a3 00 20 00 00    	mov    %ax,0x2000
 804bebd:	73 07                	jae    804bec6 <bsr4_constant+0x18>
 804bebf:	c6 05 00 21 00 00 01 	movb   $0x1,0x2100
 804bec6:	90                   	nop
 804bec7:	75 07                	jne    804bed0 <bsr4_constant+0x22>
 804bec9:	c6 05 01 21 00 00 02 	movb   $0x2,0x2101
 804bed0:	90                   	nop
 804bed1:	79 07                	jns    804beda <bsr4_constant+0x2c>
 804bed3:	c6 05 02 21 00 00 03 	movb   $0x3,0x2102
 804beda:	90                   	nop
 804bedb:	7b 07                	jnp    804bee4 <bsr4_constant+0x36>
 804bedd:	c6 05 03 21 00 00 04 	movb   $0x4,0x2103
 804bee4:	90                   	nop
 804bee5:	71 07                	jno    804beee <bsr4_constant+0x40>
 804bee7:	c6 05 04 21 00 00 05 	movb   $0x5,0x2104
 804beee:	90                   	nop
 804beef:	c3                   	ret    

0804bef0 <bsr4_allregs>:
 804bef0:	a1 00 10 00 00       	mov    0x1000,%eax
 804bef5:	8b 1d 04 10 00 00    	mov    0x1004,%ebx
 804befb:	8b 0d 08 10 00 00    	mov    0x1008,%ecx
 804bf01:	8b 15 0c 10 00 00    	mov    0x100c,%edx
 804bf07:	8b 2d 10 10 00 00    	mov    0x1010,%ebp
 804bf0d:	8b 35 14 10 00 00    	mov    0x1014,%esi
 804bf13:	8b 3d 18 10 00 00    	mov    0x1018,%edi
 804bf19:	8b 25 1c 10 00 00    	mov    0x101c,%esp
 804bf1f:	66 0f bd 03          	bsr    (%ebx),%ax
 804bf23:	a3 00 20 00 00       	mov    %eax,0x2000
 804bf28:	89 1d 04 20 00 00    	mov    %ebx,0x2004
 804bf2e:	89 0d 08 20 00 00    	mov    %ecx,0x2008
 804bf34:	89 15 0c 20 00 00    	mov    %edx,0x200c
 804bf3a:	89 2d 10 20 00 00    	mov    %ebp,0x2010
 804bf40:	89 35 14 20 00 00    	mov    %esi,0x2014
 804bf46:	89 3d 18 20 00 00    	mov    %edi,0x2018
 804bf4c:	89 25 1c 20 00 00    	mov    %esp,0x201c
 804bf52:	c3                   	ret    

0804bf53 <bt1>:
 804bf53:	66 a1 00 10 00 00    	mov    0x1000,%ax
 804bf59:	66 0f ba e0 04       	bt     $0x4,%ax
 804bf5e:	73 07                	jae    804bf67 <bt1+0x14>
 804bf60:	c6 05 00 21 00 00 01 	movb   $0x1,0x2100
 804bf67:	90                   	nop
 804bf68:	75 07                	jne    804bf71 <bt1+0x1e>
 804bf6a:	c6 05 01 21 00 00 02 	movb   $0x2,0x2101
 804bf71:	90                   	nop
 804bf72:	79 07                	jns    804bf7b <bt1+0x28>
 804bf74:	c6 05 02 21 00 00 03 	movb   $0x3,0x2102
 804bf7b:	90                   	nop
 804bf7c:	7b 07                	jnp    804bf85 <bt1+0x32>
 804bf7e:	c6 05 03 21 00 00 04 	movb   $0x4,0x2103
 804bf85:	90                   	nop
 804bf86:	71 07                	jno    804bf8f <bt1+0x3c>
 804bf88:	c6 05 04 21 00 00 05 	movb   $0x5,0x2104
 804bf8f:	90                   	nop
 804bf90:	c3                   	ret    

0804bf91 <bt1_constant>:
 804bf91:	66 b8 01 00          	mov    $0x1,%ax
 804bf95:	66 0f ba e0 04       	bt     $0x4,%ax
 804bf9a:	73 07                	jae    804bfa3 <bt1_constant+0x12>
 804bf9c:	c6 05 00 21 00 00 01 	movb   $0x1,0x2100
 804bfa3:	90                   	nop
 804bfa4:	75 07                	jne    804bfad <bt1_constant+0x1c>
 804bfa6:	c6 05 01 21 00 00 02 	movb   $0x2,0x2101
 804bfad:	90                   	nop
 804bfae:	79 07                	jns    804bfb7 <bt1_constant+0x26>
 804bfb0:	c6 05 02 21 00 00 03 	movb   $0x3,0x2102
 804bfb7:	90                   	nop
 804bfb8:	7b 07                	jnp    804bfc1 <bt1_constant+0x30>
 804bfba:	c6 05 03 21 00 00 04 	movb   $0x4,0x2103
 804bfc1:	90                   	nop
 804bfc2:	71 07                	jno    804bfcb <bt1_constant+0x3a>
 804bfc4:	c6 05 04 21 00 00 05 	movb   $0x5,0x2104
 804bfcb:	90                   	nop
 804bfcc:	c3                   	ret    

0804bfcd <bt1_allregs>:
 804bfcd:	a1 00 10 00 00       	mov    0x1000,%eax
 804bfd2:	8b 1d 04 10 00 00    	mov    0x1004,%ebx
 804bfd8:	8b 0d 08 10 00 00    	mov    0x1008,%ecx
 804bfde:	8b 15 0c 10 00 00    	mov    0x100c,%edx
 804bfe4:	8b 2d 10 10 00 00    	mov    0x1010,%ebp
 804bfea:	8b 35 14 10 00 00    	mov    0x1014,%esi
 804bff0:	8b 3d 18 10 00 00    	mov    0x1018,%edi
 804bff6:	8b 25 1c 10 00 00    	mov    0x101c,%esp
 804bffc:	66 0f ba e0 04       	bt     $0x4,%ax
 804c001:	a3 00 20 00 00       	mov    %eax,0x2000
 804c006:	89 1d 04 20 00 00    	mov    %ebx,0x2004
 804c00c:	89 0d 08 20 00 00    	mov    %ecx,0x2008
 804c012:	89 15 0c 20 00 00    	mov    %edx,0x200c
 804c018:	89 2d 10 20 00 00    	mov    %ebp,0x2010
 804c01e:	89 35 14 20 00 00    	mov    %esi,0x2014
 804c024:	89 3d 18 20 00 00    	mov    %edi,0x2018
 804c02a:	89 25 1c 20 00 00    	mov    %esp,0x201c
 804c030:	c3                   	ret    

0804c031 <bt2>:
 804c031:	66 a1 00 10 00 00    	mov    0x1000,%ax
 804c037:	66 8b 1d 04 10 00 00 	mov    0x1004,%bx
 804c03e:	66 0f a3 d8          	bt     %bx,%ax
 804c042:	73 07                	jae    804c04b <bt2+0x1a>
 804c044:	c6 05 00 21 00 00 01 	movb   $0x1,0x2100
 804c04b:	90                   	nop
 804c04c:	75 07                	jne    804c055 <bt2+0x24>
 804c04e:	c6 05 01 21 00 00 02 	movb   $0x2,0x2101
 804c055:	90                   	nop
 804c056:	79 07                	jns    804c05f <bt2+0x2e>
 804c058:	c6 05 02 21 00 00 03 	movb   $0x3,0x2102
 804c05f:	90                   	nop
 804c060:	7b 07                	jnp    804c069 <bt2+0x38>
 804c062:	c6 05 03 21 00 00 04 	movb   $0x4,0x2103
 804c069:	90                   	nop
 804c06a:	71 07                	jno    804c073 <bt2+0x42>
 804c06c:	c6 05 04 21 00 00 05 	movb   $0x5,0x2104
 804c073:	90                   	nop
 804c074:	c3                   	ret    

0804c075 <bt2_constant>:
 804c075:	66 b8 01 00          	mov    $0x1,%ax
 804c079:	66 bb 02 00          	mov    $0x2,%bx
 804c07d:	66 0f a3 d8          	bt     %bx,%ax
 804c081:	73 07                	jae    804c08a <bt2_constant+0x15>
 804c083:	c6 05 00 21 00 00 01 	movb   $0x1,0x2100
 804c08a:	90                   	nop
 804c08b:	75 07                	jne    804c094 <bt2_constant+0x1f>
 804c08d:	c6 05 01 21 00 00 02 	movb   $0x2,0x2101
 804c094:	90                   	nop
 804c095:	79 07                	jns    804c09e <bt2_constant+0x29>
 804c097:	c6 05 02 21 00 00 03 	movb   $0x3,0x2102
 804c09e:	90                   	nop
 804c09f:	7b 07                	jnp    804c0a8 <bt2_constant+0x33>
 804c0a1:	c6 05 03 21 00 00 04 	movb   $0x4,0x2103
 804c0a8:	90                   	nop
 804c0a9:	71 07                	jno    804c0b2 <bt2_constant+0x3d>
 804c0ab:	c6 05 04 21 00 00 05 	movb   $0x5,0x2104
 804c0b2:	90                   	nop
 804c0b3:	c3                   	ret    

0804c0b4 <bt2_allregs>:
 804c0b4:	a1 00 10 00 00       	mov    0x1000,%eax
 804c0b9:	8b 1d 04 10 00 00    	mov    0x1004,%ebx
 804c0bf:	8b 0d 08 10 00 00    	mov    0x1008,%ecx
 804c0c5:	8b 15 0c 10 00 00    	mov    0x100c,%edx
 804c0cb:	8b 2d 10 10 00 00    	mov    0x1010,%ebp
 804c0d1:	8b 35 14 10 00 00    	mov    0x1014,%esi
 804c0d7:	8b 3d 18 10 00 00    	mov    0x1018,%edi
 804c0dd:	8b 25 1c 10 00 00    	mov    0x101c,%esp
 804c0e3:	66 0f a3 d8          	bt     %bx,%ax
 804c0e7:	a3 00 20 00 00       	mov    %eax,0x2000
 804c0ec:	89 1d 04 20 00 00    	mov    %ebx,0x2004
 804c0f2:	89 0d 08 20 00 00    	mov    %ecx,0x2008
 804c0f8:	89 15 0c 20 00 00    	mov    %edx,0x200c
 804c0fe:	89 2d 10 20 00 00    	mov    %ebp,0x2010
 804c104:	89 35 14 20 00 00    	mov    %esi,0x2014
 804c10a:	89 3d 18 20 00 00    	mov    %edi,0x2018
 804c110:	89 25 1c 20 00 00    	mov    %esp,0x201c
 804c116:	c3                   	ret    

0804c117 <bt3>:
 804c117:	a1 00 10 00 00       	mov    0x1000,%eax
 804c11c:	0f ba e0 1f          	bt     $0x1f,%eax
 804c120:	73 07                	jae    804c129 <bt3+0x12>
 804c122:	c6 05 00 21 00 00 01 	movb   $0x1,0x2100
 804c129:	90                   	nop
 804c12a:	75 07                	jne    804c133 <bt3+0x1c>
 804c12c:	c6 05 01 21 00 00 02 	movb   $0x2,0x2101
 804c133:	90                   	nop
 804c134:	79 07                	jns    804c13d <bt3+0x26>
 804c136:	c6 05 02 21 00 00 03 	movb   $0x3,0x2102
 804c13d:	90                   	nop
 804c13e:	7b 07                	jnp    804c147 <bt3+0x30>
 804c140:	c6 05 03 21 00 00 04 	movb   $0x4,0x2103
 804c147:	90                   	nop
 804c148:	71 07                	jno    804c151 <bt3+0x3a>
 804c14a:	c6 05 04 21 00 00 05 	movb   $0x5,0x2104
 804c151:	90                   	nop
 804c152:	c3                   	ret    

0804c153 <bt3_constant>:
 804c153:	b8 01 00 00 00       	mov    $0x1,%eax
 804c158:	0f ba e0 1f          	bt     $0x1f,%eax
 804c15c:	73 07                	jae    804c165 <bt3_constant+0x12>
 804c15e:	c6 05 00 21 00 00 01 	movb   $0x1,0x2100
 804c165:	90                   	nop
 804c166:	75 07                	jne    804c16f <bt3_constant+0x1c>
 804c168:	c6 05 01 21 00 00 02 	movb   $0x2,0x2101
 804c16f:	90                   	nop
 804c170:	79 07                	jns    804c179 <bt3_constant+0x26>
 804c172:	c6 05 02 21 00 00 03 	movb   $0x3,0x2102
 804c179:	90                   	nop
 804c17a:	7b 07                	jnp    804c183 <bt3_constant+0x30>
 804c17c:	c6 05 03 21 00 00 04 	movb   $0x4,0x2103
 804c183:	90                   	nop
 804c184:	71 07                	jno    804c18d <bt3_constant+0x3a>
 804c186:	c6 05 04 21 00 00 05 	movb   $0x5,0x2104
 804c18d:	90                   	nop
 804c18e:	c3                   	ret    

0804c18f <bt3_allregs>:
 804c18f:	a1 00 10 00 00       	mov    0x1000,%eax
 804c194:	8b 1d 04 10 00 00    	mov    0x1004,%ebx
 804c19a:	8b 0d 08 10 00 00    	mov    0x1008,%ecx
 804c1a0:	8b 15 0c 10 00 00    	mov    0x100c,%edx
 804c1a6:	8b 2d 10 10 00 00    	mov    0x1010,%ebp
 804c1ac:	8b 35 14 10 00 00    	mov    0x1014,%esi
 804c1b2:	8b 3d 18 10 00 00    	mov    0x1018,%edi
 804c1b8:	8b 25 1c 10 00 00    	mov    0x101c,%esp
 804c1be:	0f ba e0 1f          	bt     $0x1f,%eax
 804c1c2:	a3 00 20 00 00       	mov    %eax,0x2000
 804c1c7:	89 1d 04 20 00 00    	mov    %ebx,0x2004
 804c1cd:	89 0d 08 20 00 00    	mov    %ecx,0x2008
 804c1d3:	89 15 0c 20 00 00    	mov    %edx,0x200c
 804c1d9:	89 2d 10 20 00 00    	mov    %ebp,0x2010
 804c1df:	89 35 14 20 00 00    	mov    %esi,0x2014
 804c1e5:	89 3d 18 20 00 00    	mov    %edi,0x2018
 804c1eb:	89 25 1c 20 00 00    	mov    %esp,0x201c
 804c1f1:	c3                   	ret    

0804c1f2 <bt4>:
 804c1f2:	a1 00 10 00 00       	mov    0x1000,%eax
 804c1f7:	66 8b 1d 04 10 00 00 	mov    0x1004,%bx
 804c1fe:	0f a3 d8             	bt     %ebx,%eax
 804c201:	73 07                	jae    804c20a <bt4+0x18>
 804c203:	c6 05 00 21 00 00 01 	movb   $0x1,0x2100
 804c20a:	90                   	nop
 804c20b:	75 07                	jne    804c214 <bt4+0x22>
 804c20d:	c6 05 01 21 00 00 02 	movb   $0x2,0x2101
 804c214:	90                   	nop
 804c215:	79 07                	jns    804c21e <bt4+0x2c>
 804c217:	c6 05 02 21 00 00 03 	movb   $0x3,0x2102
 804c21e:	90                   	nop
 804c21f:	7b 07                	jnp    804c228 <bt4+0x36>
 804c221:	c6 05 03 21 00 00 04 	movb   $0x4,0x2103
 804c228:	90                   	nop
 804c229:	71 07                	jno    804c232 <bt4+0x40>
 804c22b:	c6 05 04 21 00 00 05 	movb   $0x5,0x2104
 804c232:	90                   	nop
 804c233:	c3                   	ret    

0804c234 <bt4_constant>:
 804c234:	b8 01 00 00 00       	mov    $0x1,%eax
 804c239:	66 bb 02 00          	mov    $0x2,%bx
 804c23d:	0f a3 d8             	bt     %ebx,%eax
 804c240:	73 07                	jae    804c249 <bt4_constant+0x15>
 804c242:	c6 05 00 21 00 00 01 	movb   $0x1,0x2100
 804c249:	90                   	nop
 804c24a:	75 07                	jne    804c253 <bt4_constant+0x1f>
 804c24c:	c6 05 01 21 00 00 02 	movb   $0x2,0x2101
 804c253:	90                   	nop
 804c254:	79 07                	jns    804c25d <bt4_constant+0x29>
 804c256:	c6 05 02 21 00 00 03 	movb   $0x3,0x2102
 804c25d:	90                   	nop
 804c25e:	7b 07                	jnp    804c267 <bt4_constant+0x33>
 804c260:	c6 05 03 21 00 00 04 	movb   $0x4,0x2103
 804c267:	90                   	nop
 804c268:	71 07                	jno    804c271 <bt4_constant+0x3d>
 804c26a:	c6 05 04 21 00 00 05 	movb   $0x5,0x2104
 804c271:	90                   	nop
 804c272:	c3                   	ret    

0804c273 <bt4_allregs>:
 804c273:	a1 00 10 00 00       	mov    0x1000,%eax
 804c278:	8b 1d 04 10 00 00    	mov    0x1004,%ebx
 804c27e:	8b 0d 08 10 00 00    	mov    0x1008,%ecx
 804c284:	8b 15 0c 10 00 00    	mov    0x100c,%edx
 804c28a:	8b 2d 10 10 00 00    	mov    0x1010,%ebp
 804c290:	8b 35 14 10 00 00    	mov    0x1014,%esi
 804c296:	8b 3d 18 10 00 00    	mov    0x1018,%edi
 804c29c:	8b 25 1c 10 00 00    	mov    0x101c,%esp
 804c2a2:	0f a3 d8             	bt     %ebx,%eax
 804c2a5:	a3 00 20 00 00       	mov    %eax,0x2000
 804c2aa:	89 1d 04 20 00 00    	mov    %ebx,0x2004
 804c2b0:	89 0d 08 20 00 00    	mov    %ecx,0x2008
 804c2b6:	89 15 0c 20 00 00    	mov    %edx,0x200c
 804c2bc:	89 2d 10 20 00 00    	mov    %ebp,0x2010
 804c2c2:	89 35 14 20 00 00    	mov    %esi,0x2014
 804c2c8:	89 3d 18 20 00 00    	mov    %edi,0x2018
 804c2ce:	89 25 1c 20 00 00    	mov    %esp,0x201c
 804c2d4:	c3                   	ret    

0804c2d5 <bt5>:
 804c2d5:	a1 00 10 00 00       	mov    0x1000,%eax
 804c2da:	8b 1d 04 10 00 00    	mov    0x1004,%ebx
 804c2e0:	0f a3 18             	bt     %ebx,(%eax)
 804c2e3:	73 07                	jae    804c2ec <bt5+0x17>
 804c2e5:	c6 05 00 21 00 00 01 	movb   $0x1,0x2100
 804c2ec:	90                   	nop
 804c2ed:	75 07                	jne    804c2f6 <bt5+0x21>
 804c2ef:	c6 05 01 21 00 00 02 	movb   $0x2,0x2101
 804c2f6:	90                   	nop
 804c2f7:	79 07                	jns    804c300 <bt5+0x2b>
 804c2f9:	c6 05 02 21 00 00 03 	movb   $0x3,0x2102
 804c300:	90                   	nop
 804c301:	7b 07                	jnp    804c30a <bt5+0x35>
 804c303:	c6 05 03 21 00 00 04 	movb   $0x4,0x2103
 804c30a:	90                   	nop
 804c30b:	71 07                	jno    804c314 <bt5+0x3f>
 804c30d:	c6 05 04 21 00 00 05 	movb   $0x5,0x2104
 804c314:	90                   	nop
 804c315:	c3                   	ret    

0804c316 <bt5_constant>:
 804c316:	b8 01 00 00 00       	mov    $0x1,%eax
 804c31b:	bb 02 00 00 00       	mov    $0x2,%ebx
 804c320:	0f a3 18             	bt     %ebx,(%eax)
 804c323:	73 07                	jae    804c32c <bt5_constant+0x16>
 804c325:	c6 05 00 21 00 00 01 	movb   $0x1,0x2100
 804c32c:	90                   	nop
 804c32d:	75 07                	jne    804c336 <bt5_constant+0x20>
 804c32f:	c6 05 01 21 00 00 02 	movb   $0x2,0x2101
 804c336:	90                   	nop
 804c337:	79 07                	jns    804c340 <bt5_constant+0x2a>
 804c339:	c6 05 02 21 00 00 03 	movb   $0x3,0x2102
 804c340:	90                   	nop
 804c341:	7b 07                	jnp    804c34a <bt5_constant+0x34>
 804c343:	c6 05 03 21 00 00 04 	movb   $0x4,0x2103
 804c34a:	90                   	nop
 804c34b:	71 07                	jno    804c354 <bt5_constant+0x3e>
 804c34d:	c6 05 04 21 00 00 05 	movb   $0x5,0x2104
 804c354:	90                   	nop
 804c355:	c3                   	ret    

0804c356 <bt5_allregs>:
 804c356:	a1 00 10 00 00       	mov    0x1000,%eax
 804c35b:	8b 1d 04 10 00 00    	mov    0x1004,%ebx
 804c361:	8b 0d 08 10 00 00    	mov    0x1008,%ecx
 804c367:	8b 15 0c 10 00 00    	mov    0x100c,%edx
 804c36d:	8b 2d 10 10 00 00    	mov    0x1010,%ebp
 804c373:	8b 35 14 10 00 00    	mov    0x1014,%esi
 804c379:	8b 3d 18 10 00 00    	mov    0x1018,%edi
 804c37f:	8b 25 1c 10 00 00    	mov    0x101c,%esp
 804c385:	0f a3 18             	bt     %ebx,(%eax)
 804c388:	a3 00 20 00 00       	mov    %eax,0x2000
 804c38d:	89 1d 04 20 00 00    	mov    %ebx,0x2004
 804c393:	89 0d 08 20 00 00    	mov    %ecx,0x2008
 804c399:	89 15 0c 20 00 00    	mov    %edx,0x200c
 804c39f:	89 2d 10 20 00 00    	mov    %ebp,0x2010
 804c3a5:	89 35 14 20 00 00    	mov    %esi,0x2014
 804c3ab:	89 3d 18 20 00 00    	mov    %edi,0x2018
 804c3b1:	89 25 1c 20 00 00    	mov    %esp,0x201c
 804c3b7:	c3                   	ret    

0804c3b8 <btc1>:
 804c3b8:	66 a1 00 10 00 00    	mov    0x1000,%ax
 804c3be:	66 0f ba f8 04       	btc    $0x4,%ax
 804c3c3:	66 a3 00 20 00 00    	mov    %ax,0x2000
 804c3c9:	73 07                	jae    804c3d2 <btc1+0x1a>
 804c3cb:	c6 05 00 21 00 00 01 	movb   $0x1,0x2100
 804c3d2:	90                   	nop
 804c3d3:	75 07                	jne    804c3dc <btc1+0x24>
 804c3d5:	c6 05 01 21 00 00 02 	movb   $0x2,0x2101
 804c3dc:	90                   	nop
 804c3dd:	79 07                	jns    804c3e6 <btc1+0x2e>
 804c3df:	c6 05 02 21 00 00 03 	movb   $0x3,0x2102
 804c3e6:	90                   	nop
 804c3e7:	7b 07                	jnp    804c3f0 <btc1+0x38>
 804c3e9:	c6 05 03 21 00 00 04 	movb   $0x4,0x2103
 804c3f0:	90                   	nop
 804c3f1:	71 07                	jno    804c3fa <btc1+0x42>
 804c3f3:	c6 05 04 21 00 00 05 	movb   $0x5,0x2104
 804c3fa:	90                   	nop
 804c3fb:	c3                   	ret    

0804c3fc <btc1_constant>:
 804c3fc:	66 b8 01 00          	mov    $0x1,%ax
 804c400:	66 0f ba f8 04       	btc    $0x4,%ax
 804c405:	66 a3 00 20 00 00    	mov    %ax,0x2000
 804c40b:	73 07                	jae    804c414 <btc1_constant+0x18>
 804c40d:	c6 05 00 21 00 00 01 	movb   $0x1,0x2100
 804c414:	90                   	nop
 804c415:	75 07                	jne    804c41e <btc1_constant+0x22>
 804c417:	c6 05 01 21 00 00 02 	movb   $0x2,0x2101
 804c41e:	90                   	nop
 804c41f:	79 07                	jns    804c428 <btc1_constant+0x2c>
 804c421:	c6 05 02 21 00 00 03 	movb   $0x3,0x2102
 804c428:	90                   	nop
 804c429:	7b 07                	jnp    804c432 <btc1_constant+0x36>
 804c42b:	c6 05 03 21 00 00 04 	movb   $0x4,0x2103
 804c432:	90                   	nop
 804c433:	71 07                	jno    804c43c <btc1_constant+0x40>
 804c435:	c6 05 04 21 00 00 05 	movb   $0x5,0x2104
 804c43c:	90                   	nop
 804c43d:	c3                   	ret    

0804c43e <btc1_allregs>:
 804c43e:	a1 00 10 00 00       	mov    0x1000,%eax
 804c443:	8b 1d 04 10 00 00    	mov    0x1004,%ebx
 804c449:	8b 0d 08 10 00 00    	mov    0x1008,%ecx
 804c44f:	8b 15 0c 10 00 00    	mov    0x100c,%edx
 804c455:	8b 2d 10 10 00 00    	mov    0x1010,%ebp
 804c45b:	8b 35 14 10 00 00    	mov    0x1014,%esi
 804c461:	8b 3d 18 10 00 00    	mov    0x1018,%edi
 804c467:	8b 25 1c 10 00 00    	mov    0x101c,%esp
 804c46d:	66 0f ba f8 04       	btc    $0x4,%ax
 804c472:	a3 00 20 00 00       	mov    %eax,0x2000
 804c477:	89 1d 04 20 00 00    	mov    %ebx,0x2004
 804c47d:	89 0d 08 20 00 00    	mov    %ecx,0x2008
 804c483:	89 15 0c 20 00 00    	mov    %edx,0x200c
 804c489:	89 2d 10 20 00 00    	mov    %ebp,0x2010
 804c48f:	89 35 14 20 00 00    	mov    %esi,0x2014
 804c495:	89 3d 18 20 00 00    	mov    %edi,0x2018
 804c49b:	89 25 1c 20 00 00    	mov    %esp,0x201c
 804c4a1:	c3                   	ret    

0804c4a2 <btc2>:
 804c4a2:	66 a1 00 10 00 00    	mov    0x1000,%ax
 804c4a8:	66 8b 1d 04 10 00 00 	mov    0x1004,%bx
 804c4af:	66 0f bb d8          	btc    %bx,%ax
 804c4b3:	66 a3 00 20 00 00    	mov    %ax,0x2000
 804c4b9:	73 07                	jae    804c4c2 <btc2+0x20>
 804c4bb:	c6 05 00 21 00 00 01 	movb   $0x1,0x2100
 804c4c2:	90                   	nop
 804c4c3:	75 07                	jne    804c4cc <btc2+0x2a>
 804c4c5:	c6 05 01 21 00 00 02 	movb   $0x2,0x2101
 804c4cc:	90                   	nop
 804c4cd:	79 07                	jns    804c4d6 <btc2+0x34>
 804c4cf:	c6 05 02 21 00 00 03 	movb   $0x3,0x2102
 804c4d6:	90                   	nop
 804c4d7:	7b 07                	jnp    804c4e0 <btc2+0x3e>
 804c4d9:	c6 05 03 21 00 00 04 	movb   $0x4,0x2103
 804c4e0:	90                   	nop
 804c4e1:	71 07                	jno    804c4ea <btc2+0x48>
 804c4e3:	c6 05 04 21 00 00 05 	movb   $0x5,0x2104
 804c4ea:	90                   	nop
 804c4eb:	c3                   	ret    

0804c4ec <btc2_constant>:
 804c4ec:	66 b8 01 00          	mov    $0x1,%ax
 804c4f0:	66 bb 02 00          	mov    $0x2,%bx
 804c4f4:	66 0f bb d8          	btc    %bx,%ax
 804c4f8:	66 a3 00 20 00 00    	mov    %ax,0x2000
 804c4fe:	73 07                	jae    804c507 <btc2_constant+0x1b>
 804c500:	c6 05 00 21 00 00 01 	movb   $0x1,0x2100
 804c507:	90                   	nop
 804c508:	75 07                	jne    804c511 <btc2_constant+0x25>
 804c50a:	c6 05 01 21 00 00 02 	movb   $0x2,0x2101
 804c511:	90                   	nop
 804c512:	79 07                	jns    804c51b <btc2_constant+0x2f>
 804c514:	c6 05 02 21 00 00 03 	movb   $0x3,0x2102
 804c51b:	90                   	nop
 804c51c:	7b 07                	jnp    804c525 <btc2_constant+0x39>
 804c51e:	c6 05 03 21 00 00 04 	movb   $0x4,0x2103
 804c525:	90                   	nop
 804c526:	71 07                	jno    804c52f <btc2_constant+0x43>
 804c528:	c6 05 04 21 00 00 05 	movb   $0x5,0x2104
 804c52f:	90                   	nop
 804c530:	c3                   	ret    

0804c531 <btc2_allregs>:
 804c531:	a1 00 10 00 00       	mov    0x1000,%eax
 804c536:	8b 1d 04 10 00 00    	mov    0x1004,%ebx
 804c53c:	8b 0d 08 10 00 00    	mov    0x1008,%ecx
 804c542:	8b 15 0c 10 00 00    	mov    0x100c,%edx
 804c548:	8b 2d 10 10 00 00    	mov    0x1010,%ebp
 804c54e:	8b 35 14 10 00 00    	mov    0x1014,%esi
 804c554:	8b 3d 18 10 00 00    	mov    0x1018,%edi
 804c55a:	8b 25 1c 10 00 00    	mov    0x101c,%esp
 804c560:	66 0f bb d8          	btc    %bx,%ax
 804c564:	a3 00 20 00 00       	mov    %eax,0x2000
 804c569:	89 1d 04 20 00 00    	mov    %ebx,0x2004
 804c56f:	89 0d 08 20 00 00    	mov    %ecx,0x2008
 804c575:	89 15 0c 20 00 00    	mov    %edx,0x200c
 804c57b:	89 2d 10 20 00 00    	mov    %ebp,0x2010
 804c581:	89 35 14 20 00 00    	mov    %esi,0x2014
 804c587:	89 3d 18 20 00 00    	mov    %edi,0x2018
 804c58d:	89 25 1c 20 00 00    	mov    %esp,0x201c
 804c593:	c3                   	ret    

0804c594 <btc3>:
 804c594:	a1 00 10 00 00       	mov    0x1000,%eax
 804c599:	0f ba f8 1f          	btc    $0x1f,%eax
 804c59d:	a3 00 20 00 00       	mov    %eax,0x2000
 804c5a2:	73 07                	jae    804c5ab <btc3+0x17>
 804c5a4:	c6 05 00 21 00 00 01 	movb   $0x1,0x2100
 804c5ab:	90                   	nop
 804c5ac:	75 07                	jne    804c5b5 <btc3+0x21>
 804c5ae:	c6 05 01 21 00 00 02 	movb   $0x2,0x2101
 804c5b5:	90                   	nop
 804c5b6:	79 07                	jns    804c5bf <btc3+0x2b>
 804c5b8:	c6 05 02 21 00 00 03 	movb   $0x3,0x2102
 804c5bf:	90                   	nop
 804c5c0:	7b 07                	jnp    804c5c9 <btc3+0x35>
 804c5c2:	c6 05 03 21 00 00 04 	movb   $0x4,0x2103
 804c5c9:	90                   	nop
 804c5ca:	71 07                	jno    804c5d3 <btc3+0x3f>
 804c5cc:	c6 05 04 21 00 00 05 	movb   $0x5,0x2104
 804c5d3:	90                   	nop
 804c5d4:	c3                   	ret    

0804c5d5 <btc3_constant>:
 804c5d5:	b8 01 00 00 00       	mov    $0x1,%eax
 804c5da:	0f ba f8 1f          	btc    $0x1f,%eax
 804c5de:	a3 00 20 00 00       	mov    %eax,0x2000
 804c5e3:	73 07                	jae    804c5ec <btc3_constant+0x17>
 804c5e5:	c6 05 00 21 00 00 01 	movb   $0x1,0x2100
 804c5ec:	90                   	nop
 804c5ed:	75 07                	jne    804c5f6 <btc3_constant+0x21>
 804c5ef:	c6 05 01 21 00 00 02 	movb   $0x2,0x2101
 804c5f6:	90                   	nop
 804c5f7:	79 07                	jns    804c600 <btc3_constant+0x2b>
 804c5f9:	c6 05 02 21 00 00 03 	movb   $0x3,0x2102
 804c600:	90                   	nop
 804c601:	7b 07                	jnp    804c60a <btc3_constant+0x35>
 804c603:	c6 05 03 21 00 00 04 	movb   $0x4,0x2103
 804c60a:	90                   	nop
 804c60b:	71 07                	jno    804c614 <btc3_constant+0x3f>
 804c60d:	c6 05 04 21 00 00 05 	movb   $0x5,0x2104
 804c614:	90                   	nop
 804c615:	c3                   	ret    

0804c616 <btc3_allregs>:
 804c616:	a1 00 10 00 00       	mov    0x1000,%eax
 804c61b:	8b 1d 04 10 00 00    	mov    0x1004,%ebx
 804c621:	8b 0d 08 10 00 00    	mov    0x1008,%ecx
 804c627:	8b 15 0c 10 00 00    	mov    0x100c,%edx
 804c62d:	8b 2d 10 10 00 00    	mov    0x1010,%ebp
 804c633:	8b 35 14 10 00 00    	mov    0x1014,%esi
 804c639:	8b 3d 18 10 00 00    	mov    0x1018,%edi
 804c63f:	8b 25 1c 10 00 00    	mov    0x101c,%esp
 804c645:	0f ba f8 1f          	btc    $0x1f,%eax
 804c649:	a3 00 20 00 00       	mov    %eax,0x2000
 804c64e:	89 1d 04 20 00 00    	mov    %ebx,0x2004
 804c654:	89 0d 08 20 00 00    	mov    %ecx,0x2008
 804c65a:	89 15 0c 20 00 00    	mov    %edx,0x200c
 804c660:	89 2d 10 20 00 00    	mov    %ebp,0x2010
 804c666:	89 35 14 20 00 00    	mov    %esi,0x2014
 804c66c:	89 3d 18 20 00 00    	mov    %edi,0x2018
 804c672:	89 25 1c 20 00 00    	mov    %esp,0x201c
 804c678:	c3                   	ret    

0804c679 <btc4>:
 804c679:	a1 00 10 00 00       	mov    0x1000,%eax
 804c67e:	66 8b 1d 04 10 00 00 	mov    0x1004,%bx
 804c685:	0f bb d8             	btc    %ebx,%eax
 804c688:	a3 00 20 00 00       	mov    %eax,0x2000
 804c68d:	73 07                	jae    804c696 <btc4+0x1d>
 804c68f:	c6 05 00 21 00 00 01 	movb   $0x1,0x2100
 804c696:	90                   	nop
 804c697:	75 07                	jne    804c6a0 <btc4+0x27>
 804c699:	c6 05 01 21 00 00 02 	movb   $0x2,0x2101
 804c6a0:	90                   	nop
 804c6a1:	79 07                	jns    804c6aa <btc4+0x31>
 804c6a3:	c6 05 02 21 00 00 03 	movb   $0x3,0x2102
 804c6aa:	90                   	nop
 804c6ab:	7b 07                	jnp    804c6b4 <btc4+0x3b>
 804c6ad:	c6 05 03 21 00 00 04 	movb   $0x4,0x2103
 804c6b4:	90                   	nop
 804c6b5:	71 07                	jno    804c6be <btc4+0x45>
 804c6b7:	c6 05 04 21 00 00 05 	movb   $0x5,0x2104
 804c6be:	90                   	nop
 804c6bf:	c3                   	ret    

0804c6c0 <btc4_constant>:
 804c6c0:	b8 01 00 00 00       	mov    $0x1,%eax
 804c6c5:	66 bb 02 00          	mov    $0x2,%bx
 804c6c9:	0f bb d8             	btc    %ebx,%eax
 804c6cc:	a3 00 20 00 00       	mov    %eax,0x2000
 804c6d1:	73 07                	jae    804c6da <btc4_constant+0x1a>
 804c6d3:	c6 05 00 21 00 00 01 	movb   $0x1,0x2100
 804c6da:	90                   	nop
 804c6db:	75 07                	jne    804c6e4 <btc4_constant+0x24>
 804c6dd:	c6 05 01 21 00 00 02 	movb   $0x2,0x2101
 804c6e4:	90                   	nop
 804c6e5:	79 07                	jns    804c6ee <btc4_constant+0x2e>
 804c6e7:	c6 05 02 21 00 00 03 	movb   $0x3,0x2102
 804c6ee:	90                   	nop
 804c6ef:	7b 07                	jnp    804c6f8 <btc4_constant+0x38>
 804c6f1:	c6 05 03 21 00 00 04 	movb   $0x4,0x2103
 804c6f8:	90                   	nop
 804c6f9:	71 07                	jno    804c702 <btc4_constant+0x42>
 804c6fb:	c6 05 04 21 00 00 05 	movb   $0x5,0x2104
 804c702:	90                   	nop
 804c703:	c3                   	ret    

0804c704 <btc4_allregs>:
 804c704:	a1 00 10 00 00       	mov    0x1000,%eax
 804c709:	8b 1d 04 10 00 00    	mov    0x1004,%ebx
 804c70f:	8b 0d 08 10 00 00    	mov    0x1008,%ecx
 804c715:	8b 15 0c 10 00 00    	mov    0x100c,%edx
 804c71b:	8b 2d 10 10 00 00    	mov    0x1010,%ebp
 804c721:	8b 35 14 10 00 00    	mov    0x1014,%esi
 804c727:	8b 3d 18 10 00 00    	mov    0x1018,%edi
 804c72d:	8b 25 1c 10 00 00    	mov    0x101c,%esp
 804c733:	0f bb d8             	btc    %ebx,%eax
 804c736:	a3 00 20 00 00       	mov    %eax,0x2000
 804c73b:	89 1d 04 20 00 00    	mov    %ebx,0x2004
 804c741:	89 0d 08 20 00 00    	mov    %ecx,0x2008
 804c747:	89 15 0c 20 00 00    	mov    %edx,0x200c
 804c74d:	89 2d 10 20 00 00    	mov    %ebp,0x2010
 804c753:	89 35 14 20 00 00    	mov    %esi,0x2014
 804c759:	89 3d 18 20 00 00    	mov    %edi,0x2018
 804c75f:	89 25 1c 20 00 00    	mov    %esp,0x201c
 804c765:	c3                   	ret    

0804c766 <btc5>:
 804c766:	a1 00 10 00 00       	mov    0x1000,%eax
 804c76b:	8b 1d 04 10 00 00    	mov    0x1004,%ebx
 804c771:	0f bb 18             	btc    %ebx,(%eax)
 804c774:	73 07                	jae    804c77d <btc5+0x17>
 804c776:	c6 05 00 21 00 00 01 	movb   $0x1,0x2100
 804c77d:	90                   	nop
 804c77e:	75 07                	jne    804c787 <btc5+0x21>
 804c780:	c6 05 01 21 00 00 02 	movb   $0x2,0x2101
 804c787:	90                   	nop
 804c788:	79 07                	jns    804c791 <btc5+0x2b>
 804c78a:	c6 05 02 21 00 00 03 	movb   $0x3,0x2102
 804c791:	90                   	nop
 804c792:	7b 07                	jnp    804c79b <btc5+0x35>
 804c794:	c6 05 03 21 00 00 04 	movb   $0x4,0x2103
 804c79b:	90                   	nop
 804c79c:	71 07                	jno    804c7a5 <btc5+0x3f>
 804c79e:	c6 05 04 21 00 00 05 	movb   $0x5,0x2104
 804c7a5:	90                   	nop
 804c7a6:	c3                   	ret    

0804c7a7 <btc5_constant>:
 804c7a7:	b8 01 00 00 00       	mov    $0x1,%eax
 804c7ac:	bb 02 00 00 00       	mov    $0x2,%ebx
 804c7b1:	0f bb 18             	btc    %ebx,(%eax)
 804c7b4:	73 07                	jae    804c7bd <btc5_constant+0x16>
 804c7b6:	c6 05 00 21 00 00 01 	movb   $0x1,0x2100
 804c7bd:	90                   	nop
 804c7be:	75 07                	jne    804c7c7 <btc5_constant+0x20>
 804c7c0:	c6 05 01 21 00 00 02 	movb   $0x2,0x2101
 804c7c7:	90                   	nop
 804c7c8:	79 07                	jns    804c7d1 <btc5_constant+0x2a>
 804c7ca:	c6 05 02 21 00 00 03 	movb   $0x3,0x2102
 804c7d1:	90                   	nop
 804c7d2:	7b 07                	jnp    804c7db <btc5_constant+0x34>
 804c7d4:	c6 05 03 21 00 00 04 	movb   $0x4,0x2103
 804c7db:	90                   	nop
 804c7dc:	71 07                	jno    804c7e5 <btc5_constant+0x3e>
 804c7de:	c6 05 04 21 00 00 05 	movb   $0x5,0x2104
 804c7e5:	90                   	nop
 804c7e6:	c3                   	ret    

0804c7e7 <btc5_allregs>:
 804c7e7:	a1 00 10 00 00       	mov    0x1000,%eax
 804c7ec:	8b 1d 04 10 00 00    	mov    0x1004,%ebx
 804c7f2:	8b 0d 08 10 00 00    	mov    0x1008,%ecx
 804c7f8:	8b 15 0c 10 00 00    	mov    0x100c,%edx
 804c7fe:	8b 2d 10 10 00 00    	mov    0x1010,%ebp
 804c804:	8b 35 14 10 00 00    	mov    0x1014,%esi
 804c80a:	8b 3d 18 10 00 00    	mov    0x1018,%edi
 804c810:	8b 25 1c 10 00 00    	mov    0x101c,%esp
 804c816:	0f bb 18             	btc    %ebx,(%eax)
 804c819:	a3 00 20 00 00       	mov    %eax,0x2000
 804c81e:	89 1d 04 20 00 00    	mov    %ebx,0x2004
 804c824:	89 0d 08 20 00 00    	mov    %ecx,0x2008
 804c82a:	89 15 0c 20 00 00    	mov    %edx,0x200c
 804c830:	89 2d 10 20 00 00    	mov    %ebp,0x2010
 804c836:	89 35 14 20 00 00    	mov    %esi,0x2014
 804c83c:	89 3d 18 20 00 00    	mov    %edi,0x2018
 804c842:	89 25 1c 20 00 00    	mov    %esp,0x201c
 804c848:	c3                   	ret    

0804c849 <btc_locked>:
 804c849:	f0 0f bb 18          	lock btc %ebx,(%eax)
 804c84d:	c3                   	ret    

0804c84e <btc_locked_constant>:
 804c84e:	f0 0f bb 18          	lock btc %ebx,(%eax)
 804c852:	c3                   	ret    

0804c853 <btc_locked_allregs>:
 804c853:	a1 00 10 00 00       	mov    0x1000,%eax
 804c858:	8b 1d 04 10 00 00    	mov    0x1004,%ebx
 804c85e:	8b 0d 08 10 00 00    	mov    0x1008,%ecx
 804c864:	8b 15 0c 10 00 00    	mov    0x100c,%edx
 804c86a:	8b 2d 10 10 00 00    	mov    0x1010,%ebp
 804c870:	8b 35 14 10 00 00    	mov    0x1014,%esi
 804c876:	8b 3d 18 10 00 00    	mov    0x1018,%edi
 804c87c:	8b 25 1c 10 00 00    	mov    0x101c,%esp
 804c882:	f0 0f bb 18          	lock btc %ebx,(%eax)
 804c886:	a3 00 20 00 00       	mov    %eax,0x2000
 804c88b:	89 1d 04 20 00 00    	mov    %ebx,0x2004
 804c891:	89 0d 08 20 00 00    	mov    %ecx,0x2008
 804c897:	89 15 0c 20 00 00    	mov    %edx,0x200c
 804c89d:	89 2d 10 20 00 00    	mov    %ebp,0x2010
 804c8a3:	89 35 14 20 00 00    	mov    %esi,0x2014
 804c8a9:	89 3d 18 20 00 00    	mov    %edi,0x2018
 804c8af:	89 25 1c 20 00 00    	mov    %esp,0x201c
 804c8b5:	c3                   	ret    

0804c8b6 <btr1>:
 804c8b6:	66 a1 00 10 00 00    	mov    0x1000,%ax
 804c8bc:	66 0f ba f0 04       	btr    $0x4,%ax
 804c8c1:	66 a3 00 20 00 00    	mov    %ax,0x2000
 804c8c7:	73 07                	jae    804c8d0 <btr1+0x1a>
 804c8c9:	c6 05 00 21 00 00 01 	movb   $0x1,0x2100
 804c8d0:	90                   	nop
 804c8d1:	75 07                	jne    804c8da <btr1+0x24>
 804c8d3:	c6 05 01 21 00 00 02 	movb   $0x2,0x2101
 804c8da:	90                   	nop
 804c8db:	79 07                	jns    804c8e4 <btr1+0x2e>
 804c8dd:	c6 05 02 21 00 00 03 	movb   $0x3,0x2102
 804c8e4:	90                   	nop
 804c8e5:	7b 07                	jnp    804c8ee <btr1+0x38>
 804c8e7:	c6 05 03 21 00 00 04 	movb   $0x4,0x2103
 804c8ee:	90                   	nop
 804c8ef:	71 07                	jno    804c8f8 <btr1+0x42>
 804c8f1:	c6 05 04 21 00 00 05 	movb   $0x5,0x2104
 804c8f8:	90                   	nop
 804c8f9:	c3                   	ret    

0804c8fa <btr1_constant>:
 804c8fa:	66 b8 01 00          	mov    $0x1,%ax
 804c8fe:	66 0f ba f0 04       	btr    $0x4,%ax
 804c903:	66 a3 00 20 00 00    	mov    %ax,0x2000
 804c909:	73 07                	jae    804c912 <btr1_constant+0x18>
 804c90b:	c6 05 00 21 00 00 01 	movb   $0x1,0x2100
 804c912:	90                   	nop
 804c913:	75 07                	jne    804c91c <btr1_constant+0x22>
 804c915:	c6 05 01 21 00 00 02 	movb   $0x2,0x2101
 804c91c:	90                   	nop
 804c91d:	79 07                	jns    804c926 <btr1_constant+0x2c>
 804c91f:	c6 05 02 21 00 00 03 	movb   $0x3,0x2102
 804c926:	90                   	nop
 804c927:	7b 07                	jnp    804c930 <btr1_constant+0x36>
 804c929:	c6 05 03 21 00 00 04 	movb   $0x4,0x2103
 804c930:	90                   	nop
 804c931:	71 07                	jno    804c93a <btr1_constant+0x40>
 804c933:	c6 05 04 21 00 00 05 	movb   $0x5,0x2104
 804c93a:	90                   	nop
 804c93b:	c3                   	ret    

0804c93c <btr1_allregs>:
 804c93c:	a1 00 10 00 00       	mov    0x1000,%eax
 804c941:	8b 1d 04 10 00 00    	mov    0x1004,%ebx
 804c947:	8b 0d 08 10 00 00    	mov    0x1008,%ecx
 804c94d:	8b 15 0c 10 00 00    	mov    0x100c,%edx
 804c953:	8b 2d 10 10 00 00    	mov    0x1010,%ebp
 804c959:	8b 35 14 10 00 00    	mov    0x1014,%esi
 804c95f:	8b 3d 18 10 00 00    	mov    0x1018,%edi
 804c965:	8b 25 1c 10 00 00    	mov    0x101c,%esp
 804c96b:	66 0f ba f0 04       	btr    $0x4,%ax
 804c970:	a3 00 20 00 00       	mov    %eax,0x2000
 804c975:	89 1d 04 20 00 00    	mov    %ebx,0x2004
 804c97b:	89 0d 08 20 00 00    	mov    %ecx,0x2008
 804c981:	89 15 0c 20 00 00    	mov    %edx,0x200c
 804c987:	89 2d 10 20 00 00    	mov    %ebp,0x2010
 804c98d:	89 35 14 20 00 00    	mov    %esi,0x2014
 804c993:	89 3d 18 20 00 00    	mov    %edi,0x2018
 804c999:	89 25 1c 20 00 00    	mov    %esp,0x201c
 804c99f:	c3                   	ret    

0804c9a0 <btr2>:
 804c9a0:	66 a1 00 10 00 00    	mov    0x1000,%ax
 804c9a6:	66 8b 1d 04 10 00 00 	mov    0x1004,%bx
 804c9ad:	66 0f b3 d8          	btr    %bx,%ax
 804c9b1:	66 a3 00 20 00 00    	mov    %ax,0x2000
 804c9b7:	73 07                	jae    804c9c0 <btr2+0x20>
 804c9b9:	c6 05 00 21 00 00 01 	movb   $0x1,0x2100
 804c9c0:	90                   	nop
 804c9c1:	75 07                	jne    804c9ca <btr2+0x2a>
 804c9c3:	c6 05 01 21 00 00 02 	movb   $0x2,0x2101
 804c9ca:	90                   	nop
 804c9cb:	79 07                	jns    804c9d4 <btr2+0x34>
 804c9cd:	c6 05 02 21 00 00 03 	movb   $0x3,0x2102
 804c9d4:	90                   	nop
 804c9d5:	7b 07                	jnp    804c9de <btr2+0x3e>
 804c9d7:	c6 05 03 21 00 00 04 	movb   $0x4,0x2103
 804c9de:	90                   	nop
 804c9df:	71 07                	jno    804c9e8 <btr2+0x48>
 804c9e1:	c6 05 04 21 00 00 05 	movb   $0x5,0x2104
 804c9e8:	90                   	nop
 804c9e9:	c3                   	ret    

0804c9ea <btr2_constant>:
 804c9ea:	66 b8 01 00          	mov    $0x1,%ax
 804c9ee:	66 bb 02 00          	mov    $0x2,%bx
 804c9f2:	66 0f b3 d8          	btr    %bx,%ax
 804c9f6:	66 a3 00 20 00 00    	mov    %ax,0x2000
 804c9fc:	73 07                	jae    804ca05 <btr2_constant+0x1b>
 804c9fe:	c6 05 00 21 00 00 01 	movb   $0x1,0x2100
 804ca05:	90                   	nop
 804ca06:	75 07                	jne    804ca0f <btr2_constant+0x25>
 804ca08:	c6 05 01 21 00 00 02 	movb   $0x2,0x2101
 804ca0f:	90                   	nop
 804ca10:	79 07                	jns    804ca19 <btr2_constant+0x2f>
 804ca12:	c6 05 02 21 00 00 03 	movb   $0x3,0x2102
 804ca19:	90                   	nop
 804ca1a:	7b 07                	jnp    804ca23 <btr2_constant+0x39>
 804ca1c:	c6 05 03 21 00 00 04 	movb   $0x4,0x2103
 804ca23:	90                   	nop
 804ca24:	71 07                	jno    804ca2d <btr2_constant+0x43>
 804ca26:	c6 05 04 21 00 00 05 	movb   $0x5,0x2104
 804ca2d:	90                   	nop
 804ca2e:	c3                   	ret    

0804ca2f <btr2_allregs>:
 804ca2f:	a1 00 10 00 00       	mov    0x1000,%eax
 804ca34:	8b 1d 04 10 00 00    	mov    0x1004,%ebx
 804ca3a:	8b 0d 08 10 00 00    	mov    0x1008,%ecx
 804ca40:	8b 15 0c 10 00 00    	mov    0x100c,%edx
 804ca46:	8b 2d 10 10 00 00    	mov    0x1010,%ebp
 804ca4c:	8b 35 14 10 00 00    	mov    0x1014,%esi
 804ca52:	8b 3d 18 10 00 00    	mov    0x1018,%edi
 804ca58:	8b 25 1c 10 00 00    	mov    0x101c,%esp
 804ca5e:	66 0f b3 d8          	btr    %bx,%ax
 804ca62:	a3 00 20 00 00       	mov    %eax,0x2000
 804ca67:	89 1d 04 20 00 00    	mov    %ebx,0x2004
 804ca6d:	89 0d 08 20 00 00    	mov    %ecx,0x2008
 804ca73:	89 15 0c 20 00 00    	mov    %edx,0x200c
 804ca79:	89 2d 10 20 00 00    	mov    %ebp,0x2010
 804ca7f:	89 35 14 20 00 00    	mov    %esi,0x2014
 804ca85:	89 3d 18 20 00 00    	mov    %edi,0x2018
 804ca8b:	89 25 1c 20 00 00    	mov    %esp,0x201c
 804ca91:	c3                   	ret    

0804ca92 <btr3>:
 804ca92:	a1 00 10 00 00       	mov    0x1000,%eax
 804ca97:	0f ba f0 1f          	btr    $0x1f,%eax
 804ca9b:	a3 00 20 00 00       	mov    %eax,0x2000
 804caa0:	73 07                	jae    804caa9 <btr3+0x17>
 804caa2:	c6 05 00 21 00 00 01 	movb   $0x1,0x2100
 804caa9:	90                   	nop
 804caaa:	75 07                	jne    804cab3 <btr3+0x21>
 804caac:	c6 05 01 21 00 00 02 	movb   $0x2,0x2101
 804cab3:	90                   	nop
 804cab4:	79 07                	jns    804cabd <btr3+0x2b>
 804cab6:	c6 05 02 21 00 00 03 	movb   $0x3,0x2102
 804cabd:	90                   	nop
 804cabe:	7b 07                	jnp    804cac7 <btr3+0x35>
 804cac0:	c6 05 03 21 00 00 04 	movb   $0x4,0x2103
 804cac7:	90                   	nop
 804cac8:	71 07                	jno    804cad1 <btr3+0x3f>
 804caca:	c6 05 04 21 00 00 05 	movb   $0x5,0x2104
 804cad1:	90                   	nop
 804cad2:	c3                   	ret    

0804cad3 <btr3_constant>:
 804cad3:	b8 01 00 00 00       	mov    $0x1,%eax
 804cad8:	0f ba f0 1f          	btr    $0x1f,%eax
 804cadc:	a3 00 20 00 00       	mov    %eax,0x2000
 804cae1:	73 07                	jae    804caea <btr3_constant+0x17>
 804cae3:	c6 05 00 21 00 00 01 	movb   $0x1,0x2100
 804caea:	90                   	nop
 804caeb:	75 07                	jne    804caf4 <btr3_constant+0x21>
 804caed:	c6 05 01 21 00 00 02 	movb   $0x2,0x2101
 804caf4:	90                   	nop
 804caf5:	79 07                	jns    804cafe <btr3_constant+0x2b>
 804caf7:	c6 05 02 21 00 00 03 	movb   $0x3,0x2102
 804cafe:	90                   	nop
 804caff:	7b 07                	jnp    804cb08 <btr3_constant+0x35>
 804cb01:	c6 05 03 21 00 00 04 	movb   $0x4,0x2103
 804cb08:	90                   	nop
 804cb09:	71 07                	jno    804cb12 <btr3_constant+0x3f>
 804cb0b:	c6 05 04 21 00 00 05 	movb   $0x5,0x2104
 804cb12:	90                   	nop
 804cb13:	c3                   	ret    

0804cb14 <btr3_allregs>:
 804cb14:	a1 00 10 00 00       	mov    0x1000,%eax
 804cb19:	8b 1d 04 10 00 00    	mov    0x1004,%ebx
 804cb1f:	8b 0d 08 10 00 00    	mov    0x1008,%ecx
 804cb25:	8b 15 0c 10 00 00    	mov    0x100c,%edx
 804cb2b:	8b 2d 10 10 00 00    	mov    0x1010,%ebp
 804cb31:	8b 35 14 10 00 00    	mov    0x1014,%esi
 804cb37:	8b 3d 18 10 00 00    	mov    0x1018,%edi
 804cb3d:	8b 25 1c 10 00 00    	mov    0x101c,%esp
 804cb43:	0f ba f0 1f          	btr    $0x1f,%eax
 804cb47:	a3 00 20 00 00       	mov    %eax,0x2000
 804cb4c:	89 1d 04 20 00 00    	mov    %ebx,0x2004
 804cb52:	89 0d 08 20 00 00    	mov    %ecx,0x2008
 804cb58:	89 15 0c 20 00 00    	mov    %edx,0x200c
 804cb5e:	89 2d 10 20 00 00    	mov    %ebp,0x2010
 804cb64:	89 35 14 20 00 00    	mov    %esi,0x2014
 804cb6a:	89 3d 18 20 00 00    	mov    %edi,0x2018
 804cb70:	89 25 1c 20 00 00    	mov    %esp,0x201c
 804cb76:	c3                   	ret    

0804cb77 <btr4>:
 804cb77:	a1 00 10 00 00       	mov    0x1000,%eax
 804cb7c:	66 8b 1d 04 10 00 00 	mov    0x1004,%bx
 804cb83:	0f b3 d8             	btr    %ebx,%eax
 804cb86:	a3 00 20 00 00       	mov    %eax,0x2000
 804cb8b:	73 07                	jae    804cb94 <btr4+0x1d>
 804cb8d:	c6 05 00 21 00 00 01 	movb   $0x1,0x2100
 804cb94:	90                   	nop
 804cb95:	75 07                	jne    804cb9e <btr4+0x27>
 804cb97:	c6 05 01 21 00 00 02 	movb   $0x2,0x2101
 804cb9e:	90                   	nop
 804cb9f:	79 07                	jns    804cba8 <btr4+0x31>
 804cba1:	c6 05 02 21 00 00 03 	movb   $0x3,0x2102
 804cba8:	90                   	nop
 804cba9:	7b 07                	jnp    804cbb2 <btr4+0x3b>
 804cbab:	c6 05 03 21 00 00 04 	movb   $0x4,0x2103
 804cbb2:	90                   	nop
 804cbb3:	71 07                	jno    804cbbc <btr4+0x45>
 804cbb5:	c6 05 04 21 00 00 05 	movb   $0x5,0x2104
 804cbbc:	90                   	nop
 804cbbd:	c3                   	ret    

0804cbbe <btr4_constant>:
 804cbbe:	b8 01 00 00 00       	mov    $0x1,%eax
 804cbc3:	66 bb 02 00          	mov    $0x2,%bx
 804cbc7:	0f b3 d8             	btr    %ebx,%eax
 804cbca:	a3 00 20 00 00       	mov    %eax,0x2000
 804cbcf:	73 07                	jae    804cbd8 <btr4_constant+0x1a>
 804cbd1:	c6 05 00 21 00 00 01 	movb   $0x1,0x2100
 804cbd8:	90                   	nop
 804cbd9:	75 07                	jne    804cbe2 <btr4_constant+0x24>
 804cbdb:	c6 05 01 21 00 00 02 	movb   $0x2,0x2101
 804cbe2:	90                   	nop
 804cbe3:	79 07                	jns    804cbec <btr4_constant+0x2e>
 804cbe5:	c6 05 02 21 00 00 03 	movb   $0x3,0x2102
 804cbec:	90                   	nop
 804cbed:	7b 07                	jnp    804cbf6 <btr4_constant+0x38>
 804cbef:	c6 05 03 21 00 00 04 	movb   $0x4,0x2103
 804cbf6:	90                   	nop
 804cbf7:	71 07                	jno    804cc00 <btr4_constant+0x42>
 804cbf9:	c6 05 04 21 00 00 05 	movb   $0x5,0x2104
 804cc00:	90                   	nop
 804cc01:	c3                   	ret    

0804cc02 <btr4_allregs>:
 804cc02:	a1 00 10 00 00       	mov    0x1000,%eax
 804cc07:	8b 1d 04 10 00 00    	mov    0x1004,%ebx
 804cc0d:	8b 0d 08 10 00 00    	mov    0x1008,%ecx
 804cc13:	8b 15 0c 10 00 00    	mov    0x100c,%edx
 804cc19:	8b 2d 10 10 00 00    	mov    0x1010,%ebp
 804cc1f:	8b 35 14 10 00 00    	mov    0x1014,%esi
 804cc25:	8b 3d 18 10 00 00    	mov    0x1018,%edi
 804cc2b:	8b 25 1c 10 00 00    	mov    0x101c,%esp
 804cc31:	0f b3 d8             	btr    %ebx,%eax
 804cc34:	a3 00 20 00 00       	mov    %eax,0x2000
 804cc39:	89 1d 04 20 00 00    	mov    %ebx,0x2004
 804cc3f:	89 0d 08 20 00 00    	mov    %ecx,0x2008
 804cc45:	89 15 0c 20 00 00    	mov    %edx,0x200c
 804cc4b:	89 2d 10 20 00 00    	mov    %ebp,0x2010
 804cc51:	89 35 14 20 00 00    	mov    %esi,0x2014
 804cc57:	89 3d 18 20 00 00    	mov    %edi,0x2018
 804cc5d:	89 25 1c 20 00 00    	mov    %esp,0x201c
 804cc63:	c3                   	ret    

0804cc64 <btr5>:
 804cc64:	a1 00 10 00 00       	mov    0x1000,%eax
 804cc69:	8b 1d 04 10 00 00    	mov    0x1004,%ebx
 804cc6f:	0f b3 18             	btr    %ebx,(%eax)
 804cc72:	73 07                	jae    804cc7b <btr5+0x17>
 804cc74:	c6 05 00 21 00 00 01 	movb   $0x1,0x2100
 804cc7b:	90                   	nop
 804cc7c:	75 07                	jne    804cc85 <btr5+0x21>
 804cc7e:	c6 05 01 21 00 00 02 	movb   $0x2,0x2101
 804cc85:	90                   	nop
 804cc86:	79 07                	jns    804cc8f <btr5+0x2b>
 804cc88:	c6 05 02 21 00 00 03 	movb   $0x3,0x2102
 804cc8f:	90                   	nop
 804cc90:	7b 07                	jnp    804cc99 <btr5+0x35>
 804cc92:	c6 05 03 21 00 00 04 	movb   $0x4,0x2103
 804cc99:	90                   	nop
 804cc9a:	71 07                	jno    804cca3 <btr5+0x3f>
 804cc9c:	c6 05 04 21 00 00 05 	movb   $0x5,0x2104
 804cca3:	90                   	nop
 804cca4:	c3                   	ret    

0804cca5 <btr5_constant>:
 804cca5:	b8 01 00 00 00       	mov    $0x1,%eax
 804ccaa:	bb 02 00 00 00       	mov    $0x2,%ebx
 804ccaf:	0f b3 18             	btr    %ebx,(%eax)
 804ccb2:	73 07                	jae    804ccbb <btr5_constant+0x16>
 804ccb4:	c6 05 00 21 00 00 01 	movb   $0x1,0x2100
 804ccbb:	90                   	nop
 804ccbc:	75 07                	jne    804ccc5 <btr5_constant+0x20>
 804ccbe:	c6 05 01 21 00 00 02 	movb   $0x2,0x2101
 804ccc5:	90                   	nop
 804ccc6:	79 07                	jns    804cccf <btr5_constant+0x2a>
 804ccc8:	c6 05 02 21 00 00 03 	movb   $0x3,0x2102
 804cccf:	90                   	nop
 804ccd0:	7b 07                	jnp    804ccd9 <btr5_constant+0x34>
 804ccd2:	c6 05 03 21 00 00 04 	movb   $0x4,0x2103
 804ccd9:	90                   	nop
 804ccda:	71 07                	jno    804cce3 <btr5_constant+0x3e>
 804ccdc:	c6 05 04 21 00 00 05 	movb   $0x5,0x2104
 804cce3:	90                   	nop
 804cce4:	c3                   	ret    

0804cce5 <btr5_allregs>:
 804cce5:	a1 00 10 00 00       	mov    0x1000,%eax
 804ccea:	8b 1d 04 10 00 00    	mov    0x1004,%ebx
 804ccf0:	8b 0d 08 10 00 00    	mov    0x1008,%ecx
 804ccf6:	8b 15 0c 10 00 00    	mov    0x100c,%edx
 804ccfc:	8b 2d 10 10 00 00    	mov    0x1010,%ebp
 804cd02:	8b 35 14 10 00 00    	mov    0x1014,%esi
 804cd08:	8b 3d 18 10 00 00    	mov    0x1018,%edi
 804cd0e:	8b 25 1c 10 00 00    	mov    0x101c,%esp
 804cd14:	0f b3 18             	btr    %ebx,(%eax)
 804cd17:	a3 00 20 00 00       	mov    %eax,0x2000
 804cd1c:	89 1d 04 20 00 00    	mov    %ebx,0x2004
 804cd22:	89 0d 08 20 00 00    	mov    %ecx,0x2008
 804cd28:	89 15 0c 20 00 00    	mov    %edx,0x200c
 804cd2e:	89 2d 10 20 00 00    	mov    %ebp,0x2010
 804cd34:	89 35 14 20 00 00    	mov    %esi,0x2014
 804cd3a:	89 3d 18 20 00 00    	mov    %edi,0x2018
 804cd40:	89 25 1c 20 00 00    	mov    %esp,0x201c
 804cd46:	c3                   	ret    

0804cd47 <btr_locked>:
 804cd47:	f0 0f b3 18          	lock btr %ebx,(%eax)
 804cd4b:	c3                   	ret    

0804cd4c <btr_locked_constant>:
 804cd4c:	f0 0f b3 18          	lock btr %ebx,(%eax)
 804cd50:	c3                   	ret    

0804cd51 <btr_locked_allregs>:
 804cd51:	a1 00 10 00 00       	mov    0x1000,%eax
 804cd56:	8b 1d 04 10 00 00    	mov    0x1004,%ebx
 804cd5c:	8b 0d 08 10 00 00    	mov    0x1008,%ecx
 804cd62:	8b 15 0c 10 00 00    	mov    0x100c,%edx
 804cd68:	8b 2d 10 10 00 00    	mov    0x1010,%ebp
 804cd6e:	8b 35 14 10 00 00    	mov    0x1014,%esi
 804cd74:	8b 3d 18 10 00 00    	mov    0x1018,%edi
 804cd7a:	8b 25 1c 10 00 00    	mov    0x101c,%esp
 804cd80:	f0 0f b3 18          	lock btr %ebx,(%eax)
 804cd84:	a3 00 20 00 00       	mov    %eax,0x2000
 804cd89:	89 1d 04 20 00 00    	mov    %ebx,0x2004
 804cd8f:	89 0d 08 20 00 00    	mov    %ecx,0x2008
 804cd95:	89 15 0c 20 00 00    	mov    %edx,0x200c
 804cd9b:	89 2d 10 20 00 00    	mov    %ebp,0x2010
 804cda1:	89 35 14 20 00 00    	mov    %esi,0x2014
 804cda7:	89 3d 18 20 00 00    	mov    %edi,0x2018
 804cdad:	89 25 1c 20 00 00    	mov    %esp,0x201c
 804cdb3:	c3                   	ret    

0804cdb4 <bts1>:
 804cdb4:	66 a1 00 10 00 00    	mov    0x1000,%ax
 804cdba:	66 0f ba e8 04       	bts    $0x4,%ax
 804cdbf:	66 a3 00 20 00 00    	mov    %ax,0x2000
 804cdc5:	73 07                	jae    804cdce <bts1+0x1a>
 804cdc7:	c6 05 00 21 00 00 01 	movb   $0x1,0x2100
 804cdce:	90                   	nop
 804cdcf:	75 07                	jne    804cdd8 <bts1+0x24>
 804cdd1:	c6 05 01 21 00 00 02 	movb   $0x2,0x2101
 804cdd8:	90                   	nop
 804cdd9:	79 07                	jns    804cde2 <bts1+0x2e>
 804cddb:	c6 05 02 21 00 00 03 	movb   $0x3,0x2102
 804cde2:	90                   	nop
 804cde3:	7b 07                	jnp    804cdec <bts1+0x38>
 804cde5:	c6 05 03 21 00 00 04 	movb   $0x4,0x2103
 804cdec:	90                   	nop
 804cded:	71 07                	jno    804cdf6 <bts1+0x42>
 804cdef:	c6 05 04 21 00 00 05 	movb   $0x5,0x2104
 804cdf6:	90                   	nop
 804cdf7:	c3                   	ret    

0804cdf8 <bts1_constant>:
 804cdf8:	66 b8 01 00          	mov    $0x1,%ax
 804cdfc:	66 0f ba e8 04       	bts    $0x4,%ax
 804ce01:	66 a3 00 20 00 00    	mov    %ax,0x2000
 804ce07:	73 07                	jae    804ce10 <bts1_constant+0x18>
 804ce09:	c6 05 00 21 00 00 01 	movb   $0x1,0x2100
 804ce10:	90                   	nop
 804ce11:	75 07                	jne    804ce1a <bts1_constant+0x22>
 804ce13:	c6 05 01 21 00 00 02 	movb   $0x2,0x2101
 804ce1a:	90                   	nop
 804ce1b:	79 07                	jns    804ce24 <bts1_constant+0x2c>
 804ce1d:	c6 05 02 21 00 00 03 	movb   $0x3,0x2102
 804ce24:	90                   	nop
 804ce25:	7b 07                	jnp    804ce2e <bts1_constant+0x36>
 804ce27:	c6 05 03 21 00 00 04 	movb   $0x4,0x2103
 804ce2e:	90                   	nop
 804ce2f:	71 07                	jno    804ce38 <bts1_constant+0x40>
 804ce31:	c6 05 04 21 00 00 05 	movb   $0x5,0x2104
 804ce38:	90                   	nop
 804ce39:	c3                   	ret    

0804ce3a <bts1_allregs>:
 804ce3a:	a1 00 10 00 00       	mov    0x1000,%eax
 804ce3f:	8b 1d 04 10 00 00    	mov    0x1004,%ebx
 804ce45:	8b 0d 08 10 00 00    	mov    0x1008,%ecx
 804ce4b:	8b 15 0c 10 00 00    	mov    0x100c,%edx
 804ce51:	8b 2d 10 10 00 00    	mov    0x1010,%ebp
 804ce57:	8b 35 14 10 00 00    	mov    0x1014,%esi
 804ce5d:	8b 3d 18 10 00 00    	mov    0x1018,%edi
 804ce63:	8b 25 1c 10 00 00    	mov    0x101c,%esp
 804ce69:	66 0f ba e8 04       	bts    $0x4,%ax
 804ce6e:	a3 00 20 00 00       	mov    %eax,0x2000
 804ce73:	89 1d 04 20 00 00    	mov    %ebx,0x2004
 804ce79:	89 0d 08 20 00 00    	mov    %ecx,0x2008
 804ce7f:	89 15 0c 20 00 00    	mov    %edx,0x200c
 804ce85:	89 2d 10 20 00 00    	mov    %ebp,0x2010
 804ce8b:	89 35 14 20 00 00    	mov    %esi,0x2014
 804ce91:	89 3d 18 20 00 00    	mov    %edi,0x2018
 804ce97:	89 25 1c 20 00 00    	mov    %esp,0x201c
 804ce9d:	c3                   	ret    

0804ce9e <bts2>:
 804ce9e:	66 a1 00 10 00 00    	mov    0x1000,%ax
 804cea4:	66 8b 1d 04 10 00 00 	mov    0x1004,%bx
 804ceab:	66 0f ab d8          	bts    %bx,%ax
 804ceaf:	66 a3 00 20 00 00    	mov    %ax,0x2000
 804ceb5:	73 07                	jae    804cebe <bts2+0x20>
 804ceb7:	c6 05 00 21 00 00 01 	movb   $0x1,0x2100
 804cebe:	90                   	nop
 804cebf:	75 07                	jne    804cec8 <bts2+0x2a>
 804cec1:	c6 05 01 21 00 00 02 	movb   $0x2,0x2101
 804cec8:	90                   	nop
 804cec9:	79 07                	jns    804ced2 <bts2+0x34>
 804cecb:	c6 05 02 21 00 00 03 	movb   $0x3,0x2102
 804ced2:	90                   	nop
 804ced3:	7b 07                	jnp    804cedc <bts2+0x3e>
 804ced5:	c6 05 03 21 00 00 04 	movb   $0x4,0x2103
 804cedc:	90                   	nop
 804cedd:	71 07                	jno    804cee6 <bts2+0x48>
 804cedf:	c6 05 04 21 00 00 05 	movb   $0x5,0x2104
