00400000 00 00 00 00 00 00 00 00 00 00 00 00 00 00 00 00 ................
00400010 00 00 00 00 00 00 00 00 00 00 00 00 00 00 00 00 ................
00400020 00 00 00 00 00 00 00 00 00 00 00 00 00 00 00 00 ................
00400030 00 00 00 00 00 00 00 00 00 00 00 00 00 00 00 00 ................
00400040 00 00 00 00 00 00 00 00 00 00 00 00 00 00 00 00 ................
00400050 00 00 00 00 00 00 00 00 00 00 00 00 00 00 00 00 ................
00400060 00 00 00 00 00 00 00 00 00 00 00 00 00 00 00 00 ................
00400070 00 00 00 00 00 00 00 00 00 00 00 00 00 00 00 00 ................
00400080 00 00 00 00 00 00 00 00 00 00 00 00 00 00 00 00 ................
00400090 00 00 00 00 00 00 00 00 00 00 00 00 00 00 00 00 ................
004000A0 00 00 00 00 00 00 00 00 00 00 00 00 00 00 00 00 ................
004000B0 00 00 00 00 00 00 00 00 00 00 00 00 00 00 00 00 ................
004000C0 00 00 00 00 00 00 00 00 00 00 00 00 00 00 00 00 ................
004000D0 00 00 00 00 00 00 00 00 00 00 00 00 00 00 00 00 ................
004000E0 00 00 00 00 00 00 00 00 00 00 00 00 00 00 00 00 ................
004000F0 00 00 00 00 00 00 00 00 00 00 00 00 00 00 00 00 ................
00400100 00 00 00 00 00 00 00 00 00 00 00 00 00 00 00 00 ................
00400110 00 00 00 00 00 00 00 00 00 00 00 00 00 00 00 00 ................
00400120 00 00 00 00 00 00 00 00 00 00 00 00 00 00 00 00 ................
00400130 00 00 00 00 00 00 00 00 00 00 00 00 00 00 00 00 ................
00400140 00 00 00 00 00 00 00 00 00 00 00 00 00 00 00 00 ................
00400150 00 00 00 00 00 00 00 00 00 00 00 00 00 00 00 00 ................
00400160 00 00 00 00 00 00 00 00 00 00 00 00 00 00 00 00 ................
00400170 00 00 00 00 00 00 00 00 00 00 00 00 00 00 00 00 ................
00400180 00 00 00 00 00 00 00 00 00 00 00 00 00 00 00 00 ................
00400190 00 00 00 00 00 00 00 00 00 00 00 00 00 00 00 00 ................
004001A0 00 00 00 00 00 00 00 00 00 00 00 00 00 00 00 00 ................
004001B0 00 00 00 00 00 00 00 00 00 00 00 00 00 00 00 00 ................
004001C0 00 00 00 00 00 00 00 00 00 00 00 00 00 00 00 00 ................
004001D0 00 00 00 00 00 00 00 00 00 00 00 00 00 00 00 00 ................
004001E0 00 00 00 00 00 00 00 00 00 00 00 00 00 00 00 00 ................
004001F0 00 00 00 00 00 00 00 00 00 00 00 00 00 00 00 00 ................
00400200 00 00 00 00 00 00 00 00 00 00 00 00 00 00 00 00 ................
00400210 00 00 00 00 00 00 00 00 00 00 00 00 00 00 00 00 ................
00400220 00 00 00 00 00 00 00 00 00 00 00 00 00 00 00 00 ................
00400230 00 00 00 00 00 00 00 00 00 00 00 00 00 00 00 00 ................
00400240 00 00 00 00 00 00 00 00 00 00 00 00 00 00 00 00 ................
00400250 00 00 00 00 00 00 00 00 00 00 00 00 00 00 00 00 ................
00400260 00 00 00 00 00 00 00 00 00 00 00 00 00 00 00 00 ................
00400270 00 00 00 00 00 00 00 00 00 00 00 00 00 00 00 00 ................
00400280 00 00 00 00 00 00 00 00 00 00 00 00 00 00 00 00 ................
00400290 00 00 00 00 00 00 00 00 00 00 00 00 00 00 00 00 ................
004002A0 00 00 00 00 00 00 00 00 00 00 00 00 00 00 00 00 ................
004002B0 00 00 00 00 00 00 00 00 00 00 00 00 00 00 00 00 ................
004002C0 00 00 00 00 00 00 00 00 00 00 00 00 00 00 00 00 ................
004002D0 00 00 00 00 00 00 00 00 00 00 00 00 00 00 00 00 ................
004002E0 00 00 00 00 00 00 00 00 00 00 00 00 00 00 00 00 ................
004002F0 00 00 00 00 00 00 00 00 00 00 00 00 00 00 00 00 ................
00400300 00 00 00 00 00 00 00 00 00 00 00 00 00 00 00 00 ................
00400310 00 00 00 00 00 00 00 00 00 00 00 00 00 00 00 00 ................
00400320 00 00 00 00 00 00 00 00 00 00 00 00 00 00 00 00 ................
00400330 00 00 00 00 00 00 00 00 00 00 00 00 00 00 00 00 ................
00400340 00 00 00 00 00 00 00 00 00 00 00 00 00 00 00 00 ................
00400350 00 00 00 00 00 00 00 00 00 00 00 00 00 00 00 00 ................
00400360 00 00 00 00 00 00 00 00 00 00 00 00 00 00 00 00 ................
00400370 00 00 00 00 00 00 00 00 00 00 00 00 00 00 00 00 ................
00400380 00 00 00 00 00 00 00 00 00 00 00 00 00 00 00 00 ................
00400390 00 00 00 00 00 00 00 00 00 00 00 00 00 00 00 00 ................
004003A0 00 00 00 00 00 00 00 00 00 00 00 00 00 00 00 00 ................
004003B0 00 00 00 00 00 00 00 00 00 00 00 00 00 00 00 00 ................
004003C0 00 00 00 00 00 00 00 00 00 00 00 00 00 00 00 00 ................
004003D0 00 00 00 00 00 00 00 00 00 00 00 00 00 00 00 00 ................
004003E0 00 00 00 00 00 00 00 00 00 00 00 00 00 00 00 00 ................
004003F0 00 00 00 00 00 00 00 00 00 00 00 00 00 00 00 00 ................
00400400 00 00 00 00 00 00 00 00 00 00 00 00 00 00 00 00 ................
00400410 00 00 00 00 00 00 00 00 00 00 00 00 00 00 00 00 ................
00400420 00 00 00 00 00 00 00 00 00 00 00 00 00 00 00 00 ................
00400430 00 00 00 00 00 00 00 00 00 00 00 00 00 00 00 00 ................
00400440 00 00 00 00 00 00 00 00 00 00 00 00 00 00 00 00 ................
00400450 00 00 00 00 00 00 00 00 00 00 00 00 00 00 00 00 ................
00400460 00 00 00 00 00 00 00 00 00 00 00 00 00 00 00 00 ................
00400470 00 00 00 00 00 00 00 00 00 00 00 00 00 00 00 00 ................
00400480 00 00 00 00 00 00 00 00 00 00 00 00 00 00 00 00 ................
00400490 00 00 00 00 00 00 00 00 00 00 00 00 00 00 00 00 ................
004004A0 00 00 00 00 00 00 00 00 00 00 00 00 00 00 00 00 ................
004004B0 00 00 00 00 00 00 00 00 00 00 00 00 00 00 00 00 ................
004004C0 00 00 00 00 00 00 00 00 00 00 00 00 00 00 00 00 ................
004004D0 00 00 00 00 00 00 00 00 00 00 00 00 00 00 00 00 ................
004004E0 00 00 00 00 00 00 00 00 00 00 00 00 00 00 00 00 ................
004004F0 00 00 00 00 00 00 00 00 00 00 00 00 00 00 00 00 ................
00400500 00 00 00 00 00 00 00 00 00 00 00 00 00 00 00 00 ................
00400510 00 00 00 00 00 00 00 00 00 00 00 00 00 00 00 00 ................
00400520 00 00 00 00 00 00 00 00 00 00 00 00 00 00 00 00 ................
00400530 00 00 00 00 00 00 00 00 00 00 00 00 00 00 00 00 ................
00400540 00 00 00 00 00 00 00 00 00 00 00 00 00 00 00 00 ................
00400550 00 00 00 00 00 00 00 00 00 00 00 00 00 00 00 00 ................
00400560 00 00 00 00 00 00 00 00 00 00 00 00 00 00 00 00 ................
00400570 00 00 00 00 00 00 00 00 00 00 00 00 00 00 00 00 ................
00400580 00 00 00 00 00 00 00 00 00 00 00 00 00 00 00 00 ................
00400590 00 00 00 00 00 00 00 00 00 00 00 00 00 00 00 00 ................
004005A0 00 00 00 00 00 00 00 00 00 00 00 00 00 00 00 00 ................
004005B0 00 00 00 00 00 00 00 00 00 00 00 00 00 00 00 00 ................
004005C0 00 00 00 00 00 00 00 00 00 00 00 00 00 00 00 00 ................
004005D0 00 00 00 00 00 00 00 00 00 00 00 00 00 00 00 00 ................
004005E0 00 00 00 00 00 00 00 00 00 00 00 00 00 00 00 00 ................
004005F0 00 00 00 00 00 00 00 00 00 00 00 00 00 00 00 00 ................
00400600 00 00 00 00 00 00 00 00 00 00 00 00 00 00 00 00 ................
00400610 00 00 00 00 00 00 00 00 00 00 00 00 00 00 00 00 ................
00400620 00 00 00 00 00 00 00 00 00 00 00 00 00 00 00 00 ................
00400630 00 00 00 00 00 00 00 00 00 00 00 00 00 00 00 00 ................
00400640 00 00 00 00 00 00 00 00 00 00 00 00 00 00 00 00 ................
00400650 00 00 00 00 00 00 00 00 00 00 00 00 00 00 00 00 ................
00400660 00 00 00 00 00 00 00 00 00 00 00 00 00 00 00 00 ................
00400670 00 00 00 00 00 00 00 00 00 00 00 00 00 00 00 00 ................
00400680 00 00 00 00 00 00 00 00 00 00 00 00 00 00 00 00 ................
00400690 00 00 00 00 00 00 00 00 00 00 00 00 00 00 00 00 ................
004006A0 00 00 00 00 00 00 00 00 00 00 00 00 00 00 00 00 ................
004006B0 00 00 00 00 00 00 00 00 00 00 00 00 00 00 00 00 ................
004006C0 00 00 00 00 00 00 00 00 00 00 00 00 00 00 00 00 ................
004006D0 00 00 00 00 00 00 00 00 00 00 00 00 00 00 00 00 ................
004006E0 00 00 00 00 00 00 00 00 00 00 00 00 00 00 00 00 ................
004006F0 00 00 00 00 00 00 00 00 00 00 00 00 00 00 00 00 ................
00400700 00 00 00 00 00 00 00 00 00 00 00 00 00 00 00 00 ................
00400710 00 00 00 00 00 00 00 00 00 00 00 00 00 00 00 00 ................
00400720 00 00 00 00 00 00 00 00 00 00 00 00 00 00 00 00 ................
00400730 00 00 00 00 00 00 00 00 00 00 00 00 00 00 00 00 ................
00400740 00 00 00 00 00 00 00 00 00 00 00 00 00 00 00 00 ................
00400750 00 00 00 00 00 00 00 00 00 00 00 00 00 00 00 00 ................
00400760 00 00 00 00 00 00 00 00 00 00 00 00 00 00 00 00 ................
00400770 00 00 00 00 00 00 00 00 00 00 00 00 00 00 00 00 ................
00400780 00 00 00 00 00 00 00 00 00 00 00 00 00 00 00 00 ................
00400790 00 00 00 00 00 00 00 00 00 00 00 00 00 00 00 00 ................
004007A0 00 00 00 00 00 00 00 00 00 00 00 00 00 00 00 00 ................
004007B0 00 00 00 00 00 00 00 00 00 00 00 00 00 00 00 00 ................
004007C0 00 00 00 00 00 00 00 00 00 00 00 00 00 00 00 00 ................
004007D0 00 00 00 00 00 00 00 00 00 00 00 00 00 00 00 00 ................
004007E0 00 00 00 00 00 00 00 00 00 00 00 00 00 00 00 00 ................
004007F0 00 00 00 00 00 00 00 00 00 00 00 00 00 00 00 00 ................
00400800 00 00 00 00 00 00 00 00 00 00 00 00 00 00 00 00 ................
00400810 00 00 00 00 00 00 00 00 00 00 00 00 00 00 00 00 ................
00400820 00 00 00 00 00 00 00 00 00 00 00 00 00 00 00 00 ................
00400830 00 00 00 00 00 00 00 00 00 00 00 00 00 00 00 00 ................
00400840 00 00 00 00 00 00 00 00 00 00 00 00 00 00 00 00 ................
00400850 00 00 00 00 00 00 00 00 00 00 00 00 00 00 00 00 ................
00400860 00 00 00 00 00 00 00 00 00 00 00 00 00 00 00 00 ................
00400870 00 00 00 00 00 00 00 00 00 00 00 00 00 00 00 00 ................
00400880 00 00 00 00 00 00 00 00 00 00 00 00 00 00 00 00 ................
00400890 00 00 00 00 00 00 00 00 00 00 00 00 00 00 00 00 ................
004008A0 00 00 00 00 00 00 00 00 00 00 00 00 00 00 00 00 ................
004008B0 00 00 00 00 00 00 00 00 00 00 00 00 00 00 00 00 ................
004008C0 00 00 00 00 00 00 00 00 00 00 00 00 00 00 00 00 ................
004008D0 00 00 00 00 00 00 00 00 00 00 00 00 00 00 00 00 ................
004008E0 00 00 00 00 00 00 00 00 00 00 00 00 00 00 00 00 ................
004008F0 00 00 00 00 00 00 00 00 00 00 00 00 00 00 00 00 ................
00400900 00 00 00 00 00 00 00 00 00 00 00 00 00 00 00 00 ................
00400910 00 00 00 00 00 00 00 00 00 00 00 00 00 00 00 00 ................
00400920 00 00 00 00 00 00 00 00 00 00 00 00 00 00 00 00 ................
00400930 00 00 00 00 00 00 00 00 00 00 00 00 00 00 00 00 ................
00400940 00 00 00 00 00 00 00 00 00 00 00 00 00 00 00 00 ................
00400950 00 00 00 00 00 00 00 00 00 00 00 00 00 00 00 00 ................
00400960 00 00 00 00 00 00 00 00 00 00 00 00 00 00 00 00 ................
00400970 00 00 00 00 00 00 00 00 00 00 00 00 00 00 00 00 ................
00400980 00 00 00 00 00 00 00 00 00 00 00 00 00 00 00 00 ................
00400990 00 00 00 00 00 00 00 00 00 00 00 00 00 00 00 00 ................
004009A0 00 00 00 00 00 00 00 00 00 00 00 00 00 00 00 00 ................
004009B0 00 00 00 00 00 00 00 00 00 00 00 00 00 00 00 00 ................
004009C0 00 00 00 00 00 00 00 00 00 00 00 00 00 00 00 00 ................
004009D0 00 00 00 00 00 00 00 00 00 00 00 00 00 00 00 00 ................
004009E0 00 00 00 00 00 00 00 00 00 00 00 00 00 00 00 00 ................
004009F0 00 00 00 00 00 00 00 00 00 00 00 00 00 00 00 00 ................
00400A00 00 00 00 00 00 00 00 00 00 00 00 00 00 00 00 00 ................
00400A10 00 00 00 00 00 00 00 00 00 00 00 00 00 00 00 00 ................
00400A20 00 00 00 00 00 00 00 00 00 00 00 00 00 00 00 00 ................
00400A30 00 00 00 00 00 00 00 00 00 00 00 00 00 00 00 00 ................
00400A40 00 00 00 00 00 00 00 00 00 00 00 00 00 00 00 00 ................
00400A50 00 00 00 00 00 00 00 00 00 00 00 00 00 00 00 00 ................
00400A60 00 00 00 00 00 00 00 00 00 00 00 00 00 00 00 00 ................
00400A70 00 00 00 00 00 00 00 00 00 00 00 00 00 00 00 00 ................
00400A80 00 00 00 00 00 00 00 00 00 00 00 00 00 00 00 00 ................
00400A90 00 00 00 00 00 00 00 00 00 00 00 00 00 00 00 00 ................
00400AA0 00 00 00 00 00 00 00 00 00 00 00 00 00 00 00 00 ................
00400AB0 00 00 00 00 00 00 00 00 00 00 00 00 00 00 00 00 ................
00400AC0 00 00 00 00 00 00 00 00 00 00 00 00 00 00 00 00 ................
00400AD0 00 00 00 00 00 00 00 00 00 00 00 00 00 00 00 00 ................
00400AE0 00 00 00 00 00 00 00 00 00 00 00 00 00 00 00 00 ................
00400AF0 00 00 00 00 00 00 00 00 00 00 00 00 00 00 00 00 ................
00400B00 00 00 00 00 00 00 00 00 00 00 00 00 00 00 00 00 ................
00400B10 00 00 00 00 00 00 00 00 00 00 00 00 00 00 00 00 ................
00400B20 00 00 00 00 00 00 00 00 00 00 00 00 00 00 00 00 ................
00400B30 00 00 00 00 00 00 00 00 00 00 00 00 00 00 00 00 ................
00400B40 00 00 00 00 00 00 00 00 00 00 00 00 00 00 00 00 ................
00400B50 00 00 00 00 00 00 00 00 00 00 00 00 00 00 00 00 ................
00400B60 00 00 00 00 00 00 00 00 00 00 00 00 00 00 00 00 ................
00400B70 00 00 00 00 00 00 00 00 00 00 00 00 00 00 00 00 ................
00400B80 00 00 00 00 00 00 00 00 00 00 00 00 00 00 00 00 ................
00400B90 00 00 00 00 00 00 00 00 00 00 00 00 00 00 00 00 ................
00400BA0 00 00 00 00 00 00 00 00 00 00 00 00 00 00 00 00 ................
00400BB0 00 00 00 00 00 00 00 00 00 00 00 00 00 00 00 00 ................
00400BC0 00 00 00 00 00 00 00 00 00 00 00 00 00 00 00 00 ................
00400BD0 00 00 00 00 00 00 00 00 00 00 00 00 00 00 00 00 ................
00400BE0 00 00 00 00 00 00 00 00 00 00 00 00 00 00 00 00 ................
00400BF0 00 00 00 00 00 00 00 00 00 00 00 00 00 00 00 00 ................
00400C00 00 00 00 00 00 00 00 00 00 00 00 00 00 00 00 00 ................
00400C10 00 00 00 00 00 00 00 00 00 00 00 00 00 00 00 00 ................
00400C20 00 00 00 00 00 00 00 00 00 00 00 00 00 00 00 00 ................
00400C30 00 00 00 00 00 00 00 00 00 00 00 00 00 00 00 00 ................
00400C40 00 00 00 00 00 00 00 00 00 00 00 00 00 00 00 00 ................
00400C50 00 00 00 00 00 00 00 00 00 00 00 00 00 00 00 00 ................
00400C60 00 00 00 00 00 00 00 00 00 00 00 00 00 00 00 00 ................
00400C70 00 00 00 00 00 00 00 00 00 00 00 00 00 00 00 00 ................
00400C80 00 00 00 00 00 00 00 00 00 00 00 00 00 00 00 00 ................
00400C90 00 00 00 00 00 00 00 00 00 00 00 00 00 00 00 00 ................
00400CA0 00 00 00 00 00 00 00 00 00 00 00 00 00 00 00 00 ................
00400CB0 00 00 00 00 00 00 00 00 00 00 00 00 00 00 00 00 ................
00400CC0 00 00 00 00 00 00 00 00 00 00 00 00 00 00 00 00 ................
00400CD0 00 00 00 00 00 00 00 00 00 00 00 00 00 00 00 00 ................
00400CE0 00 00 00 00 00 00 00 00 00 00 00 00 00 00 00 00 ................
00400CF0 00 00 00 00 00 00 00 00 00 00 00 00 00 00 00 00 ................
00400D00 00 00 00 00 00 00 00 00 00 00 00 00 00 00 00 00 ................
00400D10 00 00 00 00 00 00 00 00 00 00 00 00 00 00 00 00 ................
00400D20 00 00 00 00 00 00 00 00 00 00 00 00 00 00 00 00 ................
00400D30 00 00 00 00 00 00 00 00 00 00 00 00 00 00 00 00 ................
00400D40 00 00 00 00 00 00 00 00 00 00 00 00 00 00 00 00 ................
00400D50 00 00 00 00 00 00 00 00 00 00 00 00 00 00 00 00 ................
00400D60 00 00 00 00 00 00 00 00 00 00 00 00 00 00 00 00 ................
00400D70 00 00 00 00 00 00 00 00 00 00 00 00 00 00 00 00 ................
00400D80 00 00 00 00 00 00 00 00 00 00 00 00 00 00 00 00 ................
00400D90 00 00 00 00 00 00 00 00 00 00 00 00 00 00 00 00 ................
00400DA0 00 00 00 00 00 00 00 00 00 00 00 00 00 00 00 00 ................
00400DB0 00 00 00 00 00 00 00 00 00 00 00 00 00 00 00 00 ................
00400DC0 00 00 00 00 00 00 00 00 00 00 00 00 00 00 00 00 ................
00400DD0 00 00 00 00 00 00 00 00 00 00 00 00 00 00 00 00 ................
00400DE0 00 00 00 00 00 00 00 00 00 00 00 00 00 00 00 00 ................
00400DF0 00 00 00 00 00 00 00 00 00 00 00 00 00 00 00 00 ................
00400E00 00 00 00 00 00 00 00 00 00 00 00 00 00 00 00 00 ................
00400E10 00 00 00 00 00 00 00 00 00 00 00 00 00 00 00 00 ................
00400E20 00 00 00 00 00 00 00 00 00 00 00 00 00 00 00 00 ................
00400E30 00 00 00 00 00 00 00 00 00 00 00 00 00 00 00 00 ................
00400E40 00 00 00 00 00 00 00 00 00 00 00 00 00 00 00 00 ................
00400E50 00 00 00 00 00 00 00 00 00 00 00 00 00 00 00 00 ................
00400E60 00 00 00 00 00 00 00 00 00 00 00 00 00 00 00 00 ................
00400E70 00 00 00 00 00 00 00 00 00 00 00 00 00 00 00 00 ................
00400E80 00 00 00 00 00 00 00 00 00 00 00 00 00 00 00 00 ................
00400E90 00 00 00 00 00 00 00 00 00 00 00 00 00 00 00 00 ................
00400EA0 00 00 00 00 00 00 00 00 00 00 00 00 00 00 00 00 ................
00400EB0 00 00 00 00 00 00 00 00 00 00 00 00 00 00 00 00 ................
00400EC0 00 00 00 00 00 00 00 00 00 00 00 00 00 00 00 00 ................
00400ED0 00 00 00 00 00 00 00 00 00 00 00 00 00 00 00 00 ................
00400EE0 00 00 00 00 00 00 00 00 00 00 00 00 00 00 00 00 ................
00400EF0 00 00 00 00 00 00 00 00 00 00 00 00 00 00 00 00 ................
00400F00 00 00 00 00 00 00 00 00 00 00 00 00 00 00 00 00 ................
00400F10 00 00 00 00 00 00 00 00 00 00 00 00 00 00 00 00 ................
00400F20 00 00 00 00 00 00 00 00 00 00 00 00 00 00 00 00 ................
00400F30 00 00 00 00 00 00 00 00 00 00 00 00 00 00 00 00 ................
00400F40 00 00 00 00 00 00 00 00 00 00 00 00 00 00 00 00 ................
00400F50 00 00 00 00 00 00 00 00 00 00 00 00 00 00 00 00 ................
00400F60 00 00 00 00 00 00 00 00 00 00 00 00 00 00 00 00 ................
00400F70 00 00 00 00 00 00 00 00 00 00 00 00 00 00 00 00 ................
00400F80 00 00 00 00 00 00 00 00 00 00 00 00 00 00 00 00 ................
00400F90 00 00 00 00 00 00 00 00 00 00 00 00 00 00 00 00 ................
00400FA0 00 00 00 00 00 00 00 00 00 00 00 00 00 00 00 00 ................
00400FB0 00 00 00 00 00 00 00 00 00 00 00 00 00 00 00 00 ................
00400FC0 00 00 00 00 00 00 00 00 00 00 00 00 00 00 00 00 ................
00400FD0 00 00 00 00 00 00 00 00 00 00 00 00 00 00 00 00 ................
00400FE0 00 00 00 00 00 00 00 00 00 00 00 00 00 00 00 00 ................
00400FF0 00 00 00 00 00 00 00 00 00 00 00 00 00 00 00 00 ................
00401000 66 FA A8 B1 15 F1                               f.....         

l00401006:
	mov	dl,9A
	sbb	dh,D5
	mov	ecx,edi
	add	ch,5D
	xor	ecx,edx
	sub	cl,bh
	dec	bh
	mov	ch,B5
	jmp	00401079
0040101A                               E7 BC AA A3 90              .....

fn0040101F()
	lea	esp,[esp+04]
	dec	ebx
	or	ecx,esi
	sub	eax,EEEEEEEE
	inc	edx
	inc	esi
	sub	esi,ecx
	add	esi,edx
	dec	ecx
	add	edx,eax
	jmp	00401367
00401039                            58 C6 6D EC 58 8B 3E          X.m.X.>

l00401040:
	neg	bl
	mov	cl,67
	inc	esi
	inc	dh
	mov	dh,08
	mov	esi,edx
	xor	cl,bh
	call	004010C3
	xchg	eax,esi
	aam	A8
	and	cl,[edx]
	out	39,al
	jle	00401086

l0040105A:
	sub	edx,esi

l0040105B:
	illegal	
	xor	edi,edx
	dec	edx
	mov	edx,ebx
	mov	eax,[eax+08]
	mov	edi,esi
	inc	edi
	sub	ecx,edx
	or	esi,edx
	xor	ecx,edx
	call	004010DC
	test	eax,50BFCEFF
	popf	
	fmul	double ptr [ebx]

fn00401079()
	or	esi,ebx
	dec	ecx
	add	dl,dh
	neg	dl
	inc	edx
	dec	ebx
	jz	004012F3

fn00401086()
	add	[eax],al

fn00401088()
	xchg	bh,bh
	jnz	004012F3

l00401090:
	push	esp
	in	al,dx
	mov	[35B0F587],eax
	stosd	

fn00401098()
	lea	esp,[esp+04]
	mov	edx,ebx
	add	ecx,edx
	add	edx,ecx
	mov	edx,ecx
	sub	esi,eax
	sub	ecx,ebx
	or	edi,ebx
	add	edx,esi
	sub	edx,eax
	jle	00401160

l004010B4:
	xchg	di,di
	repne	
	jg	00401160
	sub	[edi+6C],ch
	xor	al,0E

fn004010C3()
	pop	dword ptr [esp-1C]
	mov	ecx,edx
	add	dh,9C
	add	ecx,eax
	mov	cl,45
	or	dh,bh
	jmp	00401006
004010D7                      F1 5A 2C 25 F0                    .Z,%.   

fn004010DC()
	mov	[esp],ebx
	push	eax
	pop	eax
	pop	ebx
	mov	esi,ecx
	inc	esi
	inc	ecx
	add	esi,eax
	or	esi,ecx
	inc	edx
	dec	ebx
	jmp	004011E7
004010F1    F2 6C 89 5E 5C 90 76 EB                       .l.^\.v.      

fn004010F9()
	lea	esp,[esp+04]
	mov	edi,eax
	dec	ebx
	or	edi,eax
	dec	ecx
	or	edi,ecx
	leave	
	jmp	00401250
0040110B                                  BD CE 83 E9               ....

fn0040110F()
	xchg	[esp],edi
	push	ecx
	pop	ecx
	pop	edi
	xor	eax,edx
	or	ecx,edi
	inc	edx
	sub	eax,ebx
	xor	ecx,edi
	inc	eax
	sub	esi,edi
	call	00401328
	adc	[ebp+D53BEDBF],cl
	dec	esi

fn0040112D()
	sub	edx,eax
	add	edx,eax
	sub	ebx,eax
	or	edi,edx
	mov	ebx,ecx
	add	esi,edi
	call	00401176
	fistp	qword ptr [ebp+586FB225]

fn00401144()
	push	ebp
	mov	ebp,esp
	sub	edx,ebx
	sub	edx,ecx
	mov	edi,ebx
	xor	ecx,edx
	inc	edx
	dec	edi
	sub	edx,ebx
	dec	ebx
	jz	0040112D

l00401156:
	mov	al,al
	jnz	0040112D

l0040115A:
	sbb	al,01
	or	dl,[esi]
	jnz	00401160

fn00401160()
	add	esi,ecx
	mov	ebx,eax
	mov	ecx,ebx
	or	ebx,eax
	dec	edx
	xor	edx,eax
	call	0040101F
	pop	ss
	mov	[edi],edi
	lds	ebx,[24348939]

fn00401176()
	mov	[esp],esi
	repne	
	pop	esi
	xor	ebx,edx
	sub	ecx,eax
	add	edi,ebx
	or	ebx,ecx
	add	edx,ecx
	or	esi,edi
	jmp	0040122A
	jmp	00401164
	mov	dl,90
	bound	esi,[eax+69]
	push	esi

fn00401194()
	sub	edx,edi
	sub	ecx,esi
	inc	esi
	sub	edi,ebx
	jmp	0040137C
004011A0 80 D9 31 F6 D1 FE CD F6 DB                      ..1......      

l004011A9:
	sub	ebx,eax
	sub	ecx,edx
	adc	bh,3E
	sub	bh,ah
	jc	00401040

l004011B8:
	lea	ebx,[ebx]
	jnc	00401040

l004011C0:
	lodsb	
	iret	
004011C2       E9 F2 A6 5A 12 FC                           ...Z..       

fn004011C8()
	pop	dword ptr [esp-34]
	dec	esi
	sub	ecx,edx
	xor	edx,ebx
	mov	ecx,ebx
	sub	edi,edx
	inc	ecx
	mov	esi,ecx
	add	edx,edi
	dec	edi
	call	00401261
	xchg	eax,edi
	les	ebp,[ebp+1D]
	xchg	eax,esi
	ret	

fn004011E7()
	dec	ebx
	xor	edx,edi
	dec	edx
	xor	ecx,ebx
	add	esi,edx
	dec	ecx
	and	eax,EEEEEEEE
	inc	edx
	xor	ebx,edi
	sub	ebx,edx
	call	00401098
	js	004011A9

l00401201:
	add	al,06

fn00401204()
	add	edi,eax
	inc	esi
	add	ecx,edi
	mov	esi,eax
	dec	esi
	xor	esi,eax
	dec	ecx
	sub	esi,ecx
	inc	edx
	jz	0040105A

l00401218:
	lea	di,[edi]
	lea	bx,[ebx]
	jnz	0040105A

l00401224:
	cld	
	and	bl,[edi+13]
	cdq	
	jno	0040125E

l0040122B:
	rep	
	or	ecx,edi
	or	edx,edi
	dec	edi
	xor	edx,eax
	sub	ecx,edi
	xor	edi,eax
	not	bl
	jbe	004011A0
	jmp	00401245
	push	eax
	ja	004011A0
	xchg	eax,edi
	sbb	[eax+0B46BF38],al

fn00401250()
	inc	esi
	or	eax,ebx
	dec	esi
	xor	ebx,esi
	or	edx,esi
	add	eax,edi
	jmp	00401293
0040125C                                     02 2C                   ., 

l0040125E:
	mov	cl,[eax+24648D5C]

fn00401261()
	lea	esp,[esp+04]

fn00401264()
	add	al,43
	xor	esi,eax
	add	ebx,ecx
	xor	ebx,edx
	mov	esi,ecx
	mov	eax,[eax+00000090]
	jmp	00401311
00401279                            22 81 14 C6 55 8A 69          "...U.i
00401280 52                                              R              

l00401281:
	inc	esi
	dec	esi
	dec	ebx
	xor	ecx,esi
	inc	ecx
	mov	eax,[eax]
	jmp	00401204
0040128E                                           53 2B               S+
00401290 81 E7 A0                                        ...            

l00401293:
	inc	eax
	dec	ecx
	sub	edi,edx
	sub	esi,ecx
	mov	edi,ecx
	add	edi,edx
	sub	edx,edi
	call	0040110F
	jno	0040131A

l004012A6:
	imul	esi,[edx+66],1F

l004012A7:
	jc	0040130F
	pop	ds

fn004012AA()
	mov	eax,fs:[00000030]
	dec	edx
	sub	esi,edx
	sub	esi,ecx
	or	edx,esi
	sub	ecx,esi
	call	004011C8

fn004012BE()
	scasd	
	xor	[431735BD],ebx

fn004012C5()
	inc	ecx
	inc	ecx
	xor	ecx,esi
	mov	edi,edx
	mov	edi,ecx
	sub	ecx,ebx
	or	esi,eax
	or	ebx,eax
	jmp	004012AA
004012D5                16 30 2A A5 0C AA                     .0*...    

fn004012DB()
	add	ecx,eax
	dec	edi
	xor	esi,eax
	dec	ebx
	inc	edx
	dec	ecx
	sub	edx,esi
	xor	esi,eax
	call	004010F9
	in	eax,82
	loopne	004012A7
	illegal	
	cld	

fn004012F3()
	or	esi,ebx
	mov	edx,ebx
	sub	ecx,esi
	inc	ecx
	dec	ecx
	mov	ebx,edx
	xor	edx,ecx
	inc	ecx
	inc	edi
	sub	ecx,ebx
	jpe	004012C5

l00401305:
	mov	bl,bl
	push	di
	pop	di
	jpo	004012C5

l0040130D:
	xchg	eax,edx
	or	cl,[ecx+F90B4147]

fn00401311()
	inc	edi
	inc	ecx
	or	edi,ecx

fn00401315()
	inc	ebx
	add	ecx,edi
	inc	ebx
	add	edx,eax

fn0040131A()
	rol	byte ptr [ecx-17],01

fn0040131B()
	inc	ecx
	jmp	00401281
00401321    30 78 46 AB 01 78 FA                          0xF..x.       

fn00401328()
	pop	dword ptr [esp-30]
	sub	eax,esi
	inc	esi
	add	ecx,eax
	mov	ecx,esi
	inc	edi
	js	00401194

l0040133A:
	xchg	ch,ch
	jl	0040133E

l0040133E:
	jns	00401194

l00401344:
	push	ecx
	sub	eax,42838019

fn00401349()
	inc	edx

fn0040134A()
	sub	ecx,edx
	or	edx,ebx
	or	eax,eax
	jz	00401353

l00401352:
	ret	

fn00401353()
	dec	ebx
	mov	ebx,edx
	dec	ecx
	js	004012DB

fn00401359()
	mov	al,al
	jns	004012DB

l00401361:
	cmp	[ecx],eax
	clc	
	arpl	bx,bx
	push	ebp

fn00401367()
	dec	edx
	xor	ebx,edi
	mov	edi,edx
	inc	esi
	xor	ebx,esi
	xor	ebx,esi
	xor	ebx,edi
	add	edx,eax
	jmp	00401349
00401377                      25 DF D8 BC 71                    %...q   

l0040137C:
	call	004026A8
	jz	004013D1
	mov	esp,18FCEE10
	illegal	
	xchg	eax,ebx
	and	al,24
	inc	ebp
	adc	[ebx],bh
	xor	ebp,5C
	cmc	
	and	al,24
	scasd	
	mov	[24249521],eax
	jl	00401393
	and	[esi+34],dl
	xchg	eax,edx
	xor	al,A2
	xor	al,B2
	mov	ebp,344E43B1
	pop	ebx
	aam	3C
	mov	bl,C5
	xor	dword ptr [edx+2414B5A3],24
	sub	ch,[ebx+C3C4F730]
	xor	al,20
	popf	
	pop	eax
	sar	dword ptr [ebp+5B0412DA],01
	rol	dword ptr [ebx+ebx*2],01
	adc	[ecx],edi
	xchg	eax,ebx
	xor	al,24
	and	al,39
	mov	[2424B581],eax
	outsd	
	illegal	
	jmp	A177A674
	mov	[2424743A],eax
	sbb	[ebp+37B13405],edi
	adc	[ebx+24245476],ah
	mov	[242454C6],eax
	fdiv	double ptr [edx+69393F70]
	jns	004013BD
	fisub	dword ptr [ebp+59B741BD]
	in	eax,34
	mov	edx,0EBEDDC8
	and	al,24
	and	al,BD
	mov	dh,A3
	dec	edx
	jz	0040143A
	and	al,48
	pop	ecx
	push	eax
	push	ds
	mov	bl,DC
	xor	eax,0C94589D
	fsub	double ptr [8C4CF524]
	lds	esp,[esp]
	cmc	
	outsd	
	pop	eax
	and	eax,BDD4589D
	pop	ebx
	movsd	
	mov	ebp,DA6FF5F4
	adc	eax,24C59AA3
	and	al,A3
	mov	edi,14242444
	pop	ebx
	test	al,49
	mov	dword ptr [ecx-6F],64B62CF5
	and	al,24
	mov	ebp,589D9458
	xchg	eax,edx
	mov	ebp,16A3D358
	and	al,24
	mov	[24246475],eax
	out	96,al
	push	ebp
	stosb	
	insb	
	cmp	al,DF
	lahf	
	and	al,24
	and	al,0C
	dec	ebx
	xor	eax,24242457
	or	al,09
	add	al,5B
	aam	93
	rol	ch,cl
	and	al,24
	mov	[242454A6],eax
	xor	al,58
	movsd	
	mov	[24245484],eax
	jl	00401472
	mov	al,[F2A5]
	add	al,11
	mov	ebp,30A1D458
	in	eax,24
	pop	ecx
	mov	ebp,A55B04D3
	stosd	
	add	al,A3
	call	83643920
	movzx	eax,word ptr [esi+69D3BD59]
	jns	00401472
	pop	ebx
	movsd	
	mov	ebp,1456A3F4
	and	al,24
	illegal	
	add	[edx+587BA3BD],esp
	mov	ebp,C34E43B1
	lds	edi,[ebp+4E43E5D9]
	mov	[242495F1],eax
	mov	ebp,5897D458
	xchg	eax,esp
	cmp	al,10
	lds	edx,[edi+3FA3E558]
	xchg	eax,ebp
	and	al,24
	xlat	
	adc	cl,CB
	xchg	eax,ebp
	fstp	double ptr [eax-5B]
	or	[ebx+FA8D8B04],ebp
	or	dl,[edx]
	xchg	eax,ebx
	leave	
	adc	al,24
	and	al,8B
	mov	edi,0953348B
	xchg	eax,ebx
	xor	al,74
	and	al,24
	add	al,11
	mov	eax,[245475A3]
	and	al,92
	test	[ebp+54],ebp
	xchg	eax,ebp
	cli	
	mov	al,[04964A8D]
	lea	esp,[esi-67]
	mov	ch,A1
	pop	ebx
	out	BA,al
	mov	eax,[C324E530]
	jl	004014FF
	dec	ecx
	jo	004014B8
	sbb	ch,[eax-5C]
	mov	eax,[59242530]
	mov	ebp,D9BD39D3
	in	eax,BD
	fisub	dword ptr [ebp+58BDF2C3]
	and	eax,2454A2A3
	and	al,B9
	xor	al,74
	add	ecx,esi
	aaa	
	adc	[eax+575CF541],bh
	inc	esp
	and	al,24
	mov	edx,246430A1
	pop	ecx
	mov	ebp,8B08ABD3
	and	al,07
	and	al,24
	mov	[24241474],eax
	pop	esp
	scasd	
	xlat	
	xor	al,21
	and	[eax],dh
	xor	al,99
	mov	ch,A1
	pop	ebx
	cmp	edi,[ebp+D9BDA558]
	in	eax,A3
	ret	2454
	and	al,54
	xchg	eax,esp
	mov	ecx,8B9F51F0
	lea	edi,edx
	or	dl,[edx]
	xchg	eax,ebx
	aas	
	and	al,24
	and	al,8B
	jmp	far 09F3:8350
	xchg	eax,ebx
	stosd	
	test	[esp],ah
	add	al,11
	add	al,5B
	movsd	
	mov	ecx,[ebp+93120AFA]
	sahf	
	and	al,24
	and	al,A3
	cli	
	adc	al,24
	and	al,28
	mov	[2066CEC2],al
	repne	
	and	dl,al
	inc	esi
	cmc	
	ret	
	inc	ecx
	repne	
	and	dl,al
	inc	esi
	repne	
	and	ch,dh
	ret	
	and	ch,bl
	cdq	
	adc	al,1C
	movsb	
	out	dx,ax
	js	004015E8
	cmc	
	pop	esp
	inc	eax
	xchg	eax,ebp
	and	al,24
	mov	[2424440C],eax
	neg	byte ptr [ecx+D9BDB6DA]
	in	eax,BD
	pop	ecx
	and	eax,19CF9DC3
	lodsd	
	mov	cl,0C
	and	esi,[24A5C4A3]
	and	al,E0
	sub	eax,083448BB
	enter	89BD,09
	popf	
	illegal	
	stosd	
	or	[ebx+ebx*2],al
	rol	[ebx+ebx*2],cl
	adc	dl,[ebx+24246475]
	mov	ebp,91BD1258
	mov	[2424441C],eax
	idiv	byte ptr [edx-44]
	out	3C,al
	sub	ebx,esi
	pop	ecx
	mov	ebp,D1503CD3
	cmp	[ebx+BD17F524],ebp
	xchg	eax,ecx
	sbb	al,22
	add	al,24
	and	al,24
	mov	[242495CA],eax
	pop	ebp
	outsd	
	xchg	eax,esp
	retf	
	pop	esi
	jo	00401606
	jmp	far A530:A1BA
	and	al,59
	mov	ebp,8454A3D3
	and	al,24
	fidiv	dword ptr [ebx]
	sub	[eax+7E],dl
	inc	esi
	enter	BC3C,64
	movsd	
	cmc	
	jl	004016D4
	push	esp
	and	al,24
	cli	
	jmp	far A530:A1BA
	and	al,A3
	ficom	word ptr [esp+24]
	mov	[edx-35],cl
	dec	ecx
	leave	
	fstp	double ptr [eax-1B]
	or	[ebx+A558DD24],ebp
	or	[ebx+FA8D8B04],ebp
	or	dl,[edx]
	xchg	eax,ebx
	adc	[esp+eax],al
	add	al,8B
	push	39
	inc	esp
	sub	[ecx],cl
	mov	[2424A516],eax
	mov	[3C2BF33D],ds
	mov	dword ptr [ebp+BD4AE5DC],242407D6
	and	al,BD
	mov	edx,E539BDE5
	mov	ebp,26A3E53B
	test	[esp],ah
	mov	[24248477],eax
	mov	[24248486],eax
	lds	eax,[ebx-71]
	illegal	
	aam	F5
	dec	esp
	mov	[04242454],eax
	pop	ebx
	adc	dl,[ebx+0404E401]
	add	al,5B
	rol	[ebx+ebx*2],cl
	adc	dl,[ebx+24247482]
	mov	ebp,BA3451DA
	enter	BADD,86
	add	al,3B
	mov	[ebx+24248457],ah
	mov	eax,[C231E89B]
	cmp	al,DC
	in	eax,C5
	cmc	
	sub	al,21
	in	al,04
	add	al,BD
	inc	eax
	aaa	
	xor	[eax+242424C5],esp
	and	dword ptr [ebx],A3
	sahf	
	aam	04
	add	al,F8
	or	eax,ebx
	sub	[8B3B0098],bh
	xor	dword ptr [ecx],CB
	pushf	
	or	[ebx+242464D3],edx
	add	al,11
	mov	ebp,30A1D458
	movsd	
	and	al,C3
	xchg	eax,edi
	movsd	
	mov	al,[7AA998F1]
	xchg	[ebx+04040435],dl
	mov	esi,[091FB51B]
	xchg	eax,ebx
	mov	cl,64
	and	al,24
	add	al,11
	fstp	double ptr [eax+13]
	mov	[242464CC],eax
	and	[esi+5894B0F9],al
	push	edx
	mov	eax,3CD3BD59
	push	eax
	xchg	eax,esp
	cmp	[ecx+79],ebp
	mov	ebp,58B7E558
	popf	
	pop	eax
	in	eax,A3
	outsd	
	aam	04
	add	al,AD
	lock	
	push	edx
	mov	dx,6AF6
	inc	ebx
	scasd	
	cli	
	mov	eax,[5924A530]
	mov	ebp,796939D3
	mov	[04040486],eax
	mov	[EFA9BFD0],eax
	mov	[0404E440],eax
	mov	ebp,103707A9
	mov	[24246432],eax
	and	[eax],dl
	jz	004017C0
	adc	al,A3
	popa	
	and	al,24
	shl	esp,cl
	out	dx,ax
	mov	ecx,3F0379C4
	adc	al,69
	mov	ebp,4313B783
	dec	esi
	jmp	far 2414:D0A3
	and	al,44
	xor	[ebx+24245452],esp
	push	8F
	mov	[esi+37BDD821],ss
	ret	
	xor	al,BD
	cmp	esp,[BDA55B34]
	mov	esp,A5DC3425
	mov	[242414C1],eax
	mov	[0404D40D],eax
	stosb	
	add	ch,ch
	sar	ah,01
	mov	ecx,[ebp+93120AFA]
	retf	04F4
	add	al,8B
	jmp	far 09F3:8350
	xchg	eax,ebx
	xor	eax,04242464
	adc	[ebx+24241412],esp
	xchg	eax,esp
	sbb	esi,esp
	xchg	[ecx],al
	inc	eax
	cmp	[ebx+0404E4A7],edx
	sbb	dword ptr [eax-2C],A5
	and	al,24
	and	al,F5
	dec	esp
	xor	dl,[esp]
	and	al,04
	pop	ebx
	adc	eax,[ebx+ebx*2]
	push	ebx
	add	al,5B
	push	edx
	cmp	[ebx+040404C7],edx
	mov	[242414C1],eax
	cmp	[edx-1A],ebp
	push	ebx
	xlat	
	xchg	eax,ebx
	cmp	[esp],edx
	and	al,F5
	jg	004017F0
	test	[eax+eax*2],bl
	xchg	eax,esp
	and	al,24
	and	al,A3
	mov	[19242434],eax
	mov	ebp,58346538
	push	ecx
	mov	ebp,D934E5B9
	adc	al,[ebx+edi]
	and	eax,24641EA3
	and	al,C8
	mov	edx,C8A67820
	mov	ecx,4665C28A
	mov	dl,[eax+24242434]
	aaa	
	xor	[edx-13],ebp
	xchg	eax,ebx
	push	CD
	xchg	eax,ebx
	mov	[0404C461],eax
	sub	eax,A73DAD21
	call	far 845E:A3D3
	and	al,24
	mov	[eax],esp
	xchg	eax,ebx
	cmc	
	and	[edx],dl
	cmc	
	cmc	
	jg	00401831
	sbb	al,A3
	fldcw	word ptr [edx+0DA32424]
	test	[esp],ah
	clc	
	clc	
	ret	
	pusha	
	cmpsd	
	xor	al,08
	enter	08BD,87
	xor	al,20
	popf	
	pop	eax
	adc	[ebx+ebx*2],eax
	xchg	eax,ebx
	stosd	
	and	al,93
	scasd	
	aam	04
	add	al,9D
	pop	eax
	push	ecx
	mov	ebp,F0A312DA
	push	esp
	and	al,24
	mov	ah,42
	lds	ebp,edx
	adc	dword ptr [ebx+F59A3034],7F
	in	eax,89
	mov	ebp,3034C678
	mov	ebp,30348D64
	mov	[242444BC],eax
	mov	[2424448B],eax
	aaa	
	adc	[ebx+2424441A],ah
	dec	esp
	mov	byte ptr [edx],89
	xor	al,DA
	movsd	
	mov	[24244435],eax
	mov	ebp,5834E538
	movsd	
	or	[ebx+24248452],edx
	popf	
	pop	eax
	aam	3C
	mov	eax,F04CF524
	hlt	
	add	al,04
	mov	[0404F45F],eax
	cdq	
	out	AE,al
	cli	
	ret	
	illegal	
	dec	edx
	and	[eax],dl
	jz	0040193F
	adc	al,18
	or	al,98
	and	al,5B
	arpl	[edi+2C],bx
	mov	ah,09
	mov	ecx,5F5B40B8
	mov	ebp,5DC34678
	xchg	eax,esp
	loop	0040191B
	jl	004018D2
	adc	al,[ecx-56]
	or	[ebx+242444F1],edx
	add	al,11
	fstp	double ptr [eax+53]
	or	[ebx+120AFA8D],ecx
	xchg	eax,ebx
	aam	D4
	add	al,04
	mov	esp,[eax]
	out	92,al
	and	ecx,[ecx]
	xchg	eax,ebx
	aas	
	inc	esp
	and	al,24
	mov	[242454B4],eax
	jpe	004019CE
	mov	ecx,5A85F620
	fstp	tword ptr [ebp+DCBDE55B]
	movsd	
	aam	2F
	or	al,37
	ret	3F4E
	inc	esp
	xchg	eax,ebx
	clc	
	hlt	
	add	al,04
	mov	[24241475],eax
	mov	ah,1F
	lea	esi,[ebx+09]
	xchg	eax,ebx
	dec	esp
	inc	esp
	and	al,24
	or	[eax+59],eax
	mov	ebp,A7A369D3
	and	al,24
	loope	00401915
	mov	edi,08DD646C
	inc	esp
	or	[ebx+ebx*2],eax
	aam	93
	loopne	004019F3
	and	al,24
	mov	edi,F524E83C
	pop	esp
	and	[esp+eax+1409A304],dh
	and	al,24
	add	bl,[eax+14A3BDB2]
	neg	dword ptr [ecx]
	popf	
	dec	ecx
	inc	esi
	adc	ch,bl
	dec	ecx
	inc	esi
	adc	[ecx],ch
	stosd	
	add	al,09
	mov	ecx,[ebp+93120AFA]
	pushf	
	aam	04
	add	al,8B
	mov	edi,C353348B
	scasd	
	mov	esi,310E5716
	lahf	
	idiv	byte ptr [ebx+ebp*4+14]
	fstp	double ptr [eax-6C]
	or	ebp,ebx
	pop	eax
	push	ebx
	or	[ebx+120AFA8D],ecx
	mov	[0404E4E8],eax
	pusha	
	dec	ebp
	or	ch,[ecx]
	popf	
	pop	eax
	push	edx
	add	al,5B
	xchg	eax,esp
	add	al,5B
	push	edx
	cmp	[ebx+0404B4BF],edx
	sbb	dword ptr [eax-2C],64
	and	al,24
	and	al,F5
	dec	esp
	clc	
	xor	al,24
	and	al,09
	add	al,5B
	push	ecx
	xchg	eax,ebx
	sbb	[esp],edx
	and	al,A3
	div	dword ptr [esp]
	and	al,C6
	popa	
	movsd	
	sbb	[eax+ebx*8+5924A530],edi
	mov	ebp,D4503CD3
	fstp	double ptr [eax-2C]
	or	[ebx+ebx*2],eax
	and	eax,09E558DD
	fstp	double ptr [eax-5B]
	mov	[24245437],eax
	jbe	00401AA7
	push	ebp
	fist	dword ptr [ebp+edi*8+D18B5358]
	rcl	ecx,01
	sar	ebp,01
	pop	eax
	adc	ecx,[ebx+24246724]
	std	
	pop	eax
	xchg	eax,ebx
	mov	esp,[edi]
	and	al,24
	std	
	pop	eax
	push	edx
	mov	eax,[eax]
	xlat	
	illegal	
	std	
	pop	eax
	sar	[ebp+ADA31258],cl
	les	eax,[esp+eax]
	cli	
	popf	
	cwde	
	dec	dword ptr [edi+F5D999BE]
	pop	esp
	dec	ecx
	inc	esp
	and	al,24
	cli	
	jmp	far E530:A1BA
	and	al,59
	mov	ebp,3460A3D3
	and	al,24
	lodsb	
	and	eax,3CF5AFBB
	jno	00401A8A
	add	al,04
	aaa	
	mov	eax,[04E48593]
	add	al,F5
	cmp	al,11
	inc	esp
	and	al,24
	aaa	
	adc	[ebx+0404E495],dl
	cmc	
	cmp	al,B2
	inc	esp
	and	al,24
	aas	
	inc	esp
	mov	[040494F1],eax
	add	edx,[eax]
	xchg	eax,esi
	pop	edx
	sbb	al,DC
	in	eax,04
	add	al,24
	and	al,7B
	lds	eax,[ebx+ebx*2]
	in	eax,AB
	and	al,A3
	and	[esp+eax+DD24AB04],esi
	pop	eax
	push	ebx
	or	[ebx+ebx*2],eax
	in	eax,09
	mov	[0404B4BF],eax
	xchg	[edx],bl
	sbb	al,AB
	mov	[ebp+64E7A388],esi
	and	al,24
	sbb	eax,A5122089
	iret	
	xchg	eax,ebx
	das	
	inc	esp
	and	al,24
	mov	[242464D5],eax
	test	al,BB
	mov	byte ptr [esi-7F],3C
	inc	eax
	cmp	al,BC
	in	eax,24
	cmc	
	pop	esp
	inc	edx
	in	al,04
	add	al,FA
	jmp	far 6430:A1BA
	and	al,59
	mov	ebp,9412A3D3
	add	al,04
	sub	ch,dl
	adc	ah,[ebx+45046157]
	push	edi
	and	[ecx+222BD715],dl
	insd	
	popf	
	pop	eax
	and	eax,5B833137
	in	eax,AD
	dec	eax
	xchg	eax,esi
	add	al,AD
	inc	esi
	cmpsb	
	mov	[0404A451],eax
	adc	[esi+edi*8+703C9A51],ecx
	sbb	fs:[eax+2CF5D4D9],bh
	dec	ebp
	xchg	eax,esp
	add	al,04
	cli	
	mov	[0404B493],eax
	jle	00401B3F
	int	03
	and	al,[ebp+172559BD]
	movsd	
	pop	ss
	and	eax,30A1EAFA
	in	eax,24
	pop	ecx
	mov	ebp,03A30AD3
	in	al,04
	add	al,68
	fstp	tword ptr [ebx]
	fist	word ptr [edx+41]
	mov	ah,BD
	fldenv	word ptr [ebp+4CF5C2B5]
	mov	dl,B4
	add	al,04
	mov	eax,4CF5E5D9
	and	[esp+eax+A5DA3404],esi
	mov	[0404B400],eax
	mov	ebp,A33C64B9
	movsd	
	mov	[2424443B],eax
	pop	ebx
	sar	dword ptr [edx-4C],01
	rol	ebx,B6
	xor	byte ptr [D46493A1],04
	add	al,F5
	sub	al,53
	adc	al,24
	and	al,40
	mov	bh,CC
	inc	esi
	xchg	[ebp+1AC646CC],ebx
	mov	eax,[0924A530]
	fstp	double ptr [eax+53]
	or	[ebx+8B24AB24],ebp
	lea	edi,edx
	or	dl,[edx]
	xchg	eax,ebx
	sti	
	mov	ah,04
	add	al,8B
	outsd	
	add	al,46
	aaa	
	mov	[0404E439],eax
	cdq	
	jpo	00401BBD
	xchg	eax,ebp
	pop	dword ptr [ebp-33]
	mov	ecx,[ebp+93120AFA]
	dec	ecx
	mov	ah,04
	add	al,8B
	inc	edx
	mov	bh,4C
	popa	
	or	[ebx+242424B5],edx
	add	al,11
	mov	[24243481],eax
	imul	eax,[ecx],02
	scasb	
	pop	ecx
	mov	ebp,D4503CD3
	cmp	[ecx+79],ebp
	mov	ebp,0834A558
	enter	59BD,A5
	mov	[24241441],eax
	adc	eax,66FD54EC
	inc	ecx
	ret	
	in	eax,dx
	cmp	al,40
	xchg	[ecx+5CF5A1B5],ebx
	cmc	
	aam	04
	add	al,04
	pop	ebx
	xchg	eax,ebx
	add	al,5B
	push	ecx
	xchg	eax,ebx
	sub	al,44
	and	al,24
	mov	ebp,18BD12D9
	enter	48BD,14
	xchg	[ebx+0404832B],esp
	rol	dh,80
	add	esi,[ebp+0F]
	cmp	[edx-43],ecx
	push	ebp
	pop	es
	and	al,24
	and	al,BD
	sub	ebp,esp
	mov	ebp,E5403CB2
	mov	ebp,45BDE529
	mov	[0404C486],eax
	xor	[ebp+F1109A4E],cl
	cmp	al,20
	inc	esp
	push	3C
	cwde	
	and	al,F5
	pop	esp
	les	eax,gs:[esp+eax]
	push	edi
	sub	al,B4
	or	[ecx+5BA558B8],edi
	illegal	
	mov	ebp,40A38628
	xchg	eax,esp
	add	al,04
	mov	[0404946F],eax
	mov	ebp,94DFA345
	add	al,04
	sub	ebx,[esi-22]
	js	00401D0C
	cmp	eax,D5BD4A9F
	pop	es
	and	al,24
	and	al,9D
	sbb	[ebp+04D25B04],ah
	pop	ebx
	adc	dl,[ebx+2424141C]
	mov	ebp,BA3451DA
	enter	3B04,49
	add	al,5B
	push	ecx
	add	al,5B
	adc	ah,[ebx+0404C40A]
	pushf	
	outsd	
	xor	esp,[ebp+edi*4+68]
	mov	byte ptr [eax+04155B80],5B
	movsd	
	std	
	push	255B0486
	std	
	push	E44DA3C6
	add	al,04
	mov	ebp,A333B867
	pop	esp
	in	al,04
	add	al,AC
	out	dx,ax
	add	eax,19092B09
	xchg	eax,ebx
	jl	00401CD2
	add	al,04
	mov	ebp,5834E538
	adc	al,[ebx+edi]
	inc	esi
	add	al,3B
	movsd	
	or	[ebx+0404E485],edx
	call	far 0404:25A3
	add	al,29
	or	al,2F
	pop	ss
	loop	00401D46
	or	eax,D258FDAD
	add	al,3B
	mov	[ebx+edi],al
	mov	byte ptr [ebx+edi],88
	add	al,3B
	mov	byte ptr [ebx+edi],C6
	xchg	eax,ebx
	jpe	00401CB8
	add	al,04
	xchg	eax,ebx
	pop	esp
	adc	al,24
	and	al,93
	cmpsb	
	xchg	eax,esp
	add	al,04
	popf	
	pop	eax
	adc	ah,[ebx+040404DA]
	jmp	far 499E:8B60
	ret	
	in	eax,04
	pop	ebx
	push	edx
	or	[ebx+ebx*2],eax
	push	ecx
	xchg	eax,ebx
	mov	bh,D4
	add	al,04
	sbb	dword ptr [eax-2C],25
	and	al,24
	and	al,A3
	call	far 7A04:04A4
	jz	00401DD0
	stosd	
	fdiv	st(0),st(6)
	jz	00401D93
	mov	[0404C4D4],eax
	xchg	eax,ebx
	pop	es
	and	al,24
	and	al,B7
	shl	ebp,5C
	wait	
	in	al,04
	add	al,93
	push	ss
	and	al,24
	and	al,A3
	or	eax,CF242414
	and	[ebx+F4364CF5],edx
	add	al,04
	xor	eax,E4A9A3A1
	add	al,04
	or	[edx],al
	mov	ecx,AD545B00
	test	[eax+45],ebp
	xor	[eax+37],eax
	mov	eax,[B4549318]
	add	al,04
	mov	[0404E463],eax
	lodsd	
	sbb	esi,[eax+52]
	push	ebp
	jns	00401D79
	fldenv	word ptr [BDE55BBD]
	fsub	double ptr [ebp+80BD4E43]
	cli	
	jmp	far F0CB:C3A1
	xor	edi,[eax-2E]
	sbb	dword ptr [esi+6E],34B8341A
	fsub	double ptr [ebp+703C7514]
	inc	esp
	cmp	al,A3
	inc	esp
	mov	ch,A1
	pop	ebx
	xor	al,BA
	mov	fs:[0404948B],eax
	xchg	eax,esp
	sub	esp,[ebx]
	shl	eax,01
	mov	ebp,30348C08
	mov	ebp,060BBD94
	xor	al,33
	mov	ebp,D99D8689
	aam	BD
	illegal	
	mov	[04046341],eax
	or	ebx,ecx
	jc	00401E1C
	movsd	
	aam	F6
	lahf	
	mov	ebp,A5703C43
	ret	
	jo	00401E12
	jg	00401DA3
	cmc	
	jg	00401DB6
	push	1C
	add	byte ptr [E593206A+esi*8],3C
	xchg	eax,esp
	xor	al,5B
	iret	
	ret	
	pop	edx
	daa	
	idiv	dword ptr [ebx]
	push	ecx
	or	esp,esp
	xor	ch,ah
	and	al,59
	mov	ebp,103779D3
	mov	ebp,DCBDE5D9
	movsd	
	mov	[0404A426],eax
	scasd	
	pop	edi
	std	
	cmp	ebx,ecx
	pop	esi
	cmp	al,50
	aam	39
	imul	edi,[ecx-43],BA34A5DA
	enter	BEDD,0C
	and	al,24
	and	al,BD
	mov	dh,B5
	ret	4CF5
	out	dx,al
	aam	04
	add	al,A3
	dec	ebx
	mov	ah,04
	add	al,9D
	lodsb	
	sbb	byte ptr [ebp+C8BA34EB],1C
	inc	eax
	push	es
	adc	al,24
	and	al,BD
	mov	edx,12DA34E5
	add	al,5B
	rol	[ebx+ebx*2],cl
	push	edx
	mov	[0404A4FB],eax
	jcxz	00401EEA
	iret	
	add	al,98
	cmp	al,DC
	in	eax,24
	cmc	
	pop	esp
	fst	dword ptr [esp+eax+9458BD04]
	cli	
	jmp	far 731C:A3BA
	add	al,04
	imul	bx,[edx+eax*4],BE
	xchg	eax,ebx
	sbb	esp,esp
	add	al,04
	add	al,11
	mov	ebp,30A1A558
	movsd	
	and	al,59
	mov	ebp,0C248BD3
	and	al,24
	fstp	double ptr [eax-1B]
	or	[ebx+04047396],esp
	push	eax
	pop	esi
	pushf	
	imul	esp,[ecx+703C53BD],25
	mov	esp,[eax+ecx]
	and	al,24
	popf	
	leave	
	inc	esi
	adc	ch,bl
	leave	
	inc	esi
	adc	[ebx+0404B4A1],ah
	inc	esi
	outsd	
	lea	eax,[1031F144]
	lodsd	
	mov	cl,31
	xchg	eax,ecx
	call	far 73DB:A3AF
	add	al,04
	fdiv	dword ptr [ebx]
	push	esp
	illegal	
	jmp	dword ptr [eax+ebx*8]
	and	al,DC
	and	al,24
	cmp	eax,ebp
	or	al,D4
	push	esp
	cmp	eax,[esp+edi+447BFC94]
	sbb	[eax],bl
	pop	ebp
	mov	ebp,943CA360
	add	al,04
	pop	edx
	mov	bl,C4
	dec	edx
	mov	ch,A1
	cmc	
	pop	esp
	cmp	[esp+eax+12589D04],esp
	aam	8B
	and	al,24
	and	al,24
	std	
	pop	eax
	aam	8B
	inc	esi
	illegal	
	jnz	00401F3E
	pop	eax
	xchg	eax,esp
	mov	edx,ecx
	rcl	ecx,01
	shl	dword ptr [ebx+0404B4A4],01
	sub	al,4A
	illegal	
	mov	ebx,[eax+1104F6A6]
	mov	ebp,30A11358
	and	al,59
	mov	ebp,53503CD3
	fstp	double ptr [eax-2C]
	or	[ebx+0404C409],esp
	inc	ebx
	test	byte ptr [esp+ecx+09EEE615],AB
	add	al,8B
	lea	edi,edx
	or	dl,[edx]
	xchg	eax,ebx
	jo	00401FF2
	add	al,04
	mov	edx,eax
	in	eax,70
	cmp	ecx,[ecx]
	xchg	eax,ebx
	fcom	st(0),st(4)
	add	al,04
	mov	[04046364],eax
	not	dword ptr [ecx]
	fcomp	double ptr [ebp+76]
	stosd	
	adc	al,A3
	pop	ss
	jnc	00401FA0
	add	al,BE
	mov	[4664C211],al
	ret	4664
	mov	[04047305],eax
	mov	ebx,BEEA7AB6
	stc	
	xchg	eax,ebx
	adc	[esp+eax+3440BD04],esi
	or	al,cl
	add	al,0B
	inc	edi
	cmp	[ebx+0404C409],edx
	mov	edx,242524A0
	and	al,BD
	pop	ecx
	xchg	eax,edx
	mov	ebp,14A3D158
	add	al,04
	add	al,3E
	mov	al,BE
	xchg	[ebx+ecx*8],esp
	fbld	tword ptr [ecx+59246430]
	mov	ebp,13503CD3
	add	al,5B
	movsd	
	fstp	double ptr [eax-6C]
	or	[ebx+04048303],esp
	imul	edi,edx,8D
	clc	
	in	al,30
	xchg	eax,esp
	arpl	[ecx],bx
	illegal	
	in	eax,33

fn00401FFD()
	xor	edi,edx
	or	bh,cl
	mov	bh,61
	dec	esi
	not	bl
	add	eax,ecx
	inc	edi
	adc	bl,E8
	jmp	0040253B
00402011    C8 37 2F 03                                   .7/.          

fn00402015()
	pop	dword ptr [esp-20]
	xor	dh,cl
	sbb	cl,42
	neg	dl
	add	esi,ebx
	not	ch
	neg	dl
	sbb	dl,30
	jmp	00402BF7
0040202E                                           6B 73               ks
00402030 F5 5A 58                                        .ZX            

l00402033:
	add	bl,DD
	add	dh,bl
	xor	dh,al
	sbb	dl,B3
	add	dl,92
	mov	edx,edi
	add	bh,E6
	call	00402311
	movsd	
	call	far FE6B:A671

l0040204F:
	dec	cl
	mov	ebx,eax
	inc	ch
	add	dl,1E
	mov	cl,97
	xor	ecx,ebx
	jmp	00402F15
00402061    AB 8D FD 88 72 E1 4D                          ....r.M       

fn00402068()
	lea	esp,[esp+04]
	inc	ecx
	neg	dl
	inc	esi
	dec	esi
	xor	cl,dh
	xor	cl,al
	not	ch
	dec	cl
	sbb	cl,58
	jmp	00402EF2
00402081    A7 26 A5 93 80 D5 71 80 D6 88 2B CA 0B C6 33  .&....q...+...3
00402090 C7 32 D3 03 D0 E9 C2 02 00 00 39 5F CD E9 DC    .2........9_...

l0040209F:
	mov	edi,eax
	add	ch,E0
	inc	edi
	inc	ch
	or	bh,bl
	sub	ebx,eax
	inc	bl
	mov	eax,[edx]
	sub	ebx,edi
	jmp	00402455
004020B6                   5A C5 62 EB 46 3D 30                Z.b.F=0  

l004020BD:
	dec	esi
	dec	al
	mov	al,dl
	dec	dl
	neg	al
	shr	ecx,0F
	xor	edi,ecx
	xor	bh,al
	sub	edi,ecx
	call	004021F3
	illegal	
	sbb	al,3A
	push	ecx
	dec	byte ptr [ebx+D824448F]

fn004020DA()
	pop	dword ptr [esp-28]
	mov	ch,dl
	dec	eax
	dec	ecx
	or	esi,edi
	xor	cl,bh
	js	00402739

l004020EC:
	xchg	dl,dl
	repne	
	jns	00402739
	push	edx
	xor	eax,448F4619

fn004020FA()
	pop	dword ptr [esp-28]
	mov	bh,ch
	inc	esi
	neg	bl
	mov	ebx,edi
	mov	bl,0A
	add	bh,al
	not	bl
	not	bh
	or	eax,eax
	jmp	00402DD4
00402114             DA 0C A0 FF 65                          ....e      

l00402119:
	dec	esi
	sub	ecx,6E5955AF
	add	esi,edi
	or	esi,ebx
	add	esi,edi
	add	esi,edx
	mov	esi,edi
	or	esi,ebx
	cmp	ecx,91A6AA51
	jmp	00402BD9
00402137                      54 18 48 77                       T.Hw    

l0040213B:
	add	cl,67
	mov	ch,EB
	xor	esi,edx
	sbb	ch,48
	not	ch
	not	cl
	xor	ch,dl
	rol	dl,03
	inc	ecx
	call	004027FA
	inc	ebp
	test	al,76
	mov	cl,dl

fn00402159()
	dec	edi
	dec	ebx
	mov	edi,esi
	or	bh,dl
	add	edx,edi
	shl	ecx,0F
	mov	esi,eax
	jbe	0040246D

l0040216C:
	push	esi
	pop	esi
	xchg	ecx,ecx
	ja	0040246D

fn00402173()
	add	al,[eax]
	add	[eax-2F],cl

l00402176:
	dec	eax
	rcr	dword ptr [eax],01

fn00402178()
	sbb	[eax],ah
	test	eax,D98BAC70

l0040217D:
	mov	ebx,ecx

fn0040217F()
	add	edi,edx
	dec	esi
	adc	bl,DF
	xor	ebx,edi
	add	bl,CA
	inc	edi
	dec	bl
	lea	edx,[eax+000000F8]
	call	004025C3
	jnc	00402173

l0040219A:
	illegal	
	scasb	
	mov	ebx,F6C72BE5
	rol	[ebx],cl
	mov	dword ptr [ebx+81D78AD6],0002A1EB
	add	[ebx],al
	xlat	
	add	ah,43
	jl	0040283B
	xchg	ax,ax
	repne	
	jge	0040283B
	and	ecx,[eax+24C882AF]
	mov	esp,F424448F

fn004021CB()
	pop	dword ptr [esp-0C]
	add	bl,al
	sbb	cl,13
	inc	bl
	add	ch,A3
	not	bh
	mov	cl,50
	jl	004022E6

l004021E3:
	mov	ah,ah
	push	dx
	pop	dx
	jge	004022E6

l004021EF:
	adc	[esi],dl
	retf	87A3

fn004021F3()
	xchg	[esp],edx
004021F4             14 24 8A ED 5A 40 03 F1 02 E1 FE CC     .$..Z@......
00402200 03 C2 0F 80 51 FF FF FF                         ....Q...       

l00402208:
	repne	
	rep	
	jno	00402159
	ret	588A
	cmp	[esi+FB035005],edi

fn00402217()
	add	edi,ebx
	xor	eax,ebx
	push	dword ptr [ecx]
	add	ebx,edx
	add	edx,ebx
	xor	edx,esi
	mov	bl,cl
	inc	ebx
	mov	eax,edi
	jpe	00402033

l0040222E:
	rep	
	lea	esi,[esi]
	jpo	00402033
	int	5E
	jg	00402233
	mov	[edi-48],esp

fn0040223D()
	mov	eax,AE909635
	mov	dl,C0
	add	ch,40
	inc	esi
	dec	dh
	xor	ecx,ebx
	sub	ecx,edx
	or	esi,ecx
	call	00402015
	mov	cl,16
	pop	ecx
	or	bh,cl

fn0040225A()
	pop	dword ptr [esp-20]
	sub	bh,al
	sub	al,bl
	sub	cl,dl
	add	edi,ebx
	mov	cl,20
	mov	bh,3C
	not	ch
	add	cl,bl
	or	edi,eax
	jmp	0040248B
00402275                00 AB 18 02 C3 67 DF                  .....g.   

fn0040227C()
	or	ch,ah
	mov	dl,bl
	adc	dh,37
	xor	edi,edx
	adc	bh,4B
	mov	bh,FC
	xor	ebx,ecx
	jbe	0040204F

l00402292:
	rep	
	ja	0040204F
	mov	edx,D2F644D6

fn0040229D()
	not	dl
	add	bh,66
	add	edi,ebx
	xor	ecx,edx
	inc	bl
	mov	bl,cl
	jmp	00402877
004022AF                                              7A                z
004022B0 EE 65 79 0A                                     .ey.           

fn004022B4()
	sub	bl,dl
	dec	edi
	mov	bl,dh
	pop	edx
	add	bh,18
	mov	esi,edx
	call	00402E65
	or	al,[eax]
	sub	edi,esi
	and	al,60
	push	es

fn004022CB()
	push	00
	or	ecx,edx
	dec	bh
	dec	cl
	or	dl,ah
	dec	edi
	add	cl,A3
	mov	cl,ch
	mov	edx,ebx
	call	00402558
	and	ebx,[edx-6E]
	xor	esi,edi

fn004022E6()
	dec	bl

fn004022E7()
	retf	
004022E8                         80 C1 CD 80 C5 B6 FE CF         ........
004022F0 02 EB 8A D9 81 C2 14 00 00 00 0F 84 B7 0A 00 00 ................

l00402300:
	lea	di,[edi]
	jnz	00402DB7

l00402309:
	lea	ebp,[edi+8011B99C]
	rcr	edx,cl

fn00402311()
	mov	[esp],eax
	repne	
	xchg	ecx,ecx
	pop	eax
	inc	bl
	mov	bl,cl
	dec	eax
	add	al,EA
	xor	dl,al
	call	00402E7C
	mov	[edi+esi*2-2A],edx
	adc	[eax+77],ch
	jc	00402326

fn0040232F()
	neg	bl
	xor	ebx,esi
	dec	ebx
	not	bl
	xor	bh,cl
	mov	bh,55
	jmp	00402D7D
0040233F                                              E4                .
00402340 D0 59 53 C2                                     .YS.           

fn00402344()
	sub	esi,edx
	neg	dh
	inc	edx
	mov	edx,ebx

fn0040234B()
	xor	ecx,eax
	sub	dh,ah
	neg	dl
	inc	cl
	jmp	004023B1
00402355                3D 24 2B D6 0D 11 19 33 D0 FE C1      =$+....3...
00402360 32 F7 0B CE 02 C4 80 D2 FA 0F 88 47 07 00 00 66 2..........G...f
00402370 87 D2 0F 89 3E 07 00 00 5A F3 9D A6 C6 A0       ....>...Z..... 

l0040237E:
	neg	bh
	not	eax
	not	bh
	mov	ebx,ecx
	add	bh,D0
	inc	esi
	sbb	bh,B8
	call	004020FA
	push	ds
	and	eax,4692E620
	lock	
	ret	

l0040239A:
	sub	esi,edi
	xor	esi,ebx
	sub	esi,ebx

fn004023A0()
	mov	esi,ecx
	sub	esi,ecx
	dec	esi
	inc	esi
	mov	esi,edi
	jmp	00402119
004023AD                                        7D F2 16              }..
004023B0 65                                              e              

fn004023B1()
	sub	cl,dl
	xor	esi,edi
	mov	cl,al
	mov	ch,dl
	sbb	ch,1A
	or	cl,ah
	call	00402780
	jpe	004023C5

l004023C5:
	and	[ebx+2F],esp

fn004023C8()
	pop	dword ptr [esp-34]
	add	esi,edx
	xor	cl,dl
	sbb	cl,62
	inc	cl
	ror	dl,17
	mov	ch,cl
	xor	ch,al
	mov	ch,1E
	mov	ch,al
	jz	00402763

fn004023E6()
	xchg	dl,dl
	jnz	00402763

l004023EE:
	das	
	inc	edx
	mov	ch,CC
	loop	004023A0

l004023F5:
	test	byte ptr [edx+32EE32CE],C8

fn004023F6()
	mov	cl,dh
	xor	ch,dh
	xor	cl,al
	sbb	cl,93
	inc	ch
	mov	cl,bl
	jbe	004029F0

fn00402409()
	jnc	0040240B

l0040240B:
	xchg	si,si
	ja	004029F0

l00402414:
	mov	dl,18
	pop	es
	fsubr	double ptr [ebx]

fn00402418()
	sub	esi,edx

l00402419:
	repne	
	sub	esi,eax
	shr	eax,10
	xor	esi,ebx
	sub	esi,ebx
	sub	edi,eax
	or	edi,ecx
	add	eax,edx
	jmp	0040258E
0040242E                                           9C FC               ..
00402430 92 60                                           .`             

fn00402432()
	xchg	[esp],eax
	xchg	dh,dh
	jmp	0040243D
0040243C                                     6E                      n  

l0040243D:
	pop	eax
	inc	ch
	neg	ch
	dec	ebx
	call	eax
	sbb	dh,99
	add	dl,cl
	sub	edx,ebx
	call	00402EAD
	add	al,76
	stosb	
	dec	dword ptr [edi-02]

fn00402455()
	dec	edi
	inc	cl

fn00402457()
	ror	dword ptr [edx+5EDB80EA],80
	illegal	
	xchg	eax,esp
	or	esi,ecx
	jmp	00402A0E
00402467                      52 93 76 BB 4A 3E                 R.v.J>  

l0040246D:
	sub	ebx,edi
	mov	bl,9E
	neg	bl
	add	al,bl
	sbb	dl,5E
	adc	bl,38
	inc	bh
	or	dl,bl
	add	dh,43
	jmp	004024EE
00402484             3B B0 B0 65 01 D3 02                    ;..e...    

l0040248B:
	pop	ecx
	mov	bh,03
	add	dh,ch
	add	edi,eax
	sub	dh,ch
	dec	ebx
	xor	eax,edx
	add	ah,al
	neg	dl
	xor	dh,ch
	jbe	004026CC

l004024A3:
	mov	bx,bx
	repne	
	ja	004026CC
	sbb	[edx+6C],ecx
	loopne	004024BC

l004024B1:
	or	bl,al
	sub	ebx,edx
	mov	bh,dl
	or	bh,ah
	sbb	bh,50
	or	ebx,esi
	sub	bl,bh
	call	00402C4B
	mov	edx,FC210157
	shr	dword ptr [edi+80F833C9],01

fn004024CD()
	xor	edi,eax
	adc	bl,3C

fn004024D0()
	sar	[edx+ecx*4],cl
	sti	
	mov	bh,1F
	push	dword ptr [eax+10]
	inc	ebx
	sbb	bl,C7
	xor	edi,ebx
	add	bh,7F
	call	00402B3A

fn004024E7()
	cld	
	int	A2
	push	edx
	fimul	word ptr [esi]
	mov	esi,edi

fn004024EE()
	dec	dh
	or	bl,dl
	inc	edx
	dec	esi
	dec	eax
	mov	ah,E1
	js	00402217
	jmp	00402503
	test	dword ptr [edi],FFFD0E89
	jmp	dword ptr [800C45DD]
	xlat	
	daa	
	or	edx,eax
	mov	edi,esi
	inc	edx
	dec	ch
	mov	cl,5D
	adc	dl,39
	inc	edi
	mov	ah,al

fn0040251F()
	lea	esp,[esp+04]
	inc	ch
	add	ch,al
	add	ch,al
	dec	cl
	or	esi,edi
	add	cl,ch
	sbb	ch,35
	call	004020DA
	adc	byte ptr [eax-66],D8

fn0040253B()
	mov	bl,al
	xor	edi,eax
	mov	bh,dl
	add	ebx,ecx
	neg	bl
	or	edi,edx
	js	004024CD

fn00402549()
	mov	esi,esi
	rep	
	jns	004024CD
	push	C4BCF9FB
	xchg	eax,edi

fn00402558()
	lea	esp,[esp+04]
	adc	dh,4F
	dec	edx
	adc	ch,C6
	mov	ch,bl
	add	dh,AB
	dec	edi
	call	00402432
	sub	[236C711F],ch

fn00402574()
	lea	esp,[esp+04]
	or	ch,bl
	sbb	cl,63
	or	esi,edi
	add	ecx,edx
	adc	cl,98
	dec	esi
	jmp	004023F6
0040258A                               B9 A7 3E 9E                 ..>. 

fn0040258E()
	or	esi,ecx
	dec	edi
	dec	edi
	sub	edi,ecx
	inc	esi
	add	eax,ebx
	call	00402C11
	out	dx,al
	out	dx,ax
	cmp	[esi],al
	illegal	

fn004025A2()
	inc	eax

fn004025A3()
	xor	edi,eax
	dec	edx
	mov	ch,AF
	sbb	dh,4E
	add	esi,ebx
	dec	ch

l004025AF:
	not	cl
	mov	eax,ebx
	neg	cl
	inc	esi
	call	00402D2E
	jnz	004025A2

l004025BD:
	js	004025AF

l004025BF:
	les	edx,[edi]
	dec	edx
	lahf	

fn004025C3()
	lea	esp,[esp+04]
	add	bh,5E
	add	bl,85
	sub	bh,ah
	dec	bh
	sub	bh,cl
	jle	004029B8

l004025D9:
	repne	
	jg	004029B8
	mov	[8087EEF8],al
	aam	F3
	xor	cl,bh
	sub	edx,ecx
	inc	al
	dec	ch
	dec	eax
	mov	dh,49
	jbe	0040268F
	mov	eax,eax
	ja	0040268F
	mov	al,[32E57C41]
	retf	3341
	retf	DD80
	mov	[F303C1FE],eax
	add	ch,01
	inc	cl
	jz	00402D51

fn0040261A()
	add	[esi+2E850FE4],al
	pop	es
	add	[eax],al
	sbb	dword ptr [eax+4B],28
	mov	ah,89

fn00402628()
	mov	[esp],ebx

fn00402629()
	sbb	al,24
	mov	eax,eax
	xchg	edx,edx
	pop	ebx
	adc	dh,41
	or	ecx,edx
	sub	esi,ecx
	or	esi,edx
	dec	esi
	sub	cl,bh
	js	00402344

fn00402642()
	jmp	00402648
00402647                      70                                p       

l00402648:
	mov	cx,cx
	jns	00402344

l00402651:
	inc	ebx
	jcxz	0040261A

fn00402654()
	mov	esi,34D3807C

fn00402656()
	adc	bl,34

fn00402659()
	neg	bh
	neg	bl
	sub	bh,dh
	sub	bl,dl
	inc	bh
	jo	00402A71

l00402669:
	jg	0040266B

l0040266B:
	mov	ch,ch
	jno	00402A71

l00402673:
	das	
	push	ds
	out	9D,al

fn00402677()
	inc	ch
	or	edx,esi
	add	dl,C8
	dec	ecx
	pop	edi
	or	al,bh
	sub	edx,ebx
	inc	ah
	jmp	00402ED8
0040268B                                  09 37 39 1F 8B            .79..
00402690 D6 8A C4 53 FE CE 2A EA 4E 03 C6 E9 55 04 00 00 ...S..*.N...U...
004026A0 43 7A 5D 4E 9B 31 55 0A                         Cz]N.1U.       

fn004026A8()
	inc	cl
	or	esi,eax
	add	ah,dl
	or	bl,ch
	adc	bl,7E
	neg	dl
	inc	dh
	add	bh,dl
	or	edi,ecx
	sbb	al,C4
	xor	ebx,ecx
	jmp	00402A2D
004026C5                E0 A7 C3 02 3B A5 28                  ....;.(   

l004026CC:
	adc	bl,4C
	xor	al,dh
	adc	bh,84
	xor	dh,cl
	dec	dh

fn004026D8()
	dec	ecx
	add	ebx,esi
	mov	ah,69
	mov	edx,esi
	jc	00402F2E

l004026E5:
	jpe	004026E7

l004026E7:
	jnc	00402F2E

l004026ED:
	lahf	
	adc	al,51
	or	ebp,esp
	popf	

fn004026F3()
	not	cl
	not	ch
	sbb	cl,01
	add	cl,al
	xor	ecx,edx
	inc	esi
	xor	cl,bl
	mov	ch,bl
	adc	cl,0D
	or	esi,ecx
	call	0040251F
	and	al,A8
	cmp	esp,esi

fn00402711()
	or	dh,bh
	inc	edx
	dec	esi
	adc	bh,77
	adc	bh,D6
	mov	bh,dh
	adc	dl,15
	movzx	edx,al
	dec	edi
	xor	bh,dh
	jpe	00402E9A

l0040272C:
	rep	
	jpo	00402E9A
	cmp	al,E2
	adc	[esi+D5F607DE],ecx

fn00402739()
	not	ch
	add	ecx,ebx
	inc	ecx
	mov	ch,D8
	or	esi,ebx
	mov	ecx,ebx
	neg	ch
	add	cl,75
	sbb	ch,A3
	dec	ch
	jle	00402C6B

l00402754:
	lea	dx,[edx]
	jg	00402C6B

l0040275D:
	add	byte ptr [edx+27],69
	pop	ecx
	rep	

fn00402763()
	add	cl,ah
	adc	ch,8E
	inc	esi
	mov	ch,72
	or	cl,al
	sub	ecx,edi
	inc	esi
	inc	ch
	mov	ch,9B
	call	00402574
	push	es
	repne	
	fdivr	st(0),st(2)
	and	edx,[eax]

fn00402780()
	mov	[esp],ecx
	mov	eax,eax
	repne	
	pop	ecx
	mov	dl,[edi]
	or	cl,ah
	mov	ch,F0
	or	cl,dh
	jle	00402604
	lea	di,[edi]
	jg	00402604
	mov	dl,89
	jbe	0040272C
	insb	

fn004027A3()
	lea	esp,[esp+04]
	not	ch
	mov	cl,7F
	mov	ch,bl
	dec	ch
	mov	cl,92
	xor	ch,bh
	dec	ch
	xor	cl,al
	dec	esi
	call	004023C8
	adc	[edx+2CDB86A0],ah

fn004027C3()
	lea	esp,[esp+04]
	neg	ch
	sub	ecx,edx
	inc	esi
	add	cl,bh
	or	ecx,eax
	dec	ecx
	neg	ch
	xor	ecx,esi
	call	00402CD2
	mov	bh,al
	loope	00402828

l004027DE:
	inc	edi

fn004027DF()
	add	eax,ebx
	dec	dh
	neg	dl
	sub	cl,dh
	xor	dl,dh
	or	dl,bh
	add	edx,edi
	dec	edx
	add	eax,ecx
	call	00402B5F
	mov	[ecx],dl
	and	[ecx+24648D26],bl

fn004027FA()
	lea	esp,[esp+04]
	add	cl,AE
	add	ecx,esi
	dec	ecx
	add	cl,bl
	adc	ch,D8
	add	ecx,ebx
	jmp	00402899
00402810 D7 84 43 AF 28 5E F4 7B                         ..C.(^.{       

fn00402818()
	mov	dl,ch
	dec	bl
	or	dl,cl
	mov	edi,edx
	mov	dl,B5
	sbb	al,73
	xor	cl,dl
	sub	eax,ebx

fn00402828()
	ret	
00402829                            4E 0F 88 87 00 00 00          N......
00402830 F3 0F 89 80 00 00 00 61 E8 8F FD 80 C6 AB FE CA .......a........
00402840 FE CE 0B D3 02 D3 32 E8 0F 8C 37 F8 FF FF 66 87 ......2...7...f.
00402850 F6 F2 0F 8D 2D F8 FF FF E2 AD 63 7C A9          ....-.....c|.  

fn0040285D()
	lea	esp,[esp+04]
	dec	edi
	inc	bh
	add	ebx,edi
	adc	bh,99
	xor	bl,al
	adc	bl,AD
	call	00402D9C
	out	D8,al
	illegal	

fn00402877()
	not	ch
	mov	[esp-08],eax
	xor	dh,dl
	inc	ecx
	mov	ecx,eax
	add	cl,11
	jc	0040227C
	push	edi
	pop	edi
	jnc	0040227C
	in	al,dx
	mov	cl,6D
	test	edi,03CA2A2F

fn00402899()
	sub	cl,dl
	add	esi,eax
	sbb	cl,EA
	inc	cl
	sub	esi,edi
	not	ch
	or	ecx,eax
	inc	ch
	or	ch,al
	call	00402068
	and	[eax-5C],esp
	lodsd	
	sar	esi,C0
	push	00003000
	adc	dh,8B
	add	dh,88
	xor	cl,bl
	or	ebx,edi
	neg	bh
	sub	edi,edx
	dec	ch
	add	al,6B
	jz	004025A3

l004028D7:
	push	di
	pop	di
	repne	
	jnz	004025A3
	push	07
	cmp	[edx+1C],dl
	xchg	eax,esi

fn004028E8()
	add	ch,37
	sub	cl,bh

fn004028EC()
	iret	
004028ED                                        32 E8 80              2..
004028F0 C5 24 32 CB 8A EC F6 D5 43 0F 82 F4 FD FF FF    .$2.....C......

l004028FF:
	repne	
	jnc	004026F3
	mov	ch,AC
	pop	ds
	push	F5

fn0040290B()
	add	bh,ch
	or	bh,dl
	neg	bl
	xor	bh,dl
	add	esi,ecx
	inc	bh
	add	bl,7F
	mov	bl,ch
	jo	00402C8D

l00402922:
	xchg	al,al
	jno	00402C8D

l0040292A:
	retf	
0040292B                                  56 2C A5                  V,. 

fn0040292E()
	sub	bl,dh
	lea	eax,[eax+78]
	dec	edi
	add	bl,2A
	inc	bl
	or	bh,dl
	mov	ebx,edi
	add	bl,49
	jz	00402B18

l00402946:
	mov	dx,dx
	jmp	0040294E

l0040294E:
	jnz	00402B18

l00402954:
	aaa	
	dec	ecx
	pop	es
	mov	esp,740DAFA3

fn0040295B()
	jz	004028EC

fn0040295C()
	pop	dword ptr [esp-10]

l0040295D:
	inc	esp
	and	al,F0

fn00402960()
	mov	bl,0D
	sbb	bh,1B
	movzx	ebx,ah
	sub	edi,ecx
	add	esi,edi
	jmp	00402418
00402971    C5 1C CA EF                                   ....          

l00402975:
	sbb	ch,BB
	not	ch
	sub	esi,ebx
	not	cl
	inc	esi
	add	dl,86
	inc	ch
	add	esi,ebx
	mov	ch,dh
	add	cl,ch
	jmp	0040213B
0040298F                                              E2                .
00402990 74 30 5F F3 96 71 A3                            t0_..q.        

l00402997:
	sbb	bh,8B
	add	esi,eax
	mov	bl,cl
	not	bh
	add	bh,FB
	inc	bl
	inc	bl
	mov	bh,ch
	xor	ebx,edx
	or	bl,cl
	jmp	00402B81
004029B2       E5 1F FB 57 34 E8                           ...W4.       

fn004029B8()
	mov	bh,al
	not	bl
	sub	bh,dl
	mov	esi,ebx
	inc	bl
	or	bh,cl
	call	00402CF4
	loopne	0040295B

l004029CB:
	mov	esi,B51E710B

fn004029D0()
	sub	esi,edx
	mov	edi,esi
	or	ebx,esi
	adc	bh,36
	mov	bh,al
	or	bh,al
	jbe	0040217D

l004029E3:
	mov	dl,dl
	ja	0040217D

l004029EB:
	add	ebp,ecx
	sbb	eax,D9F6ED15

fn004029F0()
	neg	cl

fn004029F2()
	mov	ecx,esi
	or	ecx,eax
	inc	ch
	adc	ch,F3
	add	ch,40
	or	cl,ah
	not	cl
	mov	[ebx],dl
	call	004027C3

fn00402A09()
	mov	esi,7A5AB185

fn00402A0E()
	or	esi,edx
	neg	bh
	sub	dh,ch
	inc	dl
	mov	bl,05
	xor	edx,edi
	mov	ecx,edi
	or	dl,cl
	dec	dh
	dec	cl
	jmp	004022CB
00402A27                      2F B0 F1 82 A0 62                 /....b  

l00402A2D:
	add	ah,bl
	not	dl
	inc	cl
	add	ah,dh
	or	eax,esi
	sub	dh,cl
	push	40
	inc	cl
	jl	00402E14

l00402A43:
	xchg	edx,edx
	jmp	00402A4A

l00402A4A:
	jge	00402E14

l00402A50:
	mov	esp,8F896BB5

fn00402A56()
	pop	dword ptr [esp-2C]
	neg	dh
	xor	ch,ah
	mov	ch,ah
	inc	esi
	not	dh
	dec	dl
	call	00402A97

fn00402A6A()
	mov	dl,D1
	add	[ebp+50],ch
	std	
	inc	esp

fn00402A71()
	or	bl,cl
	or	esi,edx
	mov	edi,esi
	or	bh,al
	dec	ebx
	sub	bh,cl
	xor	bh,ch
	sbb	bh,5C
	mov	bl,dl
	jbe	0040292E

l00402A89:
	repne	
	ja	0040292E
	rep	
	lahf	
	movsb	
	cmp	esi,edi
	inc	ebp
	enter	0C87,24

fn00402A97()
	xchg	[esp],ecx
	jle	00402A9C

l00402A9C:
	pop	ecx
	add	ecx,esi
	mov	cl,bh
	inc	ecx
	xor	al,bl
	jo	00402E3C

l00402AAA:
	jpo	00402AAC

l00402AAC:
	jno	00402E3C

l00402AB2:
	mov	edi,03CDFDBC
	ror	dword ptr [edx+8ADEF6EC],E3
	sub	esi,ecx
	sbb	cl,66
	neg	cl
	mov	ecx,edi
	neg	ch
	not	ah
	jmp	0040223D
00402AD0 F2 E4 71 26 DA 6E                               ..q&.n         

l00402AD6:
	mov	ecx,edx
	or	ch,cl
	mov	esi,edi
	add	cl,45
	dec	ch
	not	ch
	dec	ch
	add	cl,8D
	mov	ch,bh
	jmp	004028E8
00402AEF                                              99                .
00402AF0 7E 52 D0 0D B8 0A CD 32 C1 F6 DC F6 D5 41 FE CC ~R.....2.....A..
00402B00 0B F3 41 0F 8E 96 F6 FF FF F3 F2 0F 8F 8E F6 FF ..A.............
00402B10 FF 94 59 4C 78 59 98 94                         ..YLxY..       

l00402B18:
	or	bh,ch
	add	bl,ah
	mov	bh,81
	add	bl,cl
	xor	bl,ah
	sub	edi,ecx
	adc	bh,59
	add	eax,08
	sub	bh,ah
	sub	esi,eax
	jmp	004024B1
00402B33          BB                                        .           

l00402B34:
	pop	edx
	ja	00402B24
	jc	00402ABC
	fimul	word ptr [ecx+ED8A243C]

fn00402B3A()
	mov	[esp],edi
	mov	ch,ch
	pop	edi
	add	bh,E2
	neg	bl
	neg	bh
	mov	bl,A9
	jo	004022B4

l00402B4F:
	mov	cl,cl
	jno	004022B4

fn00402B53()
	pop	ebp
	idiv	edi
	illegal	

fn00402B57()
	cmp	al,ah
	cli	
	sub	ebp,8DEC3792

fn00402B5F()
	lea	esp,[esp+04]

fn00402B60()
	and	al,04
	sub	eax,edi

l00402B64:
	mov	dword ptr [ebx],81E602D7

fn00402B65()
	or	edx,edi
	add	ah,dh
	add	ebx,000002A1
	add	eax,edx
	sbb	ah,93
	dec	esi
	jl	00402BA5

fn00402B77()
	jnz	00402B79

l00402B79:
	jge	00402BA5

l00402B7B:
	leave	
	dec	ebx
	ja	00402B64

l00402B7F:
	jbe	00402B34

fn00402B81()
	mov	bh,6A
	xor	edi,ebx
	neg	bh
	or	bl,dh
	dec	bl
	sub	ebx,esi
	jpe	0040237E

l00402B93:
	xchg	dh,dh
	push	bx
	pop	bx
	jpo	0040237E

l00402B9F:
	test	[ecx+ebp*8],esi
	jz	00402B53

l00402BA4:
	test	[ebx],eax

fn00402BA5()
	add	edx,eax

l00402BA6:
	shl	byte ptr [esi+DE804A9D],01

l00402BA7:
	mov	dh,9D

fn00402BA9()
	dec	edx
	sbb	dh,55

l00402BAC:
	push	ebp

fn00402BAD()
	sub	edx,ecx
	xor	ch,dl
	jmp	004025E4
	out	BB,al
	loope	00402B48
	mov	ds,[edi+esi*8]

fn00402BBD()
	dec	al
	xor	ch,bh
	xor	ah,al
	xor	ch,ah
	or	ch,bh
	inc	edx
	or	ecx,esi
	not	cl
	jmp	004027DF
00402BD1    1E EB 7C 0F 7A E8 6E 68                       ..|.z.nh      

l00402BD9:
	jnz	0040234B

l00402BDF:
	sub	cl,al
	mov	ecx,ebx
	or	ecx,ebx
	sbb	ch,5B
	inc	eax
	neg	bh
	add	esi,ebx
	call	00402A56
	js	00402BA9

l00402BF4:
	rol	[eax-28],cl

fn00402BF7()
	mov	dl,C6
	add	dh,dl
	inc	dl
	mov	dh,ch
	not	cl
	xor	eax,AE909A43
	call	00402628
	adc	[ecx+5C],ebp
	call	2484BB95

fn00402C11()
	pop	dword ptr [esp-18]
	mov	bh,3F
	add	bh,1E
	sub	edi,ecx
	xor	bh,ah
	adc	bh,2B
	call	0040285D
	add	eax,87EFF068

fn00402C2A()
	xchg	[esp],esi

fn00402C2B()
	xor	al,24
	lea	cx,[ecx]
	jmp	00402C35

fn00402C35()
	pop	esi
	sbb	bl,AA
	add	bh,02
	or	bh,dh
	jmp	0040232F
00402C43          C0 27 1A 28 8E 47 97 02                   .'.(.G..    

fn00402C4B()
	pop	dword ptr [esp-10]
	add	bl,0D
	xor	edi,ebx
	add	bh,5E
	mov	esi,ebx
	mov	eax,[eax]
	neg	bh
	mov	bh,ah
	jmp	00402D17
00402C64             7B 82 48 7C A0 38 BE                    {.H|.8.    

fn00402C6B()
	dec	esi
	xor	cl,al
	add	ecx,ebx
	add	ecx,esi
	mov	ch,60
	dec	ecx
	dec	cl
	mov	ecx,eax
	jc	0040239A

l00402C7F:
	xchg	cl,cl
	lea	edi,[edi]
	jnc	0040239A

l00402C89:
	illegal	
	dec	esp
	mov	al,80

fn00402C8D()
	add	bl,C5
	or	bh,al
	sub	ebx,ecx
	mov	eax,ecx
	sub	ebx,esi
	mov	edi,eax
	jl	00402CA9

l00402C9C:
	mov	dl,dl
	lea	bx,[ebx]
	jge	00402CA9

l00402CA3:
	mov	[ebp+edi+4F113643],cs

l00402CA9:
	dec	edi

l00402CAA:
	mov	bl,bh
	inc	ebx
	xor	bh,ch
	inc	bl
	mov	bl,C2
	or	bl,dh
	xor	edi,esi
	sub	bh,ch
	add	eax,[eax+3C]
	jc	004029D0

l00402CC2:
	mov	ah,ah
	jnc	004029D0

l00402CCA:
	das	
	out	D5,al
	sub	edx,ebx
	jno	00402D07

l00402CD1:
	or	[ebp+8A042464],cl

fn00402CD2()
	lea	esp,[esp+04]
	mov	ch,al

fn00402CD7()
	call	DA36D591
	mov	cl,A4
	inc	edi
	jo	00402AD6

l00402CE5:
	mov	bx,bx
	repne	
	jno	00402AD6
	stosd	
	imul	edx,[edx],448F85B6

fn00402CF4()
	pop	dword ptr [esp-34]
	mov	bh,bl
	adc	bl,A6
	not	bl
	sub	bh,bl
	sub	esi,eax
	xor	bl,ch
	push	dword ptr [edx+08]

fn00402D07()
	or	[edx],dh
	stc	
	add	esi,eax
	jmp	00402656
00402D11    BD 49 F6 07 6B 65                             .I..ke        

l00402D17:
	or	bh,bl
	not	bl
	inc	esi
	mov	bl,ch
	mov	bl,al
	inc	bl
	mov	bh,dh
	jmp	00401FFD
00402D29                            B6 84 D5 9C B6                ..... 

fn00402D2E()
	lea	esp,[esp+04]
	call	00402D37

fn00402D37()
	adc	ch,40
	dec	ch
	sbb	ah,AD
	xor	bl,ch
	sub	eax,edx
	mov	ebx,ecx
	add	ebx,edx
	dec	edi
	call	0040225A
	adc	esp,esi
	les	esp,[edx+804EDDF6]
	lds	edi,[edi]
	not	dl
	xor	ch,bl
	inc	cl
	xor	cl,ch
	inc	esi
	or	ch,cl
	adc	ch,DF
	jbe	00402975

l00402D6B:
	xchg	bh,bh
	lea	bx,[ebx]
	ja	00402975

l00402D76:
	retf	8DF8
00402D79                            51 3F 28 D7                   Q?(.  

fn00402D7D()
	xor	bh,cl
	adc	bl,05
	adc	bh,7E
	add	edx,ecx
	inc	ch
	mov	ch,C7
	add	ch,bh
	dec	bh
	xor	bl,dl
	call	004021CB
	insd	
	sub	esp,[eax+4A]
	leave	
	xchg	eax,edx

fn00402D9C()
	lea	esp,[esp+04]
	adc	bh,F7
	mov	bl,bh
	sub	esi,ebx
	sbb	bl,DA
	not	bl
	xor	bh,cl
	call	00402DF7
	jc	00402E1E

l00402DB5:
	xchg	[esi-4D],ebx

fn00402DB7()
	mov	bl,DA

fn00402DB8()
	fiadd	dword ptr [eax+D1800EC3]
	ret	D9F6
00402DC1    8B F8 0B F8 32 CE E9 D3 F2 FF FF              ....2......   
00402DCC                                     0F 57 48 BD             .WH.
00402DD0 E4 23 72 5A                                     .#rZ           

l00402DD4:
	jnz	004026D8

l00402DDA:
	add	bh,cl
	xor	bl,bh
	inc	esi
	inc	edi
	add	ebx,edi
	jo	0040290B

l00402DE8:
	jno	00402DEA

l00402DEA:
	jno	0040290B

l00402DF0:
	pop	ss
	jmp	31DC3342
00402DF6                   2A                                  *        

fn00402DF7()
	pop	dword ptr [esp-34]
	inc	bh
	xor	edi,edx
	xor	eax,FFFFFEC8
	xor	esi,eax
	or	bl,dh
	dec	bh
	jmp	00402997
00402E0F                                              D3                .
00402E10 9F 6F 01 5C                                     .o.\           

l00402E14:
	xor	eax,esi
	mov	al,26
	or	esi,edx
	xor	ebx,esi
	adc	ch,6F

fn00402E1E()
	outsd	
	inc	ch
	or	edi,ecx
	add	bh,AF
	jle	00402818

fn00402E2C()
	repne	
	jo	00402E2F
	jg	00402818
	xor	dword ptr [eax+43E228FA],99

fn00402E3B()
	cdq	

fn00402E3C()
	or	ebx,ecx
	or	esi,ecx
	or	edi,eax
	inc	ebx
	mov	dh,27
	ret	
00402E46                   0B C7 03 F7 2A F1 0F 8C BB F6       ....*.....
00402E50 FF FF E9 00 00 00 00 F2 0F 8D AF F6 FF FF 1A D2 ................
00402E60 10 05 F8 A4 55                                  ....U          

fn00402E65()
	xchg	[esp],eax
	xchg	ch,ch
	pop	eax
	or	edi,ebx
	or	ebx,eax
	mov	bh,97
	inc	edi
	call	00402C2A
	xor	al,62
	mov	bl,54
	push	8F
	inc	esp
	and	al,E4
	pop	eax
	mov	edi,ecx
	add	esi,edx
	add	bl,C6
	xor	bl,ah
	add	ebx,esi
	mov	edi,ebx
	adc	bh,AF
	jmp	00402711
00402E96                   BF 67 2B 7A                         .g+z     

l00402E9A:
	neg	bh
	inc	ebx
	or	ebx,eax
	add	ebx,ecx
	sub	ebx,esi
	inc	esi
	call	0040295C
	push	ebx
	cmp	al,FF
	jz	00402E3B

fn00402EAD()
	lea	esp,[esp+04]

fn00402EAE()
	and	al,04
	xor	ebx,ecx
	inc	cl
	inc	edx
	add	cl,CF
	adc	ch,2A
	adc	ch,EE
	add	dh,cl
	sbb	dl,0C
	jl	0040229D

fn00402ECA()
	mov	bl,bl
	jge	0040229D

l00402ED2:
	imul	esi,[ebx+095FBBBB],4E

fn00402ED8()
	dec	esi

fn00402ED9()
	inc	al
	or	dl,ah
	inc	al
	inc	ch
	xor	ah,ch
	sbb	ch,2B
	or	ecx,eax
	jmp	00402BBD
00402EED                                        0D 8F C2              ...
00402EF0 2E AA                                           ..             

l00402EF2:
	sbb	ch,D4
	add	ch,0F
	add	ecx,edi
	xor	ch,al
	inc	ch
	dec	cl
	sbb	ch,0F
	sub	dl,F5
	add	esi,ecx
	inc	ecx
	call	004027A3
	retf	3BD7
00402F11    F8 9A 9A 24                                   ...$          

fn00402F15()
	or	ecx,edx
	inc	dh
	mov	dl,al
	dec	ch
	or	edx,edi
	sub	eax,esi
	jmp	00402677
00402F26                   A4 6B 62 C6 0E 3B D7 3E             .kb..;.> 

l00402F2E:
	neg	dh
	or	dh,al
	sub	bl,dh
	xor	bh,al
	inc	dl
	sub	edx,edi
	sbb	bh,16
	jmp	004020BD
00402F42       BF FF 83 8A 17 DD AD 3F 00 00 00 00 00 00   .......?......
00402F50 00 00 00 00 00 00 00 00 00 00 00 00 00 00 00 00 ................
00402F60 00 00 00 00 00 00 00 00 00 00 00 00 00 00 00 00 ................
00402F70 00 00 00 00 00 00 00 00 00 00 00 00 00 00 00 00 ................
00402F80 00 00 00 00 00 00 00 00 00 00 00 00 00 00 00 00 ................
00402F90 00 00 00 00 00 00 00 00 00 00 00 00 00 00 00 00 ................
00402FA0 00 00 00 00 00 00 00 00 00 00 00 00 00 00 00 00 ................
00402FB0 00 00 00 00 00 00 00 00 00 00 00 00 00 00 00 00 ................
00402FC0 00 00 00 00 00 00 00 00 00 00 00 00 00 00 00 00 ................
00402FD0 00 00 00 00 00 00 00 00 00 00 00 00 00 00 00 00 ................
00402FE0 00 00 00 00 00 00 00 00 00 00 00 00 00 00 00 00 ................
00402FF0 00 00 00 00 00 00 00 00 00 00 00 00 00 00 00 00 ................
00403000 5C 29 0A 4F A0 0A BC DB 00 46 9E E2 CA 03 BB FF \).O.....F......
00403010 A1 9B 7E BF 20 90 D7 00 DC C9 9B 0C 00 00 D0 3E ..~. ..........>
00403020 62 AA FF 57 F5 44 25 FF 00 00 A1 00 4E 00 11 70 b..W.D%.....N..p
00403030 06 A5 00 48 00 F3 86 A2 FE 15 E5 59 5C 00 00 CF ...H.......Y\...
00403040 24 B1 75 1B 40 47 5A C1 F5 50 8D 7D F5 C6 52 F6 $.u.@GZ..P.}..R.
00403050 A8 00 50 00 6C 33 AF AA 42 4C B4 00 11 A0 4D 00 ..P.l3..BL....M.
00403060 A6 3D E4 E9 0A 80 47 92 10 00 E3 ED 50 DD F4 14 .=....G.....P...
00403070 00 0F DF 71 5B 18 DC 37 12 00 09 67 E5 42 19 1D ...q[..7...g.B..
00403080 68 5B 0C B6 11 4B 8F 99 00 FF 92 18 C1 66 00 8A h[...K.......f..
00403090 40 8B 39 AB EF 2E 7B 0E EF D9 72 9D 19 CE F5 C5 @.9...{...r.....
004030A0 ED EE 06 AB 79 94 12 00 CB 27 E8 35 61 E5 AB A0 ....y....'.5a...
004030B0 6F 71 8B 8A 57 8A FF EE 3B 15 82 21 E9 C6 01 E6 oq..W...;..!....
004030C0 34 00 09 B4 BD 84 FA A5 CB 00 00 74 22 EF C7 06 4..........t"...
004030D0 B0 F1 10 FF 72 E5 00 CD 3B A0 71 46 C7 C3 46 52 ....r...;.qF..FR
004030E0 4B 66 00 E5 FF 77 05 00 60 C3 FF F4 65 AB DF F7 Kf...w..`...e...
004030F0 00 85 00 FF 94 80 1D 00 30 86 00 E7 B7 75 1F 71 ........0....u.q
00403100 00 B2 C5 00 00 B8 70 29 5B 72 63 E2 00 76 B5 D6 ......p)[rc..v..
00403110 00 8D FF DF 9F BD 08 FF 67 38 00 50 83 00 77 00 ........g8.P..w.
00403120 0B 06 9C 00 00 3D 8C D8 18 32 7C 52 13 72 A0 DB .....=...2|R.r..
00403130 25 93 06 CD F5 7C FA 99 00 FF C8 20 50 F5 12 2B %....|..... P..+
00403140 83 3E 20 F7 E3 9B EA 78 21 34 9B 03 FF 3D 00 E7 .> ....x!4...=..
00403150 D9 C9 A2 66 33 02 3F AF 00 12 66 5D 00 BA 33 6F ...f3.?...f]..3o
00403160 D6 B7 89 10 00 02 00 9C A1 00 40 07 83 80 60 65 ..........@...`e
00403170 98 A1 6A E1 E0 63 00 2A E4 0A 38 C5 8E 00 7E 6F ..j..c.*..8...~o
00403180 2C 31 AE 37 14 E9 C2 FF DB 21 22 F1 FB 34 E1 B0 ,1.7.....!"..4..
00403190 99 ED 00 8E 43 09 45 7A 00 30 3D B7 2D 84 06 98 ....C.Ez.0=.-...
004031A0 00 AA 8B C6 1C 67 04 D2 2C E0 A4 53 32 77 4A 1D .....g..,..S2wJ.
004031B0 40 7C A8 00 A5 45 80 D5 FE 8F FC AE 71 6C 52 3F @|...E......qlR?
004031C0 69 AC FF 00 89 D2 64 E1 57 1D 81 21 FF 15 03 8B i.....d.W..!....
004031D0 EE 03 59 5E C3 E6 39 7A E1 4E 30 95 18 0C C2 00 ..Y^..9z.N0.....
004031E0 8D F3 C7 82 1D 39 00 FE BA F7 A2 9F A7 00 FA 51 .....9.........Q
004031F0 10 F0 FB E7 76 B3 00 81 70 FF 99 11 24 00 D1 00 ....v...p...$...
00403200 3A 96 50 35 56 9B 2E 00 00 00 00 00 A7 48 2A 45 :.P5V........H*E
00403210 00 00 00 0A 5B 96 A3 B0 B2 00 62 69 F9 97 0B 1B ....[.....bi....
00403220 00 BF 1A FE 8B 00 1B 3F 00 44 FF C0 7B DA AE 80 .......?.D..{...
00403230 FF F1 46 B1 28 4C 00 00 06 27 41 9D 00 57 45 9C ..F.(L...'A..WE.
00403240 B7 5B F8 AB 29 90 FF B1 13 A1 81 CD DD 35 F2 11 .[..)........5..
00403250 91 D1 22 87 17 70 01 00 1A 00 13 FF 8B 8C 93 94 .."..p..........
00403260 7E 76 B6 B2 43 FE 67 E5 B2 FF 7B A0 16 D1 C7 C3 ~v..C.g...{.....
00403270 30 24 FF 43 F9 55 FF 89 2D 87 B6 8A FF 0E D1 74 0$.C.U..-......t
00403280 0B C1 9D 44 60 00 90 8C 00 00 C6 CB 00 A9 54 00 ...D`.........T.
00403290 D9 00 0C 1C 97 19 24 20 7C 71 F7 00 92 7F 41 31 ......$ |q....A1
004032A0 99 96 DA AB FB C1 14 0F 6F 23 D0 61 FF 2A 00 32 ........o#.a.*.2
004032B0 E3 98 0C 00 BD 57 FF DC EC 90 FF 7C CC 78 E3 02 .....W.....|.x..
004032C0 FF C8 21 00 00 BF 00 00 AE 00 CD BB 61 3A 01 AD ..!.........a:..
004032D0 6B BF EE 00 27 4B 00 0F A8 F9 C0 7F 88 08 8C FF k...'K..........
004032E0 40 00 31 FF 80 43 FF D2 00 07 CF E2 C2 40 D5 6B @.1..C.......@.k
004032F0 73 FF 7F 02 C2 00 00 6C C0 65 E6 5A 00 F3 A0 00 s......l.e.Z....
00403300 40 7B 36 00 28 E6 17 75 86 00 F5 2F AE 8B 0D 61 @{6.(..u.../...a
00403310 26 8D 9F 00 C7 88 74 14 74 83 6A 6D 31 73 A4 12 &.....t.t.jm1s..
00403320 EF 40 58 95 10 60 00 61 7C 66 C5 14 B3 83 12 96 .@X..`.a|f......
00403330 B7 74 EE 00 81 23 FB B1 FB 1C 8D FB C9 D3 CC 1A .t...#..........
00403340 3A A8 59 EE D0 88 FC 43 83 9B 91 D5 63 53 00 79 :.Y....C....cS.y
00403350 C9 F6 00 00 41 9C 67 E9 1F 00 71 86 DF 33 CE 0B ....A.g...q..3..
00403360 23 0F 07 C3 F3 03 8F 5A 7E 27 1E 00 C7 1C 1F 00 #......Z~'......
00403370 21 8E 00 29 CC 61 45 00 00 00 C6 00 5C 58 9D 5C !..).aE.....\X.\
00403380 23 5E 6F 5E 3D 04 17 00 7E 1E 4E E6 54 00 B7 24 #^o^=...~.N.T..$
00403390 C5 A9 87 01 28 71 FC FC FF 4B FF 8D 2E 42 00 CC ....(q...K...B..
004033A0 39 2C 2D 3C FF 00 DA 90 74 37 F9 CA 33 00 00 00 9,-<....t7..3...
004033B0 0C 6F 16 58 00 94 91 FF 68 36 B1 24 51 46 E1 FF .o.X....h6.$QF..
004033C0 4C C9 3D FF 50 06 05 47 D0 45 01 61 94 76 8A 71 L.=.P..G.E.a.v.q
004033D0 55 34 8D 98 0C 00 84 03 76 8D A0 25 00 77 4F FB U4......v..%.wO.
004033E0 69 18 88 00 00 C1 00 91 28 15 33 E2 DA 00 41 91 i.......(.3...A.
004033F0 62 01 E2 87 23 B7 28 06 1A 1A D5 49 E6 2E 03 2D b...#.(....I...-
00403400 07 CA C6 80 87 7F 80 0B 6F 00 AD 00 5B 60 31 00 ........o...[`1.
00403410 9B 7D 29 F6 D3 0D A7 FF 1B 24 61 C4 10 6C 6E 77 .})......$a..lnw
00403420 73 FB 05 57 FF 09 6F F0 00 82 FF FC DB 59 82 FC s..W..o......Y..
00403430 A8 00 3C 3B DF 00 41 70 8C C2 47 A1 74 7C FF 2C ..<;..Ap..G.t|.,
00403440 0C F7 B2 8D 12 46 4C F8 94 E1 00 B3 15 00 50 C0 .....FL.......P.
00403450 8F BF 25 74 48 91 FF FD 67 73 80 45 C7 BF FD 7E ..%tH...gs.E...~
00403460 00 9F 4B 75 30 00 C7 FC DC BE B7 70 E6 FD 00 E3 ..Ku0......p....
00403470 A7 17 68 D7 FC CB 8B 31 4C 0F C8 91 4E 27 D1 2C ..h....1L...N'.,
00403480 5B 17 9B 40 00 F4 1B 4B 09 4C 23 63 07 01 5C DA [..@...K.L#c..\.
00403490 22 03 70 37 95 92 3E CC 56 36 17 00 20 08 43 35 ".p7..>.V6.. .C5
004034A0 D7 9F D6 5A 7E 78 58 FC 00 15 B1 6C 5B 5A 0A 00 ...Z~xX....l[Z..
004034B0 30 6A 51 C6 EB 64 DD 0E A5 1E F9 00 FD 41 8C 2B 0jQ..d.......A.+
004034C0 B9 BD 70 A5 06 79 86 00 F6 F5 93 CF 4C C8 00 1D ..p..y......L...
004034D0 04 69 97 CD D6 A8 8D E2 00 91 C0 00 A3 61 62 38 .i...........ab8
004034E0 00 C8 BD E6 00 4A 6A 00 B0 00 7E FC 90 C4 3E 11 .....Jj...~...>.
004034F0 D3 9B C8 D3 6A 70 58 96 1C 2B EB 12 41 74 22 23 ....jpX..+..At"#
00403500 39 0E 93 F3 00 F2 AB D2 99 2E 62 F1 3F 09 6A 4D 9.........b.?.jM
00403510 74 13 0D 6E 0F FF 51 04 00 42 9B A8 1E 09 0E E0 t..n..Q..B......
00403520 00 02 AE 6A 38 DE B7 88 E9 EF 86 9E B4 D9 00 97 ...j8...........
00403530 8F 00 C5 09 6F D5 EC 1A E8 73 20 32 ED 56 85 37 ....o....s 2.V.7
00403540 F3 E5 F5 FD 1C D1 9D 2B FF B8 56 0F 00 11 5C CA .......+..V...\.
00403550 31 13 37 5A 22 70 1E C0 53 D3 07 92 C6 0D 68 78 1.7Z"p..S.....hx
00403560 DC 17 2D 7E C2 61 0E 39 D1 DA 64 21 96 4F 00 04 ..-~.a.9..d!.O..
00403570 00 10 F6 00 6C D1 85 A7 82 68 88 DC FF 0B 75 00 ....l....h....u.
00403580 59 00 AE FF 00 E1 90 05 70 AC D3 24 80 3A 5D 00 Y.......p..$.:].
00403590 00 A3 88 45 F7 90 7E 08 A6 0D CD 8D 08 00 FE 00 ...E..~.........
004035A0 20 E7 00 FF 00 F3 00 74 5C 00 09 9B 00 39 91 67  ......t\....9.g
004035B0 AA 0C 17 E5 2F 6F 05 D8 D5 E5 1E FF E4 A2 05 2A ..../o.........*
004035C0 CE 39 77 FF D3 84 FF 00 7B FF 21 16 67 00 8E 72 .9w.....{.!.g..r
004035D0 58 70 3D BE 00 0C 03 E0 56 00 F7 25 4C 0E FF 4E Xp=.....V..%L..N
004035E0 0F 68 EC BD D9 00 04 46 EF 51 8F 6A 4B 7A 32 00 .h.....F.Q.jKz2.
004035F0 02 00 68 04 1B 34 D0 EF 67 3E CE 97 20 B8 88 C3 ..h..4..g>.. ...
00403600 F0 42 00 F9 2F 6D 28 A3 CB FF 38 00 CA BC 00 CD .B../m(...8.....
00403610 00 BD 09 0F C3 68 70 6F 38 E2 AC E9 7F 31 D7 D9 .....hpo8....1..
00403620 A9 C4 7F 11 FF 00 D2 00 07 DF 24 D9 33 F4 2E 9F ..........$.3...
00403630 98 49 68 10 64 71 3A D3 A1 0A 62 9B 00 BE 88 87 .Ih.dq:...b.....
00403640 08 16 F7 B4 FF 9E 85 FE 08 72 6E 2E 7B 19 FC 00 .........rn.{...
00403650 2A 00 08 B3 A6 FF 10 27 44 00 15 8D 9E 91 DF BD *......'D.......
00403660 DE B0 98 E4 99 68 1B E3 7F 8C 30 7E D2 A4 C1 DC .....h....0~....
00403670 1F B0 00 E8 AB A3 36 00 FA 0B E9 7F 35 22 13 00 ......6.....5"..
00403680 51 00 A5 FF 64 23 18 04 8A 32 D7 CA C8 FF 00 4E Q...d#...2.....N
00403690 8C F4 CB 0D A7 52 83 63 5B 68 FF 75 B0 70 16 00 .....R.c[h.u.p..
004036A0 4F 02 8B 00 68 60 BB 10 10 02 00 4E A7 94 CD 2C O...h`.....N...,
004036B0 C3 C0 90 9D 00 4D 87 A5 ED 8C 85 4A F7 4A EA C3 .....M.....J.J..
004036C0 C4 34 54 FA 87 35 C1 36 77 52 9F 49 F9 5D 4D 7F .4T..5.6wR.I.]M.
004036D0 00 FF D0 9C BA CB BE 00 2C 03 9D B1 5E 24 FF D8 ........,...^$..
004036E0 0E F1 61 40 00 C0 B7 A3 B2 FE 00 D5 2F 62 17 00 ..a@......../b..
004036F0 36 30 49 00 09 A9 11 B9 04 F8 90 C0 D8 73 00 E9 60I..........s..
00403700 CF C6 D2 6F 70 60 C7 42 4D D6 96 0B E7 0E 2A FF ...op`.BM.....*.
00403710 D8 40 2D 00 1C D1 00 70 06 48 FF AE 86 00 58 FF .@-....p.H....X.
00403720 42 9B 0F 30 96 74 F9 81 18 81 28 79 39 50 C5 82 B..0.t....(y9P..
00403730 FF 1A 00 02 C2 51 4B BA FF 00 4E 0A C7 D3 00 AF .....QK...N.....
00403740 65 31 13 2E BC 1D 10 02 00 E7 C0 B0 02 BB 08 51 e1.............Q
00403750 D8 C7 8E 56 02 C7 04 96 FA 0D B9 00 00 00 4C 48 ...V..........LH
00403760 79 27 30 70 9E 90 2B 75 02 00 29 5C 41 55 FF 21 y'0p..+u..)\AU.!
00403770 38 4C 76 6D 03 4C 63 00 ED 3C EE 36 7F FF 89 81 8Lvm.Lc..<.6....
00403780 FB 74 FF 97 F2 80 0C 42 6F 00 C7 DB 6E C7 50 BD .t.....Bo...n.P.
00403790 CD F7 00 75 48 13 08 C9 7D 2A 00 B8 D3 3B 34 0B ...uH...}*...;4.
004037A0 AB 00 00 1C 7E 85 63 76 23 00 94 C9 FF 98 05 0F ....~.cv#.......
004037B0 56 45 6A FF 0E 0B B5 4C 05 8D 00 00 67 D5 00 44 VEj....L....g..D
004037C0 C8 DB 9C 87 FF 2F F7 52 EC 01 21 48 AF 36 E6 30 ...../.R..!H.6.0
004037D0 7D F7 64 0C 5F F8 24 D5 BB 60 00 F5 36 E4 83 81 }.d._.$..`..6...
004037E0 34 D5 20 5A 42 64 CC 82 DD 29 DC D0 44 43 00 16 4. ZBd...)..DC..
004037F0 C1 00 C3 75 F0 1E 4E E7 00 3A 5D 8B 86 2B 14 B3 ...u..N..:]..+..
00403800 7B D5 D4 D1 07 D1 00 A8 E8 E7 35 02 00 00 00 0E {.........5.....
00403810 2A FF 00 D4 D1 8D 60 66 B0 83 00 00 FF 15 F3 8B *.....`f........
00403820 40 E6 65 DF 13 88 10 00 89 89 76 12 0E E3 01 3F @.e.......v....?
00403830 DD B5 3B B9 00 9F FC 4F 14 03 82 00 00 00 3A 16 ..;....O......:.
00403840 00 CB D5 C1 02 0F D8 0F FF 28 26 00 A6 ED C0 E6 .........(&.....
00403850 6A F7 00 10 00 DF F0 00 10 6C 00 37 69 C8 1C 38 j........l.7i..8
00403860 95 84 54 D3 A2 FF 0F EA 00 63 DF B7 B9 A0 93 0E ..T......c......
00403870 9E 53 44 9D 06 00 FD 02 00 F6 00 0D 0D 3A 79 23 .SD..........:y#
00403880 DE 8E 84 8F 00 41 45 6B EF 80 85 89 7B 00 CF 0C .....AEk....{...
00403890 04 72 36 D0 72 00 00 D7 8A BE 30 14 28 0A B3 EB .r6.r.....0.(...
004038A0 00 20 C7 36 00 FF 8F 09 00 01 00 3E 01 FF 41 00 . .6.......>..A.
004038B0 90 12 53 D8 D7 1D F3 00 C2 EC 85 0E FF FD DA 05 ..S.............
004038C0 E4 D5 00 28 00 00 4A 1F 00 0B CB 1A FE 00 00 E8 ...(..J.........
004038D0 6E D3 20 2F AF A3 99 D1 40 FF FF DC 82 55 C3 00 n. /....@....U..
004038E0 14 06 CC FF 89 80 82 27 A5 FF 03 A2 9E 56 19 81 .......'.....V..
004038F0 1D 91 3B FB 06 06 00 FE 00 00 52 79 8F 11 40 8F ..;.......Ry..@.
00403900 AD 15 C6 A0 A3 E4 A0 B1 7F 64 C3 5C EF F8 27 1C .........d.\..'.
00403910 1E BD 00 FD CE 81 D4 02 00 54 1F 00 16 04 31 41 .........T....1A
00403920 B8 00 E2 00 FF 00 10 00 00 91 2D DA D5 EC C3 70 ..........-....p
00403930 98 00 A2 AE 47 4F B2 76 28 7D B8 CF 00 05 FF 48 ....GO.v(}.....H
00403940 1B BF 00 FF CB 80 00 C1 00 5A 6A 52 1C E6 01 F8 .........ZjR....
00403950 AB 09 8C 1D 15 80 00 1C 20 E3 80 00 6D BE 46 03 ........ ...m.F.
00403960 88 1E 47 0B 00 B4 F3 FF 17 FE 6E 4D 5C A9 3D 87 ..G.......nM\.=.
00403970 E1 69 6F 8F 0C CD BB DB 4D 1C 14 93 00 C6 8B 3C .io.....M......<
00403980 60 26 58 D9 E3 8D 56 00 69 57 82 00 A6 87 00 64 `&X...V.iW.....d
00403990 C4 9C A3 E6 FF 90 77 F6 04 00 86 ED 80 28 CD 5F ......w......(._
004039A0 2C 1F 18 08 00 77 4F D4 86 51 B7 08 48 28 31 CC ,....wO..Q..H(1.
004039B0 90 91 00 6C 9C 05 3E 1A FD 00 1B 3A 5A D0 10 87 ...l..>....:Z...
004039C0 D8 AA 00 06 18 92 1A 25 26 51 32 A2 43 90 EA 27 .......%&Q2.C..'
004039D0 1C B1 E9 99 05 E9 5B 0A 9C 60 7F 29 00 CD 9D 01 ......[..`.)....
004039E0 E6 00 E8 58 00 41 3B C7 61 00 43 C0 04 49 6F 00 ...X.A;.a.C..Io.
004039F0 6C AD 63 FF CE 74 69 0F 75 25 6D 93 00 00 C7 D7 l.c..ti.u%m.....
00403A00 57 10 CB 43 0D 2D 38 F8 97 02 E6 FF 20 00 58 89 W..C.-8..... .X.
00403A10 D0 C4 00 5B 00 12 FC C7 18 33 80 11 80 AE C3 7F ...[.....3......
00403A20 03 81 FF B2 29 2C C7 C3 00 DE 88 E8 65 67 00 00 ....),......eg..
00403A30 BB 67 5A 7C 64 C9 67 D0 65 CB B7 00 DF FD BB 1E .gZ|d.g.e.......
00403A40 0D 00 48 6D 00 20 02 5A 6C C0 32 6C FD A9 30 1C ..Hm. .Zl.2l..0.
00403A50 00 00 A9 DD 71 F0 00 B4 00 FF 01 00 00 C1 BF 89 ....q...........
00403A60 B0 B8 AA 00 B0 09 85 BC 00 F1 50 B7 00 C4 05 B1 ..........P.....
00403A70 A7 FB E4 00 00 88 CF 81 E0 AE C1 4C 90 DB 2A 80 ...........L..*.
00403A80 17 74 AE 2A FF A2 7C B5 FF 5E BF 00 FF 7D C5 04 .t.*..|..^...}..
00403A90 9E 35 00 83 E0 EE 9A A2 69 08 8C 00 88 02 3B 8F .5......i.....;.
00403AA0 93 00 FF 7E 00 13 00 59 95 8F FF 1D 26 16 C7 BB ...~...Y....&...
00403AB0 0F 7E A1 EE 00 01 81 16 20 29 00 16 EA 39 3D 02 .~...... )...9=.
00403AC0 EF C8 4A 84 FF F8 88 15 00 C1 CE 11 3E C6 7D F7 ..J.........>.}.
00403AD0 8C 2B 47 8C 00 CD 79 00 9F FF D5 7C D1 27 00 C8 .+G...y....|.'..
00403AE0 00 00 9F BA 7F 7A AC 04 E7 FA FD 00 C1 27 00 F7 .....z.......'..
00403AF0 B1 61 FD 75 4E 92 8E C0 29 90 70 2A FF 4F 49 D9 .a.uN...).p*.OI.
00403B00 9D 16 E0 0F 00 D4 9F 24 00 07 03 F6 12 FC D9 B1 .......$........
00403B10 71 86 51 FF CC CB B8 FF 22 38 3F 55 E0 74 E3 A8 q.Q....."8?U.t..
00403B20 1B ED E2 CD 2D 24 1B 91 3F C3 32 63 C5 10 DA 48 ....-$..?.2c...H
00403B30 40 98 44 FF 00 DE 51 08 41 E2 2F 3E 4A F6 9B D8 @.D...Q.A./>J...
00403B40 18 FF FF 00 37 BC DF 6D 2C 7B 8A 9A 00 E1 E3 41 ....7..m,{.....A
00403B50 26 0E 00 7B 59 83 0C 65 0E 07 40 9C EA 15 77 3E &..{Y..e..@...w>
00403B60 2E A6 86 DE 17 96 B0 13 B7 26 EF 2B FF 46 BE 12 .........&.+.F..
00403B70 00 C5 98 FB 6D C4 91 3C CD 4E C0 FF C4 66 D4 76 ....m..<.N...f.v
00403B80 10 00 8E 99 35 3F 37 E2 D1 FE 4C FF 8E E4 0F 22 ....5?7...L...."
00403B90 16 43 2F 00 00 2B CD A6 B9 46 1C 9D F6 08 47 0E .C/..+...F....G.
00403BA0 50 82 B9 64 00 52 E9 FF 00 FF 00 00 00 FF D5 FD P..d.R..........
00403BB0 3E 86 D3 3C E5 52 40 18 99 01 2D 5E E8 AF 67 6F >..<.R@...-^..go
00403BC0 1D BE 80 91 83 4B 33 3F A5 00 22 D2 05 44 00 92 .....K3?.."..D..
00403BD0 C1 D4 41 26 C4 B0 A4 3F 97 00 00 1F 1B 44 38 8F ..A&...?.....D8.
00403BE0 CC 00 A8 95 01 68 37 54 DA A1 AA 00 BE 00 A4 EE .....h7T........
00403BF0 FF 20 6B 00 0E FF 33 EE FF 00 DE 44 85 31 DD 1F . k...3....D.1..
00403C00 00 8B 1F 42 00 9A 78 C6 00 FF FF CB 5E 31 FD C9 ...B..x.....^1..
00403C10 E7 FE 7C 41 A4 25 8D A7 A3 1C 9B 32 CD 12 00 98 ..|A.%.....2....
00403C20 44 56 B3 57 01 47 9F 51 D9 34 0F FF 21 FF 4B FE DV.W.G.Q.4..!.K.
00403C30 65 42 AF 79 83 00 9C B2 BE 46 0A 2F 7F 37 11 00 eB.y.....F./.7..
00403C40 4F 7B 0F AF 91 E4 8E 00 BF 3C C4 00 14 2D CC 60 O{.......<...-.`
00403C50 C2 18 00 14 C8 FF 8F DB 85 CA A4 FD C2 7B 65 21 .............{e!
00403C60 16 69 59 E8 80 00 91 16 62 1F 16 41 34 56 44 F3 .iY.....b..A4VD.
00403C70 FF EB 66 14 E6 00 8E E9 9E 4D F5 4E 37 B6 A7 2C ..f......M.N7..,
00403C80 FB 4D C1 D5 DF E9 00 00 72 EC 51 E7 1C 2F 19 6C .M......r.Q../.l
00403C90 7F 00 26 FF F0 B9 1C C0 C6 99 00 BB FF 00 54 48 ..&...........TH
00403CA0 49 E4 E8 CC 00 00 FF 00 9B 84 2E 64 E2 37 74 17 I..........d.7t.
00403CB0 CA F2 36 13 00 E7 95 5A 4E BD 00 46 10 03 5A FC ..6....ZN..F..Z.
00403CC0 1F ED F2 C4 5B 08 20 FF D9 A0 0E 99 87 7B 32 A3 ....[. ......{2.
00403CD0 FB F1 48 C5 78 51 AC 00 06 A9 7B 12 17 9F BC 00 ..H.xQ....{.....
00403CE0 FF CE 00 84 00 08 5D CD 81 C0 17 F8 35 F2 00 7E ......].....5..~
00403CF0 71 5D 00 89 46 49 75 FF 30 20 CA 6E 8E 80 E0 D4 q]..FIu.0 .n....
00403D00 00 17 00 85 70 C7 69 38 EC 64 00 B6 0C BB 87 00 ....p.i8.d......
00403D10 30 6D 00 2C 2A F3 D0 30 83 4E EB 7E 9B 26 93 20 0m.,*..0.N.~.&. 
00403D20 BA FF 00 FF E2 25 00 11 06 B2 D1 FD E0 C2 6E DF .....%........n.
00403D30 FF 62 BD F6 60 36 BD 08 00 E1 44 52 BC 2F 00 7D .b..`6....DR./.}
00403D40 43 A3 58 A7 A0 89 59 93 01 FF 00 99 C5 D2 6C 9A C.X...Y.......l.
00403D50 CA 56 88 CD 7C 38 D7 9D 92 6C FF FF 00 6C 4B 10 .V..|8...l...lK.
00403D60 00 00 13 FF 70 00 C8 FF 10 BA 20 86 7F DE 4A 0E ....p..... ...J.
00403D70 00 BC 0E B0 1D 00 B0 B2 FF 62 FF B0 21 7E C4 25 .........b..!~.%
00403D80 AA 9D 99 FF 47 69 E1 00 73 EC 2B ED 69 00 92 8F ....Gi..s.+.i...
00403D90 09 00 00 2B B7 00 C8 48 84 25 46 BE CB 2D 1F 4A ...+...H.%F..-.J
00403DA0 A0 2C 32 00 4A C0 FF 0F E0 73 00 72 1E EF 49 05 .,2.J....s.r..I.
00403DB0 9B 69 0C E6 A0 FF 00 32 03 29 AD 78 33 31 01 B9 .i.....2.).x31..
00403DC0 00 B6 FD 28 00 5B 99 F6 A6 64 40 31 00 1F 68 4C ...(.[...d@1..hL
00403DD0 11 3D CA FF 1C DD 83 00 13 FA 85 4C 4F 00 A0 3F .=.........LO..?
00403DE0 2D 80 00 58 00 C2 65 11 E8 E1 00 00 F9 00 B2 ED -..X..e.........
00403DF0 C5 E0 FF 1E EF 00 53 AE 00 C6 64 00 39 02 EA 52 ......S...d.9..R
00403E00 D9 3A 50 8F EC E2 77 B3 00 73 9F 83 00 4D C5 FF .:P...w..s...M..
00403E10 00 FD 0E 26 16 AB 80 36 FA 1C 79 11 60 FF 2C 06 ...&...6..y.`.,.
00403E20 98 85 54 78 00 31 04 AE 00 2F 2C E9 AE 4C A8 2C ..Tx.1.../,..L.,
00403E30 B3 86 6E 3B 85 AE 90 9C FD 0A 71 C7 31 00 25 71 ..n;......q.1.%q
00403E40 1A 48 51 00 6E 38 64 B1 FD 13 39 00 AF 00 FF 88 .HQ.n8d...9.....
00403E50 FF 86 9E 7A 4F D3 A2 20 07 5A 41 42 42 C5 3B 01 ...zO.. .ZABB.;.
00403E60 52 07 ED FF D8 BC 10 45 EA F8 23 BB 05 8C D9 00 R......E..#.....
00403E70 10 7D EF FF 22 8F 35 00 00 40 4C 63 91 33 CF 06 .}..".5..@Lc.3..
00403E80 CF C7 87 FF 11 D5 3B 00 FF 00 00 AA 00 70 9B 3A ......;......p.:
00403E90 BC 3C C1 01 A3 04 67 59 E9 AB 00 26 C6 94 02 58 .<....gY...&...X
00403EA0 E3 01 06 00 E1 F8 45 58 03 CA BC 85 44 CC 4C C6 ......EX....D.L.
00403EB0 9E 3E A6 1D 49 5E BD E9 42 00 00 00 C6 9F EF DE .>..I^..B.......
00403EC0 00 04 00 E9 82 AF 12 D1 4C 6F 90 21 EC 8B 34 06 ........Lo.!..4.
00403ED0 71 17 20 8B B8 76 FF 8A 00 7E 43 CA ED D7 FF 18 q. ..v...~C.....
00403EE0 1A A1 00 51 22 E0 E0 93 A2 87 7E 17 00 00 41 24 ...Q".....~...A$
00403EF0 D7 7D F2 8A ED 5C 27 96 33 CD 10 42 83 B0 58 31 .}...\'.3..B..X1
00403F00 42 A4 8D 8C 96 A1 14 7F 55 00 F6 50 A5 00 DB C1 B.......U..P....
00403F10 C0 E4 63 C2 82 D7 00 D6 56 86 E2 F7 03 F1 8E D1 ..c.....V.......
00403F20 0D 64 E9 3D 5F F7 FE A4 DF 22 A2 1F BD FF 08 44 .d.=_....".....D
00403F30 A7 4F 73 D4 96 00 94 80 1E 99 D8 93 14 22 0F 14 .Os.........."..
00403F40 18 00 06 0F FF 22 5E D9 BA B5 5A 21 00 B3 20 75 ....."^...Z!.. u
00403F50 2E DC 97 E9 00 00 00 02 2E 58 2A 95 09 C7 D1 A1 .........X*.....
00403F60 1D 62 B9 69 A7 01 F8 97 E6 AB 1F FC FF E0 A3 B0 .b.i............
00403F70 69 00 91 47 00 52 00 00 B1 5E 72 4C 4E 33 E2 39 i..G.R...^rLN3.9
00403F80 66 44 00 BB DC C3 F9 FC 60 20 C4 61 25 A0 62 00 fD......` .a%.b.
00403F90 99 F4 25 1F F1 CF 00 3F 83 99 F7 4C C7 DB 19 AA ..%....?...L....
00403FA0 02 18 FF 12 00 82 EF 18 39 69 9F BD 00 D5 01 5A ........9i.....Z
00403FB0 14 0C 00 E6 00 D3 FF 4F 12 B2 35 FE 0E E1 80 20 .......O..5.... 
00403FC0 90 B6 04 60 F2 00 27 BE 42 0E BC 00 CC DF FF FF ...`..'.B.......
00403FD0 B4 00 54 01 00 90 FA 56 CA B9 65 2E 0E B5 18 C0 ..T....V..e.....
00403FE0 20 18 B4 F0 90 7D FF 00 02 E2 8E 7D 97 76 21 D2  ....}.....}.v!.
00403FF0 61 87 C3 E4 08 00 C4 00 D3 00 BD A9 00 81 54 B0 a.............T.
00404000 C2 7F 61 9A B0 68 40 1F 96 BF FF 07 E1 F1 93 F1 ..a..h@.........
00404010 FF 26 C3 00 00 62 6C 42 E0 B4 00 36 F8 4C 00 00 .&...blB...6.L..
00404020 C3 A9 86 31 FF 30 4C 00 CF 6F D4 FF 47 1C 18 A3 ...1.0L..o..G...
00404030 A2 E2 00 2E FF FF D0 9B 11 9F 2F 22 9F C3 E5 E4 ........../"....
00404040 5F 00 7D 5A 40 D2 00 98 0F 00 4D E7 FF 00 C3 3E _.}Z@.....M....>
00404050 92 F2 7B 06 EB 00 23 A9 C8 88 AF 28 20 00 B5 57 ..{...#....( ..W
00404060 27 B2 C0 2B 48 2F 9D 90 A5 1B 1A 87 A9 52 4B 56 '..+H/.......RKV
00404070 C5 A3 50 D8 E9 4E BF 4B 00 77 DF 00 D4 D7 03 34 ..P..N.K.w.....4
00404080 00 FA 00 6F 62 79 37 6F FF ED 6C 8F 77 21 C3 07 ...oby7o..l.w!..
00404090 1F 43 D9 01 0D F3 AA C0 52 C6 A4 3E BB 7A 00 9C .C......R..>.z..
004040A0 06 00 00 F4 CC 00 83 31 25 5E 54 A7 35 FF 7E D7 .......1%^T.5.~.
004040B0 F7 99 47 4B C0 00 00 FF 94 F9 00 88 51 0D 10 FF ..GK........Q...
004040C0 12 14 FF 63 86 FF 72 7C 79 48 CF 73 1C EC 1D 7A ...c..r|yH.s...z
004040D0 47 3C D4 B3 FF 83 00 FD A5 FF D0 FC 54 ED 34 F8 G<..........T.4.
004040E0 31 B9 49 5F 91 FF 03 8F 71 EB BD 3F 14 8D D9 93 1.I_....q..?....
004040F0 1F 8B 00 6C FF 6C A9 E2 27 3A 7A D1 64 28 9E 00 ...l.l..':z.d(..
00404100 80 00 F6 7E 7B 88 F6 C8 9B 50 DE 7A 00 FF 56 03 ...~{....P.z..V.
00404110 62 5B 75 F3 FD 30 6A 00 E4 EF 6B 47 00 E9 00 27 b[u..0j...kG...'
00404120 E6 DB 00 00 57 EA E0 BA DA C9 B1 4D 34 FF 90 26 ....W......M4..&
00404130 5C 7B 31 21 92 00 E6 FF 45 20 18 9F 00 82 DD 16 \{1!....E ......
00404140 77 2D 0D 00 8D 00 8C 6F DF 95 F6 00 A6 30 B8 FF w-.....o.....0..
00404150 0C 27 0F 0B 00 AC 00 30 00 FF 74 00 61 34 0B FA .'.....0..t.a4..
00404160 10 EC 3C C7 A0 7B 3A 00 84 80 63 00 B4 BF 47 6D ..<..{:...c...Gm
00404170 00 CD 00 42 C8 00 6A EC D2 30 9C 20 6E 08 C4 B9 ...B..j..0. n...
00404180 F3 27 73 88 00 18 69 90 FF 9E 00 88 F7 00 F8 FF .'s...i.........
00404190 8A 72 D7 DC 7B 4A A7 DA EE 12 7B F5 EF 0F B0 7F .r..{J....{.....
004041A0 AE BE EE AF 76 BC EB FF BE C0 2D C0 1E 6A 9D 46 ....v.....-..j.F
004041B0 4C D7 06 62 E8 E3 60 00 BD 9C 0C 1B 49 40 0D CD L..b..`.....I@..
004041C0 6B 45 AB 2B A4 F2 00 66 28 00 F9 00 DB 34 25 93 kE.+...f(....4%.
004041D0 36 F0 A2 2E 20 00 1E 2F 19 CB 95 3D FF C7 00 8B 6... ../...=....
004041E0 50 C2 DE 46 CC 1D 4B 11 0C 42 CC A0 FD 6F FF E9 P..F..K..B...o..
004041F0 20 0D 01 60 73 7B 4F B4 D1 10 15 F0 00 9D 1C 03  ..`s{O.........
00404200 73 93 7F 44 D1 80 00 07 CD FF 5E 8D CE 00 E9 24 s..D......^....$
00404210 27 00 00 D3 42 3A 3B 72 00 00 90 DD F9 95 FA 87 '...B:;r........
00404220 72 0F 00 1D 40 85 00 21 24 2A 48 86 4D FF 1B DF r...@..!$*H.M...
00404230 00 46 5E BE 7C 6D 20 7F 0C 75 05 7F 84 4E 5C 32 .F^.|m ..u...N\2
00404240 09 01 C8 85 64 06 00 E8 1F 00 31 5B 45 5A 02 C4 ....d.....1[EZ..
00404250 FF 52 20 50 20 4D BB 60 E3 81 E8 0B E2 63 9B 06 .R P M.`.....c..
00404260 A4 C6 18 E4 78 DF 14 53 85 50 3F E4 DB 3D CF 84 ....x..S.P?..=..
00404270 15 8B 00 51 8E FF 56 52 00 E7 B5 00 2F 00 90 1E ...Q..VR..../...
00404280 FF FF 82 69 B4 1C FF E0 B0 E4 30 7D 6B 3F 00 B1 ...i......0}k?..
00404290 27 63 FF B1 28 E4 CD A7 89 9D 4B A3 A9 47 12 19 'c..(.....K..G..
004042A0 EA 9C DE 44 00 33 00 5B DB A5 3A 5B 34 DA FF 58 ...D.3.[..:[4..X
004042B0 51 F6 DF 71 0F 7F 84 B9 B3 AB 36 BD B5 CC 42 4F Q..q......6...BO
004042C0 20 FF 5E E1 74 47 69 32 B7 C2 A3 01 EB 9B D1 5B  .^.tGi2.......[
004042D0 FF F8 6E EC 00 DB 6F 47 4D 5E 00 00 4C D3 A7 32 ..n...oGM^..L..2
004042E0 43 F4 69 4C A2 00 D6 79 81 43 25 9D 00 DF 25 C6 C.iL...y.C%...%.
004042F0 94 87 34 DE 6B 40 19 FF 3F D5 BE BF EF 45 96 0B ..4.k@..?....E..
00404300 CC CB FF 4C D9 3E 96 3F 27 D4 98 00 2F E4 6C B8 ...L.>.?'.../.l.
00404310 3E 31 3D 00 F6 7D FF 20 FB B1 00 A0 D1 E6 00 8E >1=..}. ........
00404320 21 46 C7 60 03 F8 A2 4D 17 F9 F8 7F 2E 4A 1F 92 !F.`...M.....J..
00404330 C5 4A 4C A3 E9 B1 00 40 90 00 B3 6A A9 50 60 00 .JL....@...j.P`.
00404340 DE FF 0E 00 21 18 00 A3 89 2F 40 3C 0A 6F 00 04 ....!..../@<.o..
00404350 AF 31 66 4D 00 02 AC 08 FE A4 00 1E A3 3C 38 DC .1fM.........<8.
00404360 CB FB D9 0D 0C 66 5F 83 2F 50 04 9D FF 3A F1 02 .....f_./P...:..
00404370 85 00 51 1F 00 00 9C 00 00 00 96 02 EF E0 9C 78 ..Q............x
00404380 00 5F F7 E8 9F 78 00 74 00 22 11 AF 0F 86 06 DD ._...x.t."......
00404390 4F 00 A8 34 FF 2D AF DC DB D1 9F 72 B5 14 0D 01 O..4.-.....r....
004043A0 49 FF DF 48 D9 7C 14 7B 43 53 5A B8 06 24 9A 4F I..H.|.{CSZ..$.O
004043B0 76 C5 A7 63 FF 75 E0 61 FF A7 C4 FF E1 FF 11 B3 v..c.u.a........
004043C0 DB 88 00 00 A5 48 C3 DB 45 F7 00 00 35 AE 0B B4 .....H..E...5...
004043D0 EE EC 09 41 08 0F FF F9 77 00 11 5F 78 F9 11 00 ...A....w.._x...
004043E0 E0 5E B8 F0 0C 4C D0 26 00 8B 3E 18 2B C0 08 48 .^...L.&..>.+..H
004043F0 00 34 53 D2 8D D0 C2 CC 9D E5 EC 00 7F 17 E1 DF .4S.............
00404400 00 47 B0 74 50 9A B3 CA FF 89 01 00 5D 79 79 4E .G.tP.......]yyN
00404410 41 63 EC 60 28 2E 18 02 00 9C 67 EC B8 53 00 B5 Ac.`(.....g..S..
00404420 BA F7 C8 0E 25 00 70 00 4C 37 E8 2E B5 10 78 1B ....%.p.L7....x.
00404430 A0 C0 00 45 6E 0F F0 88 73 06 DA FF 21 34 00 73 ...En...s...!4.s
00404440 BA 72 FE 38 83 6D 98 C0 EB FF 1B DC D2 F0 AA 5F .r.8.m........._
00404450 67 AD 51 C5 5C 2A 69 C7 A3 CD 2C CD 31 B0 C6 2E g.Q.\*i...,.1...
00404460 1E 39 F3 CF 06 3E 9C B4 43 4A A5 8F D8 F1 FF 00 .9...>..CJ......
00404470 96 D8 CF 1F BE 00 E0 17 4F 68 07 E3 2E 8A 5A 34 ........Oh....Z4
00404480 00 FA FF A5 55 00 32 AC 35 8E EE EF F8 59 12 CF ....U.2.5....Y..
00404490 39 03 21 E7 06 1F F1 00 7C 58 A9 31 28 80 10 00 9.!.....|X.1(...
004044A0 D2 14 FF 00 79 2C A9 00 AF 0F A1 70 05 2E C1 98 ....y,.....p....
004044B0 A7 F2 00 25 86 10 F7 1D 9E 00 12 C5 00 00 FF 97 ...%............
004044C0 BC 16 41 0B FF FF 7C EB 18 FF 07 06 8D CA 74 3D ..A...|.......t=
004044D0 76 47 8A C3 F6 EF 00 58 E6 BD 00 8A FF E9 42 B1 vG.....X......B.
004044E0 A0 E3 30 89 C8 66 00 D7 3A 72 EA 55 44 7E 87 17 ..0..f..:r.UD~..
004044F0 95 B9 AD D6 8D 03 7B FB 6C 70 53 3D 1F 68 A6 B8 ......{.lpS=.h..
00404500 84 00 00 2E 8E 0E C0 C5 69 BF 11 F3 76 E8 A5 B0 ........i...v...
00404510 7B EA 45 6A 00 00 EF 84 8A 21 D2 A9 0B FC DD 14 {.Ej.....!......
00404520 3C 31 93 7B C5 CE F2 FF 9A BB 00 00 9D C7 69 00 <1.{..........i.
00404530 D1 00 98 15 A2 03 E5 2C 36 18 0B BB 83 30 6E 1B .......,6....0n.
00404540 D8 93 00 2B FE 59 03 F5 B6 0E 00 38 88 40 00 00 ...+.Y.....8.@..
00404550 B1 E1 72 00 A7 00 67 F9 49 DB F5 80 26 2D C1 80 ..r...g.I...&-..
00404560 01 80 09 B4 32 27 8A C1 B1 FB 1A 3D B7 01 8B 31 ....2'.....=...1
00404570 C2 00 7A 33 56 37 4C 6A 62 C9 63 64 E2 10 91 D1 ..z3V7Ljb.cd....
00404580 B4 FF 00 FA DE 5A 6A 08 02 7E 0E 48 87 CE 5D 31 .....Zj..~.H..]1
00404590 2E 00 00 8B 75 21 BF 8F 00 00 00 08 FF BE 00 4F ....u!.........O
004045A0 8E 9E DF DD 00 FD 01 37 8F 9B 00 17 1D 79 D9 6E .......7.....y.n
004045B0 10 2D C3 41 C7 64 0E 1D 00 FF 39 82 60 00 6C 31 .-.A.d....9.`.l1
004045C0 E4 DD 8F CF 3C 9E 1A 46 5A 3C F9 04 08 DF 50 9E ....<..FZ<....P.
004045D0 31 CF 00 DD 43 E8 C4 FF FF 00 04 00 3E 98 49 74 1...C.......>.It
004045E0 FE 0A 61 00 46 DC FA 34 FC 8B DE 0E D2 FF A9 7B ..a.F..4.......{
004045F0 00 9E 00 BE 16 2A DF 0B AF 06 6A 0A D7 E3 78 00 .....*....j...x.
00404600 3F BD CD 6B 48 EB FF 6B B4 08 A4 5A FF FD F7 17 ?..kH..k...Z....
00404610 88 00 7F 15 E4 00 B6 8D 17 2F 1D 3F 42 00 F5 AC ........./.?B...
00404620 F1 1A 00 FF 61 25 1A E7 C1 A1 13 00 9B 5B 08 27 ....a%.......[.'
00404630 00 F5 E4 F5 E6 24 03 7C 2E F5 FD 13 00 70 62 F2 .....$.|.....pb.
00404640 11 00 58 00 69 1B C7 A2 8E 00 00 00 78 73 61 0F ..X.i.......xsa.
00404650 36 F7 32 74 73 6C D8 B3 7D 74 56 82 D7 FF 57 18 6.2tsl..}tV...W.
00404660 37 AF 55 37 71 BD 76 00 00 B0 2E 70 25 AC 7D E0 7.U7q.v....p%.}.
00404670 9F 5B E6 06 0E 52 00 5C 46 00 91 7F 9B 51 97 D3 .[...R.\F....Q..
00404680 37 91 19 14 0E 98 00 D8 E9 5E 44 04 00 00 EC 41 7........^D....A
00404690 F2 0D 00 FF EC A2 61 84 00 30 53 30 22 9E E3 43 ......a..0S0"..C
004046A0 8B A1 79 5D 3F 64 33 81 00 BF E5 1C F0 C5 36 C8 ..y]?d3.......6.
004046B0 CD 30 00 1F 00 C9 6C A7 00 A6 94 B7 FA 90 4A 69 .0....l.......Ji
004046C0 9B 00 37 00 34 8C 34 26 2D B0 C0 00 BF 95 76 C8 ..7.4.4&-.....v.
004046D0 9D 17 54 42 C0 1E 00 00 73 00 84 5D F3 00 00 15 ..TB....s..]....
004046E0 47 38 00 00 68 9F 13 01 2C E9 DD EF 0D 17 CE 7F G8..h...,.......
004046F0 9A 00 43 3B 28 00 58 A6 E5 8C 26 00 00 02 D8 AB ..C;(.X...&.....
00404700 59 64 00 AE 2D DF 1C E1 FF 61 F9 52 54 B3 2B ED Yd..-....a.RT.+.
00404710 0B DD 11 E1 8E 5A C4 E1 8E B3 F9 33 66 41 92 8B .....Z.....3fA..
00404720 C9 9A 90 45 B3 33 D0 BA 4C 47 00 45 83 00 C3 3F ...E.3..LG.E...?
00404730 13 BE 31 2F 9C 22 3B 0F 3A AD 26 C0 FF B0 80 FF ..1/.";.:.&.....
00404740 28 A9 01 3E E8 2C 00 00 E9 CE 9A 00 00 30 0C E7 (..>.,.......0..
00404750 00 99 1E 26 83 DC 40 68 11 4F DF 3A 3B 00 5F E8 ...&..@h.O.:;._.
00404760 00 FF 5E 91 39 00 00 78 02 D9 96 F9 68 20 D5 C8 ..^.9..x....h ..
00404770 B7 3B E1 E1 35 FF FF C2 F3 FF 3E FF CC 00 00 1E .;..5.....>.....
00404780 B1 E7 00 D8 E0 8B CF 30 87 1C 24 FF 50 42 B0 00 .......0..$.PB..
00404790 11 56 FD 41 4D 6D 00 C6 9F 9C 1C 9E 51 33 35 06 .V.AMm......Q35.
004047A0 62 12 ED 15 6D 93 7F 0C 91 FD 95 A2 6C 2B 37 67 b...m.......l+7g
004047B0 05 13 E3 2A C0 00 00 FF 07 EE 61 C1 95 64 44 05 ...*......a..dD.
004047C0 00 90 2A 6B 1D FC A5 C8 4D 00 66 00 F8 74 D5 24 ..*k....M.f..t.$
004047D0 A4 71 B4 C9 D2 67 96 00 6C 8D 39 24 7E 11 71 84 .q...g..l.9$~.q.
004047E0 79 A3 C2 00 C7 98 00 54 83 00 FF 13 96 1A 63 39 y......T......c9
004047F0 39 FF EC 8E 41 BC A1 0C 06 A0 16 A4 00 5F 83 4F 9...A........_.O
00404800 FF 0C 1F 60 74 4F 5F 84 73 FF 00 8C FF A5 FC 83 ...`tO_.s.......
00404810 80 71 D4 24 B9 BF 69 00 3B 00 2E 0D 04 30 00 E2 .q.$..i.;....0..
00404820 87 78 32 00 1A F4 86 82 00 65 0C 0F 88 08 91 9C .x2......e......
00404830 04 D7 78 00 D4 73 1F F8 F9 0E C2 5C 8C 55 74 08 ..x..s.....\.Ut.
00404840 65 84 A5 00 6A C6 F3 D5 7E 81 FD 00 9B 2A D0 36 e...j...~....*.6
00404850 CA 03 00 A7 0C 70 EC 56 2F FF D9 FF B0 0C FA 07 .....p.V/.......
00404860 00 96 00 66 41 00 F9 70 8F 1A 00 87 6A 85 27 01 ...fA..p....j.'.
00404870 06 9A 96 45 B3 13 30 96 F7 F4 D3 FF 00 F5 04 50 ...E..0........P
00404880 0E A3 3A 04 FB 03 BB 8B 6B 0A 4C 6E 00 A9 E4 62 ..:.....k.Ln...b
00404890 30 9C 00 76 8F AD EB 00 04 3C 39 10 09 66 4C 47 0..v.....<9..fLG
004048A0 47 BC 50 E5 81 5A 0B 00 94 C3 19 AE 53 CD 00 23 G.P..Z......S..#
004048B0 1C DD 7C D8 FF 38 8F 3E E7 49 F5 9F 87 BC FF 86 ..|..8.>.I......
004048C0 F5 58 00 00 00 44 00 3F 87 0A 1A EC FF BB 4E FD .X...D.?......N.
004048D0 00 55 E4 F9 5E DE 00 3F D3 00 39 16 B0 93 FF ED .U..^..?..9.....
004048E0 0B FE 2D 04 37 47 92 7F 57 3A 00 6A 02 00 00 FF ..-.7G..W:.j....
004048F0 0A BB D8 6C 80 00 70 A9 FF 85 24 00 0A 89 5F 57 ...l..p...$..._W
00404900 83 0B DF 17 36 00 00 C8 A4 00 58 4C C9 B1 1E BA ....6.....XL....
00404910 65 81 00 39 5D 30 42 79 93 FF FF 41 FA 59 69 00 e..9]0By...A.Yi.
00404920 40 00 73 9D F0 00 B3 48 FF 68 6C 00 1E B5 FF 00 @.s....H.hl.....
00404930 11 FF BB 39 30 FF FD B4 3E 03 5A AC BF E9 FA F7 ...90...>.Z.....
00404940 FF DA C3 98 FE 00 20 8C 06 0C 0E FD 9E FF 62 CC ...... .......b.
00404950 26 30 A1 D5 D8 9C F6 B1 DA 5F 00 AE 16 00 A4 01 &0......._......
00404960 32 11 6D 08 9D 26 8B 8E EE ED 00 96 8A 90 C5 00 2.m..&..........
00404970 67 3F 69 59 00 0A FF 1D 97 B7 AE 26 9E FF 80 6E g?iY.......&...n
00404980 83 38 70 D2 3A 00 4B B6 EE 00 04 D1 00 00 B2 F8 .8p.:.K.........
00404990 7C 27 10 00 1D 14 1B 5A FC BF 64 85 9A 09 2A C1 |'.....Z..d...*.
004049A0 EE A5 27 6E 52 E4 84 CB 87 B0 40 E1 47 AD 8B 11 ..'nR.....@.G...
004049B0 00 60 34 FF 7E C2 64 E8 4A FF B4 BA 75 A2 00 FE .`4.~.d.J...u...
004049C0 91 05 94 DF 00 EF 5F 08 C4 1C 9C 00 14 42 82 6C ......_......B.l
004049D0 91 1A 1B B2 F3 19 91 26 1C 48 35 FA 17 40 8C 5F .......&.H5..@._
004049E0 00 58 FF 8B 73 B0 9E 00 D5 AF E9 00 4D 00 F5 89 .X..s.......M...
004049F0 84 01 D5 E3 AB 55 A5 00 D6 4E FF 93 FD 13 E6 FF .....U...N......
00404A00 B9 00 00 1B 34 61 B0 60 8F 00 FF C6 48 FE 1C 84 ....4a.`....H...
00404A10 1A C4 61 1C 51 00 8B 66 66 F7 2A C1 B8 9D 5E 08 ..a.Q..ff.*...^.
00404A20 A9 C4 C8 A3 BB 2D 00 FA 03 00 3A 03 E2 A1 DA CB .....-....:.....
00404A30 00 41 88 29 80 1C B7 E3 00 C8 63 F9 1A FE FF 06 .A.)......c.....
00404A40 D4 00 74 56 5E FF 69 E7 42 0C 00 FF 69 5D 72 06 ..tV^.i.B...i]r.
00404A50 57 00 FB 8B 51 7D 65 FB B6 84 29 EF A8 88 00 17 W...Q}e...).....
00404A60 A7 CC 08 71 19 54 3F C1 93 C4 1B E0 BA 41 29 CE ...q.T?......A).
00404A70 BD E5 00 FA F1 CE 82 03 1C FF 8B 00 6D 37 1B 83 ............m7..
00404A80 14 E0 16 00 CA 59 6E AC FF C9 41 11 94 C2 C8 00 .....Yn...A.....
00404A90 41 EC 59 FC 00 08 F8 BC 3A BF 8E E8 9A BD F8 DB A.Y.....:.......
00404AA0 CD 80 D9 DC D0 EE A1 71 BB 47 61 34 1B 60 DE 64 .......q.Ga4.`.d
00404AB0 4F F0 E9 B1 2F 12 15 86 E3 F1 AD 00 00 6A 72 8B O.../........jr.
00404AC0 7F A5 E3 A4 81 72 CD 0F 90 B1 40 BF F1 75 FF 6C .....r....@..u.l
00404AD0 98 FF A9 00 FD 85 16 6E 6E 99 A2 00 68 53 40 13 .......nn...hS@.
00404AE0 F7 4F 00 FE 00 18 DB 00 00 B8 10 C5 10 5A C2 FF .O...........Z..
00404AF0 78 CF 13 79 00 00 CE E4 BF 66 76 EF 0F 30 00 C9 x..y.....fv..0..
00404B00 C8 70 00 00 50 4F 00 54 16 46 3A FF 28 99 A6 EC .p..PO.T.F:.(...
00404B10 04 39 CD E2 00 3E C1 4B 9F C6 48 00 D6 B2 DD E8 .9...>.K..H.....
00404B20 6E 51 34 CB 42 DC 70 00 AD 27 51 0A 5F B0 AC 52 nQ4.B.p..'Q._..R
00404B30 EA 0A 00 00 ED F3 6C 07 B5 FF 75 13 71 48 32 D9 ......l...u.qH2.
00404B40 66 7B 17 F9 02 FF 6F F8 6C 61 00 08 72 01 C0 A0 f{....o.la..r...
00404B50 33 47 06 3C DF 82 DB 47 7F 1F EF 30 FF 5E AE 00 3G.<...G...0.^..
00404B60 18 00 B3 F6 BA CD 00 00 1C 19 C4 40 8E 1B 83 1A ...........@....
00404B70 A8 00 E5 07 B5 68 41 23 FF 00 BC A8 22 18 C8 BE .....hA#...."...
00404B80 58 DF D9 FD CD 3A 2D F5 8F F2 CF 00 90 63 38 43 X....:-......c8C
00404B90 9E B6 24 4F 00 70 00 64 06 12 6E C2 59 30 00 3E ..$O.p.d..n.Y0.>
00404BA0 00 C1 26 98 3F 60 E1 C5 F2 AD 5D 00 7C 40 66 5C ..&.?`....].|@f\
00404BB0 D8 19 26 AB 31 8C BB 9F 07 BA AE E9 C8 CE 36 80 ..&.1.........6.
00404BC0 E3 F1 7F B1 D7 35 98 BE FB 1C D1 88 00 6A 00 D1 .....5.......j..
00404BD0 00 01 FF 8B 3C D8 19 79 0F 00 77 A3 4C 73 2D 0C ....<..y..w.Ls-.
00404BE0 00 B5 C7 3E 00 1F 5F FF F0 FF 70 17 DF 00 76 5F ...>.._...p...v_
00404BF0 BD 0D 00 F1 71 72 A7 2D FC C5 B5 5E 52 58 48 00 ....qr.-...^RXH.
00404C00 02 3C 6F CC 8E 0D D1 31 E1 22 47 6B 6E 69 21 EE .<o....1."Gkni!.
00404C10 26 25 A4 00 38 0A BF 14 F8 4E CD 89 BC 8A 06 00 &%..8....N......
00404C20 E0 DF 9C 61 00 69 C8 C2 94 00 BD 00 0B E1 F6 8F ...a.i..........
00404C30 3D EF D3 39 8E 14 A5 00 20 59 69 1F 07 81 23 00 =..9.... Yi...#.
00404C40 4B EB A5 E4 B1 21 2E 93 00 A8 06 00 00 A1 F1 B9 K....!..........
00404C50 AF D2 00 20 1B E2 FF DE F9 7B BF EB A9 11 6C 17 ... .....{....l.
00404C60 18 01 00 C5 0F 80 52 00 AB 4C A1 67 C7 48 49 99 ......R..L.g.HI.
00404C70 00 F8 C3 F0 F7 25 00 08 0F 54 30 89 4B 0B 89 E6 .....%...T0.K...
00404C80 6C 1B E2 90 28 7F 94 A4 05 46 59 E0 FF 4B A8 00 l...(....FY..K..
00404C90 F7 BF 00 00 FD C7 1A 7A 20 08 22 61 1F 3F F6 45 .......z ."a.?.E
00404CA0 5B 85 9C E6 00 72 00 D3 58 48 D1 EF 11 43 05 D4 [....r..XH...C..
00404CB0 50 95 CD 00 00 EE 2E DA 66 DE 82 BC 00 7D 29 71 P.......f....})q
00404CC0 30 39 00 00 E0 64 00 7E A3 A1 2E C7 1B 93 E5 FF 09...d.~........
00404CD0 C3 1D DC 65 4C CB 74 05 E4 3B 94 18 CF 4A A5 8F ...eL.t..;...J..
00404CE0 FB 1C BC 60 4C 84 71 F4 28 00 00 83 FD A6 8B D0 ...`L.q.(.......
00404CF0 A7 47 00 27 02 DF D4 66 31 46 7F B7 3D ED 71 DA .G.'...f1F..=.q.
00404D00 88 01 E3 44 3A 00 D9 97 FF 20 9A FF E9 33 02 17 ...D:.... ...3..
00404D10 C9 3A 93 00 2A 2D AC F8 D7 FB FF FF 33 24 25 D7 .:..*-......3$%.
00404D20 FF EB 38 37 BD 2C 0B BF 92 FF 08 3C 36 00 95 C4 ..87.,.....<6...
00404D30 61 18 69 00 C8 EA 40 F7 E0 00 68 95 DF 23 08 93 a.i...@...h..#..
00404D40 1B 70 02 9B 4F C3 2C B6 4F 6F FF 22 68 A5 C1 87 .p..O.,.Oo."h...
00404D50 04 50 AD 51 9F DE BA 3B EE 00 41 0E F7 00 00 A5 .P.Q...;..A.....
00404D60 00 00 89 5E A8 8F 91 05 01 39 69 81 A9 00 DE 4B ...^.....9i....K
00404D70 CC DA 81 51 00 00 FC B6 94 ED 53 E8 8D 65 00 91 ...Q......S..e..
00404D80 63 00 0E FF F1 C8 17 D4 E3 CC C8 50 6A 7C 5D 7B c..........Pj|]{
00404D90 BD EC 79 5C 43 AD 13 E5 30 00 10 69 30 DB 00 1A ..y\C...0..i0...
00404DA0 A0 17 5E 50 C6 25 84 F7 6E 00 99 7E 89 F4 FF 58 ..^P.%..n..~...X
00404DB0 F8 2E 70 A5 53 91 36 B8 00 6C 27 A3 06 FF 82 24 ..p.S.6..l'....$
00404DC0 E2 7E C4 75 82 AD 5E 00 10 F8 00 30 C8 7A 12 DA .~.u..^....0.z..
00404DD0 78 17 00 56 00 13 28 AE FE 84 00 3A 00 5A 7F B3 x..V..(....:.Z..
00404DE0 FA FF 86 FF 81 DE 94 8B D1 00 3D F0 00 50 7A D3 ..........=..Pz.
00404DF0 CA DA FF BA FF 8A E7 50 9D 00 FF 07 FF D7 00 38 .......P.......8
00404E00 07 6E 30 6F 28 41 67 B0 A0 00 1E 93 6D 14 6D C9 .n0o(Ag.....m.m.
00404E10 4C D7 0C 5C 85 8A 84 71 51 FA 86 EC 47 80 FF 71 L..\...qQ...G..q
00404E20 2F FF 41 BE 00 91 FF 93 D8 05 EE 2E 6A 00 07 10 /.A.........j...
00404E30 92 FF 2A 51 1A AB 1F 81 14 41 0E FF 00 38 DC 1B ..*Q.....A...8..
00404E40 A8 C0 0A 00 9C E2 A5 A2 2B 52 7F 16 FF DC 14 38 ........+R.....8
00404E50 00 13 07 29 7D 5C F0 9C E7 17 91 07 F9 26 FF DE ...)}\.......&..
00404E60 3E E1 AD 9E 9C C1 7D B0 77 FF 20 F7 36 80 F3 00 >.....}.w. .6...
00404E70 E1 61 9F 39 FF 00 88 63 02 B4 00 CD 56 10 E1 FF .a.9...c....V...
00404E80 73 18 3C 1D 31 00 80 0D 54 3C FA 24 A9 F1 C7 8A s.<.1...T<.$....
00404E90 CC FF 7A 53 8A A6 65 33 5C 9E 00 69 89 FE 11 C7 ..zS..e3\..i....
00404EA0 61 28 AD 35 F7 03 22 2E 33 80 16 F6 17 00 D0 FB a(.5..".3.......
00404EB0 53 6E 19 97 67 8D C8 B7 C2 F0 B1 F3 8B 0C 05 E6 Sn..g...........
00404EC0 3B 9F 3F 4C DD FE 00 4D 02 94 CA 74 A6 00 73 6F ;.?L...M...t..so
00404ED0 00 63 93 38 34 26 D1 30 4B A0 EC 60 D3 FF 3B 31 .c.84&.0K..`..;1
00404EE0 95 73 8F 56 49 E0 E9 F5 17 0E 27 00 7D 80 A1 57 .s.VI.....'.}..W
00404EF0 7D 9C 14 A2 14 FF 1C 64 3D 8D 28 FF B0 99 75 12 }......d=.(...u.
00404F00 0C 00 54 09 7A 1C 49 B8 48 5F 01 78 54 63 AA 86 ..T.z.I.H_.xTc..
00404F10 98 4C 00 72 CA 1E 21 6D 84 AD 00 B9 01 A0 6B FF .L.r..!m......k.
00404F20 A8 9B 00 D0 E8 C1 D7 27 AB C1 00 1E AF 63 AA F1 .......'.....c..
00404F30 DF 00 FF 88 00 FF FF FF 00 A2 DB 48 EB 9B 00 15 ...........H....
00404F40 D1 00 66 FF FD F3 AC 5C E7 FF E7 BD 89 06 F6 00 ..f....\........
00404F50 E8 00 3C B7 1F FB 2D 53 64 1E C4 1F 67 31 20 5E ..<...-Sd...g1 ^
00404F60 C0 72 21 CE A6 FE DF 04 46 2E 3B 61 00 5D F5 75 .r!.....F.;a.].u
00404F70 FB EA C5 64 C8 6F 28 43 13 8E FF 5F F9 AB 44 00 ...d.o(C..._..D.
00404F80 52 FF EC 22 07 98 00 2F 58 28 8F 8F 36 37 2F E6 R..".../X(..67/.
00404F90 B3 E0 FD B6 57 FF 48 50 01 B7 07 00 D6 D3 B9 1F ....W.HP........
00404FA0 B0 65 78 18 E0 41 40 C1 A1 A3 43 4B 35 00 B0 7B .ex..A@...CK5..{
00404FB0 70 0C E3 8F 60 A2 2C C4 0D 53 E9 96 00 47 A3 21 p...`.,..S...G.!
00404FC0 00 BB 00 E6 A6 E2 F2 29 22 15 9B 20 E9 C3 00 72 .......)".. ...r
00404FD0 78 14 60 AB 51 D9 00 7A 43 64 00 03 2F 99 6F 28 x.`.Q..zCd../.o(
00404FE0 C1 FF EB 29 B0 00 66 54 00 79 D3 48 00 7C FF 66 ...)..fT.y.H.|.f
00404FF0 AB B0 6A E7 41 09 B5 28 F8 39 E0 FA BB 80 00 04 ..j.A..(.9......
00405000 06 7C 00 FF 03 F2 FD 4E F6 5A 00 00 00 A2 E4 AC .|.....N.Z......
00405010 E9 41 B4 BA 00 F9 B3 DF 71 7D F7 43 E1 D5 FF 17 .A......q}.C....
00405020 27 10 5D B9 62 0B 47 C3 FF 5A D7 D5 78 64 F2 DD '.].b.G..Z..xd..
00405030 01 1E A1 DF 00 00 76 52 C0 32 56 00 A0 D9 4D 03 ......vR.2V...M.
00405040 1E 81 60 2E 10 27 BB C2 00 FF 00 3B 40 C5 84 5D ..`..'.....;@..]
00405050 1B 64 0B B3 9C A3 6B F8 D3 50 0B 67 FA 3C 77 FB .d....k..P.g.<w.
00405060 60 E7 70 41 61 8D DB C6 39 94 07 6A 3E 82 00 39 `.pAa...9..j>..9
00405070 46 0C F1 02 9D 00 23 B7 FF 23 AE 23 CB 10 10 1C F.....#..#.#....
00405080 DB 00 F3 AF 42 00 F2 01 93 C6 F9 E3 00 2C 6F 00 ....B........,o.
00405090 FF EA 07 7A 41 BF FF ED CD 98 D5 FF 00 41 38 DA ...zA........A8.
004050A0 FD FF CF 55 90 FF FC 00 C3 C4 E3 71 19 6F 37 00 ...U.......q.o7.
004050B0 00 67 B5 95 EB 00 A0 FF 0D 9C E1 EE 00 FA 80 1E .g..............
004050C0 3D E4 20 D3 70 58 29 F6 5B 9A 6F 9E 10 00 AB 5A =. .pX).[.o....Z
004050D0 CA 1F 82 3B BE 00 23 A2 71 DF 84 C7 66 04 F0 9E ...;..#.q...f...
004050E0 45 CA 51 81 00 0F 00 7B 62 FF 00 64 B7 00 01 2A E.Q....{b..d...*
004050F0 A0 22 1C 8D 1D 80 FF 30 80 F6 9C 00 BD A3 79 30 .".....0......y0
00405100 10 93 17 88 F8 A7 18 4D B7 FF 27 F0 63 91 D4 00 .......M..'.c...
00405110 9D 52 AB BB DE F9 7C C9 52 00 00 31 91 35 40 13 .R....|.R..1.5@.
00405120 00 05 00 36 C2 13 AF 00 00 25 D1 ED BC 92 B4 F2 ...6.....%......
00405130 CD E0 C0 85 EF FF FF F6 37 F7 8F 30 E2 9A C1 B1 ........7..0....
00405140 00 00 8F FF 00 06 5C F2 B4 CE 01 DD C9 44 A8 C2 ......\......D..
00405150 00 1F AC 02 DD 0E BF 2A 70 FB 8A CF 71 82 E9 61 .......*p...q..a
00405160 E7 00 ED F5 F3 2D 81 02 F1 81 CB 2A 77 54 8F D1 .....-.....*wT..
00405170 FF FC 00 57 A0 88 00 7C 91 00 A3 0A 29 5B EB B0 ...W...|....)[..
00405180 00 84 93 FB 65 28 8D B9 6B 59 B2 E4 C5 59 00 16 ....e(..kY...Y..
00405190 00 DE C1 00 6B 82 00 25 3D DF 00 8D 1F 28 CF 98 ....k..%=....(..
004051A0 FA 8F 00 13 B1 4E A7 80 61 00 96 00 4B 00 00 98 .....N..a...K...
004051B0 E0 F3 5B F4 09 A3 2C DA E2 64 90 85 E8 25 87 6A ..[...,..d...%.j
004051C0 FF 4E 1A 04 5F 60 59 00 0F 3E F9 4A 11 3C 64 DE .N.._`Y..>.J.<d.
004051D0 86 24 E1 00 CA B4 07 E4 56 8D 07 00 E3 8F 11 95 .$......V.......
004051E0 D9 36 D5 9C 08 FB 91 CB B2 04 F6 81 5B 00 F6 FA .6..........[...
004051F0 E3 05 C9 07 34 3E E7 08 00 EF C0 28 D8 00 0C 80 ....4>.....(....
00405200 01 9C FD 96 F2 62 60 53 0D FF 56 F3 BD 44 B4 B9 .....b`S..V..D..
00405210 00 85 00 C9 AD FF 35 08 DF FF 5C 08 21 00 00 03 ......5...\.!...
00405220 21 66 00 37 76 00 38 6E 00 40 3E 50 EC BB EB 3F !f.7v.8n.@>P...?
00405230 AD E8 41 C6 C1 00 83 3E AA D0 29 00 1A 08 38 E2 ..A....>..)...8.
00405240 30 28 FF 00 00 00 00 C9 7C FE 00 00 37 EB 15 0C 0(......|...7...
00405250 00 46 7D EF 1E 36 FF C1 35 FF FD 2E 90 6C 70 3B .F}..6..5....lp;
00405260 5A BB 50 58 F9 1C 60 CB 00 00 08 0A 43 07 08 FC Z.PX..`.....C...
00405270 FF 63 49 FF C4 0A DE 43 66 01 FA 00 00 F2 7A D9 .cI....Cf.....z.
00405280 7D CF 00 A5 00 D7 00 C6 9D 27 CF 11 1D 20 4F FF }........'... O.
00405290 3E 3F AC 57 49 00 7F FF 90 65 78 00 00 99 B2 00 >?.WI....ex.....
004052A0 B5 DC 3C BF F2 B6 4F 00 A4 D1 F0 93 EB 7B 91 D4 ..<...O......{..
004052B0 80 12 9B 00 58 3C BE 02 5C 43 3B EF 00 00 04 C1 ....X<..\C;.....
004052C0 D3 77 00 00 00 FF 66 8E 00 28 90 05 7A FF FF 00 .w....f..(..z...
004052D0 C1 FC CB C0 80 E8 83 00 1F D5 6B 76 85 63 57 25 ..........kv.cW%
004052E0 C4 00 0F E3 9C 11 0C EB CA 99 81 3F 75 9C 6D 03 ...........?u.m.
004052F0 E3 B2 3C A8 C6 EC 40 25 6F 20 D0 00 8C 0B 50 0A ..<...@%o ....P.
00405300 D3 23 FF F7 58 00 CD 20 41 41 BD 87 63 1F 27 00 .#..X.. AA..c.'.
00405310 C0 61 00 58 43 3A 9A 70 04 E6 3B 3F B0 F4 8C 30 .a.XC:.p..;?...0
00405320 39 C9 16 6E DE 34 8F 5B 6C 10 7A C4 0F 0D 90 31 9..n.4.[l.z....1
00405330 92 FF 18 10 00 00 65 5F 7B 44 EF AF BC 07 02 28 ......e_{D.....(
00405340 AE 8D 0C BE 00 D8 04 83 62 7A 0D C8 0E 8B D3 D9 ........bz......
00405350 4D 35 40 18 22 3F EF 42 DA 00 EE E0 53 A8 5A 0E M5@."?.B....S.Z.
00405360 39 C3 95 E6 28 CE 8E 02 50 19 13 78 04 0F 00 FF 9...(...P..x....
00405370 1C F1 3B 5E F2 23 AA 9A 33 6A 99 A4 00 63 E6 FB ..;^.#..3j...c..
00405380 55 1C 72 00 A8 1D 04 77 99 AA 22 A4 18 84 9A 00 U.r....w..".....
00405390 02 00 EA 00 70 5A C9 98 86 0E 03 00 8E DA CE 00 ....pZ..........
004053A0 F9 2F B8 6C CE EF 6C B0 60 D5 59 50 00 4D 44 D8 ./.l..l.`.YP.MD.
004053B0 2C 1E 40 01 EC 7F 64 00 62 4A 2C FF 19 E3 91 B0 ,.@...d.bJ,.....
004053C0 87 3C D9 B8 C3 E0 44 8D DE 4C F2 5D BB 14 81 91 .<....D..L.]....
004053D0 B0 D1 28 BE 2B 81 96 FF B3 D1 6F 2A 79 FF 04 EB ..(.+.....o*y...
004053E0 13 3F 00 08 14 96 00 41 55 7F 00 79 CE 83 75 65 .?.....AU..y..ue
004053F0 14 EE 7E 82 F6 87 12 E2 F3 4C 55 81 7E F0 10 9A ..~......LU.~...
00405400 13 86 79 0D 40 E3 12 CE 94 1B F3 94 B5 A7 27 C7 ..y.@.........'.
00405410 E1 EE 78 84 67 0B FF 0C 43 80 C1 B4 2A 00 93 48 ..x.g...C...*..H
00405420 00 6D AD 00 00 D8 46 07 C4 63 9A F7 E4 80 CE 65 .m....F..c.....e
00405430 54 44 F7 00 13 72 00 21 73 04 5B F8 ED 92 C6 FD TD...r.!s.[.....
00405440 7F C9 75 2F 00 A2 91 00 14 C4 C1 00 08 0D 0E 3B ..u/...........;
00405450 6C 04 7C 71 00 91 31 1C E9 00 00 80 DC FD 91 15 l.|q..1.........
00405460 CB B2 5D C7 BE 24 48 00 AA FF 52 54 7B 7D 50 00 ..]..$H...RT{}P.
00405470 0C E5 78 00 E3 30 1E 18 FF DD 9A E3 B0 74 A7 4D ..x..0.......t.M
00405480 0B 00 20 10 C0 6C AC 48 FF D9 00 24 B6 33 CB 9F .. ..l.H...$.3..
00405490 5D A7 FD F0 58 B7 43 D6 00 63 6A FF F7 1F 99 39 ]...X.C..cj....9
004054A0 4F 00 62 35 37 00 E1 FB 05 96 26 D2 00 9C F0 80 O.b57.....&.....
004054B0 88 FB 95 43 00 00 04 01 04 7A 84 E3 00 AC 11 5E ...C.....z.....^
004054C0 2E BE 83 3C 4B 02 4C 7C 21 B7 52 DF FF 58 95 00 ...<K.L|!.R..X..
004054D0 BA 49 CF B8 9E C3 00 0A 00 37 07 66 29 83 29 5B .I.......7.f).)[
004054E0 E7 7A 60 3B 00 E6 4C 00 40 FF C6 FF 3A E8 94 FF .z`;..L.@...:...
004054F0 D7 82 F9 1B 6D FF 00 92 08 B5 AF AE C8 C6 D0 00 ....m...........
00405500 A7 E8 C8 EA B9 00 C5 71 53 C5 6F D1 F4 38 1C A1 .......qS.o..8..
00405510 30 31 1E 47 20 F2 70 00 CD 93 0A B1 0D EA 9F 3C 01.G .p........<
00405520 00 81 70 8D FF AA A2 8C 23 00 5F B6 63 0D D9 6C ..p.....#._.c..l
00405530 2C 2F 00 93 12 46 76 44 81 00 48 C4 CA 9B 00 25 ,/...FvD..H....%
00405540 55 03 2E 19 D4 37 A4 F3 42 36 73 08 3D 00 0C BD U....7..B6s.=...
00405550 52 FF 8F BF 00 B7 1D 00 01 4C 29 00 AC 8C A4 F9 R........L).....
00405560 8F 47 88 AC 00 00 14 A5 D2 E0 FF 5F 0E 02 C9 FD .G........._....
00405570 96 43 BA 0B 00 30 14 4A 02 CD 47 5D 1E FD 00 CF .C...0.J..G]....
00405580 17 7F 00 C0 00 50 00 00 21 92 8F 7C FF 6D B3 FF .....P..!..|.m..
00405590 2E 1C 00 01 5A 21 00 30 00 00 86 DE C7 42 13 10 ....Z!.0.....B..
004055A0 44 6F 16 00 BC A1 11 B0 05 B5 C9 7C 5D CA 00 C3 Do.........|]...
004055B0 FF 72 00 FF 43 D8 4F 0D 7E F8 B7 37 0B F9 1D 55 .r..C.O.~..7...U
004055C0 0E 6B 19 EE 1C 03 CB 8E B1 C2 69 E1 63 F3 0E A1 .k........i.c...
004055D0 20 A5 B5 57 00 FB 02 DE C1 08 0E 26 59 2B 93 B2  ..W.......&Y+..
004055E0 60 04 82 DE 8B 00 40 21 0D 30 B7 1D 9A 49 FC FF `.....@!.0...I..
004055F0 03 57 9A 60 DC C8 85 54 02 FF 82 F6 0A 13 00 00 .W.`...T........
00405600 2D DA DC 1B 0E F8 58 94 5B CB 7A C5 ED 53 00 A3 -.....X.[.z..S..
00405610 B1 BA FC C9 01 91 68 38 D1 53 74 E6 7E 77 C4 FF ......h8.St.~w..
00405620 3A 00 E7 C2 22 98 00 FF 96 00 5D 00 FF 00 26 F0 :...".....]...&.
00405630 98 B7 18 6E D3 00 0F EF 5F 12 39 63 60 52 00 3D ...n...._.9c`R.=
00405640 FC CA 73 D5 52 17 E9 00 3D D3 31 E5 E5 8F 8B 7B ..s.R...=.1....{
00405650 22 00 98 6B 01 0C 78 72 00 95 A6 2B CD 15 FF 06 "..k..xr...+....
00405660 F1 00 C0 E2 FF 86 98 D7 08 A4 00 2D F7 A3 E2 00 ...........-....
00405670 64 8B BD 04 AD 86 E9 60 3E 67 00 7E FF 00 2E 3C d......`>g.~...<
00405680 00 A9 C4 FF 74 00 B7 D5 B2 02 5A 10 62 F9 AD 05 ....t.....Z.b...
00405690 6C CB C4 90 BF 22 8D FF 09 FA 97 00 FF 30 7C 34 l....".......0|4
004056A0 FA AA 3E EE 5A F2 C2 00 B0 BA C5 16 24 00 24 BA ..>.Z.......$.$.
004056B0 48 00 00 8A A2 43 BC 1C 00 FE FD 99 40 44 0B 95 H....C......@D..
004056C0 1A 66 0C 25 23 66 28 CA 00 10 D5 C0 33 AB FF 6E .f.%#f(.....3..n
004056D0 25 AE 8D 38 43 00 CF 0C 04 85 AB 67 69 05 00 00 %..8C......gi...
004056E0 ED F8 2C C9 E0 23 A1 D9 64 E5 34 13 00 3C 18 78 ..,..#..d.4..<.x
004056F0 A8 8F FC 00 3F EB 1E 63 00 00 13 C0 71 FF 52 81 ....?..c....q.R.
00405700 22 53 63 E3 00 00 2C 0E 63 46 8D 13 CE 00 70 77 "Sc...,.cF....pw
00405710 00 4F 4D FF 21 2F 70 96 CB 40 AE 5C 2B 2D 0E 00 .OM.!/p..@.\+-..
00405720 F6 87 22 44 3D 3B 9A 4C 32 FF FB 5C 00 B2 C3 D0 .."D=;.L2..\....
00405730 72 55 F6 00 2F FE 75 4C B9 B0 40 DA 6E 08 10 00 rU../.uL..@.n...
00405740 DA 1B 38 D9 A7 5A FF CF BB 14 BE 90 94 39 CC 00 ..8..Z.......9..
00405750 00 FD 0C 04 06 0F 10 B7 5F 33 76 6A C4 1C 29 80 ........_3vj..).
00405760 AD 00 29 66 DE 77 71 36 8B BF 00 98 66 64 2F FB ..)f.wq6....fd/.
00405770 76 02 C4 8A 91 27 16 4B 65 7D 8C 4F F7 BE 40 34 v....'.Ke}.O..@4
00405780 00 E0 B4 D6 70 ED C3 A6 B7 03 00 83 63 0E 09 EC ....p.......c...
00405790 2E 0F E5 E9 00 1C F6 E5 DC 29 63 F6 07 F0 CC C1 .........)c.....
004057A0 0A A0 17 3D B2 9C 9B 4E 64 31 C7 0E 9F 43 7F E1 ...=...Nd1...C..
004057B0 F6 00 71 DC BC C2 6C 63 C7 BA 30 34 10 B3 DC 3C ..q...lc..04...<
004057C0 0A 19 9C A3 48 A7 3B E1 79 E9 46 00 94 58 25 54 ....H.;.y.F..X%T
004057D0 11 E9 39 00 05 9B 2A 00 00 31 00 20 97 7A EC 01 ..9...*..1. .z..
004057E0 77 FF C3 97 1A 00 EA 93 00 9A 8D 00 F8 02 01 D4 w...............
004057F0 C7 52 0D 88 00 FF 00 54 00 EB 00 A2 70 00 E8 0B .R.....T....p...
00405800 12 AB 27 1B D6 56 0D F3 C5 98 C7 DB 00 F0 86 FF ..'..V..........
00405810 02 00 50 81 00 00 10 E2 0B FF 9E 00 AA 1B 8F 00 ..P.............
00405820 AB 04 0C 74 08 D3 92 8C 00 08 9B 2D 11 0D 82 02 ...t.......-....
00405830 00 9A 27 8A 3F 59 00 DF 00 B1 74 45 2D 2F 5F 02 ..'.?Y....tE-/_.
00405840 11 E2 C3 79 00 DE 00 3D 5D B2 6B F6 8D 07 18 15 ...y...=].k.....
00405850 3A E2 3B FF 43 AD 6D A9 00 D0 DD 9E 26 33 74 59 :.;.C.m.....&3tY
00405860 64 05 92 06 24 4E 13 29 50 58 06 08 40 D3 00 EF d...$N.)PX..@...
00405870 27 50 FF E6 CA F0 AB 00 FA C6 07 64 4D 93 7B E5 'P.........dM.{.
00405880 35 5C 1B 07 4B E5 DB 12 02 20 FC B7 1F 00 00 AA 5\..K.... ......
00405890 E7 B0 82 CA 6C 95 FA F0 7F D3 26 00 92 19 D4 5C ....l.....&....\
004058A0 00 58 C8 E0 A7 29 BF 15 21 3C 2B 0E 00 BD 00 21 .X...)..!<+....!
004058B0 48 00 F7 AF 8A FF C7 FF F3 06 FD 41 61 8D 18 3C H..........Aa..<
004058C0 00 46 00 00 88 82 39 E0 83 0F 63 BF 27 12 00 16 .F....9...c.'...
004058D0 00 DA 00 00 C3 76 FF B6 00 1A 00 F4 EA 81 00 89 .....v..........
004058E0 FD 72 60 BF 80 E0 50 10 89 0B 29 BF 6C 60 29 9B .r`...P...).l`).
004058F0 D4 00 00 00 D9 00 8E 00 AE 00 DC D9 83 B6 BD 8F ................
00405900 35 C4 13 D2 B2 3E BD 00 C3 62 42 7F 7B 87 74 DE 5....>...bB.{.t.
00405910 04 4C D2 EF E7 23 00 FF B6 40 FC 21 89 00 00 A8 .L...#...@.!....
00405920 91 38 00 8F A8 C6 6D D6 A6 00 31 4D 00 D7 A8 D0 .8....m...1M....
00405930 42 18 12 01 BE 92 11 91 F7 DD 00 EB 8A 86 83 00 B...............
00405940 F1 1A A5 00 7C 43 B8 00 A4 F1 E7 E2 9D 6A BE 31 ....|C.......j.1
00405950 FD EE 69 C7 D2 02 E4 FF 8C 59 3C 7C 00 68 E8 F6 ..i......Y<|.h..
00405960 00 EE 18 B1 B7 66 B4 E8 10 BB 00 6E 04 08 00 82 .....f.....n....
00405970 00 A8 4F EC 3A FF 8A 6A 0C 99 C2 C4 4F DB F4 27 ..O.:..j....O..'
00405980 75 00 04 8B EB 04 A6 00 1B 0C E8 1B 8D 38 A2 0A u............8..
00405990 24 78 3A 75 65 F6 8C FF F2 EE 71 74 59 6C 66 E0 $x:ue.....qtYlf.
004059A0 A3 00 FF C7 F0 00 D8 C8 FD 9F D3 C7 00 F7 BA 5A ...............Z
004059B0 8D 00 39 28 07 2E CF 16 20 50 65 AF 00 8E FF F9 ..9(.... Pe.....
004059C0 00 87 C6 2A 11 FF 00 A7 40 3F 4C 81 9E 57 06 3F ...*....@?L..W.?
004059D0 00 00 EB DD B6 B6 54 F4 DD 00 76 20 DC 00 F0 3D ......T...v ...=
004059E0 5F D6 ED C2 64 50 34 4B E5 DB 08 00 E3 88 79 54 _...dP4K......yT
004059F0 1A B6 3B F0 0D 43 0C 56 B4 3D 61 57 8C 00 33 24 ..;..C.V.=aW..3$
00405A00 92 04 A8 82 2A E3 39 F6 2F F9 A0 00 14 0A 00 46 ....*.9./......F
00405A10 E0 6F 16 79 AF 3B 36 FF FF 1E E5 00 0B 87 80 CE .o.y.;6.........
00405A20 97 1E 30 4E 48 FE 7C 86 36 1A 23 00 80 26 31 00 ..0NH.|.6.#..&1.
00405A30 77 80 00 F9 00 12 F2 58 7C 0F 9A 86 8B A5 00 E4 w......X|.......
00405A40 DF 3E 4E 00 00 00 E2 0D 28 EF FF 8E 64 4C 38 00 .>N.....(...dL8.
00405A50 6F 9C 52 4C DE C9 43 00 18 D6 49 FE 00 58 1A 5A o.RL..C...I..X.Z
00405A60 54 33 A9 A8 7F AD CC BE 3F 00 00 C1 B5 E8 3A E0 T3......?.....:.
00405A70 6B 22 CE 9B 00 02 8C 00 09 7E 59 C0 FE 49 B1 F4 k".......~Y..I..
00405A80 0B 04 DB 22 15 26 37 E4 2B 3E 00 F7 6A 40 1D 80 ...".&7.+>..j@..
00405A90 91 AE FF 98 14 00 86 4B 06 4E 31 46 FF 3A AF 78 .......K.N1F.:.x
00405AA0 8D 12 48 E8 42 9C 0B 60 9C 0C 7F 3D A1 31 EA 42 ..H.B..`...=.1.B
00405AB0 00 1C 4F 73 AA 20 6C 0A 12 5A 6A FF 00 08 FF 73 ..Os. l..Zj....s
00405AC0 53 55 66 EF 38 F7 F3 60 C7 FF 43 F5 FF 2C 7E 34 SUf.8..`..C..,~4
00405AD0 00 62 89 6C 17 B7 51 CF E8 D6 00 40 68 5D 25 FE .b.l..Q....@h]%.
00405AE0 91 F7 12 45 06 50 DF 5F 2E D0 28 F8 83 E9 CB C5 ...E.P._..(.....
00405AF0 FF 79 41 CF E0 8A 00 00 50 27 BF 76 FF FF 85 37 .yA.....P'.v...7
00405B00 00 00 F1 EB 00 FD B1 0F 40 71 0C CA 9D 0F BE 22 ........@q....."
00405B10 4A 00 00 1C 71 C6 1A DB 11 08 0C C5 00 EB FF 89 J...q...........
00405B20 78 25 34 91 38 99 00 7D 56 A2 D0 9A A2 80 FB 76 x%4.8..}V......v
00405B30 00 67 83 23 04 1F 9C CC BB CD 04 76 C2 AD 00 D1 .g.#.......v....
00405B40 F3 E4 7E D9 D7 3C 19 E6 00 00 5A 00 06 00 09 B0 ..~..<....Z.....
00405B50 53 06 83 4E AB 0C 00 7E FA FF 93 5C C3 9C BF 10 S..N...~...\....
00405B60 4A 6C E9 8A 1A CC 00 45 C2 C9 26 41 ED 92 B8 FB Jl.....E..&A....
00405B70 86 02 1E BA F7 D6 47 81 77 D2 52 0E F4 EF 00 12 ......G.w.R.....
00405B80 ED 9B ED 00 48 69 A0 D8 21 00 A6 8A 00 1E 00 E4 ....Hi..!.......
00405B90 00 04 98 04 00 80 00 DE F7 BD 5D 53 D6 39 D7 25 ..........]S.9.%
00405BA0 76 DD A3 37 00 AB DE 00 58 DD FF E1 C3 FF 15 0B v..7....X.......
00405BB0 23 C6 00 43 00 88 DF FF 52 00 B5 E5 B2 53 14 04 #..C....R....S..
00405BC0 13 25 00 C9 A6 67 00 14 67 00 10 C3 4C A1 00 00 .%...g..g...L...
00405BD0 06 AA 00 C3 FF 7A 3E C6 17 8F 00 00 6C A5 90 35 .....z>.....l..5
00405BE0 06 43 A2 D6 94 78 00 77 66 C1 95 21 39 00 81 42 .C...x.wf..!9..B
00405BF0 FF FF EF 5D B7 3B 71 A8 B5 EF 4F 00 19 67 76 F7 ...].;q...O..gv.
00405C00 00 00 00 F7 00 48 1A 4C 72 52 83 26 09 71 CF 00 .....H.LrR.&.q..
00405C10 00 0A 08 60 3F A4 D3 C5 00 00 37 00 26 A3 D7 87 ...`?.....7.&...
00405C20 7B 05 BF 3B 88 1C C5 D7 24 95 61 3F D5 AD 31 B8 {..;....$.a?..1.
00405C30 00 6F 97 3D 00 74 7B 7B B7 93 75 B0 90 C3 51 09 .o.=.t{{..u...Q.
00405C40 DE 4C D2 37 41 DE 00 D2 8B 66 01 3F 4E 00 87 15 .L.7A....f.?N...
00405C50 5C 6A 8D 6F 00 CA 95 9F D1 C3 5E 78 5A AD 97 23 \j.o......^xZ..#
00405C60 7F A5 00 90 FF 00 FF 00 BF 4A EE FF 69 98 83 00 .........J..i...
00405C70 CF 75 C8 26 C1 CA 7A FE 40 00 82 30 A2 70 F7 95 .u.&..z.@..0.p..
00405C80 81 C7 FA 37 DF C1 00 00 00 1A 23 E6 0E 47 00 73 ...7......#..G.s
00405C90 04 F5 00 3A 03 6C 00 59 77 E6 6D CF 52 FC 00 3A ...:.l.Yw.m.R..:
00405CA0 D9 F0 FF 12 0D F1 FB 5C 7E 7F 94 C3 68 60 C8 0A .......\~...h`..
00405CB0 35 CA 07 0A 83 06 B0 A5 41 82 D3 00 00 4C 72 3D 5.......A....Lr=
00405CC0 43 80 00 00 3A 00 00 90 FF D8 08 BE C0 00 A3 00 C...:...........
00405CD0 00 6A CD 1C 2F 25 83 00 3C 7C F5 7A 08 1D 55 01 .j../%..<|.z..U.
00405CE0 81 B4 31 F5 49 F4 C9 A1 C7 13 DE DA 57 C7 78 00 ..1.I.......W.x.
00405CF0 A6 C6 4F A8 BA DF 61 72 1E 00 D6 00 00 CA D4 19 ..O...ar........
00405D00 0F 99 FF E4 00 52 03 3F 90 2E B7 FF 3F 1F E3 55 .....R.?....?..U
00405D10 99 DA 3D E1 62 03 2F FF 3D FF 76 C4 C7 34 75 32 ..=.b./.=.v..4u2
00405D20 AC 00 7F EB 00 00 EB 8F 59 0E 00 1D 91 45 DC C2 ........Y....E..
00405D30 F9 28 1E 46 39 5A 00 97 00 54 3C 46 E6 2C 8B 70 .(.F9Z...T<F.,.p
00405D40 15 D0 60 3C D2 77 F6 5B B7 A5 A8 6A 87 00 00 28 ..`<.w.[...j...(
00405D50 99 00 E2 90 95 00 C8 FF EE 00 00 87 95 92 0D 08 ................
00405D60 00 6F B8 47 00 FF E7 E6 2E A1 AE 39 0A AF 00 21 .o.G.......9...!
00405D70 D8 FF FA B1 0B 72 F3 FE EB D2 BD 38 6E C5 67 13 .....r.....8n.g.
00405D80 FF 00 FF 00 7F 1C 36 F9 FC C5 FD 7F 4E 5A 0A E0 ......6.....NZ..
00405D90 93 F8 32 38 7C AC 61 87 BD F7 64 CA 9B 48 00 78 ..28|.a...d..H.x
00405DA0 24 6C 07 8C 87 DB 5E D0 FD 16 28 62 DB F4 00 2E $l....^...(b....
00405DB0 00 62 FF 05 98 6E 3B 26 EF 31 BE E2 B2 50 47 A8 .b...n;&.1...PG.
00405DC0 BA 20 AA 1D B0 89 17 42 5F 40 81 FB F0 00 21 8F . .....B_@....!.
00405DD0 00 0A 00 EB 3F 34 05 3A BB E4 00 6C 41 80 60 78 ....?4.:...lA.`x
00405DE0 FF FF D4 8C 19 AE 51 00 00 10 BB 19 ED 67 27 5D ......Q......g']
00405DF0 72 C0 BD 65 26 05 C1 C4 09 CB 08 00 00 FE 7C 0B r..e&.........|.
00405E00 1C BA 83 6E 06 6D 00 FF 26 AD CB C2 25 4F 11 63 ...n.m..&...%O.c
00405E10 26 0C DF 34 F9 E3 91 04 1D E1 13 FF C9 FD 1A F7 &..4............
00405E20 7C 00 96 00 1B 09 A5 63 38 03 69 C3 FF 30 00 00 |......c8.i..0..
00405E30 00 C5 3C 17 EB 02 44 6F 23 64 9C 0E 7F 66 1B 00 ..<...Do#d...f..
00405E40 4E F7 E2 00 DA C6 C2 8D FA 63 FF 1B 1D D9 FF 9D N........c......
00405E50 00 E5 33 C1 72 85 00 FF 1D FF B4 00 34 50 8A F1 ..3.r.......4P..
00405E60 EE 3B 00 B4 01 00 00 E1 00 07 00 F7 C4 43 7E 5C .;...........C~\
00405E70 A2 8D 80 1E C9 8D 3F 00 3D 44 07 21 FB 10 24 B8 ......?.=D.!..$.
00405E80 B4 E1 81 04 2C 00 15 00 FF 2C DF A1 BD 24 8B 3F ....,....,...$.?
00405E90 80 3A 00 64 3D A1 3D 31 91 96 E1 00 F9 00 D6 D8 .:.d=.=1........
00405EA0 EA E1 05 C0 4F EC 8C 5B 00 07 70 13 00 FF 00 91 ....O..[..p.....
00405EB0 7F F2 9F B6 76 88 28 00 01 5B CE 85 3E 1D 00 B0 ....v.(..[..>...
00405EC0 A4 A0 6C 0D C5 19 89 48 59 CC 4D FF F2 72 17 D4 ..l....HY.M..r..
00405ED0 00 00 CE 5F DE 0C DB A5 62 F8 00 BD 02 00 0E A5 ..._....b.......
00405EE0 8A D1 B9 B8 1C 3C 00 F0 71 98 18 B9 00 05 BB 42 .....<..q......B
00405EF0 00 D5 76 20 2E FF 40 16 28 D1 7E 88 83 4A 33 5B ..v ..@.(.~..J3[
00405F00 4F C3 00 5A 36 78 20 4B 00 15 22 30 00 00 FF 2F O..Z6x K.."0.../
00405F10 FF 00 00 0B 6A FF A0 5B ED 25 DF 0B 4D F8 C8 42 ....j..[.%..M..B
00405F20 D0 36 00 9F E4 00 0A CC A3 33 99 00 2D 80 D5 0B .6.......3..-...
00405F30 CE 0A D1 E2 B1 EA 66 9A A7 1F 52 39 D2 51 00 BD ......f...R9.Q..
00405F40 DA B1 74 00 00 E9 8E 06 88 64 00 73 BB 18 00 E6 ..t......d.s....
00405F50 9F 00 00 3E 0D FA 3A E6 00 00 C3 1C 00 30 2D 41 ...>..:......0-A
00405F60 06 C1 39 7B 23 13 03 42 AE D4 03 94 C1 18 0D FB ..9{#..B........
00405F70 19 F0 1F 73 00 00 9E 00 56 FE B7 36 F5 F4 FF FF ...s....V..6....
00405F80 38 00 B8 2C EC B3 3A 51 36 9E AD F1 04 6D F4 9E 8..,..:Q6....m..
00405F90 D3 F6 0E D8 0F 85 76 5A 00 58 85 B7 B0 FF 15 4B ......vZ.X.....K
00405FA0 43 96 FF 54 25 FF 75 F7 06 C1 66 7D 9F A1 00 00 C..T%.u...f}....
00405FB0 23 03 66 00 8B 00 91 07 89 CE FF 8C 1E 1D 00 CE #.f.............
00405FC0 78 A0 DB DD C2 06 EA 1D FF 2A DF B3 64 9E 00 34 x........*..d..4
00405FD0 BA E4 D3 5C DD FD 00 79 FD 1E DC 75 B8 F4 AC 9D ...\...y...u....
00405FE0 F3 0F 24 A0 0E 19 00 6F AD F3 D4 B8 00 E5 00 8A ..$....o........
00405FF0 9C 44 1A 01 64 57 00 F9 51 84 06 F6 87 FF 7A E1 .D..dW..Q.....z.
00406000 2C 93 0B C6 3C 17 49 79 78 31 6C 3E 0A 17 58 FF ,...<.Iyx1l>..X.
00406010 61 7D 0F DF 77 B1 AC BD BC 83 2A 0E C3 13 84 00 a}..w.....*.....
00406020 89 81 51 CA 0A 72 73 B5 CC 87 23 00 5C CF B9 00 ..Q..rs...#.\...
00406030 8D F7 CB 00 31 9B 00 3D F0 06 08 6A FF C2 40 01 ....1..=...j..@.
00406040 3F D0 00 8B 4B 00 FF 2C F8 7C B7 00 52 BF 00 74 ?...K..,.|..R..t
00406050 04 A3 41 B9 C3 BA 00 02 6F 83 97 FF 7F 1F 34 FF ..A.....o.....4.
00406060 67 63 00 E4 0F 0F 00 A5 4A 88 02 DB 4A 00 CC 0D gc......J...J...
00406070 D1 00 B1 58 00 FE 8B BD 00 20 93 58 00 00 06 11 ...X..... .X....
00406080 1C 87 FF 00 00 D8 80 81 00 A1 00 5E 2D 70 02 66 ...........^-p.f
00406090 F5 A5 6F 86 02 00 E4 D0 97 E0 E4 02 CE FF 38 FA ..o...........8.
004060A0 28 52 6A 8A 0B 2D D6 45 AA B1 00 49 00 8A 22 FC (Rj..-.E...I..".
004060B0 DE 89 40 95 FF 6B 72 00 00 FB 1B 73 00 00 24 02 ..@..kr....s..$.
004060C0 C0 0D 3A 43 B2 00 66 00 46 C8 29 00 F4 50 C4 00 ..:C..f.F.)..P..
004060D0 13 18 83 6C 00 F9 87 FF 45 23 3C 47 06 D5 FF E4 ...l....E#<G....
004060E0 FF 70 BC 20 3E 00 A3 FD 9F 10 CC 00 B9 F4 C7 87 .p. >...........
004060F0 EC 00 2C 1D 6D 00 71 00 1B E8 00 2A DF 00 6C 19 ..,.m.q....*..l.
00406100 F9 24 27 C5 91 BB 6D ED 8E DE 77 5D 76 3F 64 F2 .$'...m...w]v?d.
00406110 FF AA 00 B0 9D F8 3E FF 00 5D B8 40 00 5D 92 14 ......>..].@.]..
00406120 87 53 01 3A 41 6B 38 74 2E F0 00 02 86 00 6A 00 .S.:Ak8t......j.
00406130 9A 68 35 00 23 00 68 76 B2 B8 FF B2 60 25 33 D1 .h5.#.hv....`%3.
00406140 00 A6 7B 24 11 30 9E 0E D5 29 7F E9 01 06 5C 9A ..{$.0...)....\.
00406150 FF E6 AA D0 00 7C 1F 2F 70 D1 E3 A5 A3 1F 6A AB .....|./p.....j.
00406160 C1 20 00 74 85 30 00 7E 1F FC FF 64 38 F8 1C E2 . .t.0.~...d8...
00406170 FF 00 F2 01 D6 68 97 04 AE 00 00 3F 03 42 A1 7C .....h.....?.B.|
00406180 0C F2 03 92 6F 7F 5D FE 00 00 3C D4 4A 47 00 AD ....o.]...<.JG..
00406190 87 C7 CC 00 C7 00 80 FE 09 69 C8 CA 00 14 00 FE .........i......
004061A0 E2 80 00 E2 01 75 18 51 F7 7B C2 00 F1 F7 D2 33 .....u.Q.{.....3
004061B0 33 FC 20 F5 C7 00 EC 8D 00 F1 C3 04 FF 00 00 30 3. ............0
004061C0 C3 EC EC 49 00 08 C9 85 EF C7 FF EB 22 00 F5 0E ...I........"...
004061D0 24 3E 0A 15 93 62 1F 00 1F 9B C3 0C 29 CC 1A 22 $>...b......).."
004061E0 E4 CD 7F 98 AE A0 5E 00 FE EB 40 42 3A 00 FF A1 ......^...@B:...
004061F0 F8 5A 1B DE C7 00 51 73 22 14 33 6C 55 00 FF 31 .Z....Qs".3lU..1
00406200 42 0E 8D 82 D8 85 B6 36 76 66 62 83 C5 46 00 4E B......6vfb..F.N
00406210 04 FA FF 44 F3 D7 3C FF 97 E8 00 60 06 00 C1 61 ...D..<....`...a
00406220 FF 13 6A 40 40 DA 8F 1C 1C EF 30 76 22 E4 7D 60 ..j@@.....0v".}`
00406230 34 B6 FF D5 10 01 10 7F 01 12 16 00 CC E4 00 FE 4...............
00406240 00 60 B4 D3 D7 56 FF 0C 78 B8 57 71 83 5A 5F CF .`...V..x.Wq.Z_.
00406250 21 00 FF 68 FF EC 02 36 B0 F4 F2 CF FF 00 E5 F1 !..h...6........
00406260 29 00 00 68 09 03 5E BF 74 F0 54 F7 B5 DF FF DE )..h..^.t.T.....
00406270 06 6D FF D4 BA 0B AA B3 00 2F 7C 0F 00 27 F2 05 .m......./|..'..
00406280 10 FF 06 00 3D 0A 0C 5C 2F 00 57 72 7F 45 7A 54 ....=..\/.Wr.EzT
00406290 16 F2 FF 00 43 00 61 F1 1C B9 08 AB 00 4E 96 A4 ....C.a......N..
004062A0 00 C9 CB 61 00 BA 70 70 05 00 BB 55 C8 45 CF 80 ...a..pp...U.E..
004062B0 00 4B 2C 00 85 24 23 81 14 8D BF 00 B0 D9 9B 30 .K,..$#........0
004062C0 C3 98 F2 1A FF FE DE 74 40 FC 00 00 8E 54 FF C6 .......t@....T..
004062D0 5E EE 66 82 7D DF 00 FF 06 C5 14 FF 6F 00 28 31 ^.f.}.......o.(1
004062E0 13 50 00 FE 89 63 A6 00 04 29 F3 27 00 00 B9 10 .P...c...).'....
004062F0 B1 F4 DF 63 6A B6 00 A2 00 BA A8 84 19 00 C8 A0 ...cj...........
00406300 07 00 92 A9 00 18 D1 52 FF 15 00 C7 73 CF 00 BC .......R....s...
00406310 F2 00 40 F4 2F 00 3C 1D 00 87 BB 46 91 36 02 78 ..@./.<....F.6.x
00406320 FF BF 0B FF FF AD 66 F3 4D FF FF C3 0C 0A 00 A2 ......f.M.......
00406330 D5 45 F5 0B 3F 37 0E 7C 25 E5 00 80 44 C6 73 89 .E..?7.|%...D.s.
00406340 34 60 10 6C 1E C1 00 E7 F6 45 AF AF A9 54 20 20 4`.l.....E...T  
00406350 9F C1 8C 00 5E 35 53 FE 00 D0 C4 FF C0 00 03 6F ....^5S........o
00406360 2E EC 00 9E 32 06 00 8B 66 67 24 A6 A0 3E 70 0D ....2...fg$..>p.
00406370 74 F9 00 18 1A 00 8C 44 2D FF 3B 2C 70 00 C3 99 t......D-.;,p...
00406380 CB 12 B0 FD 00 C9 8C D8 A0 00 4D 6A 6E 14 3B 38 ..........Mjn.;8
00406390 A1 0C A4 0B 05 00 77 00 75 5B 03 0C C8 71 27 00 ......w.u[...q'.
004063A0 3D F9 FF 05 0F FF B1 00 B1 99 00 06 45 18 D3 DA =...........E...
004063B0 F9 38 18 FF DE 81 00 98 E3 2E 28 38 FF 31 41 7F .8........(8.1A.
004063C0 E0 4A E8 68 7D 8F 84 37 63 B3 3C 3D 8C FD E1 06 .J.h}..7c.<=....
004063D0 00 71 00 5C 74 10 00 90 89 53 DC 8A 00 54 61 00 .q.\t....S...Ta.
004063E0 D9 A6 1B 24 9F 24 0D E7 31 36 2E D6 ED BD AF 01 ...$.$..16......
004063F0 BB 93 23 97 B0 40 CF 00 00 C2 CC 00 64 00 F4 9E ..#..@......d...
00406400 B8 8E 14 06 1E 27 00 00 42 00 DB 21 84 75 81 25 .....'..B..!.u.%
00406410 47 BD 18 5E D7 F3 00 F6 10 11 2C 93 F6 AD 93 4D G..^......,....M
00406420 2F 97 73 FE 8F C7 00 0C 32 E0 85 6A 00 92 F0 FF /.s.....2..j....
00406430 76 5B 2E 03 93 58 EC DA 00 44 00 D6 F9 F5 82 4E v[...X...D.....N
00406440 77 B3 79 29 48 06 64 AB 00 48 F5 C3 F1 00 71 F0 w.y)H.d..H....q.
00406450 2F D3 79 00 20 34 46 D7 E7 7C C6 B6 56 33 54 23 /.y. 4F..|..V3T#
00406460 0A 0E AB 4B 7F 33 00 00 02 E3 E8 05 06 C4 EE 45 ...K.3.........E
00406470 00 FC 77 9F B6 49 40 C8 01 21 A6 1F 56 31 25 2F ..w..I@..!..V1%/
00406480 80 8C 00 E7 3F 7E D8 3A 00 F9 00 6F F0 CD D5 D3 ....?~.:...o....
00406490 00 54 00 BF CB B8 73 A0 FF F6 FF DC 91 9B C0 3D .T....s........=
004064A0 DF 5B 8D BD 55 EA 38 7D C8 40 E6 56 9F 3F BC 87 .[..U.8}.@.V.?..
004064B0 73 00 0C 10 93 0E 77 07 FF 1E 2A E5 1F B3 E9 11 s.....w...*.....
004064C0 C0 39 BF F2 E7 F6 B7 0C D0 CB 9F 35 37 02 73 C7 .9.........57.s.
004064D0 68 00 E0 35 F7 FF 00 89 07 40 8A AA F9 6A C7 FF h..5.....@...j..
004064E0 67 00 DE 02 00 7D 00 01 A1 09 00 67 96 00 00 95 g....}.....g....
004064F0 41 DB B7 74 CC 00 09 37 0D 0E 84 8B 00 22 1E 7D A..t...7.....".}
00406500 1F F1 00 3F D4 41 CE AE 74 F1 C2 00 87 7F 68 00 ...?.A..t.....h.
00406510 00 62 7D 1C DF CE 24 E0 9C 48 59 48 00 B1 AF 0F .b}...$..HYH....
00406520 00 40 00 6A EB 67 50 73 AF FF 70 0C C9 61 20 ED .@.j.gPs..p..a .
00406530 3E 6D EF D9 17 50 F4 FF 7C 6F E9 6D 92 25 A3 C2 >m...P..|o.m.%..
00406540 00 BA EE 5A 9C 9B 0C F1 00 00 08 54 35 1D 0D CE ...Z.......T5...
00406550 02 00 4C F6 D8 BA 45 DF E0 A3 58 DC 1B 3F 10 FD ..L...E...X..?..
00406560 FB 00 88 4A B0 47 B3 11 EE 78 00 DC 7F D4 09 EB ...J.G...x......
00406570 F4 32 FD 00 6D 74 28 C9 17 C8 9A 00 00 F2 CC 08 .2..mt(.........
00406580 AE 00 4D 11 00 05 47 5E FF 2B BE 05 43 BC A5 1C ..M...G^.+..C...
00406590 B9 1B F2 E2 E8 FF 55 19 94 55 46 29 0E 65 3E B6 ......U..UF).e>.
004065A0 26 00 00 29 A1 7F 77 A3 60 03 9D 20 9A 39 00 8D &..)..w.`.. .9..
004065B0 0E FF 1F 8D 79 50 FF C1 A0 7C B2 5F 76 F9 01 DB ....yP...|._v...
004065C0 3D FF 58 39 84 C5 E3 E1 4B 72 FB 1E CC 83 00 12 =.X9....Kr......
004065D0 DC 47 53 CD 00 81 FE FF 00 60 27 F3 3C 21 8F B1 .GS......`'.<!..
004065E0 4B 17 25 3C 11 00 00 47 39 7F 43 ED C2 00 3D 28 K.%<...G9.C...=(
004065F0 4B 8E 8C B4 93 B9 85 99 B6 6D C7 FF 75 EB EB 8B K........m..u...
00406600 00 00 00 00 00 00 00 00 00 00 00 00 00 00 00 00 ................
00406610 00 00 00 00 00 00 00 00 00 00 00 00 00 00 00 00 ................
00406620 00 00 00 00 00 00 00 00 00 00 00 00 00 00 00 00 ................
00406630 00 00 00 00 00 00 00 00 00 00 00 00 00 00 00 00 ................
00406640 00 00 00 00 00 00 00 00 00 00 00 00 00 00 00 00 ................
00406650 00 00 00 00 00 00 00 00 00 00 00 00 00 00 00 00 ................
00406660 00 00 00 00 00 00 00 00 00 00 00 00 00 00 00 00 ................
00406670 00 00 00 00 00 00 00 00 00 00 00 00 00 00 00 00 ................
00406680 00 00 00 00 00 00 00 00 00 00 00 00 00 00 00 00 ................
00406690 00 00 00 00 00 00 00 00 00 00 00 00 00 00 00 00 ................
004066A0 00 00 00 00 00 00 00 00 00 00 00 00 00 00 00 00 ................
004066B0 00 00 00 00 00 00 00 00 00 00 00 00 00 00 00 00 ................
004066C0 00 00 00 00 00 00 00 00 00 00 00 00 00 00 00 00 ................
004066D0 00 00 00 00 00 00 00 00 00 00 00 00 00 00 00 00 ................
004066E0 00 00 00 00 00 00 00 00 00 00 00 00 00 00 00 00 ................
004066F0 00 00 00 00 00 00 00 00 00 00 00 00 00 00 00 00 ................
00406700 00 00 00 00 00 00 00 00 00 00 00 00 00 00 00 00 ................
00406710 00 00 00 00 00 00 00 00 00 00 00 00 00 00 00 00 ................
00406720 00 00 00 00 00 00 00 00 00 00 00 00 00 00 00 00 ................
00406730 00 00 00 00 00 00 00 00 00 00 00 00 00 00 00 00 ................
00406740 00 00 00 00 00 00 00 00 00 00 00 00 00 00 00 00 ................
00406750 00 00 00 00 00 00 00 00 00 00 00 00 00 00 00 00 ................
00406760 00 00 00 00 00 00 00 00 00 00 00 00 00 00 00 00 ................
00406770 00 00 00 00 00 00 00 00 00 00 00 00 00 00 00 00 ................
00406780 00 00 00 00 00 00 00 00 00 00 00 00 00 00 00 00 ................
00406790 00 00 00 00 00 00 00 00 00 00 00 00 00 00 00 00 ................
004067A0 00 00 00 00 00 00 00 00 00 00 00 00 00 00 00 00 ................
004067B0 00 00 00 00 00 00 00 00 00 00 00 00 00 00 00 00 ................
004067C0 00 00 00 00 00 00 00 00 00 00 00 00 00 00 00 00 ................
004067D0 00 00 00 00 00 00 00 00 00 00 00 00 00 00 00 00 ................
004067E0 00 00 00 00 00 00 00 00 00 00 00 00 00 00 00 00 ................
004067F0 00 00 00 00 00 00 00 00 00 00 00 00 00 00 00 00 ................
00406800 00 00 00 00 00 00 00 00 00 00 00 00 00 00 00 00 ................
00406810 00 00 00 00 00 00 00 00 00 00 00 00 00 00 00 00 ................
00406820 00 00 00 00 00 00 00 00 00 00 00 00 00 00 00 00 ................
00406830 00 00 00 00 00 00 00 00 00 00 00 00 00 00 00 00 ................
00406840 00 00 00 00 00 00 00 00 00 00 00 00 00 00 00 00 ................
00406850 00 00 00 00 00 00 00 00 00 00 00 00 00 00 00 00 ................
00406860 00 00 00 00 00 00 00 00 00 00 00 00 00 00 00 00 ................
00406870 00 00 00 00 00 00 00 00 00 00 00 00 00 00 00 00 ................
00406880 00 00 00 00 00 00 00 00 00 00 00 00 00 00 00 00 ................
00406890 00 00 00 00 00 00 00 00 00 00 00 00 00 00 00 00 ................
004068A0 00 00 00 00 00 00 00 00 00 00 00 00 00 00 00 00 ................
004068B0 00 00 00 00 00 00 00 00 00 00 00 00 00 00 00 00 ................
004068C0 00 00 00 00 00 00 00 00 00 00 00 00 00 00 00 00 ................
004068D0 00 00 00 00 00 00 00 00 00 00 00 00 00 00 00 00 ................
004068E0 00 00 00 00 00 00 00 00 00 00 00 00 00 00 00 00 ................
004068F0 00 00 00 00 00 00 00 00 00 00 00 00 00 00 00 00 ................
00406900 00 00 00 00 00 00 00 00 00 00 00 00 00 00 00 00 ................
00406910 00 00 00 00 00 00 00 00 00 00 00 00 00 00 00 00 ................
00406920 00 00 00 00 00 00 00 00 00 00 00 00 00 00 00 00 ................
00406930 00 00 00 00 00 00 00 00 00 00 00 00 00 00 00 00 ................
00406940 00 00 00 00 00 00 00 00 00 00 00 00 00 00 00 00 ................
00406950 00 00 00 00 00 00 00 00 00 00 00 00 00 00 00 00 ................
00406960 00 00 00 00 00 00 00 00 00 00 00 00 00 00 00 00 ................
00406970 00 00 00 00 00 00 00 00 00 00 00 00 00 00 00 00 ................
00406980 00 00 00 00 00 00 00 00 00 00 00 00 00 00 00 00 ................
00406990 00 00 00 00 00 00 00 00 00 00 00 00 00 00 00 00 ................
004069A0 00 00 00 00 00 00 00 00 00 00 00 00 00 00 00 00 ................
004069B0 00 00 00 00 00 00 00 00 00 00 00 00 00 00 00 00 ................
004069C0 00 00 00 00 00 00 00 00 00 00 00 00 00 00 00 00 ................
004069D0 00 00 00 00 00 00 00 00 00 00 00 00 00 00 00 00 ................
004069E0 00 00 00 00 00 00 00 00 00 00 00 00 00 00 00 00 ................
004069F0 00 00 00 00 00 00 00 00 00 00 00 00 00 00 00 00 ................
00406A00 00 00 00 00 00 00 00 00 00 00 00 00 00 00 00 00 ................
00406A10 00 00 00 00 00 00 00 00 00 00 00 00 00 00 00 00 ................
00406A20 00 00 00 00 00 00 00 00 00 00 00 00 00 00 00 00 ................
00406A30 00 00 00 00 00 00 00 00 00 00 00 00 00 00 00 00 ................
00406A40 00 00 00 00 00 00 00 00 00 00 00 00 00 00 00 00 ................
00406A50 00 00 00 00 00 00 00 00 00 00 00 00 00 00 00 00 ................
00406A60 00 00 00 00 00 00 00 00 00 00 00 00 00 00 00 00 ................
00406A70 00 00 00 00 00 00 00 00 00 00 00 00 00 00 00 00 ................
00406A80 00 00 00 00 00 00 00 00 00 00 00 00 00 00 00 00 ................
00406A90 00 00 00 00 00 00 00 00 00 00 00 00 00 00 00 00 ................
00406AA0 00 00 00 00 00 00 00 00 00 00 00 00 00 00 00 00 ................
00406AB0 00 00 00 00 00 00 00 00 00 00 00 00 00 00 00 00 ................
00406AC0 00 00 00 00 00 00 00 00 00 00 00 00 00 00 00 00 ................
00406AD0 00 00 00 00 00 00 00 00 00 00 00 00 00 00 00 00 ................
00406AE0 00 00 00 00 00 00 00 00 00 00 00 00 00 00 00 00 ................
00406AF0 00 00 00 00 00 00 00 00 00 00 00 00 00 00 00 00 ................
00406B00 00 00 00 00 00 00 00 00 00 00 00 00 00 00 00 00 ................
00406B10 00 00 00 00 00 00 00 00 00 00 00 00 00 00 00 00 ................
00406B20 00 00 00 00 00 00 00 00 00 00 00 00 00 00 00 00 ................
00406B30 00 00 00 00 00 00 00 00 00 00 00 00 00 00 00 00 ................
00406B40 00 00 00 00 00 00 00 00 00 00 00 00 00 00 00 00 ................
00406B50 00 00 00 00 00 00 00 00 00 00 00 00 00 00 00 00 ................
00406B60 00 00 00 00 00 00 00 00 00 00 00 00 00 00 00 00 ................
00406B70 00 00 00 00 00 00 00 00 00 00 00 00 00 00 00 00 ................
00406B80 00 00 00 00 00 00 00 00 00 00 00 00 00 00 00 00 ................
00406B90 00 00 00 00 00 00 00 00 00 00 00 00 00 00 00 00 ................
00406BA0 00 00 00 00 00 00 00 00 00 00 00 00 00 00 00 00 ................
00406BB0 00 00 00 00 00 00 00 00 00 00 00 00 00 00 00 00 ................
00406BC0 00 00 00 00 00 00 00 00 00 00 00 00 00 00 00 00 ................
00406BD0 00 00 00 00 00 00 00 00 00 00 00 00 00 00 00 00 ................
00406BE0 00 00 00 00 00 00 00 00 00 00 00 00 00 00 00 00 ................
00406BF0 00 00 00 00 00 00 00 00 00 00 00 00 00 00 00 00 ................
00406C00 00 00 00 00 00 00 00 00 00 00 00 00 00 00 00 00 ................
00406C10 00 00 00 00 00 00 00 00 00 00 00 00 00 00 00 00 ................
00406C20 00 00 00 00 00 00 00 00 00 00 00 00 00 00 00 00 ................
00406C30 00 00 00 00 00 00 00 00 00 00 00 00 00 00 00 00 ................
00406C40 00 00 00 00 00 00 00 00 00 00 00 00 00 00 00 00 ................
00406C50 00 00 00 00 00 00 00 00 00 00 00 00 00 00 00 00 ................
00406C60 00 00 00 00 00 00 00 00 00 00 00 00 00 00 00 00 ................
00406C70 00 00 00 00 00 00 00 00 00 00 00 00 00 00 00 00 ................
00406C80 00 00 00 00 00 00 00 00 00 00 00 00 00 00 00 00 ................
00406C90 00 00 00 00 00 00 00 00 00 00 00 00 00 00 00 00 ................
00406CA0 00 00 00 00 00 00 00 00 00 00 00 00 00 00 00 00 ................
00406CB0 00 00 00 00 00 00 00 00 00 00 00 00 00 00 00 00 ................
00406CC0 00 00 00 00 00 00 00 00 00 00 00 00 00 00 00 00 ................
00406CD0 00 00 00 00 00 00 00 00 00 00 00 00 00 00 00 00 ................
00406CE0 00 00 00 00 00 00 00 00 00 00 00 00 00 00 00 00 ................
00406CF0 00 00 00 00 00 00 00 00 00 00 00 00 00 00 00 00 ................
00406D00 00 00 00 00 00 00 00 00 00 00 00 00 00 00 00 00 ................
00406D10 00 00 00 00 00 00 00 00 00 00 00 00 00 00 00 00 ................
00406D20 00 00 00 00 00 00 00 00 00 00 00 00 00 00 00 00 ................
00406D30 00 00 00 00 00 00 00 00 00 00 00 00 00 00 00 00 ................
00406D40 00 00 00 00 00 00 00 00 00 00 00 00 00 00 00 00 ................
00406D50 00 00 00 00 00 00 00 00 00 00 00 00 00 00 00 00 ................
00406D60 00 00 00 00 00 00 00 00 00 00 00 00 00 00 00 00 ................
00406D70 00 00 00 00 00 00 00 00 00 00 00 00 00 00 00 00 ................
00406D80 00 00 00 00 00 00 00 00 00 00 00 00 00 00 00 00 ................
00406D90 00 00 00 00 00 00 00 00 00 00 00 00 00 00 00 00 ................
00406DA0 00 00 00 00 00 00 00 00 00 00 00 00 00 00 00 00 ................
00406DB0 00 00 00 00 00 00 00 00 00 00 00 00 00 00 00 00 ................
00406DC0 00 00 00 00 00 00 00 00 00 00 00 00 00 00 00 00 ................
00406DD0 00 00 00 00 00 00 00 00 00 00 00 00 00 00 00 00 ................
00406DE0 00 00 00 00 00 00 00 00 00 00 00 00 00 00 00 00 ................
00406DF0 00 00 00 00 00 00 00 00 00 00 00 00 00 00 00 00 ................
00406E00 00 00 00 00 00 00 00 00 00 00 00 00 00 00 00 00 ................
00406E10 00 00 00 00 00 00 00 00 00 00 00 00 00 00 00 00 ................
00406E20 00 00 00 00 00 00 00 00 00 00 00 00 00 00 00 00 ................
00406E30 00 00 00 00 00 00 00 00 00 00 00 00 00 00 00 00 ................
00406E40 00 00 00 00 00 00 00 00 00 00 00 00 00 00 00 00 ................
00406E50 00 00 00 00 00 00 00 00 00 00 00 00 00 00 00 00 ................
00406E60 00 00 00 00 00 00 00 00 00 00 00 00 00 00 00 00 ................
00406E70 00 00 00 00 00 00 00 00 00 00 00 00 00 00 00 00 ................
00406E80 00 00 00 00 00 00 00 00 00 00 00 00 00 00 00 00 ................
00406E90 00 00 00 00 00 00 00 00 00 00 00 00 00 00 00 00 ................
00406EA0 00 00 00 00 00 00 00 00 00 00 00 00 00 00 00 00 ................
00406EB0 00 00 00 00 00 00 00 00 00 00 00 00 00 00 00 00 ................
00406EC0 00 00 00 00 00 00 00 00 00 00 00 00 00 00 00 00 ................
00406ED0 00 00 00 00 00 00 00 00 00 00 00 00 00 00 00 00 ................
00406EE0 00 00 00 00 00 00 00 00 00 00 00 00 00 00 00 00 ................
00406EF0 00 00 00 00 00 00 00 00 00 00 00 00 00 00 00 00 ................
00406F00 00 00 00 00 00 00 00 00 00 00 00 00 00 00 00 00 ................
00406F10 00 00 00 00 00 00 00 00 00 00 00 00 00 00 00 00 ................
00406F20 00 00 00 00 00 00 00 00 00 00 00 00 00 00 00 00 ................
00406F30 00 00 00 00 00 00 00 00 00 00 00 00 00 00 00 00 ................
00406F40 00 00 00 00 00 00 00 00 00 00 00 00 00 00 00 00 ................
00406F50 00 00 00 00 00 00 00 00 00 00 00 00 00 00 00 00 ................
00406F60 00 00 00 00 00 00 00 00 00 00 00 00 00 00 00 00 ................
00406F70 00 00 00 00 00 00 00 00 00 00 00 00 00 00 00 00 ................
00406F80 00 00 00 00 00 00 00 00 00 00 00 00 00 00 00 00 ................
00406F90 00 00 00 00 00 00 00 00 00 00 00 00 00 00 00 00 ................
00406FA0 00 00 00 00 00 00 00 00 00 00 00 00 00 00 00 00 ................
00406FB0 00 00 00 00 00 00 00 00 00 00 00 00 00 00 00 00 ................
00406FC0 00 00 00 00 00 00 00 00 00 00 00 00 00 00 00 00 ................
00406FD0 00 00 00 00 00 00 00 00 00 00 00 00 00 00 00 00 ................
00406FE0 00 00 00 00 00 00 00 00 00 00 00 00 00 00 00 00 ................
00406FF0 00 00 00 00 00 00 00 00 00 00 00 00 00 00 00 00 ................
00407000 00 00 00 00 00 00 00 00 00 00 00 00 00 00 00 00 ................
00407010 00 00 00 00 00 00 00 00 00 00 00 00 00 00 00 00 ................
00407020 00 00 00 00 00 00 00 00 00 00 00 00 00 00 00 00 ................
00407030 00 00 00 00 00 00 00 00 00 00 00 00 00 00 00 00 ................
00407040 00 00 00 00 00 00 00 00 00 00 00 00 00 00 00 00 ................
00407050 00 00 00 00 00 00 00 00 00 00 00 00 00 00 00 00 ................
00407060 00 00 00 00 00 00 00 00 00 00 00 00 00 00 00 00 ................
00407070 00 00 00 00 00 00 00 00 00 00 00 00 00 00 00 00 ................
00407080 00 00 00 00 00 00 00 00 00 00 00 00 00 00 00 00 ................
00407090 00 00 00 00 00 00 00 00 00 00 00 00 00 00 00 00 ................
004070A0 00 00 00 00 00 00 00 00 00 00 00 00 00 00 00 00 ................
004070B0 00 00 00 00 00 00 00 00 00 00 00 00 00 00 00 00 ................
004070C0 00 00 00 00 00 00 00 00 00 00 00 00 00 00 00 00 ................
004070D0 00 00 00 00 00 00 00 00 00 00 00 00 00 00 00 00 ................
004070E0 00 00 00 00 00 00 00 00 00 00 00 00 00 00 00 00 ................
004070F0 00 00 00 00 00 00 00 00 00 00 00 00 00 00 00 00 ................
00407100 00 00 00 00 00 00 00 00 00 00 00 00 00 00 00 00 ................
00407110 00 00 00 00 00 00 00 00 00 00 00 00 00 00 00 00 ................
00407120 00 00 00 00 00 00 00 00 00 00 00 00 00 00 00 00 ................
00407130 00 00 00 00 00 00 00 00 00 00 00 00 00 00 00 00 ................
00407140 00 00 00 00 00 00 00 00 00 00 00 00 00 00 00 00 ................
00407150 00 00 00 00 00 00 00 00 00 00 00 00 00 00 00 00 ................
00407160 00 00 00 00 00 00 00 00 00 00 00 00 00 00 00 00 ................
00407170 00 00 00 00 00 00 00 00 00 00 00 00 00 00 00 00 ................
00407180 00 00 00 00 00 00 00 00 00 00 00 00 00 00 00 00 ................
00407190 00 00 00 00 00 00 00 00 00 00 00 00 00 00 00 00 ................
004071A0 00 00 00 00 00 00 00 00 00 00 00 00 00 00 00 00 ................
004071B0 00 00 00 00 00 00 00 00 00 00 00 00 00 00 00 00 ................
004071C0 00 00 00 00 00 00 00 00 00 00 00 00 00 00 00 00 ................
004071D0 00 00 00 00 00 00 00 00 00 00 00 00 00 00 00 00 ................
004071E0 00 00 00 00 00 00 00 00 00 00 00 00 00 00 00 00 ................
004071F0 00 00 00 00 00 00 00 00 00 00 00 00 00 00 00 00 ................
00407200 00 00 00 00 00 00 00 00 00 00 00 00 00 00 00 00 ................
00407210 00 00 00 00 00 00 00 00 00 00 00 00 00 00 00 00 ................
00407220 00 00 00 00 00 00 00 00 00 00 00 00 00 00 00 00 ................
00407230 00 00 00 00 00 00 00 00 00 00 00 00 00 00 00 00 ................
00407240 00 00 00 00 00 00 00 00 00 00 00 00 00 00 00 00 ................
00407250 00 00 00 00 00 00 00 00 00 00 00 00 00 00 00 00 ................
00407260 00 00 00 00 00 00 00 00 00 00 00 00 00 00 00 00 ................
00407270 00 00 00 00 00 00 00 00 00 00 00 00 00 00 00 00 ................
00407280 00 00 00 00 00 00 00 00 00 00 00 00 00 00 00 00 ................
00407290 00 00 00 00 00 00 00 00 00 00 00 00 00 00 00 00 ................
004072A0 00 00 00 00 00 00 00 00 00 00 00 00 00 00 00 00 ................
004072B0 00 00 00 00 00 00 00 00 00 00 00 00 00 00 00 00 ................
004072C0 00 00 00 00 00 00 00 00 00 00 00 00 00 00 00 00 ................
004072D0 00 00 00 00 00 00 00 00 00 00 00 00 00 00 00 00 ................
004072E0 00 00 00 00 00 00 00 00 00 00 00 00 00 00 00 00 ................
004072F0 00 00 00 00 00 00 00 00 00 00 00 00 00 00 00 00 ................
00407300 00 00 00 00 00 00 00 00 00 00 00 00 00 00 00 00 ................
00407310 00 00 00 00 00 00 00 00 00 00 00 00 00 00 00 00 ................
00407320 00 00 00 00 00 00 00 00 00 00 00 00 00 00 00 00 ................
00407330 00 00 00 00 00 00 00 00 00 00 00 00 00 00 00 00 ................
00407340 00 00 00 00 00 00 00 00 00 00 00 00 00 00 00 00 ................
00407350 00 00 00 00 00 00 00 00 00 00 00 00 00 00 00 00 ................
00407360 00 00 00 00 00 00 00 00 00 00 00 00 00 00 00 00 ................
00407370 00 00 00 00 00 00 00 00 00 00 00 00 00 00 00 00 ................
00407380 00 00 00 00 00 00 00 00 00 00 00 00 00 00 00 00 ................
00407390 00 00 00 00 00 00 00 00 00 00 00 00 00 00 00 00 ................
004073A0 00 00 00 00 00 00 00 00 00 00 00 00 00 00 00 00 ................
004073B0 00 00 00 00 00 00 00 00 00 00 00 00 00 00 00 00 ................
004073C0 00 00 00 00 00 00 00 00 00 00 00 00 00 00 00 00 ................
004073D0 00 00 00 00 00 00 00 00 00 00 00 00 00 00 00 00 ................
004073E0 00 00 00 00 00 00 00 00 00 00 00 00 00 00 00 00 ................
004073F0 00 00 00 00 00 00 00 00 00 00 00 00 00 00 00 00 ................
00407400 00 00 00 00 00 00 00 00 00 00 00 00 00 00 00 00 ................
00407410 00 00 00 00 00 00 00 00 00 00 00 00 00 00 00 00 ................
00407420 00 00 00 00 00 00 00 00 00 00 00 00 00 00 00 00 ................
00407430 00 00 00 00 00 00 00 00 00 00 00 00 00 00 00 00 ................
00407440 00 00 00 00 00 00 00 00 00 00 00 00 00 00 00 00 ................
00407450 00 00 00 00 00 00 00 00 00 00 00 00 00 00 00 00 ................
00407460 00 00 00 00 00 00 00 00 00 00 00 00 00 00 00 00 ................
00407470 00 00 00 00 00 00 00 00 00 00 00 00 00 00 00 00 ................
00407480 00 00 00 00 00 00 00 00 00 00 00 00 00 00 00 00 ................
00407490 00 00 00 00 00 00 00 00 00 00 00 00 00 00 00 00 ................
004074A0 00 00 00 00 00 00 00 00 00 00 00 00 00 00 00 00 ................
004074B0 00 00 00 00 00 00 00 00 00 00 00 00 00 00 00 00 ................
004074C0 00 00 00 00 00 00 00 00 00 00 00 00 00 00 00 00 ................
004074D0 00 00 00 00 00 00 00 00 00 00 00 00 00 00 00 00 ................
004074E0 00 00 00 00 00 00 00 00 00 00 00 00 00 00 00 00 ................
004074F0 00 00 00 00 00 00 00 00 00 00 00 00 00 00 00 00 ................
00407500 00 00 00 00 00 00 00 00 00 00 00 00 00 00 00 00 ................
00407510 00 00 00 00 00 00 00 00 00 00 00 00 00 00 00 00 ................
00407520 00 00 00 00 00 00 00 00 00 00 00 00 00 00 00 00 ................
00407530 00 00 00 00 00 00 00 00 00 00 00 00 00 00 00 00 ................
00407540 00 00 00 00 00 00 00 00 00 00 00 00 00 00 00 00 ................
00407550 00 00 00 00 00 00 00 00 00 00 00 00 00 00 00 00 ................
00407560 00 00 00 00 00 00 00 00 00 00 00 00 00 00 00 00 ................
00407570 00 00 00 00 00 00 00 00 00 00 00 00 00 00 00 00 ................
00407580 00 00 00 00 00 00 00 00 00 00 00 00 00 00 00 00 ................
00407590 00 00 00 00 00 00 00 00 00 00 00 00 00 00 00 00 ................
004075A0 00 00 00 00 00 00 00 00 00 00 00 00 00 00 00 00 ................
004075B0 00 00 00 00 00 00 00 00 00 00 00 00 00 00 00 00 ................
004075C0 00 00 00 00 00 00 00 00 00 00 00 00 00 00 00 00 ................
004075D0 00 00 00 00 00 00 00 00 00 00 00 00 00 00 00 00 ................
004075E0 00 00 00 00 00 00 00 00 00 00 00 00 00 00 00 00 ................
004075F0 00 00 00 00 00 00 00 00 00 00 00 00 00 00 00 00 ................
00407600 00 00 00 00 00 00 00 00 00 00 00 00 00 00 00 00 ................
00407610 00 00 00 00 00 00 00 00 00 00 00 00 00 00 00 00 ................
00407620 00 00 00 00 00 00 00 00 00 00 00 00 00 00 00 00 ................
00407630 00 00 00 00 00 00 00 00 00 00 00 00 00 00 00 00 ................
00407640 00 00 00 00 00 00 00 00 00 00 00 00 00 00 00 00 ................
00407650 00 00 00 00 00 00 00 00 00 00 00 00 00 00 00 00 ................
00407660 00 00 00 00 00 00 00 00 00 00 00 00 00 00 00 00 ................
00407670 00 00 00 00 00 00 00 00 00 00 00 00 00 00 00 00 ................
00407680 00 00 00 00 00 00 00 00 00 00 00 00 00 00 00 00 ................
00407690 00 00 00 00 00 00 00 00 00 00 00 00 00 00 00 00 ................
004076A0 00 00 00 00 00 00 00 00 00 00 00 00 00 00 00 00 ................
004076B0 00 00 00 00 00 00 00 00 00 00 00 00 00 00 00 00 ................
004076C0 00 00 00 00 00 00 00 00 00 00 00 00 00 00 00 00 ................
004076D0 00 00 00 00 00 00 00 00 00 00 00 00 00 00 00 00 ................
004076E0 00 00 00 00 00 00 00 00 00 00 00 00 00 00 00 00 ................
004076F0 00 00 00 00 00 00 00 00 00 00 00 00 00 00 00 00 ................
00407700 00 00 00 00 00 00 00 00 00 00 00 00 00 00 00 00 ................
00407710 00 00 00 00 00 00 00 00 00 00 00 00 00 00 00 00 ................
00407720 00 00 00 00 00 00 00 00 00 00 00 00 00 00 00 00 ................
00407730 00 00 00 00 00 00 00 00 00 00 00 00 00 00 00 00 ................
00407740 00 00 00 00 00 00 00 00 00 00 00 00 00 00 00 00 ................
00407750 00 00 00 00 00 00 00 00 00 00 00 00 00 00 00 00 ................
00407760 00 00 00 00 00 00 00 00 00 00 00 00 00 00 00 00 ................
00407770 00 00 00 00 00 00 00 00 00 00 00 00 00 00 00 00 ................
00407780 00 00 00 00 00 00 00 00 00 00 00 00 00 00 00 00 ................
00407790 00 00 00 00 00 00 00 00 00 00 00 00 00 00 00 00 ................
004077A0 00 00 00 00 00 00 00 00 00 00 00 00 00 00 00 00 ................
004077B0 00 00 00 00 00 00 00 00 00 00 00 00 00 00 00 00 ................
004077C0 00 00 00 00 00 00 00 00 00 00 00 00 00 00 00 00 ................
004077D0 00 00 00 00 00 00 00 00 00 00 00 00 00 00 00 00 ................
004077E0 00 00 00 00 00 00 00 00 00 00 00 00 00 00 00 00 ................
004077F0 00 00 00 00 00 00 00 00 00 00 00 00 00 00 00 00 ................
00407800 00 00 00 00 00 00 00 00 00 00 00 00 00 00 00 00 ................
00407810 00 00 00 00 00 00 00 00 00 00 00 00 00 00 00 00 ................
00407820 00 00 00 00 00 00 00 00 00 00 00 00 00 00 00 00 ................
00407830 00 00 00 00 00 00 00 00 00 00 00 00 00 00 00 00 ................
00407840 00 00 00 00 00 00 00 00 00 00 00 00 00 00 00 00 ................
00407850 00 00 00 00 00 00 00 00 00 00 00 00 00 00 00 00 ................
00407860 00 00 00 00 00 00 00 00 00 00 00 00 00 00 00 00 ................
00407870 00 00 00 00 00 00 00 00 00 00 00 00 00 00 00 00 ................
00407880 00 00 00 00 00 00 00 00 00 00 00 00 00 00 00 00 ................
00407890 00 00 00 00 00 00 00 00 00 00 00 00 00 00 00 00 ................
004078A0 00 00 00 00 00 00 00 00 00 00 00 00 00 00 00 00 ................
004078B0 00 00 00 00 00 00 00 00 00 00 00 00 00 00 00 00 ................
004078C0 00 00 00 00 00 00 00 00 00 00 00 00 00 00 00 00 ................
004078D0 00 00 00 00 00 00 00 00 00 00 00 00 00 00 00 00 ................
004078E0 00 00 00 00 00 00 00 00 00 00 00 00 00 00 00 00 ................
004078F0 00 00 00 00 00 00 00 00 00 00 00 00 00 00 00 00 ................
00407900 00 00 00 00 00 00 00 00 00 00 00 00 00 00 00 00 ................
00407910 00 00 00 00 00 00 00 00 00 00 00 00 00 00 00 00 ................
00407920 00 00 00 00 00 00 00 00 00 00 00 00 00 00 00 00 ................
00407930 00 00 00 00 00 00 00 00 00 00 00 00 00 00 00 00 ................
00407940 00 00 00 00 00 00 00 00 00 00 00 00 00 00 00 00 ................
00407950 00 00 00 00 00 00 00 00 00 00 00 00 00 00 00 00 ................
00407960 00 00 00 00 00 00 00 00 00 00 00 00 00 00 00 00 ................
00407970 00 00 00 00 00 00 00 00 00 00 00 00 00 00 00 00 ................
00407980 00 00 00 00 00 00 00 00 00 00 00 00 00 00 00 00 ................
00407990 00 00 00 00 00 00 00 00 00 00 00 00 00 00 00 00 ................
004079A0 00 00 00 00 00 00 00 00 00 00 00 00 00 00 00 00 ................
004079B0 00 00 00 00 00 00 00 00 00 00 00 00 00 00 00 00 ................
004079C0 00 00 00 00 00 00 00 00 00 00 00 00 00 00 00 00 ................
004079D0 00 00 00 00 00 00 00 00 00 00 00 00 00 00 00 00 ................
004079E0 00 00 00 00 00 00 00 00 00 00 00 00 00 00 00 00 ................
004079F0 00 00 00 00 00 00 00 00 00 00 00 00 00 00 00 00 ................
00407A00 00 00 00 00 00 00 00 00 00 00 00 00 00 00 00 00 ................
00407A10 00 00 00 00 00 00 00 00 00 00 00 00 00 00 00 00 ................
00407A20 00 00 00 00 00 00 00 00 00 00 00 00 00 00 00 00 ................
00407A30 00 00 00 00 00 00 00 00 00 00 00 00 00 00 00 00 ................
00407A40 00 00 00 00 00 00 00 00 00 00 00 00 00 00 00 00 ................
00407A50 00 00 00 00 00 00 00 00 00 00 00 00 00 00 00 00 ................
00407A60 00 00 00 00 00 00 00 00 00 00 00 00 00 00 00 00 ................
00407A70 00 00 00 00 00 00 00 00 00 00 00 00 00 00 00 00 ................
00407A80 00 00 00 00 00 00 00 00 00 00 00 00 00 00 00 00 ................
00407A90 00 00 00 00 00 00 00 00 00 00 00 00 00 00 00 00 ................
00407AA0 00 00 00 00 00 00 00 00 00 00 00 00 00 00 00 00 ................
00407AB0 00 00 00 00 00 00 00 00 00 00 00 00 00 00 00 00 ................
00407AC0 00 00 00 00 00 00 00 00 00 00 00 00 00 00 00 00 ................
00407AD0 00 00 00 00 00 00 00 00 00 00 00 00 00 00 00 00 ................
00407AE0 00 00 00 00 00 00 00 00 00 00 00 00 00 00 00 00 ................
00407AF0 00 00 00 00 00 00 00 00 00 00 00 00 00 00 00 00 ................
00407B00 00 00 00 00 00 00 00 00 00 00 00 00 00 00 00 00 ................
00407B10 00 00 00 00 00 00 00 00 00 00 00 00 00 00 00 00 ................
00407B20 00 00 00 00 00 00 00 00 00 00 00 00 00 00 00 00 ................
00407B30 00 00 00 00 00 00 00 00 00 00 00 00 00 00 00 00 ................
00407B40 00 00 00 00 00 00 00 00 00 00 00 00 00 00 00 00 ................
00407B50 00 00 00 00 00 00 00 00 00 00 00 00 00 00 00 00 ................
00407B60 00 00 00 00 00 00 00 00 00 00 00 00 00 00 00 00 ................
00407B70 00 00 00 00 00 00 00 00 00 00 00 00 00 00 00 00 ................
00407B80 00 00 00 00 00 00 00 00 00 00 00 00 00 00 00 00 ................
00407B90 00 00 00 00 00 00 00 00 00 00 00 00 00 00 00 00 ................
00407BA0 00 00 00 00 00 00 00 00 00 00 00 00 00 00 00 00 ................
00407BB0 00 00 00 00 00 00 00 00 00 00 00 00 00 00 00 00 ................
00407BC0 00 00 00 00 00 00 00 00 00 00 00 00 00 00 00 00 ................
00407BD0 00 00 00 00 00 00 00 00 00 00 00 00 00 00 00 00 ................
00407BE0 00 00 00 00 00 00 00 00 00 00 00 00 00 00 00 00 ................
00407BF0 00 00 00 00 00 00 00 00 00 00 00 00 00 00 00 00 ................
00407C00 00 00 00 00 00 00 00 00 00 00 00 00 00 00 00 00 ................
00407C10 00 00 00 00 00 00 00 00 00 00 00 00 00 00 00 00 ................
00407C20 00 00 00 00 00 00 00 00 00 00 00 00 00 00 00 00 ................
00407C30 00 00 00 00 00 00 00 00 00 00 00 00 00 00 00 00 ................
00407C40 00 00 00 00 00 00 00 00 00 00 00 00 00 00 00 00 ................
00407C50 00 00 00 00 00 00 00 00 00 00 00 00 00 00 00 00 ................
00407C60 00 00 00 00 00 00 00 00 00 00 00 00 00 00 00 00 ................
00407C70 00 00 00 00 00 00 00 00 00 00 00 00 00 00 00 00 ................
00407C80 00 00 00 00 00 00 00 00 00 00 00 00 00 00 00 00 ................
00407C90 00 00 00 00 00 00 00 00 00 00 00 00 00 00 00 00 ................
00407CA0 00 00 00 00 00 00 00 00 00 00 00 00 00 00 00 00 ................
00407CB0 00 00 00 00 00 00 00 00 00 00 00 00 00 00 00 00 ................
00407CC0 00 00 00 00 00 00 00 00 00 00 00 00 00 00 00 00 ................
00407CD0 00 00 00 00 00 00 00 00 00 00 00 00 00 00 00 00 ................
00407CE0 00 00 00 00 00 00 00 00 00 00 00 00 00 00 00 00 ................
00407CF0 00 00 00 00 00 00 00 00 00 00 00 00 00 00 00 00 ................
00407D00 00 00 00 00 00 00 00 00 00 00 00 00 00 00 00 00 ................
00407D10 00 00 00 00 00 00 00 00 00 00 00 00 00 00 00 00 ................
00407D20 00 00 00 00 00 00 00 00 00 00 00 00 00 00 00 00 ................
00407D30 00 00 00 00 00 00 00 00 00 00 00 00 00 00 00 00 ................
00407D40 00 00 00 00 00 00 00 00 00 00 00 00 00 00 00 00 ................
00407D50 00 00 00 00 00 00 00 00 00 00 00 00 00 00 00 00 ................
00407D60 00 00 00 00 00 00 00 00 00 00 00 00 00 00 00 00 ................
00407D70 00 00 00 00 00 00 00 00 00 00 00 00 00 00 00 00 ................
00407D80 00 00 00 00 00 00 00 00 00 00 00 00 00 00 00 00 ................
00407D90 00 00 00 00 00 00 00 00 00 00 00 00 00 00 00 00 ................
00407DA0 00 00 00 00 00 00 00 00 00 00 00 00 00 00 00 00 ................
00407DB0 00 00 00 00 00 00 00 00 00 00 00 00 00 00 00 00 ................
00407DC0 00 00 00 00 00 00 00 00 00 00 00 00 00 00 00 00 ................
00407DD0 00 00 00 00 00 00 00 00 00 00 00 00 00 00 00 00 ................
00407DE0 00 00 00 00 00 00 00 00 00 00 00 00 00 00 00 00 ................
00407DF0 00 00 00 00 00 00 00 00 00 00 00 00 00 00 00 00 ................
00407E00 00 00 00 00 00 00 00 00 00 00 00 00 00 00 00 00 ................
00407E10 00 00 00 00 00 00 00 00 00 00 00 00 00 00 00 00 ................
00407E20 00 00 00 00 00 00 00 00 00 00 00 00 00 00 00 00 ................
00407E30 00 00 00 00 00 00 00 00 00 00 00 00 00 00 00 00 ................
00407E40 00 00 00 00 00 00 00 00 00 00 00 00 00 00 00 00 ................
00407E50 00 00 00 00 00 00 00 00 00 00 00 00 00 00 00 00 ................
00407E60 00 00 00 00 00 00 00 00 00 00 00 00 00 00 00 00 ................
00407E70 00 00 00 00 00 00 00 00 00 00 00 00 00 00 00 00 ................
00407E80 00 00 00 00 00 00 00 00 00 00 00 00 00 00 00 00 ................
00407E90 00 00 00 00 00 00 00 00 00 00 00 00 00 00 00 00 ................
00407EA0 00 00 00 00 00 00 00 00 00 00 00 00 00 00 00 00 ................
00407EB0 00 00 00 00 00 00 00 00 00 00 00 00 00 00 00 00 ................
00407EC0 00 00 00 00 00 00 00 00 00 00 00 00 00 00 00 00 ................
00407ED0 00 00 00 00 00 00 00 00 00 00 00 00 00 00 00 00 ................
00407EE0 00 00 00 00 00 00 00 00 00 00 00 00 00 00 00 00 ................
00407EF0 00 00 00 00 00 00 00 00 00 00 00 00 00 00 00 00 ................
00407F00 00 00 00 00 00 00 00 00 00 00 00 00 00 00 00 00 ................
00407F10 00 00 00 00 00 00 00 00 00 00 00 00 00 00 00 00 ................
00407F20 00 00 00 00 00 00 00 00 00 00 00 00 00 00 00 00 ................
00407F30 00 00 00 00 00 00 00 00 00 00 00 00 00 00 00 00 ................
00407F40 00 00 00 00 00 00 00 00 00 00 00 00 00 00 00 00 ................
00407F50 00 00 00 00 00 00 00 00 00 00 00 00 00 00 00 00 ................
00407F60 00 00 00 00 00 00 00 00 00 00 00 00 00 00 00 00 ................
00407F70 00 00 00 00 00 00 00 00 00 00 00 00 00 00 00 00 ................
00407F80 00 00 00 00 00 00 00 00 00 00 00 00 00 00 00 00 ................
00407F90 00 00 00 00 00 00 00 00 00 00 00 00 00 00 00 00 ................
00407FA0 00 00 00 00 00 00 00 00 00 00 00 00 00 00 00 00 ................
00407FB0 00 00 00 00 00 00 00 00 00 00 00 00 00 00 00 00 ................
00407FC0 00 00 00 00 00 00 00 00 00 00 00 00 00 00 00 00 ................
00407FD0 00 00 00 00 00 00 00 00 00 00 00 00 00 00 00 00 ................
00407FE0 00 00 00 00 00 00 00 00 00 00 00 00 00 00 00 00 ................
00407FF0 00 00 00 00 00 00 00 00 00 00 00 00 00 00 00 00 ................
00408000 00 00 00 00 00 00 00 00 00 00 00 00 00 00 00 00 ................
00408010 00 00 00 00 00 00 00 00 00 00 00 00 00 00 00 00 ................
00408020 00 00 00 00 00 00 00 00 00 00 00 00 00 00 00 00 ................
00408030 00 00 00 00 00 00 00 00 00 00 00 00 00 00 00 00 ................
00408040 00 00 00 00 00 00 00 00 00 00 00 00 00 00 00 00 ................
00408050 00 00 00 00 00 00 00 00 00 00 00 00 00 00 00 00 ................
00408060 00 00 00 00 00 00 00 00 00 00 00 00 00 00 00 00 ................
00408070 00 00 00 00 00 00 00 00 00 00 00 00 00 00 00 00 ................
00408080 00 00 00 00 00 00 00 00 00 00 00 00 00 00 00 00 ................
00408090 00 00 00 00 00 00 00 00 00 00 00 00 00 00 00 00 ................
004080A0 00 00 00 00 00 00 00 00 00 00 00 00 00 00 00 00 ................
004080B0 00 00 00 00 00 00 00 00 00 00 00 00 00 00 00 00 ................
004080C0 00 00 00 00 00 00 00 00 00 00 00 00 00 00 00 00 ................
004080D0 00 00 00 00 00 00 00 00 00 00 00 00 00 00 00 00 ................
004080E0 00 00 00 00 00 00 00 00 00 00 00 00 00 00 00 00 ................
004080F0 00 00 00 00 00 00 00 00 00 00 00 00 00 00 00 00 ................
00408100 00 00 00 00 00 00 00 00 00 00 00 00 00 00 00 00 ................
00408110 00 00 00 00 00 00 00 00 00 00 00 00 00 00 00 00 ................
00408120 00 00 00 00 00 00 00 00 00 00 00 00 00 00 00 00 ................
00408130 00 00 00 00 00 00 00 00 00 00 00 00 00 00 00 00 ................
00408140 00 00 00 00 00 00 00 00 00 00 00 00 00 00 00 00 ................
00408150 00 00 00 00 00 00 00 00 00 00 00 00 00 00 00 00 ................
00408160 00 00 00 00 00 00 00 00 00 00 00 00 00 00 00 00 ................
00408170 00 00 00 00 00 00 00 00 00 00 00 00 00 00 00 00 ................
00408180 00 00 00 00 00 00 00 00 00 00 00 00 00 00 00 00 ................
00408190 00 00 00 00 00 00 00 00 00 00 00 00 00 00 00 00 ................
004081A0 00 00 00 00 00 00 00 00 00 00 00 00 00 00 00 00 ................
004081B0 00 00 00 00 00 00 00 00 00 00 00 00 00 00 00 00 ................
004081C0 00 00 00 00 00 00 00 00 00 00 00 00 00 00 00 00 ................
004081D0 00 00 00 00 00 00 00 00 00 00 00 00 00 00 00 00 ................
004081E0 00 00 00 00 00 00 00 00 00 00 00 00 00 00 00 00 ................
004081F0 00 00 00 00 00 00 00 00 00 00 00 00 00 00 00 00 ................
00408200 00 00 00 00 00 00 00 00 00 00 00 00 00 00 00 00 ................
00408210 00 00 00 00 00 00 00 00 00 00 00 00 00 00 00 00 ................
00408220 00 00 00 00 00 00 00 00 00 00 00 00 00 00 00 00 ................
00408230 00 00 00 00 00 00 00 00 00 00 00 00 00 00 00 00 ................
00408240 00 00 00 00 00 00 00 00 00 00 00 00 00 00 00 00 ................
00408250 00 00 00 00 00 00 00 00 00 00 00 00 00 00 00 00 ................
00408260 00 00 00 00 00 00 00 00 00 00 00 00 00 00 00 00 ................
00408270 00 00 00 00 00 00 00 00 00 00 00 00 00 00 00 00 ................
00408280 00 00 00 00 00 00 00 00 00 00 00 00 00 00 00 00 ................
00408290 00 00 00 00 00 00 00 00 00 00 00 00 00 00 00 00 ................
004082A0 00 00 00 00 00 00 00 00 00 00 00 00 00 00 00 00 ................
004082B0 00 00 00 00 00 00 00 00 00 00 00 00 00 00 00 00 ................
004082C0 00 00 00 00 00 00 00 00 00 00 00 00 00 00 00 00 ................
004082D0 00 00 00 00 00 00 00 00 00 00 00 00 00 00 00 00 ................
004082E0 00 00 00 00 00 00 00 00 00 00 00 00 00 00 00 00 ................
004082F0 00 00 00 00 00 00 00 00 00 00 00 00 00 00 00 00 ................
00408300 00 00 00 00 00 00 00 00 00 00 00 00 00 00 00 00 ................
00408310 00 00 00 00 00 00 00 00 00 00 00 00 00 00 00 00 ................
00408320 00 00 00 00 00 00 00 00 00 00 00 00 00 00 00 00 ................
00408330 00 00 00 00 00 00 00 00 00 00 00 00 00 00 00 00 ................
00408340 00 00 00 00 00 00 00 00 00 00 00 00 00 00 00 00 ................
00408350 00 00 00 00 00 00 00 00 00 00 00 00 00 00 00 00 ................
00408360 00 00 00 00 00 00 00 00 00 00 00 00 00 00 00 00 ................
00408370 00 00 00 00 00 00 00 00 00 00 00 00 00 00 00 00 ................
00408380 00 00 00 00 00 00 00 00 00 00 00 00 00 00 00 00 ................
00408390 00 00 00 00 00 00 00 00 00 00 00 00 00 00 00 00 ................
004083A0 00 00 00 00 00 00 00 00 00 00 00 00 00 00 00 00 ................
004083B0 00 00 00 00 00 00 00 00 00 00 00 00 00 00 00 00 ................
004083C0 00 00 00 00 00 00 00 00 00 00 00 00 00 00 00 00 ................
004083D0 00 00 00 00 00 00 00 00 00 00 00 00 00 00 00 00 ................
004083E0 00 00 00 00 00 00 00 00 00 00 00 00 00 00 00 00 ................
004083F0 00 00 00 00 00 00 00 00 00 00 00 00 00 00 00 00 ................
00408400 00 00 00 00 00 00 00 00 00 00 00 00 00 00 00 00 ................
00408410 00 00 00 00 00 00 00 00 00 00 00 00 00 00 00 00 ................
00408420 00 00 00 00 00 00 00 00 00 00 00 00 00 00 00 00 ................
00408430 00 00 00 00 00 00 00 00 00 00 00 00 00 00 00 00 ................
00408440 00 00 00 00 00 00 00 00 00 00 00 00 00 00 00 00 ................
00408450 00 00 00 00 00 00 00 00 00 00 00 00 00 00 00 00 ................
00408460 00 00 00 00 00 00 00 00 00 00 00 00 00 00 00 00 ................
00408470 00 00 00 00 00 00 00 00 00 00 00 00 00 00 00 00 ................
00408480 00 00 00 00 00 00 00 00 00 00 00 00 00 00 00 00 ................
00408490 00 00 00 00 00 00 00 00 00 00 00 00 00 00 00 00 ................
004084A0 00 00 00 00 00 00 00 00 00 00 00 00 00 00 00 00 ................
004084B0 00 00 00 00 00 00 00 00 00 00 00 00 00 00 00 00 ................
004084C0 00 00 00 00 00 00 00 00 00 00 00 00 00 00 00 00 ................
004084D0 00 00 00 00 00 00 00 00 00 00 00 00 00 00 00 00 ................
004084E0 00 00 00 00 00 00 00 00 00 00 00 00 00 00 00 00 ................
004084F0 00 00 00 00 00 00 00 00 00 00 00 00 00 00 00 00 ................
00408500 00 00 00 00 00 00 00 00 00 00 00 00 00 00 00 00 ................
00408510 00 00 00 00 00 00 00 00 00 00 00 00 00 00 00 00 ................
00408520 00 00 00 00 00 00 00 00 00 00 00 00 00 00 00 00 ................
00408530 00 00 00 00 00 00 00 00 00 00 00 00 00 00 00 00 ................
00408540 00 00 00 00 00 00 00 00 00 00 00 00 00 00 00 00 ................
00408550 00 00 00 00 00 00 00 00 00 00 00 00 00 00 00 00 ................
00408560 00 00 00 00 00 00 00 00 00 00 00 00 00 00 00 00 ................
00408570 00 00 00 00 00 00 00 00 00 00 00 00 00 00 00 00 ................
00408580 00 00 00 00 00 00 00 00 00 00 00 00 00 00 00 00 ................
00408590 00 00 00 00 00 00 00 00 00 00 00 00 00 00 00 00 ................
004085A0 00 00 00 00 00 00 00 00 00 00 00 00 00 00 00 00 ................
004085B0 00 00 00 00 00 00 00 00 00 00 00 00 00 00 00 00 ................
004085C0 00 00 00 00 00 00 00 00 00 00 00 00 00 00 00 00 ................
004085D0 00 00 00 00 00 00 00 00 00 00 00 00 00 00 00 00 ................
004085E0 00 00 00 00 00 00 00 00 00 00 00 00 00 00 00 00 ................
004085F0 00 00 00 00 00 00 00 00 00 00 00 00 00 00 00 00 ................
00408600 00 00 00 00 00 00 00 00 00 00 00 00 00 00 00 00 ................
00408610 00 00 00 00 00 00 00 00 00 00 00 00 00 00 00 00 ................
00408620 00 00 00 00 00 00 00 00 00 00 00 00 00 00 00 00 ................
00408630 00 00 00 00 00 00 00 00 00 00 00 00 00 00 00 00 ................
00408640 00 00 00 00 00 00 00 00 00 00 00 00 00 00 00 00 ................
00408650 00 00 00 00 00 00 00 00 00 00 00 00 00 00 00 00 ................
00408660 00 00 00 00 00 00 00 00 00 00 00 00 00 00 00 00 ................
00408670 00 00 00 00 00 00 00 00 00 00 00 00 00 00 00 00 ................
00408680 00 00 00 00 00 00 00 00 00 00 00 00 00 00 00 00 ................
00408690 00 00 00 00 00 00 00 00 00 00 00 00 00 00 00 00 ................
004086A0 00 00 00 00 00 00 00 00 00 00 00 00 00 00 00 00 ................
004086B0 00 00 00 00 00 00 00 00 00 00 00 00 00 00 00 00 ................
004086C0 00 00 00 00 00 00 00 00 00 00 00 00 00 00 00 00 ................
004086D0 00 00 00 00 00 00 00 00 00 00 00 00 00 00 00 00 ................
004086E0 00 00 00 00 00 00 00 00 00 00 00 00 00 00 00 00 ................
004086F0 00 00 00 00 00 00 00 00 00 00 00 00 00 00 00 00 ................
00408700 00 00 00 00 00 00 00 00 00 00 00 00 00 00 00 00 ................
00408710 00 00 00 00 00 00 00 00 00 00 00 00 00 00 00 00 ................
00408720 00 00 00 00 00 00 00 00 00 00 00 00 00 00 00 00 ................
00408730 00 00 00 00 00 00 00 00 00 00 00 00 00 00 00 00 ................
00408740 00 00 00 00 00 00 00 00 00 00 00 00 00 00 00 00 ................
00408750 00 00 00 00 00 00 00 00 00 00 00 00 00 00 00 00 ................
00408760 00 00 00 00 00 00 00 00 00 00 00 00 00 00 00 00 ................
00408770 00 00 00 00 00 00 00 00 00 00 00 00 00 00 00 00 ................
00408780 00 00 00 00 00 00 00 00 00 00 00 00 00 00 00 00 ................
00408790 00 00 00 00 00 00 00 00 00 00 00 00 00 00 00 00 ................
004087A0 00 00 00 00 00 00 00 00 00 00 00 00 00 00 00 00 ................
004087B0 00 00 00 00 00 00 00 00 00 00 00 00 00 00 00 00 ................
004087C0 00 00 00 00 00 00 00 00 00 00 00 00 00 00 00 00 ................
004087D0 00 00 00 00 00 00 00 00 00 00 00 00 00 00 00 00 ................
004087E0 00 00 00 00 00 00 00 00 00 00 00 00 00 00 00 00 ................
004087F0 00 00 00 00 00 00 00 00 00 00 00 00 00 00 00 00 ................
00408800 00 00 00 00 00 00 00 00 00 00 00 00 00 00 00 00 ................
00408810 00 00 00 00 00 00 00 00 00 00 00 00 00 00 00 00 ................
00408820 00 00 00 00 00 00 00 00 00 00 00 00 00 00 00 00 ................
00408830 00 00 00 00 00 00 00 00 00 00 00 00 00 00 00 00 ................
00408840 00 00 00 00 00 00 00 00 00 00 00 00 00 00 00 00 ................
00408850 00 00 00 00 00 00 00 00 00 00 00 00 00 00 00 00 ................
00408860 00 00 00 00 00 00 00 00 00 00 00 00 00 00 00 00 ................
00408870 00 00 00 00 00 00 00 00 00 00 00 00 00 00 00 00 ................
00408880 00 00 00 00 00 00 00 00 00 00 00 00 00 00 00 00 ................
00408890 00 00 00 00 00 00 00 00 00 00 00 00 00 00 00 00 ................
004088A0 00 00 00 00 00 00 00 00 00 00 00 00 00 00 00 00 ................
004088B0 00 00 00 00 00 00 00 00 00 00 00 00 00 00 00 00 ................
004088C0 00 00 00 00 00 00 00 00 00 00 00 00 00 00 00 00 ................
004088D0 00 00 00 00 00 00 00 00 00 00 00 00 00 00 00 00 ................
004088E0 00 00 00 00 00 00 00 00 00 00 00 00 00 00 00 00 ................
004088F0 00 00 00 00 00 00 00 00 00 00 00 00 00 00 00 00 ................
00408900 00 00 00 00 00 00 00 00 00 00 00 00 00 00 00 00 ................
00408910 00 00 00 00 00 00 00 00 00 00 00 00 00 00 00 00 ................
00408920 00 00 00 00 00 00 00 00 00 00 00 00 00 00 00 00 ................
00408930 00 00 00 00 00 00 00 00 00 00 00 00 00 00 00 00 ................
00408940 00 00 00 00 00 00 00 00 00 00 00 00 00 00 00 00 ................
00408950 00 00 00 00 00 00 00 00 00 00 00 00 00 00 00 00 ................
00408960 00 00 00 00 00 00 00 00 00 00 00 00 00 00 00 00 ................
00408970 00 00 00 00 00 00 00 00 00 00 00 00 00 00 00 00 ................
00408980 00 00 00 00 00 00 00 00 00 00 00 00 00 00 00 00 ................
00408990 00 00 00 00 00 00 00 00 00 00 00 00 00 00 00 00 ................
004089A0 00 00 00 00 00 00 00 00 00 00 00 00 00 00 00 00 ................
004089B0 00 00 00 00 00 00 00 00 00 00 00 00 00 00 00 00 ................
004089C0 00 00 00 00 00 00 00 00 00 00 00 00 00 00 00 00 ................
004089D0 00 00 00 00 00 00 00 00 00 00 00 00 00 00 00 00 ................
004089E0 00 00 00 00 00 00 00 00 00 00 00 00 00 00 00 00 ................
004089F0 00 00 00 00 00 00 00 00 00 00 00 00 00 00 00 00 ................
00408A00 00 00 00 00 00 00 00 00 00 00 00 00 00 00 00 00 ................
00408A10 00 00 00 00 00 00 00 00 00 00 00 00 00 00 00 00 ................
00408A20 00 00 00 00 00 00 00 00 00 00 00 00 00 00 00 00 ................
00408A30 00 00 00 00 00 00 00 00 00 00 00 00 00 00 00 00 ................
00408A40 00 00 00 00 00 00 00 00 00 00 00 00 00 00 00 00 ................
00408A50 00 00 00 00 00 00 00 00 00 00 00 00 00 00 00 00 ................
00408A60 00 00 00 00 00 00 00 00 00 00 00 00 00 00 00 00 ................
00408A70 00 00 00 00 00 00 00 00 00 00 00 00 00 00 00 00 ................
00408A80 00 00 00 00 00 00 00 00 00 00 00 00 00 00 00 00 ................
00408A90 00 00 00 00 00 00 00 00 00 00 00 00 00 00 00 00 ................
00408AA0 00 00 00 00 00 00 00 00 00 00 00 00 00 00 00 00 ................
00408AB0 00 00 00 00 00 00 00 00 00 00 00 00 00 00 00 00 ................
00408AC0 00 00 00 00 00 00 00 00 00 00 00 00 00 00 00 00 ................
00408AD0 00 00 00 00 00 00 00 00 00 00 00 00 00 00 00 00 ................
00408AE0 00 00 00 00 00 00 00 00 00 00 00 00 00 00 00 00 ................
00408AF0 00 00 00 00 00 00 00 00 00 00 00 00 00 00 00 00 ................
00408B00 00 00 00 00 00 00 00 00 00 00 00 00 00 00 00 00 ................
00408B10 00 00 00 00 00 00 00 00 00 00 00 00 00 00 00 00 ................
00408B20 00 00 00 00 00 00 00 00 00 00 00 00 00 00 00 00 ................
00408B30 00 00 00 00 00 00 00 00 00 00 00 00 00 00 00 00 ................
00408B40 00 00 00 00 00 00 00 00 00 00 00 00 00 00 00 00 ................
00408B50 00 00 00 00 00 00 00 00 00 00 00 00 00 00 00 00 ................
00408B60 00 00 00 00 00 00 00 00 00 00 00 00 00 00 00 00 ................
00408B70 00 00 00 00 00 00 00 00 00 00 00 00 00 00 00 00 ................
00408B80 00 00 00 00 00 00 00 00 00 00 00 00 00 00 00 00 ................
00408B90 00 00 00 00 00 00 00 00 00 00 00 00 00 00 00 00 ................
00408BA0 00 00 00 00 00 00 00 00 00 00 00 00 00 00 00 00 ................
00408BB0 00 00 00 00 00 00 00 00 00 00 00 00 00 00 00 00 ................
00408BC0 00 00 00 00 00 00 00 00 00 00 00 00 00 00 00 00 ................
00408BD0 00 00 00 00 00 00 00 00 00 00 00 00 00 00 00 00 ................
00408BE0 00 00 00 00 00 00 00 00 00 00 00 00 00 00 00 00 ................
00408BF0 00 00 00 00 00 00 00 00 00 00 00 00 00 00 00 00 ................
00408C00 00 00 00 00 00 00 00 00 00 00 00 00 00 00 00 00 ................
00408C10 00 00 00 00 00 00 00 00 00 00 00 00 00 00 00 00 ................
00408C20 00 00 00 00 00 00 00 00 00 00 00 00 00 00 00 00 ................
00408C30 00 00 00 00 00 00 00 00 00 00 00 00 00 00 00 00 ................
00408C40 00 00 00 00 00 00 00 00 00 00 00 00 00 00 00 00 ................
00408C50 00 00 00 00 00 00 00 00 00 00 00 00 00 00 00 00 ................
00408C60 00 00 00 00 00 00 00 00 00 00 00 00 00 00 00 00 ................
00408C70 00 00 00 00 00 00 00 00 00 00 00 00 00 00 00 00 ................
00408C80 00 00 00 00 00 00 00 00 00 00 00 00 00 00 00 00 ................
00408C90 00 00 00 00 00 00 00 00 00 00 00 00 00 00 00 00 ................
00408CA0 00 00 00 00 00 00 00 00 00 00 00 00 00 00 00 00 ................
00408CB0 00 00 00 00 00 00 00 00 00 00 00 00 00 00 00 00 ................
00408CC0 00 00 00 00 00 00 00 00 00 00 00 00 00 00 00 00 ................
00408CD0 00 00 00 00 00 00 00 00 00 00 00 00 00 00 00 00 ................
00408CE0 00 00 00 00 00 00 00 00 00 00 00 00 00 00 00 00 ................
00408CF0 00 00 00 00 00 00 00 00 00 00 00 00 00 00 00 00 ................
00408D00 00 00 00 00 00 00 00 00 00 00 00 00 00 00 00 00 ................
00408D10 00 00 00 00 00 00 00 00 00 00 00 00 00 00 00 00 ................
00408D20 00 00 00 00 00 00 00 00 00 00 00 00 00 00 00 00 ................
00408D30 00 00 00 00 00 00 00 00 00 00 00 00 00 00 00 00 ................
00408D40 00 00 00 00 00 00 00 00 00 00 00 00 00 00 00 00 ................
00408D50 00 00 00 00 00 00 00 00 00 00 00 00 00 00 00 00 ................
00408D60 00 00 00 00 00 00 00 00 00 00 00 00 00 00 00 00 ................
00408D70 00 00 00 00 00 00 00 00 00 00 00 00 00 00 00 00 ................
00408D80 00 00 00 00 00 00 00 00 00 00 00 00 00 00 00 00 ................
00408D90 00 00 00 00 00 00 00 00 00 00 00 00 00 00 00 00 ................
00408DA0 00 00 00 00 00 00 00 00 00 00 00 00 00 00 00 00 ................
00408DB0 00 00 00 00 00 00 00 00 00 00 00 00 00 00 00 00 ................
00408DC0 00 00 00 00 00 00 00 00 00 00 00 00 00 00 00 00 ................
00408DD0 00 00 00 00 00 00 00 00 00 00 00 00 00 00 00 00 ................
00408DE0 00 00 00 00 00 00 00 00 00 00 00 00 00 00 00 00 ................
00408DF0 00 00 00 00 00 00 00 00 00 00 00 00 00 00 00 00 ................
00408E00 00 00 00 00 00 00 00 00 00 00 00 00 00 00 00 00 ................
00408E10 00 00 00 00 00 00 00 00 00 00 00 00 00 00 00 00 ................
00408E20 00 00 00 00 00 00 00 00 00 00 00 00 00 00 00 00 ................
00408E30 00 00 00 00 00 00 00 00 00 00 00 00 00 00 00 00 ................
00408E40 00 00 00 00 00 00 00 00 00 00 00 00 00 00 00 00 ................
00408E50 00 00 00 00 00 00 00 00 00 00 00 00 00 00 00 00 ................
00408E60 00 00 00 00 00 00 00 00 00 00 00 00 00 00 00 00 ................
00408E70 00 00 00 00 00 00 00 00 00 00 00 00 00 00 00 00 ................
00408E80 00 00 00 00 00 00 00 00 00 00 00 00 00 00 00 00 ................
00408E90 00 00 00 00 00 00 00 00 00 00 00 00 00 00 00 00 ................
00408EA0 00 00 00 00 00 00 00 00 00 00 00 00 00 00 00 00 ................
00408EB0 00 00 00 00 00 00 00 00 00 00 00 00 00 00 00 00 ................
00408EC0 00 00 00 00 00 00 00 00 00 00 00 00 00 00 00 00 ................
00408ED0 00 00 00 00 00 00 00 00 00 00 00 00 00 00 00 00 ................
00408EE0 00 00 00 00 00 00 00 00 00 00 00 00 00 00 00 00 ................
00408EF0 00 00 00 00 00 00 00 00 00 00 00 00 00 00 00 00 ................
00408F00 00 00 00 00 00 00 00 00 00 00 00 00 00 00 00 00 ................
00408F10 00 00 00 00 00 00 00 00 00 00 00 00 00 00 00 00 ................
00408F20 00 00 00 00 00 00 00 00 00 00 00 00 00 00 00 00 ................
00408F30 00 00 00 00 00 00 00 00 00 00 00 00 00 00 00 00 ................
00408F40 00 00 00 00 00 00 00 00 00 00 00 00 00 00 00 00 ................
00408F50 00 00 00 00 00 00 00 00 00 00 00 00 00 00 00 00 ................
00408F60 00 00 00 00 00 00 00 00 00 00 00 00 00 00 00 00 ................
00408F70 00 00 00 00 00 00 00 00 00 00 00 00 00 00 00 00 ................
00408F80 00 00 00 00 00 00 00 00 00 00 00 00 00 00 00 00 ................
00408F90 00 00 00 00 00 00 00 00 00 00 00 00 00 00 00 00 ................
00408FA0 00 00 00 00 00 00 00 00 00 00 00 00 00 00 00 00 ................
00408FB0 00 00 00 00 00 00 00 00 00 00 00 00 00 00 00 00 ................
00408FC0 00 00 00 00 00 00 00 00 00 00 00 00 00 00 00 00 ................
00408FD0 00 00 00 00 00 00 00 00 00 00 00 00 00 00 00 00 ................
00408FE0 00 00 00 00 00 00 00 00 00 00 00 00 00 00 00 00 ................
00408FF0 00 00 00 00 00 00 00 00 00 00 00 00 00 00 00 00 ................
00409000 00 00 00 00 00 00 00 00 00 00 00 00 00 00 00 00 ................
00409010 00 00 00 00 00 00 00 00 00 00 00 00 00 00 00 00 ................
00409020 00 00 00 00 00 00 00 00 00 00 00 00 00 00 00 00 ................
00409030 00 00 00 00 00 00 00 00 00 00 00 00 00 00 00 00 ................
00409040 00 00 00 00 00 00 00 00 00 00 00 00 00 00 00 00 ................
00409050 00 00 00 00 00 00 00 00 00 00 00 00 00 00 00 00 ................
00409060 00 00 00 00 00 00 00 00 00 00 00 00 00 00 00 00 ................
00409070 00 00 00 00 00 00 00 00 00 00 00 00 00 00 00 00 ................
00409080 00 00 00 00 00 00 00 00 00 00 00 00 00 00 00 00 ................
00409090 00 00 00 00 00 00 00 00 00 00 00 00 00 00 00 00 ................
004090A0 00 00 00 00 00 00 00 00 00 00 00 00 00 00 00 00 ................
004090B0 00 00 00 00 00 00 00 00 00 00 00 00 00 00 00 00 ................
004090C0 00 00 00 00 00 00 00 00 00 00 00 00 00 00 00 00 ................
004090D0 00 00 00 00 00 00 00 00 00 00 00 00 00 00 00 00 ................
004090E0 00 00 00 00 00 00 00 00 00 00 00 00 00 00 00 00 ................
004090F0 00 00 00 00 00 00 00 00 00 00 00 00 00 00 00 00 ................
00409100 00 00 00 00 00 00 00 00 00 00 00 00 00 00 00 00 ................
00409110 00 00 00 00 00 00 00 00 00 00 00 00 00 00 00 00 ................
00409120 00 00 00 00 00 00 00 00 00 00 00 00 00 00 00 00 ................
00409130 00 00 00 00 00 00 00 00 00 00 00 00 00 00 00 00 ................
00409140 00 00 00 00 00 00 00 00 00 00 00 00 00 00 00 00 ................
00409150 00 00 00 00 00 00 00 00 00 00 00 00 00 00 00 00 ................
00409160 00 00 00 00 00 00 00 00 00 00 00 00 00 00 00 00 ................
00409170 00 00 00 00 00 00 00 00 00 00 00 00 00 00 00 00 ................
00409180 00 00 00 00 00 00 00 00 00 00 00 00 00 00 00 00 ................
00409190 00 00 00 00 00 00 00 00 00 00 00 00 00 00 00 00 ................
004091A0 00 00 00 00 00 00 00 00 00 00 00 00 00 00 00 00 ................
004091B0 00 00 00 00 00 00 00 00 00 00 00 00 00 00 00 00 ................
004091C0 00 00 00 00 00 00 00 00 00 00 00 00 00 00 00 00 ................
004091D0 00 00 00 00 00 00 00 00 00 00 00 00 00 00 00 00 ................
004091E0 00 00 00 00 00 00 00 00 00 00 00 00 00 00 00 00 ................
004091F0 00 00 00 00 00 00 00 00 00 00 00 00 00 00 00 00 ................
00409200 00 00 00 00 00 00 00 00 00 00 00 00 00 00 00 00 ................
00409210 00 00 00 00 00 00 00 00 00 00 00 00 00 00 00 00 ................
00409220 00 00 00 00 00 00 00 00 00 00 00 00 00 00 00 00 ................
00409230 00 00 00 00 00 00 00 00 00 00 00 00 00 00 00 00 ................
00409240 00 00 00 00 00 00 00 00 00 00 00 00 00 00 00 00 ................
00409250 00 00 00 00 00 00 00 00 00 00 00 00 00 00 00 00 ................
00409260 00 00 00 00 00 00 00 00 00 00 00 00 00 00 00 00 ................
00409270 00 00 00 00 00 00 00 00 00 00 00 00 00 00 00 00 ................
00409280 00 00 00 00 00 00 00 00 00 00 00 00 00 00 00 00 ................
00409290 00 00 00 00 00 00 00 00 00 00 00 00 00 00 00 00 ................
004092A0 00 00 00 00 00 00 00 00 00 00 00 00 00 00 00 00 ................
004092B0 00 00 00 00 00 00 00 00 00 00 00 00 00 00 00 00 ................
004092C0 00 00 00 00 00 00 00 00 00 00 00 00 00 00 00 00 ................
004092D0 00 00 00 00 00 00 00 00 00 00 00 00 00 00 00 00 ................
004092E0 00 00 00 00 00 00 00 00 00 00 00 00 00 00 00 00 ................
004092F0 00 00 00 00 00 00 00 00 00 00 00 00 00 00 00 00 ................
00409300 00 00 00 00 00 00 00 00 00 00 00 00 00 00 00 00 ................
00409310 00 00 00 00 00 00 00 00 00 00 00 00 00 00 00 00 ................
00409320 00 00 00 00 00 00 00 00 00 00 00 00 00 00 00 00 ................
00409330 00 00 00 00 00 00 00 00 00 00 00 00 00 00 00 00 ................
00409340 00 00 00 00 00 00 00 00 00 00 00 00 00 00 00 00 ................
00409350 00 00 00 00 00 00 00 00 00 00 00 00 00 00 00 00 ................
00409360 00 00 00 00 00 00 00 00 00 00 00 00 00 00 00 00 ................
00409370 00 00 00 00 00 00 00 00 00 00 00 00 00 00 00 00 ................
00409380 00 00 00 00 00 00 00 00 00 00 00 00 00 00 00 00 ................
00409390 00 00 00 00 00 00 00 00 00 00 00 00 00 00 00 00 ................
004093A0 00 00 00 00 00 00 00 00 00 00 00 00 00 00 00 00 ................
004093B0 00 00 00 00 00 00 00 00 00 00 00 00 00 00 00 00 ................
004093C0 00 00 00 00 00 00 00 00 00 00 00 00 00 00 00 00 ................
004093D0 00 00 00 00 00 00 00 00 00 00 00 00 00 00 00 00 ................
004093E0 00 00 00 00 00 00 00 00 00 00 00 00 00 00 00 00 ................
004093F0 00 00 00 00 00 00 00 00 00 00 00 00 00 00 00 00 ................
00409400 00 00 00 00 00 00 00 00 00 00 00 00 00 00 00 00 ................
00409410 00 00 00 00 00 00 00 00 00 00 00 00 00 00 00 00 ................
00409420 00 00 00 00 00 00 00 00 00 00 00 00 00 00 00 00 ................
00409430 00 00 00 00 00 00 00 00 00 00 00 00 00 00 00 00 ................
00409440 00 00 00 00 00 00 00 00 00 00 00 00 00 00 00 00 ................
00409450 00 00 00 00 00 00 00 00 00 00 00 00 00 00 00 00 ................
00409460 00 00 00 00 00 00 00 00 00 00 00 00 00 00 00 00 ................
00409470 00 00 00 00 00 00 00 00 00 00 00 00 00 00 00 00 ................
00409480 00 00 00 00 00 00 00 00 00 00 00 00 00 00 00 00 ................
00409490 00 00 00 00 00 00 00 00 00 00 00 00 00 00 00 00 ................
004094A0 00 00 00 00 00 00 00 00 00 00 00 00 00 00 00 00 ................
004094B0 00 00 00 00 00 00 00 00 00 00 00 00 00 00 00 00 ................
004094C0 00 00 00 00 00 00 00 00 00 00 00 00 00 00 00 00 ................
004094D0 00 00 00 00 00 00 00 00 00 00 00 00 00 00 00 00 ................
004094E0 00 00 00 00 00 00 00 00 00 00 00 00 00 00 00 00 ................
004094F0 00 00 00 00 00 00 00 00 00 00 00 00 00 00 00 00 ................
00409500 00 00 00 00 00 00 00 00 00 00 00 00 00 00 00 00 ................
00409510 00 00 00 00 00 00 00 00 00 00 00 00 00 00 00 00 ................
00409520 00 00 00 00 00 00 00 00 00 00 00 00 00 00 00 00 ................
00409530 00 00 00 00 00 00 00 00 00 00 00 00 00 00 00 00 ................
00409540 00 00 00 00 00 00 00 00 00 00 00 00 00 00 00 00 ................
00409550 00 00 00 00 00 00 00 00 00 00 00 00 00 00 00 00 ................
00409560 00 00 00 00 00 00 00 00 00 00 00 00 00 00 00 00 ................
00409570 00 00 00 00 00 00 00 00 00 00 00 00 00 00 00 00 ................
00409580 00 00 00 00 00 00 00 00 00 00 00 00 00 00 00 00 ................
00409590 00 00 00 00 00 00 00 00 00 00 00 00 00 00 00 00 ................
004095A0 00 00 00 00 00 00 00 00 00 00 00 00 00 00 00 00 ................
004095B0 00 00 00 00 00 00 00 00 00 00 00 00 00 00 00 00 ................
004095C0 00 00 00 00 00 00 00 00 00 00 00 00 00 00 00 00 ................
004095D0 00 00 00 00 00 00 00 00 00 00 00 00 00 00 00 00 ................
004095E0 00 00 00 00 00 00 00 00 00 00 00 00 00 00 00 00 ................
004095F0 00 00 00 00 00 00 00 00 00 00 00 00 00 00 00 00 ................
00409600 00 00 00 00 00 00 00 00 00 00 00 00 00 00 00 00 ................
00409610 00 00 00 00 00 00 00 00 00 00 00 00 00 00 00 00 ................
00409620 00 00 00 00 00 00 00 00 00 00 00 00 00 00 00 00 ................
00409630 00 00 00 00 00 00 00 00 00 00 00 00 00 00 00 00 ................
00409640 00 00 00 00 00 00 00 00 00 00 00 00 00 00 00 00 ................
00409650 00 00 00 00 00 00 00 00 00 00 00 00 00 00 00 00 ................
00409660 00 00 00 00 00 00 00 00 00 00 00 00 00 00 00 00 ................
00409670 00 00 00 00 00 00 00 00 00 00 00 00 00 00 00 00 ................
00409680 00 00 00 00 00 00 00 00 00 00 00 00 00 00 00 00 ................
00409690 00 00 00 00 00 00 00 00 00 00 00 00 00 00 00 00 ................
004096A0 00 00 00 00 00 00 00 00 00 00 00 00 00 00 00 00 ................
004096B0 00 00 00 00 00 00 00 00 00 00 00 00 00 00 00 00 ................
004096C0 00 00 00 00 00 00 00 00 00 00 00 00 00 00 00 00 ................
004096D0 00 00 00 00 00 00 00 00 00 00 00 00 00 00 00 00 ................
004096E0 00 00 00 00 00 00 00 00 00 00 00 00 00 00 00 00 ................
004096F0 00 00 00 00 00 00 00 00 00 00 00 00 00 00 00 00 ................
00409700 00 00 00 00 00 00 00 00 00 00 00 00 00 00 00 00 ................
00409710 00 00 00 00 00 00 00 00 00 00 00 00 00 00 00 00 ................
00409720 00 00 00 00 00 00 00 00 00 00 00 00 00 00 00 00 ................
00409730 00 00 00 00 00 00 00 00 00 00 00 00 00 00 00 00 ................
00409740 00 00 00 00 00 00 00 00 00 00 00 00 00 00 00 00 ................
00409750 00 00 00 00 00 00 00 00 00 00 00 00 00 00 00 00 ................
00409760 00 00 00 00 00 00 00 00 00 00 00 00 00 00 00 00 ................
00409770 00 00 00 00 00 00 00 00 00 00 00 00 00 00 00 00 ................
00409780 00 00 00 00 00 00 00 00 00 00 00 00 00 00 00 00 ................
00409790 00 00 00 00 00 00 00 00 00 00 00 00 00 00 00 00 ................
004097A0 00 00 00 00 00 00 00 00 00 00 00 00 00 00 00 00 ................
004097B0 00 00 00 00 00 00 00 00 00 00 00 00 00 00 00 00 ................
004097C0 00 00 00 00 00 00 00 00 00 00 00 00 00 00 00 00 ................
004097D0 00 00 00 00 00 00 00 00 00 00 00 00 00 00 00 00 ................
004097E0 00 00 00 00 00 00 00 00 00 00 00 00 00 00 00 00 ................
004097F0 00 00 00 00 00 00 00 00 00 00 00 00 00 00 00 00 ................
00409800 00 00 00 00 00 00 00 00 00 00 00 00 00 00 00 00 ................
00409810 00 00 00 00 00 00 00 00 00 00 00 00 00 00 00 00 ................
00409820 00 00 00 00 00 00 00 00 00 00 00 00 00 00 00 00 ................
00409830 00 00 00 00 00 00 00 00 00 00 00 00 00 00 00 00 ................
00409840 00 00 00 00 00 00 00 00 00 00 00 00 00 00 00 00 ................
00409850 00 00 00 00 00 00 00 00 00 00 00 00 00 00 00 00 ................
00409860 00 00 00 00 00 00 00 00 00 00 00 00 00 00 00 00 ................
00409870 00 00 00 00 00 00 00 00 00 00 00 00 00 00 00 00 ................
00409880 00 00 00 00 00 00 00 00 00 00 00 00 00 00 00 00 ................
00409890 00 00 00 00 00 00 00 00 00 00 00 00 00 00 00 00 ................
004098A0 00 00 00 00 00 00 00 00 00 00 00 00 00 00 00 00 ................
004098B0 00 00 00 00 00 00 00 00 00 00 00 00 00 00 00 00 ................
004098C0 00 00 00 00 00 00 00 00 00 00 00 00 00 00 00 00 ................
004098D0 00 00 00 00 00 00 00 00 00 00 00 00 00 00 00 00 ................
004098E0 00 00 00 00 00 00 00 00 00 00 00 00 00 00 00 00 ................
004098F0 00 00 00 00 00 00 00 00 00 00 00 00 00 00 00 00 ................
00409900 00 00 00 00 00 00 00 00 00 00 00 00 00 00 00 00 ................
00409910 00 00 00 00 00 00 00 00 00 00 00 00 00 00 00 00 ................
00409920 00 00 00 00 00 00 00 00 00 00 00 00 00 00 00 00 ................
00409930 00 00 00 00 00 00 00 00 00 00 00 00 00 00 00 00 ................
00409940 00 00 00 00 00 00 00 00 00 00 00 00 00 00 00 00 ................
00409950 00 00 00 00 00 00 00 00 00 00 00 00 00 00 00 00 ................
00409960 00 00 00 00 00 00 00 00 00 00 00 00 00 00 00 00 ................
00409970 00 00 00 00 00 00 00 00 00 00 00 00 00 00 00 00 ................
00409980 00 00 00 00 00 00 00 00 00 00 00 00 00 00 00 00 ................
00409990 00 00 00 00 00 00 00 00 00 00 00 00 00 00 00 00 ................
004099A0 00 00 00 00 00 00 00 00 00 00 00 00 00 00 00 00 ................
004099B0 00 00 00 00 00 00 00 00 00 00 00 00 00 00 00 00 ................
004099C0 00 00 00 00 00 00 00 00 00 00 00 00 00 00 00 00 ................
004099D0 00 00 00 00 00 00 00 00 00 00 00 00 00 00 00 00 ................
004099E0 00 00 00 00 00 00 00 00 00 00 00 00 00 00 00 00 ................
004099F0 00 00 00 00 00 00 00 00 00 00 00 00 00 00 00 00 ................
00409A00 00 00 00 00 00 00 00 00 00 00 00 00 00 00 00 00 ................
00409A10 00 00 00 00 00 00 00 00 00 00 00 00 00 00 00 00 ................
00409A20 00 00 00 00 00 00 00 00 00 00 00 00 00 00 00 00 ................
00409A30 00 00 00 00 00 00 00 00 00 00 00 00 00 00 00 00 ................
00409A40 00 00 00 00 00 00 00 00 00 00 00 00 00 00 00 00 ................
00409A50 00 00 00 00 00 00 00 00 00 00 00 00 00 00 00 00 ................
00409A60 00 00 00 00 00 00 00 00 00 00 00 00 00 00 00 00 ................
00409A70 00 00 00 00 00 00 00 00 00 00 00 00 00 00 00 00 ................
00409A80 00 00 00 00 00 00 00 00 00 00 00 00 00 00 00 00 ................
00409A90 00 00 00 00 00 00 00 00 00 00 00 00 00 00 00 00 ................
00409AA0 00 00 00 00 00 00 00 00 00 00 00 00 00 00 00 00 ................
00409AB0 00 00 00 00 00 00 00 00 00 00 00 00 00 00 00 00 ................
00409AC0 00 00 00 00 00 00 00 00 00 00 00 00 00 00 00 00 ................
00409AD0 00 00 00 00 00 00 00 00 00 00 00 00 00 00 00 00 ................
00409AE0 00 00 00 00 00 00 00 00 00 00 00 00 00 00 00 00 ................
00409AF0 00 00 00 00 00 00 00 00 00 00 00 00 00 00 00 00 ................
00409B00 00 00 00 00 00 00 00 00 00 00 00 00 00 00 00 00 ................
00409B10 00 00 00 00 00 00 00 00 00 00 00 00 00 00 00 00 ................
00409B20 00 00 00 00 00 00 00 00 00 00 00 00 00 00 00 00 ................
00409B30 00 00 00 00 00 00 00 00 00 00 00 00 00 00 00 00 ................
00409B40 00 00 00 00 00 00 00 00 00 00 00 00 00 00 00 00 ................
00409B50 00 00 00 00 00 00 00 00 00 00 00 00 00 00 00 00 ................
00409B60 00 00 00 00 00 00 00 00 00 00 00 00 00 00 00 00 ................
00409B70 00 00 00 00 00 00 00 00 00 00 00 00 00 00 00 00 ................
00409B80 00 00 00 00 00 00 00 00 00 00 00 00 00 00 00 00 ................
00409B90 00 00 00 00 00 00 00 00 00 00 00 00 00 00 00 00 ................
00409BA0 00 00 00 00 00 00 00 00 00 00 00 00 00 00 00 00 ................
00409BB0 00 00 00 00 00 00 00 00 00 00 00 00 00 00 00 00 ................
00409BC0 00 00 00 00 00 00 00 00 00 00 00 00 00 00 00 00 ................
00409BD0 00 00 00 00 00 00 00 00 00 00 00 00 00 00 00 00 ................
00409BE0 00 00 00 00 00 00 00 00 00 00 00 00 00 00 00 00 ................
00409BF0 00 00 00 00 00 00 00 00 00 00 00 00 00 00 00 00 ................
00409C00 00 00 00 00 00 00 00 00 00 00 00 00 00 00 00 00 ................
00409C10 00 00 00 00 00 00 00 00 00 00 00 00 00 00 00 00 ................
00409C20 00 00 00 00 00 00 00 00 00 00 00 00 00 00 00 00 ................
00409C30 00 00 00 00 00 00 00 00 00 00 00 00 00 00 00 00 ................
00409C40 00 00 00 00 00 00 00 00 00 00 00 00 00 00 00 00 ................
00409C50 00 00 00 00 00 00 00 00 00 00 00 00 00 00 00 00 ................
00409C60 00 00 00 00 00 00 00 00 00 00 00 00 00 00 00 00 ................
00409C70 00 00 00 00 00 00 00 00 00 00 00 00 00 00 00 00 ................
00409C80 00 00 00 00 00 00 00 00 00 00 00 00 00 00 00 00 ................
00409C90 00 00 00 00 00 00 00 00 00 00 00 00 00 00 00 00 ................
00409CA0 00 00 00 00 00 00 00 00 00 00 00 00 00 00 00 00 ................
00409CB0 00 00 00 00 00 00 00 00 00 00 00 00 00 00 00 00 ................
00409CC0 00 00 00 00 00 00 00 00 00 00 00 00 00 00 00 00 ................
00409CD0 00 00 00 00 00 00 00 00 00 00 00 00 00 00 00 00 ................
00409CE0 00 00 00 00 00 00 00 00 00 00 00 00 00 00 00 00 ................
00409CF0 00 00 00 00 00 00 00 00 00 00 00 00 00 00 00 00 ................
00409D00 00 00 00 00 00 00 00 00 00 00 00 00 00 00 00 00 ................
00409D10 00 00 00 00 00 00 00 00 00 00 00 00 00 00 00 00 ................
00409D20 00 00 00 00 00 00 00 00 00 00 00 00 00 00 00 00 ................
00409D30 00 00 00 00 00 00 00 00 00 00 00 00 00 00 00 00 ................
00409D40 00 00 00 00 00 00 00 00 00 00 00 00 00 00 00 00 ................
00409D50 00 00 00 00 00 00 00 00 00 00 00 00 00 00 00 00 ................
00409D60 00 00 00 00 00 00 00 00 00 00 00 00 00 00 00 00 ................
00409D70 00 00 00 00 00 00 00 00 00 00 00 00 00 00 00 00 ................
00409D80 00 00 00 00 00 00 00 00 00 00 00 00 00 00 00 00 ................
00409D90 00 00 00 00 00 00 00 00 00 00 00 00 00 00 00 00 ................
00409DA0 00 00 00 00 00 00 00 00 00 00 00 00 00 00 00 00 ................
00409DB0 00 00 00 00 00 00 00 00 00 00 00 00 00 00 00 00 ................
00409DC0 00 00 00 00 00 00 00 00 00 00 00 00 00 00 00 00 ................
00409DD0 00 00 00 00 00 00 00 00 00 00 00 00 00 00 00 00 ................
00409DE0 00 00 00 00 00 00 00 00 00 00 00 00 00 00 00 00 ................
00409DF0 00 00 00 00 00 00 00 00 00 00 00 00 00 00 00 00 ................
00409E00 00 00 00 00 00 00 00 00 00 00 00 00 00 00 00 00 ................
00409E10 00 00 00 00 00 00 00 00 00 00 00 00 00 00 00 00 ................
00409E20 00 00 00 00 00 00 00 00 00 00 00 00 00 00 00 00 ................
00409E30 00 00 00 00 00 00 00 00 00 00 00 00 00 00 00 00 ................
00409E40 00 00 00 00 00 00 00 00 00 00 00 00 00 00 00 00 ................
00409E50 00 00 00 00 00 00 00 00 00 00 00 00 00 00 00 00 ................
00409E60 00 00 00 00 00 00 00 00 00 00 00 00 00 00 00 00 ................
00409E70 00 00 00 00 00 00 00 00 00 00 00 00 00 00 00 00 ................
00409E80 00 00 00 00 00 00 00 00 00 00 00 00 00 00 00 00 ................
00409E90 00 00 00 00 00 00 00 00 00 00 00 00 00 00 00 00 ................
00409EA0 00 00 00 00 00 00 00 00 00 00 00 00 00 00 00 00 ................
00409EB0 00 00 00 00 00 00 00 00 00 00 00 00 00 00 00 00 ................
00409EC0 00 00 00 00 00 00 00 00 00 00 00 00 00 00 00 00 ................
00409ED0 00 00 00 00 00 00 00 00 00 00 00 00 00 00 00 00 ................
00409EE0 00 00 00 00 00 00 00 00 00 00 00 00 00 00 00 00 ................
00409EF0 00 00 00 00 00 00 00 00 00 00 00 00 00 00 00 00 ................
00409F00 00 00 00 00 00 00 00 00 00 00 00 00 00 00 00 00 ................
00409F10 00 00 00 00 00 00 00 00 00 00 00 00 00 00 00 00 ................
00409F20 00 00 00 00 00 00 00 00 00 00 00 00 00 00 00 00 ................
00409F30 00 00 00 00 00 00 00 00 00 00 00 00 00 00 00 00 ................
00409F40 00 00 00 00 00 00 00 00 00 00 00 00 00 00 00 00 ................
00409F50 00 00 00 00 00 00 00 00 00 00 00 00 00 00 00 00 ................
00409F60 00 00 00 00 00 00 00 00 00 00 00 00 00 00 00 00 ................
00409F70 00 00 00 00 00 00 00 00 00 00 00 00 00 00 00 00 ................
00409F80 00 00 00 00 00 00 00 00 00 00 00 00 00 00 00 00 ................
00409F90 00 00 00 00 00 00 00 00 00 00 00 00 00 00 00 00 ................
00409FA0 00 00 00 00 00 00 00 00 00 00 00 00 00 00 00 00 ................
00409FB0 00 00 00 00 00 00 00 00 00 00 00 00 00 00 00 00 ................
00409FC0 00 00 00 00 00 00 00 00 00 00 00 00 00 00 00 00 ................
00409FD0 00 00 00 00 00 00 00 00 00 00 00 00 00 00 00 00 ................
00409FE0 00 00 00 00 00 00 00 00 00 00 00 00 00 00 00 00 ................
00409FF0 00 00 00 00 00 00 00 00 00 00 00 00 00 00 00 00 ................
0040A000 00 00 00 00 00 00 00 00 00 00 00 00 00 00 00 00 ................
0040A010 00 00 00 00 00 00 00 00 00 00 00 00 00 00 00 00 ................
0040A020 00 00 00 00 00 00 00 00 00 00 00 00 00 00 00 00 ................
0040A030 00 00 00 00 00 00 00 00 00 00 00 00 00 00 00 00 ................
0040A040 00 00 00 00 00 00 00 00 00 00 00 00 00 00 00 00 ................
0040A050 00 00 00 00 00 00 00 00 00 00 00 00 00 00 00 00 ................
0040A060 00 00 00 00 00 00 00 00 00 00 00 00 00 00 00 00 ................
0040A070 00 00 00 00 00 00 00 00 00 00 00 00 00 00 00 00 ................
0040A080 00 00 00 00 00 00 00 00 00 00 00 00 00 00 00 00 ................
0040A090 00 00 00 00 00 00 00 00 00 00 00 00 00 00 00 00 ................
0040A0A0 00 00 00 00 00 00 00 00 00 00 00 00 00 00 00 00 ................
0040A0B0 00 00 00 00 00 00 00 00 00 00 00 00 00 00 00 00 ................
0040A0C0 00 00 00 00 00 00 00 00 00 00 00 00 00 00 00 00 ................
0040A0D0 00 00 00 00 00 00 00 00 00 00 00 00 00 00 00 00 ................
0040A0E0 00 00 00 00 00 00 00 00 00 00 00 00 00 00 00 00 ................
0040A0F0 00 00 00 00 00 00 00 00 00 00 00 00 00 00 00 00 ................
0040A100 00 00 00 00 00 00 00 00 00 00 00 00 00 00 00 00 ................
0040A110 00 00 00 00 00 00 00 00 00 00 00 00 00 00 00 00 ................
0040A120 00 00 00 00 00 00 00 00 00 00 00 00 00 00 00 00 ................
0040A130 00 00 00 00 00 00 00 00 00 00 00 00 00 00 00 00 ................
0040A140 00 00 00 00 00 00 00 00 00 00 00 00 00 00 00 00 ................
0040A150 00 00 00 00 00 00 00 00 00 00 00 00 00 00 00 00 ................
0040A160 00 00 00 00 00 00 00 00 00 00 00 00 00 00 00 00 ................
0040A170 00 00 00 00 00 00 00 00 00 00 00 00 00 00 00 00 ................
0040A180 00 00 00 00 00 00 00 00 00 00 00 00 00 00 00 00 ................
0040A190 00 00 00 00 00 00 00 00 00 00 00 00 00 00 00 00 ................
0040A1A0 00 00 00 00 00 00 00 00 00 00 00 00 00 00 00 00 ................
0040A1B0 00 00 00 00 00 00 00 00 00 00 00 00 00 00 00 00 ................
0040A1C0 00 00 00 00 00 00 00 00 00 00 00 00 00 00 00 00 ................
0040A1D0 00 00 00 00 00 00 00 00 00 00 00 00 00 00 00 00 ................
0040A1E0 00 00 00 00 00 00 00 00 00 00 00 00 00 00 00 00 ................
0040A1F0 00 00 00 00 00 00 00 00 00 00 00 00 00 00 00 00 ................
0040A200 00 00 00 00 00 00 00 00 00 00 00 00 00 00 00 00 ................
0040A210 00 00 00 00 00 00 00 00 00 00 00 00 00 00 00 00 ................
0040A220 00 00 00 00 00 00 00 00 00 00 00 00 00 00 00 00 ................
0040A230 00 00 00 00 00 00 00 00 00 00 00 00 00 00 00 00 ................
0040A240 00 00 00 00 00 00 00 00 00 00 00 00 00 00 00 00 ................
0040A250 00 00 00 00 00 00 00 00 00 00 00 00 00 00 00 00 ................
0040A260 00 00 00 00 00 00 00 00 00 00 00 00 00 00 00 00 ................
0040A270 00 00 00 00 00 00 00 00 00 00 00 00 00 00 00 00 ................
0040A280 00 00 00 00 00 00 00 00 00 00 00 00 00 00 00 00 ................
0040A290 00 00 00 00 00 00 00 00 00 00 00 00 00 00 00 00 ................
0040A2A0 00 00 00 00 00 00 00 00 00 00 00 00 00 00 00 00 ................
0040A2B0 00 00 00 00 00 00 00 00 00 00 00 00 00 00 00 00 ................
0040A2C0 00 00 00 00 00 00 00 00 00 00 00 00 00 00 00 00 ................
0040A2D0 00 00 00 00 00 00 00 00 00 00 00 00 00 00 00 00 ................
0040A2E0 00 00 00 00 00 00 00 00 00 00 00 00 00 00 00 00 ................
0040A2F0 00 00 00 00 00 00 00 00 00 00 00 00 00 00 00 00 ................
0040A300 00 00 00 00 00 00 00 00 00 00 00 00 00 00 00 00 ................
0040A310 00 00 00 00 00 00 00 00 00 00 00 00 00 00 00 00 ................
0040A320 00 00 00 00 00 00 00 00 00 00 00 00 00 00 00 00 ................
0040A330 00 00 00 00 00 00 00 00 00 00 00 00 00 00 00 00 ................
0040A340 00 00 00 00 00 00 00 00 00 00 00 00 00 00 00 00 ................
0040A350 00 00 00 00 00 00 00 00 00 00 00 00 00 00 00 00 ................
0040A360 00 00 00 00 00 00 00 00 00 00 00 00 00 00 00 00 ................
0040A370 00 00 00 00 00 00 00 00 00 00 00 00 00 00 00 00 ................
0040A380 00 00 00 00 00 00 00 00 00 00 00 00 00 00 00 00 ................
0040A390 00 00 00 00 00 00 00 00 00 00 00 00 00 00 00 00 ................
0040A3A0 00 00 00 00 00 00 00 00 00 00 00 00 00 00 00 00 ................
0040A3B0 00 00 00 00 00 00 00 00 00 00 00 00 00 00 00 00 ................
0040A3C0 00 00 00 00 00 00 00 00 00 00 00 00 00 00 00 00 ................
0040A3D0 00 00 00 00 00 00 00 00 00 00 00 00 00 00 00 00 ................
0040A3E0 00 00 00 00 00 00 00 00 00 00 00 00 00 00 00 00 ................
0040A3F0 00 00 00 00 00 00 00 00 00 00 00 00 00 00 00 00 ................
0040A400 00 00 00 00 00 00 00 00 00 00 00 00 00 00 00 00 ................
0040A410 00 00 00 00 00 00 00 00 00 00 00 00 00 00 00 00 ................
0040A420 00 00 00 00 00 00 00 00 00 00 00 00 00 00 00 00 ................
0040A430 00 00 00 00 00 00 00 00 00 00 00 00 00 00 00 00 ................
0040A440 00 00 00 00 00 00 00 00 00 00 00 00 00 00 00 00 ................
0040A450 00 00 00 00 00 00 00 00 00 00 00 00 00 00 00 00 ................
0040A460 00 00 00 00 00 00 00 00 00 00 00 00 00 00 00 00 ................
0040A470 00 00 00 00 00 00 00 00 00 00 00 00 00 00 00 00 ................
0040A480 00 00 00 00 00 00 00 00 00 00 00 00 00 00 00 00 ................
0040A490 00 00 00 00 00 00 00 00 00 00 00 00 00 00 00 00 ................
0040A4A0 00 00 00 00 00 00 00 00 00 00 00 00 00 00 00 00 ................
0040A4B0 00 00 00 00 00 00 00 00 00 00 00 00 00 00 00 00 ................
0040A4C0 00 00 00 00 00 00 00 00 00 00 00 00 00 00 00 00 ................
0040A4D0 00 00 00 00 00 00 00 00 00 00 00 00 00 00 00 00 ................
0040A4E0 00 00 00 00 00 00 00 00 00 00 00 00 00 00 00 00 ................
0040A4F0 00 00 00 00 00 00 00 00 00 00 00 00 00 00 00 00 ................
0040A500 00 00 00 00 00 00 00 00 00 00 00 00 00 00 00 00 ................
0040A510 00 00 00 00 00 00 00 00 00 00 00 00 00 00 00 00 ................
0040A520 00 00 00 00 00 00 00 00 00 00 00 00 00 00 00 00 ................
0040A530 00 00 00 00 00 00 00 00 00 00 00 00 00 00 00 00 ................
0040A540 00 00 00 00 00 00 00 00 00 00 00 00 00 00 00 00 ................
0040A550 00 00 00 00 00 00 00 00 00 00 00 00 00 00 00 00 ................
0040A560 00 00 00 00 00 00 00 00 00 00 00 00 00 00 00 00 ................
0040A570 00 00 00 00 00 00 00 00 00 00 00 00 00 00 00 00 ................
0040A580 00 00 00 00 00 00 00 00 00 00 00 00 00 00 00 00 ................
0040A590 00 00 00 00 00 00 00 00 00 00 00 00 00 00 00 00 ................
0040A5A0 00 00 00 00 00 00 00 00 00 00 00 00 00 00 00 00 ................
0040A5B0 00 00 00 00 00 00 00 00 00 00 00 00 00 00 00 00 ................
0040A5C0 00 00 00 00 00 00 00 00 00 00 00 00 00 00 00 00 ................
0040A5D0 00 00 00 00 00 00 00 00 00 00 00 00 00 00 00 00 ................
0040A5E0 00 00 00 00 00 00 00 00 00 00 00 00 00 00 00 00 ................
0040A5F0 00 00 00 00 00 00 00 00 00 00 00 00 00 00 00 00 ................
0040A600 00 00 00 00 00 00 00 00 00 00 00 00 00 00 00 00 ................
0040A610 00 00 00 00 00 00 00 00 00 00 00 00 00 00 00 00 ................
0040A620 00 00 00 00 00 00 00 00 00 00 00 00 00 00 00 00 ................
0040A630 00 00 00 00 00 00 00 00 00 00 00 00 00 00 00 00 ................
0040A640 00 00 00 00 00 00 00 00 00 00 00 00 00 00 00 00 ................
0040A650 00 00 00 00 00 00 00 00 00 00 00 00 00 00 00 00 ................
0040A660 00 00 00 00 00 00 00 00 00 00 00 00 00 00 00 00 ................
0040A670 00 00 00 00 00 00 00 00 00 00 00 00 00 00 00 00 ................
0040A680 00 00 00 00 00 00 00 00 00 00 00 00 00 00 00 00 ................
0040A690 00 00 00 00 00 00 00 00 00 00 00 00 00 00 00 00 ................
0040A6A0 00 00 00 00 00 00 00 00 00 00 00 00 00 00 00 00 ................
0040A6B0 00 00 00 00 00 00 00 00 00 00 00 00 00 00 00 00 ................
0040A6C0 00 00 00 00 00 00 00 00 00 00 00 00 00 00 00 00 ................
0040A6D0 00 00 00 00 00 00 00 00 00 00 00 00 00 00 00 00 ................
0040A6E0 00 00 00 00 00 00 00 00 00 00 00 00 00 00 00 00 ................
0040A6F0 00 00 00 00 00 00 00 00 00 00 00 00 00 00 00 00 ................
0040A700 00 00 00 00 00 00 00 00 00 00 00 00 00 00 00 00 ................
0040A710 00 00 00 00 00 00 00 00 00 00 00 00 00 00 00 00 ................
0040A720 00 00 00 00 00 00 00 00 00 00 00 00 00 00 00 00 ................
0040A730 00 00 00 00 00 00 00 00 00 00 00 00 00 00 00 00 ................
0040A740 00 00 00 00 00 00 00 00 00 00 00 00 00 00 00 00 ................
0040A750 00 00 00 00 00 00 00 00 00 00 00 00 00 00 00 00 ................
0040A760 00 00 00 00 00 00 00 00 00 00 00 00 00 00 00 00 ................
0040A770 00 00 00 00 00 00 00 00 00 00 00 00 00 00 00 00 ................
0040A780 00 00 00 00 00 00 00 00 00 00 00 00 00 00 00 00 ................
0040A790 00 00 00 00 00 00 00 00 00 00 00 00 00 00 00 00 ................
0040A7A0 00 00 00 00 00 00 00 00 00 00 00 00 00 00 00 00 ................
0040A7B0 00 00 00 00 00 00 00 00 00 00 00 00 00 00 00 00 ................
0040A7C0 00 00 00 00 00 00 00 00 00 00 00 00 00 00 00 00 ................
0040A7D0 00 00 00 00 00 00 00 00 00 00 00 00 00 00 00 00 ................
0040A7E0 00 00 00 00 00 00 00 00 00 00 00 00 00 00 00 00 ................
0040A7F0 00 00 00 00 00 00 00 00 00 00 00 00 00 00 00 00 ................
0040A800 00 00 00 00 00 00 00 00 00 00 00 00 00 00 00 00 ................
0040A810 00 00 00 00 00 00 00 00 00 00 00 00 00 00 00 00 ................
0040A820 00 00 00 00 00 00 00 00 00 00 00 00 00 00 00 00 ................
0040A830 00 00 00 00 00 00 00 00 00 00 00 00 00 00 00 00 ................
0040A840 00 00 00 00 00 00 00 00 00 00 00 00 00 00 00 00 ................
0040A850 00 00 00 00 00 00 00 00 00 00 00 00 00 00 00 00 ................
0040A860 00 00 00 00 00 00 00 00 00 00 00 00 00 00 00 00 ................
0040A870 00 00 00 00 00 00 00 00 00 00 00 00 00 00 00 00 ................
0040A880 00 00 00 00 00 00 00 00 00 00 00 00 00 00 00 00 ................
0040A890 00 00 00 00 00 00 00 00 00 00 00 00 00 00 00 00 ................
0040A8A0 00 00 00 00 00 00 00 00 00 00 00 00 00 00 00 00 ................
0040A8B0 00 00 00 00 00 00 00 00 00 00 00 00 00 00 00 00 ................
0040A8C0 00 00 00 00 00 00 00 00 00 00 00 00 00 00 00 00 ................
0040A8D0 00 00 00 00 00 00 00 00 00 00 00 00 00 00 00 00 ................
0040A8E0 00 00 00 00 00 00 00 00 00 00 00 00 00 00 00 00 ................
0040A8F0 00 00 00 00 00 00 00 00 00 00 00 00 00 00 00 00 ................
0040A900 00 00 00 00 00 00 00 00 00 00 00 00 00 00 00 00 ................
0040A910 00 00 00 00 00 00 00 00 00 00 00 00 00 00 00 00 ................
0040A920 00 00 00 00 00 00 00 00 00 00 00 00 00 00 00 00 ................
0040A930 00 00 00 00 00 00 00 00 00 00 00 00 00 00 00 00 ................
0040A940 00 00 00 00 00 00 00 00 00 00 00 00 00 00 00 00 ................
0040A950 00 00 00 00 00 00 00 00 00 00 00 00 00 00 00 00 ................
0040A960 00 00 00 00 00 00 00 00 00 00 00 00 00 00 00 00 ................
0040A970 00 00 00 00 00 00 00 00 00 00 00 00 00 00 00 00 ................
0040A980 00 00 00 00 00 00 00 00 00 00 00 00 00 00 00 00 ................
0040A990 00 00 00 00 00 00 00 00 00 00 00 00 00 00 00 00 ................
0040A9A0 00 00 00 00 00 00 00 00 00 00 00 00 00 00 00 00 ................
0040A9B0 00 00 00 00 00 00 00 00 00 00 00 00 00 00 00 00 ................
0040A9C0 00 00 00 00 00 00 00 00 00 00 00 00 00 00 00 00 ................
0040A9D0 00 00 00 00 00 00 00 00 00 00 00 00 00 00 00 00 ................
0040A9E0 00 00 00 00 00 00 00 00 00 00 00 00 00 00 00 00 ................
0040A9F0 00 00 00 00 00 00 00 00 00 00 00 00 00 00 00 00 ................
0040AA00 00 00 00 00 00 00 00 00 00 00 00 00 00 00 00 00 ................
0040AA10 00 00 00 00 00 00 00 00 00 00 00 00 00 00 00 00 ................
0040AA20 00 00 00 00 00 00 00 00 00 00 00 00 00 00 00 00 ................
0040AA30 00 00 00 00 00 00 00 00 00 00 00 00 00 00 00 00 ................
0040AA40 00 00 00 00 00 00 00 00 00 00 00 00 00 00 00 00 ................
0040AA50 00 00 00 00 00 00 00 00 00 00 00 00 00 00 00 00 ................
0040AA60 00 00 00 00 00 00 00 00 00 00 00 00 00 00 00 00 ................
0040AA70 00 00 00 00 00 00 00 00 00 00 00 00 00 00 00 00 ................
0040AA80 00 00 00 00 00 00 00 00 00 00 00 00 00 00 00 00 ................
0040AA90 00 00 00 00 00 00 00 00 00 00 00 00 00 00 00 00 ................
0040AAA0 00 00 00 00 00 00 00 00 00 00 00 00 00 00 00 00 ................
0040AAB0 00 00 00 00 00 00 00 00 00 00 00 00 00 00 00 00 ................
0040AAC0 00 00 00 00 00 00 00 00 00 00 00 00 00 00 00 00 ................
0040AAD0 00 00 00 00 00 00 00 00 00 00 00 00 00 00 00 00 ................
0040AAE0 00 00 00 00 00 00 00 00 00 00 00 00 00 00 00 00 ................
0040AAF0 00 00 00 00 00 00 00 00 00 00 00 00 00 00 00 00 ................
0040AB00 00 00 00 00 00 00 00 00 00 00 00 00 00 00 00 00 ................
0040AB10 00 00 00 00 00 00 00 00 00 00 00 00 00 00 00 00 ................
0040AB20 00 00 00 00 00 00 00 00 00 00 00 00 00 00 00 00 ................
0040AB30 00 00 00 00 00 00 00 00 00 00 00 00 00 00 00 00 ................
0040AB40 00 00 00 00 00 00 00 00 00 00 00 00 00 00 00 00 ................
0040AB50 00 00 00 00 00 00 00 00 00 00 00 00 00 00 00 00 ................
0040AB60 00 00 00 00 00 00 00 00 00 00 00 00 00 00 00 00 ................
0040AB70 00 00 00 00 00 00 00 00 00 00 00 00 00 00 00 00 ................
0040AB80 00 00 00 00 00 00 00 00 00 00 00 00 00 00 00 00 ................
0040AB90 00 00 00 00 00 00 00 00 00 00 00 00 00 00 00 00 ................
0040ABA0 00 00 00 00 00 00 00 00 00 00 00 00 00 00 00 00 ................
0040ABB0 00 00 00 00 00 00 00 00 00 00 00 00 00 00 00 00 ................
0040ABC0 00 00 00 00 00 00 00 00 00 00 00 00 00 00 00 00 ................
0040ABD0 00 00 00 00 00 00 00 00 00 00 00 00 00 00 00 00 ................
0040ABE0 00 00 00 00 00 00 00 00 00 00 00 00 00 00 00 00 ................
0040ABF0 00 00 00 00 00 00 00 00 00 00 00 00 00 00 00 00 ................
0040AC00 00 00 00 00 00 00 00 00 00 00 00 00 00 00 00 00 ................
0040AC10 00 00 00 00 00 00 00 00 00 00 00 00 00 00 00 00 ................
0040AC20 00 00 00 00 00 00 00 00 00 00 00 00 00 00 00 00 ................
0040AC30 00 00 00 00 00 00 00 00 00 00 00 00 00 00 00 00 ................
0040AC40 00 00 00 00 00 00 00 00 00 00 00 00 00 00 00 00 ................
0040AC50 00 00 00 00 00 00 00 00 00 00 00 00 00 00 00 00 ................
0040AC60 00 00 00 00 00 00 00 00 00 00 00 00 00 00 00 00 ................
0040AC70 00 00 00 00 00 00 00 00 00 00 00 00 00 00 00 00 ................
0040AC80 00 00 00 00 00 00 00 00 00 00 00 00 00 00 00 00 ................
0040AC90 00 00 00 00 00 00 00 00 00 00 00 00 00 00 00 00 ................
0040ACA0 00 00 00 00 00 00 00 00 00 00 00 00 00 00 00 00 ................
0040ACB0 00 00 00 00 00 00 00 00 00 00 00 00 00 00 00 00 ................
0040ACC0 00 00 00 00 00 00 00 00 00 00 00 00 00 00 00 00 ................
0040ACD0 00 00 00 00 00 00 00 00 00 00 00 00 00 00 00 00 ................
0040ACE0 00 00 00 00 00 00 00 00 00 00 00 00 00 00 00 00 ................
0040ACF0 00 00 00 00 00 00 00 00 00 00 00 00 00 00 00 00 ................
0040AD00 00 00 00 00 00 00 00 00 00 00 00 00 00 00 00 00 ................
0040AD10 00 00 00 00 00 00 00 00 00 00 00 00 00 00 00 00 ................
0040AD20 00 00 00 00 00 00 00 00 00 00 00 00 00 00 00 00 ................
0040AD30 00 00 00 00 00 00 00 00 00 00 00 00 00 00 00 00 ................
0040AD40 00 00 00 00 00 00 00 00 00 00 00 00 00 00 00 00 ................
0040AD50 00 00 00 00 00 00 00 00 00 00 00 00 00 00 00 00 ................
0040AD60 00 00 00 00 00 00 00 00 00 00 00 00 00 00 00 00 ................
0040AD70 00 00 00 00 00 00 00 00 00 00 00 00 00 00 00 00 ................
0040AD80 00 00 00 00 00 00 00 00 00 00 00 00 00 00 00 00 ................
0040AD90 00 00 00 00 00 00 00 00 00 00 00 00 00 00 00 00 ................
0040ADA0 00 00 00 00 00 00 00 00 00 00 00 00 00 00 00 00 ................
0040ADB0 00 00 00 00 00 00 00 00 00 00 00 00 00 00 00 00 ................
0040ADC0 00 00 00 00 00 00 00 00 00 00 00 00 00 00 00 00 ................
0040ADD0 00 00 00 00 00 00 00 00 00 00 00 00 00 00 00 00 ................
0040ADE0 00 00 00 00 00 00 00 00 00 00 00 00 00 00 00 00 ................
0040ADF0 00 00 00 00 00 00 00 00 00 00 00 00 00 00 00 00 ................
0040AE00 00 00 00 00 00 00 00 00 00 00 00 00 00 00 00 00 ................
0040AE10 00 00 00 00 00 00 00 00 00 00 00 00 00 00 00 00 ................
0040AE20 00 00 00 00 00 00 00 00 00 00 00 00 00 00 00 00 ................
0040AE30 00 00 00 00 00 00 00 00 00 00 00 00 00 00 00 00 ................
0040AE40 00 00 00 00 00 00 00 00 00 00 00 00 00 00 00 00 ................
0040AE50 00 00 00 00 00 00 00 00 00 00 00 00 00 00 00 00 ................
0040AE60 00 00 00 00 00 00 00 00 00 00 00 00 00 00 00 00 ................
0040AE70 00 00 00 00 00 00 00 00 00 00 00 00 00 00 00 00 ................
0040AE80 00 00 00 00 00 00 00 00 00 00 00 00 00 00 00 00 ................
0040AE90 00 00 00 00 00 00 00 00 00 00 00 00 00 00 00 00 ................
0040AEA0 00 00 00 00 00 00 00 00 00 00 00 00 00 00 00 00 ................
0040AEB0 00 00 00 00 00 00 00 00 00 00 00 00 00 00 00 00 ................
0040AEC0 00 00 00 00 00 00 00 00 00 00 00 00 00 00 00 00 ................
0040AED0 00 00 00 00 00 00 00 00 00 00 00 00 00 00 00 00 ................
0040AEE0 00 00 00 00 00 00 00 00 00 00 00 00 00 00 00 00 ................
0040AEF0 00 00 00 00 00 00 00 00 00 00 00 00 00 00 00 00 ................
0040AF00 00 00 00 00 00 00 00 00 00 00 00 00 00 00 00 00 ................
0040AF10 00 00 00 00 00 00 00 00 00 00 00 00 00 00 00 00 ................
0040AF20 00 00 00 00 00 00 00 00 00 00 00 00 00 00 00 00 ................
0040AF30 00 00 00 00 00 00 00 00 00 00 00 00 00 00 00 00 ................
0040AF40 00 00 00 00 00 00 00 00 00 00 00 00 00 00 00 00 ................
0040AF50 00 00 00 00 00 00 00 00 00 00 00 00 00 00 00 00 ................
0040AF60 00 00 00 00 00 00 00 00 00 00 00 00 00 00 00 00 ................
0040AF70 00 00 00 00 00 00 00 00 00 00 00 00 00 00 00 00 ................
0040AF80 00 00 00 00 00 00 00 00 00 00 00 00 00 00 00 00 ................
0040AF90 00 00 00 00 00 00 00 00 00 00 00 00 00 00 00 00 ................
0040AFA0 00 00 00 00 00 00 00 00 00 00 00 00 00 00 00 00 ................
0040AFB0 00 00 00 00 00 00 00 00 00 00 00 00 00 00 00 00 ................
0040AFC0 00 00 00 00 00 00 00 00 00 00 00 00 00 00 00 00 ................
0040AFD0 00 00 00 00 00 00 00 00 00 00 00 00 00 00 00 00 ................
0040AFE0 00 00 00 00 00 00 00 00 00 00 00 00 00 00 00 00 ................
0040AFF0 00 00 00 00 00 00 00 00 00 00 00 00 00 00 00 00 ................
0040B000 00 00 00 00 00 00 00 00 00 00 00 00 00 00 00 00 ................
0040B010 00 00 00 00 00 00 00 00 00 00 00 00 00 00 00 00 ................
0040B020 00 00 00 00 00 00 00 00 00 00 00 00 00 00 00 00 ................
0040B030 00 00 00 00 00 00 00 00 00 00 00 00 00 00 00 00 ................
0040B040 00 00 00 00 00 00 00 00 00 00 00 00 00 00 00 00 ................
0040B050 00 00 00 00 00 00 00 00 00 00 00 00 00 00 00 00 ................
0040B060 00 00 00 00 00 00 00 00 00 00 00 00 00 00 00 00 ................
0040B070 00 00 00 00 00 00 00 00 00 00 00 00 00 00 00 00 ................
0040B080 00 00 00 00 00 00 00 00 00 00 00 00 00 00 00 00 ................
0040B090 00 00 00 00 00 00 00 00 00 00 00 00 00 00 00 00 ................
0040B0A0 00 00 00 00 00 00 00 00 00 00 00 00 00 00 00 00 ................
0040B0B0 00 00 00 00 00 00 00 00 00 00 00 00 00 00 00 00 ................
0040B0C0 00 00 00 00 00 00 00 00 00 00 00 00 00 00 00 00 ................
0040B0D0 00 00 00 00 00 00 00 00 00 00 00 00 00 00 00 00 ................
0040B0E0 00 00 00 00 00 00 00 00 00 00 00 00 00 00 00 00 ................
0040B0F0 00 00 00 00 00 00 00 00 00 00 00 00 00 00 00 00 ................
0040B100 00 00 00 00 00 00 00 00 00 00 00 00 00 00 00 00 ................
0040B110 00 00 00 00 00 00 00 00 00 00 00 00 00 00 00 00 ................
0040B120 00 00 00 00 00 00 00 00 00 00 00 00 00 00 00 00 ................
0040B130 00 00 00 00 00 00 00 00 00 00 00 00 00 00 00 00 ................
0040B140 00 00 00 00 00 00 00 00 00 00 00 00 00 00 00 00 ................
0040B150 00 00 00 00 00 00 00 00 00 00 00 00 00 00 00 00 ................
0040B160 00 00 00 00 00 00 00 00 00 00 00 00 00 00 00 00 ................
0040B170 00 00 00 00 00 00 00 00 00 00 00 00 00 00 00 00 ................
0040B180 00 00 00 00 00 00 00 00 00 00 00 00 00 00 00 00 ................
0040B190 00 00 00 00 00 00 00 00 00 00 00 00 00 00 00 00 ................
0040B1A0 00 00 00 00 00 00 00 00 00 00 00 00 00 00 00 00 ................
0040B1B0 00 00 00 00 00 00 00 00 00 00 00 00 00 00 00 00 ................
0040B1C0 00 00 00 00 00 00 00 00 00 00 00 00 00 00 00 00 ................
0040B1D0 00 00 00 00 00 00 00 00 00 00 00 00 00 00 00 00 ................
0040B1E0 00 00 00 00 00 00 00 00 00 00 00 00 00 00 00 00 ................
0040B1F0 00 00 00 00 00 00 00 00 00 00 00 00 00 00 00 00 ................
0040B200 00 00 00 00 00 00 00 00 00 00 00 00 00 00 00 00 ................
0040B210 00 00 00 00 00 00 00 00 00 00 00 00 00 00 00 00 ................
0040B220 00 00 00 00 00 00 00 00 00 00 00 00 00 00 00 00 ................
0040B230 00 00 00 00 00 00 00 00 00 00 00 00 00 00 00 00 ................
0040B240 00 00 00 00 00 00 00 00 00 00 00 00 00 00 00 00 ................
0040B250 00 00 00 00 00 00 00 00 00 00 00 00 00 00 00 00 ................
0040B260 00 00 00 00 00 00 00 00 00 00 00 00 00 00 00 00 ................
0040B270 00 00 00 00 00 00 00 00 00 00 00 00 00 00 00 00 ................
0040B280 00 00 00 00 00 00 00 00 00 00 00 00 00 00 00 00 ................
0040B290 00 00 00 00 00 00 00 00 00 00 00 00 00 00 00 00 ................
0040B2A0 00 00 00 00 00 00 00 00 00 00 00 00 00 00 00 00 ................
0040B2B0 00 00 00 00 00 00 00 00 00 00 00 00 00 00 00 00 ................
0040B2C0 00 00 00 00 00 00 00 00 00 00 00 00 00 00 00 00 ................
0040B2D0 00 00 00 00 00 00 00 00 00 00 00 00 00 00 00 00 ................
0040B2E0 00 00 00 00 00 00 00 00 00 00 00 00 00 00 00 00 ................
0040B2F0 00 00 00 00 00 00 00 00 00 00 00 00 00 00 00 00 ................
0040B300 00 00 00 00 00 00 00 00 00 00 00 00 00 00 00 00 ................
0040B310 00 00 00 00 00 00 00 00 00 00 00 00 00 00 00 00 ................
0040B320 00 00 00 00 00 00 00 00 00 00 00 00 00 00 00 00 ................
0040B330 00 00 00 00 00 00 00 00 00 00 00 00 00 00 00 00 ................
0040B340 00 00 00 00 00 00 00 00 00 00 00 00 00 00 00 00 ................
0040B350 00 00 00 00 00 00 00 00 00 00 00 00 00 00 00 00 ................
0040B360 00 00 00 00 00 00 00 00 00 00 00 00 00 00 00 00 ................
0040B370 00 00 00 00 00 00 00 00 00 00 00 00 00 00 00 00 ................
0040B380 00 00 00 00 00 00 00 00 00 00 00 00 00 00 00 00 ................
0040B390 00 00 00 00 00 00 00 00 00 00 00 00 00 00 00 00 ................
0040B3A0 00 00 00 00 00 00 00 00 00 00 00 00 00 00 00 00 ................
0040B3B0 00 00 00 00 00 00 00 00 00 00 00 00 00 00 00 00 ................
0040B3C0 00 00 00 00 00 00 00 00 00 00 00 00 00 00 00 00 ................
0040B3D0 00 00 00 00 00 00 00 00 00 00 00 00 00 00 00 00 ................
0040B3E0 00 00 00 00 00 00 00 00 00 00 00 00 00 00 00 00 ................
0040B3F0 00 00 00 00 00 00 00 00 00 00 00 00 00 00 00 00 ................
0040B400 00 00 00 00 00 00 00 00 00 00 00 00 00 00 00 00 ................
0040B410 00 00 00 00 00 00 00 00 00 00 00 00 00 00 00 00 ................
0040B420 00 00 00 00 00 00 00 00 00 00 00 00 00 00 00 00 ................
0040B430 00 00 00 00 00 00 00 00 00 00 00 00 00 00 00 00 ................
0040B440 00 00 00 00 00 00 00 00 00 00 00 00 00 00 00 00 ................
0040B450 00 00 00 00 00 00 00 00 00 00 00 00 00 00 00 00 ................
0040B460 00 00 00 00 00 00 00 00 00 00 00 00 00 00 00 00 ................
0040B470 00 00 00 00 00 00 00 00 00 00 00 00 00 00 00 00 ................
0040B480 00 00 00 00 00 00 00 00 00 00 00 00 00 00 00 00 ................
0040B490 00 00 00 00 00 00 00 00 00 00 00 00 00 00 00 00 ................
0040B4A0 00 00 00 00 00 00 00 00 00 00 00 00 00 00 00 00 ................
0040B4B0 00 00 00 00 00 00 00 00 00 00 00 00 00 00 00 00 ................
0040B4C0 00 00 00 00 00 00 00 00 00 00 00 00 00 00 00 00 ................
0040B4D0 00 00 00 00 00 00 00 00 00 00 00 00 00 00 00 00 ................
0040B4E0 00 00 00 00 00 00 00 00 00 00 00 00 00 00 00 00 ................
0040B4F0 00 00 00 00 00 00 00 00 00 00 00 00 00 00 00 00 ................
0040B500 00 00 00 00 00 00 00 00 00 00 00 00 00 00 00 00 ................
0040B510 00 00 00 00 00 00 00 00 00 00 00 00 00 00 00 00 ................
0040B520 00 00 00 00 00 00 00 00 00 00 00 00 00 00 00 00 ................
0040B530 00 00 00 00 00 00 00 00 00 00 00 00 00 00 00 00 ................
0040B540 00 00 00 00 00 00 00 00 00 00 00 00 00 00 00 00 ................
0040B550 00 00 00 00 00 00 00 00 00 00 00 00 00 00 00 00 ................
0040B560 00 00 00 00 00 00 00 00 00 00 00 00 00 00 00 00 ................
0040B570 00 00 00 00 00 00 00 00 00 00 00 00 00 00 00 00 ................
0040B580 00 00 00 00 00 00 00 00 00 00 00 00 00 00 00 00 ................
0040B590 00 00 00 00 00 00 00 00 00 00 00 00 00 00 00 00 ................
0040B5A0 00 00 00 00 00 00 00 00 00 00 00 00 00 00 00 00 ................
0040B5B0 00 00 00 00 00 00 00 00 00 00 00 00 00 00 00 00 ................
0040B5C0 00 00 00 00 00 00 00 00 00 00 00 00 00 00 00 00 ................
0040B5D0 00 00 00 00 00 00 00 00 00 00 00 00 00 00 00 00 ................
0040B5E0 00 00 00 00 00 00 00 00 00 00 00 00 00 00 00 00 ................
0040B5F0 00 00 00 00 00 00 00 00 00 00 00 00 00 00 00 00 ................
0040B600 00 00 00 00 00 00 00 00 00 00 00 00 00 00 00 00 ................
0040B610 00 00 00 00 00 00 00 00 00 00 00 00 00 00 00 00 ................
0040B620 00 00 00 00 00 00 00 00 00 00 00 00 00 00 00 00 ................
0040B630 00 00 00 00 00 00 00 00 00 00 00 00 00 00 00 00 ................
0040B640 00 00 00 00 00 00 00 00 00 00 00 00 00 00 00 00 ................
0040B650 00 00 00 00 00 00 00 00 00 00 00 00 00 00 00 00 ................
0040B660 00 00 00 00 00 00 00 00 00 00 00 00 00 00 00 00 ................
0040B670 00 00 00 00 00 00 00 00 00 00 00 00 00 00 00 00 ................
0040B680 00 00 00 00 00 00 00 00 00 00 00 00 00 00 00 00 ................
0040B690 00 00 00 00 00 00 00 00 00 00 00 00 00 00 00 00 ................
0040B6A0 00 00 00 00 00 00 00 00 00 00 00 00 00 00 00 00 ................
0040B6B0 00 00 00 00 00 00 00 00 00 00 00 00 00 00 00 00 ................
0040B6C0 00 00 00 00 00 00 00 00 00 00 00 00 00 00 00 00 ................
0040B6D0 00 00 00 00 00 00 00 00 00 00 00 00 00 00 00 00 ................
0040B6E0 00 00 00 00 00 00 00 00 00 00 00 00 00 00 00 00 ................
0040B6F0 00 00 00 00 00 00 00 00 00 00 00 00 00 00 00 00 ................
0040B700 00 00 00 00 00 00 00 00 00 00 00 00 00 00 00 00 ................
0040B710 00 00 00 00 00 00 00 00 00 00 00 00 00 00 00 00 ................
0040B720 00 00 00 00 00 00 00 00 00 00 00 00 00 00 00 00 ................
0040B730 00 00 00 00 00 00 00 00 00 00 00 00 00 00 00 00 ................
0040B740 00 00 00 00 00 00 00 00 00 00 00 00 00 00 00 00 ................
0040B750 00 00 00 00 00 00 00 00 00 00 00 00 00 00 00 00 ................
0040B760 00 00 00 00 00 00 00 00 00 00 00 00 00 00 00 00 ................
0040B770 00 00 00 00 00 00 00 00 00 00 00 00 00 00 00 00 ................
0040B780 00 00 00 00 00 00 00 00 00 00 00 00 00 00 00 00 ................
0040B790 00 00 00 00 00 00 00 00 00 00 00 00 00 00 00 00 ................
0040B7A0 00 00 00 00 00 00 00 00 00 00 00 00 00 00 00 00 ................
0040B7B0 00 00 00 00 00 00 00 00 00 00 00 00 00 00 00 00 ................
0040B7C0 00 00 00 00 00 00 00 00 00 00 00 00 00 00 00 00 ................
0040B7D0 00 00 00 00 00 00 00 00 00 00 00 00 00 00 00 00 ................
0040B7E0 00 00 00 00 00 00 00 00 00 00 00 00 00 00 00 00 ................
0040B7F0 00 00 00 00 00 00 00 00 00 00 00 00 00 00 00 00 ................
0040B800 00 00 00 00 00 00 00 00 00 00 00 00 00 00 00 00 ................
0040B810 00 00 00 00 00 00 00 00 00 00 00 00 00 00 00 00 ................
0040B820 00 00 00 00 00 00 00 00 00 00 00 00 00 00 00 00 ................
0040B830 00 00 00 00 00 00 00 00 00 00 00 00 00 00 00 00 ................
0040B840 00 00 00 00 00 00 00 00 00 00 00 00 00 00 00 00 ................
0040B850 00 00 00 00 00 00 00 00 00 00 00 00 00 00 00 00 ................
0040B860 00 00 00 00 00 00 00 00 00 00 00 00 00 00 00 00 ................
0040B870 00 00 00 00 00 00 00 00 00 00 00 00 00 00 00 00 ................
0040B880 00 00 00 00 00 00 00 00 00 00 00 00 00 00 00 00 ................
0040B890 00 00 00 00 00 00 00 00 00 00 00 00 00 00 00 00 ................
0040B8A0 00 00 00 00 00 00 00 00 00 00 00 00 00 00 00 00 ................
0040B8B0 00 00 00 00 00 00 00 00 00 00 00 00 00 00 00 00 ................
0040B8C0 00 00 00 00 00 00 00 00 00 00 00 00 00 00 00 00 ................
0040B8D0 00 00 00 00 00 00 00 00 00 00 00 00 00 00 00 00 ................
0040B8E0 00 00 00 00 00 00 00 00 00 00 00 00 00 00 00 00 ................
0040B8F0 00 00 00 00 00 00 00 00 00 00 00 00 00 00 00 00 ................
0040B900 00 00 00 00 00 00 00 00 00 00 00 00 00 00 00 00 ................
0040B910 00 00 00 00 00 00 00 00 00 00 00 00 00 00 00 00 ................
0040B920 00 00 00 00 00 00 00 00 00 00 00 00 00 00 00 00 ................
0040B930 00 00 00 00 00 00 00 00 00 00 00 00 00 00 00 00 ................
0040B940 00 00 00 00 00 00 00 00 00 00 00 00 00 00 00 00 ................
0040B950 00 00 00 00 00 00 00 00 00 00 00 00 00 00 00 00 ................
0040B960 00 00 00 00 00 00 00 00 00 00 00 00 00 00 00 00 ................
0040B970 00 00 00 00 00 00 00 00 00 00 00 00 00 00 00 00 ................
0040B980 00 00 00 00 00 00 00 00 00 00 00 00 00 00 00 00 ................
0040B990 00 00 00 00 00 00 00 00 00 00 00 00 00 00 00 00 ................
0040B9A0 00 00 00 00 00 00 00 00 00 00 00 00 00 00 00 00 ................
0040B9B0 00 00 00 00 00 00 00 00 00 00 00 00 00 00 00 00 ................
0040B9C0 00 00 00 00 00 00 00 00 00 00 00 00 00 00 00 00 ................
0040B9D0 00 00 00 00 00 00 00 00 00 00 00 00 00 00 00 00 ................
0040B9E0 00 00 00 00 00 00 00 00 00 00 00 00 00 00 00 00 ................
0040B9F0 00 00 00 00 00 00 00 00 00 00 00 00 00 00 00 00 ................
0040BA00 00 00 00 00 00 00 00 00 00 00 00 00 00 00 00 00 ................
0040BA10 00 00 00 00 00 00 00 00 00 00 00 00 00 00 00 00 ................
0040BA20 00 00 00 00 00 00 00 00 00 00 00 00 00 00 00 00 ................
0040BA30 00 00 00 00 00 00 00 00 00 00 00 00 00 00 00 00 ................
0040BA40 00 00 00 00 00 00 00 00 00 00 00 00 00 00 00 00 ................
0040BA50 00 00 00 00 00 00 00 00 00 00 00 00 00 00 00 00 ................
0040BA60 00 00 00 00 00 00 00 00 00 00 00 00 00 00 00 00 ................
0040BA70 00 00 00 00 00 00 00 00 00 00 00 00 00 00 00 00 ................
0040BA80 00 00 00 00 00 00 00 00 00 00 00 00 00 00 00 00 ................
0040BA90 00 00 00 00 00 00 00 00 00 00 00 00 00 00 00 00 ................
0040BAA0 00 00 00 00 00 00 00 00 00 00 00 00 00 00 00 00 ................
0040BAB0 00 00 00 00 00 00 00 00 00 00 00 00 00 00 00 00 ................
0040BAC0 00 00 00 00 00 00 00 00 00 00 00 00 00 00 00 00 ................
0040BAD0 00 00 00 00 00 00 00 00 00 00 00 00 00 00 00 00 ................
0040BAE0 00 00 00 00 00 00 00 00 00 00 00 00 00 00 00 00 ................
0040BAF0 00 00 00 00 00 00 00 00 00 00 00 00 00 00 00 00 ................
0040BB00 00 00 00 00 00 00 00 00 00 00 00 00 00 00 00 00 ................
0040BB10 00 00 00 00 00 00 00 00 00 00 00 00 00 00 00 00 ................
0040BB20 00 00 00 00 00 00 00 00 00 00 00 00 00 00 00 00 ................
0040BB30 00 00 00 00 00 00 00 00 00 00 00 00 00 00 00 00 ................
0040BB40 00 00 00 00 00 00 00 00 00 00 00 00 00 00 00 00 ................
0040BB50 00 00 00 00 00 00 00 00 00 00 00 00 00 00 00 00 ................
0040BB60 00 00 00 00 00 00 00 00 00 00 00 00 00 00 00 00 ................
0040BB70 00 00 00 00 00 00 00 00 00 00 00 00 00 00 00 00 ................
0040BB80 00 00 00 00 00 00 00 00 00 00 00 00 00 00 00 00 ................
0040BB90 00 00 00 00 00 00 00 00 00 00 00 00 00 00 00 00 ................
0040BBA0 00 00 00 00 00 00 00 00 00 00 00 00 00 00 00 00 ................
0040BBB0 00 00 00 00 00 00 00 00 00 00 00 00 00 00 00 00 ................
0040BBC0 00 00 00 00 00 00 00 00 00 00 00 00 00 00 00 00 ................
0040BBD0 00 00 00 00 00 00 00 00 00 00 00 00 00 00 00 00 ................
0040BBE0 00 00 00 00 00 00 00 00 00 00 00 00 00 00 00 00 ................
0040BBF0 00 00 00 00 00 00 00 00 00 00 00 00 00 00 00 00 ................
0040BC00 00 00 00 00 00 00 00 00 00 00 00 00 00 00 00 00 ................
0040BC10 00 00 00 00 00 00 00 00 00 00 00 00 00 00 00 00 ................
0040BC20 00 00 00 00 00 00 00 00 00 00 00 00 00 00 00 00 ................
0040BC30 00 00 00 00 00 00 00 00 00 00 00 00 00 00 00 00 ................
0040BC40 00 00 00 00 00 00 00 00 00 00 00 00 00 00 00 00 ................
0040BC50 00 00 00 00 00 00 00 00 00 00 00 00 00 00 00 00 ................
0040BC60 00 00 00 00 00 00 00 00 00 00 00 00 00 00 00 00 ................
0040BC70 00 00 00 00 00 00 00 00 00 00 00 00 00 00 00 00 ................
0040BC80 00 00 00 00 00 00 00 00 00 00 00 00 00 00 00 00 ................
0040BC90 00 00 00 00 00 00 00 00 00 00 00 00 00 00 00 00 ................
0040BCA0 00 00 00 00 00 00 00 00 00 00 00 00 00 00 00 00 ................
0040BCB0 00 00 00 00 00 00 00 00 00 00 00 00 00 00 00 00 ................
0040BCC0 00 00 00 00 00 00 00 00 00 00 00 00 00 00 00 00 ................
0040BCD0 00 00 00 00 00 00 00 00 00 00 00 00 00 00 00 00 ................
0040BCE0 00 00 00 00 00 00 00 00 00 00 00 00 00 00 00 00 ................
0040BCF0 00 00 00 00 00 00 00 00 00 00 00 00 00 00 00 00 ................
0040BD00 00 00 00 00 00 00 00 00 00 00 00 00 00 00 00 00 ................
0040BD10 00 00 00 00 00 00 00 00 00 00 00 00 00 00 00 00 ................
0040BD20 00 00 00 00 00 00 00 00 00 00 00 00 00 00 00 00 ................
0040BD30 00 00 00 00 00 00 00 00 00 00 00 00 00 00 00 00 ................
0040BD40 00 00 00 00 00 00 00 00 00 00 00 00 00 00 00 00 ................
0040BD50 00 00 00 00 00 00 00 00 00 00 00 00 00 00 00 00 ................
0040BD60 00 00 00 00 00 00 00 00 00 00 00 00 00 00 00 00 ................
0040BD70 00 00 00 00 00 00 00 00 00 00 00 00 00 00 00 00 ................
0040BD80 00 00 00 00 00 00 00 00 00 00 00 00 00 00 00 00 ................
0040BD90 00 00 00 00 00 00 00 00 00 00 00 00 00 00 00 00 ................
0040BDA0 00 00 00 00 00 00 00 00 00 00 00 00 00 00 00 00 ................
0040BDB0 00 00 00 00 00 00 00 00 00 00 00 00 00 00 00 00 ................
0040BDC0 00 00 00 00 00 00 00 00 00 00 00 00 00 00 00 00 ................
0040BDD0 00 00 00 00 00 00 00 00 00 00 00 00 00 00 00 00 ................
0040BDE0 00 00 00 00 00 00 00 00 00 00 00 00 00 00 00 00 ................
0040BDF0 00 00 00 00 00 00 00 00 00 00 00 00 00 00 00 00 ................
0040BE00 00 00 00 00 00 00 00 00 00 00 00 00 00 00 00 00 ................
0040BE10 00 00 00 00 00 00 00 00 00 00 00 00 00 00 00 00 ................
0040BE20 00 00 00 00 00 00 00 00 00 00 00 00 00 00 00 00 ................
0040BE30 00 00 00 00 00 00 00 00 00 00 00 00 00 00 00 00 ................
0040BE40 00 00 00 00 00 00 00 00 00 00 00 00 00 00 00 00 ................
0040BE50 00 00 00 00 00 00 00 00 00 00 00 00 00 00 00 00 ................
0040BE60 00 00 00 00 00 00 00 00 00 00 00 00 00 00 00 00 ................
0040BE70 00 00 00 00 00 00 00 00 00 00 00 00 00 00 00 00 ................
0040BE80 00 00 00 00 00 00 00 00 00 00 00 00 00 00 00 00 ................
0040BE90 00 00 00 00 00 00 00 00 00 00 00 00 00 00 00 00 ................
0040BEA0 00 00 00 00 00 00 00 00 00 00 00 00 00 00 00 00 ................
0040BEB0 00 00 00 00 00 00 00 00 00 00 00 00 00 00 00 00 ................
0040BEC0 00 00 00 00 00 00 00 00 00 00 00 00 00 00 00 00 ................
0040BED0 00 00 00 00 00 00 00 00 00 00 00 00 00 00 00 00 ................
0040BEE0 00 00 00 00 00 00 00 00 00 00 00 00 00 00 00 00 ................
0040BEF0 00 00 00 00 00 00 00 00 00 00 00 00 00 00 00 00 ................
0040BF00 00 00 00 00 00 00 00 00 00 00 00 00 00 00 00 00 ................
0040BF10 00 00 00 00 00 00 00 00 00 00 00 00 00 00 00 00 ................
0040BF20 00 00 00 00 00 00 00 00 00 00 00 00 00 00 00 00 ................
0040BF30 00 00 00 00 00 00 00 00 00 00 00 00 00 00 00 00 ................
0040BF40 00 00 00 00 00 00 00 00 00 00 00 00 00 00 00 00 ................
0040BF50 00 00 00 00 00 00 00 00 00 00 00 00 00 00 00 00 ................
0040BF60 00 00 00 00 00 00 00 00 00 00 00 00 00 00 00 00 ................
0040BF70 00 00 00 00 00 00 00 00 00 00 00 00 00 00 00 00 ................
0040BF80 00 00 00 00 00 00 00 00 00 00 00 00 00 00 00 00 ................
0040BF90 00 00 00 00 00 00 00 00 00 00 00 00 00 00 00 00 ................
0040BFA0 00 00 00 00 00 00 00 00 00 00 00 00 00 00 00 00 ................
0040BFB0 00 00 00 00 00 00 00 00 00 00 00 00 00 00 00 00 ................
0040BFC0 00 00 00 00 00 00 00 00 00 00 00 00 00 00 00 00 ................
0040BFD0 00 00 00 00 00 00 00 00 00 00 00 00 00 00 00 00 ................
0040BFE0 00 00 00 00 00 00 00 00 00 00 00 00 00 00 00 00 ................
0040BFF0 00 00 00 00 00 00 00 00 00 00 00 00 00 00 00 00 ................
0040C000 00 00 00 00 00 00 00 00 00 00 00 00 00 00 00 00 ................
0040C010 00 00 00 00 00 00 00 00 00 00 00 00 00 00 00 00 ................
0040C020 00 00 00 00 00 00 00 00 00 00 00 00 00 00 00 00 ................
0040C030 00 00 00 00 00 00 00 00 00 00 00 00 00 00 00 00 ................
0040C040 00 00 00 00 00 00 00 00 00 00 00 00 00 00 00 00 ................
0040C050 00 00 00 00 00 00 00 00 00 00 00 00 00 00 00 00 ................
0040C060 00 00 00 00 00 00 00 00 00 00 00 00 00 00 00 00 ................
0040C070 00 00 00 00 00 00 00 00 00 00 00 00 00 00 00 00 ................
0040C080 00 00 00 00 00 00 00 00 00 00 00 00 00 00 00 00 ................
0040C090 00 00 00 00 00 00 00 00 00 00 00 00 00 00 00 00 ................
0040C0A0 00 00 00 00 00 00 00 00 00 00 00 00 00 00 00 00 ................
0040C0B0 00 00 00 00 00 00 00 00 00 00 00 00 00 00 00 00 ................
0040C0C0 00 00 00 00 00 00 00 00 00 00 00 00 00 00 00 00 ................
0040C0D0 00 00 00 00 00 00 00 00 00 00 00 00 00 00 00 00 ................
0040C0E0 00 00 00 00 00 00 00 00 00 00 00 00 00 00 00 00 ................
0040C0F0 00 00 00 00 00 00 00 00 00 00 00 00 00 00 00 00 ................
0040C100 00 00 00 00 00 00 00 00 00 00 00 00 00 00 00 00 ................
0040C110 00 00 00 00 00 00 00 00 00 00 00 00 00 00 00 00 ................
0040C120 00 00 00 00 00 00 00 00 00 00 00 00 00 00 00 00 ................
0040C130 00 00 00 00 00 00 00 00 00 00 00 00 00 00 00 00 ................
0040C140 00 00 00 00 00 00 00 00 00 00 00 00 00 00 00 00 ................
0040C150 00 00 00 00 00 00 00 00 00 00 00 00 00 00 00 00 ................
0040C160 00 00 00 00 00 00 00 00 00 00 00 00 00 00 00 00 ................
0040C170 00 00 00 00 00 00 00 00 00 00 00 00 00 00 00 00 ................
0040C180 00 00 00 00 00 00 00 00 00 00 00 00 00 00 00 00 ................
0040C190 00 00 00 00 00 00 00 00 00 00 00 00 00 00 00 00 ................
0040C1A0 00 00 00 00 00 00 00 00 00 00 00 00 00 00 00 00 ................
0040C1B0 00 00 00 00 00 00 00 00 00 00 00 00 00 00 00 00 ................
0040C1C0 00 00 00 00 00 00 00 00 00 00 00 00 00 00 00 00 ................
0040C1D0 00 00 00 00 00 00 00 00 00 00 00 00 00 00 00 00 ................
0040C1E0 00 00 00 00 00 00 00 00 00 00 00 00 00 00 00 00 ................
0040C1F0 00 00 00 00 00 00 00 00 00 00 00 00 00 00 00 00 ................
0040C200 00 00 00 00 00 00 00 00 00 00 00 00 00 00 00 00 ................
0040C210 00 00 00 00 00 00 00 00 00 00 00 00 00 00 00 00 ................
0040C220 00 00 00 00 00 00 00 00 00 00 00 00 00 00 00 00 ................
0040C230 00 00 00 00 00 00 00 00 00 00 00 00 00 00 00 00 ................
0040C240 00 00 00 00 00 00 00 00 00 00 00 00 00 00 00 00 ................
0040C250 00 00 00 00 00 00 00 00 00 00 00 00 00 00 00 00 ................
0040C260 00 00 00 00 00 00 00 00 00 00 00 00 00 00 00 00 ................
0040C270 00 00 00 00 00 00 00 00 00 00 00 00 00 00 00 00 ................
0040C280 00 00 00 00 00 00 00 00 00 00 00 00 00 00 00 00 ................
0040C290 00 00 00 00 00 00 00 00 00 00 00 00 00 00 00 00 ................
0040C2A0 00 00 00 00 00 00 00 00 00 00 00 00 00 00 00 00 ................
0040C2B0 00 00 00 00 00 00 00 00 00 00 00 00 00 00 00 00 ................
0040C2C0 00 00 00 00 00 00 00 00 00 00 00 00 00 00 00 00 ................
0040C2D0 00 00 00 00 00 00 00 00 00 00 00 00 00 00 00 00 ................
0040C2E0 00 00 00 00 00 00 00 00 00 00 00 00 00 00 00 00 ................
0040C2F0 00 00 00 00 00 00 00 00 00 00 00 00 00 00 00 00 ................
0040C300 00 00 00 00 00 00 00 00 00 00 00 00 00 00 00 00 ................
0040C310 00 00 00 00 00 00 00 00 00 00 00 00 00 00 00 00 ................
0040C320 00 00 00 00 00 00 00 00 00 00 00 00 00 00 00 00 ................
0040C330 00 00 00 00 00 00 00 00 00 00 00 00 00 00 00 00 ................
0040C340 00 00 00 00 00 00 00 00 00 00 00 00 00 00 00 00 ................
0040C350 00 00 00 00 00 00 00 00 00 00 00 00 00 00 00 00 ................
0040C360 00 00 00 00 00 00 00 00 00 00 00 00 00 00 00 00 ................
0040C370 00 00 00 00 00 00 00 00 00 00 00 00 00 00 00 00 ................
0040C380 00 00 00 00 00 00 00 00 00 00 00 00 00 00 00 00 ................
0040C390 00 00 00 00 00 00 00 00 00 00 00 00 00 00 00 00 ................
0040C3A0 00 00 00 00 00 00 00 00 00 00 00 00 00 00 00 00 ................
0040C3B0 00 00 00 00 00 00 00 00 00 00 00 00 00 00 00 00 ................
0040C3C0 00 00 00 00 00 00 00 00 00 00 00 00 00 00 00 00 ................
0040C3D0 00 00 00 00 00 00 00 00 00 00 00 00 00 00 00 00 ................
0040C3E0 00 00 00 00 00 00 00 00 00 00 00 00 00 00 00 00 ................
0040C3F0 00 00 00 00 00 00 00 00 00 00 00 00 00 00 00 00 ................
0040C400 00 00 00 00 00 00 00 00 00 00 00 00 00 00 00 00 ................
0040C410 00 00 00 00 00 00 00 00 00 00 00 00 00 00 00 00 ................
0040C420 00 00 00 00 00 00 00 00 00 00 00 00 00 00 00 00 ................
0040C430 00 00 00 00 00 00 00 00 00 00 00 00 00 00 00 00 ................
0040C440 00 00 00 00 00 00 00 00 00 00 00 00 00 00 00 00 ................
0040C450 00 00 00 00 00 00 00 00 00 00 00 00 00 00 00 00 ................
0040C460 00 00 00 00 00 00 00 00 00 00 00 00 00 00 00 00 ................
0040C470 00 00 00 00 00 00 00 00 00 00 00 00 00 00 00 00 ................
0040C480 00 00 00 00 00 00 00 00 00 00 00 00 00 00 00 00 ................
0040C490 00 00 00 00 00 00 00 00 00 00 00 00 00 00 00 00 ................
0040C4A0 00 00 00 00 00 00 00 00 00 00 00 00 00 00 00 00 ................
0040C4B0 00 00 00 00 00 00 00 00 00 00 00 00 00 00 00 00 ................
0040C4C0 00 00 00 00 00 00 00 00 00 00 00 00 00 00 00 00 ................
0040C4D0 00 00 00 00 00 00 00 00 00 00 00 00 00 00 00 00 ................
0040C4E0 00 00 00 00 00 00 00 00 00 00 00 00 00 00 00 00 ................
0040C4F0 00 00 00 00 00 00 00 00 00 00 00 00 00 00 00 00 ................
0040C500 00 00 00 00 00 00 00 00 00 00 00 00 00 00 00 00 ................
0040C510 00 00 00 00 00 00 00 00 00 00 00 00 00 00 00 00 ................
0040C520 00 00 00 00 00 00 00 00 00 00 00 00 00 00 00 00 ................
0040C530 00 00 00 00 00 00 00 00 00 00 00 00 00 00 00 00 ................
0040C540 00 00 00 00 00 00 00 00 00 00 00 00 00 00 00 00 ................
0040C550 00 00 00 00 00 00 00 00 00 00 00 00 00 00 00 00 ................
0040C560 00 00 00 00 00 00 00 00 00 00 00 00 00 00 00 00 ................
0040C570 00 00 00 00 00 00 00 00 00 00 00 00 00 00 00 00 ................
0040C580 00 00 00 00 00 00 00 00 00 00 00 00 00 00 00 00 ................
0040C590 00 00 00 00 00 00 00 00 00 00 00 00 00 00 00 00 ................
0040C5A0 00 00 00 00 00 00 00 00 00 00 00 00 00 00 00 00 ................
0040C5B0 00 00 00 00 00 00 00 00 00 00 00 00 00 00 00 00 ................
0040C5C0 00 00 00 00 00 00 00 00 00 00 00 00 00 00 00 00 ................
0040C5D0 00 00 00 00 00 00 00 00 00 00 00 00 00 00 00 00 ................
0040C5E0 00 00 00 00 00 00 00 00 00 00 00 00 00 00 00 00 ................
0040C5F0 00 00 00 00 00 00 00 00 00 00 00 00 00 00 00 00 ................
0040C600 00 00 00 00 00 00 00 00 00 00 00 00 00 00 00 00 ................
0040C610 00 00 00 00 00 00 00 00 00 00 00 00 00 00 00 00 ................
0040C620 00 00 00 00 00 00 00 00 00 00 00 00 00 00 00 00 ................
0040C630 00 00 00 00 00 00 00 00 00 00 00 00 00 00 00 00 ................
0040C640 00 00 00 00 00 00 00 00 00 00 00 00 00 00 00 00 ................
0040C650 00 00 00 00 00 00 00 00 00 00 00 00 00 00 00 00 ................
0040C660 00 00 00 00 00 00 00 00 00 00 00 00 00 00 00 00 ................
0040C670 00 00 00 00 00 00 00 00 00 00 00 00 00 00 00 00 ................
0040C680 00 00 00 00 00 00 00 00 00 00 00 00 00 00 00 00 ................
0040C690 00 00 00 00 00 00 00 00 00 00 00 00 00 00 00 00 ................
0040C6A0 00 00 00 00 00 00 00 00 00 00 00 00 00 00 00 00 ................
0040C6B0 00 00 00 00 00 00 00 00 00 00 00 00 00 00 00 00 ................
0040C6C0 00 00 00 00 00 00 00 00 00 00 00 00 00 00 00 00 ................
0040C6D0 00 00 00 00 00 00 00 00 00 00 00 00 00 00 00 00 ................
0040C6E0 00 00 00 00 00 00 00 00 00 00 00 00 00 00 00 00 ................
0040C6F0 00 00 00 00 00 00 00 00 00 00 00 00 00 00 00 00 ................
0040C700 00 00 00 00 00 00 00 00 00 00 00 00 00 00 00 00 ................
0040C710 00 00 00 00 00 00 00 00 00 00 00 00 00 00 00 00 ................
0040C720 00 00 00 00 00 00 00 00 00 00 00 00 00 00 00 00 ................
0040C730 00 00 00 00 00 00 00 00 00 00 00 00 00 00 00 00 ................
0040C740 00 00 00 00 00 00 00 00 00 00 00 00 00 00 00 00 ................
0040C750 00 00 00 00 00 00 00 00 00 00 00 00 00 00 00 00 ................
0040C760 00 00 00 00 00 00 00 00 00 00 00 00 00 00 00 00 ................
0040C770 00 00 00 00 00 00 00 00 00 00 00 00 00 00 00 00 ................
0040C780 00 00 00 00 00 00 00 00 00 00 00 00 00 00 00 00 ................
0040C790 00 00 00 00 00 00 00 00 00 00 00 00 00 00 00 00 ................
0040C7A0 00 00 00 00 00 00 00 00 00 00 00 00 00 00 00 00 ................
0040C7B0 00 00 00 00 00 00 00 00 00 00 00 00 00 00 00 00 ................
0040C7C0 00 00 00 00 00 00 00 00 00 00 00 00 00 00 00 00 ................
0040C7D0 00 00 00 00 00 00 00 00 00 00 00 00 00 00 00 00 ................
0040C7E0 00 00 00 00 00 00 00 00 00 00 00 00 00 00 00 00 ................
0040C7F0 00 00 00 00 00 00 00 00 00 00 00 00 00 00 00 00 ................
0040C800 00 00 00 00 00 00 00 00 00 00 00 00 00 00 00 00 ................
0040C810 00 00 00 00 00 00 00 00 00 00 00 00 00 00 00 00 ................
0040C820 00 00 00 00 00 00 00 00 00 00 00 00 00 00 00 00 ................
0040C830 00 00 00 00 00 00 00 00 00 00 00 00 00 00 00 00 ................
0040C840 00 00 00 00 00 00 00 00 00 00 00 00 00 00 00 00 ................
0040C850 00 00 00 00 00 00 00 00 00 00 00 00 00 00 00 00 ................
0040C860 00 00 00 00 00 00 00 00 00 00 00 00 00 00 00 00 ................
0040C870 00 00 00 00 00 00 00 00 00 00 00 00 00 00 00 00 ................
0040C880 00 00 00 00 00 00 00 00 00 00 00 00 00 00 00 00 ................
0040C890 00 00 00 00 00 00 00 00 00 00 00 00 00 00 00 00 ................
0040C8A0 00 00 00 00 00 00 00 00 00 00 00 00 00 00 00 00 ................
0040C8B0 00 00 00 00 00 00 00 00 00 00 00 00 00 00 00 00 ................
0040C8C0 00 00 00 00 00 00 00 00 00 00 00 00 00 00 00 00 ................
0040C8D0 00 00 00 00 00 00 00 00 00 00 00 00 00 00 00 00 ................
0040C8E0 00 00 00 00 00 00 00 00 00 00 00 00 00 00 00 00 ................
0040C8F0 00 00 00 00 00 00 00 00 00 00 00 00 00 00 00 00 ................
0040C900 00 00 00 00 00 00 00 00 00 00 00 00 00 00 00 00 ................
0040C910 00 00 00 00 00 00 00 00 00 00 00 00 00 00 00 00 ................
0040C920 00 00 00 00 00 00 00 00 00 00 00 00 00 00 00 00 ................
0040C930 00 00 00 00 00 00 00 00 00 00 00 00 00 00 00 00 ................
0040C940 00 00 00 00 00 00 00 00 00 00 00 00 00 00 00 00 ................
0040C950 00 00 00 00 00 00 00 00 00 00 00 00 00 00 00 00 ................
0040C960 00 00 00 00 00 00 00 00 00 00 00 00 00 00 00 00 ................
0040C970 00 00 00 00 00 00 00 00 00 00 00 00 00 00 00 00 ................
0040C980 00 00 00 00 00 00 00 00 00 00 00 00 00 00 00 00 ................
0040C990 00 00 00 00 00 00 00 00 00 00 00 00 00 00 00 00 ................
0040C9A0 00 00 00 00 00 00 00 00 00 00 00 00 00 00 00 00 ................
0040C9B0 00 00 00 00 00 00 00 00 00 00 00 00 00 00 00 00 ................
0040C9C0 00 00 00 00 00 00 00 00 00 00 00 00 00 00 00 00 ................
0040C9D0 00 00 00 00 00 00 00 00 00 00 00 00 00 00 00 00 ................
0040C9E0 00 00 00 00 00 00 00 00 00 00 00 00 00 00 00 00 ................
0040C9F0 00 00 00 00 00 00 00 00 00 00 00 00 00 00 00 00 ................
0040CA00 00 00 00 00 00 00 00 00 00 00 00 00 00 00 00 00 ................
0040CA10 00 00 00 00 00 00 00 00 00 00 00 00 00 00 00 00 ................
0040CA20 00 00 00 00 00 00 00 00 00 00 00 00 00 00 00 00 ................
0040CA30 00 00 00 00 00 00 00 00 00 00 00 00 00 00 00 00 ................
0040CA40 00 00 00 00 00 00 00 00 00 00 00 00 00 00 00 00 ................
0040CA50 00 00 00 00 00 00 00 00 00 00 00 00 00 00 00 00 ................
0040CA60 00 00 00 00 00 00 00 00 00 00 00 00 00 00 00 00 ................
0040CA70 00 00 00 00 00 00 00 00 00 00 00 00 00 00 00 00 ................
0040CA80 00 00 00 00 00 00 00 00 00 00 00 00 00 00 00 00 ................
0040CA90 00 00 00 00 00 00 00 00 00 00 00 00 00 00 00 00 ................
0040CAA0 00 00 00 00 00 00 00 00 00 00 00 00 00 00 00 00 ................
0040CAB0 00 00 00 00 00 00 00 00 00 00 00 00 00 00 00 00 ................
0040CAC0 00 00 00 00 00 00 00 00 00 00 00 00 00 00 00 00 ................
0040CAD0 00 00 00 00 00 00 00 00 00 00 00 00 00 00 00 00 ................
0040CAE0 00 00 00 00 00 00 00 00 00 00 00 00 00 00 00 00 ................
0040CAF0 00 00 00 00 00 00 00 00 00 00 00 00 00 00 00 00 ................
0040CB00 00 00 00 00 00 00 00 00 00 00 00 00 00 00 00 00 ................
0040CB10 00 00 00 00 00 00 00 00 00 00 00 00 00 00 00 00 ................
0040CB20 00 00 00 00 00 00 00 00 00 00 00 00 00 00 00 00 ................
0040CB30 00 00 00 00 00 00 00 00 00 00 00 00 00 00 00 00 ................
0040CB40 00 00 00 00 00 00 00 00 00 00 00 00 00 00 00 00 ................
0040CB50 00 00 00 00 00 00 00 00 00 00 00 00 00 00 00 00 ................
0040CB60 00 00 00 00 00 00 00 00 00 00 00 00 00 00 00 00 ................
0040CB70 00 00 00 00 00 00 00 00 00 00 00 00 00 00 00 00 ................
0040CB80 00 00 00 00 00 00 00 00 00 00 00 00 00 00 00 00 ................
0040CB90 00 00 00 00 00 00 00 00 00 00 00 00 00 00 00 00 ................
0040CBA0 00 00 00 00 00 00 00 00 00 00 00 00 00 00 00 00 ................
0040CBB0 00 00 00 00 00 00 00 00 00 00 00 00 00 00 00 00 ................
0040CBC0 00 00 00 00 00 00 00 00 00 00 00 00 00 00 00 00 ................
0040CBD0 00 00 00 00 00 00 00 00 00 00 00 00 00 00 00 00 ................
0040CBE0 00 00 00 00 00 00 00 00 00 00 00 00 00 00 00 00 ................
0040CBF0 00 00 00 00 00 00 00 00 00 00 00 00 00 00 00 00 ................
0040CC00 00 00 00 00 00 00 00 00 00 00 00 00 00 00 00 00 ................
0040CC10 00 00 00 00 00 00 00 00 00 00 00 00 00 00 00 00 ................
0040CC20 00 00 00 00 00 00 00 00 00 00 00 00 00 00 00 00 ................
0040CC30 00 00 00 00 00 00 00 00 00 00 00 00 00 00 00 00 ................
0040CC40 00 00 00 00 00 00 00 00 00 00 00 00 00 00 00 00 ................
0040CC50 00 00 00 00 00 00 00 00 00 00 00 00 00 00 00 00 ................
0040CC60 00 00 00 00 00 00 00 00 00 00 00 00 00 00 00 00 ................
0040CC70 00 00 00 00 00 00 00 00 00 00 00 00 00 00 00 00 ................
0040CC80 00 00 00 00 00 00 00 00 00 00 00 00 00 00 00 00 ................
0040CC90 00 00 00 00 00 00 00 00 00 00 00 00 00 00 00 00 ................
0040CCA0 00 00 00 00 00 00 00 00 00 00 00 00 00 00 00 00 ................
0040CCB0 00 00 00 00 00 00 00 00 00 00 00 00 00 00 00 00 ................
0040CCC0 00 00 00 00 00 00 00 00 00 00 00 00 00 00 00 00 ................
0040CCD0 00 00 00 00 00 00 00 00 00 00 00 00 00 00 00 00 ................
0040CCE0 00 00 00 00 00 00 00 00 00 00 00 00 00 00 00 00 ................
0040CCF0 00 00 00 00 00 00 00 00 00 00 00 00 00 00 00 00 ................
0040CD00 00 00 00 00 00 00 00 00 00 00 00 00 00 00 00 00 ................
0040CD10 00 00 00 00 00 00 00 00 00 00 00 00 00 00 00 00 ................
0040CD20 00 00 00 00 00 00 00 00 00 00 00 00 00 00 00 00 ................
0040CD30 00 00 00 00 00 00 00 00 00 00 00 00 00 00 00 00 ................
0040CD40 00 00 00 00 00 00 00 00 00 00 00 00 00 00 00 00 ................
0040CD50 00 00 00 00 00 00 00 00 00 00 00 00 00 00 00 00 ................
0040CD60 00 00 00 00 00 00 00 00 00 00 00 00 00 00 00 00 ................
0040CD70 00 00 00 00 00 00 00 00 00 00 00 00 00 00 00 00 ................
0040CD80 00 00 00 00 00 00 00 00 00 00 00 00 00 00 00 00 ................
0040CD90 00 00 00 00 00 00 00 00 00 00 00 00 00 00 00 00 ................
0040CDA0 00 00 00 00 00 00 00 00 00 00 00 00 00 00 00 00 ................
0040CDB0 00 00 00 00 00 00 00 00 00 00 00 00 00 00 00 00 ................
0040CDC0 00 00 00 00 00 00 00 00 00 00 00 00 00 00 00 00 ................
0040CDD0 00 00 00 00 00 00 00 00 00 00 00 00 00 00 00 00 ................
0040CDE0 00 00 00 00 00 00 00 00 00 00 00 00 00 00 00 00 ................
0040CDF0 00 00 00 00 00 00 00 00 00 00 00 00 00 00 00 00 ................
0040CE00 00 00 00 00 00 00 00 00 00 00 00 00 00 00 00 00 ................
0040CE10 00 00 00 00 00 00 00 00 00 00 00 00 00 00 00 00 ................
0040CE20 00 00 00 00 00 00 00 00 00 00 00 00 00 00 00 00 ................
0040CE30 00 00 00 00 00 00 00 00 00 00 00 00 00 00 00 00 ................
0040CE40 00 00 00 00 00 00 00 00 00 00 00 00 00 00 00 00 ................
0040CE50 00 00 00 00 00 00 00 00 00 00 00 00 00 00 00 00 ................
0040CE60 00 00 00 00 00 00 00 00 00 00 00 00 00 00 00 00 ................
0040CE70 00 00 00 00 00 00 00 00 00 00 00 00 00 00 00 00 ................
0040CE80 00 00 00 00 00 00 00 00 00 00 00 00 00 00 00 00 ................
0040CE90 00 00 00 00 00 00 00 00 00 00 00 00 00 00 00 00 ................
0040CEA0 00 00 00 00 00 00 00 00 00 00 00 00 00 00 00 00 ................
0040CEB0 00 00 00 00 00 00 00 00 00 00 00 00 00 00 00 00 ................
0040CEC0 00 00 00 00 00 00 00 00 00 00 00 00 00 00 00 00 ................
0040CED0 00 00 00 00 00 00 00 00 00 00 00 00 00 00 00 00 ................
0040CEE0 00 00 00 00 00 00 00 00 00 00 00 00 00 00 00 00 ................
0040CEF0 00 00 00 00 00 00 00 00 00 00 00 00 00 00 00 00 ................
0040CF00 00 00 00 00 00 00 00 00 00 00 00 00 00 00 00 00 ................
0040CF10 00 00 00 00 00 00 00 00 00 00 00 00 00 00 00 00 ................
0040CF20 00 00 00 00 00 00 00 00 00 00 00 00 00 00 00 00 ................
0040CF30 00 00 00 00 00 00 00 00 00 00 00 00 00 00 00 00 ................
0040CF40 00 00 00 00 00 00 00 00 00 00 00 00 00 00 00 00 ................
0040CF50 00 00 00 00 00 00 00 00 00 00 00 00 00 00 00 00 ................
0040CF60 00 00 00 00 00 00 00 00 00 00 00 00 00 00 00 00 ................
0040CF70 00 00 00 00 00 00 00 00 00 00 00 00 00 00 00 00 ................
0040CF80 00 00 00 00 00 00 00 00 00 00 00 00 00 00 00 00 ................
0040CF90 00 00 00 00 00 00 00 00 00 00 00 00 00 00 00 00 ................
0040CFA0 00 00 00 00 00 00 00 00 00 00 00 00 00 00 00 00 ................
0040CFB0 00 00 00 00 00 00 00 00 00 00 00 00 00 00 00 00 ................
0040CFC0 00 00 00 00 00 00 00 00 00 00 00 00 00 00 00 00 ................
0040CFD0 00 00 00 00 00 00 00 00 00 00 00 00 00 00 00 00 ................
0040CFE0 00 00 00 00 00 00 00 00 00 00 00 00 00 00 00 00 ................
0040CFF0 00 00 00 00 00 00 00 00 00 00 00 00 00 00 00 00 ................
0040D000 00 00 00 00 00 00 00 00 00 00 00 00 00 00 00 00 ................
0040D010 00 00 00 00 00 00 00 00 00 00 00 00 00 00 00 00 ................
0040D020 00 00 00 00 00 00 00 00 00 00 00 00 00 00 00 00 ................
0040D030 00 00 00 00 00 00 00 00 00 00 00 00 00 00 00 00 ................
0040D040 00 00 00 00 00 00 00 00 00 00 00 00 00 00 00 00 ................
0040D050 00 00 00 00 00 00 00 00 00 00 00 00 00 00 00 00 ................
0040D060 00 00 00 00 00 00 00 00 00 00 00 00 00 00 00 00 ................
0040D070 00 00 00 00 00 00 00 00 00 00 00 00 00 00 00 00 ................
0040D080 00 00 00 00 00 00 00 00 00 00 00 00 00 00 00 00 ................
0040D090 00 00 00 00 00 00 00 00 00 00 00 00 00 00 00 00 ................
0040D0A0 00 00 00 00 00 00 00 00 00 00 00 00 00 00 00 00 ................
0040D0B0 00 00 00 00 00 00 00 00 00 00 00 00 00 00 00 00 ................
0040D0C0 00 00 00 00 00 00 00 00 00 00 00 00 00 00 00 00 ................
0040D0D0 00 00 00 00 00 00 00 00 00 00 00 00 00 00 00 00 ................
0040D0E0 00 00 00 00 00 00 00 00 00 00 00 00 00 00 00 00 ................
0040D0F0 00 00 00 00 00 00 00 00 00 00 00 00 00 00 00 00 ................
0040D100 00 00 00 00 00 00 00 00 00 00 00 00 00 00 00 00 ................
0040D110 00 00 00 00 00 00 00 00 00 00 00 00 00 00 00 00 ................
0040D120 00 00 00 00 00 00 00 00 00 00 00 00 00 00 00 00 ................
0040D130 00 00 00 00 00 00 00 00 00 00 00 00 00 00 00 00 ................
0040D140 00 00 00 00 00 00 00 00 00 00 00 00 00 00 00 00 ................
0040D150 00 00 00 00 00 00 00 00 00 00 00 00 00 00 00 00 ................
0040D160 00 00 00 00 00 00 00 00 00 00 00 00 00 00 00 00 ................
0040D170 00 00 00 00 00 00 00 00 00 00 00 00 00 00 00 00 ................
0040D180 00 00 00 00 00 00 00 00 00 00 00 00 00 00 00 00 ................
0040D190 00 00 00 00 00 00 00 00 00 00 00 00 00 00 00 00 ................
0040D1A0 00 00 00 00 00 00 00 00 00 00 00 00 00 00 00 00 ................
0040D1B0 00 00 00 00 00 00 00 00 00 00 00 00 00 00 00 00 ................
0040D1C0 00 00 00 00 00 00 00 00 00 00 00 00 00 00 00 00 ................
0040D1D0 00 00 00 00 00 00 00 00 00 00 00 00 00 00 00 00 ................
0040D1E0 00 00 00 00 00 00 00 00 00 00 00 00 00 00 00 00 ................
0040D1F0 00 00 00 00 00 00 00 00 00 00 00 00 00 00 00 00 ................
0040D200 00 00 00 00 00 00 00 00 00 00 00 00 00 00 00 00 ................
0040D210 00 00 00 00 00 00 00 00 00 00 00 00 00 00 00 00 ................
0040D220 00 00 00 00 00 00 00 00 00 00 00 00 00 00 00 00 ................
0040D230 00 00 00 00 00 00 00 00 00 00 00 00 00 00 00 00 ................
0040D240 00 00 00 00 00 00 00 00 00 00 00 00 00 00 00 00 ................
0040D250 00 00 00 00 00 00 00 00 00 00 00 00 00 00 00 00 ................
0040D260 00 00 00 00 00 00 00 00 00 00 00 00 00 00 00 00 ................
0040D270 00 00 00 00 00 00 00 00 00 00 00 00 00 00 00 00 ................
0040D280 00 00 00 00 00 00 00 00 00 00 00 00 00 00 00 00 ................
0040D290 00 00 00 00 00 00 00 00 00 00 00 00 00 00 00 00 ................
0040D2A0 00 00 00 00 00 00 00 00 00 00 00 00 00 00 00 00 ................
0040D2B0 00 00 00 00 00 00 00 00 00 00 00 00 00 00 00 00 ................
0040D2C0 00 00 00 00 00 00 00 00 00 00 00 00 00 00 00 00 ................
0040D2D0 00 00 00 00 00 00 00 00 00 00 00 00 00 00 00 00 ................
0040D2E0 00 00 00 00 00 00 00 00 00 00 00 00 00 00 00 00 ................
0040D2F0 00 00 00 00 00 00 00 00 00 00 00 00 00 00 00 00 ................
0040D300 00 00 00 00 00 00 00 00 00 00 00 00 00 00 00 00 ................
0040D310 00 00 00 00 00 00 00 00 00 00 00 00 00 00 00 00 ................
0040D320 00 00 00 00 00 00 00 00 00 00 00 00 00 00 00 00 ................
0040D330 00 00 00 00 00 00 00 00 00 00 00 00 00 00 00 00 ................
0040D340 00 00 00 00 00 00 00 00 00 00 00 00 00 00 00 00 ................
0040D350 00 00 00 00 00 00 00 00 00 00 00 00 00 00 00 00 ................
0040D360 00 00 00 00 00 00 00 00 00 00 00 00 00 00 00 00 ................
0040D370 00 00 00 00 00 00 00 00 00 00 00 00 00 00 00 00 ................
0040D380 00 00 00 00 00 00 00 00 00 00 00 00 00 00 00 00 ................
0040D390 00 00 00 00 00 00 00 00 00 00 00 00 00 00 00 00 ................
0040D3A0 00 00 00 00 00 00 00 00 00 00 00 00 00 00 00 00 ................
0040D3B0 00 00 00 00 00 00 00 00 00 00 00 00 00 00 00 00 ................
0040D3C0 00 00 00 00 00 00 00 00 00 00 00 00 00 00 00 00 ................
0040D3D0 00 00 00 00 00 00 00 00 00 00 00 00 00 00 00 00 ................
0040D3E0 00 00 00 00 00 00 00 00 00 00 00 00 00 00 00 00 ................
0040D3F0 00 00 00 00 00 00 00 00 00 00 00 00 00 00 00 00 ................
0040D400 00 00 00 00 00 00 00 00 00 00 00 00 00 00 00 00 ................
0040D410 00 00 00 00 00 00 00 00 00 00 00 00 00 00 00 00 ................
0040D420 00 00 00 00 00 00 00 00 00 00 00 00 00 00 00 00 ................
0040D430 00 00 00 00 00 00 00 00 00 00 00 00 00 00 00 00 ................
0040D440 00 00 00 00 00 00 00 00 00 00 00 00 00 00 00 00 ................
0040D450 00 00 00 00 00 00 00 00 00 00 00 00 00 00 00 00 ................
0040D460 00 00 00 00 00 00 00 00 00 00 00 00 00 00 00 00 ................
0040D470 00 00 00 00 00 00 00 00 00 00 00 00 00 00 00 00 ................
0040D480 00 00 00 00 00 00 00 00 00 00 00 00 00 00 00 00 ................
0040D490 00 00 00 00 00 00 00 00 00 00 00 00 00 00 00 00 ................
0040D4A0 00 00 00 00 00 00 00 00 00 00 00 00 00 00 00 00 ................
0040D4B0 00 00 00 00 00 00 00 00 00 00 00 00 00 00 00 00 ................
0040D4C0 00 00 00 00 00 00 00 00 00 00 00 00 00 00 00 00 ................
0040D4D0 00 00 00 00 00 00 00 00 00 00 00 00 00 00 00 00 ................
0040D4E0 00 00 00 00 00 00 00 00 00 00 00 00 00 00 00 00 ................
0040D4F0 00 00 00 00 00 00 00 00 00 00 00 00 00 00 00 00 ................
0040D500 00 00 00 00 00 00 00 00 00 00 00 00 00 00 00 00 ................
0040D510 00 00 00 00 00 00 00 00 00 00 00 00 00 00 00 00 ................
0040D520 00 00 00 00 00 00 00 00 00 00 00 00 00 00 00 00 ................
0040D530 00 00 00 00 00 00 00 00 00 00 00 00 00 00 00 00 ................
0040D540 00 00 00 00 00 00 00 00 00 00 00 00 00 00 00 00 ................
0040D550 00 00 00 00 00 00 00 00 00 00 00 00 00 00 00 00 ................
0040D560 00 00 00 00 00 00 00 00 00 00 00 00 00 00 00 00 ................
0040D570 00 00 00 00 00 00 00 00 00 00 00 00 00 00 00 00 ................
0040D580 00 00 00 00 00 00 00 00 00 00 00 00 00 00 00 00 ................
0040D590 00 00 00 00 00 00 00 00 00 00 00 00 00 00 00 00 ................
0040D5A0 00 00 00 00 00 00 00 00 00 00 00 00 00 00 00 00 ................
0040D5B0 00 00 00 00 00 00 00 00 00 00 00 00 00 00 00 00 ................
0040D5C0 00 00 00 00 00 00 00 00 00 00 00 00 00 00 00 00 ................
0040D5D0 00 00 00 00 00 00 00 00 00 00 00 00 00 00 00 00 ................
0040D5E0 00 00 00 00 00 00 00 00 00 00 00 00 00 00 00 00 ................
0040D5F0 00 00 00 00 00 00 00 00 00 00 00 00 00 00 00 00 ................
0040D600 00 00 00 00 00 00 00 00 00 00 00 00 00 00 00 00 ................
0040D610 00 00 00 00 00 00 00 00 00 00 00 00 00 00 00 00 ................
0040D620 00 00 00 00 00 00 00 00 00 00 00 00 00 00 00 00 ................
0040D630 00 00 00 00 00 00 00 00 00 00 00 00 00 00 00 00 ................
0040D640 00 00 00 00 00 00 00 00 00 00 00 00 00 00 00 00 ................
0040D650 00 00 00 00 00 00 00 00 00 00 00 00 00 00 00 00 ................
0040D660 00 00 00 00 00 00 00 00 00 00 00 00 00 00 00 00 ................
0040D670 00 00 00 00 00 00 00 00 00 00 00 00 00 00 00 00 ................
0040D680 00 00 00 00 00 00 00 00 00 00 00 00 00 00 00 00 ................
0040D690 00 00 00 00 00 00 00 00 00 00 00 00 00 00 00 00 ................
0040D6A0 00 00 00 00 00 00 00 00 00 00 00 00 00 00 00 00 ................
0040D6B0 00 00 00 00 00 00 00 00 00 00 00 00 00 00 00 00 ................
0040D6C0 00 00 00 00 00 00 00 00 00 00 00 00 00 00 00 00 ................
0040D6D0 00 00 00 00 00 00 00 00 00 00 00 00 00 00 00 00 ................
0040D6E0 00 00 00 00 00 00 00 00 00 00 00 00 00 00 00 00 ................
0040D6F0 00 00 00 00 00 00 00 00 00 00 00 00 00 00 00 00 ................
0040D700 00 00 00 00 00 00 00 00 00 00 00 00 00 00 00 00 ................
0040D710 00 00 00 00 00 00 00 00 00 00 00 00 00 00 00 00 ................
0040D720 00 00 00 00 00 00 00 00 00 00 00 00 00 00 00 00 ................
0040D730 00 00 00 00 00 00 00 00 00 00 00 00 00 00 00 00 ................
0040D740 00 00 00 00 00 00 00 00 00 00 00 00 00 00 00 00 ................
0040D750 00 00 00 00 00 00 00 00 00 00 00 00 00 00 00 00 ................
0040D760 00 00 00 00 00 00 00 00 00 00 00 00 00 00 00 00 ................
0040D770 00 00 00 00 00 00 00 00 00 00 00 00 00 00 00 00 ................
0040D780 00 00 00 00 00 00 00 00 00 00 00 00 00 00 00 00 ................
0040D790 00 00 00 00 00 00 00 00 00 00 00 00 00 00 00 00 ................
0040D7A0 00 00 00 00 00 00 00 00 00 00 00 00 00 00 00 00 ................
0040D7B0 00 00 00 00 00 00 00 00 00 00 00 00 00 00 00 00 ................
0040D7C0 00 00 00 00 00 00 00 00 00 00 00 00 00 00 00 00 ................
0040D7D0 00 00 00 00 00 00 00 00 00 00 00 00 00 00 00 00 ................
0040D7E0 00 00 00 00 00 00 00 00 00 00 00 00 00 00 00 00 ................
0040D7F0 00 00 00 00 00 00 00 00 00 00 00 00 00 00 00 00 ................
0040D800 00 00 00 00 00 00 00 00 00 00 00 00 00 00 00 00 ................
0040D810 00 00 00 00 00 00 00 00 00 00 00 00 00 00 00 00 ................
0040D820 00 00 00 00 00 00 00 00 00 00 00 00 00 00 00 00 ................
0040D830 00 00 00 00 00 00 00 00 00 00 00 00 00 00 00 00 ................
0040D840 00 00 00 00 00 00 00 00 00 00 00 00 00 00 00 00 ................
0040D850 00 00 00 00 00 00 00 00 00 00 00 00 00 00 00 00 ................
0040D860 00 00 00 00 00 00 00 00 00 00 00 00 00 00 00 00 ................
0040D870 00 00 00 00 00 00 00 00 00 00 00 00 00 00 00 00 ................
0040D880 00 00 00 00 00 00 00 00 00 00 00 00 00 00 00 00 ................
0040D890 00 00 00 00 00 00 00 00 00 00 00 00 00 00 00 00 ................
0040D8A0 00 00 00 00 00 00 00 00 00 00 00 00 00 00 00 00 ................
0040D8B0 00 00 00 00 00 00 00 00 00 00 00 00 00 00 00 00 ................
0040D8C0 00 00 00 00 00 00 00 00 00 00 00 00 00 00 00 00 ................
0040D8D0 00 00 00 00 00 00 00 00 00 00 00 00 00 00 00 00 ................
0040D8E0 00 00 00 00 00 00 00 00 00 00 00 00 00 00 00 00 ................
0040D8F0 00 00 00 00 00 00 00 00 00 00 00 00 00 00 00 00 ................
0040D900 00 00 00 00 00 00 00 00 00 00 00 00 00 00 00 00 ................
0040D910 00 00 00 00 00 00 00 00 00 00 00 00 00 00 00 00 ................
0040D920 00 00 00 00 00 00 00 00 00 00 00 00 00 00 00 00 ................
0040D930 00 00 00 00 00 00 00 00 00 00 00 00 00 00 00 00 ................
0040D940 00 00 00 00 00 00 00 00 00 00 00 00 00 00 00 00 ................
0040D950 00 00 00 00 00 00 00 00 00 00 00 00 00 00 00 00 ................
0040D960 00 00 00 00 00 00 00 00 00 00 00 00 00 00 00 00 ................
0040D970 00 00 00 00 00 00 00 00 00 00 00 00 00 00 00 00 ................
0040D980 00 00 00 00 00 00 00 00 00 00 00 00 00 00 00 00 ................
0040D990 00 00 00 00 00 00 00 00 00 00 00 00 00 00 00 00 ................
0040D9A0 00 00 00 00 00 00 00 00 00 00 00 00 00 00 00 00 ................
0040D9B0 00 00 00 00 00 00 00 00 00 00 00 00 00 00 00 00 ................
0040D9C0 00 00 00 00 00 00 00 00 00 00 00 00 00 00 00 00 ................
0040D9D0 00 00 00 00 00 00 00 00 00 00 00 00 00 00 00 00 ................
0040D9E0 00 00 00 00 00 00 00 00 00 00 00 00 00 00 00 00 ................
0040D9F0 00 00 00 00 00 00 00 00 00 00 00 00 00 00 00 00 ................
0040DA00 00 00 00 00 00 00 00 00 00 00 00 00 00 00 00 00 ................
0040DA10 00 00 00 00 00 00 00 00 00 00 00 00 00 00 00 00 ................
0040DA20 00 00 00 00 00 00 00 00 00 00 00 00 00 00 00 00 ................
0040DA30 00 00 00 00 00 00 00 00 00 00 00 00 00 00 00 00 ................
0040DA40 00 00 00 00 00 00 00 00 00 00 00 00 00 00 00 00 ................
0040DA50 00 00 00 00 00 00 00 00 00 00 00 00 00 00 00 00 ................
0040DA60 00 00 00 00 00 00 00 00 00 00 00 00 00 00 00 00 ................
0040DA70 00 00 00 00 00 00 00 00 00 00 00 00 00 00 00 00 ................
0040DA80 00 00 00 00 00 00 00 00 00 00 00 00 00 00 00 00 ................
0040DA90 00 00 00 00 00 00 00 00 00 00 00 00 00 00 00 00 ................
0040DAA0 00 00 00 00 00 00 00 00 00 00 00 00 00 00 00 00 ................
0040DAB0 00 00 00 00 00 00 00 00 00 00 00 00 00 00 00 00 ................
0040DAC0 00 00 00 00 00 00 00 00 00 00 00 00 00 00 00 00 ................
0040DAD0 00 00 00 00 00 00 00 00 00 00 00 00 00 00 00 00 ................
0040DAE0 00 00 00 00 00 00 00 00 00 00 00 00 00 00 00 00 ................
0040DAF0 00 00 00 00 00 00 00 00 00 00 00 00 00 00 00 00 ................
0040DB00 00 00 00 00 00 00 00 00 00 00 00 00 00 00 00 00 ................
0040DB10 00 00 00 00 00 00 00 00 00 00 00 00 00 00 00 00 ................
0040DB20 00 00 00 00 00 00 00 00 00 00 00 00 00 00 00 00 ................
0040DB30 00 00 00 00 00 00 00 00 00 00 00 00 00 00 00 00 ................
0040DB40 00 00 00 00 00 00 00 00 00 00 00 00 00 00 00 00 ................
0040DB50 00 00 00 00 00 00 00 00 00 00 00 00 00 00 00 00 ................
0040DB60 00 00 00 00 00 00 00 00 00 00 00 00 00 00 00 00 ................
0040DB70 00 00 00 00 00 00 00 00 00 00 00 00 00 00 00 00 ................
0040DB80 00 00 00 00 00 00 00 00 00 00 00 00 00 00 00 00 ................
0040DB90 00 00 00 00 00 00 00 00 00 00 00 00 00 00 00 00 ................
0040DBA0 00 00 00 00 00 00 00 00 00 00 00 00 00 00 00 00 ................
0040DBB0 00 00 00 00 00 00 00 00 00 00 00 00 00 00 00 00 ................
0040DBC0 00 00 00 00 00 00 00 00 00 00 00 00 00 00 00 00 ................
0040DBD0 00 00 00 00 00 00 00 00 00 00 00 00 00 00 00 00 ................
0040DBE0 00 00 00 00 00 00 00 00 00 00 00 00 00 00 00 00 ................
0040DBF0 00 00 00 00 00 00 00 00 00 00 00 00 00 00 00 00 ................
0040DC00 00 00 00 00 00 00 00 00 00 00 00 00 00 00 00 00 ................
0040DC10 00 00 00 00 00 00 00 00 00 00 00 00 00 00 00 00 ................
0040DC20 00 00 00 00 00 00 00 00 00 00 00 00 00 00 00 00 ................
0040DC30 00 00 00 00 00 00 00 00 00 00 00 00 00 00 00 00 ................
0040DC40 00 00 00 00 00 00 00 00 00 00 00 00 00 00 00 00 ................
0040DC50 00 00 00 00 00 00 00 00 00 00 00 00 00 00 00 00 ................
0040DC60 00 00 00 00 00 00 00 00 00 00 00 00 00 00 00 00 ................
0040DC70 00 00 00 00 00 00 00 00 00 00 00 00 00 00 00 00 ................
0040DC80 00 00 00 00 00 00 00 00 00 00 00 00 00 00 00 00 ................
0040DC90 00 00 00 00 00 00 00 00 00 00 00 00 00 00 00 00 ................
0040DCA0 00 00 00 00 00 00 00 00 00 00 00 00 00 00 00 00 ................
0040DCB0 00 00 00 00 00 00 00 00 00 00 00 00 00 00 00 00 ................
0040DCC0 00 00 00 00 00 00 00 00 00 00 00 00 00 00 00 00 ................
0040DCD0 00 00 00 00 00 00 00 00 00 00 00 00 00 00 00 00 ................
0040DCE0 00 00 00 00 00 00 00 00 00 00 00 00 00 00 00 00 ................
0040DCF0 00 00 00 00 00 00 00 00 00 00 00 00 00 00 00 00 ................
0040DD00 00 00 00 00 00 00 00 00 00 00 00 00 00 00 00 00 ................
0040DD10 00 00 00 00 00 00 00 00 00 00 00 00 00 00 00 00 ................
0040DD20 00 00 00 00 00 00 00 00 00 00 00 00 00 00 00 00 ................
0040DD30 00 00 00 00 00 00 00 00 00 00 00 00 00 00 00 00 ................
0040DD40 00 00 00 00 00 00 00 00 00 00 00 00 00 00 00 00 ................
0040DD50 00 00 00 00 00 00 00 00 00 00 00 00 00 00 00 00 ................
0040DD60 00 00 00 00 00 00 00 00 00 00 00 00 00 00 00 00 ................
0040DD70 00 00 00 00 00 00 00 00 00 00 00 00 00 00 00 00 ................
0040DD80 00 00 00 00 00 00 00 00 00 00 00 00 00 00 00 00 ................
0040DD90 00 00 00 00 00 00 00 00 00 00 00 00 00 00 00 00 ................
0040DDA0 00 00 00 00 00 00 00 00 00 00 00 00 00 00 00 00 ................
0040DDB0 00 00 00 00 00 00 00 00 00 00 00 00 00 00 00 00 ................
0040DDC0 00 00 00 00 00 00 00 00 00 00 00 00 00 00 00 00 ................
0040DDD0 00 00 00 00 00 00 00 00 00 00 00 00 00 00 00 00 ................
0040DDE0 00 00 00 00 00 00 00 00 00 00 00 00 00 00 00 00 ................
0040DDF0 00 00 00 00 00 00 00 00 00 00 00 00 00 00 00 00 ................
0040DE00 00 00 00 00 00 00 00 00 00 00 00 00 00 00 00 00 ................
0040DE10 00 00 00 00 00 00 00 00 00 00 00 00 00 00 00 00 ................
0040DE20 00 00 00 00 00 00 00 00 00 00 00 00 00 00 00 00 ................
0040DE30 00 00 00 00 00 00 00 00 00 00 00 00 00 00 00 00 ................
0040DE40 00 00 00 00 00 00 00 00 00 00 00 00 00 00 00 00 ................
0040DE50 00 00 00 00 00 00 00 00 00 00 00 00 00 00 00 00 ................
0040DE60 00 00 00 00 00 00 00 00 00 00 00 00 00 00 00 00 ................
0040DE70 00 00 00 00 00 00 00 00 00 00 00 00 00 00 00 00 ................
0040DE80 00 00 00 00 00 00 00 00 00 00 00 00 00 00 00 00 ................
0040DE90 00 00 00 00 00 00 00 00 00 00 00 00 00 00 00 00 ................
0040DEA0 00 00 00 00 00 00 00 00 00 00 00 00 00 00 00 00 ................
0040DEB0 00 00 00 00 00 00 00 00 00 00 00 00 00 00 00 00 ................
0040DEC0 00 00 00 00 00 00 00 00 00 00 00 00 00 00 00 00 ................
0040DED0 00 00 00 00 00 00 00 00 00 00 00 00 00 00 00 00 ................
0040DEE0 00 00 00 00 00 00 00 00 00 00 00 00 00 00 00 00 ................
0040DEF0 00 00 00 00 00 00 00 00 00 00 00 00 00 00 00 00 ................
0040DF00 00 00 00 00 00 00 00 00 00 00 00 00 00 00 00 00 ................
0040DF10 00 00 00 00 00 00 00 00 00 00 00 00 00 00 00 00 ................
0040DF20 00 00 00 00 00 00 00 00 00 00 00 00 00 00 00 00 ................
0040DF30 00 00 00 00 00 00 00 00 00 00 00 00 00 00 00 00 ................
0040DF40 00 00 00 00 00 00 00 00 00 00 00 00 00 00 00 00 ................
0040DF50 00 00 00 00 00 00 00 00 00 00 00 00 00 00 00 00 ................
0040DF60 00 00 00 00 00 00 00 00 00 00 00 00 00 00 00 00 ................
0040DF70 00 00 00 00 00 00 00 00 00 00 00 00 00 00 00 00 ................
0040DF80 00 00 00 00 00 00 00 00 00 00 00 00 00 00 00 00 ................
0040DF90 00 00 00 00 00 00 00 00 00 00 00 00 00 00 00 00 ................
0040DFA0 00 00 00 00 00 00 00 00 00 00 00 00 00 00 00 00 ................
0040DFB0 00 00 00 00 00 00 00 00 00 00 00 00 00 00 00 00 ................
0040DFC0 00 00 00 00 00 00 00 00 00 00 00 00 00 00 00 00 ................
0040DFD0 00 00 00 00 00 00 00 00 00 00 00 00 00 00 00 00 ................
0040DFE0 00 00 00 00 00 00 00 00 00 00 00 00 00 00 00 00 ................
0040DFF0 00 00 00 00 00 00 00 00 00 00 00 00 00 00 00 00 ................
0040E000 00 00 00 00 00 00 00 00 00 00 00 00 00 00 00 00 ................
0040E010 00 00 00 00 00 00 00 00 00 00 00 00 00 00 00 00 ................
0040E020 00 00 00 00 00 00 00 00 00 00 00 00 00 00 00 00 ................
0040E030 00 00 00 00 00 00 00 00 00 00 00 00 00 00 00 00 ................
0040E040 00 00 00 00 00 00 00 00 00 00 00 00 00 00 00 00 ................
0040E050 00 00 00 00 00 00 00 00 00 00 00 00 00 00 00 00 ................
0040E060 00 00 00 00 00 00 00 00 00 00 00 00 00 00 00 00 ................
0040E070 00 00 00 00 00 00 00 00 00 00 00 00 00 00 00 00 ................
0040E080 00 00 00 00 00 00 00 00 00 00 00 00 00 00 00 00 ................
0040E090 00 00 00 00 00 00 00 00 00 00 00 00 00 00 00 00 ................
0040E0A0 00 00 00 00 00 00 00 00 00 00 00 00 00 00 00 00 ................
0040E0B0 00 00 00 00 00 00 00 00 00 00 00 00 00 00 00 00 ................
0040E0C0 00 00 00 00 00 00 00 00 00 00 00 00 00 00 00 00 ................
0040E0D0 00 00 00 00 00 00 00 00 00 00 00 00 00 00 00 00 ................
0040E0E0 00 00 00 00 00 00 00 00 00 00 00 00 00 00 00 00 ................
0040E0F0 00 00 00 00 00 00 00 00 00 00 00 00 00 00 00 00 ................
0040E100 00 00 00 00 00 00 00 00 00 00 00 00 00 00 00 00 ................
0040E110 00 00 00 00 00 00 00 00 00 00 00 00 00 00 00 00 ................
0040E120 00 00 00 00 00 00 00 00 00 00 00 00 00 00 00 00 ................
0040E130 00 00 00 00 00 00 00 00 00 00 00 00 00 00 00 00 ................
0040E140 00 00 00 00 00 00 00 00 00 00 00 00 00 00 00 00 ................
0040E150 00 00 00 00 00 00 00 00 00 00 00 00 00 00 00 00 ................
0040E160 00 00 00 00 00 00 00 00 00 00 00 00 00 00 00 00 ................
0040E170 00 00 00 00 00 00 00 00 00 00 00 00 00 00 00 00 ................
0040E180 00 00 00 00 00 00 00 00 00 00 00 00 00 00 00 00 ................
0040E190 00 00 00 00 00 00 00 00 00 00 00 00 00 00 00 00 ................
0040E1A0 00 00 00 00 00 00 00 00 00 00 00 00 00 00 00 00 ................
0040E1B0 00 00 00 00 00 00 00 00 00 00 00 00 00 00 00 00 ................
0040E1C0 00 00 00 00 00 00 00 00 00 00 00 00 00 00 00 00 ................
0040E1D0 00 00 00 00 00 00 00 00 00 00 00 00 00 00 00 00 ................
0040E1E0 00 00 00 00 00 00 00 00 00 00 00 00 00 00 00 00 ................
0040E1F0 00 00 00 00 00 00 00 00 00 00 00 00 00 00 00 00 ................
0040E200 00 00 00 00 00 00 00 00 00 00 00 00 00 00 00 00 ................
0040E210 00 00 00 00 00 00 00 00 00 00 00 00 00 00 00 00 ................
0040E220 00 00 00 00 00 00 00 00 00 00 00 00 00 00 00 00 ................
0040E230 00 00 00 00 00 00 00 00 00 00 00 00 00 00 00 00 ................
0040E240 00 00 00 00 00 00 00 00 00 00 00 00 00 00 00 00 ................
0040E250 00 00 00 00 00 00 00 00 00 00 00 00 00 00 00 00 ................
0040E260 00 00 00 00 00 00 00 00 00 00 00 00 00 00 00 00 ................
0040E270 00 00 00 00 00 00 00 00 00 00 00 00 00 00 00 00 ................
0040E280 00 00 00 00 00 00 00 00 00 00 00 00 00 00 00 00 ................
0040E290 00 00 00 00 00 00 00 00 00 00 00 00 00 00 00 00 ................
0040E2A0 00 00 00 00 00 00 00 00 00 00 00 00 00 00 00 00 ................
0040E2B0 00 00 00 00 00 00 00 00 00 00 00 00 00 00 00 00 ................
0040E2C0 00 00 00 00 00 00 00 00 00 00 00 00 00 00 00 00 ................
0040E2D0 00 00 00 00 00 00 00 00 00 00 00 00 00 00 00 00 ................
0040E2E0 00 00 00 00 00 00 00 00 00 00 00 00 00 00 00 00 ................
0040E2F0 00 00 00 00 00 00 00 00 00 00 00 00 00 00 00 00 ................
0040E300 00 00 00 00 00 00 00 00 00 00 00 00 00 00 00 00 ................
0040E310 00 00 00 00 00 00 00 00 00 00 00 00 00 00 00 00 ................
0040E320 00 00 00 00 00 00 00 00 00 00 00 00 00 00 00 00 ................
0040E330 00 00 00 00 00 00 00 00 00 00 00 00 00 00 00 00 ................
0040E340 00 00 00 00 00 00 00 00 00 00 00 00 00 00 00 00 ................
0040E350 00 00 00 00 00 00 00 00 00 00 00 00 00 00 00 00 ................
0040E360 00 00 00 00 00 00 00 00 00 00 00 00 00 00 00 00 ................
0040E370 00 00 00 00 00 00 00 00 00 00 00 00 00 00 00 00 ................
0040E380 00 00 00 00 00 00 00 00 00 00 00 00 00 00 00 00 ................
0040E390 00 00 00 00 00 00 00 00 00 00 00 00 00 00 00 00 ................
0040E3A0 00 00 00 00 00 00 00 00 00 00 00 00 00 00 00 00 ................
0040E3B0 00 00 00 00 00 00 00 00 00 00 00 00 00 00 00 00 ................
0040E3C0 00 00 00 00 00 00 00 00 00 00 00 00 00 00 00 00 ................
0040E3D0 00 00 00 00 00 00 00 00 00 00 00 00 00 00 00 00 ................
0040E3E0 00 00 00 00 00 00 00 00 00 00 00 00 00 00 00 00 ................
0040E3F0 00 00 00 00 00 00 00 00 00 00 00 00 00 00 00 00 ................
0040E400 00 00 00 00 00 00 00 00 00 00 00 00 00 00 00 00 ................
0040E410 00 00 00 00 00 00 00 00 00 00 00 00 00 00 00 00 ................
0040E420 00 00 00 00 00 00 00 00 00 00 00 00 00 00 00 00 ................
0040E430 00 00 00 00 00 00 00 00 00 00 00 00 00 00 00 00 ................
0040E440 00 00 00 00 00 00 00 00 00 00 00 00 00 00 00 00 ................
0040E450 00 00 00 00 00 00 00 00 00 00 00 00 00 00 00 00 ................
0040E460 00 00 00 00 00 00 00 00 00 00 00 00 00 00 00 00 ................
0040E470 00 00 00 00 00 00 00 00 00 00 00 00 00 00 00 00 ................
0040E480 00 00 00 00 00 00 00 00 00 00 00 00 00 00 00 00 ................
0040E490 00 00 00 00 00 00 00 00 00 00 00 00 00 00 00 00 ................
0040E4A0 00 00 00 00 00 00 00 00 00 00 00 00 00 00 00 00 ................
0040E4B0 00 00 00 00 00 00 00 00 00 00 00 00 00 00 00 00 ................
0040E4C0 00 00 00 00 00 00 00 00 00 00 00 00 00 00 00 00 ................
0040E4D0 00 00 00 00 00 00 00 00 00 00 00 00 00 00 00 00 ................
0040E4E0 00 00 00 00 00 00 00 00 00 00 00 00 00 00 00 00 ................
0040E4F0 00 00 00 00 00 00 00 00 00 00 00 00 00 00 00 00 ................
0040E500 00 00 00 00 00 00 00 00 00 00 00 00 00 00 00 00 ................
0040E510 00 00 00 00 00 00 00 00 00 00 00 00 00 00 00 00 ................
0040E520 00 00 00 00 00 00 00 00 00 00 00 00 00 00 00 00 ................
0040E530 00 00 00 00 00 00 00 00 00 00 00 00 00 00 00 00 ................
0040E540 00 00 00 00 00 00 00 00 00 00 00 00 00 00 00 00 ................
0040E550 00 00 00 00 00 00 00 00 00 00 00 00 00 00 00 00 ................
0040E560 00 00 00 00 00 00 00 00 00 00 00 00 00 00 00 00 ................
0040E570 00 00 00 00 00 00 00 00 00 00 00 00 00 00 00 00 ................
0040E580 00 00 00 00 00 00 00 00 00 00 00 00 00 00 00 00 ................
0040E590 00 00 00 00 00 00 00 00 00 00 00 00 00 00 00 00 ................
0040E5A0 00 00 00 00 00 00 00 00 00 00 00 00 00 00 00 00 ................
0040E5B0 00 00 00 00 00 00 00 00 00 00 00 00 00 00 00 00 ................
0040E5C0 00 00 00 00 00 00 00 00 00 00 00 00 00 00 00 00 ................
0040E5D0 00 00 00 00 00 00 00 00 00 00 00 00 00 00 00 00 ................
0040E5E0 00 00 00 00 00 00 00 00 00 00 00 00 00 00 00 00 ................
0040E5F0 00 00 00 00 00 00 00 00 00 00 00 00 00 00 00 00 ................
0040E600 00 00 00 00 00 00 00 00 00 00 00 00 00 00 00 00 ................
0040E610 00 00 00 00 00 00 00 00 00 00 00 00 00 00 00 00 ................
0040E620 00 00 00 00 00 00 00 00 00 00 00 00 00 00 00 00 ................
0040E630 00 00 00 00 00 00 00 00 00 00 00 00 00 00 00 00 ................
0040E640 00 00 00 00 00 00 00 00 00 00 00 00 00 00 00 00 ................
0040E650 00 00 00 00 00 00 00 00 00 00 00 00 00 00 00 00 ................
0040E660 00 00 00 00 00 00 00 00 00 00 00 00 00 00 00 00 ................
0040E670 00 00 00 00 00 00 00 00 00 00 00 00 00 00 00 00 ................
0040E680 00 00 00 00 00 00 00 00 00 00 00 00 00 00 00 00 ................
0040E690 00 00 00 00 00 00 00 00 00 00 00 00 00 00 00 00 ................
0040E6A0 00 00 00 00 00 00 00 00 00 00 00 00 00 00 00 00 ................
0040E6B0 00 00 00 00 00 00 00 00 00 00 00 00 00 00 00 00 ................
0040E6C0 00 00 00 00 00 00 00 00 00 00 00 00 00 00 00 00 ................
0040E6D0 00 00 00 00 00 00 00 00 00 00 00 00 00 00 00 00 ................
0040E6E0 00 00 00 00 00 00 00 00 00 00 00 00 00 00 00 00 ................
0040E6F0 00 00 00 00 00 00 00 00 00 00 00 00 00 00 00 00 ................
0040E700 00 00 00 00 00 00 00 00 00 00 00 00 00 00 00 00 ................
0040E710 00 00 00 00 00 00 00 00 00 00 00 00 00 00 00 00 ................
0040E720 00 00 00 00 00 00 00 00 00 00 00 00 00 00 00 00 ................
0040E730 00 00 00 00 00 00 00 00 00 00 00 00 00 00 00 00 ................
0040E740 00 00 00 00 00 00 00 00 00 00 00 00 00 00 00 00 ................
0040E750 00 00 00 00 00 00 00 00 00 00 00 00 00 00 00 00 ................
0040E760 00 00 00 00 00 00 00 00 00 00 00 00 00 00 00 00 ................
0040E770 00 00 00 00 00 00 00 00 00 00 00 00 00 00 00 00 ................
0040E780 00 00 00 00 00 00 00 00 00 00 00 00 00 00 00 00 ................
0040E790 00 00 00 00 00 00 00 00 00 00 00 00 00 00 00 00 ................
0040E7A0 00 00 00 00 00 00 00 00 00 00 00 00 00 00 00 00 ................
0040E7B0 00 00 00 00 00 00 00 00 00 00 00 00 00 00 00 00 ................
0040E7C0 00 00 00 00 00 00 00 00 00 00 00 00 00 00 00 00 ................
0040E7D0 00 00 00 00 00 00 00 00 00 00 00 00 00 00 00 00 ................
0040E7E0 00 00 00 00 00 00 00 00 00 00 00 00 00 00 00 00 ................
0040E7F0 00 00 00 00 00 00 00 00 00 00 00 00 00 00 00 00 ................
0040E800 00 00 00 00 00 00 00 00 00 00 00 00 00 00 00 00 ................
0040E810 00 00 00 00 00 00 00 00 00 00 00 00 00 00 00 00 ................
0040E820 00 00 00 00 00 00 00 00 00 00 00 00 00 00 00 00 ................
0040E830 00 00 00 00 00 00 00 00 00 00 00 00 00 00 00 00 ................
0040E840 00 00 00 00 00 00 00 00 00 00 00 00 00 00 00 00 ................
0040E850 00 00 00 00 00 00 00 00 00 00 00 00 00 00 00 00 ................
0040E860 00 00 00 00 00 00 00 00 00 00 00 00 00 00 00 00 ................
0040E870 00 00 00 00 00 00 00 00 00 00 00 00 00 00 00 00 ................
0040E880 00 00 00 00 00 00 00 00 00 00 00 00 00 00 00 00 ................
0040E890 00 00 00 00 00 00 00 00 00 00 00 00 00 00 00 00 ................
0040E8A0 00 00 00 00 00 00 00 00 00 00 00 00 00 00 00 00 ................
0040E8B0 00 00 00 00 00 00 00 00 00 00 00 00 00 00 00 00 ................
0040E8C0 00 00 00 00 00 00 00 00 00 00 00 00 00 00 00 00 ................
0040E8D0 00 00 00 00 00 00 00 00 00 00 00 00 00 00 00 00 ................
0040E8E0 00 00 00 00 00 00 00 00 00 00 00 00 00 00 00 00 ................
0040E8F0 00 00 00 00 00 00 00 00 00 00 00 00 00 00 00 00 ................
0040E900 00 00 00 00 00 00 00 00 00 00 00 00 00 00 00 00 ................
0040E910 00 00 00 00 00 00 00 00 00 00 00 00 00 00 00 00 ................
0040E920 00 00 00 00 00 00 00 00 00 00 00 00 00 00 00 00 ................
0040E930 00 00 00 00 00 00 00 00 00 00 00 00 00 00 00 00 ................
0040E940 00 00 00 00 00 00 00 00 00 00 00 00 00 00 00 00 ................
0040E950 00 00 00 00 00 00 00 00 00 00 00 00 00 00 00 00 ................
0040E960 00 00 00 00 00 00 00 00 00 00 00 00 00 00 00 00 ................
0040E970 00 00 00 00 00 00 00 00 00 00 00 00 00 00 00 00 ................
0040E980 00 00 00 00 00 00 00 00 00 00 00 00 00 00 00 00 ................
0040E990 00 00 00 00 00 00 00 00 00 00 00 00 00 00 00 00 ................
0040E9A0 00 00 00 00 00 00 00 00 00 00 00 00 00 00 00 00 ................
0040E9B0 00 00 00 00 00 00 00 00 00 00 00 00 00 00 00 00 ................
0040E9C0 00 00 00 00 00 00 00 00 00 00 00 00 00 00 00 00 ................
0040E9D0 00 00 00 00 00 00 00 00 00 00 00 00 00 00 00 00 ................
0040E9E0 00 00 00 00 00 00 00 00 00 00 00 00 00 00 00 00 ................
0040E9F0 00 00 00 00 00 00 00 00 00 00 00 00 00 00 00 00 ................
0040EA00 00 00 00 00 00 00 00 00 00 00 00 00 00 00 00 00 ................
0040EA10 00 00 00 00 00 00 00 00 00 00 00 00 00 00 00 00 ................
0040EA20 00 00 00 00 00 00 00 00 00 00 00 00 00 00 00 00 ................
0040EA30 00 00 00 00 00 00 00 00 00 00 00 00 00 00 00 00 ................
0040EA40 00 00 00 00 00 00 00 00 00 00 00 00 00 00 00 00 ................
0040EA50 00 00 00 00 00 00 00 00 00 00 00 00 00 00 00 00 ................
0040EA60 00 00 00 00 00 00 00 00 00 00 00 00 00 00 00 00 ................
0040EA70 00 00 00 00 00 00 00 00 00 00 00 00 00 00 00 00 ................
0040EA80 00 00 00 00 00 00 00 00 00 00 00 00 00 00 00 00 ................
0040EA90 00 00 00 00 00 00 00 00 00 00 00 00 00 00 00 00 ................
0040EAA0 00 00 00 00 00 00 00 00 00 00 00 00 00 00 00 00 ................
0040EAB0 00 00 00 00 00 00 00 00 00 00 00 00 00 00 00 00 ................
0040EAC0 00 00 00 00 00 00 00 00 00 00 00 00 00 00 00 00 ................
0040EAD0 00 00 00 00 00 00 00 00 00 00 00 00 00 00 00 00 ................
0040EAE0 00 00 00 00 00 00 00 00 00 00 00 00 00 00 00 00 ................
0040EAF0 00 00 00 00 00 00 00 00 00 00 00 00 00 00 00 00 ................
0040EB00 00 00 00 00 00 00 00 00 00 00 00 00 00 00 00 00 ................
0040EB10 00 00 00 00 00 00 00 00 00 00 00 00 00 00 00 00 ................
0040EB20 00 00 00 00 00 00 00 00 00 00 00 00 00 00 00 00 ................
0040EB30 00 00 00 00 00 00 00 00 00 00 00 00 00 00 00 00 ................
0040EB40 00 00 00 00 00 00 00 00 00 00 00 00 00 00 00 00 ................
0040EB50 00 00 00 00 00 00 00 00 00 00 00 00 00 00 00 00 ................
0040EB60 00 00 00 00 00 00 00 00 00 00 00 00 00 00 00 00 ................
0040EB70 00 00 00 00 00 00 00 00 00 00 00 00 00 00 00 00 ................
0040EB80 00 00 00 00 00 00 00 00 00 00 00 00 00 00 00 00 ................
0040EB90 00 00 00 00 00 00 00 00 00 00 00 00 00 00 00 00 ................
0040EBA0 00 00 00 00 00 00 00 00 00 00 00 00 00 00 00 00 ................
0040EBB0 00 00 00 00 00 00 00 00 00 00 00 00 00 00 00 00 ................
0040EBC0 00 00 00 00 00 00 00 00 00 00 00 00 00 00 00 00 ................
0040EBD0 00 00 00 00 00 00 00 00 00 00 00 00 00 00 00 00 ................
0040EBE0 00 00 00 00 00 00 00 00 00 00 00 00 00 00 00 00 ................
0040EBF0 00 00 00 00 00 00 00 00 00 00 00 00 00 00 00 00 ................
0040EC00 00 00 00 00 00 00 00 00 00 00 00 00 00 00 00 00 ................
0040EC10 00 00 00 00 00 00 00 00 00 00 00 00 00 00 00 00 ................
0040EC20 00 00 00 00 00 00 00 00 00 00 00 00 00 00 00 00 ................
0040EC30 00 00 00 00 00 00 00 00 00 00 00 00 00 00 00 00 ................
0040EC40 00 00 00 00 00 00 00 00 00 00 00 00 00 00 00 00 ................
0040EC50 00 00 00 00 00 00 00 00 00 00 00 00 00 00 00 00 ................
0040EC60 00 00 00 00 00 00 00 00 00 00 00 00 00 00 00 00 ................
0040EC70 00 00 00 00 00 00 00 00 00 00 00 00 00 00 00 00 ................
0040EC80 00 00 00 00 00 00 00 00 00 00 00 00 00 00 00 00 ................
0040EC90 00 00 00 00 00 00 00 00 00 00 00 00 00 00 00 00 ................
0040ECA0 00 00 00 00 00 00 00 00 00 00 00 00 00 00 00 00 ................
0040ECB0 00 00 00 00 00 00 00 00 00 00 00 00 00 00 00 00 ................
0040ECC0 00 00 00 00 00 00 00 00 00 00 00 00 00 00 00 00 ................
0040ECD0 00 00 00 00 00 00 00 00 00 00 00 00 00 00 00 00 ................
0040ECE0 00 00 00 00 00 00 00 00 00 00 00 00 00 00 00 00 ................
0040ECF0 00 00 00 00 00 00 00 00 00 00 00 00 00 00 00 00 ................
0040ED00 00 00 00 00 00 00 00 00 00 00 00 00 00 00 00 00 ................
0040ED10 00 00 00 00 00 00 00 00 00 00 00 00 00 00 00 00 ................
0040ED20 00 00 00 00 00 00 00 00 00 00 00 00 00 00 00 00 ................
0040ED30 00 00 00 00 00 00 00 00 00 00 00 00 00 00 00 00 ................
0040ED40 00 00 00 00 00 00 00 00 00 00 00 00 00 00 00 00 ................
0040ED50 00 00 00 00 00 00 00 00 00 00 00 00 00 00 00 00 ................
0040ED60 00 00 00 00 00 00 00 00 00 00 00 00 00 00 00 00 ................
0040ED70 00 00 00 00 00 00 00 00 00 00 00 00 00 00 00 00 ................
0040ED80 00 00 00 00 00 00 00 00 00 00 00 00 00 00 00 00 ................
0040ED90 00 00 00 00 00 00 00 00 00 00 00 00 00 00 00 00 ................
0040EDA0 00 00 00 00 00 00 00 00 00 00 00 00 00 00 00 00 ................
0040EDB0 00 00 00 00 00 00 00 00 00 00 00 00 00 00 00 00 ................
0040EDC0 00 00 00 00 00 00 00 00 00 00 00 00 00 00 00 00 ................
0040EDD0 00 00 00 00 00 00 00 00 00 00 00 00 00 00 00 00 ................
0040EDE0 00 00 00 00 00 00 00 00 00 00 00 00 00 00 00 00 ................
0040EDF0 00 00 00 00 00 00 00 00 00 00 00 00 00 00 00 00 ................
0040EE00 00 00 00 00 00 00 00 00 00 00 00 00 00 00 00 00 ................
0040EE10 00 00 00 00 00 00 00 00 00 00 00 00 00 00 00 00 ................
0040EE20 00 00 00 00 00 00 00 00 00 00 00 00 00 00 00 00 ................
0040EE30 00 00 00 00 00 00 00 00 00 00 00 00 00 00 00 00 ................
0040EE40 00 00 00 00 00 00 00 00 00 00 00 00 00 00 00 00 ................
0040EE50 00 00 00 00 00 00 00 00 00 00 00 00 00 00 00 00 ................
0040EE60 00 00 00 00 00 00 00 00 00 00 00 00 00 00 00 00 ................
0040EE70 00 00 00 00 00 00 00 00 00 00 00 00 00 00 00 00 ................
0040EE80 00 00 00 00 00 00 00 00 00 00 00 00 00 00 00 00 ................
0040EE90 00 00 00 00 00 00 00 00 00 00 00 00 00 00 00 00 ................
0040EEA0 00 00 00 00 00 00 00 00 00 00 00 00 00 00 00 00 ................
0040EEB0 00 00 00 00 00 00 00 00 00 00 00 00 00 00 00 00 ................
0040EEC0 00 00 00 00 00 00 00 00 00 00 00 00 00 00 00 00 ................
0040EED0 00 00 00 00 00 00 00 00 00 00 00 00 00 00 00 00 ................
0040EEE0 00 00 00 00 00 00 00 00 00 00 00 00 00 00 00 00 ................
0040EEF0 00 00 00 00 00 00 00 00 00 00 00 00 00 00 00 00 ................
0040EF00 00 00 00 00 00 00 00 00 00 00 00 00 00 00 00 00 ................
0040EF10 00 00 00 00 00 00 00 00 00 00 00 00 00 00 00 00 ................
0040EF20 00 00 00 00 00 00 00 00 00 00 00 00 00 00 00 00 ................
0040EF30 00 00 00 00 00 00 00 00 00 00 00 00 00 00 00 00 ................
0040EF40 00 00 00 00 00 00 00 00 00 00 00 00 00 00 00 00 ................
0040EF50 00 00 00 00 00 00 00 00 00 00 00 00 00 00 00 00 ................
0040EF60 00 00 00 00 00 00 00 00 00 00 00 00 00 00 00 00 ................
0040EF70 00 00 00 00 00 00 00 00 00 00 00 00 00 00 00 00 ................
0040EF80 00 00 00 00 00 00 00 00 00 00 00 00 00 00 00 00 ................
0040EF90 00 00 00 00 00 00 00 00 00 00 00 00 00 00 00 00 ................
0040EFA0 00 00 00 00 00 00 00 00 00 00 00 00 00 00 00 00 ................
0040EFB0 00 00 00 00 00 00 00 00 00 00 00 00 00 00 00 00 ................
0040EFC0 00 00 00 00 00 00 00 00 00 00 00 00 00 00 00 00 ................
0040EFD0 00 00 00 00 00 00 00 00 00 00 00 00 00 00 00 00 ................
0040EFE0 00 00 00 00 00 00 00 00 00 00 00 00 00 00 00 00 ................
0040EFF0 00 00 00 00 00 00 00 00 00 00 00 00 00 00 00 00 ................
0040F000 18 F3 00 00 2E F3 00 00 3A F3 00 00 48 F3 00 00 ........:...H...
0040F010 5E F3 00 00 72 F3 00 00 82 F3 00 00 92 F3 00 00 ^...r...........
0040F020 A4 F3 00 00 B6 F3 00 00 C8 F3 00 00 D8 F3 00 00 ................
0040F030 E6 F3 00 00 02 F4 00 00 10 F4 00 00 26 F4 00 00 ............&...
0040F040 32 F4 00 00 40 F4 00 00 52 F4 00 00 60 F4 00 00 2...@...R...`...
0040F050 6C F4 00 00 7A F4 00 00 86 F4 00 00 92 F4 00 00 l...z...........
0040F060 A0 F4 00 00 A8 F4 00 00 B8 F4 00 00 CE F4 00 00 ................
0040F070 DC F4 00 00 EE F4 00 00 04 F5 00 00 0C F5 00 00 ................
0040F080 1E F5 00 00 2E F5 00 00 3E F5 00 00 54 F5 00 00 ........>...T...
0040F090 62 F5 00 00 78 F5 00 00 84 F5 00 00 90 F5 00 00 b...x...........
0040F0A0 AE F5 00 00 BC F5 00 00 CC F5 00 00 DC F5 00 00 ................
0040F0B0 EA F5 00 00 FE F5 00 00 0A F6 00 00 12 F6 00 00 ................
0040F0C0 00 00 00 00 36 F6 00 00 42 F6 00 00 54 F6 00 00 ....6...B...T...
0040F0D0 62 F6 00 00 70 F6 00 00 7C F6 00 00 8C F6 00 00 b...p...|.......
0040F0E0 9A F6 00 00 A8 F6 00 00 BA F6 00 00 C8 F6 00 00 ................
0040F0F0 D8 F6 00 00 E8 F6 00 00 F4 F6 00 00 04 F7 00 00 ................
0040F100 12 F7 00 00 1A F7 00 00 2C F7 00 00 3E F7 00 00 ........,...>...
0040F110 4A F7 00 00 5A F7 00 00 66 F7 00 00 7A F7 00 00 J...Z...f...z...
0040F120 86 F7 00 00 92 F7 00 00 9E F7 00 00 A8 F7 00 00 ................
0040F130 B6 F7 00 00 C6 F7 00 00 D4 F7 00 00 E0 F7 00 00 ................
0040F140 EA F7 00 00 F8 F7 00 00 06 F8 00 00 14 F8 00 00 ................
0040F150 26 F8 00 00 38 F8 00 00 4A F8 00 00 5A F8 00 00 &...8...J...Z...
0040F160 70 F8 00 00 7E F8 00 00 00 00 00 00 00 00 00 00 p...~...........
0040F170 AC F1 00 00 00 00 00 00 00 00 00 00 28 F6 00 00 ............(...
0040F180 00 F0 00 00 70 F2 00 00 00 00 00 00 00 00 00 00 ....p...........
0040F190 92 F8 00 00 C4 F0 00 00 00 00 00 00 00 00 00 00 ................
0040F1A0 00 00 00 00 00 00 00 00 00 00 00 00 18 F3 00 00 ................
0040F1B0 2E F3 00 00 3A F3 00 00 48 F3 00 00 5E F3 00 00 ....:...H...^...
0040F1C0 72 F3 00 00 82 F3 00 00 92 F3 00 00 A4 F3 00 00 r...............
0040F1D0 B6 F3 00 00 C8 F3 00 00 D8 F3 00 00 E6 F3 00 00 ................
0040F1E0 02 F4 00 00 10 F4 00 00 26 F4 00 00 32 F4 00 00 ........&...2...
0040F1F0 40 F4 00 00 52 F4 00 00 60 F4 00 00 6C F4 00 00 @...R...`...l...
0040F200 7A F4 00 00 86 F4 00 00 92 F4 00 00 A0 F4 00 00 z...............
0040F210 A8 F4 00 00 B8 F4 00 00 CE F4 00 00 DC F4 00 00 ................
0040F220 EE F4 00 00 04 F5 00 00 0C F5 00 00 1E F5 00 00 ................
0040F230 2E F5 00 00 3E F5 00 00 54 F5 00 00 62 F5 00 00 ....>...T...b...
0040F240 78 F5 00 00 84 F5 00 00 90 F5 00 00 AE F5 00 00 x...............
0040F250 BC F5 00 00 CC F5 00 00 DC F5 00 00 EA F5 00 00 ................
0040F260 FE F5 00 00 0A F6 00 00 12 F6 00 00 00 00 00 00 ................
0040F270 36 F6 00 00 42 F6 00 00 54 F6 00 00 62 F6 00 00 6...B...T...b...
0040F280 70 F6 00 00 7C F6 00 00 8C F6 00 00 9A F6 00 00 p...|...........
0040F290 A8 F6 00 00 BA F6 00 00 C8 F6 00 00 D8 F6 00 00 ................
0040F2A0 E8 F6 00 00 F4 F6 00 00 04 F7 00 00 12 F7 00 00 ................
0040F2B0 1A F7 00 00 2C F7 00 00 3E F7 00 00 4A F7 00 00 ....,...>...J...
0040F2C0 5A F7 00 00 66 F7 00 00 7A F7 00 00 86 F7 00 00 Z...f...z.......
0040F2D0 92 F7 00 00 9E F7 00 00 A8 F7 00 00 B6 F7 00 00 ................
0040F2E0 C6 F7 00 00 D4 F7 00 00 E0 F7 00 00 EA F7 00 00 ................
0040F2F0 F8 F7 00 00 06 F8 00 00 14 F8 00 00 26 F8 00 00 ............&...
0040F300 38 F8 00 00 4A F8 00 00 5A F8 00 00 70 F8 00 00 8...J...Z...p...
0040F310 7E F8 00 00 00 00 00 00 04 00 57 61 69 74 46 6F ~.........WaitFo
0040F320 72 53 69 6E 67 6C 65 4F 62 6A 65 63 74 00 07 00 rSingleObject...
0040F330 6C 73 74 72 63 6D 70 69 57 00 0A 00 4C 6F 63 61 lstrcmpiW...Loca
0040F340 6C 41 6C 6C 6F 63 00 00 0B 00 4D 75 6C 74 69 42 lAlloc....MultiB
0040F350 79 74 65 54 6F 57 69 64 65 43 68 61 72 00 0F 00 yteToWideChar...
0040F360 47 65 74 4D 6F 64 75 6C 65 48 61 6E 64 6C 65 41 GetModuleHandleA
0040F370 00 00 10 00 56 69 72 74 75 61 6C 41 6C 6C 6F 63 ....VirtualAlloc
0040F380 00 00 15 00 47 65 74 4C 61 73 74 45 72 72 6F 72 ....GetLastError
0040F390 00 00 1A 00 47 65 74 43 6F 6D 6D 61 6E 64 4C 69 ....GetCommandLi
0040F3A0 6E 65 41 00 1F 00 47 65 74 53 74 61 72 74 75 70 neA...GetStartup
0040F3B0 49 6E 66 6F 41 00 22 00 47 65 74 43 6F 6D 6D 61 InfoA.".GetComma
0040F3C0 6E 64 4C 69 6E 65 41 00 27 00 56 69 72 74 75 61 ndLineA.'.Virtua
0040F3D0 6C 41 6C 6C 6F 63 00 00 28 00 48 65 61 70 52 65 lAlloc..(.HeapRe
0040F3E0 41 6C 6C 6F 63 00 2C 00 49 6E 69 74 69 61 6C 69 Alloc.,.Initiali
0040F3F0 7A 65 43 72 69 74 69 63 61 6C 53 65 63 74 69 6F zeCriticalSectio
0040F400 6E 00 2E 00 4C 6F 63 61 6C 41 6C 6C 6F 63 00 00 n...LocalAlloc..
0040F410 2F 00 4D 75 6C 74 69 42 79 74 65 54 6F 57 69 64 /.MultiByteToWid
0040F420 65 43 68 61 72 00 34 00 52 65 61 64 46 69 6C 65 eChar.4.ReadFile
0040F430 00 00 3A 00 46 72 65 65 4C 69 62 72 61 72 79 00 ..:.FreeLibrary.
0040F440 3B 00 53 65 74 46 69 6C 65 50 6F 69 6E 74 65 72 ;.SetFilePointer
0040F450 00 00 3D 00 46 72 65 65 4C 69 62 72 61 72 79 00 ..=.FreeLibrary.
0040F460 40 00 48 65 61 70 46 72 65 65 00 00 43 00 48 65 @.HeapFree..C.He
0040F470 61 70 44 65 73 74 72 6F 79 00 47 00 48 65 61 70 apDestroy.G.Heap
0040F480 41 6C 6C 6F 63 00 49 00 53 65 74 45 76 65 6E 74 Alloc.I.SetEvent
0040F490 00 00 4A 00 45 78 69 74 50 72 6F 63 65 73 73 00 ..J.ExitProcess.
0040F4A0 4F 00 53 6C 65 65 70 00 50 00 47 65 74 4C 61 73 O.Sleep.P.GetLas
0040F4B0 74 45 72 72 6F 72 00 00 52 00 47 65 74 43 75 72 tError..R.GetCur
0040F4C0 72 65 6E 74 54 68 72 65 61 64 49 64 00 00 58 00 rentThreadId..X.
0040F4D0 45 78 69 74 50 72 6F 63 65 73 73 00 5E 00 47 65 ExitProcess.^.Ge
0040F4E0 74 43 6F 6D 6D 61 6E 64 4C 69 6E 65 41 00 5F 00 tCommandLineA._.
0040F4F0 57 61 69 74 46 6F 72 53 69 6E 67 6C 65 4F 62 6A WaitForSingleObj
0040F500 65 63 74 00 64 00 53 6C 65 65 70 00 69 00 47 65 ect.d.Sleep.i.Ge
0040F510 74 50 72 6F 63 41 64 64 72 65 73 73 00 00 6D 00 tProcAddress..m.
0040F520 56 69 72 74 75 61 6C 41 6C 6C 6F 63 00 00 73 00 VirtualAlloc..s.
0040F530 4C 6F 61 64 4C 69 62 72 61 72 79 57 00 00 79 00 LoadLibraryW..y.
0040F540 57 69 64 65 43 68 61 72 54 6F 4D 75 6C 74 69 42 WideCharToMultiB
0040F550 79 74 65 00 7B 00 48 65 61 70 44 65 73 74 72 6F yte.{.HeapDestro
0040F560 79 00 7F 00 47 65 74 4D 6F 64 75 6C 65 46 69 6C y...GetModuleFil
0040F570 65 4E 61 6D 65 41 00 00 83 00 6C 73 74 72 6C 65 eNameA....lstrle
0040F580 6E 57 00 00 85 00 48 65 61 70 41 6C 6C 6F 63 00 nW....HeapAlloc.
0040F590 89 00 53 65 74 55 6E 68 61 6E 64 6C 65 64 45 78 ..SetUnhandledEx
0040F5A0 63 65 70 74 69 6F 6E 46 69 6C 74 65 72 00 8A 00 ceptionFilter...
0040F5B0 4C 6F 63 61 6C 41 6C 6C 6F 63 00 00 8E 00 47 65 LocalAlloc....Ge
0040F5C0 74 54 69 63 6B 43 6F 75 6E 74 00 00 92 00 47 65 tTickCount....Ge
0040F5D0 74 56 65 72 73 69 6F 6E 45 78 41 00 97 00 45 78 tVersionExA...Ex
0040F5E0 69 74 50 72 6F 63 65 73 73 00 99 00 47 65 74 4D itProcess...GetM
0040F5F0 6F 64 75 6C 65 48 61 6E 64 6C 65 57 00 00 9C 00 oduleHandleW....
0040F600 53 65 74 45 76 65 6E 74 00 00 9D 00 53 6C 65 65 SetEvent....Slee
0040F610 70 00 A1 00 57 69 64 65 43 68 61 72 54 6F 4D 75 p...WideCharToMu
0040F620 6C 74 69 42 79 74 65 00 4B 45 52 4E 45 4C 33 32 ltiByte.KERNEL32
0040F630 2E 44 4C 4C 00 00 08 00 45 6E 64 44 69 61 6C 6F .DLL....EndDialo
0040F640 67 00 0E 00 47 65 74 57 69 6E 64 6F 77 4C 6F 6E g...GetWindowLon
0040F650 67 57 00 00 12 00 47 65 74 4B 65 79 53 74 61 74 gW....GetKeyStat
0040F660 65 00 17 00 42 65 67 69 6E 50 61 69 6E 74 00 00 e...BeginPaint..
0040F670 1A 00 4C 6F 61 64 49 63 6F 6E 57 00 1D 00 47 65 ..LoadIconW...Ge
0040F680 74 43 75 72 73 6F 72 50 6F 73 00 00 23 00 47 65 tCursorPos..#.Ge
0040F690 74 4D 65 73 73 61 67 65 57 00 29 00 46 69 6E 64 tMessageW.).Find
0040F6A0 57 69 6E 64 6F 77 57 00 2E 00 47 65 74 44 6C 67 WindowW...GetDlg
0040F6B0 49 74 65 6D 54 65 78 74 57 00 33 00 4C 6F 61 64 ItemTextW.3.Load
0040F6C0 49 6D 61 67 65 57 00 00 36 00 47 65 74 53 79 73 ImageW..6.GetSys
0040F6D0 74 65 6D 4D 65 6E 75 00 38 00 47 65 74 53 79 73 temMenu.8.GetSys
0040F6E0 74 65 6D 4D 65 6E 75 00 3E 00 52 65 6C 65 61 73 temMenu.>.Releas
0040F6F0 65 44 43 00 42 00 53 65 6E 64 4D 65 73 73 61 67 eDC.B.SendMessag
0040F700 65 41 00 00 44 00 4F 66 66 73 65 74 52 65 63 74 eA..D.OffsetRect
0040F710 00 00 46 00 47 65 74 44 43 00 47 00 52 65 6C 65 ..F.GetDC.G.Rele
0040F720 61 73 65 43 61 70 74 75 72 65 00 00 4A 00 52 65 aseCapture..J.Re
0040F730 6C 65 61 73 65 43 61 70 74 75 72 65 00 00 4D 00 leaseCapture..M.
0040F740 4B 69 6C 6C 54 69 6D 65 72 00 52 00 47 65 74 53 KillTimer.R.GetS
0040F750 79 73 74 65 6D 4D 65 6E 75 00 54 00 53 65 74 43 ystemMenu.T.SetC
0040F760 75 72 73 6F 72 00 58 00 52 65 67 69 73 74 65 72 ursor.X.Register
0040F770 43 6C 61 73 73 45 78 57 00 00 5B 00 57 69 6E 48 ClassExW..[.WinH
0040F780 65 6C 70 57 00 00 60 00 47 65 74 50 61 72 65 6E elpW..`.GetParen
0040F790 74 00 63 00 49 73 57 69 6E 64 6F 77 00 00 67 00 t.c.IsWindow..g.
0040F7A0 53 65 74 52 65 63 74 00 6C 00 4C 6F 61 64 53 74 SetRect.l.LoadSt
0040F7B0 72 69 6E 67 57 00 71 00 47 65 74 43 6C 69 65 6E ringW.q.GetClien
0040F7C0 74 52 65 63 74 00 74 00 4F 66 66 73 65 74 52 65 tRect.t.OffsetRe
0040F7D0 63 74 00 00 77 00 4C 6F 61 64 49 63 6F 6E 57 00 ct..w.LoadIconW.
0040F7E0 7C 00 53 65 74 52 65 63 74 00 7D 00 4C 6F 61 64 |.SetRect.}.Load
0040F7F0 53 74 72 69 6E 67 41 00 7F 00 42 65 67 69 6E 50 StringA...BeginP
0040F800 61 69 6E 74 00 00 84 00 47 65 74 53 75 62 4D 65 aint....GetSubMe
0040F810 6E 75 00 00 86 00 43 68 65 63 6B 44 6C 67 42 75 nu....CheckDlgBu
0040F820 74 74 6F 6E 00 00 87 00 53 63 72 65 65 6E 54 6F tton....ScreenTo
0040F830 43 6C 69 65 6E 74 00 00 88 00 45 6E 61 62 6C 65 Client....Enable
0040F840 4D 65 6E 75 49 74 65 6D 00 00 8D 00 50 6F 73 74 MenuItem....Post
0040F850 4D 65 73 73 61 67 65 57 00 00 8E 00 43 72 65 61 MessageW....Crea
0040F860 74 65 44 69 61 6C 6F 67 50 61 72 61 6D 57 00 00 teDialogParamW..
0040F870 92 00 53 68 6F 77 57 69 6E 64 6F 77 00 00 94 00 ..ShowWindow....
0040F880 54 72 61 6E 73 6C 61 74 65 4D 65 73 73 61 67 65 TranslateMessage
0040F890 00 00 55 53 45 52 33 32 2E 44 4C 4C 00 00 00 00 ..USER32.DLL....
0040F8A0 00 00 00 00 00 00 00 00 00 00 00 00 00 00 00 00 ................
0040F8B0 00 00 00 00 00 00 00 00 00 00 00 00 00 00 00 00 ................
0040F8C0 00 00 00 00 00 00 00 00 00 00 00 00 00 00 00 00 ................
0040F8D0 00 00 00 00 00 00 00 00 00 00 00 00 00 00 00 00 ................
0040F8E0 00 00 00 00 00 00 00 00 00 00 00 00 00 00 00 00 ................
0040F8F0 00 00 00 00 00 00 00 00 00 00 00 00 00 00 00 00 ................
0040F900 00 00 00 00 00 00 00 00 00 00 00 00 00 00 00 00 ................
0040F910 00 00 00 00 00 00 00 00 00 00 00 00 00 00 00 00 ................
0040F920 00 00 00 00 00 00 00 00 00 00 00 00 00 00 00 00 ................
0040F930 00 00 00 00 00 00 00 00 00 00 00 00 00 00 00 00 ................
0040F940 00 00 00 00 00 00 00 00 00 00 00 00 00 00 00 00 ................
0040F950 00 00 00 00 00 00 00 00 00 00 00 00 00 00 00 00 ................
0040F960 00 00 00 00 00 00 00 00 00 00 00 00 00 00 00 00 ................
0040F970 00 00 00 00 00 00 00 00 00 00 00 00 00 00 00 00 ................
0040F980 00 00 00 00 00 00 00 00 00 00 00 00 00 00 00 00 ................
0040F990 00 00 00 00 00 00 00 00 00 00 00 00 00 00 00 00 ................
0040F9A0 00 00 00 00 00 00 00 00 00 00 00 00 00 00 00 00 ................
0040F9B0 00 00 00 00 00 00 00 00 00 00 00 00 00 00 00 00 ................
0040F9C0 00 00 00 00 00 00 00 00 00 00 00 00 00 00 00 00 ................
0040F9D0 00 00 00 00 00 00 00 00 00 00 00 00 00 00 00 00 ................
0040F9E0 00 00 00 00 00 00 00 00 00 00 00 00 00 00 00 00 ................
0040F9F0 00 00 00 00 00 00 00 00 00 00 00 00 00 00 00 00 ................
0040FA00 00 00 00 00 00 00 00 00 00 00 00 00 00 00 00 00 ................
0040FA10 00 00 00 00 00 00 00 00 00 00 00 00 00 00 00 00 ................
0040FA20 00 00 00 00 00 00 00 00 00 00 00 00 00 00 00 00 ................
0040FA30 00 00 00 00 00 00 00 00 00 00 00 00 00 00 00 00 ................
0040FA40 00 00 00 00 00 00 00 00 00 00 00 00 00 00 00 00 ................
0040FA50 00 00 00 00 00 00 00 00 00 00 00 00 00 00 00 00 ................
0040FA60 00 00 00 00 00 00 00 00 00 00 00 00 00 00 00 00 ................
0040FA70 00 00 00 00 00 00 00 00 00 00 00 00 00 00 00 00 ................
0040FA80 00 00 00 00 00 00 00 00 00 00 00 00 00 00 00 00 ................
0040FA90 00 00 00 00 00 00 00 00 00 00 00 00 00 00 00 00 ................
0040FAA0 00 00 00 00 00 00 00 00 00 00 00 00 00 00 00 00 ................
0040FAB0 00 00 00 00 00 00 00 00 00 00 00 00 00 00 00 00 ................
0040FAC0 00 00 00 00 00 00 00 00 00 00 00 00 00 00 00 00 ................
0040FAD0 00 00 00 00 00 00 00 00 00 00 00 00 00 00 00 00 ................
0040FAE0 00 00 00 00 00 00 00 00 00 00 00 00 00 00 00 00 ................
0040FAF0 00 00 00 00 00 00 00 00 00 00 00 00 00 00 00 00 ................
0040FB00 00 00 00 00 00 00 00 00 00 00 00 00 00 00 00 00 ................
0040FB10 00 00 00 00 00 00 00 00 00 00 00 00 00 00 00 00 ................
0040FB20 00 00 00 00 00 00 00 00 00 00 00 00 00 00 00 00 ................
0040FB30 00 00 00 00 00 00 00 00 00 00 00 00 00 00 00 00 ................
0040FB40 00 00 00 00 00 00 00 00 00 00 00 00 00 00 00 00 ................
0040FB50 00 00 00 00 00 00 00 00 00 00 00 00 00 00 00 00 ................
0040FB60 00 00 00 00 00 00 00 00 00 00 00 00 00 00 00 00 ................
0040FB70 00 00 00 00 00 00 00 00 00 00 00 00 00 00 00 00 ................
0040FB80 00 00 00 00 00 00 00 00 00 00 00 00 00 00 00 00 ................
0040FB90 00 00 00 00 00 00 00 00 00 00 00 00 00 00 00 00 ................
0040FBA0 00 00 00 00 00 00 00 00 00 00 00 00 00 00 00 00 ................
0040FBB0 00 00 00 00 00 00 00 00 00 00 00 00 00 00 00 00 ................
0040FBC0 00 00 00 00 00 00 00 00 00 00 00 00 00 00 00 00 ................
0040FBD0 00 00 00 00 00 00 00 00 00 00 00 00 00 00 00 00 ................
0040FBE0 00 00 00 00 00 00 00 00 00 00 00 00 00 00 00 00 ................
0040FBF0 00 00 00 00 00 00 00 00 00 00 00 00 00 00 00 00 ................
0040FC00 00 00 00 00 00 00 00 00 00 00 00 00 00 00 00 00 ................
0040FC10 00 00 00 00 00 00 00 00 00 00 00 00 00 00 00 00 ................
0040FC20 00 00 00 00 00 00 00 00 00 00 00 00 00 00 00 00 ................
0040FC30 00 00 00 00 00 00 00 00 00 00 00 00 00 00 00 00 ................
0040FC40 00 00 00 00 00 00 00 00 00 00 00 00 00 00 00 00 ................
0040FC50 00 00 00 00 00 00 00 00 00 00 00 00 00 00 00 00 ................
0040FC60 00 00 00 00 00 00 00 00 00 00 00 00 00 00 00 00 ................
0040FC70 00 00 00 00 00 00 00 00 00 00 00 00 00 00 00 00 ................
0040FC80 00 00 00 00 00 00 00 00 00 00 00 00 00 00 00 00 ................
0040FC90 00 00 00 00 00 00 00 00 00 00 00 00 00 00 00 00 ................
0040FCA0 00 00 00 00 00 00 00 00 00 00 00 00 00 00 00 00 ................
0040FCB0 00 00 00 00 00 00 00 00 00 00 00 00 00 00 00 00 ................
0040FCC0 00 00 00 00 00 00 00 00 00 00 00 00 00 00 00 00 ................
0040FCD0 00 00 00 00 00 00 00 00 00 00 00 00 00 00 00 00 ................
0040FCE0 00 00 00 00 00 00 00 00 00 00 00 00 00 00 00 00 ................
0040FCF0 00 00 00 00 00 00 00 00 00 00 00 00 00 00 00 00 ................
0040FD00 00 00 00 00 00 00 00 00 00 00 00 00 00 00 00 00 ................
0040FD10 00 00 00 00 00 00 00 00 00 00 00 00 00 00 00 00 ................
0040FD20 00 00 00 00 00 00 00 00 00 00 00 00 00 00 00 00 ................
0040FD30 00 00 00 00 00 00 00 00 00 00 00 00 00 00 00 00 ................
0040FD40 00 00 00 00 00 00 00 00 00 00 00 00 00 00 00 00 ................
0040FD50 00 00 00 00 00 00 00 00 00 00 00 00 00 00 00 00 ................
0040FD60 00 00 00 00 00 00 00 00 00 00 00 00 00 00 00 00 ................
0040FD70 00 00 00 00 00 00 00 00 00 00 00 00 00 00 00 00 ................
0040FD80 00 00 00 00 00 00 00 00 00 00 00 00 00 00 00 00 ................
0040FD90 00 00 00 00 00 00 00 00 00 00 00 00 00 00 00 00 ................
0040FDA0 00 00 00 00 00 00 00 00 00 00 00 00 00 00 00 00 ................
0040FDB0 00 00 00 00 00 00 00 00 00 00 00 00 00 00 00 00 ................
0040FDC0 00 00 00 00 00 00 00 00 00 00 00 00 00 00 00 00 ................
0040FDD0 00 00 00 00 00 00 00 00 00 00 00 00 00 00 00 00 ................
0040FDE0 00 00 00 00 00 00 00 00 00 00 00 00 00 00 00 00 ................
0040FDF0 00 00 00 00 00 00 00 00 00 00 00 00 00 00 00 00 ................
0040FE00 00 00 00 00 00 00 00 00 00 00 00 00 00 00 00 00 ................
0040FE10 00 00 00 00 00 00 00 00 00 00 00 00 00 00 00 00 ................
0040FE20 00 00 00 00 00 00 00 00 00 00 00 00 00 00 00 00 ................
0040FE30 00 00 00 00 00 00 00 00 00 00 00 00 00 00 00 00 ................
0040FE40 00 00 00 00 00 00 00 00 00 00 00 00 00 00 00 00 ................
0040FE50 00 00 00 00 00 00 00 00 00 00 00 00 00 00 00 00 ................
0040FE60 00 00 00 00 00 00 00 00 00 00 00 00 00 00 00 00 ................
0040FE70 00 00 00 00 00 00 00 00 00 00 00 00 00 00 00 00 ................
0040FE80 00 00 00 00 00 00 00 00 00 00 00 00 00 00 00 00 ................
0040FE90 00 00 00 00 00 00 00 00 00 00 00 00 00 00 00 00 ................
0040FEA0 00 00 00 00 00 00 00 00 00 00 00 00 00 00 00 00 ................
0040FEB0 00 00 00 00 00 00 00 00 00 00 00 00 00 00 00 00 ................
0040FEC0 00 00 00 00 00 00 00 00 00 00 00 00 00 00 00 00 ................
0040FED0 00 00 00 00 00 00 00 00 00 00 00 00 00 00 00 00 ................
0040FEE0 00 00 00 00 00 00 00 00 00 00 00 00 00 00 00 00 ................
0040FEF0 00 00 00 00 00 00 00 00 00 00 00 00 00 00 00 00 ................
0040FF00 00 00 00 00 00 00 00 00 00 00 00 00 00 00 00 00 ................
0040FF10 00 00 00 00 00 00 00 00 00 00 00 00 00 00 00 00 ................
0040FF20 00 00 00 00 00 00 00 00 00 00 00 00 00 00 00 00 ................
0040FF30 00 00 00 00 00 00 00 00 00 00 00 00 00 00 00 00 ................
0040FF40 00 00 00 00 00 00 00 00 00 00 00 00 00 00 00 00 ................
0040FF50 00 00 00 00 00 00 00 00 00 00 00 00 00 00 00 00 ................
0040FF60 00 00 00 00 00 00 00 00 00 00 00 00 00 00 00 00 ................
0040FF70 00 00 00 00 00 00 00 00 00 00 00 00 00 00 00 00 ................
0040FF80 00 00 00 00 00 00 00 00 00 00 00 00 00 00 00 00 ................
0040FF90 00 00 00 00 00 00 00 00 00 00 00 00 00 00 00 00 ................
0040FFA0 00 00 00 00 00 00 00 00 00 00 00 00 00 00 00 00 ................
0040FFB0 00 00 00 00 00 00 00 00 00 00 00 00 00 00 00 00 ................
0040FFC0 00 00 00 00 00 00 00 00 00 00 00 00 00 00 00 00 ................
0040FFD0 00 00 00 00 00 00 00 00 00 00 00 00 00 00 00 00 ................
0040FFE0 00 00 00 00 00 00 00 00 00 00 00 00 00 00 00 00 ................
0040FFF0 00 00 00 00 00 00 00 00 00 00 00 00 00 00 00 00 ................
00410000 00 00 00 00 00 00 00 00 00 00 00 00 00 00 03 00 ................
00410010 03 00 00 00 28 00 00 80 0E 00 00 00 40 00 00 80 ....(.......@...
00410020 10 00 00 00 58 00 00 80 00 00 00 00 00 00 00 00 ....X...........
00410030 00 00 00 00 00 00 01 00 01 00 00 00 70 00 00 80 ............p...
00410040 00 00 00 00 00 00 00 00 00 00 00 00 00 00 01 00 ................
00410050 87 7B 00 00 88 00 00 80 00 00 00 00 00 00 00 00 .{..............
00410060 00 00 00 00 00 00 01 00 71 44 00 00 A0 00 00 80 ........qD......
00410070 00 00 00 00 00 00 00 00 00 00 00 00 00 00 01 00 ................
00410080 19 04 00 00 B8 00 00 00 00 00 00 00 00 00 00 00 ................
00410090 00 00 00 00 00 00 01 00 19 04 00 00 C8 00 00 00 ................
004100A0 00 00 00 00 00 00 00 00 00 00 00 00 00 00 01 00 ................
004100B0 19 04 00 00 D8 00 00 00 E8 00 01 00 A8 08 00 00 ................
004100C0 00 00 00 00 00 00 00 00 90 09 01 00 14 00 00 00 ................
004100D0 00 00 00 00 00 00 00 00 A4 09 01 00 F4 02 00 00 ................
004100E0 00 00 00 00 00 00 00 00 28 00 00 00 20 00 00 00 ........(... ...
004100F0 40 00 00 00 01 00 08 00 00 00 00 00 00 04 00 00 @...............
00410100 00 00 00 00 00 00 00 00 00 00 00 00 00 00 00 00 ................
00410110 00 00 00 00 00 00 80 00 00 80 00 00 00 80 80 00 ................
00410120 80 00 00 00 80 00 80 00 80 80 00 00 C0 C0 C0 00 ................
00410130 C0 DC C0 00 F0 CA A6 00 00 20 40 00 00 20 60 00 ......... @.. `.
00410140 00 20 80 00 00 20 A0 00 00 20 C0 00 00 20 E0 00 . ... ... ... ..
00410150 00 40 00 00 00 40 20 00 00 40 40 00 00 40 60 00 .@...@ ..@@..@`.
00410160 00 40 80 00 00 40 A0 00 00 40 C0 00 00 40 E0 00 .@...@...@...@..
00410170 00 60 00 00 00 60 20 00 00 60 40 00 00 60 60 00 .`...` ..`@..``.
00410180 00 60 80 00 00 60 A0 00 00 60 C0 00 00 60 E0 00 .`...`...`...`..
00410190 00 80 00 00 00 80 20 00 00 80 40 00 00 80 60 00 ...... ...@...`.
004101A0 00 80 80 00 00 80 A0 00 00 80 C0 00 00 80 E0 00 ................
004101B0 00 A0 00 00 00 A0 20 00 00 A0 40 00 00 A0 60 00 ...... ...@...`.
004101C0 00 A0 80 00 00 A0 A0 00 00 A0 C0 00 00 A0 E0 00 ................
004101D0 00 C0 00 00 00 C0 20 00 00 C0 40 00 00 C0 60 00 ...... ...@...`.
004101E0 00 C0 80 00 00 C0 A0 00 00 C0 C0 00 00 C0 E0 00 ................
004101F0 00 E0 00 00 00 E0 20 00 00 E0 40 00 00 E0 60 00 ...... ...@...`.
00410200 00 E0 80 00 00 E0 A0 00 00 E0 C0 00 00 E0 E0 00 ................
00410210 40 00 00 00 40 00 20 00 40 00 40 00 40 00 60 00 @...@. .@.@.@.`.
00410220 40 00 80 00 40 00 A0 00 40 00 C0 00 40 00 E0 00 @...@...@...@...
00410230 40 20 00 00 40 20 20 00 40 20 40 00 40 20 60 00 @ ..@  .@ @.@ `.
00410240 40 20 80 00 40 20 A0 00 40 20 C0 00 40 20 E0 00 @ ..@ ..@ ..@ ..
00410250 40 40 00 00 40 40 20 00 40 40 40 00 40 40 60 00 @@..@@ .@@@.@@`.
00410260 40 40 80 00 40 40 A0 00 40 40 C0 00 40 40 E0 00 @@..@@..@@..@@..
00410270 40 60 00 00 40 60 20 00 40 60 40 00 40 60 60 00 @`..@` .@`@.@``.
00410280 40 60 80 00 40 60 A0 00 40 60 C0 00 40 60 E0 00 @`..@`..@`..@`..
00410290 40 80 00 00 40 80 20 00 40 80 40 00 40 80 60 00 @...@. .@.@.@.`.
004102A0 40 80 80 00 40 80 A0 00 40 80 C0 00 40 80 E0 00 @...@...@...@...
004102B0 40 A0 00 00 40 A0 20 00 40 A0 40 00 40 A0 60 00 @...@. .@.@.@.`.
004102C0 40 A0 80 00 40 A0 A0 00 40 A0 C0 00 40 A0 E0 00 @...@...@...@...
004102D0 40 C0 00 00 40 C0 20 00 40 C0 40 00 40 C0 60 00 @...@. .@.@.@.`.
004102E0 40 C0 80 00 40 C0 A0 00 40 C0 C0 00 40 C0 E0 00 @...@...@...@...
004102F0 40 E0 00 00 40 E0 20 00 40 E0 40 00 40 E0 60 00 @...@. .@.@.@.`.
00410300 40 E0 80 00 40 E0 A0 00 40 E0 C0 00 40 E0 E0 00 @...@...@...@...
00410310 80 00 00 00 80 00 20 00 80 00 40 00 80 00 60 00 ...... ...@...`.
00410320 80 00 80 00 80 00 A0 00 80 00 C0 00 80 00 E0 00 ................
00410330 80 20 00 00 80 20 20 00 80 20 40 00 80 20 60 00 . ...  .. @.. `.
00410340 80 20 80 00 80 20 A0 00 80 20 C0 00 80 20 E0 00 . ... ... ... ..
00410350 80 40 00 00 80 40 20 00 80 40 40 00 80 40 60 00 .@...@ ..@@..@`.
00410360 80 40 80 00 80 40 A0 00 80 40 C0 00 80 40 E0 00 .@...@...@...@..
00410370 80 60 00 00 80 60 20 00 80 60 40 00 80 60 60 00 .`...` ..`@..``.
00410380 80 60 80 00 80 60 A0 00 80 60 C0 00 80 60 E0 00 .`...`...`...`..
00410390 80 80 00 00 80 80 20 00 80 80 40 00 80 80 60 00 ...... ...@...`.
004103A0 80 80 80 00 80 80 A0 00 80 80 C0 00 80 80 E0 00 ................
004103B0 80 A0 00 00 80 A0 20 00 80 A0 40 00 80 A0 60 00 ...... ...@...`.
004103C0 80 A0 80 00 80 A0 A0 00 80 A0 C0 00 80 A0 E0 00 ................
004103D0 80 C0 00 00 80 C0 20 00 80 C0 40 00 80 C0 60 00 ...... ...@...`.
004103E0 80 C0 80 00 80 C0 A0 00 80 C0 C0 00 80 C0 E0 00 ................
004103F0 80 E0 00 00 80 E0 20 00 80 E0 40 00 80 E0 60 00 ...... ...@...`.
00410400 80 E0 80 00 80 E0 A0 00 80 E0 C0 00 80 E0 E0 00 ................
00410410 C0 00 00 00 C0 00 20 00 C0 00 40 00 C0 00 60 00 ...... ...@...`.
00410420 C0 00 80 00 C0 00 A0 00 C0 00 C0 00 C0 00 E0 00 ................
00410430 C0 20 00 00 C0 20 20 00 C0 20 40 00 C0 20 60 00 . ...  .. @.. `.
00410440 C0 20 80 00 C0 20 A0 00 C0 20 C0 00 C0 20 E0 00 . ... ... ... ..
00410450 C0 40 00 00 C0 40 20 00 C0 40 40 00 C0 40 60 00 .@...@ ..@@..@`.
00410460 C0 40 80 00 C0 40 A0 00 C0 40 C0 00 C0 40 E0 00 .@...@...@...@..
00410470 C0 60 00 00 C0 60 20 00 C0 60 40 00 C0 60 60 00 .`...` ..`@..``.
00410480 C0 60 80 00 C0 60 A0 00 C0 60 C0 00 C0 60 E0 00 .`...`...`...`..
00410490 C0 80 00 00 C0 80 20 00 C0 80 40 00 C0 80 60 00 ...... ...@...`.
004104A0 C0 80 80 00 C0 80 A0 00 C0 80 C0 00 C0 80 E0 00 ................
004104B0 C0 A0 00 00 C0 A0 20 00 C0 A0 40 00 C0 A0 60 00 ...... ...@...`.
004104C0 C0 A0 80 00 C0 A0 A0 00 C0 A0 C0 00 C0 A0 E0 00 ................
004104D0 C0 C0 00 00 C0 C0 20 00 C0 C0 40 00 C0 C0 60 00 ...... ...@...`.
004104E0 C0 C0 80 00 C0 C0 A0 00 F0 FB FF 00 A4 A0 A0 00 ................
004104F0 80 80 80 00 00 00 FF 00 00 FF 00 00 00 FF FF 00 ................
00410500 FF 00 00 00 FF 00 FF 00 FF FF 00 00 FF FF FF 00 ................
00410510 00 00 00 00 00 00 00 00 00 00 00 00 00 00 00 00 ................
00410520 00 00 00 00 00 00 00 00 00 00 00 00 00 00 00 00 ................
00410530 00 00 00 00 00 00 ED A3 9A 9A 92 92 92 92 92 92 ................
00410540 92 92 92 92 92 92 92 92 92 92 92 92 92 92 92 00 ................
00410550 00 00 00 00 00 00 ED F6 07 09 09 09 09 09 09 09 ................
00410560 09 09 EC 09 09 EC EC EC EC EB EB EB EB EB 92 00 ................
00410570 00 00 00 00 00 00 ED F6 F6 F6 F6 F6 F6 F6 F6 F6 ................
00410580 F6 F6 F6 F6 F6 F6 F6 F6 09 09 09 09 09 EB 92 00 ................
00410590 00 00 00 00 00 00 ED F6 F6 F6 F6 F6 F6 F6 F6 F6 ................
004105A0 F6 F6 F6 F6 F6 F6 F6 F6 F6 F6 09 09 09 EB 92 00 ................
004105B0 00 00 00 00 00 00 ED F6 F6 F5 F5 ED ED EC EC EC ................
004105C0 E3 E3 E3 E3 E3 E3 E3 E3 E3 E3 F6 F6 09 EB 92 00 ................
004105D0 00 00 00 00 00 00 ED FF FF F5 FF FF FF F6 EC F6 ................
004105E0 F6 EC FF E3 F6 F6 EC FF E3 F6 F6 F6 F6 EB 92 00 ................
004105F0 00 00 00 00 00 00 ED FF FF F5 FF FF FF FF ED FF ................
00410600 FF EC FF E3 F6 F6 EC FF E3 F6 F6 F6 F6 EC 92 00 ................
00410610 00 00 00 00 00 00 ED FF FF F5 F5 F5 F5 F5 F5 ED ................
00410620 FF EC FF E3 F6 F6 EC FF E3 F6 F6 F6 F6 EC 92 00 ................
00410630 00 00 00 00 00 00 ED FF FF 09 FF FF FF FF F5 FF ................
00410640 FF ED FF E3 EC EC EC FF E3 F6 F6 F6 F6 EC 92 00 ................
00410650 00 00 00 00 00 00 ED FF FF 09 FF FF FF FF F5 FF ................
00410660 FF F5 FF E3 FF FF EC FF E3 F6 F6 F6 F6 EC 92 00 ................
00410670 00 00 00 00 00 00 ED FF FF 09 09 09 09 09 F5 F5 ................
00410680 FF F5 F5 E3 FF FF EC FF E3 F6 F6 F6 F6 EC 92 00 ................
00410690 00 00 00 00 00 00 ED FF FF 09 FF FF FF FF 09 FF ................
004106A0 FF FF FF FF FF FF ED ED E3 F6 F6 F6 F6 09 92 00 ................
004106B0 00 00 00 00 00 00 ED 08 08 ED 07 07 07 ED ED 08 ................
004106C0 FF FF FF F5 FF FF FF FF FF FF F6 F6 F6 09 92 00 ................
004106D0 00 00 00 00 00 00 F7 F7 F5 07 07 08 08 F6 08 ED ................
004106E0 EC 09 F5 F5 F5 F5 F5 F5 ED FF FF F6 F6 EC 92 00 ................
004106F0 00 19 18 AC 08 08 FF FF FF F6 F6 F6 F6 F6 08 07 ................
00410700 F6 FF FF 09 FF FF FF FF F5 FF FF FF F6 09 92 00 ................
00410710 00 19 B5 08 FF FF FF FF F6 F6 B5 1A 1A F6 F6 07 ................
00410720 F6 FF FF 09 FF FF FF FF F5 FF FF FF FF 09 92 00 ................
00410730 00 19 07 AC FF 08 B4 B4 B4 AB 22 1A 6B F6 F6 ED ..........".k...
00410740 F5 09 09 09 09 09 09 F5 F5 FF FF FF FF 09 92 00 ................
00410750 00 19 08 62 FF FF 08 B4 B4 62 1A 6C AB B5 F6 07 ...b.....b.l....
00410760 08 FF FF 09 FF FF FF FF F5 FF FF FF FF 09 92 00 ................
00410770 00 19 08 19 F6 FF FF 08 6B 1A 22 08 FF F6 F6 07 ........k.".....
00410780 08 FF FF 09 FF FF FF FF 09 FF FF FF FF 09 92 00 ................
00410790 00 21 08 19 07 FF FF 08 22 22 6B B4 F5 F6 F6 07 .!......""k.....
004107A0 F5 09 09 09 09 09 09 09 09 FF FF FF FF 09 92 00 ................
004107B0 00 21 08 19 AC FF F6 22 1A B5 F6 B4 B4 B4 F6 08 .!....."........
004107C0 08 FF FF 09 FF FF FF FF 09 FF FF FF FF 09 92 00 ................
004107D0 00 21 08 AC B4 FF 63 62 6C FF FF FF FF FF FF 08 .!....cbl.......
004107E0 08 FF FF 09 FF FF FF FF 07 09 09 09 09 09 92 00 ................
004107F0 00 61 08 B4 B4 FF FF FF FF FF FF FF FF FF FF F6 .a..............
00410800 07 09 09 09 09 09 09 ED A3 A3 9B 9A 9A 9A 92 00 ................
00410810 00 61 08 B5 B4 08 08 08 08 08 08 F5 B5 08 6B FF .a............k.
00410820 FF FF FF FF FF FF FF ED 09 09 09 09 09 92 F6 00 ................
00410830 00 61 B5 F6 B5 B5 B5 B5 B5 B5 B5 B5 B5 F6 61 FF .a............a.
00410840 FF FF FF FF FF FF FF ED F6 F6 09 09 92 F6 F6 00 ................
00410850 00 61 61 08 F6 08 BD BD BD BD BD BD B5 F6 61 F6 .aa...........a.
00410860 09 09 09 FF FF FF FF F5 F6 F6 09 92 F6 F6 00 00 ................
00410870 00 00 61 61 B5 08 F6 F6 F6 F6 F6 F6 F6 F6 61 FF ..aa..........a.
00410880 FF FF FF FF FF FF FF F5 F6 F6 9A F6 F6 00 00 00 ................
00410890 00 00 00 61 61 61 61 61 61 61 61 61 61 61 61 FF ...aaaaaaaaaaaa.
004108A0 FF FF FF FF FF FF FF F5 F6 9B F6 F6 00 00 00 00 ................
004108B0 00 00 00 00 00 00 07 FF FF FF FF FF FF FF FF FF ................
004108C0 FF FF FF FF FF FF FF F5 A4 F6 F6 00 00 00 00 00 ................
004108D0 00 00 00 00 00 00 07 07 07 07 07 F5 F5 F5 F5 F5 ................
004108E0 F5 F5 F5 F5 F5 F5 F5 F5 F6 F6 00 00 00 00 00 00 ................
004108F0 00 00 00 00 00 00 00 00 00 00 00 00 00 00 00 00 ................
00410900 00 00 00 00 00 00 00 00 00 00 00 00 00 00 00 00 ................
00410910 FF FF FF FF FC 00 00 01 FC 00 00 01 FC 00 00 01 ................
00410920 FC 00 00 01 FC 00 00 01 FC 00 00 01 FC 00 00 01 ................
00410930 FC 00 00 01 FC 00 00 01 FC 00 00 01 FC 00 00 01 ................
00410940 FC 00 00 01 C0 00 00 01 C0 00 00 01 80 00 00 01 ................
00410950 80 00 00 01 80 00 00 01 80 00 00 01 80 00 00 01 ................
00410960 80 00 00 01 80 00 00 01 80 00 00 01 80 00 00 01 ................
00410970 80 00 00 01 80 00 00 01 80 00 00 03 C0 00 00 07 ................
00410980 E0 00 00 0F FC 00 00 1F FC 00 00 3F FF FF FF FF ...........?....
00410990 00 00 01 00 01 00 20 20 08 00 00 00 00 00 A8 08 ......  ........
004109A0 00 00 01 00 F4 02 34 00 00 00 56 00 53 00 5F 00 ......4...V.S._.
004109B0 56 00 45 00 52 00 53 00 49 00 4F 00 4E 00 5F 00 V.E.R.S.I.O.N._.
004109C0 49 00 4E 00 46 00 4F 00 00 00 00 00 BD 04 EF FE I.N.F.O.........
004109D0 00 00 01 00 08 F8 25 03 08 F8 25 03 08 F8 25 03 ......%...%...%.
004109E0 08 F8 25 03 08 F8 00 00 00 00 00 00 04 00 04 00 ..%.............
004109F0 01 00 00 00 00 00 00 00 00 00 00 00 00 00 00 00 ................
00410A00 54 02 00 00 00 00 53 00 74 00 72 00 69 00 6E 00 T.....S.t.r.i.n.
00410A10 67 00 46 00 69 00 6C 00 65 00 49 00 6E 00 66 00 g.F.i.l.e.I.n.f.
00410A20 6F 00 00 00 30 02 00 00 00 00 30 00 38 00 30 00 o...0.....0.8.0.
00410A30 30 00 30 00 34 00 42 00 30 00 00 00 44 00 12 00 0.0.4.B.0...D...
00410A40 01 00 43 00 6F 00 6D 00 70 00 61 00 6E 00 79 00 ..C.o.m.p.a.n.y.
00410A50 4E 00 61 00 6D 00 65 00 00 00 00 00 4E 00 34 00 N.a.m.e.....N.4.
00410A60 35 00 47 00 52 00 76 00 76 00 71 00 45 00 37 00 5.G.R.v.v.q.E.7.
00410A70 6B 00 62 00 57 00 42 00 65 00 31 00 49 00 00 00 k.b.W.B.e.1.I...
00410A80 50 00 13 00 01 00 46 00 69 00 6C 00 65 00 44 00 P.....F.i.l.e.D.
00410A90 65 00 73 00 63 00 72 00 69 00 70 00 74 00 69 00 e.s.c.r.i.p.t.i.
00410AA0 6F 00 6E 00 00 00 00 00 38 00 42 00 77 00 38 00 o.n.....8.B.w.8.
00410AB0 4C 00 50 00 77 00 6E 00 32 00 44 00 57 00 75 00 L.P.w.n.2.D.W.u.
00410AC0 43 00 49 00 73 00 4B 00 51 00 44 00 00 00 00 00 C.I.s.K.Q.D.....
00410AD0 44 00 11 00 01 00 46 00 69 00 6C 00 65 00 56 00 D.....F.i.l.e.V.
00410AE0 65 00 72 00 73 00 69 00 6F 00 6E 00 00 00 00 00 e.r.s.i.o.n.....
00410AF0 49 00 71 00 33 00 51 00 35 00 6A 00 52 00 78 00 I.q.3.Q.5.j.R.x.
00410B00 46 00 32 00 57 00 49 00 36 00 66 00 43 00 56 00 F.2.W.I.6.f.C.V.
00410B10 00 00 00 00 40 00 10 00 01 00 49 00 6E 00 74 00 ....@.....I.n.t.
00410B20 65 00 72 00 6E 00 61 00 6C 00 4E 00 61 00 6D 00 e.r.n.a.l.N.a.m.
00410B30 65 00 00 00 59 00 33 00 4C 00 79 00 64 00 73 00 e...Y.3.L.y.d.s.
00410B40 36 00 4F 00 49 00 76 00 67 00 76 00 67 00 43 00 6.O.I.v.g.v.g.C.
00410B50 4A 00 00 00 3C 00 0C 00 01 00 4C 00 65 00 67 00 J...<.....L.e.g.
00410B60 61 00 6C 00 43 00 6F 00 70 00 79 00 72 00 69 00 a.l.C.o.p.y.r.i.
00410B70 67 00 68 00 74 00 00 00 64 00 53 00 41 00 48 00 g.h.t...d.S.A.H.
00410B80 4A 00 59 00 43 00 48 00 41 00 52 00 64 00 00 00 J.Y.C.H.A.R.d...
00410B90 48 00 0F 00 01 00 4F 00 72 00 69 00 67 00 69 00 H.....O.r.i.g.i.
00410BA0 6E 00 61 00 6C 00 46 00 69 00 6C 00 65 00 6E 00 n.a.l.F.i.l.e.n.
00410BB0 61 00 6D 00 65 00 00 00 53 00 52 00 51 00 32 00 a.m.e...S.R.Q.2.
00410BC0 72 00 70 00 36 00 35 00 4C 00 6A 00 6F 00 4D 00 r.p.6.5.L.j.o.M.
00410BD0 6B 00 6A 00 00 00 00 00 3C 00 0D 00 01 00 50 00 k.j.....<.....P.
00410BE0 72 00 6F 00 64 00 75 00 63 00 74 00 4E 00 61 00 r.o.d.u.c.t.N.a.
00410BF0 6D 00 65 00 00 00 00 00 6C 00 32 00 45 00 4C 00 m.e.....l.2.E.L.
00410C00 66 00 65 00 4E 00 66 00 37 00 77 00 43 00 59 00 f.e.N.f.7.w.C.Y.
00410C10 00 00 00 00 40 00 0E 00 01 00 50 00 72 00 6F 00 ....@.....P.r.o.
00410C20 64 00 75 00 63 00 74 00 56 00 65 00 72 00 73 00 d.u.c.t.V.e.r.s.
00410C30 69 00 6F 00 6E 00 00 00 6A 00 6A 00 50 00 58 00 i.o.n...j.j.P.X.
00410C40 57 00 62 00 36 00 4A 00 61 00 48 00 61 00 69 00 W.b.6.J.a.H.a.i.
00410C50 4E 00 00 00 44 00 00 00 00 00 56 00 61 00 72 00 N...D.....V.a.r.
00410C60 46 00 69 00 6C 00 65 00 49 00 6E 00 66 00 6F 00 F.i.l.e.I.n.f.o.
00410C70 00 00 00 00 24 00 04 00 00 00 54 00 72 00 61 00 ....$.....T.r.a.
00410C80 6E 00 73 00 6C 00 61 00 74 00 69 00 6F 00 6E 00 n.s.l.a.t.i.o.n.
00410C90 00 00 00 00 00 08 B0 04 00 00 00 00 00 00 00 00 ................
00410CA0 00 00 00 00 00 00 00 00 00 00 00 00 00 00 00 00 ................
00410CB0 00 00 00 00 00 00 00 00 00 00 00 00 00 00 00 00 ................
00410CC0 00 00 00 00 00 00 00 00 00 00 00 00 00 00 00 00 ................
00410CD0 00 00 00 00 00 00 00 00 00 00 00 00 00 00 00 00 ................
00410CE0 00 00 00 00 00 00 00 00 00 00 00 00 00 00 00 00 ................
00410CF0 00 00 00 00 00 00 00 00 00 00 00 00 00 00 00 00 ................
00410D00 00 00 00 00 00 00 00 00 00 00 00 00 00 00 00 00 ................
00410D10 00 00 00 00 00 00 00 00 00 00 00 00 00 00 00 00 ................
00410D20 00 00 00 00 00 00 00 00 00 00 00 00 00 00 00 00 ................
00410D30 00 00 00 00 00 00 00 00 00 00 00 00 00 00 00 00 ................
00410D40 00 00 00 00 00 00 00 00 00 00 00 00 00 00 00 00 ................
00410D50 00 00 00 00 00 00 00 00 00 00 00 00 00 00 00 00 ................
00410D60 00 00 00 00 00 00 00 00 00 00 00 00 00 00 00 00 ................
00410D70 00 00 00 00 00 00 00 00 00 00 00 00 00 00 00 00 ................
00410D80 00 00 00 00 00 00 00 00 00 00 00 00 00 00 00 00 ................
00410D90 00 00 00 00 00 00 00 00 00 00 00 00 00 00 00 00 ................
00410DA0 00 00 00 00 00 00 00 00 00 00 00 00 00 00 00 00 ................
00410DB0 00 00 00 00 00 00 00 00 00 00 00 00 00 00 00 00 ................
00410DC0 00 00 00 00 00 00 00 00 00 00 00 00 00 00 00 00 ................
00410DD0 00 00 00 00 00 00 00 00 00 00 00 00 00 00 00 00 ................
00410DE0 00 00 00 00 00 00 00 00 00 00 00 00 00 00 00 00 ................
00410DF0 00 00 00 00 00 00 00 00 00 00 00 00 00 00 00 00 ................
00410E00 00 00 00 00 00 00 00 00 00 00 00 00 00 00 00 00 ................
00410E10 00 00 00 00 00 00 00 00 00 00 00 00 00 00 00 00 ................
00410E20 00 00 00 00 00 00 00 00 00 00 00 00 00 00 00 00 ................
00410E30 00 00 00 00 00 00 00 00 00 00 00 00 00 00 00 00 ................
00410E40 00 00 00 00 00 00 00 00 00 00 00 00 00 00 00 00 ................
00410E50 00 00 00 00 00 00 00 00 00 00 00 00 00 00 00 00 ................
00410E60 00 00 00 00 00 00 00 00 00 00 00 00 00 00 00 00 ................
00410E70 00 00 00 00 00 00 00 00 00 00 00 00 00 00 00 00 ................
00410E80 00 00 00 00 00 00 00 00 00 00 00 00 00 00 00 00 ................
00410E90 00 00 00 00 00 00 00 00 00 00 00 00 00 00 00 00 ................
00410EA0 00 00 00 00 00 00 00 00 00 00 00 00 00 00 00 00 ................
00410EB0 00 00 00 00 00 00 00 00 00 00 00 00 00 00 00 00 ................
00410EC0 00 00 00 00 00 00 00 00 00 00 00 00 00 00 00 00 ................
00410ED0 00 00 00 00 00 00 00 00 00 00 00 00 00 00 00 00 ................
00410EE0 00 00 00 00 00 00 00 00 00 00 00 00 00 00 00 00 ................
00410EF0 00 00 00 00 00 00 00 00 00 00 00 00 00 00 00 00 ................
00410F00 00 00 00 00 00 00 00 00 00 00 00 00 00 00 00 00 ................
00410F10 00 00 00 00 00 00 00 00 00 00 00 00 00 00 00 00 ................
00410F20 00 00 00 00 00 00 00 00 00 00 00 00 00 00 00 00 ................
00410F30 00 00 00 00 00 00 00 00 00 00 00 00 00 00 00 00 ................
00410F40 00 00 00 00 00 00 00 00 00 00 00 00 00 00 00 00 ................
00410F50 00 00 00 00 00 00 00 00 00 00 00 00 00 00 00 00 ................
00410F60 00 00 00 00 00 00 00 00 00 00 00 00 00 00 00 00 ................
00410F70 00 00 00 00 00 00 00 00 00 00 00 00 00 00 00 00 ................
00410F80 00 00 00 00 00 00 00 00 00 00 00 00 00 00 00 00 ................
00410F90 00 00 00 00 00 00 00 00 00 00 00 00 00 00 00 00 ................
00410FA0 00 00 00 00 00 00 00 00 00 00 00 00 00 00 00 00 ................
00410FB0 00 00 00 00 00 00 00 00 00 00 00 00 00 00 00 00 ................
00410FC0 00 00 00 00 00 00 00 00 00 00 00 00 00 00 00 00 ................
00410FD0 00 00 00 00 00 00 00 00 00 00 00 00 00 00 00 00 ................
00410FE0 00 00 00 00 00 00 00 00 00 00 00 00 00 00 00 00 ................
00410FF0 00 00 00 00 00 00 00 00 00 00 00 00 00 00 00 00 ................
00411000 
...end of image
