00400000 00 00 00 00 00 00 00 00 00 00 00 00 00 00 00 00 ................
00400010 00 00 00 00 00 00 00 00 00 00 00 00 00 00 00 00 ................
00400020 00 00 00 00 00 00 00 00 00 00 00 00 00 00 00 00 ................
00400030 00 00 00 00 00 00 00 00 00 00 00 00 00 00 00 00 ................
00400040 00 00 00 00 00 00 00 00 00 00 00 00 00 00 00 00 ................
00400050 00 00 00 00 00 00 00 00 00 00 00 00 00 00 00 00 ................
00400060 00 00 00 00 00 00 00 00 00 00 00 00 00 00 00 00 ................
00400070 00 00 00 00 00 00 00 00 00 00 00 00 00 00 00 00 ................
00400080 00 00 00 00 00 00 00 00 00 00 00 00 00 00 00 00 ................
00400090 00 00 00 00 00 00 00 00 00 00 00 00 00 00 00 00 ................
004000A0 00 00 00 00 00 00 00 00 00 00 00 00 00 00 00 00 ................
004000B0 00 00 00 00 00 00 00 00 00 00 00 00 00 00 00 00 ................
004000C0 00 00 00 00 00 00 00 00 00 00 00 00 00 00 00 00 ................
004000D0 00 00 00 00 00 00 00 00 00 00 00 00 00 00 00 00 ................
004000E0 00 00 00 00 00 00 00 00 00 00 00 00 00 00 00 00 ................
004000F0 00 00 00 00 00 00 00 00 00 00 00 00 00 00 00 00 ................
00400100 00 00 00 00 00 00 00 00 00 00 00 00 00 00 00 00 ................
00400110 00 00 00 00 00 00 00 00 00 00 00 00 00 00 00 00 ................
00400120 00 00 00 00 00 00 00 00 00 00 00 00 00 00 00 00 ................
00400130 00 00 00 00 00 00 00 00 00 00 00 00 00 00 00 00 ................
00400140 00 00 00 00 00 00 00 00 00 00 00 00 00 00 00 00 ................
00400150 00 00 00 00 00 00 00 00 00 00 00 00 00 00 00 00 ................
00400160 00 00 00 00 00 00 00 00 00 00 00 00 00 00 00 00 ................
00400170 00 00 00 00 00 00 00 00 00 00 00 00 00 00 00 00 ................
00400180 00 00 00 00 00 00 00 00 00 00 00 00 00 00 00 00 ................
00400190 00 00 00 00 00 00 00 00 00 00 00 00 00 00 00 00 ................
004001A0 00 00 00 00 00 00 00 00 00 00 00 00 00 00 00 00 ................
004001B0 00 00 00 00 00 00 00 00 00 00 00 00 00 00 00 00 ................
004001C0 00 00 00 00 00 00 00 00 00 00 00 00 00 00 00 00 ................
004001D0 00 00 00 00 00 00 00 00 00 00 00 00 00 00 00 00 ................
004001E0 00 00 00 00 00 00 00 00 00 00 00 00 00 00 00 00 ................
004001F0 00 00 00 00 00 00 00 00 00 00 00 00 00 00 00 00 ................
00400200 00 00 00 00 00 00 00 00 00 00 00 00 00 00 00 00 ................
00400210 00 00 00 00 00 00 00 00 00 00 00 00 00 00 00 00 ................
00400220 00 00 00 00 00 00 00 00 00 00 00 00 00 00 00 00 ................
00400230 00 00 00 00 00 00 00 00 00 00 00 00 00 00 00 00 ................
00400240 00 00 00 00 00 00 00 00 00 00 00 00 00 00 00 00 ................
00400250 00 00 00 00 00 00 00 00 00 00 00 00 00 00 00 00 ................
00400260 00 00 00 00 00 00 00 00 00 00 00 00 00 00 00 00 ................
00400270 00 00 00 00 00 00 00 00 00 00 00 00 00 00 00 00 ................
00400280 00 00 00 00 00 00 00 00 00 00 00 00 00 00 00 00 ................
00400290 00 00 00 00 00 00 00 00 00 00 00 00 00 00 00 00 ................
004002A0 00 00 00 00 00 00 00 00 00 00 00 00 00 00 00 00 ................
004002B0 00 00 00 00 00 00 00 00 00 00 00 00 00 00 00 00 ................
004002C0 00 00 00 00 00 00 00 00 00 00 00 00 00 00 00 00 ................
004002D0 00 00 00 00 00 00 00 00 00 00 00 00 00 00 00 00 ................
004002E0 00 00 00 00 00 00 00 00 00 00 00 00 00 00 00 00 ................
004002F0 00 00 00 00 00 00 00 00 00 00 00 00 00 00 00 00 ................
00400300 00 00 00 00 00 00 00 00 00 00 00 00 00 00 00 00 ................
00400310 00 00 00 00 00 00 00 00 00 00 00 00 00 00 00 00 ................
00400320 00 00 00 00 00 00 00 00 00 00 00 00 00 00 00 00 ................
00400330 00 00 00 00 00 00 00 00 00 00 00 00 00 00 00 00 ................
00400340 00 00 00 00 00 00 00 00 00 00 00 00 00 00 00 00 ................
00400350 00 00 00 00 00 00 00 00 00 00 00 00 00 00 00 00 ................
00400360 00 00 00 00 00 00 00 00 00 00 00 00 00 00 00 00 ................
00400370 00 00 00 00 00 00 00 00 00 00 00 00 00 00 00 00 ................
00400380 00 00 00 00 00 00 00 00 00 00 00 00 00 00 00 00 ................
00400390 00 00 00 00 00 00 00 00 00 00 00 00 00 00 00 00 ................
004003A0 00 00 00 00 00 00 00 00 00 00 00 00 00 00 00 00 ................
004003B0 00 00 00 00 00 00 00 00 00 00 00 00 00 00 00 00 ................
004003C0 00 00 00 00 00 00 00 00 00 00 00 00 00 00 00 00 ................
004003D0 00 00 00 00 00 00 00 00 00 00 00 00 00 00 00 00 ................
004003E0 00 00 00 00 00 00 00 00 00 00 00 00 00 00 00 00 ................
004003F0 00 00 00 00 00 00 00 00 00 00 00 00 00 00 00 00 ................
00400400 00 00 00 00 00 00 00 00 00 00 00 00 00 00 00 00 ................
00400410 00 00 00 00 00 00 00 00 00 00 00 00 00 00 00 00 ................
00400420 00 00 00 00 00 00 00 00 00 00 00 00 00 00 00 00 ................
00400430 00 00 00 00 00 00 00 00 00 00 00 00 00 00 00 00 ................
00400440 00 00 00 00 00 00 00 00 00 00 00 00 00 00 00 00 ................
00400450 00 00 00 00 00 00 00 00 00 00 00 00 00 00 00 00 ................
00400460 00 00 00 00 00 00 00 00 00 00 00 00 00 00 00 00 ................
00400470 00 00 00 00 00 00 00 00 00 00 00 00 00 00 00 00 ................
00400480 00 00 00 00 00 00 00 00 00 00 00 00 00 00 00 00 ................
00400490 00 00 00 00 00 00 00 00 00 00 00 00 00 00 00 00 ................
004004A0 00 00 00 00 00 00 00 00 00 00 00 00 00 00 00 00 ................
004004B0 00 00 00 00 00 00 00 00 00 00 00 00 00 00 00 00 ................
004004C0 00 00 00 00 00 00 00 00 00 00 00 00 00 00 00 00 ................
004004D0 00 00 00 00 00 00 00 00 00 00 00 00 00 00 00 00 ................
004004E0 00 00 00 00 00 00 00 00 00 00 00 00 00 00 00 00 ................
004004F0 00 00 00 00 00 00 00 00 00 00 00 00 00 00 00 00 ................
00400500 00 00 00 00 00 00 00 00 00 00 00 00 00 00 00 00 ................
00400510 00 00 00 00 00 00 00 00 00 00 00 00 00 00 00 00 ................
00400520 00 00 00 00 00 00 00 00 00 00 00 00 00 00 00 00 ................
00400530 00 00 00 00 00 00 00 00 00 00 00 00 00 00 00 00 ................
00400540 00 00 00 00 00 00 00 00 00 00 00 00 00 00 00 00 ................
00400550 00 00 00 00 00 00 00 00 00 00 00 00 00 00 00 00 ................
00400560 00 00 00 00 00 00 00 00 00 00 00 00 00 00 00 00 ................
00400570 00 00 00 00 00 00 00 00 00 00 00 00 00 00 00 00 ................
00400580 00 00 00 00 00 00 00 00 00 00 00 00 00 00 00 00 ................
00400590 00 00 00 00 00 00 00 00 00 00 00 00 00 00 00 00 ................
004005A0 00 00 00 00 00 00 00 00 00 00 00 00 00 00 00 00 ................
004005B0 00 00 00 00 00 00 00 00 00 00 00 00 00 00 00 00 ................
004005C0 00 00 00 00 00 00 00 00 00 00 00 00 00 00 00 00 ................
004005D0 00 00 00 00 00 00 00 00 00 00 00 00 00 00 00 00 ................
004005E0 00 00 00 00 00 00 00 00 00 00 00 00 00 00 00 00 ................
004005F0 00 00 00 00 00 00 00 00 00 00 00 00 00 00 00 00 ................
00400600 00 00 00 00 00 00 00 00 00 00 00 00 00 00 00 00 ................
00400610 00 00 00 00 00 00 00 00 00 00 00 00 00 00 00 00 ................
00400620 00 00 00 00 00 00 00 00 00 00 00 00 00 00 00 00 ................
00400630 00 00 00 00 00 00 00 00 00 00 00 00 00 00 00 00 ................
00400640 00 00 00 00 00 00 00 00 00 00 00 00 00 00 00 00 ................
00400650 00 00 00 00 00 00 00 00 00 00 00 00 00 00 00 00 ................
00400660 00 00 00 00 00 00 00 00 00 00 00 00 00 00 00 00 ................
00400670 00 00 00 00 00 00 00 00 00 00 00 00 00 00 00 00 ................
00400680 00 00 00 00 00 00 00 00 00 00 00 00 00 00 00 00 ................
00400690 00 00 00 00 00 00 00 00 00 00 00 00 00 00 00 00 ................
004006A0 00 00 00 00 00 00 00 00 00 00 00 00 00 00 00 00 ................
004006B0 00 00 00 00 00 00 00 00 00 00 00 00 00 00 00 00 ................
004006C0 00 00 00 00 00 00 00 00 00 00 00 00 00 00 00 00 ................
004006D0 00 00 00 00 00 00 00 00 00 00 00 00 00 00 00 00 ................
004006E0 00 00 00 00 00 00 00 00 00 00 00 00 00 00 00 00 ................
004006F0 00 00 00 00 00 00 00 00 00 00 00 00 00 00 00 00 ................
00400700 00 00 00 00 00 00 00 00 00 00 00 00 00 00 00 00 ................
00400710 00 00 00 00 00 00 00 00 00 00 00 00 00 00 00 00 ................
00400720 00 00 00 00 00 00 00 00 00 00 00 00 00 00 00 00 ................
00400730 00 00 00 00 00 00 00 00 00 00 00 00 00 00 00 00 ................
00400740 00 00 00 00 00 00 00 00 00 00 00 00 00 00 00 00 ................
00400750 00 00 00 00 00 00 00 00 00 00 00 00 00 00 00 00 ................
00400760 00 00 00 00 00 00 00 00 00 00 00 00 00 00 00 00 ................
00400770 00 00 00 00 00 00 00 00 00 00 00 00 00 00 00 00 ................
00400780 00 00 00 00 00 00 00 00 00 00 00 00 00 00 00 00 ................
00400790 00 00 00 00 00 00 00 00 00 00 00 00 00 00 00 00 ................
004007A0 00 00 00 00 00 00 00 00 00 00 00 00 00 00 00 00 ................
004007B0 00 00 00 00 00 00 00 00 00 00 00 00 00 00 00 00 ................
004007C0 00 00 00 00 00 00 00 00 00 00 00 00 00 00 00 00 ................
004007D0 00 00 00 00 00 00 00 00 00 00 00 00 00 00 00 00 ................
004007E0 00 00 00 00 00 00 00 00 00 00 00 00 00 00 00 00 ................
004007F0 00 00 00 00 00 00 00 00 00 00 00 00 00 00 00 00 ................
00400800 00 00 00 00 00 00 00 00 00 00 00 00 00 00 00 00 ................
00400810 00 00 00 00 00 00 00 00 00 00 00 00 00 00 00 00 ................
00400820 00 00 00 00 00 00 00 00 00 00 00 00 00 00 00 00 ................
00400830 00 00 00 00 00 00 00 00 00 00 00 00 00 00 00 00 ................
00400840 00 00 00 00 00 00 00 00 00 00 00 00 00 00 00 00 ................
00400850 00 00 00 00 00 00 00 00 00 00 00 00 00 00 00 00 ................
00400860 00 00 00 00 00 00 00 00 00 00 00 00 00 00 00 00 ................
00400870 00 00 00 00 00 00 00 00 00 00 00 00 00 00 00 00 ................
00400880 00 00 00 00 00 00 00 00 00 00 00 00 00 00 00 00 ................
00400890 00 00 00 00 00 00 00 00 00 00 00 00 00 00 00 00 ................
004008A0 00 00 00 00 00 00 00 00 00 00 00 00 00 00 00 00 ................
004008B0 00 00 00 00 00 00 00 00 00 00 00 00 00 00 00 00 ................
004008C0 00 00 00 00 00 00 00 00 00 00 00 00 00 00 00 00 ................
004008D0 00 00 00 00 00 00 00 00 00 00 00 00 00 00 00 00 ................
004008E0 00 00 00 00 00 00 00 00 00 00 00 00 00 00 00 00 ................
004008F0 00 00 00 00 00 00 00 00 00 00 00 00 00 00 00 00 ................
00400900 00 00 00 00 00 00 00 00 00 00 00 00 00 00 00 00 ................
00400910 00 00 00 00 00 00 00 00 00 00 00 00 00 00 00 00 ................
00400920 00 00 00 00 00 00 00 00 00 00 00 00 00 00 00 00 ................
00400930 00 00 00 00 00 00 00 00 00 00 00 00 00 00 00 00 ................
00400940 00 00 00 00 00 00 00 00 00 00 00 00 00 00 00 00 ................
00400950 00 00 00 00 00 00 00 00 00 00 00 00 00 00 00 00 ................
00400960 00 00 00 00 00 00 00 00 00 00 00 00 00 00 00 00 ................
00400970 00 00 00 00 00 00 00 00 00 00 00 00 00 00 00 00 ................
00400980 00 00 00 00 00 00 00 00 00 00 00 00 00 00 00 00 ................
00400990 00 00 00 00 00 00 00 00 00 00 00 00 00 00 00 00 ................
004009A0 00 00 00 00 00 00 00 00 00 00 00 00 00 00 00 00 ................
004009B0 00 00 00 00 00 00 00 00 00 00 00 00 00 00 00 00 ................
004009C0 00 00 00 00 00 00 00 00 00 00 00 00 00 00 00 00 ................
004009D0 00 00 00 00 00 00 00 00 00 00 00 00 00 00 00 00 ................
004009E0 00 00 00 00 00 00 00 00 00 00 00 00 00 00 00 00 ................
004009F0 00 00 00 00 00 00 00 00 00 00 00 00 00 00 00 00 ................
00400A00 00 00 00 00 00 00 00 00 00 00 00 00 00 00 00 00 ................
00400A10 00 00 00 00 00 00 00 00 00 00 00 00 00 00 00 00 ................
00400A20 00 00 00 00 00 00 00 00 00 00 00 00 00 00 00 00 ................
00400A30 00 00 00 00 00 00 00 00 00 00 00 00 00 00 00 00 ................
00400A40 00 00 00 00 00 00 00 00 00 00 00 00 00 00 00 00 ................
00400A50 00 00 00 00 00 00 00 00 00 00 00 00 00 00 00 00 ................
00400A60 00 00 00 00 00 00 00 00 00 00 00 00 00 00 00 00 ................
00400A70 00 00 00 00 00 00 00 00 00 00 00 00 00 00 00 00 ................
00400A80 00 00 00 00 00 00 00 00 00 00 00 00 00 00 00 00 ................
00400A90 00 00 00 00 00 00 00 00 00 00 00 00 00 00 00 00 ................
00400AA0 00 00 00 00 00 00 00 00 00 00 00 00 00 00 00 00 ................
00400AB0 00 00 00 00 00 00 00 00 00 00 00 00 00 00 00 00 ................
00400AC0 00 00 00 00 00 00 00 00 00 00 00 00 00 00 00 00 ................
00400AD0 00 00 00 00 00 00 00 00 00 00 00 00 00 00 00 00 ................
00400AE0 00 00 00 00 00 00 00 00 00 00 00 00 00 00 00 00 ................
00400AF0 00 00 00 00 00 00 00 00 00 00 00 00 00 00 00 00 ................
00400B00 00 00 00 00 00 00 00 00 00 00 00 00 00 00 00 00 ................
00400B10 00 00 00 00 00 00 00 00 00 00 00 00 00 00 00 00 ................
00400B20 00 00 00 00 00 00 00 00 00 00 00 00 00 00 00 00 ................
00400B30 00 00 00 00 00 00 00 00 00 00 00 00 00 00 00 00 ................
00400B40 00 00 00 00 00 00 00 00 00 00 00 00 00 00 00 00 ................
00400B50 00 00 00 00 00 00 00 00 00 00 00 00 00 00 00 00 ................
00400B60 00 00 00 00 00 00 00 00 00 00 00 00 00 00 00 00 ................
00400B70 00 00 00 00 00 00 00 00 00 00 00 00 00 00 00 00 ................
00400B80 00 00 00 00 00 00 00 00 00 00 00 00 00 00 00 00 ................
00400B90 00 00 00 00 00 00 00 00 00 00 00 00 00 00 00 00 ................
00400BA0 00 00 00 00 00 00 00 00 00 00 00 00 00 00 00 00 ................
00400BB0 00 00 00 00 00 00 00 00 00 00 00 00 00 00 00 00 ................
00400BC0 00 00 00 00 00 00 00 00 00 00 00 00 00 00 00 00 ................
00400BD0 00 00 00 00 00 00 00 00 00 00 00 00 00 00 00 00 ................
00400BE0 00 00 00 00 00 00 00 00 00 00 00 00 00 00 00 00 ................
00400BF0 00 00 00 00 00 00 00 00 00 00 00 00 00 00 00 00 ................
00400C00 00 00 00 00 00 00 00 00 00 00 00 00 00 00 00 00 ................
00400C10 00 00 00 00 00 00 00 00 00 00 00 00 00 00 00 00 ................
00400C20 00 00 00 00 00 00 00 00 00 00 00 00 00 00 00 00 ................
00400C30 00 00 00 00 00 00 00 00 00 00 00 00 00 00 00 00 ................
00400C40 00 00 00 00 00 00 00 00 00 00 00 00 00 00 00 00 ................
00400C50 00 00 00 00 00 00 00 00 00 00 00 00 00 00 00 00 ................
00400C60 00 00 00 00 00 00 00 00 00 00 00 00 00 00 00 00 ................
00400C70 00 00 00 00 00 00 00 00 00 00 00 00 00 00 00 00 ................
00400C80 00 00 00 00 00 00 00 00 00 00 00 00 00 00 00 00 ................
00400C90 00 00 00 00 00 00 00 00 00 00 00 00 00 00 00 00 ................
00400CA0 00 00 00 00 00 00 00 00 00 00 00 00 00 00 00 00 ................
00400CB0 00 00 00 00 00 00 00 00 00 00 00 00 00 00 00 00 ................
00400CC0 00 00 00 00 00 00 00 00 00 00 00 00 00 00 00 00 ................
00400CD0 00 00 00 00 00 00 00 00 00 00 00 00 00 00 00 00 ................
00400CE0 00 00 00 00 00 00 00 00 00 00 00 00 00 00 00 00 ................
00400CF0 00 00 00 00 00 00 00 00 00 00 00 00 00 00 00 00 ................
00400D00 00 00 00 00 00 00 00 00 00 00 00 00 00 00 00 00 ................
00400D10 00 00 00 00 00 00 00 00 00 00 00 00 00 00 00 00 ................
00400D20 00 00 00 00 00 00 00 00 00 00 00 00 00 00 00 00 ................
00400D30 00 00 00 00 00 00 00 00 00 00 00 00 00 00 00 00 ................
00400D40 00 00 00 00 00 00 00 00 00 00 00 00 00 00 00 00 ................
00400D50 00 00 00 00 00 00 00 00 00 00 00 00 00 00 00 00 ................
00400D60 00 00 00 00 00 00 00 00 00 00 00 00 00 00 00 00 ................
00400D70 00 00 00 00 00 00 00 00 00 00 00 00 00 00 00 00 ................
00400D80 00 00 00 00 00 00 00 00 00 00 00 00 00 00 00 00 ................
00400D90 00 00 00 00 00 00 00 00 00 00 00 00 00 00 00 00 ................
00400DA0 00 00 00 00 00 00 00 00 00 00 00 00 00 00 00 00 ................
00400DB0 00 00 00 00 00 00 00 00 00 00 00 00 00 00 00 00 ................
00400DC0 00 00 00 00 00 00 00 00 00 00 00 00 00 00 00 00 ................
00400DD0 00 00 00 00 00 00 00 00 00 00 00 00 00 00 00 00 ................
00400DE0 00 00 00 00 00 00 00 00 00 00 00 00 00 00 00 00 ................
00400DF0 00 00 00 00 00 00 00 00 00 00 00 00 00 00 00 00 ................
00400E00 00 00 00 00 00 00 00 00 00 00 00 00 00 00 00 00 ................
00400E10 00 00 00 00 00 00 00 00 00 00 00 00 00 00 00 00 ................
00400E20 00 00 00 00 00 00 00 00 00 00 00 00 00 00 00 00 ................
00400E30 00 00 00 00 00 00 00 00 00 00 00 00 00 00 00 00 ................
00400E40 00 00 00 00 00 00 00 00 00 00 00 00 00 00 00 00 ................
00400E50 00 00 00 00 00 00 00 00 00 00 00 00 00 00 00 00 ................
00400E60 00 00 00 00 00 00 00 00 00 00 00 00 00 00 00 00 ................
00400E70 00 00 00 00 00 00 00 00 00 00 00 00 00 00 00 00 ................
00400E80 00 00 00 00 00 00 00 00 00 00 00 00 00 00 00 00 ................
00400E90 00 00 00 00 00 00 00 00 00 00 00 00 00 00 00 00 ................
00400EA0 00 00 00 00 00 00 00 00 00 00 00 00 00 00 00 00 ................
00400EB0 00 00 00 00 00 00 00 00 00 00 00 00 00 00 00 00 ................
00400EC0 00 00 00 00 00 00 00 00 00 00 00 00 00 00 00 00 ................
00400ED0 00 00 00 00 00 00 00 00 00 00 00 00 00 00 00 00 ................
00400EE0 00 00 00 00 00 00 00 00 00 00 00 00 00 00 00 00 ................
00400EF0 00 00 00 00 00 00 00 00 00 00 00 00 00 00 00 00 ................
00400F00 00 00 00 00 00 00 00 00 00 00 00 00 00 00 00 00 ................
00400F10 00 00 00 00 00 00 00 00 00 00 00 00 00 00 00 00 ................
00400F20 00 00 00 00 00 00 00 00 00 00 00 00 00 00 00 00 ................
00400F30 00 00 00 00 00 00 00 00 00 00 00 00 00 00 00 00 ................
00400F40 00 00 00 00 00 00 00 00 00 00 00 00 00 00 00 00 ................
00400F50 00 00 00 00 00 00 00 00 00 00 00 00 00 00 00 00 ................
00400F60 00 00 00 00 00 00 00 00 00 00 00 00 00 00 00 00 ................
00400F70 00 00 00 00 00 00 00 00 00 00 00 00 00 00 00 00 ................
00400F80 00 00 00 00 00 00 00 00 00 00 00 00 00 00 00 00 ................
00400F90 00 00 00 00 00 00 00 00 00 00 00 00 00 00 00 00 ................
00400FA0 00 00 00 00 00 00 00 00 00 00 00 00 00 00 00 00 ................
00400FB0 00 00 00 00 00 00 00 00 00 00 00 00 00 00 00 00 ................
00400FC0 00 00 00 00 00 00 00 00 00 00 00 00 00 00 00 00 ................
00400FD0 00 00 00 00 00 00 00 00 00 00 00 00 00 00 00 00 ................
00400FE0 00 00 00 00 00 00 00 00 00 00 00 00 00 00 00 00 ................
00400FF0 00 00 00 00 00 00 00 00 00 00 00 00 00 00 00 00 ................
00401000 12 2B 14 07 95 2E 7B A8                         .+....{.       

l00401008:
	or	dl,bh
	or	dl,ch
	or	edi,esi
	add	edi,esi
	inc	edi
	sub	dh,al
	mov	edx,eax
	or	esi,edx
	sub	dl,bl
	jmp	004010D9
0040101E                                           E0 DE               ..
00401020 19 10 4C 1E 12                                  ..L..          

l00401025:
	dec	edi
	or	edi,esi
	add	esi,ecx
	dec	edx
	inc	esi
	sub	edi,ebx
	mov	esi,edi
	sub	esi,ecx
	dec	esi
	call	004010B5
	int	74
	cmp	[esi+8B55234A],bl

fn0040103E()
	push	ebp
	mov	ebp,esp
	xor	edx,eax
	xor	esi,edx
	xor	edx,ebx
	sub	edx,esi
	add	edi,ebx
	jmp	00401025
0040104D                                        EA 56 5B              .V[
00401050 CE B4 95 16 33 C8 8B DF 0B F7 8B C2 4A 2B D0 E9 ....3.......J+..
00401060 BF 00 00 00 41 76 2D 01 B7 C8 8B D7 46 4E 46 03 ....Av-.....FNF.
00401070 FA 2B F0 C9 7C DE F3 7D DB 5F 85 2C C6 A3 FD 5F .+..|..}._.,..._
00401080 C4 03 D6 03 FA 0B D6 8B D6 03 F2 8B FA 2B F2 03 .............+..
00401090 D6 EB D7 46 64 C6 55 1F 32 F1 0A D4 4A 2A D1 F6 ...Fd.U.2...J*..
004010A0 DA 4F 0A D7 47 03 F8 02 D5 74 D6 7B 00 72 00 75 .O..G....t.{.r.u
004010B0 D0 83 77 6A 84                                  ..wj.          

fn004010B5()
	xchg	[esp],ebx
	push	si
	pop	si
	pop	ebx
	mov	esi,ecx
	mov	esi,edi
	dec	edi
	or	esi,edi
	inc	edi
	jl	00401101

l004010C7:
	lea	ecx,[ecx]
	jmp	004010CF
004010CE                                           86                  .

l004010CF:
	jge	00401101

l004010D1:
	xor	ecx,[esi]
	bound	ebp,[F624654E+ecx]

l004010D9:
	neg	dh
	add	dh,bh
	inc	esi
	mov	dl,dh
	add	edi,ecx
	mov	dh,ch
	mov	dh,D9
	add	edi,ecx
	sub	dl,cl
	or	edi,eax
	jmp	00401098
	xlat	
	or	eax,edi
	pop	edi
	lea	esp,ss:[esp+04]

fn004010F3()
	lea	esp,[esp+04]
	sub	ebx,eax
	add	ecx,ebx
	dec	eax
	add	edx,edi
	inc	edi
	jmp	0040116E

l00401101:
	mov	edx,eax
	add	edx,eax
	xor	edx,esi
	mov	esi,eax
	dec	esi
	inc	edx
	add	edx,eax
	jl	00401008

l00401110:
	illegal	
	jmp	ecx

l00401113:
	jmp	00401119
00401118                         27                              '      

l00401119:
	jge	00401008

l0040111F:
	or	eax,[eax+ebx*4]
	add	cl,[ebx+FB034FF0]
	or	eax,ebx
	sub	edx,ebx
	add	edx,ebx
	dec	edi
	dec	esi
	jmp	00401136
00401132       46 C4 55 03                                 F.U.         

l00401136:
	mov	ebx,ecx
	add	esi,eax
	xor	ebx,esi
	dec	eax
	sub	eax,ecx
	inc	esi
	mov	ebx,eax
	xor	ebx,ecx
	mov	ebx,edi
	call	00401150
	mov	edi,6C1B7DCB

fn00401150()
	pop	dword ptr [esp-34]
	or	ebx,eax
	sub	eax,edx
	dec	esi
	or	ecx,eax
	or	edx,ecx
	xor	eax,ebx
	dec	edi
	inc	esi
	call	004010F3
	dec	eax
	inc	ebx
	jmp	far AC16:BA17
0040116D                                        72                    r 

fn0040116E()
	call	00401EED
	movsb	
	and	bl,gs:[esi]
	xchg	[ebp+51BF1D43],dl
	lahf	
	jpo	00401110
	nop	
	nop	
	add	eax,1DF10F1D
	mov	ss,cx
	illegal	
	jl	0040118D
	sbb	[edi+9090A6D5],ebx
	lahf	
	sub	dl,[eax+BFB49090]
	stc	
	les	edx,[ebx+73]
	nop	
	cwde	
	cmp	[ebp+01],ebp
	lahf	
	call	far F190:9001
	jl	0040120B
	illegal	
	jl	004011BD
	sbb	[bx-80],edi
	illegal	
	sbb	eax,1039C10F
	xor	ecx,esi
	pop	ecx
	mov	eax,31909001
	mov	ah,9F
	test	dword ptr [ecx],D87B9090
	push	ds
	call	90813EF2
	push	esi
	mov	ecx,766636CF
	lahf	
	mov	cl,11
	nop	
	nop	
	imul	edi,[ecx],8C1DCA60
	jno	00401205
	adc	[ecx],edi
	sbb	eax,94396721
	nop	
	pop	eax
	xor	[ecx+ebp-50],dl
	test	[ebp+F10155B4],esi
	pop	ecx
	mov	ecx,B9909071
	and	eax,71C89F02
	nop	
	nop	
	sti	
	pop	ds
	nop	
	pop	ss
	sbb	[ebp-67],edi
	push	ebp
	xor	dword ptr [esi+ebp],A9C15800
	inc	ebp
	xchg	eax,edx
	sub	byte ptr [ecx+4709A243],92
	or	byte ptr [ecx],41
	mov	[9021159F],al
	nop	
	inc	edx
	xchg	eax,ecx
	and	al,BB
	scasd	
	ja	004011CF
	mov	cl,9D
	illegal	
	pop	ecx
	push	ss
	add	byte ptr [eax+8E559980],D0
	pop	es
	nop	
	nop	
	nop	
	nop	
	stc	
	push	ebp
	rol	byte ptr [edi],01
	mov	[edx],es
	bound	edx,[ebx-07]
	push	ebp
	adc	[edi],al
	int	CD
	int	CD
	lahf	
	cmpsd	
	jno	004011DE
	nop	
	sbb	[ecx+E4B2BE61],bl
	dec	edx
	illegal	
	cmp	[ecx+349090A1],esp
	popf	
	xadd	[ecx-70],eax
	nop	
	illegal	
	cmp	[ebp+34909051],ebp
	mov	[edi],cs
	xor	byte ptr [ecx],90
	nop	
	illegal	
	cmp	[esi+51],ecx
	nop	
	nop	
	cmp	al,21
	adc	eax,C89F818B
	and	[eax+64E28890],edx
	xchg	eax,edx
	illegal	
	pop	edi
	xor	[eax+0F9D3290],edx
	out	dx,al
	xor	[eax+3D302890],edx
	mov	bl,C8
	inc	ebx
	add	ebx,[ecx+17C243C8]
	popf	
	sub	eax,09079001
	test	byte ptr [esi+31EB0F8E],90
	nop	
	pop	es
	sbb	eax,85200EE3
	jle	80D0A347
	lea	edi,[ecx+2D9D8F55]
	inc	ecx
	nop	
	push	esi
	lahf	
	cmp	eax,04909031
	mov	ebp,[edx+E6868323]
	popf	
	sub	eax,B95690C1
	iret	
	xchg	[ecx+299FC158],bh
	xchg	eax,ecx
	nop	
	nop	
	arpl	[esi+esi*4+10F87DA8],bx
	jmp	0040129E
	illegal	
	add	[ecx+C156B33E],edi
	xor	[esi+8ABAD9C4],esi
	nop	
	nop	
	nop	
	mov	ecx,01D5B9B2
	lahf	
	pop	ds
	jno	0040128E
	nop	
	shr	[ebp-31],cl
	dec	edi
	cmp	[ecx+39],ah
	adc	al,bh
	js	0040132B
	adc	eax,5DB95A15
	lahf	
	out	dx,ax
	nop	
	nop	
	nop	
	nop	
	sub	al,C5
	and	eax,E749F151
	inc	ecx
	nop	
	nop	
	sbb	byte ptr [eax-72],0F
	jcxz	004012C6
	nop	
	nop	
	sbb	byte ptr [eax-32],80
	pop	eax
	mov	cs,[edi]
	mov	al,[9F909011]
	insb	
	xor	[eax+62D68E90],edx
	das	
	illegal	
	pop	ecx
	jns	004012CF
	nop	
	nop	
	sbb	byte ptr [eax+0F],80
	pop	eax
	dec	esi
	illegal	
	adc	[eax+8ED5B990],edx
	mov	ecx,45B9C415
	adc	[ebx],eax
	lahf	
	les	esp,[ecx]
	nop	
	nop	
	in	al,dx
	lodsd	
	call	90DBBE1D
	nop	
	nop	
	mov	[eax+32],cl
	push	esp
	nop	
	nop	
	nop	
	mov	[ebp+0FD05880],al
	movsd	
	add	byte ptr [eax+61AF9F80],90
	nop	
	xor	[ebp+01],edx
	lahf	
	outsb	
	popa	
	nop	
	nop	
	idiv	byte ptr [ecx+25]
	push	ds
	pushf	
	illegal	
	jns	00401333
	jno	0040131E
	nop	
	mul	dh
	mov	dh,9D
	sub	eax,B9569001
	iret	
	cmp	[ebp-30],ecx
	lahf	
	outsb	
	add	[eax+6028C390],edx
	cmpsb	
	mov	ebx,[edx]
	pop	ebx
	pop	esp
	cmp	[eax+59F190C1],edi
	mov	edi,F6909031
	out	B6,al
	popf	
	lahf	
	illegal	
	lock	
	add	byte ptr [eax+3C30003C],3D
	mov	cx,ds
	lahf	
	popa	
	adc	[eax+35B91690],edx
	inc	edx
	xor	[ebp+4E],edx
	mov	ecx,D531C1B5
	mov	es,[eax+839F8138]
	jno	0040136C
	nop	
	sahf	
	fidivr	dword ptr [eax+35]
	xchg	eax,ecx
	fldcw	word ptr [ebp-2A]
	push	ds
	illegal	
	dec	ecx
	jpo	004013DB
	add	byte ptr [eax+629F9D32],80
	add	byte ptr [eax+049F051A],21
	nop	
	nop	
	in	eax,dx
	imul	edi,esp,30
	lodsb	
	jpe	004013FC
	cmp	al,11
	mov	cx,B300
	pop	dword ptr [eax+4B]
	out	9F,al
	push	es
	add	[eax+21969F90],edx
	nop	
	nop	
	ja	004013B6
	sbb	esi,[edi]
	enter	E7BD,9C
	cmp	[ebp-7F],ebp
	pop	es
	nop	
	test	[eax+43C59990],dl
	mov	cx,ds
	lds	eax,[ebx-74]
	push	ss
	cdq	
	inc	esi
	inc	ebx
	mov	cx,ds
	inc	esi
	inc	ebx
	mov	[esi],fs
	cmpsd	
	add	byte ptr [ebp+90411A9F],90
	mov	[eax-20],edx
	ret	1E2D
	mov	[1E0FC967],eax
	or	eax,55B9A028
	adc	[ecx+55B90E55],bl
	iret	
	lahf	
	repne	
	loopne	004013DB
	xor	cl,04
	retf	
	adc	ah,[ecx]
	and	bh,95
	mov	cl,9D
	illegal	
	pop	ecx
	pop	ebx
	xchg	eax,ecx
	nop	
	nop	
	mov	dh,9D
	sub	eax,B95690C1
	iret	
	jbe	00401416
	push	esi
	jno	0040140A
	nop	
	scasd	
	mov	cl,52
	mov	ebx,A8E7C17D
	mov	ecx,B97666CF
	illegal	
	cmp	dword ptr [ecx+D8B9C158],B94B4001
	jge	0040148B
	out	9F,al
	fiadd	dword ptr [ecx]
	nop	
	nop	
	mov	bl,A6
	arpl	[edi+1E],bx
	add	[eax],ah
	xor	[esi],ecx
	xor	[esi+ADB9AE31],ebx
	inc	eax
	dec	ebx
	xor	[eax-30],ebx
	cmp	[edi+B9AE00A1],ebp
	lodsd	
	lahf	
	mov	ah,01
	nop	
	nop	
	xchg	[edi+6D],dh
	xor	byte ptr [ebx],80
	cmp	[ecx],al
	test	[edi],ecx
	in	eax,dx
	popa	
	nop	
	nop	
	xchg	eax,esi
	cmp	[9DB19503],edi
	lahf	
	lock	
	add	byte ptr [eax+4B2DEE94],4F
	push	ebp
	test	[edi],eax
	or	esi,esi
	xchg	[esi+9011180F],cl
	nop	
	pop	es
	out	4D,al
	add	bh,ch
	test	[edi],ecx
	cmp	esi,eax
	add	byte ptr [eax+9031419F],90
	bound	ebx,ecx
	rcl	dl,0F
	out	11,al
	nop	
	nop	
	and	cl,[eax+edi+A059F100]
	lock	
	add	byte ptr [eax+71069FAB],90
	nop	
	lahf	
	shl	[ecx],cl
	nop	
	nop	
	std	
	mov	dword ptr [eax+36],0F85F9AB
	dec	eax
	lock	
	add	byte ptr [eax+55B98D80],01
	popf	
	sub	eax,B9569001
	iret	
	pop	es
	nop	
	mov	[eax+C155D990],dl
	lahf	
	retf	
	inc	ecx
	nop	
	nop	
	sahf	
	std	
	push	ebp
	sub	[eax+500F8E58],al
	jno	004014D7
	nop	
	mov	ecx,B6314ED6
	les	eax,[eax+58804638]
	dec	esi
	sbb	byte ptr [eax-72],0F
	leave	
	xor	[eax+B57CF190],edx
	popa	
	sbb	[90909010],edi
	lahf	
	push	es
	lock	
	add	byte ptr [eax+19BA0B2B],A7
	nop	
	cmpsd	
	nop	
	pop	es
	or	esi,esi
	xchg	[esi+9090CE0F],cl
	nop	
	pop	es
	insb	
	add	byte ptr [ebx+34],85
	illegal	
	lock	
	add	byte ptr [eax+55D98D80],50
	test	[edi+8080E0E1],ebx
	fbstp	tword ptr [edi+1D31FF2C]
	cdq	
	push	ebp
	int	B9
	illegal	
	mov	es,[eax+5880CD58]
	lea	esi,[esi]
	illegal	
	jno	0040153A
	nop	
	cmovz	esp,ss:[ecx]
	nop	
	nop	
	mov	ecx,515C9F3D
	nop	
	nop	
	xor	dh,ch
	enter	FC11,8F
	mov	eax,[8E55B93E]
	mov	ecx,C484310D
	mov	ecx,1D310384
	cdq	
	push	ebp
	lea	ebx,[edi+9090210E]
	stc	
	jnz	004015B7
	retf	
	mov	cs,bx
	push	ss
	test	eax,322088AD
	and	ebp,ebp
	mov	cs:[ecx+9F0D2EAD],gs
	in	eax,31
	nop	
	nop	
	out	6E,al
	bound	edi,es:[ecx+2D310884]
	mov	ecx,8287B910
	xor	[eax],esi
	mov	ecx,D5990205
	rcr	byte ptr [edi+909031C1],01
	hlt	
	or	eax,B6A3B163
	mov	bl,A2
	cmp	eax,ebx
	rcl	dword ptr [eax+21A559F1],90
	nop	
	mov	ecx,E6F61055
	mov	dh,9D
	sub	eax,B9569081
	iret	
	lahf	
	push	cs
	jno	004015BC
	nop	
	mov	al,CC
	jmp	far 1DE8:0ADD
	mov	es,[ecx]
	retf	
	illegal	
	nop	
	nop	
	nop	
	aam	90
	fcom	dword ptr [eax+3D39F190]
	rol	byte ptr [eax+51D08880],01
	lahf	
	dec	esp
	rol	byte ptr [eax+65506980],01
	rep	
	out	B6,al
	popf	
	sub	eax,B9569001
	iret	
	inc	edi
	mov	ecx,90908352
	nop	
	mov	ecx,86BFC126
	mov	byte ptr [edx-6F],9C
	les	edx,[ecx]
	and	[esi],ebp
	pop	eax
	push	ecx
	test	eax,2E226562
	cmp	eax,9F159D34
	inc	ecx
	rol	byte ptr [eax+52226980],01
	mov	dword ptr [esi+CFB90554],D9504D39
	push	ebp
	rol	byte ptr [ebp+80C1D819],01
	adc	byte ptr [eax+1179F190],31
	nop	
	nop	
	sbb	byte ptr [eax-3F],A7
	nop	
	lahf	
	xor	[ecx],ah
	nop	
	nop	
	adc	ch,ah
	cmp	dword ptr [esi-33],2D9D8D80
	inc	ecx
	nop	
	push	esi
	mov	ecx,8F4D39CF
	sbb	byte ptr [eax+01],D9
	push	ebp
	adc	[edi+8080F092],bl
	aaa	
	illegal	
	outsb	
	out	29,al
	mov	ecx,C13D39AE
	mov	ecx,22B9C126
	lahf	
	mov	esp,[ecx]
	nop	
	nop	
	mov	ecx,8C3483A5
	lahf	
	xor	eax,eax
	add	byte ptr [eax+80B0709F],80
	sti	
	wait	
	adc	eax,B9F53247
	illegal	
	dec	esi
	xor	[esi+02B6D9C4],esi
	cmp	byte ptr [eax],04
	stc	
	push	ebp
	into	
	cmp	byte ptr [eax],04
	cmp	byte ptr [eax],C2
	cmp	byte ptr [eax],04
	cmp	byte ptr [eax],C2
	mov	edi,1CD5FC47
	adc	eax,ED59F188
	inc	ecx
	nop	
	nop	
	mov	ecx,D5B90155
	sar	dword ptr [ecx+01148156],14
	xor	esi,80C03B9F
	xor	byte ptr [edx+ebx+DED00A9A],C3
	mov	ecx,D631C1B6
	mov	es,[eax+5880CF58]
	dec	edi
	cmovg	esi,eax
	add	byte ptr [eax+9011E49F],90
	insb	
	test	al,70
	mov	edx,[ebp+90948815]
	illegal	
	pop	ecx
	outsb	
	adc	[eax+B0295490],edx
	test	[ebp+59F13DB4],esi
	pop	ds
	inc	ecx
	nop	
	nop	
	mov	ecx,B6BF4375
	or	esi,[eax+09]
	out	2B,al
	cli	
	loopne	004016EF
	cmp	dl,al
	illegal	
	push	ecx
	nop	
	nop	
	jpo	0FC0985C
	mov	dl,[eax+55999090]
	mov	es,[edi-47]
	rol	dword ptr [ebx+99909090],01
	adc	eax,CE588001
	lahf	
	mov	ebx,9A8080E0
	pop	es
	nop	
	add	bl,[edi+8080D0B1]
	mov	ecx,5531C135
	add	[ebp+8080910F],eax
	sbb	byte ptr [ecx+B439D055],90
	illegal	
	dec	ecx
	test	[ecx],dl
	nop	
	nop	
	lahf	
	jz	004017CA
	nop	
	nop	
	jmp	004017EA
	pop	edi
	or	eax,31D8F583
	sub	eax,C17CF196
	add	eax,31C275B9
	sub	eax,310941B9
	sub	eax,9041B89F
	nop	
	lahf	
	inc	edi
	inc	ecx
	nop	
	nop	
	push	edx
	cmpsb	
	or	dword ptr [esi+90C12D9D],39CFB956
	dec	ebp
	shl	byte ptr [esi],01
	jbe	004017A8
	illegal	
	add	[edi+90903156],ebx
	stosb	
	xadd	[ecx],esi
	scasb	
	mov	[eax+D911A78D],es
	push	ebp
	adc	[ebp+855055D9],al
	pop	es
	or	esi,esi
	xchg	[esi+80F0750F],cl
	sbb	byte ptr [edi+909041CA],11
	push	esp
	push	eax
	movsb	
	mov	dh,9D
	sub	eax,B9569041
	iret	
	cmpsd	
	test	[edi],al
	nop	
	adc	dword ptr [eax+11039F90],90
	nop	
	loopne	00401826
	out	dx,ax
	dec	ebp
	illegal	
	lock	
	add	byte ptr [eax+59F1BDB3],4C
	rol	byte ptr [eax+F0440F80],80
	sbb	byte ptr [edi+8080B03D],CB
	lahf	
	pop	edx
	rol	byte ptr [eax+66FC3B80],64
	jmp	far 58B9:DDB2
	add	[ecx+D66CF1F0],edi
	adc	bl,[edi+8080E0CB]
	cmp	eax,ebx
	shl	dword ptr [ecx+41B929F1],90
	nop	
	mov	ecx,9C2E343D
	mov	eax,[9F909090]
	xor	edx,eax
	add	byte ptr [eax+54555432],A9
	push	esi
	fiadd	word ptr [eax]
	push	ebp
	rol	byte ptr [ecx],01
	nop	
	nop	
	nop	
	dec	eax
	and	al,[eax+58808F58]
	push	eax
	sbb	byte ptr [eax+4F],36
	bswap	ecx
	xor	[eax+4F559990],edx
	sbb	byte ptr [eax+10],9F
	pop	es
	adc	[eax+5D156890],edx
	rep	
	jg	00401916
	sbb	byte ptr [eax+0F],A7
	nop	
	seta	byte ptr [eax+55998080]
	dec	esi
	mov	ecx,B6318ED6
	les	ebx,[ecx]
	cmp	eax,90901182
	lahf	
	inc	edi
	lock	
	add	byte ptr [eax+D6F3F530],BA
	sbb	al,07
	or	esi,esi
	xchg	[esi+80E0E80F],cl
	add	byte ptr [edi],BB
	pop	es
	xor	[eax-7B],edx
	jpo	85C09997
	cmp	eax,C05A9F56
	add	byte ptr [eax+BB5DD978],B9
	xor	al,BF
	xor	[ecx+58318138],edi
	add	[ecx+D83181B8],edi
	add	[edi+909011E6],ebx
	fistp	dword ptr [edi+8080B036]
	jmp	far D58C:F716
	out	dx,al
	mov	ah,9C
	mov	ecx,9D34C1D6
	lahf	
	mov	bl,31
	nop	
	nop	
	push	ss
	mov	ecx,34AD31E1
	mov	[edi+8080F013],ds
	sbb	eax,1124718C
	lahf	
	bound	esi,eax
	add	byte ptr [eax+FEFCAC20],B1
	adc	[esi+edx*4-55],edi
	xor	[esi],ebx
	sbb	eax,95D9312D
	cmp	byte ptr [ecx],1D
	mov	eax,9FB8A039
	in	al,dx
	loopne	004018D0
	cmp	byte ptr [6F548B77],F7
	fst	dword ptr [ebp-3F]
	test	[edi+0155D990],esp
	test	[edi+F6090780],esp
	xchg	[esi+80D0CF0F],cl
	add	byte ptr [edi],67
	and	ss:[80C05B9F],esp
	cmp	al,38
	push	B9
	adc	bl,[eax+80F09A9F]
	cmp	byte ptr [edi+3422B941],8C
	mov	ah,3E
	illegal	
	pop	ecx
	add	eax,9F8080E0
	imul	esi,eax,63848080
	insb	
	push	edx
	mov	edx,9011AA9F
	nop	
	cmpsd	
	nop	
	fst	dword ptr [ebp+50]
	test	[eax+0785C158],eax
	or	esi,esi
	xchg	[esi+9011489F],cl
	nop	
	sub	al,A4
	sub	al,7F
	aas	
	jmp	004019B3
	push	ebp
	push	eax
	pop	es
	int	CD
	int	CD
	stc	
	push	ebp
	pop	dword ptr [edi]
	nop	
	nop	
	nop	
	stc	
	push	ebp
	illegal	
	nop	
	nop	
	nop	
	stc	
	push	ebp
	dec	edi
	pop	es
	sub	[ecx+55F95646],ch
	iret	
	lahf	
	retf	9031
	nop	
	sbb	edi,[edi+eax*4+85EB5350]
	fst	dword ptr [ebp+01]
	test	[edi+F6090780],esp
	xchg	[esi+80D0170F],cl
	add	byte ptr [edi],BB
	pop	es
	xor	[eax-7B],edx
	illegal	
	mov	al,[8D808080]
	lahf	
	cdq	
	adc	[eax+E505EA90],edx
	test	[edx],eax
	sbb	byte ptr [eax+4F],36
	setbe	byte ptr [eax+55008080]
	rol	byte ptr [ecx-70],01
	nop	
	nop	
	illegal	
	dec	ecx
	out	21,al
	nop	
	nop	
	test	[eax+E69F4E58],eax
	and	[eax+BE041290],edx
	jbe	004019C6
	or	eax,01D8314A
	adc	[edx+39],esi
	insd	
	and	[ecx],edi
	lahf	
	and	[ecx+F659F19D],esi
	add	[eax+41B63180],al
	cmp	[eax+549F0141],edi
	mov	al,[92278080]
	inc	edx
	jo	00401A32
	test	[ecx],ah
	test	[eax+B60FD058],eax
	adc	[eax+E439BB80],al
	nop	
	illegal	
	pop	ecx
	call	far 3980:80F0
	cmp	eax,A0349F42
	add	byte ptr [eax+7AE05516],C4
	sbb	ebp,[edi]
	push	es
	mov	esi,0C064342
	xor	[eax+2E349090],edx
	jmp	A0ACB99E
	add	byte ptr [eax+5303BBA0],B3
	push	ebp
	inc	edx
	cdq	
	push	ebp
	rcr	dword ptr [ecx+D8881055],81
	nop	
	illegal	
	dec	ecx
	cmp	al,al
	add	byte ptr [eax+81556CF1],99
	push	ebp
	rcr	byte ptr [edi+8080E03B],01
	or	byte ptr [ecx+B2A91103],9B
	test	[eax+55D98158],eax
	rol	dword ptr [ebp+850155D9],A7
	add	byte ptr [edi],09
	test	byte ptr [esi+C0690F8E],80
	sbb	byte ptr [edi+90902145],0D
	dec	esi
	dec	edx
	insb	
	imul	eax,ebp,12
	pop	dword ptr [ecx+7B49F1BE]
	adc	[eax+C1D5B480],al
	illegal	
	dec	ecx
	jmp	far 3180:8010
	illegal	
	add	[edi+80808026],ebx
	mov	ecx,9F3941B5
	add	[ecx+709A9F40],edi
	add	byte ptr [eax+0E594F28],EC
	push	9B
	test	[esi],edx
	cmovle	esp,eax
	add	byte ptr [eax+31C135B9],55
	mov	es,[eax+EA9F4338]
	mov	al,[57D68080]
	arpl	[esi+C0D30F3D],bx
	add	byte ptr [eax+004DE607],EF
	test	[edi],ecx
	not	byte ptr [eax]
	add	byte ptr [eax+58808D80],01
	pop	es
	or	esi,esi
	xchg	[esi+9021D89F],cl
	nop	
	lock	
	xor	ah,[ebx]
	ret	31AA
	mov	dh,C4
	fstcw	word ptr [edx+90909088]
	mov	ecx,F1BEB1B2
	dec	ecx
	push	esi
	adc	[eax+01D63180],al
	lahf	
	xor	al,D0
	add	byte ptr [eax+1385F85E],82
	push	esp
	fsave	word ptr [ecx]
	test	ah,al
	add	byte ptr [edi+560F3644],70
	add	byte ptr [eax+81909CB6],90
	nop	
	mov	ecx,55B90E56
	int	9D
	mov	ecx,101A9F50
	add	byte ptr [eax+8CD516CB],27
	in	al,dx
	popf	
	sub	eax,B9569001
	iret	
	cmp	[ebp-30],ecx
	fst	dword ptr [ebp-30]
	lahf	
	bound	eax,[eax+FC938080]
	jl	00401BE2
	mov	edi,11B09F83
	nop	
	nop	
	mov	edx,41BE8D9E
	inc	ebx
	mov	esi,1DEE4341
	mov	esi,BFF14341
	out	dx,al
	sbb	eax,90117E9F
	nop	
	idiv	dword ptr [edx+F6459476]
	mov	ecx,0158B900
	mov	ecx,C1D5B9F0
	mov	ecx,1D398156
	mov	eax,80E0679F
	cmp	byte ptr [ecx],9F
	mov	eax,80A0FF9F
	cmp	byte ptr [ecx+12],CD
	shr	dword ptr [C136B9E0],B9
	cmp	cl,al
	mov	edi,B9D2BF21
	ret	7DB4
	pop	eax
	inc	edx
	sbb	byte ptr [eax+01],F9
	add	al,gs:[eax+41BF8158]
	inc	ebp
	sahf	
	mov	al,[C265F982]
	mov	edi,B464B961
	xor	[eax-02],bl
	mul	dh
	mov	dh,9F
	fadd	st(0),st(0)
	add	byte ptr [eax+83589FCF],56
	mov	ecx,104D39CF
	jbe	00401BEB
	push	ebp
	rcr	dword ptr [edi+8080F0C6],5A
	test	[edi+49],bl
	xchg	eax,esp
	pop	ecx
	pop	edi
	push	ss
	mov	edi,968C3421
	cmp	[ebp+41],ebp
	adc	eax,F1D0D5B4
	sub	ebp,ecx
	rol	byte ptr [eax+B09FF680],01
	mov	al,[DCFF8080]
	jl	00401C51
	add	edi,[ecx+2CD001D8]
	mov	[esi+edi*4],dh
	dec	ebx
	cmp	al,21
	illegal	
	mov	al,80
	sbb	byte ptr [edi+8080603F],E5
	retf	1CB5
	jbe	00401C34
	push	ebp
	add	[ecx],esi
	test	ah,al
	mov	ecx,A79F0156
	mov	al,[F4548080]
	loopne	00401CCD
	illegal	
	jo	00401C10
	cmp	byte ptr [edi+4F5880C1],85
	sbb	byte ptr [eax+4E],0F
	xchg	eax,ebp
	rol	byte ptr [eax+D0550080],01
	adc	dword ptr [eax+E79F9090],C3808070
	ret	EB02
	pop	esi
	or	ebx,ebx
	push	cs
	pop	es
	xor	bl,[eax]
	mov	cl,1C
	test	[edi],ecx
	push	cs
	jo	00401C3D
	add	byte ptr [eax+8F55D98D],85
	fst	dword ptr [ebp+50]
	test	[edi+8080102B],ebx
	xchg	[edx+7509FFAD],esp
	popf	
	sub	eax,B9569001
	iret	
	jbe	00401C97
	fadd	st(0),st(1)
	inc	edi
	mov	ecx,909083D2
	nop	
	mov	ecx,219FC1B6
	add	byte ptr [eax+8D8E5F80],56
	and	[ecx+eax+A1BF4B40],dl
	mov	ecx,4B40C1D5
	lahf	
	jc	00401CA2
	add	byte ptr [eax+93D055B9],55
	adc	[ecx],bh
	mov	[ecx+9FC15593],fs
	rcl	byte ptr [eax],01
	add	byte ptr [eax+FDD07B23],BF
	test	eax,C1CC07A6
	insd	
	cmp	[ebp+8070F70F],al
	add	byte ptr [eax+D055B98D],9D
	sub	eax,33BF90C1
	lock	
	jge	00401CDB
	scasb	
	jpo	00401CF3
	popf	
	sub	eax,B95690C1
	iret	
	jbe	00401D75
	mov	[ecx+D8B9C1D5],ds
	add	[eax-55],eax
	idiv	byte ptr [edi+DFFDD469]
	mov	esp,[eax]
	rcr	[edx],cl
	stosd	
	push	esi
	mov	ecx,015880CF
	cmpsd	
	add	byte ptr [edi],09
	test	byte ptr [esi+10300F8E],80
	add	byte ptr [edi],3F
	mov	bl,49
	pop	esi
	test	[edi],ecx
	inc	ebx
	jo	00401CF1
	sbb	byte ptr [edi+8080A064],D7
	sbb	[55B95DB7+eax*2],edx
	mov	ss,[ecx]
	test	ah,al
	mov	ecx,D5998505
	into	
	cmpsd	
	test	[eax+5880CE58],al
	mov	cs,[edi]
	adc	eax,esi
	add	byte ptr [eax+8010539F],80
	adc	eax,fs:[edi+4341BEAD]
	out	dx,al
	sbb	eax,D91DBFF1
	xchg	eax,ebp
	adc	[ecx],ebx
	mov	al,[114C0FB2]
	illegal	
	pop	ecx
	mov	al,E0
	add	byte ptr [eax+80D02D9F],80
	scasb	
	xchg	eax,esi
	popa	
	stc	
	xchg	ebx,esi
	pop	eax
	dec	edi
	illegal	
	adc	[eax+2E000780],al
	mov	dword ptr [eax+603D0F85],8D808080
	mov	ecx,2D9DD055
	add	[eax+80F0759F],edx
	xor	al,9F
	jns	00401E3F
	imul	ecx,[edx],56
	mov	ecx,CD4D39CF
	cmpsd	
	nop	
	illegal	
	adc	al,B9
	or	eax,90801F19
	nop	
	nop	
	cmpsd	
	adc	[edi+8080E0AB],ebx
	std	
	illegal	
	sbb	dh,[esi]
	mov	ecx,D6B9C1D5
	add	[edi+80807036],ebx
	mov	ecx,5E548155
	and	byte ptr [edx],54
	sbb	eax,28D3120D
	pop	ds
	push	42
	lahf	
	pop	ds
	inc	eax
	add	byte ptr [eax+4D2ADB8D],AF
	cmp	eax,1A9A3CC2
	leave	
	sub	eax,E5028C13

fn00401E34()
	add	ah,ch
	mov	dh,EC
	dec	esi
	mov	esi,BB61C23A
	xor	ch,dl
	or	cl,al
	sub	cl,al
	jbe	0040231C

l00401E4A:
	mov	ch,ch
	jmp	00401E51

l00401E51:
	ja	0040231C

l00401E57:
	sub	[edi+C68BE180],bl
	dec	eax
	or	edx,esi
	xor	dh,cl
	inc	edi
	add	edx,eax
	mov	al,1F
	xor	eax,edi
	neg	ah
	mov	dl,3F
	jmp	00402055
00401E72       93 24 EC 7B CC                              .$.{.        

l00401E77:
	mov	dh,al
	dec	eax
	add	dh,cl
	mov	ah,dl
	sub	eax,ebx
	neg	ah

fn00401E82()
	mov	dh,96
	sub	eax,edx
	jmp	00402507
00401E8B                                  EB 6C 21 E1 B1            .l!..

l00401E90:
	or	bh,ah
	neg	bl
	neg	bl
	xor	edi,edx
	xor	ebx,esi
	xor	bh,al
	mov	bh,bl
	call	004029D3
	les	ecx,[ebp+66]
	cli	
	mov	[edx+448F6E1D],esp

fn00401EAB()
	pop	dword ptr [esp-30]

fn00401EAD()
	and	al,D0
	mov	dh,64
	add	bl,al
	or	bl,bh
	xor	esi,edi
	movzx	edx,al
	add	bl,cl
	xor	ebx,ecx
	jmp	00402379
00401EC3          59 64 2D 61 0C                            Yd-a.       

fn00401EC8()
	xor	esi,ecx
	sub	bh,dl
	dec	edi
	or	bh,dh
	add	ebx,esi
	xor	esi,ebx
	neg	bh
	add	ebx,esi
	js	00401FE9

l00401EDD:
	xchg	eax,eax
	jns	00401FE9

l00401EE5:
	leave	
	loope	00401E82

l00401EE8:
	push	es
	imul	ecx,[edi],D48AAE4F

fn00401EED()
	mov	dl,ah

fn00401EEF()
	or	edi,edx
	add	edx,ebx
	inc	eax
	neg	ch
	sub	ecx,ebx
	mov	edx,eax
	mov	eax,ebx
	jbe	00402A4A

fn00401F02()
	xchg	eax,eax
	ja	00402A4A

l00401F0A:
	pop	ecx
	ret	39A1
00401F0E                                           3E B4               >.
00401F10 F3 9E                                           ..             

l00401F12:
	inc	esi
	sub	esi,ecx
	xor	dl,ch
	mov	edx,eax
	mov	dh,al
	add	esi,eax
	or	dl,ah
	mov	dl,cl
	add	eax,edx
	jbe	004025A1

l00401F29:
	rep	
	ja	004025A1
	inc	esi
	dec	ebx
	mov	[ebx+55],gs
	lds	esi,[ecx]
	hlt	

l00401F38:
	sub	bl,al
	neg	bh
	mov	bl,bh
	mov	bh,al
	sub	esi,eax
	inc	esi
	inc	ebx
	jc	00402116

l00401F4A:
	xchg	ch,ch
	jnc	00402116

l00401F52:
	sbb	edx,34876FCF

fn00401F56()
	xchg	[esp],esi

fn00401F58()
	and	al,F2
	pop	esi
	mov	cl,[edi]
	mov	ah,2C
	mov	al,dh
	mov	dl,ah
	inc	eax
	jmp	004022DA
00401F69                            F5 C7 BF C5 C3 A2 1C          .......

l00401F70:
	inc	edi
	mov	bh,AA
	add	eax,ecx
	add	bl,bh
	add	edi,edx
	add	bl,ah
	call	0040202F
	retf	
	mov	[0A0A8A35],eax
	cmp	[CA0BDBF6],esi

fn00401F88()
	neg	bl
	or	ecx,edx
	mov	ch,21
	xor	ch,al
	mov	bh,28
	inc	esi
	xor	bl,ch
	add	edx,0000000C
	jmp	004028AD
00401FA0 78 9C 18 82 45 59                               x...EY         

fn00401FA6()
	mov	[esp],edi
	xchg	ch,ch
	mov	edi,edi
	pop	edi
	sub	ah,dh
	not	cl
	mov	eax,edx
	sub	dh,cl
	neg	dl
	or	eax,edi
	jle	004027FA

l00401FC0:
	xchg	bh,bh
	jpo	00401FC4

l00401FC4:
	jg	004027FA

l00401FCA:
	pop	es
	mov	ebx,87DDEED7

fn00401FCF()
	xchg	[esp],ecx

fn00401FD0()
	or	al,24
	mov	bh,bh
	pop	ecx
	mov	ecx,edx
	or	edx,eax
	xor	ecx,ebx
	mov	ecx,eax
	call	004021EE
	call	1BECA973
	shl	dh,cl

l00401FE9:
	inc	ebx
	neg	bl
	add	bl,ch
	xor	edi,ebx
	mov	bh,al
	mov	bh,DA
	add	ebx,ecx
	sub	bl,dh
	jo	004025F7

l00401FFE:
	jle	00402000

l00402000:
	repne	
	jno	004025F7
	test	al,EF
	and	byte ptr [esi],E6
	scasd	

fn0040200D()
	mov	eax,edi
	or	eax,edi
	dec	eax
	xor	esi,edx
	neg	bh

fn00402016()
	dec	ecx
	xor	eax,edx
	sub	edx,esi
	jz	0040229B

l00402021:
	rep	
	mov	bl,bl
	jnz	0040229B
	lock	
	stosb	
	cmp	eax,0487E959

fn0040202F()
	xchg	[esp],eax
	lea	ax,[eax]
	pop	eax
	xor	bl,ch
	sub	bh,dh
	xor	bh,ch
	mov	bl,BE
	jl	004023DF

l00402044:
	mov	si,si
	xchg	esi,esi
	jge	004023DF

l0040204F:
	pop	ebp
	mov	ss,di
	pop	ebx
	illegal	

fn00402055()
	neg	al
	dec	edx
	sub	dh,dl
	mov	edx,ecx
	inc	edx
	xor	eax,ecx
	jmp	004023C8
00402064             BA 1E 24 B5 21 F4 4B                    ..$.!.K    

fn0040206B()
	lea	esp,[esp+04]
	or	dh,bl
	add	eax,edx
	xor	cl,bl
	xor	ch,al
	mov	edx,eax
	mov	cl,D2
	jmp	00402180
00402080 F8 69 AF 12                                     .i..           

l00402084:
	sub	dl,cl
	sub	al,dl
	mov	edx,edi
	mov	bh,04
	neg	bl
	add	ecx,eax
	add	edi,ebx
	add	dh,al
	or	ebx,esi
	dec	edx
	jmp	00402333
0040209C                                     1C 9B 12 45             ...E
004020A0 D9 35 E6 4F                                     .5.O           

fn004020A4()
	xchg	[esp],edi
	jz	004020A9

l004020A9:
	pop	edi
	inc	ebx
	xor	bh,ah
	add	eax,08
	add	edi,ebx
	add	esi,edi
	dec	ebx
	mov	bh,B8
	jl	00402562

l004020BD:
	mov	ah,ah
	rep	
	jge	00402562
	sbb	eax,F63CC5CB
	adc	dh,al

l004020CD:
	or	esi,eax
	add	eax,edx
	inc	esi
	dec	edi
	inc	edi
	dec	edi
	mov	edi,esi
	dec	esi
	jz	0040223F

l004020DE:
	repne	
	jnz	0040223F
	arpl	[edi+1698EBD2],bx
	neg	dl
	add	edx,ebx
	sub	ebx,edi
	sub	cl,dl
	add	al,cl
	mov	ah,23
	mov	edx,ebx
	xor	cl,al

fn004020FB()
	mov	ch,63
	mov	ebx,ecx
	sub	ebx,edx
	xor	esi,edx
	neg	dh
	dec	edx
	mov	dh,dl
	xor	ecx,ebx
	jmp	0040247E
0040210F                                              A4                .
00402110 33 9F 45 6B 9D 59                               3.Ek.Y         

fn00402116()
	or	eax,eax
	jnz	00402016
	add	edi,ebx
	xor	esi,edx
	sub	esi,eax
	or	edi,ecx
	xor	edi,eax
	or	ebx,ecx
	xor	bl,cl
	jz	00402B29
	push	esi
	pop	esi
	rep	
	jnz	00402B29
	or	dl,cl
	jno	004020E2
	mov	cl,36
	inc	eax

l00402143:
	neg	ah
	mov	al,95
	inc	eax
	mov	eax,edi
	xor	ah,bh
	xor	ah,al
	sub	edx,73BCB835
	dec	eax
	call	004024EA
	rcr	[edx-2B],cl
	lock	
	aaa	

fn0040215F()
	pop	dword ptr [esp-20]
	mov	ah,D9
	xor	ah,dl
	add	al,cl
	mov	al,14
	or	eax,edi
	dec	eax
	or	ah,cl
	sub	ah,cl
	inc	eax
	call	0040276B
	popa	
	push	esp
	jcxz	00402194

l0040217C:
	inc	ecx
	not	edx
	clc	

fn00402180()
	sub	eax,esi
	sub	eax,ecx
	add	esi,edx
	xor	eax,ecx
	dec	eax
	mov	dl,dh
	jl	00401E34

fn00402191()
	mov	bx,bx

fn00402194()
	jge	00401E34

l0040219A:
	jno	004021B7

l0040219C:
	imul	esp,esp,8747A06C

fn004021A1()
	xchg	[esp],edi
	xchg	bl,bl
	push	ebx
	pop	ebx
	pop	edi
	dec	eax
	xor	al,ch
	dec	edx
	add	edx,eax
	jo	004022FA

l004021B5:
	mov	edi,edi

fn004021B7()
	jno	004022FA
	test	eax,5E93A5B8
	xchg	eax,edx

fn004021C3()
	sub	ebx,00000C74
	sub	edx,esi
	dec	edx
	sub	eax,esi
	mov	dl,9C
	inc	esi
	xor	al,ah
	dec	edx
	neg	dl
	add	edx,ebx
	jpe	0040239B

l004021DE:
	lea	edx,[edx]
	mov	dh,dh
	jpo	0040239B

l004021E8:
	shr	byte ptr [ebx+813DC90D],87

fn004021EE()
	xchg	[esp],ebx
	jmp	004021F7
004021F6                   49                                  I        

fn004021F7()
	jnc	004021F9

l004021F9:
	pop	ebx
	dec	edx
	or	eax,ebx
	mov	ecx,ebx
	xor	esi,BB61CE81
	or	ecx,ebx
	add	ecx,edx
	mov	edx,ecx
	jmp	00402654
00402210 3E 2C B0 2D 9C FD 87 04 24 86 FF F3 58 2A C2 0B >,.-....$...X*..
00402220 D6 8A C5 02 E5 2B D6 0F 8C 4E 07 00 00 E9 01 00 .....+...N......
00402230 00 00 CC 0F 8D 42 07 00 00 2D BD AA 36 88 F9    .....B...-..6..

fn0040223F()
	or	esi,edi
	add	eax,ebx
	mov	bh,bl
	add	edi,ecx
	neg	bh
	inc	ebx
	add	bl,al
	inc	ebx
	mov	bh,0F
	call	00402729
	pop	ds
	retf	1FD1
00402258                         D3 1D 7E 7F                     ..~.   

fn0040225C()
	lea	esp,[esp+04]
	xor	esi,edx
	or	ch,ah
	or	edx,eax
	sub	edx,ebx
	mov	ecx,esi
	dec	ecx
	js	00401F12

l00402271:
	xchg	ah,ah
	lea	cx,[ecx]
	jns	00401F12

l0040227C:
	adc	[ebx+957A3DEC],al

fn00402282()
	pop	dword ptr [esp-20]
	or	edx,ebx
	inc	eax
	or	edx,ecx
	mov	esi,ebx
	inc	esi
	mov	esi,edi
	xor	dl,cl
	call	00402C2E
	xchg	[ecx+F9035077],ebx

fn0040229B()
	add	edi,ecx

l0040229D:
	mov	al,ah
	sub	edx,esi
	mov	edx,ecx
	xor	esi,ecx
	dec	ebx
	mov	eax,esi
	or	bh,ch
	or	dl,bh
	call	00402933
	ret	CD82
004022B4             5C                                      \          

fn004022B5()
	dec	ebx
	or	bl,al
	inc	esi
	dec	edi
	or	edi,ebx
	or	esi,edx
	mov	bh,C7
	sub	edi,eax
	neg	bh
	jle	004028FB

l004022CA:
	xchg	di,di
	mov	dx,dx
	jg	004028FB

l004022D6:
	cld	
	insb	
	pop	edi
	and	[esi+33D12B0C],dh

fn004022DA()
	mov	dh,0C
	sub	edx,ecx
	xor	eax,edi

fn004022DF()
	mov	dword ptr [edx],8AD38BD6
	out	0B,al
	shl	[ebx],cl
	ret	
004022EA                               03 C2 48 E8 B4 FC           ..H...
004022F0 FF FF DA 50 E2 18 CA 7C 08 3C                   ...P...|.<     

fn004022FA()
	sub	cl,DE
	or	edx,ebx
	inc	edx
	xor	ah,cl
	xor	edx,ecx
	or	ah,ch
	sub	dh,bl
	js	00402999

l0040230E:
	jpo	00402310

l00402310:
	jge	00402312

l00402312:
	jns	00402999

l00402318:
	jnz	C7739771

fn0040231C()
	xor	eax,edi

fn0040231E()
	or	edx,esi
	or	dh,ch
	xor	edx,ebx
	inc	ecx
	mov	ch,4D
	neg	al
	call	00401FCF
	push	es
	mov	esp,2B202C50

fn00402333()
	sub	esi,edx

l00402334:
	repne	
	sub	ch,ah
	neg	cl
	ret	
0040233A                               03 DA 0A DD 02 C4           ......
00402340 0F 80 A5 FD FF FF 66 52 66 5A 66 87 D2 0F 81 98 ......fRfZf.....
00402350 FD FF FF E4 4E F1 89 0F 24                      ....N...$      

fn00402359()
	add	edi,edx
	mov	cl,49
	add	bl,ch
	xor	bl,ah
	dec	esi
	mov	bh,bl
	mov	eax,[edx]
	jo	00402AC8

l0040236C:
	mov	ah,ah
	rep	
	jno	00402AC8
	xlat	
	mov	[eax+esi*8],ss

fn00402379()
	xor	bl,bh
	neg	bh
	dec	ebx
	sub	esi,edi
	or	bl,al
	xor	edi,ecx
	neg	bh
	or	bh,dh
	jle	00402B59

l0040238E:
	mov	ah,ah
	jg	00402B59

l00402396:
	mov	es,cx
	lahf	
	inc	eax
	std	

fn0040239B()
	mov	dl,D2
	sub	eax,esi
	or	eax,ebx
	or	ecx,ebx
	inc	ecx
	xor	al,bh
	call	0040206B
	sbb	eax,027B620E

fn004023B0()
	add	edi,esi
	or	bh,dl
	add	bl,bh
	add	dh,ah
	mov	cl,76
	xor	bh,dl
	jmp	00402A12
004023C1    BE A5 DE 6F 19 CA 26                          ...o..&       

fn004023C8()
	mov	eax,ecx
	dec	edx
	add	eax,ecx
	xor	dl,dh
	neg	dl
	mov	al,2F
	inc	eax
	inc	ebx
	jmp	0040242C
004023D7                      02 54 A0 70 2D 55 3D 19           .T.p-U=.

l004023DF:
	add	bh,dl
	sub	bh,al
	xor	esi,ecx
	mov	edi,eax
	push	dword ptr [eax+10]
	or	esi,ebx
	sub	bh,al
	mov	bh,0F
	or	esi,ecx
	jl	004025E2

l004023F8:
	rep	
	lea	dx,[edx]
	jge	004025E2
	jge	00402467
	illegal	

fn00402406()
	lea	esp,[esp+04]
	sub	ch,bl
	or	ebx,eax
	neg	ah
	xor	edi,eax
	mov	cl,30
	neg	cl
	sub	cl,dh
	jo	00402623

l0040241E:
	rep	
	jno	00402623
	das	
	call	far E61E:0D05
	inc	esp

l0040242C:
	add	ah,cl
	xor	edx,ebx
	dec	eax
	xor	eax,ebx
	sub	dh,dl
	sub	al,ah
	mov	dl,7C
	or	al,cl
	mov	edx,eax
	neg	dh
	call	00402448
	and	eax,8D470B26

fn00402448()
	lea	esp,[esp+04]

fn00402449()
	and	al,04
	add	edx,ecx
	xor	dh,bl
	inc	edx
	or	ah,al
	mov	ah,ch
	dec	edx
	xor	dl,ch
	or	dh,al
	dec	esi
	call	00402A64
	pop	ebx
	cdq	
	dec	ebx
	cmpsd	
	fmul	dword ptr [ebx+FE2B58F2]

fn00402465()
	mov	esi,edx
	pop	eax
	sub	edi,esi
	xor	dh,cl
	inc	edi
	neg	dh
	add	bh,al
	jmp	00402B42
00402476                   77 05 74 34 E0 82 C8 1E             w.t4.... 

l0040247E:
	sub	ebx,edi
	neg	dh
	add	ecx,edi
	or	cl,al
	add	ecx,ebx
	sub	edx,eax
	or	ch,dl
	or	ecx,esi
	mov	ebx,eax
	call	0040294F
	ret	74D8
00402498                         1C                              .      

fn00402499()
	mov	[esp],edi
	lea	ecx,[ecx]
	mov	ch,ch
	pop	edi
	shl	ecx,0F
	mov	edi,esi
	neg	al
	inc	edi
	add	bl,dh
	add	esi,eax
	xor	al,cl
	jle	00402746

l004024B5:
	jmp	004024BB
004024BA                               58                          X    

l004024BB:
	rep	
	jg	00402746
	out	B2,al
	loop	004024DD

fn004024C6()
	xchg	[esp],edi
	xchg	di,di
	mov	dl,dl
	pop	edi
	dec	eax
	inc	eax
	sub	eax,ecx
	jle	00402143

l004024D9:
	rep	
	xchg	cx,cx
	jg	00402143
	enter	BE22,32
	pop	ss
	insd	
	cmpsb	

fn004024EA()
	lea	esp,[esp+04]
	xor	eax,edx
	neg	al
	xor	al,bl
	or	eax,edi
	add	eax,edi
	mov	eax,edi
	call	0040215F
	mov	al,A2
	sbb	eax,831404DD
	inc	esp

fn00402507()
	sub	edx,ecx
	sub	dh,cl
	sub	edx,esi
	neg	cl
	sub	ah,ch
	dec	edx
	or	dh,ah
	add	eax,edx
	neg	al
	jl	0040286B

l0040251E:
	xchg	cx,cx
	xchg	ax,ax
	jge	0040286B

l0040252A:
	lds	edi,[esi]
	xor	dh,[esi+EF02AD04]

fn00402530()
	add	ch,bh

fn00402532()
	mov	eax,ebx
	add	ecx,edi
	mov	ah,al
	mov	dh,2C
	sub	edx,ebx
	inc	ecx
	call	00401F56
	mov	byte ptr [edx],A2
	xor	al,8A

fn00402546()
	mov	bh,dh

l00402547:
	illegal	
	fdiv	dword ptr [ebx]
	rep	
	inc	esi
	or	bh,cl
	mov	ah,88
	add	ah,bl
	or	esi,edx
	jmp	00402465
0040255A                               03 20 D6 B2 2D 44           . ..-D
00402560 7B 5D                                           {]             

l00402562:
	mov	bl,FC
	add	ebx,ecx
	neg	bh
	sub	edi,ecx
	mov	esi,ebx
	sub	bh,cl
	jo	00402A88

l00402574:
	mov	cx,cx
	rep	
	jno	00402A88
	pop	ecx
	mov	al,9A
	lds	esi,[edi]
	test	dword ptr [ebx+2BE58AD6],02C30BC1

fn00402584()
	mov	edx,esi
	mov	ah,ch
	sub	eax,ecx
	or	eax,ebx
	add	ah,cl
	sub	eax,ecx
	xor	eax,edi
	mov	al,F9
	add	eax,edx
	call	004024C6
	popf	
	and	[33469061],eax

fn004025A1()
	xor	eax,edx
	or	ch,dh
	dec	edx
	add	ebx,00000C74
	mov	dl,bh
	neg	al
	mov	eax,edi
	or	edx,esi
	add	ecx,edi
	add	dh,al
	call	00402282
	push	ds
	jmp	ecx
004025C0 BB 78 F8                                        .x.            

fn004025C3()
	pop	dword ptr [esp-1C]
	or	esi,edi
	sub	ebx,eax
	mov	bl,3B
	add	bh,al
	add	bh,ch
	lea	eax,[eax+78]
	mov	bh,8F
	sub	esi,ecx
	jmp	00402712
004025DD                                        00 0A 21              ..!
004025E0 C5 C0                                           ..             

l004025E2:
	add	esi,eax
	sub	edi,ecx
	mov	bh,cl
	xor	edi,esi
	dec	edi
	neg	bh
	inc	edi
	jmp	00402811
004025F3          73 53 D3 C2                               sS..        

l004025F7:
	lea	edx,[eax+000000F8]
	mov	ebx,eax
	or	bl,dl
	or	bl,bh
	mov	bl,31
	neg	bl
	add	esi,edx
	mov	bl,bh
	mov	ebx,eax
	jc	00402791

l00402613:
	xchg	ah,ah
	push	esi
	pop	esi
	jnc	00402791

l0040261D:
	mov	[9C43A4F0],eax
	outsd	

fn00402623()
	or	al,dh
	mov	ebx,esi
	or	al,dh
	mov	dh,ch
	xor	al,bh
	xor	esi,eax
	jmp	00402084
00402634             EA 1A 8D 5E                             ...^       

fn00402638()
	pop	dword ptr [esp-30]
	inc	esi
	mov	ebx,edx
	or	bh,dl
	mov	esi,ebx
	or	bl,dl
	mov	esi,eax
	dec	esi
	jmp	00401F70
0040264D                                        60 30 DA              `0.
00402650 77 B0 E8 4F                                     w..O           

l00402654:
	xor	edx,ebx
	add	ch,al
	sub	edx,ebx
	or	eax,ebx
	inc	ecx
	neg	al
	mov	dl,ah
	or	eax,edx
	sub	eax,edi
	sub	al,cl
	jo	00402BC7

l0040266D:
	xchg	ax,ax
	repne	
	jno	00402BC7
	jo	00402668
	xchg	eax,edi
	add	[esi-75],ah

fn0040267C()
	mov	ecx,eax
	mov	edx,edi
	or	ebx,edi
	add	esi,ebx
	or	edi,edx
	mov	edi,ebx
	call	00402B7C
	mov	[ED182171],al

fn00402692()
	lea	esp,[esp+04]
	mov	edx,edi
	neg	bh
	add	al,cl
	add	ah,al
	or	eax,edx
	add	esi,edi
	or	al,dl
	xor	ah,cl
	call	00402499
	add	al,[0C8776BF]

fn004026AF()
	xchg	[esp],ecx
	repne	
	mov	bl,bl
	pop	ecx
	mov	dl,17
	xor	al,ah
	xor	dl,bh
	dec	eax
	call	00402216
	mov	edx,7D31238C

fn004026C7()
	lea	esp,[esp+04]
	mov	esi,edi
	or	esi,ecx
	mov	bl,bh
	or	bl,dh
	xor	eax,FFFFFEC8
	dec	edi
	inc	ebx
	sub	edi,edx
	sub	edi,esi
	jmp	004022B5
004026E3          3B 34 1D A5 56 34                         ;4..V4      

l004026E9:
	push	dword ptr [ecx]
	inc	ebx
	dec	ebx
	mov	dl,7F
	mov	ah,bl
	add	ah,cl
	neg	dl
	sub	dl,ah
	dec	edx
	add	dh,bl
	jl	00402546

l00402700:
	push	edi
	pop	edi
	xchg	esi,esi
	jge	00402546

l0040270A:
	call	far BDE2:7647
	jpo	004026F3
	xchg	eax,esp

fn00402712()
	dec	edi
	or	ebx,edi
	add	ebx,edx
	inc	esi
	mov	bl,A1
	xor	esi,ebx
	mov	bl,FE
	call	00402826
	aas	
	mov	bl,[ebp+2A]
	xchg	eax,edi

fn00402729()
	lea	esp,[esp+04]
	dec	ebx
	mov	ebx,ecx
	or	edi,edx
	xor	bh,dh
	xor	edi,ebx
	neg	bh
	sub	esi,edx
	add	bl,dl
	call	004026C7
	mov	byte ptr [ebx+6A],6D
	ror	byte ptr [edx+43F703C7],F6

fn00402746()
	mov	al,bh
	add	esi,edi
	inc	ebx
	neg	dh

fn0040274C()
	fimul	word ptr [ebx]
	illegal	
	fild	word ptr [ebx]
	cli	
	add	al,cl
	mov	dh,ch
	xor	eax,edx
	jz	004026E9

l0040275B:
	xchg	ax,ax
	jmp	00402764
00402763          C5                                        .           

l00402764:
	jnz	004026E9

l00402766:
	push	edi
	xlat	
	lds	edx,[ecx+2404894F]

fn0040276B()
	mov	[esp],eax

fn0040276E()
	jpe	00402770

fn00402770()
	pop	eax
	sub	eax,edi
	xor	al,dh
	cmp	edx,8C4347CB
	jnz	00402BCD

l00402781:
	or	bh,dh
	sub	eax,edi
	call	00402406
	out	54,al
	dec	ebx
	add	al,[ecx+4F4E6BD2]

fn00402791()
	dec	esi
	dec	edi
	inc	edi
	push	dword ptr [edx+08]
	or	ebx,eax
	or	bh,ah
	dec	ebx
	neg	bh
	sub	bl,bh
	call	004025C3
	xchg	eax,edx
	push	ecx
	mov	esi,[esi]
	push	ebp
	push	ebx
	sbb	[ebp+42],bl

fn004027AD()
	inc	edx

fn004027AE()
	add	edx,ebx
	inc	edx
	or	cl,bh
	sub	ah,dh
	mov	dl,al
	call	0040225C
	jno	004027C7

l004027BE:
	xor	eax,F58AF586
	inc	ebx
	inc	edx
	or	esi,edx

l004027C7:
	or	dh,ah
	or	bh,dh
	jc	0040200D

l004027D1:
	mov	ah,ah
	jnc	0040200D

l004027D9:
	out	dx,ax
	adc	[ecx],edi
	rcl	dword ptr [eax+33],01

fn004027DE()
	xor	eax,ecx

fn004027DF()
	rol	dword ptr [edx+0B],D1
	xor	eax,ebx
	add	dh,ch
	sub	ah,bl
	dec	eax
	mov	dl,5D
	mov	ah,2D
	xor	edx,eax
	jmp	00402584
004027F5                17 88 8E 6A 3F                        ...j?     

l004027FA:
	mov	al,44
	sub	ah,cl
	mov	dl,al
	dec	eax
	add	al,bl
	dec	edx
	neg	dl
	call	00402CD5
	ret	
0040280C                                     9F 36 13 5D             .6.]
00402810 C1                                              .              

l00402811:
	sub	edi,esi
	pop	edx
	add	bh,dh
	dec	ebx
	mov	bh,al
	xor	esi,edx
	sub	edi,ebx
	jmp	00402B04
00402822       A5 83 53 53                                 ..SS         

fn00402826()
	lea	esp,[esp+04]
	mov	bh,18
	or	esi,edx
	inc	ebx
	mov	bh,dl
	dec	edi
	inc	edi
	mov	bh,bl
	xor	bl,al
	sub	ebx,edi
	call	004020A4
	xchg	[eax-45],cl
	cmpsb	

fn00402842()
	lea	esp,[esp+04]
	xor	edx,esi
	xor	ecx,edx
	or	ah,dh
	neg	cl
	or	edi,eax
	mov	bl,B1
	add	edx,ebx
	sub	eax,edi
	dec	ecx
	jbe	00402A2E

l0040285D:
	xchg	si,si
	ja	00402A2E

l00402866:
	pushf	
	adc	[edx+D7331961],esp

fn0040286B()
	xor	edx,edi

fn0040286D()
	or	dh,bh
	mov	ah,cl
	dec	edx
	sub	edx,ecx
	dec	eax
	add	dh,ah
	add	al,cl
	jmp	00402C14
0040287E                                           3C A0               <.
00402880 F3 E1 44 7A FA 8B                               ..Dz..         

l00402886:
	dec	ebx
	or	ebx,esi
	neg	bh
	dec	ebx
	sub	edi,ecx
	mov	eax,ecx
	add	edi,ebx
	add	bl,dh
	mov	bl,B7
	jl	00401E90

l0040289C:
	jmp	004028A2
004028A1    71                                            q             

l004028A2:
	jge	00401E90

l004028A8:
	cmc	
	or	[ebp+FB33CCBF],esi

fn004028AD()
	xor	edi,ebx
	mov	bh,67
	xor	ebx,edi
	or	cl,ch
	neg	cl
	xor	ebx,ecx
	jpe	00402AB3

fn004028BF()
	mov	ah,ah
	xchg	dh,dh
	jpo	00402AB3

l004028C9:
	push	esi
	pop	esi
	nop	
	mov	ebp,[ebx]

fn004028CD()
	sub	eax,ecx

fn004028CE()
	rol	dword ptr [ebx],CE
	sub	dl,ah
	add	edx,ebx
	sub	dh,ch
	add	eax,edi
	mov	esi,eax
	add	ecx,ebx
	sub	cl,dh
	sub	esi,edx
	jpe	004021C3

fn004028E7()
	jmp	004028ED
004028EC                                     2C                      ,  

l004028ED:
	jpo	004021C3

l004028F3:
	lahf	
	or	al,fs:[ebx-6A]
	popf	
	pop	ss

fn004028FB()
	inc	ebx
	sub	edi,edx
	sub	bh,al
	sub	esi,edx
	sub	ebx,eax
	mov	bh,7C
	neg	bl
	jmp	00402BFD
0040290D                                        AA E4 AC              ...
00402910 47 B2 20 54                                     G. T           

fn00402914()
	lea	esp,[esp+04]
	sub	dl,al
	add	eax,edi
	inc	ebx
	push	40
	inc	edx
	xor	cl,bl
	xor	edx,edi
	add	ebx,ecx
	xor	cl,dh
	call	00402842
	push	es
	xchg	eax,esi
	xor	ecx,edi
	push	edx
	dec	edi

fn00402933()
	pop	dword ptr [esp-28]
	dec	edx
	add	eax,ecx
	shr	ecx,0F
	add	dh,cl
	mov	dl,dh
	sub	bl,dh
	mov	ah,30
	call	00402692
	fstenv	word ptr [875883F4]

fn0040294F()
	xchg	[esp],edx
	jpe	00402954

l00402954:
	mov	bl,bl
	pop	edx
	mov	[esp-08],eax
	xor	bh,dl
	mov	dh,al
	xor	dl,bh
	sub	ecx,edx
	neg	dh
	sub	edx,ebx
	js	0040267C

l0040296D:
	xchg	di,di
	jns	0040267C

l00402976:
	push	ds
	repne	
	dec	esp
	push	ebp
	xor	eax,E22AD733
	xor	edx,edi
	mov	[ebx],ch
	dec	edx
	mov	al,26
	mov	eax,esi
	or	ah,bl
	dec	edx
	xor	al,ch
	jmp	00401E5B
	adc	dword ptr [edx+F7D84E3A],A4

fn00402999()
	sub	eax,esi
	mov	eax,edx
	mov	edx,ecx
	xor	eax,ebx
	xor	edx,edi
	or	ah,dl
	add	dh,dl
	neg	ah
	xor	ah,cl
	xor	ah,bl
	jmp	00402C86
004029B2       74 B2 A2 DA 43                              t...C        

fn004029B7()
	sub	bl,dl
	call	004029BE

fn004029BE()
	xor	dl,bh
	add	ah,al
	or	ch,bh
	or	dl,al
	sub	bl,bh
	inc	edx
	call	00402AE6
	pop	ds
	and	cl,dh
	mov	al,[24648DDA]

fn004029D3()
	lea	esp,[esp+04]
	neg	bl
	add	edi,eax
	or	ebx,edi
	add	eax,[eax+3C]
	mov	bl,dh
	add	ebx,esi
	sub	esi,eax
	jl	00401EC8

l004029EC:
	push	si
	pop	si
	xchg	edi,edi
	jge	00401EC8

l004029F8:
	lodsd	
	mov	esi,ebp
	add	[esi-3F],eax

fn004029FC()
	inc	esi
	shr	eax,10

fn004029FE()
	call	2C3E5513
	clc	
	add	edi,ebx
	xor	esi,edi
	jmp	004020CD
00402A0D                                        B2 0E BA              ...
00402A10 F6 21                                           .!             

fn00402A12()
	push	00
	mov	bl,29
	sub	dl,al
	inc	esi
	add	edx,ecx
	add	ecx,ebx
	add	ebx,esi
	dec	edx
	or	edx,ebx
	mov	dl,D8
	jmp	00402C46
00402A29                            E7 C6 F1 21 4E                ...!N 

fn00402A2E()
	add	dh,cl
	add	dh,ch
	add	edi,ebx
	inc	eax
	push	00003000
	neg	ch
	inc	ebx
	neg	bl
	mov	edx,eax
	jmp	00402C6B
00402A46                   10 04 B2 9A                         ....     

fn00402A4A()
	add	edi,ecx
	dec	esi
	xor	bl,cl
	xor	al,bl
	mov	al,cl
	xor	esi,eax
	dec	edi
	neg	al
	call	00402914
	illegal	
	mov	dword ptr [8D2C7BEF],0A042464

fn00402A64()
	lea	esp,[esp+04]
	or	dh,cl
	sub	dl,ah
	inc	eax
	or	eax,esi
	xor	edx,esi
	jbe	004027DE

l00402A77:
	xchg	ah,ah
	push	dx
	pop	dx
	ja	004027DE

l00402A83:
	rep	
	and	bh,[eax+F80B9230]

fn00402A88()
	or	edi,eax
	or	bh,ah
	add	esi,edx
	mov	edi,eax
	inc	esi
	inc	edi
	xor	bl,bh
	mov	eax,[eax]
	mov	bl,al
	jo	00402CBE

l00402A9E:
	jmp	00402AA4
00402AA3          E9                                        .           

l00402AA4:
	xchg	edx,edx
	jno	00402CBE

l00402AAC:
	illegal	
	cdq	
	ret	
	fist	word ptr [edx+44B50BA6]

fn00402AB3()
	mov	ch,44
	or	edi,eax
	xor	cl,dh
	mov	ch,al
	or	edi,esi
	inc	ecx
	jmp	00402359
00402AC3          D2 F7 B4 25 C5                            ...%.       

l00402AC8:
	add	ecx,edi
	add	dl,cl
	mov	ch,6C
	mov	edi,ebx
	mov	dh,bl
	dec	esi
	neg	bh
	mov	ebx,esi
	neg	dl
	jmp	004023B0
00402ADE                                           E5 AE               ..
00402AE0 50 8D EA F8 47 0C                               P...G.         

fn00402AE6()
	mov	[esp],edx
	repne	
	mov	bl,bl
	pop	edx
	mov	bl,F3
	inc	ebx
	xor	edi,ecx
	add	bh,ah
	pop	ecx
	mov	edx,esi
	jmp	00402BE4
	popa	
	illegal	
	mov	ch,E5
	daa	
	push	ds

fn00402B04()
	xor	bl,dh
	add	bh,ch
	mov	esi,edx
	mov	bl,5F
	add	ebx,eax
	mov	bh,D6
	add	bl,cl
	add	bl,ch
	or	edi,eax
	sub	bl,cl
	js	00402D0E
	repne	
	jns	00402D0E
	or	edx,[eax+16]
	fsave	word ptr [edx]
	illegal	
	stc	
	or	bh,ch
	or	bl,ch
	mov	bl,ah
	add	bl,ch
	sub	bl,bh

fn00402B37()
	jmp	00402886
00402B3C                                     4F 24 80 E3             O$..
00402B40 A5 15                                           ..             

fn00402B42()
	mov	bl,02
	dec	esi
	inc	esi
	sub	edx,esi
	add	edx,edi
	or	dl,al
	call	00401EAB
	dec	eax
	sar	byte ptr [770CE787],01
	cli	

fn00402B59()
	movzx	ebx,ah
	or	edi,esi
	inc	edi
	dec	esi
	sub	esi,ecx
	sub	esi,edi
	sub	esi,ecx
	dec	edi
	jl	004029FC
	xchg	bl,bl
	rep	
	jge	004029FC
	mov	[edx],bh
	pop	ebx
	or	ecx,[edx-32]

fn00402B7C()
	pop	dword ptr [esp-14]
	add	bh,bl
	xor	dh,cl
	xor	ebx,esi
	mov	ebx,eax
	sub	edi,esi
	add	edi,edx
	mov	al,bl
	dec	eax
	xor	edi,edx
	js	00402CF5

l00402B97:
	jz	00402B99

l00402B99:
	lea	dx,[edx]
	jns	00402CF5

l00402BA2:
	and	al,E6
	sbb	al,33
	js	00402BAA

l00402BA8:
	jge	00402B37

fn00402BA9()
	lea	esp,[esp+04]

fn00402BAA()
	and	al,04
	rol	cl,11
	mov	al,dh
	or	dh,bl
	xor	edx,edi
	sub	edx,ebx
	add	eax,esi
	or	al,ch
	call	004021A1
	hlt	
	add	al,76
	mov	gs,[edx]
	sbb	[ebx],ebp

fn00402BC7()
	sub	edx,ecx
	mov	ah,6A
	mov	edx,eax

fn00402BCD()
	mov	dl,ah
	add	edx,ebx
	xor	edx,esi
	mov	al,bl
	sub	ah,dl
	mov	ch,C6
	jmp	00402530
00402BDE                                           BC CB               ..
00402BE0 D5 BF 92 3E 33 D1 0B FE 2A E2 0A C5 47 02 E1 8B ...>3...*...G...
00402BF0 DF E9 CB FB FF FF CB 54 3D 89 D2 F9 22          .......T=..."  

l00402BFD:
	not	eax
	add	bl,al
	inc	edi
	dec	esi
	or	bh,ch
	add	edi,ecx
	xor	ebx,ecx
	xor	bh,dh
	jmp	00401F38
00402C10 F7 3D F9 2F                                     .=./           

fn00402C14()
	sub	al,bh
	sub	dl,cl
	mov	dl,5A
	mov	ch,cl
	mov	eax,esi
	inc	edx
	neg	al
	add	ah,bh
	mov	dh,bl
	call	004026AF
	and	eax,648DFD8D

fn00402C2E()
	lea	esp,[esp+04]
	xor	ah,ch
	dec	eax
	push	ebx
	sub	ecx,edi
	neg	ah
	jmp	004028CD
00402C3F                                              58                X
00402C40 52 0D 4D BB D0 C6                               R.M...         

l00402C46:
	dec	ebx
	mov	dl,57
	xor	dh,cl
	xor	esi,eax
	xor	esi,eax
	or	esi,eax
	call	eax
	xor	dh,dl
	xor	bh,dl
	js	004020FB

fn00402C5D()
	lea	edi,[edi]
	jns	004020FB

l00402C65:
	and	al,11
	rcr	byte ptr [edi],00
	fdecstp	st(6),st(0)

fn00402C6B()
	neg	al
	sub	esi,eax
	add	edi,ecx
	sub	eax,esi
	mov	dh,2D
	dec	esi
	xor	eax,esi
	inc	esi
	dec	edi
	jmp	004029B7
00402C7F                                              51                Q
00402C80 53 56 C8 FB CE 8C                               SV....         

l00402C86:
	mov	edx,ebx
	ror	cl,05
	neg	dl
	dec	edx
	xor	edx,ebx
	inc	eax
	mov	dh,bl
	sub	al,ah
	sub	dh,ch
	add	dl,bh
	jmp	00401E77
00402C9E                                           38 D1               8.
00402CA0 2F 69 BF 4D                                     /i.M           

fn00402CA4()
	pop	dword ptr [esp-0C]
	pop	edi
	xor	ah,bh
	xor	esi,edi
	sub	eax,edi
	mov	edx,esi
	dec	edx
	dec	esi
	add	edx,edi
	jmp	004027AD
00402CBA                               A9 9C 23 98                 ..#. 

l00402CBE:
	mov	bl,5B
	sub	bh,ah
	mov	bh,87
	add	edi,eax
	dec	ebx
	mov	esi,ecx
	mov	bl,B4
	call	00402638
	or	bh,[ebp+05]
	push	ds
	stosb	

fn00402CD5()
	xchg	[esp],esi
	push	edx
	pop	edx
	pop	esi
	mov	ah,ch
	mov	dl,D1
	add	edx,esi
	mov	dh,bh
	add	eax,esi
	neg	al
	sub	eax,ebx
	call	00402BA9
	sub	al,DC
	dec	edx
	scasb	
	xor	eax,F733CCF0

fn00402CF5()
	xor	esi,edi
	neg	cl
	add	ecx,eax
	sub	eax,ecx
	inc	edx
	neg	cl
	add	esi,ecx
	dec	esi
	sub	dl,cl
	call	00402CA4
	and	[edi],ecx
	sub	ch,[ebx+ecx*2-75]

fn00402D0E()
	dec	ebx
	mov	ebx,edi
	mov	ebx,eax
	mov	ebx,edx
	add	edx,ecx
	sub	ecx,edi
	or	ebx,eax
	sub	ch,dl
	sub	bl,dh
	jle	00401F88

l00402D25:
	rep	
	jg	00401F88
	jg	00402D37
	push	eax
	xor	eax,[eax]
	add	[eax],al
	add	[eax],al
	add	[eax],al
	add	[eax],al
	add	[eax],al
	add	[eax],al
	add	[eax],al
	add	[eax],al
	add	[eax],al
	add	[eax],al
	add	[eax],al
	add	[eax],al
	add	[eax],al
	add	[eax],al
	add	[eax],al
	add	[eax],al
	add	[eax],al
	add	[eax],al
	add	[eax],al
	add	[eax],al
	add	[eax],al
	add	[eax],al
	add	[eax],al
	add	[eax],al
	add	[eax],al
	add	[eax],al
	add	[eax],al
	add	[eax],al
	add	[eax],al
	add	[eax],al
	add	[eax],al
	add	[eax],al
	add	[eax],al
	add	[eax],al
	add	[eax],al
	add	[eax],al
	add	[eax],al
	add	[eax],al
	add	[eax],al
	add	[eax],al
	add	[eax],al
	add	[eax],al
	add	[eax],al
	add	[eax],al
	add	[eax],al
	add	[eax],al
	add	[eax],al
	add	[eax],al
	add	[eax],al
	add	[eax],al
	add	[eax],al
	add	[eax],al
	add	[eax],al
	add	[eax],al
	add	[eax],al
	add	[eax],al
	add	[eax],al
	add	[eax],al
	add	[eax],al
	add	[eax],al
	add	[eax],al
	add	[eax],al
	add	[eax],al
	add	[eax],al
	add	[eax],al
	add	[eax],al
	add	[eax],al
	add	[eax],al
	add	[eax],al
	add	[eax],al
	add	[eax],al
	add	[eax],al
	add	[eax],al
	add	[eax],al
	add	[eax],al
	add	[eax],al
	add	[eax],al
	add	[eax],al
	add	[eax],al
	add	[eax],al
	add	[eax],al
	add	[eax],al
	add	[eax],al
	add	[eax],al
	add	[eax],al
	add	[eax],al
	add	[eax],al
	add	[eax],al
	add	[eax],al
	add	[eax],al
	add	[eax],al
	add	[eax],al
	add	[eax],al
	add	[eax],al
	add	[eax],al
	add	[eax],al
	add	[eax],al
	add	[eax],al
	add	[eax],al
	add	[eax],al
	add	[eax],al
	add	[eax],al
	add	[eax],al
	add	[eax],al
	add	[eax],al
	add	[eax],al
	add	[eax],al
	add	[eax],al
	add	[eax],al
	add	[eax],al
	add	[eax],al
	add	[eax],al
	add	[eax],al
	add	[eax],al
	add	[eax],al
	add	[eax],al
	add	[eax],al
	add	[eax],al
	add	[eax],al
	add	[eax],al
	add	[eax],al
	add	[eax],al
	add	[eax],al
	add	[eax],al
	add	[eax],al
	add	[eax],al
	add	[eax],al
	add	[eax],al
	add	[eax],al
	add	[eax],al
	add	[eax],al
	add	[eax],al
	add	[eax],al
	add	[eax],al
	add	[eax],al
	add	[eax],al
	add	[eax],al
	add	[eax],al
	add	[eax],al
	add	[eax],al
	add	[eax],al
	add	[eax],al
	add	[eax],al
	add	[eax],al
	add	[eax],al
	add	[eax],al
	add	[eax],al
	add	[eax],al
	add	[eax],al
	add	[eax],al
	add	[eax],al
	add	[eax],al
	add	[eax],al
	add	[eax],al
	add	[eax],al
	add	[eax],al
	add	[eax],al
	add	[eax],al
	add	[eax],al
	add	[eax],al
	add	[eax],al
	add	[eax],al
	add	[eax],al
	add	[eax],al
	add	[eax],al
	add	[eax],al
	add	[eax],al
	add	[eax],al
	add	[eax],al
	add	[eax],al
	add	[eax],al
	add	[eax],al
	add	[eax],al
	add	[eax],al
	add	[eax],al
	add	[eax],al
	add	[eax],al
	add	[eax],al
	add	[eax],al
	add	[eax],al
	add	[eax],al
	add	[eax],al
	add	[eax],al
	add	[eax],al
	add	[eax],al
	add	[eax],al
	add	[eax],al
	add	[eax],al
	add	[eax],al
	add	[eax],al
	add	[eax],al
	add	[eax],al
	add	[eax],al
	add	[eax],al
	add	[eax],al
	add	[eax],al
	add	[eax],al
	add	[eax],al
	add	[eax],al
	add	[eax],al
	add	[eax],al
	add	[eax],al
	add	[eax],al
	add	[eax],al
	add	[eax],al
	add	[eax],al
	add	[eax],al
	add	[eax],al
	add	[eax],al
	add	[eax],al
	add	[eax],al
	add	[eax],al
	add	[eax],al
	add	[eax],al
	add	[eax],al
	add	[eax],al
	add	[eax],al
	add	[eax],al
	add	[eax],al
	add	[eax],al
	add	[eax],al
	add	[eax],al
	add	[eax],al
	add	[eax],al
	add	[eax],al
	add	[eax],al
	add	[eax],al
	add	[eax],al
	add	[eax],al
	add	[eax],al
	add	[eax],al
	add	[eax],al
	add	[eax],al
	add	[eax],al
	add	[eax],al
	add	[eax],al
	add	[eax],al
	add	[eax],al
	add	[eax],al
	add	[eax],al
	add	[eax],al
	add	[eax],al
	add	[eax],al
	add	[eax],al
	add	[eax],al
	add	[eax],al
	add	[eax],al
	add	[eax],al
	add	[eax],al
	add	[eax],al
	add	[eax],al
	add	[eax],al
	add	[eax],al
	add	[eax],al
	add	[eax],al
	add	[eax],al
	add	[eax],al
	add	[eax],al
	add	[eax],al
	add	[eax],al
	add	[eax],al
	add	[eax],al
	add	[eax],al
	add	[eax],al
	add	[eax],al
	add	[eax],al
	add	[eax],al
	add	[eax],al
	add	[eax],al
	add	[eax],al
	add	[eax],al
	add	[eax],al
	add	[eax],al
	add	[eax],al
	add	[eax],al
	add	[eax],al
	add	[eax],al
	add	[eax],al
	add	[eax],al
	add	[eax],al
	add	[eax],al
	add	[eax],al
	add	[eax],al
	add	[eax],al
	add	[eax],al
	add	[eax],al
	add	[eax],al
	add	[eax],al
	add	[eax],al
	add	[eax],al
	add	[eax],al
	add	[eax],al
	add	[eax],al
	add	[eax],al
	add	[eax],al
	add	[eax],al
	add	[eax],al
	add	[eax],al
	add	[eax],al
	add	[eax],al
	add	[eax],al
	add	[eax],al
	add	[eax],al
	add	[eax],al
	add	[eax],al
	add	[eax],al
	add	[eax],al
	add	[eax],al
	add	[eax],al
	add	[eax],al
	add	[eax],al
	add	[eax],al
	add	[eax],al
	add	[eax],al
	add	[eax],al
	add	[eax],al
	add	[eax],al
	add	[eax],al
	add	[eax],al
	add	[eax],al
	add	[eax],al
	add	[eax],al
	add	[eax],al
	add	[eax],al
	add	[eax],al
	add	[eax],al
	add	[eax],al
	add	[eax],al
	add	[eax],al
	add	[eax],al
	add	[eax],al
	add	[eax],al
	add	[eax],al
	add	[eax],al
	add	[eax],al
	add	[eax],al
	add	[eax],al
	add	[eax],al
	add	[eax],al
	add	[eax],al
	add	[eax],al
	add	[eax],al
	add	[eax],al
	add	[eax],al
	add	[eax],al
	add	[eax],al
	add	[eax],al
	add	[eax],al
	add	[eax],al
	add	[eax],al
	add	[eax],al
	add	[eax],al
	add	[eax],al
	add	[eax],al
	add	[eax],al
	add	[eax],al
	add	[eax],al
	add	[eax],al
	add	[eax],al
	add	bl,dl
00403000 D3 00 06 90 59 00 2C 00 76 4F 08 97 86 F0 6F 82 ....Y.,.vO....o.
00403010 3C 79 08 FF 53 8E BA 6D 58 95 1A 62 90 99 70 4C <y..S..mX..b..pL
00403020 17 F3 C1 00 9E E5 9E 88 01 00 0E E2 03 02 F7 00 ................
00403030 62 C5 C3 F8 A7 32 72 84 67 D0 39 00 45 35 B4 00 b....2r.g.9.E5..
00403040 64 00 C0 00 64 C1 00 31 81 11 20 7B E9 D1 00 C3 d...d..1.. {....
00403050 40 8A DB 39 00 13 61 9E 64 52 C2 12 67 4C F5 FF @..9..a.dR..gL..
00403060 2D CA 08 FF B5 25 A9 D8 87 1F 4A 93 CB CB 9F BC -....%....J.....
00403070 10 00 90 00 FF 99 85 A2 A6 9E D4 9B 16 D9 00 58 ...............X
00403080 55 C6 15 C3 F7 87 1A A0 FF 4D 77 58 11 78 9D F8 U........MwX.x..
00403090 42 0B D8 FF 83 8F CA 1C 90 58 FC 00 31 2B 6D 59 B........X..1+mY
004030A0 FF 24 E2 01 5C 60 FB CB 00 FF 3E 54 02 56 FF 36 .$..\`....>T.V.6
004030B0 66 E6 00 C6 10 60 03 09 7E 00 D5 8A 71 E0 A5 25 f....`..~...q..%
004030C0 91 A1 0E EC 2F 2B 12 35 00 4B 68 CA 00 88 C9 9E ..../+.5.Kh.....
004030D0 2D 6C A0 BC E6 5C 86 19 30 1F 3B 54 29 DB D5 81 -l...\..0.;T)...
004030E0 09 7E FF 48 08 62 D9 1F E0 12 71 80 40 00 4D 58 .~.H.b....q.@.MX
004030F0 15 8F 00 B5 4F 00 F7 1F 0C 7E 00 0D 57 3F BF 77 ....O....~..W?.w
00403100 4C 01 87 D0 6F 6D 5D 39 EE 8D C0 46 6D FF 24 8E L...om]9...Fm.$.
00403110 5E B3 44 FF 3B 44 69 F9 85 B7 B4 4C 34 00 3A 34 ^.D.;Di....L4.:4
00403120 A1 BF 03 17 F7 62 C3 00 FB AE D1 05 00 E6 43 49 .....b........CI
00403130 3D E5 44 B8 00 5A B8 41 41 2F 8D 00 D5 CF 84 D4 =.D..Z.AA/......
00403140 75 C8 B5 49 BA 4D 7B 66 00 87 6C 1F ED C2 CC 99 u..I.M{f..l.....
00403150 B3 3F 13 00 00 CF 00 93 CF 48 44 6C F3 C4 06 96 .?.......HDl....
00403160 FF 63 00 21 BC 31 DF 4B EC EF B4 42 78 36 47 AD .c.!.1.K...Bx6G.
00403170 00 24 00 DE 80 00 FF 24 00 0E 0F 28 85 00 E2 E2 .$.....$...(....
00403180 64 59 7C 00 70 21 AF 36 D4 23 7F FF 03 F5 FF C2 dY|.p!.6.#......
00403190 56 7F 4B FF F9 78 60 40 CD 33 5A DF BF 31 00 DE V.K..x`@.3Z..1..
004031A0 E6 D9 8D 72 73 5B 5C 00 ED FF 39 0E E5 F7 00 00 ...rs[\...9.....
004031B0 3E 7A 81 00 DD 92 ED 33 8F F0 48 A8 35 4C F0 8B >z.....3..H.5L..
004031C0 19 0A 05 C6 FF 8B 76 3B CD D3 0E 00 88 01 CF 57 ......v;.......W
004031D0 0C 3B 1E 68 4E B2 C4 17 3C 00 B1 00 3E 61 3C 55 .;.hN...<...>a<U
004031E0 3A 6E 00 D4 1D C1 3D 04 1A CD 55 7C 11 C5 40 36 :n....=...U|..@6
004031F0 B7 53 E7 8F C6 08 3E 2E 27 FE D1 38 38 D6 40 DE .S....>.'..88.@.
00403200 00 62 C6 4E 00 50 60 54 7A CF D3 00 98 A2 B5 79 .b.N.P`Tz......y
00403210 85 E7 14 35 F6 D9 A7 1B 63 8A C0 BD 00 FF 10 B2 ...5....c.......
00403220 09 48 B8 B4 9A 02 52 9D 7C EC E8 51 19 FF 34 00 .H....R.|..Q..4.
00403230 5B 2D EE 34 51 FF C2 00 F3 1F C0 1B 95 42 00 04 [-.4Q........B..
00403240 01 17 00 62 7E DC 9A 00 94 09 FB FF 1F A5 A8 AF ...b~...........
00403250 68 DB 99 00 A0 00 00 20 00 D0 8A AE E5 57 80 FF h...... .....W..
00403260 00 E3 8F 11 26 AF D2 0E 75 C9 00 00 E3 00 62 2C ....&...u.....b,
00403270 35 28 00 00 7E 40 CF 00 F4 6B 00 00 18 1C 4C 88 5(..~@...k....L.
00403280 FF 3A 40 BD 2E A6 11 7F 9B 64 6F 9B D2 09 7B 59 .:@......do...{Y
00403290 74 7C 00 F7 11 2E 1F 9F 0C A2 8C 74 7F A4 0C 44 t|.........t...D
004032A0 30 82 56 00 93 00 EC F1 02 04 2C E7 BF 22 B0 3B 0.V.......,..".;
004032B0 00 1A 00 97 0F 08 4B 00 62 10 33 EA 38 2E DE 00 ......K.b.3.8...
004032C0 FF 00 C1 73 25 E4 CC 55 CD 06 CD E0 88 CE 22 43 ...s%..U......"C
004032D0 AA 00 86 AC AC 00 FF 96 78 AB F3 00 FB 28 31 FD ........x....(1.
004032E0 13 6F FF 32 00 76 A4 40 96 67 23 D9 38 04 2A C2 .o.2.v.@.g#.8.*.
004032F0 00 7F BD F5 A8 90 D3 5E D9 00 09 C9 00 7F BA DA .......^........
00403300 00 00 21 FF 1B 25 BD FF 2A 46 6B 6E 90 00 00 83 ..!..%..*Fkn....
00403310 02 05 00 00 2A 4B CF 9F D3 C2 FF 01 5E 0A 1E C9 ....*K......^...
00403320 FA 62 C9 2B FD 00 00 C0 E8 14 00 C7 2E C8 4C 00 .b.+..........L.
00403330 EE A0 00 BC 3C 32 1F B7 00 00 64 18 A0 81 00 BD ....<2....d.....
00403340 CE A0 08 4C 08 BB 30 0A 94 C1 80 7E AB 97 00 4D ...L..0....~...M
00403350 8C F7 2E 80 F8 CA F8 68 6F 92 0F 9B E0 00 8E E3 .......ho.......
00403360 5C 56 00 39 36 F2 70 2B 59 00 86 EC 6D 99 C7 2A \V.96.p+Y...m..*
00403370 6F 88 68 3B E3 91 4E B5 00 8A 81 2D BE AD 2B 73 o.h;..N....-..+s
00403380 85 A9 D7 FF 58 00 DF 00 9B 17 EE 8C C0 10 22 9B ....X.........".
00403390 82 7E 00 1A DF 98 F1 A1 E8 2B 08 44 8C 2D 9A FE .~.......+.D.-..
004033A0 7C D0 E8 00 20 FF C2 FF 00 5D A2 F2 FC 07 CE 54 |... ....].....T
004033B0 7D 26 BF 2A 3D A5 D3 4A C9 2D 18 B3 2E 5E 34 C0 }&.*=..J.-...^4.
004033C0 A5 B5 34 8A 60 F2 9F 00 C3 72 89 78 6B 8E 85 29 ..4.`....r.xk..)
004033D0 1D 40 CF 74 65 6F 8B 01 B6 9B 21 74 83 1D 0D 5F .@.teo....!t..._
004033E0 20 FF F3 00 CB 2C 00 E1 06 A0 0C 00 12 FF 00 F7  ....,..........
004033F0 40 46 E7 2C A8 36 0C F2 42 04 EE 2A FF AA B0 BF @F.,.6..B..*....
00403400 96 71 7E 00 00 75 0D 00 E0 1C 2C 3F BD 00 1E 00 .q~..u....,?....
00403410 76 A6 7C 3B DF 00 A0 D7 9D BC D9 F6 00 00 D0 55 v.|;...........U
00403420 E3 E3 5B 00 55 38 FF FF FD 66 00 00 24 0C A5 29 ..[.U8...f..$..)
00403430 00 BA D5 02 26 00 82 63 B1 18 CC 00 00 D5 2E FC ....&..c........
00403440 15 12 38 00 22 96 07 1E D8 13 00 2E 20 BD AA E5 ..8."....... ...
00403450 AB CF 0C 29 E8 CB 93 82 FF FF C1 53 BC 9F BA 07 ...).......S....
00403460 3A F9 90 7D 64 54 04 65 9F 02 42 98 F0 76 0C 75 :..}dT.e..B..v.u
00403470 31 5C 28 C8 86 63 89 6A 42 C7 04 2E AB F9 18 00 1\(..c.jB.......
00403480 00 21 E8 00 80 30 48 27 00 14 66 D9 AA 7F FF 38 .!...0H'..f....8
00403490 81 72 91 00 9F 8B 98 E4 16 EF DE 1D FF 8C 77 57 .r............wW
004034A0 D0 00 05 1F 8D BF 26 78 07 00 A3 09 1E 81 6D 06 ......&x......m.
004034B0 48 8A B6 71 50 13 00 B7 BB 47 47 20 39 03 A2 EE H..qP....GG 9...
004034C0 FB 7B 35 5E 97 A9 92 96 07 A7 41 30 4E 3E 60 62 .{5^......A0N>`b
004034D0 C9 E6 30 19 77 6B A1 64 7A 0F 00 82 E8 F7 3E 77 ..0.wk.dz.....>w
004034E0 A1 FC D3 37 DD 2E 71 F6 83 B5 FD 70 C4 35 00 00 ...7..q....p.5..
004034F0 E1 CD D3 C8 00 9E CC 6A 10 00 7D 63 47 0B C1 FF .......j..}cG...
00403500 6F 14 B9 7D 5A D1 AE 09 40 C1 C2 C5 00 C6 E4 FB o..}Z...@.......
00403510 6B 5F A6 6F 00 48 58 AF 50 01 7B 5F DA 00 7E B8 k_.o.HX.P.{_..~.
00403520 6E 00 DD 08 00 F8 15 CD FE 14 32 D2 74 22 02 C7 n.........2.t"..
00403530 4A 4D 6C FF 0D 62 6D 70 50 98 F0 7C E5 E2 2C 4E JMl..bmpP..|..,N
00403540 5A F7 B4 8B 79 8B E0 7A B4 00 28 04 0A 28 92 C9 Z...y..z..(..(..
00403550 E3 00 0B 00 EC 54 7D 88 4A C9 FF 0A 87 7C 02 18 .....T}.J....|..
00403560 21 14 9B 1D 0B 09 C0 07 53 80 00 BD 40 08 ED 00 !.......S...@...
00403570 7B 00 C7 FF 00 8C 00 C5 22 CB 33 58 BB 61 00 00 {.......".3X.a..
00403580 8F FF A0 00 DC DD 52 91 63 07 21 12 28 A8 F9 B8 ......R.c.!.(...
00403590 FF 52 84 FF 82 4E D0 8B F4 5F BC 08 10 9F 9E 47 .R...N..._.....G
004035A0 13 53 A8 00 00 18 14 B4 61 EF 43 00 D9 87 B4 89 .S......a.C.....
004035B0 38 FF 81 5C 00 99 BF 00 C5 00 00 F1 00 7F 3B 93 8..\..........;.
004035C0 00 1C D7 17 55 81 DD E0 C4 BB 8E FF FF 42 00 23 ....U........B.#
004035D0 4E 00 77 FF C7 11 71 7E 76 BA FF 2C 04 87 49 8D N.w...q~v..,..I.
004035E0 C8 63 AF 57 5A 03 CC 89 DA 7E 00 2C 58 00 0F 5F .c.WZ....~.,X.._
004035F0 C1 2E 11 D9 BC ED AE DC 2A 8B 25 72 B0 3A 3E FF ........*.%r.:>.
00403600 29 EF FF C0 54 36 52 00 D2 8B 06 C3 52 F5 22 AE )...T6R.....R.".
00403610 28 FF 00 51 D6 64 BD C3 EF 2F 00 E6 82 AE 1D 83 (..Q.d.../......
00403620 B1 94 00 00 33 00 ED 2B 00 D8 47 ED F4 67 88 A1 ....3..+..G..g..
00403630 EE 36 32 01 9E 9B 41 37 73 B7 F5 79 BE FF BE BE .62...A7s..y....
00403640 D6 D5 8D C3 1D 4B 70 EB 00 7E 00 00 00 B0 F8 F9 .....Kp..~......
00403650 C0 0F F9 01 98 89 75 64 B0 3A 45 2A C0 01 58 D5 ......ud.:E*..X.
00403660 37 14 91 14 73 36 C6 2D F3 4F 14 00 F6 99 5E BD 7...s6.-.O....^.
00403670 C0 27 00 DB B2 97 72 80 F3 33 F7 65 EE 63 FA 19 .'....r..3.e.c..
00403680 BD BD 2E A8 FF 93 25 01 94 00 00 BF 9A C4 0B 44 ......%........D
00403690 00 00 FF FF D4 9D 8F 00 92 4C 7E 2A C3 8B 5B F9 .........L~*..[.
004036A0 32 D4 EE 78 E6 45 93 E8 1F 37 00 40 00 1E 5C FF 2..x.E...7.@..\.
004036B0 00 23 18 1C A3 F5 00 FA 58 44 21 04 D0 2E 79 DC .#......XD!...y.
004036C0 72 FE 06 A0 4C 08 E9 21 44 C1 40 20 DF 99 CF D6 r...L..!D.@ ....
004036D0 0F E5 2B FF 12 09 22 D3 94 EE FB 5F 46 D3 2E 5A ..+..."...._F..Z
004036E0 42 79 43 3C CB FF BA 00 C3 00 00 2F C2 DC FF 2D ByC<......./...-
004036F0 FF 7D 00 00 97 22 00 CC 24 FD 18 BB 4C B0 32 4E .}..."..$...L.2N
00403700 A6 1A 1B 00 87 F4 03 C5 18 00 E3 85 0B 8B 42 8B ..............B.
00403710 00 71 B4 6D 18 A2 E0 36 6C 96 E2 FF F8 E3 A2 3A .q.m...6l......:
00403720 00 8B 00 BA FF 69 8A 57 8C 8A 64 AB CB C3 7A 4D .....i.W..d...zM
00403730 53 58 02 69 F4 FF 24 38 87 FF 7F 36 5A 85 F6 5A SX.i..$8...6Z..Z
00403740 00 38 00 00 B9 E6 39 4B F2 10 37 00 B4 30 64 0B .8....9K..7..0d.
00403750 B0 D6 8F C0 9F C9 A8 2A 00 F2 4A 3F F9 CE 00 CB .......*..J?....
00403760 89 00 AD 70 F1 FF 00 F5 1E CB 02 00 52 0F 34 7C ...p........R.4|
00403770 EE 00 00 6D 83 20 F4 2B 24 01 34 79 33 05 58 26 ...m. .+$.4y3.X&
00403780 40 7C 00 58 40 79 21 F4 F7 81 00 1C EA 63 B7 37 @|.X@y!......c.7
00403790 4A 68 B7 6F A4 E0 1C 3E AD 83 3D 00 4A 68 7B E4 Jh.o...>..=.Jh{.
004037A0 00 A1 A4 FC 6A C4 FF E7 81 C9 30 32 B9 A7 8B DF ....j.....02....
004037B0 43 D9 27 C9 84 43 C9 20 1F 36 74 02 78 BB CB 00 C.'..C. .6t.x...
004037C0 8E 95 00 C9 0F FE 17 CD 00 00 A9 B8 BE 88 00 6C ...............l
004037D0 67 1F 8E 9B FF 2C C1 DF B6 24 9F 83 08 00 FC 3B g....,...$.....;
004037E0 57 FF 76 82 C8 7E 3F 8F BE CD AD 00 59 27 90 C0 W.v..~?.....Y'..
004037F0 EA E3 04 00 93 EE 5E 03 FD FF 46 8C 08 D2 D1 8D ......^...F.....
00403800 CC FF 9E E7 9B 00 7F 5C 00 AA A3 16 54 78 03 DB .......\....Tx..
00403810 00 F1 21 E4 BE 81 53 27 70 0F 52 83 09 3A 37 67 ..!...S'p.R..:7g
00403820 0E DF C7 00 9E 56 BF 0E E1 52 0A F0 91 83 00 C0 .....V...R......
00403830 50 D8 33 AD BC 00 F3 AF 1A 00 21 82 16 48 24 D3 P.3.......!..H$.
00403840 89 11 85 05 F3 59 03 2C BB 5F 3E 63 D3 71 92 D1 .....Y.,._>c.q..
00403850 17 56 00 A0 00 EA 00 31 E6 4A AC D3 00 0D ED 8C .V.....1.J......
00403860 F6 10 AE 63 D1 03 00 E5 EF 28 B2 9B A7 C1 0C 00 ...c.....(......
00403870 00 97 DA 5A 00 68 11 33 06 9A 25 11 B7 E3 BA CF ...Z.h.3..%.....
00403880 1E 00 F0 1B 1E 3B 86 87 F4 FF 01 22 06 30 A9 04 .....;.....".0..
00403890 DA 10 35 22 39 8F 5D FF 00 00 00 59 00 AF C1 86 ..5"9.]....Y....
004038A0 E2 79 40 48 87 51 2C A0 C0 F2 40 5D 3A 8A D7 84 .y@H.Q,...@]:...
004038B0 00 6A 4D 67 10 4B 40 41 C9 90 75 D7 FF 26 F3 00 .jMg.K@A..u..&..
004038C0 EA B2 00 F7 98 34 7B 33 97 1A 00 13 4E 88 17 27 .....4{3....N..'
004038D0 85 A0 E0 00 00 03 70 A1 80 00 58 DA 80 CC 20 12 ......p...X... .
004038E0 80 67 10 C7 FF 2C ED 75 00 7F FA 00 36 BE 15 DE .g...,.u....6...
004038F0 8A F8 EB FF 00 10 98 BB E1 BF FF 26 31 40 7F 6B ...........&1@.k
00403900 00 00 1E 79 B6 BB 1D F4 74 FF E0 E3 DF 8F 81 AD ...y....t.......
00403910 59 8D 3F 00 60 B9 00 F1 01 00 84 A8 CF 00 E5 FB Y.?.`...........
00403920 C0 00 48 AD 9F 05 02 F7 7A 29 80 19 34 71 B7 07 ..H.....z)..4q..
00403930 91 6E 00 C3 AB 00 E3 EA B3 FB 4C 1A 49 EC 76 70 .n........L.I.vp
00403940 BA 70 C6 A3 FF 39 9A 00 04 00 C9 00 00 D6 E3 E7 .p...9..........
00403950 2F 0D A0 47 1F 5A D3 53 FF 3E E8 61 B8 60 50 00 /..G.Z.S.>.a.`P.
00403960 28 82 38 43 93 94 FF 76 89 9E B3 17 F6 50 39 C4 (.8C...v.....P9.
00403970 10 A8 B4 11 4F DF 24 00 CE AD 3E B3 57 68 74 5D ....O.$...>.Wht]
00403980 3C 3A E0 0D E4 66 00 EB CC 00 1B F0 A7 87 64 E9 <:...f........d.
00403990 31 FD 83 64 00 FF AF 98 1C 8C F0 38 7E 0F 4F 8B 1..d.......8~.O.
004039A0 86 E2 0B 85 ED 75 B1 9A FF 70 FC 00 00 D7 8C B3 .....u...p......
004039B0 32 5E FF 16 4A F0 FF 8B F6 18 31 14 76 E8 A2 20 2^..J.....1.v.. 
004039C0 DE EF A1 20 00 C2 74 FF 8E 27 00 18 12 C2 A5 DA ... ..t..'......
004039D0 98 DE 00 E5 E1 48 91 63 8F D3 00 FF 3C 97 3E 00 .....H.c....<.>.
004039E0 A6 36 0F F8 F0 83 2E 97 20 78 00 FF FF B0 00 92 .6...... x......
004039F0 81 3C EF 1A EF F9 FF 1C 07 9C 80 3F 10 67 EE 86 .<.........?.g..
00403A00 BD 6C CB FF 00 FD DB 2D C9 00 C3 28 80 E6 4C 6B .l.....-...(..Lk
00403A10 41 EA FE 0F 06 38 FF 00 17 C8 F9 2F 86 00 6A 2D A....8...../..j-
00403A20 00 AD 00 78 36 08 4E 83 71 00 83 31 FB 00 20 E6 ...x6.N.q..1.. .
00403A30 51 1B 04 08 63 00 81 1D 39 3B A0 C0 2E 38 82 C4 Q...c...9;...8..
00403A40 E0 F6 DE 9F 33 F1 E7 FF 8B 00 28 07 1F 84 00 A0 ....3.....(.....
00403A50 8B BF 81 62 87 85 3A DD 00 23 DA A0 7C 5B FA B7 ...b..:..#..|[..
00403A60 17 FF 67 F6 8F 80 87 EC D5 2C D9 17 E0 50 44 A0 ..g......,...PD.
00403A70 4D 08 8A 00 F5 00 6F FD 08 00 F4 E2 47 34 E7 5B M.....o.....G4.[
00403A80 82 07 92 69 D5 1B E5 00 2C 9B 7A F5 B9 27 00 86 ...i....,.z..'..
00403A90 4F F9 C2 46 BC 25 6F 00 DB 95 00 13 3E 84 B0 16 O..F.%o.....>...
00403AA0 30 00 BF E8 00 1B DF DD FF 34 8C D0 11 2F DA 09 0........4.../..
00403AB0 28 3F CE F1 38 05 F1 23 6C 09 F0 A4 27 E2 D4 D8 (?..8..#l...'...
00403AC0 00 D1 AE 00 70 18 83 35 FA 01 1C 25 29 89 14 3B ....p..5...%)..;
00403AD0 69 00 BE CE FF A7 83 B8 A6 CC 99 A3 69 3B 33 47 i...........i;3G
00403AE0 7F FA 22 DB 00 E1 7A 49 9B C8 0A 60 44 00 1E 48 .."...zI...`D..H
00403AF0 00 87 9A 35 41 3C 6C EF 7F 0B 5E 16 E4 FF 67 FA ...5A<l...^...g.
00403B00 C6 08 77 33 09 A6 A0 00 44 00 00 EC 26 81 AF D1 ..w3....D...&...
00403B10 E1 86 00 A8 40 82 08 6C 0D C7 91 38 00 00 69 1E ....@..l...8..i.
00403B20 E0 FF 00 FF 1F 31 CF 3E F7 00 F1 10 11 D3 C4 91 .....1.>........
00403B30 D3 A6 FF 32 1C 55 03 00 30 03 F4 00 C9 FF 00 80 ...2.U..0.......
00403B40 40 30 B0 20 20 A0 53 FD E3 97 C6 C5 DC 83 60 6D @0.  .S.......`m
00403B50 00 51 E0 B9 2E 33 8F 00 4F 5B E5 00 00 E6 00 FF .Q...3..O[......
00403B60 D9 00 DC 8B 6D 73 F7 68 00 E2 00 69 FD BA 17 85 ....ms.h...i....
00403B70 29 57 82 BB 42 6F 2D 60 9D A7 FF C8 FF 7D D2 1A )W..Bo-`.....}..
00403B80 00 C8 40 E7 2E FD 18 FF 27 1A 8B C8 FF 2F 80 85 ..@.....'..../..
00403B90 A1 3F E1 80 0E B2 86 0A F0 E1 00 C1 C5 44 98 FF .?...........D..
00403BA0 AB 77 D2 51 4F 73 BB 6B 72 FF 68 F6 72 32 14 F0 .w.QOs.kr.h.r2..
00403BB0 57 A7 68 92 64 64 36 5C FE C1 F6 BD 82 23 00 61 W.h.dd6\.....#.a
00403BC0 00 B5 15 39 00 FF 3B 8D 68 9C 9B F4 1E 4D 38 00 ...9..;.h....M8.
00403BD0 93 87 41 9B 79 31 D7 E9 FB E1 BE 30 CB FF 64 00 ..A.y1.....0..d.
00403BE0 46 C8 EA 0C B5 71 6F 7F 15 FF 50 6D CC E7 1D 27 F....qo...Pm...'
00403BF0 00 92 94 FF 92 FF C0 00 25 32 A1 9A BC 19 E2 89 ........%2......
00403C00 4F 6A 00 44 1D 93 E8 0C 24 9C E7 44 E8 FF 0F 81 Oj.D....$..D....
00403C10 1F 55 C1 B4 F6 9D C6 36 00 94 34 B2 BA 00 FA 7B .U.....6..4....{
00403C20 D3 31 41 48 BD 15 FF D5 BF 47 AD 63 ED 38 5F BB .1AH.....G.c.8_.
00403C30 6C C2 2B 0E 8E 8A 1F CC E0 2C FF 1A 20 78 4A 09 l.+......,.. xJ.
00403C40 4E AA F1 0D 80 FE BC 32 47 E8 87 19 58 52 B3 00 N......2G...XR..
00403C50 43 A3 00 7A 5A C5 9E DE 10 C8 25 AC 17 A1 46 45 C..zZ.....%...FE
00403C60 29 8E A0 AD 08 E4 80 34 D4 00 FF E1 53 00 CD 02 )......4....S...
00403C70 9B 7F C0 28 3F 6A F8 E7 76 12 00 18 85 33 78 DB ...(?j..v....3x.
00403C80 61 61 3B 80 3A 84 6D 36 00 43 00 E1 B5 7D 00 FF aa;.:.m6.C...}..
00403C90 C1 00 5E 51 63 00 B7 61 0E 21 B2 6C FF 7A 55 21 ..^Qc..a.!.l.zU!
00403CA0 75 FB BD 75 26 45 00 AF 15 B3 F5 18 D5 8B C4 CD u..u&E..........
00403CB0 9C 6F 00 6E C9 53 89 0F 85 00 78 31 91 22 A4 70 .o.n.S....x1.".p
00403CC0 0E 1E 1F 87 56 77 BA C5 43 0C 0A 6C C8 73 86 2E ....Vw..C..l.s..
00403CD0 AE 81 B9 9A C3 4B B3 57 4C F9 00 EC 00 F4 D8 F3 .....K.WL.......
00403CE0 5A D0 CE 38 F0 2A 76 71 D3 0D 00 FF F9 AC 84 CD Z..8.*vq........
00403CF0 2B 7E 56 FF 00 00 FF 87 39 04 5F FF 65 D7 60 9E +~V.....9._.e.`.
00403D00 FB 1D 01 FF FF C7 53 4A D4 92 FF 3E E4 BC 0F 0E ......SJ...>....
00403D10 C4 06 EB CD 3F 01 A1 00 62 08 EE 52 04 13 1A 26 ....?...b..R...&
00403D20 AC 03 FF 24 A8 00 97 EE FB 00 45 6F 4B 00 67 09 ...$......EoK.g.
00403D30 B9 41 64 31 63 2C B7 8F 6C 4E 46 DF DC FF 5C 49 .Ad1c,..lNF...\I
00403D40 73 20 00 0C 8F DF 2C 93 84 AA 82 E8 1A 82 D5 CF s ....,.........
00403D50 8D C4 C8 9A 73 70 00 00 09 EA CA DB 9D 92 66 00 ....sp........f.
00403D60 22 EC 8F FF 00 B9 73 00 D3 2F 0A F1 EC 17 D5 76 ".....s../.....v
00403D70 00 5A FF 0F 00 8F A1 F8 C7 E3 0C 01 54 60 7E 68 .Z..........T`~h
00403D80 00 77 C6 08 5D B9 FF 00 8C 84 3D 2B 79 F2 00 62 .w..].....=+y..b
00403D90 FB EC 10 00 49 1C 69 F4 9A B2 88 FE A9 D8 5B 51 ....I.i.......[Q
00403DA0 4A EF 1E 00 5D 5F 08 FF FB 02 AA 00 00 D6 A1 00 J...]_..........
00403DB0 05 B5 9D 00 D3 4E E1 17 28 E3 03 D4 07 62 6E 00 .....N..(....bn.
00403DC0 49 51 76 E4 B5 7D 07 7C 00 C6 8D E0 73 5F 40 B4 IQv..}.|....s_@.
00403DD0 00 DD FF FF CD 6A BF 1A 18 93 11 97 77 D6 44 F0 .....j......w.D.
00403DE0 CF F5 94 50 13 BC 43 33 00 9A 54 F1 A2 F8 AE B4 ...P..C3..T.....
00403DF0 33 9F 07 C2 8D AB A3 34 37 FD 5F 93 12 00 DA 0E 3......47._.....
00403E00 C7 28 70 EF 83 FF FF ED 28 1C F3 ED 00 0D C7 0F .(p.....(.......
00403E10 BE 37 D4 80 9C 81 2C A0 FF EB 87 67 E2 35 D5 F7 .7....,....g.5..
00403E20 7E 04 F2 91 96 51 DF 56 E7 BB D8 3A 17 F7 34 9F ~....Q.V...:..4.
00403E30 CE 14 10 7F FF 00 ED E4 1A 7B 0F C7 73 11 E1 8C .........{..s...
00403E40 B5 00 36 15 00 57 FD 00 E3 00 E8 7C 00 56 E7 DB ..6..W.....|.V..
00403E50 AD 60 AE FF E9 52 FF FF FF C5 13 C5 83 5E D8 10 .`...R.......^..
00403E60 53 B5 00 95 F6 F1 0B ED FF 63 13 C3 DA C7 67 7E S........c....g~
00403E70 00 06 EC 86 F7 DA 11 7E 1B 79 0E 47 56 D2 59 AD .......~.y.GV.Y.
00403E80 9B B1 31 93 00 3F 1A 16 FF 83 B7 C8 46 DA 92 00 ..1..?......F...
00403E90 11 2F 81 19 B9 BE 00 FD C0 96 4E 1F A1 EF 19 0D ./........N.....
00403EA0 EC 36 9D 67 05 6A D9 FF FF FB 7B EC 00 B2 FF DB .6.g.j....{.....
00403EB0 87 99 0F 9F EA FF 43 F1 07 07 06 61 53 0D 38 42 ......C....aS.8B
00403EC0 B7 FA 00 0D 70 8D 44 C2 C9 08 E8 00 E8 FF 11 00 ....p.D.........
00403ED0 BB 00 6A CD 4E 00 DF 5F 8B 04 7F 7F AC 70 85 DC ..j.N.._.....p..
00403EE0 C3 9C 18 D9 63 EB 82 71 DA 00 1F 51 00 FA E8 00 ....c..q...Q....
00403EF0 00 00 C4 E0 DB 62 3E F9 E2 DD C7 15 81 58 49 DB .....b>......XI.
00403F00 69 9B 85 06 00 00 1B FB 00 EE DE B1 00 39 FA 98 i............9..
00403F10 8D 00 00 47 FF 64 80 8A BF 01 50 B6 12 00 4F 00 ...G.d....P...O.
00403F20 F9 62 69 E5 2B 61 7F 59 26 E9 3B B2 CB 96 5D 0B .bi.+a.Y&.;...].
00403F30 F6 18 5A D3 C2 73 F0 C4 E6 CC A3 D4 04 EB B8 E8 ..Z..s..........
00403F40 F6 FF 2E FF E5 F2 07 42 34 FF 00 15 B1 FA B2 4E .......B4......N
00403F50 52 00 1A BF 14 6A 83 98 00 14 82 E0 65 40 64 E2 R....j......e@d.
00403F60 3A 5C B4 78 00 70 00 2C 1E D6 C8 9F 00 ED 00 C7 :\.x.p.,........
00403F70 C6 7D 07 08 E4 AC FE A3 1A 00 6D 7B F2 FD 77 42 .}........m{..wB
00403F80 10 63 A3 2A 1F B3 C0 66 6C 08 CB B7 05 A3 95 F6 .c.*...fl.......
00403F90 EF 70 3A 06 3A FB 00 60 CA 3D ED 8B 96 9D B7 FD .p:.:..`.=......
00403FA0 A3 83 F1 FF 31 83 47 37 FF 00 7B 6C 08 01 B1 DC ....1.G7..{l....
00403FB0 8D 1B 27 71 00 C4 16 76 BB 85 0D 50 8F F3 00 79 ..'q...v...P...y
00403FC0 82 76 1B 00 20 12 FF F9 97 87 BF 28 00 A8 D5 C1 .v.. ......(....
00403FD0 0F FF 23 2A C0 FF BF 93 1E A2 3E 00 00 00 B9 00 ..#*......>.....
00403FE0 8F 00 C3 48 C0 5F F7 00 EA 09 F8 3E 1E E8 56 A6 ...H._.....>..V.
00403FF0 94 00 00 B4 27 D2 89 00 7F 32 BB 53 06 82 08 9E ....'....2.S....
00404000 48 23 35 00 B2 05 F9 DB 3E C8 7A 1E 63 00 7C 00 H#5.....>.z.c.|.
00404010 F4 00 9C 81 C2 56 41 61 85 99 80 77 11 FF 31 81 .....VAa...w..1.
00404020 6D D3 88 CD A0 D8 C5 C2 9A F7 F8 00 22 58 00 00 m..........."X..
00404030 09 DF 76 C6 FF 40 91 4C F5 87 AE 85 67 4F 17 6B ..v..@.L....gO.k
00404040 22 02 EF 0F 99 98 D6 90 BE 3A FF 17 2A CD 00 E7 "........:..*...
00404050 A0 7B 3E FE 58 03 67 C2 36 8F 64 84 8A F5 00 92 .{>.X.g.6.d.....
00404060 00 61 86 C5 02 42 13 00 20 92 A0 D8 7D 20 CF B9 .a...B.. ...} ..
00404070 9C B5 1B 3F 00 33 E0 00 AC 83 D8 19 DF 3C 6D 97 ...?.3.......<m.
00404080 00 98 B2 4A DC F7 00 89 68 35 FF 6B 8E AD 18 5F ...J....h5.k..._
00404090 A9 4D DE 49 5A C2 77 67 48 8F 2C FC 00 6D BD 04 .M.IZ.wgH.,..m..
004040A0 5B 4C 5D 3C 37 50 B1 43 D2 51 A5 00 29 10 29 43 [L]<7P.C.Q..).)C
004040B0 7E 6A 32 2F 90 7F 05 F7 C9 00 88 D7 9B D6 2E 8D ~j2/............
004040C0 00 E5 7A 71 F4 00 F8 FF 00 B4 18 8A 5F 72 A5 12 ..zq........_r..
004040D0 60 07 A1 4D 00 45 6A 20 4E DD 65 50 AC C8 D2 2E `..M.Ej N.eP....
004040E0 43 00 39 BA 96 70 C2 F8 74 00 97 8E FF B4 69 56 C.9..p..t.....iV
004040F0 DD 6E BC F0 CC 86 C6 A5 E0 B4 D5 5D 47 BE 67 B3 .n.........]G.g.
00404100 EF DE 85 A9 F1 1B BD 92 FD 84 00 FE A1 E5 EF 00 ................
00404110 BF 5F 4C 79 00 CB 7E 91 00 74 08 61 60 F0 FF 7B ._Ly..~..t.a`..{
00404120 88 03 6F 00 C8 40 B0 EC 7A 0C 33 7B 4C 00 15 00 ..o..@..z.3{L...
00404130 07 00 78 0A 08 00 00 1E D0 4D 09 00 6B 62 98 5C ..x......M..kb.\
00404140 FD 74 82 E3 DB C3 07 E8 C6 1C C0 D9 2C 5E 87 7C .t..........,^.|
00404150 A8 35 47 69 30 F1 7F 70 1C 14 00 E1 5F E3 FF EF .5Gi0..p...._...
00404160 1E 20 1D 62 0E 41 A8 00 6C 86 FA 81 43 CE 00 00 . .b.A..l...C...
00404170 DB A0 B2 85 FF 97 49 FF 00 00 43 4E D6 09 FF 3C ......I...CN...<
00404180 07 DE FF 2D 1D 2E 3A 00 E4 59 CF 4A C4 7B 00 D3 ...-..:..Y.J.{..
00404190 EB A8 37 0B 00 94 D2 38 38 EB 50 2F EA 0E 20 B5 ..7....88.P/.. .
004041A0 58 4A C3 BC 00 41 10 9E E6 00 E0 2C BD 71 00 35 XJ...A.....,.q.5
004041B0 C5 00 FC 68 03 FF D4 F1 13 06 F6 A5 00 00 43 F5 ...h..........C.
004041C0 81 B8 25 C0 81 FF 46 FA 06 CA B4 97 B1 33 70 86 ..%...F......3p.
004041D0 F7 F7 1E A3 A0 FF 9D E7 50 64 B2 F7 A5 0E C1 10 ........Pd......
004041E0 CF 65 6A DC 02 00 73 51 B5 42 E2 7A 09 10 3E 24 .ej...sQ.B.z..>$
004041F0 7F 83 C2 8B 3E FF 22 00 00 D5 68 7A AD 30 EF A0 ....>."...hz.0..
00404200 00 03 BB F2 03 F2 3B 57 FF 00 33 54 01 00 98 EC ......;W..3T....
00404210 B6 C1 0E 19 16 DD E9 D5 33 45 8D EA 4C 9C 60 FD ........3E..L.`.
00404220 E4 E1 FF 89 06 00 04 0E 00 1F B0 16 41 D6 77 60 ............A.w`
00404230 91 CB D1 B2 69 A2 72 8E 22 1F 64 20 10 7C CF D4 ....i.r.".d .|..
00404240 00 B5 00 66 4C 2C FF 44 2F E7 CC F1 60 66 FB 09 ...fL,.D/...`f..
00404250 CE 55 00 70 FF 60 CD F1 E4 64 A2 28 34 8D 34 9C .U.p.`...d.(4.4.
00404260 B6 18 89 32 CE 3C 00 5C BF 8C 00 05 96 FF 27 72 ...2.<.\......'r
00404270 98 00 58 40 C4 87 45 71 FF 00 11 AD 82 D5 5A FF ..X@..Eq......Z.
00404280 49 0C EF FF 2D 3B A1 BB C4 00 74 4C 04 80 FF E1 I...-;....tL....
00404290 BA A8 B1 00 38 66 83 4F A1 70 00 FF E9 3F 00 EE ....8f.O.p...?..
004042A0 45 FC F0 00 14 73 26 D4 52 6C 90 A3 01 26 06 FF E....s&.Rl...&..
004042B0 9B 20 0E C8 B2 1C 0E 00 74 28 64 EC FF 4C 1B 18 . ......t(d..L..
004042C0 04 6E 3F B1 94 FF 64 74 22 52 26 C7 70 02 44 27 .n?...dt"R&.p.D'
004042D0 53 DD 96 F7 CC 9A 34 98 FF DA 96 68 97 72 AE 36 S.....4....h.r.6
004042E0 D7 00 10 65 6E 89 8D 7F DC BF FF 67 1E AF 98 61 ...en......g...a
004042F0 8F ED 10 72 BB 72 1B 70 04 62 16 D2 B4 28 5B 20 ...r.r.p.b...([ 
00404300 7D 0B E0 00 FC 50 A6 91 B1 E2 E8 3F B2 B9 27 BA }....P.....?..'.
00404310 7C 30 00 FF FF 04 98 00 7F DF 02 01 FF FC 00 00 |0..............
00404320 DD 9A 50 4B 00 02 63 61 F2 23 E1 7A 0A E6 6A 70 ..PK..ca.#.z..jp
00404330 2F 80 5F EE 38 00 59 75 04 DD A6 6C E9 81 C2 0F /._.8.Yu...l....
00404340 2C 6B B1 5B 35 C5 88 EB 00 71 4B A7 00 29 EB FF ,k.[5....qK..)..
00404350 00 03 71 FF 39 00 28 00 FF E8 AA 96 FF 0F B9 C0 ..q.9.(.........
00404360 D8 08 DC 99 4F 3F C8 3E 9A 00 E9 E2 F9 32 A7 C2 ....O?.>.....2..
00404370 DE 6F 40 B5 26 4C 15 F2 2E 53 04 17 58 18 82 00 .o@.&L...S..X...
00404380 A6 C0 00 00 C5 1B 00 8E 99 FB 00 00 3D C5 FF 00 ............=...
00404390 10 0D 16 85 BB 60 7F 2F 00 4C 53 B3 31 40 FF 48 .....`./.LS.1@.H
004043A0 6F 3B 82 2D 32 00 64 8E 32 2A 05 00 98 0A 82 FD o;.-2.d.2*......
004043B0 60 7B 83 D8 EF 3D 18 20 FF 17 C6 F3 BC E2 00 00 `{...=. ........
004043C0 77 FF DC 76 EA E4 FF DC A0 AB DB 34 26 69 23 00 w..v.......4&i#.
004043D0 D0 9E 00 FF 90 C3 DD EB EB FF 01 33 38 E0 51 8D ...........38.Q.
004043E0 4E 33 CE 3D 00 B9 72 A5 78 F2 7A 37 3C 00 B1 4D N3.=..r.x.z7<..M
004043F0 6E 76 35 00 68 47 11 EC 41 00 84 F0 0A 00 00 00 nv5.hG..A.......
00404400 D8 1D FF 2E 2F 7F 0C 25 81 85 F0 42 C3 00 D5 C3 ..../..%...B....
00404410 26 8D 00 00 3C 76 00 D1 E5 0B 72 4C 87 51 64 39 &...<v....rL.Qd9
00404420 49 12 08 20 84 00 02 DE DA 0E 4E FF 66 40 90 AE I.. ......N.f@..
00404430 C6 F4 FA B4 00 AB F4 FA F7 D0 A0 20 DD D1 D6 76 ........... ...v
00404440 E2 9F 62 EA 5C 4D 3D 98 7A 00 EF B1 F9 17 FF 8B ..b.\M=.z.......
00404450 D6 D8 08 EB F4 7A 00 B9 59 28 00 52 0E 7E 70 CD .....z..Y(.R.~p.
00404460 E2 79 D1 FF 62 FF 00 F3 5F B3 FF 54 00 00 4E EB .y..b..._..T..N.
00404470 A3 94 0C 26 21 00 00 FF 81 50 89 20 F0 00 EF 20 ...&!....P. ... 
00404480 91 6E DE 9B 7B A7 41 EF 59 B1 0C 00 B2 FF 21 BF .n..{.A.Y.....!.
00404490 5E 00 00 63 2F 00 81 00 38 0C 14 04 40 FF 9D D3 ^..c/...8...@...
004044A0 96 42 B8 00 65 7A 27 14 00 D3 B4 1C C5 0A F9 82 .B..ez'.........
004044B0 DD D1 4E B4 BB FF 38 2E 3E 47 B4 74 C5 BF FF 22 ..N...8.>G.t..."
004044C0 63 02 00 62 B1 FF 00 33 D3 69 E9 B2 32 8C C7 66 c..b...3.i..2..f
004044D0 00 A0 F3 FD 64 B6 F5 FD 84 EA 99 9F 00 00 E2 3C ....d..........<
004044E0 00 D6 38 BC 54 00 A9 0B 44 D9 26 00 F1 42 E9 1B ..8.T...D.&..B..
004044F0 4F F1 D0 C0 8A C7 98 81 5C 0D 29 62 3E A8 D5 73 O.......\.)b>..s
00404500 24 3C AE 23 79 FF 96 6A 00 E2 07 81 9F A7 71 E2 $<.#y..j......q.
00404510 C8 F1 72 FF 6A A3 00 71 C1 FE A7 1C CF 53 49 74 ..r.j..q.....SIt
00404520 31 DA 5D 3D 44 44 A7 FF 32 26 79 07 D4 82 38 E6 1.]=DD..2&y...8.
00404530 61 FF F4 00 B2 70 BE 1E 3B 0F 00 80 3A 80 00 17 a....p..;...:...
00404540 FF 32 FF AE 20 00 44 F2 59 40 67 00 D3 27 79 BF .2.. .D.Y@g..'y.
00404550 48 00 00 CB 16 75 DE CD 00 4A CA 00 7E AB 88 FB H....u...J..~...
00404560 FF 24 80 00 71 5E 00 FF 90 88 53 D4 A4 A1 39 EE .$..q^....S...9.
00404570 B8 72 7F 00 00 7C 24 9A E4 40 70 23 89 20 BD 01 .r...|$..@p#. ..
00404580 FF 48 F6 30 58 DE 69 86 75 BD FF A2 64 00 AD FF .H.0X.i.u...d...
00404590 19 04 3A FF 2C E1 B0 23 EA 3B 82 3C 73 1A 12 25 ..:.,..#.;.<s..%
004045A0 6D DF 2B E6 1F 57 82 1C 2F 6C 77 E3 40 DA 64 24 m.+..W../lw.@.d$
004045B0 C6 52 C1 58 28 1E 84 EC A8 00 52 67 58 18 EE 96 .R.X(.....RgX...
004045C0 42 BE 24 31 FF 02 33 28 00 2E 70 E1 6A 0E 72 EF B.$1..3(..p.j.r.
004045D0 2F 8C FE DF CE BF 89 56 00 C1 7D 1E 9E E4 00 06 /......V..}.....
004045E0 00 B8 00 02 09 00 BB 00 6E 72 CD 51 15 DF FF 3C ........nr.Q...<
004045F0 A1 17 00 12 D9 DF D8 87 00 D5 48 00 26 00 00 20 ..........H.&.. 
00404600 CE 6C D6 00 00 01 B4 17 70 E8 4E 6F FE 44 00 84 .l......p.No.D..
00404610 89 82 58 47 18 FF 40 81 D0 23 00 50 CC BB E2 85 ..XG..@..#.P....
00404620 6E E5 95 0A 1C 0E F4 FF F4 00 AE AB F4 FF 52 CD n.............R.
00404630 09 E0 FA 0B 6B 00 FF 2B 00 33 51 5C 00 5A 6E DC ....k..+.3Q\.Zn.
00404640 08 AF 00 08 C8 00 F5 D4 E1 C2 B8 DB 27 E8 9A 00 ............'...
00404650 01 1C 2F FD 10 2C 1D BF 7A 00 0F 3B 63 1E 00 23 ../..,..z..;c..#
00404660 D7 99 5A 00 54 E2 05 00 80 9E 0D 17 0E 0C C9 00 ..Z.T...........
00404670 D6 E6 6D 00 6C 85 A0 63 00 02 0F 4E 1B 80 AB 22 ..m.l..c...N..."
00404680 00 BD D5 F8 FF FE C5 D3 2E 00 54 B5 5C 22 00 66 ..........T.\".f
00404690 CA 83 3D 2E 08 02 17 57 01 E4 0E 2D 36 00 00 62 ..=....W...-6..b
004046A0 26 FE ED 38 E4 5A 00 00 44 9B E1 AD 00 32 06 D8 &..8.Z..D....2..
004046B0 00 FF C3 42 8E 4C 0F 11 00 ED 00 F8 00 38 3C 00 ...B.L.......8<.
004046C0 20 D2 FF AF 20 A9 BF 78 FB 00 38 2C 17 EC 00 62  ... ..x..8,...b
004046D0 60 00 9C 15 95 63 00 80 1E 89 1C C5 00 6D 8E 00 `....c.......m..
004046E0 00 85 FC 34 F7 B3 28 8D 8D 04 99 73 16 00 46 8F ...4..(....s..F.
004046F0 67 9F 00 0C C6 E0 78 42 18 66 A4 7A 00 D1 B6 E4 g.....xB.f.z....
00404700 4C 23 9A 00 9D 00 2C 8D 9C FA F8 41 85 14 2A FF L#....,....A..*.
00404710 00 F6 F4 D5 97 71 00 46 A5 09 00 D1 00 EC 4E 10 .....q.F......N.
00404720 68 29 83 D6 DF 95 B6 8D 3F EB 5E 00 9C CB 87 E3 h)......?.^.....
00404730 AC 00 D2 FA 86 1D 67 F7 45 0F 92 D3 F8 E4 C8 C3 ......g.E.......
00404740 D9 0A AA 39 F8 78 6E C6 12 F9 7E D7 17 EF 36 D2 ...9.xn...~...6.
00404750 FF F4 9B 18 4B 00 0D 40 0A C3 60 00 02 04 84 30 ....K..@..`....0
00404760 29 00 0B 00 FF A4 C2 5A DC AC A6 57 C4 06 11 00 )......Z...W....
00404770 60 0A 67 FC 3D AA FB B1 4F DF 30 52 7C 80 DC FF `.g.=...O.0R|...
00404780 EF 15 00 21 0F FF 02 46 4A 26 00 BA F5 2F E8 9E ...!...FJ&.../..
00404790 EB 8E 25 56 4D E3 AC 31 0F 54 EC FF 7C 00 23 3A ..%VM..1.T..|.#:
004047A0 6C D9 33 D1 5D 00 13 A6 1D EB FE 72 00 CB AA 30 l.3.]......r...0
004047B0 0E FD 00 BD 00 D0 1A 00 41 DA 77 D0 2A 4E 81 74 ........A.w.*N.t
004047C0 8C 7D 28 11 D6 7D 28 29 FC 12 FF 12 C7 81 01 47 .}(..}().......G
004047D0 3C 00 E1 5B D9 4C 98 F8 0F 22 00 99 00 FE 89 5E <..[.L...".....^
004047E0 66 03 7A 4C D6 BE E3 66 5E 54 27 00 0E 28 24 00 f.zL...f^T'..($.
004047F0 C3 91 9E BB 60 91 9B 85 93 32 32 B0 4C F6 4C 0A ....`....22.L.L.
00404800 D2 37 00 2F 88 00 00 86 6F B1 92 BE 0C EF 6F FF .7./....o.....o.
00404810 11 4F 00 B9 5B AC BE AA AC 56 00 88 1D 3E D0 F1 .O..[....V...>..
00404820 FF 00 75 50 02 8E FD FF 44 47 61 1E 48 95 00 0C ..uP....DGa.H...
00404830 91 00 82 C4 9C 2B FF 72 B8 D1 88 96 FF A6 E9 C5 .....+.r........
00404840 1C 00 A3 00 78 00 FF F7 FF 98 F5 6C EB B1 B8 83 ....x......l....
00404850 E3 C5 9C 2C 3B FF 64 81 50 50 EF 3C FF F4 10 7D ...,;.d.PP.<...}
00404860 21 47 4D B7 0F F1 00 C2 43 24 48 07 13 ED A7 2E !GM.....C$H.....
00404870 AA F7 03 45 00 76 04 49 08 B7 59 3C 30 10 E4 D7 ...E.v.I..Y<0...
00404880 09 00 66 FF 12 9B F6 01 CF 9E B6 91 00 9F 6E 2E ..f...........n.
00404890 F4 87 D5 B2 DB FA B2 00 AB 00 00 25 B4 00 FF 57 ...........%...W
004048A0 7A 81 CD CF 00 45 00 12 00 44 73 25 F0 7B 00 00 z....E...Ds%.{..
004048B0 FE 1A A3 40 FF D1 00 2A 50 2E 0A 28 E9 8C 00 26 ...@...*P..(...&
004048C0 F7 0E C1 FF F5 00 FE 00 F1 F4 70 1C 8E F0 B4 27 ..........p....'
004048D0 E0 E0 39 4E 00 B8 DA 10 70 06 2A 4E A6 00 A9 FB ..9N....p.*N....
004048E0 E2 2A 26 7C 00 E0 F6 48 6F 4D 78 00 00 33 25 F0 .*&|...HoMx..3%.
004048F0 58 BD C6 75 C9 00 88 E4 E0 FF E4 89 73 9C CD 25 X..u........s..%
00404900 6C 14 FF 00 13 FF 4E E7 02 CB 5C 00 84 04 00 00 l.....N...\.....
00404910 00 51 D0 49 D4 81 4B 87 C0 85 16 91 00 D8 F7 B5 .Q.I..K.........
00404920 00 2F AE C7 5C 5F 00 19 E7 FF 74 0F 00 AD 4D B7 ./..\_....t...M.
00404930 46 13 1E 26 24 C6 00 C0 E9 FB 38 00 98 A3 AD C0 F..&$.....8.....
00404940 28 A5 4E 7A 9F 80 87 21 38 00 B4 CF 34 00 C6 83 (.Nz...!8...4...
00404950 FA 5D AA 04 EF 68 61 7B E4 D4 40 AE 67 17 D8 00 .]...ha{..@.g...
00404960 E9 34 F5 7F 81 92 31 00 BD 83 FF D6 7F 88 00 5E .4....1........^
00404970 A7 23 70 35 F3 96 00 00 24 A3 6C 56 FF AD EC 00 .#p5....$.lV....
00404980 99 22 CB C2 00 82 A9 A9 87 96 E4 8F 00 FF 00 5F ."............._
00404990 73 E8 00 00 00 12 40 47 00 01 FF 00 75 11 1D 51 s.....@G....u..Q
004049A0 FF E3 78 4B 51 16 BB 37 FF 00 F2 1E 06 38 19 7D ..xKQ..7.....8.}
004049B0 36 19 8A FF 00 BE 70 B4 C3 73 A3 45 FC 9E D5 BD 6.....p..s.E....
004049C0 82 00 C5 D3 BF C7 BA 00 5A 3F C6 6C B1 AB 04 79 ........Z?.l...y
004049D0 FA FF 48 90 5A 0E 99 39 00 EB A3 E2 03 1C D1 3D ..H.Z..9.......=
004049E0 15 D9 1E 22 00 3A 51 00 BF FF 74 A8 2A B4 4B DB ...".:Q...t.*.K.
004049F0 91 FF F0 32 00 13 07 B6 6F 02 62 E7 00 E7 24 50 ...2....o.b...$P
00404A00 7D FF 47 64 C3 00 8B 3D 2C 00 00 60 16 0B 00 CC }.Gd...=,..`....
00404A10 00 46 60 A1 00 B2 E8 00 76 59 00 94 9A 00 00 D1 .F`.....vY......
00404A20 3F FF DA FF 17 B4 7A 00 00 00 0A 03 11 E5 58 7F ?.....z.......X.
00404A30 91 10 96 14 00 FF 00 EF B9 A9 DB 18 00 00 6A EB ..............j.
00404A40 5C 4E 6A D4 95 93 D1 D1 4D 01 46 3C 04 86 40 0C \Nj.....M.F<..@.
00404A50 07 FB CB 43 E0 20 FD 38 80 80 00 00 0C 66 9F 5C ...C. .8.....f.\
00404A60 10 BC EC 59 A5 8D 1B A3 F9 80 49 34 FE 0B 39 0C ...Y......I4..9.
00404A70 E8 93 B1 A0 7E CF A4 A1 E8 48 9C DE 00 C4 35 40 ....~....H....5@
00404A80 00 80 00 FF 11 8D 03 61 02 BB 15 F3 8A 00 00 08 .......a........
00404A90 C5 C6 4C 8D D8 7B 1B 36 1E 60 DB 22 BD FF 8E 2D ..L..{.6.`."...-
00404AA0 14 6B 83 01 A5 64 00 7C B0 97 85 F3 78 00 93 10 .k...d.|....x...
00404AB0 5A 0F 92 CA 6B ED 26 9A 29 8C 00 85 64 00 06 8F Z...k.&.)...d...
00404AC0 39 32 00 B8 ED 00 C0 01 98 9F 6A FE DB 35 00 22 92........j..5."
00404AD0 F7 00 E2 F0 DC 36 00 7F 97 73 21 6F C6 DA 0F 05 .....6...s!o....
00404AE0 A4 BD 00 08 96 32 8D FF D8 C6 70 A1 00 E1 89 FD .....2....p.....
00404AF0 E9 CC 36 FE D5 7E 00 DF EA FF 72 40 81 4D C8 6E ..6..~....r@.M.n
00404B00 FF 00 C9 74 C7 AB 56 00 80 AE 33 4B 95 FF D9 00 ...t..V...3K....
00404B10 F8 47 41 08 4B 3E 5D FF AD 69 AF A4 45 FF 76 E3 .GA.K>]..i..E.v.
00404B20 E3 28 77 90 47 8F C0 42 9E EB 2F 79 D2 71 2A 92 .(w.G..B../y.q*.
00404B30 2F 47 00 8E 27 76 9D 05 43 A0 06 A6 91 0B 36 9E /G..'v..C.....6.
00404B40 AD 00 11 20 00 FE 05 43 8C 00 00 7E 03 A0 77 54 ... ...C...~..wT
00404B50 62 0C BC D0 30 00 00 CC 00 7C FF FE 00 8C C6 0C b...0....|......
00404B60 5D 7A 00 DE 69 12 00 55 85 95 7A D1 17 6E 93 7E ]z..i..U..z..n.~
00404B70 F3 B9 01 CD 0C 94 7C E0 5A EC B2 77 00 DE A7 4B ......|.Z..w...K
00404B80 9E 6E 2D 48 57 3A 1C 12 40 8F 4B 9B A3 7D D8 00 .n-HW:..@.K..}..
00404B90 0C A8 85 50 F3 F9 1A 69 04 B5 A3 A1 00 66 50 20 ...P...i.....fP 
00404BA0 09 4E CD F9 E4 00 47 70 00 66 00 C9 5B B3 D0 1D .N....Gp.f..[...
00404BB0 EB ED 00 4B 9B 7B DB 07 46 00 0A 00 8E 53 B9 E3 ...K.{..F....S..
00404BC0 B8 B1 E6 E0 1C 00 56 00 00 C1 D4 37 1F D2 01 31 ......V....7...1
00404BD0 00 40 00 A8 5C 00 6F 54 B7 D9 6F 00 3B 1F 4C 00 .@..\.oT..o.;.L.
00404BE0 61 08 0F 97 00 EA F4 2D 35 60 EB 2C A4 0C FB 08 a......-5`.,....
00404BF0 FF 04 8E 00 DF 73 D2 E7 DE 04 AE 77 02 EF 00 C8 .....s.....w....
00404C00 30 00 81 CF 26 A0 00 C2 7C FF 32 17 00 FF 87 9C 0...&...|.2.....
00404C10 64 33 0E 7C 3A 00 D1 4C 2D 53 93 E6 C9 FF 6F 46 d3.|:..L-S....oF
00404C20 7B BB 61 00 7E 66 00 13 B4 00 54 FA 37 AA CE C6 {.a.~f....T.7...
00404C30 57 F7 46 6E 46 08 E4 E4 00 88 7B 00 3C 46 50 12 W.FnF.....{.<FP.
00404C40 00 E4 30 9C B9 12 47 DD F9 10 4F C6 CF F3 67 3A ..0...G...O...g:
00404C50 CB 9F 06 40 8A 40 00 EF 7D 4A 48 F8 10 20 B9 9B ...@.@..}JH.. ..
00404C60 51 A0 84 C9 EE C3 60 00 98 49 49 83 C5 57 E6 A7 Q.....`..II..W..
00404C70 C0 76 09 70 E0 5B 7F 56 4D 62 FF 54 00 00 3E 88 .v.p.[.VMb.T..>.
00404C80 74 59 00 05 1D 30 1D 00 AE 00 82 BF 3B A9 59 6E tY...0......;.Yn
00404C90 D9 34 26 47 25 A7 9F 30 FF AF FB 00 DD 01 5C 91 .4&G%..0......\.
00404CA0 FF 90 A6 00 90 35 8E 00 F6 05 58 0B 42 48 55 26 .....5....X.BHU&
00404CB0 9D 00 00 BF BC 3A 8C 00 00 26 C5 00 2A C0 B8 1F .....:...&..*...
00404CC0 55 FF 68 02 F8 58 71 E0 A4 C7 E3 5C 00 2C D8 78 U.h..Xq....\.,.x
00404CD0 81 13 8D 25 17 60 67 2D 02 F3 0F 10 A1 12 D9 92 ...%.`g-........
00404CE0 F1 27 00 8A 00 71 3C B0 F5 0F 64 A0 83 BA 70 7B .'...q<...d...p{
00404CF0 70 5F E1 0D 8E 00 5F F5 00 8A 7C A7 34 00 68 74 p_...._...|.4.ht
00404D00 42 0C 01 99 A5 E3 FD C2 54 00 EC 25 FE 00 F3 FF B.......T..%....
00404D10 00 FC 86 7A 35 8C E2 40 FF E8 6C 18 BD FF AB 46 ...z5..@..l....F
00404D20 00 71 8C 04 03 00 5E A6 F4 AA FF F9 00 F6 00 9C .q....^.........
00404D30 FF 21 F8 DD 62 2D 0B 35 4E F3 66 00 5F 8B 0C 5D .!..b-.5N.f._..]
00404D40 18 D1 23 7F 09 85 48 E2 FF 0B FF 5B 75 AE E2 9F ..#...H....[u...
00404D50 87 42 C4 00 6E 1B E5 D8 CA 57 00 00 F4 00 98 2C .B..n....W.....,
00404D60 66 11 E3 4E 00 A6 FE 9D B2 C5 A0 74 B3 98 0C 00 f..N.......t....
00404D70 9E 1E 3F 79 0A 8D 6E 64 1E 25 00 FF 87 87 E4 D7 ..?y..nd.%......
00404D80 00 07 00 1C 1A 07 03 12 70 25 55 24 98 14 A1 61 ........p%U$...a
00404D90 7E 59 00 99 50 F4 44 07 34 00 6D F1 00 1E 3A 00 ~Y..P.D.4.m...:.
00404DA0 3A 77 CE C5 90 00 84 9B DA A6 A2 E3 BF FB 07 0F :w..............
00404DB0 7B A0 1C 00 3E 00 D4 0E 8C FF FE 56 F6 AF 02 D1 {...>......V....
00404DC0 9A F6 08 06 00 6F 25 48 26 A6 C4 E0 00 91 07 D8 .....o%H&.......
00404DD0 19 A6 E1 D4 72 34 B3 5F 10 88 7B 00 A0 39 63 7C ....r4._..{..9c|
00404DE0 A8 EB 18 81 6C A9 04 76 49 01 63 18 56 00 1B DD ....l..vI.c.V...
00404DF0 6F 00 40 D2 FD B2 F7 DE 81 C0 DB 60 FD 69 00 A2 o.@........`.i..
00404E00 4F F4 FB 6C 20 00 00 7A 00 EF 48 16 62 44 A0 00 O..l ..z..H.bD..
00404E10 00 0D F6 00 59 51 6C 14 1F BF 00 00 51 80 90 8E ....YQl.....Q...
00404E20 08 CD 8B 32 1A 54 87 55 73 67 06 CB FF FB F6 00 ...2.T.Usg......
00404E30 AD D7 EB 00 9C 42 9C 00 00 CB 50 81 64 17 B8 25 .....B....P.d..%
00404E40 00 69 91 FD 7E 0D 14 0E 01 3F 25 53 08 E8 FF 83 .i..~....?%S....
00404E50 E6 D4 01 74 2D E5 31 51 02 82 38 76 30 EF 87 8D ...t-.1Q..8v0...
00404E60 58 7B F4 7C 2C 70 26 20 5F 6D 1C 00 D4 B5 78 8B X{.|,p& _m....x.
00404E70 AD 00 FF 6D 58 B1 57 FF 00 76 FF 76 56 30 F9 B7 ...mX.W..v.vV0..
00404E80 18 54 11 56 63 D1 EC 00 D5 06 8D 00 E1 00 80 C7 .T.Vc...........
00404E90 F2 61 FF E2 CC FF 94 80 EC 82 22 60 7F 7D 46 02 .a........"`.}F.
00404EA0 00 09 5B 60 A1 D5 C9 4D 4C F3 11 DE FF BB 07 00 ..[`...ML.......
00404EB0 00 1C 00 E0 E5 11 EF 4B F5 34 F1 BA F1 00 E8 94 .......K.4......
00404EC0 CB 0C 8C 44 6C F0 A2 69 7F 00 E6 FF 0B F0 F0 00 ...Dl..i........
00404ED0 10 00 00 BC C3 F6 6A D8 AB 0B 46 A2 D8 54 28 90 ......j...F..T(.
00404EE0 00 1B 00 FF FE 8B 00 B3 86 00 B6 00 B0 2E 00 C2 ................
00404EF0 C6 B3 2C D0 D2 00 95 C7 27 80 00 11 50 AA CF FF ..,.....'...P...
00404F00 72 2A FF 3C A8 F2 00 D9 52 1B 0B 20 57 00 F7 A8 r*.<....R.. W...
00404F10 57 8C 46 F1 FF 44 EB 34 B8 D2 21 69 52 00 69 8C W.F..D.4..!iR.i.
00404F20 62 E6 00 E3 2C 43 81 7F 1F 22 39 EE 1B FF 78 A3 b...,C..."9...x.
00404F30 5D 98 E9 E4 C2 EB 75 8E 00 00 D4 A0 F6 37 87 7D ].....u......7.}
00404F40 65 05 6D 5A 7F 8B 04 71 F9 1B 50 99 F9 42 D1 92 e.mZ...q..P..B..
00404F50 1E 7B BE D9 3B CC 89 18 F1 11 6E 79 E4 00 00 57 .{..;.....ny...W
00404F60 36 10 3F D4 E0 C5 37 50 53 A9 D8 FF 79 C1 F0 25 6.?...7PS...y..%
00404F70 FF 82 C9 E1 FD 44 8B A7 14 00 00 28 A6 AA 37 D8 .....D.....(..7.
00404F80 FF 93 BE D5 FC 00 2C 00 43 FF CB 95 00 D5 2B F8 ......,.C.....+.
00404F90 43 FF E3 4F 4C B7 EB 06 9E D2 62 0B 01 0E FF FF C..OL.....b.....
00404FA0 00 AD 2A 2A DC 90 8A 00 10 1D 62 00 72 40 FF 41 ..**......b.r@.A
00404FB0 B6 1C 00 06 97 7F 01 08 78 8E 8A 23 C0 00 B8 00 ........x..#....
00404FC0 E7 B9 EC 7E 7E 39 00 E5 00 2C 00 87 AB E3 3E FF ...~~9...,....>.
00404FD0 2C 00 00 B3 00 54 BD 4F A0 78 D2 FF 4D 28 80 8E ,....T.O.x..M(..
00404FE0 BF 3C 81 07 05 D0 6E 64 29 72 30 FB 93 6B 37 18 .<....nd)r0..k7.
00404FF0 A9 D9 A9 53 D7 C0 4A 84 04 EB EE 13 0F 03 15 42 ...S..J........B
00405000 00 10 B4 00 A6 1F BA 9E 86 14 00 14 3C 7F FF 00 ............<...
00405010 00 C3 DC BC CE 7F 43 63 00 8C B9 18 3C 8B 00 B0 ......Cc....<...
00405020 09 AB 59 00 00 00 5C 07 C5 C8 9A 00 F7 DD E9 6F ..Y...\........o
00405030 77 18 37 39 38 EF FD FF 3B 7E 64 43 00 00 20 07 w.798...;~dC.. .
00405040 DE 19 5C 09 D3 12 E1 F3 56 38 51 01 AB E0 FF A3 ..\.....V8Q.....
00405050 04 FF 39 FF 7B 90 00 9D 57 25 12 3C 14 7C 1C DF ..9.{...W%.<.|..
00405060 3F EE 29 00 9F FF 2A C7 E9 7F 93 35 61 3A FF CC ?.)...*....5a:..
00405070 6B 4F 00 D0 97 45 C8 B4 5B FE C2 A2 BB 00 EC B3 kO...E..[.......
00405080 E2 F4 37 9D 7A 00 AC E0 26 72 7A 8B 7C F3 16 1C ..7.z...&rz.|...
00405090 26 ED D4 00 BF 00 90 00 C2 35 6A A6 00 AD 2D 30 &........5j...-0
004050A0 DF A0 7B 20 53 90 71 45 00 FD EC C8 A4 00 94 E2 ..{ S.qE........
004050B0 FB 3F F3 00 E0 F5 7E C1 D4 CC 78 EA E1 56 55 98 .?....~...x..VU.
004050C0 51 F2 C9 30 BB 01 00 C5 DF CF 01 2F AC 60 D0 96 Q..0......./.`..
004050D0 F9 E6 79 8C E2 5F F9 C4 C9 DC 21 59 74 9C 8E 9D ..y.._....!Yt...
004050E0 63 00 FF 76 4C 44 30 72 8F 23 5C 00 68 D0 40 2A c..vLD0r.#\.h.@*
004050F0 56 57 00 E8 55 F3 9D 07 36 9A 28 FF 65 C4 00 C6 VW..U...6.(.e...
00405100 A5 32 F0 02 CA 41 39 FF 3C AF 84 00 A8 50 00 7E .2...A9.<....P.~
00405110 00 F6 3B 29 CB FC 39 D2 68 E1 00 B7 6B 08 34 FF ..;)..9.h...k.4.
00405120 1D 00 DF 00 FF 9F 17 A5 00 41 00 8C 97 6E 30 EB .........A...n0.
00405130 F9 C2 1B 10 9D BE E1 9B 6F F0 C2 5E 72 E1 00 72 ........o..^r..r
00405140 FC 9D B3 45 CC 30 C8 00 20 7B DD B4 30 D8 9C E4 ...E.0.. {..0...
00405150 FF 00 6A 61 4D 4C A4 00 25 A5 9E 0E 5D 00 32 8C ..jaML..%...].2.
00405160 7C 00 00 99 00 57 8E FF 3F 04 DE 00 00 00 38 1C |....W..?.....8.
00405170 20 FF A9 47 95 57 B2 B4 00 8E A1 0C 99 0C 8F AE  ..G.W..........
00405180 D0 5A 30 4F EB 12 8F 19 B3 EC 30 46 EA 47 00 0A .Z0O......0F.G..
00405190 88 36 48 CE DE 74 82 8E 6A 00 F8 00 38 93 CA EF .6H..t..j...8...
004051A0 1A D8 76 0D A8 C6 4F EB 3E 57 CB A4 3C 99 6E 3E ..v...O.>W..<.n>
004051B0 61 3C C3 F6 23 00 D9 FB E5 30 34 76 BC 00 00 00 a<..#....04v....
004051C0 80 A3 CE BE 98 4F 44 18 51 00 3E 3C B0 8D 00 F7 .....OD.Q.><....
004051D0 F8 41 16 E1 7A 00 C0 8B 60 00 C8 BD 40 6B 1F 90 .A..z...`...@k..
004051E0 00 02 03 DF 00 BA 34 00 F8 44 F9 FF 5F 00 24 9F ......4..D.._.$.
004051F0 F8 41 54 BB 69 DF 8C FF A8 91 61 82 75 DC 00 90 .AT.i.....a.u...
00405200 41 06 EB A8 70 00 00 4C BF 00 35 51 00 50 D8 00 A...p..L..5Q.P..
00405210 C1 1F 02 94 62 E0 C4 C7 CC 40 28 00 6B AB 7A 47 ....b....@(.k.zG
00405220 8C EF 00 00 67 78 00 D3 54 80 5A 9B BD 99 45 73 ....gx..T.Z...Es
00405230 AF 01 83 38 30 EE 7A D3 9E 9A 14 F8 63 00 1C F8 ...80.z.....c...
00405240 60 E7 00 10 F9 00 9E 2C D3 00 E9 2B 19 81 C4 FF `......,...+....
00405250 CF 37 30 A3 F1 D2 ED 00 9C 0E 3E 21 FC 96 56 EF .70.......>!..V.
00405260 00 4E 74 13 7E E3 00 04 A7 15 48 16 DF E3 7C FE .Nt.~.....H...|.
00405270 50 FE FF 30 D3 85 00 A0 9F 00 CC C0 00 F0 F0 D0 P..0............
00405280 11 A3 32 FF F0 00 09 D6 E6 78 00 89 A6 24 00 2D ..2......x...$.-
00405290 40 D6 8C 2D 76 5E 5B 00 80 A1 4B 6E 9E 68 B2 00 @..-v^[...Kn.h..
004052A0 00 98 4E 1E B6 20 33 EB 04 97 FF 68 8B 1A 48 00 ..N.. 3....h..H.
004052B0 00 F6 10 5E E3 91 02 9A 00 FF 83 C9 00 DD 5E DA ...^..........^.
004052C0 3E 03 90 A3 29 D7 75 27 C8 12 C5 F1 4A F2 B2 FF >...).u'....J...
004052D0 F1 0A 4B F2 9D 21 36 37 41 89 B0 94 00 2E 97 0B ..K..!67A.......
004052E0 DB FF 0B 00 BD D8 D5 F2 54 1F 06 EF 0C FC 6B 00 ........T.....k.
004052F0 64 01 CD 71 BA E5 00 BB FF 0C 11 61 32 00 9A 00 d..q.......a2...
00405300 89 4D 00 25 FF FF 3E 59 9E FF 99 C9 00 02 DF C1 .M.%..>Y........
00405310 33 20 32 73 71 01 29 A2 C6 7D 00 0F 2C 70 A7 F5 3 2sq.)..}..,p..
00405320 1E 5C 39 31 08 00 16 8F 0C 9B E5 B7 37 C8 D8 DF .\91........7...
00405330 61 2D D1 58 B7 F1 FF 91 8B 97 92 56 31 04 AD AF a-.X.......V1...
00405340 38 3E E2 6F 2C 00 E9 BE E2 0A FF 94 57 07 1E 00 8>.o,.......W...
00405350 28 4B 96 02 2E FF 99 C0 65 B4 00 FF B3 79 D7 00 (K......e....y..
00405360 41 E1 AD 09 00 5B AC 00 13 8A 1D C6 78 70 FF B4 A....[......xp..
00405370 C0 F9 30 87 00 F2 2D 00 CD 00 FF 1B 00 F2 00 D2 ..0...-.........
00405380 4C AC 7A D4 13 A7 3E 32 FF 6E FF FF 00 43 DD 58 L.z...>2.n...C.X
00405390 A0 00 FD D8 C7 9B FF A6 F8 B1 41 E1 00 D4 57 FD ..........A...W.
004053A0 81 66 2B FB E1 0B 4C 28 6D F9 B2 4E 77 00 67 F8 .f+...L(m..Nw.g.
004053B0 57 FF CD 37 5A 74 03 58 B4 67 26 91 15 E5 70 AD W..7Zt.X.g&...p.
004053C0 00 28 E1 7B 01 D4 5B 03 EC 8F 71 A7 92 E6 52 43 .(.{..[...q...RC
004053D0 22 72 DA 78 C7 C7 7B A6 73 B8 89 FF E5 F7 CF 4B "r.x..{.s......K
004053E0 07 17 B8 D8 7F 00 60 52 74 6E 39 47 B1 36 29 E0 ......`Rtn9G.6).
004053F0 92 00 00 1E 98 EA 14 C1 73 00 7A 52 F9 B7 02 29 ........s.zR...)
00405400 00 40 F5 A2 37 00 C3 FE 73 09 89 00 07 E8 F6 CF .@..7...s.......
00405410 15 81 30 E9 97 CC EB 00 F4 EB 2D FF 00 34 F5 FF ..0.......-..4..
00405420 07 FB FF 82 9E 10 C2 75 74 E7 DB F7 FF 91 80 13 .......ut.......
00405430 10 00 15 9B 9A 00 2D C7 28 2F C0 3E 86 BE E1 14 ......-.(/.>....
00405440 72 A0 4F 04 00 1A A2 60 1E 00 CF B7 EA F6 FC 58 r.O....`.......X
00405450 EA 00 EA 58 B8 BC 0C D7 00 11 8F 30 33 1B 44 7F ...X.......03.D.
00405460 00 CE 81 84 68 9F 56 D8 00 E0 6F 32 23 F9 28 86 ....h.V...o2#.(.
00405470 6C 23 DD 00 F0 6A A6 6F 08 39 AC 00 AC 2F 85 80 l#...j.o.9.../..
00405480 08 00 6F CA 00 92 5B E0 00 23 99 00 9D 43 00 F3 ..o...[..#...C..
00405490 B4 2A 22 FF 01 BA 8F AF ED 42 8B 83 F7 8D C2 00 .*"......B......
004054A0 69 BD 00 BF 9B 84 23 3A 62 45 80 7C 65 7F 98 A5 i.....#:bE.|e...
004054B0 24 DC FB D2 20 07 70 5D 74 47 B1 40 84 AF DE 00 $... .p]tG.@....
004054C0 30 72 4F E7 D5 00 B4 12 00 13 EF 02 8B 83 00 5E 0rO............^
004054D0 FF F7 84 13 25 77 CF 02 4E 66 D9 FC E0 FE 29 00 ....%w..Nf....).
004054E0 67 58 FF 5D 00 92 F8 B8 D0 A1 00 E3 14 77 50 27 gX.].........wP'
004054F0 27 99 FF C8 60 BF 00 F6 A1 60 57 32 B1 93 CB C7 '...`....`W2....
00405500 EA 5B 2C 00 00 CB 86 9B 85 04 00 8A 00 58 21 2C .[,..........X!,
00405510 5D CF 00 6F A9 8A 6D F9 00 A0 B2 00 00 22 15 E9 ]..o..m......"..
00405520 A6 FF 1E E2 48 B2 21 EC F9 87 8E 00 DB A3 9C F0 ....H.!.........
00405530 D8 4F FF 0D 56 6C A0 8E B5 4C 00 80 F4 02 2E 2E .O..Vl...L......
00405540 00 13 85 98 00 82 FB 29 E9 3D 5B D0 C9 00 77 60 .......).=[...w`
00405550 00 FA C7 00 78 E1 B9 FF 14 01 C6 B0 9F 71 14 BF ....x........q..
00405560 D9 00 8B 20 10 09 AC 51 9F 7E 12 04 70 7C 31 65 ... ...Q.~..p|1e
00405570 2B 5E 5F 90 41 D1 C6 36 71 7F 1B 2A 36 26 C6 01 +^_.A..6q..*6&..
00405580 92 27 3A 00 2D AE 8F E6 38 2C 5C CD B8 00 2B AD .':.-...8,\...+.
00405590 DE 9D 00 E1 BD C8 0A 41 00 23 E9 79 D0 2C 2C C5 .......A.#.y.,,.
004055A0 E8 D2 BF E0 3E CC 4A 00 2A F1 00 FF 23 64 82 00 ....>.J.*...#d..
004055B0 BF FF 66 6B F3 7D 4A 01 87 F0 00 4B 00 DB 73 00 ..fk.}J....K..s.
004055C0 1C 1E A5 F1 00 15 76 FF 74 CB 49 E1 76 C4 C2 A5 ......v.t.I.v...
004055D0 F9 97 F3 CA FA C0 19 E6 A6 D6 00 CB 37 20 75 88 ............7 u.
004055E0 D8 9C 39 BB 6B F3 0B 8C E2 18 2B C5 FA 22 92 DB ..9.k.....+.."..
004055F0 06 AC 32 FF B9 B0 F9 00 20 2A 00 BF 7A 6F 61 FF ..2..... *..zoa.
00405600 E0 2E E4 59 8E 2E E0 FE DC DB E1 8E 34 87 7E 3C ...Y........4.~<
00405610 9B 00 FD FF FF 20 00 35 00 5E FB 5A 6A 10 26 EF ..... .5.^.Zj.&.
00405620 38 00 77 D3 C5 D8 8A 74 C2 48 BE FA 60 D0 1B 4E 8.w....t.H..`..N
00405630 3B B3 6A BF A0 40 21 C3 5B 55 00 FE 80 0F 8D DA ;.j..@!.[U......
00405640 88 00 60 9F 4A D7 8D 55 50 FF 00 0D 38 1D 06 00 ..`.J..UP...8...
00405650 8E 31 14 68 D1 03 F5 00 B4 C1 97 AF FE 01 06 9B .1.h............
00405660 42 00 FD F3 EC 18 21 D1 C1 4B DC 29 FF 3D C3 FF B.....!..K.).=..
00405670 FF 58 FF 83 33 E3 FF CD EB 7F E3 C3 E2 A3 7F B2 .X..3...........
00405680 00 C5 30 99 D2 F7 FB ED CA D7 61 00 11 38 20 85 ..0.......a..8 .
00405690 00 00 FF 01 54 03 70 BD 2D 62 6C 00 54 06 B7 00 ....T.p.-bl.T...
004056A0 DC 00 00 34 B4 78 57 00 3C 03 12 A4 9A 55 1F 97 ...4.xW.<....U..
004056B0 27 4A E6 A0 D0 1F 00 5B F8 CA 2D C5 C0 21 50 AC 'J.....[..-..!P.
004056C0 35 28 00 F7 70 60 6B 48 F8 68 E8 03 BE 81 0D 63 5(..p`kH.h.....c
004056D0 80 FE 6F FD 02 DE F0 0A 0F 6B AE 7B A3 5E 47 F2 ..o......k.{.^G.
004056E0 28 02 1A 68 27 80 82 11 48 14 05 2A DC 9A 27 00 (..h'...H..*..'.
004056F0 18 56 01 15 C3 77 E3 FF 00 D1 F8 A4 0C 4C 03 04 .V...w.......L..
00405700 E0 C8 54 C9 FF 36 7D CD A4 A8 00 B8 D9 EF 5C 70 ..T..6}.......\p
00405710 5F EA 64 0F 5F 8D A0 90 EA 69 4B B0 06 80 8A 00 _.d._....iK.....
00405720 F7 B1 BA 64 00 83 17 00 5B 51 1D D0 89 8A C6 66 ...d....[Q.....f
00405730 91 7F 77 58 CD FF 2B FF 08 93 5F 22 0E FF 52 00 ..wX..+..._"..R.
00405740 00 FF D3 DE 2D A3 52 3D 39 00 BF F2 15 55 00 DF ....-.R=9....U..
00405750 FF 01 B7 03 10 3C 63 C4 00 C7 C2 BE DD C0 CF 69 .....<c........i
00405760 00 13 FC 00 20 1E DF 57 20 39 F1 FF 01 2F 00 00 .... ..W 9.../..
00405770 43 42 03 B9 D1 F6 01 2F E8 73 00 AA 70 47 37 F2 CB...../.s..pG7.
00405780 0D 6E A0 00 27 00 B0 7A 21 88 61 00 65 B9 C9 FA .n..'..z!.a.e...
00405790 9A EB 00 C4 AC C9 3B C7 09 5F 1C 00 F7 00 0F 8C ......;.._......
004057A0 75 D8 33 A0 CD 8A 89 B7 7E B8 00 0E 63 FF 94 00 u.3.....~...c...
004057B0 17 6F 17 5F 00 B8 DF 28 95 4D 8A E0 2D FA FD 1B .o._...(.M..-...
004057C0 FF 37 4B 05 51 8D 03 2F 7D AF 0E A0 06 B4 0A CD .7K.Q../}.......
004057D0 87 10 2F 73 6F 58 33 AC FF 00 AC C3 0A 89 FA 48 ../soX3........H
004057E0 00 C2 82 17 85 05 D8 AC 00 E4 4D 93 51 C2 F7 AF ..........M.Q...
004057F0 3F 10 92 43 1A 03 5C 07 00 5A 39 AE 20 53 1B CB ?..C..\..Z9. S..
00405800 60 C1 0A 1B 05 B9 00 C4 00 66 04 68 98 3C FF 00 `........f.h.<..
00405810 7F CB DC 61 DA 00 1B 6B 00 F1 00 2A A4 6E 92 D9 ...a...k...*.n..
00405820 9B 00 00 C1 04 24 A8 E2 2C F3 D6 00 BD 00 00 50 .....$..,......P
00405830 00 89 2C EF E1 E2 B0 A7 00 74 FF 32 40 6C E8 E1 ..,......t.2@l..
00405840 3F A4 00 00 00 6F B0 61 23 34 51 F6 2A 4B 6C 00 ?....o.a#4Q.*Kl.
00405850 A0 52 7E 73 E6 8D 66 49 5C 0F 00 99 3A A8 98 9D .R~s..fI\...:...
00405860 00 14 4C 73 00 FE D5 81 87 E8 21 FF 0C FF 10 1C ..Ls......!.....
00405870 60 00 FF 01 5D 24 23 CE 33 3A FF 3B 3E 9C 3A 85 `...]$#.3:.;>.:.
00405880 71 CF 0E 24 00 98 C6 90 26 C6 17 91 80 0C 07 EA q..$....&.......
00405890 00 55 EA 00 5A 9B 29 37 8F 20 00 29 9F 0B 00 38 .U..Z.)7. .)...8
004058A0 26 BA 6F FF 00 9F 07 A6 CC CB 89 AD 00 23 00 10 &.o..........#..
004058B0 0C DF EF 49 F7 88 F0 32 BF 00 DE 20 14 00 69 E1 ...I...2... ..i.
004058C0 57 FF C6 02 8B 41 F1 FD F9 06 6C 13 04 90 87 82 W....A....l.....
004058D0 00 85 82 41 00 00 F1 51 23 27 18 43 0D CB 09 EC ...A...Q#'.C....
004058E0 B3 B1 31 F7 B6 1B 13 89 E8 C6 1A 23 00 F7 F4 3E ..1........#...>
004058F0 00 82 0F 73 59 93 2F 00 FF 00 A9 4F 84 A0 91 88 ...sY./....O....
00405900 3F DF 96 DC B0 00 B8 D6 4C DF B1 11 7B 4A FF 31 ?.......L...{J.1
00405910 00 20 00 27 81 05 FC F8 CE 00 40 98 3E E1 FF 3A . .'......@.>..:
00405920 AF 85 45 84 27 03 07 1C C7 6C 00 ED 27 7E 82 08 ..E.'....l..'~..
00405930 AA 00 EC 00 2D 17 00 11 BB 00 81 A2 ED 00 EB 0C ....-...........
00405940 7F 84 12 38 7F CB 2E E6 3E 00 03 95 B8 63 00 FD ...8....>....c..
00405950 C6 2D 20 00 F2 FD 00 70 FD D8 51 A3 6D 6F A3 EC .- ....p..Q.mo..
00405960 00 00 00 00 FF 41 1C 90 4A CE 36 FF 24 CE 89 00 .....A..J.6.$...
00405970 C6 72 02 1F 1C FD E8 FF C1 C4 42 8C 00 65 0C 76 .r........B..e.v
00405980 D0 1C 08 21 9B CD A6 AC DF FF CC FF 99 B1 0B 91 ...!............
00405990 AE 00 93 32 FF FD B2 97 A7 18 1E 5C 92 4D 30 00 ...2.......\.M0.
004059A0 C5 0D 00 83 00 00 5B 31 46 C9 60 91 06 8D 80 F8 ......[1F.`.....
004059B0 5B 00 B1 FA DF FF 93 CC 00 27 72 A2 FB 22 02 2B [........'r..".+
004059C0 66 34 2A 37 91 79 AF 0A 79 B5 3F EC 17 00 A3 B0 f4*7.y..y.?.....
004059D0 04 0B FF 60 0B A4 E3 CA A3 3A C6 00 4B 2E 90 00 ...`.....:..K...
004059E0 20 FF 3F 27 F0 FF FB 66 B3 00 22 07 16 31 88 17  .?'...f.."..1..
004059F0 1D 31 D8 77 1E E2 8C 10 00 00 00 00 58 04 5C 74 .1.w........X.\t
00405A00 ED 52 0E 52 11 27 FF 60 D0 B7 7C 20 1D F1 00 07 .R.R.'.`..| ....
00405A10 AF B5 40 8D E2 5D DE 46 E7 FF B6 A0 51 7B 00 00 ..@..].F....Q{..
00405A20 D1 30 F6 CA 10 7F 2E 04 00 1E FA 84 A9 34 69 31 .0...........4i1
00405A30 03 71 8E 19 5B 3F A5 00 02 CD E2 C6 02 3E 0C 1C .q..[?.......>..
00405A40 F5 CC CE 45 30 85 4C 8B 7F 31 26 44 A8 4B 9F B0 ...E0.L..1&D.K..
00405A50 B7 0D FF 25 74 00 E4 02 B9 C0 EE 07 82 01 DB 9E ...%t...........
00405A60 F6 4C 8A 4D 2D A7 96 05 6C CA 00 0F 9A 2F 00 6C .L.M-...l..../.l
00405A70 00 58 3F 1B 22 D1 A5 00 42 03 89 D7 D3 00 00 90 .X?."...B.......
00405A80 8B 00 BF 9E 81 00 50 7C 5F 48 1A 62 4A 6E B3 00 ......P|_H.bJn..
00405A90 75 B9 DE AF D7 27 9F 23 15 B0 FF B1 19 42 00 FF u....'.#.....B..
00405AA0 2E 47 4A D0 FF 37 00 20 CF 00 51 00 34 FF C5 F5 .GJ..7. ..Q.4...
00405AB0 0F 51 3F 59 00 59 F1 2B 13 81 69 63 8F FF 07 19 .Q?Y.Y.+..ic....
00405AC0 09 3A 01 B4 34 00 77 00 9F AF C7 1B DB A1 41 29 .:..4.w.......A)
00405AD0 EE 18 E6 00 3E 80 AC 10 01 76 21 DB A5 EC 30 04 ....>....v!...0.
00405AE0 30 C1 A1 00 90 2B 24 41 B6 35 61 2A F1 05 42 F9 0....+$A.5a*..B.
00405AF0 E5 46 14 C2 18 F4 46 00 7D 23 9C F8 C7 E1 3D 00 .F....F.}#....=.
00405B00 2D FA 8F 00 2D 58 75 00 00 D2 83 89 B1 00 B0 00 -...-Xu.........
00405B10 08 00 00 FF 00 63 E3 00 99 BA 9C F2 00 CA FF 00 .....c..........
00405B20 25 FF 15 CE B7 FF 8C 00 4C 00 01 B7 02 A3 61 D8 %.......L.....a.
00405B30 CD 50 2B FF F9 DD 00 BD 00 ED 52 CD FB 06 FD 5C .P+.......R....\
00405B40 AF 08 00 45 40 CB 75 80 C0 07 B4 AC E0 68 00 0B ...E@.u......h..
00405B50 C3 27 1C 01 7C 8C BB 35 A0 70 00 9B 7B FF 83 C9 .'..|..5.p..{...
00405B60 B6 E4 00 4E C7 0D 06 8D F5 96 F0 BF E7 8C 0D F8 ...N............
00405B70 00 81 38 A4 AC 20 F2 77 40 12 D0 BF CD 21 D1 FF ..8.. .w@....!..
00405B80 62 49 4A 84 19 16 FB CC 5E 20 00 1F 91 73 FF A3 bIJ.....^ ...s..
00405B90 E4 00 CE CE 66 70 93 B8 00 DF 2F 00 A6 0D 00 BF ....fp..../.....
00405BA0 23 33 2E 5D 1C 02 9C 44 81 00 BF C9 32 2C 00 51 #3.]...D....2,.Q
00405BB0 A9 0A 7F 8C 40 4C 87 9F 00 01 9F 8F 1A 74 42 88 ....@L.......tB.
00405BC0 90 11 00 6F 9D 66 A9 72 47 1D 23 FB C1 60 47 00 ...o.f.rG.#..`G.
00405BD0 E1 C0 F6 44 40 89 F0 34 E3 58 E0 A5 3E A1 62 F2 ...D@..4.X..>.b.
00405BE0 FF 10 71 27 B4 BB 9E 04 00 B9 F3 24 C1 00 00 0E ..q'.......$....
00405BF0 D9 A5 33 CE 47 DE C0 00 E7 00 00 B0 00 A0 E2 86 ..3.G...........
00405C00 00 FF 34 00 82 87 08 7E F7 DE 66 C8 FF 45 D0 8B ..4....~..f..E..
00405C10 C9 0D 0B AE 5C 4D 0A 00 CB 9F FF 00 A3 DE FF 92 ....\M..........
00405C20 88 3D C8 89 8D E8 78 A4 28 AF 26 75 48 B7 A1 9A .=....x.(.&uH...
00405C30 00 E3 B4 3F 34 07 A2 6B 3A 9F 28 00 92 C5 48 00 ...?4..k:.(...H.
00405C40 FF F8 76 81 6C 2C 2F 21 A3 A6 1E 54 7E 80 6A DE ..v.l,/!...T~.j.
00405C50 88 C4 94 20 45 11 30 1D 28 06 D1 1D 00 85 72 00 ... E.0.(.....r.
00405C60 67 49 00 B5 0D FC 48 DA FF 81 D9 3D 04 61 3C A8 gI....H....=.a<.
00405C70 00 FA AA 03 5D FF C1 47 13 22 27 82 98 F6 00 DA ....]..G."'.....
00405C80 58 53 83 8C F9 30 E5 A1 00 20 CD 43 C5 C0 14 1C XS...0... .C....
00405C90 36 DE 00 60 B6 0C B1 00 00 25 BE 9C 18 EB 00 6E 6..`.....%.....n
00405CA0 50 53 E9 76 F3 C0 93 60 A4 8F F4 03 67 D5 FD 00 PS.v...`....g...
00405CB0 0B 80 08 47 E8 8C 00 BE 00 07 6F 21 E7 00 26 00 ...G......o!..&.
00405CC0 1C 22 00 FA F9 6F BD F8 00 FA C2 F3 C3 57 72 E5 ."...o.......Wr.
00405CD0 4C 43 32 7F 37 D6 1C 00 FF FF 74 D2 00 01 7D A2 LC2.7.....t...}.
00405CE0 00 FF 93 1C 53 F0 00 98 4D 90 67 8B F9 A0 32 00 ....S...M.g...2.
00405CF0 00 0F 75 FF 00 A5 E3 AA E9 FF B6 4F 9C 97 59 CA ..u........O..Y.
00405D00 B2 FB 02 0D AB 00 36 E3 00 32 66 E9 72 A5 00 DE ......6..2f.r...
00405D10 0C 81 11 66 B4 99 30 3A 00 08 07 B8 CC 8F E2 A5 ...f..0:........
00405D20 3E 27 51 A5 28 10 01 24 C7 17 62 7F 1A 7A 34 FC >'Q.(..$..b..z4.
00405D30 00 F3 1F 00 9F 12 FE 2F AE B7 94 A0 83 9A BD 90 ......./........
00405D40 00 BB 00 0E C1 38 FF 20 1C 85 4F 2C 59 48 C1 C0 .....8. ..O,YH..
00405D50 6A 00 57 C8 66 B7 7C 00 70 DD 00 00 00 BF 8C D1 j.W.f.|.p.......
00405D60 00 C0 EC 09 3B 00 6C 60 F9 F8 0A 09 14 F4 CF 9D ....;.l`........
00405D70 89 C3 00 2A 00 60 86 81 42 A0 CF 71 DB 00 3A 05 ...*.`..B..q..:.
00405D80 4E AB 02 30 D3 C7 00 50 42 6E 40 8C DE CE 35 7E N..0...PBn@...5~
00405D90 41 E9 00 DE 00 43 C4 03 B0 1D E8 AE FF 5F 00 D5 A....C......._..
00405DA0 8B DE 1B C7 ED BD 70 00 28 22 74 00 1C 49 E9 3F ......p.("t..I.?
00405DB0 80 8E 0D 5A 00 04 74 B2 81 44 C9 D8 00 00 91 00 ...Z..t..D......
00405DC0 33 A7 78 FF 9D BD 00 60 6A 67 91 F1 1E 00 E1 13 3.x....`jg......
00405DD0 00 FC F2 8E 00 39 62 11 AE B5 CC 00 65 03 9C 00 .....9b.....e...
00405DE0 4F EC 18 78 9E 00 00 C6 00 F7 0E C6 C3 17 3D BF O..x..........=.
00405DF0 D0 43 68 6C 00 ED 38 00 7B 28 F6 D9 E4 E4 EB 02 .Chl..8.{(......
00405E00 B7 E9 FE 07 DB AA 3C 9C 8B F7 69 00 F8 1F C0 00 ......<...i.....
00405E10 00 19 C9 4F 00 0E DC C9 B2 BF 4A FA 00 22 25 00 ...O......J.."%.
00405E20 00 B2 AB A6 FF E0 F0 12 C0 93 62 3A C5 F7 CF 9F ..........b:....
00405E30 94 4D 6F FF 4A 91 F5 B6 63 EF 02 E4 35 2B 95 8A .Mo.J...c...5+..
00405E40 CF FE C6 CB 95 73 24 66 F9 E7 CE 64 76 0D 14 50 .....s$f...dv..P
00405E50 32 16 00 41 8E 5F E9 ED 66 8F 06 FF 4E 48 33 0D 2..A._..f...NH3.
00405E60 07 34 9F 12 E0 16 91 8F 21 01 29 BC 79 5E 3A 0E .4......!.).y^:.
00405E70 27 5D D2 08 00 60 42 6D F7 00 5A E7 6F 5C 00 4C ']...`Bm..Z.o\.L
00405E80 8E C8 25 B0 FF 1F 01 5C 4D 00 A3 00 7E 52 20 E9 ..%....\M...~R .
00405E90 3A E8 FF 98 24 2B 00 83 31 20 81 FA 00 87 00 00 :...$+..1 ......
00405EA0 E5 00 17 10 EA 26 00 1B 96 00 98 38 5F 06 26 D1 .....&.....8_.&.
00405EB0 C1 FF 47 65 D9 34 9A D2 9D F5 F4 60 FF AD 1B D5 ..Ge.4.....`....
00405EC0 6D 04 18 00 00 00 98 62 8B 09 14 5D 02 0E B6 00 m......b...]....
00405ED0 51 FF 00 56 C0 F0 D8 F4 17 89 21 00 2D 00 97 D8 Q..V......!.-...
00405EE0 00 2F 8B 51 93 9F DF 5F 1A A0 A9 D3 3D A4 93 5E ./.Q..._....=..^
00405EF0 B0 50 8F 4D 50 8A 2F BD 00 A5 1F F1 15 00 7F E5 .P.MP./.........
00405F00 6E 60 67 A0 40 66 FD A2 C5 FD 24 DD FE 21 0E FF n`g.@f....$..!..
00405F10 F9 10 00 58 00 A2 C3 99 7F 00 82 E4 ED AA 0B 06 ...X............
00405F20 00 83 08 3C 2B 2A 3C 00 0F 3C D7 72 B0 DC 0B 1D ...<+*<..<.r....
00405F30 34 1E DD 7F 56 42 2B EC 00 2B BB 00 8F FF 00 E4 4...VB+..+......
00405F40 96 2D 71 A1 88 FD 71 EE AC 6B 67 00 00 BA 2A A1 .-q...q..kg...*.
00405F50 DF 68 00 CD BF C7 9A 80 00 7E 14 A0 DF 00 05 FF .h.......~......
00405F60 8B 70 D9 C9 2C 6D 18 A5 00 EE 00 00 00 31 D8 23 .p..,m.......1.#
00405F70 70 A3 F4 FF FF CE 11 FF 95 24 FD 00 38 89 29 ED p........$..8.).
00405F80 00 00 F9 79 84 0D FF 08 BA 0C 08 A7 99 E5 49 5E ...y..........I^
00405F90 00 42 AF C9 0A FF 34 34 62 7E 7F 09 05 C0 66 E7 .B....44b~....f.
00405FA0 00 00 F7 9B 3D 59 9F C4 83 5B 0A EE 54 FF D8 00 ....=Y...[..T...
00405FB0 E9 FF 88 E2 FA E9 FF C3 DB 7E 84 40 9A 00 7F 00 .........~.@....
00405FC0 E4 CC 00 00 CE 80 B6 00 83 16 60 F6 20 CF 6E A0 ..........`. .n.
00405FD0 26 3E 49 03 ED D2 2E 23 3C 68 DE 74 2C 28 AC 9D &>I....#<h.t,(..
00405FE0 CC D3 70 67 DF 00 80 FF 00 CD 00 D3 2F BC 17 C5 ..pg......../...
00405FF0 1E 63 01 4C FA FF 1B 00 70 F1 1A 25 4E 00 C9 01 .c.L....p..%N...
00406000 EE A1 00 00 21 10 00 52 00 61 2D 7C 49 13 FC EC ....!..R.a-|I...
00406010 17 E8 D8 42 61 DB EE 43 81 56 DB FF 18 34 D1 4A ...Ba..C.V...4.J
00406020 22 C3 00 41 55 3C 6C 78 13 3B 38 52 E1 F6 4C 16 "..AU<lx.;8R..L.
00406030 26 11 0B 05 D3 C7 DE 8F 48 5C 00 84 FA 36 00 E8 &.......H\...6..
00406040 5D 00 8E 03 66 F3 43 17 1E 68 00 9F 99 22 00 F6 ]...f.C..h..."..
00406050 88 A2 14 52 8B 80 00 A4 1A 84 53 C3 00 80 7B FB ...R......S...{.
00406060 ED 83 85 2C 0F 00 93 19 0F 09 67 F9 00 AE 00 31 ...,......g....1
00406070 5A 3A 7F 55 FF 75 00 2D 90 35 E4 40 49 47 04 CA Z:.U.u.-.5.@IG..
00406080 FE EC A2 FF 29 00 81 E9 4A 9D 41 75 00 DF 3D 9A ....)...J.Au..=.
00406090 1E 2F FF CF 8E BA FF 16 FB 00 00 2C 6D C0 FF 80 ./.........,m...
004060A0 61 FF B1 FF FF CF 00 4D E4 66 F7 0D B0 A3 52 54 a......M.f....RT
004060B0 49 A0 C1 00 33 08 56 CD B3 45 68 FF 63 1A C6 C3 I...3.V..Eh.c...
004060C0 D5 B7 33 AC 2F 5E 70 00 00 89 39 08 C8 00 38 88 ..3./^p...9...8.
004060D0 C2 E3 CF C2 24 BA F2 00 63 BB BD 33 F4 30 B1 C4 ....$...c..3.0..
004060E0 D4 9A 1C 83 B3 32 72 00 FF 5E FA 7C DC 7A C6 24 .....2r..^.|.z.$
004060F0 00 F3 8C B2 B0 26 24 C7 8A 00 12 6E 26 40 CB E0 .....&$....n&@..
00406100 44 7E 00 00 69 AB 78 16 00 9C 8F 40 AF 68 9B F8 D~..i.x....@.h..
00406110 44 8D 00 00 5B 11 00 F2 60 DC D5 5F F2 5E 62 2B D...[...`.._.^b+
00406120 2F 3D 00 00 70 CF F4 00 70 12 16 00 0F 00 C4 4E /=..p...p......N
00406130 EF BA 92 D6 BE 95 4F BE 00 AE 11 10 E2 A1 10 85 ......O.........
00406140 7F 2D 87 A4 6C 2C 65 E5 73 00 29 43 CF EC 91 00 .-..l,e.s.)C....
00406150 00 00 FF 00 00 37 36 BB 04 1E 2B 80 00 1A 00 33 .....76...+....3
00406160 7C D2 01 58 FA 8F B7 92 00 5D D8 B8 B1 D9 BA 57 |..X.....].....W
00406170 00 00 B9 43 AE 4F D8 84 C0 11 8D 64 00 58 57 20 ...C.O.....d.XW 
00406180 BE 22 4D 47 5F BE 2D CD 00 C5 19 FC 45 C1 00 BB ."MG_.-.....E...
00406190 78 87 8F 2C 80 E0 C6 5A 34 5A 11 06 21 00 CF AB x..,...Z4Z..!...
004061A0 FF 34 6A 48 94 88 20 00 00 00 02 BF 1F 47 00 00 .4jH.. ......G..
004061B0 5E C0 60 C4 CD 2B 24 F0 7F 8B 2F 15 92 8E E4 12 ^.`..+$.../.....
004061C0 2C 00 C9 B0 FF C6 0B A0 50 40 9C 33 BB 5B BE 00 ,.......P@.3.[..
004061D0 A2 00 00 26 FF C0 F9 00 A9 E8 5F 4F 60 04 12 FF ...&......_O`...
004061E0 26 F1 FF C0 70 50 82 CE FF 4E EE 67 FA A0 E0 12 &...pP...N.g....
004061F0 29 DB 09 81 00 F6 30 00 65 C6 1E 86 DC FF AA E5 ).....0.e.......
00406200 00 00 DF 58 3A A2 4A B9 35 C8 7D FF AC BF 00 58 ...X:.J.5.}....X
00406210 18 3E 00 FC B3 E3 51 00 07 00 00 23 E3 6F F1 68 .>....Q....#.o.h
00406220 00 C0 98 B6 FF 61 1E FF 43 67 FE FB 40 14 CE 00 .....a..Cg..@...
00406230 FF 62 90 D2 0C 07 00 36 07 71 E6 00 A0 06 CA 4E .b.....6.q.....N
00406240 FC 83 3C 01 04 66 1B 31 E3 00 E8 00 91 A6 CC 6E ..<..f.1.......n
00406250 00 00 00 00 32 FC C9 00 F9 46 D3 00 BB 02 86 18 ....2....F......
00406260 24 C0 E6 00 48 00 B1 DC CC 8D 3E 00 00 EA C3 00 $...H.....>.....
00406270 65 19 1A BE FC 8C E2 01 ED 72 5D 28 0E 2A FA 30 e........r](.*.0
00406280 38 7D 55 9C 72 E8 00 38 EB 00 49 24 2F 3B 00 E7 8}U.r..8..I$/;..
00406290 F8 9A 80 83 37 3C DF CC 12 00 00 78 BF 00 61 B5 ....7<.....x..a.
004062A0 75 00 37 AB 4D 90 00 06 B7 D6 FF D2 62 48 95 02 u.7.M.......bH..
004062B0 07 C7 7A DE 00 CD 31 FF 91 A0 A6 EA CB F7 BB 41 ..z...1........A
004062C0 20 3F 50 92 6C 00 B8 A4 84 C0 0F C2 46 6F D2 8D  ?P.l.......Fo..
004062D0 C0 FE FF 00 45 39 D5 00 94 61 05 3B CB 47 7E D7 ....E9...a.;.G~.
004062E0 9E 3A 5C 23 00 38 BF B1 0C 10 99 B0 59 D9 BF 6D .:\#.8......Y..m
004062F0 FF 94 1A FE DB B8 BA 22 FB 00 E7 00 66 40 F6 5F ......."....f@._
00406300 00 00 00 00 6B E9 89 72 4E 40 3F 00 83 41 6D 39 ....k..rN@?..Am9
00406310 CD FF 80 00 92 D1 2A 00 F3 46 00 E4 BB 36 00 4B ......*..F...6.K
00406320 F8 3B 78 30 D2 72 B8 D4 F5 54 9E ED 3E 00 00 00 .;x0.r...T..>...
00406330 00 08 A4 00 9E 01 00 68 69 00 F5 9C 88 39 FF 07 .......hi....9..
00406340 08 4C B5 39 85 1A 00 26 FF 18 2F 9C AF FD 90 00 .L.9...&../.....
00406350 80 75 68 63 00 A0 AC 70 6E F7 48 00 A2 D7 8C 45 .uhc...pn.H....E
00406360 00 80 46 15 3C 3E 2B 0D 5A DC 9E 11 4C 67 42 C0 ..F.<>+.Z...LgB.
00406370 18 A1 92 BF 81 FF 00 9B DC F1 A6 B5 B9 92 91 03 ................
00406380 57 00 98 3E FF F0 A8 BF 00 E9 AA 13 A3 00 E0 92 W..>............
00406390 FF 9A 7B 1F FF E9 3E BB 38 1B DE 45 E8 2D FF 88 ..{...>.8..E.-..
004063A0 70 D6 F8 89 00 C1 03 00 E0 46 00 00 00 9E D0 CF p........F......
004063B0 7D B6 60 25 E3 99 71 FF A2 00 1B 92 40 D0 73 85 }.`%..q.....@.s.
004063C0 FF 44 04 1E 00 00 FF 00 41 68 8F 4E C6 61 1F 88 .D......Ah.N.a..
004063D0 F3 01 18 8A 1C FF 00 00 06 2A F8 23 88 BD E3 72 .........*.#...r
004063E0 1D 45 13 FF 00 B6 4A D9 FD 09 00 AE 6C 2A C3 FF .E....J.....l*..
004063F0 6B 00 00 9E 4A 15 D9 A7 43 0A FF 9F 6C BF FF 3F k...J...C...l..?
00406400 67 00 4A 01 19 A8 34 85 A1 E0 00 83 8E 00 FF C1 g.J...4.........
00406410 DE 46 02 C4 EF 80 72 FF 07 4C DB B7 0B F7 23 AE .F....r..L....#.
00406420 00 EC 00 00 5C CD 46 00 9B 2A 00 94 0C 00 A0 D7 ....\.F..*......
00406430 B2 6F D2 AA C1 2A 0C 00 78 55 3D FB 98 FF C0 89 .o...*..xU=.....
00406440 0B 47 D1 00 B0 64 9F 27 FF 35 FF 44 EE 00 1F C4 .G...d.'.5.D....
00406450 24 6C B1 E9 50 40 C0 0B A1 94 42 07 37 FE 23 83 $l..P@....B.7.#.
00406460 09 CB 3E E2 28 D4 86 91 7D 00 0D DD 48 A0 00 74 ..>.(...}...H..t
00406470 28 D2 93 8D 77 FF 7C 28 4B 06 00 6F 00 FB 2B C7 (...w.|(K..o..+.
00406480 7A EC 10 B1 68 4E 06 B7 7E 23 00 5E BE 15 D9 8E z...hN..~#.^....
00406490 54 20 A2 E9 06 E6 40 9E 00 3E 16 2B D8 00 D3 00 T ....@..>.+....
004064A0 7B 77 00 47 5C 62 42 BD FF AB F5 4D 30 67 B1 29 {w.G\bB....M0g.)
004064B0 E5 29 C9 FF 31 42 00 70 FF 18 00 D1 4B FF 7F 81 .)..1B.p....K...
004064C0 1F 0B C2 49 0B 81 40 06 00 E0 00 00 4F 4E 60 FF ...I..@.....ON`.
004064D0 1D D5 2D 20 72 3F 40 00 CC 6C E1 8D 5F F4 00 4D ..- r?@..l.._..M
004064E0 49 20 B1 58 82 9F B4 24 66 8B 28 28 70 00 45 DE I .X...$f.((p.E.
004064F0 05 54 F1 F3 21 2C 00 00 20 3C 18 2C D0 00 0B 81 .T..!,.. <.,....
00406500 F6 60 F8 00 03 AD 33 38 38 00 FF 13 8E 96 39 43 .`....388.....9C
00406510 75 98 13 73 4A 40 80 00 4B DB C9 00 48 1D 86 00 u..sJ@..K...H...
00406520 5D 00 22 FF FE C4 37 68 52 3F 93 8B C9 68 7A 7F ]."...7hR?...hz.
00406530 CE 00 CA 70 00 4C AC 42 D2 27 C3 23 00 1C 74 FF ...p.L.B.'.#..t.
00406540 2A 91 B7 37 B0 5E AD 61 00 00 EF 6B 00 E1 76 00 *..7.^.a...k..v.
00406550 00 00 00 E4 00 71 FF 37 00 14 FE 00 4F 79 3D 85 .....q.7....Oy=.
00406560 1D B6 9C 00 11 AA 80 C1 14 74 8F C3 D9 4B 98 D9 .........t...K..
00406570 EB 4C 00 46 D6 68 E6 79 00 FF 80 28 DC E6 FF 00 .L.F.h.y...(....
00406580 6A 29 EA 00 2C 02 00 30 FF 6F 00 76 96 FE 00 D6 j)..,..0.o.v....
00406590 FF C0 21 D1 8F 42 CF 02 77 64 84 0F B1 84 76 FA ..!..B..wd....v.
004065A0 80 C1 6D 0F EB 0D 4B AF 71 62 D6 BD 59 31 62 2A ..m...K.qb..Y1b*
004065B0 00 30 B7 00 85 B4 F8 54 14 28 C5 E4 CB ED 91 80 .0.....T.(......
004065C0 1A 6E 14 E6 CB 6A D8 D1 91 0E 00 40 FB 3A FF 82 .n...j.....@.:..
004065D0 C7 C0 DB 48 00 8C 00 6C 90 00 FD A8 96 49 1A 8F ...H...l.....I..
004065E0 5B C4 00 76 03 C1 6C C8 ED D3 7A 19 FF 17 A4 97 [..v..l...z.....
004065F0 52 CC 55 63 93 34 FF 72 B4 FA BC AF 85 00 58 6F R.Uc.4.r......Xo
00406600 00 00 00 00 00 00 00 00 00 00 00 00 00 00 00 00 ................
00406610 00 00 00 00 00 00 00 00 00 00 00 00 00 00 00 00 ................
00406620 00 00 00 00 00 00 00 00 00 00 00 00 00 00 00 00 ................
00406630 00 00 00 00 00 00 00 00 00 00 00 00 00 00 00 00 ................
00406640 00 00 00 00 00 00 00 00 00 00 00 00 00 00 00 00 ................
00406650 00 00 00 00 00 00 00 00 00 00 00 00 00 00 00 00 ................
00406660 00 00 00 00 00 00 00 00 00 00 00 00 00 00 00 00 ................
00406670 00 00 00 00 00 00 00 00 00 00 00 00 00 00 00 00 ................
00406680 00 00 00 00 00 00 00 00 00 00 00 00 00 00 00 00 ................
00406690 00 00 00 00 00 00 00 00 00 00 00 00 00 00 00 00 ................
004066A0 00 00 00 00 00 00 00 00 00 00 00 00 00 00 00 00 ................
004066B0 00 00 00 00 00 00 00 00 00 00 00 00 00 00 00 00 ................
004066C0 00 00 00 00 00 00 00 00 00 00 00 00 00 00 00 00 ................
004066D0 00 00 00 00 00 00 00 00 00 00 00 00 00 00 00 00 ................
004066E0 00 00 00 00 00 00 00 00 00 00 00 00 00 00 00 00 ................
004066F0 00 00 00 00 00 00 00 00 00 00 00 00 00 00 00 00 ................
00406700 00 00 00 00 00 00 00 00 00 00 00 00 00 00 00 00 ................
00406710 00 00 00 00 00 00 00 00 00 00 00 00 00 00 00 00 ................
00406720 00 00 00 00 00 00 00 00 00 00 00 00 00 00 00 00 ................
00406730 00 00 00 00 00 00 00 00 00 00 00 00 00 00 00 00 ................
00406740 00 00 00 00 00 00 00 00 00 00 00 00 00 00 00 00 ................
00406750 00 00 00 00 00 00 00 00 00 00 00 00 00 00 00 00 ................
00406760 00 00 00 00 00 00 00 00 00 00 00 00 00 00 00 00 ................
00406770 00 00 00 00 00 00 00 00 00 00 00 00 00 00 00 00 ................
00406780 00 00 00 00 00 00 00 00 00 00 00 00 00 00 00 00 ................
00406790 00 00 00 00 00 00 00 00 00 00 00 00 00 00 00 00 ................
004067A0 00 00 00 00 00 00 00 00 00 00 00 00 00 00 00 00 ................
004067B0 00 00 00 00 00 00 00 00 00 00 00 00 00 00 00 00 ................
004067C0 00 00 00 00 00 00 00 00 00 00 00 00 00 00 00 00 ................
004067D0 00 00 00 00 00 00 00 00 00 00 00 00 00 00 00 00 ................
004067E0 00 00 00 00 00 00 00 00 00 00 00 00 00 00 00 00 ................
004067F0 00 00 00 00 00 00 00 00 00 00 00 00 00 00 00 00 ................
00406800 00 00 00 00 00 00 00 00 00 00 00 00 00 00 00 00 ................
00406810 00 00 00 00 00 00 00 00 00 00 00 00 00 00 00 00 ................
00406820 00 00 00 00 00 00 00 00 00 00 00 00 00 00 00 00 ................
00406830 00 00 00 00 00 00 00 00 00 00 00 00 00 00 00 00 ................
00406840 00 00 00 00 00 00 00 00 00 00 00 00 00 00 00 00 ................
00406850 00 00 00 00 00 00 00 00 00 00 00 00 00 00 00 00 ................
00406860 00 00 00 00 00 00 00 00 00 00 00 00 00 00 00 00 ................
00406870 00 00 00 00 00 00 00 00 00 00 00 00 00 00 00 00 ................
00406880 00 00 00 00 00 00 00 00 00 00 00 00 00 00 00 00 ................
00406890 00 00 00 00 00 00 00 00 00 00 00 00 00 00 00 00 ................
004068A0 00 00 00 00 00 00 00 00 00 00 00 00 00 00 00 00 ................
004068B0 00 00 00 00 00 00 00 00 00 00 00 00 00 00 00 00 ................
004068C0 00 00 00 00 00 00 00 00 00 00 00 00 00 00 00 00 ................
004068D0 00 00 00 00 00 00 00 00 00 00 00 00 00 00 00 00 ................
004068E0 00 00 00 00 00 00 00 00 00 00 00 00 00 00 00 00 ................
004068F0 00 00 00 00 00 00 00 00 00 00 00 00 00 00 00 00 ................
00406900 00 00 00 00 00 00 00 00 00 00 00 00 00 00 00 00 ................
00406910 00 00 00 00 00 00 00 00 00 00 00 00 00 00 00 00 ................
00406920 00 00 00 00 00 00 00 00 00 00 00 00 00 00 00 00 ................
00406930 00 00 00 00 00 00 00 00 00 00 00 00 00 00 00 00 ................
00406940 00 00 00 00 00 00 00 00 00 00 00 00 00 00 00 00 ................
00406950 00 00 00 00 00 00 00 00 00 00 00 00 00 00 00 00 ................
00406960 00 00 00 00 00 00 00 00 00 00 00 00 00 00 00 00 ................
00406970 00 00 00 00 00 00 00 00 00 00 00 00 00 00 00 00 ................
00406980 00 00 00 00 00 00 00 00 00 00 00 00 00 00 00 00 ................
00406990 00 00 00 00 00 00 00 00 00 00 00 00 00 00 00 00 ................
004069A0 00 00 00 00 00 00 00 00 00 00 00 00 00 00 00 00 ................
004069B0 00 00 00 00 00 00 00 00 00 00 00 00 00 00 00 00 ................
004069C0 00 00 00 00 00 00 00 00 00 00 00 00 00 00 00 00 ................
004069D0 00 00 00 00 00 00 00 00 00 00 00 00 00 00 00 00 ................
004069E0 00 00 00 00 00 00 00 00 00 00 00 00 00 00 00 00 ................
004069F0 00 00 00 00 00 00 00 00 00 00 00 00 00 00 00 00 ................
00406A00 00 00 00 00 00 00 00 00 00 00 00 00 00 00 00 00 ................
00406A10 00 00 00 00 00 00 00 00 00 00 00 00 00 00 00 00 ................
00406A20 00 00 00 00 00 00 00 00 00 00 00 00 00 00 00 00 ................
00406A30 00 00 00 00 00 00 00 00 00 00 00 00 00 00 00 00 ................
00406A40 00 00 00 00 00 00 00 00 00 00 00 00 00 00 00 00 ................
00406A50 00 00 00 00 00 00 00 00 00 00 00 00 00 00 00 00 ................
00406A60 00 00 00 00 00 00 00 00 00 00 00 00 00 00 00 00 ................
00406A70 00 00 00 00 00 00 00 00 00 00 00 00 00 00 00 00 ................
00406A80 00 00 00 00 00 00 00 00 00 00 00 00 00 00 00 00 ................
00406A90 00 00 00 00 00 00 00 00 00 00 00 00 00 00 00 00 ................
00406AA0 00 00 00 00 00 00 00 00 00 00 00 00 00 00 00 00 ................
00406AB0 00 00 00 00 00 00 00 00 00 00 00 00 00 00 00 00 ................
00406AC0 00 00 00 00 00 00 00 00 00 00 00 00 00 00 00 00 ................
00406AD0 00 00 00 00 00 00 00 00 00 00 00 00 00 00 00 00 ................
00406AE0 00 00 00 00 00 00 00 00 00 00 00 00 00 00 00 00 ................
00406AF0 00 00 00 00 00 00 00 00 00 00 00 00 00 00 00 00 ................
00406B00 00 00 00 00 00 00 00 00 00 00 00 00 00 00 00 00 ................
00406B10 00 00 00 00 00 00 00 00 00 00 00 00 00 00 00 00 ................
00406B20 00 00 00 00 00 00 00 00 00 00 00 00 00 00 00 00 ................
00406B30 00 00 00 00 00 00 00 00 00 00 00 00 00 00 00 00 ................
00406B40 00 00 00 00 00 00 00 00 00 00 00 00 00 00 00 00 ................
00406B50 00 00 00 00 00 00 00 00 00 00 00 00 00 00 00 00 ................
00406B60 00 00 00 00 00 00 00 00 00 00 00 00 00 00 00 00 ................
00406B70 00 00 00 00 00 00 00 00 00 00 00 00 00 00 00 00 ................
00406B80 00 00 00 00 00 00 00 00 00 00 00 00 00 00 00 00 ................
00406B90 00 00 00 00 00 00 00 00 00 00 00 00 00 00 00 00 ................
00406BA0 00 00 00 00 00 00 00 00 00 00 00 00 00 00 00 00 ................
00406BB0 00 00 00 00 00 00 00 00 00 00 00 00 00 00 00 00 ................
00406BC0 00 00 00 00 00 00 00 00 00 00 00 00 00 00 00 00 ................
00406BD0 00 00 00 00 00 00 00 00 00 00 00 00 00 00 00 00 ................
00406BE0 00 00 00 00 00 00 00 00 00 00 00 00 00 00 00 00 ................
00406BF0 00 00 00 00 00 00 00 00 00 00 00 00 00 00 00 00 ................
00406C00 00 00 00 00 00 00 00 00 00 00 00 00 00 00 00 00 ................
00406C10 00 00 00 00 00 00 00 00 00 00 00 00 00 00 00 00 ................
00406C20 00 00 00 00 00 00 00 00 00 00 00 00 00 00 00 00 ................
00406C30 00 00 00 00 00 00 00 00 00 00 00 00 00 00 00 00 ................
00406C40 00 00 00 00 00 00 00 00 00 00 00 00 00 00 00 00 ................
00406C50 00 00 00 00 00 00 00 00 00 00 00 00 00 00 00 00 ................
00406C60 00 00 00 00 00 00 00 00 00 00 00 00 00 00 00 00 ................
00406C70 00 00 00 00 00 00 00 00 00 00 00 00 00 00 00 00 ................
00406C80 00 00 00 00 00 00 00 00 00 00 00 00 00 00 00 00 ................
00406C90 00 00 00 00 00 00 00 00 00 00 00 00 00 00 00 00 ................
00406CA0 00 00 00 00 00 00 00 00 00 00 00 00 00 00 00 00 ................
00406CB0 00 00 00 00 00 00 00 00 00 00 00 00 00 00 00 00 ................
00406CC0 00 00 00 00 00 00 00 00 00 00 00 00 00 00 00 00 ................
00406CD0 00 00 00 00 00 00 00 00 00 00 00 00 00 00 00 00 ................
00406CE0 00 00 00 00 00 00 00 00 00 00 00 00 00 00 00 00 ................
00406CF0 00 00 00 00 00 00 00 00 00 00 00 00 00 00 00 00 ................
00406D00 00 00 00 00 00 00 00 00 00 00 00 00 00 00 00 00 ................
00406D10 00 00 00 00 00 00 00 00 00 00 00 00 00 00 00 00 ................
00406D20 00 00 00 00 00 00 00 00 00 00 00 00 00 00 00 00 ................
00406D30 00 00 00 00 00 00 00 00 00 00 00 00 00 00 00 00 ................
00406D40 00 00 00 00 00 00 00 00 00 00 00 00 00 00 00 00 ................
00406D50 00 00 00 00 00 00 00 00 00 00 00 00 00 00 00 00 ................
00406D60 00 00 00 00 00 00 00 00 00 00 00 00 00 00 00 00 ................
00406D70 00 00 00 00 00 00 00 00 00 00 00 00 00 00 00 00 ................
00406D80 00 00 00 00 00 00 00 00 00 00 00 00 00 00 00 00 ................
00406D90 00 00 00 00 00 00 00 00 00 00 00 00 00 00 00 00 ................
00406DA0 00 00 00 00 00 00 00 00 00 00 00 00 00 00 00 00 ................
00406DB0 00 00 00 00 00 00 00 00 00 00 00 00 00 00 00 00 ................
00406DC0 00 00 00 00 00 00 00 00 00 00 00 00 00 00 00 00 ................
00406DD0 00 00 00 00 00 00 00 00 00 00 00 00 00 00 00 00 ................
00406DE0 00 00 00 00 00 00 00 00 00 00 00 00 00 00 00 00 ................
00406DF0 00 00 00 00 00 00 00 00 00 00 00 00 00 00 00 00 ................
00406E00 00 00 00 00 00 00 00 00 00 00 00 00 00 00 00 00 ................
00406E10 00 00 00 00 00 00 00 00 00 00 00 00 00 00 00 00 ................
00406E20 00 00 00 00 00 00 00 00 00 00 00 00 00 00 00 00 ................
00406E30 00 00 00 00 00 00 00 00 00 00 00 00 00 00 00 00 ................
00406E40 00 00 00 00 00 00 00 00 00 00 00 00 00 00 00 00 ................
00406E50 00 00 00 00 00 00 00 00 00 00 00 00 00 00 00 00 ................
00406E60 00 00 00 00 00 00 00 00 00 00 00 00 00 00 00 00 ................
00406E70 00 00 00 00 00 00 00 00 00 00 00 00 00 00 00 00 ................
00406E80 00 00 00 00 00 00 00 00 00 00 00 00 00 00 00 00 ................
00406E90 00 00 00 00 00 00 00 00 00 00 00 00 00 00 00 00 ................
00406EA0 00 00 00 00 00 00 00 00 00 00 00 00 00 00 00 00 ................
00406EB0 00 00 00 00 00 00 00 00 00 00 00 00 00 00 00 00 ................
00406EC0 00 00 00 00 00 00 00 00 00 00 00 00 00 00 00 00 ................
00406ED0 00 00 00 00 00 00 00 00 00 00 00 00 00 00 00 00 ................
00406EE0 00 00 00 00 00 00 00 00 00 00 00 00 00 00 00 00 ................
00406EF0 00 00 00 00 00 00 00 00 00 00 00 00 00 00 00 00 ................
00406F00 00 00 00 00 00 00 00 00 00 00 00 00 00 00 00 00 ................
00406F10 00 00 00 00 00 00 00 00 00 00 00 00 00 00 00 00 ................
00406F20 00 00 00 00 00 00 00 00 00 00 00 00 00 00 00 00 ................
00406F30 00 00 00 00 00 00 00 00 00 00 00 00 00 00 00 00 ................
00406F40 00 00 00 00 00 00 00 00 00 00 00 00 00 00 00 00 ................
00406F50 00 00 00 00 00 00 00 00 00 00 00 00 00 00 00 00 ................
00406F60 00 00 00 00 00 00 00 00 00 00 00 00 00 00 00 00 ................
00406F70 00 00 00 00 00 00 00 00 00 00 00 00 00 00 00 00 ................
00406F80 00 00 00 00 00 00 00 00 00 00 00 00 00 00 00 00 ................
00406F90 00 00 00 00 00 00 00 00 00 00 00 00 00 00 00 00 ................
00406FA0 00 00 00 00 00 00 00 00 00 00 00 00 00 00 00 00 ................
00406FB0 00 00 00 00 00 00 00 00 00 00 00 00 00 00 00 00 ................
00406FC0 00 00 00 00 00 00 00 00 00 00 00 00 00 00 00 00 ................
00406FD0 00 00 00 00 00 00 00 00 00 00 00 00 00 00 00 00 ................
00406FE0 00 00 00 00 00 00 00 00 00 00 00 00 00 00 00 00 ................
00406FF0 00 00 00 00 00 00 00 00 00 00 00 00 00 00 00 00 ................
00407000 00 00 00 00 00 00 00 00 00 00 00 00 00 00 00 00 ................
00407010 00 00 00 00 00 00 00 00 00 00 00 00 00 00 00 00 ................
00407020 00 00 00 00 00 00 00 00 00 00 00 00 00 00 00 00 ................
00407030 00 00 00 00 00 00 00 00 00 00 00 00 00 00 00 00 ................
00407040 00 00 00 00 00 00 00 00 00 00 00 00 00 00 00 00 ................
00407050 00 00 00 00 00 00 00 00 00 00 00 00 00 00 00 00 ................
00407060 00 00 00 00 00 00 00 00 00 00 00 00 00 00 00 00 ................
00407070 00 00 00 00 00 00 00 00 00 00 00 00 00 00 00 00 ................
00407080 00 00 00 00 00 00 00 00 00 00 00 00 00 00 00 00 ................
00407090 00 00 00 00 00 00 00 00 00 00 00 00 00 00 00 00 ................
004070A0 00 00 00 00 00 00 00 00 00 00 00 00 00 00 00 00 ................
004070B0 00 00 00 00 00 00 00 00 00 00 00 00 00 00 00 00 ................
004070C0 00 00 00 00 00 00 00 00 00 00 00 00 00 00 00 00 ................
004070D0 00 00 00 00 00 00 00 00 00 00 00 00 00 00 00 00 ................
004070E0 00 00 00 00 00 00 00 00 00 00 00 00 00 00 00 00 ................
004070F0 00 00 00 00 00 00 00 00 00 00 00 00 00 00 00 00 ................
00407100 00 00 00 00 00 00 00 00 00 00 00 00 00 00 00 00 ................
00407110 00 00 00 00 00 00 00 00 00 00 00 00 00 00 00 00 ................
00407120 00 00 00 00 00 00 00 00 00 00 00 00 00 00 00 00 ................
00407130 00 00 00 00 00 00 00 00 00 00 00 00 00 00 00 00 ................
00407140 00 00 00 00 00 00 00 00 00 00 00 00 00 00 00 00 ................
00407150 00 00 00 00 00 00 00 00 00 00 00 00 00 00 00 00 ................
00407160 00 00 00 00 00 00 00 00 00 00 00 00 00 00 00 00 ................
00407170 00 00 00 00 00 00 00 00 00 00 00 00 00 00 00 00 ................
00407180 00 00 00 00 00 00 00 00 00 00 00 00 00 00 00 00 ................
00407190 00 00 00 00 00 00 00 00 00 00 00 00 00 00 00 00 ................
004071A0 00 00 00 00 00 00 00 00 00 00 00 00 00 00 00 00 ................
004071B0 00 00 00 00 00 00 00 00 00 00 00 00 00 00 00 00 ................
004071C0 00 00 00 00 00 00 00 00 00 00 00 00 00 00 00 00 ................
004071D0 00 00 00 00 00 00 00 00 00 00 00 00 00 00 00 00 ................
004071E0 00 00 00 00 00 00 00 00 00 00 00 00 00 00 00 00 ................
004071F0 00 00 00 00 00 00 00 00 00 00 00 00 00 00 00 00 ................
00407200 00 00 00 00 00 00 00 00 00 00 00 00 00 00 00 00 ................
00407210 00 00 00 00 00 00 00 00 00 00 00 00 00 00 00 00 ................
00407220 00 00 00 00 00 00 00 00 00 00 00 00 00 00 00 00 ................
00407230 00 00 00 00 00 00 00 00 00 00 00 00 00 00 00 00 ................
00407240 00 00 00 00 00 00 00 00 00 00 00 00 00 00 00 00 ................
00407250 00 00 00 00 00 00 00 00 00 00 00 00 00 00 00 00 ................
00407260 00 00 00 00 00 00 00 00 00 00 00 00 00 00 00 00 ................
00407270 00 00 00 00 00 00 00 00 00 00 00 00 00 00 00 00 ................
00407280 00 00 00 00 00 00 00 00 00 00 00 00 00 00 00 00 ................
00407290 00 00 00 00 00 00 00 00 00 00 00 00 00 00 00 00 ................
004072A0 00 00 00 00 00 00 00 00 00 00 00 00 00 00 00 00 ................
004072B0 00 00 00 00 00 00 00 00 00 00 00 00 00 00 00 00 ................
004072C0 00 00 00 00 00 00 00 00 00 00 00 00 00 00 00 00 ................
004072D0 00 00 00 00 00 00 00 00 00 00 00 00 00 00 00 00 ................
004072E0 00 00 00 00 00 00 00 00 00 00 00 00 00 00 00 00 ................
004072F0 00 00 00 00 00 00 00 00 00 00 00 00 00 00 00 00 ................
00407300 00 00 00 00 00 00 00 00 00 00 00 00 00 00 00 00 ................
00407310 00 00 00 00 00 00 00 00 00 00 00 00 00 00 00 00 ................
00407320 00 00 00 00 00 00 00 00 00 00 00 00 00 00 00 00 ................
00407330 00 00 00 00 00 00 00 00 00 00 00 00 00 00 00 00 ................
00407340 00 00 00 00 00 00 00 00 00 00 00 00 00 00 00 00 ................
00407350 00 00 00 00 00 00 00 00 00 00 00 00 00 00 00 00 ................
00407360 00 00 00 00 00 00 00 00 00 00 00 00 00 00 00 00 ................
00407370 00 00 00 00 00 00 00 00 00 00 00 00 00 00 00 00 ................
00407380 00 00 00 00 00 00 00 00 00 00 00 00 00 00 00 00 ................
00407390 00 00 00 00 00 00 00 00 00 00 00 00 00 00 00 00 ................
004073A0 00 00 00 00 00 00 00 00 00 00 00 00 00 00 00 00 ................
004073B0 00 00 00 00 00 00 00 00 00 00 00 00 00 00 00 00 ................
004073C0 00 00 00 00 00 00 00 00 00 00 00 00 00 00 00 00 ................
004073D0 00 00 00 00 00 00 00 00 00 00 00 00 00 00 00 00 ................
004073E0 00 00 00 00 00 00 00 00 00 00 00 00 00 00 00 00 ................
004073F0 00 00 00 00 00 00 00 00 00 00 00 00 00 00 00 00 ................
00407400 00 00 00 00 00 00 00 00 00 00 00 00 00 00 00 00 ................
00407410 00 00 00 00 00 00 00 00 00 00 00 00 00 00 00 00 ................
00407420 00 00 00 00 00 00 00 00 00 00 00 00 00 00 00 00 ................
00407430 00 00 00 00 00 00 00 00 00 00 00 00 00 00 00 00 ................
00407440 00 00 00 00 00 00 00 00 00 00 00 00 00 00 00 00 ................
00407450 00 00 00 00 00 00 00 00 00 00 00 00 00 00 00 00 ................
00407460 00 00 00 00 00 00 00 00 00 00 00 00 00 00 00 00 ................
00407470 00 00 00 00 00 00 00 00 00 00 00 00 00 00 00 00 ................
00407480 00 00 00 00 00 00 00 00 00 00 00 00 00 00 00 00 ................
00407490 00 00 00 00 00 00 00 00 00 00 00 00 00 00 00 00 ................
004074A0 00 00 00 00 00 00 00 00 00 00 00 00 00 00 00 00 ................
004074B0 00 00 00 00 00 00 00 00 00 00 00 00 00 00 00 00 ................
004074C0 00 00 00 00 00 00 00 00 00 00 00 00 00 00 00 00 ................
004074D0 00 00 00 00 00 00 00 00 00 00 00 00 00 00 00 00 ................
004074E0 00 00 00 00 00 00 00 00 00 00 00 00 00 00 00 00 ................
004074F0 00 00 00 00 00 00 00 00 00 00 00 00 00 00 00 00 ................
00407500 00 00 00 00 00 00 00 00 00 00 00 00 00 00 00 00 ................
00407510 00 00 00 00 00 00 00 00 00 00 00 00 00 00 00 00 ................
00407520 00 00 00 00 00 00 00 00 00 00 00 00 00 00 00 00 ................
00407530 00 00 00 00 00 00 00 00 00 00 00 00 00 00 00 00 ................
00407540 00 00 00 00 00 00 00 00 00 00 00 00 00 00 00 00 ................
00407550 00 00 00 00 00 00 00 00 00 00 00 00 00 00 00 00 ................
00407560 00 00 00 00 00 00 00 00 00 00 00 00 00 00 00 00 ................
00407570 00 00 00 00 00 00 00 00 00 00 00 00 00 00 00 00 ................
00407580 00 00 00 00 00 00 00 00 00 00 00 00 00 00 00 00 ................
00407590 00 00 00 00 00 00 00 00 00 00 00 00 00 00 00 00 ................
004075A0 00 00 00 00 00 00 00 00 00 00 00 00 00 00 00 00 ................
004075B0 00 00 00 00 00 00 00 00 00 00 00 00 00 00 00 00 ................
004075C0 00 00 00 00 00 00 00 00 00 00 00 00 00 00 00 00 ................
004075D0 00 00 00 00 00 00 00 00 00 00 00 00 00 00 00 00 ................
004075E0 00 00 00 00 00 00 00 00 00 00 00 00 00 00 00 00 ................
004075F0 00 00 00 00 00 00 00 00 00 00 00 00 00 00 00 00 ................
00407600 00 00 00 00 00 00 00 00 00 00 00 00 00 00 00 00 ................
00407610 00 00 00 00 00 00 00 00 00 00 00 00 00 00 00 00 ................
00407620 00 00 00 00 00 00 00 00 00 00 00 00 00 00 00 00 ................
00407630 00 00 00 00 00 00 00 00 00 00 00 00 00 00 00 00 ................
00407640 00 00 00 00 00 00 00 00 00 00 00 00 00 00 00 00 ................
00407650 00 00 00 00 00 00 00 00 00 00 00 00 00 00 00 00 ................
00407660 00 00 00 00 00 00 00 00 00 00 00 00 00 00 00 00 ................
00407670 00 00 00 00 00 00 00 00 00 00 00 00 00 00 00 00 ................
00407680 00 00 00 00 00 00 00 00 00 00 00 00 00 00 00 00 ................
00407690 00 00 00 00 00 00 00 00 00 00 00 00 00 00 00 00 ................
004076A0 00 00 00 00 00 00 00 00 00 00 00 00 00 00 00 00 ................
004076B0 00 00 00 00 00 00 00 00 00 00 00 00 00 00 00 00 ................
004076C0 00 00 00 00 00 00 00 00 00 00 00 00 00 00 00 00 ................
004076D0 00 00 00 00 00 00 00 00 00 00 00 00 00 00 00 00 ................
004076E0 00 00 00 00 00 00 00 00 00 00 00 00 00 00 00 00 ................
004076F0 00 00 00 00 00 00 00 00 00 00 00 00 00 00 00 00 ................
00407700 00 00 00 00 00 00 00 00 00 00 00 00 00 00 00 00 ................
00407710 00 00 00 00 00 00 00 00 00 00 00 00 00 00 00 00 ................
00407720 00 00 00 00 00 00 00 00 00 00 00 00 00 00 00 00 ................
00407730 00 00 00 00 00 00 00 00 00 00 00 00 00 00 00 00 ................
00407740 00 00 00 00 00 00 00 00 00 00 00 00 00 00 00 00 ................
00407750 00 00 00 00 00 00 00 00 00 00 00 00 00 00 00 00 ................
00407760 00 00 00 00 00 00 00 00 00 00 00 00 00 00 00 00 ................
00407770 00 00 00 00 00 00 00 00 00 00 00 00 00 00 00 00 ................
00407780 00 00 00 00 00 00 00 00 00 00 00 00 00 00 00 00 ................
00407790 00 00 00 00 00 00 00 00 00 00 00 00 00 00 00 00 ................
004077A0 00 00 00 00 00 00 00 00 00 00 00 00 00 00 00 00 ................
004077B0 00 00 00 00 00 00 00 00 00 00 00 00 00 00 00 00 ................
004077C0 00 00 00 00 00 00 00 00 00 00 00 00 00 00 00 00 ................
004077D0 00 00 00 00 00 00 00 00 00 00 00 00 00 00 00 00 ................
004077E0 00 00 00 00 00 00 00 00 00 00 00 00 00 00 00 00 ................
004077F0 00 00 00 00 00 00 00 00 00 00 00 00 00 00 00 00 ................
00407800 00 00 00 00 00 00 00 00 00 00 00 00 00 00 00 00 ................
00407810 00 00 00 00 00 00 00 00 00 00 00 00 00 00 00 00 ................
00407820 00 00 00 00 00 00 00 00 00 00 00 00 00 00 00 00 ................
00407830 00 00 00 00 00 00 00 00 00 00 00 00 00 00 00 00 ................
00407840 00 00 00 00 00 00 00 00 00 00 00 00 00 00 00 00 ................
00407850 00 00 00 00 00 00 00 00 00 00 00 00 00 00 00 00 ................
00407860 00 00 00 00 00 00 00 00 00 00 00 00 00 00 00 00 ................
00407870 00 00 00 00 00 00 00 00 00 00 00 00 00 00 00 00 ................
00407880 00 00 00 00 00 00 00 00 00 00 00 00 00 00 00 00 ................
00407890 00 00 00 00 00 00 00 00 00 00 00 00 00 00 00 00 ................
004078A0 00 00 00 00 00 00 00 00 00 00 00 00 00 00 00 00 ................
004078B0 00 00 00 00 00 00 00 00 00 00 00 00 00 00 00 00 ................
004078C0 00 00 00 00 00 00 00 00 00 00 00 00 00 00 00 00 ................
004078D0 00 00 00 00 00 00 00 00 00 00 00 00 00 00 00 00 ................
004078E0 00 00 00 00 00 00 00 00 00 00 00 00 00 00 00 00 ................
004078F0 00 00 00 00 00 00 00 00 00 00 00 00 00 00 00 00 ................
00407900 00 00 00 00 00 00 00 00 00 00 00 00 00 00 00 00 ................
00407910 00 00 00 00 00 00 00 00 00 00 00 00 00 00 00 00 ................
00407920 00 00 00 00 00 00 00 00 00 00 00 00 00 00 00 00 ................
00407930 00 00 00 00 00 00 00 00 00 00 00 00 00 00 00 00 ................
00407940 00 00 00 00 00 00 00 00 00 00 00 00 00 00 00 00 ................
00407950 00 00 00 00 00 00 00 00 00 00 00 00 00 00 00 00 ................
00407960 00 00 00 00 00 00 00 00 00 00 00 00 00 00 00 00 ................
00407970 00 00 00 00 00 00 00 00 00 00 00 00 00 00 00 00 ................
00407980 00 00 00 00 00 00 00 00 00 00 00 00 00 00 00 00 ................
00407990 00 00 00 00 00 00 00 00 00 00 00 00 00 00 00 00 ................
004079A0 00 00 00 00 00 00 00 00 00 00 00 00 00 00 00 00 ................
004079B0 00 00 00 00 00 00 00 00 00 00 00 00 00 00 00 00 ................
004079C0 00 00 00 00 00 00 00 00 00 00 00 00 00 00 00 00 ................
004079D0 00 00 00 00 00 00 00 00 00 00 00 00 00 00 00 00 ................
004079E0 00 00 00 00 00 00 00 00 00 00 00 00 00 00 00 00 ................
004079F0 00 00 00 00 00 00 00 00 00 00 00 00 00 00 00 00 ................
00407A00 00 00 00 00 00 00 00 00 00 00 00 00 00 00 00 00 ................
00407A10 00 00 00 00 00 00 00 00 00 00 00 00 00 00 00 00 ................
00407A20 00 00 00 00 00 00 00 00 00 00 00 00 00 00 00 00 ................
00407A30 00 00 00 00 00 00 00 00 00 00 00 00 00 00 00 00 ................
00407A40 00 00 00 00 00 00 00 00 00 00 00 00 00 00 00 00 ................
00407A50 00 00 00 00 00 00 00 00 00 00 00 00 00 00 00 00 ................
00407A60 00 00 00 00 00 00 00 00 00 00 00 00 00 00 00 00 ................
00407A70 00 00 00 00 00 00 00 00 00 00 00 00 00 00 00 00 ................
00407A80 00 00 00 00 00 00 00 00 00 00 00 00 00 00 00 00 ................
00407A90 00 00 00 00 00 00 00 00 00 00 00 00 00 00 00 00 ................
00407AA0 00 00 00 00 00 00 00 00 00 00 00 00 00 00 00 00 ................
00407AB0 00 00 00 00 00 00 00 00 00 00 00 00 00 00 00 00 ................
00407AC0 00 00 00 00 00 00 00 00 00 00 00 00 00 00 00 00 ................
00407AD0 00 00 00 00 00 00 00 00 00 00 00 00 00 00 00 00 ................
00407AE0 00 00 00 00 00 00 00 00 00 00 00 00 00 00 00 00 ................
00407AF0 00 00 00 00 00 00 00 00 00 00 00 00 00 00 00 00 ................
00407B00 00 00 00 00 00 00 00 00 00 00 00 00 00 00 00 00 ................
00407B10 00 00 00 00 00 00 00 00 00 00 00 00 00 00 00 00 ................
00407B20 00 00 00 00 00 00 00 00 00 00 00 00 00 00 00 00 ................
00407B30 00 00 00 00 00 00 00 00 00 00 00 00 00 00 00 00 ................
00407B40 00 00 00 00 00 00 00 00 00 00 00 00 00 00 00 00 ................
00407B50 00 00 00 00 00 00 00 00 00 00 00 00 00 00 00 00 ................
00407B60 00 00 00 00 00 00 00 00 00 00 00 00 00 00 00 00 ................
00407B70 00 00 00 00 00 00 00 00 00 00 00 00 00 00 00 00 ................
00407B80 00 00 00 00 00 00 00 00 00 00 00 00 00 00 00 00 ................
00407B90 00 00 00 00 00 00 00 00 00 00 00 00 00 00 00 00 ................
00407BA0 00 00 00 00 00 00 00 00 00 00 00 00 00 00 00 00 ................
00407BB0 00 00 00 00 00 00 00 00 00 00 00 00 00 00 00 00 ................
00407BC0 00 00 00 00 00 00 00 00 00 00 00 00 00 00 00 00 ................
00407BD0 00 00 00 00 00 00 00 00 00 00 00 00 00 00 00 00 ................
00407BE0 00 00 00 00 00 00 00 00 00 00 00 00 00 00 00 00 ................
00407BF0 00 00 00 00 00 00 00 00 00 00 00 00 00 00 00 00 ................
00407C00 00 00 00 00 00 00 00 00 00 00 00 00 00 00 00 00 ................
00407C10 00 00 00 00 00 00 00 00 00 00 00 00 00 00 00 00 ................
00407C20 00 00 00 00 00 00 00 00 00 00 00 00 00 00 00 00 ................
00407C30 00 00 00 00 00 00 00 00 00 00 00 00 00 00 00 00 ................
00407C40 00 00 00 00 00 00 00 00 00 00 00 00 00 00 00 00 ................
00407C50 00 00 00 00 00 00 00 00 00 00 00 00 00 00 00 00 ................
00407C60 00 00 00 00 00 00 00 00 00 00 00 00 00 00 00 00 ................
00407C70 00 00 00 00 00 00 00 00 00 00 00 00 00 00 00 00 ................
00407C80 00 00 00 00 00 00 00 00 00 00 00 00 00 00 00 00 ................
00407C90 00 00 00 00 00 00 00 00 00 00 00 00 00 00 00 00 ................
00407CA0 00 00 00 00 00 00 00 00 00 00 00 00 00 00 00 00 ................
00407CB0 00 00 00 00 00 00 00 00 00 00 00 00 00 00 00 00 ................
00407CC0 00 00 00 00 00 00 00 00 00 00 00 00 00 00 00 00 ................
00407CD0 00 00 00 00 00 00 00 00 00 00 00 00 00 00 00 00 ................
00407CE0 00 00 00 00 00 00 00 00 00 00 00 00 00 00 00 00 ................
00407CF0 00 00 00 00 00 00 00 00 00 00 00 00 00 00 00 00 ................
00407D00 00 00 00 00 00 00 00 00 00 00 00 00 00 00 00 00 ................
00407D10 00 00 00 00 00 00 00 00 00 00 00 00 00 00 00 00 ................
00407D20 00 00 00 00 00 00 00 00 00 00 00 00 00 00 00 00 ................
00407D30 00 00 00 00 00 00 00 00 00 00 00 00 00 00 00 00 ................
00407D40 00 00 00 00 00 00 00 00 00 00 00 00 00 00 00 00 ................
00407D50 00 00 00 00 00 00 00 00 00 00 00 00 00 00 00 00 ................
00407D60 00 00 00 00 00 00 00 00 00 00 00 00 00 00 00 00 ................
00407D70 00 00 00 00 00 00 00 00 00 00 00 00 00 00 00 00 ................
00407D80 00 00 00 00 00 00 00 00 00 00 00 00 00 00 00 00 ................
00407D90 00 00 00 00 00 00 00 00 00 00 00 00 00 00 00 00 ................
00407DA0 00 00 00 00 00 00 00 00 00 00 00 00 00 00 00 00 ................
00407DB0 00 00 00 00 00 00 00 00 00 00 00 00 00 00 00 00 ................
00407DC0 00 00 00 00 00 00 00 00 00 00 00 00 00 00 00 00 ................
00407DD0 00 00 00 00 00 00 00 00 00 00 00 00 00 00 00 00 ................
00407DE0 00 00 00 00 00 00 00 00 00 00 00 00 00 00 00 00 ................
00407DF0 00 00 00 00 00 00 00 00 00 00 00 00 00 00 00 00 ................
00407E00 00 00 00 00 00 00 00 00 00 00 00 00 00 00 00 00 ................
00407E10 00 00 00 00 00 00 00 00 00 00 00 00 00 00 00 00 ................
00407E20 00 00 00 00 00 00 00 00 00 00 00 00 00 00 00 00 ................
00407E30 00 00 00 00 00 00 00 00 00 00 00 00 00 00 00 00 ................
00407E40 00 00 00 00 00 00 00 00 00 00 00 00 00 00 00 00 ................
00407E50 00 00 00 00 00 00 00 00 00 00 00 00 00 00 00 00 ................
00407E60 00 00 00 00 00 00 00 00 00 00 00 00 00 00 00 00 ................
00407E70 00 00 00 00 00 00 00 00 00 00 00 00 00 00 00 00 ................
00407E80 00 00 00 00 00 00 00 00 00 00 00 00 00 00 00 00 ................
00407E90 00 00 00 00 00 00 00 00 00 00 00 00 00 00 00 00 ................
00407EA0 00 00 00 00 00 00 00 00 00 00 00 00 00 00 00 00 ................
00407EB0 00 00 00 00 00 00 00 00 00 00 00 00 00 00 00 00 ................
00407EC0 00 00 00 00 00 00 00 00 00 00 00 00 00 00 00 00 ................
00407ED0 00 00 00 00 00 00 00 00 00 00 00 00 00 00 00 00 ................
00407EE0 00 00 00 00 00 00 00 00 00 00 00 00 00 00 00 00 ................
00407EF0 00 00 00 00 00 00 00 00 00 00 00 00 00 00 00 00 ................
00407F00 00 00 00 00 00 00 00 00 00 00 00 00 00 00 00 00 ................
00407F10 00 00 00 00 00 00 00 00 00 00 00 00 00 00 00 00 ................
00407F20 00 00 00 00 00 00 00 00 00 00 00 00 00 00 00 00 ................
00407F30 00 00 00 00 00 00 00 00 00 00 00 00 00 00 00 00 ................
00407F40 00 00 00 00 00 00 00 00 00 00 00 00 00 00 00 00 ................
00407F50 00 00 00 00 00 00 00 00 00 00 00 00 00 00 00 00 ................
00407F60 00 00 00 00 00 00 00 00 00 00 00 00 00 00 00 00 ................
00407F70 00 00 00 00 00 00 00 00 00 00 00 00 00 00 00 00 ................
00407F80 00 00 00 00 00 00 00 00 00 00 00 00 00 00 00 00 ................
00407F90 00 00 00 00 00 00 00 00 00 00 00 00 00 00 00 00 ................
00407FA0 00 00 00 00 00 00 00 00 00 00 00 00 00 00 00 00 ................
00407FB0 00 00 00 00 00 00 00 00 00 00 00 00 00 00 00 00 ................
00407FC0 00 00 00 00 00 00 00 00 00 00 00 00 00 00 00 00 ................
00407FD0 00 00 00 00 00 00 00 00 00 00 00 00 00 00 00 00 ................
00407FE0 00 00 00 00 00 00 00 00 00 00 00 00 00 00 00 00 ................
00407FF0 00 00 00 00 00 00 00 00 00 00 00 00 00 00 00 00 ................
00408000 00 00 00 00 00 00 00 00 00 00 00 00 00 00 00 00 ................
00408010 00 00 00 00 00 00 00 00 00 00 00 00 00 00 00 00 ................
00408020 00 00 00 00 00 00 00 00 00 00 00 00 00 00 00 00 ................
00408030 00 00 00 00 00 00 00 00 00 00 00 00 00 00 00 00 ................
00408040 00 00 00 00 00 00 00 00 00 00 00 00 00 00 00 00 ................
00408050 00 00 00 00 00 00 00 00 00 00 00 00 00 00 00 00 ................
00408060 00 00 00 00 00 00 00 00 00 00 00 00 00 00 00 00 ................
00408070 00 00 00 00 00 00 00 00 00 00 00 00 00 00 00 00 ................
00408080 00 00 00 00 00 00 00 00 00 00 00 00 00 00 00 00 ................
00408090 00 00 00 00 00 00 00 00 00 00 00 00 00 00 00 00 ................
004080A0 00 00 00 00 00 00 00 00 00 00 00 00 00 00 00 00 ................
004080B0 00 00 00 00 00 00 00 00 00 00 00 00 00 00 00 00 ................
004080C0 00 00 00 00 00 00 00 00 00 00 00 00 00 00 00 00 ................
004080D0 00 00 00 00 00 00 00 00 00 00 00 00 00 00 00 00 ................
004080E0 00 00 00 00 00 00 00 00 00 00 00 00 00 00 00 00 ................
004080F0 00 00 00 00 00 00 00 00 00 00 00 00 00 00 00 00 ................
00408100 00 00 00 00 00 00 00 00 00 00 00 00 00 00 00 00 ................
00408110 00 00 00 00 00 00 00 00 00 00 00 00 00 00 00 00 ................
00408120 00 00 00 00 00 00 00 00 00 00 00 00 00 00 00 00 ................
00408130 00 00 00 00 00 00 00 00 00 00 00 00 00 00 00 00 ................
00408140 00 00 00 00 00 00 00 00 00 00 00 00 00 00 00 00 ................
00408150 00 00 00 00 00 00 00 00 00 00 00 00 00 00 00 00 ................
00408160 00 00 00 00 00 00 00 00 00 00 00 00 00 00 00 00 ................
00408170 00 00 00 00 00 00 00 00 00 00 00 00 00 00 00 00 ................
00408180 00 00 00 00 00 00 00 00 00 00 00 00 00 00 00 00 ................
00408190 00 00 00 00 00 00 00 00 00 00 00 00 00 00 00 00 ................
004081A0 00 00 00 00 00 00 00 00 00 00 00 00 00 00 00 00 ................
004081B0 00 00 00 00 00 00 00 00 00 00 00 00 00 00 00 00 ................
004081C0 00 00 00 00 00 00 00 00 00 00 00 00 00 00 00 00 ................
004081D0 00 00 00 00 00 00 00 00 00 00 00 00 00 00 00 00 ................
004081E0 00 00 00 00 00 00 00 00 00 00 00 00 00 00 00 00 ................
004081F0 00 00 00 00 00 00 00 00 00 00 00 00 00 00 00 00 ................
00408200 00 00 00 00 00 00 00 00 00 00 00 00 00 00 00 00 ................
00408210 00 00 00 00 00 00 00 00 00 00 00 00 00 00 00 00 ................
00408220 00 00 00 00 00 00 00 00 00 00 00 00 00 00 00 00 ................
00408230 00 00 00 00 00 00 00 00 00 00 00 00 00 00 00 00 ................
00408240 00 00 00 00 00 00 00 00 00 00 00 00 00 00 00 00 ................
00408250 00 00 00 00 00 00 00 00 00 00 00 00 00 00 00 00 ................
00408260 00 00 00 00 00 00 00 00 00 00 00 00 00 00 00 00 ................
00408270 00 00 00 00 00 00 00 00 00 00 00 00 00 00 00 00 ................
00408280 00 00 00 00 00 00 00 00 00 00 00 00 00 00 00 00 ................
00408290 00 00 00 00 00 00 00 00 00 00 00 00 00 00 00 00 ................
004082A0 00 00 00 00 00 00 00 00 00 00 00 00 00 00 00 00 ................
004082B0 00 00 00 00 00 00 00 00 00 00 00 00 00 00 00 00 ................
004082C0 00 00 00 00 00 00 00 00 00 00 00 00 00 00 00 00 ................
004082D0 00 00 00 00 00 00 00 00 00 00 00 00 00 00 00 00 ................
004082E0 00 00 00 00 00 00 00 00 00 00 00 00 00 00 00 00 ................
004082F0 00 00 00 00 00 00 00 00 00 00 00 00 00 00 00 00 ................
00408300 00 00 00 00 00 00 00 00 00 00 00 00 00 00 00 00 ................
00408310 00 00 00 00 00 00 00 00 00 00 00 00 00 00 00 00 ................
00408320 00 00 00 00 00 00 00 00 00 00 00 00 00 00 00 00 ................
00408330 00 00 00 00 00 00 00 00 00 00 00 00 00 00 00 00 ................
00408340 00 00 00 00 00 00 00 00 00 00 00 00 00 00 00 00 ................
00408350 00 00 00 00 00 00 00 00 00 00 00 00 00 00 00 00 ................
00408360 00 00 00 00 00 00 00 00 00 00 00 00 00 00 00 00 ................
00408370 00 00 00 00 00 00 00 00 00 00 00 00 00 00 00 00 ................
00408380 00 00 00 00 00 00 00 00 00 00 00 00 00 00 00 00 ................
00408390 00 00 00 00 00 00 00 00 00 00 00 00 00 00 00 00 ................
004083A0 00 00 00 00 00 00 00 00 00 00 00 00 00 00 00 00 ................
004083B0 00 00 00 00 00 00 00 00 00 00 00 00 00 00 00 00 ................
004083C0 00 00 00 00 00 00 00 00 00 00 00 00 00 00 00 00 ................
004083D0 00 00 00 00 00 00 00 00 00 00 00 00 00 00 00 00 ................
004083E0 00 00 00 00 00 00 00 00 00 00 00 00 00 00 00 00 ................
004083F0 00 00 00 00 00 00 00 00 00 00 00 00 00 00 00 00 ................
00408400 00 00 00 00 00 00 00 00 00 00 00 00 00 00 00 00 ................
00408410 00 00 00 00 00 00 00 00 00 00 00 00 00 00 00 00 ................
00408420 00 00 00 00 00 00 00 00 00 00 00 00 00 00 00 00 ................
00408430 00 00 00 00 00 00 00 00 00 00 00 00 00 00 00 00 ................
00408440 00 00 00 00 00 00 00 00 00 00 00 00 00 00 00 00 ................
00408450 00 00 00 00 00 00 00 00 00 00 00 00 00 00 00 00 ................
00408460 00 00 00 00 00 00 00 00 00 00 00 00 00 00 00 00 ................
00408470 00 00 00 00 00 00 00 00 00 00 00 00 00 00 00 00 ................
00408480 00 00 00 00 00 00 00 00 00 00 00 00 00 00 00 00 ................
00408490 00 00 00 00 00 00 00 00 00 00 00 00 00 00 00 00 ................
004084A0 00 00 00 00 00 00 00 00 00 00 00 00 00 00 00 00 ................
004084B0 00 00 00 00 00 00 00 00 00 00 00 00 00 00 00 00 ................
004084C0 00 00 00 00 00 00 00 00 00 00 00 00 00 00 00 00 ................
004084D0 00 00 00 00 00 00 00 00 00 00 00 00 00 00 00 00 ................
004084E0 00 00 00 00 00 00 00 00 00 00 00 00 00 00 00 00 ................
004084F0 00 00 00 00 00 00 00 00 00 00 00 00 00 00 00 00 ................
00408500 00 00 00 00 00 00 00 00 00 00 00 00 00 00 00 00 ................
00408510 00 00 00 00 00 00 00 00 00 00 00 00 00 00 00 00 ................
00408520 00 00 00 00 00 00 00 00 00 00 00 00 00 00 00 00 ................
00408530 00 00 00 00 00 00 00 00 00 00 00 00 00 00 00 00 ................
00408540 00 00 00 00 00 00 00 00 00 00 00 00 00 00 00 00 ................
00408550 00 00 00 00 00 00 00 00 00 00 00 00 00 00 00 00 ................
00408560 00 00 00 00 00 00 00 00 00 00 00 00 00 00 00 00 ................
00408570 00 00 00 00 00 00 00 00 00 00 00 00 00 00 00 00 ................
00408580 00 00 00 00 00 00 00 00 00 00 00 00 00 00 00 00 ................
00408590 00 00 00 00 00 00 00 00 00 00 00 00 00 00 00 00 ................
004085A0 00 00 00 00 00 00 00 00 00 00 00 00 00 00 00 00 ................
004085B0 00 00 00 00 00 00 00 00 00 00 00 00 00 00 00 00 ................
004085C0 00 00 00 00 00 00 00 00 00 00 00 00 00 00 00 00 ................
004085D0 00 00 00 00 00 00 00 00 00 00 00 00 00 00 00 00 ................
004085E0 00 00 00 00 00 00 00 00 00 00 00 00 00 00 00 00 ................
004085F0 00 00 00 00 00 00 00 00 00 00 00 00 00 00 00 00 ................
00408600 00 00 00 00 00 00 00 00 00 00 00 00 00 00 00 00 ................
00408610 00 00 00 00 00 00 00 00 00 00 00 00 00 00 00 00 ................
00408620 00 00 00 00 00 00 00 00 00 00 00 00 00 00 00 00 ................
00408630 00 00 00 00 00 00 00 00 00 00 00 00 00 00 00 00 ................
00408640 00 00 00 00 00 00 00 00 00 00 00 00 00 00 00 00 ................
00408650 00 00 00 00 00 00 00 00 00 00 00 00 00 00 00 00 ................
00408660 00 00 00 00 00 00 00 00 00 00 00 00 00 00 00 00 ................
00408670 00 00 00 00 00 00 00 00 00 00 00 00 00 00 00 00 ................
00408680 00 00 00 00 00 00 00 00 00 00 00 00 00 00 00 00 ................
00408690 00 00 00 00 00 00 00 00 00 00 00 00 00 00 00 00 ................
004086A0 00 00 00 00 00 00 00 00 00 00 00 00 00 00 00 00 ................
004086B0 00 00 00 00 00 00 00 00 00 00 00 00 00 00 00 00 ................
004086C0 00 00 00 00 00 00 00 00 00 00 00 00 00 00 00 00 ................
004086D0 00 00 00 00 00 00 00 00 00 00 00 00 00 00 00 00 ................
004086E0 00 00 00 00 00 00 00 00 00 00 00 00 00 00 00 00 ................
004086F0 00 00 00 00 00 00 00 00 00 00 00 00 00 00 00 00 ................
00408700 00 00 00 00 00 00 00 00 00 00 00 00 00 00 00 00 ................
00408710 00 00 00 00 00 00 00 00 00 00 00 00 00 00 00 00 ................
00408720 00 00 00 00 00 00 00 00 00 00 00 00 00 00 00 00 ................
00408730 00 00 00 00 00 00 00 00 00 00 00 00 00 00 00 00 ................
00408740 00 00 00 00 00 00 00 00 00 00 00 00 00 00 00 00 ................
00408750 00 00 00 00 00 00 00 00 00 00 00 00 00 00 00 00 ................
00408760 00 00 00 00 00 00 00 00 00 00 00 00 00 00 00 00 ................
00408770 00 00 00 00 00 00 00 00 00 00 00 00 00 00 00 00 ................
00408780 00 00 00 00 00 00 00 00 00 00 00 00 00 00 00 00 ................
00408790 00 00 00 00 00 00 00 00 00 00 00 00 00 00 00 00 ................
004087A0 00 00 00 00 00 00 00 00 00 00 00 00 00 00 00 00 ................
004087B0 00 00 00 00 00 00 00 00 00 00 00 00 00 00 00 00 ................
004087C0 00 00 00 00 00 00 00 00 00 00 00 00 00 00 00 00 ................
004087D0 00 00 00 00 00 00 00 00 00 00 00 00 00 00 00 00 ................
004087E0 00 00 00 00 00 00 00 00 00 00 00 00 00 00 00 00 ................
004087F0 00 00 00 00 00 00 00 00 00 00 00 00 00 00 00 00 ................
00408800 00 00 00 00 00 00 00 00 00 00 00 00 00 00 00 00 ................
00408810 00 00 00 00 00 00 00 00 00 00 00 00 00 00 00 00 ................
00408820 00 00 00 00 00 00 00 00 00 00 00 00 00 00 00 00 ................
00408830 00 00 00 00 00 00 00 00 00 00 00 00 00 00 00 00 ................
00408840 00 00 00 00 00 00 00 00 00 00 00 00 00 00 00 00 ................
00408850 00 00 00 00 00 00 00 00 00 00 00 00 00 00 00 00 ................
00408860 00 00 00 00 00 00 00 00 00 00 00 00 00 00 00 00 ................
00408870 00 00 00 00 00 00 00 00 00 00 00 00 00 00 00 00 ................
00408880 00 00 00 00 00 00 00 00 00 00 00 00 00 00 00 00 ................
00408890 00 00 00 00 00 00 00 00 00 00 00 00 00 00 00 00 ................
004088A0 00 00 00 00 00 00 00 00 00 00 00 00 00 00 00 00 ................
004088B0 00 00 00 00 00 00 00 00 00 00 00 00 00 00 00 00 ................
004088C0 00 00 00 00 00 00 00 00 00 00 00 00 00 00 00 00 ................
004088D0 00 00 00 00 00 00 00 00 00 00 00 00 00 00 00 00 ................
004088E0 00 00 00 00 00 00 00 00 00 00 00 00 00 00 00 00 ................
004088F0 00 00 00 00 00 00 00 00 00 00 00 00 00 00 00 00 ................
00408900 00 00 00 00 00 00 00 00 00 00 00 00 00 00 00 00 ................
00408910 00 00 00 00 00 00 00 00 00 00 00 00 00 00 00 00 ................
00408920 00 00 00 00 00 00 00 00 00 00 00 00 00 00 00 00 ................
00408930 00 00 00 00 00 00 00 00 00 00 00 00 00 00 00 00 ................
00408940 00 00 00 00 00 00 00 00 00 00 00 00 00 00 00 00 ................
00408950 00 00 00 00 00 00 00 00 00 00 00 00 00 00 00 00 ................
00408960 00 00 00 00 00 00 00 00 00 00 00 00 00 00 00 00 ................
00408970 00 00 00 00 00 00 00 00 00 00 00 00 00 00 00 00 ................
00408980 00 00 00 00 00 00 00 00 00 00 00 00 00 00 00 00 ................
00408990 00 00 00 00 00 00 00 00 00 00 00 00 00 00 00 00 ................
004089A0 00 00 00 00 00 00 00 00 00 00 00 00 00 00 00 00 ................
004089B0 00 00 00 00 00 00 00 00 00 00 00 00 00 00 00 00 ................
004089C0 00 00 00 00 00 00 00 00 00 00 00 00 00 00 00 00 ................
004089D0 00 00 00 00 00 00 00 00 00 00 00 00 00 00 00 00 ................
004089E0 00 00 00 00 00 00 00 00 00 00 00 00 00 00 00 00 ................
004089F0 00 00 00 00 00 00 00 00 00 00 00 00 00 00 00 00 ................
00408A00 00 00 00 00 00 00 00 00 00 00 00 00 00 00 00 00 ................
00408A10 00 00 00 00 00 00 00 00 00 00 00 00 00 00 00 00 ................
00408A20 00 00 00 00 00 00 00 00 00 00 00 00 00 00 00 00 ................
00408A30 00 00 00 00 00 00 00 00 00 00 00 00 00 00 00 00 ................
00408A40 00 00 00 00 00 00 00 00 00 00 00 00 00 00 00 00 ................
00408A50 00 00 00 00 00 00 00 00 00 00 00 00 00 00 00 00 ................
00408A60 00 00 00 00 00 00 00 00 00 00 00 00 00 00 00 00 ................
00408A70 00 00 00 00 00 00 00 00 00 00 00 00 00 00 00 00 ................
00408A80 00 00 00 00 00 00 00 00 00 00 00 00 00 00 00 00 ................
00408A90 00 00 00 00 00 00 00 00 00 00 00 00 00 00 00 00 ................
00408AA0 00 00 00 00 00 00 00 00 00 00 00 00 00 00 00 00 ................
00408AB0 00 00 00 00 00 00 00 00 00 00 00 00 00 00 00 00 ................
00408AC0 00 00 00 00 00 00 00 00 00 00 00 00 00 00 00 00 ................
00408AD0 00 00 00 00 00 00 00 00 00 00 00 00 00 00 00 00 ................
00408AE0 00 00 00 00 00 00 00 00 00 00 00 00 00 00 00 00 ................
00408AF0 00 00 00 00 00 00 00 00 00 00 00 00 00 00 00 00 ................
00408B00 00 00 00 00 00 00 00 00 00 00 00 00 00 00 00 00 ................
00408B10 00 00 00 00 00 00 00 00 00 00 00 00 00 00 00 00 ................
00408B20 00 00 00 00 00 00 00 00 00 00 00 00 00 00 00 00 ................
00408B30 00 00 00 00 00 00 00 00 00 00 00 00 00 00 00 00 ................
00408B40 00 00 00 00 00 00 00 00 00 00 00 00 00 00 00 00 ................
00408B50 00 00 00 00 00 00 00 00 00 00 00 00 00 00 00 00 ................
00408B60 00 00 00 00 00 00 00 00 00 00 00 00 00 00 00 00 ................
00408B70 00 00 00 00 00 00 00 00 00 00 00 00 00 00 00 00 ................
00408B80 00 00 00 00 00 00 00 00 00 00 00 00 00 00 00 00 ................
00408B90 00 00 00 00 00 00 00 00 00 00 00 00 00 00 00 00 ................
00408BA0 00 00 00 00 00 00 00 00 00 00 00 00 00 00 00 00 ................
00408BB0 00 00 00 00 00 00 00 00 00 00 00 00 00 00 00 00 ................
00408BC0 00 00 00 00 00 00 00 00 00 00 00 00 00 00 00 00 ................
00408BD0 00 00 00 00 00 00 00 00 00 00 00 00 00 00 00 00 ................
00408BE0 00 00 00 00 00 00 00 00 00 00 00 00 00 00 00 00 ................
00408BF0 00 00 00 00 00 00 00 00 00 00 00 00 00 00 00 00 ................
00408C00 00 00 00 00 00 00 00 00 00 00 00 00 00 00 00 00 ................
00408C10 00 00 00 00 00 00 00 00 00 00 00 00 00 00 00 00 ................
00408C20 00 00 00 00 00 00 00 00 00 00 00 00 00 00 00 00 ................
00408C30 00 00 00 00 00 00 00 00 00 00 00 00 00 00 00 00 ................
00408C40 00 00 00 00 00 00 00 00 00 00 00 00 00 00 00 00 ................
00408C50 00 00 00 00 00 00 00 00 00 00 00 00 00 00 00 00 ................
00408C60 00 00 00 00 00 00 00 00 00 00 00 00 00 00 00 00 ................
00408C70 00 00 00 00 00 00 00 00 00 00 00 00 00 00 00 00 ................
00408C80 00 00 00 00 00 00 00 00 00 00 00 00 00 00 00 00 ................
00408C90 00 00 00 00 00 00 00 00 00 00 00 00 00 00 00 00 ................
00408CA0 00 00 00 00 00 00 00 00 00 00 00 00 00 00 00 00 ................
00408CB0 00 00 00 00 00 00 00 00 00 00 00 00 00 00 00 00 ................
00408CC0 00 00 00 00 00 00 00 00 00 00 00 00 00 00 00 00 ................
00408CD0 00 00 00 00 00 00 00 00 00 00 00 00 00 00 00 00 ................
00408CE0 00 00 00 00 00 00 00 00 00 00 00 00 00 00 00 00 ................
00408CF0 00 00 00 00 00 00 00 00 00 00 00 00 00 00 00 00 ................
00408D00 00 00 00 00 00 00 00 00 00 00 00 00 00 00 00 00 ................
00408D10 00 00 00 00 00 00 00 00 00 00 00 00 00 00 00 00 ................
00408D20 00 00 00 00 00 00 00 00 00 00 00 00 00 00 00 00 ................
00408D30 00 00 00 00 00 00 00 00 00 00 00 00 00 00 00 00 ................
00408D40 00 00 00 00 00 00 00 00 00 00 00 00 00 00 00 00 ................
00408D50 00 00 00 00 00 00 00 00 00 00 00 00 00 00 00 00 ................
00408D60 00 00 00 00 00 00 00 00 00 00 00 00 00 00 00 00 ................
00408D70 00 00 00 00 00 00 00 00 00 00 00 00 00 00 00 00 ................
00408D80 00 00 00 00 00 00 00 00 00 00 00 00 00 00 00 00 ................
00408D90 00 00 00 00 00 00 00 00 00 00 00 00 00 00 00 00 ................
00408DA0 00 00 00 00 00 00 00 00 00 00 00 00 00 00 00 00 ................
00408DB0 00 00 00 00 00 00 00 00 00 00 00 00 00 00 00 00 ................
00408DC0 00 00 00 00 00 00 00 00 00 00 00 00 00 00 00 00 ................
00408DD0 00 00 00 00 00 00 00 00 00 00 00 00 00 00 00 00 ................
00408DE0 00 00 00 00 00 00 00 00 00 00 00 00 00 00 00 00 ................
00408DF0 00 00 00 00 00 00 00 00 00 00 00 00 00 00 00 00 ................
00408E00 00 00 00 00 00 00 00 00 00 00 00 00 00 00 00 00 ................
00408E10 00 00 00 00 00 00 00 00 00 00 00 00 00 00 00 00 ................
00408E20 00 00 00 00 00 00 00 00 00 00 00 00 00 00 00 00 ................
00408E30 00 00 00 00 00 00 00 00 00 00 00 00 00 00 00 00 ................
00408E40 00 00 00 00 00 00 00 00 00 00 00 00 00 00 00 00 ................
00408E50 00 00 00 00 00 00 00 00 00 00 00 00 00 00 00 00 ................
00408E60 00 00 00 00 00 00 00 00 00 00 00 00 00 00 00 00 ................
00408E70 00 00 00 00 00 00 00 00 00 00 00 00 00 00 00 00 ................
00408E80 00 00 00 00 00 00 00 00 00 00 00 00 00 00 00 00 ................
00408E90 00 00 00 00 00 00 00 00 00 00 00 00 00 00 00 00 ................
00408EA0 00 00 00 00 00 00 00 00 00 00 00 00 00 00 00 00 ................
00408EB0 00 00 00 00 00 00 00 00 00 00 00 00 00 00 00 00 ................
00408EC0 00 00 00 00 00 00 00 00 00 00 00 00 00 00 00 00 ................
00408ED0 00 00 00 00 00 00 00 00 00 00 00 00 00 00 00 00 ................
00408EE0 00 00 00 00 00 00 00 00 00 00 00 00 00 00 00 00 ................
00408EF0 00 00 00 00 00 00 00 00 00 00 00 00 00 00 00 00 ................
00408F00 00 00 00 00 00 00 00 00 00 00 00 00 00 00 00 00 ................
00408F10 00 00 00 00 00 00 00 00 00 00 00 00 00 00 00 00 ................
00408F20 00 00 00 00 00 00 00 00 00 00 00 00 00 00 00 00 ................
00408F30 00 00 00 00 00 00 00 00 00 00 00 00 00 00 00 00 ................
00408F40 00 00 00 00 00 00 00 00 00 00 00 00 00 00 00 00 ................
00408F50 00 00 00 00 00 00 00 00 00 00 00 00 00 00 00 00 ................
00408F60 00 00 00 00 00 00 00 00 00 00 00 00 00 00 00 00 ................
00408F70 00 00 00 00 00 00 00 00 00 00 00 00 00 00 00 00 ................
00408F80 00 00 00 00 00 00 00 00 00 00 00 00 00 00 00 00 ................
00408F90 00 00 00 00 00 00 00 00 00 00 00 00 00 00 00 00 ................
00408FA0 00 00 00 00 00 00 00 00 00 00 00 00 00 00 00 00 ................
00408FB0 00 00 00 00 00 00 00 00 00 00 00 00 00 00 00 00 ................
00408FC0 00 00 00 00 00 00 00 00 00 00 00 00 00 00 00 00 ................
00408FD0 00 00 00 00 00 00 00 00 00 00 00 00 00 00 00 00 ................
00408FE0 00 00 00 00 00 00 00 00 00 00 00 00 00 00 00 00 ................
00408FF0 00 00 00 00 00 00 00 00 00 00 00 00 00 00 00 00 ................
00409000 00 00 00 00 00 00 00 00 00 00 00 00 00 00 00 00 ................
00409010 00 00 00 00 00 00 00 00 00 00 00 00 00 00 00 00 ................
00409020 00 00 00 00 00 00 00 00 00 00 00 00 00 00 00 00 ................
00409030 00 00 00 00 00 00 00 00 00 00 00 00 00 00 00 00 ................
00409040 00 00 00 00 00 00 00 00 00 00 00 00 00 00 00 00 ................
00409050 00 00 00 00 00 00 00 00 00 00 00 00 00 00 00 00 ................
00409060 00 00 00 00 00 00 00 00 00 00 00 00 00 00 00 00 ................
00409070 00 00 00 00 00 00 00 00 00 00 00 00 00 00 00 00 ................
00409080 00 00 00 00 00 00 00 00 00 00 00 00 00 00 00 00 ................
00409090 00 00 00 00 00 00 00 00 00 00 00 00 00 00 00 00 ................
004090A0 00 00 00 00 00 00 00 00 00 00 00 00 00 00 00 00 ................
004090B0 00 00 00 00 00 00 00 00 00 00 00 00 00 00 00 00 ................
004090C0 00 00 00 00 00 00 00 00 00 00 00 00 00 00 00 00 ................
004090D0 00 00 00 00 00 00 00 00 00 00 00 00 00 00 00 00 ................
004090E0 00 00 00 00 00 00 00 00 00 00 00 00 00 00 00 00 ................
004090F0 00 00 00 00 00 00 00 00 00 00 00 00 00 00 00 00 ................
00409100 00 00 00 00 00 00 00 00 00 00 00 00 00 00 00 00 ................
00409110 00 00 00 00 00 00 00 00 00 00 00 00 00 00 00 00 ................
00409120 00 00 00 00 00 00 00 00 00 00 00 00 00 00 00 00 ................
00409130 00 00 00 00 00 00 00 00 00 00 00 00 00 00 00 00 ................
00409140 00 00 00 00 00 00 00 00 00 00 00 00 00 00 00 00 ................
00409150 00 00 00 00 00 00 00 00 00 00 00 00 00 00 00 00 ................
00409160 00 00 00 00 00 00 00 00 00 00 00 00 00 00 00 00 ................
00409170 00 00 00 00 00 00 00 00 00 00 00 00 00 00 00 00 ................
00409180 00 00 00 00 00 00 00 00 00 00 00 00 00 00 00 00 ................
00409190 00 00 00 00 00 00 00 00 00 00 00 00 00 00 00 00 ................
004091A0 00 00 00 00 00 00 00 00 00 00 00 00 00 00 00 00 ................
004091B0 00 00 00 00 00 00 00 00 00 00 00 00 00 00 00 00 ................
004091C0 00 00 00 00 00 00 00 00 00 00 00 00 00 00 00 00 ................
004091D0 00 00 00 00 00 00 00 00 00 00 00 00 00 00 00 00 ................
004091E0 00 00 00 00 00 00 00 00 00 00 00 00 00 00 00 00 ................
004091F0 00 00 00 00 00 00 00 00 00 00 00 00 00 00 00 00 ................
00409200 00 00 00 00 00 00 00 00 00 00 00 00 00 00 00 00 ................
00409210 00 00 00 00 00 00 00 00 00 00 00 00 00 00 00 00 ................
00409220 00 00 00 00 00 00 00 00 00 00 00 00 00 00 00 00 ................
00409230 00 00 00 00 00 00 00 00 00 00 00 00 00 00 00 00 ................
00409240 00 00 00 00 00 00 00 00 00 00 00 00 00 00 00 00 ................
00409250 00 00 00 00 00 00 00 00 00 00 00 00 00 00 00 00 ................
00409260 00 00 00 00 00 00 00 00 00 00 00 00 00 00 00 00 ................
00409270 00 00 00 00 00 00 00 00 00 00 00 00 00 00 00 00 ................
00409280 00 00 00 00 00 00 00 00 00 00 00 00 00 00 00 00 ................
00409290 00 00 00 00 00 00 00 00 00 00 00 00 00 00 00 00 ................
004092A0 00 00 00 00 00 00 00 00 00 00 00 00 00 00 00 00 ................
004092B0 00 00 00 00 00 00 00 00 00 00 00 00 00 00 00 00 ................
004092C0 00 00 00 00 00 00 00 00 00 00 00 00 00 00 00 00 ................
004092D0 00 00 00 00 00 00 00 00 00 00 00 00 00 00 00 00 ................
004092E0 00 00 00 00 00 00 00 00 00 00 00 00 00 00 00 00 ................
004092F0 00 00 00 00 00 00 00 00 00 00 00 00 00 00 00 00 ................
00409300 00 00 00 00 00 00 00 00 00 00 00 00 00 00 00 00 ................
00409310 00 00 00 00 00 00 00 00 00 00 00 00 00 00 00 00 ................
00409320 00 00 00 00 00 00 00 00 00 00 00 00 00 00 00 00 ................
00409330 00 00 00 00 00 00 00 00 00 00 00 00 00 00 00 00 ................
00409340 00 00 00 00 00 00 00 00 00 00 00 00 00 00 00 00 ................
00409350 00 00 00 00 00 00 00 00 00 00 00 00 00 00 00 00 ................
00409360 00 00 00 00 00 00 00 00 00 00 00 00 00 00 00 00 ................
00409370 00 00 00 00 00 00 00 00 00 00 00 00 00 00 00 00 ................
00409380 00 00 00 00 00 00 00 00 00 00 00 00 00 00 00 00 ................
00409390 00 00 00 00 00 00 00 00 00 00 00 00 00 00 00 00 ................
004093A0 00 00 00 00 00 00 00 00 00 00 00 00 00 00 00 00 ................
004093B0 00 00 00 00 00 00 00 00 00 00 00 00 00 00 00 00 ................
004093C0 00 00 00 00 00 00 00 00 00 00 00 00 00 00 00 00 ................
004093D0 00 00 00 00 00 00 00 00 00 00 00 00 00 00 00 00 ................
004093E0 00 00 00 00 00 00 00 00 00 00 00 00 00 00 00 00 ................
004093F0 00 00 00 00 00 00 00 00 00 00 00 00 00 00 00 00 ................
00409400 00 00 00 00 00 00 00 00 00 00 00 00 00 00 00 00 ................
00409410 00 00 00 00 00 00 00 00 00 00 00 00 00 00 00 00 ................
00409420 00 00 00 00 00 00 00 00 00 00 00 00 00 00 00 00 ................
00409430 00 00 00 00 00 00 00 00 00 00 00 00 00 00 00 00 ................
00409440 00 00 00 00 00 00 00 00 00 00 00 00 00 00 00 00 ................
00409450 00 00 00 00 00 00 00 00 00 00 00 00 00 00 00 00 ................
00409460 00 00 00 00 00 00 00 00 00 00 00 00 00 00 00 00 ................
00409470 00 00 00 00 00 00 00 00 00 00 00 00 00 00 00 00 ................
00409480 00 00 00 00 00 00 00 00 00 00 00 00 00 00 00 00 ................
00409490 00 00 00 00 00 00 00 00 00 00 00 00 00 00 00 00 ................
004094A0 00 00 00 00 00 00 00 00 00 00 00 00 00 00 00 00 ................
004094B0 00 00 00 00 00 00 00 00 00 00 00 00 00 00 00 00 ................
004094C0 00 00 00 00 00 00 00 00 00 00 00 00 00 00 00 00 ................
004094D0 00 00 00 00 00 00 00 00 00 00 00 00 00 00 00 00 ................
004094E0 00 00 00 00 00 00 00 00 00 00 00 00 00 00 00 00 ................
004094F0 00 00 00 00 00 00 00 00 00 00 00 00 00 00 00 00 ................
00409500 00 00 00 00 00 00 00 00 00 00 00 00 00 00 00 00 ................
00409510 00 00 00 00 00 00 00 00 00 00 00 00 00 00 00 00 ................
00409520 00 00 00 00 00 00 00 00 00 00 00 00 00 00 00 00 ................
00409530 00 00 00 00 00 00 00 00 00 00 00 00 00 00 00 00 ................
00409540 00 00 00 00 00 00 00 00 00 00 00 00 00 00 00 00 ................
00409550 00 00 00 00 00 00 00 00 00 00 00 00 00 00 00 00 ................
00409560 00 00 00 00 00 00 00 00 00 00 00 00 00 00 00 00 ................
00409570 00 00 00 00 00 00 00 00 00 00 00 00 00 00 00 00 ................
00409580 00 00 00 00 00 00 00 00 00 00 00 00 00 00 00 00 ................
00409590 00 00 00 00 00 00 00 00 00 00 00 00 00 00 00 00 ................
004095A0 00 00 00 00 00 00 00 00 00 00 00 00 00 00 00 00 ................
004095B0 00 00 00 00 00 00 00 00 00 00 00 00 00 00 00 00 ................
004095C0 00 00 00 00 00 00 00 00 00 00 00 00 00 00 00 00 ................
004095D0 00 00 00 00 00 00 00 00 00 00 00 00 00 00 00 00 ................
004095E0 00 00 00 00 00 00 00 00 00 00 00 00 00 00 00 00 ................
004095F0 00 00 00 00 00 00 00 00 00 00 00 00 00 00 00 00 ................
00409600 00 00 00 00 00 00 00 00 00 00 00 00 00 00 00 00 ................
00409610 00 00 00 00 00 00 00 00 00 00 00 00 00 00 00 00 ................
00409620 00 00 00 00 00 00 00 00 00 00 00 00 00 00 00 00 ................
00409630 00 00 00 00 00 00 00 00 00 00 00 00 00 00 00 00 ................
00409640 00 00 00 00 00 00 00 00 00 00 00 00 00 00 00 00 ................
00409650 00 00 00 00 00 00 00 00 00 00 00 00 00 00 00 00 ................
00409660 00 00 00 00 00 00 00 00 00 00 00 00 00 00 00 00 ................
00409670 00 00 00 00 00 00 00 00 00 00 00 00 00 00 00 00 ................
00409680 00 00 00 00 00 00 00 00 00 00 00 00 00 00 00 00 ................
00409690 00 00 00 00 00 00 00 00 00 00 00 00 00 00 00 00 ................
004096A0 00 00 00 00 00 00 00 00 00 00 00 00 00 00 00 00 ................
004096B0 00 00 00 00 00 00 00 00 00 00 00 00 00 00 00 00 ................
004096C0 00 00 00 00 00 00 00 00 00 00 00 00 00 00 00 00 ................
004096D0 00 00 00 00 00 00 00 00 00 00 00 00 00 00 00 00 ................
004096E0 00 00 00 00 00 00 00 00 00 00 00 00 00 00 00 00 ................
004096F0 00 00 00 00 00 00 00 00 00 00 00 00 00 00 00 00 ................
00409700 00 00 00 00 00 00 00 00 00 00 00 00 00 00 00 00 ................
00409710 00 00 00 00 00 00 00 00 00 00 00 00 00 00 00 00 ................
00409720 00 00 00 00 00 00 00 00 00 00 00 00 00 00 00 00 ................
00409730 00 00 00 00 00 00 00 00 00 00 00 00 00 00 00 00 ................
00409740 00 00 00 00 00 00 00 00 00 00 00 00 00 00 00 00 ................
00409750 00 00 00 00 00 00 00 00 00 00 00 00 00 00 00 00 ................
00409760 00 00 00 00 00 00 00 00 00 00 00 00 00 00 00 00 ................
00409770 00 00 00 00 00 00 00 00 00 00 00 00 00 00 00 00 ................
00409780 00 00 00 00 00 00 00 00 00 00 00 00 00 00 00 00 ................
00409790 00 00 00 00 00 00 00 00 00 00 00 00 00 00 00 00 ................
004097A0 00 00 00 00 00 00 00 00 00 00 00 00 00 00 00 00 ................
004097B0 00 00 00 00 00 00 00 00 00 00 00 00 00 00 00 00 ................
004097C0 00 00 00 00 00 00 00 00 00 00 00 00 00 00 00 00 ................
004097D0 00 00 00 00 00 00 00 00 00 00 00 00 00 00 00 00 ................
004097E0 00 00 00 00 00 00 00 00 00 00 00 00 00 00 00 00 ................
004097F0 00 00 00 00 00 00 00 00 00 00 00 00 00 00 00 00 ................
00409800 00 00 00 00 00 00 00 00 00 00 00 00 00 00 00 00 ................
00409810 00 00 00 00 00 00 00 00 00 00 00 00 00 00 00 00 ................
00409820 00 00 00 00 00 00 00 00 00 00 00 00 00 00 00 00 ................
00409830 00 00 00 00 00 00 00 00 00 00 00 00 00 00 00 00 ................
00409840 00 00 00 00 00 00 00 00 00 00 00 00 00 00 00 00 ................
00409850 00 00 00 00 00 00 00 00 00 00 00 00 00 00 00 00 ................
00409860 00 00 00 00 00 00 00 00 00 00 00 00 00 00 00 00 ................
00409870 00 00 00 00 00 00 00 00 00 00 00 00 00 00 00 00 ................
00409880 00 00 00 00 00 00 00 00 00 00 00 00 00 00 00 00 ................
00409890 00 00 00 00 00 00 00 00 00 00 00 00 00 00 00 00 ................
004098A0 00 00 00 00 00 00 00 00 00 00 00 00 00 00 00 00 ................
004098B0 00 00 00 00 00 00 00 00 00 00 00 00 00 00 00 00 ................
004098C0 00 00 00 00 00 00 00 00 00 00 00 00 00 00 00 00 ................
004098D0 00 00 00 00 00 00 00 00 00 00 00 00 00 00 00 00 ................
004098E0 00 00 00 00 00 00 00 00 00 00 00 00 00 00 00 00 ................
004098F0 00 00 00 00 00 00 00 00 00 00 00 00 00 00 00 00 ................
00409900 00 00 00 00 00 00 00 00 00 00 00 00 00 00 00 00 ................
00409910 00 00 00 00 00 00 00 00 00 00 00 00 00 00 00 00 ................
00409920 00 00 00 00 00 00 00 00 00 00 00 00 00 00 00 00 ................
00409930 00 00 00 00 00 00 00 00 00 00 00 00 00 00 00 00 ................
00409940 00 00 00 00 00 00 00 00 00 00 00 00 00 00 00 00 ................
00409950 00 00 00 00 00 00 00 00 00 00 00 00 00 00 00 00 ................
00409960 00 00 00 00 00 00 00 00 00 00 00 00 00 00 00 00 ................
00409970 00 00 00 00 00 00 00 00 00 00 00 00 00 00 00 00 ................
00409980 00 00 00 00 00 00 00 00 00 00 00 00 00 00 00 00 ................
00409990 00 00 00 00 00 00 00 00 00 00 00 00 00 00 00 00 ................
004099A0 00 00 00 00 00 00 00 00 00 00 00 00 00 00 00 00 ................
004099B0 00 00 00 00 00 00 00 00 00 00 00 00 00 00 00 00 ................
004099C0 00 00 00 00 00 00 00 00 00 00 00 00 00 00 00 00 ................
004099D0 00 00 00 00 00 00 00 00 00 00 00 00 00 00 00 00 ................
004099E0 00 00 00 00 00 00 00 00 00 00 00 00 00 00 00 00 ................
004099F0 00 00 00 00 00 00 00 00 00 00 00 00 00 00 00 00 ................
00409A00 00 00 00 00 00 00 00 00 00 00 00 00 00 00 00 00 ................
00409A10 00 00 00 00 00 00 00 00 00 00 00 00 00 00 00 00 ................
00409A20 00 00 00 00 00 00 00 00 00 00 00 00 00 00 00 00 ................
00409A30 00 00 00 00 00 00 00 00 00 00 00 00 00 00 00 00 ................
00409A40 00 00 00 00 00 00 00 00 00 00 00 00 00 00 00 00 ................
00409A50 00 00 00 00 00 00 00 00 00 00 00 00 00 00 00 00 ................
00409A60 00 00 00 00 00 00 00 00 00 00 00 00 00 00 00 00 ................
00409A70 00 00 00 00 00 00 00 00 00 00 00 00 00 00 00 00 ................
00409A80 00 00 00 00 00 00 00 00 00 00 00 00 00 00 00 00 ................
00409A90 00 00 00 00 00 00 00 00 00 00 00 00 00 00 00 00 ................
00409AA0 00 00 00 00 00 00 00 00 00 00 00 00 00 00 00 00 ................
00409AB0 00 00 00 00 00 00 00 00 00 00 00 00 00 00 00 00 ................
00409AC0 00 00 00 00 00 00 00 00 00 00 00 00 00 00 00 00 ................
00409AD0 00 00 00 00 00 00 00 00 00 00 00 00 00 00 00 00 ................
00409AE0 00 00 00 00 00 00 00 00 00 00 00 00 00 00 00 00 ................
00409AF0 00 00 00 00 00 00 00 00 00 00 00 00 00 00 00 00 ................
00409B00 00 00 00 00 00 00 00 00 00 00 00 00 00 00 00 00 ................
00409B10 00 00 00 00 00 00 00 00 00 00 00 00 00 00 00 00 ................
00409B20 00 00 00 00 00 00 00 00 00 00 00 00 00 00 00 00 ................
00409B30 00 00 00 00 00 00 00 00 00 00 00 00 00 00 00 00 ................
00409B40 00 00 00 00 00 00 00 00 00 00 00 00 00 00 00 00 ................
00409B50 00 00 00 00 00 00 00 00 00 00 00 00 00 00 00 00 ................
00409B60 00 00 00 00 00 00 00 00 00 00 00 00 00 00 00 00 ................
00409B70 00 00 00 00 00 00 00 00 00 00 00 00 00 00 00 00 ................
00409B80 00 00 00 00 00 00 00 00 00 00 00 00 00 00 00 00 ................
00409B90 00 00 00 00 00 00 00 00 00 00 00 00 00 00 00 00 ................
00409BA0 00 00 00 00 00 00 00 00 00 00 00 00 00 00 00 00 ................
00409BB0 00 00 00 00 00 00 00 00 00 00 00 00 00 00 00 00 ................
00409BC0 00 00 00 00 00 00 00 00 00 00 00 00 00 00 00 00 ................
00409BD0 00 00 00 00 00 00 00 00 00 00 00 00 00 00 00 00 ................
00409BE0 00 00 00 00 00 00 00 00 00 00 00 00 00 00 00 00 ................
00409BF0 00 00 00 00 00 00 00 00 00 00 00 00 00 00 00 00 ................
00409C00 00 00 00 00 00 00 00 00 00 00 00 00 00 00 00 00 ................
00409C10 00 00 00 00 00 00 00 00 00 00 00 00 00 00 00 00 ................
00409C20 00 00 00 00 00 00 00 00 00 00 00 00 00 00 00 00 ................
00409C30 00 00 00 00 00 00 00 00 00 00 00 00 00 00 00 00 ................
00409C40 00 00 00 00 00 00 00 00 00 00 00 00 00 00 00 00 ................
00409C50 00 00 00 00 00 00 00 00 00 00 00 00 00 00 00 00 ................
00409C60 00 00 00 00 00 00 00 00 00 00 00 00 00 00 00 00 ................
00409C70 00 00 00 00 00 00 00 00 00 00 00 00 00 00 00 00 ................
00409C80 00 00 00 00 00 00 00 00 00 00 00 00 00 00 00 00 ................
00409C90 00 00 00 00 00 00 00 00 00 00 00 00 00 00 00 00 ................
00409CA0 00 00 00 00 00 00 00 00 00 00 00 00 00 00 00 00 ................
00409CB0 00 00 00 00 00 00 00 00 00 00 00 00 00 00 00 00 ................
00409CC0 00 00 00 00 00 00 00 00 00 00 00 00 00 00 00 00 ................
00409CD0 00 00 00 00 00 00 00 00 00 00 00 00 00 00 00 00 ................
00409CE0 00 00 00 00 00 00 00 00 00 00 00 00 00 00 00 00 ................
00409CF0 00 00 00 00 00 00 00 00 00 00 00 00 00 00 00 00 ................
00409D00 00 00 00 00 00 00 00 00 00 00 00 00 00 00 00 00 ................
00409D10 00 00 00 00 00 00 00 00 00 00 00 00 00 00 00 00 ................
00409D20 00 00 00 00 00 00 00 00 00 00 00 00 00 00 00 00 ................
00409D30 00 00 00 00 00 00 00 00 00 00 00 00 00 00 00 00 ................
00409D40 00 00 00 00 00 00 00 00 00 00 00 00 00 00 00 00 ................
00409D50 00 00 00 00 00 00 00 00 00 00 00 00 00 00 00 00 ................
00409D60 00 00 00 00 00 00 00 00 00 00 00 00 00 00 00 00 ................
00409D70 00 00 00 00 00 00 00 00 00 00 00 00 00 00 00 00 ................
00409D80 00 00 00 00 00 00 00 00 00 00 00 00 00 00 00 00 ................
00409D90 00 00 00 00 00 00 00 00 00 00 00 00 00 00 00 00 ................
00409DA0 00 00 00 00 00 00 00 00 00 00 00 00 00 00 00 00 ................
00409DB0 00 00 00 00 00 00 00 00 00 00 00 00 00 00 00 00 ................
00409DC0 00 00 00 00 00 00 00 00 00 00 00 00 00 00 00 00 ................
00409DD0 00 00 00 00 00 00 00 00 00 00 00 00 00 00 00 00 ................
00409DE0 00 00 00 00 00 00 00 00 00 00 00 00 00 00 00 00 ................
00409DF0 00 00 00 00 00 00 00 00 00 00 00 00 00 00 00 00 ................
00409E00 00 00 00 00 00 00 00 00 00 00 00 00 00 00 00 00 ................
00409E10 00 00 00 00 00 00 00 00 00 00 00 00 00 00 00 00 ................
00409E20 00 00 00 00 00 00 00 00 00 00 00 00 00 00 00 00 ................
00409E30 00 00 00 00 00 00 00 00 00 00 00 00 00 00 00 00 ................
00409E40 00 00 00 00 00 00 00 00 00 00 00 00 00 00 00 00 ................
00409E50 00 00 00 00 00 00 00 00 00 00 00 00 00 00 00 00 ................
00409E60 00 00 00 00 00 00 00 00 00 00 00 00 00 00 00 00 ................
00409E70 00 00 00 00 00 00 00 00 00 00 00 00 00 00 00 00 ................
00409E80 00 00 00 00 00 00 00 00 00 00 00 00 00 00 00 00 ................
00409E90 00 00 00 00 00 00 00 00 00 00 00 00 00 00 00 00 ................
00409EA0 00 00 00 00 00 00 00 00 00 00 00 00 00 00 00 00 ................
00409EB0 00 00 00 00 00 00 00 00 00 00 00 00 00 00 00 00 ................
00409EC0 00 00 00 00 00 00 00 00 00 00 00 00 00 00 00 00 ................
00409ED0 00 00 00 00 00 00 00 00 00 00 00 00 00 00 00 00 ................
00409EE0 00 00 00 00 00 00 00 00 00 00 00 00 00 00 00 00 ................
00409EF0 00 00 00 00 00 00 00 00 00 00 00 00 00 00 00 00 ................
00409F00 00 00 00 00 00 00 00 00 00 00 00 00 00 00 00 00 ................
00409F10 00 00 00 00 00 00 00 00 00 00 00 00 00 00 00 00 ................
00409F20 00 00 00 00 00 00 00 00 00 00 00 00 00 00 00 00 ................
00409F30 00 00 00 00 00 00 00 00 00 00 00 00 00 00 00 00 ................
00409F40 00 00 00 00 00 00 00 00 00 00 00 00 00 00 00 00 ................
00409F50 00 00 00 00 00 00 00 00 00 00 00 00 00 00 00 00 ................
00409F60 00 00 00 00 00 00 00 00 00 00 00 00 00 00 00 00 ................
00409F70 00 00 00 00 00 00 00 00 00 00 00 00 00 00 00 00 ................
00409F80 00 00 00 00 00 00 00 00 00 00 00 00 00 00 00 00 ................
00409F90 00 00 00 00 00 00 00 00 00 00 00 00 00 00 00 00 ................
00409FA0 00 00 00 00 00 00 00 00 00 00 00 00 00 00 00 00 ................
00409FB0 00 00 00 00 00 00 00 00 00 00 00 00 00 00 00 00 ................
00409FC0 00 00 00 00 00 00 00 00 00 00 00 00 00 00 00 00 ................
00409FD0 00 00 00 00 00 00 00 00 00 00 00 00 00 00 00 00 ................
00409FE0 00 00 00 00 00 00 00 00 00 00 00 00 00 00 00 00 ................
00409FF0 00 00 00 00 00 00 00 00 00 00 00 00 00 00 00 00 ................
0040A000 00 00 00 00 00 00 00 00 00 00 00 00 00 00 00 00 ................
0040A010 00 00 00 00 00 00 00 00 00 00 00 00 00 00 00 00 ................
0040A020 00 00 00 00 00 00 00 00 00 00 00 00 00 00 00 00 ................
0040A030 00 00 00 00 00 00 00 00 00 00 00 00 00 00 00 00 ................
0040A040 00 00 00 00 00 00 00 00 00 00 00 00 00 00 00 00 ................
0040A050 00 00 00 00 00 00 00 00 00 00 00 00 00 00 00 00 ................
0040A060 00 00 00 00 00 00 00 00 00 00 00 00 00 00 00 00 ................
0040A070 00 00 00 00 00 00 00 00 00 00 00 00 00 00 00 00 ................
0040A080 00 00 00 00 00 00 00 00 00 00 00 00 00 00 00 00 ................
0040A090 00 00 00 00 00 00 00 00 00 00 00 00 00 00 00 00 ................
0040A0A0 00 00 00 00 00 00 00 00 00 00 00 00 00 00 00 00 ................
0040A0B0 00 00 00 00 00 00 00 00 00 00 00 00 00 00 00 00 ................
0040A0C0 00 00 00 00 00 00 00 00 00 00 00 00 00 00 00 00 ................
0040A0D0 00 00 00 00 00 00 00 00 00 00 00 00 00 00 00 00 ................
0040A0E0 00 00 00 00 00 00 00 00 00 00 00 00 00 00 00 00 ................
0040A0F0 00 00 00 00 00 00 00 00 00 00 00 00 00 00 00 00 ................
0040A100 00 00 00 00 00 00 00 00 00 00 00 00 00 00 00 00 ................
0040A110 00 00 00 00 00 00 00 00 00 00 00 00 00 00 00 00 ................
0040A120 00 00 00 00 00 00 00 00 00 00 00 00 00 00 00 00 ................
0040A130 00 00 00 00 00 00 00 00 00 00 00 00 00 00 00 00 ................
0040A140 00 00 00 00 00 00 00 00 00 00 00 00 00 00 00 00 ................
0040A150 00 00 00 00 00 00 00 00 00 00 00 00 00 00 00 00 ................
0040A160 00 00 00 00 00 00 00 00 00 00 00 00 00 00 00 00 ................
0040A170 00 00 00 00 00 00 00 00 00 00 00 00 00 00 00 00 ................
0040A180 00 00 00 00 00 00 00 00 00 00 00 00 00 00 00 00 ................
0040A190 00 00 00 00 00 00 00 00 00 00 00 00 00 00 00 00 ................
0040A1A0 00 00 00 00 00 00 00 00 00 00 00 00 00 00 00 00 ................
0040A1B0 00 00 00 00 00 00 00 00 00 00 00 00 00 00 00 00 ................
0040A1C0 00 00 00 00 00 00 00 00 00 00 00 00 00 00 00 00 ................
0040A1D0 00 00 00 00 00 00 00 00 00 00 00 00 00 00 00 00 ................
0040A1E0 00 00 00 00 00 00 00 00 00 00 00 00 00 00 00 00 ................
0040A1F0 00 00 00 00 00 00 00 00 00 00 00 00 00 00 00 00 ................
0040A200 00 00 00 00 00 00 00 00 00 00 00 00 00 00 00 00 ................
0040A210 00 00 00 00 00 00 00 00 00 00 00 00 00 00 00 00 ................
0040A220 00 00 00 00 00 00 00 00 00 00 00 00 00 00 00 00 ................
0040A230 00 00 00 00 00 00 00 00 00 00 00 00 00 00 00 00 ................
0040A240 00 00 00 00 00 00 00 00 00 00 00 00 00 00 00 00 ................
0040A250 00 00 00 00 00 00 00 00 00 00 00 00 00 00 00 00 ................
0040A260 00 00 00 00 00 00 00 00 00 00 00 00 00 00 00 00 ................
0040A270 00 00 00 00 00 00 00 00 00 00 00 00 00 00 00 00 ................
0040A280 00 00 00 00 00 00 00 00 00 00 00 00 00 00 00 00 ................
0040A290 00 00 00 00 00 00 00 00 00 00 00 00 00 00 00 00 ................
0040A2A0 00 00 00 00 00 00 00 00 00 00 00 00 00 00 00 00 ................
0040A2B0 00 00 00 00 00 00 00 00 00 00 00 00 00 00 00 00 ................
0040A2C0 00 00 00 00 00 00 00 00 00 00 00 00 00 00 00 00 ................
0040A2D0 00 00 00 00 00 00 00 00 00 00 00 00 00 00 00 00 ................
0040A2E0 00 00 00 00 00 00 00 00 00 00 00 00 00 00 00 00 ................
0040A2F0 00 00 00 00 00 00 00 00 00 00 00 00 00 00 00 00 ................
0040A300 00 00 00 00 00 00 00 00 00 00 00 00 00 00 00 00 ................
0040A310 00 00 00 00 00 00 00 00 00 00 00 00 00 00 00 00 ................
0040A320 00 00 00 00 00 00 00 00 00 00 00 00 00 00 00 00 ................
0040A330 00 00 00 00 00 00 00 00 00 00 00 00 00 00 00 00 ................
0040A340 00 00 00 00 00 00 00 00 00 00 00 00 00 00 00 00 ................
0040A350 00 00 00 00 00 00 00 00 00 00 00 00 00 00 00 00 ................
0040A360 00 00 00 00 00 00 00 00 00 00 00 00 00 00 00 00 ................
0040A370 00 00 00 00 00 00 00 00 00 00 00 00 00 00 00 00 ................
0040A380 00 00 00 00 00 00 00 00 00 00 00 00 00 00 00 00 ................
0040A390 00 00 00 00 00 00 00 00 00 00 00 00 00 00 00 00 ................
0040A3A0 00 00 00 00 00 00 00 00 00 00 00 00 00 00 00 00 ................
0040A3B0 00 00 00 00 00 00 00 00 00 00 00 00 00 00 00 00 ................
0040A3C0 00 00 00 00 00 00 00 00 00 00 00 00 00 00 00 00 ................
0040A3D0 00 00 00 00 00 00 00 00 00 00 00 00 00 00 00 00 ................
0040A3E0 00 00 00 00 00 00 00 00 00 00 00 00 00 00 00 00 ................
0040A3F0 00 00 00 00 00 00 00 00 00 00 00 00 00 00 00 00 ................
0040A400 00 00 00 00 00 00 00 00 00 00 00 00 00 00 00 00 ................
0040A410 00 00 00 00 00 00 00 00 00 00 00 00 00 00 00 00 ................
0040A420 00 00 00 00 00 00 00 00 00 00 00 00 00 00 00 00 ................
0040A430 00 00 00 00 00 00 00 00 00 00 00 00 00 00 00 00 ................
0040A440 00 00 00 00 00 00 00 00 00 00 00 00 00 00 00 00 ................
0040A450 00 00 00 00 00 00 00 00 00 00 00 00 00 00 00 00 ................
0040A460 00 00 00 00 00 00 00 00 00 00 00 00 00 00 00 00 ................
0040A470 00 00 00 00 00 00 00 00 00 00 00 00 00 00 00 00 ................
0040A480 00 00 00 00 00 00 00 00 00 00 00 00 00 00 00 00 ................
0040A490 00 00 00 00 00 00 00 00 00 00 00 00 00 00 00 00 ................
0040A4A0 00 00 00 00 00 00 00 00 00 00 00 00 00 00 00 00 ................
0040A4B0 00 00 00 00 00 00 00 00 00 00 00 00 00 00 00 00 ................
0040A4C0 00 00 00 00 00 00 00 00 00 00 00 00 00 00 00 00 ................
0040A4D0 00 00 00 00 00 00 00 00 00 00 00 00 00 00 00 00 ................
0040A4E0 00 00 00 00 00 00 00 00 00 00 00 00 00 00 00 00 ................
0040A4F0 00 00 00 00 00 00 00 00 00 00 00 00 00 00 00 00 ................
0040A500 00 00 00 00 00 00 00 00 00 00 00 00 00 00 00 00 ................
0040A510 00 00 00 00 00 00 00 00 00 00 00 00 00 00 00 00 ................
0040A520 00 00 00 00 00 00 00 00 00 00 00 00 00 00 00 00 ................
0040A530 00 00 00 00 00 00 00 00 00 00 00 00 00 00 00 00 ................
0040A540 00 00 00 00 00 00 00 00 00 00 00 00 00 00 00 00 ................
0040A550 00 00 00 00 00 00 00 00 00 00 00 00 00 00 00 00 ................
0040A560 00 00 00 00 00 00 00 00 00 00 00 00 00 00 00 00 ................
0040A570 00 00 00 00 00 00 00 00 00 00 00 00 00 00 00 00 ................
0040A580 00 00 00 00 00 00 00 00 00 00 00 00 00 00 00 00 ................
0040A590 00 00 00 00 00 00 00 00 00 00 00 00 00 00 00 00 ................
0040A5A0 00 00 00 00 00 00 00 00 00 00 00 00 00 00 00 00 ................
0040A5B0 00 00 00 00 00 00 00 00 00 00 00 00 00 00 00 00 ................
0040A5C0 00 00 00 00 00 00 00 00 00 00 00 00 00 00 00 00 ................
0040A5D0 00 00 00 00 00 00 00 00 00 00 00 00 00 00 00 00 ................
0040A5E0 00 00 00 00 00 00 00 00 00 00 00 00 00 00 00 00 ................
0040A5F0 00 00 00 00 00 00 00 00 00 00 00 00 00 00 00 00 ................
0040A600 00 00 00 00 00 00 00 00 00 00 00 00 00 00 00 00 ................
0040A610 00 00 00 00 00 00 00 00 00 00 00 00 00 00 00 00 ................
0040A620 00 00 00 00 00 00 00 00 00 00 00 00 00 00 00 00 ................
0040A630 00 00 00 00 00 00 00 00 00 00 00 00 00 00 00 00 ................
0040A640 00 00 00 00 00 00 00 00 00 00 00 00 00 00 00 00 ................
0040A650 00 00 00 00 00 00 00 00 00 00 00 00 00 00 00 00 ................
0040A660 00 00 00 00 00 00 00 00 00 00 00 00 00 00 00 00 ................
0040A670 00 00 00 00 00 00 00 00 00 00 00 00 00 00 00 00 ................
0040A680 00 00 00 00 00 00 00 00 00 00 00 00 00 00 00 00 ................
0040A690 00 00 00 00 00 00 00 00 00 00 00 00 00 00 00 00 ................
0040A6A0 00 00 00 00 00 00 00 00 00 00 00 00 00 00 00 00 ................
0040A6B0 00 00 00 00 00 00 00 00 00 00 00 00 00 00 00 00 ................
0040A6C0 00 00 00 00 00 00 00 00 00 00 00 00 00 00 00 00 ................
0040A6D0 00 00 00 00 00 00 00 00 00 00 00 00 00 00 00 00 ................
0040A6E0 00 00 00 00 00 00 00 00 00 00 00 00 00 00 00 00 ................
0040A6F0 00 00 00 00 00 00 00 00 00 00 00 00 00 00 00 00 ................
0040A700 00 00 00 00 00 00 00 00 00 00 00 00 00 00 00 00 ................
0040A710 00 00 00 00 00 00 00 00 00 00 00 00 00 00 00 00 ................
0040A720 00 00 00 00 00 00 00 00 00 00 00 00 00 00 00 00 ................
0040A730 00 00 00 00 00 00 00 00 00 00 00 00 00 00 00 00 ................
0040A740 00 00 00 00 00 00 00 00 00 00 00 00 00 00 00 00 ................
0040A750 00 00 00 00 00 00 00 00 00 00 00 00 00 00 00 00 ................
0040A760 00 00 00 00 00 00 00 00 00 00 00 00 00 00 00 00 ................
0040A770 00 00 00 00 00 00 00 00 00 00 00 00 00 00 00 00 ................
0040A780 00 00 00 00 00 00 00 00 00 00 00 00 00 00 00 00 ................
0040A790 00 00 00 00 00 00 00 00 00 00 00 00 00 00 00 00 ................
0040A7A0 00 00 00 00 00 00 00 00 00 00 00 00 00 00 00 00 ................
0040A7B0 00 00 00 00 00 00 00 00 00 00 00 00 00 00 00 00 ................
0040A7C0 00 00 00 00 00 00 00 00 00 00 00 00 00 00 00 00 ................
0040A7D0 00 00 00 00 00 00 00 00 00 00 00 00 00 00 00 00 ................
0040A7E0 00 00 00 00 00 00 00 00 00 00 00 00 00 00 00 00 ................
0040A7F0 00 00 00 00 00 00 00 00 00 00 00 00 00 00 00 00 ................
0040A800 00 00 00 00 00 00 00 00 00 00 00 00 00 00 00 00 ................
0040A810 00 00 00 00 00 00 00 00 00 00 00 00 00 00 00 00 ................
0040A820 00 00 00 00 00 00 00 00 00 00 00 00 00 00 00 00 ................
0040A830 00 00 00 00 00 00 00 00 00 00 00 00 00 00 00 00 ................
0040A840 00 00 00 00 00 00 00 00 00 00 00 00 00 00 00 00 ................
0040A850 00 00 00 00 00 00 00 00 00 00 00 00 00 00 00 00 ................
0040A860 00 00 00 00 00 00 00 00 00 00 00 00 00 00 00 00 ................
0040A870 00 00 00 00 00 00 00 00 00 00 00 00 00 00 00 00 ................
0040A880 00 00 00 00 00 00 00 00 00 00 00 00 00 00 00 00 ................
0040A890 00 00 00 00 00 00 00 00 00 00 00 00 00 00 00 00 ................
0040A8A0 00 00 00 00 00 00 00 00 00 00 00 00 00 00 00 00 ................
0040A8B0 00 00 00 00 00 00 00 00 00 00 00 00 00 00 00 00 ................
0040A8C0 00 00 00 00 00 00 00 00 00 00 00 00 00 00 00 00 ................
0040A8D0 00 00 00 00 00 00 00 00 00 00 00 00 00 00 00 00 ................
0040A8E0 00 00 00 00 00 00 00 00 00 00 00 00 00 00 00 00 ................
0040A8F0 00 00 00 00 00 00 00 00 00 00 00 00 00 00 00 00 ................
0040A900 00 00 00 00 00 00 00 00 00 00 00 00 00 00 00 00 ................
0040A910 00 00 00 00 00 00 00 00 00 00 00 00 00 00 00 00 ................
0040A920 00 00 00 00 00 00 00 00 00 00 00 00 00 00 00 00 ................
0040A930 00 00 00 00 00 00 00 00 00 00 00 00 00 00 00 00 ................
0040A940 00 00 00 00 00 00 00 00 00 00 00 00 00 00 00 00 ................
0040A950 00 00 00 00 00 00 00 00 00 00 00 00 00 00 00 00 ................
0040A960 00 00 00 00 00 00 00 00 00 00 00 00 00 00 00 00 ................
0040A970 00 00 00 00 00 00 00 00 00 00 00 00 00 00 00 00 ................
0040A980 00 00 00 00 00 00 00 00 00 00 00 00 00 00 00 00 ................
0040A990 00 00 00 00 00 00 00 00 00 00 00 00 00 00 00 00 ................
0040A9A0 00 00 00 00 00 00 00 00 00 00 00 00 00 00 00 00 ................
0040A9B0 00 00 00 00 00 00 00 00 00 00 00 00 00 00 00 00 ................
0040A9C0 00 00 00 00 00 00 00 00 00 00 00 00 00 00 00 00 ................
0040A9D0 00 00 00 00 00 00 00 00 00 00 00 00 00 00 00 00 ................
0040A9E0 00 00 00 00 00 00 00 00 00 00 00 00 00 00 00 00 ................
0040A9F0 00 00 00 00 00 00 00 00 00 00 00 00 00 00 00 00 ................
0040AA00 00 00 00 00 00 00 00 00 00 00 00 00 00 00 00 00 ................
0040AA10 00 00 00 00 00 00 00 00 00 00 00 00 00 00 00 00 ................
0040AA20 00 00 00 00 00 00 00 00 00 00 00 00 00 00 00 00 ................
0040AA30 00 00 00 00 00 00 00 00 00 00 00 00 00 00 00 00 ................
0040AA40 00 00 00 00 00 00 00 00 00 00 00 00 00 00 00 00 ................
0040AA50 00 00 00 00 00 00 00 00 00 00 00 00 00 00 00 00 ................
0040AA60 00 00 00 00 00 00 00 00 00 00 00 00 00 00 00 00 ................
0040AA70 00 00 00 00 00 00 00 00 00 00 00 00 00 00 00 00 ................
0040AA80 00 00 00 00 00 00 00 00 00 00 00 00 00 00 00 00 ................
0040AA90 00 00 00 00 00 00 00 00 00 00 00 00 00 00 00 00 ................
0040AAA0 00 00 00 00 00 00 00 00 00 00 00 00 00 00 00 00 ................
0040AAB0 00 00 00 00 00 00 00 00 00 00 00 00 00 00 00 00 ................
0040AAC0 00 00 00 00 00 00 00 00 00 00 00 00 00 00 00 00 ................
0040AAD0 00 00 00 00 00 00 00 00 00 00 00 00 00 00 00 00 ................
0040AAE0 00 00 00 00 00 00 00 00 00 00 00 00 00 00 00 00 ................
0040AAF0 00 00 00 00 00 00 00 00 00 00 00 00 00 00 00 00 ................
0040AB00 00 00 00 00 00 00 00 00 00 00 00 00 00 00 00 00 ................
0040AB10 00 00 00 00 00 00 00 00 00 00 00 00 00 00 00 00 ................
0040AB20 00 00 00 00 00 00 00 00 00 00 00 00 00 00 00 00 ................
0040AB30 00 00 00 00 00 00 00 00 00 00 00 00 00 00 00 00 ................
0040AB40 00 00 00 00 00 00 00 00 00 00 00 00 00 00 00 00 ................
0040AB50 00 00 00 00 00 00 00 00 00 00 00 00 00 00 00 00 ................
0040AB60 00 00 00 00 00 00 00 00 00 00 00 00 00 00 00 00 ................
0040AB70 00 00 00 00 00 00 00 00 00 00 00 00 00 00 00 00 ................
0040AB80 00 00 00 00 00 00 00 00 00 00 00 00 00 00 00 00 ................
0040AB90 00 00 00 00 00 00 00 00 00 00 00 00 00 00 00 00 ................
0040ABA0 00 00 00 00 00 00 00 00 00 00 00 00 00 00 00 00 ................
0040ABB0 00 00 00 00 00 00 00 00 00 00 00 00 00 00 00 00 ................
0040ABC0 00 00 00 00 00 00 00 00 00 00 00 00 00 00 00 00 ................
0040ABD0 00 00 00 00 00 00 00 00 00 00 00 00 00 00 00 00 ................
0040ABE0 00 00 00 00 00 00 00 00 00 00 00 00 00 00 00 00 ................
0040ABF0 00 00 00 00 00 00 00 00 00 00 00 00 00 00 00 00 ................
0040AC00 00 00 00 00 00 00 00 00 00 00 00 00 00 00 00 00 ................
0040AC10 00 00 00 00 00 00 00 00 00 00 00 00 00 00 00 00 ................
0040AC20 00 00 00 00 00 00 00 00 00 00 00 00 00 00 00 00 ................
0040AC30 00 00 00 00 00 00 00 00 00 00 00 00 00 00 00 00 ................
0040AC40 00 00 00 00 00 00 00 00 00 00 00 00 00 00 00 00 ................
0040AC50 00 00 00 00 00 00 00 00 00 00 00 00 00 00 00 00 ................
0040AC60 00 00 00 00 00 00 00 00 00 00 00 00 00 00 00 00 ................
0040AC70 00 00 00 00 00 00 00 00 00 00 00 00 00 00 00 00 ................
0040AC80 00 00 00 00 00 00 00 00 00 00 00 00 00 00 00 00 ................
0040AC90 00 00 00 00 00 00 00 00 00 00 00 00 00 00 00 00 ................
0040ACA0 00 00 00 00 00 00 00 00 00 00 00 00 00 00 00 00 ................
0040ACB0 00 00 00 00 00 00 00 00 00 00 00 00 00 00 00 00 ................
0040ACC0 00 00 00 00 00 00 00 00 00 00 00 00 00 00 00 00 ................
0040ACD0 00 00 00 00 00 00 00 00 00 00 00 00 00 00 00 00 ................
0040ACE0 00 00 00 00 00 00 00 00 00 00 00 00 00 00 00 00 ................
0040ACF0 00 00 00 00 00 00 00 00 00 00 00 00 00 00 00 00 ................
0040AD00 00 00 00 00 00 00 00 00 00 00 00 00 00 00 00 00 ................
0040AD10 00 00 00 00 00 00 00 00 00 00 00 00 00 00 00 00 ................
0040AD20 00 00 00 00 00 00 00 00 00 00 00 00 00 00 00 00 ................
0040AD30 00 00 00 00 00 00 00 00 00 00 00 00 00 00 00 00 ................
0040AD40 00 00 00 00 00 00 00 00 00 00 00 00 00 00 00 00 ................
0040AD50 00 00 00 00 00 00 00 00 00 00 00 00 00 00 00 00 ................
0040AD60 00 00 00 00 00 00 00 00 00 00 00 00 00 00 00 00 ................
0040AD70 00 00 00 00 00 00 00 00 00 00 00 00 00 00 00 00 ................
0040AD80 00 00 00 00 00 00 00 00 00 00 00 00 00 00 00 00 ................
0040AD90 00 00 00 00 00 00 00 00 00 00 00 00 00 00 00 00 ................
0040ADA0 00 00 00 00 00 00 00 00 00 00 00 00 00 00 00 00 ................
0040ADB0 00 00 00 00 00 00 00 00 00 00 00 00 00 00 00 00 ................
0040ADC0 00 00 00 00 00 00 00 00 00 00 00 00 00 00 00 00 ................
0040ADD0 00 00 00 00 00 00 00 00 00 00 00 00 00 00 00 00 ................
0040ADE0 00 00 00 00 00 00 00 00 00 00 00 00 00 00 00 00 ................
0040ADF0 00 00 00 00 00 00 00 00 00 00 00 00 00 00 00 00 ................
0040AE00 00 00 00 00 00 00 00 00 00 00 00 00 00 00 00 00 ................
0040AE10 00 00 00 00 00 00 00 00 00 00 00 00 00 00 00 00 ................
0040AE20 00 00 00 00 00 00 00 00 00 00 00 00 00 00 00 00 ................
0040AE30 00 00 00 00 00 00 00 00 00 00 00 00 00 00 00 00 ................
0040AE40 00 00 00 00 00 00 00 00 00 00 00 00 00 00 00 00 ................
0040AE50 00 00 00 00 00 00 00 00 00 00 00 00 00 00 00 00 ................
0040AE60 00 00 00 00 00 00 00 00 00 00 00 00 00 00 00 00 ................
0040AE70 00 00 00 00 00 00 00 00 00 00 00 00 00 00 00 00 ................
0040AE80 00 00 00 00 00 00 00 00 00 00 00 00 00 00 00 00 ................
0040AE90 00 00 00 00 00 00 00 00 00 00 00 00 00 00 00 00 ................
0040AEA0 00 00 00 00 00 00 00 00 00 00 00 00 00 00 00 00 ................
0040AEB0 00 00 00 00 00 00 00 00 00 00 00 00 00 00 00 00 ................
0040AEC0 00 00 00 00 00 00 00 00 00 00 00 00 00 00 00 00 ................
0040AED0 00 00 00 00 00 00 00 00 00 00 00 00 00 00 00 00 ................
0040AEE0 00 00 00 00 00 00 00 00 00 00 00 00 00 00 00 00 ................
0040AEF0 00 00 00 00 00 00 00 00 00 00 00 00 00 00 00 00 ................
0040AF00 00 00 00 00 00 00 00 00 00 00 00 00 00 00 00 00 ................
0040AF10 00 00 00 00 00 00 00 00 00 00 00 00 00 00 00 00 ................
0040AF20 00 00 00 00 00 00 00 00 00 00 00 00 00 00 00 00 ................
0040AF30 00 00 00 00 00 00 00 00 00 00 00 00 00 00 00 00 ................
0040AF40 00 00 00 00 00 00 00 00 00 00 00 00 00 00 00 00 ................
0040AF50 00 00 00 00 00 00 00 00 00 00 00 00 00 00 00 00 ................
0040AF60 00 00 00 00 00 00 00 00 00 00 00 00 00 00 00 00 ................
0040AF70 00 00 00 00 00 00 00 00 00 00 00 00 00 00 00 00 ................
0040AF80 00 00 00 00 00 00 00 00 00 00 00 00 00 00 00 00 ................
0040AF90 00 00 00 00 00 00 00 00 00 00 00 00 00 00 00 00 ................
0040AFA0 00 00 00 00 00 00 00 00 00 00 00 00 00 00 00 00 ................
0040AFB0 00 00 00 00 00 00 00 00 00 00 00 00 00 00 00 00 ................
0040AFC0 00 00 00 00 00 00 00 00 00 00 00 00 00 00 00 00 ................
0040AFD0 00 00 00 00 00 00 00 00 00 00 00 00 00 00 00 00 ................
0040AFE0 00 00 00 00 00 00 00 00 00 00 00 00 00 00 00 00 ................
0040AFF0 00 00 00 00 00 00 00 00 00 00 00 00 00 00 00 00 ................
0040B000 00 00 00 00 00 00 00 00 00 00 00 00 00 00 00 00 ................
0040B010 00 00 00 00 00 00 00 00 00 00 00 00 00 00 00 00 ................
0040B020 00 00 00 00 00 00 00 00 00 00 00 00 00 00 00 00 ................
0040B030 00 00 00 00 00 00 00 00 00 00 00 00 00 00 00 00 ................
0040B040 00 00 00 00 00 00 00 00 00 00 00 00 00 00 00 00 ................
0040B050 00 00 00 00 00 00 00 00 00 00 00 00 00 00 00 00 ................
0040B060 00 00 00 00 00 00 00 00 00 00 00 00 00 00 00 00 ................
0040B070 00 00 00 00 00 00 00 00 00 00 00 00 00 00 00 00 ................
0040B080 00 00 00 00 00 00 00 00 00 00 00 00 00 00 00 00 ................
0040B090 00 00 00 00 00 00 00 00 00 00 00 00 00 00 00 00 ................
0040B0A0 00 00 00 00 00 00 00 00 00 00 00 00 00 00 00 00 ................
0040B0B0 00 00 00 00 00 00 00 00 00 00 00 00 00 00 00 00 ................
0040B0C0 00 00 00 00 00 00 00 00 00 00 00 00 00 00 00 00 ................
0040B0D0 00 00 00 00 00 00 00 00 00 00 00 00 00 00 00 00 ................
0040B0E0 00 00 00 00 00 00 00 00 00 00 00 00 00 00 00 00 ................
0040B0F0 00 00 00 00 00 00 00 00 00 00 00 00 00 00 00 00 ................
0040B100 00 00 00 00 00 00 00 00 00 00 00 00 00 00 00 00 ................
0040B110 00 00 00 00 00 00 00 00 00 00 00 00 00 00 00 00 ................
0040B120 00 00 00 00 00 00 00 00 00 00 00 00 00 00 00 00 ................
0040B130 00 00 00 00 00 00 00 00 00 00 00 00 00 00 00 00 ................
0040B140 00 00 00 00 00 00 00 00 00 00 00 00 00 00 00 00 ................
0040B150 00 00 00 00 00 00 00 00 00 00 00 00 00 00 00 00 ................
0040B160 00 00 00 00 00 00 00 00 00 00 00 00 00 00 00 00 ................
0040B170 00 00 00 00 00 00 00 00 00 00 00 00 00 00 00 00 ................
0040B180 00 00 00 00 00 00 00 00 00 00 00 00 00 00 00 00 ................
0040B190 00 00 00 00 00 00 00 00 00 00 00 00 00 00 00 00 ................
0040B1A0 00 00 00 00 00 00 00 00 00 00 00 00 00 00 00 00 ................
0040B1B0 00 00 00 00 00 00 00 00 00 00 00 00 00 00 00 00 ................
0040B1C0 00 00 00 00 00 00 00 00 00 00 00 00 00 00 00 00 ................
0040B1D0 00 00 00 00 00 00 00 00 00 00 00 00 00 00 00 00 ................
0040B1E0 00 00 00 00 00 00 00 00 00 00 00 00 00 00 00 00 ................
0040B1F0 00 00 00 00 00 00 00 00 00 00 00 00 00 00 00 00 ................
0040B200 00 00 00 00 00 00 00 00 00 00 00 00 00 00 00 00 ................
0040B210 00 00 00 00 00 00 00 00 00 00 00 00 00 00 00 00 ................
0040B220 00 00 00 00 00 00 00 00 00 00 00 00 00 00 00 00 ................
0040B230 00 00 00 00 00 00 00 00 00 00 00 00 00 00 00 00 ................
0040B240 00 00 00 00 00 00 00 00 00 00 00 00 00 00 00 00 ................
0040B250 00 00 00 00 00 00 00 00 00 00 00 00 00 00 00 00 ................
0040B260 00 00 00 00 00 00 00 00 00 00 00 00 00 00 00 00 ................
0040B270 00 00 00 00 00 00 00 00 00 00 00 00 00 00 00 00 ................
0040B280 00 00 00 00 00 00 00 00 00 00 00 00 00 00 00 00 ................
0040B290 00 00 00 00 00 00 00 00 00 00 00 00 00 00 00 00 ................
0040B2A0 00 00 00 00 00 00 00 00 00 00 00 00 00 00 00 00 ................
0040B2B0 00 00 00 00 00 00 00 00 00 00 00 00 00 00 00 00 ................
0040B2C0 00 00 00 00 00 00 00 00 00 00 00 00 00 00 00 00 ................
0040B2D0 00 00 00 00 00 00 00 00 00 00 00 00 00 00 00 00 ................
0040B2E0 00 00 00 00 00 00 00 00 00 00 00 00 00 00 00 00 ................
0040B2F0 00 00 00 00 00 00 00 00 00 00 00 00 00 00 00 00 ................
0040B300 00 00 00 00 00 00 00 00 00 00 00 00 00 00 00 00 ................
0040B310 00 00 00 00 00 00 00 00 00 00 00 00 00 00 00 00 ................
0040B320 00 00 00 00 00 00 00 00 00 00 00 00 00 00 00 00 ................
0040B330 00 00 00 00 00 00 00 00 00 00 00 00 00 00 00 00 ................
0040B340 00 00 00 00 00 00 00 00 00 00 00 00 00 00 00 00 ................
0040B350 00 00 00 00 00 00 00 00 00 00 00 00 00 00 00 00 ................
0040B360 00 00 00 00 00 00 00 00 00 00 00 00 00 00 00 00 ................
0040B370 00 00 00 00 00 00 00 00 00 00 00 00 00 00 00 00 ................
0040B380 00 00 00 00 00 00 00 00 00 00 00 00 00 00 00 00 ................
0040B390 00 00 00 00 00 00 00 00 00 00 00 00 00 00 00 00 ................
0040B3A0 00 00 00 00 00 00 00 00 00 00 00 00 00 00 00 00 ................
0040B3B0 00 00 00 00 00 00 00 00 00 00 00 00 00 00 00 00 ................
0040B3C0 00 00 00 00 00 00 00 00 00 00 00 00 00 00 00 00 ................
0040B3D0 00 00 00 00 00 00 00 00 00 00 00 00 00 00 00 00 ................
0040B3E0 00 00 00 00 00 00 00 00 00 00 00 00 00 00 00 00 ................
0040B3F0 00 00 00 00 00 00 00 00 00 00 00 00 00 00 00 00 ................
0040B400 00 00 00 00 00 00 00 00 00 00 00 00 00 00 00 00 ................
0040B410 00 00 00 00 00 00 00 00 00 00 00 00 00 00 00 00 ................
0040B420 00 00 00 00 00 00 00 00 00 00 00 00 00 00 00 00 ................
0040B430 00 00 00 00 00 00 00 00 00 00 00 00 00 00 00 00 ................
0040B440 00 00 00 00 00 00 00 00 00 00 00 00 00 00 00 00 ................
0040B450 00 00 00 00 00 00 00 00 00 00 00 00 00 00 00 00 ................
0040B460 00 00 00 00 00 00 00 00 00 00 00 00 00 00 00 00 ................
0040B470 00 00 00 00 00 00 00 00 00 00 00 00 00 00 00 00 ................
0040B480 00 00 00 00 00 00 00 00 00 00 00 00 00 00 00 00 ................
0040B490 00 00 00 00 00 00 00 00 00 00 00 00 00 00 00 00 ................
0040B4A0 00 00 00 00 00 00 00 00 00 00 00 00 00 00 00 00 ................
0040B4B0 00 00 00 00 00 00 00 00 00 00 00 00 00 00 00 00 ................
0040B4C0 00 00 00 00 00 00 00 00 00 00 00 00 00 00 00 00 ................
0040B4D0 00 00 00 00 00 00 00 00 00 00 00 00 00 00 00 00 ................
0040B4E0 00 00 00 00 00 00 00 00 00 00 00 00 00 00 00 00 ................
0040B4F0 00 00 00 00 00 00 00 00 00 00 00 00 00 00 00 00 ................
0040B500 00 00 00 00 00 00 00 00 00 00 00 00 00 00 00 00 ................
0040B510 00 00 00 00 00 00 00 00 00 00 00 00 00 00 00 00 ................
0040B520 00 00 00 00 00 00 00 00 00 00 00 00 00 00 00 00 ................
0040B530 00 00 00 00 00 00 00 00 00 00 00 00 00 00 00 00 ................
0040B540 00 00 00 00 00 00 00 00 00 00 00 00 00 00 00 00 ................
0040B550 00 00 00 00 00 00 00 00 00 00 00 00 00 00 00 00 ................
0040B560 00 00 00 00 00 00 00 00 00 00 00 00 00 00 00 00 ................
0040B570 00 00 00 00 00 00 00 00 00 00 00 00 00 00 00 00 ................
0040B580 00 00 00 00 00 00 00 00 00 00 00 00 00 00 00 00 ................
0040B590 00 00 00 00 00 00 00 00 00 00 00 00 00 00 00 00 ................
0040B5A0 00 00 00 00 00 00 00 00 00 00 00 00 00 00 00 00 ................
0040B5B0 00 00 00 00 00 00 00 00 00 00 00 00 00 00 00 00 ................
0040B5C0 00 00 00 00 00 00 00 00 00 00 00 00 00 00 00 00 ................
0040B5D0 00 00 00 00 00 00 00 00 00 00 00 00 00 00 00 00 ................
0040B5E0 00 00 00 00 00 00 00 00 00 00 00 00 00 00 00 00 ................
0040B5F0 00 00 00 00 00 00 00 00 00 00 00 00 00 00 00 00 ................
0040B600 00 00 00 00 00 00 00 00 00 00 00 00 00 00 00 00 ................
0040B610 00 00 00 00 00 00 00 00 00 00 00 00 00 00 00 00 ................
0040B620 00 00 00 00 00 00 00 00 00 00 00 00 00 00 00 00 ................
0040B630 00 00 00 00 00 00 00 00 00 00 00 00 00 00 00 00 ................
0040B640 00 00 00 00 00 00 00 00 00 00 00 00 00 00 00 00 ................
0040B650 00 00 00 00 00 00 00 00 00 00 00 00 00 00 00 00 ................
0040B660 00 00 00 00 00 00 00 00 00 00 00 00 00 00 00 00 ................
0040B670 00 00 00 00 00 00 00 00 00 00 00 00 00 00 00 00 ................
0040B680 00 00 00 00 00 00 00 00 00 00 00 00 00 00 00 00 ................
0040B690 00 00 00 00 00 00 00 00 00 00 00 00 00 00 00 00 ................
0040B6A0 00 00 00 00 00 00 00 00 00 00 00 00 00 00 00 00 ................
0040B6B0 00 00 00 00 00 00 00 00 00 00 00 00 00 00 00 00 ................
0040B6C0 00 00 00 00 00 00 00 00 00 00 00 00 00 00 00 00 ................
0040B6D0 00 00 00 00 00 00 00 00 00 00 00 00 00 00 00 00 ................
0040B6E0 00 00 00 00 00 00 00 00 00 00 00 00 00 00 00 00 ................
0040B6F0 00 00 00 00 00 00 00 00 00 00 00 00 00 00 00 00 ................
0040B700 00 00 00 00 00 00 00 00 00 00 00 00 00 00 00 00 ................
0040B710 00 00 00 00 00 00 00 00 00 00 00 00 00 00 00 00 ................
0040B720 00 00 00 00 00 00 00 00 00 00 00 00 00 00 00 00 ................
0040B730 00 00 00 00 00 00 00 00 00 00 00 00 00 00 00 00 ................
0040B740 00 00 00 00 00 00 00 00 00 00 00 00 00 00 00 00 ................
0040B750 00 00 00 00 00 00 00 00 00 00 00 00 00 00 00 00 ................
0040B760 00 00 00 00 00 00 00 00 00 00 00 00 00 00 00 00 ................
0040B770 00 00 00 00 00 00 00 00 00 00 00 00 00 00 00 00 ................
0040B780 00 00 00 00 00 00 00 00 00 00 00 00 00 00 00 00 ................
0040B790 00 00 00 00 00 00 00 00 00 00 00 00 00 00 00 00 ................
0040B7A0 00 00 00 00 00 00 00 00 00 00 00 00 00 00 00 00 ................
0040B7B0 00 00 00 00 00 00 00 00 00 00 00 00 00 00 00 00 ................
0040B7C0 00 00 00 00 00 00 00 00 00 00 00 00 00 00 00 00 ................
0040B7D0 00 00 00 00 00 00 00 00 00 00 00 00 00 00 00 00 ................
0040B7E0 00 00 00 00 00 00 00 00 00 00 00 00 00 00 00 00 ................
0040B7F0 00 00 00 00 00 00 00 00 00 00 00 00 00 00 00 00 ................
0040B800 00 00 00 00 00 00 00 00 00 00 00 00 00 00 00 00 ................
0040B810 00 00 00 00 00 00 00 00 00 00 00 00 00 00 00 00 ................
0040B820 00 00 00 00 00 00 00 00 00 00 00 00 00 00 00 00 ................
0040B830 00 00 00 00 00 00 00 00 00 00 00 00 00 00 00 00 ................
0040B840 00 00 00 00 00 00 00 00 00 00 00 00 00 00 00 00 ................
0040B850 00 00 00 00 00 00 00 00 00 00 00 00 00 00 00 00 ................
0040B860 00 00 00 00 00 00 00 00 00 00 00 00 00 00 00 00 ................
0040B870 00 00 00 00 00 00 00 00 00 00 00 00 00 00 00 00 ................
0040B880 00 00 00 00 00 00 00 00 00 00 00 00 00 00 00 00 ................
0040B890 00 00 00 00 00 00 00 00 00 00 00 00 00 00 00 00 ................
0040B8A0 00 00 00 00 00 00 00 00 00 00 00 00 00 00 00 00 ................
0040B8B0 00 00 00 00 00 00 00 00 00 00 00 00 00 00 00 00 ................
0040B8C0 00 00 00 00 00 00 00 00 00 00 00 00 00 00 00 00 ................
0040B8D0 00 00 00 00 00 00 00 00 00 00 00 00 00 00 00 00 ................
0040B8E0 00 00 00 00 00 00 00 00 00 00 00 00 00 00 00 00 ................
0040B8F0 00 00 00 00 00 00 00 00 00 00 00 00 00 00 00 00 ................
0040B900 00 00 00 00 00 00 00 00 00 00 00 00 00 00 00 00 ................
0040B910 00 00 00 00 00 00 00 00 00 00 00 00 00 00 00 00 ................
0040B920 00 00 00 00 00 00 00 00 00 00 00 00 00 00 00 00 ................
0040B930 00 00 00 00 00 00 00 00 00 00 00 00 00 00 00 00 ................
0040B940 00 00 00 00 00 00 00 00 00 00 00 00 00 00 00 00 ................
0040B950 00 00 00 00 00 00 00 00 00 00 00 00 00 00 00 00 ................
0040B960 00 00 00 00 00 00 00 00 00 00 00 00 00 00 00 00 ................
0040B970 00 00 00 00 00 00 00 00 00 00 00 00 00 00 00 00 ................
0040B980 00 00 00 00 00 00 00 00 00 00 00 00 00 00 00 00 ................
0040B990 00 00 00 00 00 00 00 00 00 00 00 00 00 00 00 00 ................
0040B9A0 00 00 00 00 00 00 00 00 00 00 00 00 00 00 00 00 ................
0040B9B0 00 00 00 00 00 00 00 00 00 00 00 00 00 00 00 00 ................
0040B9C0 00 00 00 00 00 00 00 00 00 00 00 00 00 00 00 00 ................
0040B9D0 00 00 00 00 00 00 00 00 00 00 00 00 00 00 00 00 ................
0040B9E0 00 00 00 00 00 00 00 00 00 00 00 00 00 00 00 00 ................
0040B9F0 00 00 00 00 00 00 00 00 00 00 00 00 00 00 00 00 ................
0040BA00 00 00 00 00 00 00 00 00 00 00 00 00 00 00 00 00 ................
0040BA10 00 00 00 00 00 00 00 00 00 00 00 00 00 00 00 00 ................
0040BA20 00 00 00 00 00 00 00 00 00 00 00 00 00 00 00 00 ................
0040BA30 00 00 00 00 00 00 00 00 00 00 00 00 00 00 00 00 ................
0040BA40 00 00 00 00 00 00 00 00 00 00 00 00 00 00 00 00 ................
0040BA50 00 00 00 00 00 00 00 00 00 00 00 00 00 00 00 00 ................
0040BA60 00 00 00 00 00 00 00 00 00 00 00 00 00 00 00 00 ................
0040BA70 00 00 00 00 00 00 00 00 00 00 00 00 00 00 00 00 ................
0040BA80 00 00 00 00 00 00 00 00 00 00 00 00 00 00 00 00 ................
0040BA90 00 00 00 00 00 00 00 00 00 00 00 00 00 00 00 00 ................
0040BAA0 00 00 00 00 00 00 00 00 00 00 00 00 00 00 00 00 ................
0040BAB0 00 00 00 00 00 00 00 00 00 00 00 00 00 00 00 00 ................
0040BAC0 00 00 00 00 00 00 00 00 00 00 00 00 00 00 00 00 ................
0040BAD0 00 00 00 00 00 00 00 00 00 00 00 00 00 00 00 00 ................
0040BAE0 00 00 00 00 00 00 00 00 00 00 00 00 00 00 00 00 ................
0040BAF0 00 00 00 00 00 00 00 00 00 00 00 00 00 00 00 00 ................
0040BB00 00 00 00 00 00 00 00 00 00 00 00 00 00 00 00 00 ................
0040BB10 00 00 00 00 00 00 00 00 00 00 00 00 00 00 00 00 ................
0040BB20 00 00 00 00 00 00 00 00 00 00 00 00 00 00 00 00 ................
0040BB30 00 00 00 00 00 00 00 00 00 00 00 00 00 00 00 00 ................
0040BB40 00 00 00 00 00 00 00 00 00 00 00 00 00 00 00 00 ................
0040BB50 00 00 00 00 00 00 00 00 00 00 00 00 00 00 00 00 ................
0040BB60 00 00 00 00 00 00 00 00 00 00 00 00 00 00 00 00 ................
0040BB70 00 00 00 00 00 00 00 00 00 00 00 00 00 00 00 00 ................
0040BB80 00 00 00 00 00 00 00 00 00 00 00 00 00 00 00 00 ................
0040BB90 00 00 00 00 00 00 00 00 00 00 00 00 00 00 00 00 ................
0040BBA0 00 00 00 00 00 00 00 00 00 00 00 00 00 00 00 00 ................
0040BBB0 00 00 00 00 00 00 00 00 00 00 00 00 00 00 00 00 ................
0040BBC0 00 00 00 00 00 00 00 00 00 00 00 00 00 00 00 00 ................
0040BBD0 00 00 00 00 00 00 00 00 00 00 00 00 00 00 00 00 ................
0040BBE0 00 00 00 00 00 00 00 00 00 00 00 00 00 00 00 00 ................
0040BBF0 00 00 00 00 00 00 00 00 00 00 00 00 00 00 00 00 ................
0040BC00 00 00 00 00 00 00 00 00 00 00 00 00 00 00 00 00 ................
0040BC10 00 00 00 00 00 00 00 00 00 00 00 00 00 00 00 00 ................
0040BC20 00 00 00 00 00 00 00 00 00 00 00 00 00 00 00 00 ................
0040BC30 00 00 00 00 00 00 00 00 00 00 00 00 00 00 00 00 ................
0040BC40 00 00 00 00 00 00 00 00 00 00 00 00 00 00 00 00 ................
0040BC50 00 00 00 00 00 00 00 00 00 00 00 00 00 00 00 00 ................
0040BC60 00 00 00 00 00 00 00 00 00 00 00 00 00 00 00 00 ................
0040BC70 00 00 00 00 00 00 00 00 00 00 00 00 00 00 00 00 ................
0040BC80 00 00 00 00 00 00 00 00 00 00 00 00 00 00 00 00 ................
0040BC90 00 00 00 00 00 00 00 00 00 00 00 00 00 00 00 00 ................
0040BCA0 00 00 00 00 00 00 00 00 00 00 00 00 00 00 00 00 ................
0040BCB0 00 00 00 00 00 00 00 00 00 00 00 00 00 00 00 00 ................
0040BCC0 00 00 00 00 00 00 00 00 00 00 00 00 00 00 00 00 ................
0040BCD0 00 00 00 00 00 00 00 00 00 00 00 00 00 00 00 00 ................
0040BCE0 00 00 00 00 00 00 00 00 00 00 00 00 00 00 00 00 ................
0040BCF0 00 00 00 00 00 00 00 00 00 00 00 00 00 00 00 00 ................
0040BD00 00 00 00 00 00 00 00 00 00 00 00 00 00 00 00 00 ................
0040BD10 00 00 00 00 00 00 00 00 00 00 00 00 00 00 00 00 ................
0040BD20 00 00 00 00 00 00 00 00 00 00 00 00 00 00 00 00 ................
0040BD30 00 00 00 00 00 00 00 00 00 00 00 00 00 00 00 00 ................
0040BD40 00 00 00 00 00 00 00 00 00 00 00 00 00 00 00 00 ................
0040BD50 00 00 00 00 00 00 00 00 00 00 00 00 00 00 00 00 ................
0040BD60 00 00 00 00 00 00 00 00 00 00 00 00 00 00 00 00 ................
0040BD70 00 00 00 00 00 00 00 00 00 00 00 00 00 00 00 00 ................
0040BD80 00 00 00 00 00 00 00 00 00 00 00 00 00 00 00 00 ................
0040BD90 00 00 00 00 00 00 00 00 00 00 00 00 00 00 00 00 ................
0040BDA0 00 00 00 00 00 00 00 00 00 00 00 00 00 00 00 00 ................
0040BDB0 00 00 00 00 00 00 00 00 00 00 00 00 00 00 00 00 ................
0040BDC0 00 00 00 00 00 00 00 00 00 00 00 00 00 00 00 00 ................
0040BDD0 00 00 00 00 00 00 00 00 00 00 00 00 00 00 00 00 ................
0040BDE0 00 00 00 00 00 00 00 00 00 00 00 00 00 00 00 00 ................
0040BDF0 00 00 00 00 00 00 00 00 00 00 00 00 00 00 00 00 ................
0040BE00 00 00 00 00 00 00 00 00 00 00 00 00 00 00 00 00 ................
0040BE10 00 00 00 00 00 00 00 00 00 00 00 00 00 00 00 00 ................
0040BE20 00 00 00 00 00 00 00 00 00 00 00 00 00 00 00 00 ................
0040BE30 00 00 00 00 00 00 00 00 00 00 00 00 00 00 00 00 ................
0040BE40 00 00 00 00 00 00 00 00 00 00 00 00 00 00 00 00 ................
0040BE50 00 00 00 00 00 00 00 00 00 00 00 00 00 00 00 00 ................
0040BE60 00 00 00 00 00 00 00 00 00 00 00 00 00 00 00 00 ................
0040BE70 00 00 00 00 00 00 00 00 00 00 00 00 00 00 00 00 ................
0040BE80 00 00 00 00 00 00 00 00 00 00 00 00 00 00 00 00 ................
0040BE90 00 00 00 00 00 00 00 00 00 00 00 00 00 00 00 00 ................
0040BEA0 00 00 00 00 00 00 00 00 00 00 00 00 00 00 00 00 ................
0040BEB0 00 00 00 00 00 00 00 00 00 00 00 00 00 00 00 00 ................
0040BEC0 00 00 00 00 00 00 00 00 00 00 00 00 00 00 00 00 ................
0040BED0 00 00 00 00 00 00 00 00 00 00 00 00 00 00 00 00 ................
0040BEE0 00 00 00 00 00 00 00 00 00 00 00 00 00 00 00 00 ................
0040BEF0 00 00 00 00 00 00 00 00 00 00 00 00 00 00 00 00 ................
0040BF00 00 00 00 00 00 00 00 00 00 00 00 00 00 00 00 00 ................
0040BF10 00 00 00 00 00 00 00 00 00 00 00 00 00 00 00 00 ................
0040BF20 00 00 00 00 00 00 00 00 00 00 00 00 00 00 00 00 ................
0040BF30 00 00 00 00 00 00 00 00 00 00 00 00 00 00 00 00 ................
0040BF40 00 00 00 00 00 00 00 00 00 00 00 00 00 00 00 00 ................
0040BF50 00 00 00 00 00 00 00 00 00 00 00 00 00 00 00 00 ................
0040BF60 00 00 00 00 00 00 00 00 00 00 00 00 00 00 00 00 ................
0040BF70 00 00 00 00 00 00 00 00 00 00 00 00 00 00 00 00 ................
0040BF80 00 00 00 00 00 00 00 00 00 00 00 00 00 00 00 00 ................
0040BF90 00 00 00 00 00 00 00 00 00 00 00 00 00 00 00 00 ................
0040BFA0 00 00 00 00 00 00 00 00 00 00 00 00 00 00 00 00 ................
0040BFB0 00 00 00 00 00 00 00 00 00 00 00 00 00 00 00 00 ................
0040BFC0 00 00 00 00 00 00 00 00 00 00 00 00 00 00 00 00 ................
0040BFD0 00 00 00 00 00 00 00 00 00 00 00 00 00 00 00 00 ................
0040BFE0 00 00 00 00 00 00 00 00 00 00 00 00 00 00 00 00 ................
0040BFF0 00 00 00 00 00 00 00 00 00 00 00 00 00 00 00 00 ................
0040C000 00 00 00 00 00 00 00 00 00 00 00 00 00 00 00 00 ................
0040C010 00 00 00 00 00 00 00 00 00 00 00 00 00 00 00 00 ................
0040C020 00 00 00 00 00 00 00 00 00 00 00 00 00 00 00 00 ................
0040C030 00 00 00 00 00 00 00 00 00 00 00 00 00 00 00 00 ................
0040C040 00 00 00 00 00 00 00 00 00 00 00 00 00 00 00 00 ................
0040C050 00 00 00 00 00 00 00 00 00 00 00 00 00 00 00 00 ................
0040C060 00 00 00 00 00 00 00 00 00 00 00 00 00 00 00 00 ................
0040C070 00 00 00 00 00 00 00 00 00 00 00 00 00 00 00 00 ................
0040C080 00 00 00 00 00 00 00 00 00 00 00 00 00 00 00 00 ................
0040C090 00 00 00 00 00 00 00 00 00 00 00 00 00 00 00 00 ................
0040C0A0 00 00 00 00 00 00 00 00 00 00 00 00 00 00 00 00 ................
0040C0B0 00 00 00 00 00 00 00 00 00 00 00 00 00 00 00 00 ................
0040C0C0 00 00 00 00 00 00 00 00 00 00 00 00 00 00 00 00 ................
0040C0D0 00 00 00 00 00 00 00 00 00 00 00 00 00 00 00 00 ................
0040C0E0 00 00 00 00 00 00 00 00 00 00 00 00 00 00 00 00 ................
0040C0F0 00 00 00 00 00 00 00 00 00 00 00 00 00 00 00 00 ................
0040C100 00 00 00 00 00 00 00 00 00 00 00 00 00 00 00 00 ................
0040C110 00 00 00 00 00 00 00 00 00 00 00 00 00 00 00 00 ................
0040C120 00 00 00 00 00 00 00 00 00 00 00 00 00 00 00 00 ................
0040C130 00 00 00 00 00 00 00 00 00 00 00 00 00 00 00 00 ................
0040C140 00 00 00 00 00 00 00 00 00 00 00 00 00 00 00 00 ................
0040C150 00 00 00 00 00 00 00 00 00 00 00 00 00 00 00 00 ................
0040C160 00 00 00 00 00 00 00 00 00 00 00 00 00 00 00 00 ................
0040C170 00 00 00 00 00 00 00 00 00 00 00 00 00 00 00 00 ................
0040C180 00 00 00 00 00 00 00 00 00 00 00 00 00 00 00 00 ................
0040C190 00 00 00 00 00 00 00 00 00 00 00 00 00 00 00 00 ................
0040C1A0 00 00 00 00 00 00 00 00 00 00 00 00 00 00 00 00 ................
0040C1B0 00 00 00 00 00 00 00 00 00 00 00 00 00 00 00 00 ................
0040C1C0 00 00 00 00 00 00 00 00 00 00 00 00 00 00 00 00 ................
0040C1D0 00 00 00 00 00 00 00 00 00 00 00 00 00 00 00 00 ................
0040C1E0 00 00 00 00 00 00 00 00 00 00 00 00 00 00 00 00 ................
0040C1F0 00 00 00 00 00 00 00 00 00 00 00 00 00 00 00 00 ................
0040C200 00 00 00 00 00 00 00 00 00 00 00 00 00 00 00 00 ................
0040C210 00 00 00 00 00 00 00 00 00 00 00 00 00 00 00 00 ................
0040C220 00 00 00 00 00 00 00 00 00 00 00 00 00 00 00 00 ................
0040C230 00 00 00 00 00 00 00 00 00 00 00 00 00 00 00 00 ................
0040C240 00 00 00 00 00 00 00 00 00 00 00 00 00 00 00 00 ................
0040C250 00 00 00 00 00 00 00 00 00 00 00 00 00 00 00 00 ................
0040C260 00 00 00 00 00 00 00 00 00 00 00 00 00 00 00 00 ................
0040C270 00 00 00 00 00 00 00 00 00 00 00 00 00 00 00 00 ................
0040C280 00 00 00 00 00 00 00 00 00 00 00 00 00 00 00 00 ................
0040C290 00 00 00 00 00 00 00 00 00 00 00 00 00 00 00 00 ................
0040C2A0 00 00 00 00 00 00 00 00 00 00 00 00 00 00 00 00 ................
0040C2B0 00 00 00 00 00 00 00 00 00 00 00 00 00 00 00 00 ................
0040C2C0 00 00 00 00 00 00 00 00 00 00 00 00 00 00 00 00 ................
0040C2D0 00 00 00 00 00 00 00 00 00 00 00 00 00 00 00 00 ................
0040C2E0 00 00 00 00 00 00 00 00 00 00 00 00 00 00 00 00 ................
0040C2F0 00 00 00 00 00 00 00 00 00 00 00 00 00 00 00 00 ................
0040C300 00 00 00 00 00 00 00 00 00 00 00 00 00 00 00 00 ................
0040C310 00 00 00 00 00 00 00 00 00 00 00 00 00 00 00 00 ................
0040C320 00 00 00 00 00 00 00 00 00 00 00 00 00 00 00 00 ................
0040C330 00 00 00 00 00 00 00 00 00 00 00 00 00 00 00 00 ................
0040C340 00 00 00 00 00 00 00 00 00 00 00 00 00 00 00 00 ................
0040C350 00 00 00 00 00 00 00 00 00 00 00 00 00 00 00 00 ................
0040C360 00 00 00 00 00 00 00 00 00 00 00 00 00 00 00 00 ................
0040C370 00 00 00 00 00 00 00 00 00 00 00 00 00 00 00 00 ................
0040C380 00 00 00 00 00 00 00 00 00 00 00 00 00 00 00 00 ................
0040C390 00 00 00 00 00 00 00 00 00 00 00 00 00 00 00 00 ................
0040C3A0 00 00 00 00 00 00 00 00 00 00 00 00 00 00 00 00 ................
0040C3B0 00 00 00 00 00 00 00 00 00 00 00 00 00 00 00 00 ................
0040C3C0 00 00 00 00 00 00 00 00 00 00 00 00 00 00 00 00 ................
0040C3D0 00 00 00 00 00 00 00 00 00 00 00 00 00 00 00 00 ................
0040C3E0 00 00 00 00 00 00 00 00 00 00 00 00 00 00 00 00 ................
0040C3F0 00 00 00 00 00 00 00 00 00 00 00 00 00 00 00 00 ................
0040C400 00 00 00 00 00 00 00 00 00 00 00 00 00 00 00 00 ................
0040C410 00 00 00 00 00 00 00 00 00 00 00 00 00 00 00 00 ................
0040C420 00 00 00 00 00 00 00 00 00 00 00 00 00 00 00 00 ................
0040C430 00 00 00 00 00 00 00 00 00 00 00 00 00 00 00 00 ................
0040C440 00 00 00 00 00 00 00 00 00 00 00 00 00 00 00 00 ................
0040C450 00 00 00 00 00 00 00 00 00 00 00 00 00 00 00 00 ................
0040C460 00 00 00 00 00 00 00 00 00 00 00 00 00 00 00 00 ................
0040C470 00 00 00 00 00 00 00 00 00 00 00 00 00 00 00 00 ................
0040C480 00 00 00 00 00 00 00 00 00 00 00 00 00 00 00 00 ................
0040C490 00 00 00 00 00 00 00 00 00 00 00 00 00 00 00 00 ................
0040C4A0 00 00 00 00 00 00 00 00 00 00 00 00 00 00 00 00 ................
0040C4B0 00 00 00 00 00 00 00 00 00 00 00 00 00 00 00 00 ................
0040C4C0 00 00 00 00 00 00 00 00 00 00 00 00 00 00 00 00 ................
0040C4D0 00 00 00 00 00 00 00 00 00 00 00 00 00 00 00 00 ................
0040C4E0 00 00 00 00 00 00 00 00 00 00 00 00 00 00 00 00 ................
0040C4F0 00 00 00 00 00 00 00 00 00 00 00 00 00 00 00 00 ................
0040C500 00 00 00 00 00 00 00 00 00 00 00 00 00 00 00 00 ................
0040C510 00 00 00 00 00 00 00 00 00 00 00 00 00 00 00 00 ................
0040C520 00 00 00 00 00 00 00 00 00 00 00 00 00 00 00 00 ................
0040C530 00 00 00 00 00 00 00 00 00 00 00 00 00 00 00 00 ................
0040C540 00 00 00 00 00 00 00 00 00 00 00 00 00 00 00 00 ................
0040C550 00 00 00 00 00 00 00 00 00 00 00 00 00 00 00 00 ................
0040C560 00 00 00 00 00 00 00 00 00 00 00 00 00 00 00 00 ................
0040C570 00 00 00 00 00 00 00 00 00 00 00 00 00 00 00 00 ................
0040C580 00 00 00 00 00 00 00 00 00 00 00 00 00 00 00 00 ................
0040C590 00 00 00 00 00 00 00 00 00 00 00 00 00 00 00 00 ................
0040C5A0 00 00 00 00 00 00 00 00 00 00 00 00 00 00 00 00 ................
0040C5B0 00 00 00 00 00 00 00 00 00 00 00 00 00 00 00 00 ................
0040C5C0 00 00 00 00 00 00 00 00 00 00 00 00 00 00 00 00 ................
0040C5D0 00 00 00 00 00 00 00 00 00 00 00 00 00 00 00 00 ................
0040C5E0 00 00 00 00 00 00 00 00 00 00 00 00 00 00 00 00 ................
0040C5F0 00 00 00 00 00 00 00 00 00 00 00 00 00 00 00 00 ................
0040C600 00 00 00 00 00 00 00 00 00 00 00 00 00 00 00 00 ................
0040C610 00 00 00 00 00 00 00 00 00 00 00 00 00 00 00 00 ................
0040C620 00 00 00 00 00 00 00 00 00 00 00 00 00 00 00 00 ................
0040C630 00 00 00 00 00 00 00 00 00 00 00 00 00 00 00 00 ................
0040C640 00 00 00 00 00 00 00 00 00 00 00 00 00 00 00 00 ................
0040C650 00 00 00 00 00 00 00 00 00 00 00 00 00 00 00 00 ................
0040C660 00 00 00 00 00 00 00 00 00 00 00 00 00 00 00 00 ................
0040C670 00 00 00 00 00 00 00 00 00 00 00 00 00 00 00 00 ................
0040C680 00 00 00 00 00 00 00 00 00 00 00 00 00 00 00 00 ................
0040C690 00 00 00 00 00 00 00 00 00 00 00 00 00 00 00 00 ................
0040C6A0 00 00 00 00 00 00 00 00 00 00 00 00 00 00 00 00 ................
0040C6B0 00 00 00 00 00 00 00 00 00 00 00 00 00 00 00 00 ................
0040C6C0 00 00 00 00 00 00 00 00 00 00 00 00 00 00 00 00 ................
0040C6D0 00 00 00 00 00 00 00 00 00 00 00 00 00 00 00 00 ................
0040C6E0 00 00 00 00 00 00 00 00 00 00 00 00 00 00 00 00 ................
0040C6F0 00 00 00 00 00 00 00 00 00 00 00 00 00 00 00 00 ................
0040C700 00 00 00 00 00 00 00 00 00 00 00 00 00 00 00 00 ................
0040C710 00 00 00 00 00 00 00 00 00 00 00 00 00 00 00 00 ................
0040C720 00 00 00 00 00 00 00 00 00 00 00 00 00 00 00 00 ................
0040C730 00 00 00 00 00 00 00 00 00 00 00 00 00 00 00 00 ................
0040C740 00 00 00 00 00 00 00 00 00 00 00 00 00 00 00 00 ................
0040C750 00 00 00 00 00 00 00 00 00 00 00 00 00 00 00 00 ................
0040C760 00 00 00 00 00 00 00 00 00 00 00 00 00 00 00 00 ................
0040C770 00 00 00 00 00 00 00 00 00 00 00 00 00 00 00 00 ................
0040C780 00 00 00 00 00 00 00 00 00 00 00 00 00 00 00 00 ................
0040C790 00 00 00 00 00 00 00 00 00 00 00 00 00 00 00 00 ................
0040C7A0 00 00 00 00 00 00 00 00 00 00 00 00 00 00 00 00 ................
0040C7B0 00 00 00 00 00 00 00 00 00 00 00 00 00 00 00 00 ................
0040C7C0 00 00 00 00 00 00 00 00 00 00 00 00 00 00 00 00 ................
0040C7D0 00 00 00 00 00 00 00 00 00 00 00 00 00 00 00 00 ................
0040C7E0 00 00 00 00 00 00 00 00 00 00 00 00 00 00 00 00 ................
0040C7F0 00 00 00 00 00 00 00 00 00 00 00 00 00 00 00 00 ................
0040C800 00 00 00 00 00 00 00 00 00 00 00 00 00 00 00 00 ................
0040C810 00 00 00 00 00 00 00 00 00 00 00 00 00 00 00 00 ................
0040C820 00 00 00 00 00 00 00 00 00 00 00 00 00 00 00 00 ................
0040C830 00 00 00 00 00 00 00 00 00 00 00 00 00 00 00 00 ................
0040C840 00 00 00 00 00 00 00 00 00 00 00 00 00 00 00 00 ................
0040C850 00 00 00 00 00 00 00 00 00 00 00 00 00 00 00 00 ................
0040C860 00 00 00 00 00 00 00 00 00 00 00 00 00 00 00 00 ................
0040C870 00 00 00 00 00 00 00 00 00 00 00 00 00 00 00 00 ................
0040C880 00 00 00 00 00 00 00 00 00 00 00 00 00 00 00 00 ................
0040C890 00 00 00 00 00 00 00 00 00 00 00 00 00 00 00 00 ................
0040C8A0 00 00 00 00 00 00 00 00 00 00 00 00 00 00 00 00 ................
0040C8B0 00 00 00 00 00 00 00 00 00 00 00 00 00 00 00 00 ................
0040C8C0 00 00 00 00 00 00 00 00 00 00 00 00 00 00 00 00 ................
0040C8D0 00 00 00 00 00 00 00 00 00 00 00 00 00 00 00 00 ................
0040C8E0 00 00 00 00 00 00 00 00 00 00 00 00 00 00 00 00 ................
0040C8F0 00 00 00 00 00 00 00 00 00 00 00 00 00 00 00 00 ................
0040C900 00 00 00 00 00 00 00 00 00 00 00 00 00 00 00 00 ................
0040C910 00 00 00 00 00 00 00 00 00 00 00 00 00 00 00 00 ................
0040C920 00 00 00 00 00 00 00 00 00 00 00 00 00 00 00 00 ................
0040C930 00 00 00 00 00 00 00 00 00 00 00 00 00 00 00 00 ................
0040C940 00 00 00 00 00 00 00 00 00 00 00 00 00 00 00 00 ................
0040C950 00 00 00 00 00 00 00 00 00 00 00 00 00 00 00 00 ................
0040C960 00 00 00 00 00 00 00 00 00 00 00 00 00 00 00 00 ................
0040C970 00 00 00 00 00 00 00 00 00 00 00 00 00 00 00 00 ................
0040C980 00 00 00 00 00 00 00 00 00 00 00 00 00 00 00 00 ................
0040C990 00 00 00 00 00 00 00 00 00 00 00 00 00 00 00 00 ................
0040C9A0 00 00 00 00 00 00 00 00 00 00 00 00 00 00 00 00 ................
0040C9B0 00 00 00 00 00 00 00 00 00 00 00 00 00 00 00 00 ................
0040C9C0 00 00 00 00 00 00 00 00 00 00 00 00 00 00 00 00 ................
0040C9D0 00 00 00 00 00 00 00 00 00 00 00 00 00 00 00 00 ................
0040C9E0 00 00 00 00 00 00 00 00 00 00 00 00 00 00 00 00 ................
0040C9F0 00 00 00 00 00 00 00 00 00 00 00 00 00 00 00 00 ................
0040CA00 00 00 00 00 00 00 00 00 00 00 00 00 00 00 00 00 ................
0040CA10 00 00 00 00 00 00 00 00 00 00 00 00 00 00 00 00 ................
0040CA20 00 00 00 00 00 00 00 00 00 00 00 00 00 00 00 00 ................
0040CA30 00 00 00 00 00 00 00 00 00 00 00 00 00 00 00 00 ................
0040CA40 00 00 00 00 00 00 00 00 00 00 00 00 00 00 00 00 ................
0040CA50 00 00 00 00 00 00 00 00 00 00 00 00 00 00 00 00 ................
0040CA60 00 00 00 00 00 00 00 00 00 00 00 00 00 00 00 00 ................
0040CA70 00 00 00 00 00 00 00 00 00 00 00 00 00 00 00 00 ................
0040CA80 00 00 00 00 00 00 00 00 00 00 00 00 00 00 00 00 ................
0040CA90 00 00 00 00 00 00 00 00 00 00 00 00 00 00 00 00 ................
0040CAA0 00 00 00 00 00 00 00 00 00 00 00 00 00 00 00 00 ................
0040CAB0 00 00 00 00 00 00 00 00 00 00 00 00 00 00 00 00 ................
0040CAC0 00 00 00 00 00 00 00 00 00 00 00 00 00 00 00 00 ................
0040CAD0 00 00 00 00 00 00 00 00 00 00 00 00 00 00 00 00 ................
0040CAE0 00 00 00 00 00 00 00 00 00 00 00 00 00 00 00 00 ................
0040CAF0 00 00 00 00 00 00 00 00 00 00 00 00 00 00 00 00 ................
0040CB00 00 00 00 00 00 00 00 00 00 00 00 00 00 00 00 00 ................
0040CB10 00 00 00 00 00 00 00 00 00 00 00 00 00 00 00 00 ................
0040CB20 00 00 00 00 00 00 00 00 00 00 00 00 00 00 00 00 ................
0040CB30 00 00 00 00 00 00 00 00 00 00 00 00 00 00 00 00 ................
0040CB40 00 00 00 00 00 00 00 00 00 00 00 00 00 00 00 00 ................
0040CB50 00 00 00 00 00 00 00 00 00 00 00 00 00 00 00 00 ................
0040CB60 00 00 00 00 00 00 00 00 00 00 00 00 00 00 00 00 ................
0040CB70 00 00 00 00 00 00 00 00 00 00 00 00 00 00 00 00 ................
0040CB80 00 00 00 00 00 00 00 00 00 00 00 00 00 00 00 00 ................
0040CB90 00 00 00 00 00 00 00 00 00 00 00 00 00 00 00 00 ................
0040CBA0 00 00 00 00 00 00 00 00 00 00 00 00 00 00 00 00 ................
0040CBB0 00 00 00 00 00 00 00 00 00 00 00 00 00 00 00 00 ................
0040CBC0 00 00 00 00 00 00 00 00 00 00 00 00 00 00 00 00 ................
0040CBD0 00 00 00 00 00 00 00 00 00 00 00 00 00 00 00 00 ................
0040CBE0 00 00 00 00 00 00 00 00 00 00 00 00 00 00 00 00 ................
0040CBF0 00 00 00 00 00 00 00 00 00 00 00 00 00 00 00 00 ................
0040CC00 00 00 00 00 00 00 00 00 00 00 00 00 00 00 00 00 ................
0040CC10 00 00 00 00 00 00 00 00 00 00 00 00 00 00 00 00 ................
0040CC20 00 00 00 00 00 00 00 00 00 00 00 00 00 00 00 00 ................
0040CC30 00 00 00 00 00 00 00 00 00 00 00 00 00 00 00 00 ................
0040CC40 00 00 00 00 00 00 00 00 00 00 00 00 00 00 00 00 ................
0040CC50 00 00 00 00 00 00 00 00 00 00 00 00 00 00 00 00 ................
0040CC60 00 00 00 00 00 00 00 00 00 00 00 00 00 00 00 00 ................
0040CC70 00 00 00 00 00 00 00 00 00 00 00 00 00 00 00 00 ................
0040CC80 00 00 00 00 00 00 00 00 00 00 00 00 00 00 00 00 ................
0040CC90 00 00 00 00 00 00 00 00 00 00 00 00 00 00 00 00 ................
0040CCA0 00 00 00 00 00 00 00 00 00 00 00 00 00 00 00 00 ................
0040CCB0 00 00 00 00 00 00 00 00 00 00 00 00 00 00 00 00 ................
0040CCC0 00 00 00 00 00 00 00 00 00 00 00 00 00 00 00 00 ................
0040CCD0 00 00 00 00 00 00 00 00 00 00 00 00 00 00 00 00 ................
0040CCE0 00 00 00 00 00 00 00 00 00 00 00 00 00 00 00 00 ................
0040CCF0 00 00 00 00 00 00 00 00 00 00 00 00 00 00 00 00 ................
0040CD00 00 00 00 00 00 00 00 00 00 00 00 00 00 00 00 00 ................
0040CD10 00 00 00 00 00 00 00 00 00 00 00 00 00 00 00 00 ................
0040CD20 00 00 00 00 00 00 00 00 00 00 00 00 00 00 00 00 ................
0040CD30 00 00 00 00 00 00 00 00 00 00 00 00 00 00 00 00 ................
0040CD40 00 00 00 00 00 00 00 00 00 00 00 00 00 00 00 00 ................
0040CD50 00 00 00 00 00 00 00 00 00 00 00 00 00 00 00 00 ................
0040CD60 00 00 00 00 00 00 00 00 00 00 00 00 00 00 00 00 ................
0040CD70 00 00 00 00 00 00 00 00 00 00 00 00 00 00 00 00 ................
0040CD80 00 00 00 00 00 00 00 00 00 00 00 00 00 00 00 00 ................
0040CD90 00 00 00 00 00 00 00 00 00 00 00 00 00 00 00 00 ................
0040CDA0 00 00 00 00 00 00 00 00 00 00 00 00 00 00 00 00 ................
0040CDB0 00 00 00 00 00 00 00 00 00 00 00 00 00 00 00 00 ................
0040CDC0 00 00 00 00 00 00 00 00 00 00 00 00 00 00 00 00 ................
0040CDD0 00 00 00 00 00 00 00 00 00 00 00 00 00 00 00 00 ................
0040CDE0 00 00 00 00 00 00 00 00 00 00 00 00 00 00 00 00 ................
0040CDF0 00 00 00 00 00 00 00 00 00 00 00 00 00 00 00 00 ................
0040CE00 00 00 00 00 00 00 00 00 00 00 00 00 00 00 00 00 ................
0040CE10 00 00 00 00 00 00 00 00 00 00 00 00 00 00 00 00 ................
0040CE20 00 00 00 00 00 00 00 00 00 00 00 00 00 00 00 00 ................
0040CE30 00 00 00 00 00 00 00 00 00 00 00 00 00 00 00 00 ................
0040CE40 00 00 00 00 00 00 00 00 00 00 00 00 00 00 00 00 ................
0040CE50 00 00 00 00 00 00 00 00 00 00 00 00 00 00 00 00 ................
0040CE60 00 00 00 00 00 00 00 00 00 00 00 00 00 00 00 00 ................
0040CE70 00 00 00 00 00 00 00 00 00 00 00 00 00 00 00 00 ................
0040CE80 00 00 00 00 00 00 00 00 00 00 00 00 00 00 00 00 ................
0040CE90 00 00 00 00 00 00 00 00 00 00 00 00 00 00 00 00 ................
0040CEA0 00 00 00 00 00 00 00 00 00 00 00 00 00 00 00 00 ................
0040CEB0 00 00 00 00 00 00 00 00 00 00 00 00 00 00 00 00 ................
0040CEC0 00 00 00 00 00 00 00 00 00 00 00 00 00 00 00 00 ................
0040CED0 00 00 00 00 00 00 00 00 00 00 00 00 00 00 00 00 ................
0040CEE0 00 00 00 00 00 00 00 00 00 00 00 00 00 00 00 00 ................
0040CEF0 00 00 00 00 00 00 00 00 00 00 00 00 00 00 00 00 ................
0040CF00 00 00 00 00 00 00 00 00 00 00 00 00 00 00 00 00 ................
0040CF10 00 00 00 00 00 00 00 00 00 00 00 00 00 00 00 00 ................
0040CF20 00 00 00 00 00 00 00 00 00 00 00 00 00 00 00 00 ................
0040CF30 00 00 00 00 00 00 00 00 00 00 00 00 00 00 00 00 ................
0040CF40 00 00 00 00 00 00 00 00 00 00 00 00 00 00 00 00 ................
0040CF50 00 00 00 00 00 00 00 00 00 00 00 00 00 00 00 00 ................
0040CF60 00 00 00 00 00 00 00 00 00 00 00 00 00 00 00 00 ................
0040CF70 00 00 00 00 00 00 00 00 00 00 00 00 00 00 00 00 ................
0040CF80 00 00 00 00 00 00 00 00 00 00 00 00 00 00 00 00 ................
0040CF90 00 00 00 00 00 00 00 00 00 00 00 00 00 00 00 00 ................
0040CFA0 00 00 00 00 00 00 00 00 00 00 00 00 00 00 00 00 ................
0040CFB0 00 00 00 00 00 00 00 00 00 00 00 00 00 00 00 00 ................
0040CFC0 00 00 00 00 00 00 00 00 00 00 00 00 00 00 00 00 ................
0040CFD0 00 00 00 00 00 00 00 00 00 00 00 00 00 00 00 00 ................
0040CFE0 00 00 00 00 00 00 00 00 00 00 00 00 00 00 00 00 ................
0040CFF0 00 00 00 00 00 00 00 00 00 00 00 00 00 00 00 00 ................
0040D000 00 00 00 00 00 00 00 00 00 00 00 00 00 00 00 00 ................
0040D010 00 00 00 00 00 00 00 00 00 00 00 00 00 00 00 00 ................
0040D020 00 00 00 00 00 00 00 00 00 00 00 00 00 00 00 00 ................
0040D030 00 00 00 00 00 00 00 00 00 00 00 00 00 00 00 00 ................
0040D040 00 00 00 00 00 00 00 00 00 00 00 00 00 00 00 00 ................
0040D050 00 00 00 00 00 00 00 00 00 00 00 00 00 00 00 00 ................
0040D060 00 00 00 00 00 00 00 00 00 00 00 00 00 00 00 00 ................
0040D070 00 00 00 00 00 00 00 00 00 00 00 00 00 00 00 00 ................
0040D080 00 00 00 00 00 00 00 00 00 00 00 00 00 00 00 00 ................
0040D090 00 00 00 00 00 00 00 00 00 00 00 00 00 00 00 00 ................
0040D0A0 00 00 00 00 00 00 00 00 00 00 00 00 00 00 00 00 ................
0040D0B0 00 00 00 00 00 00 00 00 00 00 00 00 00 00 00 00 ................
0040D0C0 00 00 00 00 00 00 00 00 00 00 00 00 00 00 00 00 ................
0040D0D0 00 00 00 00 00 00 00 00 00 00 00 00 00 00 00 00 ................
0040D0E0 00 00 00 00 00 00 00 00 00 00 00 00 00 00 00 00 ................
0040D0F0 00 00 00 00 00 00 00 00 00 00 00 00 00 00 00 00 ................
0040D100 00 00 00 00 00 00 00 00 00 00 00 00 00 00 00 00 ................
0040D110 00 00 00 00 00 00 00 00 00 00 00 00 00 00 00 00 ................
0040D120 00 00 00 00 00 00 00 00 00 00 00 00 00 00 00 00 ................
0040D130 00 00 00 00 00 00 00 00 00 00 00 00 00 00 00 00 ................
0040D140 00 00 00 00 00 00 00 00 00 00 00 00 00 00 00 00 ................
0040D150 00 00 00 00 00 00 00 00 00 00 00 00 00 00 00 00 ................
0040D160 00 00 00 00 00 00 00 00 00 00 00 00 00 00 00 00 ................
0040D170 00 00 00 00 00 00 00 00 00 00 00 00 00 00 00 00 ................
0040D180 00 00 00 00 00 00 00 00 00 00 00 00 00 00 00 00 ................
0040D190 00 00 00 00 00 00 00 00 00 00 00 00 00 00 00 00 ................
0040D1A0 00 00 00 00 00 00 00 00 00 00 00 00 00 00 00 00 ................
0040D1B0 00 00 00 00 00 00 00 00 00 00 00 00 00 00 00 00 ................
0040D1C0 00 00 00 00 00 00 00 00 00 00 00 00 00 00 00 00 ................
0040D1D0 00 00 00 00 00 00 00 00 00 00 00 00 00 00 00 00 ................
0040D1E0 00 00 00 00 00 00 00 00 00 00 00 00 00 00 00 00 ................
0040D1F0 00 00 00 00 00 00 00 00 00 00 00 00 00 00 00 00 ................
0040D200 00 00 00 00 00 00 00 00 00 00 00 00 00 00 00 00 ................
0040D210 00 00 00 00 00 00 00 00 00 00 00 00 00 00 00 00 ................
0040D220 00 00 00 00 00 00 00 00 00 00 00 00 00 00 00 00 ................
0040D230 00 00 00 00 00 00 00 00 00 00 00 00 00 00 00 00 ................
0040D240 00 00 00 00 00 00 00 00 00 00 00 00 00 00 00 00 ................
0040D250 00 00 00 00 00 00 00 00 00 00 00 00 00 00 00 00 ................
0040D260 00 00 00 00 00 00 00 00 00 00 00 00 00 00 00 00 ................
0040D270 00 00 00 00 00 00 00 00 00 00 00 00 00 00 00 00 ................
0040D280 00 00 00 00 00 00 00 00 00 00 00 00 00 00 00 00 ................
0040D290 00 00 00 00 00 00 00 00 00 00 00 00 00 00 00 00 ................
0040D2A0 00 00 00 00 00 00 00 00 00 00 00 00 00 00 00 00 ................
0040D2B0 00 00 00 00 00 00 00 00 00 00 00 00 00 00 00 00 ................
0040D2C0 00 00 00 00 00 00 00 00 00 00 00 00 00 00 00 00 ................
0040D2D0 00 00 00 00 00 00 00 00 00 00 00 00 00 00 00 00 ................
0040D2E0 00 00 00 00 00 00 00 00 00 00 00 00 00 00 00 00 ................
0040D2F0 00 00 00 00 00 00 00 00 00 00 00 00 00 00 00 00 ................
0040D300 00 00 00 00 00 00 00 00 00 00 00 00 00 00 00 00 ................
0040D310 00 00 00 00 00 00 00 00 00 00 00 00 00 00 00 00 ................
0040D320 00 00 00 00 00 00 00 00 00 00 00 00 00 00 00 00 ................
0040D330 00 00 00 00 00 00 00 00 00 00 00 00 00 00 00 00 ................
0040D340 00 00 00 00 00 00 00 00 00 00 00 00 00 00 00 00 ................
0040D350 00 00 00 00 00 00 00 00 00 00 00 00 00 00 00 00 ................
0040D360 00 00 00 00 00 00 00 00 00 00 00 00 00 00 00 00 ................
0040D370 00 00 00 00 00 00 00 00 00 00 00 00 00 00 00 00 ................
0040D380 00 00 00 00 00 00 00 00 00 00 00 00 00 00 00 00 ................
0040D390 00 00 00 00 00 00 00 00 00 00 00 00 00 00 00 00 ................
0040D3A0 00 00 00 00 00 00 00 00 00 00 00 00 00 00 00 00 ................
0040D3B0 00 00 00 00 00 00 00 00 00 00 00 00 00 00 00 00 ................
0040D3C0 00 00 00 00 00 00 00 00 00 00 00 00 00 00 00 00 ................
0040D3D0 00 00 00 00 00 00 00 00 00 00 00 00 00 00 00 00 ................
0040D3E0 00 00 00 00 00 00 00 00 00 00 00 00 00 00 00 00 ................
0040D3F0 00 00 00 00 00 00 00 00 00 00 00 00 00 00 00 00 ................
0040D400 00 00 00 00 00 00 00 00 00 00 00 00 00 00 00 00 ................
0040D410 00 00 00 00 00 00 00 00 00 00 00 00 00 00 00 00 ................
0040D420 00 00 00 00 00 00 00 00 00 00 00 00 00 00 00 00 ................
0040D430 00 00 00 00 00 00 00 00 00 00 00 00 00 00 00 00 ................
0040D440 00 00 00 00 00 00 00 00 00 00 00 00 00 00 00 00 ................
0040D450 00 00 00 00 00 00 00 00 00 00 00 00 00 00 00 00 ................
0040D460 00 00 00 00 00 00 00 00 00 00 00 00 00 00 00 00 ................
0040D470 00 00 00 00 00 00 00 00 00 00 00 00 00 00 00 00 ................
0040D480 00 00 00 00 00 00 00 00 00 00 00 00 00 00 00 00 ................
0040D490 00 00 00 00 00 00 00 00 00 00 00 00 00 00 00 00 ................
0040D4A0 00 00 00 00 00 00 00 00 00 00 00 00 00 00 00 00 ................
0040D4B0 00 00 00 00 00 00 00 00 00 00 00 00 00 00 00 00 ................
0040D4C0 00 00 00 00 00 00 00 00 00 00 00 00 00 00 00 00 ................
0040D4D0 00 00 00 00 00 00 00 00 00 00 00 00 00 00 00 00 ................
0040D4E0 00 00 00 00 00 00 00 00 00 00 00 00 00 00 00 00 ................
0040D4F0 00 00 00 00 00 00 00 00 00 00 00 00 00 00 00 00 ................
0040D500 00 00 00 00 00 00 00 00 00 00 00 00 00 00 00 00 ................
0040D510 00 00 00 00 00 00 00 00 00 00 00 00 00 00 00 00 ................
0040D520 00 00 00 00 00 00 00 00 00 00 00 00 00 00 00 00 ................
0040D530 00 00 00 00 00 00 00 00 00 00 00 00 00 00 00 00 ................
0040D540 00 00 00 00 00 00 00 00 00 00 00 00 00 00 00 00 ................
0040D550 00 00 00 00 00 00 00 00 00 00 00 00 00 00 00 00 ................
0040D560 00 00 00 00 00 00 00 00 00 00 00 00 00 00 00 00 ................
0040D570 00 00 00 00 00 00 00 00 00 00 00 00 00 00 00 00 ................
0040D580 00 00 00 00 00 00 00 00 00 00 00 00 00 00 00 00 ................
0040D590 00 00 00 00 00 00 00 00 00 00 00 00 00 00 00 00 ................
0040D5A0 00 00 00 00 00 00 00 00 00 00 00 00 00 00 00 00 ................
0040D5B0 00 00 00 00 00 00 00 00 00 00 00 00 00 00 00 00 ................
0040D5C0 00 00 00 00 00 00 00 00 00 00 00 00 00 00 00 00 ................
0040D5D0 00 00 00 00 00 00 00 00 00 00 00 00 00 00 00 00 ................
0040D5E0 00 00 00 00 00 00 00 00 00 00 00 00 00 00 00 00 ................
0040D5F0 00 00 00 00 00 00 00 00 00 00 00 00 00 00 00 00 ................
0040D600 00 00 00 00 00 00 00 00 00 00 00 00 00 00 00 00 ................
0040D610 00 00 00 00 00 00 00 00 00 00 00 00 00 00 00 00 ................
0040D620 00 00 00 00 00 00 00 00 00 00 00 00 00 00 00 00 ................
0040D630 00 00 00 00 00 00 00 00 00 00 00 00 00 00 00 00 ................
0040D640 00 00 00 00 00 00 00 00 00 00 00 00 00 00 00 00 ................
0040D650 00 00 00 00 00 00 00 00 00 00 00 00 00 00 00 00 ................
0040D660 00 00 00 00 00 00 00 00 00 00 00 00 00 00 00 00 ................
0040D670 00 00 00 00 00 00 00 00 00 00 00 00 00 00 00 00 ................
0040D680 00 00 00 00 00 00 00 00 00 00 00 00 00 00 00 00 ................
0040D690 00 00 00 00 00 00 00 00 00 00 00 00 00 00 00 00 ................
0040D6A0 00 00 00 00 00 00 00 00 00 00 00 00 00 00 00 00 ................
0040D6B0 00 00 00 00 00 00 00 00 00 00 00 00 00 00 00 00 ................
0040D6C0 00 00 00 00 00 00 00 00 00 00 00 00 00 00 00 00 ................
0040D6D0 00 00 00 00 00 00 00 00 00 00 00 00 00 00 00 00 ................
0040D6E0 00 00 00 00 00 00 00 00 00 00 00 00 00 00 00 00 ................
0040D6F0 00 00 00 00 00 00 00 00 00 00 00 00 00 00 00 00 ................
0040D700 00 00 00 00 00 00 00 00 00 00 00 00 00 00 00 00 ................
0040D710 00 00 00 00 00 00 00 00 00 00 00 00 00 00 00 00 ................
0040D720 00 00 00 00 00 00 00 00 00 00 00 00 00 00 00 00 ................
0040D730 00 00 00 00 00 00 00 00 00 00 00 00 00 00 00 00 ................
0040D740 00 00 00 00 00 00 00 00 00 00 00 00 00 00 00 00 ................
0040D750 00 00 00 00 00 00 00 00 00 00 00 00 00 00 00 00 ................
0040D760 00 00 00 00 00 00 00 00 00 00 00 00 00 00 00 00 ................
0040D770 00 00 00 00 00 00 00 00 00 00 00 00 00 00 00 00 ................
0040D780 00 00 00 00 00 00 00 00 00 00 00 00 00 00 00 00 ................
0040D790 00 00 00 00 00 00 00 00 00 00 00 00 00 00 00 00 ................
0040D7A0 00 00 00 00 00 00 00 00 00 00 00 00 00 00 00 00 ................
0040D7B0 00 00 00 00 00 00 00 00 00 00 00 00 00 00 00 00 ................
0040D7C0 00 00 00 00 00 00 00 00 00 00 00 00 00 00 00 00 ................
0040D7D0 00 00 00 00 00 00 00 00 00 00 00 00 00 00 00 00 ................
0040D7E0 00 00 00 00 00 00 00 00 00 00 00 00 00 00 00 00 ................
0040D7F0 00 00 00 00 00 00 00 00 00 00 00 00 00 00 00 00 ................
0040D800 00 00 00 00 00 00 00 00 00 00 00 00 00 00 00 00 ................
0040D810 00 00 00 00 00 00 00 00 00 00 00 00 00 00 00 00 ................
0040D820 00 00 00 00 00 00 00 00 00 00 00 00 00 00 00 00 ................
0040D830 00 00 00 00 00 00 00 00 00 00 00 00 00 00 00 00 ................
0040D840 00 00 00 00 00 00 00 00 00 00 00 00 00 00 00 00 ................
0040D850 00 00 00 00 00 00 00 00 00 00 00 00 00 00 00 00 ................
0040D860 00 00 00 00 00 00 00 00 00 00 00 00 00 00 00 00 ................
0040D870 00 00 00 00 00 00 00 00 00 00 00 00 00 00 00 00 ................
0040D880 00 00 00 00 00 00 00 00 00 00 00 00 00 00 00 00 ................
0040D890 00 00 00 00 00 00 00 00 00 00 00 00 00 00 00 00 ................
0040D8A0 00 00 00 00 00 00 00 00 00 00 00 00 00 00 00 00 ................
0040D8B0 00 00 00 00 00 00 00 00 00 00 00 00 00 00 00 00 ................
0040D8C0 00 00 00 00 00 00 00 00 00 00 00 00 00 00 00 00 ................
0040D8D0 00 00 00 00 00 00 00 00 00 00 00 00 00 00 00 00 ................
0040D8E0 00 00 00 00 00 00 00 00 00 00 00 00 00 00 00 00 ................
0040D8F0 00 00 00 00 00 00 00 00 00 00 00 00 00 00 00 00 ................
0040D900 00 00 00 00 00 00 00 00 00 00 00 00 00 00 00 00 ................
0040D910 00 00 00 00 00 00 00 00 00 00 00 00 00 00 00 00 ................
0040D920 00 00 00 00 00 00 00 00 00 00 00 00 00 00 00 00 ................
0040D930 00 00 00 00 00 00 00 00 00 00 00 00 00 00 00 00 ................
0040D940 00 00 00 00 00 00 00 00 00 00 00 00 00 00 00 00 ................
0040D950 00 00 00 00 00 00 00 00 00 00 00 00 00 00 00 00 ................
0040D960 00 00 00 00 00 00 00 00 00 00 00 00 00 00 00 00 ................
0040D970 00 00 00 00 00 00 00 00 00 00 00 00 00 00 00 00 ................
0040D980 00 00 00 00 00 00 00 00 00 00 00 00 00 00 00 00 ................
0040D990 00 00 00 00 00 00 00 00 00 00 00 00 00 00 00 00 ................
0040D9A0 00 00 00 00 00 00 00 00 00 00 00 00 00 00 00 00 ................
0040D9B0 00 00 00 00 00 00 00 00 00 00 00 00 00 00 00 00 ................
0040D9C0 00 00 00 00 00 00 00 00 00 00 00 00 00 00 00 00 ................
0040D9D0 00 00 00 00 00 00 00 00 00 00 00 00 00 00 00 00 ................
0040D9E0 00 00 00 00 00 00 00 00 00 00 00 00 00 00 00 00 ................
0040D9F0 00 00 00 00 00 00 00 00 00 00 00 00 00 00 00 00 ................
0040DA00 00 00 00 00 00 00 00 00 00 00 00 00 00 00 00 00 ................
0040DA10 00 00 00 00 00 00 00 00 00 00 00 00 00 00 00 00 ................
0040DA20 00 00 00 00 00 00 00 00 00 00 00 00 00 00 00 00 ................
0040DA30 00 00 00 00 00 00 00 00 00 00 00 00 00 00 00 00 ................
0040DA40 00 00 00 00 00 00 00 00 00 00 00 00 00 00 00 00 ................
0040DA50 00 00 00 00 00 00 00 00 00 00 00 00 00 00 00 00 ................
0040DA60 00 00 00 00 00 00 00 00 00 00 00 00 00 00 00 00 ................
0040DA70 00 00 00 00 00 00 00 00 00 00 00 00 00 00 00 00 ................
0040DA80 00 00 00 00 00 00 00 00 00 00 00 00 00 00 00 00 ................
0040DA90 00 00 00 00 00 00 00 00 00 00 00 00 00 00 00 00 ................
0040DAA0 00 00 00 00 00 00 00 00 00 00 00 00 00 00 00 00 ................
0040DAB0 00 00 00 00 00 00 00 00 00 00 00 00 00 00 00 00 ................
0040DAC0 00 00 00 00 00 00 00 00 00 00 00 00 00 00 00 00 ................
0040DAD0 00 00 00 00 00 00 00 00 00 00 00 00 00 00 00 00 ................
0040DAE0 00 00 00 00 00 00 00 00 00 00 00 00 00 00 00 00 ................
0040DAF0 00 00 00 00 00 00 00 00 00 00 00 00 00 00 00 00 ................
0040DB00 00 00 00 00 00 00 00 00 00 00 00 00 00 00 00 00 ................
0040DB10 00 00 00 00 00 00 00 00 00 00 00 00 00 00 00 00 ................
0040DB20 00 00 00 00 00 00 00 00 00 00 00 00 00 00 00 00 ................
0040DB30 00 00 00 00 00 00 00 00 00 00 00 00 00 00 00 00 ................
0040DB40 00 00 00 00 00 00 00 00 00 00 00 00 00 00 00 00 ................
0040DB50 00 00 00 00 00 00 00 00 00 00 00 00 00 00 00 00 ................
0040DB60 00 00 00 00 00 00 00 00 00 00 00 00 00 00 00 00 ................
0040DB70 00 00 00 00 00 00 00 00 00 00 00 00 00 00 00 00 ................
0040DB80 00 00 00 00 00 00 00 00 00 00 00 00 00 00 00 00 ................
0040DB90 00 00 00 00 00 00 00 00 00 00 00 00 00 00 00 00 ................
0040DBA0 00 00 00 00 00 00 00 00 00 00 00 00 00 00 00 00 ................
0040DBB0 00 00 00 00 00 00 00 00 00 00 00 00 00 00 00 00 ................
0040DBC0 00 00 00 00 00 00 00 00 00 00 00 00 00 00 00 00 ................
0040DBD0 00 00 00 00 00 00 00 00 00 00 00 00 00 00 00 00 ................
0040DBE0 00 00 00 00 00 00 00 00 00 00 00 00 00 00 00 00 ................
0040DBF0 00 00 00 00 00 00 00 00 00 00 00 00 00 00 00 00 ................
0040DC00 00 00 00 00 00 00 00 00 00 00 00 00 00 00 00 00 ................
0040DC10 00 00 00 00 00 00 00 00 00 00 00 00 00 00 00 00 ................
0040DC20 00 00 00 00 00 00 00 00 00 00 00 00 00 00 00 00 ................
0040DC30 00 00 00 00 00 00 00 00 00 00 00 00 00 00 00 00 ................
0040DC40 00 00 00 00 00 00 00 00 00 00 00 00 00 00 00 00 ................
0040DC50 00 00 00 00 00 00 00 00 00 00 00 00 00 00 00 00 ................
0040DC60 00 00 00 00 00 00 00 00 00 00 00 00 00 00 00 00 ................
0040DC70 00 00 00 00 00 00 00 00 00 00 00 00 00 00 00 00 ................
0040DC80 00 00 00 00 00 00 00 00 00 00 00 00 00 00 00 00 ................
0040DC90 00 00 00 00 00 00 00 00 00 00 00 00 00 00 00 00 ................
0040DCA0 00 00 00 00 00 00 00 00 00 00 00 00 00 00 00 00 ................
0040DCB0 00 00 00 00 00 00 00 00 00 00 00 00 00 00 00 00 ................
0040DCC0 00 00 00 00 00 00 00 00 00 00 00 00 00 00 00 00 ................
0040DCD0 00 00 00 00 00 00 00 00 00 00 00 00 00 00 00 00 ................
0040DCE0 00 00 00 00 00 00 00 00 00 00 00 00 00 00 00 00 ................
0040DCF0 00 00 00 00 00 00 00 00 00 00 00 00 00 00 00 00 ................
0040DD00 00 00 00 00 00 00 00 00 00 00 00 00 00 00 00 00 ................
0040DD10 00 00 00 00 00 00 00 00 00 00 00 00 00 00 00 00 ................
0040DD20 00 00 00 00 00 00 00 00 00 00 00 00 00 00 00 00 ................
0040DD30 00 00 00 00 00 00 00 00 00 00 00 00 00 00 00 00 ................
0040DD40 00 00 00 00 00 00 00 00 00 00 00 00 00 00 00 00 ................
0040DD50 00 00 00 00 00 00 00 00 00 00 00 00 00 00 00 00 ................
0040DD60 00 00 00 00 00 00 00 00 00 00 00 00 00 00 00 00 ................
0040DD70 00 00 00 00 00 00 00 00 00 00 00 00 00 00 00 00 ................
0040DD80 00 00 00 00 00 00 00 00 00 00 00 00 00 00 00 00 ................
0040DD90 00 00 00 00 00 00 00 00 00 00 00 00 00 00 00 00 ................
0040DDA0 00 00 00 00 00 00 00 00 00 00 00 00 00 00 00 00 ................
0040DDB0 00 00 00 00 00 00 00 00 00 00 00 00 00 00 00 00 ................
0040DDC0 00 00 00 00 00 00 00 00 00 00 00 00 00 00 00 00 ................
0040DDD0 00 00 00 00 00 00 00 00 00 00 00 00 00 00 00 00 ................
0040DDE0 00 00 00 00 00 00 00 00 00 00 00 00 00 00 00 00 ................
0040DDF0 00 00 00 00 00 00 00 00 00 00 00 00 00 00 00 00 ................
0040DE00 00 00 00 00 00 00 00 00 00 00 00 00 00 00 00 00 ................
0040DE10 00 00 00 00 00 00 00 00 00 00 00 00 00 00 00 00 ................
0040DE20 00 00 00 00 00 00 00 00 00 00 00 00 00 00 00 00 ................
0040DE30 00 00 00 00 00 00 00 00 00 00 00 00 00 00 00 00 ................
0040DE40 00 00 00 00 00 00 00 00 00 00 00 00 00 00 00 00 ................
0040DE50 00 00 00 00 00 00 00 00 00 00 00 00 00 00 00 00 ................
0040DE60 00 00 00 00 00 00 00 00 00 00 00 00 00 00 00 00 ................
0040DE70 00 00 00 00 00 00 00 00 00 00 00 00 00 00 00 00 ................
0040DE80 00 00 00 00 00 00 00 00 00 00 00 00 00 00 00 00 ................
0040DE90 00 00 00 00 00 00 00 00 00 00 00 00 00 00 00 00 ................
0040DEA0 00 00 00 00 00 00 00 00 00 00 00 00 00 00 00 00 ................
0040DEB0 00 00 00 00 00 00 00 00 00 00 00 00 00 00 00 00 ................
0040DEC0 00 00 00 00 00 00 00 00 00 00 00 00 00 00 00 00 ................
0040DED0 00 00 00 00 00 00 00 00 00 00 00 00 00 00 00 00 ................
0040DEE0 00 00 00 00 00 00 00 00 00 00 00 00 00 00 00 00 ................
0040DEF0 00 00 00 00 00 00 00 00 00 00 00 00 00 00 00 00 ................
0040DF00 00 00 00 00 00 00 00 00 00 00 00 00 00 00 00 00 ................
0040DF10 00 00 00 00 00 00 00 00 00 00 00 00 00 00 00 00 ................
0040DF20 00 00 00 00 00 00 00 00 00 00 00 00 00 00 00 00 ................
0040DF30 00 00 00 00 00 00 00 00 00 00 00 00 00 00 00 00 ................
0040DF40 00 00 00 00 00 00 00 00 00 00 00 00 00 00 00 00 ................
0040DF50 00 00 00 00 00 00 00 00 00 00 00 00 00 00 00 00 ................
0040DF60 00 00 00 00 00 00 00 00 00 00 00 00 00 00 00 00 ................
0040DF70 00 00 00 00 00 00 00 00 00 00 00 00 00 00 00 00 ................
0040DF80 00 00 00 00 00 00 00 00 00 00 00 00 00 00 00 00 ................
0040DF90 00 00 00 00 00 00 00 00 00 00 00 00 00 00 00 00 ................
0040DFA0 00 00 00 00 00 00 00 00 00 00 00 00 00 00 00 00 ................
0040DFB0 00 00 00 00 00 00 00 00 00 00 00 00 00 00 00 00 ................
0040DFC0 00 00 00 00 00 00 00 00 00 00 00 00 00 00 00 00 ................
0040DFD0 00 00 00 00 00 00 00 00 00 00 00 00 00 00 00 00 ................
0040DFE0 00 00 00 00 00 00 00 00 00 00 00 00 00 00 00 00 ................
0040DFF0 00 00 00 00 00 00 00 00 00 00 00 00 00 00 00 00 ................
0040E000 00 00 00 00 00 00 00 00 00 00 00 00 00 00 00 00 ................
0040E010 00 00 00 00 00 00 00 00 00 00 00 00 00 00 00 00 ................
0040E020 00 00 00 00 00 00 00 00 00 00 00 00 00 00 00 00 ................
0040E030 00 00 00 00 00 00 00 00 00 00 00 00 00 00 00 00 ................
0040E040 00 00 00 00 00 00 00 00 00 00 00 00 00 00 00 00 ................
0040E050 00 00 00 00 00 00 00 00 00 00 00 00 00 00 00 00 ................
0040E060 00 00 00 00 00 00 00 00 00 00 00 00 00 00 00 00 ................
0040E070 00 00 00 00 00 00 00 00 00 00 00 00 00 00 00 00 ................
0040E080 00 00 00 00 00 00 00 00 00 00 00 00 00 00 00 00 ................
0040E090 00 00 00 00 00 00 00 00 00 00 00 00 00 00 00 00 ................
0040E0A0 00 00 00 00 00 00 00 00 00 00 00 00 00 00 00 00 ................
0040E0B0 00 00 00 00 00 00 00 00 00 00 00 00 00 00 00 00 ................
0040E0C0 00 00 00 00 00 00 00 00 00 00 00 00 00 00 00 00 ................
0040E0D0 00 00 00 00 00 00 00 00 00 00 00 00 00 00 00 00 ................
0040E0E0 00 00 00 00 00 00 00 00 00 00 00 00 00 00 00 00 ................
0040E0F0 00 00 00 00 00 00 00 00 00 00 00 00 00 00 00 00 ................
0040E100 00 00 00 00 00 00 00 00 00 00 00 00 00 00 00 00 ................
0040E110 00 00 00 00 00 00 00 00 00 00 00 00 00 00 00 00 ................
0040E120 00 00 00 00 00 00 00 00 00 00 00 00 00 00 00 00 ................
0040E130 00 00 00 00 00 00 00 00 00 00 00 00 00 00 00 00 ................
0040E140 00 00 00 00 00 00 00 00 00 00 00 00 00 00 00 00 ................
0040E150 00 00 00 00 00 00 00 00 00 00 00 00 00 00 00 00 ................
0040E160 00 00 00 00 00 00 00 00 00 00 00 00 00 00 00 00 ................
0040E170 00 00 00 00 00 00 00 00 00 00 00 00 00 00 00 00 ................
0040E180 00 00 00 00 00 00 00 00 00 00 00 00 00 00 00 00 ................
0040E190 00 00 00 00 00 00 00 00 00 00 00 00 00 00 00 00 ................
0040E1A0 00 00 00 00 00 00 00 00 00 00 00 00 00 00 00 00 ................
0040E1B0 00 00 00 00 00 00 00 00 00 00 00 00 00 00 00 00 ................
0040E1C0 00 00 00 00 00 00 00 00 00 00 00 00 00 00 00 00 ................
0040E1D0 00 00 00 00 00 00 00 00 00 00 00 00 00 00 00 00 ................
0040E1E0 00 00 00 00 00 00 00 00 00 00 00 00 00 00 00 00 ................
0040E1F0 00 00 00 00 00 00 00 00 00 00 00 00 00 00 00 00 ................
0040E200 00 00 00 00 00 00 00 00 00 00 00 00 00 00 00 00 ................
0040E210 00 00 00 00 00 00 00 00 00 00 00 00 00 00 00 00 ................
0040E220 00 00 00 00 00 00 00 00 00 00 00 00 00 00 00 00 ................
0040E230 00 00 00 00 00 00 00 00 00 00 00 00 00 00 00 00 ................
0040E240 00 00 00 00 00 00 00 00 00 00 00 00 00 00 00 00 ................
0040E250 00 00 00 00 00 00 00 00 00 00 00 00 00 00 00 00 ................
0040E260 00 00 00 00 00 00 00 00 00 00 00 00 00 00 00 00 ................
0040E270 00 00 00 00 00 00 00 00 00 00 00 00 00 00 00 00 ................
0040E280 00 00 00 00 00 00 00 00 00 00 00 00 00 00 00 00 ................
0040E290 00 00 00 00 00 00 00 00 00 00 00 00 00 00 00 00 ................
0040E2A0 00 00 00 00 00 00 00 00 00 00 00 00 00 00 00 00 ................
0040E2B0 00 00 00 00 00 00 00 00 00 00 00 00 00 00 00 00 ................
0040E2C0 00 00 00 00 00 00 00 00 00 00 00 00 00 00 00 00 ................
0040E2D0 00 00 00 00 00 00 00 00 00 00 00 00 00 00 00 00 ................
0040E2E0 00 00 00 00 00 00 00 00 00 00 00 00 00 00 00 00 ................
0040E2F0 00 00 00 00 00 00 00 00 00 00 00 00 00 00 00 00 ................
0040E300 00 00 00 00 00 00 00 00 00 00 00 00 00 00 00 00 ................
0040E310 00 00 00 00 00 00 00 00 00 00 00 00 00 00 00 00 ................
0040E320 00 00 00 00 00 00 00 00 00 00 00 00 00 00 00 00 ................
0040E330 00 00 00 00 00 00 00 00 00 00 00 00 00 00 00 00 ................
0040E340 00 00 00 00 00 00 00 00 00 00 00 00 00 00 00 00 ................
0040E350 00 00 00 00 00 00 00 00 00 00 00 00 00 00 00 00 ................
0040E360 00 00 00 00 00 00 00 00 00 00 00 00 00 00 00 00 ................
0040E370 00 00 00 00 00 00 00 00 00 00 00 00 00 00 00 00 ................
0040E380 00 00 00 00 00 00 00 00 00 00 00 00 00 00 00 00 ................
0040E390 00 00 00 00 00 00 00 00 00 00 00 00 00 00 00 00 ................
0040E3A0 00 00 00 00 00 00 00 00 00 00 00 00 00 00 00 00 ................
0040E3B0 00 00 00 00 00 00 00 00 00 00 00 00 00 00 00 00 ................
0040E3C0 00 00 00 00 00 00 00 00 00 00 00 00 00 00 00 00 ................
0040E3D0 00 00 00 00 00 00 00 00 00 00 00 00 00 00 00 00 ................
0040E3E0 00 00 00 00 00 00 00 00 00 00 00 00 00 00 00 00 ................
0040E3F0 00 00 00 00 00 00 00 00 00 00 00 00 00 00 00 00 ................
0040E400 00 00 00 00 00 00 00 00 00 00 00 00 00 00 00 00 ................
0040E410 00 00 00 00 00 00 00 00 00 00 00 00 00 00 00 00 ................
0040E420 00 00 00 00 00 00 00 00 00 00 00 00 00 00 00 00 ................
0040E430 00 00 00 00 00 00 00 00 00 00 00 00 00 00 00 00 ................
0040E440 00 00 00 00 00 00 00 00 00 00 00 00 00 00 00 00 ................
0040E450 00 00 00 00 00 00 00 00 00 00 00 00 00 00 00 00 ................
0040E460 00 00 00 00 00 00 00 00 00 00 00 00 00 00 00 00 ................
0040E470 00 00 00 00 00 00 00 00 00 00 00 00 00 00 00 00 ................
0040E480 00 00 00 00 00 00 00 00 00 00 00 00 00 00 00 00 ................
0040E490 00 00 00 00 00 00 00 00 00 00 00 00 00 00 00 00 ................
0040E4A0 00 00 00 00 00 00 00 00 00 00 00 00 00 00 00 00 ................
0040E4B0 00 00 00 00 00 00 00 00 00 00 00 00 00 00 00 00 ................
0040E4C0 00 00 00 00 00 00 00 00 00 00 00 00 00 00 00 00 ................
0040E4D0 00 00 00 00 00 00 00 00 00 00 00 00 00 00 00 00 ................
0040E4E0 00 00 00 00 00 00 00 00 00 00 00 00 00 00 00 00 ................
0040E4F0 00 00 00 00 00 00 00 00 00 00 00 00 00 00 00 00 ................
0040E500 00 00 00 00 00 00 00 00 00 00 00 00 00 00 00 00 ................
0040E510 00 00 00 00 00 00 00 00 00 00 00 00 00 00 00 00 ................
0040E520 00 00 00 00 00 00 00 00 00 00 00 00 00 00 00 00 ................
0040E530 00 00 00 00 00 00 00 00 00 00 00 00 00 00 00 00 ................
0040E540 00 00 00 00 00 00 00 00 00 00 00 00 00 00 00 00 ................
0040E550 00 00 00 00 00 00 00 00 00 00 00 00 00 00 00 00 ................
0040E560 00 00 00 00 00 00 00 00 00 00 00 00 00 00 00 00 ................
0040E570 00 00 00 00 00 00 00 00 00 00 00 00 00 00 00 00 ................
0040E580 00 00 00 00 00 00 00 00 00 00 00 00 00 00 00 00 ................
0040E590 00 00 00 00 00 00 00 00 00 00 00 00 00 00 00 00 ................
0040E5A0 00 00 00 00 00 00 00 00 00 00 00 00 00 00 00 00 ................
0040E5B0 00 00 00 00 00 00 00 00 00 00 00 00 00 00 00 00 ................
0040E5C0 00 00 00 00 00 00 00 00 00 00 00 00 00 00 00 00 ................
0040E5D0 00 00 00 00 00 00 00 00 00 00 00 00 00 00 00 00 ................
0040E5E0 00 00 00 00 00 00 00 00 00 00 00 00 00 00 00 00 ................
0040E5F0 00 00 00 00 00 00 00 00 00 00 00 00 00 00 00 00 ................
0040E600 00 00 00 00 00 00 00 00 00 00 00 00 00 00 00 00 ................
0040E610 00 00 00 00 00 00 00 00 00 00 00 00 00 00 00 00 ................
0040E620 00 00 00 00 00 00 00 00 00 00 00 00 00 00 00 00 ................
0040E630 00 00 00 00 00 00 00 00 00 00 00 00 00 00 00 00 ................
0040E640 00 00 00 00 00 00 00 00 00 00 00 00 00 00 00 00 ................
0040E650 00 00 00 00 00 00 00 00 00 00 00 00 00 00 00 00 ................
0040E660 00 00 00 00 00 00 00 00 00 00 00 00 00 00 00 00 ................
0040E670 00 00 00 00 00 00 00 00 00 00 00 00 00 00 00 00 ................
0040E680 00 00 00 00 00 00 00 00 00 00 00 00 00 00 00 00 ................
0040E690 00 00 00 00 00 00 00 00 00 00 00 00 00 00 00 00 ................
0040E6A0 00 00 00 00 00 00 00 00 00 00 00 00 00 00 00 00 ................
0040E6B0 00 00 00 00 00 00 00 00 00 00 00 00 00 00 00 00 ................
0040E6C0 00 00 00 00 00 00 00 00 00 00 00 00 00 00 00 00 ................
0040E6D0 00 00 00 00 00 00 00 00 00 00 00 00 00 00 00 00 ................
0040E6E0 00 00 00 00 00 00 00 00 00 00 00 00 00 00 00 00 ................
0040E6F0 00 00 00 00 00 00 00 00 00 00 00 00 00 00 00 00 ................
0040E700 00 00 00 00 00 00 00 00 00 00 00 00 00 00 00 00 ................
0040E710 00 00 00 00 00 00 00 00 00 00 00 00 00 00 00 00 ................
0040E720 00 00 00 00 00 00 00 00 00 00 00 00 00 00 00 00 ................
0040E730 00 00 00 00 00 00 00 00 00 00 00 00 00 00 00 00 ................
0040E740 00 00 00 00 00 00 00 00 00 00 00 00 00 00 00 00 ................
0040E750 00 00 00 00 00 00 00 00 00 00 00 00 00 00 00 00 ................
0040E760 00 00 00 00 00 00 00 00 00 00 00 00 00 00 00 00 ................
0040E770 00 00 00 00 00 00 00 00 00 00 00 00 00 00 00 00 ................
0040E780 00 00 00 00 00 00 00 00 00 00 00 00 00 00 00 00 ................
0040E790 00 00 00 00 00 00 00 00 00 00 00 00 00 00 00 00 ................
0040E7A0 00 00 00 00 00 00 00 00 00 00 00 00 00 00 00 00 ................
0040E7B0 00 00 00 00 00 00 00 00 00 00 00 00 00 00 00 00 ................
0040E7C0 00 00 00 00 00 00 00 00 00 00 00 00 00 00 00 00 ................
0040E7D0 00 00 00 00 00 00 00 00 00 00 00 00 00 00 00 00 ................
0040E7E0 00 00 00 00 00 00 00 00 00 00 00 00 00 00 00 00 ................
0040E7F0 00 00 00 00 00 00 00 00 00 00 00 00 00 00 00 00 ................
0040E800 00 00 00 00 00 00 00 00 00 00 00 00 00 00 00 00 ................
0040E810 00 00 00 00 00 00 00 00 00 00 00 00 00 00 00 00 ................
0040E820 00 00 00 00 00 00 00 00 00 00 00 00 00 00 00 00 ................
0040E830 00 00 00 00 00 00 00 00 00 00 00 00 00 00 00 00 ................
0040E840 00 00 00 00 00 00 00 00 00 00 00 00 00 00 00 00 ................
0040E850 00 00 00 00 00 00 00 00 00 00 00 00 00 00 00 00 ................
0040E860 00 00 00 00 00 00 00 00 00 00 00 00 00 00 00 00 ................
0040E870 00 00 00 00 00 00 00 00 00 00 00 00 00 00 00 00 ................
0040E880 00 00 00 00 00 00 00 00 00 00 00 00 00 00 00 00 ................
0040E890 00 00 00 00 00 00 00 00 00 00 00 00 00 00 00 00 ................
0040E8A0 00 00 00 00 00 00 00 00 00 00 00 00 00 00 00 00 ................
0040E8B0 00 00 00 00 00 00 00 00 00 00 00 00 00 00 00 00 ................
0040E8C0 00 00 00 00 00 00 00 00 00 00 00 00 00 00 00 00 ................
0040E8D0 00 00 00 00 00 00 00 00 00 00 00 00 00 00 00 00 ................
0040E8E0 00 00 00 00 00 00 00 00 00 00 00 00 00 00 00 00 ................
0040E8F0 00 00 00 00 00 00 00 00 00 00 00 00 00 00 00 00 ................
0040E900 00 00 00 00 00 00 00 00 00 00 00 00 00 00 00 00 ................
0040E910 00 00 00 00 00 00 00 00 00 00 00 00 00 00 00 00 ................
0040E920 00 00 00 00 00 00 00 00 00 00 00 00 00 00 00 00 ................
0040E930 00 00 00 00 00 00 00 00 00 00 00 00 00 00 00 00 ................
0040E940 00 00 00 00 00 00 00 00 00 00 00 00 00 00 00 00 ................
0040E950 00 00 00 00 00 00 00 00 00 00 00 00 00 00 00 00 ................
0040E960 00 00 00 00 00 00 00 00 00 00 00 00 00 00 00 00 ................
0040E970 00 00 00 00 00 00 00 00 00 00 00 00 00 00 00 00 ................
0040E980 00 00 00 00 00 00 00 00 00 00 00 00 00 00 00 00 ................
0040E990 00 00 00 00 00 00 00 00 00 00 00 00 00 00 00 00 ................
0040E9A0 00 00 00 00 00 00 00 00 00 00 00 00 00 00 00 00 ................
0040E9B0 00 00 00 00 00 00 00 00 00 00 00 00 00 00 00 00 ................
0040E9C0 00 00 00 00 00 00 00 00 00 00 00 00 00 00 00 00 ................
0040E9D0 00 00 00 00 00 00 00 00 00 00 00 00 00 00 00 00 ................
0040E9E0 00 00 00 00 00 00 00 00 00 00 00 00 00 00 00 00 ................
0040E9F0 00 00 00 00 00 00 00 00 00 00 00 00 00 00 00 00 ................
0040EA00 00 00 00 00 00 00 00 00 00 00 00 00 00 00 00 00 ................
0040EA10 00 00 00 00 00 00 00 00 00 00 00 00 00 00 00 00 ................
0040EA20 00 00 00 00 00 00 00 00 00 00 00 00 00 00 00 00 ................
0040EA30 00 00 00 00 00 00 00 00 00 00 00 00 00 00 00 00 ................
0040EA40 00 00 00 00 00 00 00 00 00 00 00 00 00 00 00 00 ................
0040EA50 00 00 00 00 00 00 00 00 00 00 00 00 00 00 00 00 ................
0040EA60 00 00 00 00 00 00 00 00 00 00 00 00 00 00 00 00 ................
0040EA70 00 00 00 00 00 00 00 00 00 00 00 00 00 00 00 00 ................
0040EA80 00 00 00 00 00 00 00 00 00 00 00 00 00 00 00 00 ................
0040EA90 00 00 00 00 00 00 00 00 00 00 00 00 00 00 00 00 ................
0040EAA0 00 00 00 00 00 00 00 00 00 00 00 00 00 00 00 00 ................
0040EAB0 00 00 00 00 00 00 00 00 00 00 00 00 00 00 00 00 ................
0040EAC0 00 00 00 00 00 00 00 00 00 00 00 00 00 00 00 00 ................
0040EAD0 00 00 00 00 00 00 00 00 00 00 00 00 00 00 00 00 ................
0040EAE0 00 00 00 00 00 00 00 00 00 00 00 00 00 00 00 00 ................
0040EAF0 00 00 00 00 00 00 00 00 00 00 00 00 00 00 00 00 ................
0040EB00 00 00 00 00 00 00 00 00 00 00 00 00 00 00 00 00 ................
0040EB10 00 00 00 00 00 00 00 00 00 00 00 00 00 00 00 00 ................
0040EB20 00 00 00 00 00 00 00 00 00 00 00 00 00 00 00 00 ................
0040EB30 00 00 00 00 00 00 00 00 00 00 00 00 00 00 00 00 ................
0040EB40 00 00 00 00 00 00 00 00 00 00 00 00 00 00 00 00 ................
0040EB50 00 00 00 00 00 00 00 00 00 00 00 00 00 00 00 00 ................
0040EB60 00 00 00 00 00 00 00 00 00 00 00 00 00 00 00 00 ................
0040EB70 00 00 00 00 00 00 00 00 00 00 00 00 00 00 00 00 ................
0040EB80 00 00 00 00 00 00 00 00 00 00 00 00 00 00 00 00 ................
0040EB90 00 00 00 00 00 00 00 00 00 00 00 00 00 00 00 00 ................
0040EBA0 00 00 00 00 00 00 00 00 00 00 00 00 00 00 00 00 ................
0040EBB0 00 00 00 00 00 00 00 00 00 00 00 00 00 00 00 00 ................
0040EBC0 00 00 00 00 00 00 00 00 00 00 00 00 00 00 00 00 ................
0040EBD0 00 00 00 00 00 00 00 00 00 00 00 00 00 00 00 00 ................
0040EBE0 00 00 00 00 00 00 00 00 00 00 00 00 00 00 00 00 ................
0040EBF0 00 00 00 00 00 00 00 00 00 00 00 00 00 00 00 00 ................
0040EC00 00 00 00 00 00 00 00 00 00 00 00 00 00 00 00 00 ................
0040EC10 00 00 00 00 00 00 00 00 00 00 00 00 00 00 00 00 ................
0040EC20 00 00 00 00 00 00 00 00 00 00 00 00 00 00 00 00 ................
0040EC30 00 00 00 00 00 00 00 00 00 00 00 00 00 00 00 00 ................
0040EC40 00 00 00 00 00 00 00 00 00 00 00 00 00 00 00 00 ................
0040EC50 00 00 00 00 00 00 00 00 00 00 00 00 00 00 00 00 ................
0040EC60 00 00 00 00 00 00 00 00 00 00 00 00 00 00 00 00 ................
0040EC70 00 00 00 00 00 00 00 00 00 00 00 00 00 00 00 00 ................
0040EC80 00 00 00 00 00 00 00 00 00 00 00 00 00 00 00 00 ................
0040EC90 00 00 00 00 00 00 00 00 00 00 00 00 00 00 00 00 ................
0040ECA0 00 00 00 00 00 00 00 00 00 00 00 00 00 00 00 00 ................
0040ECB0 00 00 00 00 00 00 00 00 00 00 00 00 00 00 00 00 ................
0040ECC0 00 00 00 00 00 00 00 00 00 00 00 00 00 00 00 00 ................
0040ECD0 00 00 00 00 00 00 00 00 00 00 00 00 00 00 00 00 ................
0040ECE0 00 00 00 00 00 00 00 00 00 00 00 00 00 00 00 00 ................
0040ECF0 00 00 00 00 00 00 00 00 00 00 00 00 00 00 00 00 ................
0040ED00 00 00 00 00 00 00 00 00 00 00 00 00 00 00 00 00 ................
0040ED10 00 00 00 00 00 00 00 00 00 00 00 00 00 00 00 00 ................
0040ED20 00 00 00 00 00 00 00 00 00 00 00 00 00 00 00 00 ................
0040ED30 00 00 00 00 00 00 00 00 00 00 00 00 00 00 00 00 ................
0040ED40 00 00 00 00 00 00 00 00 00 00 00 00 00 00 00 00 ................
0040ED50 00 00 00 00 00 00 00 00 00 00 00 00 00 00 00 00 ................
0040ED60 00 00 00 00 00 00 00 00 00 00 00 00 00 00 00 00 ................
0040ED70 00 00 00 00 00 00 00 00 00 00 00 00 00 00 00 00 ................
0040ED80 00 00 00 00 00 00 00 00 00 00 00 00 00 00 00 00 ................
0040ED90 00 00 00 00 00 00 00 00 00 00 00 00 00 00 00 00 ................
0040EDA0 00 00 00 00 00 00 00 00 00 00 00 00 00 00 00 00 ................
0040EDB0 00 00 00 00 00 00 00 00 00 00 00 00 00 00 00 00 ................
0040EDC0 00 00 00 00 00 00 00 00 00 00 00 00 00 00 00 00 ................
0040EDD0 00 00 00 00 00 00 00 00 00 00 00 00 00 00 00 00 ................
0040EDE0 00 00 00 00 00 00 00 00 00 00 00 00 00 00 00 00 ................
0040EDF0 00 00 00 00 00 00 00 00 00 00 00 00 00 00 00 00 ................
0040EE00 00 00 00 00 00 00 00 00 00 00 00 00 00 00 00 00 ................
0040EE10 00 00 00 00 00 00 00 00 00 00 00 00 00 00 00 00 ................
0040EE20 00 00 00 00 00 00 00 00 00 00 00 00 00 00 00 00 ................
0040EE30 00 00 00 00 00 00 00 00 00 00 00 00 00 00 00 00 ................
0040EE40 00 00 00 00 00 00 00 00 00 00 00 00 00 00 00 00 ................
0040EE50 00 00 00 00 00 00 00 00 00 00 00 00 00 00 00 00 ................
0040EE60 00 00 00 00 00 00 00 00 00 00 00 00 00 00 00 00 ................
0040EE70 00 00 00 00 00 00 00 00 00 00 00 00 00 00 00 00 ................
0040EE80 00 00 00 00 00 00 00 00 00 00 00 00 00 00 00 00 ................
0040EE90 00 00 00 00 00 00 00 00 00 00 00 00 00 00 00 00 ................
0040EEA0 00 00 00 00 00 00 00 00 00 00 00 00 00 00 00 00 ................
0040EEB0 00 00 00 00 00 00 00 00 00 00 00 00 00 00 00 00 ................
0040EEC0 00 00 00 00 00 00 00 00 00 00 00 00 00 00 00 00 ................
0040EED0 00 00 00 00 00 00 00 00 00 00 00 00 00 00 00 00 ................
0040EEE0 00 00 00 00 00 00 00 00 00 00 00 00 00 00 00 00 ................
0040EEF0 00 00 00 00 00 00 00 00 00 00 00 00 00 00 00 00 ................
0040EF00 00 00 00 00 00 00 00 00 00 00 00 00 00 00 00 00 ................
0040EF10 00 00 00 00 00 00 00 00 00 00 00 00 00 00 00 00 ................
0040EF20 00 00 00 00 00 00 00 00 00 00 00 00 00 00 00 00 ................
0040EF30 00 00 00 00 00 00 00 00 00 00 00 00 00 00 00 00 ................
0040EF40 00 00 00 00 00 00 00 00 00 00 00 00 00 00 00 00 ................
0040EF50 00 00 00 00 00 00 00 00 00 00 00 00 00 00 00 00 ................
0040EF60 00 00 00 00 00 00 00 00 00 00 00 00 00 00 00 00 ................
0040EF70 00 00 00 00 00 00 00 00 00 00 00 00 00 00 00 00 ................
0040EF80 00 00 00 00 00 00 00 00 00 00 00 00 00 00 00 00 ................
0040EF90 00 00 00 00 00 00 00 00 00 00 00 00 00 00 00 00 ................
0040EFA0 00 00 00 00 00 00 00 00 00 00 00 00 00 00 00 00 ................
0040EFB0 00 00 00 00 00 00 00 00 00 00 00 00 00 00 00 00 ................
0040EFC0 00 00 00 00 00 00 00 00 00 00 00 00 00 00 00 00 ................
0040EFD0 00 00 00 00 00 00 00 00 00 00 00 00 00 00 00 00 ................
0040EFE0 00 00 00 00 00 00 00 00 00 00 00 00 00 00 00 00 ................
0040EFF0 00 00 00 00 00 00 00 00 00 00 00 00 00 00 00 00 ................
0040F000 20 F2 00 00 32 F2 00 00 4E F2 00 00 5E F2 00 00  ...2...N...^...
0040F010 6E F2 00 00 7E F2 00 00 8A F2 00 00 98 F2 00 00 n...~...........
0040F020 AE F2 00 00 C2 F2 00 00 CE F2 00 00 E0 F2 00 00 ................
0040F030 F2 F2 00 00 02 F3 00 00 1E F3 00 00 2A F3 00 00 ............*...
0040F040 36 F3 00 00 4A F3 00 00 5A F3 00 00 72 F3 00 00 6...J...Z...r...
0040F050 8A F3 00 00 98 F3 00 00 A8 F3 00 00 B8 F3 00 00 ................
0040F060 C8 F3 00 00 DE F3 00 00 EE F3 00 00 00 00 00 00 ................
0040F070 12 F4 00 00 26 F4 00 00 3A F4 00 00 46 F4 00 00 ....&...:...F...
0040F080 52 F4 00 00 66 F4 00 00 72 F4 00 00 80 F4 00 00 R...f...r.......
0040F090 90 F4 00 00 9E F4 00 00 B0 F4 00 00 BC F4 00 00 ................
0040F0A0 C8 F4 00 00 DA F4 00 00 EE F4 00 00 00 F5 00 00 ................
0040F0B0 14 F5 00 00 20 F5 00 00 2C F5 00 00 38 F5 00 00 .... ...,...8...
0040F0C0 48 F5 00 00 58 F5 00 00 64 F5 00 00 70 F5 00 00 H...X...d...p...
0040F0D0 7C F5 00 00 8A F5 00 00 96 F5 00 00 A4 F5 00 00 |...............
0040F0E0 B6 F5 00 00 C2 F5 00 00 D4 F5 00 00 00 00 00 00 ................
0040F0F0 00 00 00 00 30 F1 00 00 00 00 00 00 00 00 00 00 ....0...........
0040F100 04 F4 00 00 00 F0 00 00 A0 F1 00 00 00 00 00 00 ................
0040F110 00 00 00 00 EA F5 00 00 70 F0 00 00 00 00 00 00 ........p.......
0040F120 00 00 00 00 00 00 00 00 00 00 00 00 00 00 00 00 ................
0040F130 20 F2 00 00 32 F2 00 00 4E F2 00 00 5E F2 00 00  ...2...N...^...
0040F140 6E F2 00 00 7E F2 00 00 8A F2 00 00 98 F2 00 00 n...~...........
0040F150 AE F2 00 00 C2 F2 00 00 CE F2 00 00 E0 F2 00 00 ................
0040F160 F2 F2 00 00 02 F3 00 00 1E F3 00 00 2A F3 00 00 ............*...
0040F170 36 F3 00 00 4A F3 00 00 5A F3 00 00 72 F3 00 00 6...J...Z...r...
0040F180 8A F3 00 00 98 F3 00 00 A8 F3 00 00 B8 F3 00 00 ................
0040F190 C8 F3 00 00 DE F3 00 00 EE F3 00 00 00 00 00 00 ................
0040F1A0 12 F4 00 00 26 F4 00 00 3A F4 00 00 46 F4 00 00 ....&...:...F...
0040F1B0 52 F4 00 00 66 F4 00 00 72 F4 00 00 80 F4 00 00 R...f...r.......
0040F1C0 90 F4 00 00 9E F4 00 00 B0 F4 00 00 BC F4 00 00 ................
0040F1D0 C8 F4 00 00 DA F4 00 00 EE F4 00 00 00 F5 00 00 ................
0040F1E0 14 F5 00 00 20 F5 00 00 2C F5 00 00 38 F5 00 00 .... ...,...8...
0040F1F0 48 F5 00 00 58 F5 00 00 64 F5 00 00 70 F5 00 00 H...X...d...p...
0040F200 7C F5 00 00 8A F5 00 00 96 F5 00 00 A4 F5 00 00 |...............
0040F210 B6 F5 00 00 C2 F5 00 00 D4 F5 00 00 00 00 00 00 ................
0040F220 0D 00 47 65 74 43 6F 6D 6D 61 6E 64 4C 69 6E 65 ..GetCommandLine
0040F230 41 00 11 00 49 6E 69 74 69 61 6C 69 7A 65 43 72 A...InitializeCr
0040F240 69 74 69 63 61 6C 53 65 63 74 69 6F 6E 00 17 00 iticalSection...
0040F250 56 69 72 74 75 61 6C 41 6C 6C 6F 63 00 00 1A 00 VirtualAlloc....
0040F260 56 69 72 74 75 61 6C 41 6C 6C 6F 63 00 00 1C 00 VirtualAlloc....
0040F270 4C 6F 61 64 4C 69 62 72 61 72 79 57 00 00 1E 00 LoadLibraryW....
0040F280 57 72 69 74 65 46 69 6C 65 00 1F 00 45 78 69 74 WriteFile...Exit
0040F290 50 72 6F 63 65 73 73 00 22 00 47 65 74 4D 6F 64 Process.".GetMod
0040F2A0 75 6C 65 46 69 6C 65 4E 61 6D 65 41 00 00 27 00 uleFileNameA..'.
0040F2B0 47 65 74 4D 6F 64 75 6C 65 48 61 6E 64 6C 65 57 GetModuleHandleW
0040F2C0 00 00 29 00 6C 73 74 72 63 6D 70 69 57 00 2C 00 ..).lstrcmpiW.,.
0040F2D0 47 65 74 43 6F 6D 6D 61 6E 64 4C 69 6E 65 57 00 GetCommandLineW.
0040F2E0 2F 00 47 65 74 50 72 6F 63 65 73 73 48 65 61 70 /.GetProcessHeap
0040F2F0 00 00 31 00 4C 6F 61 64 4C 69 62 72 61 72 79 57 ..1.LoadLibraryW
0040F300 00 00 32 00 49 6E 69 74 69 61 6C 69 7A 65 43 72 ..2.InitializeCr
0040F310 69 74 69 63 61 6C 53 65 63 74 69 6F 6E 00 37 00 iticalSection.7.
0040F320 48 65 61 70 41 6C 6C 6F 63 00 38 00 6C 73 74 72 HeapAlloc.8.lstr
0040F330 63 6D 70 69 57 00 39 00 47 65 74 43 75 72 72 65 cmpiW.9.GetCurre
0040F340 6E 74 50 72 6F 63 65 73 73 00 3F 00 47 65 74 56 ntProcess.?.GetV
0040F350 65 72 73 69 6F 6E 45 78 41 00 42 00 49 6E 74 65 ersionExA.B.Inte
0040F360 72 6C 6F 63 6B 65 64 49 6E 63 72 65 6D 65 6E 74 rlockedIncrement
0040F370 00 00 44 00 49 6E 74 65 72 6C 6F 63 6B 65 64 44 ..D.InterlockedD
0040F380 65 63 72 65 6D 65 6E 74 00 00 47 00 48 65 61 70 ecrement..G.Heap
0040F390 44 65 73 74 72 6F 79 00 4B 00 56 69 72 74 75 61 Destroy.K.Virtua
0040F3A0 6C 41 6C 6C 6F 63 00 00 4F 00 4C 6F 61 64 4C 69 lAlloc..O.LoadLi
0040F3B0 62 72 61 72 79 57 00 00 50 00 56 69 72 74 75 61 braryW..P.Virtua
0040F3C0 6C 41 6C 6C 6F 63 00 00 51 00 47 65 74 4D 6F 64 lAlloc..Q.GetMod
0040F3D0 75 6C 65 46 69 6C 65 4E 61 6D 65 41 00 00 53 00 uleFileNameA..S.
0040F3E0 47 65 74 56 65 72 73 69 6F 6E 45 78 41 00 58 00 GetVersionExA.X.
0040F3F0 47 65 74 43 75 72 72 65 6E 74 50 72 6F 63 65 73 GetCurrentProces
0040F400 73 49 64 00 4B 45 52 4E 45 4C 33 32 2E 44 4C 4C sId.KERNEL32.DLL
0040F410 00 00 27 00 4C 6F 61 64 41 63 63 65 6C 65 72 61 ..'.LoadAccelera
0040F420 74 6F 72 73 57 00 2A 00 4C 6F 61 64 41 63 63 65 torsW.*.LoadAcce
0040F430 6C 65 72 61 74 6F 72 73 57 00 30 00 53 65 74 54 leratorsW.0.SetT
0040F440 69 6D 65 72 00 00 31 00 53 65 74 54 69 6D 65 72 imer..1.SetTimer
0040F450 00 00 35 00 44 69 73 70 61 74 63 68 4D 65 73 73 ..5.DispatchMess
0040F460 61 67 65 41 00 00 39 00 52 65 6C 65 61 73 65 44 ageA..9.ReleaseD
0040F470 43 00 3D 00 53 68 6F 77 57 69 6E 64 6F 77 00 00 C.=.ShowWindow..
0040F480 3E 00 53 65 6E 64 4D 65 73 73 61 67 65 41 00 00 >.SendMessageA..
0040F490 3F 00 47 65 74 44 6C 67 49 74 65 6D 00 00 41 00 ?.GetDlgItem..A.
0040F4A0 49 6E 76 61 6C 69 64 61 74 65 52 65 63 74 00 00 InvalidateRect..
0040F4B0 45 00 53 65 74 43 75 72 73 6F 72 00 4A 00 47 65 E.SetCursor.J.Ge
0040F4C0 74 46 6F 63 75 73 00 00 50 00 43 68 65 63 6B 44 tFocus..P.CheckD
0040F4D0 6C 67 42 75 74 74 6F 6E 00 00 56 00 44 69 73 70 lgButton..V.Disp
0040F4E0 61 74 63 68 4D 65 73 73 61 67 65 57 00 00 5B 00 atchMessageW..[.
0040F4F0 44 65 66 57 69 6E 64 6F 77 50 72 6F 63 57 00 00 DefWindowProcW..
0040F500 5F 00 44 69 73 70 61 74 63 68 4D 65 73 73 61 67 _.DispatchMessag
0040F510 65 57 00 00 62 00 44 72 61 77 54 65 78 74 57 00 eW..b.DrawTextW.
0040F520 65 00 45 6E 64 50 61 69 6E 74 00 00 66 00 49 73 e.EndPaint..f.Is
0040F530 49 63 6F 6E 69 63 00 00 6A 00 47 65 74 43 75 72 Iconic..j.GetCur
0040F540 73 6F 72 50 6F 73 00 00 6D 00 47 65 74 44 6C 67 sorPos..m.GetDlg
0040F550 43 74 72 6C 49 44 00 00 6E 00 53 65 74 46 6F 63 CtrlID..n.SetFoc
0040F560 75 73 00 00 72 00 47 65 74 57 69 6E 64 6F 77 00 us..r.GetWindow.
0040F570 76 00 44 72 61 77 54 65 78 74 57 00 77 00 44 65 v.DrawTextW.w.De
0040F580 73 74 72 6F 79 4D 65 6E 75 00 79 00 43 68 61 72 stroyMenu.y.Char
0040F590 4E 65 78 74 57 00 7B 00 4C 6F 61 64 49 6D 61 67 NextW.{.LoadImag
0040F5A0 65 57 00 00 81 00 53 65 74 57 69 6E 64 6F 77 54 eW....SetWindowT
0040F5B0 65 78 74 57 00 00 85 00 45 6E 64 44 69 61 6C 6F extW....EndDialo
0040F5C0 67 00 87 00 49 73 57 69 6E 64 6F 77 56 69 73 69 g...IsWindowVisi
0040F5D0 62 6C 65 00 8D 00 49 73 44 6C 67 42 75 74 74 6F ble...IsDlgButto
0040F5E0 6E 43 68 65 63 6B 65 64 00 00 55 53 45 52 33 32 nChecked..USER32
0040F5F0 2E 44 4C 4C 00 00 00 00 00 00 00 00 00 00 00 00 .DLL............
0040F600 00 00 00 00 00 00 00 00 00 00 00 00 00 00 00 00 ................
0040F610 00 00 00 00 00 00 00 00 00 00 00 00 00 00 00 00 ................
0040F620 00 00 00 00 00 00 00 00 00 00 00 00 00 00 00 00 ................
0040F630 00 00 00 00 00 00 00 00 00 00 00 00 00 00 00 00 ................
0040F640 00 00 00 00 00 00 00 00 00 00 00 00 00 00 00 00 ................
0040F650 00 00 00 00 00 00 00 00 00 00 00 00 00 00 00 00 ................
0040F660 00 00 00 00 00 00 00 00 00 00 00 00 00 00 00 00 ................
0040F670 00 00 00 00 00 00 00 00 00 00 00 00 00 00 00 00 ................
0040F680 00 00 00 00 00 00 00 00 00 00 00 00 00 00 00 00 ................
0040F690 00 00 00 00 00 00 00 00 00 00 00 00 00 00 00 00 ................
0040F6A0 00 00 00 00 00 00 00 00 00 00 00 00 00 00 00 00 ................
0040F6B0 00 00 00 00 00 00 00 00 00 00 00 00 00 00 00 00 ................
0040F6C0 00 00 00 00 00 00 00 00 00 00 00 00 00 00 00 00 ................
0040F6D0 00 00 00 00 00 00 00 00 00 00 00 00 00 00 00 00 ................
0040F6E0 00 00 00 00 00 00 00 00 00 00 00 00 00 00 00 00 ................
0040F6F0 00 00 00 00 00 00 00 00 00 00 00 00 00 00 00 00 ................
0040F700 00 00 00 00 00 00 00 00 00 00 00 00 00 00 00 00 ................
0040F710 00 00 00 00 00 00 00 00 00 00 00 00 00 00 00 00 ................
0040F720 00 00 00 00 00 00 00 00 00 00 00 00 00 00 00 00 ................
0040F730 00 00 00 00 00 00 00 00 00 00 00 00 00 00 00 00 ................
0040F740 00 00 00 00 00 00 00 00 00 00 00 00 00 00 00 00 ................
0040F750 00 00 00 00 00 00 00 00 00 00 00 00 00 00 00 00 ................
0040F760 00 00 00 00 00 00 00 00 00 00 00 00 00 00 00 00 ................
0040F770 00 00 00 00 00 00 00 00 00 00 00 00 00 00 00 00 ................
0040F780 00 00 00 00 00 00 00 00 00 00 00 00 00 00 00 00 ................
0040F790 00 00 00 00 00 00 00 00 00 00 00 00 00 00 00 00 ................
0040F7A0 00 00 00 00 00 00 00 00 00 00 00 00 00 00 00 00 ................
0040F7B0 00 00 00 00 00 00 00 00 00 00 00 00 00 00 00 00 ................
0040F7C0 00 00 00 00 00 00 00 00 00 00 00 00 00 00 00 00 ................
0040F7D0 00 00 00 00 00 00 00 00 00 00 00 00 00 00 00 00 ................
0040F7E0 00 00 00 00 00 00 00 00 00 00 00 00 00 00 00 00 ................
0040F7F0 00 00 00 00 00 00 00 00 00 00 00 00 00 00 00 00 ................
0040F800 00 00 00 00 00 00 00 00 00 00 00 00 00 00 00 00 ................
0040F810 00 00 00 00 00 00 00 00 00 00 00 00 00 00 00 00 ................
0040F820 00 00 00 00 00 00 00 00 00 00 00 00 00 00 00 00 ................
0040F830 00 00 00 00 00 00 00 00 00 00 00 00 00 00 00 00 ................
0040F840 00 00 00 00 00 00 00 00 00 00 00 00 00 00 00 00 ................
0040F850 00 00 00 00 00 00 00 00 00 00 00 00 00 00 00 00 ................
0040F860 00 00 00 00 00 00 00 00 00 00 00 00 00 00 00 00 ................
0040F870 00 00 00 00 00 00 00 00 00 00 00 00 00 00 00 00 ................
0040F880 00 00 00 00 00 00 00 00 00 00 00 00 00 00 00 00 ................
0040F890 00 00 00 00 00 00 00 00 00 00 00 00 00 00 00 00 ................
0040F8A0 00 00 00 00 00 00 00 00 00 00 00 00 00 00 00 00 ................
0040F8B0 00 00 00 00 00 00 00 00 00 00 00 00 00 00 00 00 ................
0040F8C0 00 00 00 00 00 00 00 00 00 00 00 00 00 00 00 00 ................
0040F8D0 00 00 00 00 00 00 00 00 00 00 00 00 00 00 00 00 ................
0040F8E0 00 00 00 00 00 00 00 00 00 00 00 00 00 00 00 00 ................
0040F8F0 00 00 00 00 00 00 00 00 00 00 00 00 00 00 00 00 ................
0040F900 00 00 00 00 00 00 00 00 00 00 00 00 00 00 00 00 ................
0040F910 00 00 00 00 00 00 00 00 00 00 00 00 00 00 00 00 ................
0040F920 00 00 00 00 00 00 00 00 00 00 00 00 00 00 00 00 ................
0040F930 00 00 00 00 00 00 00 00 00 00 00 00 00 00 00 00 ................
0040F940 00 00 00 00 00 00 00 00 00 00 00 00 00 00 00 00 ................
0040F950 00 00 00 00 00 00 00 00 00 00 00 00 00 00 00 00 ................
0040F960 00 00 00 00 00 00 00 00 00 00 00 00 00 00 00 00 ................
0040F970 00 00 00 00 00 00 00 00 00 00 00 00 00 00 00 00 ................
0040F980 00 00 00 00 00 00 00 00 00 00 00 00 00 00 00 00 ................
0040F990 00 00 00 00 00 00 00 00 00 00 00 00 00 00 00 00 ................
0040F9A0 00 00 00 00 00 00 00 00 00 00 00 00 00 00 00 00 ................
0040F9B0 00 00 00 00 00 00 00 00 00 00 00 00 00 00 00 00 ................
0040F9C0 00 00 00 00 00 00 00 00 00 00 00 00 00 00 00 00 ................
0040F9D0 00 00 00 00 00 00 00 00 00 00 00 00 00 00 00 00 ................
0040F9E0 00 00 00 00 00 00 00 00 00 00 00 00 00 00 00 00 ................
0040F9F0 00 00 00 00 00 00 00 00 00 00 00 00 00 00 00 00 ................
0040FA00 00 00 00 00 00 00 00 00 00 00 00 00 00 00 00 00 ................
0040FA10 00 00 00 00 00 00 00 00 00 00 00 00 00 00 00 00 ................
0040FA20 00 00 00 00 00 00 00 00 00 00 00 00 00 00 00 00 ................
0040FA30 00 00 00 00 00 00 00 00 00 00 00 00 00 00 00 00 ................
0040FA40 00 00 00 00 00 00 00 00 00 00 00 00 00 00 00 00 ................
0040FA50 00 00 00 00 00 00 00 00 00 00 00 00 00 00 00 00 ................
0040FA60 00 00 00 00 00 00 00 00 00 00 00 00 00 00 00 00 ................
0040FA70 00 00 00 00 00 00 00 00 00 00 00 00 00 00 00 00 ................
0040FA80 00 00 00 00 00 00 00 00 00 00 00 00 00 00 00 00 ................
0040FA90 00 00 00 00 00 00 00 00 00 00 00 00 00 00 00 00 ................
0040FAA0 00 00 00 00 00 00 00 00 00 00 00 00 00 00 00 00 ................
0040FAB0 00 00 00 00 00 00 00 00 00 00 00 00 00 00 00 00 ................
0040FAC0 00 00 00 00 00 00 00 00 00 00 00 00 00 00 00 00 ................
0040FAD0 00 00 00 00 00 00 00 00 00 00 00 00 00 00 00 00 ................
0040FAE0 00 00 00 00 00 00 00 00 00 00 00 00 00 00 00 00 ................
0040FAF0 00 00 00 00 00 00 00 00 00 00 00 00 00 00 00 00 ................
0040FB00 00 00 00 00 00 00 00 00 00 00 00 00 00 00 00 00 ................
0040FB10 00 00 00 00 00 00 00 00 00 00 00 00 00 00 00 00 ................
0040FB20 00 00 00 00 00 00 00 00 00 00 00 00 00 00 00 00 ................
0040FB30 00 00 00 00 00 00 00 00 00 00 00 00 00 00 00 00 ................
0040FB40 00 00 00 00 00 00 00 00 00 00 00 00 00 00 00 00 ................
0040FB50 00 00 00 00 00 00 00 00 00 00 00 00 00 00 00 00 ................
0040FB60 00 00 00 00 00 00 00 00 00 00 00 00 00 00 00 00 ................
0040FB70 00 00 00 00 00 00 00 00 00 00 00 00 00 00 00 00 ................
0040FB80 00 00 00 00 00 00 00 00 00 00 00 00 00 00 00 00 ................
0040FB90 00 00 00 00 00 00 00 00 00 00 00 00 00 00 00 00 ................
0040FBA0 00 00 00 00 00 00 00 00 00 00 00 00 00 00 00 00 ................
0040FBB0 00 00 00 00 00 00 00 00 00 00 00 00 00 00 00 00 ................
0040FBC0 00 00 00 00 00 00 00 00 00 00 00 00 00 00 00 00 ................
0040FBD0 00 00 00 00 00 00 00 00 00 00 00 00 00 00 00 00 ................
0040FBE0 00 00 00 00 00 00 00 00 00 00 00 00 00 00 00 00 ................
0040FBF0 00 00 00 00 00 00 00 00 00 00 00 00 00 00 00 00 ................
0040FC00 00 00 00 00 00 00 00 00 00 00 00 00 00 00 00 00 ................
0040FC10 00 00 00 00 00 00 00 00 00 00 00 00 00 00 00 00 ................
0040FC20 00 00 00 00 00 00 00 00 00 00 00 00 00 00 00 00 ................
0040FC30 00 00 00 00 00 00 00 00 00 00 00 00 00 00 00 00 ................
0040FC40 00 00 00 00 00 00 00 00 00 00 00 00 00 00 00 00 ................
0040FC50 00 00 00 00 00 00 00 00 00 00 00 00 00 00 00 00 ................
0040FC60 00 00 00 00 00 00 00 00 00 00 00 00 00 00 00 00 ................
0040FC70 00 00 00 00 00 00 00 00 00 00 00 00 00 00 00 00 ................
0040FC80 00 00 00 00 00 00 00 00 00 00 00 00 00 00 00 00 ................
0040FC90 00 00 00 00 00 00 00 00 00 00 00 00 00 00 00 00 ................
0040FCA0 00 00 00 00 00 00 00 00 00 00 00 00 00 00 00 00 ................
0040FCB0 00 00 00 00 00 00 00 00 00 00 00 00 00 00 00 00 ................
0040FCC0 00 00 00 00 00 00 00 00 00 00 00 00 00 00 00 00 ................
0040FCD0 00 00 00 00 00 00 00 00 00 00 00 00 00 00 00 00 ................
0040FCE0 00 00 00 00 00 00 00 00 00 00 00 00 00 00 00 00 ................
0040FCF0 00 00 00 00 00 00 00 00 00 00 00 00 00 00 00 00 ................
0040FD00 00 00 00 00 00 00 00 00 00 00 00 00 00 00 00 00 ................
0040FD10 00 00 00 00 00 00 00 00 00 00 00 00 00 00 00 00 ................
0040FD20 00 00 00 00 00 00 00 00 00 00 00 00 00 00 00 00 ................
0040FD30 00 00 00 00 00 00 00 00 00 00 00 00 00 00 00 00 ................
0040FD40 00 00 00 00 00 00 00 00 00 00 00 00 00 00 00 00 ................
0040FD50 00 00 00 00 00 00 00 00 00 00 00 00 00 00 00 00 ................
0040FD60 00 00 00 00 00 00 00 00 00 00 00 00 00 00 00 00 ................
0040FD70 00 00 00 00 00 00 00 00 00 00 00 00 00 00 00 00 ................
0040FD80 00 00 00 00 00 00 00 00 00 00 00 00 00 00 00 00 ................
0040FD90 00 00 00 00 00 00 00 00 00 00 00 00 00 00 00 00 ................
0040FDA0 00 00 00 00 00 00 00 00 00 00 00 00 00 00 00 00 ................
0040FDB0 00 00 00 00 00 00 00 00 00 00 00 00 00 00 00 00 ................
0040FDC0 00 00 00 00 00 00 00 00 00 00 00 00 00 00 00 00 ................
0040FDD0 00 00 00 00 00 00 00 00 00 00 00 00 00 00 00 00 ................
0040FDE0 00 00 00 00 00 00 00 00 00 00 00 00 00 00 00 00 ................
0040FDF0 00 00 00 00 00 00 00 00 00 00 00 00 00 00 00 00 ................
0040FE00 00 00 00 00 00 00 00 00 00 00 00 00 00 00 00 00 ................
0040FE10 00 00 00 00 00 00 00 00 00 00 00 00 00 00 00 00 ................
0040FE20 00 00 00 00 00 00 00 00 00 00 00 00 00 00 00 00 ................
0040FE30 00 00 00 00 00 00 00 00 00 00 00 00 00 00 00 00 ................
0040FE40 00 00 00 00 00 00 00 00 00 00 00 00 00 00 00 00 ................
0040FE50 00 00 00 00 00 00 00 00 00 00 00 00 00 00 00 00 ................
0040FE60 00 00 00 00 00 00 00 00 00 00 00 00 00 00 00 00 ................
0040FE70 00 00 00 00 00 00 00 00 00 00 00 00 00 00 00 00 ................
0040FE80 00 00 00 00 00 00 00 00 00 00 00 00 00 00 00 00 ................
0040FE90 00 00 00 00 00 00 00 00 00 00 00 00 00 00 00 00 ................
0040FEA0 00 00 00 00 00 00 00 00 00 00 00 00 00 00 00 00 ................
0040FEB0 00 00 00 00 00 00 00 00 00 00 00 00 00 00 00 00 ................
0040FEC0 00 00 00 00 00 00 00 00 00 00 00 00 00 00 00 00 ................
0040FED0 00 00 00 00 00 00 00 00 00 00 00 00 00 00 00 00 ................
0040FEE0 00 00 00 00 00 00 00 00 00 00 00 00 00 00 00 00 ................
0040FEF0 00 00 00 00 00 00 00 00 00 00 00 00 00 00 00 00 ................
0040FF00 00 00 00 00 00 00 00 00 00 00 00 00 00 00 00 00 ................
0040FF10 00 00 00 00 00 00 00 00 00 00 00 00 00 00 00 00 ................
0040FF20 00 00 00 00 00 00 00 00 00 00 00 00 00 00 00 00 ................
0040FF30 00 00 00 00 00 00 00 00 00 00 00 00 00 00 00 00 ................
0040FF40 00 00 00 00 00 00 00 00 00 00 00 00 00 00 00 00 ................
0040FF50 00 00 00 00 00 00 00 00 00 00 00 00 00 00 00 00 ................
0040FF60 00 00 00 00 00 00 00 00 00 00 00 00 00 00 00 00 ................
0040FF70 00 00 00 00 00 00 00 00 00 00 00 00 00 00 00 00 ................
0040FF80 00 00 00 00 00 00 00 00 00 00 00 00 00 00 00 00 ................
0040FF90 00 00 00 00 00 00 00 00 00 00 00 00 00 00 00 00 ................
0040FFA0 00 00 00 00 00 00 00 00 00 00 00 00 00 00 00 00 ................
0040FFB0 00 00 00 00 00 00 00 00 00 00 00 00 00 00 00 00 ................
0040FFC0 00 00 00 00 00 00 00 00 00 00 00 00 00 00 00 00 ................
0040FFD0 00 00 00 00 00 00 00 00 00 00 00 00 00 00 00 00 ................
0040FFE0 00 00 00 00 00 00 00 00 00 00 00 00 00 00 00 00 ................
0040FFF0 00 00 00 00 00 00 00 00 00 00 00 00 00 00 00 00 ................
00410000 00 00 00 00 00 00 00 00 00 00 00 00 00 00 03 00 ................
00410010 03 00 00 00 28 00 00 80 0E 00 00 00 40 00 00 80 ....(.......@...
00410020 10 00 00 00 58 00 00 80 00 00 00 00 00 00 00 00 ....X...........
00410030 00 00 00 00 00 00 01 00 01 00 00 00 70 00 00 80 ............p...
00410040 00 00 00 00 00 00 00 00 00 00 00 00 00 00 01 00 ................
00410050 18 0A 00 00 88 00 00 80 00 00 00 00 00 00 00 00 ................
00410060 00 00 00 00 00 00 01 00 43 C1 00 00 A0 00 00 80 ........C.......
00410070 00 00 00 00 00 00 00 00 00 00 00 00 00 00 01 00 ................
00410080 19 04 00 00 B8 00 00 00 00 00 00 00 00 00 00 00 ................
00410090 00 00 00 00 00 00 01 00 19 04 00 00 C8 00 00 00 ................
004100A0 00 00 00 00 00 00 00 00 00 00 00 00 00 00 01 00 ................
004100B0 19 04 00 00 D8 00 00 00 E8 00 01 00 A8 08 00 00 ................
004100C0 00 00 00 00 00 00 00 00 90 09 01 00 14 00 00 00 ................
004100D0 00 00 00 00 00 00 00 00 A4 09 01 00 EC 02 00 00 ................
004100E0 00 00 00 00 00 00 00 00 28 00 00 00 20 00 00 00 ........(... ...
004100F0 40 00 00 00 01 00 08 00 00 00 00 00 00 04 00 00 @...............
00410100 00 00 00 00 00 00 00 00 00 00 00 00 00 00 00 00 ................
00410110 00 00 00 00 00 00 80 00 00 80 00 00 00 80 80 00 ................
00410120 80 00 00 00 80 00 80 00 80 80 00 00 C0 C0 C0 00 ................
00410130 C0 DC C0 00 F0 CA A6 00 00 20 40 00 00 20 60 00 ......... @.. `.
00410140 00 20 80 00 00 20 A0 00 00 20 C0 00 00 20 E0 00 . ... ... ... ..
00410150 00 40 00 00 00 40 20 00 00 40 40 00 00 40 60 00 .@...@ ..@@..@`.
00410160 00 40 80 00 00 40 A0 00 00 40 C0 00 00 40 E0 00 .@...@...@...@..
00410170 00 60 00 00 00 60 20 00 00 60 40 00 00 60 60 00 .`...` ..`@..``.
00410180 00 60 80 00 00 60 A0 00 00 60 C0 00 00 60 E0 00 .`...`...`...`..
00410190 00 80 00 00 00 80 20 00 00 80 40 00 00 80 60 00 ...... ...@...`.
004101A0 00 80 80 00 00 80 A0 00 00 80 C0 00 00 80 E0 00 ................
004101B0 00 A0 00 00 00 A0 20 00 00 A0 40 00 00 A0 60 00 ...... ...@...`.
004101C0 00 A0 80 00 00 A0 A0 00 00 A0 C0 00 00 A0 E0 00 ................
004101D0 00 C0 00 00 00 C0 20 00 00 C0 40 00 00 C0 60 00 ...... ...@...`.
004101E0 00 C0 80 00 00 C0 A0 00 00 C0 C0 00 00 C0 E0 00 ................
004101F0 00 E0 00 00 00 E0 20 00 00 E0 40 00 00 E0 60 00 ...... ...@...`.
00410200 00 E0 80 00 00 E0 A0 00 00 E0 C0 00 00 E0 E0 00 ................
00410210 40 00 00 00 40 00 20 00 40 00 40 00 40 00 60 00 @...@. .@.@.@.`.
00410220 40 00 80 00 40 00 A0 00 40 00 C0 00 40 00 E0 00 @...@...@...@...
00410230 40 20 00 00 40 20 20 00 40 20 40 00 40 20 60 00 @ ..@  .@ @.@ `.
00410240 40 20 80 00 40 20 A0 00 40 20 C0 00 40 20 E0 00 @ ..@ ..@ ..@ ..
00410250 40 40 00 00 40 40 20 00 40 40 40 00 40 40 60 00 @@..@@ .@@@.@@`.
00410260 40 40 80 00 40 40 A0 00 40 40 C0 00 40 40 E0 00 @@..@@..@@..@@..
00410270 40 60 00 00 40 60 20 00 40 60 40 00 40 60 60 00 @`..@` .@`@.@``.
00410280 40 60 80 00 40 60 A0 00 40 60 C0 00 40 60 E0 00 @`..@`..@`..@`..
00410290 40 80 00 00 40 80 20 00 40 80 40 00 40 80 60 00 @...@. .@.@.@.`.
004102A0 40 80 80 00 40 80 A0 00 40 80 C0 00 40 80 E0 00 @...@...@...@...
004102B0 40 A0 00 00 40 A0 20 00 40 A0 40 00 40 A0 60 00 @...@. .@.@.@.`.
004102C0 40 A0 80 00 40 A0 A0 00 40 A0 C0 00 40 A0 E0 00 @...@...@...@...
004102D0 40 C0 00 00 40 C0 20 00 40 C0 40 00 40 C0 60 00 @...@. .@.@.@.`.
004102E0 40 C0 80 00 40 C0 A0 00 40 C0 C0 00 40 C0 E0 00 @...@...@...@...
004102F0 40 E0 00 00 40 E0 20 00 40 E0 40 00 40 E0 60 00 @...@. .@.@.@.`.
00410300 40 E0 80 00 40 E0 A0 00 40 E0 C0 00 40 E0 E0 00 @...@...@...@...
00410310 80 00 00 00 80 00 20 00 80 00 40 00 80 00 60 00 ...... ...@...`.
00410320 80 00 80 00 80 00 A0 00 80 00 C0 00 80 00 E0 00 ................
00410330 80 20 00 00 80 20 20 00 80 20 40 00 80 20 60 00 . ...  .. @.. `.
00410340 80 20 80 00 80 20 A0 00 80 20 C0 00 80 20 E0 00 . ... ... ... ..
00410350 80 40 00 00 80 40 20 00 80 40 40 00 80 40 60 00 .@...@ ..@@..@`.
00410360 80 40 80 00 80 40 A0 00 80 40 C0 00 80 40 E0 00 .@...@...@...@..
00410370 80 60 00 00 80 60 20 00 80 60 40 00 80 60 60 00 .`...` ..`@..``.
00410380 80 60 80 00 80 60 A0 00 80 60 C0 00 80 60 E0 00 .`...`...`...`..
00410390 80 80 00 00 80 80 20 00 80 80 40 00 80 80 60 00 ...... ...@...`.
004103A0 80 80 80 00 80 80 A0 00 80 80 C0 00 80 80 E0 00 ................
004103B0 80 A0 00 00 80 A0 20 00 80 A0 40 00 80 A0 60 00 ...... ...@...`.
004103C0 80 A0 80 00 80 A0 A0 00 80 A0 C0 00 80 A0 E0 00 ................
004103D0 80 C0 00 00 80 C0 20 00 80 C0 40 00 80 C0 60 00 ...... ...@...`.
004103E0 80 C0 80 00 80 C0 A0 00 80 C0 C0 00 80 C0 E0 00 ................
004103F0 80 E0 00 00 80 E0 20 00 80 E0 40 00 80 E0 60 00 ...... ...@...`.
00410400 80 E0 80 00 80 E0 A0 00 80 E0 C0 00 80 E0 E0 00 ................
00410410 C0 00 00 00 C0 00 20 00 C0 00 40 00 C0 00 60 00 ...... ...@...`.
00410420 C0 00 80 00 C0 00 A0 00 C0 00 C0 00 C0 00 E0 00 ................
00410430 C0 20 00 00 C0 20 20 00 C0 20 40 00 C0 20 60 00 . ...  .. @.. `.
00410440 C0 20 80 00 C0 20 A0 00 C0 20 C0 00 C0 20 E0 00 . ... ... ... ..
00410450 C0 40 00 00 C0 40 20 00 C0 40 40 00 C0 40 60 00 .@...@ ..@@..@`.
00410460 C0 40 80 00 C0 40 A0 00 C0 40 C0 00 C0 40 E0 00 .@...@...@...@..
00410470 C0 60 00 00 C0 60 20 00 C0 60 40 00 C0 60 60 00 .`...` ..`@..``.
00410480 C0 60 80 00 C0 60 A0 00 C0 60 C0 00 C0 60 E0 00 .`...`...`...`..
00410490 C0 80 00 00 C0 80 20 00 C0 80 40 00 C0 80 60 00 ...... ...@...`.
004104A0 C0 80 80 00 C0 80 A0 00 C0 80 C0 00 C0 80 E0 00 ................
004104B0 C0 A0 00 00 C0 A0 20 00 C0 A0 40 00 C0 A0 60 00 ...... ...@...`.
004104C0 C0 A0 80 00 C0 A0 A0 00 C0 A0 C0 00 C0 A0 E0 00 ................
004104D0 C0 C0 00 00 C0 C0 20 00 C0 C0 40 00 C0 C0 60 00 ...... ...@...`.
004104E0 C0 C0 80 00 C0 C0 A0 00 F0 FB FF 00 A4 A0 A0 00 ................
004104F0 80 80 80 00 00 00 FF 00 00 FF 00 00 00 FF FF 00 ................
00410500 FF 00 00 00 FF 00 FF 00 FF FF 00 00 FF FF FF 00 ................
00410510 00 00 00 00 00 00 00 00 00 00 00 00 00 00 00 00 ................
00410520 00 00 00 00 00 00 00 00 00 00 00 00 00 00 00 00 ................
00410530 00 00 00 00 00 00 ED A3 9A 9A 92 92 92 92 92 92 ................
00410540 92 92 92 92 92 92 92 92 92 92 92 92 92 92 92 00 ................
00410550 00 00 00 00 00 00 ED F6 07 09 09 09 09 09 09 09 ................
00410560 09 09 EC 09 09 EC EC EC EC EB EB EB EB EB 92 00 ................
00410570 00 00 00 00 00 00 ED F6 F6 F6 F6 F6 F6 F6 F6 F6 ................
00410580 F6 F6 F6 F6 F6 F6 F6 F6 09 09 09 09 09 EB 92 00 ................
00410590 00 00 00 00 00 00 ED F6 F6 F6 F6 F6 F6 F6 F6 F6 ................
004105A0 F6 F6 F6 F6 F6 F6 F6 F6 F6 F6 09 09 09 EB 92 00 ................
004105B0 00 00 00 00 00 00 ED F6 F6 F5 F5 ED ED EC EC EC ................
004105C0 E3 E3 E3 E3 E3 E3 E3 E3 E3 E3 F6 F6 09 EB 92 00 ................
004105D0 00 00 00 00 00 00 ED FF FF F5 FF FF FF F6 EC F6 ................
004105E0 F6 EC FF E3 F6 F6 EC FF E3 F6 F6 F6 F6 EB 92 00 ................
004105F0 00 00 00 00 00 00 ED FF FF F5 FF FF FF FF ED FF ................
00410600 FF EC FF E3 F6 F6 EC FF E3 F6 F6 F6 F6 EC 92 00 ................
00410610 00 00 00 00 00 00 ED FF FF F5 F5 F5 F5 F5 F5 ED ................
00410620 FF EC FF E3 F6 F6 EC FF E3 F6 F6 F6 F6 EC 92 00 ................
00410630 00 00 00 00 00 00 ED FF FF 09 FF FF FF FF F5 FF ................
00410640 FF ED FF E3 EC EC EC FF E3 F6 F6 F6 F6 EC 92 00 ................
00410650 00 00 00 00 00 00 ED FF FF 09 FF FF FF FF F5 FF ................
00410660 FF F5 FF E3 FF FF EC FF E3 F6 F6 F6 F6 EC 92 00 ................
00410670 00 00 00 00 00 00 ED FF FF 09 09 09 09 09 F5 F5 ................
00410680 FF F5 F5 E3 FF FF EC FF E3 F6 F6 F6 F6 EC 92 00 ................
00410690 00 00 00 00 00 00 ED FF FF 09 FF FF FF FF 09 FF ................
004106A0 FF FF FF FF FF FF ED ED E3 F6 F6 F6 F6 09 92 00 ................
004106B0 00 00 00 00 00 00 ED 08 08 ED 07 07 07 ED ED 08 ................
004106C0 FF FF FF F5 FF FF FF FF FF FF F6 F6 F6 09 92 00 ................
004106D0 00 00 00 00 00 00 F7 F7 F5 07 07 08 08 F6 08 ED ................
004106E0 EC 09 F5 F5 F5 F5 F5 F5 ED FF FF F6 F6 EC 92 00 ................
004106F0 00 19 18 AC 08 08 FF FF FF F6 F6 F6 F6 F6 08 07 ................
00410700 F6 FF FF 09 FF FF FF FF F5 FF FF FF F6 09 92 00 ................
00410710 00 19 B5 08 FF FF FF FF F6 F6 B5 1A 1A F6 F6 07 ................
00410720 F6 FF FF 09 FF FF FF FF F5 FF FF FF FF 09 92 00 ................
00410730 00 19 07 AC FF 08 B4 B4 B4 AB 22 1A 6B F6 F6 ED ..........".k...
00410740 F5 09 09 09 09 09 09 F5 F5 FF FF FF FF 09 92 00 ................
00410750 00 19 08 62 FF FF 08 B4 B4 62 1A 6C AB B5 F6 07 ...b.....b.l....
00410760 08 FF FF 09 FF FF FF FF F5 FF FF FF FF 09 92 00 ................
00410770 00 19 08 19 F6 FF FF 08 6B 1A 22 08 FF F6 F6 07 ........k.".....
00410780 08 FF FF 09 FF FF FF FF 09 FF FF FF FF 09 92 00 ................
00410790 00 21 08 19 07 FF FF 08 22 22 6B B4 F5 F6 F6 07 .!......""k.....
004107A0 F5 09 09 09 09 09 09 09 09 FF FF FF FF 09 92 00 ................
004107B0 00 21 08 19 AC FF F6 22 1A B5 F6 B4 B4 B4 F6 08 .!....."........
004107C0 08 FF FF 09 FF FF FF FF 09 FF FF FF FF 09 92 00 ................
004107D0 00 21 08 AC B4 FF 63 62 6C FF FF FF FF FF FF 08 .!....cbl.......
004107E0 08 FF FF 09 FF FF FF FF 07 09 09 09 09 09 92 00 ................
004107F0 00 61 08 B4 B4 FF FF FF FF FF FF FF FF FF FF F6 .a..............
00410800 07 09 09 09 09 09 09 ED A3 A3 9B 9A 9A 9A 92 00 ................
00410810 00 61 08 B5 B4 08 08 08 08 08 08 F5 B5 08 6B FF .a............k.
00410820 FF FF FF FF FF FF FF ED 09 09 09 09 09 92 F6 00 ................
00410830 00 61 B5 F6 B5 B5 B5 B5 B5 B5 B5 B5 B5 F6 61 FF .a............a.
00410840 FF FF FF FF FF FF FF ED F6 F6 09 09 92 F6 F6 00 ................
00410850 00 61 61 08 F6 08 BD BD BD BD BD BD B5 F6 61 F6 .aa...........a.
00410860 09 09 09 FF FF FF FF F5 F6 F6 09 92 F6 F6 00 00 ................
00410870 00 00 61 61 B5 08 F6 F6 F6 F6 F6 F6 F6 F6 61 FF ..aa..........a.
00410880 FF FF FF FF FF FF FF F5 F6 F6 9A F6 F6 00 00 00 ................
00410890 00 00 00 61 61 61 61 61 61 61 61 61 61 61 61 FF ...aaaaaaaaaaaa.
004108A0 FF FF FF FF FF FF FF F5 F6 9B F6 F6 00 00 00 00 ................
004108B0 00 00 00 00 00 00 07 FF FF FF FF FF FF FF FF FF ................
004108C0 FF FF FF FF FF FF FF F5 A4 F6 F6 00 00 00 00 00 ................
004108D0 00 00 00 00 00 00 07 07 07 07 07 F5 F5 F5 F5 F5 ................
004108E0 F5 F5 F5 F5 F5 F5 F5 F5 F6 F6 00 00 00 00 00 00 ................
004108F0 00 00 00 00 00 00 00 00 00 00 00 00 00 00 00 00 ................
00410900 00 00 00 00 00 00 00 00 00 00 00 00 00 00 00 00 ................
00410910 FF FF FF FF FC 00 00 01 FC 00 00 01 FC 00 00 01 ................
00410920 FC 00 00 01 FC 00 00 01 FC 00 00 01 FC 00 00 01 ................
00410930 FC 00 00 01 FC 00 00 01 FC 00 00 01 FC 00 00 01 ................
00410940 FC 00 00 01 C0 00 00 01 C0 00 00 01 80 00 00 01 ................
00410950 80 00 00 01 80 00 00 01 80 00 00 01 80 00 00 01 ................
00410960 80 00 00 01 80 00 00 01 80 00 00 01 80 00 00 01 ................
00410970 80 00 00 01 80 00 00 01 80 00 00 03 C0 00 00 07 ................
00410980 E0 00 00 0F FC 00 00 1F FC 00 00 3F FF FF FF FF ...........?....
00410990 00 00 01 00 01 00 20 20 08 00 00 00 00 00 A8 08 ......  ........
004109A0 00 00 01 00 EC 02 34 00 00 00 56 00 53 00 5F 00 ......4...V.S._.
004109B0 56 00 45 00 52 00 53 00 49 00 4F 00 4E 00 5F 00 V.E.R.S.I.O.N._.
004109C0 49 00 4E 00 46 00 4F 00 00 00 00 00 BD 04 EF FE I.N.F.O.........
004109D0 00 00 01 00 A5 F3 77 E7 A5 F3 77 E7 A5 F3 77 E7 ......w...w...w.
004109E0 A5 F3 77 E7 A5 F3 00 00 00 00 00 00 04 00 04 00 ..w.............
004109F0 01 00 00 00 00 00 00 00 00 00 00 00 00 00 00 00 ................
00410A00 4C 02 00 00 00 00 53 00 74 00 72 00 69 00 6E 00 L.....S.t.r.i.n.
00410A10 67 00 46 00 69 00 6C 00 65 00 49 00 6E 00 66 00 g.F.i.l.e.I.n.f.
00410A20 6F 00 00 00 28 02 00 00 00 00 30 00 38 00 30 00 o...(.....0.8.0.
00410A30 30 00 30 00 34 00 42 00 30 00 00 00 44 00 11 00 0.0.4.B.0...D...
00410A40 01 00 43 00 6F 00 6D 00 70 00 61 00 6E 00 79 00 ..C.o.m.p.a.n.y.
00410A50 4E 00 61 00 6D 00 65 00 00 00 00 00 67 00 64 00 N.a.m.e.....g.d.
00410A60 6C 00 77 00 54 00 62 00 52 00 51 00 68 00 59 00 l.w.T.b.R.Q.h.Y.
00410A70 6E 00 47 00 52 00 53 00 58 00 38 00 00 00 00 00 n.G.R.S.X.8.....
00410A80 48 00 0F 00 01 00 46 00 69 00 6C 00 65 00 44 00 H.....F.i.l.e.D.
00410A90 65 00 73 00 63 00 72 00 69 00 70 00 74 00 69 00 e.s.c.r.i.p.t.i.
00410AA0 6F 00 6E 00 00 00 00 00 34 00 53 00 4A 00 63 00 o.n.....4.S.J.c.
00410AB0 41 00 4E 00 76 00 50 00 4F 00 71 00 4D 00 66 00 A.N.v.P.O.q.M.f.
00410AC0 77 00 56 00 00 00 00 00 3C 00 0D 00 01 00 46 00 w.V.....<.....F.
00410AD0 69 00 6C 00 65 00 56 00 65 00 72 00 73 00 69 00 i.l.e.V.e.r.s.i.
00410AE0 6F 00 6E 00 00 00 00 00 55 00 56 00 31 00 64 00 o.n.....U.V.1.d.
00410AF0 43 00 78 00 61 00 66 00 59 00 45 00 35 00 35 00 C.x.a.f.Y.E.5.5.
00410B00 00 00 00 00 3C 00 0D 00 01 00 49 00 6E 00 74 00 ....<.....I.n.t.
00410B10 65 00 72 00 6E 00 61 00 6C 00 4E 00 61 00 6D 00 e.r.n.a.l.N.a.m.
00410B20 65 00 00 00 48 00 51 00 46 00 77 00 48 00 4A 00 e...H.Q.F.w.H.J.
00410B30 69 00 6D 00 4D 00 66 00 4F 00 76 00 00 00 00 00 i.m.M.f.O.v.....
00410B40 40 00 0E 00 01 00 4C 00 65 00 67 00 61 00 6C 00 @.....L.e.g.a.l.
00410B50 43 00 6F 00 70 00 79 00 72 00 69 00 67 00 68 00 C.o.p.y.r.i.g.h.
00410B60 74 00 00 00 41 00 67 00 62 00 6F 00 70 00 6B 00 t...A.g.b.o.p.k.
00410B70 65 00 6D 00 44 00 6B 00 68 00 63 00 58 00 00 00 e.m.D.k.h.c.X...
00410B80 44 00 0E 00 01 00 4F 00 72 00 69 00 67 00 69 00 D.....O.r.i.g.i.
00410B90 6E 00 61 00 6C 00 46 00 69 00 6C 00 65 00 6E 00 n.a.l.F.i.l.e.n.
00410BA0 61 00 6D 00 65 00 00 00 6D 00 68 00 54 00 62 00 a.m.e...m.h.T.b.
00410BB0 70 00 6B 00 79 00 51 00 33 00 6C 00 4F 00 64 00 p.k.y.Q.3.l.O.d.
00410BC0 58 00 00 00 48 00 13 00 01 00 50 00 72 00 6F 00 X...H.....P.r.o.
00410BD0 64 00 75 00 63 00 74 00 4E 00 61 00 6D 00 65 00 d.u.c.t.N.a.m.e.
00410BE0 00 00 00 00 54 00 58 00 66 00 44 00 57 00 4D 00 ....T.X.f.D.W.M.
00410BF0 31 00 77 00 4B 00 4E 00 75 00 6D 00 6E 00 74 00 1.w.K.N.u.m.n.t.
00410C00 62 00 73 00 66 00 64 00 00 00 00 00 40 00 0D 00 b.s.f.d.....@...
00410C10 01 00 50 00 72 00 6F 00 64 00 75 00 63 00 74 00 ..P.r.o.d.u.c.t.
00410C20 56 00 65 00 72 00 73 00 69 00 6F 00 6E 00 00 00 V.e.r.s.i.o.n...
00410C30 51 00 6A 00 41 00 31 00 4C 00 35 00 32 00 54 00 Q.j.A.1.L.5.2.T.
00410C40 42 00 78 00 6C 00 76 00 00 00 00 00 44 00 00 00 B.x.l.v.....D...
00410C50 00 00 56 00 61 00 72 00 46 00 69 00 6C 00 65 00 ..V.a.r.F.i.l.e.
00410C60 49 00 6E 00 66 00 6F 00 00 00 00 00 24 00 04 00 I.n.f.o.....$...
00410C70 00 00 54 00 72 00 61 00 6E 00 73 00 6C 00 61 00 ..T.r.a.n.s.l.a.
00410C80 74 00 69 00 6F 00 6E 00 00 00 00 00 00 08 B0 04 t.i.o.n.........
00410C90 00 00 00 00 00 00 00 00 00 00 00 00 00 00 00 00 ................
00410CA0 00 00 00 00 00 00 00 00 00 00 00 00 00 00 00 00 ................
00410CB0 00 00 00 00 00 00 00 00 00 00 00 00 00 00 00 00 ................
00410CC0 00 00 00 00 00 00 00 00 00 00 00 00 00 00 00 00 ................
00410CD0 00 00 00 00 00 00 00 00 00 00 00 00 00 00 00 00 ................
00410CE0 00 00 00 00 00 00 00 00 00 00 00 00 00 00 00 00 ................
00410CF0 00 00 00 00 00 00 00 00 00 00 00 00 00 00 00 00 ................
00410D00 00 00 00 00 00 00 00 00 00 00 00 00 00 00 00 00 ................
00410D10 00 00 00 00 00 00 00 00 00 00 00 00 00 00 00 00 ................
00410D20 00 00 00 00 00 00 00 00 00 00 00 00 00 00 00 00 ................
00410D30 00 00 00 00 00 00 00 00 00 00 00 00 00 00 00 00 ................
00410D40 00 00 00 00 00 00 00 00 00 00 00 00 00 00 00 00 ................
00410D50 00 00 00 00 00 00 00 00 00 00 00 00 00 00 00 00 ................
00410D60 00 00 00 00 00 00 00 00 00 00 00 00 00 00 00 00 ................
00410D70 00 00 00 00 00 00 00 00 00 00 00 00 00 00 00 00 ................
00410D80 00 00 00 00 00 00 00 00 00 00 00 00 00 00 00 00 ................
00410D90 00 00 00 00 00 00 00 00 00 00 00 00 00 00 00 00 ................
00410DA0 00 00 00 00 00 00 00 00 00 00 00 00 00 00 00 00 ................
00410DB0 00 00 00 00 00 00 00 00 00 00 00 00 00 00 00 00 ................
00410DC0 00 00 00 00 00 00 00 00 00 00 00 00 00 00 00 00 ................
00410DD0 00 00 00 00 00 00 00 00 00 00 00 00 00 00 00 00 ................
00410DE0 00 00 00 00 00 00 00 00 00 00 00 00 00 00 00 00 ................
00410DF0 00 00 00 00 00 00 00 00 00 00 00 00 00 00 00 00 ................
00410E00 00 00 00 00 00 00 00 00 00 00 00 00 00 00 00 00 ................
00410E10 00 00 00 00 00 00 00 00 00 00 00 00 00 00 00 00 ................
00410E20 00 00 00 00 00 00 00 00 00 00 00 00 00 00 00 00 ................
00410E30 00 00 00 00 00 00 00 00 00 00 00 00 00 00 00 00 ................
00410E40 00 00 00 00 00 00 00 00 00 00 00 00 00 00 00 00 ................
00410E50 00 00 00 00 00 00 00 00 00 00 00 00 00 00 00 00 ................
00410E60 00 00 00 00 00 00 00 00 00 00 00 00 00 00 00 00 ................
00410E70 00 00 00 00 00 00 00 00 00 00 00 00 00 00 00 00 ................
00410E80 00 00 00 00 00 00 00 00 00 00 00 00 00 00 00 00 ................
00410E90 00 00 00 00 00 00 00 00 00 00 00 00 00 00 00 00 ................
00410EA0 00 00 00 00 00 00 00 00 00 00 00 00 00 00 00 00 ................
00410EB0 00 00 00 00 00 00 00 00 00 00 00 00 00 00 00 00 ................
00410EC0 00 00 00 00 00 00 00 00 00 00 00 00 00 00 00 00 ................
00410ED0 00 00 00 00 00 00 00 00 00 00 00 00 00 00 00 00 ................
00410EE0 00 00 00 00 00 00 00 00 00 00 00 00 00 00 00 00 ................
00410EF0 00 00 00 00 00 00 00 00 00 00 00 00 00 00 00 00 ................
00410F00 00 00 00 00 00 00 00 00 00 00 00 00 00 00 00 00 ................
00410F10 00 00 00 00 00 00 00 00 00 00 00 00 00 00 00 00 ................
00410F20 00 00 00 00 00 00 00 00 00 00 00 00 00 00 00 00 ................
00410F30 00 00 00 00 00 00 00 00 00 00 00 00 00 00 00 00 ................
00410F40 00 00 00 00 00 00 00 00 00 00 00 00 00 00 00 00 ................
00410F50 00 00 00 00 00 00 00 00 00 00 00 00 00 00 00 00 ................
00410F60 00 00 00 00 00 00 00 00 00 00 00 00 00 00 00 00 ................
00410F70 00 00 00 00 00 00 00 00 00 00 00 00 00 00 00 00 ................
00410F80 00 00 00 00 00 00 00 00 00 00 00 00 00 00 00 00 ................
00410F90 00 00 00 00 00 00 00 00 00 00 00 00 00 00 00 00 ................
00410FA0 00 00 00 00 00 00 00 00 00 00 00 00 00 00 00 00 ................
00410FB0 00 00 00 00 00 00 00 00 00 00 00 00 00 00 00 00 ................
00410FC0 00 00 00 00 00 00 00 00 00 00 00 00 00 00 00 00 ................
00410FD0 00 00 00 00 00 00 00 00 00 00 00 00 00 00 00 00 ................
00410FE0 00 00 00 00 00 00 00 00 00 00 00 00 00 00 00 00 ................
00410FF0 00 00 00 00 00 00 00 00 00 00 00 00 00 00 00 00 ................
00411000 
...end of image
