00400000 00 00 00 00 00 00 00 00 00 00 00 00 00 00 00 00 ................
00400010 00 00 00 00 00 00 00 00 00 00 00 00 00 00 00 00 ................
00400020 00 00 00 00 00 00 00 00 00 00 00 00 00 00 00 00 ................
00400030 00 00 00 00 00 00 00 00 00 00 00 00 00 00 00 00 ................
00400040 00 00 00 00 00 00 00 00 00 00 00 00 00 00 00 00 ................
00400050 00 00 00 00 00 00 00 00 00 00 00 00 00 00 00 00 ................
00400060 00 00 00 00 00 00 00 00 00 00 00 00 00 00 00 00 ................
00400070 00 00 00 00 00 00 00 00 00 00 00 00 00 00 00 00 ................
00400080 00 00 00 00 00 00 00 00 00 00 00 00 00 00 00 00 ................
00400090 00 00 00 00 00 00 00 00 00 00 00 00 00 00 00 00 ................
004000A0 00 00 00 00 00 00 00 00 00 00 00 00 00 00 00 00 ................
004000B0 00 00 00 00 00 00 00 00 00 00 00 00 00 00 00 00 ................
004000C0 00 00 00 00 00 00 00 00 00 00 00 00 00 00 00 00 ................
004000D0 00 00 00 00 00 00 00 00 00 00 00 00 00 00 00 00 ................
004000E0 00 00 00 00 00 00 00 00 00 00 00 00 00 00 00 00 ................
004000F0 00 00 00 00 00 00 00 00 00 00 00 00 00 00 00 00 ................
00400100 00 00 00 00 00 00 00 00 00 00 00 00 00 00 00 00 ................
00400110 00 00 00 00 00 00 00 00 00 00 00 00 00 00 00 00 ................
00400120 00 00 00 00 00 00 00 00 00 00 00 00 00 00 00 00 ................
00400130 00 00 00 00 00 00 00 00 00 00 00 00 00 00 00 00 ................
00400140 00 00 00 00 00 00 00 00 00 00 00 00 00 00 00 00 ................
00400150 00 00 00 00 00 00 00 00 00 00 00 00 00 00 00 00 ................
00400160 00 00 00 00 00 00 00 00 00 00 00 00 00 00 00 00 ................
00400170 00 00 00 00 00 00 00 00 00 00 00 00 00 00 00 00 ................
00400180 00 00 00 00 00 00 00 00 00 00 00 00 00 00 00 00 ................
00400190 00 00 00 00 00 00 00 00 00 00 00 00 00 00 00 00 ................
004001A0 00 00 00 00 00 00 00 00 00 00 00 00 00 00 00 00 ................
004001B0 00 00 00 00 00 00 00 00 00 00 00 00 00 00 00 00 ................
004001C0 00 00 00 00 00 00 00 00 00 00 00 00 00 00 00 00 ................
004001D0 00 00 00 00 00 00 00 00 00 00 00 00 00 00 00 00 ................
004001E0 00 00 00 00 00 00 00 00 00 00 00 00 00 00 00 00 ................
004001F0 00 00 00 00 00 00 00 00 00 00 00 00 00 00 00 00 ................
00400200 00 00 00 00 00 00 00 00 00 00 00 00 00 00 00 00 ................
00400210 00 00 00 00 00 00 00 00 00 00 00 00 00 00 00 00 ................
00400220 00 00 00 00 00 00 00 00 00 00 00 00 00 00 00 00 ................
00400230 00 00 00 00 00 00 00 00 00 00 00 00 00 00 00 00 ................
00400240 00 00 00 00 00 00 00 00 00 00 00 00 00 00 00 00 ................
00400250 00 00 00 00 00 00 00 00 00 00 00 00 00 00 00 00 ................
00400260 00 00 00 00 00 00 00 00 00 00 00 00 00 00 00 00 ................
00400270 00 00 00 00 00 00 00 00 00 00 00 00 00 00 00 00 ................
00400280 00 00 00 00 00 00 00 00 00 00 00 00 00 00 00 00 ................
00400290 00 00 00 00 00 00 00 00 00 00 00 00 00 00 00 00 ................
004002A0 00 00 00 00 00 00 00 00 00 00 00 00 00 00 00 00 ................
004002B0 00 00 00 00 00 00 00 00 00 00 00 00 00 00 00 00 ................
004002C0 00 00 00 00 00 00 00 00 00 00 00 00 00 00 00 00 ................
004002D0 00 00 00 00 00 00 00 00 00 00 00 00 00 00 00 00 ................
004002E0 00 00 00 00 00 00 00 00 00 00 00 00 00 00 00 00 ................
004002F0 00 00 00 00 00 00 00 00 00 00 00 00 00 00 00 00 ................
00400300 00 00 00 00 00 00 00 00 00 00 00 00 00 00 00 00 ................
00400310 00 00 00 00 00 00 00 00 00 00 00 00 00 00 00 00 ................
00400320 00 00 00 00 00 00 00 00 00 00 00 00 00 00 00 00 ................
00400330 00 00 00 00 00 00 00 00 00 00 00 00 00 00 00 00 ................
00400340 00 00 00 00 00 00 00 00 00 00 00 00 00 00 00 00 ................
00400350 00 00 00 00 00 00 00 00 00 00 00 00 00 00 00 00 ................
00400360 00 00 00 00 00 00 00 00 00 00 00 00 00 00 00 00 ................
00400370 00 00 00 00 00 00 00 00 00 00 00 00 00 00 00 00 ................
00400380 00 00 00 00 00 00 00 00 00 00 00 00 00 00 00 00 ................
00400390 00 00 00 00 00 00 00 00 00 00 00 00 00 00 00 00 ................
004003A0 00 00 00 00 00 00 00 00 00 00 00 00 00 00 00 00 ................
004003B0 00 00 00 00 00 00 00 00 00 00 00 00 00 00 00 00 ................
004003C0 00 00 00 00 00 00 00 00 00 00 00 00 00 00 00 00 ................
004003D0 00 00 00 00 00 00 00 00 00 00 00 00 00 00 00 00 ................
004003E0 00 00 00 00 00 00 00 00 00 00 00 00 00 00 00 00 ................
004003F0 00 00 00 00 00 00 00 00 00 00 00 00 00 00 00 00 ................
00400400 00 00 00 00 00 00 00 00 00 00 00 00 00 00 00 00 ................
00400410 00 00 00 00 00 00 00 00 00 00 00 00 00 00 00 00 ................
00400420 00 00 00 00 00 00 00 00 00 00 00 00 00 00 00 00 ................
00400430 00 00 00 00 00 00 00 00 00 00 00 00 00 00 00 00 ................
00400440 00 00 00 00 00 00 00 00 00 00 00 00 00 00 00 00 ................
00400450 00 00 00 00 00 00 00 00 00 00 00 00 00 00 00 00 ................
00400460 00 00 00 00 00 00 00 00 00 00 00 00 00 00 00 00 ................
00400470 00 00 00 00 00 00 00 00 00 00 00 00 00 00 00 00 ................
00400480 00 00 00 00 00 00 00 00 00 00 00 00 00 00 00 00 ................
00400490 00 00 00 00 00 00 00 00 00 00 00 00 00 00 00 00 ................
004004A0 00 00 00 00 00 00 00 00 00 00 00 00 00 00 00 00 ................
004004B0 00 00 00 00 00 00 00 00 00 00 00 00 00 00 00 00 ................
004004C0 00 00 00 00 00 00 00 00 00 00 00 00 00 00 00 00 ................
004004D0 00 00 00 00 00 00 00 00 00 00 00 00 00 00 00 00 ................
004004E0 00 00 00 00 00 00 00 00 00 00 00 00 00 00 00 00 ................
004004F0 00 00 00 00 00 00 00 00 00 00 00 00 00 00 00 00 ................
00400500 00 00 00 00 00 00 00 00 00 00 00 00 00 00 00 00 ................
00400510 00 00 00 00 00 00 00 00 00 00 00 00 00 00 00 00 ................
00400520 00 00 00 00 00 00 00 00 00 00 00 00 00 00 00 00 ................
00400530 00 00 00 00 00 00 00 00 00 00 00 00 00 00 00 00 ................
00400540 00 00 00 00 00 00 00 00 00 00 00 00 00 00 00 00 ................
00400550 00 00 00 00 00 00 00 00 00 00 00 00 00 00 00 00 ................
00400560 00 00 00 00 00 00 00 00 00 00 00 00 00 00 00 00 ................
00400570 00 00 00 00 00 00 00 00 00 00 00 00 00 00 00 00 ................
00400580 00 00 00 00 00 00 00 00 00 00 00 00 00 00 00 00 ................
00400590 00 00 00 00 00 00 00 00 00 00 00 00 00 00 00 00 ................
004005A0 00 00 00 00 00 00 00 00 00 00 00 00 00 00 00 00 ................
004005B0 00 00 00 00 00 00 00 00 00 00 00 00 00 00 00 00 ................
004005C0 00 00 00 00 00 00 00 00 00 00 00 00 00 00 00 00 ................
004005D0 00 00 00 00 00 00 00 00 00 00 00 00 00 00 00 00 ................
004005E0 00 00 00 00 00 00 00 00 00 00 00 00 00 00 00 00 ................
004005F0 00 00 00 00 00 00 00 00 00 00 00 00 00 00 00 00 ................
00400600 00 00 00 00 00 00 00 00 00 00 00 00 00 00 00 00 ................
00400610 00 00 00 00 00 00 00 00 00 00 00 00 00 00 00 00 ................
00400620 00 00 00 00 00 00 00 00 00 00 00 00 00 00 00 00 ................
00400630 00 00 00 00 00 00 00 00 00 00 00 00 00 00 00 00 ................
00400640 00 00 00 00 00 00 00 00 00 00 00 00 00 00 00 00 ................
00400650 00 00 00 00 00 00 00 00 00 00 00 00 00 00 00 00 ................
00400660 00 00 00 00 00 00 00 00 00 00 00 00 00 00 00 00 ................
00400670 00 00 00 00 00 00 00 00 00 00 00 00 00 00 00 00 ................
00400680 00 00 00 00 00 00 00 00 00 00 00 00 00 00 00 00 ................
00400690 00 00 00 00 00 00 00 00 00 00 00 00 00 00 00 00 ................
004006A0 00 00 00 00 00 00 00 00 00 00 00 00 00 00 00 00 ................
004006B0 00 00 00 00 00 00 00 00 00 00 00 00 00 00 00 00 ................
004006C0 00 00 00 00 00 00 00 00 00 00 00 00 00 00 00 00 ................
004006D0 00 00 00 00 00 00 00 00 00 00 00 00 00 00 00 00 ................
004006E0 00 00 00 00 00 00 00 00 00 00 00 00 00 00 00 00 ................
004006F0 00 00 00 00 00 00 00 00 00 00 00 00 00 00 00 00 ................
00400700 00 00 00 00 00 00 00 00 00 00 00 00 00 00 00 00 ................
00400710 00 00 00 00 00 00 00 00 00 00 00 00 00 00 00 00 ................
00400720 00 00 00 00 00 00 00 00 00 00 00 00 00 00 00 00 ................
00400730 00 00 00 00 00 00 00 00 00 00 00 00 00 00 00 00 ................
00400740 00 00 00 00 00 00 00 00 00 00 00 00 00 00 00 00 ................
00400750 00 00 00 00 00 00 00 00 00 00 00 00 00 00 00 00 ................
00400760 00 00 00 00 00 00 00 00 00 00 00 00 00 00 00 00 ................
00400770 00 00 00 00 00 00 00 00 00 00 00 00 00 00 00 00 ................
00400780 00 00 00 00 00 00 00 00 00 00 00 00 00 00 00 00 ................
00400790 00 00 00 00 00 00 00 00 00 00 00 00 00 00 00 00 ................
004007A0 00 00 00 00 00 00 00 00 00 00 00 00 00 00 00 00 ................
004007B0 00 00 00 00 00 00 00 00 00 00 00 00 00 00 00 00 ................
004007C0 00 00 00 00 00 00 00 00 00 00 00 00 00 00 00 00 ................
004007D0 00 00 00 00 00 00 00 00 00 00 00 00 00 00 00 00 ................
004007E0 00 00 00 00 00 00 00 00 00 00 00 00 00 00 00 00 ................
004007F0 00 00 00 00 00 00 00 00 00 00 00 00 00 00 00 00 ................
00400800 00 00 00 00 00 00 00 00 00 00 00 00 00 00 00 00 ................
00400810 00 00 00 00 00 00 00 00 00 00 00 00 00 00 00 00 ................
00400820 00 00 00 00 00 00 00 00 00 00 00 00 00 00 00 00 ................
00400830 00 00 00 00 00 00 00 00 00 00 00 00 00 00 00 00 ................
00400840 00 00 00 00 00 00 00 00 00 00 00 00 00 00 00 00 ................
00400850 00 00 00 00 00 00 00 00 00 00 00 00 00 00 00 00 ................
00400860 00 00 00 00 00 00 00 00 00 00 00 00 00 00 00 00 ................
00400870 00 00 00 00 00 00 00 00 00 00 00 00 00 00 00 00 ................
00400880 00 00 00 00 00 00 00 00 00 00 00 00 00 00 00 00 ................
00400890 00 00 00 00 00 00 00 00 00 00 00 00 00 00 00 00 ................
004008A0 00 00 00 00 00 00 00 00 00 00 00 00 00 00 00 00 ................
004008B0 00 00 00 00 00 00 00 00 00 00 00 00 00 00 00 00 ................
004008C0 00 00 00 00 00 00 00 00 00 00 00 00 00 00 00 00 ................
004008D0 00 00 00 00 00 00 00 00 00 00 00 00 00 00 00 00 ................
004008E0 00 00 00 00 00 00 00 00 00 00 00 00 00 00 00 00 ................
004008F0 00 00 00 00 00 00 00 00 00 00 00 00 00 00 00 00 ................
00400900 00 00 00 00 00 00 00 00 00 00 00 00 00 00 00 00 ................
00400910 00 00 00 00 00 00 00 00 00 00 00 00 00 00 00 00 ................
00400920 00 00 00 00 00 00 00 00 00 00 00 00 00 00 00 00 ................
00400930 00 00 00 00 00 00 00 00 00 00 00 00 00 00 00 00 ................
00400940 00 00 00 00 00 00 00 00 00 00 00 00 00 00 00 00 ................
00400950 00 00 00 00 00 00 00 00 00 00 00 00 00 00 00 00 ................
00400960 00 00 00 00 00 00 00 00 00 00 00 00 00 00 00 00 ................
00400970 00 00 00 00 00 00 00 00 00 00 00 00 00 00 00 00 ................
00400980 00 00 00 00 00 00 00 00 00 00 00 00 00 00 00 00 ................
00400990 00 00 00 00 00 00 00 00 00 00 00 00 00 00 00 00 ................
004009A0 00 00 00 00 00 00 00 00 00 00 00 00 00 00 00 00 ................
004009B0 00 00 00 00 00 00 00 00 00 00 00 00 00 00 00 00 ................
004009C0 00 00 00 00 00 00 00 00 00 00 00 00 00 00 00 00 ................
004009D0 00 00 00 00 00 00 00 00 00 00 00 00 00 00 00 00 ................
004009E0 00 00 00 00 00 00 00 00 00 00 00 00 00 00 00 00 ................
004009F0 00 00 00 00 00 00 00 00 00 00 00 00 00 00 00 00 ................
00400A00 00 00 00 00 00 00 00 00 00 00 00 00 00 00 00 00 ................
00400A10 00 00 00 00 00 00 00 00 00 00 00 00 00 00 00 00 ................
00400A20 00 00 00 00 00 00 00 00 00 00 00 00 00 00 00 00 ................
00400A30 00 00 00 00 00 00 00 00 00 00 00 00 00 00 00 00 ................
00400A40 00 00 00 00 00 00 00 00 00 00 00 00 00 00 00 00 ................
00400A50 00 00 00 00 00 00 00 00 00 00 00 00 00 00 00 00 ................
00400A60 00 00 00 00 00 00 00 00 00 00 00 00 00 00 00 00 ................
00400A70 00 00 00 00 00 00 00 00 00 00 00 00 00 00 00 00 ................
00400A80 00 00 00 00 00 00 00 00 00 00 00 00 00 00 00 00 ................
00400A90 00 00 00 00 00 00 00 00 00 00 00 00 00 00 00 00 ................
00400AA0 00 00 00 00 00 00 00 00 00 00 00 00 00 00 00 00 ................
00400AB0 00 00 00 00 00 00 00 00 00 00 00 00 00 00 00 00 ................
00400AC0 00 00 00 00 00 00 00 00 00 00 00 00 00 00 00 00 ................
00400AD0 00 00 00 00 00 00 00 00 00 00 00 00 00 00 00 00 ................
00400AE0 00 00 00 00 00 00 00 00 00 00 00 00 00 00 00 00 ................
00400AF0 00 00 00 00 00 00 00 00 00 00 00 00 00 00 00 00 ................
00400B00 00 00 00 00 00 00 00 00 00 00 00 00 00 00 00 00 ................
00400B10 00 00 00 00 00 00 00 00 00 00 00 00 00 00 00 00 ................
00400B20 00 00 00 00 00 00 00 00 00 00 00 00 00 00 00 00 ................
00400B30 00 00 00 00 00 00 00 00 00 00 00 00 00 00 00 00 ................
00400B40 00 00 00 00 00 00 00 00 00 00 00 00 00 00 00 00 ................
00400B50 00 00 00 00 00 00 00 00 00 00 00 00 00 00 00 00 ................
00400B60 00 00 00 00 00 00 00 00 00 00 00 00 00 00 00 00 ................
00400B70 00 00 00 00 00 00 00 00 00 00 00 00 00 00 00 00 ................
00400B80 00 00 00 00 00 00 00 00 00 00 00 00 00 00 00 00 ................
00400B90 00 00 00 00 00 00 00 00 00 00 00 00 00 00 00 00 ................
00400BA0 00 00 00 00 00 00 00 00 00 00 00 00 00 00 00 00 ................
00400BB0 00 00 00 00 00 00 00 00 00 00 00 00 00 00 00 00 ................
00400BC0 00 00 00 00 00 00 00 00 00 00 00 00 00 00 00 00 ................
00400BD0 00 00 00 00 00 00 00 00 00 00 00 00 00 00 00 00 ................
00400BE0 00 00 00 00 00 00 00 00 00 00 00 00 00 00 00 00 ................
00400BF0 00 00 00 00 00 00 00 00 00 00 00 00 00 00 00 00 ................
00400C00 00 00 00 00 00 00 00 00 00 00 00 00 00 00 00 00 ................
00400C10 00 00 00 00 00 00 00 00 00 00 00 00 00 00 00 00 ................
00400C20 00 00 00 00 00 00 00 00 00 00 00 00 00 00 00 00 ................
00400C30 00 00 00 00 00 00 00 00 00 00 00 00 00 00 00 00 ................
00400C40 00 00 00 00 00 00 00 00 00 00 00 00 00 00 00 00 ................
00400C50 00 00 00 00 00 00 00 00 00 00 00 00 00 00 00 00 ................
00400C60 00 00 00 00 00 00 00 00 00 00 00 00 00 00 00 00 ................
00400C70 00 00 00 00 00 00 00 00 00 00 00 00 00 00 00 00 ................
00400C80 00 00 00 00 00 00 00 00 00 00 00 00 00 00 00 00 ................
00400C90 00 00 00 00 00 00 00 00 00 00 00 00 00 00 00 00 ................
00400CA0 00 00 00 00 00 00 00 00 00 00 00 00 00 00 00 00 ................
00400CB0 00 00 00 00 00 00 00 00 00 00 00 00 00 00 00 00 ................
00400CC0 00 00 00 00 00 00 00 00 00 00 00 00 00 00 00 00 ................
00400CD0 00 00 00 00 00 00 00 00 00 00 00 00 00 00 00 00 ................
00400CE0 00 00 00 00 00 00 00 00 00 00 00 00 00 00 00 00 ................
00400CF0 00 00 00 00 00 00 00 00 00 00 00 00 00 00 00 00 ................
00400D00 00 00 00 00 00 00 00 00 00 00 00 00 00 00 00 00 ................
00400D10 00 00 00 00 00 00 00 00 00 00 00 00 00 00 00 00 ................
00400D20 00 00 00 00 00 00 00 00 00 00 00 00 00 00 00 00 ................
00400D30 00 00 00 00 00 00 00 00 00 00 00 00 00 00 00 00 ................
00400D40 00 00 00 00 00 00 00 00 00 00 00 00 00 00 00 00 ................
00400D50 00 00 00 00 00 00 00 00 00 00 00 00 00 00 00 00 ................
00400D60 00 00 00 00 00 00 00 00 00 00 00 00 00 00 00 00 ................
00400D70 00 00 00 00 00 00 00 00 00 00 00 00 00 00 00 00 ................
00400D80 00 00 00 00 00 00 00 00 00 00 00 00 00 00 00 00 ................
00400D90 00 00 00 00 00 00 00 00 00 00 00 00 00 00 00 00 ................
00400DA0 00 00 00 00 00 00 00 00 00 00 00 00 00 00 00 00 ................
00400DB0 00 00 00 00 00 00 00 00 00 00 00 00 00 00 00 00 ................
00400DC0 00 00 00 00 00 00 00 00 00 00 00 00 00 00 00 00 ................
00400DD0 00 00 00 00 00 00 00 00 00 00 00 00 00 00 00 00 ................
00400DE0 00 00 00 00 00 00 00 00 00 00 00 00 00 00 00 00 ................
00400DF0 00 00 00 00 00 00 00 00 00 00 00 00 00 00 00 00 ................
00400E00 00 00 00 00 00 00 00 00 00 00 00 00 00 00 00 00 ................
00400E10 00 00 00 00 00 00 00 00 00 00 00 00 00 00 00 00 ................
00400E20 00 00 00 00 00 00 00 00 00 00 00 00 00 00 00 00 ................
00400E30 00 00 00 00 00 00 00 00 00 00 00 00 00 00 00 00 ................
00400E40 00 00 00 00 00 00 00 00 00 00 00 00 00 00 00 00 ................
00400E50 00 00 00 00 00 00 00 00 00 00 00 00 00 00 00 00 ................
00400E60 00 00 00 00 00 00 00 00 00 00 00 00 00 00 00 00 ................
00400E70 00 00 00 00 00 00 00 00 00 00 00 00 00 00 00 00 ................
00400E80 00 00 00 00 00 00 00 00 00 00 00 00 00 00 00 00 ................
00400E90 00 00 00 00 00 00 00 00 00 00 00 00 00 00 00 00 ................
00400EA0 00 00 00 00 00 00 00 00 00 00 00 00 00 00 00 00 ................
00400EB0 00 00 00 00 00 00 00 00 00 00 00 00 00 00 00 00 ................
00400EC0 00 00 00 00 00 00 00 00 00 00 00 00 00 00 00 00 ................
00400ED0 00 00 00 00 00 00 00 00 00 00 00 00 00 00 00 00 ................
00400EE0 00 00 00 00 00 00 00 00 00 00 00 00 00 00 00 00 ................
00400EF0 00 00 00 00 00 00 00 00 00 00 00 00 00 00 00 00 ................
00400F00 00 00 00 00 00 00 00 00 00 00 00 00 00 00 00 00 ................
00400F10 00 00 00 00 00 00 00 00 00 00 00 00 00 00 00 00 ................
00400F20 00 00 00 00 00 00 00 00 00 00 00 00 00 00 00 00 ................
00400F30 00 00 00 00 00 00 00 00 00 00 00 00 00 00 00 00 ................
00400F40 00 00 00 00 00 00 00 00 00 00 00 00 00 00 00 00 ................
00400F50 00 00 00 00 00 00 00 00 00 00 00 00 00 00 00 00 ................
00400F60 00 00 00 00 00 00 00 00 00 00 00 00 00 00 00 00 ................
00400F70 00 00 00 00 00 00 00 00 00 00 00 00 00 00 00 00 ................
00400F80 00 00 00 00 00 00 00 00 00 00 00 00 00 00 00 00 ................
00400F90 00 00 00 00 00 00 00 00 00 00 00 00 00 00 00 00 ................
00400FA0 00 00 00 00 00 00 00 00 00 00 00 00 00 00 00 00 ................
00400FB0 00 00 00 00 00 00 00 00 00 00 00 00 00 00 00 00 ................
00400FC0 00 00 00 00 00 00 00 00 00 00 00 00 00 00 00 00 ................
00400FD0 00 00 00 00 00 00 00 00 00 00 00 00 00 00 00 00 ................
00400FE0 00 00 00 00 00 00 00 00 00 00 00 00 00 00 00 00 ................
00400FF0 00 00 00 00 00 00 00 00 00 00 00 00 00 00 00 00 ................
00401000 25 25 25 E8 25 E8 0B DA 49 8B F9 49 43 0B CB 8B %%%.%...I..IC...
00401010 D8 46 4E 0B D7 59 8B FA 4E 8B F1 4A 8B D8 0F 80 .FN..Y..N..J....
00401020 93 01 00 00 E9 00 00 00 00 0F 81 88 01 00 00 74 ...............t
00401030 25 E8 25 E8 8B F7 43 0B DF 4E 0B FA FF 71 08 0B %.%...C..N...q..
00401040 D0 47 4A 43 0B F2 43 0B FE 46 4A 8B FA 4F 47 0F .GJC..C..FJ..OG.
00401050 8C 68 03 00 00 8B FF 0F 8D 60 03 00 00 FF 25 FF .h.......`....%.
00401060 FF 25 FF E8 8B D1 43 0B DA 8B F9 4A 47 8B F7 4F .%....C....JG..O
00401070 8B F2 46 8B F9 0B F8 8B F0 4F 0B D6 47 0F 8A A4 ..F......O..G...
00401080 04 00 00 7A 00 0F 8B 9C 04 00 00 E8 25 FF 25 FF ...z........%.%.
00401090 42 8B F3 4A 8B DE 47 4B F7 D0 0B F2 46 8B DE 43 B..J..GK....F..C
004010A0 4B 0B CF 47 0B CF 8B F1 0F 88 44 04 00 00 8B C0 K..G......D.....
004010B0 0F 89 3C 04 00 00 E8 FF 74 E8 74                ..<.....t.t    

l004010BB:
	inc	esi
	dec	esi
	inc	ebx
	mov	ch,8B
	inc	ecx
	or	bl,dl
	dec	ecx
	sub	ch,ah
	mov	ebx,edx
	add	bl,dh
	inc	edi
	mov	esi,ebx
	sub	bl,cl
	mov	edi,esi
	or	cl,ch
	sub	bh,dh
	mov	ecx,eax
	xor	ch,ah
	add	ch,dl
	jc	004010F6
	lea	ecx,[ecx]
	jnc	004010F6
	and	eax,74FF25E8
	jz	00401132
	inc	ebx
	or	ebx,esi
	dec	ecx
	or	esi,ecx
	mov	eax,ebx
	dec	ebx
	jmp	0040155B
	inc	esi
	or	edi,eax
	mov	bh,93
	or	ch,bl
	mov	edi,ebx
	or	edi,edx
	add	bl,cl
	inc	esi
	mov	ebx,eax
	mov	bh,8B
	mov	ecx,ebx
	add	bh,dl
	mov	ch,bl
	sub	cl,bl
	or	ecx,edx
	mov	bh,ED
	or	bh,bl
	jpe	004013EC
	push	edx
	pop	edx
	nop	
	jpo	004013EC
	jz	00401126
	and	eax,25FFFF74
	shl	eax,01
	inc	edi
	or	edx,eax
	mov	ebx,esi
	dec	esi
	inc	edi
	mov	esi,eax
	or	esi,edx
	inc	edx
	dec	esi
	inc	edi
	or	esi,edx
	dec	edx
	or	ebx,eax
	dec	edx
	mov	ebx,edi
	inc	edx
	push	dword ptr [eax+ecx]
	inc	ebx
	jz	00401273
	lea	eax,[eax]
	repne	
	jnz	00401273
	jz	00401159
	and	eax,FB8B43FF
	dec	ebx
	or	esi,eax
	dec	edx
	inc	edi
	dec	edi
	mov	edi,ecx
	or	edi,ecx
	inc	edx
	sub	ecx,EEEEEEEE
	inc	edi
	or	edi,ebx
	dec	esi
	jle	004014C4
	mov	ebx,ebx
	jg	004014C4
	and	eax,74FFFFFF
	and	eax,8B4FD30B
	cli	
	or	ebx,ecx
	dec	ebx
	or	eax,edx
	mov	eax,esp
	inc	ebx
	or	edi,edx
	inc	edi
	mov	ebx,edx
	inc	edi
	mov	esi,eax
	dec	esi
	inc	ebx
	or	esi,ecx
	mov	ecx,ebx
	jz	00401090
	lea	esi,[esi]
	mov	esi,esi
	jnz	00401090
	call	0C28FAB7
	stc	
	dec	edi
	inc	esi
	mov	edx,edi
	or	edx,edi
	dec	esi
	or	edx,ebx
	mov	ebx,esi
	or	ebx,eax
	dec	esi
	mov	ebx,edx
	or	esi,eax
	inc	edx
	mov	esi,edx
	or	edi,edx
	jz	0040112C
	lea	esi,[esi]
	jnz	0040112C
	call	0C3F3708
	fimul	dword ptr [esi-75]
	fiadd	dword ptr [edx+0B]
	sti	
	dec	ebx
	mov	eax,edi
	dec	edx
	inc	edx
	dec	eax
	or	eax,ebx
	dec	esi
	or	eax,edi
	mov	esi,eax
	or	edx,esi
	dec	edi
	or	eax,edi
	inc	edx
	jo	004010E7
	repne	
	nop	
	jno	004010E7
	jmp	dword ptr [E8E8FFFF]
	call	D6CB59FE
	or	esi,edx
	inc	esi
	dec	esi
	mov	esi,ebx
	inc	esi
	or	ebx,eax
	mov	edi,esi
	shl	eax,03
	dec	edi
	or	edx,ecx
	mov	esi,ecx
	or	esi,ebx
	jpe	00401064
	jg	00401233
	lea	ebx,[ebx]
	jpo	00401064
	jz	004012B1
	call	4EB48741

l00401241:
	dec	esi
	inc	esi
	or	ecx,eax
	inc	ebx
	mov	ebx,eax
	inc	esi
	or	edi,ebx
	inc	edi
	or	esi,edx
	mov	edi,ecx
	or	ebx,eax
	dec	esi
	mov	ebx,edi
	inc	edi
	mov	ecx,ebx
	inc	edi
	mov	ebx,edx
	or	edi,ecx
	mov	esi,eax
	jbe	004010BB

l00401265:
	rep	
	push	ecx
	pop	ecx
	ja	004010BB
	and	eax,25FFFF25
	or	edi,ebx
	mov	esi,ebx
	or	esi,eax
	inc	edi
	dec	edi
	or	esi,edx
	inc	edi
	mov	edx,esi
	or	esi,ebx
	pop	ecx
	or	ebx,esi
	dec	ebx
	mov	edi,ecx
	jle	00401213
	push	eax
	pop	eax
	mov	ebx,ebx
	jg	00401213
	call	E92911BA
	jz	00401296
	and	eax,8BC0B60F
	cli	
	inc	ebx
	dec	edx
	or	ebx,edi
	inc	edx
	mov	esi,ecx
	or	ebx,edi
	inc	edi
	or	esi,ecx
	mov	esi,edx
	or	ebx,ecx
	mov	ebx,edi
	push	dword ptr [eax+ecx]
	mov	edx,ebx
	or	ebx,eax
	js	0040141F
	jmp	004012C2
	jcxz	0040124E
	ror	byte ptr [edi],89
	push	ebp
	add	[eax],eax
	add	[ebp-01],dh
	jmp	eax

fn004012CF()
	mov	ecx,ebx
	or	edi,eax
	inc	esi
	mov	ecx,eax
	inc	ebx
	dec	esi
	or	ebx,edx
	inc	ebx
	or	esi,ecx
	mov	esi,ebx
	or	ebx,eax
	dec	edi
	mov	esi,ebx
	or	edi,ebx
	mov	edi,eax
	or	ecx,esi
	inc	ebx
	dec	ebx
	mov	ebx,ecx
	or	esi,eax
	jz	00401241

l004012F6:
	repne	
	jnc	004012F9
	jnz	00401241
	jmp	eax
	push	dword ptr [ebp+4E]
	or	ecx,ebx
	dec	esi
	or	ebx,eax
	dec	esi
	mov	eax,C5A69628
	or	edx,ecx
	inc	esi
	mov	edi,edx
	inc	ecx
	or	edx,edi
	dec	edi
	mov	ebx,eax
	dec	ebx
	or	ebx,eax
	mov	ebx,edi
	inc	edi
	dec	edx
	mov	ch,AB
	jbe	00401454
	repne	
	ja	00401454
	call	4BB512AA
	or	esi,ebx
	mov	edi,edx
	inc	edx
	mov	ebx,edx
	or	esi,ebx
	inc	edi
	or	edx,ecx
	dec	ebx
	inc	edi
	dec	edx
	mov	ecx,[ecx]
	dec	ebx
	or	esi,ebx
	dec	edi
	mov	esi,edx
	inc	edx
	or	edx,eax
	jz	00401034
	nop	
	jnz	00401034
	jmp	dword ptr [FF747425]
	jz	00401370
	ror	dword ptr [ebx+CE0B4FF0],01
	mov	edx,edi
	dec	edi
	mov	ebx,esi
	dec	esi
	shl	eax,03
	inc	edx
	or	edi,ecx
	inc	ecx
	or	edx,ecx
	jbe	0040148F
	push	edx
	pop	edx
	lea	ebx,[ebx]
	ja	0040148F
	call	4A65398E
	or	edi,ebx
	mov	edx,edi
	or	edx,eax
	and	ecx,EEEEEEEE
	or	edx,esi
	mov	esi,eax
	or	ebx,ecx
	mov	esi,ebx
	dec	esi
	inc	ebx
	dec	edi
	or	edi,esi
	mov	edx,eax
	or	edx,esi
	jbe	0040115C
	rep	
	ja	0040115C
	and	eax,8BE87474
	fld	dword ptr [edx+4A]
	or	edi,ecx
	pop	ecx
	inc	edx
	mov	edi,ecx
	or	esi,ebx
	mov	edx,esi
	dec	edi
	or	esi,edi
	inc	edi
	dec	edx
	inc	edi
	or	edx,esi
	inc	ebx
	js	0040138E
	jmp	004013DC
	imul	cl
	add	[eax],eax
	add	[eax],al
	or	[ecx-56],bh
	call	263F88D1
	jmp	eax
	push	dword ptr [ecx+0AFB32A2]
	out	dx,ax
	sub	bl,al
	or	esi,eax
	inc	ecx
	or	ebx,edx
	mov	bh,14
	mov	bl,dh
	mov	esi,edi
	or	esi,ebx
	or	edi,ebx
	dec	edi
	or	ebx,edx
	inc	edx
	dec	edi
	inc	eax
	jo	00401304
	nop	
	mov	edi,edi
	jno	00401304
	jmp	eax
	push	dword ptr [ebp+25]
	and	eax,8B42FE8B
	sti	
	inc	esi
	dec	esi
	mov	ebx,esi
	dec	edi
	inc	esi
	or	esi,ecx
	dec	ebx
	or	esi,eax
	inc	edi
	dec	edx
	or	esi,ebx
	inc	edi
	or	edi,ebx
	inc	edi
	or	esi,ebx
	pop	ecx
	jo	00401335
	jmp	00401445
	jc	00401447
	jno	00401335
	jz	00401437
	call	74B4FD53
	add	eax,57DF4E3C
	mov	edi,ecx
	inc	esi
	cmp	eax,5B8890E4
	jnz	00401322
	mov	ebx,ecx
	dec	edi
	inc	eax
	dec	ecx
	or	eax,esi
	inc	ebx
	or	esi,edx
	dec	eax
	inc	ebx
	dec	edi
	inc	edx
	mov	esi,edi
	or	edx,ebx
	inc	edx
	jz	00401188
	repne	
	mov	esi,esi
	jnz	00401188
	jz	004014B2
	push	dword ptr [ebx+ecx*4-26]
	dec	edx
	or	esi,eax
	mov	edx,esi
	dec	esi
	or	ecx,esi
	mov	edi,ebx
	dec	esi
	inc	ebx
	mov	ecx,eax
	or	esi,ebx
	inc	edi
	dec	ebx
	mov	ecx,edi
	dec	edi
	push	dword ptr fs:[eax]
	mov	edi,esi
	dec	edx
	jle	00401006
	jmp	004014B7
	jg	00401006
	jz	00401533
	illegal	
	jz	00401537
	call	4F38200A
	inc	ebx
	or	esi,ebx
	inc	edi
	dec	edi
	or	esi,edi
	inc	edi
	mov	esi,edx
	inc	ebx
	mov	esi,ecx
	or	ecx,ecx
	jz	004014DA
	ret	
	dec	esi
	mov	edx,eax
	dec	eax
	jbe	004011E2
	push	ebx
	pop	ebx
	ja	004011E2
	and	eax,25E8E8E8
	jz	0040153C
	mov	edi,esi
	inc	ebx
	or	ecx,esi
	mov	edx,eax
	inc	ecx
	or	edx,ecx
	dec	edx
	mov	edi,edx
	and	eax,03
	or	edx,esi
	dec	ebx
	inc	edi
	dec	edi
	inc	ebx
	mov	esi,edi
	dec	ecx
	mov	ebx,ecx
	inc	edx
	js	00401364
	jmp	0040151B
	inc	esi
	jns	00401364
	illegal	
	and	eax,83FF25E8
	enter	0B10,F8
	mov	ebx,edx
	inc	ebx
	or	edi,esi
	inc	ebx
	mov	esi,edi
	dec	ebx
	or	ebx,edx
	mov	ebx,esi
	inc	edx
	dec	esi
	mov	ebx,esi
	inc	edi
	mov	edi,ecx
	or	edx,ecx
	inc	edx
	js	00401298
	jmp	0040154F
	mov	dh,0F
	mov	[ebx-03],eax
	illegal	
	jz	0040153F
	call	E940155B
	xchg	[eax],edx
	add	[eax],al
	jge	004015B2
	push	eax
	neg	dword ptr [ebx+5AEDE4B0]
	sub	eax,BA80CCF2
	test	[esp+edx*2+2E],dl
	mov	[FE54746A],al
	mov	al,BB
	cmpsd	
	push	esi
	xchg	eax,edi
	push	esp
	illegal	
	push	esp
	push	esp
	sar	byte ptr [esi-4C],D6
	cmpsd	
	push	esp
	sar	byte ptr [esi-6C],D6
	mov	[54548C11],eax
	neg	dword ptr [ebx+5050F7F7]
	illegal	
	out	dx,al
	wait	
	leave	
	pop	esp
	push	esp
	push	esp
	adc	edi,[esi+3B]
	jz	004015F6
	push	esp
	push	esp
	test	esp,FAFF50D6
	wait	
	xchg	eax,edi
	test	[esp+edx*2-5D],dl
	imul	ebx,[esp+edx*2+54],D67BFF50
	push	eax
	illegal	
	wait	
	test	[esp+edx*2+54],edx
	mov	[54545CE0],eax
	not	dword ptr [eax-09]
	idiv	dword ptr [ebp+50]
	out	A7,al
	push	eax
	illegal	
	xchg	eax,edi
	cwde	
	dec	esi
	push	edi
	pop	ebx
	wait	
	lodsd	
	xchg	eax,esp
	push	esp
	push	esp
	xchg	eax,edi
	mov	cl,97
	insb	
	sti	
	illegal	
	wait	
	lds	ebx,[esp+edx*2+FE72D654]
	mov	al,BB
	push	es
	push	cs
	mov	al,BE
	aam	B0
	push	dword ptr [eax+esi*4+75A3943F]
	mov	[esp+edx*2+50],ss
	wait	
	wait	
	idiv	dword ptr [ebp+6C]
	push	esi
	xor	eax,EEF5D750
	wait	
	pop	esp
	pop	esp
	push	esp
	push	esp
	and	cs:[esp+edx*8+54],edx
	push	esp
	mov	al,FE
	sbb	dh,[eax+B0A2BA7E]
	sti	
	jo	004015A5
	aam	97
	push	esp
	push	esi
	push	esp
	push	esp
	mov	al,[C05A75B6]
	mov	dh,75
	pop	edx
	fisub	word ptr [eax+C05A75F6]
	div	byte ptr [ebp+5A]
	mov	bl,10
	neg	dword ptr [ebx+F79B7D9B]
	div	edi
	mov	al,3E
	xchg	eax,esp
	mov	al,F2
	lodsd	
	illegal	
	insb	
	xor	eax,545930C0
	push	esp
	push	esp
	mov	al,2C
	mov	al,BE
	xchg	eax,esp
	lodsb	
	xor	cl,ah
	js	00401638
	xchg	eax,esp
	push	esp
	push	esp
	sub	eax,78CCB4BE
	cdq	
	xchg	eax,esp
	push	esp
	push	esp
	insb	
	xchg	eax,esp
	mov	[54545C97],eax
	mov	al,AE
	jz	004016DF
	mov	[70F3B094],eax
	mov	dl,[ebx+54545CBE]
	int	03
	adc	[ebx+54545C7D],eax
	jge	004016D5
	div	edi
	mov	al,7E
	cmp	esp,[edx+FE54946A]
	mov	al,BB
	jo	0040170D
	sbb	ebp,esi
	push	es
	push	cs
	mov	al,7E
	mov	ah,AD
	jle	00401691
	mov	al,[7EA0B47E]
	sbb	ebx,[eax+3F]
	aam	54
	mov	[545484DA],eax
	not	dword ptr [eax+7D]
	push	eax
	jge	00401702
	wait	
	wait	
	illegal	
	not	byte ptr [edi+5B574E98]
	wait	
	jbe	0040164A
	push	esp
	push	esp
	xchg	eax,edi
	pop	dword ptr [ebx+9BD68A3D]
	mov	ss,[esp+edx*2+16DA5054]
	mov	eax,[54545474]
	not	dword ptr [ebx+19]
	insb	
	push	esp
	push	esp
	push	esp
	in	eax,dx
	jmp	far 879B:C887
	mov	eax,A39AE29B
	test	al,64
	push	esp
	push	esp
	jge	00401686
	wait	
	push	eax
	div	dword ptr [eax+45]
	push	esp
	int	03
	and	al,94
	push	esp
	push	esp
	jo	0040176B
	hlt	
	jo	0040172B
	mov	ah,54
	int	03
	cmp	byte ptr [ebp+4E54545C],46
	mov	cs:[FE54746A],al
	mov	al,BB
	out	dx,al
	push	es
	push	cs
	mov	[50505085],eax
	wait	
	jge	00401769
	jge	00401718
	add	dl,[eax-1C]
	std	
	bound	ebx,[edx+63E7BDDC]
	or	ah,dh
	mov	al,[EAEDD47E]
	adc	edi,edi
	mov	ah,A8
	jbe	0040174E
	push	eax
	test	al,75
	and	al,98
	ja	00401755
	push	eax
	cwde	
	jz	00401761
	sahf	
	lodsb	
	mov	[64E880CC],al
	push	esp
	push	esp
	mov	cs:[FE54B46A],al
	mov	[545464F8],eax
	jge	004017D0
	push	eax
	jge	004017D3
	adc	edi,[esi+3B]
	aam	54
	push	esp
	push	esp
	int	03
	js	00401741
	insb	
	push	esp
	push	esp
	push	eax
	call	dword ptr [ebx-65]
	pop	ebp
	jz	004017BE
	push	esp
	push	eax
	illegal	
	push	eax
	call	dword ptr [ebx-65]
	fstp	tword ptr [esp+edx*2+54]
	mov	al,3E
	cli	
	insb	
	xor	eax,50142EC0
	out	dx,ax
	adc	eax,503A7ED0
	out	dx,ax
	adc	eax,5034EF50
	out	dx,ax
	adc	eax,5034EF50
	out	dx,ax
	xor	al,9B
	rep	
	insb	
	push	esp
	push	esp
	wait	
	call	far A354:547C
	dec	esi
	insb	
	push	esp
	push	esp
	idiv	dword ptr [ebp-65]
	wait	
	wait	
	int	03
	adc	[ebx],ebx
	xchg	[eax-6D],esp
	push	eax
	int	03
	xchg	[edx-65],esp
	mov	ah,13
	fidiv	dword ptr [eax+1B]
	cmp	edi,edi
	mov	[ebp+ebp+6C],gs
	aas	
	xchg	eax,esp
	pop	esp
	or	al,70
	mov	ah,[eax+esi*2-5D]
	lodsb	
	mov	[4BB180CC],al
	push	eax
	push	eax
	insb	
	jz	00401844
	das	
	jz	0040176B
	mov	[54548C9D],eax
	push	eax
	wait	
	wait	
	idiv	dword ptr [ebp+7D]
	idiv	dword ptr [ebp+58]
	sbb	eax,DC80CC54
	jz	00401840
	push	esp
	std	
	push	2DAED62B
	jc	004017F4
	inc	esp
	mov	al,8E
	jnz	00401866
	push	1E
	int	03
	adc	[esi+edx*4+6C348EB0],esi
	push	B0
	jz	004017A0
	insb	
	push	A3
	retf	
	jl	00401862
	push	esp
	mov	[54547C32],eax
	in	eax,dx
	pop	edx
	mov	[54547CFA],eax
	neg	dword ptr [ebx+9BF7509B]
	jge	004017BE
	int	03
	js	00401858
	dec	ebx
	push	eax
	push	eax
	insb	
	xchg	eax,esp
	mov	[50504BA2],eax
	mov	al,6E
	mov	ah,6C
	jle	004017CB
	illegal	
	wait	
	out	6C,al
	push	esp
	push	esp
	mov	al,[2D703B7E]
	push	esp
	div	dword ptr [eax+esi*4-13]
	mov	bl,6C
	mov	al,EF
	aam	6C
	call	dword ptr [ebx+54548C9D]
	wait	
	idiv	dword ptr [ebp-65]
	wait	
	insb	
	and	ch,[edx+ebp-50]
	stosb	
	rep	
	jns	004018CE
	illegal	
	jo	00401811
	movsb	
	adc	ebp,[edx]
	mov	al,AA
	rep	
	jns	00401821
	movsb	
	mov	al,BE
	mov	ah,F3
	jns	00401818
	xchg	[esp+edx*2+54],bl
	mov	al,7E
	cmp	esp,[ebx+54545CAD]
	push	eax
	jge	004018D4
	push	eax
	lodsb	
	mov	[640180CC],al
	push	esp
	push	esp
	push	eax
	call	dword ptr [ebx+9BFAFF50]
	retf	5474
	push	esp
	mov	al,BE
	pop	ebx
	mov	al,5E
	xor	eax,955C76B0
	insb	
	bound	esp,[eax+3EB0BA7E]
	pop	ebx
	push	eax
	illegal	
	push	eax
	call	edx
	out	dx,al
	wait	
	js	00401928
	push	esp
	push	esp
	out	dx,al
	wait	
	out	5C,al
	push	esp
	push	esp
	mov	al,72
	mov	[5050432D],eax
	jge	00401860
	div	edi
	push	eax
	push	eax
	sar	byte ptr [esi+3B],01
	xchg	eax,edi
	out	21,al
	mov	ah,C6
	sar	byte ptr [esi+1B],01
	xchg	eax,edi
	mov	edx,D0BABABA
	jle	004018D7
	xchg	eax,edi
	mov	edx,D0BABABA
	jle	004018BF
	xchg	eax,edi
	push	esp
	add	eax,7ED05454
	wait	
	xchg	eax,edi
	push	esp
	add	eax,7ED05454
	jpo	0040188C
	mov	bh,67
	mov	al,[BB7ED00C]
	mov	al,7E
	pop	ebx
	insb	
	push	esi
	xor	eax,5484F1A3
	push	esp
	wait	
	push	eax
	jge	00401988
	jge	0040198A
	push	eax
	push	eax
	push	eax
	illegal	
	jle	004018EF
	illegal	
	sar	byte ptr [esi-05],D6
	cmpsd	
	push	esp
	cmpsd	
	push	esp
	xchg	eax,edi
	cwde	
	dec	esi
	push	edi
	pop	ebx
	wait	
	inc	edx
	jz	0040197A
	push	esp
	xchg	eax,edi
	or	[eax+75],edx
	in	eax,dx
	illegal	
	wait	
	pop	ebx
	jl	00401985
	push	esp
	push	eax
	illegal	
	jle	00401932
	illegal	
	xchg	eax,edi
	cwde	
	dec	esi
	push	edi
	pop	ebx
	mov	[54545C2D],eax
	push	eax
	div	edi
	push	eax
	div	edi
	push	eax
	pop	esi
	pop	esi
	add	[eax+065CF182],dh
	mov	al,13
	lodsd	
	illegal	
	jns	0040199E
	mov	[5454741B],eax
	jmp	far 04A8:7CFF
	xchg	ah,ah
	jmp	far 5EA2:ED72
	mov	[545464E6],eax
	neg	dword ptr [ebx+68CC7DF7]
	xchg	[ebx+50],eax
	push	eax
	mov	al,7E
	sbb	esp,[eax+7EB01A7E]
	mov	ebx,D4B364B3
	xchg	eax,esi
	bound	ebx,[ebx+CC5B62CC]
	int	03
	adc	[eax+5426BEA3],edx
	push	esp
	lodsb	
	mov	[7EA0BBFF],al
	pop	ebx
	cmp	edx,[edi+54545454]
	mov	[5050505D],eax
	jge	00401945
	jge	004019FC
	popf	
	jle	004019CA
	jo	00401A0B
	movsb	
	popf	
	jle	00401969
	jo	004019F6
	mov	ah,54
	int	03
	sbb	byte ptr [edx],6C
	push	esp
	push	esp
	mov	al,7E
	sbb	ecx,[esi+46]
	mov	cs:[FE54D46A],al
	mov	al,BB
	out	dx,al
	mov	al,BE
	mov	ah,B0
	xchg	eax,esp
	mov	[50504387],eax
	mov	al,7E
	aam	A3
	and	eax,9B505043
	idiv	dword ptr [ebp-09]
	jge	00401996
	mov	ebx,FFB00E06
	xchg	eax,esp
	mov	al,4B
	mov	al,BE
	mov	ah,B0
	illegal	
	pusha	
	bound	ebp,edx
	jz	00401A4D
	push	esp
	mov	[545474ED],eax
	pusha	
	mov	[545474EA],eax
	mov	ecx,58AAA8DE
	jcxz	004019F8
	retf	5AEA
	mov	[54547494],eax
	wait	
	wait	
	wait	
	jge	00401A6A
	wait	
	idiv	dword ptr [ebp-50]
	add	eax,80CCEB2D
	illegal	
	push	esp
	push	esp
	push	esp
	dec	esi
	inc	esi
	mov	cs:[FE54B46A],al
	mov	al,BB
	jo	00401AAD
	cmp	ebp,esi
	push	es
	push	cs
	mov	al,3E
	xchg	eax,esp
	insb	
	xor	eax,545830C0
	push	esp
	push	esp
	mov	al,2C
	lodsb	
	xor	ah,[ebx+50504312]
	wait	
	not	dword ptr [eax-09]
	illegal	
	mov	ebx,EEBA7A70
	cmpsd	
	push	esp
	int	03
	fsave	word ptr [eax+5063609A]
	push	esp
	push	esp
	push	esp
	cmpsd	
	pop	esp
	mov	[5454645D],eax
	xor	[edx],ah
	fidiv	dword ptr [edx]
	jz	00401AE5
	xor	dh,[ebp+esi*2-5D]
	dec	ebx
	pop	esp
	push	esp
	push	esp
	idiv	dword ptr [ebp-65]
	wait	
	jge	00401A19
	push	9754546C
	bound	eax,ebp
	sbb	ah,bl
	illegal	
	wait	
	xor	byte ptr [esp+edx*2+54],50
	fidiv	dword ptr [eax+6AA2DB7E]
	jz	00401AEA
	illegal	
	mov	ebx,C0FB7A70
	jle	00401ADA
	illegal	
	pusha	
	aas	
	mov	ah,50
	push	eax
	push	esp
	push	esp
	int	03
	nop	
	in	al,74
	push	esp
	push	esp
	push	eax
	push	dword ptr [edi+7484A354]
	push	esp
	push	esp
	wait	
	push	eax
	idiv	dword ptr [ebp+7D]
	push	eax
	out	dx,al
	push	es
	push	cs
	mov	al,3F
	mov	ah,77
	mov	al,3C
	illegal	
	push	esp
	push	esp
	push	esp
	mov	al,2E
	mov	ah,B0
	out	dx,al
	mov	ah,B0
	out	dx,ax
	mov	ah,B3
	jl	00401A79
	jle	00401B28
	push	eax
	push	eax
	mov	al,86
	xor	al,2D
	xchg	eax,edx
	int	03
	adc	byte ptr [50505050],FF
	xchg	eax,esp
	rol	byte ptr [esi+D4FF5014],01
	rol	byte ptr [esi+50DDA334],01
	push	eax
	push	eax
	mov	[50505065],eax
	idiv	dword ptr [ebp+7D]
	push	eax
	div	edi
	neg	dword ptr [ebx+50502BCF]
	mov	al,[B0775B7E]
	mov	esp,545454D5
	mov	al,[FF50945E]
	cmp	dl,[eax-01]
	pop	ebx
	wait	
	xchg	eax,esp
	push	esp
	push	esp
	mov	al,3E
	cli	
	insb	
	xor	eax,50F6EF50
	illegal	
	push	eax
	call	dword ptr [ebx-65]
	illegal	
	sub	edx,[eax+50]
	int	03
	adc	[esi+1B726084],ebp
	push	esp
	push	esp
	push	esp
	mov	[5050436E],eax
	fidiv	word ptr [eax+2EA3F46E]
	pop	esp
	push	esp
	push	esp
	div	edi
	wait	
	push	eax
	push	eax
	push	eax
	jge	00401BD0
	sar	byte ptr [esi-6C],D6
	cmpsd	
	push	eax
	xchg	eax,edi
	cwde	
	dec	esi
	push	edi
	pop	ebx
	wait	
	popa	
	push	esp
	push	esp
	xchg	eax,edi
	mov	cl,97
	insb	
	sti	
	illegal	
	wait	
	jns	00401BD8
	push	esp
	push	esp
	push	eax
	fisub	dword ptr [edx+FE54946A]
	mov	al,BB
	jo	00401BF3
	cmp	esp,[ebx+54546435]
	push	eax
	div	edi
	jge	00401B7B
	jge	00401B36
	jle	00401BC3
	mov	[FE54B46A],al
	mov	al,BB
	push	eax
	call	dword ptr [edi+4E989750]
	push	edi
	pop	ebx
	wait	
	xchg	[esp+edx*2+54],esp
	xchg	eax,edi
	jnc	00401B4E
	js	00401BA5
	illegal	
	wait	
	lahf	
	insb	
	push	esp
	push	esp
	push	eax
	fisub	dword ptr [edx+FE54746A]
	mov	al,BB
	jo	00401C2E
	illegal	
	aas	
	insb	
	push	esp
	push	esp
	jge	00401C0C
	jge	00401C3B
	not	dword ptr [eax+50]
	wait	
	adc	[ebx+50],al
	push	eax
	in	al,dx
	mov	[5043D89B],al
	push	eax
	out	EB,al
	jc	00401B7E
	aaa	
	jnz	00401B69
	mov	al,[5F347537]
	mov	[B054946A],al
	xlat	
	push	ebp
	insb	
	jmp	00401B93
	xchg	eax,esi
	adc	al,A0
	mov	esi,B43EB03B
	in	eax,dx
	mov	[546464A3],al
	push	esp
	fidiv	word ptr [eax+EDAA6CC4]
	pop	edx
	mov	[5050338B],eax
	bound	ebx,[edx-74]
	in	eax,5C
	pop	esi
	mov	[50503332],eax
	jge	00401C88
	wait	
	wait	
	fst	double ptr [ebp+ebx*8+A2464ED4]
	push	B4
	push	esp
	illegal	
	mov	ebx,B4FFB057
	mov	al,3F
	xchg	eax,esp
	cmp	ebp,ecx
	pop	eax
	mov	[5454648D],eax
	div	edi
	wait	
	div	edi
	jge	00401C80
	jo	00401CA4
	mov	ah,B0
	out	B4,al
	mov	al,E4
	mov	[505023B5],eax
	mov	al,A6
	illegal	
	in	eax,dx
	pop	edx
	mov	bl,94
	bound	ebx,[edx-74]
	in	eax,5C
	jo	00401CAD
	xchg	fs:[eax+1D],esi
	push	esp
	jmp	ebx
	std	
	push	2DAED62B
	jle	00401BEE
	int	03
	cmp	byte ptr [ebx+50],50
	mov	al,66
	adc	al,A3
	pushf	
	and	edx,[eax+50]
	mov	[50501B3B],eax
	mov	[50501BF3],eax
	wait	
	wait	
	jge	00401C11
	dec	edx
	bound	esi,[edx]
	jz	00401CF0
	int	03
	mov	bl,F2
	dec	edx
	bound	esi,[edx]
	jz	00401CF8
	dec	edx
	bound	ecx,esp
	mov	bl,62
	rcr	byte ptr [esi+1923605C],C0
	test	[esp+ecx*8-80],dl
	repne	
	inc	ebx
	push	eax
	push	eax
	push	ss
	xor	dh,ah
	jnz	00401CB2
	mov	[54545C73],eax
	div	edi
	jge	00401CF5
	push	eax
	insb	
	jle	00401CA3
	mov	al,AE
	mov	ah,6C
	mov	esi,D4EF505B
	illegal	
	ficomp	word ptr [ebx+505023BD]
	mov	al,6E
	mov	ah,6C
	jle	00401D1A
	push	eax
	out	dx,ax
	jnz	00401D13
	out	dx,ax
	xchg	eax,esp
	illegal	
	wait	
	mov	eax,[1E50504B]
	jo	00401D40
	xchg	eax,ebp
	sahf	
	mov	[505033D9],eax
	not	dword ptr [eax-65]
	jge	00401C75
	jge	00401CD3
	push	eax
	illegal	
	wait	
	pop	ds
	cmp	edx,[eax+50]
	in	al,5A
	out	dx,ax
	adc	ecx,esp
	and	byte ptr [edi+3B],50
	push	eax
	test	eax,545C5FA3
	push	esp
	wait	
	xlat	
	cmp	edx,[eax+50]
	lodsd	
	mov	dl,CC
	or	byte ptr [ebp+6C],54
	push	esp
	wait	
	pop	edi
	cmp	edx,[eax+50]
	mov	[50503B5E],eax
	mov	ecx,78CC9BE2
	cmp	[ebx+50],ecx
	push	eax
	mov	[54546C55],eax
	jge	00401D12
	wait	
	push	eax
	rep	
	jns	00401CD0
	xchg	eax,edx
	dec	esi
	inc	esi
	mov	[FE54B46A],al
	mov	al,BB
	push	cs
	in	eax,dx
	pop	edx
	mov	al,BE
	mov	ah,B0
	aas	
	xchg	eax,esp
	rep	
	test	eax,946AA24E
	push	esp
	illegal	
	mov	ebx,50432FA3
	push	eax
	div	edi
	neg	dword ptr [ebx+989750A7]
	dec	esi
	push	edi
	pop	ebx
	wait	
	jmp	979471A7
	xchg	esi,ebp
	illegal	
	wait	
	add	[esp+edx*2+54],ebx
	push	eax
	fidiv	dword ptr [eax+6AA2947E]
	xchg	eax,esp
	push	esp
	illegal	
	mov	ebx,54585497
	push	esp
	sar	byte ptr [esi-4C],D6
	mov	[5050433A],eax
	neg	dword ptr [ebx+CC9B9BF7]
	js	00401DBC
	cmp	edx,[eax+50]
	int	03
	or	[esi-2C],edi
	mov	al,[FFB03B7E]
	xchg	eax,esp
	mov	al,4B
	int	03
	or	[esi],edi
	fsub	double ptr [ebx+50503B44]
	jo	00401DD8
	mov	ah,A4
	int	03
	push	50502BCA
	mov	al,72
	in	eax,dx
	jmp	far 5454:A421
	push	esp
	adc	esp,ebx
	insb	
	sbb	ah,[ebx+50502B89]
	div	edi
	idiv	dword ptr [ebp+7D]
	jge	00401E0A
	test	eax,50D63B7E
	call	esp
	sar	byte ptr [esi-4C],D6
	sar	byte ptr [esi-6C],D6
	cmpsd	
	push	eax
	xchg	eax,edi
	cwde	
	dec	esi
	push	edi
	pop	ebx
	wait	
	lds	edx,[esp+edx*2+54]
	xchg	eax,edi
	cmp	[edx+ecx*4+DD9BD6EF],esi
	pop	esp
	push	esp
	push	esp
	push	eax
	fisub	dword ptr [ebx+50504340]
	jge	00401E67
	push	eax
	wait	
	div	edi
	push	eax
	push	ds
	jo	00401D7C
	jz	00401E52
	sub	eax,68CC3BBE
	add	eax,[ebx+50]
	push	eax
	dec	esi
	inc	esi
	mov	cs:[FE54946A],al
	mov	al,BB
	out	dx,al
	ja	00401DBA
	cld	
	illegal	
	push	esp
	push	esp
	push	esp
	mov	al,E6
	mov	ah,B0
	sub	ah,[ebx+50504B0C]
	push	eax
	wait	
	push	eax
	imul	dword ptr [eax+1E9AEAAA]
	test	eax,6A62E26C
	insb	
	adc	esp,[edx]
	adc	esp,edx
	pusha	
	bound	ebp,edx
	jz	00401E85
	push	esp
	pusha	
	and	ebp,edx
	jz	00401E8B
	push	esp
	int	03
	and	byte ptr [edx+33],50
	push	eax
	mov	al,7E
	xchg	eax,esp
	mov	al,BE
	mov	ah,B0
	illegal	
	mov	[50504362],eax
	wait	
	idiv	dword ptr [ebp+7D]
	in	eax,dx
	xor	bh,[ecx-0F]
	wait	
	insb	
	xor	edx,[eax+50]
	out	dx,ax
	or	ebp,ebp
	mov	[502B2B9B],al
	push	eax
	int	03
	jo	00401E16
	dec	ebx
	push	eax
	push	eax
	in	eax,dx
	pop	edx
	wait	
	ret	
	sub	edx,[eax+50]
	int	03
	jo	00401E73
	dec	ebx
	push	eax
	push	eax
	illegal	
	pop	esi
	mov	[50504B4E],eax
	not	dword ptr [eax+7D]
	jge	00401ED3
	jge	00401E72
	pop	edx
	mov	bl,24
	illegal	
	not	byte ptr [edi+5B574E98]
	wait	
	xlat	
	push	eax
	push	eax
	push	eax
	xchg	eax,edi
	pop	dword ptr [ebx+9BD68A3D]
	out	dx,ax
	push	esp
	push	esp
	push	esp
	push	eax
	ficom	dword ptr [esi]
	mov	eax,[54545474]
	not	dword ptr [ebx+19]
	xchg	eax,esp
	push	esp
	push	esp
	push	esp
	mov	[50501B2C],eax
	mov	[5050133B],eax
	wait	
	jge	00401F0B
	jge	00401F0D
	mov	bl,5D
	cmpsd	
	push	esp
	sar	byte ptr [esi-05],D6
	push	eax
	push	dword ptr [esi+edx*8+574E9897]
	pop	ebx
	wait	
	fst	double ptr [eax+50]
	push	eax
	xchg	eax,edi
	inc	esi
	jpe	00401EEA
	retf	
	illegal	
	wait	
	cmc	
	push	esp
	push	esp
	push	esp
	push	eax
	ficom	dword ptr [eax-01]
	xchg	eax,esp
	xchg	eax,edi
	cwde	
	dec	esi
	push	edi
	pop	ebx
	wait	
	or	al,50
	push	eax
	push	eax
	xchg	eax,edi
	adc	ebp,edx
	mov	bh,1F
	illegal	
	wait	
	and	al,54
	push	esp
	push	esp
	push	eax
	fisub	dword ptr [ebx+50501398]
	push	eax
	wait	
	push	eax
	not	dword ptr [eax+50]
	int	03
	nop	
	push	edi
	adc	edx,[eax+50]
	dec	esi
	inc	esi
	mov	cs:[FE54946A],al
	mov	al,BB
	jo	00401F91
	cmp	ebp,esi
	push	es
	push	cs
	mov	al,7E
	xchg	eax,esp
	insb	
	push	esi
	xor	eax,B094FEB0
	push	esi
	pop	ss
	insb	
	push	B0
	sbb	esp,[ebx+50503BC1]
	wait	
	push	eax
	push	eax
	jge	00401ED0
	wait	
	jge	00401F88
	call	dword ptr [eax+eax*8+97D61B7E]
	cwde	
	dec	esi
	push	edi
	pop	ebx
	wait	
	cmp	[ebx+50],ecx
	push	eax
	xchg	eax,edi
	inc	esi
	jpe	00401F5F
	retf	
	illegal	
	wait	
	push	edx
	push	eax
	push	eax
	push	eax
	push	eax
	fisub	dword ptr [edi+1B7EC05C]
	illegal	
	sar	byte ptr [esi-05],D6
	xchg	eax,edi
	cwde	
	dec	esi
	push	edi
	pop	ebx
	wait	
	xor	[ebx+50],cl
	push	eax
	xchg	eax,edi
	in	al,dx
	fild	qword ptr [ecx+50489BD6]
	push	eax
	push	eax
	mov	[50502308],eax
	neg	dword ptr [ebx+2FB0F750]
	aam	6C
	aas	
	xchg	eax,esp
	mov	[50501387],eax
	shl	dword ptr [ecx+58545454],F7
	aam	FD
	push	esp
	push	esp
	push	esp
	pop	eax
	illegal	
	push	eax
	illegal	
	wait	
	sbb	ebp,[ebx]
	push	eax
	push	eax
	mov	bl,CC
	insb	
	jle	00401F37
	rcl	byte ptr [esi+64],D6
	push	eax
	illegal	
	wait	
	xchg	eax,ebx
	sub	edx,[eax+50]
	mov	cl,A3
	sbb	eax,50505013
	neg	dword ptr [ebx+96B07D50]
	illegal	
	mov	al,[56A73ABE]
	push	eax
	illegal	
	push	eax
	call	dword ptr [ebx-65]
	xchg	eax,ecx
	xor	edx,[eax+50]
	mov	al,7E
	pop	ebx
	mov	al,9A
	insb	
	push	esi
	xor	eax,6C9556B0
	bound	esp,[eax+FF50DA7E]
	wait	
	cmpsd	
	push	esp
	wait	
	rol	byte ptr [ebx],01
	push	eax
	push	eax
	mov	al,[84B3FA7E]
	jge	0040206B
	neg	dword ptr [ebx+3EB07D50]
	pop	ebx
	insb	
	xor	eax,5C557260
	push	esp
	push	esp
	mov	al,2E
	mov	ah,6C
	pop	ebx
	push	eax
	illegal	
	push	eax
	illegal	
	out	dx,al
	wait	
	and	[ebx],esp
	push	eax
	push	eax
	adc	edi,[esi+3B]
	xchg	eax,esp
	push	esp
	push	esp
	push	esp
	mul	esp
	push	eax
	call	ebx
	push	eax
	illegal	
	push	eax
	illegal	
	out	dx,al
	wait	
	xchg	[ebx],ecx
	push	eax
	push	eax
	mov	al,[FF507B7E]
	sbb	esp,[ebx+5050035F]
	jge	0040202C
	wait	
	push	eax
	wait	
	jge	00402026
	mov	[50239CA3],al
	push	eax
	loopne	00401FD8
	bound	ebx,[ebx-6C]
	mov	ecx,5023349B
	push	eax
	cmp	eax,54543F54
	int	03
	jo	00402046
	sbb	edx,[eax+50]
	pop	eax
	cmp	edi,[esp+ecx*8+70]
	mov	bl,1B
	push	eax
	push	eax
	jo	0040207C
	dec	edi
	int	03
	nop	
	jnc	00402081
	push	eax
	push	eax
	mov	[50501B3A],eax
	push	eax
	jge	004020C0
	wait	
	jge	00402072
	push	dword ptr [esp+esi*2+25]
	and	eax,F0E9814A
	add	al,00
	add	[eax-4D],cl
	lock	
	mov	bl,dl
	dec	ebx
	mov	dl,ah
	or	esi,edi
	mov	al,13
	or	eax,edx
	mov	ebx,eax
	add	dh,ah
	inc	edx
	or	ah,cl
	mov	dh,20
	add	dl,ch
	mov	ebx,ecx
	dec	edx
	or	ah,bh
	jle	00402358
	mov	ecx,ecx
	jg	00402358
	push	dword ptr [eax+ebp*8-01]
	or	al,dl
	sub	al,dh
	inc	esi
	sub	dh,al
	mov	dl,7D
	xor	ebx,BA776816
	dec	esi
	inc	edx
	sub	dh,cl
	add	dh,bl
	mov	esi,edx
	sub	ah,dh
	mov	al,B2
	mov	eax,edx
	mov	dh,bl
	jpe	0040229B
	lea	eax,[eax]
	rep	
	jpo	0040229B
	push	dword ptr [eax+ebp*8+25]
	jz	004020E2
	call	0B3C232E
	cld	
	sub	bl,cl
	add	bl,dh
	mov	bl,dl
	mov	bl,C9
	lea	edx,[eax+000000F8]
	xor	bl,dh
	inc	esi
	mov	bh,30
	mov	bh,bl
	or	ebx,eax
	jpe	00402589
	jo	00402108
	lea	ecx,[ecx]
	jpo	00402589
	call	25B5203A
	jz	0040213C
	sub	bh,bl
	xor	bh,al
	inc	ebx
	mov	ebx,ecx
	add	bl,ch
	or	bh,ah
	xor	bh,ch
	add	eax,[eax+3C]
	mov	bl,cl
	dec	esi
	add	bh,ch
	xor	bh,dh
	or	edi,ecx
	mov	bh,al
	add	bl,dh
	sub	bh,bl
	mov	edi,ebx
	jo	004020E4
	xchg	esi,esi
	jno	004020E4
	call	00400968
	jz	0040212D
	or	edx,edi
	mov	edx,ebx
	or	bh,bl
	mov	edx,ecx
	mov	ch,9C
	mov	dl,74
	inc	esi
	dec	ecx
	or	ch,dl
	or	ebx,esi
	mov	[esp-08],eax
	inc	ecx
	mov	edx,ebx
	add	cl,ah
	sub	bh,al
	inc	edx
	js	00402A46
	lea	ebx,[ebx]
	jns	00402A46
	jmp	dword ptr [3274E825]
	illegal	
	mov	dh,bl
	inc	esi
	mov	esi,ecx
	xor	dl,cl
	not	al
	mov	edx,ecx
	or	esi,edi
	xor	dl,cl
	inc	edx
	dec	esi
	xor	dl,dh
	or	edx,edi
	xor	dl,cl
	dec	esi
	or	dl,ch
	add	dh,bl
	dec	esi
	jo	004025BC
	push	edi
	pop	edi
	rep	
	jno	004025BC
	and	eax,252574FF
	push	dword ptr [esi+ecx*2+03]
	rol	dword ptr [ebx-75],FB
	inc	edi
	mov	bl,04
	mov	bl,dl
	dec	ebx
	add	bh,cl
	or	bl,al
	or	edi,ebx
	mov	esi,ebx
	or	bl,ah
	mov	bl,dh
	add	bl,dl
	or	esi,edx
	jz	00402488
	repne	
	jnz	00402488
	jz	0040224A
	and	eax,32E8FFE8
	mov	dword ptr [edx-76],02D032D4
	rol	[edi+2A],cl
	cmc	
	or	esi,edi
	add	al,cl
	mov	dl,dh
	inc	esi
	mov	al,bh
	xor	ah,dl
	sub	bh,dh
	jz	00402300
	mov	edi,edi
	jnz	00402300
	push	dword ptr [ebp+25]
	or	esi,edi
	add	dl,ch
	sub	dl,ch
	or	dl,ah
	add	dh,bh
	mov	edx,edi
	or	dh,bh
	or	esi,edi
	add	dh,cl
	mov	dl,71
	xor	dh,al
	mov	dl,3C
	add	dl,ah
	inc	edx
	mov	dl,BD
	sub	dl,ch
	inc	ecx
	inc	esi
	jo	00402B44
	repne	
	jno	00402B44
	jz	0040221D
	jz	004022AB
	inc	ebx
	add	bh,ah
	sub	bh,dl
	xor	bl,cl
	or	bh,al
	or	edi,ecx
	inc	ebx
	mov	ebx,edi
	dec	edi
	add	bl,dh
	xor	bl,bh
	mov	bl,16
	add	bl,bh
	mov	bl,dh
	mov	bl,14
	or	bh,ch
	or	edi,ebx
	xor	bh,ah
	add	bh,dh
	jc	0040261C
	nop	
	jnc	0040261C
	jz	004022DD
	jz	00402290
	illegal	
	and	eax,8BF90B74
	lock	
	or	ebx,esi
	inc	edx
	or	ebx,edx
	mov	edi,esi
	or	edi,ebx
	or	dh,bl
	dec	edx
	mov	bh,cl
	inc	esi
	or	edx,edi
	mov	dh,1C
	jbe	0040255C
	xchg	ch,ch
	ja	0040255C
	illegal	
	and	eax,74FFFF25
	mov	esi,ecx
	mov	dl,dh
	mov	edx,ebx
	add	dl,ah
	or	dh,ah
	or	edx,ebx
	add	dh,bl
	or	dh,ch
	or	dl,bh
	mov	dl,ED
	sub	ah,bl
	dec	edx
	mov	ah,89
	mov	al,ch
	mov	ah,1F
	mov	dh,cl
	js	0040293D
	push	edx
	pop	edx
	rep	
	jns	0040293D
	jz	004022B3
	and	eax,25FF74FF
	mov	eax,edi
	mov	dh,D0
	add	al,bl
	dec	eax
	or	eax,esi
	inc	esi
	add	dh,dl
	xor	al,ah
	add	bl,ah
	sub	al,cl
	sub	dl,cl
	or	bl,al
	mov	ebx,edi
	js	00402735
	lea	eax,[eax]
	jbe	004022F2
	jns	00402735
	and	eax,74E8E8E8
	jmp	dword ptr [32F78BE8]
	hlt	
	inc	esi
	or	bh,cl
	inc	edx
	add	cl,bl
	inc	esi
	mov	dh,EF
	or	dl,bh
	dec	eax
	ret	
	sub	al,bh
	xor	ch,ah
	jpe	00402684
	mov	edi,edi
	jpo	00402684
	call	00290C10
	jmp	dword ptr [D702D08B]
	xor	ah,bl
	add	dh,cl
	mov	edi,esi
	or	dl,ah
	push	00003000
	or	eax,edx
	sub	bl,ch
	dec	edx
	xor	al,ah
	mov	bh,DB
	or	ebx,ecx
	jl	00402977
	nop	
	rep	
	jge	00402977
	call	8B4022CD
	out	32,al
	loopne	004023A8
	or	eax,ebx
	mov	ebx,BA776304
	sub	dh,ch
	mov	ah,FE
	or	eax,esi
	sub	ah,dl
	or	ah,al
	xor	al,ch
	dec	esi
	inc	edx
	jz	004020AF
	nop	
	push	eax
	pop	eax
	jnz	004020AF
	call	746622FA
	dec	dword ptr [ebx]
	ror	[eax+02D73201],cl
	illegal	
	mov	dl,al
	xor	dl,ch
	dec	edx
	xor	dh,ch
	or	esi,edi
	sub	dh,al
	inc	esi
	mov	edx,eax
	dec	edx
	inc	edi
	dec	edx
	or	edx,esi
	add	dh,bl
	jpe	00402205
	push	esi
	pop	esi
	jpo	00402205
	jz	00402428
	jmp	eax
	call	B7290CBA
	rep	
	dec	esi
	or	esi,edi
	add	dh,cl
	mov	dl,54
	or	edx,ebx
	add	dh,bh
	xor	dl,bl
	rol	al,1F
	add	dh,al
	inc	esi
	sub	dl,ah
	mov	dh,2E
	mov	esi,edi
	jle	00402176
	nop	
	jmp	004023E2
	lodsd	
	jg	00402176
	and	eax,7425E825
	call	D94323F1
	sub	bl,ah
	add	eax,08
	mov	edi,esi
	or	esi,ebx
	mov	edi,esi
	xor	bh,bl
	xor	bl,dl
	or	bl,bh
	add	bl,al
	mov	bh,ah
	sub	bh,ah
	mov	esi,eax
	or	bh,cl
	mov	esi,edi
	xor	bh,bl
	or	edi,esi
	jl	00402832
	lea	ebx,[ebx]
	jge	00402832
	jz	00402497
	jz	0040244A
	and	eax,E82A7474
	push	40
	mov	dl,bh
	or	al,ah
	add	dh,ah
	inc	ecx
	or	al,ch
	sub	cl,dl
	inc	edx
	mov	ch,61
	xor	ah,bh
	or	eax,ebx
	mov	eax,ebx
	mov	bl,cl
	js	0040232A
	jmp	0040244D
	jns	0040232A
	call	0B402457
	aam	02
	illegal	
	mov	dh,ch
	sub	dl,bh
	inc	edx
	mov	edx,ebx
	inc	edx
	neg	al
	sub	dl,ch
	add	dh,dl
	mov	dl,44
	dec	edx
	or	dh,dl
	or	esi,ebx
	dec	esi
	add	dl,bl
	mov	dl,cl
	dec	esi
	jle	004023BA
	rep	
	jg	004023BA
	call	25B498AD
	push	dword ptr [eax+10]
	mov	bh,dl
	xor	bh,ah
	mov	bl,ch
	or	edi,ebx
	add	bh,ch
	mov	bh,bl
	add	bl,dh
	inc	edi
	mov	bl,al
	or	ebx,edi
	sub	bl,dl
	mov	edi,eax
	add	bh,cl
	pop	edx
	or	bh,cl
	mov	bl,85
	dec	ebx
	sub	bh,al
	js	00402AE3
	mov	edi,edi
	jns	00402AE3
	and	eax,25252525
	inc	dword ptr [esi-75]
	illegal	
	inc	esi
	shr	eax,10
	mov	edi,esi
	or	esi,eax
	mov	esi,eax
	or	esi,edi
	mov	esi,ebx
	inc	esi
	dec	esi
	add	eax,edx
	dec	esi
	dec	esi
	mov	edi,esi
	mov	esi,eax
	or	esi,edi
	add	eax,ebx
	js	00402237
	rep	
	jns	00402237
	call	75292416
	call	0D720F77
	sbb	[eax-75],eax
	enter	F802,32
	retf	DF02
	or	ecx,eax
	xor	bh,al
	add	cl,al
	inc	ebx
	sub	bl,ah
	add	bh,bl
	mov	bh,ah
	mov	esi,edx
	mov	cl,E4
	mov	cl,ah
	dec	ebx
	jl	00402861
	nop	
	jge	00402861
	call	00400E0E
	sub	al,dl
	add	bl,al
	xor	bh,bl
	mov	ebx,edx
	mov	bh,ch
	xor	bl,ch
	sub	ah,cl
	dec	edx
	push	ecx
	mov	bl,bh
	inc	edx
	or	esi,ecx
	mov	esi,ebx
	or	eax,edx
	mov	al,85
	or	dh,cl
	mov	al,dl
	mov	edx,ecx
	jle	00402078
	mov	bh,bh
	push	ecx
	pop	ecx
	jg	00402078
	and	eax,FFE8E825
	inc	ebx
	dec	ebx
	mov	bl,91
	or	edi,esi
	movzx	edx,al
	or	bl,cl
	mov	bl,44
	or	bl,ch
	dec	esi
	or	esi,edx
	or	bl,dh
	inc	edi
	mov	esi,edx
	jle	00402A7C
	xchg	dh,dh
	jg	00402A7C
	push	dword ptr [edi+edi*8+25]
	call	47B44B89
	or	bh,al
	dec	edi
	mov	ebx,eax
	mov	bh,B7
	dec	esi
	mov	ebx,esi
	push	dword ptr [edx+08]
	mov	bh,05
	inc	ebx
	mov	esi,edi
	dec	edi
	add	bh,dh
	inc	ebx
	xor	bl,dl
	jpe	004028CE
	jpe	004025AA
	jmp	004025B0
	lock	
	jpo	004028CE
	and	eax,E8FFFFE8
	inc	dword ptr [esi+0B]
	test	dword ptr [edx+8AD70BD6],F00A4AF2
	inc	esi
	mov	dh,ah
	or	edx,ebx
	inc	esi
	sub	dh,dl
	or	dh,al
	jc	00402387
	push	edi
	pop	edi
	jnc	00402387
	jz	00402656
	and	eax,E8FF74E8
	mov	cl,dh
	mov	ch,04
	mov	edx,ebx
	dec	esi
	inc	edx
	add	dl,ch
	xor	dl,ch
	add	al,ch
	inc	edx
	mov	esi,edx
	mov	dh,ah
	mov	dl,7E
	mov	ecx,esi
	add	dh,ch
	sub	dl,bh
	or	esi,ebx
	jc	00402428
	mov	edi,edi
	mov	ah,ah
	jnc	00402428
	and	eax,E8E8E8FF
	and	eax,C081E8E8
	xchg	eax,esp
	std	
	xor	al,[eax]
	dec	edi
	mov	esi,eax
	add	bh,dl
	dec	esi
	sub	bl,ch
	mov	esi,edx
	xor	bh,dh
	add	bh,al
	sub	bh,al
	inc	edi
	mov	bl,87
	add	bl,al
	or	bh,al
	xor	bl,dh
	or	esi,ecx
	or	ebx,edx
	mov	bh,52
	xor	bh,cl
	jl	00402907
	push	ecx
	pop	ecx
	rep	
	jge	00402907
	and	eax,74FF2525
	dec	esi
	sub	al,50
	mov	dh,bh
	mov	esi,ecx
	xor	dh,ah
	mov	edx,esi
	mov	dl,cl
	inc	esi
	dec	edx
	inc	edx
	mov	dh,cl
	or	dh,al
	inc	edx
	jpe	00402702
	nop	
	push	eax
	pop	eax
	jpo	00402702
	jz	004026F2
	and	eax,E8FF74E8
	and	eax,DA8B00B2
	or	edx,esi
	mov	ecx,edx
	mov	bl,CD
	inc	esi
	or	edi,ebx
	mov	dh,cl
	sub	bh,al
	xor	ch,bh
	add	al,ah
	mov	bl,6A
	or	edi,ebx
	or	ah,bh
	inc	ebx
	xor	ah,al
	or	esi,ebx
	add	dh,al
	xor	bl,dh
	inc	esi
	sub	al,bl
	xor	dl,dh
	mov	al,cl
	mov	al,7F
	add	dh,ah
	or	edx,eax
	inc	esi
	mov	ebx,edi
	jo	00402896
	jmp	004026C4
	add	al,0F
	or	esp,74000001
	call	25654C44
	xor	al,bh
	xor	ah,al
	add	bh,bl
	xor	ah,dh
	sub	dl,bl
	inc	ebx
	add	dl,bh
	inc	eax
	pop	edi
	xor	ah,bh
	add	dh,cl
	xor	ah,cl
	or	bl,cl
	dec	eax
	inc	ebx
	add	al,cl
	mov	bl,06
	inc	ebx
	jc	004022D0
	repne	
	mov	ebx,ebx
	jnc	004022D0
	call	E8654D01
	add	dl,bl
	xor	dh,dl
	mov	dh,bh
	xor	dh,bh
	mov	dh,6F
	or	dl,bh
	mov	edx,esi
	or	dl,dh
	mov	edx,esi
	ror	al,0A
	mov	edx,esi
	or	edx,ebx
	or	dl,cl
	inc	edx
	mov	dh,bl
	jo	00402457
	rep	
	jno	00402457
	illegal	
	jmp	dword ptr [E82525E8]
	add	ecx,000004F0
	mov	dl,al
	add	bh,cl
	mov	ebx,ecx
	dec	esi
	sub	ah,dl
	add	dl,ah
	or	eax,ebx
	mov	esi,edx
	sub	ah,bl
	mov	dh,bl
	or	ebx,edi
	mov	ah,cl
	jpe	00402526
	rep	
	jle	0040275B
	jpo	00402526
	jz	00402762
	jz	004027D9
	jmp	dword ptr [4EF02AE8]
	mov	bh,cl
	sub	bl,bh
	mov	esi,ecx
	xor	dh,dl
	sub	dl,al
	or	ebx,eax
	add	bl,cl
	mov	edx,eax
	mov	bl,17
	or	edi,ecx
	dec	ebx
	add	dl,ch
	mov	esi,ecx
	shr	ecx,0F
	sub	dl,bl
	mov	al,6D
	jc	0040269F
	lea	ecx,[ecx]
	jnc	0040269F
	jz	0040280F
	call	8C3F9C14
	sti	
	mov	ch,29
	push	00
	inc	ebx
	or	ebx,edi
	mov	dl,E6
	mov	bh,bl
	mov	bh,53
	dec	ecx
	add	dh,ah
	inc	edx
	dec	esi
	sub	dh,dl
	or	edx,ebx
	add	dh,ch
	call	eax
	sub	ch,cl
	jle	00402145
	rep	
	push	ecx
	pop	ecx
	jg	00402145
	call	25B50FF6
	jz	004027D2
	call	DF4300E3
	mov	bh,A8
	or	edi,eax
	or	bh,ch
	push	ecx
	pop	eax
	sub	bl,ah
	inc	ebx
	mov	bh,dh
	add	bh,cl
	mov	esi,edx
	xor	bl,ah
	jl	00402117
	jmp	004027F7
	xchg	eax,edi
	repne	
	jge	00402117
	and	eax,8B25E8FF
	fbstp	tword ptr [edi+4FF50A1E]
	push	dword ptr [ecx]
	inc	esi
	mov	edi,ecx
	sub	dh,cl
	inc	ebx
	sub	bl,cl
	mov	edx,edi
	mov	al,dh
	xor	dh,bl
	dec	esi
	inc	ebx
	xor	al,dh
	dec	eax
	pop	eax
	jz	0040226F
	lea	ecx,[ecx]
	nop	
	jnz	0040226F
	and	eax,43742525
	mov	esi,ecx
	or	edi,esi
	add	bl,al
	mov	eax,[eax]
	or	bh,dh
	mov	bh,cl
	or	bh,ch
	mov	bl,cl
	dec	esi
	or	esi,edi
	inc	ebx
	add	bl,ch
	dec	ebx
	or	bl,dl
	jl	004021AB
	jc	00402854
	jge	004021AB
	push	dword ptr [edi+edi*8+74]
	illegal	
	jz	004027ED
	add	cl,[ebx]
	fdiv	dword ptr [edx]
	retf	
	mov	ch,8D
	mov	cl,ah
	xor	dl,cl
	mov	bl,A3
	or	edx,ebx
	or	dh,ah
	mov	dl,B0
	sub	bh,dl
	xor	dh,ah
	inc	edx
	mov	edi,esi
	mov	bh,BB
	sub	bh,ch
	mov	ch,BF
	jpe	0040279F
	jnc	0040288A
	jpo	0040279F
	jz	00402891
	and	eax,2A2574E8
	sti	
	mov	dh,ah
	dec	ebx
	shl	ecx,0F
	sub	al,ah
	mov	bl,cl
	mov	bl,22
	sub	bh,dl
	dec	esi
	add	ah,dh
	dec	edx
	or	dl,bh
	xor	dh,bh
	mov	ah,95
	sub	dl,ah
	mov	bh,bl
	or	ebx,edx
	or	dh,al
	xor	bl,cl
	jbe	00402802
	repne	
	ja	00402802
	jz	004028EE
	jz	0040293F
	call	4F874ECF
	or	bl,ch
	sub	bh,bl
	xor	bh,al
	mov	bl,C7
	mov	bl,cl
	mov	bh,8C
	lea	eax,[eax+78]
	mov	bh,cl
	sub	bl,dl
	mov	bl,7D
	xor	bh,dh
	mov	bh,al
	sub	bh,cl
	or	bl,dl
	sub	bl,bh
	jc	004023F0
	jmp	004028FB
	les	ecx,[edi]
	sub	edi,FA
	illegal	
	and	eax,FFFF2574
	call	F8C1784E
	retf	
	illegal	
	add	[edi],cl
	test	[ebx],ebx
	add	[eax],eax
	add	[edx],ch
	clc	
	mov	bh,77
	inc	edi
	sub	bl,ah
	dec	esi
	mov	bh,ah
	sub	bl,bh
	or	bh,al
	mov	bh,dh
	mov	ebx,esi
	or	bl,ah
	jz	004027D4
	rep	
	jnz	004027D4
	call	FFB49E23
	and	eax,02D632E8
	loope	004028CD
	rep	
	mov	al,96
	or	al,ah
	mov	dl,ch
	mov	al,[edi]
	inc	esi
	add	dl,bl
	sub	dl,al
	mov	dh,60
	mov	edx,ecx
	mov	dl,17
	mov	dh,al
	or	edx,eax
	sub	dh,bh
	or	edx,edi
	mov	dh,dl
	jbe	00402657
	jmp	0040296C
	cli	
	ja	00402657
	jz	00402973
	call	A6F34EED
	mov	ch,bh
	inc	ecx
	xor	cl,ah
	or	ecx,ebx
	xor	dh,al
	mov	ecx,edi
	call	00402989
	xor	cl,bl
	inc	ebx
	xor	bl,cl
	dec	ecx
	inc	edi
	mov	edi,eax
	xor	cl,ch
	add	dh,ah
	dec	eax
	mov	bh,91
	pop	ecx
	jz	00402A13
	xchg	edi,edi
	jnz	00402A13
	call	00402919
	and	eax,D42AD032
	add	dl,bh
	mov	dl,CC
	xor	dl,bh
	dec	ebx
	mov	esi,ebx
	or	edx,edi
	mov	edx,ecx
	xor	dh,ch
	mov	dh,bl
	or	edx,ecx
	dec	edx
	mov	dl,al
	xor	dl,ah
	inc	esi
	add	dl,ch
	mov	edx,ebx
	jz	004029D8
	jmp	004029CE
	jnz	004029D8
	jz	004029D1
	and	eax,E8FFFF74
	inc	dword ptr [esi+4E]
	mov	esi,edx
	inc	esi
	dec	esi
	or	esi,ecx
	sub	edx,6C068AE8
	inc	esi
	mov	esi,ecx
	mov	esi,ebx
	mov	esi,eax
	cmp	edx,93F97518
	jnz	004022AD
	or	edx,esi
	jpe	004021DA
	jmp	00402A07
	pop	edx
	repne	
	jpo	004021DA
	jmp	eax
	jz	00402A37
	jz	00402A3E
	test	dword ptr [ebx],8A02B7FB
	out	B4,al
	ret	F88A
	add	dl,cl
	mov	edx,esi
	dec	esi
	mov	ah,bh
	inc	eax
	dec	eax
	mov	dh,bh
	sub	ah,dh
	xor	al,bl
	add	dh,bh
	dec	ecx
	jpe	00402768
	rep	
	xchg	al,al
	jpo	00402768
	and	eax,E8E82525
	jz	00402A51
	jmp	00402A4B
	in	al,dx
	mov	dl,81
	dec	esi
	inc	ecx
	or	edi,edx
	mov	ecx,eax
	mov	bl,dl
	add	ah,bh
	xor	al,dl
	sub	dl,bl
	mov	esi,edi
	or	edi,eax
	xor	ah,cl
	mov	ebx,edi
	or	dl,ah
	mov	bh,46
	mov	bl,al
	jo	004026D0
	repne	
	mov	esi,esi
	jno	004026D0
	jz	00402A61
	call	4B874FF2
	or	bl,ah
	mov	esi,eax
	xor	bh,al
	mov	ebx,esi
	or	bl,cl
	mov	bl,al
	mov	bh,1D
	movzx	ebx,ah
	mov	esi,edx
	or	edi,esi
	or	edi,eax
	inc	esi
	jle	004024C0
	jmp	00402AA2
	illegal	
	push	eax
	pop	eax
	jg	004024C0
	and	eax,E8FF7425
	or	ch,ah
	xor	bh,ch
	sub	edx,BFE6F2AB
	add	bh,dl
	inc	ecx
	xor	bh,dh
	mov	ebx,edx
	xor	bl,ah
	inc	edi
	or	cl,bl
	mov	ecx,edi
	mov	bh,cl
	dec	esi
	xor	bl,ah
	or	esi,edx
	mov	bh,51
	or	edi,ecx
	dec	ebx
	jo	00402B10
	lea	esi,[esi]
	mov	ah,ah
	jno	00402B10
	and	eax,FF25E874
	call	D9729F0A
	inc	ebx
	mov	bl,ah
	mov	ebx,edi
	add	bh,ch
	dec	edi
	sub	bl,ch
	add	edx,ecx
	dec	ecx
	or	ecx,ebx
	inc	esi
	sub	bh,ah
	inc	esi
	mov	ch,5C
	or	ecx,edx
	sub	bl,dl
	mov	cl,45
	dec	edi
	jo	00402AAF
	push	esi
	pop	esi
	repne	
	jno	00402AAF
	jz	00402B7E
	jz	00402B31
	jz	00402AF6
	call	3304DCFB
	fld	dword ptr [edi-4F]
	add	al,4F
	xor	bl,cl
	add	ch,bl
	mov	edi,edx
	add	bh,al
	mov	edi,ecx
	mov	ch,dl
	or	ecx,eax
	dec	esi
	xor	ch,bl
	mov	ch,bl
	xor	ch,dh
	sub	bh,dh
	xor	cl,dl
	jo	004024F2
	xchg	ebx,ebx
	jno	004024F2
	jz	00402BB5
	jz	00402B42
	jz	00402AD0
	xlat	
	xor	dl,ch
	sub	dh,bh
	add	dh,al
	xor	dh,al
	dec	esi
	sub	dh,bl
	mov	esi,ebx
	mov	dl,al
	or	esi,eax
	add	dl,bh
	mov	edx,ecx
	add	dl,bh
	jbe	004029A6
	jmp	00402B69
	jmp	00402B79
	xchg	[edi],esi
	illegal	
	illegal	
	push	dword ptr [ebp+00]
	add	[eax],al
	add	[eax],al
	add	[eax],al
	add	[eax],al
	add	[eax],al
	add	[eax],al
	add	[eax],al
	add	[eax],al
	add	[eax],al
	add	[eax],al
	add	[eax],al
	add	[eax],al
	add	[eax],al
	add	[eax],al
	add	[eax],al
	add	[eax],al
	add	[eax],al
	add	[eax],al
	add	[eax],al
	add	[eax],al
	add	[eax],al
	add	[eax],al
	add	[eax],al
	add	[eax],al
	add	[eax],al
	add	[eax],al
	add	[eax],al
	add	[eax],al
	add	[eax],al
	add	[eax],al
	add	[eax],al
	add	[eax],al
	add	[eax],al
	add	[eax],al
	add	[eax],al
	add	[eax],al
	add	[eax],al
	add	[eax],al
	add	[eax],al
	add	[eax],al
	add	[eax],al
	add	[eax],al
	add	[eax],al
	add	[eax],al
	add	[eax],al
	add	[eax],al
	add	[eax],al
	add	[eax],al
	add	[eax],al
	add	[eax],al
	add	[eax],al
	add	[eax],al
	add	[eax],al
	add	[eax],al
	add	[eax],al
	add	[eax],al
	add	[eax],al
	add	[eax],al
	add	[eax],al
	add	[eax],al
	add	[eax],al
	add	[eax],al
	add	[eax],al
	add	[eax],al
	add	[eax],al
	add	[eax],al
	add	[eax],al
	add	[eax],al
	add	[eax],al
	add	[eax],al
	add	[eax],al
	add	[eax],al
	add	[eax],al
	add	[eax],al
	add	[eax],al
	add	[eax],al
	add	[eax],al
	add	[eax],al
	add	[eax],al
	add	[eax],al
	add	[eax],al
	add	[eax],al
	add	[eax],al
	add	[eax],al
	add	[eax],al
	add	[eax],al
	add	[eax],al
	add	[eax],al
	add	[eax],al
	add	[eax],al
	add	[eax],al
	add	[eax],al
	add	[eax],al
	add	[eax],al
	add	[eax],al
	add	[eax],al
	add	[eax],al
	add	[eax],al
	add	[eax],al
	add	[eax],al
	add	[eax],al
	add	[eax],al
	add	[eax],al
	add	[eax],al
	add	[eax],al
	add	[eax],al
	add	[eax],al
	add	[eax],al
	add	[eax],al
	add	[eax],al
	add	[eax],al
	add	[eax],al
	add	[eax],al
	add	[eax],al
	add	[eax],al
	add	[eax],al
	add	[eax],al
	add	[eax],al
	add	[eax],al
	add	[eax],al
	add	[eax],al
	add	[eax],al
	add	[eax],al
	add	[eax],al
	add	[eax],al
	add	[eax],al
	add	[eax],al
	add	[eax],al
	add	[eax],al
	add	[eax],al
	add	[eax],al
	add	[eax],al
	add	[eax],al
	add	[eax],al
	add	[eax],al
	add	[eax],al
	add	[eax],al
	add	[eax],al
	add	[eax],al
	add	[eax],al
	add	[eax],al
	add	[eax],al
	add	[eax],al
	add	[eax],al
	add	[eax],al
	add	[eax],al
	add	[eax],al
	add	[eax],al
	add	[eax],al
	add	[eax],al
	add	[eax],al
	add	[eax],al
	add	[eax],al
	add	[eax],al
	add	[eax],al
	add	[eax],al
	add	[eax],al
	add	[eax],al
	add	[eax],al
	add	[eax],al
	add	[eax],al
	add	[eax],al
	add	[eax],al
	add	[eax],al
	add	[eax],al
	add	[eax],al
	add	[eax],al
	add	[eax],al
	add	[eax],al
	add	[eax],al
	add	[eax],al
	add	[eax],al
	add	[eax],al
	add	[eax],al
	add	[eax],al
	add	[eax],al
	add	[eax],al
	add	[eax],al
	add	[eax],al
	add	[eax],al
	add	[eax],al
	add	[eax],al
	add	[eax],al
	add	[eax],al
	add	[eax],al
	add	[eax],al
	add	[eax],al
	add	[eax],al
	add	[eax],al
	add	[eax],al
	add	[eax],al
	add	[eax],al
	add	[eax],al
	add	[eax],al
	add	[eax],al
	add	[eax],al
	add	[eax],al
	add	[eax],al
	add	[eax],al
	add	[eax],al
	add	[eax],al
	add	[eax],al
	add	[eax],al
	add	[eax],al
	add	[eax],al
	add	[eax],al
	add	[eax],al
	add	[eax],al
	add	[eax],al
	add	[eax],al
	add	[eax],al
	add	[eax],al
	add	[eax],al
	add	[eax],al
	add	[eax],al
	add	[eax],al
	add	[eax],al
	add	[eax],al
	add	[eax],al
	add	[eax],al
	add	[eax],al
	add	[eax],al
	add	[eax],al
	add	[eax],al
	add	[eax],al
	add	[eax],al
	add	[eax],al
	add	[eax],al
	add	[eax],al
	add	[eax],al
	add	[eax],al
	add	[eax],al
	add	[eax],al
	add	[eax],al
	add	[eax],al
	add	[eax],al
	add	[eax],al
	add	[eax],al
	add	[eax],al
	add	[eax],al
	add	[eax],al
	add	[eax],al
	add	[eax],al
	add	[eax],al
	add	[eax],al
	add	[eax],al
	add	[eax],al
	add	[eax],al
	add	[eax],al
	add	[eax],al
	add	[eax],al
	add	[eax],al
	add	[eax],al
	add	[eax],al
	add	[eax],al
	add	[eax],al
	add	[eax],al
	add	[eax],al
	add	[eax],al
	add	[eax],al
	add	[eax],al
	add	[eax],al
	add	[eax],al
	add	[eax],al
	add	[eax],al
	add	[eax],al
	add	[eax],al
	add	[eax],al
	add	[eax],al
	add	[eax],al
	add	[eax],al
	add	[eax],al
	add	[eax],al
	add	[eax],al
	add	[eax],al
	add	[eax],al
	add	[eax],al
	add	[eax],al
	add	[eax],al
	add	[eax],al
	add	[eax],al
	add	[eax],al
	add	[eax],al
	add	[eax],al
	add	[eax],al
	add	[eax],al
	add	[eax],al
	add	[eax],al
	add	[eax],al
	add	[eax],al
	add	[eax],al
	add	[eax],al
	add	[eax],al
	add	[eax],al
	add	[eax],al
	add	[eax],al
	add	[eax],al
	add	[eax],al
	add	[eax],al
	add	[eax],al
	add	[eax],al
	add	[eax],al
	add	[eax],al
	add	[eax],al
	add	[eax],al
	add	[eax],al
	add	[eax],al
	add	[eax],al
	add	[eax],al
	add	[eax],al
	add	[eax],al
	add	[eax],al
	add	[eax],al
	add	[eax],al
	add	[eax],al
	add	[eax],al
	add	[eax],al
	add	[eax],al
	add	[eax],al
	add	[eax],al
	add	[eax],al
	add	[eax],al
	add	[eax],al
	add	[eax],al
	add	[eax],al
	add	[eax],al
	add	[eax],al
	add	[eax],al
	add	[eax],al
	add	[eax],al
	add	[eax],al
	add	[eax],al
	add	[eax],al
	add	[eax],al
	add	[eax],al
	add	[eax],al
	add	[eax],al
	add	[eax],al
	add	[eax],al
	add	[eax],al
	add	[eax],al
	add	[eax],al
	add	[eax],al
	add	[eax],al
	add	[eax],al
	add	[eax],al
	add	[eax],al
	add	[eax],al
	add	[eax],al
	add	[eax],al
	add	[eax],al
	add	[eax],al
	add	[eax],al
	add	[eax],al
	add	[eax],al
	add	[eax],al
	add	[eax],al
	add	[eax],al
	add	[eax],al
	add	[eax],al
	add	[eax],al
	add	[eax],al
	add	[eax],al
	add	[eax],al
	add	[eax],al
	add	[eax],al
	add	[eax],al
	add	[eax],al
	add	[eax],al
	add	[eax],al
	add	[eax],al
	add	[eax],al
	add	[eax],al
	add	[eax],al
	add	[eax],al
	add	[eax],al
	add	[eax],al
	add	[eax],al
	add	[eax],al
	add	[eax],al
	add	[eax],al
	add	[eax],al
	add	[eax],al
	add	[eax],al
	add	[eax],al
	add	[eax],al
	add	[eax],al
	add	[eax],al
	add	[eax],al
	add	[eax],al
	add	[eax],al
	add	[eax],al
	add	[eax],al
	add	[eax],al
	add	[eax],al
	add	[eax],al
	add	[eax],al
	add	[eax],al
	add	[eax],al
	add	[eax],al
	add	[eax],al
	add	[eax],al
	add	[eax],al
	add	[eax],al
	add	[eax],al
	add	[eax],al
	add	[eax],al
	add	[eax],al
	add	[eax],al
	add	[eax],al
	add	[eax],al
	add	[eax],al
	add	[eax],al
	add	[eax],al
	add	[eax],al
	add	[eax],al
	add	[eax],al
	add	[eax],al
	add	[eax],al
	add	[eax],al
	add	[eax],al
	add	[eax],al
	add	[eax],al
	add	[eax],al
	add	[eax],al
	add	[eax],al
	add	[eax],al
	add	[eax],al
	add	[eax],al
	add	[eax],al
	add	[eax],al
	add	[eax],al
	add	[eax],al
	add	[eax],al
	add	[eax],al
	add	[eax],al
	add	[eax],al
	add	[eax],al
	add	[eax],al
	add	[eax],al
	add	[eax],al
	add	[eax],al
	add	[eax],al
	add	[eax],al
	add	[eax],al
	add	[eax],al
	add	[eax],al
	add	[eax],al
	add	[eax],al
	add	[eax],al
	add	[eax],al
	add	[eax],al
	add	[eax],al
	add	[eax],al
	add	[eax],al
	add	[eax],al
	add	[eax],al
	add	[eax],al
	add	[eax],al
	add	[eax],al
	add	[eax],al
	add	[eax],al
	add	[eax],al
	add	[eax],al
	add	[eax],al
	add	[eax],al
	add	[eax],al
	add	[eax],al
	add	[eax],al
	add	[eax],al
	add	[eax],al
	add	[eax],al
	add	[eax],al
	add	[eax],al
	add	[eax],al
	add	[eax],al
	add	[eax],al
	add	[eax],al
	add	[eax],al
	add	[eax],al
	add	[eax],al
	add	[eax],al
	add	[eax],al
	add	[eax],al
	add	[eax],al
	add	[eax],al
	add	[eax],al
	add	[eax],al
	add	[eax],al
	add	[eax],al
	add	[eax],al
	add	[eax],al
	add	[eax],al
	add	[eax],al
	add	[eax],al
	add	[eax],al
	add	[eax],al
	add	[eax],al
	add	[eax],al
	add	[eax],al
	add	[eax],al
	add	[eax],al
	add	[eax],al
	add	[eax],al
	add	[eax],al
	add	[eax],al
	add	[eax],al
	add	[eax],al
	add	[eax],al
	add	[eax],al
	add	[eax],al
	add	[eax],al
	add	[eax],al
	add	[eax],al
	add	[eax],al
	add	[eax],al
	add	[eax],al
	add	[eax],al
	add	[eax],al
	add	[eax],al
	add	[eax],al
	add	[eax],al
	add	[eax],al
	add	[eax],al
	add	[eax],al
	add	[eax],al
	add	[eax],al
	add	[eax],al
	add	[eax],al
	add	[eax],al
	add	[eax],al
	add	[eax],al
	add	[eax],al
	add	[eax],al
	add	[eax],al
	add	[eax],al
	add	[eax],al
	add	[eax],al
	add	[eax],al
	add	[eax],al
	add	[eax],al
	add	[eax],al
	add	[eax],al
	add	[eax],al
	add	[eax],al
	add	[eax],al
	add	[eax],al
	add	[eax],al
	add	[eax],al
	add	[eax],al
	add	[eax],al
	add	[eax],al
	add	[eax],al
	add	[eax],al
	add	[eax],al
	add	[eax],al
	add	[eax],al
	add	[eax],al
	add	[eax],al
	add	[eax],al
	add	[eax],al
	add	[eax],al
	add	[eax],al
	add	[eax],al
	add	[eax],al
	add	[eax],al
	add	[eax],al
	add	[eax],al
	add	[eax],al
	add	[eax],al
	add	[eax],al
	add	[eax],al
	add	[eax],al
	add	[eax],al
	add	[eax],al
	add	[eax],al
	add	[eax],al
	add	[eax],al
	add	[eax],al
	add	[eax],al
	add	[eax],al
	add	[eax],al
00403000 FF 00 FD F7 AB 90 43 E7 FF 20 9C 00 08 8D 00 71 ......C.. .....q
00403010 A6 31 FB 20 B7 47 81 19 5F 4D 6B F6 59 00 2A 6D .1. .G.._Mk.Y.*m
00403020 BD 00 80 92 00 86 15 D2 CF FD BB 3D F7 F5 9D 00 ...........=....
00403030 12 48 2D 3A 97 F0 00 40 8E 54 A8 9B A3 85 08 EF .H-:...@.T......
00403040 A2 FF 36 A3 85 72 FF 90 0E 30 6B 6C F1 F9 3B 00 ..6..r...0kl..;.
00403050 77 00 78 26 4E 80 0D 25 64 34 E9 03 25 DA 67 56 w.x&N..%d4..%.gV
00403060 EB 0E 34 BF D4 4A FD F0 BA 20 FF 07 00 54 29 A3 ..4..J... ...T).
00403070 A7 39 00 00 70 6F 42 00 08 C1 00 B4 B8 E2 31 2F .9..poB.......1/
00403080 00 FB 00 ED 00 FC 00 F6 35 D8 34 B7 78 3B 47 10 ........5.4.x;G.
00403090 90 D7 DC FF 35 ED D2 FB 4E 24 00 1A 00 9F 00 39 ....5...N$.....9
004030A0 C1 34 01 81 11 BB 91 8E 3C 33 AD 00 81 43 F5 E9 .4......<3...C..
004030B0 44 0C FA 6B 8D 72 88 83 00 00 00 71 BC 4D 4C 69 D..k.r.....q.MLi
004030C0 00 9C 44 AC D8 C1 9B C7 0B 00 07 92 BF FF 0B 45 ..D............E
004030D0 70 6B 00 26 00 8B 09 00 2F 25 63 21 AF 47 D4 A0 pk.&..../%c!.G..
004030E0 1A BD 10 39 E1 10 D9 74 00 00 51 1E 83 B6 BE 79 ...9...t..Q....y
004030F0 58 32 33 99 A4 85 00 AC 7C 99 66 E8 00 8A 00 40 X23.....|.f....@
00403100 A4 6E 58 A6 8A 0D D8 E0 00 E2 00 1D 5D 00 3C 85 .nX.........].<.
00403110 63 94 79 70 D8 F4 59 16 AF FF FB 22 B7 0C 26 FF c.yp..Y...."..&.
00403120 2E 08 28 24 C4 E8 CA DD 00 E0 5F 00 1C 30 72 EB ..($......_..0r.
00403130 35 28 41 32 C9 D1 75 7A 88 99 31 C5 BF B7 FF 51 5(A2..uz..1....Q
00403140 E2 71 46 DD F6 C6 30 93 A5 00 00 40 72 DC A2 6F .qF...0....@r..o
00403150 E8 0E 20 04 D0 BD FF 0E E4 FF 1F 2A 51 D8 EF 00 .. ........*Q...
00403160 00 9F 2A 58 C6 F8 D2 AA 98 86 8E 87 49 A6 BC 85 ..*X........I...
00403170 0C 8F 84 00 8E 59 29 00 B2 62 84 94 79 CA F4 19 .....Y)..b..y...
00403180 19 53 6E 5F A3 D0 00 0A 20 30 C3 7B 0A 7C 00 00 .Sn_.... 0.{.|..
00403190 AA 04 C5 47 E9 EC FF C4 C1 88 DB 00 D8 3F 0F 94 ...G.........?..
004031A0 7E FE E8 E7 66 1E AE 29 48 0A 35 30 70 B6 DA CD ~...f..)H.50p...
004031B0 D6 A2 CF 18 08 AE 20 A9 DB BC 00 28 2F F8 52 0E ...... ....(/.R.
004031C0 B7 1C 83 4F 63 48 EA 0F 28 B8 00 9E 68 00 0E 4D ...OcH..(...h..M
004031D0 9B 27 00 7A 20 F8 F8 A6 87 FF 00 58 45 00 30 26 .'.z ......XE.0&
004031E0 00 BB D3 F8 41 00 FF 88 FD 03 6B 30 B8 A5 4D 02 ....A.....k0..M.
004031F0 F9 DC 00 D8 60 4A 81 AE 78 5C 61 05 8C 00 09 50 ....`J..x\a....P
00403200 A3 D8 57 FF 98 AD 00 C5 60 F7 07 10 20 3C 60 23 ..W.....`... <`#
00403210 0F 7E AA FE 72 C0 00 46 C1 C1 A1 8D F7 82 4D F2 .~..r..F......M.
00403220 B4 A3 48 7D 00 1D 28 8D C1 DB FF 1D DF 2D BC FF ..H}..(......-..
00403230 5E 00 AF 00 A3 B1 E2 C2 A3 2B 97 09 01 5E 4E FF ^........+...^N.
00403240 00 A0 09 02 D8 8B DA 3E 65 2D 44 14 00 00 C0 0B .......>e-D.....
00403250 1F 28 A1 70 B0 02 85 89 5C 00 FF FD 56 0D B5 48 .(.p....\...V..H
00403260 6F 27 27 37 35 35 D9 2C B6 FD 03 A6 93 F9 1C ED o''755.,........
00403270 00 B7 C8 BD 61 53 CE 67 D6 51 1C 00 00 61 38 3B ....aS.g.Q...a8;
00403280 00 BB D3 DF F8 00 11 DF C5 00 69 1F B9 ED 8F 1D ..........i.....
00403290 8E 6A 0F C6 D1 45 05 45 04 11 77 00 A2 30 28 89 .j...E.E..w..0(.
004032A0 18 8D CC 1D 82 C8 83 BF 17 99 E9 2D CC 14 FA C1 ...........-....
004032B0 FF D8 12 00 E2 26 BF 16 BD FF 7C 87 00 F9 DF 1E .....&....|.....
004032C0 00 F0 AA D2 84 1D 7E F8 56 FC BE BC 7F ED BF 6D ......~.V......m
004032D0 FE 8B 52 0C 66 1C 32 FF FC 29 FF 49 86 F1 03 BB ..R.f.2..).I....
004032E0 E0 CB CD 10 00 00 FF D5 00 31 64 54 00 72 00 00 .........1dT.r..
004032F0 FB 9C B9 37 9E F4 EA 34 C3 F3 28 00 81 8B 40 9C ...7...4..(...@.
00403300 C9 00 AB 38 23 FF 9D 8A 5C C1 41 5C FF 00 52 00 ...8#...\.A\..R.
00403310 00 88 00 F0 C1 17 5A 0F E0 00 81 18 80 EF 10 B2 ......Z.........
00403320 00 FF 0A CD 1D 33 E4 F1 BF 03 FF 95 46 3B 6C 26 .....3......F;l&
00403330 FD CB 6F 42 F6 4C 0C 00 5F 48 00 80 00 7E FF 84 ..oB.L.._H...~..
00403340 0C 61 42 97 01 6A 43 00 93 24 AE 22 00 C2 07 9B .aB..jC..$."....
00403350 00 00 7C 8C FF 81 40 FF 24 FD 00 07 00 C0 14 68 ..|...@.$......h
00403360 C5 E1 90 CC 75 02 F3 9B B1 CF 7C 87 71 9A 44 52 ....u.....|.q.DR
00403370 4A 63 26 9A 45 5C 76 C6 00 1D 2C 42 00 6F 19 FD Jc&.E\v...,B.o..
00403380 00 00 09 E5 65 B1 1B FF 05 D9 8B 41 C7 F7 C8 97 ....e......A....
00403390 90 84 4F F7 B7 00 FF 50 E0 DE C5 09 81 0D C1 FF ..O....P........
004033A0 8D FB A7 D2 F5 55 F9 26 D6 00 74 00 00 30 A1 71 .....U.&..t..0.q
004033B0 EF 52 22 42 00 00 51 2B 22 3F 26 61 1F CC 00 4F .R"B..Q+"?&a...O
004033C0 CB C9 43 B0 F7 31 00 F6 08 64 CB 01 08 B7 DE 07 ..C..1...d......
004033D0 B9 79 CE A6 C2 63 A8 57 C0 B7 00 6D DB 3C 2C 02 .y...c.W...m.<,.
004033E0 88 35 FA 00 DC EB 00 67 D5 40 C1 8E 2C 58 2F DE .5.....g.@..,X/.
004033F0 6B 23 D1 43 00 81 00 FF 88 00 37 9C 00 E6 F6 FF k#.C......7.....
00403400 00 BE 68 72 C1 D5 0B 54 00 28 42 5B 00 97 0F 93 ..hr...T.(B[....
00403410 FF E3 00 12 E3 00 0D F7 2C 05 9C 76 EC 38 DF 62 ........,..v.8.b
00403420 A9 2D C2 00 41 32 77 18 80 CE 6A 91 2B FD E0 B6 .-..A2w...j.+...
00403430 3F E8 33 19 A5 B9 0E 79 00 DD 8B DF 61 27 45 E0 ?.3....y....a'E.
00403440 22 FC 5E 35 C6 9B BE C4 83 99 1A E8 BF 8E FF 00 ".^5............
00403450 7A 78 4B 60 7C FB 44 00 00 C2 06 4F DE 8B 00 70 zxK`|.D....O...p
00403460 63 00 92 35 DF 91 E2 B1 00 00 FF 15 59 BE F1 9E c..5........Y...
00403470 E7 16 EB A5 B5 E7 EA 1E 12 F7 7D 1F 41 00 FF E1 ..........}.A...
00403480 FB D6 6E 54 70 6A A0 E6 01 00 00 C8 0C 00 01 1C ..nTpj..........
00403490 E6 00 FF 8E BA 00 10 20 91 97 47 76 32 12 F8 3D ....... ..Gv2..=
004034A0 82 23 EF 8A 5B FF 39 C8 4D 55 C7 4A 32 B5 93 BB .#..[.9.MU.J2...
004034B0 E3 50 C3 3A 13 C8 02 FF 6C 56 63 29 6F 62 06 43 .P.:....lVc)ob.C
004034C0 00 47 BF E3 88 0D 2D 00 52 00 E2 99 00 2E 4B 58 .G....-.R.....KX
004034D0 00 00 C6 21 37 69 FD 9C 83 1E D3 C1 A1 B4 67 3F ...!7i........g?
004034E0 EB 6C 7F 00 00 66 AB B7 5A 00 E8 DD 8F 72 69 30 .l...f..Z....ri0
004034F0 1B BF 0D CC 7B 9D 00 0F DB 4D 00 F7 80 10 FF E9 ....{....M......
00403500 A0 D4 05 CA 00 12 00 32 2B 16 C9 00 B4 FF D3 ED .......2+.......
00403510 78 83 FF C0 17 86 09 23 16 DD 86 FF 73 BD 06 88 x......#....s...
00403520 0B C4 8B 18 10 9E A1 BC F4 20 00 0E 8C 84 76 2A ......... ....v*
00403530 FF FF 36 CE 3F 78 B6 64 0D FF B4 91 61 1C 80 FF ..6.?x.d....a...
00403540 D9 64 54 FC 2C 11 FF 50 70 33 8E 30 7E A3 C3 30 .dT.,..Pp3.0~..0
00403550 C1 FB DA 2D AF FF 91 1E 20 2F 78 C0 FF 41 D5 29 ...-.... /x..A.)
00403560 4F D2 82 5B D9 DA 00 EB 41 F9 45 42 4D FF 64 9B O..[....A.EBM.d.
00403570 00 D0 73 43 00 53 2F 8F 00 9F 24 00 83 00 98 39 ..sC.S/...$....9
00403580 C1 32 94 1B 00 2D FA 94 A8 00 1E BF 16 37 2A FB .2...-.......7*.
00403590 9A 9C 96 22 00 81 0B 3E C1 D6 D2 12 4E DF 71 51 ..."...>....N.qQ
004035A0 00 00 C6 AE 00 6F 0E 30 9F EF D0 DF 1C 3D A1 C3 .....o.0.....=..
004035B0 F1 21 DF 79 36 F8 00 2F 97 FF F5 63 25 07 91 6C .!.y6../...c%..l
004035C0 E9 9D AF D0 01 6D BB 36 03 CB 6E 41 01 CB F2 FF .....m.6..nA....
004035D0 D2 A4 C4 A9 FF 04 9D D7 B8 9C 02 6E 2B EE 24 33 ...........n+.$3
004035E0 3F 98 00 ED 2C D0 00 55 00 1C 46 00 C6 F5 00 06 ?...,..U..F.....
004035F0 03 7D 4F 8A 20 B7 CB 28 3A 28 B8 F8 6F 64 5D 70 .}O. ..(:(..od]p
00403600 83 63 E8 D8 E9 04 22 80 B4 4C 64 FE 86 68 93 2B .c...."..Ld..h.+
00403610 85 6F 3F 22 48 00 FD 17 00 00 73 85 6F E1 40 05 .o?"H.....s.o.@.
00403620 82 00 00 0C 4E FF 9C 08 32 34 C7 0A BC 77 9B C0 ....N...24...w..
00403630 69 63 7F 81 B3 10 26 BE 3E 1B EC 8D 83 FA 94 46 ic....&.>......F
00403640 A3 D5 00 93 0A 00 32 62 D5 F8 11 84 5E 3F DF F4 ......2b....^?..
00403650 8D B7 B9 40 2D 5E AC C2 08 E0 E0 00 00 5D A6 A8 ...@-^.......]..
00403660 00 00 8F 29 42 CE ED 4F 9D 15 A2 FF 04 D3 F6 00 ...)B..O........
00403670 FA 47 EC FF 7F D5 E5 7F 62 E4 00 A6 73 36 67 86 .G......b...s6g.
00403680 8D FC 00 92 00 BE 00 EF F2 4C D1 0C FF 00 EC 3C .........L.....<
00403690 0D 65 FF FF 82 9D 1B 00 90 00 F1 5E EF AD B0 3E .e.........^...>
004036A0 80 05 B0 30 E5 00 71 FF BC 00 41 00 1A C5 C3 38 ...0..q...A....8
004036B0 81 00 B2 BD 81 88 BD D9 44 00 03 2D BE 00 13 71 ........D..-...q
004036C0 10 35 F9 C6 C5 C7 89 F0 03 77 A0 70 F9 18 55 1E .5.......w.p..U.
004036D0 6E 9A 1B 4E 3C 1A F8 E4 30 00 24 35 48 63 D8 F6 n..N<...0.$5Hc..
004036E0 99 FD FF FF 00 2A DF B0 03 A6 D1 F7 D7 B7 C5 06 .....*..........
004036F0 D2 55 26 E9 5A B2 86 E1 DD DB FF 26 65 3D 00 F1 .U&.Z......&e=..
00403700 82 F1 30 18 A4 B9 45 97 F9 34 F8 06 00 63 00 06 ..0...E..4...c..
00403710 10 AE 2E 04 9E B6 AC EF 72 3D D8 6D D2 7F 82 BF ........r=.m....
00403720 03 E4 00 68 1D 29 E2 33 02 61 83 C4 ED 00 25 6C ...h.).3.a....%l
00403730 00 A6 27 FC 0A E7 52 18 87 A2 74 01 33 6B E5 83 ..'...R...t.3k..
00403740 8A 8C A1 00 BF 80 F2 F3 83 35 01 51 A8 29 68 6B .........5.Q.)hk
00403750 B7 40 2D 00 00 58 23 53 00 FB 9F 7C 79 FD 00 3D .@-..X#S...|y..=
00403760 AF E4 63 66 DC 00 7D 0C AD 40 26 9C 0C 32 93 D3 ..cf..}..@&..2..
00403770 24 F0 3A 00 57 FB C6 B9 64 56 B6 88 79 9C 03 00 $.:.W...dV..y...
00403780 E0 7C F9 45 00 2E 7C 85 AD 6A 68 94 FB 57 2F DC .|.E..|..jh..W/.
00403790 4C 00 00 30 FF FF 07 4B 82 7B A4 74 17 43 AF 84 L..0...K.{.t.C..
004037A0 78 48 2D 00 1E 99 4A EF CE 97 6C 86 40 B5 93 EE xH-...J...l.@...
004037B0 00 49 41 61 00 25 9A 71 6F 04 00 FA 17 6B 32 00 .IAa.%.qo....k2.
004037C0 14 DE 94 FF C7 A2 62 15 EC B8 21 9E 1D 13 BD 00 ......b...!.....
004037D0 A2 00 D5 CD F3 84 00 DD 04 31 2C A2 82 00 DF B9 .........1,.....
004037E0 74 D8 7B 7C 7A 00 8D 02 3A D2 D5 36 DE EA FF 7E t.{|z...:..6...~
004037F0 00 A2 91 63 B1 2A 1E 7C D3 DF 6C 12 84 04 00 CC ...c.*.|..l.....
00403800 C7 90 67 F3 16 60 1A 02 85 74 5B 99 61 FB EB 0A ..g..`...t[.a...
00403810 22 C5 00 F6 4A 02 FF E0 CA 06 E6 10 00 91 00 75 "...J..........u
00403820 FC AA 4E 34 FF 3C 33 A7 28 D0 00 00 75 11 6C C0 ..N4.<3.(...u.l.
00403830 D8 70 14 C1 D8 DF 3F 40 00 FF 1C FF DD 4F 99 14 .p....?@.....O..
00403840 5E 7B DB 94 D1 38 49 40 76 73 7A AE 7B 1B F9 9F ^{...8I@vsz.{...
00403850 91 C3 C2 0C 81 98 15 00 6E 00 08 A8 04 00 E4 00 ........n.......
00403860 5B 49 80 AD 3C 2E 74 80 F3 7E B9 04 A0 12 00 60 [I..<.t..~.....`
00403870 FF E6 69 6C D6 A5 57 B5 13 09 07 A4 8D 88 5A FF ..il..W.......Z.
00403880 31 30 4C 9E 3B FE 00 DB 00 7A 14 EB 8F 3F F1 1D 10L.;....z...?..
00403890 00 41 DC B0 00 84 DA DC 7F AB 6B 3A ED 10 A5 C2 .A........k:....
004038A0 99 91 70 F7 FB 00 E4 CC 40 0A A9 00 59 00 51 4A ..p.....@...Y.QJ
004038B0 37 51 91 07 98 40 10 10 00 FF 08 94 00 4D A9 6E 7Q...@.......M.n
004038C0 07 00 91 1E 86 FF 83 83 BF 83 06 8A 3E 4C 3E 2C ............>L>,
004038D0 E0 30 00 04 DC 2A E4 A1 3C 53 BD 2E C4 FC 77 C0 .0...*..<S....w.
004038E0 A6 6C 01 98 5A 02 8A 49 CD 0D DD 21 DD 70 51 B4 .l..Z..I...!.pQ.
004038F0 F4 FF D9 7D 27 C4 B7 17 00 03 A8 52 00 00 63 69 ...}'......R..ci
00403900 D7 42 B9 20 40 0E 15 D0 00 18 D1 44 43 00 04 B3 .B. @......DC...
00403910 2F 80 16 36 FF 20 2A 76 7C F1 F0 F6 2D 19 C1 46 /..6. *v|...-..F
00403920 A2 D9 B2 26 14 71 81 20 C7 F9 F9 8C 36 E7 3D 9A ...&.q. ....6.=.
00403930 C1 00 00 B4 50 37 A4 DD C3 82 C1 51 F8 84 09 3C ....P7.....Q...<
00403940 E1 5A 06 20 9A A3 62 00 B4 00 8E E1 4F C2 C3 E8 .Z. ..b.....O...
00403950 A5 94 1B 00 00 CC 98 FF 05 00 09 00 8F C2 37 00 ..............7.
00403960 B2 2C 3F F6 F7 71 36 44 36 6C 4A 79 00 11 D2 3A .,?..q6D6lJy...:
00403970 6F 46 00 93 00 49 23 A8 53 CB 07 91 93 D0 FF 9E oF...I#.S.......
00403980 91 60 AA F3 83 B1 DD 45 46 43 4F 7E FF 4F 6C EB .`.....EFCO~.Ol.
00403990 BA 00 43 E4 00 2E 00 BE 07 FF 42 34 C4 85 05 97 ..C.......B4....
004039A0 66 2B F9 2A 95 20 00 72 8C F7 77 80 95 8C 42 8F f+.*. .r..w...B.
004039B0 0D 00 27 F4 88 40 6B 41 00 97 D2 05 FE 00 78 FE ..'..@kA......x.
004039C0 00 E0 AB 21 5A 2C E0 E6 BC 9D 30 8E 38 00 38 C7 ...!Z,....0.8.8.
004039D0 EF 3A 30 AC DE 00 F7 A6 00 7B CB D6 FF 9E FD 64 .:0......{.....d
004039E0 BE 18 46 76 00 F6 A5 6B 48 00 5F 5E 00 DB D2 22 ..Fv...kH._^..."
004039F0 02 8C BA 20 76 6F FD A1 8F D0 76 F7 8F FD 52 81 ... vo....v...R.
00403A00 E6 1F D0 80 00 00 FD 9D 90 00 16 4D EF FF FF 99 ...........M....
00403A10 51 BE AE 80 0F 60 B0 FD B6 73 36 DE 51 A7 FC C4 Q....`...s6.Q...
00403A20 3F 5F E1 14 1E F6 13 72 E0 FF FF FF 22 07 63 00 ?_.....r....".c.
00403A30 9C E4 A2 51 0D 7C FF 41 3A 38 44 1B 59 25 F1 F1 ...Q.|.A:8D.Y%..
00403A40 B0 4B 8F 16 47 C9 38 DE DC 24 FF 2E 51 FF 78 79 .K..G.8..$..Q.xy
00403A50 24 10 FF 04 25 75 26 AC 00 61 80 E2 00 FC D1 BD $...%u&..a......
00403A60 D9 59 A8 3C FF 6E C7 0C 68 55 90 49 62 E6 77 19 .Y.<.n..hU.Ib.w.
00403A70 BA 82 FA DE 00 BD 30 00 5F 36 9D 53 3E E0 31 60 ......0._6.S>.1`
00403A80 CE AB 00 1E 1F FF 5B 00 62 79 EE AD AB F8 07 99 ......[.by......
00403A90 C3 43 78 70 00 00 F6 C4 A0 53 00 00 00 4B 0D EE .Cxp.....S...K..
00403AA0 3D 09 0E C0 B5 FF 5D DB 9D 13 2D 7B 64 13 01 FF =.....]...-{d...
00403AB0 B3 38 DF 6C F3 00 00 77 F9 35 00 0C 2B AA 00 C9 .8.l...w.5..+...
00403AC0 1A 8E B4 4A D7 A7 6E 81 C2 6E 10 FF 27 68 A1 EF ...J..n..n..'h..
00403AD0 00 00 00 CE 00 20 02 DB B2 A0 26 FF F3 D8 F0 1C ..... ....&.....
00403AE0 ED EF 2B 24 57 00 01 FF 41 8C CA 1D B7 72 FF B8 ..+$W...A....r..
00403AF0 89 03 41 8C 6D 6E 78 DF 72 00 E4 00 00 FF BF C7 ..A.mnx.r.......
00403B00 08 6C 0C C8 00 43 FF 00 30 00 6E E1 D1 15 C2 AF .l...C..0.n.....
00403B10 44 AE D9 00 FF E1 37 74 58 10 62 13 C9 C0 AE 6C D.....7tX.b....l
00403B20 74 F3 AA 00 FE 26 DD AB 01 33 1B CB 1C 87 5D 86 t....&...3....].
00403B30 AF B9 85 FB 15 FF B7 F6 C5 B1 0C F0 7A 00 71 35 ............z.q5
00403B40 42 00 95 07 46 E1 D7 F8 00 C9 EA D3 04 0A 00 50 B...F..........P
00403B50 43 DC 6B 31 12 BB FF A0 00 78 B3 11 00 BD A9 6C C.k1.....x.....l
00403B60 46 FF 02 5F 3A 3C 0A 59 82 8F 36 00 50 E5 9C 87 F.._:<.Y..6.P...
00403B70 CD DC B9 E1 FF 5F 2A A5 5E E8 E8 00 70 B2 6D 17 ....._*.^...p.m.
00403B80 E0 6B 88 2C 16 C6 00 98 24 9D 00 AF B4 4E A6 16 .k.,....$....N..
00403B90 C7 7A 77 6F 38 9A 00 C0 AC 00 69 CD 7E 74 53 3E .zwo8.....i.~tS>
00403BA0 DD B6 9C A3 A2 A0 21 12 39 F8 86 09 00 6C 53 E6 ......!.9....lS.
00403BB0 C2 AF 42 98 5B 50 A7 0A 44 8E 00 BA DD 00 43 78 ..B.[P..D.....Cx
00403BC0 CB DC 62 4E C1 00 49 B7 9A 6A F7 00 51 00 52 00 ..bN..I..j..Q.R.
00403BD0 00 7B 6F 6D 64 6B 00 43 71 08 D1 80 FF EC 05 AF .{omdk.Cq.......
00403BE0 5C 49 7F C7 00 B7 C4 1E 67 D0 1D 8E E6 5E CD D8 \I......g....^..
00403BF0 E9 B8 58 6A 5E 5D 00 5E 00 53 15 70 66 81 E3 00 ..Xj^].^.S.pf...
00403C00 26 3D 4F 2D 17 50 6D 00 00 40 5F FF 11 FF 85 06 &=O-.Pm..@_.....
00403C10 1E 1A C5 CD 54 C9 FF 83 C5 10 A6 A0 EF 74 3C 80 ....T........t<.
00403C20 1F EC 35 7E 1B 70 9C 0E D7 06 DF 17 32 1C D8 FF ..5~.p......2...
00403C30 1D AC FF 03 FF 20 00 CE 9B 00 A6 66 DC D0 9E 6B ..... .....f...k
00403C40 67 9F 3B 48 4F 03 6E 92 A5 E0 FD 2B 1E DC F0 00 g.;HO.n....+....
00403C50 02 A7 58 00 A1 FF C0 FA F3 64 23 9C 3C 11 FD 5E ..X......d#.<..^
00403C60 2F 65 45 0F D3 56 00 BE D3 00 5F C1 61 B6 3B 3E /eE..V...._.a.;>
00403C70 BD F2 C6 37 00 60 68 FF 9D 1B B6 90 83 98 9E 00 ...7.`h.........
00403C80 01 00 BD F3 00 7C 03 4C 00 9F 00 69 78 F7 0B FF .....|.L...ix...
00403C90 F8 6C DB 74 98 09 DE D4 80 FF EF 00 7C B5 24 54 .l.t........|.$T
00403CA0 76 00 00 C9 7B D3 A4 49 63 D8 B5 F0 EE 10 13 64 v...{..Ic......d
00403CB0 90 FA 87 FF 00 C9 E8 33 80 00 67 D5 C0 62 09 00 .......3..g..b..
00403CC0 6C 72 B2 40 56 18 25 7E 0A 52 70 47 77 00 6C 16 lr.@V.%~.RpGw.l.
00403CD0 C2 99 5B 23 59 29 10 C0 1F 3E F5 45 A8 59 42 F1 ..[#Y)...>.E.YB.
00403CE0 6A 21 00 1F 78 97 03 00 9B 76 3E 00 F6 A8 21 A8 j!..x....v>...!.
00403CF0 43 EB 00 6F 1D 10 10 C7 D9 64 C1 6A 46 42 05 C4 C..o.....d.jFB..
00403D00 1E A2 D1 00 00 85 BF 5C B2 42 FF 7A C0 30 C7 B0 .......\.B.z.0..
00403D10 20 14 B0 06 15 F4 54 C1 F7 08 61 00 00 FA BE 44  .....T...a....D
00403D20 D0 D8 77 EF A2 00 14 D1 7F 85 27 37 EB 31 70 FF ..w.......'7.1p.
00403D30 FF 42 06 33 34 01 3F 40 4B 30 04 1D 80 6A 98 FF .B.34.?@K0...j..
00403D40 7E 01 00 9E 01 D9 00 62 00 00 8D 1D 25 32 FF 00 ~......b....%2..
00403D50 44 C1 06 00 37 36 A9 00 26 32 0C 78 55 36 CE 8B D...76..&2.xU6..
00403D60 BE 00 27 6D 00 C7 00 89 56 00 06 9E 19 D6 A4 BC ..'m....V.......
00403D70 54 A3 00 01 82 01 CC D5 94 00 FF 56 00 43 4C 00 T..........V.CL.
00403D80 50 4A 32 00 45 FD E8 A1 4C 00 42 58 00 5A 47 00 PJ2.E...L.BX.ZG.
00403D90 16 0C A0 4A FC C2 2E 00 FC 01 70 A5 66 63 8E E2 ...J......p.fc..
00403DA0 7E 8D 51 3C F9 FD 6C 68 11 B1 52 74 F2 CB 33 D8 ~.Q<..lh..Rt..3.
00403DB0 92 AD 04 DC A1 EC 52 F2 03 F7 51 54 E6 41 30 00 ......R...QT.A0.
00403DC0 DF FF 17 07 AF 3F FF 20 FF 00 00 3D F2 A1 6F FF .....?. ...=..o.
00403DD0 B1 F2 68 70 73 3A C2 B0 36 1A 95 C0 DC 16 DF E2 ..hps:..6.......
00403DE0 C1 AD C4 E9 55 60 FF 3C 19 FF 1E 24 40 00 AC 00 ....U`.<...$@...
00403DF0 15 E4 70 FE FF 83 00 2F 43 28 70 00 4D C7 BF 00 ..p..../C(p.M...
00403E00 FF 78 BF 1F D0 96 08 00 14 61 90 00 19 78 6D B8 .x.......a...xm.
00403E10 70 4C C4 A2 EC 77 83 44 54 44 CD 23 3C 6C 5F 91 pL...w.DTD.#<l_.
00403E20 C6 00 2B CE CE FF 00 00 CF E0 1E 00 40 74 C9 25 ..+.........@t.%
00403E30 18 00 72 9C D6 FE 38 BF 20 59 B1 45 93 E2 64 2D ..r...8. Y.E..d-
00403E40 56 BE 12 21 A5 3C 00 69 E2 1F FF 7E 58 00 FF 32 V..!.<.i...~X..2
00403E50 00 AA 2C E7 01 7C 00 8F 03 03 A0 62 0B 9D 95 00 ..,..|.....b....
00403E60 C0 27 18 F9 64 D2 DD 79 A9 71 9A D5 29 00 80 9C .'..d..y.q..)...
00403E70 08 68 ED DA 2D FF 5B 30 1D 06 4F 5F 63 F7 DD FE .h..-.[0..O_c...
00403E80 2A 59 00 85 00 A7 1F BE 00 76 57 D1 CE DB 88 E3 *Y.......vW.....
00403E90 8C 5B 2E 23 00 2D A5 8F 93 C4 5F 74 7A 00 B5 43 .[.#.-...._tz..C
00403EA0 33 A9 AF AF CF FC AC F9 10 DE AC 88 1C FF EF 84 3...............
00403EB0 BF 84 1C BE 0B 3A FF 05 10 67 00 5C E8 A1 58 9C .....:...g.\..X.
00403EC0 29 63 FF FE D7 A8 94 CF 7C D1 7F 18 36 10 1A 00 )c......|...6...
00403ED0 FB B8 04 00 AC 78 5D 43 EE 00 FF 86 80 24 DE A2 .....x]C.....$..
00403EE0 1C 00 AF BF E3 00 7A 54 69 00 93 00 A9 27 47 E0 ......zTi....'G.
00403EF0 00 FF 00 00 9D EF A1 35 FF ED B8 B8 49 F5 CF FF .......5....I...
00403F00 58 B8 8B 00 C0 DA 87 45 D3 00 62 00 B8 64 13 93 X......E..b..d..
00403F10 00 A8 D4 97 FF 17 E4 7E FF 00 B7 99 34 00 6C 81 .......~....4.l.
00403F20 BB D9 78 F9 47 17 34 31 AE 5B C3 00 75 00 00 3F ..x.G.41.[..u..?
00403F30 2C D3 00 CE A6 AA 18 0B C3 C7 A2 FF 79 07 83 F5 ,...........y...
00403F40 6C CC 79 05 B5 09 09 14 3F 00 30 B3 D8 E6 84 C6 l.y.....?.0.....
00403F50 10 FF C9 89 43 FF 00 A4 A4 17 02 CD 06 75 19 4E ....C........u.N
00403F60 8F 2F 72 9A D1 4F 16 2C 00 C8 00 B6 00 19 E3 FF ./r..O.,........
00403F70 00 84 C6 B9 DC 00 CA 86 2C 00 C0 00 4F 9F FF 00 ........,...O...
00403F80 C3 C1 BF E0 81 BB 36 03 FF 18 2D CC 58 24 E4 6C ......6...-.X$.l
00403F90 54 FF D4 60 22 00 C0 47 C3 00 16 98 1A A6 0F FF T..`"..G........
00403FA0 3F 9B 1D 54 AB 9C FB 52 F9 E2 0B 52 23 51 6D 0B ?..T...R...R#Qm.
00403FB0 9F C4 87 C7 A4 43 1E 09 AA 03 00 18 BD BD CD 4F .....C.........O
00403FC0 09 CF 06 1B 8B 57 4E CC C8 46 B3 66 02 D8 FD C7 .....WN..F.f....
00403FD0 40 FD 91 0E 48 E4 F7 F0 1C FB 8D 60 0A 00 00 C1 @...H......`....
00403FE0 F8 E2 71 72 3D 00 64 99 15 8A ED 18 80 CC FF 49 ..qr=.d........I
00403FF0 73 75 00 AA 0F 80 82 F5 67 30 B0 8F BF 04 B2 87 su......g0......
00404000 BD FD 28 D8 E7 DF 00 56 8D 00 D9 28 10 0E B2 5D ..(....V...(...]
00404010 00 3B 29 58 53 7B 91 1A 00 00 FF 00 AB A7 60 80 .;)XS{........`.
00404020 9D 2F 00 3B 14 24 FD 3C 8D 20 7B 22 5A 00 FF 00 ./.;.$.<. {"Z...
00404030 BF 13 B8 D7 00 B5 00 AB EE 7D 0A 08 B3 B7 24 15 .........}....$.
00404040 7C 3F CC 2B 63 C5 EA 85 C3 DB 35 AD 8C F3 C3 1F |?.+c.....5.....
00404050 8C 2C 79 EA 30 EB 9B FF 66 90 00 A7 E2 0D B1 9C .,y.0...f.......
00404060 87 05 73 F3 00 E0 C3 00 B7 67 D1 0B FB 11 00 CF ..s......g......
00404070 7D 56 F9 6C FE FB 18 00 E2 E0 00 FF 58 24 68 91 }V.l........X$h.
00404080 00 0A 5C 6C 2B 5A FF 62 EC 74 FB 59 00 7D BF 00 ..\l+Z.b.t.Y.}..
00404090 00 00 00 44 3F 31 76 94 EB 76 00 4B 92 32 2B D1 ...D?1v..v.K.2+.
004040A0 00 FF 00 1D B9 BD 4B 82 C5 D1 C6 A1 D3 06 4A C9 ......K.......J.
004040B0 00 09 12 E6 6B 48 DD E9 E1 53 8D B6 9B 8F 00 1F ....kH...S......
004040C0 93 3F 7C 8A 32 B4 F0 00 FF 00 9D 2E 68 AE 74 18 .?|.2.......h.t.
004040D0 64 08 38 10 F3 86 E8 49 24 A8 D0 00 0A 0F 03 D5 d.8....I$.......
004040E0 26 BD 9B 85 BF FF 9C C8 00 78 10 00 7D 97 A1 89 &........x..}...
004040F0 06 FB B0 D6 76 D9 E0 F4 00 47 27 FC 2A 90 30 91 ....v....G'.*.0.
00404100 00 40 BF 05 04 FC 15 20 1A 8F 08 D8 76 5A 25 FF .@..... ....vZ%.
00404110 D6 B9 FF 47 8A D5 83 2D 90 14 34 69 00 2D 45 C5 ...G...-..4i.-E.
00404120 3F 40 1D 00 00 33 88 A5 68 CD 3E E1 00 BF B4 FF ?@...3..h.>.....
00404130 00 14 30 06 FF FF 1B 3C 42 59 17 65 72 6F 29 F6 ..0....<BY.ero).
00404140 01 FF 84 2C EE 7F 61 00 B9 7D 06 C8 1D E2 00 00 ...,..a..}......
00404150 2D 36 00 92 FF 50 BD 4C 1F 83 2C FF 77 79 D9 1E -6...P.L..,.wy..
00404160 6A B6 1F 00 20 9E 7E 31 9C F9 DA 00 5A 07 A3 FF j... .~1....Z...
00404170 10 00 00 02 FF E3 FF B6 D4 94 4B 77 E8 FF B1 C8 ..........Kw....
00404180 1E 30 E7 6C 00 EA 00 00 41 66 81 3E AA 00 DF C1 .0.l....Af.>....
00404190 0B 00 F0 A0 F0 37 20 DF F1 21 DC 00 00 00 1A FF .....7 ..!......
004041A0 1C 7D F7 48 3A 57 7B 5C 00 BA 59 C2 82 9A 00 13 .}.H:W{\..Y.....
004041B0 AC FF 01 C6 42 E4 BA 4A F9 45 08 00 72 00 FC C1 ....B..J.E..r...
004041C0 62 5E 8F 41 34 CB 33 00 BF FF 88 F1 21 B0 A0 13 b^.A4.3.....!...
004041D0 6F 43 F9 AC AB F1 FC 59 E8 B9 F6 FF 5B FF 4A 2E oC.....Y....[.J.
004041E0 18 FF A1 A1 A3 CC 6A 4C FF E7 CD 53 C9 85 19 DF ......jL...S....
004041F0 3B F4 5D 35 FC 26 9F BD 1F 88 BD FF 03 D1 02 80 ;.]5.&..........
00404200 77 1D 43 BA 36 38 79 07 4C 89 EA E8 C7 6E D4 D2 w.C.68y.L....n..
00404210 92 A7 14 47 07 4E 00 35 A8 79 03 02 C5 3A FD FF ...G.N.5.y...:..
00404220 E4 53 17 66 29 00 05 90 5F 40 02 9F 2C 96 19 ED .S.f)..._@..,...
00404230 E4 71 0A 39 23 33 2A CB 4E FA DE 00 E8 FF 77 A1 .q.9#3*.N.....w.
00404240 44 EA 69 53 00 B9 3A DF F4 00 00 9A B9 35 73 BB D.iS..:......5s.
00404250 03 24 6F 50 00 9D 00 7B F0 53 F9 47 A9 00 00 5A .$oP...{.S.G...Z
00404260 DE 52 C1 BC 00 2C 9A 6F D5 FF 8F 00 00 9B 63 E9 .R...,.o......c.
00404270 00 84 51 92 AD 69 8E 7C 00 B4 14 F2 F1 5C 00 A4 ..Q..i.|.....\..
00404280 7B 96 00 00 21 FF 00 5A C2 56 4A B2 6B FA E2 FF {...!..Z.VJ.k...
00404290 F5 72 00 00 07 68 00 74 98 E1 E7 D4 85 00 49 09 .r...h.t......I.
004042A0 60 03 89 00 76 81 D8 00 10 00 E3 79 4C 20 58 00 `...v......yL X.
004042B0 36 21 5C 00 72 B7 00 51 86 00 2A 00 00 E5 BF 00 6!\.r..Q..*.....
004042C0 1F 5E 94 1C 00 65 C6 23 CA 9D 00 A2 BD 00 BA 5E .^...e.#.......^
004042D0 C0 97 22 84 00 5A 63 96 EF FF 63 05 00 FF D1 FF .."..Zc...c.....
004042E0 C8 00 E0 00 79 B1 6A 74 C7 0C 0F D3 F1 2C A1 C8 ....y.jt.....,..
004042F0 F2 70 00 11 04 64 9C E4 48 33 1A C2 FB 60 B0 FF .p...d..H3...`..
00404300 00 BE BE FF AD 00 2F 97 06 6D 82 9A A7 C0 00 55 ....../..m.....U
00404310 AF D4 11 2C BE 38 BD 08 0B FD 09 FF 0E 73 D6 9B ...,.8.......s..
00404320 68 B2 DA 4F 36 26 13 23 D0 7C 63 FB 00 00 83 61 h..O6&.#.|c....a
00404330 00 C0 91 CB E3 19 9E ED 89 FF E1 3B 04 BC 79 00 ...........;..y.
00404340 EC 06 B1 18 A2 4C E3 CE 4D FE 34 B7 41 0D 01 F1 .....L..M.4.A...
00404350 CF FF 85 06 2E 9A 38 00 81 99 00 06 FF 00 6E 00 ......8.......n.
00404360 7E 43 89 D2 FF 97 00 00 12 FF AF 93 19 F8 81 7F ~C..............
00404370 8A A3 FF 3E 58 DF 58 47 86 C6 CA 19 F1 FF 91 74 ...>X.XG.......t
00404380 3D FF 61 D8 00 1B 00 A0 00 00 00 5D FF 10 00 AF =.a........]....
00404390 77 0E 32 3C 49 2A DB 98 91 68 51 FB 9E C0 82 40 w.2<I*...hQ....@
004043A0 FD BD 7A 6F E0 CC 80 32 6E 22 0B 75 38 53 68 E6 ..zo...2n".u8Sh.
004043B0 19 14 9E 41 A0 2E 11 1E 3A 82 60 81 38 09 0D 5A ...A....:.`.8..Z
004043C0 BC 08 0B 91 04 00 00 D8 BB DB C8 3B 4B 4B 9B 24 ...........;KK.$
004043D0 FF 90 71 60 F4 72 B2 9C 8F 20 9C 8B 94 55 6F 2E ..q`.r... ...Uo.
004043E0 CC FD E1 73 BC 3F 00 5E 9C 27 FD 56 33 F8 8B 6F ...s.?.^.'.V3..o
004043F0 07 5B 69 00 4F CB BB 90 B5 C2 3C BA 76 E6 0F 6F .[i.O.....<.v..o
00404400 00 69 05 A3 B7 91 01 84 0C 28 50 36 00 00 00 43 .i.......(P6...C
00404410 DA 00 F3 C6 FE 80 FF 10 8B F9 9D E1 E4 60 71 A8 .............`q.
00404420 E0 00 FE 77 00 FF 2A 3C F1 F7 6D 6F DB 8E 7C 47 ...w..*<..mo..|G
00404430 00 7B 8F 18 10 00 5B 0E 2F 96 00 EC F3 9F 12 48 .{....[./......H
00404440 F3 E5 CA 40 A8 FE 00 3F B2 00 42 0C 03 FF CB E7 ...@...?..B.....
00404450 00 F3 3C 4F 88 C7 2D 43 60 00 71 0C 9C FF 5C BD ..<O..-C`.q...\.
00404460 F1 00 FF F0 26 00 01 00 7C 48 88 AE DF AB 34 0D ....&...|H....4.
00404470 5E BC 4C 51 68 FF CD 93 72 00 89 93 8A D1 5C BD ^.LQh...r.....\.
00404480 A0 80 A7 00 E3 36 B9 FF DB BE D0 E7 00 DC 37 8F .....6........7.
00404490 30 94 39 7E 0C 66 8E 27 A2 E0 68 8E D7 00 42 8F 0.9~.f.'..h...B.
004044A0 13 B1 2F 39 E0 F5 70 3D 3D 00 83 88 DF 7C 5C C3 ../9..p==....|\.
004044B0 99 20 00 52 ED 00 91 67 8D 47 86 70 E3 7C 57 77 . .R...g.G.p.|Ww
004044C0 61 D8 00 D4 96 00 83 12 13 96 F7 82 4D 32 75 17 a...........M2u.
004044D0 1F 28 AA 00 3F 91 71 27 E4 7E 4B 1C B5 C6 89 6A .(..?.q'.~K....j
004044E0 8A 00 60 D4 81 00 F1 20 0C A6 9E 58 BC 8F FF FF ..`.... ...X....
004044F0 00 0C 46 E1 2E 9D 00 8F 00 7C 2E 00 FF 50 16 CC ..F......|...P..
00404500 8A 81 FD 00 C5 80 BF 00 74 EA 01 FF 4F D3 8E 82 ........t...O...
00404510 BE DF 00 1C B7 C4 3E 02 4C C1 C5 21 03 91 07 00 ......>.L..!....
00404520 C1 3B 89 34 F8 A9 00 61 D2 EE 00 36 C8 00 5E FF .;.4...a...6..^.
00404530 CF 4F 48 05 52 00 AB 00 6B DC 00 AA 40 16 4C 2E .OH.R...k...@.L.
00404540 1A 00 15 18 A9 00 13 BD CF B7 FC F5 54 59 E0 63 ............TY.c
00404550 4A 00 1E 53 97 27 EB FE 32 F6 0A 26 AE 00 00 00 J..S.'..2..&....
00404560 CC 77 5B EE 00 E4 90 08 5D 08 43 B4 4A 00 DB FF .w[.....].C.J...
00404570 D7 71 00 E1 8D 21 58 3E EE A7 33 D3 8A 38 01 FA .q...!X>..3..8..
00404580 F2 2A 01 4E 84 04 FC 35 89 58 29 0D EF 8C 5E D6 .*.N...5.X)...^.
00404590 5F BC 40 18 50 F6 0D 12 1F 80 58 4C 10 80 F3 35 _.@.P.....XL...5
004045A0 DC 33 E1 28 9A 99 EE C9 D9 8D 0C 4F 7D 1B 74 C8 .3.(.......O}.t.
004045B0 54 F3 2D 68 00 14 B2 D1 ED F6 E4 39 8D 1E 6A 00 T.-h.......9..j.
004045C0 00 7D 91 C5 00 2C 59 D0 F2 B7 00 36 AB 17 FF AB .}...,Y....6....
004045D0 4C 00 00 CD C2 87 0C 3B 10 18 C5 B6 81 94 2A A8 L......;......*.
004045E0 4F 30 00 50 13 10 17 48 0B 06 21 04 6F D9 54 00 O0.P...H..!.o.T.
004045F0 08 53 47 98 23 E7 D7 90 50 00 85 40 09 5A 12 F7 .SG.#...P..@.Z..
00404600 AE 1C 04 92 00 00 57 03 1E 77 9D 8D F2 A0 5B 00 ......W..w....[.
00404610 D0 3D A4 36 B8 1F FF 4A 00 25 E4 00 7A 3A 2E 55 .=.6...J.%..z:.U
00404620 E0 9C CE FE 92 9A AE 00 00 C9 45 FF A6 58 1E FF ..........E..X..
00404630 B5 EF 9B 7B 1F FF D1 C5 97 00 EE FB 4D 00 CA 00 ...{........M...
00404640 DC 97 0C BB C8 00 23 17 16 0E DD FA 42 B5 00 80 ......#.....B...
00404650 FF 02 26 4C 91 5C 4B 70 F6 15 18 F1 10 34 9E F4 ..&L.\Kp.....4..
00404660 FF 3C 00 C1 FF 00 93 B6 E5 82 20 1B BD 48 DF 2C .<........ ..H.,
00404670 00 06 62 34 27 7B 81 5C 71 80 A3 73 2C 03 FF B1 ..b4'{.\q..s,...
00404680 E9 77 BF 04 14 A4 00 6B BA BF BC 76 2C 08 D4 00 .w.....k...v,...
00404690 57 37 2B 00 17 20 64 74 0A 00 78 A5 34 B5 8C C1 W7+.. dt..x.4...
004046A0 B8 99 DF BF D7 0C 1F 47 46 4D 5E 00 00 1F 7D 90 .......GFM^...}.
004046B0 12 EB E7 85 00 FD A7 7A B7 7B 76 52 40 82 8F 0E .......z.{vR@...
004046C0 3D 8D 00 43 FE 00 00 09 00 5B F3 06 A3 F1 55 1B =..C.....[....U.
004046D0 13 DD A9 00 BA 56 12 11 04 DF 06 E5 BD 49 81 F5 .....V.......I..
004046E0 00 55 00 90 62 B2 96 7B 0C DD B9 B7 FC BA C7 00 .U..b..{........
004046F0 00 22 BA 00 00 42 51 D3 D0 83 9A 00 71 DA A3 7D ."...BQ.....q..}
00404700 DF F8 DE DE D5 FF F1 38 E1 2C 2E 00 C3 1B FF 10 .......8.,......
00404710 D2 68 B6 35 2B 00 D6 B7 00 82 90 2D 53 00 DA 00 .h.5+......-S...
00404720 6C 00 60 00 41 FC 96 C2 00 00 03 DB 4E 83 C1 E0 l.`.A.......N...
00404730 06 81 00 00 51 0D 00 E6 E2 4B 00 BF 03 00 CE 08 ....Q....K......
00404740 EC 0B 08 7A E3 92 70 87 00 FF D5 A3 50 9C 88 00 ...z..p.....P...
00404750 2C FF 44 0F 44 9B C3 6E 8D 4B 2C 38 9D 14 01 36 ,.D.D..n.K,8...6
00404760 F8 02 00 60 0F 38 88 D3 0F A2 BD 3A 27 EA 8A C2 ...`.8.....:'...
00404770 59 A7 E8 8D D0 A5 FF C5 E5 60 F1 97 6C 80 D1 88 Y........`..l...
00404780 E2 65 1B 45 A5 75 A3 15 E8 8F 76 56 93 8F 00 C2 .e.E.u....vV....
00404790 E3 B5 A7 00 0C 00 FD 78 27 00 0B B9 EA 26 24 70 .......x'....&$p
004047A0 18 41 00 D5 41 52 00 34 00 0C 32 3F 00 69 38 FE .A..AR.4..2?.i8.
004047B0 07 8E 66 D0 FF 44 11 1E 94 6F EB C4 5D 11 C2 58 ..f..D...o..]..X
004047C0 9A AE 3B A4 75 AB FF 8B 3E 00 00 BC FF EB C6 D0 ..;.u...>.......
004047D0 3E 35 89 BE FF 24 18 94 00 25 F5 51 FC ED 4A 41 >5...$...%.Q..JA
004047E0 FF 5A 38 70 3F 7F 99 C3 D3 D7 54 4F F0 5B 0E 43 .Z8p?.....TO.[.C
004047F0 29 BC 11 D2 44 C9 6F 1A 80 72 00 24 26 40 85 FF )...D.o..r.$&@..
00404800 68 11 00 00 64 B0 10 19 8D 04 95 87 68 9F FB DF h...d.......h...
00404810 46 75 FD 88 E6 DF D0 87 B2 56 97 CC CC 40 63 F0 Fu.......V...@c.
00404820 BB 4D 57 94 29 6A B9 D0 2A 28 C0 D1 A2 E1 3C 18 .MW.)j..*(....<.
00404830 00 34 F6 24 30 9E C7 74 95 50 41 01 66 B4 12 4B .4.$0..t.PA.f..K
00404840 C1 2F 9A DF 4E 32 33 8D FF 37 8D E4 42 00 3D E5 ./..N23..7..B.=.
00404850 CF 37 78 00 98 8E 9D 3A 01 00 59 19 99 B3 99 59 .7x....:..Y....Y
00404860 3A FD 00 00 5B 45 3B D5 00 D5 48 5E 19 C0 00 F2 :...[E;...H^....
00404870 00 DB 63 7C 88 70 EC 03 C2 38 8F 00 54 2B A3 11 ..c|.p...8..T+..
00404880 FF 45 BB 81 10 CC 00 FF 12 D2 25 5E CA 0C 9A 34 .E........%^...4
00404890 8B 53 78 D6 CF 81 79 03 D9 00 B2 00 00 08 6C 11 .Sx...y.......l.
004048A0 C8 88 A7 A0 8F C5 43 E2 9F F0 5F 1D AD 5B 27 F0 ......C..._..['.
004048B0 FF 3D E4 C3 FF EE 7C 33 0A 20 C1 54 08 00 69 00 .=....|3. .T..i.
004048C0 8C B7 2E 86 67 30 BB 89 00 8C 69 7E 43 87 3A E4 ....g0....i~C.:.
004048D0 30 D6 22 F4 5C AF B0 6A B2 29 FF AE 87 29 E9 7B 0.".\..j.)...).{
004048E0 A7 79 99 20 FA 63 24 28 F4 00 00 EB 00 00 B1 08 .y. .c$(........
004048F0 BF C5 74 BC 83 EC E7 67 30 87 A8 1C AC 74 F9 FD ..t....g0....t..
00404900 00 CF 00 D3 2C C8 C4 16 80 0A E9 DC 7E 00 58 38 ....,.......~.X8
00404910 9D 2E 6C 77 D2 05 04 0C FF 4C 6C 49 A5 18 A7 4A ..lw.....LlI...J
00404920 9D 42 3B 8D 00 07 A1 B7 04 91 18 E8 EB BE 21 0C .B;...........!.
00404930 7A A7 6E F3 45 96 FF 00 B4 FF 41 00 EF FE 17 FF z.n.E.....A.....
00404940 71 27 9C FF EC 8D A0 1E 9A 1F 00 C0 2D 0E F7 C9 q'..........-...
00404950 17 14 1F 00 88 EE 28 32 A5 FF 00 D8 31 7B 7B 9D ......(2....1{{.
00404960 9B 18 95 00 AC 99 FF D5 00 7F 69 6A 03 5B 97 28 ..........ij.[.(
00404970 A1 00 73 63 00 8A A0 F6 54 88 99 FF ED B5 BE 00 ..sc....T.......
00404980 E1 05 94 8A 1E 69 A1 FF A6 FF F3 64 29 1E 06 37 .....i.....d)..7
00404990 5C F1 40 91 B8 C7 2A 0B 10 43 FF CB 1F 80 FF 4C \.@...*..C.....L
004049A0 64 FF 31 77 00 51 8F 00 E0 65 06 C1 D0 00 23 E6 d.1w.Q...e....#.
004049B0 FF 00 40 7F 20 FF E3 35 D5 01 9A DC AB FF E3 BE ..@. ..5........
004049C0 7F 9C 2B 41 DE F6 10 00 DB 00 27 80 00 DE A3 94 ..+A......'.....
004049D0 FD C5 6C BC 34 6F A9 9E E2 2D 00 00 C5 00 FE A2 ..l.4o...-......
004049E0 1E A4 31 67 59 B3 53 18 1B 00 D5 FC 78 97 47 05 ..1gY.S.....x.G.
004049F0 C3 00 62 5C E5 82 76 F5 EB 64 00 0B 88 75 82 00 ..b\..v..d...u..
00404A00 68 FF B4 33 38 E8 18 70 55 B1 FF 39 00 D0 4E BC h..38..pU..9..N.
00404A10 51 56 76 27 F2 28 C1 3B B3 00 00 32 7B 17 C0 1F QVv'.(.;...2{...
00404A20 D8 2D E5 20 00 00 48 FF 2D C4 95 5D E0 00 07 D8 .-. ..H.-..]....
00404A30 40 10 10 B4 86 26 7C 90 31 AB A4 C0 04 9D 9C 6C @....&|.1......l
00404A40 00 01 B0 00 2D A2 E6 B2 FF 00 1E 92 2E FF D1 17 ....-...........
00404A50 0F 67 2F 3B 3C 00 80 07 00 6E 64 A5 24 C6 C6 0B .g/;<....nd.$...
00404A60 00 61 EE CB 1A B1 40 00 3F FF 21 37 50 D1 9E 00 .a....@.?.!7P...
00404A70 46 73 09 5D 00 0F 3D 00 00 FE B1 33 25 19 00 08 Fs.]..=....3%...
00404A80 19 55 00 47 8D FF 23 33 13 89 60 45 00 02 24 00 .U.G..#3..`E..$.
00404A90 02 AD 78 8F 90 35 1D 00 17 2E 6A 07 07 10 AF 4F ..x..5....j....O
00404AA0 F2 40 00 5C BB 4A 02 B1 56 29 64 71 FB 0C FA 00 .@.\.J..V)dq....
00404AB0 30 64 3D C8 B0 00 2F 91 EE 00 71 95 FF 7D 84 A0 0d=.../...q..}..
00404AC0 21 20 F2 FF 00 F3 9D 24 7C DF 26 05 DB 34 55 D3 ! .....$|.&..4U.
00404AD0 40 36 12 A0 AB BC 2E CD 74 E6 98 D1 23 2D FF 3D @6......t...#-.=
00404AE0 79 62 F3 00 93 67 1C EB 60 F7 4A 82 BD 3E 40 00 yb...g..`.J..>@.
00404AF0 00 72 28 C2 BF 2F 4D 32 6E 32 8C 92 74 FF B1 0B .r(../M2n2..t...
00404B00 6F 1C 00 B0 6D 00 C1 FB F1 F2 23 FF 41 00 9D FF o...m.....#.A...
00404B10 1F FB 0A 01 00 4D 71 2B 90 96 7F 4B 83 6F E0 FC .....Mq+...K.o..
00404B20 BD 96 94 87 E0 5F 00 E4 10 7B 13 89 FF 89 0B 83 ....._...{......
00404B30 AD 00 AE 00 26 CB B3 17 22 D5 00 46 F6 00 49 A7 ....&..."..F..I.
00404B40 FF 57 9B C8 EF 16 04 6A 22 09 03 C9 62 2D 14 31 .W.....j"...b-.1
00404B50 10 6D DA C6 00 B4 3B 2D 87 1B CB 4E 9B 63 00 12 .m....;-...N.c..
00404B60 DE 59 4C 7C B9 A4 02 B9 F6 EB F0 CE 18 8D AE 7F .YL|............
00404B70 B3 E2 EA 00 2C 9D C7 F1 FF 9D FF 10 91 FF 55 7F ....,.........U.
00404B80 85 70 0F B8 AB 00 D0 F6 63 74 B4 34 00 FF 13 C8 .p......ct.4....
00404B90 F7 8E A6 11 99 3E 5F D1 A2 17 00 6E 58 16 81 47 .....>_....nX..G
00404BA0 F3 FF 47 C3 03 52 E8 80 0B 01 2D 4A FE 3D 83 FF ..G..R....-J.=..
00404BB0 FA F6 CD 87 0D 5B A2 E1 C6 7F 00 6B 00 0A 66 E1 .....[.....k..f.
00404BC0 5C FF 87 5C BB FF FF 00 CC 0D D6 00 0A 00 BA F8 \..\............
00404BD0 96 FF 53 7F A7 A4 00 DF 38 55 E3 F7 57 00 FC DE ..S.....8U..W...
00404BE0 A5 9B 74 B2 CA 00 00 B7 FF 5F A0 00 1E 8E 7E 3C ..t......_....~<
00404BF0 EA 18 8A 00 15 D5 C7 00 00 55 9A 52 51 BB FF 00 .........U.RQ...
00404C00 DE F1 9B EC 0F 55 4D F9 BD E6 5F C9 00 07 A7 EB .....UM..._.....
00404C10 79 18 C6 80 3D 40 CB F2 A8 69 00 C2 FF 81 B4 C3 y...=@...i......
00404C20 00 A6 4C 4A 0F EE 16 30 00 1F 68 BE FF FF 57 6A ..LJ...0..h...Wj
00404C30 00 93 22 2D 60 FF 44 9D 60 A3 BF 53 00 E1 FF 1A .."-`.D.`..S....
00404C40 4C 51 C0 74 CA 21 17 40 00 4E 28 14 EB D7 6B 66 LQ.t.!.@.N(...kf
00404C50 70 34 12 0B CB 00 FF 30 46 FB C3 8D 00 00 38 7F p4.....0F.....8.
00404C60 EE 18 85 CE 18 32 FF 94 00 FF 7D 8A 3A 67 FF 26 .....2....}.:g.&
00404C70 53 00 00 3C FE 48 3E B0 50 86 A0 2B DE 06 13 5E S..<.H>.P..+...^
00404C80 10 70 00 0A 9B 00 04 FF 2C 97 10 A1 B7 39 C2 9A .p......,....9..
00404C90 5C 13 B2 7A 6C 42 8E 66 D2 92 13 FD 0D D4 C3 84 \..zlB.f........
00404CA0 20 CB 31 1F 00 DB CD F2 16 F6 D7 27 69 D3 8E 8C  .1........'i...
00404CB0 A5 34 70 59 D9 7E 60 90 04 77 F3 4E 11 6F 61 83 .4pY.~`..w.N.oa.
00404CC0 13 00 FF AE A7 07 FE 17 FF B2 42 E9 D3 00 32 00 ..........B...2.
00404CD0 01 74 AC A7 E2 E5 00 ED 02 00 CB CD 5B AE FE 00 .t..........[...
00404CE0 EB A0 96 AA 0A 7D E0 75 37 2D EF 7B BA D5 C1 1A .....}.u7-.{....
00404CF0 78 17 0E 00 C1 86 00 34 69 81 2E D8 E4 01 02 00 x......4i.......
00404D00 9F D1 02 00 00 A9 2D 54 00 75 08 1A F0 D1 50 7F ......-T.u....P.
00404D10 DD 90 A1 4E E4 3F 41 AD 00 6C FF 33 BB C7 00 7A ...N.?A..l.3...z
00404D20 36 6D 76 12 F8 10 B7 BA 3D 13 FE C0 59 86 3A 7C 6mv.....=...Y.:|
00404D30 D8 E8 D5 3F E1 D4 A4 EA 5D 7B CC C4 82 9C C4 FF ...?....]{......
00404D40 EF A9 FF BE FF F6 00 00 F1 2B 81 0A 00 0B 3B FF .........+....;.
00404D50 15 60 D9 00 00 00 96 6A 01 F9 C7 00 2B 8F 2F 42 .`.....j....+./B
00404D60 FF 64 1A E3 10 C9 26 80 2B 9B 87 88 FF 14 56 41 .d....&.+.....VA
00404D70 30 00 AF 00 54 CC 3E 86 1F 00 00 57 C3 6B F9 B8 0...T.>....W.k..
00404D80 29 3B 01 80 64 B4 72 00 95 08 54 58 BA 93 64 63 );..d.r...TX..dc
00404D90 13 11 00 01 A9 79 0B AE FB EF 1A 85 59 8C 6A 1C .....y......Y.j.
00404DA0 FF E7 36 FE 5C 84 90 F7 1C AD 63 70 00 F6 4A 04 ..6.\.....cp..J.
00404DB0 2B A3 AC E7 00 C4 00 48 4D 9A 07 7F 98 00 08 79 +......HM......y
00404DC0 3D A3 01 59 6C FB 00 5B DC 00 72 0C 55 CA B5 E7 =..Yl..[..r.U...
00404DD0 58 FF E3 46 7A B1 6A 00 4F 34 FF A2 06 D9 00 1D X..Fz.j.O4......
00404DE0 1F B8 C6 D4 CA CB B9 AC 27 00 50 6A 74 E6 C4 C1 ........'.Pjt...
00404DF0 9B 2E 00 FF 82 B1 00 54 00 76 06 02 7F 81 F2 26 .......T.v.....&
00404E00 E3 BE 64 ED A0 8E 5F 7F D1 C5 FD 69 C4 EF 2B FD ..d..._....i..+.
00404E10 66 C4 CA A8 5F 00 AC 0E 6E CA 3E FD DB 5C 8D C8 f..._...n.>..\..
00404E20 70 10 00 04 35 00 0A 9B A3 1E 12 C4 00 00 51 FD p...5.........Q.
00404E30 00 BD 27 C9 52 DE 91 37 18 27 87 04 2C F8 A1 8E ..'.R..7.'..,...
00404E40 5B EA 00 14 84 16 2D 5A 87 85 A6 5B 64 4D 1C 8A [.....-Z...[dM..
00404E50 C0 D8 75 1B 30 27 A6 05 F0 76 37 C0 6A 0B 04 F7 ..u.0'...v7.j...
00404E60 00 7E 0B E0 F2 00 C3 40 80 CE FF 63 63 E5 FF 3D .~.....@...cc..=
00404E70 00 4F FA 75 E0 94 C7 B6 E2 FF 4C 12 F4 FF EF FD .O.u......L.....
00404E80 03 B3 9F 5D F0 2A 17 1C 18 46 94 8F C3 1A 52 A3 ...].*...F....R.
00404E90 D2 F5 D4 2E 11 7A 32 76 E4 01 00 FF 00 4D 5A FF .....z2v.....MZ.
00404EA0 85 38 00 06 F6 33 D8 00 F8 80 8D 7E FF 98 FF 62 .8...3.....~...b
00404EB0 00 A7 00 00 D2 0C 3F C4 04 F2 00 A9 8A 20 BB 00 ......?...... ..
00404EC0 18 E0 66 FF 8B 9D CD 25 28 1A E5 48 3D 7B 71 81 ..f....%(..H={q.
00404ED0 8C 7E FA 00 00 16 FF 7A 35 12 EC 20 FB 81 0C 6E .~.....z5.. ...n
00404EE0 77 02 99 93 EE 88 13 DD 12 8E 48 E8 0B 00 CF 01 w.........H.....
00404EF0 0B DC 58 01 6D 10 9E 0A 74 91 D0 00 91 FB 56 BF ..X.m...t.....V.
00404F00 05 00 00 39 B1 00 23 E6 97 66 FF 26 65 CF C5 81 ...9..#..f.&e...
00404F10 9F C4 14 A0 3E 3B 24 ED F5 54 00 FF 1F 18 44 F7 ....>;$..T....D.
00404F20 3D 73 96 00 98 37 69 80 10 05 24 03 3F 43 4E 42 =s...7i...$.?CNB
00404F30 09 E3 B7 06 27 75 91 2C 75 0F 7A 20 2C 6D F8 A8 ....'u.,u.z ,m..
00404F40 1A C3 88 00 4D 1A 00 00 97 C8 07 05 00 69 00 51 ....M........i.Q
00404F50 5C 00 9B FF 00 00 0E 73 14 D1 0F 00 FA 38 41 2D \......s.....8A-
00404F60 D0 FF 3E 3B 11 E8 00 BF 00 74 81 3C 47 3B 00 47 ..>;.....t.<G;.G
00404F70 59 FF 35 63 00 EF 82 00 98 C0 86 72 06 28 9C FF Y.5c.......r.(..
00404F80 FF 15 A1 FF 21 E0 08 57 32 C7 E2 8C C8 57 F5 00 ....!..W2....W..
00404F90 71 00 42 E1 CF 4E 4C 09 A3 A9 84 2C 66 30 47 E8 q.B..NL....,f0G.
00404FA0 00 11 6E FB 07 00 45 07 A1 00 91 3E 0B 95 F8 1D ..n...E....>....
00404FB0 D5 71 00 FE 8E 7B 34 BE B1 02 11 1A 14 63 04 60 .q...{4......c.`
00404FC0 D8 1F FF 02 4E 95 5D 0E D5 27 3C 3F 81 83 F0 D3 ....N.]..'<?....
00404FD0 4E CA 5E F5 E0 7C 16 13 59 02 0F 84 CE 21 00 02 N.^..|..Y....!..
00404FE0 1E 61 B0 3B 63 73 EB 00 30 00 00 B7 7C 30 B1 D7 .a.;cs..0...|0..
00404FF0 0F 71 24 C9 07 FF 22 00 9F B4 00 69 00 00 E1 02 .q$..."....i....
00405000 13 0E 88 5C EC 96 EB B3 77 4B 68 FB 83 29 B0 D0 ...\....wKh..)..
00405010 C0 00 83 B8 1E 3C FF 80 11 99 07 19 63 00 69 74 .....<......c.it
00405020 F2 00 3B 64 BD 58 A8 A0 D3 CF 85 62 82 E7 2C 89 ..;d.X.....b..,.
00405030 C1 96 2A 39 C2 CD 93 4F 37 8D AE 4C 4B 00 42 60 ..*9...O7..LK.B`
00405040 8D 23 00 5E 0D FC 00 CC 00 FF 68 E0 93 00 B9 D4 .#.^......h.....
00405050 6F 85 FF 0E 7D 26 DB A9 D4 69 17 8E FF 30 66 B7 o...}&...i...0f.
00405060 00 7D A7 1E FF 20 74 90 99 FF 95 26 8A 00 FF 94 .}... t....&....
00405070 DC D9 0A ED 2A 00 13 00 13 00 00 66 39 8C E9 CE ....*......f9...
00405080 58 3C C7 E3 DE 02 8C BE DB AB DB FF F7 1A A3 E6 X<..............
00405090 00 00 FF C8 FF 46 FD 7D 2E FB FA D7 5D 14 D2 4A .....F.}....]..J
004050A0 97 7A 0E 7A 00 0D 46 91 2F 00 FF 48 00 43 00 2D .z.z..F./..H.C.-
004050B0 A4 9A 00 97 4C 84 BF 21 FF 15 B8 D3 AB 0B 14 00 ....L..!........
004050C0 31 67 A7 81 00 E7 5C B3 3B 7C 00 00 54 FF 19 4B 1g....\.;|..T..K
004050D0 76 78 A4 30 7E 00 91 FF 1F 6C BD 00 D3 00 AB 05 vx.0~....l......
004050E0 D6 E2 00 00 00 D2 78 E0 F9 00 4D 57 C6 13 40 2F ......x...MW..@/
004050F0 68 30 00 6B 43 F8 00 4C E6 12 80 7F 6C 00 0D FD h0.kC..L....l...
00405100 69 3E 00 00 00 ED 88 78 41 B7 A7 D3 D7 00 94 00 i>.....xA.......
00405110 2F 50 00 49 6C 1E BC FF DC 00 50 3D 31 FF CE 80 /P.Il.....P=1...
00405120 40 BE 83 D7 9B D6 21 42 0D 00 66 DF F7 67 2C CE @.....!B..f..g,.
00405130 3C 00 12 C0 0F 9F 87 8A E8 E1 14 85 17 95 2F 03 <............./.
00405140 2A E0 00 EB 20 ED 80 C2 ED 00 18 0C CC 6F 80 26 *... ........o.&
00405150 44 03 FF CF ED 38 F0 C2 00 00 5D 84 0E 10 93 50 D....8....]....P
00405160 00 FD 25 00 1D C0 3F 3E 00 10 0B CF 99 FF 00 00 ..%...?>........
00405170 5C 17 00 FF 20 B7 00 C3 F9 75 D2 F7 C7 76 77 B4 \... ....u...vw.
00405180 67 02 B4 A1 0E 1E FE 5E BE 00 4E 04 1B 00 7A 02 g......^..N...z.
00405190 59 00 C6 2D 49 5B 7F 13 73 00 D8 4E 1C 99 F1 3A Y..-I[..s..N...:
004051A0 AC 2C FD 12 00 6F EB AE 63 90 00 E8 F7 62 F4 E9 .,...o..c....b..
004051B0 00 94 9D FC B4 57 64 C4 79 26 00 23 F7 57 05 10 .....Wd.y&.#.W..
004051C0 00 D9 F9 D2 03 51 00 35 8D 3E 79 09 0A 73 9C 13 .....Q.5.>y..s..
004051D0 1F D5 FF 22 06 BD 21 BD 05 04 E1 80 BB 1B E9 59 ..."..!........Y
004051E0 00 93 07 87 D2 00 02 6B 00 2B 74 D8 73 D0 1C 34 .......k.+t.s..4
004051F0 26 39 70 D1 A6 A1 B7 9D E4 0B FF FF 04 17 99 7B &9p............{
00405200 94 0D 1E FF 90 01 EF 74 04 72 45 2B AA 01 0B 00 .......t.rE+....
00405210 77 34 89 6F 00 AA A4 D1 79 00 39 5A 04 0C AF 3E w4.o....y.9Z...>
00405220 CE DF 7C ED 00 91 83 C1 2F 81 B1 28 00 CF B8 03 ..|...../..(....
00405230 BF 77 B3 43 06 FE B1 BA 0A 00 5E 00 A0 92 D5 AC .w.C......^.....
00405240 0E DC 82 AC 6A 8A 05 23 68 91 51 22 CF 50 4C 08 ....j..#h.Q".PL.
00405250 8F 00 98 AD 00 FF 64 7F 10 00 00 4D 73 15 85 67 ......d....Ms..g
00405260 00 BA E9 B3 00 E9 B7 FF 92 20 56 94 EF 28 BF 3A ......... V..(.:
00405270 A3 E6 00 0F 65 16 C1 00 B1 42 CB 8C 88 74 00 5D ....e....B...t.]
00405280 67 3F BF 76 5D 2D 98 00 4B C4 00 00 A6 00 1F 32 g?.v]-..K......2
00405290 6D 9F C5 73 81 91 74 E6 DC 26 7E D2 45 00 CC 4F m..s..t..&~.E..O
004052A0 60 31 56 FD 6B 7D 8B 00 69 CE FB 60 78 E9 C0 FF `1V.k}..i..`x...
004052B0 00 02 0F 0C 8F 20 D3 06 4F 04 00 87 00 8B B4 00 ..... ..O.......
004052C0 C2 08 31 16 70 93 7E 0B FF 19 62 98 46 42 56 F0 ..1.p.~...b.FBV.
004052D0 04 22 5F 32 01 06 00 EB 2B 0B 6E 26 00 B7 7F E6 ."_2....+.n&....
004052E0 1D AF ED 37 5B 41 C9 94 8B 2D BD D2 B7 00 10 00 ...7[A...-......
004052F0 44 04 FF FF FF 06 00 7D 39 CE 00 8B 83 52 62 F3 D......}9....Rb.
00405300 E8 D8 FA BE CF 74 3B 48 00 C6 DD 85 C1 B9 74 FF .....t;H......t.
00405310 3E 00 C0 41 1F 00 E6 4E 82 A6 FF EB 44 F7 04 A5 >..A...N....D...
00405320 9F FA C8 41 99 22 D7 6A 07 60 F7 63 43 00 36 6E ...A.".j.`.cC.6n
00405330 00 00 D8 00 00 9F 25 03 2E 00 42 7E DF CC 33 13 ......%...B~..3.
00405340 82 C9 93 D8 80 FF 19 70 BF 00 13 00 6B 1B E0 9D .......p....k...
00405350 2C 00 70 58 A1 B3 7E B2 78 00 C9 4D ED D9 54 02 ,.pX..~.x..M..T.
00405360 3B 00 0A 8C A4 AB 3E 7E D6 00 60 B0 D3 93 1A A8 ;.....>~..`.....
00405370 07 A1 05 3F 84 E4 08 75 00 88 51 2F 47 3C D3 4E ...?...u..Q/G<.N
00405380 FC DF 41 7E FF 0F 07 01 27 0F 96 AB 0C C9 67 E6 ..A~....'.....g.
00405390 F0 2B D8 34 10 48 F9 00 93 4D FF D2 19 46 0F 61 .+.4.H...M...F.a
004053A0 00 00 EE 00 0B 00 4E 07 3C 73 00 00 A5 4A 94 D4 ......N.<s...J..
004053B0 11 C7 55 F9 29 FF 88 B9 01 00 16 69 81 09 FF 4F ..U.)......i...O
004053C0 8B 49 B7 41 3F 71 BF D1 BB B1 47 FF E4 41 AF FF .I.A?q....G..A..
004053D0 40 92 D8 1C F0 4B 9A 64 51 00 04 16 31 00 15 E6 @....K.dQ...1...
004053E0 3F E9 F1 6B 32 12 3F B7 E1 F7 C3 83 58 C6 1D 01 ?..k2.?.....X...
004053F0 8E 00 0C 51 FF 3C EC 9D 00 F9 95 A9 19 FF 67 22 ...Q.<........g"
00405400 00 1F A0 00 A7 6E 00 14 7C B1 FF F6 1F C3 E2 C9 .....n..|.......
00405410 22 86 1F 00 6F 74 7E 9B E6 00 C3 9F FF EF 00 89 "...ot~.........
00405420 FD 1C 17 5D FF E8 D3 2C F2 EA 00 CB D9 6E FF B1 ...]...,.....n..
00405430 B1 EB CB 2E 86 00 7E 54 BD F0 70 7B F9 70 BF 85 ......~T..p{.p..
00405440 A7 EF 0E 04 01 77 1D 00 68 65 00 00 E8 DF ED 96 .....w..he......
00405450 5A 66 F1 82 92 00 43 44 00 36 07 A3 8F 6D 00 31 Zf....CD.6...m.1
00405460 69 F5 B4 FF 63 5C 2D 08 FC EF 72 1C BF 4A 00 00 i...c\-...r..J..
00405470 00 FE 67 17 50 C0 DD 09 00 51 F2 0E 3F 70 CB FF ..g.P....Q..?p..
00405480 00 9D 00 00 9F 62 27 6A C7 4C 00 12 FF FF A5 E6 .....b'j.L......
00405490 78 FF D7 4E FF C2 8C 40 26 61 57 00 94 E4 A5 91 x..N...@&aW.....
004054A0 1D 7E 7E 0F 00 76 4A 50 00 F9 21 AF 90 E8 00 4C .~~..vJP..!....L
004054B0 FF 7B E4 C1 9E 5C 0F 02 42 74 68 6C 05 00 AE 14 .{...\..Bthl....
004054C0 32 BA 47 4B 90 00 00 5E 70 58 FB 7F 88 4B 75 E9 2.GK...^pX...Ku.
004054D0 74 08 06 43 5F 17 DF F8 1E 8F 2B 34 3E 60 81 BA t..C_.....+4>`..
004054E0 00 DC 53 8E D5 8B 00 EC 14 00 0F 20 CD 49 61 8E ..S........ .Ia.
004054F0 D6 41 2F 42 62 41 5C B3 4C 4F 8A C4 FF B3 04 59 .A/BbA\.LO.....Y
00405500 A1 2C 00 C1 00 00 1C 66 76 45 7C 4D E9 EC FF 00 .,.....fvE|M....
00405510 42 B8 3D 00 0E F1 3A D6 08 81 6B 3E 5E 12 26 C4 B.=...:...k>^.&.
00405520 E1 6C 0A 6B 56 D3 27 17 F0 03 87 00 00 F3 62 31 .l.kV.'.......b1
00405530 84 FF 83 6C 3C 00 F7 06 98 00 FF 64 A4 04 1D 02 ...l<......d....
00405540 38 97 E8 61 00 DC 2F 02 14 FD 58 73 08 30 7A 8C 8..a../...Xs.0z.
00405550 3F 5A FF 3A 03 97 BE EF 68 A0 00 9B C9 3B 47 F0 ?Z.:....h....;G.
00405560 C5 56 A2 24 DA FE 66 F6 56 00 E4 FF A5 95 FF 00 .V.$..f.V.......
00405570 E0 74 57 C3 E5 69 AB 00 00 AD D2 00 1E 37 92 5D .tW..i.......7.]
00405580 99 28 00 00 6B 08 AF 24 E3 CD 70 18 7C 72 32 C6 .(..k..$..p.|r2.
00405590 E6 00 00 70 FF 55 00 39 39 B0 00 E3 AD 09 70 D7 ...p.U.99.....p.
004055A0 51 00 00 D1 00 A9 49 DF BC 8A 34 9F 98 E0 0D 50 Q.....I...4....P
004055B0 50 00 EA F1 B3 1F 64 82 00 F5 3A FF AB 78 00 0C P.....d...:..x..
004055C0 51 8B 71 1D D8 FF 7D 12 82 26 19 B1 3D E0 38 03 Q.q...}..&..=.8.
004055D0 84 C6 CA BA 78 50 41 FF 76 AF 00 A9 BC 0C 00 30 ....xPA.v......0
004055E0 00 75 16 30 00 76 00 30 8A 9B B6 08 A4 BB 00 E2 .u.0.v.0........
004055F0 E8 F8 DC C7 F1 07 68 9C 00 6E 4C 18 00 76 4E D6 ......h..nL..vN.
00405600 BF E2 BC D6 F4 00 28 00 00 00 BF 09 DE 60 8F 3D ......(......`.=
00405610 C3 00 30 20 35 B6 5D 0F 22 FF D8 FF B8 49 E2 00 ..0 5.]."....I..
00405620 72 AC CF A0 00 7B E5 86 7C 18 F1 9C 12 4E FF 63 r....{..|....N.c
00405630 00 8B 10 57 40 28 2C 5C 40 A3 0D B7 00 00 24 C8 ...W@(,\@.....$.
00405640 0A 6A F7 31 00 44 7F A9 00 EB 00 5E 96 1F C7 77 .j.1.D.....^...w
00405650 37 0A 00 00 00 C9 70 F5 FF FC 00 E1 17 35 10 00 7.....p......5..
00405660 9A 4E 18 79 00 78 A2 FF 4B 09 B6 A8 F0 00 E4 3C .N.y.x..K......<
00405670 0A 07 17 9F CC B9 FB 34 23 3D 46 5B BD 8A 62 36 .......4#=F[..b6
00405680 2D 5E 00 05 E3 00 4C 52 FB 12 17 00 D2 20 6F 4E -^....LR..... oN
00405690 00 88 6F 11 00 09 00 04 22 00 FF E4 0F 39 D4 DD ..o....."....9..
004056A0 7D EC 1E 0B 46 85 78 93 C1 FF 9E 3D A6 DF CD 02 }...F.x....=....
004056B0 00 C5 97 E0 7D 67 4B E4 5D E5 E0 87 6E 85 F1 4A ....}gK.]...n..J
004056C0 0D A2 FE A5 26 35 27 85 B5 00 99 07 31 86 E6 CF ....&5'.....1...
004056D0 00 70 8A 2C BB 38 20 FF 6A 00 DA 85 68 8C FF 3A .p.,.8 .j...h..:
004056E0 B9 3E 00 98 E9 B4 1E 8C FF 61 04 8F B0 FF 7C 00 .>.......a....|.
004056F0 B0 00 CF 00 3F 00 64 6E 28 00 00 00 4A E1 38 4C ....?.dn(...J.8L
00405700 00 AF 6C DC 1D 00 D2 95 C2 5A 00 F7 32 A7 9F 4C ..l......Z..2..L
00405710 C7 3D 7B A6 C5 4F 00 68 00 57 41 02 DE 00 DB A8 .={..O.h.WA.....
00405720 B0 FF 70 FF 13 40 36 93 03 00 46 34 42 00 00 E8 ..p..@6...F4B...
00405730 9C 34 9C C8 EB 00 C3 BA 66 C1 B5 33 AE 3A BF 9B .4......f..3.:..
00405740 4D 10 84 00 57 53 00 65 70 29 A7 B0 C1 82 3C AD M...WS.ep)....<.
00405750 78 6D DC 60 00 CF 8D B5 3A 00 13 63 78 1D 62 AC xm.`....:..cx.b.
00405760 44 CB 2C 00 64 46 00 2B 50 94 FF 85 82 8F 00 B6 D.,.dF.+P.......
00405770 60 40 E9 71 4E D9 65 00 10 16 1F EB 76 F3 80 9B `@.qN.e.....v...
00405780 13 DB 9E 14 F0 B6 00 00 3C 85 92 29 FF 93 B8 00 ........<..)....
00405790 00 DC 49 5C 1C D1 CF 6A 9B 72 BD CF BE 00 C0 EB ..I\...j.r......
004057A0 13 9D 05 27 00 5E 39 7F 00 C6 5D 00 FF 63 FE 33 ...'.^9...]..c.3
004057B0 11 D5 12 D4 00 00 E3 83 28 21 2D 7F 0F D6 6C B7 ........(!-...l.
004057C0 F7 FF 5C C4 45 00 4D 1A 44 40 BB 00 E3 FC 00 10 ..\.E.M.D@......
004057D0 46 5D 16 07 01 E1 4C DC EC 71 00 09 62 50 DE C7 F]....L..q..bP..
004057E0 64 FF 7D FD 0F AF 41 00 00 E4 E1 7C CC 00 5F D5 d.}...A....|.._.
004057F0 99 59 1B B2 C4 13 FF 2B 38 18 B0 00 13 41 8C 0B .Y.....+8....A..
00405800 7B 41 37 30 08 6C FF E4 00 3F 53 E4 FF 59 04 00 {A70.l...?S..Y..
00405810 CE 43 6C 30 00 77 E3 5D CC CB 1F 67 29 B4 DF 00 .Cl0.w.]...g)...
00405820 F2 3B 00 64 C1 AE 46 36 F1 1B 00 00 00 95 81 DC .;.d..F6........
00405830 FF A4 CF C1 00 B8 A9 3F FF 7A DF C5 50 FF 3F F1 .......?.z..P.?.
00405840 FF 99 73 79 08 00 FF 00 01 8F A1 00 FF 03 00 1F ..sy............
00405850 44 8A D7 8F 2A 00 03 D6 BE 0C 46 90 67 3D 20 9F D...*.....F.g= .
00405860 3D 86 AD B7 1F 8A 4B 03 A5 7A 2F 4B CE 4F 97 F9 =.....K..z/K.O..
00405870 2C 08 68 00 01 44 67 B9 F1 6C 3C 99 B0 49 8F 77 ,.h..Dg..l<..I.w
00405880 1D 00 22 FF 46 5C F3 D1 90 FB 8E 00 16 87 84 00 ..".F\..........
00405890 74 43 D4 45 FF C2 EB 0C BC 51 F7 07 E4 E9 64 66 tC.E.....Q....df
004058A0 80 CC 00 BE 96 EE 24 E3 3A 00 88 FF 00 00 89 61 ......$.:......a
004058B0 92 AD 74 0C 2E 26 29 00 CD F6 E0 23 A3 A4 00 30 ..t..&)....#...0
004058C0 00 E7 E9 C4 08 5D 00 C0 52 CA 1E FF B9 7E 87 00 .....]..R....~..
004058D0 65 00 BA 34 FF 0D 87 B1 AB DF C2 E0 80 EF EF 00 e..4............
004058E0 01 42 A4 D3 27 E7 85 C3 1F 7A 95 32 E9 4A 09 17 .B..'....z.2.J..
004058F0 82 5D 35 AF 00 74 DF 43 6B 27 1F 36 11 F8 2B 3F .]5..t.Ck'.6..+?
00405900 06 13 94 5D E9 39 4C 00 0C 38 3D 88 06 84 00 61 ...].9L..8=....a
00405910 1E 8B 00 C5 E3 BD 7B 93 F0 00 90 85 C8 50 77 68 ......{......Pwh
00405920 58 00 CA 4F 04 63 00 F6 FF 4D 00 65 73 00 3B 3C X..O.c...M.es.;<
00405930 00 87 B1 34 19 8C 00 18 5C 52 C1 90 E3 00 44 81 ...4....\R....D.
00405940 00 B0 A3 53 00 08 00 C7 88 00 00 00 FD 79 CE D0 ...S.........y..
00405950 FF 29 C0 F4 78 F6 00 F4 C5 A7 53 05 E4 BF 9C 1F .)..x.....S.....
00405960 57 05 DD 07 61 00 8D F5 E0 EB 00 00 91 C3 67 00 W...a.........g.
00405970 00 4E 56 A7 1B FB 1A 00 32 D1 F1 27 D5 48 F4 56 .NV.....2..'.H.V
00405980 61 90 21 D9 C2 AB 0C FF C7 CB 6E 44 62 BB 56 5C a.!.......nDb.V\
00405990 93 76 22 FF A0 83 B8 43 00 FF 40 97 00 94 94 FE .v"....C..@.....
004059A0 A0 91 28 38 21 FF 06 FB EC B3 A7 8E C9 40 6D 74 ..(8!........@mt
004059B0 B4 B0 01 0A 8C 00 6C 00 CE FF AE 00 24 21 E2 00 ......l.....$!..
004059C0 63 52 0C 00 17 FF 7D 0A 0A D5 E2 9F 7B 00 AF CB cR....}.....{...
004059D0 08 00 00 C7 15 CF 87 00 E6 1E 00 A1 3B AA 00 32 ............;..2
004059E0 23 00 FF 00 FF 79 B1 5F 3F E1 33 50 AA 55 87 D0 #....y._?.3P.U..
004059F0 90 7A 2A 05 19 00 84 A7 88 08 E7 99 00 F0 8F 06 .z*.............
00405A00 00 51 E1 C5 70 00 73 FF 05 0B F7 88 17 69 00 00 .Q..p.s......i..
00405A10 9C 2E BF F3 0F FF 1F 3C 00 7C 8E EB CE B7 71 77 .......<.|....qw
00405A20 00 1C 4F E0 00 00 E2 00 1E DB C2 08 83 69 C3 4E ..O..........i.N
00405A30 00 BA B6 BB 3F 5D 9A 4A 00 44 6D F6 A2 A0 D5 60 ....?].J.Dm....`
00405A40 D8 EE 89 83 00 00 1D 09 39 10 00 54 FE 89 29 33 ........9..T..)3
00405A50 07 55 71 FF 7C A3 EB E5 83 FF 2C 01 00 33 05 00 .Uq.|.....,..3..
00405A60 81 25 EF 51 BE 1E 50 00 EF E6 86 FF 63 CA 00 0E .%.Q..P.....c...
00405A70 23 37 00 F3 5C 38 00 C9 99 36 A9 74 4C 5E BA 07 #7..\8...6.tL^..
00405A80 4D 1E E2 C8 BE D1 FF 02 6A AE 89 74 6B BB 78 B4 M.......j..tk.x.
00405A90 CD FF B4 3A 89 00 83 00 BE DD 00 93 00 B6 00 7C ...:...........|
00405AA0 31 15 EF FF 82 78 01 EE 08 30 E1 6F 86 50 00 CE 1....x...0.o.P..
00405AB0 2E 34 2A FF 2E 90 BA 00 C5 AB E6 31 61 15 08 DC .4*........1a...
00405AC0 83 FF 53 D2 EE 00 FF 43 FF 79 DF 29 6B 47 B7 D2 ..S....C.y.)kG..
00405AD0 3E F9 53 4D 00 2A B5 22 DA 5D 76 8A FF 4D 81 07 >.SM.*.".]v..M..
00405AE0 00 06 79 75 DC 40 59 FF 5C 00 20 E6 75 61 BA D2 ..yu.@Y.\. .ua..
00405AF0 83 00 0A 00 00 63 C5 1F 7A 1C 40 3C 00 F9 F3 32 .....c..z.@<...2
00405B00 D6 15 F6 24 50 10 DB 65 B7 53 30 82 96 AA F9 81 ...$P..e.S0.....
00405B10 00 01 0D 00 9E 19 0C 66 7E 27 4C 00 54 28 A8 95 .......f~'L.T(..
00405B20 5D D6 7D 3D DF 91 DC 8C DB 00 72 4B 31 66 83 44 ].}=......rK1f.D
00405B30 7C 29 9A AC 00 B7 00 AC D9 1B 9B 19 05 9C 12 02 |)..............
00405B40 1C DB 00 C9 1A 29 12 40 C5 5B 80 4E 42 6B E0 00 .....).@.[.NBk..
00405B50 95 00 FF 00 B3 5A D2 DD E0 8E 58 00 2E 6F 32 7D .....Z....X..o2}
00405B60 D9 0A C1 DC 06 FD B9 27 DF 77 4A B1 00 37 FF 00 .......'.wJ..7..
00405B70 16 F0 1B E0 00 64 98 89 82 53 04 00 E4 8B 00 8A .....d...S......
00405B80 00 72 7F F4 54 0B BA 61 93 00 00 1C 01 BF 00 00 .r..T..a........
00405B90 7C 01 7D 62 00 00 3F EB 4E F8 18 25 39 66 00 90 |.}b..?.N..%9f..
00405BA0 0C CF A9 CC FD A0 CE 00 2C CA B2 98 70 C0 FD 64 ........,...p..d
00405BB0 B7 16 00 FF 63 18 22 9F 6A 24 10 00 09 F5 CC F5 ....c.".j$......
00405BC0 70 B9 E5 FF 7E 4A A7 62 C2 00 6F 08 0E 73 D7 DE p...~J.b..o..s..
00405BD0 7B 2C EC EF 62 1A D3 A2 18 AB 47 89 A6 BF 48 57 {,..b.....G...HW
00405BE0 90 3C F4 1B E3 9E 01 5F C5 00 E9 00 F1 BF 7C 0B .<....._......|.
00405BF0 2B 12 00 C6 B2 7F 02 14 46 00 00 BA 04 E5 03 00 +.......F.......
00405C00 00 00 03 BC B6 05 0A A1 E0 76 98 05 A4 A0 E1 E9 .........v......
00405C10 82 F6 62 EF F7 04 98 EF E2 73 7C B2 CD 00 98 00 ..b......s|.....
00405C20 D5 D5 F7 E6 1C 8B A5 00 63 AA 00 8B D1 2D 00 00 ........c....-..
00405C30 22 00 B8 C4 B0 CD 30 67 C1 66 38 B1 B8 FE 00 D1 ".....0g.f8.....
00405C40 19 44 70 31 C0 00 2A 3A 00 CF A9 FE A2 ED A8 00 .Dp1..*:........
00405C50 66 04 FF A1 8E 32 B8 3D DE 81 FF 00 20 00 F7 06 f....2.=.... ...
00405C60 3F 1B 7D 5C 00 CC 00 15 31 B0 05 2B 00 00 55 F3 ?.}\....1..+..U.
00405C70 19 FF 80 12 00 00 D6 27 5A 0C F9 4F 00 00 13 44 .......'Z..O...D
00405C80 40 E6 00 00 00 41 B3 C1 AD FD CF AA 3C 28 82 F1 @....A......<(..
00405C90 86 32 6B 87 3D 00 FF 10 88 DE 08 42 00 E2 AF F5 .2k.=......B....
00405CA0 C1 00 FB 82 7A FF ED 08 30 3A 5A D0 00 00 8D 00 ....z...0:Z.....
00405CB0 00 E7 04 A8 2F 5A 00 00 42 00 87 2E 7F C7 7E 00 ..../Z..B.....~.
00405CC0 62 40 00 ED 84 00 00 C2 3E 36 D5 22 09 00 96 29 b@......>6."...)
00405CD0 54 C8 AA 7A 7A 00 00 DF 00 45 1B A2 C6 00 E8 CB T..zz....E......
00405CE0 00 2B 56 F5 81 EB 00 3B 43 3E 23 2F E2 00 30 61 .+V....;C>#/..0a
00405CF0 6F 3D 9B E0 40 00 E6 9D CC 76 8D 31 93 00 00 9A o=..@....v.1....
00405D00 8E DC 00 A1 01 05 0B 1F F2 E5 08 7B 02 89 6C 70 ...........{..lp
00405D10 34 8B A2 AD 52 69 E4 18 4F 1F 41 88 03 D1 00 23 4...Ri..O.A....#
00405D20 00 06 00 BF A2 FF CF 79 E5 9A 23 BD E7 3C 0F D1 .......y..#..<..
00405D30 8D 00 33 21 FF 85 91 FE 34 0D 00 E1 00 50 47 26 ..3!....4....PG&
00405D40 CE 22 74 C2 48 13 85 41 1C 76 52 A4 C4 B7 00 9F ."t.H..A.vR.....
00405D50 B9 15 4E 73 B9 50 A3 8B 79 00 23 9B 31 FF 56 FF ..Ns.P..y.#.1.V.
00405D60 1B 9C 4A 67 9D 1E 00 36 B5 B4 6C C4 C0 D2 0B 00 ..Jg...6..l.....
00405D70 D0 00 DF 0A 71 FF B2 00 42 00 86 00 37 53 80 39 ....q...B...7S.9
00405D80 71 BF 00 E0 52 47 84 E0 D3 61 00 00 40 F4 5D FF q...RG...a..@.].
00405D90 B9 33 00 D6 58 CC E0 CC 00 94 23 EC 84 C5 70 00 .3..X.....#...p.
00405DA0 DA CF 78 6B 0F 02 00 FE 71 FF 2F 4B A8 37 B0 43 ..xk....q./K.7.C
00405DB0 00 CE 18 FC 00 01 FF 99 5A 9C 64 87 8E B8 AE 00 ........Z.d.....
00405DC0 15 F1 5E 46 4A 13 00 43 FF 65 00 7F 67 4E 8A FF ..^FJ..C.e..gN..
00405DD0 11 30 0E 00 29 00 24 00 76 5B D2 B1 26 DC 27 00 .0..).$.v[..&.'.
00405DE0 87 DB B9 61 57 E2 00 C0 BD 7F 3E 42 21 B0 6C 78 ...aW.....>B!.lx
00405DF0 CF 00 3B F7 E8 50 DD 2D E0 6E 85 4B 01 CC 4F 16 ..;..P.-.n.K..O.
00405E00 88 E9 3F EE 3C D0 8D 0F 00 44 F3 03 07 00 D9 08 ..?.<....D......
00405E10 6E D7 00 9C F9 19 0F 7C 88 BB 27 6F 2E 0F C0 00 n......|..'o....
00405E20 56 F3 EC C5 6F B9 00 3F F5 18 9E CD 96 FF 98 5D V...o..?.......]
00405E30 B1 16 00 F3 FE 06 A5 91 7A FF DC 00 3B E2 FF 31 ........z...;..1
00405E40 58 0C CC 10 00 05 98 00 5F 31 F0 25 E1 B4 9B 85 X......._1.%....
00405E50 00 27 FF 3E FE 84 BA 28 7E 00 00 87 2C 88 2E 41 .'.>...(~...,..A
00405E60 BE C1 7D AA 0D 67 FB 31 1C FA BB 50 54 5F 3A 0F ..}..g.1...PT_:.
00405E70 9D A8 83 7F D5 8C 00 82 20 F7 13 42 00 61 00 00 ........ ..B.a..
00405E80 91 C8 50 FF DA 97 3F 84 30 51 56 86 F2 56 B5 91 ..P...?.0QV..V..
00405E90 C9 0B DF CF 14 06 A0 8A 05 FF CC CF 99 15 D5 C8 ................
00405EA0 C5 DD 95 2A 75 9C 62 A0 AD 01 0C F0 FF 0F 1D 20 ...*u.b........ 
00405EB0 0E F5 C1 AD 91 7D A8 00 C0 9A CF ED 00 BE CB 87 .....}..........
00405EC0 00 AA 29 FB 28 F5 E0 96 A4 48 FF 57 3C C0 C1 5F ..).(....H.W<.._
00405ED0 74 00 00 18 AB 34 70 72 4C FB 72 98 4F 00 50 C7 t....4prL.r.O.P.
00405EE0 2C C8 3D CD 7A 00 27 DD 36 EF C4 6D 00 6C F0 08 ,.=.z.'.6..m.l..
00405EF0 AD C1 5C D2 FF 00 49 8C 00 C7 CA F8 72 FC B9 58 ..\...I.....r..X
00405F00 1D D0 00 00 5F 61 1E FB 2C BF 2D 02 F8 0E 10 95 ...._a..,.-.....
00405F10 00 1E 53 E7 00 8B DF 13 68 93 C0 68 69 72 CC 00 ..S.....h..hir..
00405F20 83 EB D7 41 61 87 58 DB E2 02 9E 96 47 3D 00 A7 ...Aa.X.....G=..
00405F30 00 F0 02 D2 02 5C 90 89 ED 24 21 71 00 60 30 77 .....\...$!q.`0w
00405F40 0D 72 D5 60 C8 1E 50 B1 27 1B 9F 67 AD C5 8F 1E .r.`..P.'..g....
00405F50 49 50 18 36 A1 F1 7F DA 5B 3E 4B EE 1D 98 00 20 IP.6....[>K.... 
00405F60 8F A0 EC 22 C0 1C 20 19 E2 92 84 18 00 63 73 D9 ...".. ......cs.
00405F70 3E FD 00 00 6E 80 28 4C 87 30 00 E0 B0 3C 8D E7 >...n.(L.0...<..
00405F80 79 37 98 89 2D 4A C5 38 F6 3B 00 39 00 FF 10 CF y7..-J.8.;.9....
00405F90 7E DD 7E A5 00 4F 00 60 A2 50 18 B2 49 00 61 52 ~.~..O.`.P..I.aR
00405FA0 33 E4 00 7E 44 81 00 A3 A1 26 E9 00 EB 93 9C 03 3..~D....&......
00405FB0 20 AD 18 13 22 B8 A9 95 66 00 0A 00 CD DD FA 83  ..."...f.......
00405FC0 08 0A DB 42 AF CA 4E 1E 5E 00 A2 1B AE B2 47 C3 ...B..N.^.....G.
00405FD0 42 00 13 00 99 2E 80 EA 7A E4 00 9B 20 78 BA 08 B.......z... x..
00405FE0 B6 28 80 00 E2 8B D4 F0 FE 0E BC 00 03 00 C9 49 .(.............I
00405FF0 2F 50 22 28 44 B7 02 9F 2D FF 4C E1 00 08 A8 F6 /P"(D...-.L.....
00406000 D1 97 00 01 93 26 20 E3 00 75 D8 00 BE 9C 38 FF .....& ..u....8.
00406010 8D 10 24 6F D1 00 A9 1F 4B BD 00 00 8F FF 00 A7 ..$o....K.......
00406020 56 38 FB 06 80 00 00 63 00 F3 00 A9 63 99 4F 2C V8.....c....c.O,
00406030 0A C6 38 88 42 A3 77 05 00 D9 38 B9 F5 12 8C 8F ..8.B.w...8.....
00406040 A0 E0 3C A5 97 B3 B3 86 63 61 FF 00 E1 C8 CF 66 ..<.....ca.....f
00406050 D4 B1 3C 0E 92 40 93 96 BF 51 00 AE C4 F0 F1 A3 ..<..@...Q......
00406060 3F FE 4C E7 FF FF 00 27 31 00 00 EC CF 0F 3E F5 ?.L....'1.....>.
00406070 E8 FF C7 16 F0 FF 12 00 37 1A EA 18 65 F7 99 A2 ........7...e...
00406080 35 00 C1 00 69 7E 79 FF 02 2F D5 E2 2E A8 00 6E 5...i~y../.....n
00406090 A0 00 5E 7A C8 13 00 24 7C 71 94 17 C3 BF EE 98 ..^z...$|q......
004060A0 6E 4F 97 2F DE FF 5F 10 DF 00 09 0A C7 00 00 19 nO./.._.........
004060B0 3E 20 64 F5 14 AD 00 08 3C AF CF 3F FF C1 A3 C3 > d.....<..?....
004060C0 C0 D5 6B E3 14 E6 7E D6 F0 C5 70 27 2A A7 49 28 ..k...~...p'*.I(
004060D0 21 F1 B3 FB C5 85 44 C0 F3 CF 1C 21 23 00 81 D8 !.....D....!#...
004060E0 09 26 1C FF 58 8C 85 00 04 7D DC A1 3A FF 97 DB .&..X....}..:...
004060F0 C5 9D 00 E7 48 FF 20 90 04 40 A5 F9 00 8E 96 5D ....H. ..@.....]
00406100 B3 FF 70 DB 00 E1 66 58 8F C8 B3 40 78 42 26 FE ..p...fX...@xB&.
00406110 12 15 96 00 4A 9A F1 93 C3 D5 00 B1 FF 00 0D 41 ....J..........A
00406120 04 00 69 34 05 9E 4F 00 02 E3 77 05 94 ED FF 20 ..i4..O...w.... 
00406130 00 BF 77 3F F1 B6 8F 46 62 FF 50 A4 B1 D7 6E AD ..w?...Fb.P...n.
00406140 DE B8 F2 A0 00 FF BF B4 5E DE D2 0C EE 00 5C EE ........^.....\.
00406150 00 03 22 FA 80 B3 70 50 00 14 04 18 FF D7 26 FF .."...pP......&.
00406160 EC 1F 86 9C 16 41 00 70 F9 00 DD 5F 36 AF A2 B8 .....A.p..._6...
00406170 00 C8 8F E4 B0 8B 00 8B EA 30 E2 FF 00 00 90 02 .........0......
00406180 14 5F C0 3A D6 79 97 3A E8 7C F9 CB 5D 08 C5 97 ._.:.y.:.|..]...
00406190 FF E0 98 77 20 02 F1 27 C9 00 65 3C 0C 10 47 91 ...w ..'..e<..G.
004061A0 E7 E7 44 63 22 28 7A 39 3E 7E F2 1C F3 E4 00 BB ..Dc"(z9>~......
004061B0 BD 4E 02 BE A1 10 46 10 7D 30 02 26 69 E5 C9 86 .N....F.}0.&i...
004061C0 39 C7 52 E5 40 8E F9 FF F8 68 98 65 00 81 94 DC 9.R.@....h.e....
004061D0 BC DC C0 00 92 00 11 8C F2 33 A5 B5 41 37 6E 00 .........3..A7n.
004061E0 90 7A 5B 0C E4 00 2F 48 2E 35 4D 2A FE E0 00 BA .z[.../H.5M*....
004061F0 55 62 50 74 70 00 99 D0 BE 00 3C 2E 00 36 D3 FB UbPtp.....<..6..
00406200 11 89 10 0D 00 FB CD 25 60 62 A0 7F 60 A7 C2 95 .......%`b..`...
00406210 A6 56 EB 00 A3 A9 45 4B 02 6D 8A 06 00 9D FF EA .V....EK.m......
00406220 B7 99 BD FB 65 00 00 80 60 4B 2C 94 67 C7 D7 D6 ....e...`K,.g...
00406230 17 F1 FE 45 00 61 9E 6D F4 80 06 F6 C5 DE 28 A1 ...E.a.m......(.
00406240 C5 2C 49 38 F8 8B 61 37 08 CE A1 C1 C3 AA 2A DF .,I8..a7......*.
00406250 F0 7D E0 00 17 DA 88 FF 85 8F 06 00 00 A4 31 92 .}............1.
00406260 8E 26 9D FA 71 A7 17 00 4B E9 25 02 36 2B 9C 44 .&..q...K.%.6+.D
00406270 00 76 EA FA A5 28 A1 62 ED F9 C5 61 92 37 04 1B .v...(.b...a.7..
00406280 B8 BB BA 3C 64 38 FF 49 A2 7F 43 7E F6 BC 00 9B ...<d8.I..C~....
00406290 60 6E F8 01 FA FF AD 1F 8B 37 00 55 00 6C 93 FF `n.......7.U.l..
004062A0 00 2C AD 4C 35 7E D7 40 D0 71 EF 42 00 00 38 0C .,.L5~.@.q.B..8.
004062B0 34 6C FF 81 89 FF 00 2B DA B4 7C 00 C9 E4 41 3F 4l.....+..|...A?
004062C0 E0 3E 9D B6 10 08 40 00 8B 00 EB FC 16 9C B8 00 .>....@.........
004062D0 12 1E 00 9A B3 00 99 A5 B6 47 4C CD 05 FE 10 00 .........GL.....
004062E0 00 89 83 8B 95 0F 8D 76 00 02 6C E2 49 07 65 B1 .......v..l.I.e.
004062F0 20 44 76 00 6A 6E B6 DA 00 00 90 FF 0D 7A 62 FC  Dv.jn.......zb.
00406300 BA 41 B7 EF FE 12 A3 78 30 27 1E 00 AE 24 89 BF .A.....x0'...$..
00406310 82 00 6E 00 00 28 61 20 85 42 EF 83 F8 4D 00 00 ..n..(a .B...M..
00406320 AD CB 04 02 C0 58 00 18 D9 4E 00 C2 76 16 B7 00 .....X...N..v...
00406330 D0 E4 FF 38 98 7A D1 37 C7 C2 65 EB A3 65 1C 0C ...8.z.7..e..e..
00406340 00 5E 34 9C 3F 40 D9 4C FF FF 00 FF 83 06 B7 52 .^4.?@.L.......R
00406350 4A A4 00 FD 50 07 00 00 00 00 2C 31 58 F4 66 A1 J...P.....,1X.f.
00406360 FE 0F 8F E3 00 B1 65 A3 FF C3 C4 3A B5 AF 3C 00 ......e....:..<.
00406370 E4 50 00 5F F1 00 4D D2 E4 C2 E0 ED E5 43 25 E7 .P._..M......C%.
00406380 20 0F 15 00 84 7D 60 EC 13 FF 28 01 D1 FF DE 00  ....}`...(.....
00406390 EE F7 C3 EA 9D DE 0A 25 40 6A 72 06 00 12 FF 2D .......%@jr....-
004063A0 99 00 20 2A 26 5F B4 38 30 E0 FF 66 1B 62 00 10 .. *&_.80..f.b..
004063B0 CD 00 BC 89 99 15 6B 27 22 B2 F8 89 4F F2 70 BD ......k'"...O.p.
004063C0 3A 87 20 07 00 00 F9 00 4C 80 56 4E 21 00 2F FF :. .....L.VN!./.
004063D0 00 E6 12 7F 64 3B A6 A5 9E 51 46 D8 A9 1E D9 FF ....d;...QF.....
004063E0 4D 60 6B 39 E4 B7 9E 28 B8 4D 57 EF EE FF 9E EA M`k9...(.MW.....
004063F0 D1 B8 18 00 39 DD 9B C5 EE 00 13 08 A5 03 80 00 ....9...........
00406400 00 F4 7F 00 E3 63 1B 6A 5D 00 E1 F6 D5 E3 A6 B8 .....c.j].......
00406410 27 FF C9 D0 1D 75 82 48 47 9A 6F F3 5E 00 34 6C '....u.HG.o.^.4l
00406420 00 3F 04 32 81 18 6F 98 FF FC C2 F6 26 8C 23 DC .?.2..o.....&.#.
00406430 19 FE 4B E1 00 00 6E 39 00 33 22 AA DF FA 62 84 ..K...n9.3"...b.
00406440 48 76 CD 6E 00 E3 C7 34 43 7D A9 08 A5 3A CD 22 Hv.n...4C}...:."
00406450 93 A2 8D 00 8A 5C 9B 87 C8 24 94 EC 00 7B 22 68 .....\...$...{"h
00406460 00 68 C0 0D 02 89 56 C4 DF FF FC C0 5C 1B 1F 00 .h....V.....\...
00406470 1E CC 01 00 64 8D 47 9D E5 91 8D A4 00 43 A9 92 ....d.G......C..
00406480 D5 B9 CB DE 4C E2 30 3B 00 81 8D A1 B4 4D 42 88 ....L.0;.....MB.
00406490 2E F9 7E 96 52 0E 08 61 44 29 16 BA 0A 05 00 1D ..~.R..aD)......
004064A0 00 BF 66 F3 91 DE 22 F5 24 00 C1 1C 5B 7B 9D 0B ..f...".$...[{..
004064B0 00 C9 00 08 2B BF 9D 0B BB 49 B5 33 00 D3 8C 3A ....+....I.3...:
004064C0 5B 0E 14 05 7A 9E BC D7 09 20 05 B2 E7 F5 74 28 [...z.... ....t(
004064D0 B3 74 00 01 B4 25 00 FF 6C 54 1A FF 5B 81 CA 84 .t...%..lT..[...
004064E0 F9 64 09 7F 9B 77 39 34 EF 3B 42 08 FE ED 5C 88 .d...w94.;B...\.
004064F0 9A 83 B9 B0 F1 63 80 00 F3 48 FF 22 52 C1 58 17 .....c...H."R.X.
00406500 C3 1E E7 E8 19 0A E3 FF FF FF F6 F1 C9 9C 2D E5 ..............-.
00406510 70 D9 00 B8 84 00 7C A7 4E 8E 91 71 13 B7 64 0B p.....|.N..q..d.
00406520 00 5B D6 00 84 00 C9 8E 6F FD C4 08 A3 DE FA CE .[......o.......
00406530 D3 2D F8 CF A8 24 CB 76 AA 00 94 00 A2 64 AC FF .-...$.v.....d..
00406540 C6 64 FF E0 98 F6 DF 00 81 FD FD 00 B1 12 05 96 .d..............
00406550 56 02 8C C7 3D D5 3B DE 62 18 00 9A F6 C1 86 61 V...=.;.b......a
00406560 04 D8 FF C0 EF 4F 36 11 C5 C8 0B 7E 2A E3 3D 79 .....O6....~*.=y
00406570 00 00 E7 1A 51 00 1C 1B 0E 26 FF FF 00 97 30 1E ....Q....&....0.
00406580 BB 20 AC E3 E1 94 A8 FD 4C 31 79 00 FF BA 00 A1 . ......L1y.....
00406590 60 94 DE 13 9E 0F EE 1E CA 00 04 00 21 00 04 DC `...........!...
004065A0 9D 46 3A 5C 99 CB F3 22 18 01 81 A8 02 FF 9F D8 .F:\..."........
004065B0 1E FF 00 00 FB 00 67 FD 23 48 02 00 00 39 D1 A9 ......g.#H...9..
004065C0 41 9F 03 EF 0A 3D C9 17 00 50 8A 01 F9 90 F9 05 A....=...P......
004065D0 00 02 A3 00 12 06 A3 39 8B FF 1F E0 44 88 94 FF .......9....D...
004065E0 67 00 6B F3 02 AB 96 00 5C 00 07 00 A1 B8 0C F1 g.k.....\.......
004065F0 2C A7 CE 24 5A BD 00 5C 1D AF F5 CB 88 2E 38 71 ,..$Z..\......8q
00406600 00 00 00 00 00 00 00 00 00 00 00 00 00 00 00 00 ................
00406610 00 00 00 00 00 00 00 00 00 00 00 00 00 00 00 00 ................
00406620 00 00 00 00 00 00 00 00 00 00 00 00 00 00 00 00 ................
00406630 00 00 00 00 00 00 00 00 00 00 00 00 00 00 00 00 ................
00406640 00 00 00 00 00 00 00 00 00 00 00 00 00 00 00 00 ................
00406650 00 00 00 00 00 00 00 00 00 00 00 00 00 00 00 00 ................
00406660 00 00 00 00 00 00 00 00 00 00 00 00 00 00 00 00 ................
00406670 00 00 00 00 00 00 00 00 00 00 00 00 00 00 00 00 ................
00406680 00 00 00 00 00 00 00 00 00 00 00 00 00 00 00 00 ................
00406690 00 00 00 00 00 00 00 00 00 00 00 00 00 00 00 00 ................
004066A0 00 00 00 00 00 00 00 00 00 00 00 00 00 00 00 00 ................
004066B0 00 00 00 00 00 00 00 00 00 00 00 00 00 00 00 00 ................
004066C0 00 00 00 00 00 00 00 00 00 00 00 00 00 00 00 00 ................
004066D0 00 00 00 00 00 00 00 00 00 00 00 00 00 00 00 00 ................
004066E0 00 00 00 00 00 00 00 00 00 00 00 00 00 00 00 00 ................
004066F0 00 00 00 00 00 00 00 00 00 00 00 00 00 00 00 00 ................
00406700 00 00 00 00 00 00 00 00 00 00 00 00 00 00 00 00 ................
00406710 00 00 00 00 00 00 00 00 00 00 00 00 00 00 00 00 ................
00406720 00 00 00 00 00 00 00 00 00 00 00 00 00 00 00 00 ................
00406730 00 00 00 00 00 00 00 00 00 00 00 00 00 00 00 00 ................
00406740 00 00 00 00 00 00 00 00 00 00 00 00 00 00 00 00 ................
00406750 00 00 00 00 00 00 00 00 00 00 00 00 00 00 00 00 ................
00406760 00 00 00 00 00 00 00 00 00 00 00 00 00 00 00 00 ................
00406770 00 00 00 00 00 00 00 00 00 00 00 00 00 00 00 00 ................
00406780 00 00 00 00 00 00 00 00 00 00 00 00 00 00 00 00 ................
00406790 00 00 00 00 00 00 00 00 00 00 00 00 00 00 00 00 ................
004067A0 00 00 00 00 00 00 00 00 00 00 00 00 00 00 00 00 ................
004067B0 00 00 00 00 00 00 00 00 00 00 00 00 00 00 00 00 ................
004067C0 00 00 00 00 00 00 00 00 00 00 00 00 00 00 00 00 ................
004067D0 00 00 00 00 00 00 00 00 00 00 00 00 00 00 00 00 ................
004067E0 00 00 00 00 00 00 00 00 00 00 00 00 00 00 00 00 ................
004067F0 00 00 00 00 00 00 00 00 00 00 00 00 00 00 00 00 ................
00406800 00 00 00 00 00 00 00 00 00 00 00 00 00 00 00 00 ................
00406810 00 00 00 00 00 00 00 00 00 00 00 00 00 00 00 00 ................
00406820 00 00 00 00 00 00 00 00 00 00 00 00 00 00 00 00 ................
00406830 00 00 00 00 00 00 00 00 00 00 00 00 00 00 00 00 ................
00406840 00 00 00 00 00 00 00 00 00 00 00 00 00 00 00 00 ................
00406850 00 00 00 00 00 00 00 00 00 00 00 00 00 00 00 00 ................
00406860 00 00 00 00 00 00 00 00 00 00 00 00 00 00 00 00 ................
00406870 00 00 00 00 00 00 00 00 00 00 00 00 00 00 00 00 ................
00406880 00 00 00 00 00 00 00 00 00 00 00 00 00 00 00 00 ................
00406890 00 00 00 00 00 00 00 00 00 00 00 00 00 00 00 00 ................
004068A0 00 00 00 00 00 00 00 00 00 00 00 00 00 00 00 00 ................
004068B0 00 00 00 00 00 00 00 00 00 00 00 00 00 00 00 00 ................
004068C0 00 00 00 00 00 00 00 00 00 00 00 00 00 00 00 00 ................
004068D0 00 00 00 00 00 00 00 00 00 00 00 00 00 00 00 00 ................
004068E0 00 00 00 00 00 00 00 00 00 00 00 00 00 00 00 00 ................
004068F0 00 00 00 00 00 00 00 00 00 00 00 00 00 00 00 00 ................
00406900 00 00 00 00 00 00 00 00 00 00 00 00 00 00 00 00 ................
00406910 00 00 00 00 00 00 00 00 00 00 00 00 00 00 00 00 ................
00406920 00 00 00 00 00 00 00 00 00 00 00 00 00 00 00 00 ................
00406930 00 00 00 00 00 00 00 00 00 00 00 00 00 00 00 00 ................
00406940 00 00 00 00 00 00 00 00 00 00 00 00 00 00 00 00 ................
00406950 00 00 00 00 00 00 00 00 00 00 00 00 00 00 00 00 ................
00406960 00 00 00 00 00 00 00 00 00 00 00 00 00 00 00 00 ................
00406970 00 00 00 00 00 00 00 00 00 00 00 00 00 00 00 00 ................
00406980 00 00 00 00 00 00 00 00 00 00 00 00 00 00 00 00 ................
00406990 00 00 00 00 00 00 00 00 00 00 00 00 00 00 00 00 ................
004069A0 00 00 00 00 00 00 00 00 00 00 00 00 00 00 00 00 ................
004069B0 00 00 00 00 00 00 00 00 00 00 00 00 00 00 00 00 ................
004069C0 00 00 00 00 00 00 00 00 00 00 00 00 00 00 00 00 ................
004069D0 00 00 00 00 00 00 00 00 00 00 00 00 00 00 00 00 ................
004069E0 00 00 00 00 00 00 00 00 00 00 00 00 00 00 00 00 ................
004069F0 00 00 00 00 00 00 00 00 00 00 00 00 00 00 00 00 ................
00406A00 00 00 00 00 00 00 00 00 00 00 00 00 00 00 00 00 ................
00406A10 00 00 00 00 00 00 00 00 00 00 00 00 00 00 00 00 ................
00406A20 00 00 00 00 00 00 00 00 00 00 00 00 00 00 00 00 ................
00406A30 00 00 00 00 00 00 00 00 00 00 00 00 00 00 00 00 ................
00406A40 00 00 00 00 00 00 00 00 00 00 00 00 00 00 00 00 ................
00406A50 00 00 00 00 00 00 00 00 00 00 00 00 00 00 00 00 ................
00406A60 00 00 00 00 00 00 00 00 00 00 00 00 00 00 00 00 ................
00406A70 00 00 00 00 00 00 00 00 00 00 00 00 00 00 00 00 ................
00406A80 00 00 00 00 00 00 00 00 00 00 00 00 00 00 00 00 ................
00406A90 00 00 00 00 00 00 00 00 00 00 00 00 00 00 00 00 ................
00406AA0 00 00 00 00 00 00 00 00 00 00 00 00 00 00 00 00 ................
00406AB0 00 00 00 00 00 00 00 00 00 00 00 00 00 00 00 00 ................
00406AC0 00 00 00 00 00 00 00 00 00 00 00 00 00 00 00 00 ................
00406AD0 00 00 00 00 00 00 00 00 00 00 00 00 00 00 00 00 ................
00406AE0 00 00 00 00 00 00 00 00 00 00 00 00 00 00 00 00 ................
00406AF0 00 00 00 00 00 00 00 00 00 00 00 00 00 00 00 00 ................
00406B00 00 00 00 00 00 00 00 00 00 00 00 00 00 00 00 00 ................
00406B10 00 00 00 00 00 00 00 00 00 00 00 00 00 00 00 00 ................
00406B20 00 00 00 00 00 00 00 00 00 00 00 00 00 00 00 00 ................
00406B30 00 00 00 00 00 00 00 00 00 00 00 00 00 00 00 00 ................
00406B40 00 00 00 00 00 00 00 00 00 00 00 00 00 00 00 00 ................
00406B50 00 00 00 00 00 00 00 00 00 00 00 00 00 00 00 00 ................
00406B60 00 00 00 00 00 00 00 00 00 00 00 00 00 00 00 00 ................
00406B70 00 00 00 00 00 00 00 00 00 00 00 00 00 00 00 00 ................
00406B80 00 00 00 00 00 00 00 00 00 00 00 00 00 00 00 00 ................
00406B90 00 00 00 00 00 00 00 00 00 00 00 00 00 00 00 00 ................
00406BA0 00 00 00 00 00 00 00 00 00 00 00 00 00 00 00 00 ................
00406BB0 00 00 00 00 00 00 00 00 00 00 00 00 00 00 00 00 ................
00406BC0 00 00 00 00 00 00 00 00 00 00 00 00 00 00 00 00 ................
00406BD0 00 00 00 00 00 00 00 00 00 00 00 00 00 00 00 00 ................
00406BE0 00 00 00 00 00 00 00 00 00 00 00 00 00 00 00 00 ................
00406BF0 00 00 00 00 00 00 00 00 00 00 00 00 00 00 00 00 ................
00406C00 00 00 00 00 00 00 00 00 00 00 00 00 00 00 00 00 ................
00406C10 00 00 00 00 00 00 00 00 00 00 00 00 00 00 00 00 ................
00406C20 00 00 00 00 00 00 00 00 00 00 00 00 00 00 00 00 ................
00406C30 00 00 00 00 00 00 00 00 00 00 00 00 00 00 00 00 ................
00406C40 00 00 00 00 00 00 00 00 00 00 00 00 00 00 00 00 ................
00406C50 00 00 00 00 00 00 00 00 00 00 00 00 00 00 00 00 ................
00406C60 00 00 00 00 00 00 00 00 00 00 00 00 00 00 00 00 ................
00406C70 00 00 00 00 00 00 00 00 00 00 00 00 00 00 00 00 ................
00406C80 00 00 00 00 00 00 00 00 00 00 00 00 00 00 00 00 ................
00406C90 00 00 00 00 00 00 00 00 00 00 00 00 00 00 00 00 ................
00406CA0 00 00 00 00 00 00 00 00 00 00 00 00 00 00 00 00 ................
00406CB0 00 00 00 00 00 00 00 00 00 00 00 00 00 00 00 00 ................
00406CC0 00 00 00 00 00 00 00 00 00 00 00 00 00 00 00 00 ................
00406CD0 00 00 00 00 00 00 00 00 00 00 00 00 00 00 00 00 ................
00406CE0 00 00 00 00 00 00 00 00 00 00 00 00 00 00 00 00 ................
00406CF0 00 00 00 00 00 00 00 00 00 00 00 00 00 00 00 00 ................
00406D00 00 00 00 00 00 00 00 00 00 00 00 00 00 00 00 00 ................
00406D10 00 00 00 00 00 00 00 00 00 00 00 00 00 00 00 00 ................
00406D20 00 00 00 00 00 00 00 00 00 00 00 00 00 00 00 00 ................
00406D30 00 00 00 00 00 00 00 00 00 00 00 00 00 00 00 00 ................
00406D40 00 00 00 00 00 00 00 00 00 00 00 00 00 00 00 00 ................
00406D50 00 00 00 00 00 00 00 00 00 00 00 00 00 00 00 00 ................
00406D60 00 00 00 00 00 00 00 00 00 00 00 00 00 00 00 00 ................
00406D70 00 00 00 00 00 00 00 00 00 00 00 00 00 00 00 00 ................
00406D80 00 00 00 00 00 00 00 00 00 00 00 00 00 00 00 00 ................
00406D90 00 00 00 00 00 00 00 00 00 00 00 00 00 00 00 00 ................
00406DA0 00 00 00 00 00 00 00 00 00 00 00 00 00 00 00 00 ................
00406DB0 00 00 00 00 00 00 00 00 00 00 00 00 00 00 00 00 ................
00406DC0 00 00 00 00 00 00 00 00 00 00 00 00 00 00 00 00 ................
00406DD0 00 00 00 00 00 00 00 00 00 00 00 00 00 00 00 00 ................
00406DE0 00 00 00 00 00 00 00 00 00 00 00 00 00 00 00 00 ................
00406DF0 00 00 00 00 00 00 00 00 00 00 00 00 00 00 00 00 ................
00406E00 00 00 00 00 00 00 00 00 00 00 00 00 00 00 00 00 ................
00406E10 00 00 00 00 00 00 00 00 00 00 00 00 00 00 00 00 ................
00406E20 00 00 00 00 00 00 00 00 00 00 00 00 00 00 00 00 ................
00406E30 00 00 00 00 00 00 00 00 00 00 00 00 00 00 00 00 ................
00406E40 00 00 00 00 00 00 00 00 00 00 00 00 00 00 00 00 ................
00406E50 00 00 00 00 00 00 00 00 00 00 00 00 00 00 00 00 ................
00406E60 00 00 00 00 00 00 00 00 00 00 00 00 00 00 00 00 ................
00406E70 00 00 00 00 00 00 00 00 00 00 00 00 00 00 00 00 ................
00406E80 00 00 00 00 00 00 00 00 00 00 00 00 00 00 00 00 ................
00406E90 00 00 00 00 00 00 00 00 00 00 00 00 00 00 00 00 ................
00406EA0 00 00 00 00 00 00 00 00 00 00 00 00 00 00 00 00 ................
00406EB0 00 00 00 00 00 00 00 00 00 00 00 00 00 00 00 00 ................
00406EC0 00 00 00 00 00 00 00 00 00 00 00 00 00 00 00 00 ................
00406ED0 00 00 00 00 00 00 00 00 00 00 00 00 00 00 00 00 ................
00406EE0 00 00 00 00 00 00 00 00 00 00 00 00 00 00 00 00 ................
00406EF0 00 00 00 00 00 00 00 00 00 00 00 00 00 00 00 00 ................
00406F00 00 00 00 00 00 00 00 00 00 00 00 00 00 00 00 00 ................
00406F10 00 00 00 00 00 00 00 00 00 00 00 00 00 00 00 00 ................
00406F20 00 00 00 00 00 00 00 00 00 00 00 00 00 00 00 00 ................
00406F30 00 00 00 00 00 00 00 00 00 00 00 00 00 00 00 00 ................
00406F40 00 00 00 00 00 00 00 00 00 00 00 00 00 00 00 00 ................
00406F50 00 00 00 00 00 00 00 00 00 00 00 00 00 00 00 00 ................
00406F60 00 00 00 00 00 00 00 00 00 00 00 00 00 00 00 00 ................
00406F70 00 00 00 00 00 00 00 00 00 00 00 00 00 00 00 00 ................
00406F80 00 00 00 00 00 00 00 00 00 00 00 00 00 00 00 00 ................
00406F90 00 00 00 00 00 00 00 00 00 00 00 00 00 00 00 00 ................
00406FA0 00 00 00 00 00 00 00 00 00 00 00 00 00 00 00 00 ................
00406FB0 00 00 00 00 00 00 00 00 00 00 00 00 00 00 00 00 ................
00406FC0 00 00 00 00 00 00 00 00 00 00 00 00 00 00 00 00 ................
00406FD0 00 00 00 00 00 00 00 00 00 00 00 00 00 00 00 00 ................
00406FE0 00 00 00 00 00 00 00 00 00 00 00 00 00 00 00 00 ................
00406FF0 00 00 00 00 00 00 00 00 00 00 00 00 00 00 00 00 ................
00407000 00 00 00 00 00 00 00 00 00 00 00 00 00 00 00 00 ................
00407010 00 00 00 00 00 00 00 00 00 00 00 00 00 00 00 00 ................
00407020 00 00 00 00 00 00 00 00 00 00 00 00 00 00 00 00 ................
00407030 00 00 00 00 00 00 00 00 00 00 00 00 00 00 00 00 ................
00407040 00 00 00 00 00 00 00 00 00 00 00 00 00 00 00 00 ................
00407050 00 00 00 00 00 00 00 00 00 00 00 00 00 00 00 00 ................
00407060 00 00 00 00 00 00 00 00 00 00 00 00 00 00 00 00 ................
00407070 00 00 00 00 00 00 00 00 00 00 00 00 00 00 00 00 ................
00407080 00 00 00 00 00 00 00 00 00 00 00 00 00 00 00 00 ................
00407090 00 00 00 00 00 00 00 00 00 00 00 00 00 00 00 00 ................
004070A0 00 00 00 00 00 00 00 00 00 00 00 00 00 00 00 00 ................
004070B0 00 00 00 00 00 00 00 00 00 00 00 00 00 00 00 00 ................
004070C0 00 00 00 00 00 00 00 00 00 00 00 00 00 00 00 00 ................
004070D0 00 00 00 00 00 00 00 00 00 00 00 00 00 00 00 00 ................
004070E0 00 00 00 00 00 00 00 00 00 00 00 00 00 00 00 00 ................
004070F0 00 00 00 00 00 00 00 00 00 00 00 00 00 00 00 00 ................
00407100 00 00 00 00 00 00 00 00 00 00 00 00 00 00 00 00 ................
00407110 00 00 00 00 00 00 00 00 00 00 00 00 00 00 00 00 ................
00407120 00 00 00 00 00 00 00 00 00 00 00 00 00 00 00 00 ................
00407130 00 00 00 00 00 00 00 00 00 00 00 00 00 00 00 00 ................
00407140 00 00 00 00 00 00 00 00 00 00 00 00 00 00 00 00 ................
00407150 00 00 00 00 00 00 00 00 00 00 00 00 00 00 00 00 ................
00407160 00 00 00 00 00 00 00 00 00 00 00 00 00 00 00 00 ................
00407170 00 00 00 00 00 00 00 00 00 00 00 00 00 00 00 00 ................
00407180 00 00 00 00 00 00 00 00 00 00 00 00 00 00 00 00 ................
00407190 00 00 00 00 00 00 00 00 00 00 00 00 00 00 00 00 ................
004071A0 00 00 00 00 00 00 00 00 00 00 00 00 00 00 00 00 ................
004071B0 00 00 00 00 00 00 00 00 00 00 00 00 00 00 00 00 ................
004071C0 00 00 00 00 00 00 00 00 00 00 00 00 00 00 00 00 ................
004071D0 00 00 00 00 00 00 00 00 00 00 00 00 00 00 00 00 ................
004071E0 00 00 00 00 00 00 00 00 00 00 00 00 00 00 00 00 ................
004071F0 00 00 00 00 00 00 00 00 00 00 00 00 00 00 00 00 ................
00407200 00 00 00 00 00 00 00 00 00 00 00 00 00 00 00 00 ................
00407210 00 00 00 00 00 00 00 00 00 00 00 00 00 00 00 00 ................
00407220 00 00 00 00 00 00 00 00 00 00 00 00 00 00 00 00 ................
00407230 00 00 00 00 00 00 00 00 00 00 00 00 00 00 00 00 ................
00407240 00 00 00 00 00 00 00 00 00 00 00 00 00 00 00 00 ................
00407250 00 00 00 00 00 00 00 00 00 00 00 00 00 00 00 00 ................
00407260 00 00 00 00 00 00 00 00 00 00 00 00 00 00 00 00 ................
00407270 00 00 00 00 00 00 00 00 00 00 00 00 00 00 00 00 ................
00407280 00 00 00 00 00 00 00 00 00 00 00 00 00 00 00 00 ................
00407290 00 00 00 00 00 00 00 00 00 00 00 00 00 00 00 00 ................
004072A0 00 00 00 00 00 00 00 00 00 00 00 00 00 00 00 00 ................
004072B0 00 00 00 00 00 00 00 00 00 00 00 00 00 00 00 00 ................
004072C0 00 00 00 00 00 00 00 00 00 00 00 00 00 00 00 00 ................
004072D0 00 00 00 00 00 00 00 00 00 00 00 00 00 00 00 00 ................
004072E0 00 00 00 00 00 00 00 00 00 00 00 00 00 00 00 00 ................
004072F0 00 00 00 00 00 00 00 00 00 00 00 00 00 00 00 00 ................
00407300 00 00 00 00 00 00 00 00 00 00 00 00 00 00 00 00 ................
00407310 00 00 00 00 00 00 00 00 00 00 00 00 00 00 00 00 ................
00407320 00 00 00 00 00 00 00 00 00 00 00 00 00 00 00 00 ................
00407330 00 00 00 00 00 00 00 00 00 00 00 00 00 00 00 00 ................
00407340 00 00 00 00 00 00 00 00 00 00 00 00 00 00 00 00 ................
00407350 00 00 00 00 00 00 00 00 00 00 00 00 00 00 00 00 ................
00407360 00 00 00 00 00 00 00 00 00 00 00 00 00 00 00 00 ................
00407370 00 00 00 00 00 00 00 00 00 00 00 00 00 00 00 00 ................
00407380 00 00 00 00 00 00 00 00 00 00 00 00 00 00 00 00 ................
00407390 00 00 00 00 00 00 00 00 00 00 00 00 00 00 00 00 ................
004073A0 00 00 00 00 00 00 00 00 00 00 00 00 00 00 00 00 ................
004073B0 00 00 00 00 00 00 00 00 00 00 00 00 00 00 00 00 ................
004073C0 00 00 00 00 00 00 00 00 00 00 00 00 00 00 00 00 ................
004073D0 00 00 00 00 00 00 00 00 00 00 00 00 00 00 00 00 ................
004073E0 00 00 00 00 00 00 00 00 00 00 00 00 00 00 00 00 ................
004073F0 00 00 00 00 00 00 00 00 00 00 00 00 00 00 00 00 ................
00407400 00 00 00 00 00 00 00 00 00 00 00 00 00 00 00 00 ................
00407410 00 00 00 00 00 00 00 00 00 00 00 00 00 00 00 00 ................
00407420 00 00 00 00 00 00 00 00 00 00 00 00 00 00 00 00 ................
00407430 00 00 00 00 00 00 00 00 00 00 00 00 00 00 00 00 ................
00407440 00 00 00 00 00 00 00 00 00 00 00 00 00 00 00 00 ................
00407450 00 00 00 00 00 00 00 00 00 00 00 00 00 00 00 00 ................
00407460 00 00 00 00 00 00 00 00 00 00 00 00 00 00 00 00 ................
00407470 00 00 00 00 00 00 00 00 00 00 00 00 00 00 00 00 ................
00407480 00 00 00 00 00 00 00 00 00 00 00 00 00 00 00 00 ................
00407490 00 00 00 00 00 00 00 00 00 00 00 00 00 00 00 00 ................
004074A0 00 00 00 00 00 00 00 00 00 00 00 00 00 00 00 00 ................
004074B0 00 00 00 00 00 00 00 00 00 00 00 00 00 00 00 00 ................
004074C0 00 00 00 00 00 00 00 00 00 00 00 00 00 00 00 00 ................
004074D0 00 00 00 00 00 00 00 00 00 00 00 00 00 00 00 00 ................
004074E0 00 00 00 00 00 00 00 00 00 00 00 00 00 00 00 00 ................
004074F0 00 00 00 00 00 00 00 00 00 00 00 00 00 00 00 00 ................
00407500 00 00 00 00 00 00 00 00 00 00 00 00 00 00 00 00 ................
00407510 00 00 00 00 00 00 00 00 00 00 00 00 00 00 00 00 ................
00407520 00 00 00 00 00 00 00 00 00 00 00 00 00 00 00 00 ................
00407530 00 00 00 00 00 00 00 00 00 00 00 00 00 00 00 00 ................
00407540 00 00 00 00 00 00 00 00 00 00 00 00 00 00 00 00 ................
00407550 00 00 00 00 00 00 00 00 00 00 00 00 00 00 00 00 ................
00407560 00 00 00 00 00 00 00 00 00 00 00 00 00 00 00 00 ................
00407570 00 00 00 00 00 00 00 00 00 00 00 00 00 00 00 00 ................
00407580 00 00 00 00 00 00 00 00 00 00 00 00 00 00 00 00 ................
00407590 00 00 00 00 00 00 00 00 00 00 00 00 00 00 00 00 ................
004075A0 00 00 00 00 00 00 00 00 00 00 00 00 00 00 00 00 ................
004075B0 00 00 00 00 00 00 00 00 00 00 00 00 00 00 00 00 ................
004075C0 00 00 00 00 00 00 00 00 00 00 00 00 00 00 00 00 ................
004075D0 00 00 00 00 00 00 00 00 00 00 00 00 00 00 00 00 ................
004075E0 00 00 00 00 00 00 00 00 00 00 00 00 00 00 00 00 ................
004075F0 00 00 00 00 00 00 00 00 00 00 00 00 00 00 00 00 ................
00407600 00 00 00 00 00 00 00 00 00 00 00 00 00 00 00 00 ................
00407610 00 00 00 00 00 00 00 00 00 00 00 00 00 00 00 00 ................
00407620 00 00 00 00 00 00 00 00 00 00 00 00 00 00 00 00 ................
00407630 00 00 00 00 00 00 00 00 00 00 00 00 00 00 00 00 ................
00407640 00 00 00 00 00 00 00 00 00 00 00 00 00 00 00 00 ................
00407650 00 00 00 00 00 00 00 00 00 00 00 00 00 00 00 00 ................
00407660 00 00 00 00 00 00 00 00 00 00 00 00 00 00 00 00 ................
00407670 00 00 00 00 00 00 00 00 00 00 00 00 00 00 00 00 ................
00407680 00 00 00 00 00 00 00 00 00 00 00 00 00 00 00 00 ................
00407690 00 00 00 00 00 00 00 00 00 00 00 00 00 00 00 00 ................
004076A0 00 00 00 00 00 00 00 00 00 00 00 00 00 00 00 00 ................
004076B0 00 00 00 00 00 00 00 00 00 00 00 00 00 00 00 00 ................
004076C0 00 00 00 00 00 00 00 00 00 00 00 00 00 00 00 00 ................
004076D0 00 00 00 00 00 00 00 00 00 00 00 00 00 00 00 00 ................
004076E0 00 00 00 00 00 00 00 00 00 00 00 00 00 00 00 00 ................
004076F0 00 00 00 00 00 00 00 00 00 00 00 00 00 00 00 00 ................
00407700 00 00 00 00 00 00 00 00 00 00 00 00 00 00 00 00 ................
00407710 00 00 00 00 00 00 00 00 00 00 00 00 00 00 00 00 ................
00407720 00 00 00 00 00 00 00 00 00 00 00 00 00 00 00 00 ................
00407730 00 00 00 00 00 00 00 00 00 00 00 00 00 00 00 00 ................
00407740 00 00 00 00 00 00 00 00 00 00 00 00 00 00 00 00 ................
00407750 00 00 00 00 00 00 00 00 00 00 00 00 00 00 00 00 ................
00407760 00 00 00 00 00 00 00 00 00 00 00 00 00 00 00 00 ................
00407770 00 00 00 00 00 00 00 00 00 00 00 00 00 00 00 00 ................
00407780 00 00 00 00 00 00 00 00 00 00 00 00 00 00 00 00 ................
00407790 00 00 00 00 00 00 00 00 00 00 00 00 00 00 00 00 ................
004077A0 00 00 00 00 00 00 00 00 00 00 00 00 00 00 00 00 ................
004077B0 00 00 00 00 00 00 00 00 00 00 00 00 00 00 00 00 ................
004077C0 00 00 00 00 00 00 00 00 00 00 00 00 00 00 00 00 ................
004077D0 00 00 00 00 00 00 00 00 00 00 00 00 00 00 00 00 ................
004077E0 00 00 00 00 00 00 00 00 00 00 00 00 00 00 00 00 ................
004077F0 00 00 00 00 00 00 00 00 00 00 00 00 00 00 00 00 ................
00407800 00 00 00 00 00 00 00 00 00 00 00 00 00 00 00 00 ................
00407810 00 00 00 00 00 00 00 00 00 00 00 00 00 00 00 00 ................
00407820 00 00 00 00 00 00 00 00 00 00 00 00 00 00 00 00 ................
00407830 00 00 00 00 00 00 00 00 00 00 00 00 00 00 00 00 ................
00407840 00 00 00 00 00 00 00 00 00 00 00 00 00 00 00 00 ................
00407850 00 00 00 00 00 00 00 00 00 00 00 00 00 00 00 00 ................
00407860 00 00 00 00 00 00 00 00 00 00 00 00 00 00 00 00 ................
00407870 00 00 00 00 00 00 00 00 00 00 00 00 00 00 00 00 ................
00407880 00 00 00 00 00 00 00 00 00 00 00 00 00 00 00 00 ................
00407890 00 00 00 00 00 00 00 00 00 00 00 00 00 00 00 00 ................
004078A0 00 00 00 00 00 00 00 00 00 00 00 00 00 00 00 00 ................
004078B0 00 00 00 00 00 00 00 00 00 00 00 00 00 00 00 00 ................
004078C0 00 00 00 00 00 00 00 00 00 00 00 00 00 00 00 00 ................
004078D0 00 00 00 00 00 00 00 00 00 00 00 00 00 00 00 00 ................
004078E0 00 00 00 00 00 00 00 00 00 00 00 00 00 00 00 00 ................
004078F0 00 00 00 00 00 00 00 00 00 00 00 00 00 00 00 00 ................
00407900 00 00 00 00 00 00 00 00 00 00 00 00 00 00 00 00 ................
00407910 00 00 00 00 00 00 00 00 00 00 00 00 00 00 00 00 ................
00407920 00 00 00 00 00 00 00 00 00 00 00 00 00 00 00 00 ................
00407930 00 00 00 00 00 00 00 00 00 00 00 00 00 00 00 00 ................
00407940 00 00 00 00 00 00 00 00 00 00 00 00 00 00 00 00 ................
00407950 00 00 00 00 00 00 00 00 00 00 00 00 00 00 00 00 ................
00407960 00 00 00 00 00 00 00 00 00 00 00 00 00 00 00 00 ................
00407970 00 00 00 00 00 00 00 00 00 00 00 00 00 00 00 00 ................
00407980 00 00 00 00 00 00 00 00 00 00 00 00 00 00 00 00 ................
00407990 00 00 00 00 00 00 00 00 00 00 00 00 00 00 00 00 ................
004079A0 00 00 00 00 00 00 00 00 00 00 00 00 00 00 00 00 ................
004079B0 00 00 00 00 00 00 00 00 00 00 00 00 00 00 00 00 ................
004079C0 00 00 00 00 00 00 00 00 00 00 00 00 00 00 00 00 ................
004079D0 00 00 00 00 00 00 00 00 00 00 00 00 00 00 00 00 ................
004079E0 00 00 00 00 00 00 00 00 00 00 00 00 00 00 00 00 ................
004079F0 00 00 00 00 00 00 00 00 00 00 00 00 00 00 00 00 ................
00407A00 00 00 00 00 00 00 00 00 00 00 00 00 00 00 00 00 ................
00407A10 00 00 00 00 00 00 00 00 00 00 00 00 00 00 00 00 ................
00407A20 00 00 00 00 00 00 00 00 00 00 00 00 00 00 00 00 ................
00407A30 00 00 00 00 00 00 00 00 00 00 00 00 00 00 00 00 ................
00407A40 00 00 00 00 00 00 00 00 00 00 00 00 00 00 00 00 ................
00407A50 00 00 00 00 00 00 00 00 00 00 00 00 00 00 00 00 ................
00407A60 00 00 00 00 00 00 00 00 00 00 00 00 00 00 00 00 ................
00407A70 00 00 00 00 00 00 00 00 00 00 00 00 00 00 00 00 ................
00407A80 00 00 00 00 00 00 00 00 00 00 00 00 00 00 00 00 ................
00407A90 00 00 00 00 00 00 00 00 00 00 00 00 00 00 00 00 ................
00407AA0 00 00 00 00 00 00 00 00 00 00 00 00 00 00 00 00 ................
00407AB0 00 00 00 00 00 00 00 00 00 00 00 00 00 00 00 00 ................
00407AC0 00 00 00 00 00 00 00 00 00 00 00 00 00 00 00 00 ................
00407AD0 00 00 00 00 00 00 00 00 00 00 00 00 00 00 00 00 ................
00407AE0 00 00 00 00 00 00 00 00 00 00 00 00 00 00 00 00 ................
00407AF0 00 00 00 00 00 00 00 00 00 00 00 00 00 00 00 00 ................
00407B00 00 00 00 00 00 00 00 00 00 00 00 00 00 00 00 00 ................
00407B10 00 00 00 00 00 00 00 00 00 00 00 00 00 00 00 00 ................
00407B20 00 00 00 00 00 00 00 00 00 00 00 00 00 00 00 00 ................
00407B30 00 00 00 00 00 00 00 00 00 00 00 00 00 00 00 00 ................
00407B40 00 00 00 00 00 00 00 00 00 00 00 00 00 00 00 00 ................
00407B50 00 00 00 00 00 00 00 00 00 00 00 00 00 00 00 00 ................
00407B60 00 00 00 00 00 00 00 00 00 00 00 00 00 00 00 00 ................
00407B70 00 00 00 00 00 00 00 00 00 00 00 00 00 00 00 00 ................
00407B80 00 00 00 00 00 00 00 00 00 00 00 00 00 00 00 00 ................
00407B90 00 00 00 00 00 00 00 00 00 00 00 00 00 00 00 00 ................
00407BA0 00 00 00 00 00 00 00 00 00 00 00 00 00 00 00 00 ................
00407BB0 00 00 00 00 00 00 00 00 00 00 00 00 00 00 00 00 ................
00407BC0 00 00 00 00 00 00 00 00 00 00 00 00 00 00 00 00 ................
00407BD0 00 00 00 00 00 00 00 00 00 00 00 00 00 00 00 00 ................
00407BE0 00 00 00 00 00 00 00 00 00 00 00 00 00 00 00 00 ................
00407BF0 00 00 00 00 00 00 00 00 00 00 00 00 00 00 00 00 ................
00407C00 00 00 00 00 00 00 00 00 00 00 00 00 00 00 00 00 ................
00407C10 00 00 00 00 00 00 00 00 00 00 00 00 00 00 00 00 ................
00407C20 00 00 00 00 00 00 00 00 00 00 00 00 00 00 00 00 ................
00407C30 00 00 00 00 00 00 00 00 00 00 00 00 00 00 00 00 ................
00407C40 00 00 00 00 00 00 00 00 00 00 00 00 00 00 00 00 ................
00407C50 00 00 00 00 00 00 00 00 00 00 00 00 00 00 00 00 ................
00407C60 00 00 00 00 00 00 00 00 00 00 00 00 00 00 00 00 ................
00407C70 00 00 00 00 00 00 00 00 00 00 00 00 00 00 00 00 ................
00407C80 00 00 00 00 00 00 00 00 00 00 00 00 00 00 00 00 ................
00407C90 00 00 00 00 00 00 00 00 00 00 00 00 00 00 00 00 ................
00407CA0 00 00 00 00 00 00 00 00 00 00 00 00 00 00 00 00 ................
00407CB0 00 00 00 00 00 00 00 00 00 00 00 00 00 00 00 00 ................
00407CC0 00 00 00 00 00 00 00 00 00 00 00 00 00 00 00 00 ................
00407CD0 00 00 00 00 00 00 00 00 00 00 00 00 00 00 00 00 ................
00407CE0 00 00 00 00 00 00 00 00 00 00 00 00 00 00 00 00 ................
00407CF0 00 00 00 00 00 00 00 00 00 00 00 00 00 00 00 00 ................
00407D00 00 00 00 00 00 00 00 00 00 00 00 00 00 00 00 00 ................
00407D10 00 00 00 00 00 00 00 00 00 00 00 00 00 00 00 00 ................
00407D20 00 00 00 00 00 00 00 00 00 00 00 00 00 00 00 00 ................
00407D30 00 00 00 00 00 00 00 00 00 00 00 00 00 00 00 00 ................
00407D40 00 00 00 00 00 00 00 00 00 00 00 00 00 00 00 00 ................
00407D50 00 00 00 00 00 00 00 00 00 00 00 00 00 00 00 00 ................
00407D60 00 00 00 00 00 00 00 00 00 00 00 00 00 00 00 00 ................
00407D70 00 00 00 00 00 00 00 00 00 00 00 00 00 00 00 00 ................
00407D80 00 00 00 00 00 00 00 00 00 00 00 00 00 00 00 00 ................
00407D90 00 00 00 00 00 00 00 00 00 00 00 00 00 00 00 00 ................
00407DA0 00 00 00 00 00 00 00 00 00 00 00 00 00 00 00 00 ................
00407DB0 00 00 00 00 00 00 00 00 00 00 00 00 00 00 00 00 ................
00407DC0 00 00 00 00 00 00 00 00 00 00 00 00 00 00 00 00 ................
00407DD0 00 00 00 00 00 00 00 00 00 00 00 00 00 00 00 00 ................
00407DE0 00 00 00 00 00 00 00 00 00 00 00 00 00 00 00 00 ................
00407DF0 00 00 00 00 00 00 00 00 00 00 00 00 00 00 00 00 ................
00407E00 00 00 00 00 00 00 00 00 00 00 00 00 00 00 00 00 ................
00407E10 00 00 00 00 00 00 00 00 00 00 00 00 00 00 00 00 ................
00407E20 00 00 00 00 00 00 00 00 00 00 00 00 00 00 00 00 ................
00407E30 00 00 00 00 00 00 00 00 00 00 00 00 00 00 00 00 ................
00407E40 00 00 00 00 00 00 00 00 00 00 00 00 00 00 00 00 ................
00407E50 00 00 00 00 00 00 00 00 00 00 00 00 00 00 00 00 ................
00407E60 00 00 00 00 00 00 00 00 00 00 00 00 00 00 00 00 ................
00407E70 00 00 00 00 00 00 00 00 00 00 00 00 00 00 00 00 ................
00407E80 00 00 00 00 00 00 00 00 00 00 00 00 00 00 00 00 ................
00407E90 00 00 00 00 00 00 00 00 00 00 00 00 00 00 00 00 ................
00407EA0 00 00 00 00 00 00 00 00 00 00 00 00 00 00 00 00 ................
00407EB0 00 00 00 00 00 00 00 00 00 00 00 00 00 00 00 00 ................
00407EC0 00 00 00 00 00 00 00 00 00 00 00 00 00 00 00 00 ................
00407ED0 00 00 00 00 00 00 00 00 00 00 00 00 00 00 00 00 ................
00407EE0 00 00 00 00 00 00 00 00 00 00 00 00 00 00 00 00 ................
00407EF0 00 00 00 00 00 00 00 00 00 00 00 00 00 00 00 00 ................
00407F00 00 00 00 00 00 00 00 00 00 00 00 00 00 00 00 00 ................
00407F10 00 00 00 00 00 00 00 00 00 00 00 00 00 00 00 00 ................
00407F20 00 00 00 00 00 00 00 00 00 00 00 00 00 00 00 00 ................
00407F30 00 00 00 00 00 00 00 00 00 00 00 00 00 00 00 00 ................
00407F40 00 00 00 00 00 00 00 00 00 00 00 00 00 00 00 00 ................
00407F50 00 00 00 00 00 00 00 00 00 00 00 00 00 00 00 00 ................
00407F60 00 00 00 00 00 00 00 00 00 00 00 00 00 00 00 00 ................
00407F70 00 00 00 00 00 00 00 00 00 00 00 00 00 00 00 00 ................
00407F80 00 00 00 00 00 00 00 00 00 00 00 00 00 00 00 00 ................
00407F90 00 00 00 00 00 00 00 00 00 00 00 00 00 00 00 00 ................
00407FA0 00 00 00 00 00 00 00 00 00 00 00 00 00 00 00 00 ................
00407FB0 00 00 00 00 00 00 00 00 00 00 00 00 00 00 00 00 ................
00407FC0 00 00 00 00 00 00 00 00 00 00 00 00 00 00 00 00 ................
00407FD0 00 00 00 00 00 00 00 00 00 00 00 00 00 00 00 00 ................
00407FE0 00 00 00 00 00 00 00 00 00 00 00 00 00 00 00 00 ................
00407FF0 00 00 00 00 00 00 00 00 00 00 00 00 00 00 00 00 ................
00408000 00 00 00 00 00 00 00 00 00 00 00 00 00 00 00 00 ................
00408010 00 00 00 00 00 00 00 00 00 00 00 00 00 00 00 00 ................
00408020 00 00 00 00 00 00 00 00 00 00 00 00 00 00 00 00 ................
00408030 00 00 00 00 00 00 00 00 00 00 00 00 00 00 00 00 ................
00408040 00 00 00 00 00 00 00 00 00 00 00 00 00 00 00 00 ................
00408050 00 00 00 00 00 00 00 00 00 00 00 00 00 00 00 00 ................
00408060 00 00 00 00 00 00 00 00 00 00 00 00 00 00 00 00 ................
00408070 00 00 00 00 00 00 00 00 00 00 00 00 00 00 00 00 ................
00408080 00 00 00 00 00 00 00 00 00 00 00 00 00 00 00 00 ................
00408090 00 00 00 00 00 00 00 00 00 00 00 00 00 00 00 00 ................
004080A0 00 00 00 00 00 00 00 00 00 00 00 00 00 00 00 00 ................
004080B0 00 00 00 00 00 00 00 00 00 00 00 00 00 00 00 00 ................
004080C0 00 00 00 00 00 00 00 00 00 00 00 00 00 00 00 00 ................
004080D0 00 00 00 00 00 00 00 00 00 00 00 00 00 00 00 00 ................
004080E0 00 00 00 00 00 00 00 00 00 00 00 00 00 00 00 00 ................
004080F0 00 00 00 00 00 00 00 00 00 00 00 00 00 00 00 00 ................
00408100 00 00 00 00 00 00 00 00 00 00 00 00 00 00 00 00 ................
00408110 00 00 00 00 00 00 00 00 00 00 00 00 00 00 00 00 ................
00408120 00 00 00 00 00 00 00 00 00 00 00 00 00 00 00 00 ................
00408130 00 00 00 00 00 00 00 00 00 00 00 00 00 00 00 00 ................
00408140 00 00 00 00 00 00 00 00 00 00 00 00 00 00 00 00 ................
00408150 00 00 00 00 00 00 00 00 00 00 00 00 00 00 00 00 ................
00408160 00 00 00 00 00 00 00 00 00 00 00 00 00 00 00 00 ................
00408170 00 00 00 00 00 00 00 00 00 00 00 00 00 00 00 00 ................
00408180 00 00 00 00 00 00 00 00 00 00 00 00 00 00 00 00 ................
00408190 00 00 00 00 00 00 00 00 00 00 00 00 00 00 00 00 ................
004081A0 00 00 00 00 00 00 00 00 00 00 00 00 00 00 00 00 ................
004081B0 00 00 00 00 00 00 00 00 00 00 00 00 00 00 00 00 ................
004081C0 00 00 00 00 00 00 00 00 00 00 00 00 00 00 00 00 ................
004081D0 00 00 00 00 00 00 00 00 00 00 00 00 00 00 00 00 ................
004081E0 00 00 00 00 00 00 00 00 00 00 00 00 00 00 00 00 ................
004081F0 00 00 00 00 00 00 00 00 00 00 00 00 00 00 00 00 ................
00408200 00 00 00 00 00 00 00 00 00 00 00 00 00 00 00 00 ................
00408210 00 00 00 00 00 00 00 00 00 00 00 00 00 00 00 00 ................
00408220 00 00 00 00 00 00 00 00 00 00 00 00 00 00 00 00 ................
00408230 00 00 00 00 00 00 00 00 00 00 00 00 00 00 00 00 ................
00408240 00 00 00 00 00 00 00 00 00 00 00 00 00 00 00 00 ................
00408250 00 00 00 00 00 00 00 00 00 00 00 00 00 00 00 00 ................
00408260 00 00 00 00 00 00 00 00 00 00 00 00 00 00 00 00 ................
00408270 00 00 00 00 00 00 00 00 00 00 00 00 00 00 00 00 ................
00408280 00 00 00 00 00 00 00 00 00 00 00 00 00 00 00 00 ................
00408290 00 00 00 00 00 00 00 00 00 00 00 00 00 00 00 00 ................
004082A0 00 00 00 00 00 00 00 00 00 00 00 00 00 00 00 00 ................
004082B0 00 00 00 00 00 00 00 00 00 00 00 00 00 00 00 00 ................
004082C0 00 00 00 00 00 00 00 00 00 00 00 00 00 00 00 00 ................
004082D0 00 00 00 00 00 00 00 00 00 00 00 00 00 00 00 00 ................
004082E0 00 00 00 00 00 00 00 00 00 00 00 00 00 00 00 00 ................
004082F0 00 00 00 00 00 00 00 00 00 00 00 00 00 00 00 00 ................
00408300 00 00 00 00 00 00 00 00 00 00 00 00 00 00 00 00 ................
00408310 00 00 00 00 00 00 00 00 00 00 00 00 00 00 00 00 ................
00408320 00 00 00 00 00 00 00 00 00 00 00 00 00 00 00 00 ................
00408330 00 00 00 00 00 00 00 00 00 00 00 00 00 00 00 00 ................
00408340 00 00 00 00 00 00 00 00 00 00 00 00 00 00 00 00 ................
00408350 00 00 00 00 00 00 00 00 00 00 00 00 00 00 00 00 ................
00408360 00 00 00 00 00 00 00 00 00 00 00 00 00 00 00 00 ................
00408370 00 00 00 00 00 00 00 00 00 00 00 00 00 00 00 00 ................
00408380 00 00 00 00 00 00 00 00 00 00 00 00 00 00 00 00 ................
00408390 00 00 00 00 00 00 00 00 00 00 00 00 00 00 00 00 ................
004083A0 00 00 00 00 00 00 00 00 00 00 00 00 00 00 00 00 ................
004083B0 00 00 00 00 00 00 00 00 00 00 00 00 00 00 00 00 ................
004083C0 00 00 00 00 00 00 00 00 00 00 00 00 00 00 00 00 ................
004083D0 00 00 00 00 00 00 00 00 00 00 00 00 00 00 00 00 ................
004083E0 00 00 00 00 00 00 00 00 00 00 00 00 00 00 00 00 ................
004083F0 00 00 00 00 00 00 00 00 00 00 00 00 00 00 00 00 ................
00408400 00 00 00 00 00 00 00 00 00 00 00 00 00 00 00 00 ................
00408410 00 00 00 00 00 00 00 00 00 00 00 00 00 00 00 00 ................
00408420 00 00 00 00 00 00 00 00 00 00 00 00 00 00 00 00 ................
00408430 00 00 00 00 00 00 00 00 00 00 00 00 00 00 00 00 ................
00408440 00 00 00 00 00 00 00 00 00 00 00 00 00 00 00 00 ................
00408450 00 00 00 00 00 00 00 00 00 00 00 00 00 00 00 00 ................
00408460 00 00 00 00 00 00 00 00 00 00 00 00 00 00 00 00 ................
00408470 00 00 00 00 00 00 00 00 00 00 00 00 00 00 00 00 ................
00408480 00 00 00 00 00 00 00 00 00 00 00 00 00 00 00 00 ................
00408490 00 00 00 00 00 00 00 00 00 00 00 00 00 00 00 00 ................
004084A0 00 00 00 00 00 00 00 00 00 00 00 00 00 00 00 00 ................
004084B0 00 00 00 00 00 00 00 00 00 00 00 00 00 00 00 00 ................
004084C0 00 00 00 00 00 00 00 00 00 00 00 00 00 00 00 00 ................
004084D0 00 00 00 00 00 00 00 00 00 00 00 00 00 00 00 00 ................
004084E0 00 00 00 00 00 00 00 00 00 00 00 00 00 00 00 00 ................
004084F0 00 00 00 00 00 00 00 00 00 00 00 00 00 00 00 00 ................
00408500 00 00 00 00 00 00 00 00 00 00 00 00 00 00 00 00 ................
00408510 00 00 00 00 00 00 00 00 00 00 00 00 00 00 00 00 ................
00408520 00 00 00 00 00 00 00 00 00 00 00 00 00 00 00 00 ................
00408530 00 00 00 00 00 00 00 00 00 00 00 00 00 00 00 00 ................
00408540 00 00 00 00 00 00 00 00 00 00 00 00 00 00 00 00 ................
00408550 00 00 00 00 00 00 00 00 00 00 00 00 00 00 00 00 ................
00408560 00 00 00 00 00 00 00 00 00 00 00 00 00 00 00 00 ................
00408570 00 00 00 00 00 00 00 00 00 00 00 00 00 00 00 00 ................
00408580 00 00 00 00 00 00 00 00 00 00 00 00 00 00 00 00 ................
00408590 00 00 00 00 00 00 00 00 00 00 00 00 00 00 00 00 ................
004085A0 00 00 00 00 00 00 00 00 00 00 00 00 00 00 00 00 ................
004085B0 00 00 00 00 00 00 00 00 00 00 00 00 00 00 00 00 ................
004085C0 00 00 00 00 00 00 00 00 00 00 00 00 00 00 00 00 ................
004085D0 00 00 00 00 00 00 00 00 00 00 00 00 00 00 00 00 ................
004085E0 00 00 00 00 00 00 00 00 00 00 00 00 00 00 00 00 ................
004085F0 00 00 00 00 00 00 00 00 00 00 00 00 00 00 00 00 ................
00408600 00 00 00 00 00 00 00 00 00 00 00 00 00 00 00 00 ................
00408610 00 00 00 00 00 00 00 00 00 00 00 00 00 00 00 00 ................
00408620 00 00 00 00 00 00 00 00 00 00 00 00 00 00 00 00 ................
00408630 00 00 00 00 00 00 00 00 00 00 00 00 00 00 00 00 ................
00408640 00 00 00 00 00 00 00 00 00 00 00 00 00 00 00 00 ................
00408650 00 00 00 00 00 00 00 00 00 00 00 00 00 00 00 00 ................
00408660 00 00 00 00 00 00 00 00 00 00 00 00 00 00 00 00 ................
00408670 00 00 00 00 00 00 00 00 00 00 00 00 00 00 00 00 ................
00408680 00 00 00 00 00 00 00 00 00 00 00 00 00 00 00 00 ................
00408690 00 00 00 00 00 00 00 00 00 00 00 00 00 00 00 00 ................
004086A0 00 00 00 00 00 00 00 00 00 00 00 00 00 00 00 00 ................
004086B0 00 00 00 00 00 00 00 00 00 00 00 00 00 00 00 00 ................
004086C0 00 00 00 00 00 00 00 00 00 00 00 00 00 00 00 00 ................
004086D0 00 00 00 00 00 00 00 00 00 00 00 00 00 00 00 00 ................
004086E0 00 00 00 00 00 00 00 00 00 00 00 00 00 00 00 00 ................
004086F0 00 00 00 00 00 00 00 00 00 00 00 00 00 00 00 00 ................
00408700 00 00 00 00 00 00 00 00 00 00 00 00 00 00 00 00 ................
00408710 00 00 00 00 00 00 00 00 00 00 00 00 00 00 00 00 ................
00408720 00 00 00 00 00 00 00 00 00 00 00 00 00 00 00 00 ................
00408730 00 00 00 00 00 00 00 00 00 00 00 00 00 00 00 00 ................
00408740 00 00 00 00 00 00 00 00 00 00 00 00 00 00 00 00 ................
00408750 00 00 00 00 00 00 00 00 00 00 00 00 00 00 00 00 ................
00408760 00 00 00 00 00 00 00 00 00 00 00 00 00 00 00 00 ................
00408770 00 00 00 00 00 00 00 00 00 00 00 00 00 00 00 00 ................
00408780 00 00 00 00 00 00 00 00 00 00 00 00 00 00 00 00 ................
00408790 00 00 00 00 00 00 00 00 00 00 00 00 00 00 00 00 ................
004087A0 00 00 00 00 00 00 00 00 00 00 00 00 00 00 00 00 ................
004087B0 00 00 00 00 00 00 00 00 00 00 00 00 00 00 00 00 ................
004087C0 00 00 00 00 00 00 00 00 00 00 00 00 00 00 00 00 ................
004087D0 00 00 00 00 00 00 00 00 00 00 00 00 00 00 00 00 ................
004087E0 00 00 00 00 00 00 00 00 00 00 00 00 00 00 00 00 ................
004087F0 00 00 00 00 00 00 00 00 00 00 00 00 00 00 00 00 ................
00408800 00 00 00 00 00 00 00 00 00 00 00 00 00 00 00 00 ................
00408810 00 00 00 00 00 00 00 00 00 00 00 00 00 00 00 00 ................
00408820 00 00 00 00 00 00 00 00 00 00 00 00 00 00 00 00 ................
00408830 00 00 00 00 00 00 00 00 00 00 00 00 00 00 00 00 ................
00408840 00 00 00 00 00 00 00 00 00 00 00 00 00 00 00 00 ................
00408850 00 00 00 00 00 00 00 00 00 00 00 00 00 00 00 00 ................
00408860 00 00 00 00 00 00 00 00 00 00 00 00 00 00 00 00 ................
00408870 00 00 00 00 00 00 00 00 00 00 00 00 00 00 00 00 ................
00408880 00 00 00 00 00 00 00 00 00 00 00 00 00 00 00 00 ................
00408890 00 00 00 00 00 00 00 00 00 00 00 00 00 00 00 00 ................
004088A0 00 00 00 00 00 00 00 00 00 00 00 00 00 00 00 00 ................
004088B0 00 00 00 00 00 00 00 00 00 00 00 00 00 00 00 00 ................
004088C0 00 00 00 00 00 00 00 00 00 00 00 00 00 00 00 00 ................
004088D0 00 00 00 00 00 00 00 00 00 00 00 00 00 00 00 00 ................
004088E0 00 00 00 00 00 00 00 00 00 00 00 00 00 00 00 00 ................
004088F0 00 00 00 00 00 00 00 00 00 00 00 00 00 00 00 00 ................
00408900 00 00 00 00 00 00 00 00 00 00 00 00 00 00 00 00 ................
00408910 00 00 00 00 00 00 00 00 00 00 00 00 00 00 00 00 ................
00408920 00 00 00 00 00 00 00 00 00 00 00 00 00 00 00 00 ................
00408930 00 00 00 00 00 00 00 00 00 00 00 00 00 00 00 00 ................
00408940 00 00 00 00 00 00 00 00 00 00 00 00 00 00 00 00 ................
00408950 00 00 00 00 00 00 00 00 00 00 00 00 00 00 00 00 ................
00408960 00 00 00 00 00 00 00 00 00 00 00 00 00 00 00 00 ................
00408970 00 00 00 00 00 00 00 00 00 00 00 00 00 00 00 00 ................
00408980 00 00 00 00 00 00 00 00 00 00 00 00 00 00 00 00 ................
00408990 00 00 00 00 00 00 00 00 00 00 00 00 00 00 00 00 ................
004089A0 00 00 00 00 00 00 00 00 00 00 00 00 00 00 00 00 ................
004089B0 00 00 00 00 00 00 00 00 00 00 00 00 00 00 00 00 ................
004089C0 00 00 00 00 00 00 00 00 00 00 00 00 00 00 00 00 ................
004089D0 00 00 00 00 00 00 00 00 00 00 00 00 00 00 00 00 ................
004089E0 00 00 00 00 00 00 00 00 00 00 00 00 00 00 00 00 ................
004089F0 00 00 00 00 00 00 00 00 00 00 00 00 00 00 00 00 ................
00408A00 00 00 00 00 00 00 00 00 00 00 00 00 00 00 00 00 ................
00408A10 00 00 00 00 00 00 00 00 00 00 00 00 00 00 00 00 ................
00408A20 00 00 00 00 00 00 00 00 00 00 00 00 00 00 00 00 ................
00408A30 00 00 00 00 00 00 00 00 00 00 00 00 00 00 00 00 ................
00408A40 00 00 00 00 00 00 00 00 00 00 00 00 00 00 00 00 ................
00408A50 00 00 00 00 00 00 00 00 00 00 00 00 00 00 00 00 ................
00408A60 00 00 00 00 00 00 00 00 00 00 00 00 00 00 00 00 ................
00408A70 00 00 00 00 00 00 00 00 00 00 00 00 00 00 00 00 ................
00408A80 00 00 00 00 00 00 00 00 00 00 00 00 00 00 00 00 ................
00408A90 00 00 00 00 00 00 00 00 00 00 00 00 00 00 00 00 ................
00408AA0 00 00 00 00 00 00 00 00 00 00 00 00 00 00 00 00 ................
00408AB0 00 00 00 00 00 00 00 00 00 00 00 00 00 00 00 00 ................
00408AC0 00 00 00 00 00 00 00 00 00 00 00 00 00 00 00 00 ................
00408AD0 00 00 00 00 00 00 00 00 00 00 00 00 00 00 00 00 ................
00408AE0 00 00 00 00 00 00 00 00 00 00 00 00 00 00 00 00 ................
00408AF0 00 00 00 00 00 00 00 00 00 00 00 00 00 00 00 00 ................
00408B00 00 00 00 00 00 00 00 00 00 00 00 00 00 00 00 00 ................
00408B10 00 00 00 00 00 00 00 00 00 00 00 00 00 00 00 00 ................
00408B20 00 00 00 00 00 00 00 00 00 00 00 00 00 00 00 00 ................
00408B30 00 00 00 00 00 00 00 00 00 00 00 00 00 00 00 00 ................
00408B40 00 00 00 00 00 00 00 00 00 00 00 00 00 00 00 00 ................
00408B50 00 00 00 00 00 00 00 00 00 00 00 00 00 00 00 00 ................
00408B60 00 00 00 00 00 00 00 00 00 00 00 00 00 00 00 00 ................
00408B70 00 00 00 00 00 00 00 00 00 00 00 00 00 00 00 00 ................
00408B80 00 00 00 00 00 00 00 00 00 00 00 00 00 00 00 00 ................
00408B90 00 00 00 00 00 00 00 00 00 00 00 00 00 00 00 00 ................
00408BA0 00 00 00 00 00 00 00 00 00 00 00 00 00 00 00 00 ................
00408BB0 00 00 00 00 00 00 00 00 00 00 00 00 00 00 00 00 ................
00408BC0 00 00 00 00 00 00 00 00 00 00 00 00 00 00 00 00 ................
00408BD0 00 00 00 00 00 00 00 00 00 00 00 00 00 00 00 00 ................
00408BE0 00 00 00 00 00 00 00 00 00 00 00 00 00 00 00 00 ................
00408BF0 00 00 00 00 00 00 00 00 00 00 00 00 00 00 00 00 ................
00408C00 00 00 00 00 00 00 00 00 00 00 00 00 00 00 00 00 ................
00408C10 00 00 00 00 00 00 00 00 00 00 00 00 00 00 00 00 ................
00408C20 00 00 00 00 00 00 00 00 00 00 00 00 00 00 00 00 ................
00408C30 00 00 00 00 00 00 00 00 00 00 00 00 00 00 00 00 ................
00408C40 00 00 00 00 00 00 00 00 00 00 00 00 00 00 00 00 ................
00408C50 00 00 00 00 00 00 00 00 00 00 00 00 00 00 00 00 ................
00408C60 00 00 00 00 00 00 00 00 00 00 00 00 00 00 00 00 ................
00408C70 00 00 00 00 00 00 00 00 00 00 00 00 00 00 00 00 ................
00408C80 00 00 00 00 00 00 00 00 00 00 00 00 00 00 00 00 ................
00408C90 00 00 00 00 00 00 00 00 00 00 00 00 00 00 00 00 ................
00408CA0 00 00 00 00 00 00 00 00 00 00 00 00 00 00 00 00 ................
00408CB0 00 00 00 00 00 00 00 00 00 00 00 00 00 00 00 00 ................
00408CC0 00 00 00 00 00 00 00 00 00 00 00 00 00 00 00 00 ................
00408CD0 00 00 00 00 00 00 00 00 00 00 00 00 00 00 00 00 ................
00408CE0 00 00 00 00 00 00 00 00 00 00 00 00 00 00 00 00 ................
00408CF0 00 00 00 00 00 00 00 00 00 00 00 00 00 00 00 00 ................
00408D00 00 00 00 00 00 00 00 00 00 00 00 00 00 00 00 00 ................
00408D10 00 00 00 00 00 00 00 00 00 00 00 00 00 00 00 00 ................
00408D20 00 00 00 00 00 00 00 00 00 00 00 00 00 00 00 00 ................
00408D30 00 00 00 00 00 00 00 00 00 00 00 00 00 00 00 00 ................
00408D40 00 00 00 00 00 00 00 00 00 00 00 00 00 00 00 00 ................
00408D50 00 00 00 00 00 00 00 00 00 00 00 00 00 00 00 00 ................
00408D60 00 00 00 00 00 00 00 00 00 00 00 00 00 00 00 00 ................
00408D70 00 00 00 00 00 00 00 00 00 00 00 00 00 00 00 00 ................
00408D80 00 00 00 00 00 00 00 00 00 00 00 00 00 00 00 00 ................
00408D90 00 00 00 00 00 00 00 00 00 00 00 00 00 00 00 00 ................
00408DA0 00 00 00 00 00 00 00 00 00 00 00 00 00 00 00 00 ................
00408DB0 00 00 00 00 00 00 00 00 00 00 00 00 00 00 00 00 ................
00408DC0 00 00 00 00 00 00 00 00 00 00 00 00 00 00 00 00 ................
00408DD0 00 00 00 00 00 00 00 00 00 00 00 00 00 00 00 00 ................
00408DE0 00 00 00 00 00 00 00 00 00 00 00 00 00 00 00 00 ................
00408DF0 00 00 00 00 00 00 00 00 00 00 00 00 00 00 00 00 ................
00408E00 00 00 00 00 00 00 00 00 00 00 00 00 00 00 00 00 ................
00408E10 00 00 00 00 00 00 00 00 00 00 00 00 00 00 00 00 ................
00408E20 00 00 00 00 00 00 00 00 00 00 00 00 00 00 00 00 ................
00408E30 00 00 00 00 00 00 00 00 00 00 00 00 00 00 00 00 ................
00408E40 00 00 00 00 00 00 00 00 00 00 00 00 00 00 00 00 ................
00408E50 00 00 00 00 00 00 00 00 00 00 00 00 00 00 00 00 ................
00408E60 00 00 00 00 00 00 00 00 00 00 00 00 00 00 00 00 ................
00408E70 00 00 00 00 00 00 00 00 00 00 00 00 00 00 00 00 ................
00408E80 00 00 00 00 00 00 00 00 00 00 00 00 00 00 00 00 ................
00408E90 00 00 00 00 00 00 00 00 00 00 00 00 00 00 00 00 ................
00408EA0 00 00 00 00 00 00 00 00 00 00 00 00 00 00 00 00 ................
00408EB0 00 00 00 00 00 00 00 00 00 00 00 00 00 00 00 00 ................
00408EC0 00 00 00 00 00 00 00 00 00 00 00 00 00 00 00 00 ................
00408ED0 00 00 00 00 00 00 00 00 00 00 00 00 00 00 00 00 ................
00408EE0 00 00 00 00 00 00 00 00 00 00 00 00 00 00 00 00 ................
00408EF0 00 00 00 00 00 00 00 00 00 00 00 00 00 00 00 00 ................
00408F00 00 00 00 00 00 00 00 00 00 00 00 00 00 00 00 00 ................
00408F10 00 00 00 00 00 00 00 00 00 00 00 00 00 00 00 00 ................
00408F20 00 00 00 00 00 00 00 00 00 00 00 00 00 00 00 00 ................
00408F30 00 00 00 00 00 00 00 00 00 00 00 00 00 00 00 00 ................
00408F40 00 00 00 00 00 00 00 00 00 00 00 00 00 00 00 00 ................
00408F50 00 00 00 00 00 00 00 00 00 00 00 00 00 00 00 00 ................
00408F60 00 00 00 00 00 00 00 00 00 00 00 00 00 00 00 00 ................
00408F70 00 00 00 00 00 00 00 00 00 00 00 00 00 00 00 00 ................
00408F80 00 00 00 00 00 00 00 00 00 00 00 00 00 00 00 00 ................
00408F90 00 00 00 00 00 00 00 00 00 00 00 00 00 00 00 00 ................
00408FA0 00 00 00 00 00 00 00 00 00 00 00 00 00 00 00 00 ................
00408FB0 00 00 00 00 00 00 00 00 00 00 00 00 00 00 00 00 ................
00408FC0 00 00 00 00 00 00 00 00 00 00 00 00 00 00 00 00 ................
00408FD0 00 00 00 00 00 00 00 00 00 00 00 00 00 00 00 00 ................
00408FE0 00 00 00 00 00 00 00 00 00 00 00 00 00 00 00 00 ................
00408FF0 00 00 00 00 00 00 00 00 00 00 00 00 00 00 00 00 ................
00409000 00 00 00 00 00 00 00 00 00 00 00 00 00 00 00 00 ................
00409010 00 00 00 00 00 00 00 00 00 00 00 00 00 00 00 00 ................
00409020 00 00 00 00 00 00 00 00 00 00 00 00 00 00 00 00 ................
00409030 00 00 00 00 00 00 00 00 00 00 00 00 00 00 00 00 ................
00409040 00 00 00 00 00 00 00 00 00 00 00 00 00 00 00 00 ................
00409050 00 00 00 00 00 00 00 00 00 00 00 00 00 00 00 00 ................
00409060 00 00 00 00 00 00 00 00 00 00 00 00 00 00 00 00 ................
00409070 00 00 00 00 00 00 00 00 00 00 00 00 00 00 00 00 ................
00409080 00 00 00 00 00 00 00 00 00 00 00 00 00 00 00 00 ................
00409090 00 00 00 00 00 00 00 00 00 00 00 00 00 00 00 00 ................
004090A0 00 00 00 00 00 00 00 00 00 00 00 00 00 00 00 00 ................
004090B0 00 00 00 00 00 00 00 00 00 00 00 00 00 00 00 00 ................
004090C0 00 00 00 00 00 00 00 00 00 00 00 00 00 00 00 00 ................
004090D0 00 00 00 00 00 00 00 00 00 00 00 00 00 00 00 00 ................
004090E0 00 00 00 00 00 00 00 00 00 00 00 00 00 00 00 00 ................
004090F0 00 00 00 00 00 00 00 00 00 00 00 00 00 00 00 00 ................
00409100 00 00 00 00 00 00 00 00 00 00 00 00 00 00 00 00 ................
00409110 00 00 00 00 00 00 00 00 00 00 00 00 00 00 00 00 ................
00409120 00 00 00 00 00 00 00 00 00 00 00 00 00 00 00 00 ................
00409130 00 00 00 00 00 00 00 00 00 00 00 00 00 00 00 00 ................
00409140 00 00 00 00 00 00 00 00 00 00 00 00 00 00 00 00 ................
00409150 00 00 00 00 00 00 00 00 00 00 00 00 00 00 00 00 ................
00409160 00 00 00 00 00 00 00 00 00 00 00 00 00 00 00 00 ................
00409170 00 00 00 00 00 00 00 00 00 00 00 00 00 00 00 00 ................
00409180 00 00 00 00 00 00 00 00 00 00 00 00 00 00 00 00 ................
00409190 00 00 00 00 00 00 00 00 00 00 00 00 00 00 00 00 ................
004091A0 00 00 00 00 00 00 00 00 00 00 00 00 00 00 00 00 ................
004091B0 00 00 00 00 00 00 00 00 00 00 00 00 00 00 00 00 ................
004091C0 00 00 00 00 00 00 00 00 00 00 00 00 00 00 00 00 ................
004091D0 00 00 00 00 00 00 00 00 00 00 00 00 00 00 00 00 ................
004091E0 00 00 00 00 00 00 00 00 00 00 00 00 00 00 00 00 ................
004091F0 00 00 00 00 00 00 00 00 00 00 00 00 00 00 00 00 ................
00409200 00 00 00 00 00 00 00 00 00 00 00 00 00 00 00 00 ................
00409210 00 00 00 00 00 00 00 00 00 00 00 00 00 00 00 00 ................
00409220 00 00 00 00 00 00 00 00 00 00 00 00 00 00 00 00 ................
00409230 00 00 00 00 00 00 00 00 00 00 00 00 00 00 00 00 ................
00409240 00 00 00 00 00 00 00 00 00 00 00 00 00 00 00 00 ................
00409250 00 00 00 00 00 00 00 00 00 00 00 00 00 00 00 00 ................
00409260 00 00 00 00 00 00 00 00 00 00 00 00 00 00 00 00 ................
00409270 00 00 00 00 00 00 00 00 00 00 00 00 00 00 00 00 ................
00409280 00 00 00 00 00 00 00 00 00 00 00 00 00 00 00 00 ................
00409290 00 00 00 00 00 00 00 00 00 00 00 00 00 00 00 00 ................
004092A0 00 00 00 00 00 00 00 00 00 00 00 00 00 00 00 00 ................
004092B0 00 00 00 00 00 00 00 00 00 00 00 00 00 00 00 00 ................
004092C0 00 00 00 00 00 00 00 00 00 00 00 00 00 00 00 00 ................
004092D0 00 00 00 00 00 00 00 00 00 00 00 00 00 00 00 00 ................
004092E0 00 00 00 00 00 00 00 00 00 00 00 00 00 00 00 00 ................
004092F0 00 00 00 00 00 00 00 00 00 00 00 00 00 00 00 00 ................
00409300 00 00 00 00 00 00 00 00 00 00 00 00 00 00 00 00 ................
00409310 00 00 00 00 00 00 00 00 00 00 00 00 00 00 00 00 ................
00409320 00 00 00 00 00 00 00 00 00 00 00 00 00 00 00 00 ................
00409330 00 00 00 00 00 00 00 00 00 00 00 00 00 00 00 00 ................
00409340 00 00 00 00 00 00 00 00 00 00 00 00 00 00 00 00 ................
00409350 00 00 00 00 00 00 00 00 00 00 00 00 00 00 00 00 ................
00409360 00 00 00 00 00 00 00 00 00 00 00 00 00 00 00 00 ................
00409370 00 00 00 00 00 00 00 00 00 00 00 00 00 00 00 00 ................
00409380 00 00 00 00 00 00 00 00 00 00 00 00 00 00 00 00 ................
00409390 00 00 00 00 00 00 00 00 00 00 00 00 00 00 00 00 ................
004093A0 00 00 00 00 00 00 00 00 00 00 00 00 00 00 00 00 ................
004093B0 00 00 00 00 00 00 00 00 00 00 00 00 00 00 00 00 ................
004093C0 00 00 00 00 00 00 00 00 00 00 00 00 00 00 00 00 ................
004093D0 00 00 00 00 00 00 00 00 00 00 00 00 00 00 00 00 ................
004093E0 00 00 00 00 00 00 00 00 00 00 00 00 00 00 00 00 ................
004093F0 00 00 00 00 00 00 00 00 00 00 00 00 00 00 00 00 ................
00409400 00 00 00 00 00 00 00 00 00 00 00 00 00 00 00 00 ................
00409410 00 00 00 00 00 00 00 00 00 00 00 00 00 00 00 00 ................
00409420 00 00 00 00 00 00 00 00 00 00 00 00 00 00 00 00 ................
00409430 00 00 00 00 00 00 00 00 00 00 00 00 00 00 00 00 ................
00409440 00 00 00 00 00 00 00 00 00 00 00 00 00 00 00 00 ................
00409450 00 00 00 00 00 00 00 00 00 00 00 00 00 00 00 00 ................
00409460 00 00 00 00 00 00 00 00 00 00 00 00 00 00 00 00 ................
00409470 00 00 00 00 00 00 00 00 00 00 00 00 00 00 00 00 ................
00409480 00 00 00 00 00 00 00 00 00 00 00 00 00 00 00 00 ................
00409490 00 00 00 00 00 00 00 00 00 00 00 00 00 00 00 00 ................
004094A0 00 00 00 00 00 00 00 00 00 00 00 00 00 00 00 00 ................
004094B0 00 00 00 00 00 00 00 00 00 00 00 00 00 00 00 00 ................
004094C0 00 00 00 00 00 00 00 00 00 00 00 00 00 00 00 00 ................
004094D0 00 00 00 00 00 00 00 00 00 00 00 00 00 00 00 00 ................
004094E0 00 00 00 00 00 00 00 00 00 00 00 00 00 00 00 00 ................
004094F0 00 00 00 00 00 00 00 00 00 00 00 00 00 00 00 00 ................
00409500 00 00 00 00 00 00 00 00 00 00 00 00 00 00 00 00 ................
00409510 00 00 00 00 00 00 00 00 00 00 00 00 00 00 00 00 ................
00409520 00 00 00 00 00 00 00 00 00 00 00 00 00 00 00 00 ................
00409530 00 00 00 00 00 00 00 00 00 00 00 00 00 00 00 00 ................
00409540 00 00 00 00 00 00 00 00 00 00 00 00 00 00 00 00 ................
00409550 00 00 00 00 00 00 00 00 00 00 00 00 00 00 00 00 ................
00409560 00 00 00 00 00 00 00 00 00 00 00 00 00 00 00 00 ................
00409570 00 00 00 00 00 00 00 00 00 00 00 00 00 00 00 00 ................
00409580 00 00 00 00 00 00 00 00 00 00 00 00 00 00 00 00 ................
00409590 00 00 00 00 00 00 00 00 00 00 00 00 00 00 00 00 ................
004095A0 00 00 00 00 00 00 00 00 00 00 00 00 00 00 00 00 ................
004095B0 00 00 00 00 00 00 00 00 00 00 00 00 00 00 00 00 ................
004095C0 00 00 00 00 00 00 00 00 00 00 00 00 00 00 00 00 ................
004095D0 00 00 00 00 00 00 00 00 00 00 00 00 00 00 00 00 ................
004095E0 00 00 00 00 00 00 00 00 00 00 00 00 00 00 00 00 ................
004095F0 00 00 00 00 00 00 00 00 00 00 00 00 00 00 00 00 ................
00409600 00 00 00 00 00 00 00 00 00 00 00 00 00 00 00 00 ................
00409610 00 00 00 00 00 00 00 00 00 00 00 00 00 00 00 00 ................
00409620 00 00 00 00 00 00 00 00 00 00 00 00 00 00 00 00 ................
00409630 00 00 00 00 00 00 00 00 00 00 00 00 00 00 00 00 ................
00409640 00 00 00 00 00 00 00 00 00 00 00 00 00 00 00 00 ................
00409650 00 00 00 00 00 00 00 00 00 00 00 00 00 00 00 00 ................
00409660 00 00 00 00 00 00 00 00 00 00 00 00 00 00 00 00 ................
00409670 00 00 00 00 00 00 00 00 00 00 00 00 00 00 00 00 ................
00409680 00 00 00 00 00 00 00 00 00 00 00 00 00 00 00 00 ................
00409690 00 00 00 00 00 00 00 00 00 00 00 00 00 00 00 00 ................
004096A0 00 00 00 00 00 00 00 00 00 00 00 00 00 00 00 00 ................
004096B0 00 00 00 00 00 00 00 00 00 00 00 00 00 00 00 00 ................
004096C0 00 00 00 00 00 00 00 00 00 00 00 00 00 00 00 00 ................
004096D0 00 00 00 00 00 00 00 00 00 00 00 00 00 00 00 00 ................
004096E0 00 00 00 00 00 00 00 00 00 00 00 00 00 00 00 00 ................
004096F0 00 00 00 00 00 00 00 00 00 00 00 00 00 00 00 00 ................
00409700 00 00 00 00 00 00 00 00 00 00 00 00 00 00 00 00 ................
00409710 00 00 00 00 00 00 00 00 00 00 00 00 00 00 00 00 ................
00409720 00 00 00 00 00 00 00 00 00 00 00 00 00 00 00 00 ................
00409730 00 00 00 00 00 00 00 00 00 00 00 00 00 00 00 00 ................
00409740 00 00 00 00 00 00 00 00 00 00 00 00 00 00 00 00 ................
00409750 00 00 00 00 00 00 00 00 00 00 00 00 00 00 00 00 ................
00409760 00 00 00 00 00 00 00 00 00 00 00 00 00 00 00 00 ................
00409770 00 00 00 00 00 00 00 00 00 00 00 00 00 00 00 00 ................
00409780 00 00 00 00 00 00 00 00 00 00 00 00 00 00 00 00 ................
00409790 00 00 00 00 00 00 00 00 00 00 00 00 00 00 00 00 ................
004097A0 00 00 00 00 00 00 00 00 00 00 00 00 00 00 00 00 ................
004097B0 00 00 00 00 00 00 00 00 00 00 00 00 00 00 00 00 ................
004097C0 00 00 00 00 00 00 00 00 00 00 00 00 00 00 00 00 ................
004097D0 00 00 00 00 00 00 00 00 00 00 00 00 00 00 00 00 ................
004097E0 00 00 00 00 00 00 00 00 00 00 00 00 00 00 00 00 ................
004097F0 00 00 00 00 00 00 00 00 00 00 00 00 00 00 00 00 ................
00409800 00 00 00 00 00 00 00 00 00 00 00 00 00 00 00 00 ................
00409810 00 00 00 00 00 00 00 00 00 00 00 00 00 00 00 00 ................
00409820 00 00 00 00 00 00 00 00 00 00 00 00 00 00 00 00 ................
00409830 00 00 00 00 00 00 00 00 00 00 00 00 00 00 00 00 ................
00409840 00 00 00 00 00 00 00 00 00 00 00 00 00 00 00 00 ................
00409850 00 00 00 00 00 00 00 00 00 00 00 00 00 00 00 00 ................
00409860 00 00 00 00 00 00 00 00 00 00 00 00 00 00 00 00 ................
00409870 00 00 00 00 00 00 00 00 00 00 00 00 00 00 00 00 ................
00409880 00 00 00 00 00 00 00 00 00 00 00 00 00 00 00 00 ................
00409890 00 00 00 00 00 00 00 00 00 00 00 00 00 00 00 00 ................
004098A0 00 00 00 00 00 00 00 00 00 00 00 00 00 00 00 00 ................
004098B0 00 00 00 00 00 00 00 00 00 00 00 00 00 00 00 00 ................
004098C0 00 00 00 00 00 00 00 00 00 00 00 00 00 00 00 00 ................
004098D0 00 00 00 00 00 00 00 00 00 00 00 00 00 00 00 00 ................
004098E0 00 00 00 00 00 00 00 00 00 00 00 00 00 00 00 00 ................
004098F0 00 00 00 00 00 00 00 00 00 00 00 00 00 00 00 00 ................
00409900 00 00 00 00 00 00 00 00 00 00 00 00 00 00 00 00 ................
00409910 00 00 00 00 00 00 00 00 00 00 00 00 00 00 00 00 ................
00409920 00 00 00 00 00 00 00 00 00 00 00 00 00 00 00 00 ................
00409930 00 00 00 00 00 00 00 00 00 00 00 00 00 00 00 00 ................
00409940 00 00 00 00 00 00 00 00 00 00 00 00 00 00 00 00 ................
00409950 00 00 00 00 00 00 00 00 00 00 00 00 00 00 00 00 ................
00409960 00 00 00 00 00 00 00 00 00 00 00 00 00 00 00 00 ................
00409970 00 00 00 00 00 00 00 00 00 00 00 00 00 00 00 00 ................
00409980 00 00 00 00 00 00 00 00 00 00 00 00 00 00 00 00 ................
00409990 00 00 00 00 00 00 00 00 00 00 00 00 00 00 00 00 ................
004099A0 00 00 00 00 00 00 00 00 00 00 00 00 00 00 00 00 ................
004099B0 00 00 00 00 00 00 00 00 00 00 00 00 00 00 00 00 ................
004099C0 00 00 00 00 00 00 00 00 00 00 00 00 00 00 00 00 ................
004099D0 00 00 00 00 00 00 00 00 00 00 00 00 00 00 00 00 ................
004099E0 00 00 00 00 00 00 00 00 00 00 00 00 00 00 00 00 ................
004099F0 00 00 00 00 00 00 00 00 00 00 00 00 00 00 00 00 ................
00409A00 00 00 00 00 00 00 00 00 00 00 00 00 00 00 00 00 ................
00409A10 00 00 00 00 00 00 00 00 00 00 00 00 00 00 00 00 ................
00409A20 00 00 00 00 00 00 00 00 00 00 00 00 00 00 00 00 ................
00409A30 00 00 00 00 00 00 00 00 00 00 00 00 00 00 00 00 ................
00409A40 00 00 00 00 00 00 00 00 00 00 00 00 00 00 00 00 ................
00409A50 00 00 00 00 00 00 00 00 00 00 00 00 00 00 00 00 ................
00409A60 00 00 00 00 00 00 00 00 00 00 00 00 00 00 00 00 ................
00409A70 00 00 00 00 00 00 00 00 00 00 00 00 00 00 00 00 ................
00409A80 00 00 00 00 00 00 00 00 00 00 00 00 00 00 00 00 ................
00409A90 00 00 00 00 00 00 00 00 00 00 00 00 00 00 00 00 ................
00409AA0 00 00 00 00 00 00 00 00 00 00 00 00 00 00 00 00 ................
00409AB0 00 00 00 00 00 00 00 00 00 00 00 00 00 00 00 00 ................
00409AC0 00 00 00 00 00 00 00 00 00 00 00 00 00 00 00 00 ................
00409AD0 00 00 00 00 00 00 00 00 00 00 00 00 00 00 00 00 ................
00409AE0 00 00 00 00 00 00 00 00 00 00 00 00 00 00 00 00 ................
00409AF0 00 00 00 00 00 00 00 00 00 00 00 00 00 00 00 00 ................
00409B00 00 00 00 00 00 00 00 00 00 00 00 00 00 00 00 00 ................
00409B10 00 00 00 00 00 00 00 00 00 00 00 00 00 00 00 00 ................
00409B20 00 00 00 00 00 00 00 00 00 00 00 00 00 00 00 00 ................
00409B30 00 00 00 00 00 00 00 00 00 00 00 00 00 00 00 00 ................
00409B40 00 00 00 00 00 00 00 00 00 00 00 00 00 00 00 00 ................
00409B50 00 00 00 00 00 00 00 00 00 00 00 00 00 00 00 00 ................
00409B60 00 00 00 00 00 00 00 00 00 00 00 00 00 00 00 00 ................
00409B70 00 00 00 00 00 00 00 00 00 00 00 00 00 00 00 00 ................
00409B80 00 00 00 00 00 00 00 00 00 00 00 00 00 00 00 00 ................
00409B90 00 00 00 00 00 00 00 00 00 00 00 00 00 00 00 00 ................
00409BA0 00 00 00 00 00 00 00 00 00 00 00 00 00 00 00 00 ................
00409BB0 00 00 00 00 00 00 00 00 00 00 00 00 00 00 00 00 ................
00409BC0 00 00 00 00 00 00 00 00 00 00 00 00 00 00 00 00 ................
00409BD0 00 00 00 00 00 00 00 00 00 00 00 00 00 00 00 00 ................
00409BE0 00 00 00 00 00 00 00 00 00 00 00 00 00 00 00 00 ................
00409BF0 00 00 00 00 00 00 00 00 00 00 00 00 00 00 00 00 ................
00409C00 00 00 00 00 00 00 00 00 00 00 00 00 00 00 00 00 ................
00409C10 00 00 00 00 00 00 00 00 00 00 00 00 00 00 00 00 ................
00409C20 00 00 00 00 00 00 00 00 00 00 00 00 00 00 00 00 ................
00409C30 00 00 00 00 00 00 00 00 00 00 00 00 00 00 00 00 ................
00409C40 00 00 00 00 00 00 00 00 00 00 00 00 00 00 00 00 ................
00409C50 00 00 00 00 00 00 00 00 00 00 00 00 00 00 00 00 ................
00409C60 00 00 00 00 00 00 00 00 00 00 00 00 00 00 00 00 ................
00409C70 00 00 00 00 00 00 00 00 00 00 00 00 00 00 00 00 ................
00409C80 00 00 00 00 00 00 00 00 00 00 00 00 00 00 00 00 ................
00409C90 00 00 00 00 00 00 00 00 00 00 00 00 00 00 00 00 ................
00409CA0 00 00 00 00 00 00 00 00 00 00 00 00 00 00 00 00 ................
00409CB0 00 00 00 00 00 00 00 00 00 00 00 00 00 00 00 00 ................
00409CC0 00 00 00 00 00 00 00 00 00 00 00 00 00 00 00 00 ................
00409CD0 00 00 00 00 00 00 00 00 00 00 00 00 00 00 00 00 ................
00409CE0 00 00 00 00 00 00 00 00 00 00 00 00 00 00 00 00 ................
00409CF0 00 00 00 00 00 00 00 00 00 00 00 00 00 00 00 00 ................
00409D00 00 00 00 00 00 00 00 00 00 00 00 00 00 00 00 00 ................
00409D10 00 00 00 00 00 00 00 00 00 00 00 00 00 00 00 00 ................
00409D20 00 00 00 00 00 00 00 00 00 00 00 00 00 00 00 00 ................
00409D30 00 00 00 00 00 00 00 00 00 00 00 00 00 00 00 00 ................
00409D40 00 00 00 00 00 00 00 00 00 00 00 00 00 00 00 00 ................
00409D50 00 00 00 00 00 00 00 00 00 00 00 00 00 00 00 00 ................
00409D60 00 00 00 00 00 00 00 00 00 00 00 00 00 00 00 00 ................
00409D70 00 00 00 00 00 00 00 00 00 00 00 00 00 00 00 00 ................
00409D80 00 00 00 00 00 00 00 00 00 00 00 00 00 00 00 00 ................
00409D90 00 00 00 00 00 00 00 00 00 00 00 00 00 00 00 00 ................
00409DA0 00 00 00 00 00 00 00 00 00 00 00 00 00 00 00 00 ................
00409DB0 00 00 00 00 00 00 00 00 00 00 00 00 00 00 00 00 ................
00409DC0 00 00 00 00 00 00 00 00 00 00 00 00 00 00 00 00 ................
00409DD0 00 00 00 00 00 00 00 00 00 00 00 00 00 00 00 00 ................
00409DE0 00 00 00 00 00 00 00 00 00 00 00 00 00 00 00 00 ................
00409DF0 00 00 00 00 00 00 00 00 00 00 00 00 00 00 00 00 ................
00409E00 00 00 00 00 00 00 00 00 00 00 00 00 00 00 00 00 ................
00409E10 00 00 00 00 00 00 00 00 00 00 00 00 00 00 00 00 ................
00409E20 00 00 00 00 00 00 00 00 00 00 00 00 00 00 00 00 ................
00409E30 00 00 00 00 00 00 00 00 00 00 00 00 00 00 00 00 ................
00409E40 00 00 00 00 00 00 00 00 00 00 00 00 00 00 00 00 ................
00409E50 00 00 00 00 00 00 00 00 00 00 00 00 00 00 00 00 ................
00409E60 00 00 00 00 00 00 00 00 00 00 00 00 00 00 00 00 ................
00409E70 00 00 00 00 00 00 00 00 00 00 00 00 00 00 00 00 ................
00409E80 00 00 00 00 00 00 00 00 00 00 00 00 00 00 00 00 ................
00409E90 00 00 00 00 00 00 00 00 00 00 00 00 00 00 00 00 ................
00409EA0 00 00 00 00 00 00 00 00 00 00 00 00 00 00 00 00 ................
00409EB0 00 00 00 00 00 00 00 00 00 00 00 00 00 00 00 00 ................
00409EC0 00 00 00 00 00 00 00 00 00 00 00 00 00 00 00 00 ................
00409ED0 00 00 00 00 00 00 00 00 00 00 00 00 00 00 00 00 ................
00409EE0 00 00 00 00 00 00 00 00 00 00 00 00 00 00 00 00 ................
00409EF0 00 00 00 00 00 00 00 00 00 00 00 00 00 00 00 00 ................
00409F00 00 00 00 00 00 00 00 00 00 00 00 00 00 00 00 00 ................
00409F10 00 00 00 00 00 00 00 00 00 00 00 00 00 00 00 00 ................
00409F20 00 00 00 00 00 00 00 00 00 00 00 00 00 00 00 00 ................
00409F30 00 00 00 00 00 00 00 00 00 00 00 00 00 00 00 00 ................
00409F40 00 00 00 00 00 00 00 00 00 00 00 00 00 00 00 00 ................
00409F50 00 00 00 00 00 00 00 00 00 00 00 00 00 00 00 00 ................
00409F60 00 00 00 00 00 00 00 00 00 00 00 00 00 00 00 00 ................
00409F70 00 00 00 00 00 00 00 00 00 00 00 00 00 00 00 00 ................
00409F80 00 00 00 00 00 00 00 00 00 00 00 00 00 00 00 00 ................
00409F90 00 00 00 00 00 00 00 00 00 00 00 00 00 00 00 00 ................
00409FA0 00 00 00 00 00 00 00 00 00 00 00 00 00 00 00 00 ................
00409FB0 00 00 00 00 00 00 00 00 00 00 00 00 00 00 00 00 ................
00409FC0 00 00 00 00 00 00 00 00 00 00 00 00 00 00 00 00 ................
00409FD0 00 00 00 00 00 00 00 00 00 00 00 00 00 00 00 00 ................
00409FE0 00 00 00 00 00 00 00 00 00 00 00 00 00 00 00 00 ................
00409FF0 00 00 00 00 00 00 00 00 00 00 00 00 00 00 00 00 ................
0040A000 00 00 00 00 00 00 00 00 00 00 00 00 00 00 00 00 ................
0040A010 00 00 00 00 00 00 00 00 00 00 00 00 00 00 00 00 ................
0040A020 00 00 00 00 00 00 00 00 00 00 00 00 00 00 00 00 ................
0040A030 00 00 00 00 00 00 00 00 00 00 00 00 00 00 00 00 ................
0040A040 00 00 00 00 00 00 00 00 00 00 00 00 00 00 00 00 ................
0040A050 00 00 00 00 00 00 00 00 00 00 00 00 00 00 00 00 ................
0040A060 00 00 00 00 00 00 00 00 00 00 00 00 00 00 00 00 ................
0040A070 00 00 00 00 00 00 00 00 00 00 00 00 00 00 00 00 ................
0040A080 00 00 00 00 00 00 00 00 00 00 00 00 00 00 00 00 ................
0040A090 00 00 00 00 00 00 00 00 00 00 00 00 00 00 00 00 ................
0040A0A0 00 00 00 00 00 00 00 00 00 00 00 00 00 00 00 00 ................
0040A0B0 00 00 00 00 00 00 00 00 00 00 00 00 00 00 00 00 ................
0040A0C0 00 00 00 00 00 00 00 00 00 00 00 00 00 00 00 00 ................
0040A0D0 00 00 00 00 00 00 00 00 00 00 00 00 00 00 00 00 ................
0040A0E0 00 00 00 00 00 00 00 00 00 00 00 00 00 00 00 00 ................
0040A0F0 00 00 00 00 00 00 00 00 00 00 00 00 00 00 00 00 ................
0040A100 00 00 00 00 00 00 00 00 00 00 00 00 00 00 00 00 ................
0040A110 00 00 00 00 00 00 00 00 00 00 00 00 00 00 00 00 ................
0040A120 00 00 00 00 00 00 00 00 00 00 00 00 00 00 00 00 ................
0040A130 00 00 00 00 00 00 00 00 00 00 00 00 00 00 00 00 ................
0040A140 00 00 00 00 00 00 00 00 00 00 00 00 00 00 00 00 ................
0040A150 00 00 00 00 00 00 00 00 00 00 00 00 00 00 00 00 ................
0040A160 00 00 00 00 00 00 00 00 00 00 00 00 00 00 00 00 ................
0040A170 00 00 00 00 00 00 00 00 00 00 00 00 00 00 00 00 ................
0040A180 00 00 00 00 00 00 00 00 00 00 00 00 00 00 00 00 ................
0040A190 00 00 00 00 00 00 00 00 00 00 00 00 00 00 00 00 ................
0040A1A0 00 00 00 00 00 00 00 00 00 00 00 00 00 00 00 00 ................
0040A1B0 00 00 00 00 00 00 00 00 00 00 00 00 00 00 00 00 ................
0040A1C0 00 00 00 00 00 00 00 00 00 00 00 00 00 00 00 00 ................
0040A1D0 00 00 00 00 00 00 00 00 00 00 00 00 00 00 00 00 ................
0040A1E0 00 00 00 00 00 00 00 00 00 00 00 00 00 00 00 00 ................
0040A1F0 00 00 00 00 00 00 00 00 00 00 00 00 00 00 00 00 ................
0040A200 00 00 00 00 00 00 00 00 00 00 00 00 00 00 00 00 ................
0040A210 00 00 00 00 00 00 00 00 00 00 00 00 00 00 00 00 ................
0040A220 00 00 00 00 00 00 00 00 00 00 00 00 00 00 00 00 ................
0040A230 00 00 00 00 00 00 00 00 00 00 00 00 00 00 00 00 ................
0040A240 00 00 00 00 00 00 00 00 00 00 00 00 00 00 00 00 ................
0040A250 00 00 00 00 00 00 00 00 00 00 00 00 00 00 00 00 ................
0040A260 00 00 00 00 00 00 00 00 00 00 00 00 00 00 00 00 ................
0040A270 00 00 00 00 00 00 00 00 00 00 00 00 00 00 00 00 ................
0040A280 00 00 00 00 00 00 00 00 00 00 00 00 00 00 00 00 ................
0040A290 00 00 00 00 00 00 00 00 00 00 00 00 00 00 00 00 ................
0040A2A0 00 00 00 00 00 00 00 00 00 00 00 00 00 00 00 00 ................
0040A2B0 00 00 00 00 00 00 00 00 00 00 00 00 00 00 00 00 ................
0040A2C0 00 00 00 00 00 00 00 00 00 00 00 00 00 00 00 00 ................
0040A2D0 00 00 00 00 00 00 00 00 00 00 00 00 00 00 00 00 ................
0040A2E0 00 00 00 00 00 00 00 00 00 00 00 00 00 00 00 00 ................
0040A2F0 00 00 00 00 00 00 00 00 00 00 00 00 00 00 00 00 ................
0040A300 00 00 00 00 00 00 00 00 00 00 00 00 00 00 00 00 ................
0040A310 00 00 00 00 00 00 00 00 00 00 00 00 00 00 00 00 ................
0040A320 00 00 00 00 00 00 00 00 00 00 00 00 00 00 00 00 ................
0040A330 00 00 00 00 00 00 00 00 00 00 00 00 00 00 00 00 ................
0040A340 00 00 00 00 00 00 00 00 00 00 00 00 00 00 00 00 ................
0040A350 00 00 00 00 00 00 00 00 00 00 00 00 00 00 00 00 ................
0040A360 00 00 00 00 00 00 00 00 00 00 00 00 00 00 00 00 ................
0040A370 00 00 00 00 00 00 00 00 00 00 00 00 00 00 00 00 ................
0040A380 00 00 00 00 00 00 00 00 00 00 00 00 00 00 00 00 ................
0040A390 00 00 00 00 00 00 00 00 00 00 00 00 00 00 00 00 ................
0040A3A0 00 00 00 00 00 00 00 00 00 00 00 00 00 00 00 00 ................
0040A3B0 00 00 00 00 00 00 00 00 00 00 00 00 00 00 00 00 ................
0040A3C0 00 00 00 00 00 00 00 00 00 00 00 00 00 00 00 00 ................
0040A3D0 00 00 00 00 00 00 00 00 00 00 00 00 00 00 00 00 ................
0040A3E0 00 00 00 00 00 00 00 00 00 00 00 00 00 00 00 00 ................
0040A3F0 00 00 00 00 00 00 00 00 00 00 00 00 00 00 00 00 ................
0040A400 00 00 00 00 00 00 00 00 00 00 00 00 00 00 00 00 ................
0040A410 00 00 00 00 00 00 00 00 00 00 00 00 00 00 00 00 ................
0040A420 00 00 00 00 00 00 00 00 00 00 00 00 00 00 00 00 ................
0040A430 00 00 00 00 00 00 00 00 00 00 00 00 00 00 00 00 ................
0040A440 00 00 00 00 00 00 00 00 00 00 00 00 00 00 00 00 ................
0040A450 00 00 00 00 00 00 00 00 00 00 00 00 00 00 00 00 ................
0040A460 00 00 00 00 00 00 00 00 00 00 00 00 00 00 00 00 ................
0040A470 00 00 00 00 00 00 00 00 00 00 00 00 00 00 00 00 ................
0040A480 00 00 00 00 00 00 00 00 00 00 00 00 00 00 00 00 ................
0040A490 00 00 00 00 00 00 00 00 00 00 00 00 00 00 00 00 ................
0040A4A0 00 00 00 00 00 00 00 00 00 00 00 00 00 00 00 00 ................
0040A4B0 00 00 00 00 00 00 00 00 00 00 00 00 00 00 00 00 ................
0040A4C0 00 00 00 00 00 00 00 00 00 00 00 00 00 00 00 00 ................
0040A4D0 00 00 00 00 00 00 00 00 00 00 00 00 00 00 00 00 ................
0040A4E0 00 00 00 00 00 00 00 00 00 00 00 00 00 00 00 00 ................
0040A4F0 00 00 00 00 00 00 00 00 00 00 00 00 00 00 00 00 ................
0040A500 00 00 00 00 00 00 00 00 00 00 00 00 00 00 00 00 ................
0040A510 00 00 00 00 00 00 00 00 00 00 00 00 00 00 00 00 ................
0040A520 00 00 00 00 00 00 00 00 00 00 00 00 00 00 00 00 ................
0040A530 00 00 00 00 00 00 00 00 00 00 00 00 00 00 00 00 ................
0040A540 00 00 00 00 00 00 00 00 00 00 00 00 00 00 00 00 ................
0040A550 00 00 00 00 00 00 00 00 00 00 00 00 00 00 00 00 ................
0040A560 00 00 00 00 00 00 00 00 00 00 00 00 00 00 00 00 ................
0040A570 00 00 00 00 00 00 00 00 00 00 00 00 00 00 00 00 ................
0040A580 00 00 00 00 00 00 00 00 00 00 00 00 00 00 00 00 ................
0040A590 00 00 00 00 00 00 00 00 00 00 00 00 00 00 00 00 ................
0040A5A0 00 00 00 00 00 00 00 00 00 00 00 00 00 00 00 00 ................
0040A5B0 00 00 00 00 00 00 00 00 00 00 00 00 00 00 00 00 ................
0040A5C0 00 00 00 00 00 00 00 00 00 00 00 00 00 00 00 00 ................
0040A5D0 00 00 00 00 00 00 00 00 00 00 00 00 00 00 00 00 ................
0040A5E0 00 00 00 00 00 00 00 00 00 00 00 00 00 00 00 00 ................
0040A5F0 00 00 00 00 00 00 00 00 00 00 00 00 00 00 00 00 ................
0040A600 00 00 00 00 00 00 00 00 00 00 00 00 00 00 00 00 ................
0040A610 00 00 00 00 00 00 00 00 00 00 00 00 00 00 00 00 ................
0040A620 00 00 00 00 00 00 00 00 00 00 00 00 00 00 00 00 ................
0040A630 00 00 00 00 00 00 00 00 00 00 00 00 00 00 00 00 ................
0040A640 00 00 00 00 00 00 00 00 00 00 00 00 00 00 00 00 ................
0040A650 00 00 00 00 00 00 00 00 00 00 00 00 00 00 00 00 ................
0040A660 00 00 00 00 00 00 00 00 00 00 00 00 00 00 00 00 ................
0040A670 00 00 00 00 00 00 00 00 00 00 00 00 00 00 00 00 ................
0040A680 00 00 00 00 00 00 00 00 00 00 00 00 00 00 00 00 ................
0040A690 00 00 00 00 00 00 00 00 00 00 00 00 00 00 00 00 ................
0040A6A0 00 00 00 00 00 00 00 00 00 00 00 00 00 00 00 00 ................
0040A6B0 00 00 00 00 00 00 00 00 00 00 00 00 00 00 00 00 ................
0040A6C0 00 00 00 00 00 00 00 00 00 00 00 00 00 00 00 00 ................
0040A6D0 00 00 00 00 00 00 00 00 00 00 00 00 00 00 00 00 ................
0040A6E0 00 00 00 00 00 00 00 00 00 00 00 00 00 00 00 00 ................
0040A6F0 00 00 00 00 00 00 00 00 00 00 00 00 00 00 00 00 ................
0040A700 00 00 00 00 00 00 00 00 00 00 00 00 00 00 00 00 ................
0040A710 00 00 00 00 00 00 00 00 00 00 00 00 00 00 00 00 ................
0040A720 00 00 00 00 00 00 00 00 00 00 00 00 00 00 00 00 ................
0040A730 00 00 00 00 00 00 00 00 00 00 00 00 00 00 00 00 ................
0040A740 00 00 00 00 00 00 00 00 00 00 00 00 00 00 00 00 ................
0040A750 00 00 00 00 00 00 00 00 00 00 00 00 00 00 00 00 ................
0040A760 00 00 00 00 00 00 00 00 00 00 00 00 00 00 00 00 ................
0040A770 00 00 00 00 00 00 00 00 00 00 00 00 00 00 00 00 ................
0040A780 00 00 00 00 00 00 00 00 00 00 00 00 00 00 00 00 ................
0040A790 00 00 00 00 00 00 00 00 00 00 00 00 00 00 00 00 ................
0040A7A0 00 00 00 00 00 00 00 00 00 00 00 00 00 00 00 00 ................
0040A7B0 00 00 00 00 00 00 00 00 00 00 00 00 00 00 00 00 ................
0040A7C0 00 00 00 00 00 00 00 00 00 00 00 00 00 00 00 00 ................
0040A7D0 00 00 00 00 00 00 00 00 00 00 00 00 00 00 00 00 ................
0040A7E0 00 00 00 00 00 00 00 00 00 00 00 00 00 00 00 00 ................
0040A7F0 00 00 00 00 00 00 00 00 00 00 00 00 00 00 00 00 ................
0040A800 00 00 00 00 00 00 00 00 00 00 00 00 00 00 00 00 ................
0040A810 00 00 00 00 00 00 00 00 00 00 00 00 00 00 00 00 ................
0040A820 00 00 00 00 00 00 00 00 00 00 00 00 00 00 00 00 ................
0040A830 00 00 00 00 00 00 00 00 00 00 00 00 00 00 00 00 ................
0040A840 00 00 00 00 00 00 00 00 00 00 00 00 00 00 00 00 ................
0040A850 00 00 00 00 00 00 00 00 00 00 00 00 00 00 00 00 ................
0040A860 00 00 00 00 00 00 00 00 00 00 00 00 00 00 00 00 ................
0040A870 00 00 00 00 00 00 00 00 00 00 00 00 00 00 00 00 ................
0040A880 00 00 00 00 00 00 00 00 00 00 00 00 00 00 00 00 ................
0040A890 00 00 00 00 00 00 00 00 00 00 00 00 00 00 00 00 ................
0040A8A0 00 00 00 00 00 00 00 00 00 00 00 00 00 00 00 00 ................
0040A8B0 00 00 00 00 00 00 00 00 00 00 00 00 00 00 00 00 ................
0040A8C0 00 00 00 00 00 00 00 00 00 00 00 00 00 00 00 00 ................
0040A8D0 00 00 00 00 00 00 00 00 00 00 00 00 00 00 00 00 ................
0040A8E0 00 00 00 00 00 00 00 00 00 00 00 00 00 00 00 00 ................
0040A8F0 00 00 00 00 00 00 00 00 00 00 00 00 00 00 00 00 ................
0040A900 00 00 00 00 00 00 00 00 00 00 00 00 00 00 00 00 ................
0040A910 00 00 00 00 00 00 00 00 00 00 00 00 00 00 00 00 ................
0040A920 00 00 00 00 00 00 00 00 00 00 00 00 00 00 00 00 ................
0040A930 00 00 00 00 00 00 00 00 00 00 00 00 00 00 00 00 ................
0040A940 00 00 00 00 00 00 00 00 00 00 00 00 00 00 00 00 ................
0040A950 00 00 00 00 00 00 00 00 00 00 00 00 00 00 00 00 ................
0040A960 00 00 00 00 00 00 00 00 00 00 00 00 00 00 00 00 ................
0040A970 00 00 00 00 00 00 00 00 00 00 00 00 00 00 00 00 ................
0040A980 00 00 00 00 00 00 00 00 00 00 00 00 00 00 00 00 ................
0040A990 00 00 00 00 00 00 00 00 00 00 00 00 00 00 00 00 ................
0040A9A0 00 00 00 00 00 00 00 00 00 00 00 00 00 00 00 00 ................
0040A9B0 00 00 00 00 00 00 00 00 00 00 00 00 00 00 00 00 ................
0040A9C0 00 00 00 00 00 00 00 00 00 00 00 00 00 00 00 00 ................
0040A9D0 00 00 00 00 00 00 00 00 00 00 00 00 00 00 00 00 ................
0040A9E0 00 00 00 00 00 00 00 00 00 00 00 00 00 00 00 00 ................
0040A9F0 00 00 00 00 00 00 00 00 00 00 00 00 00 00 00 00 ................
0040AA00 00 00 00 00 00 00 00 00 00 00 00 00 00 00 00 00 ................
0040AA10 00 00 00 00 00 00 00 00 00 00 00 00 00 00 00 00 ................
0040AA20 00 00 00 00 00 00 00 00 00 00 00 00 00 00 00 00 ................
0040AA30 00 00 00 00 00 00 00 00 00 00 00 00 00 00 00 00 ................
0040AA40 00 00 00 00 00 00 00 00 00 00 00 00 00 00 00 00 ................
0040AA50 00 00 00 00 00 00 00 00 00 00 00 00 00 00 00 00 ................
0040AA60 00 00 00 00 00 00 00 00 00 00 00 00 00 00 00 00 ................
0040AA70 00 00 00 00 00 00 00 00 00 00 00 00 00 00 00 00 ................
0040AA80 00 00 00 00 00 00 00 00 00 00 00 00 00 00 00 00 ................
0040AA90 00 00 00 00 00 00 00 00 00 00 00 00 00 00 00 00 ................
0040AAA0 00 00 00 00 00 00 00 00 00 00 00 00 00 00 00 00 ................
0040AAB0 00 00 00 00 00 00 00 00 00 00 00 00 00 00 00 00 ................
0040AAC0 00 00 00 00 00 00 00 00 00 00 00 00 00 00 00 00 ................
0040AAD0 00 00 00 00 00 00 00 00 00 00 00 00 00 00 00 00 ................
0040AAE0 00 00 00 00 00 00 00 00 00 00 00 00 00 00 00 00 ................
0040AAF0 00 00 00 00 00 00 00 00 00 00 00 00 00 00 00 00 ................
0040AB00 00 00 00 00 00 00 00 00 00 00 00 00 00 00 00 00 ................
0040AB10 00 00 00 00 00 00 00 00 00 00 00 00 00 00 00 00 ................
0040AB20 00 00 00 00 00 00 00 00 00 00 00 00 00 00 00 00 ................
0040AB30 00 00 00 00 00 00 00 00 00 00 00 00 00 00 00 00 ................
0040AB40 00 00 00 00 00 00 00 00 00 00 00 00 00 00 00 00 ................
0040AB50 00 00 00 00 00 00 00 00 00 00 00 00 00 00 00 00 ................
0040AB60 00 00 00 00 00 00 00 00 00 00 00 00 00 00 00 00 ................
0040AB70 00 00 00 00 00 00 00 00 00 00 00 00 00 00 00 00 ................
0040AB80 00 00 00 00 00 00 00 00 00 00 00 00 00 00 00 00 ................
0040AB90 00 00 00 00 00 00 00 00 00 00 00 00 00 00 00 00 ................
0040ABA0 00 00 00 00 00 00 00 00 00 00 00 00 00 00 00 00 ................
0040ABB0 00 00 00 00 00 00 00 00 00 00 00 00 00 00 00 00 ................
0040ABC0 00 00 00 00 00 00 00 00 00 00 00 00 00 00 00 00 ................
0040ABD0 00 00 00 00 00 00 00 00 00 00 00 00 00 00 00 00 ................
0040ABE0 00 00 00 00 00 00 00 00 00 00 00 00 00 00 00 00 ................
0040ABF0 00 00 00 00 00 00 00 00 00 00 00 00 00 00 00 00 ................
0040AC00 00 00 00 00 00 00 00 00 00 00 00 00 00 00 00 00 ................
0040AC10 00 00 00 00 00 00 00 00 00 00 00 00 00 00 00 00 ................
0040AC20 00 00 00 00 00 00 00 00 00 00 00 00 00 00 00 00 ................
0040AC30 00 00 00 00 00 00 00 00 00 00 00 00 00 00 00 00 ................
0040AC40 00 00 00 00 00 00 00 00 00 00 00 00 00 00 00 00 ................
0040AC50 00 00 00 00 00 00 00 00 00 00 00 00 00 00 00 00 ................
0040AC60 00 00 00 00 00 00 00 00 00 00 00 00 00 00 00 00 ................
0040AC70 00 00 00 00 00 00 00 00 00 00 00 00 00 00 00 00 ................
0040AC80 00 00 00 00 00 00 00 00 00 00 00 00 00 00 00 00 ................
0040AC90 00 00 00 00 00 00 00 00 00 00 00 00 00 00 00 00 ................
0040ACA0 00 00 00 00 00 00 00 00 00 00 00 00 00 00 00 00 ................
0040ACB0 00 00 00 00 00 00 00 00 00 00 00 00 00 00 00 00 ................
0040ACC0 00 00 00 00 00 00 00 00 00 00 00 00 00 00 00 00 ................
0040ACD0 00 00 00 00 00 00 00 00 00 00 00 00 00 00 00 00 ................
0040ACE0 00 00 00 00 00 00 00 00 00 00 00 00 00 00 00 00 ................
0040ACF0 00 00 00 00 00 00 00 00 00 00 00 00 00 00 00 00 ................
0040AD00 00 00 00 00 00 00 00 00 00 00 00 00 00 00 00 00 ................
0040AD10 00 00 00 00 00 00 00 00 00 00 00 00 00 00 00 00 ................
0040AD20 00 00 00 00 00 00 00 00 00 00 00 00 00 00 00 00 ................
0040AD30 00 00 00 00 00 00 00 00 00 00 00 00 00 00 00 00 ................
0040AD40 00 00 00 00 00 00 00 00 00 00 00 00 00 00 00 00 ................
0040AD50 00 00 00 00 00 00 00 00 00 00 00 00 00 00 00 00 ................
0040AD60 00 00 00 00 00 00 00 00 00 00 00 00 00 00 00 00 ................
0040AD70 00 00 00 00 00 00 00 00 00 00 00 00 00 00 00 00 ................
0040AD80 00 00 00 00 00 00 00 00 00 00 00 00 00 00 00 00 ................
0040AD90 00 00 00 00 00 00 00 00 00 00 00 00 00 00 00 00 ................
0040ADA0 00 00 00 00 00 00 00 00 00 00 00 00 00 00 00 00 ................
0040ADB0 00 00 00 00 00 00 00 00 00 00 00 00 00 00 00 00 ................
0040ADC0 00 00 00 00 00 00 00 00 00 00 00 00 00 00 00 00 ................
0040ADD0 00 00 00 00 00 00 00 00 00 00 00 00 00 00 00 00 ................
0040ADE0 00 00 00 00 00 00 00 00 00 00 00 00 00 00 00 00 ................
0040ADF0 00 00 00 00 00 00 00 00 00 00 00 00 00 00 00 00 ................
0040AE00 00 00 00 00 00 00 00 00 00 00 00 00 00 00 00 00 ................
0040AE10 00 00 00 00 00 00 00 00 00 00 00 00 00 00 00 00 ................
0040AE20 00 00 00 00 00 00 00 00 00 00 00 00 00 00 00 00 ................
0040AE30 00 00 00 00 00 00 00 00 00 00 00 00 00 00 00 00 ................
0040AE40 00 00 00 00 00 00 00 00 00 00 00 00 00 00 00 00 ................
0040AE50 00 00 00 00 00 00 00 00 00 00 00 00 00 00 00 00 ................
0040AE60 00 00 00 00 00 00 00 00 00 00 00 00 00 00 00 00 ................
0040AE70 00 00 00 00 00 00 00 00 00 00 00 00 00 00 00 00 ................
0040AE80 00 00 00 00 00 00 00 00 00 00 00 00 00 00 00 00 ................
0040AE90 00 00 00 00 00 00 00 00 00 00 00 00 00 00 00 00 ................
0040AEA0 00 00 00 00 00 00 00 00 00 00 00 00 00 00 00 00 ................
0040AEB0 00 00 00 00 00 00 00 00 00 00 00 00 00 00 00 00 ................
0040AEC0 00 00 00 00 00 00 00 00 00 00 00 00 00 00 00 00 ................
0040AED0 00 00 00 00 00 00 00 00 00 00 00 00 00 00 00 00 ................
0040AEE0 00 00 00 00 00 00 00 00 00 00 00 00 00 00 00 00 ................
0040AEF0 00 00 00 00 00 00 00 00 00 00 00 00 00 00 00 00 ................
0040AF00 00 00 00 00 00 00 00 00 00 00 00 00 00 00 00 00 ................
0040AF10 00 00 00 00 00 00 00 00 00 00 00 00 00 00 00 00 ................
0040AF20 00 00 00 00 00 00 00 00 00 00 00 00 00 00 00 00 ................
0040AF30 00 00 00 00 00 00 00 00 00 00 00 00 00 00 00 00 ................
0040AF40 00 00 00 00 00 00 00 00 00 00 00 00 00 00 00 00 ................
0040AF50 00 00 00 00 00 00 00 00 00 00 00 00 00 00 00 00 ................
0040AF60 00 00 00 00 00 00 00 00 00 00 00 00 00 00 00 00 ................
0040AF70 00 00 00 00 00 00 00 00 00 00 00 00 00 00 00 00 ................
0040AF80 00 00 00 00 00 00 00 00 00 00 00 00 00 00 00 00 ................
0040AF90 00 00 00 00 00 00 00 00 00 00 00 00 00 00 00 00 ................
0040AFA0 00 00 00 00 00 00 00 00 00 00 00 00 00 00 00 00 ................
0040AFB0 00 00 00 00 00 00 00 00 00 00 00 00 00 00 00 00 ................
0040AFC0 00 00 00 00 00 00 00 00 00 00 00 00 00 00 00 00 ................
0040AFD0 00 00 00 00 00 00 00 00 00 00 00 00 00 00 00 00 ................
0040AFE0 00 00 00 00 00 00 00 00 00 00 00 00 00 00 00 00 ................
0040AFF0 00 00 00 00 00 00 00 00 00 00 00 00 00 00 00 00 ................
0040B000 00 00 00 00 00 00 00 00 00 00 00 00 00 00 00 00 ................
0040B010 00 00 00 00 00 00 00 00 00 00 00 00 00 00 00 00 ................
0040B020 00 00 00 00 00 00 00 00 00 00 00 00 00 00 00 00 ................
0040B030 00 00 00 00 00 00 00 00 00 00 00 00 00 00 00 00 ................
0040B040 00 00 00 00 00 00 00 00 00 00 00 00 00 00 00 00 ................
0040B050 00 00 00 00 00 00 00 00 00 00 00 00 00 00 00 00 ................
0040B060 00 00 00 00 00 00 00 00 00 00 00 00 00 00 00 00 ................
0040B070 00 00 00 00 00 00 00 00 00 00 00 00 00 00 00 00 ................
0040B080 00 00 00 00 00 00 00 00 00 00 00 00 00 00 00 00 ................
0040B090 00 00 00 00 00 00 00 00 00 00 00 00 00 00 00 00 ................
0040B0A0 00 00 00 00 00 00 00 00 00 00 00 00 00 00 00 00 ................
0040B0B0 00 00 00 00 00 00 00 00 00 00 00 00 00 00 00 00 ................
0040B0C0 00 00 00 00 00 00 00 00 00 00 00 00 00 00 00 00 ................
0040B0D0 00 00 00 00 00 00 00 00 00 00 00 00 00 00 00 00 ................
0040B0E0 00 00 00 00 00 00 00 00 00 00 00 00 00 00 00 00 ................
0040B0F0 00 00 00 00 00 00 00 00 00 00 00 00 00 00 00 00 ................
0040B100 00 00 00 00 00 00 00 00 00 00 00 00 00 00 00 00 ................
0040B110 00 00 00 00 00 00 00 00 00 00 00 00 00 00 00 00 ................
0040B120 00 00 00 00 00 00 00 00 00 00 00 00 00 00 00 00 ................
0040B130 00 00 00 00 00 00 00 00 00 00 00 00 00 00 00 00 ................
0040B140 00 00 00 00 00 00 00 00 00 00 00 00 00 00 00 00 ................
0040B150 00 00 00 00 00 00 00 00 00 00 00 00 00 00 00 00 ................
0040B160 00 00 00 00 00 00 00 00 00 00 00 00 00 00 00 00 ................
0040B170 00 00 00 00 00 00 00 00 00 00 00 00 00 00 00 00 ................
0040B180 00 00 00 00 00 00 00 00 00 00 00 00 00 00 00 00 ................
0040B190 00 00 00 00 00 00 00 00 00 00 00 00 00 00 00 00 ................
0040B1A0 00 00 00 00 00 00 00 00 00 00 00 00 00 00 00 00 ................
0040B1B0 00 00 00 00 00 00 00 00 00 00 00 00 00 00 00 00 ................
0040B1C0 00 00 00 00 00 00 00 00 00 00 00 00 00 00 00 00 ................
0040B1D0 00 00 00 00 00 00 00 00 00 00 00 00 00 00 00 00 ................
0040B1E0 00 00 00 00 00 00 00 00 00 00 00 00 00 00 00 00 ................
0040B1F0 00 00 00 00 00 00 00 00 00 00 00 00 00 00 00 00 ................
0040B200 00 00 00 00 00 00 00 00 00 00 00 00 00 00 00 00 ................
0040B210 00 00 00 00 00 00 00 00 00 00 00 00 00 00 00 00 ................
0040B220 00 00 00 00 00 00 00 00 00 00 00 00 00 00 00 00 ................
0040B230 00 00 00 00 00 00 00 00 00 00 00 00 00 00 00 00 ................
0040B240 00 00 00 00 00 00 00 00 00 00 00 00 00 00 00 00 ................
0040B250 00 00 00 00 00 00 00 00 00 00 00 00 00 00 00 00 ................
0040B260 00 00 00 00 00 00 00 00 00 00 00 00 00 00 00 00 ................
0040B270 00 00 00 00 00 00 00 00 00 00 00 00 00 00 00 00 ................
0040B280 00 00 00 00 00 00 00 00 00 00 00 00 00 00 00 00 ................
0040B290 00 00 00 00 00 00 00 00 00 00 00 00 00 00 00 00 ................
0040B2A0 00 00 00 00 00 00 00 00 00 00 00 00 00 00 00 00 ................
0040B2B0 00 00 00 00 00 00 00 00 00 00 00 00 00 00 00 00 ................
0040B2C0 00 00 00 00 00 00 00 00 00 00 00 00 00 00 00 00 ................
0040B2D0 00 00 00 00 00 00 00 00 00 00 00 00 00 00 00 00 ................
0040B2E0 00 00 00 00 00 00 00 00 00 00 00 00 00 00 00 00 ................
0040B2F0 00 00 00 00 00 00 00 00 00 00 00 00 00 00 00 00 ................
0040B300 00 00 00 00 00 00 00 00 00 00 00 00 00 00 00 00 ................
0040B310 00 00 00 00 00 00 00 00 00 00 00 00 00 00 00 00 ................
0040B320 00 00 00 00 00 00 00 00 00 00 00 00 00 00 00 00 ................
0040B330 00 00 00 00 00 00 00 00 00 00 00 00 00 00 00 00 ................
0040B340 00 00 00 00 00 00 00 00 00 00 00 00 00 00 00 00 ................
0040B350 00 00 00 00 00 00 00 00 00 00 00 00 00 00 00 00 ................
0040B360 00 00 00 00 00 00 00 00 00 00 00 00 00 00 00 00 ................
0040B370 00 00 00 00 00 00 00 00 00 00 00 00 00 00 00 00 ................
0040B380 00 00 00 00 00 00 00 00 00 00 00 00 00 00 00 00 ................
0040B390 00 00 00 00 00 00 00 00 00 00 00 00 00 00 00 00 ................
0040B3A0 00 00 00 00 00 00 00 00 00 00 00 00 00 00 00 00 ................
0040B3B0 00 00 00 00 00 00 00 00 00 00 00 00 00 00 00 00 ................
0040B3C0 00 00 00 00 00 00 00 00 00 00 00 00 00 00 00 00 ................
0040B3D0 00 00 00 00 00 00 00 00 00 00 00 00 00 00 00 00 ................
0040B3E0 00 00 00 00 00 00 00 00 00 00 00 00 00 00 00 00 ................
0040B3F0 00 00 00 00 00 00 00 00 00 00 00 00 00 00 00 00 ................
0040B400 00 00 00 00 00 00 00 00 00 00 00 00 00 00 00 00 ................
0040B410 00 00 00 00 00 00 00 00 00 00 00 00 00 00 00 00 ................
0040B420 00 00 00 00 00 00 00 00 00 00 00 00 00 00 00 00 ................
0040B430 00 00 00 00 00 00 00 00 00 00 00 00 00 00 00 00 ................
0040B440 00 00 00 00 00 00 00 00 00 00 00 00 00 00 00 00 ................
0040B450 00 00 00 00 00 00 00 00 00 00 00 00 00 00 00 00 ................
0040B460 00 00 00 00 00 00 00 00 00 00 00 00 00 00 00 00 ................
0040B470 00 00 00 00 00 00 00 00 00 00 00 00 00 00 00 00 ................
0040B480 00 00 00 00 00 00 00 00 00 00 00 00 00 00 00 00 ................
0040B490 00 00 00 00 00 00 00 00 00 00 00 00 00 00 00 00 ................
0040B4A0 00 00 00 00 00 00 00 00 00 00 00 00 00 00 00 00 ................
0040B4B0 00 00 00 00 00 00 00 00 00 00 00 00 00 00 00 00 ................
0040B4C0 00 00 00 00 00 00 00 00 00 00 00 00 00 00 00 00 ................
0040B4D0 00 00 00 00 00 00 00 00 00 00 00 00 00 00 00 00 ................
0040B4E0 00 00 00 00 00 00 00 00 00 00 00 00 00 00 00 00 ................
0040B4F0 00 00 00 00 00 00 00 00 00 00 00 00 00 00 00 00 ................
0040B500 00 00 00 00 00 00 00 00 00 00 00 00 00 00 00 00 ................
0040B510 00 00 00 00 00 00 00 00 00 00 00 00 00 00 00 00 ................
0040B520 00 00 00 00 00 00 00 00 00 00 00 00 00 00 00 00 ................
0040B530 00 00 00 00 00 00 00 00 00 00 00 00 00 00 00 00 ................
0040B540 00 00 00 00 00 00 00 00 00 00 00 00 00 00 00 00 ................
0040B550 00 00 00 00 00 00 00 00 00 00 00 00 00 00 00 00 ................
0040B560 00 00 00 00 00 00 00 00 00 00 00 00 00 00 00 00 ................
0040B570 00 00 00 00 00 00 00 00 00 00 00 00 00 00 00 00 ................
0040B580 00 00 00 00 00 00 00 00 00 00 00 00 00 00 00 00 ................
0040B590 00 00 00 00 00 00 00 00 00 00 00 00 00 00 00 00 ................
0040B5A0 00 00 00 00 00 00 00 00 00 00 00 00 00 00 00 00 ................
0040B5B0 00 00 00 00 00 00 00 00 00 00 00 00 00 00 00 00 ................
0040B5C0 00 00 00 00 00 00 00 00 00 00 00 00 00 00 00 00 ................
0040B5D0 00 00 00 00 00 00 00 00 00 00 00 00 00 00 00 00 ................
0040B5E0 00 00 00 00 00 00 00 00 00 00 00 00 00 00 00 00 ................
0040B5F0 00 00 00 00 00 00 00 00 00 00 00 00 00 00 00 00 ................
0040B600 00 00 00 00 00 00 00 00 00 00 00 00 00 00 00 00 ................
0040B610 00 00 00 00 00 00 00 00 00 00 00 00 00 00 00 00 ................
0040B620 00 00 00 00 00 00 00 00 00 00 00 00 00 00 00 00 ................
0040B630 00 00 00 00 00 00 00 00 00 00 00 00 00 00 00 00 ................
0040B640 00 00 00 00 00 00 00 00 00 00 00 00 00 00 00 00 ................
0040B650 00 00 00 00 00 00 00 00 00 00 00 00 00 00 00 00 ................
0040B660 00 00 00 00 00 00 00 00 00 00 00 00 00 00 00 00 ................
0040B670 00 00 00 00 00 00 00 00 00 00 00 00 00 00 00 00 ................
0040B680 00 00 00 00 00 00 00 00 00 00 00 00 00 00 00 00 ................
0040B690 00 00 00 00 00 00 00 00 00 00 00 00 00 00 00 00 ................
0040B6A0 00 00 00 00 00 00 00 00 00 00 00 00 00 00 00 00 ................
0040B6B0 00 00 00 00 00 00 00 00 00 00 00 00 00 00 00 00 ................
0040B6C0 00 00 00 00 00 00 00 00 00 00 00 00 00 00 00 00 ................
0040B6D0 00 00 00 00 00 00 00 00 00 00 00 00 00 00 00 00 ................
0040B6E0 00 00 00 00 00 00 00 00 00 00 00 00 00 00 00 00 ................
0040B6F0 00 00 00 00 00 00 00 00 00 00 00 00 00 00 00 00 ................
0040B700 00 00 00 00 00 00 00 00 00 00 00 00 00 00 00 00 ................
0040B710 00 00 00 00 00 00 00 00 00 00 00 00 00 00 00 00 ................
0040B720 00 00 00 00 00 00 00 00 00 00 00 00 00 00 00 00 ................
0040B730 00 00 00 00 00 00 00 00 00 00 00 00 00 00 00 00 ................
0040B740 00 00 00 00 00 00 00 00 00 00 00 00 00 00 00 00 ................
0040B750 00 00 00 00 00 00 00 00 00 00 00 00 00 00 00 00 ................
0040B760 00 00 00 00 00 00 00 00 00 00 00 00 00 00 00 00 ................
0040B770 00 00 00 00 00 00 00 00 00 00 00 00 00 00 00 00 ................
0040B780 00 00 00 00 00 00 00 00 00 00 00 00 00 00 00 00 ................
0040B790 00 00 00 00 00 00 00 00 00 00 00 00 00 00 00 00 ................
0040B7A0 00 00 00 00 00 00 00 00 00 00 00 00 00 00 00 00 ................
0040B7B0 00 00 00 00 00 00 00 00 00 00 00 00 00 00 00 00 ................
0040B7C0 00 00 00 00 00 00 00 00 00 00 00 00 00 00 00 00 ................
0040B7D0 00 00 00 00 00 00 00 00 00 00 00 00 00 00 00 00 ................
0040B7E0 00 00 00 00 00 00 00 00 00 00 00 00 00 00 00 00 ................
0040B7F0 00 00 00 00 00 00 00 00 00 00 00 00 00 00 00 00 ................
0040B800 00 00 00 00 00 00 00 00 00 00 00 00 00 00 00 00 ................
0040B810 00 00 00 00 00 00 00 00 00 00 00 00 00 00 00 00 ................
0040B820 00 00 00 00 00 00 00 00 00 00 00 00 00 00 00 00 ................
0040B830 00 00 00 00 00 00 00 00 00 00 00 00 00 00 00 00 ................
0040B840 00 00 00 00 00 00 00 00 00 00 00 00 00 00 00 00 ................
0040B850 00 00 00 00 00 00 00 00 00 00 00 00 00 00 00 00 ................
0040B860 00 00 00 00 00 00 00 00 00 00 00 00 00 00 00 00 ................
0040B870 00 00 00 00 00 00 00 00 00 00 00 00 00 00 00 00 ................
0040B880 00 00 00 00 00 00 00 00 00 00 00 00 00 00 00 00 ................
0040B890 00 00 00 00 00 00 00 00 00 00 00 00 00 00 00 00 ................
0040B8A0 00 00 00 00 00 00 00 00 00 00 00 00 00 00 00 00 ................
0040B8B0 00 00 00 00 00 00 00 00 00 00 00 00 00 00 00 00 ................
0040B8C0 00 00 00 00 00 00 00 00 00 00 00 00 00 00 00 00 ................
0040B8D0 00 00 00 00 00 00 00 00 00 00 00 00 00 00 00 00 ................
0040B8E0 00 00 00 00 00 00 00 00 00 00 00 00 00 00 00 00 ................
0040B8F0 00 00 00 00 00 00 00 00 00 00 00 00 00 00 00 00 ................
0040B900 00 00 00 00 00 00 00 00 00 00 00 00 00 00 00 00 ................
0040B910 00 00 00 00 00 00 00 00 00 00 00 00 00 00 00 00 ................
0040B920 00 00 00 00 00 00 00 00 00 00 00 00 00 00 00 00 ................
0040B930 00 00 00 00 00 00 00 00 00 00 00 00 00 00 00 00 ................
0040B940 00 00 00 00 00 00 00 00 00 00 00 00 00 00 00 00 ................
0040B950 00 00 00 00 00 00 00 00 00 00 00 00 00 00 00 00 ................
0040B960 00 00 00 00 00 00 00 00 00 00 00 00 00 00 00 00 ................
0040B970 00 00 00 00 00 00 00 00 00 00 00 00 00 00 00 00 ................
0040B980 00 00 00 00 00 00 00 00 00 00 00 00 00 00 00 00 ................
0040B990 00 00 00 00 00 00 00 00 00 00 00 00 00 00 00 00 ................
0040B9A0 00 00 00 00 00 00 00 00 00 00 00 00 00 00 00 00 ................
0040B9B0 00 00 00 00 00 00 00 00 00 00 00 00 00 00 00 00 ................
0040B9C0 00 00 00 00 00 00 00 00 00 00 00 00 00 00 00 00 ................
0040B9D0 00 00 00 00 00 00 00 00 00 00 00 00 00 00 00 00 ................
0040B9E0 00 00 00 00 00 00 00 00 00 00 00 00 00 00 00 00 ................
0040B9F0 00 00 00 00 00 00 00 00 00 00 00 00 00 00 00 00 ................
0040BA00 00 00 00 00 00 00 00 00 00 00 00 00 00 00 00 00 ................
0040BA10 00 00 00 00 00 00 00 00 00 00 00 00 00 00 00 00 ................
0040BA20 00 00 00 00 00 00 00 00 00 00 00 00 00 00 00 00 ................
0040BA30 00 00 00 00 00 00 00 00 00 00 00 00 00 00 00 00 ................
0040BA40 00 00 00 00 00 00 00 00 00 00 00 00 00 00 00 00 ................
0040BA50 00 00 00 00 00 00 00 00 00 00 00 00 00 00 00 00 ................
0040BA60 00 00 00 00 00 00 00 00 00 00 00 00 00 00 00 00 ................
0040BA70 00 00 00 00 00 00 00 00 00 00 00 00 00 00 00 00 ................
0040BA80 00 00 00 00 00 00 00 00 00 00 00 00 00 00 00 00 ................
0040BA90 00 00 00 00 00 00 00 00 00 00 00 00 00 00 00 00 ................
0040BAA0 00 00 00 00 00 00 00 00 00 00 00 00 00 00 00 00 ................
0040BAB0 00 00 00 00 00 00 00 00 00 00 00 00 00 00 00 00 ................
0040BAC0 00 00 00 00 00 00 00 00 00 00 00 00 00 00 00 00 ................
0040BAD0 00 00 00 00 00 00 00 00 00 00 00 00 00 00 00 00 ................
0040BAE0 00 00 00 00 00 00 00 00 00 00 00 00 00 00 00 00 ................
0040BAF0 00 00 00 00 00 00 00 00 00 00 00 00 00 00 00 00 ................
0040BB00 00 00 00 00 00 00 00 00 00 00 00 00 00 00 00 00 ................
0040BB10 00 00 00 00 00 00 00 00 00 00 00 00 00 00 00 00 ................
0040BB20 00 00 00 00 00 00 00 00 00 00 00 00 00 00 00 00 ................
0040BB30 00 00 00 00 00 00 00 00 00 00 00 00 00 00 00 00 ................
0040BB40 00 00 00 00 00 00 00 00 00 00 00 00 00 00 00 00 ................
0040BB50 00 00 00 00 00 00 00 00 00 00 00 00 00 00 00 00 ................
0040BB60 00 00 00 00 00 00 00 00 00 00 00 00 00 00 00 00 ................
0040BB70 00 00 00 00 00 00 00 00 00 00 00 00 00 00 00 00 ................
0040BB80 00 00 00 00 00 00 00 00 00 00 00 00 00 00 00 00 ................
0040BB90 00 00 00 00 00 00 00 00 00 00 00 00 00 00 00 00 ................
0040BBA0 00 00 00 00 00 00 00 00 00 00 00 00 00 00 00 00 ................
0040BBB0 00 00 00 00 00 00 00 00 00 00 00 00 00 00 00 00 ................
0040BBC0 00 00 00 00 00 00 00 00 00 00 00 00 00 00 00 00 ................
0040BBD0 00 00 00 00 00 00 00 00 00 00 00 00 00 00 00 00 ................
0040BBE0 00 00 00 00 00 00 00 00 00 00 00 00 00 00 00 00 ................
0040BBF0 00 00 00 00 00 00 00 00 00 00 00 00 00 00 00 00 ................
0040BC00 00 00 00 00 00 00 00 00 00 00 00 00 00 00 00 00 ................
0040BC10 00 00 00 00 00 00 00 00 00 00 00 00 00 00 00 00 ................
0040BC20 00 00 00 00 00 00 00 00 00 00 00 00 00 00 00 00 ................
0040BC30 00 00 00 00 00 00 00 00 00 00 00 00 00 00 00 00 ................
0040BC40 00 00 00 00 00 00 00 00 00 00 00 00 00 00 00 00 ................
0040BC50 00 00 00 00 00 00 00 00 00 00 00 00 00 00 00 00 ................
0040BC60 00 00 00 00 00 00 00 00 00 00 00 00 00 00 00 00 ................
0040BC70 00 00 00 00 00 00 00 00 00 00 00 00 00 00 00 00 ................
0040BC80 00 00 00 00 00 00 00 00 00 00 00 00 00 00 00 00 ................
0040BC90 00 00 00 00 00 00 00 00 00 00 00 00 00 00 00 00 ................
0040BCA0 00 00 00 00 00 00 00 00 00 00 00 00 00 00 00 00 ................
0040BCB0 00 00 00 00 00 00 00 00 00 00 00 00 00 00 00 00 ................
0040BCC0 00 00 00 00 00 00 00 00 00 00 00 00 00 00 00 00 ................
0040BCD0 00 00 00 00 00 00 00 00 00 00 00 00 00 00 00 00 ................
0040BCE0 00 00 00 00 00 00 00 00 00 00 00 00 00 00 00 00 ................
0040BCF0 00 00 00 00 00 00 00 00 00 00 00 00 00 00 00 00 ................
0040BD00 00 00 00 00 00 00 00 00 00 00 00 00 00 00 00 00 ................
0040BD10 00 00 00 00 00 00 00 00 00 00 00 00 00 00 00 00 ................
0040BD20 00 00 00 00 00 00 00 00 00 00 00 00 00 00 00 00 ................
0040BD30 00 00 00 00 00 00 00 00 00 00 00 00 00 00 00 00 ................
0040BD40 00 00 00 00 00 00 00 00 00 00 00 00 00 00 00 00 ................
0040BD50 00 00 00 00 00 00 00 00 00 00 00 00 00 00 00 00 ................
0040BD60 00 00 00 00 00 00 00 00 00 00 00 00 00 00 00 00 ................
0040BD70 00 00 00 00 00 00 00 00 00 00 00 00 00 00 00 00 ................
0040BD80 00 00 00 00 00 00 00 00 00 00 00 00 00 00 00 00 ................
0040BD90 00 00 00 00 00 00 00 00 00 00 00 00 00 00 00 00 ................
0040BDA0 00 00 00 00 00 00 00 00 00 00 00 00 00 00 00 00 ................
0040BDB0 00 00 00 00 00 00 00 00 00 00 00 00 00 00 00 00 ................
0040BDC0 00 00 00 00 00 00 00 00 00 00 00 00 00 00 00 00 ................
0040BDD0 00 00 00 00 00 00 00 00 00 00 00 00 00 00 00 00 ................
0040BDE0 00 00 00 00 00 00 00 00 00 00 00 00 00 00 00 00 ................
0040BDF0 00 00 00 00 00 00 00 00 00 00 00 00 00 00 00 00 ................
0040BE00 00 00 00 00 00 00 00 00 00 00 00 00 00 00 00 00 ................
0040BE10 00 00 00 00 00 00 00 00 00 00 00 00 00 00 00 00 ................
0040BE20 00 00 00 00 00 00 00 00 00 00 00 00 00 00 00 00 ................
0040BE30 00 00 00 00 00 00 00 00 00 00 00 00 00 00 00 00 ................
0040BE40 00 00 00 00 00 00 00 00 00 00 00 00 00 00 00 00 ................
0040BE50 00 00 00 00 00 00 00 00 00 00 00 00 00 00 00 00 ................
0040BE60 00 00 00 00 00 00 00 00 00 00 00 00 00 00 00 00 ................
0040BE70 00 00 00 00 00 00 00 00 00 00 00 00 00 00 00 00 ................
0040BE80 00 00 00 00 00 00 00 00 00 00 00 00 00 00 00 00 ................
0040BE90 00 00 00 00 00 00 00 00 00 00 00 00 00 00 00 00 ................
0040BEA0 00 00 00 00 00 00 00 00 00 00 00 00 00 00 00 00 ................
0040BEB0 00 00 00 00 00 00 00 00 00 00 00 00 00 00 00 00 ................
0040BEC0 00 00 00 00 00 00 00 00 00 00 00 00 00 00 00 00 ................
0040BED0 00 00 00 00 00 00 00 00 00 00 00 00 00 00 00 00 ................
0040BEE0 00 00 00 00 00 00 00 00 00 00 00 00 00 00 00 00 ................
0040BEF0 00 00 00 00 00 00 00 00 00 00 00 00 00 00 00 00 ................
0040BF00 00 00 00 00 00 00 00 00 00 00 00 00 00 00 00 00 ................
0040BF10 00 00 00 00 00 00 00 00 00 00 00 00 00 00 00 00 ................
0040BF20 00 00 00 00 00 00 00 00 00 00 00 00 00 00 00 00 ................
0040BF30 00 00 00 00 00 00 00 00 00 00 00 00 00 00 00 00 ................
0040BF40 00 00 00 00 00 00 00 00 00 00 00 00 00 00 00 00 ................
0040BF50 00 00 00 00 00 00 00 00 00 00 00 00 00 00 00 00 ................
0040BF60 00 00 00 00 00 00 00 00 00 00 00 00 00 00 00 00 ................
0040BF70 00 00 00 00 00 00 00 00 00 00 00 00 00 00 00 00 ................
0040BF80 00 00 00 00 00 00 00 00 00 00 00 00 00 00 00 00 ................
0040BF90 00 00 00 00 00 00 00 00 00 00 00 00 00 00 00 00 ................
0040BFA0 00 00 00 00 00 00 00 00 00 00 00 00 00 00 00 00 ................
0040BFB0 00 00 00 00 00 00 00 00 00 00 00 00 00 00 00 00 ................
0040BFC0 00 00 00 00 00 00 00 00 00 00 00 00 00 00 00 00 ................
0040BFD0 00 00 00 00 00 00 00 00 00 00 00 00 00 00 00 00 ................
0040BFE0 00 00 00 00 00 00 00 00 00 00 00 00 00 00 00 00 ................
0040BFF0 00 00 00 00 00 00 00 00 00 00 00 00 00 00 00 00 ................
0040C000 00 00 00 00 00 00 00 00 00 00 00 00 00 00 00 00 ................
0040C010 00 00 00 00 00 00 00 00 00 00 00 00 00 00 00 00 ................
0040C020 00 00 00 00 00 00 00 00 00 00 00 00 00 00 00 00 ................
0040C030 00 00 00 00 00 00 00 00 00 00 00 00 00 00 00 00 ................
0040C040 00 00 00 00 00 00 00 00 00 00 00 00 00 00 00 00 ................
0040C050 00 00 00 00 00 00 00 00 00 00 00 00 00 00 00 00 ................
0040C060 00 00 00 00 00 00 00 00 00 00 00 00 00 00 00 00 ................
0040C070 00 00 00 00 00 00 00 00 00 00 00 00 00 00 00 00 ................
0040C080 00 00 00 00 00 00 00 00 00 00 00 00 00 00 00 00 ................
0040C090 00 00 00 00 00 00 00 00 00 00 00 00 00 00 00 00 ................
0040C0A0 00 00 00 00 00 00 00 00 00 00 00 00 00 00 00 00 ................
0040C0B0 00 00 00 00 00 00 00 00 00 00 00 00 00 00 00 00 ................
0040C0C0 00 00 00 00 00 00 00 00 00 00 00 00 00 00 00 00 ................
0040C0D0 00 00 00 00 00 00 00 00 00 00 00 00 00 00 00 00 ................
0040C0E0 00 00 00 00 00 00 00 00 00 00 00 00 00 00 00 00 ................
0040C0F0 00 00 00 00 00 00 00 00 00 00 00 00 00 00 00 00 ................
0040C100 00 00 00 00 00 00 00 00 00 00 00 00 00 00 00 00 ................
0040C110 00 00 00 00 00 00 00 00 00 00 00 00 00 00 00 00 ................
0040C120 00 00 00 00 00 00 00 00 00 00 00 00 00 00 00 00 ................
0040C130 00 00 00 00 00 00 00 00 00 00 00 00 00 00 00 00 ................
0040C140 00 00 00 00 00 00 00 00 00 00 00 00 00 00 00 00 ................
0040C150 00 00 00 00 00 00 00 00 00 00 00 00 00 00 00 00 ................
0040C160 00 00 00 00 00 00 00 00 00 00 00 00 00 00 00 00 ................
0040C170 00 00 00 00 00 00 00 00 00 00 00 00 00 00 00 00 ................
0040C180 00 00 00 00 00 00 00 00 00 00 00 00 00 00 00 00 ................
0040C190 00 00 00 00 00 00 00 00 00 00 00 00 00 00 00 00 ................
0040C1A0 00 00 00 00 00 00 00 00 00 00 00 00 00 00 00 00 ................
0040C1B0 00 00 00 00 00 00 00 00 00 00 00 00 00 00 00 00 ................
0040C1C0 00 00 00 00 00 00 00 00 00 00 00 00 00 00 00 00 ................
0040C1D0 00 00 00 00 00 00 00 00 00 00 00 00 00 00 00 00 ................
0040C1E0 00 00 00 00 00 00 00 00 00 00 00 00 00 00 00 00 ................
0040C1F0 00 00 00 00 00 00 00 00 00 00 00 00 00 00 00 00 ................
0040C200 00 00 00 00 00 00 00 00 00 00 00 00 00 00 00 00 ................
0040C210 00 00 00 00 00 00 00 00 00 00 00 00 00 00 00 00 ................
0040C220 00 00 00 00 00 00 00 00 00 00 00 00 00 00 00 00 ................
0040C230 00 00 00 00 00 00 00 00 00 00 00 00 00 00 00 00 ................
0040C240 00 00 00 00 00 00 00 00 00 00 00 00 00 00 00 00 ................
0040C250 00 00 00 00 00 00 00 00 00 00 00 00 00 00 00 00 ................
0040C260 00 00 00 00 00 00 00 00 00 00 00 00 00 00 00 00 ................
0040C270 00 00 00 00 00 00 00 00 00 00 00 00 00 00 00 00 ................
0040C280 00 00 00 00 00 00 00 00 00 00 00 00 00 00 00 00 ................
0040C290 00 00 00 00 00 00 00 00 00 00 00 00 00 00 00 00 ................
0040C2A0 00 00 00 00 00 00 00 00 00 00 00 00 00 00 00 00 ................
0040C2B0 00 00 00 00 00 00 00 00 00 00 00 00 00 00 00 00 ................
0040C2C0 00 00 00 00 00 00 00 00 00 00 00 00 00 00 00 00 ................
0040C2D0 00 00 00 00 00 00 00 00 00 00 00 00 00 00 00 00 ................
0040C2E0 00 00 00 00 00 00 00 00 00 00 00 00 00 00 00 00 ................
0040C2F0 00 00 00 00 00 00 00 00 00 00 00 00 00 00 00 00 ................
0040C300 00 00 00 00 00 00 00 00 00 00 00 00 00 00 00 00 ................
0040C310 00 00 00 00 00 00 00 00 00 00 00 00 00 00 00 00 ................
0040C320 00 00 00 00 00 00 00 00 00 00 00 00 00 00 00 00 ................
0040C330 00 00 00 00 00 00 00 00 00 00 00 00 00 00 00 00 ................
0040C340 00 00 00 00 00 00 00 00 00 00 00 00 00 00 00 00 ................
0040C350 00 00 00 00 00 00 00 00 00 00 00 00 00 00 00 00 ................
0040C360 00 00 00 00 00 00 00 00 00 00 00 00 00 00 00 00 ................
0040C370 00 00 00 00 00 00 00 00 00 00 00 00 00 00 00 00 ................
0040C380 00 00 00 00 00 00 00 00 00 00 00 00 00 00 00 00 ................
0040C390 00 00 00 00 00 00 00 00 00 00 00 00 00 00 00 00 ................
0040C3A0 00 00 00 00 00 00 00 00 00 00 00 00 00 00 00 00 ................
0040C3B0 00 00 00 00 00 00 00 00 00 00 00 00 00 00 00 00 ................
0040C3C0 00 00 00 00 00 00 00 00 00 00 00 00 00 00 00 00 ................
0040C3D0 00 00 00 00 00 00 00 00 00 00 00 00 00 00 00 00 ................
0040C3E0 00 00 00 00 00 00 00 00 00 00 00 00 00 00 00 00 ................
0040C3F0 00 00 00 00 00 00 00 00 00 00 00 00 00 00 00 00 ................
0040C400 00 00 00 00 00 00 00 00 00 00 00 00 00 00 00 00 ................
0040C410 00 00 00 00 00 00 00 00 00 00 00 00 00 00 00 00 ................
0040C420 00 00 00 00 00 00 00 00 00 00 00 00 00 00 00 00 ................
0040C430 00 00 00 00 00 00 00 00 00 00 00 00 00 00 00 00 ................
0040C440 00 00 00 00 00 00 00 00 00 00 00 00 00 00 00 00 ................
0040C450 00 00 00 00 00 00 00 00 00 00 00 00 00 00 00 00 ................
0040C460 00 00 00 00 00 00 00 00 00 00 00 00 00 00 00 00 ................
0040C470 00 00 00 00 00 00 00 00 00 00 00 00 00 00 00 00 ................
0040C480 00 00 00 00 00 00 00 00 00 00 00 00 00 00 00 00 ................
0040C490 00 00 00 00 00 00 00 00 00 00 00 00 00 00 00 00 ................
0040C4A0 00 00 00 00 00 00 00 00 00 00 00 00 00 00 00 00 ................
0040C4B0 00 00 00 00 00 00 00 00 00 00 00 00 00 00 00 00 ................
0040C4C0 00 00 00 00 00 00 00 00 00 00 00 00 00 00 00 00 ................
0040C4D0 00 00 00 00 00 00 00 00 00 00 00 00 00 00 00 00 ................
0040C4E0 00 00 00 00 00 00 00 00 00 00 00 00 00 00 00 00 ................
0040C4F0 00 00 00 00 00 00 00 00 00 00 00 00 00 00 00 00 ................
0040C500 00 00 00 00 00 00 00 00 00 00 00 00 00 00 00 00 ................
0040C510 00 00 00 00 00 00 00 00 00 00 00 00 00 00 00 00 ................
0040C520 00 00 00 00 00 00 00 00 00 00 00 00 00 00 00 00 ................
0040C530 00 00 00 00 00 00 00 00 00 00 00 00 00 00 00 00 ................
0040C540 00 00 00 00 00 00 00 00 00 00 00 00 00 00 00 00 ................
0040C550 00 00 00 00 00 00 00 00 00 00 00 00 00 00 00 00 ................
0040C560 00 00 00 00 00 00 00 00 00 00 00 00 00 00 00 00 ................
0040C570 00 00 00 00 00 00 00 00 00 00 00 00 00 00 00 00 ................
0040C580 00 00 00 00 00 00 00 00 00 00 00 00 00 00 00 00 ................
0040C590 00 00 00 00 00 00 00 00 00 00 00 00 00 00 00 00 ................
0040C5A0 00 00 00 00 00 00 00 00 00 00 00 00 00 00 00 00 ................
0040C5B0 00 00 00 00 00 00 00 00 00 00 00 00 00 00 00 00 ................
0040C5C0 00 00 00 00 00 00 00 00 00 00 00 00 00 00 00 00 ................
0040C5D0 00 00 00 00 00 00 00 00 00 00 00 00 00 00 00 00 ................
0040C5E0 00 00 00 00 00 00 00 00 00 00 00 00 00 00 00 00 ................
0040C5F0 00 00 00 00 00 00 00 00 00 00 00 00 00 00 00 00 ................
0040C600 00 00 00 00 00 00 00 00 00 00 00 00 00 00 00 00 ................
0040C610 00 00 00 00 00 00 00 00 00 00 00 00 00 00 00 00 ................
0040C620 00 00 00 00 00 00 00 00 00 00 00 00 00 00 00 00 ................
0040C630 00 00 00 00 00 00 00 00 00 00 00 00 00 00 00 00 ................
0040C640 00 00 00 00 00 00 00 00 00 00 00 00 00 00 00 00 ................
0040C650 00 00 00 00 00 00 00 00 00 00 00 00 00 00 00 00 ................
0040C660 00 00 00 00 00 00 00 00 00 00 00 00 00 00 00 00 ................
0040C670 00 00 00 00 00 00 00 00 00 00 00 00 00 00 00 00 ................
0040C680 00 00 00 00 00 00 00 00 00 00 00 00 00 00 00 00 ................
0040C690 00 00 00 00 00 00 00 00 00 00 00 00 00 00 00 00 ................
0040C6A0 00 00 00 00 00 00 00 00 00 00 00 00 00 00 00 00 ................
0040C6B0 00 00 00 00 00 00 00 00 00 00 00 00 00 00 00 00 ................
0040C6C0 00 00 00 00 00 00 00 00 00 00 00 00 00 00 00 00 ................
0040C6D0 00 00 00 00 00 00 00 00 00 00 00 00 00 00 00 00 ................
0040C6E0 00 00 00 00 00 00 00 00 00 00 00 00 00 00 00 00 ................
0040C6F0 00 00 00 00 00 00 00 00 00 00 00 00 00 00 00 00 ................
0040C700 00 00 00 00 00 00 00 00 00 00 00 00 00 00 00 00 ................
0040C710 00 00 00 00 00 00 00 00 00 00 00 00 00 00 00 00 ................
0040C720 00 00 00 00 00 00 00 00 00 00 00 00 00 00 00 00 ................
0040C730 00 00 00 00 00 00 00 00 00 00 00 00 00 00 00 00 ................
0040C740 00 00 00 00 00 00 00 00 00 00 00 00 00 00 00 00 ................
0040C750 00 00 00 00 00 00 00 00 00 00 00 00 00 00 00 00 ................
0040C760 00 00 00 00 00 00 00 00 00 00 00 00 00 00 00 00 ................
0040C770 00 00 00 00 00 00 00 00 00 00 00 00 00 00 00 00 ................
0040C780 00 00 00 00 00 00 00 00 00 00 00 00 00 00 00 00 ................
0040C790 00 00 00 00 00 00 00 00 00 00 00 00 00 00 00 00 ................
0040C7A0 00 00 00 00 00 00 00 00 00 00 00 00 00 00 00 00 ................
0040C7B0 00 00 00 00 00 00 00 00 00 00 00 00 00 00 00 00 ................
0040C7C0 00 00 00 00 00 00 00 00 00 00 00 00 00 00 00 00 ................
0040C7D0 00 00 00 00 00 00 00 00 00 00 00 00 00 00 00 00 ................
0040C7E0 00 00 00 00 00 00 00 00 00 00 00 00 00 00 00 00 ................
0040C7F0 00 00 00 00 00 00 00 00 00 00 00 00 00 00 00 00 ................
0040C800 00 00 00 00 00 00 00 00 00 00 00 00 00 00 00 00 ................
0040C810 00 00 00 00 00 00 00 00 00 00 00 00 00 00 00 00 ................
0040C820 00 00 00 00 00 00 00 00 00 00 00 00 00 00 00 00 ................
0040C830 00 00 00 00 00 00 00 00 00 00 00 00 00 00 00 00 ................
0040C840 00 00 00 00 00 00 00 00 00 00 00 00 00 00 00 00 ................
0040C850 00 00 00 00 00 00 00 00 00 00 00 00 00 00 00 00 ................
0040C860 00 00 00 00 00 00 00 00 00 00 00 00 00 00 00 00 ................
0040C870 00 00 00 00 00 00 00 00 00 00 00 00 00 00 00 00 ................
0040C880 00 00 00 00 00 00 00 00 00 00 00 00 00 00 00 00 ................
0040C890 00 00 00 00 00 00 00 00 00 00 00 00 00 00 00 00 ................
0040C8A0 00 00 00 00 00 00 00 00 00 00 00 00 00 00 00 00 ................
0040C8B0 00 00 00 00 00 00 00 00 00 00 00 00 00 00 00 00 ................
0040C8C0 00 00 00 00 00 00 00 00 00 00 00 00 00 00 00 00 ................
0040C8D0 00 00 00 00 00 00 00 00 00 00 00 00 00 00 00 00 ................
0040C8E0 00 00 00 00 00 00 00 00 00 00 00 00 00 00 00 00 ................
0040C8F0 00 00 00 00 00 00 00 00 00 00 00 00 00 00 00 00 ................
0040C900 00 00 00 00 00 00 00 00 00 00 00 00 00 00 00 00 ................
0040C910 00 00 00 00 00 00 00 00 00 00 00 00 00 00 00 00 ................
0040C920 00 00 00 00 00 00 00 00 00 00 00 00 00 00 00 00 ................
0040C930 00 00 00 00 00 00 00 00 00 00 00 00 00 00 00 00 ................
0040C940 00 00 00 00 00 00 00 00 00 00 00 00 00 00 00 00 ................
0040C950 00 00 00 00 00 00 00 00 00 00 00 00 00 00 00 00 ................
0040C960 00 00 00 00 00 00 00 00 00 00 00 00 00 00 00 00 ................
0040C970 00 00 00 00 00 00 00 00 00 00 00 00 00 00 00 00 ................
0040C980 00 00 00 00 00 00 00 00 00 00 00 00 00 00 00 00 ................
0040C990 00 00 00 00 00 00 00 00 00 00 00 00 00 00 00 00 ................
0040C9A0 00 00 00 00 00 00 00 00 00 00 00 00 00 00 00 00 ................
0040C9B0 00 00 00 00 00 00 00 00 00 00 00 00 00 00 00 00 ................
0040C9C0 00 00 00 00 00 00 00 00 00 00 00 00 00 00 00 00 ................
0040C9D0 00 00 00 00 00 00 00 00 00 00 00 00 00 00 00 00 ................
0040C9E0 00 00 00 00 00 00 00 00 00 00 00 00 00 00 00 00 ................
0040C9F0 00 00 00 00 00 00 00 00 00 00 00 00 00 00 00 00 ................
0040CA00 00 00 00 00 00 00 00 00 00 00 00 00 00 00 00 00 ................
0040CA10 00 00 00 00 00 00 00 00 00 00 00 00 00 00 00 00 ................
0040CA20 00 00 00 00 00 00 00 00 00 00 00 00 00 00 00 00 ................
0040CA30 00 00 00 00 00 00 00 00 00 00 00 00 00 00 00 00 ................
0040CA40 00 00 00 00 00 00 00 00 00 00 00 00 00 00 00 00 ................
0040CA50 00 00 00 00 00 00 00 00 00 00 00 00 00 00 00 00 ................
0040CA60 00 00 00 00 00 00 00 00 00 00 00 00 00 00 00 00 ................
0040CA70 00 00 00 00 00 00 00 00 00 00 00 00 00 00 00 00 ................
0040CA80 00 00 00 00 00 00 00 00 00 00 00 00 00 00 00 00 ................
0040CA90 00 00 00 00 00 00 00 00 00 00 00 00 00 00 00 00 ................
0040CAA0 00 00 00 00 00 00 00 00 00 00 00 00 00 00 00 00 ................
0040CAB0 00 00 00 00 00 00 00 00 00 00 00 00 00 00 00 00 ................
0040CAC0 00 00 00 00 00 00 00 00 00 00 00 00 00 00 00 00 ................
0040CAD0 00 00 00 00 00 00 00 00 00 00 00 00 00 00 00 00 ................
0040CAE0 00 00 00 00 00 00 00 00 00 00 00 00 00 00 00 00 ................
0040CAF0 00 00 00 00 00 00 00 00 00 00 00 00 00 00 00 00 ................
0040CB00 00 00 00 00 00 00 00 00 00 00 00 00 00 00 00 00 ................
0040CB10 00 00 00 00 00 00 00 00 00 00 00 00 00 00 00 00 ................
0040CB20 00 00 00 00 00 00 00 00 00 00 00 00 00 00 00 00 ................
0040CB30 00 00 00 00 00 00 00 00 00 00 00 00 00 00 00 00 ................
0040CB40 00 00 00 00 00 00 00 00 00 00 00 00 00 00 00 00 ................
0040CB50 00 00 00 00 00 00 00 00 00 00 00 00 00 00 00 00 ................
0040CB60 00 00 00 00 00 00 00 00 00 00 00 00 00 00 00 00 ................
0040CB70 00 00 00 00 00 00 00 00 00 00 00 00 00 00 00 00 ................
0040CB80 00 00 00 00 00 00 00 00 00 00 00 00 00 00 00 00 ................
0040CB90 00 00 00 00 00 00 00 00 00 00 00 00 00 00 00 00 ................
0040CBA0 00 00 00 00 00 00 00 00 00 00 00 00 00 00 00 00 ................
0040CBB0 00 00 00 00 00 00 00 00 00 00 00 00 00 00 00 00 ................
0040CBC0 00 00 00 00 00 00 00 00 00 00 00 00 00 00 00 00 ................
0040CBD0 00 00 00 00 00 00 00 00 00 00 00 00 00 00 00 00 ................
0040CBE0 00 00 00 00 00 00 00 00 00 00 00 00 00 00 00 00 ................
0040CBF0 00 00 00 00 00 00 00 00 00 00 00 00 00 00 00 00 ................
0040CC00 00 00 00 00 00 00 00 00 00 00 00 00 00 00 00 00 ................
0040CC10 00 00 00 00 00 00 00 00 00 00 00 00 00 00 00 00 ................
0040CC20 00 00 00 00 00 00 00 00 00 00 00 00 00 00 00 00 ................
0040CC30 00 00 00 00 00 00 00 00 00 00 00 00 00 00 00 00 ................
0040CC40 00 00 00 00 00 00 00 00 00 00 00 00 00 00 00 00 ................
0040CC50 00 00 00 00 00 00 00 00 00 00 00 00 00 00 00 00 ................
0040CC60 00 00 00 00 00 00 00 00 00 00 00 00 00 00 00 00 ................
0040CC70 00 00 00 00 00 00 00 00 00 00 00 00 00 00 00 00 ................
0040CC80 00 00 00 00 00 00 00 00 00 00 00 00 00 00 00 00 ................
0040CC90 00 00 00 00 00 00 00 00 00 00 00 00 00 00 00 00 ................
0040CCA0 00 00 00 00 00 00 00 00 00 00 00 00 00 00 00 00 ................
0040CCB0 00 00 00 00 00 00 00 00 00 00 00 00 00 00 00 00 ................
0040CCC0 00 00 00 00 00 00 00 00 00 00 00 00 00 00 00 00 ................
0040CCD0 00 00 00 00 00 00 00 00 00 00 00 00 00 00 00 00 ................
0040CCE0 00 00 00 00 00 00 00 00 00 00 00 00 00 00 00 00 ................
0040CCF0 00 00 00 00 00 00 00 00 00 00 00 00 00 00 00 00 ................
0040CD00 00 00 00 00 00 00 00 00 00 00 00 00 00 00 00 00 ................
0040CD10 00 00 00 00 00 00 00 00 00 00 00 00 00 00 00 00 ................
0040CD20 00 00 00 00 00 00 00 00 00 00 00 00 00 00 00 00 ................
0040CD30 00 00 00 00 00 00 00 00 00 00 00 00 00 00 00 00 ................
0040CD40 00 00 00 00 00 00 00 00 00 00 00 00 00 00 00 00 ................
0040CD50 00 00 00 00 00 00 00 00 00 00 00 00 00 00 00 00 ................
0040CD60 00 00 00 00 00 00 00 00 00 00 00 00 00 00 00 00 ................
0040CD70 00 00 00 00 00 00 00 00 00 00 00 00 00 00 00 00 ................
0040CD80 00 00 00 00 00 00 00 00 00 00 00 00 00 00 00 00 ................
0040CD90 00 00 00 00 00 00 00 00 00 00 00 00 00 00 00 00 ................
0040CDA0 00 00 00 00 00 00 00 00 00 00 00 00 00 00 00 00 ................
0040CDB0 00 00 00 00 00 00 00 00 00 00 00 00 00 00 00 00 ................
0040CDC0 00 00 00 00 00 00 00 00 00 00 00 00 00 00 00 00 ................
0040CDD0 00 00 00 00 00 00 00 00 00 00 00 00 00 00 00 00 ................
0040CDE0 00 00 00 00 00 00 00 00 00 00 00 00 00 00 00 00 ................
0040CDF0 00 00 00 00 00 00 00 00 00 00 00 00 00 00 00 00 ................
0040CE00 00 00 00 00 00 00 00 00 00 00 00 00 00 00 00 00 ................
0040CE10 00 00 00 00 00 00 00 00 00 00 00 00 00 00 00 00 ................
0040CE20 00 00 00 00 00 00 00 00 00 00 00 00 00 00 00 00 ................
0040CE30 00 00 00 00 00 00 00 00 00 00 00 00 00 00 00 00 ................
0040CE40 00 00 00 00 00 00 00 00 00 00 00 00 00 00 00 00 ................
0040CE50 00 00 00 00 00 00 00 00 00 00 00 00 00 00 00 00 ................
0040CE60 00 00 00 00 00 00 00 00 00 00 00 00 00 00 00 00 ................
0040CE70 00 00 00 00 00 00 00 00 00 00 00 00 00 00 00 00 ................
0040CE80 00 00 00 00 00 00 00 00 00 00 00 00 00 00 00 00 ................
0040CE90 00 00 00 00 00 00 00 00 00 00 00 00 00 00 00 00 ................
0040CEA0 00 00 00 00 00 00 00 00 00 00 00 00 00 00 00 00 ................
0040CEB0 00 00 00 00 00 00 00 00 00 00 00 00 00 00 00 00 ................
0040CEC0 00 00 00 00 00 00 00 00 00 00 00 00 00 00 00 00 ................
0040CED0 00 00 00 00 00 00 00 00 00 00 00 00 00 00 00 00 ................
0040CEE0 00 00 00 00 00 00 00 00 00 00 00 00 00 00 00 00 ................
0040CEF0 00 00 00 00 00 00 00 00 00 00 00 00 00 00 00 00 ................
0040CF00 00 00 00 00 00 00 00 00 00 00 00 00 00 00 00 00 ................
0040CF10 00 00 00 00 00 00 00 00 00 00 00 00 00 00 00 00 ................
0040CF20 00 00 00 00 00 00 00 00 00 00 00 00 00 00 00 00 ................
0040CF30 00 00 00 00 00 00 00 00 00 00 00 00 00 00 00 00 ................
0040CF40 00 00 00 00 00 00 00 00 00 00 00 00 00 00 00 00 ................
0040CF50 00 00 00 00 00 00 00 00 00 00 00 00 00 00 00 00 ................
0040CF60 00 00 00 00 00 00 00 00 00 00 00 00 00 00 00 00 ................
0040CF70 00 00 00 00 00 00 00 00 00 00 00 00 00 00 00 00 ................
0040CF80 00 00 00 00 00 00 00 00 00 00 00 00 00 00 00 00 ................
0040CF90 00 00 00 00 00 00 00 00 00 00 00 00 00 00 00 00 ................
0040CFA0 00 00 00 00 00 00 00 00 00 00 00 00 00 00 00 00 ................
0040CFB0 00 00 00 00 00 00 00 00 00 00 00 00 00 00 00 00 ................
0040CFC0 00 00 00 00 00 00 00 00 00 00 00 00 00 00 00 00 ................
0040CFD0 00 00 00 00 00 00 00 00 00 00 00 00 00 00 00 00 ................
0040CFE0 00 00 00 00 00 00 00 00 00 00 00 00 00 00 00 00 ................
0040CFF0 00 00 00 00 00 00 00 00 00 00 00 00 00 00 00 00 ................
0040D000 00 00 00 00 00 00 00 00 00 00 00 00 00 00 00 00 ................
0040D010 00 00 00 00 00 00 00 00 00 00 00 00 00 00 00 00 ................
0040D020 00 00 00 00 00 00 00 00 00 00 00 00 00 00 00 00 ................
0040D030 00 00 00 00 00 00 00 00 00 00 00 00 00 00 00 00 ................
0040D040 00 00 00 00 00 00 00 00 00 00 00 00 00 00 00 00 ................
0040D050 00 00 00 00 00 00 00 00 00 00 00 00 00 00 00 00 ................
0040D060 00 00 00 00 00 00 00 00 00 00 00 00 00 00 00 00 ................
0040D070 00 00 00 00 00 00 00 00 00 00 00 00 00 00 00 00 ................
0040D080 00 00 00 00 00 00 00 00 00 00 00 00 00 00 00 00 ................
0040D090 00 00 00 00 00 00 00 00 00 00 00 00 00 00 00 00 ................
0040D0A0 00 00 00 00 00 00 00 00 00 00 00 00 00 00 00 00 ................
0040D0B0 00 00 00 00 00 00 00 00 00 00 00 00 00 00 00 00 ................
0040D0C0 00 00 00 00 00 00 00 00 00 00 00 00 00 00 00 00 ................
0040D0D0 00 00 00 00 00 00 00 00 00 00 00 00 00 00 00 00 ................
0040D0E0 00 00 00 00 00 00 00 00 00 00 00 00 00 00 00 00 ................
0040D0F0 00 00 00 00 00 00 00 00 00 00 00 00 00 00 00 00 ................
0040D100 00 00 00 00 00 00 00 00 00 00 00 00 00 00 00 00 ................
0040D110 00 00 00 00 00 00 00 00 00 00 00 00 00 00 00 00 ................
0040D120 00 00 00 00 00 00 00 00 00 00 00 00 00 00 00 00 ................
0040D130 00 00 00 00 00 00 00 00 00 00 00 00 00 00 00 00 ................
0040D140 00 00 00 00 00 00 00 00 00 00 00 00 00 00 00 00 ................
0040D150 00 00 00 00 00 00 00 00 00 00 00 00 00 00 00 00 ................
0040D160 00 00 00 00 00 00 00 00 00 00 00 00 00 00 00 00 ................
0040D170 00 00 00 00 00 00 00 00 00 00 00 00 00 00 00 00 ................
0040D180 00 00 00 00 00 00 00 00 00 00 00 00 00 00 00 00 ................
0040D190 00 00 00 00 00 00 00 00 00 00 00 00 00 00 00 00 ................
0040D1A0 00 00 00 00 00 00 00 00 00 00 00 00 00 00 00 00 ................
0040D1B0 00 00 00 00 00 00 00 00 00 00 00 00 00 00 00 00 ................
0040D1C0 00 00 00 00 00 00 00 00 00 00 00 00 00 00 00 00 ................
0040D1D0 00 00 00 00 00 00 00 00 00 00 00 00 00 00 00 00 ................
0040D1E0 00 00 00 00 00 00 00 00 00 00 00 00 00 00 00 00 ................
0040D1F0 00 00 00 00 00 00 00 00 00 00 00 00 00 00 00 00 ................
0040D200 00 00 00 00 00 00 00 00 00 00 00 00 00 00 00 00 ................
0040D210 00 00 00 00 00 00 00 00 00 00 00 00 00 00 00 00 ................
0040D220 00 00 00 00 00 00 00 00 00 00 00 00 00 00 00 00 ................
0040D230 00 00 00 00 00 00 00 00 00 00 00 00 00 00 00 00 ................
0040D240 00 00 00 00 00 00 00 00 00 00 00 00 00 00 00 00 ................
0040D250 00 00 00 00 00 00 00 00 00 00 00 00 00 00 00 00 ................
0040D260 00 00 00 00 00 00 00 00 00 00 00 00 00 00 00 00 ................
0040D270 00 00 00 00 00 00 00 00 00 00 00 00 00 00 00 00 ................
0040D280 00 00 00 00 00 00 00 00 00 00 00 00 00 00 00 00 ................
0040D290 00 00 00 00 00 00 00 00 00 00 00 00 00 00 00 00 ................
0040D2A0 00 00 00 00 00 00 00 00 00 00 00 00 00 00 00 00 ................
0040D2B0 00 00 00 00 00 00 00 00 00 00 00 00 00 00 00 00 ................
0040D2C0 00 00 00 00 00 00 00 00 00 00 00 00 00 00 00 00 ................
0040D2D0 00 00 00 00 00 00 00 00 00 00 00 00 00 00 00 00 ................
0040D2E0 00 00 00 00 00 00 00 00 00 00 00 00 00 00 00 00 ................
0040D2F0 00 00 00 00 00 00 00 00 00 00 00 00 00 00 00 00 ................
0040D300 00 00 00 00 00 00 00 00 00 00 00 00 00 00 00 00 ................
0040D310 00 00 00 00 00 00 00 00 00 00 00 00 00 00 00 00 ................
0040D320 00 00 00 00 00 00 00 00 00 00 00 00 00 00 00 00 ................
0040D330 00 00 00 00 00 00 00 00 00 00 00 00 00 00 00 00 ................
0040D340 00 00 00 00 00 00 00 00 00 00 00 00 00 00 00 00 ................
0040D350 00 00 00 00 00 00 00 00 00 00 00 00 00 00 00 00 ................
0040D360 00 00 00 00 00 00 00 00 00 00 00 00 00 00 00 00 ................
0040D370 00 00 00 00 00 00 00 00 00 00 00 00 00 00 00 00 ................
0040D380 00 00 00 00 00 00 00 00 00 00 00 00 00 00 00 00 ................
0040D390 00 00 00 00 00 00 00 00 00 00 00 00 00 00 00 00 ................
0040D3A0 00 00 00 00 00 00 00 00 00 00 00 00 00 00 00 00 ................
0040D3B0 00 00 00 00 00 00 00 00 00 00 00 00 00 00 00 00 ................
0040D3C0 00 00 00 00 00 00 00 00 00 00 00 00 00 00 00 00 ................
0040D3D0 00 00 00 00 00 00 00 00 00 00 00 00 00 00 00 00 ................
0040D3E0 00 00 00 00 00 00 00 00 00 00 00 00 00 00 00 00 ................
0040D3F0 00 00 00 00 00 00 00 00 00 00 00 00 00 00 00 00 ................
0040D400 00 00 00 00 00 00 00 00 00 00 00 00 00 00 00 00 ................
0040D410 00 00 00 00 00 00 00 00 00 00 00 00 00 00 00 00 ................
0040D420 00 00 00 00 00 00 00 00 00 00 00 00 00 00 00 00 ................
0040D430 00 00 00 00 00 00 00 00 00 00 00 00 00 00 00 00 ................
0040D440 00 00 00 00 00 00 00 00 00 00 00 00 00 00 00 00 ................
0040D450 00 00 00 00 00 00 00 00 00 00 00 00 00 00 00 00 ................
0040D460 00 00 00 00 00 00 00 00 00 00 00 00 00 00 00 00 ................
0040D470 00 00 00 00 00 00 00 00 00 00 00 00 00 00 00 00 ................
0040D480 00 00 00 00 00 00 00 00 00 00 00 00 00 00 00 00 ................
0040D490 00 00 00 00 00 00 00 00 00 00 00 00 00 00 00 00 ................
0040D4A0 00 00 00 00 00 00 00 00 00 00 00 00 00 00 00 00 ................
0040D4B0 00 00 00 00 00 00 00 00 00 00 00 00 00 00 00 00 ................
0040D4C0 00 00 00 00 00 00 00 00 00 00 00 00 00 00 00 00 ................
0040D4D0 00 00 00 00 00 00 00 00 00 00 00 00 00 00 00 00 ................
0040D4E0 00 00 00 00 00 00 00 00 00 00 00 00 00 00 00 00 ................
0040D4F0 00 00 00 00 00 00 00 00 00 00 00 00 00 00 00 00 ................
0040D500 00 00 00 00 00 00 00 00 00 00 00 00 00 00 00 00 ................
0040D510 00 00 00 00 00 00 00 00 00 00 00 00 00 00 00 00 ................
0040D520 00 00 00 00 00 00 00 00 00 00 00 00 00 00 00 00 ................
0040D530 00 00 00 00 00 00 00 00 00 00 00 00 00 00 00 00 ................
0040D540 00 00 00 00 00 00 00 00 00 00 00 00 00 00 00 00 ................
0040D550 00 00 00 00 00 00 00 00 00 00 00 00 00 00 00 00 ................
0040D560 00 00 00 00 00 00 00 00 00 00 00 00 00 00 00 00 ................
0040D570 00 00 00 00 00 00 00 00 00 00 00 00 00 00 00 00 ................
0040D580 00 00 00 00 00 00 00 00 00 00 00 00 00 00 00 00 ................
0040D590 00 00 00 00 00 00 00 00 00 00 00 00 00 00 00 00 ................
0040D5A0 00 00 00 00 00 00 00 00 00 00 00 00 00 00 00 00 ................
0040D5B0 00 00 00 00 00 00 00 00 00 00 00 00 00 00 00 00 ................
0040D5C0 00 00 00 00 00 00 00 00 00 00 00 00 00 00 00 00 ................
0040D5D0 00 00 00 00 00 00 00 00 00 00 00 00 00 00 00 00 ................
0040D5E0 00 00 00 00 00 00 00 00 00 00 00 00 00 00 00 00 ................
0040D5F0 00 00 00 00 00 00 00 00 00 00 00 00 00 00 00 00 ................
0040D600 00 00 00 00 00 00 00 00 00 00 00 00 00 00 00 00 ................
0040D610 00 00 00 00 00 00 00 00 00 00 00 00 00 00 00 00 ................
0040D620 00 00 00 00 00 00 00 00 00 00 00 00 00 00 00 00 ................
0040D630 00 00 00 00 00 00 00 00 00 00 00 00 00 00 00 00 ................
0040D640 00 00 00 00 00 00 00 00 00 00 00 00 00 00 00 00 ................
0040D650 00 00 00 00 00 00 00 00 00 00 00 00 00 00 00 00 ................
0040D660 00 00 00 00 00 00 00 00 00 00 00 00 00 00 00 00 ................
0040D670 00 00 00 00 00 00 00 00 00 00 00 00 00 00 00 00 ................
0040D680 00 00 00 00 00 00 00 00 00 00 00 00 00 00 00 00 ................
0040D690 00 00 00 00 00 00 00 00 00 00 00 00 00 00 00 00 ................
0040D6A0 00 00 00 00 00 00 00 00 00 00 00 00 00 00 00 00 ................
0040D6B0 00 00 00 00 00 00 00 00 00 00 00 00 00 00 00 00 ................
0040D6C0 00 00 00 00 00 00 00 00 00 00 00 00 00 00 00 00 ................
0040D6D0 00 00 00 00 00 00 00 00 00 00 00 00 00 00 00 00 ................
0040D6E0 00 00 00 00 00 00 00 00 00 00 00 00 00 00 00 00 ................
0040D6F0 00 00 00 00 00 00 00 00 00 00 00 00 00 00 00 00 ................
0040D700 00 00 00 00 00 00 00 00 00 00 00 00 00 00 00 00 ................
0040D710 00 00 00 00 00 00 00 00 00 00 00 00 00 00 00 00 ................
0040D720 00 00 00 00 00 00 00 00 00 00 00 00 00 00 00 00 ................
0040D730 00 00 00 00 00 00 00 00 00 00 00 00 00 00 00 00 ................
0040D740 00 00 00 00 00 00 00 00 00 00 00 00 00 00 00 00 ................
0040D750 00 00 00 00 00 00 00 00 00 00 00 00 00 00 00 00 ................
0040D760 00 00 00 00 00 00 00 00 00 00 00 00 00 00 00 00 ................
0040D770 00 00 00 00 00 00 00 00 00 00 00 00 00 00 00 00 ................
0040D780 00 00 00 00 00 00 00 00 00 00 00 00 00 00 00 00 ................
0040D790 00 00 00 00 00 00 00 00 00 00 00 00 00 00 00 00 ................
0040D7A0 00 00 00 00 00 00 00 00 00 00 00 00 00 00 00 00 ................
0040D7B0 00 00 00 00 00 00 00 00 00 00 00 00 00 00 00 00 ................
0040D7C0 00 00 00 00 00 00 00 00 00 00 00 00 00 00 00 00 ................
0040D7D0 00 00 00 00 00 00 00 00 00 00 00 00 00 00 00 00 ................
0040D7E0 00 00 00 00 00 00 00 00 00 00 00 00 00 00 00 00 ................
0040D7F0 00 00 00 00 00 00 00 00 00 00 00 00 00 00 00 00 ................
0040D800 00 00 00 00 00 00 00 00 00 00 00 00 00 00 00 00 ................
0040D810 00 00 00 00 00 00 00 00 00 00 00 00 00 00 00 00 ................
0040D820 00 00 00 00 00 00 00 00 00 00 00 00 00 00 00 00 ................
0040D830 00 00 00 00 00 00 00 00 00 00 00 00 00 00 00 00 ................
0040D840 00 00 00 00 00 00 00 00 00 00 00 00 00 00 00 00 ................
0040D850 00 00 00 00 00 00 00 00 00 00 00 00 00 00 00 00 ................
0040D860 00 00 00 00 00 00 00 00 00 00 00 00 00 00 00 00 ................
0040D870 00 00 00 00 00 00 00 00 00 00 00 00 00 00 00 00 ................
0040D880 00 00 00 00 00 00 00 00 00 00 00 00 00 00 00 00 ................
0040D890 00 00 00 00 00 00 00 00 00 00 00 00 00 00 00 00 ................
0040D8A0 00 00 00 00 00 00 00 00 00 00 00 00 00 00 00 00 ................
0040D8B0 00 00 00 00 00 00 00 00 00 00 00 00 00 00 00 00 ................
0040D8C0 00 00 00 00 00 00 00 00 00 00 00 00 00 00 00 00 ................
0040D8D0 00 00 00 00 00 00 00 00 00 00 00 00 00 00 00 00 ................
0040D8E0 00 00 00 00 00 00 00 00 00 00 00 00 00 00 00 00 ................
0040D8F0 00 00 00 00 00 00 00 00 00 00 00 00 00 00 00 00 ................
0040D900 00 00 00 00 00 00 00 00 00 00 00 00 00 00 00 00 ................
0040D910 00 00 00 00 00 00 00 00 00 00 00 00 00 00 00 00 ................
0040D920 00 00 00 00 00 00 00 00 00 00 00 00 00 00 00 00 ................
0040D930 00 00 00 00 00 00 00 00 00 00 00 00 00 00 00 00 ................
0040D940 00 00 00 00 00 00 00 00 00 00 00 00 00 00 00 00 ................
0040D950 00 00 00 00 00 00 00 00 00 00 00 00 00 00 00 00 ................
0040D960 00 00 00 00 00 00 00 00 00 00 00 00 00 00 00 00 ................
0040D970 00 00 00 00 00 00 00 00 00 00 00 00 00 00 00 00 ................
0040D980 00 00 00 00 00 00 00 00 00 00 00 00 00 00 00 00 ................
0040D990 00 00 00 00 00 00 00 00 00 00 00 00 00 00 00 00 ................
0040D9A0 00 00 00 00 00 00 00 00 00 00 00 00 00 00 00 00 ................
0040D9B0 00 00 00 00 00 00 00 00 00 00 00 00 00 00 00 00 ................
0040D9C0 00 00 00 00 00 00 00 00 00 00 00 00 00 00 00 00 ................
0040D9D0 00 00 00 00 00 00 00 00 00 00 00 00 00 00 00 00 ................
0040D9E0 00 00 00 00 00 00 00 00 00 00 00 00 00 00 00 00 ................
0040D9F0 00 00 00 00 00 00 00 00 00 00 00 00 00 00 00 00 ................
0040DA00 00 00 00 00 00 00 00 00 00 00 00 00 00 00 00 00 ................
0040DA10 00 00 00 00 00 00 00 00 00 00 00 00 00 00 00 00 ................
0040DA20 00 00 00 00 00 00 00 00 00 00 00 00 00 00 00 00 ................
0040DA30 00 00 00 00 00 00 00 00 00 00 00 00 00 00 00 00 ................
0040DA40 00 00 00 00 00 00 00 00 00 00 00 00 00 00 00 00 ................
0040DA50 00 00 00 00 00 00 00 00 00 00 00 00 00 00 00 00 ................
0040DA60 00 00 00 00 00 00 00 00 00 00 00 00 00 00 00 00 ................
0040DA70 00 00 00 00 00 00 00 00 00 00 00 00 00 00 00 00 ................
0040DA80 00 00 00 00 00 00 00 00 00 00 00 00 00 00 00 00 ................
0040DA90 00 00 00 00 00 00 00 00 00 00 00 00 00 00 00 00 ................
0040DAA0 00 00 00 00 00 00 00 00 00 00 00 00 00 00 00 00 ................
0040DAB0 00 00 00 00 00 00 00 00 00 00 00 00 00 00 00 00 ................
0040DAC0 00 00 00 00 00 00 00 00 00 00 00 00 00 00 00 00 ................
0040DAD0 00 00 00 00 00 00 00 00 00 00 00 00 00 00 00 00 ................
0040DAE0 00 00 00 00 00 00 00 00 00 00 00 00 00 00 00 00 ................
0040DAF0 00 00 00 00 00 00 00 00 00 00 00 00 00 00 00 00 ................
0040DB00 00 00 00 00 00 00 00 00 00 00 00 00 00 00 00 00 ................
0040DB10 00 00 00 00 00 00 00 00 00 00 00 00 00 00 00 00 ................
0040DB20 00 00 00 00 00 00 00 00 00 00 00 00 00 00 00 00 ................
0040DB30 00 00 00 00 00 00 00 00 00 00 00 00 00 00 00 00 ................
0040DB40 00 00 00 00 00 00 00 00 00 00 00 00 00 00 00 00 ................
0040DB50 00 00 00 00 00 00 00 00 00 00 00 00 00 00 00 00 ................
0040DB60 00 00 00 00 00 00 00 00 00 00 00 00 00 00 00 00 ................
0040DB70 00 00 00 00 00 00 00 00 00 00 00 00 00 00 00 00 ................
0040DB80 00 00 00 00 00 00 00 00 00 00 00 00 00 00 00 00 ................
0040DB90 00 00 00 00 00 00 00 00 00 00 00 00 00 00 00 00 ................
0040DBA0 00 00 00 00 00 00 00 00 00 00 00 00 00 00 00 00 ................
0040DBB0 00 00 00 00 00 00 00 00 00 00 00 00 00 00 00 00 ................
0040DBC0 00 00 00 00 00 00 00 00 00 00 00 00 00 00 00 00 ................
0040DBD0 00 00 00 00 00 00 00 00 00 00 00 00 00 00 00 00 ................
0040DBE0 00 00 00 00 00 00 00 00 00 00 00 00 00 00 00 00 ................
0040DBF0 00 00 00 00 00 00 00 00 00 00 00 00 00 00 00 00 ................
0040DC00 00 00 00 00 00 00 00 00 00 00 00 00 00 00 00 00 ................
0040DC10 00 00 00 00 00 00 00 00 00 00 00 00 00 00 00 00 ................
0040DC20 00 00 00 00 00 00 00 00 00 00 00 00 00 00 00 00 ................
0040DC30 00 00 00 00 00 00 00 00 00 00 00 00 00 00 00 00 ................
0040DC40 00 00 00 00 00 00 00 00 00 00 00 00 00 00 00 00 ................
0040DC50 00 00 00 00 00 00 00 00 00 00 00 00 00 00 00 00 ................
0040DC60 00 00 00 00 00 00 00 00 00 00 00 00 00 00 00 00 ................
0040DC70 00 00 00 00 00 00 00 00 00 00 00 00 00 00 00 00 ................
0040DC80 00 00 00 00 00 00 00 00 00 00 00 00 00 00 00 00 ................
0040DC90 00 00 00 00 00 00 00 00 00 00 00 00 00 00 00 00 ................
0040DCA0 00 00 00 00 00 00 00 00 00 00 00 00 00 00 00 00 ................
0040DCB0 00 00 00 00 00 00 00 00 00 00 00 00 00 00 00 00 ................
0040DCC0 00 00 00 00 00 00 00 00 00 00 00 00 00 00 00 00 ................
0040DCD0 00 00 00 00 00 00 00 00 00 00 00 00 00 00 00 00 ................
0040DCE0 00 00 00 00 00 00 00 00 00 00 00 00 00 00 00 00 ................
0040DCF0 00 00 00 00 00 00 00 00 00 00 00 00 00 00 00 00 ................
0040DD00 00 00 00 00 00 00 00 00 00 00 00 00 00 00 00 00 ................
0040DD10 00 00 00 00 00 00 00 00 00 00 00 00 00 00 00 00 ................
0040DD20 00 00 00 00 00 00 00 00 00 00 00 00 00 00 00 00 ................
0040DD30 00 00 00 00 00 00 00 00 00 00 00 00 00 00 00 00 ................
0040DD40 00 00 00 00 00 00 00 00 00 00 00 00 00 00 00 00 ................
0040DD50 00 00 00 00 00 00 00 00 00 00 00 00 00 00 00 00 ................
0040DD60 00 00 00 00 00 00 00 00 00 00 00 00 00 00 00 00 ................
0040DD70 00 00 00 00 00 00 00 00 00 00 00 00 00 00 00 00 ................
0040DD80 00 00 00 00 00 00 00 00 00 00 00 00 00 00 00 00 ................
0040DD90 00 00 00 00 00 00 00 00 00 00 00 00 00 00 00 00 ................
0040DDA0 00 00 00 00 00 00 00 00 00 00 00 00 00 00 00 00 ................
0040DDB0 00 00 00 00 00 00 00 00 00 00 00 00 00 00 00 00 ................
0040DDC0 00 00 00 00 00 00 00 00 00 00 00 00 00 00 00 00 ................
0040DDD0 00 00 00 00 00 00 00 00 00 00 00 00 00 00 00 00 ................
0040DDE0 00 00 00 00 00 00 00 00 00 00 00 00 00 00 00 00 ................
0040DDF0 00 00 00 00 00 00 00 00 00 00 00 00 00 00 00 00 ................
0040DE00 00 00 00 00 00 00 00 00 00 00 00 00 00 00 00 00 ................
0040DE10 00 00 00 00 00 00 00 00 00 00 00 00 00 00 00 00 ................
0040DE20 00 00 00 00 00 00 00 00 00 00 00 00 00 00 00 00 ................
0040DE30 00 00 00 00 00 00 00 00 00 00 00 00 00 00 00 00 ................
0040DE40 00 00 00 00 00 00 00 00 00 00 00 00 00 00 00 00 ................
0040DE50 00 00 00 00 00 00 00 00 00 00 00 00 00 00 00 00 ................
0040DE60 00 00 00 00 00 00 00 00 00 00 00 00 00 00 00 00 ................
0040DE70 00 00 00 00 00 00 00 00 00 00 00 00 00 00 00 00 ................
0040DE80 00 00 00 00 00 00 00 00 00 00 00 00 00 00 00 00 ................
0040DE90 00 00 00 00 00 00 00 00 00 00 00 00 00 00 00 00 ................
0040DEA0 00 00 00 00 00 00 00 00 00 00 00 00 00 00 00 00 ................
0040DEB0 00 00 00 00 00 00 00 00 00 00 00 00 00 00 00 00 ................
0040DEC0 00 00 00 00 00 00 00 00 00 00 00 00 00 00 00 00 ................
0040DED0 00 00 00 00 00 00 00 00 00 00 00 00 00 00 00 00 ................
0040DEE0 00 00 00 00 00 00 00 00 00 00 00 00 00 00 00 00 ................
0040DEF0 00 00 00 00 00 00 00 00 00 00 00 00 00 00 00 00 ................
0040DF00 00 00 00 00 00 00 00 00 00 00 00 00 00 00 00 00 ................
0040DF10 00 00 00 00 00 00 00 00 00 00 00 00 00 00 00 00 ................
0040DF20 00 00 00 00 00 00 00 00 00 00 00 00 00 00 00 00 ................
0040DF30 00 00 00 00 00 00 00 00 00 00 00 00 00 00 00 00 ................
0040DF40 00 00 00 00 00 00 00 00 00 00 00 00 00 00 00 00 ................
0040DF50 00 00 00 00 00 00 00 00 00 00 00 00 00 00 00 00 ................
0040DF60 00 00 00 00 00 00 00 00 00 00 00 00 00 00 00 00 ................
0040DF70 00 00 00 00 00 00 00 00 00 00 00 00 00 00 00 00 ................
0040DF80 00 00 00 00 00 00 00 00 00 00 00 00 00 00 00 00 ................
0040DF90 00 00 00 00 00 00 00 00 00 00 00 00 00 00 00 00 ................
0040DFA0 00 00 00 00 00 00 00 00 00 00 00 00 00 00 00 00 ................
0040DFB0 00 00 00 00 00 00 00 00 00 00 00 00 00 00 00 00 ................
0040DFC0 00 00 00 00 00 00 00 00 00 00 00 00 00 00 00 00 ................
0040DFD0 00 00 00 00 00 00 00 00 00 00 00 00 00 00 00 00 ................
0040DFE0 00 00 00 00 00 00 00 00 00 00 00 00 00 00 00 00 ................
0040DFF0 00 00 00 00 00 00 00 00 00 00 00 00 00 00 00 00 ................
0040E000 00 00 00 00 00 00 00 00 00 00 00 00 00 00 00 00 ................
0040E010 00 00 00 00 00 00 00 00 00 00 00 00 00 00 00 00 ................
0040E020 00 00 00 00 00 00 00 00 00 00 00 00 00 00 00 00 ................
0040E030 00 00 00 00 00 00 00 00 00 00 00 00 00 00 00 00 ................
0040E040 00 00 00 00 00 00 00 00 00 00 00 00 00 00 00 00 ................
0040E050 00 00 00 00 00 00 00 00 00 00 00 00 00 00 00 00 ................
0040E060 00 00 00 00 00 00 00 00 00 00 00 00 00 00 00 00 ................
0040E070 00 00 00 00 00 00 00 00 00 00 00 00 00 00 00 00 ................
0040E080 00 00 00 00 00 00 00 00 00 00 00 00 00 00 00 00 ................
0040E090 00 00 00 00 00 00 00 00 00 00 00 00 00 00 00 00 ................
0040E0A0 00 00 00 00 00 00 00 00 00 00 00 00 00 00 00 00 ................
0040E0B0 00 00 00 00 00 00 00 00 00 00 00 00 00 00 00 00 ................
0040E0C0 00 00 00 00 00 00 00 00 00 00 00 00 00 00 00 00 ................
0040E0D0 00 00 00 00 00 00 00 00 00 00 00 00 00 00 00 00 ................
0040E0E0 00 00 00 00 00 00 00 00 00 00 00 00 00 00 00 00 ................
0040E0F0 00 00 00 00 00 00 00 00 00 00 00 00 00 00 00 00 ................
0040E100 00 00 00 00 00 00 00 00 00 00 00 00 00 00 00 00 ................
0040E110 00 00 00 00 00 00 00 00 00 00 00 00 00 00 00 00 ................
0040E120 00 00 00 00 00 00 00 00 00 00 00 00 00 00 00 00 ................
0040E130 00 00 00 00 00 00 00 00 00 00 00 00 00 00 00 00 ................
0040E140 00 00 00 00 00 00 00 00 00 00 00 00 00 00 00 00 ................
0040E150 00 00 00 00 00 00 00 00 00 00 00 00 00 00 00 00 ................
0040E160 00 00 00 00 00 00 00 00 00 00 00 00 00 00 00 00 ................
0040E170 00 00 00 00 00 00 00 00 00 00 00 00 00 00 00 00 ................
0040E180 00 00 00 00 00 00 00 00 00 00 00 00 00 00 00 00 ................
0040E190 00 00 00 00 00 00 00 00 00 00 00 00 00 00 00 00 ................
0040E1A0 00 00 00 00 00 00 00 00 00 00 00 00 00 00 00 00 ................
0040E1B0 00 00 00 00 00 00 00 00 00 00 00 00 00 00 00 00 ................
0040E1C0 00 00 00 00 00 00 00 00 00 00 00 00 00 00 00 00 ................
0040E1D0 00 00 00 00 00 00 00 00 00 00 00 00 00 00 00 00 ................
0040E1E0 00 00 00 00 00 00 00 00 00 00 00 00 00 00 00 00 ................
0040E1F0 00 00 00 00 00 00 00 00 00 00 00 00 00 00 00 00 ................
0040E200 00 00 00 00 00 00 00 00 00 00 00 00 00 00 00 00 ................
0040E210 00 00 00 00 00 00 00 00 00 00 00 00 00 00 00 00 ................
0040E220 00 00 00 00 00 00 00 00 00 00 00 00 00 00 00 00 ................
0040E230 00 00 00 00 00 00 00 00 00 00 00 00 00 00 00 00 ................
0040E240 00 00 00 00 00 00 00 00 00 00 00 00 00 00 00 00 ................
0040E250 00 00 00 00 00 00 00 00 00 00 00 00 00 00 00 00 ................
0040E260 00 00 00 00 00 00 00 00 00 00 00 00 00 00 00 00 ................
0040E270 00 00 00 00 00 00 00 00 00 00 00 00 00 00 00 00 ................
0040E280 00 00 00 00 00 00 00 00 00 00 00 00 00 00 00 00 ................
0040E290 00 00 00 00 00 00 00 00 00 00 00 00 00 00 00 00 ................
0040E2A0 00 00 00 00 00 00 00 00 00 00 00 00 00 00 00 00 ................
0040E2B0 00 00 00 00 00 00 00 00 00 00 00 00 00 00 00 00 ................
0040E2C0 00 00 00 00 00 00 00 00 00 00 00 00 00 00 00 00 ................
0040E2D0 00 00 00 00 00 00 00 00 00 00 00 00 00 00 00 00 ................
0040E2E0 00 00 00 00 00 00 00 00 00 00 00 00 00 00 00 00 ................
0040E2F0 00 00 00 00 00 00 00 00 00 00 00 00 00 00 00 00 ................
0040E300 00 00 00 00 00 00 00 00 00 00 00 00 00 00 00 00 ................
0040E310 00 00 00 00 00 00 00 00 00 00 00 00 00 00 00 00 ................
0040E320 00 00 00 00 00 00 00 00 00 00 00 00 00 00 00 00 ................
0040E330 00 00 00 00 00 00 00 00 00 00 00 00 00 00 00 00 ................
0040E340 00 00 00 00 00 00 00 00 00 00 00 00 00 00 00 00 ................
0040E350 00 00 00 00 00 00 00 00 00 00 00 00 00 00 00 00 ................
0040E360 00 00 00 00 00 00 00 00 00 00 00 00 00 00 00 00 ................
0040E370 00 00 00 00 00 00 00 00 00 00 00 00 00 00 00 00 ................
0040E380 00 00 00 00 00 00 00 00 00 00 00 00 00 00 00 00 ................
0040E390 00 00 00 00 00 00 00 00 00 00 00 00 00 00 00 00 ................
0040E3A0 00 00 00 00 00 00 00 00 00 00 00 00 00 00 00 00 ................
0040E3B0 00 00 00 00 00 00 00 00 00 00 00 00 00 00 00 00 ................
0040E3C0 00 00 00 00 00 00 00 00 00 00 00 00 00 00 00 00 ................
0040E3D0 00 00 00 00 00 00 00 00 00 00 00 00 00 00 00 00 ................
0040E3E0 00 00 00 00 00 00 00 00 00 00 00 00 00 00 00 00 ................
0040E3F0 00 00 00 00 00 00 00 00 00 00 00 00 00 00 00 00 ................
0040E400 00 00 00 00 00 00 00 00 00 00 00 00 00 00 00 00 ................
0040E410 00 00 00 00 00 00 00 00 00 00 00 00 00 00 00 00 ................
0040E420 00 00 00 00 00 00 00 00 00 00 00 00 00 00 00 00 ................
0040E430 00 00 00 00 00 00 00 00 00 00 00 00 00 00 00 00 ................
0040E440 00 00 00 00 00 00 00 00 00 00 00 00 00 00 00 00 ................
0040E450 00 00 00 00 00 00 00 00 00 00 00 00 00 00 00 00 ................
0040E460 00 00 00 00 00 00 00 00 00 00 00 00 00 00 00 00 ................
0040E470 00 00 00 00 00 00 00 00 00 00 00 00 00 00 00 00 ................
0040E480 00 00 00 00 00 00 00 00 00 00 00 00 00 00 00 00 ................
0040E490 00 00 00 00 00 00 00 00 00 00 00 00 00 00 00 00 ................
0040E4A0 00 00 00 00 00 00 00 00 00 00 00 00 00 00 00 00 ................
0040E4B0 00 00 00 00 00 00 00 00 00 00 00 00 00 00 00 00 ................
0040E4C0 00 00 00 00 00 00 00 00 00 00 00 00 00 00 00 00 ................
0040E4D0 00 00 00 00 00 00 00 00 00 00 00 00 00 00 00 00 ................
0040E4E0 00 00 00 00 00 00 00 00 00 00 00 00 00 00 00 00 ................
0040E4F0 00 00 00 00 00 00 00 00 00 00 00 00 00 00 00 00 ................
0040E500 00 00 00 00 00 00 00 00 00 00 00 00 00 00 00 00 ................
0040E510 00 00 00 00 00 00 00 00 00 00 00 00 00 00 00 00 ................
0040E520 00 00 00 00 00 00 00 00 00 00 00 00 00 00 00 00 ................
0040E530 00 00 00 00 00 00 00 00 00 00 00 00 00 00 00 00 ................
0040E540 00 00 00 00 00 00 00 00 00 00 00 00 00 00 00 00 ................
0040E550 00 00 00 00 00 00 00 00 00 00 00 00 00 00 00 00 ................
0040E560 00 00 00 00 00 00 00 00 00 00 00 00 00 00 00 00 ................
0040E570 00 00 00 00 00 00 00 00 00 00 00 00 00 00 00 00 ................
0040E580 00 00 00 00 00 00 00 00 00 00 00 00 00 00 00 00 ................
0040E590 00 00 00 00 00 00 00 00 00 00 00 00 00 00 00 00 ................
0040E5A0 00 00 00 00 00 00 00 00 00 00 00 00 00 00 00 00 ................
0040E5B0 00 00 00 00 00 00 00 00 00 00 00 00 00 00 00 00 ................
0040E5C0 00 00 00 00 00 00 00 00 00 00 00 00 00 00 00 00 ................
0040E5D0 00 00 00 00 00 00 00 00 00 00 00 00 00 00 00 00 ................
0040E5E0 00 00 00 00 00 00 00 00 00 00 00 00 00 00 00 00 ................
0040E5F0 00 00 00 00 00 00 00 00 00 00 00 00 00 00 00 00 ................
0040E600 00 00 00 00 00 00 00 00 00 00 00 00 00 00 00 00 ................
0040E610 00 00 00 00 00 00 00 00 00 00 00 00 00 00 00 00 ................
0040E620 00 00 00 00 00 00 00 00 00 00 00 00 00 00 00 00 ................
0040E630 00 00 00 00 00 00 00 00 00 00 00 00 00 00 00 00 ................
0040E640 00 00 00 00 00 00 00 00 00 00 00 00 00 00 00 00 ................
0040E650 00 00 00 00 00 00 00 00 00 00 00 00 00 00 00 00 ................
0040E660 00 00 00 00 00 00 00 00 00 00 00 00 00 00 00 00 ................
0040E670 00 00 00 00 00 00 00 00 00 00 00 00 00 00 00 00 ................
0040E680 00 00 00 00 00 00 00 00 00 00 00 00 00 00 00 00 ................
0040E690 00 00 00 00 00 00 00 00 00 00 00 00 00 00 00 00 ................
0040E6A0 00 00 00 00 00 00 00 00 00 00 00 00 00 00 00 00 ................
0040E6B0 00 00 00 00 00 00 00 00 00 00 00 00 00 00 00 00 ................
0040E6C0 00 00 00 00 00 00 00 00 00 00 00 00 00 00 00 00 ................
0040E6D0 00 00 00 00 00 00 00 00 00 00 00 00 00 00 00 00 ................
0040E6E0 00 00 00 00 00 00 00 00 00 00 00 00 00 00 00 00 ................
0040E6F0 00 00 00 00 00 00 00 00 00 00 00 00 00 00 00 00 ................
0040E700 00 00 00 00 00 00 00 00 00 00 00 00 00 00 00 00 ................
0040E710 00 00 00 00 00 00 00 00 00 00 00 00 00 00 00 00 ................
0040E720 00 00 00 00 00 00 00 00 00 00 00 00 00 00 00 00 ................
0040E730 00 00 00 00 00 00 00 00 00 00 00 00 00 00 00 00 ................
0040E740 00 00 00 00 00 00 00 00 00 00 00 00 00 00 00 00 ................
0040E750 00 00 00 00 00 00 00 00 00 00 00 00 00 00 00 00 ................
0040E760 00 00 00 00 00 00 00 00 00 00 00 00 00 00 00 00 ................
0040E770 00 00 00 00 00 00 00 00 00 00 00 00 00 00 00 00 ................
0040E780 00 00 00 00 00 00 00 00 00 00 00 00 00 00 00 00 ................
0040E790 00 00 00 00 00 00 00 00 00 00 00 00 00 00 00 00 ................
0040E7A0 00 00 00 00 00 00 00 00 00 00 00 00 00 00 00 00 ................
0040E7B0 00 00 00 00 00 00 00 00 00 00 00 00 00 00 00 00 ................
0040E7C0 00 00 00 00 00 00 00 00 00 00 00 00 00 00 00 00 ................
0040E7D0 00 00 00 00 00 00 00 00 00 00 00 00 00 00 00 00 ................
0040E7E0 00 00 00 00 00 00 00 00 00 00 00 00 00 00 00 00 ................
0040E7F0 00 00 00 00 00 00 00 00 00 00 00 00 00 00 00 00 ................
0040E800 00 00 00 00 00 00 00 00 00 00 00 00 00 00 00 00 ................
0040E810 00 00 00 00 00 00 00 00 00 00 00 00 00 00 00 00 ................
0040E820 00 00 00 00 00 00 00 00 00 00 00 00 00 00 00 00 ................
0040E830 00 00 00 00 00 00 00 00 00 00 00 00 00 00 00 00 ................
0040E840 00 00 00 00 00 00 00 00 00 00 00 00 00 00 00 00 ................
0040E850 00 00 00 00 00 00 00 00 00 00 00 00 00 00 00 00 ................
0040E860 00 00 00 00 00 00 00 00 00 00 00 00 00 00 00 00 ................
0040E870 00 00 00 00 00 00 00 00 00 00 00 00 00 00 00 00 ................
0040E880 00 00 00 00 00 00 00 00 00 00 00 00 00 00 00 00 ................
0040E890 00 00 00 00 00 00 00 00 00 00 00 00 00 00 00 00 ................
0040E8A0 00 00 00 00 00 00 00 00 00 00 00 00 00 00 00 00 ................
0040E8B0 00 00 00 00 00 00 00 00 00 00 00 00 00 00 00 00 ................
0040E8C0 00 00 00 00 00 00 00 00 00 00 00 00 00 00 00 00 ................
0040E8D0 00 00 00 00 00 00 00 00 00 00 00 00 00 00 00 00 ................
0040E8E0 00 00 00 00 00 00 00 00 00 00 00 00 00 00 00 00 ................
0040E8F0 00 00 00 00 00 00 00 00 00 00 00 00 00 00 00 00 ................
0040E900 00 00 00 00 00 00 00 00 00 00 00 00 00 00 00 00 ................
0040E910 00 00 00 00 00 00 00 00 00 00 00 00 00 00 00 00 ................
0040E920 00 00 00 00 00 00 00 00 00 00 00 00 00 00 00 00 ................
0040E930 00 00 00 00 00 00 00 00 00 00 00 00 00 00 00 00 ................
0040E940 00 00 00 00 00 00 00 00 00 00 00 00 00 00 00 00 ................
0040E950 00 00 00 00 00 00 00 00 00 00 00 00 00 00 00 00 ................
0040E960 00 00 00 00 00 00 00 00 00 00 00 00 00 00 00 00 ................
0040E970 00 00 00 00 00 00 00 00 00 00 00 00 00 00 00 00 ................
0040E980 00 00 00 00 00 00 00 00 00 00 00 00 00 00 00 00 ................
0040E990 00 00 00 00 00 00 00 00 00 00 00 00 00 00 00 00 ................
0040E9A0 00 00 00 00 00 00 00 00 00 00 00 00 00 00 00 00 ................
0040E9B0 00 00 00 00 00 00 00 00 00 00 00 00 00 00 00 00 ................
0040E9C0 00 00 00 00 00 00 00 00 00 00 00 00 00 00 00 00 ................
0040E9D0 00 00 00 00 00 00 00 00 00 00 00 00 00 00 00 00 ................
0040E9E0 00 00 00 00 00 00 00 00 00 00 00 00 00 00 00 00 ................
0040E9F0 00 00 00 00 00 00 00 00 00 00 00 00 00 00 00 00 ................
0040EA00 00 00 00 00 00 00 00 00 00 00 00 00 00 00 00 00 ................
0040EA10 00 00 00 00 00 00 00 00 00 00 00 00 00 00 00 00 ................
0040EA20 00 00 00 00 00 00 00 00 00 00 00 00 00 00 00 00 ................
0040EA30 00 00 00 00 00 00 00 00 00 00 00 00 00 00 00 00 ................
0040EA40 00 00 00 00 00 00 00 00 00 00 00 00 00 00 00 00 ................
0040EA50 00 00 00 00 00 00 00 00 00 00 00 00 00 00 00 00 ................
0040EA60 00 00 00 00 00 00 00 00 00 00 00 00 00 00 00 00 ................
0040EA70 00 00 00 00 00 00 00 00 00 00 00 00 00 00 00 00 ................
0040EA80 00 00 00 00 00 00 00 00 00 00 00 00 00 00 00 00 ................
0040EA90 00 00 00 00 00 00 00 00 00 00 00 00 00 00 00 00 ................
0040EAA0 00 00 00 00 00 00 00 00 00 00 00 00 00 00 00 00 ................
0040EAB0 00 00 00 00 00 00 00 00 00 00 00 00 00 00 00 00 ................
0040EAC0 00 00 00 00 00 00 00 00 00 00 00 00 00 00 00 00 ................
0040EAD0 00 00 00 00 00 00 00 00 00 00 00 00 00 00 00 00 ................
0040EAE0 00 00 00 00 00 00 00 00 00 00 00 00 00 00 00 00 ................
0040EAF0 00 00 00 00 00 00 00 00 00 00 00 00 00 00 00 00 ................
0040EB00 00 00 00 00 00 00 00 00 00 00 00 00 00 00 00 00 ................
0040EB10 00 00 00 00 00 00 00 00 00 00 00 00 00 00 00 00 ................
0040EB20 00 00 00 00 00 00 00 00 00 00 00 00 00 00 00 00 ................
0040EB30 00 00 00 00 00 00 00 00 00 00 00 00 00 00 00 00 ................
0040EB40 00 00 00 00 00 00 00 00 00 00 00 00 00 00 00 00 ................
0040EB50 00 00 00 00 00 00 00 00 00 00 00 00 00 00 00 00 ................
0040EB60 00 00 00 00 00 00 00 00 00 00 00 00 00 00 00 00 ................
0040EB70 00 00 00 00 00 00 00 00 00 00 00 00 00 00 00 00 ................
0040EB80 00 00 00 00 00 00 00 00 00 00 00 00 00 00 00 00 ................
0040EB90 00 00 00 00 00 00 00 00 00 00 00 00 00 00 00 00 ................
0040EBA0 00 00 00 00 00 00 00 00 00 00 00 00 00 00 00 00 ................
0040EBB0 00 00 00 00 00 00 00 00 00 00 00 00 00 00 00 00 ................
0040EBC0 00 00 00 00 00 00 00 00 00 00 00 00 00 00 00 00 ................
0040EBD0 00 00 00 00 00 00 00 00 00 00 00 00 00 00 00 00 ................
0040EBE0 00 00 00 00 00 00 00 00 00 00 00 00 00 00 00 00 ................
0040EBF0 00 00 00 00 00 00 00 00 00 00 00 00 00 00 00 00 ................
0040EC00 00 00 00 00 00 00 00 00 00 00 00 00 00 00 00 00 ................
0040EC10 00 00 00 00 00 00 00 00 00 00 00 00 00 00 00 00 ................
0040EC20 00 00 00 00 00 00 00 00 00 00 00 00 00 00 00 00 ................
0040EC30 00 00 00 00 00 00 00 00 00 00 00 00 00 00 00 00 ................
0040EC40 00 00 00 00 00 00 00 00 00 00 00 00 00 00 00 00 ................
0040EC50 00 00 00 00 00 00 00 00 00 00 00 00 00 00 00 00 ................
0040EC60 00 00 00 00 00 00 00 00 00 00 00 00 00 00 00 00 ................
0040EC70 00 00 00 00 00 00 00 00 00 00 00 00 00 00 00 00 ................
0040EC80 00 00 00 00 00 00 00 00 00 00 00 00 00 00 00 00 ................
0040EC90 00 00 00 00 00 00 00 00 00 00 00 00 00 00 00 00 ................
0040ECA0 00 00 00 00 00 00 00 00 00 00 00 00 00 00 00 00 ................
0040ECB0 00 00 00 00 00 00 00 00 00 00 00 00 00 00 00 00 ................
0040ECC0 00 00 00 00 00 00 00 00 00 00 00 00 00 00 00 00 ................
0040ECD0 00 00 00 00 00 00 00 00 00 00 00 00 00 00 00 00 ................
0040ECE0 00 00 00 00 00 00 00 00 00 00 00 00 00 00 00 00 ................
0040ECF0 00 00 00 00 00 00 00 00 00 00 00 00 00 00 00 00 ................
0040ED00 00 00 00 00 00 00 00 00 00 00 00 00 00 00 00 00 ................
0040ED10 00 00 00 00 00 00 00 00 00 00 00 00 00 00 00 00 ................
0040ED20 00 00 00 00 00 00 00 00 00 00 00 00 00 00 00 00 ................
0040ED30 00 00 00 00 00 00 00 00 00 00 00 00 00 00 00 00 ................
0040ED40 00 00 00 00 00 00 00 00 00 00 00 00 00 00 00 00 ................
0040ED50 00 00 00 00 00 00 00 00 00 00 00 00 00 00 00 00 ................
0040ED60 00 00 00 00 00 00 00 00 00 00 00 00 00 00 00 00 ................
0040ED70 00 00 00 00 00 00 00 00 00 00 00 00 00 00 00 00 ................
0040ED80 00 00 00 00 00 00 00 00 00 00 00 00 00 00 00 00 ................
0040ED90 00 00 00 00 00 00 00 00 00 00 00 00 00 00 00 00 ................
0040EDA0 00 00 00 00 00 00 00 00 00 00 00 00 00 00 00 00 ................
0040EDB0 00 00 00 00 00 00 00 00 00 00 00 00 00 00 00 00 ................
0040EDC0 00 00 00 00 00 00 00 00 00 00 00 00 00 00 00 00 ................
0040EDD0 00 00 00 00 00 00 00 00 00 00 00 00 00 00 00 00 ................
0040EDE0 00 00 00 00 00 00 00 00 00 00 00 00 00 00 00 00 ................
0040EDF0 00 00 00 00 00 00 00 00 00 00 00 00 00 00 00 00 ................
0040EE00 00 00 00 00 00 00 00 00 00 00 00 00 00 00 00 00 ................
0040EE10 00 00 00 00 00 00 00 00 00 00 00 00 00 00 00 00 ................
0040EE20 00 00 00 00 00 00 00 00 00 00 00 00 00 00 00 00 ................
0040EE30 00 00 00 00 00 00 00 00 00 00 00 00 00 00 00 00 ................
0040EE40 00 00 00 00 00 00 00 00 00 00 00 00 00 00 00 00 ................
0040EE50 00 00 00 00 00 00 00 00 00 00 00 00 00 00 00 00 ................
0040EE60 00 00 00 00 00 00 00 00 00 00 00 00 00 00 00 00 ................
0040EE70 00 00 00 00 00 00 00 00 00 00 00 00 00 00 00 00 ................
0040EE80 00 00 00 00 00 00 00 00 00 00 00 00 00 00 00 00 ................
0040EE90 00 00 00 00 00 00 00 00 00 00 00 00 00 00 00 00 ................
0040EEA0 00 00 00 00 00 00 00 00 00 00 00 00 00 00 00 00 ................
0040EEB0 00 00 00 00 00 00 00 00 00 00 00 00 00 00 00 00 ................
0040EEC0 00 00 00 00 00 00 00 00 00 00 00 00 00 00 00 00 ................
0040EED0 00 00 00 00 00 00 00 00 00 00 00 00 00 00 00 00 ................
0040EEE0 00 00 00 00 00 00 00 00 00 00 00 00 00 00 00 00 ................
0040EEF0 00 00 00 00 00 00 00 00 00 00 00 00 00 00 00 00 ................
0040EF00 00 00 00 00 00 00 00 00 00 00 00 00 00 00 00 00 ................
0040EF10 00 00 00 00 00 00 00 00 00 00 00 00 00 00 00 00 ................
0040EF20 00 00 00 00 00 00 00 00 00 00 00 00 00 00 00 00 ................
0040EF30 00 00 00 00 00 00 00 00 00 00 00 00 00 00 00 00 ................
0040EF40 00 00 00 00 00 00 00 00 00 00 00 00 00 00 00 00 ................
0040EF50 00 00 00 00 00 00 00 00 00 00 00 00 00 00 00 00 ................
0040EF60 00 00 00 00 00 00 00 00 00 00 00 00 00 00 00 00 ................
0040EF70 00 00 00 00 00 00 00 00 00 00 00 00 00 00 00 00 ................
0040EF80 00 00 00 00 00 00 00 00 00 00 00 00 00 00 00 00 ................
0040EF90 00 00 00 00 00 00 00 00 00 00 00 00 00 00 00 00 ................
0040EFA0 00 00 00 00 00 00 00 00 00 00 00 00 00 00 00 00 ................
0040EFB0 00 00 00 00 00 00 00 00 00 00 00 00 00 00 00 00 ................
0040EFC0 00 00 00 00 00 00 00 00 00 00 00 00 00 00 00 00 ................
0040EFD0 00 00 00 00 00 00 00 00 00 00 00 00 00 00 00 00 ................
0040EFE0 00 00 00 00 00 00 00 00 00 00 00 00 00 00 00 00 ................
0040EFF0 00 00 00 00 00 00 00 00 00 00 00 00 00 00 00 00 ................
0040F000 D0 F2 00 00 E8 F2 00 00 FA F2 00 00 08 F3 00 00 ................
0040F010 1C F3 00 00 2C F3 00 00 42 F3 00 00 5C F3 00 00 ....,...B...\...
0040F020 72 F3 00 00 88 F3 00 00 98 F3 00 00 AE F3 00 00 r...............
0040F030 BC F3 00 00 D2 F3 00 00 E8 F3 00 00 F4 F3 00 00 ................
0040F040 0A F4 00 00 26 F4 00 00 38 F4 00 00 48 F4 00 00 ....&...8...H...
0040F050 60 F4 00 00 7A F4 00 00 8A F4 00 00 9E F4 00 00 `...z...........
0040F060 B6 F4 00 00 C2 F4 00 00 D0 F4 00 00 DC F4 00 00 ................
0040F070 EC F4 00 00 FA F4 00 00 14 F5 00 00 2A F5 00 00 ............*...
0040F080 38 F5 00 00 48 F5 00 00 5A F5 00 00 6A F5 00 00 8...H...Z...j...
0040F090 78 F5 00 00 90 F5 00 00 A8 F5 00 00 B0 F5 00 00 x...............
0040F0A0 C8 F5 00 00 E0 F5 00 00 00 00 00 00 06 F6 00 00 ................
0040F0B0 1C F6 00 00 2A F6 00 00 3C F6 00 00 4E F6 00 00 ....*...<...N...
0040F0C0 5C F6 00 00 6E F6 00 00 7E F6 00 00 8A F6 00 00 \...n...~.......
0040F0D0 96 F6 00 00 A8 F6 00 00 B6 F6 00 00 C0 F6 00 00 ................
0040F0E0 D4 F6 00 00 E0 F6 00 00 F4 F6 00 00 0A F7 00 00 ................
0040F0F0 18 F7 00 00 26 F7 00 00 38 F7 00 00 46 F7 00 00 ....&...8...F...
0040F100 54 F7 00 00 62 F7 00 00 76 F7 00 00 88 F7 00 00 T...b...v.......
0040F110 96 F7 00 00 A6 F7 00 00 BC F7 00 00 CE F7 00 00 ................
0040F120 E0 F7 00 00 F2 F7 00 00 00 F8 00 00 10 F8 00 00 ................
0040F130 1C F8 00 00 34 F8 00 00 40 F8 00 00 52 F8 00 00 ....4...@...R...
0040F140 5E F8 00 00 00 00 00 00 00 00 00 00 88 F1 00 00 ^...............
0040F150 00 00 00 00 00 00 00 00 F8 F5 00 00 00 F0 00 00 ................
0040F160 34 F2 00 00 00 00 00 00 00 00 00 00 6C F8 00 00 4...........l...
0040F170 AC F0 00 00 00 00 00 00 00 00 00 00 00 00 00 00 ................
0040F180 00 00 00 00 00 00 00 00 D0 F2 00 00 E8 F2 00 00 ................
0040F190 FA F2 00 00 08 F3 00 00 1C F3 00 00 2C F3 00 00 ............,...
0040F1A0 42 F3 00 00 5C F3 00 00 72 F3 00 00 88 F3 00 00 B...\...r.......
0040F1B0 98 F3 00 00 AE F3 00 00 BC F3 00 00 D2 F3 00 00 ................
0040F1C0 E8 F3 00 00 F4 F3 00 00 0A F4 00 00 26 F4 00 00 ............&...
0040F1D0 38 F4 00 00 48 F4 00 00 60 F4 00 00 7A F4 00 00 8...H...`...z...
0040F1E0 8A F4 00 00 9E F4 00 00 B6 F4 00 00 C2 F4 00 00 ................
0040F1F0 D0 F4 00 00 DC F4 00 00 EC F4 00 00 FA F4 00 00 ................
0040F200 14 F5 00 00 2A F5 00 00 38 F5 00 00 48 F5 00 00 ....*...8...H...
0040F210 5A F5 00 00 6A F5 00 00 78 F5 00 00 90 F5 00 00 Z...j...x.......
0040F220 A8 F5 00 00 B0 F5 00 00 C8 F5 00 00 E0 F5 00 00 ................
0040F230 00 00 00 00 06 F6 00 00 1C F6 00 00 2A F6 00 00 ............*...
0040F240 3C F6 00 00 4E F6 00 00 5C F6 00 00 6E F6 00 00 <...N...\...n...
0040F250 7E F6 00 00 8A F6 00 00 96 F6 00 00 A8 F6 00 00 ~...............
0040F260 B6 F6 00 00 C0 F6 00 00 D4 F6 00 00 E0 F6 00 00 ................
0040F270 F4 F6 00 00 0A F7 00 00 18 F7 00 00 26 F7 00 00 ............&...
0040F280 38 F7 00 00 46 F7 00 00 54 F7 00 00 62 F7 00 00 8...F...T...b...
0040F290 76 F7 00 00 88 F7 00 00 96 F7 00 00 A6 F7 00 00 v...............
0040F2A0 BC F7 00 00 CE F7 00 00 E0 F7 00 00 F2 F7 00 00 ................
0040F2B0 00 F8 00 00 10 F8 00 00 1C F8 00 00 34 F8 00 00 ............4...
0040F2C0 40 F8 00 00 52 F8 00 00 5E F8 00 00 00 00 00 00 @...R...^.......
0040F2D0 05 00 49 6E 74 65 72 6C 6F 63 6B 65 64 49 6E 63 ..InterlockedInc
0040F2E0 72 65 6D 65 6E 74 00 00 06 00 47 65 74 43 6F 6D rement....GetCom
0040F2F0 6D 61 6E 64 4C 69 6E 65 41 00 09 00 45 78 69 74 mandLineA...Exit
0040F300 50 72 6F 63 65 73 73 00 0B 00 47 65 74 43 75 72 Process...GetCur
0040F310 72 65 6E 74 50 72 6F 63 65 73 73 00 0C 00 4C 6F rentProcess...Lo
0040F320 61 64 4C 69 62 72 61 72 79 57 00 00 0E 00 47 65 adLibraryW....Ge
0040F330 74 4D 6F 64 75 6C 65 46 69 6C 65 4E 61 6D 65 41 tModuleFileNameA
0040F340 00 00 13 00 47 65 74 53 79 73 74 65 6D 54 69 6D ....GetSystemTim
0040F350 65 41 73 46 69 6C 65 54 69 6D 65 00 19 00 57 61 eAsFileTime...Wa
0040F360 69 74 46 6F 72 53 69 6E 67 6C 65 4F 62 6A 65 63 itForSingleObjec
0040F370 74 00 1F 00 57 69 64 65 43 68 61 72 54 6F 4D 75 t...WideCharToMu
0040F380 6C 74 69 42 79 74 65 00 20 00 56 69 72 74 75 61 ltiByte. .Virtua
0040F390 6C 41 6C 6C 6F 63 00 00 22 00 57 61 69 74 46 6F lAlloc..".WaitFo
0040F3A0 72 53 69 6E 67 6C 65 4F 62 6A 65 63 74 00 23 00 rSingleObject.#.
0040F3B0 43 6C 6F 73 65 48 61 6E 64 6C 65 00 29 00 57 61 CloseHandle.).Wa
0040F3C0 69 74 46 6F 72 53 69 6E 67 6C 65 4F 62 6A 65 63 itForSingleObjec
0040F3D0 74 00 2D 00 57 61 69 74 46 6F 72 53 69 6E 67 6C t.-.WaitForSingl
0040F3E0 65 4F 62 6A 65 63 74 00 2E 00 6C 73 74 72 63 6D eObject...lstrcm
0040F3F0 70 69 57 00 33 00 47 65 74 43 75 72 72 65 6E 74 piW.3.GetCurrent
0040F400 50 72 6F 63 65 73 73 49 64 00 37 00 49 6E 69 74 ProcessId.7.Init
0040F410 69 61 6C 69 7A 65 43 72 69 74 69 63 61 6C 53 65 ializeCriticalSe
0040F420 63 74 69 6F 6E 00 3D 00 47 65 74 53 74 61 72 74 ction.=.GetStart
0040F430 75 70 49 6E 66 6F 41 00 3F 00 56 69 72 74 75 61 upInfoA.?.Virtua
0040F440 6C 41 6C 6C 6F 63 00 00 40 00 49 6E 74 65 72 6C lAlloc..@.Interl
0040F450 6F 63 6B 65 64 44 65 63 72 65 6D 65 6E 74 00 00 ockedDecrement..
0040F460 44 00 47 65 74 53 79 73 74 65 6D 54 69 6D 65 41 D.GetSystemTimeA
0040F470 73 46 69 6C 65 54 69 6D 65 00 48 00 4C 6F 61 64 sFileTime.H.Load
0040F480 4C 69 62 72 61 72 79 57 00 00 4B 00 47 65 74 4D LibraryW..K.GetM
0040F490 6F 64 75 6C 65 48 61 6E 64 6C 65 57 00 00 4E 00 oduleHandleW..N.
0040F4A0 45 6E 74 65 72 43 72 69 74 69 63 61 6C 53 65 63 EnterCriticalSec
0040F4B0 74 69 6F 6E 00 00 54 00 48 65 61 70 46 72 65 65 tion..T.HeapFree
0040F4C0 00 00 58 00 48 65 61 70 52 65 41 6C 6C 6F 63 00 ..X.HeapReAlloc.
0040F4D0 5A 00 4C 6F 63 61 6C 46 72 65 65 00 60 00 43 72 Z.LocalFree.`.Cr
0040F4E0 65 61 74 65 54 68 72 65 61 64 00 00 61 00 43 72 eateThread..a.Cr
0040F4F0 65 61 74 65 46 69 6C 65 57 00 67 00 51 75 65 72 eateFileW.g.Quer
0040F500 79 50 65 72 66 6F 72 6D 61 6E 63 65 43 6F 75 6E yPerformanceCoun
0040F510 74 65 72 00 6A 00 57 69 64 65 43 68 61 72 54 6F ter.j.WideCharTo
0040F520 4D 75 6C 74 69 42 79 74 65 00 6B 00 45 78 69 74 MultiByte.k.Exit
0040F530 50 72 6F 63 65 73 73 00 71 00 4C 6F 61 64 4C 69 Process.q.LoadLi
0040F540 62 72 61 72 79 57 00 00 72 00 47 65 74 43 6F 6D braryW..r.GetCom
0040F550 6D 61 6E 64 4C 69 6E 65 57 00 75 00 4C 6F 61 64 mandLineW.u.Load
0040F560 4C 69 62 72 61 72 79 41 00 00 7A 00 45 78 69 74 LibraryA..z.Exit
0040F570 50 72 6F 63 65 73 73 00 80 00 49 6E 74 65 72 6C Process...Interl
0040F580 6F 63 6B 65 64 49 6E 63 72 65 6D 65 6E 74 00 00 ockedIncrement..
0040F590 81 00 45 6E 74 65 72 43 72 69 74 69 63 61 6C 53 ..EnterCriticalS
0040F5A0 65 63 74 69 6F 6E 00 00 82 00 53 6C 65 65 70 00 ection....Sleep.
0040F5B0 84 00 49 6E 74 65 72 6C 6F 63 6B 65 64 44 65 63 ..InterlockedDec
0040F5C0 72 65 6D 65 6E 74 00 00 88 00 49 6E 74 65 72 6C rement....Interl
0040F5D0 6F 63 6B 65 64 49 6E 63 72 65 6D 65 6E 74 00 00 ockedIncrement..
0040F5E0 8D 00 44 65 6C 65 74 65 43 72 69 74 69 63 61 6C ..DeleteCritical
0040F5F0 53 65 63 74 69 6F 6E 00 4B 45 52 4E 45 4C 33 32 Section.KERNEL32
0040F600 2E 44 4C 4C 00 00 0B 00 49 73 44 6C 67 42 75 74 .DLL....IsDlgBut
0040F610 74 6F 6E 43 68 65 63 6B 65 64 00 00 11 00 4D 65 tonChecked....Me
0040F620 73 73 61 67 65 42 65 65 70 00 14 00 44 69 61 6C ssageBeep...Dial
0040F630 6F 67 42 6F 78 50 61 72 61 6D 57 00 17 00 52 65 ogBoxParamW...Re
0040F640 6C 65 61 73 65 43 61 70 74 75 72 65 00 00 1C 00 leaseCapture....
0040F650 44 65 73 74 72 6F 79 4D 65 6E 75 00 20 00 43 61 DestroyMenu. .Ca
0040F660 6C 6C 57 69 6E 64 6F 77 50 72 6F 63 57 00 21 00 llWindowProcW.!.
0040F670 47 65 74 44 6C 67 43 74 72 6C 49 44 00 00 24 00 GetDlgCtrlID..$.
0040F680 53 65 74 46 6F 63 75 73 00 00 28 00 43 68 61 72 SetFocus..(.Char
0040F690 4E 65 78 74 57 00 2D 00 50 6F 73 74 51 75 69 74 NextW.-.PostQuit
0040F6A0 4D 65 73 73 61 67 65 00 30 00 4D 65 73 73 61 67 Message.0.Messag
0040F6B0 65 42 6F 78 57 00 36 00 53 65 74 52 65 63 74 00 eBoxW.6.SetRect.
0040F6C0 39 00 4C 6F 61 64 41 63 63 65 6C 65 72 61 74 6F 9.LoadAccelerato
0040F6D0 72 73 57 00 3C 00 49 73 57 69 6E 64 6F 77 00 00 rsW.<.IsWindow..
0040F6E0 40 00 49 73 44 69 61 6C 6F 67 4D 65 73 73 61 67 @.IsDialogMessag
0040F6F0 65 57 00 00 43 00 53 65 74 46 6F 72 65 67 72 6F eW..C.SetForegro
0040F700 75 6E 64 57 69 6E 64 6F 77 00 45 00 4C 6F 61 64 undWindow.E.Load
0040F710 53 74 72 69 6E 67 57 00 48 00 4C 6F 61 64 53 74 StringW.H.LoadSt
0040F720 72 69 6E 67 57 00 49 00 53 65 74 57 69 6E 64 6F ringW.I.SetWindo
0040F730 77 4C 6F 6E 67 57 00 00 4E 00 47 65 74 4D 65 73 wLongW..N.GetMes
0040F740 73 61 67 65 57 00 50 00 4C 6F 61 64 53 74 72 69 sageW.P.LoadStri
0040F750 6E 67 57 00 52 00 4D 65 73 73 61 67 65 42 6F 78 ngW.R.MessageBox
0040F760 41 00 54 00 47 65 74 44 65 73 6B 74 6F 70 57 69 A.T.GetDesktopWi
0040F770 6E 64 6F 77 00 00 55 00 50 6F 73 74 51 75 69 74 ndow..U.PostQuit
0040F780 4D 65 73 73 61 67 65 00 5A 00 4C 6F 61 64 49 6D Message.Z.LoadIm
0040F790 61 67 65 57 00 00 5B 00 50 65 65 6B 4D 65 73 73 ageW..[.PeekMess
0040F7A0 61 67 65 57 00 00 5F 00 53 65 74 46 6F 72 65 67 ageW.._.SetForeg
0040F7B0 72 6F 75 6E 64 57 69 6E 64 6F 77 00 61 00 47 65 roundWindow.a.Ge
0040F7C0 74 44 6C 67 49 74 65 6D 54 65 78 74 57 00 67 00 tDlgItemTextW.g.
0040F7D0 44 69 61 6C 6F 67 42 6F 78 50 61 72 61 6D 57 00 DialogBoxParamW.
0040F7E0 69 00 43 68 65 63 6B 44 6C 67 42 75 74 74 6F 6E i.CheckDlgButton
0040F7F0 00 00 6D 00 4D 6F 76 65 57 69 6E 64 6F 77 00 00 ..m.MoveWindow..
0040F800 72 00 50 65 65 6B 4D 65 73 73 61 67 65 57 00 00 r.PeekMessageW..
0040F810 78 00 50 74 49 6E 52 65 63 74 00 00 7C 00 53 79 x.PtInRect..|.Sy
0040F820 73 74 65 6D 50 61 72 61 6D 65 74 65 72 73 49 6E stemParametersIn
0040F830 66 6F 57 00 7D 00 44 72 61 77 54 65 78 74 57 00 foW.}.DrawTextW.
0040F840 7F 00 52 65 6C 65 61 73 65 43 61 70 74 75 72 65 ..ReleaseCapture
0040F850 00 00 81 00 49 73 49 63 6F 6E 69 63 00 00 84 00 ....IsIconic....
0040F860 47 65 74 4D 65 73 73 61 67 65 57 00 55 53 45 52 GetMessageW.USER
0040F870 33 32 2E 44 4C 4C 00 00 00 00 00 00 00 00 00 00 32.DLL..........
0040F880 00 00 00 00 00 00 00 00 00 00 00 00 00 00 00 00 ................
0040F890 00 00 00 00 00 00 00 00 00 00 00 00 00 00 00 00 ................
0040F8A0 00 00 00 00 00 00 00 00 00 00 00 00 00 00 00 00 ................
0040F8B0 00 00 00 00 00 00 00 00 00 00 00 00 00 00 00 00 ................
0040F8C0 00 00 00 00 00 00 00 00 00 00 00 00 00 00 00 00 ................
0040F8D0 00 00 00 00 00 00 00 00 00 00 00 00 00 00 00 00 ................
0040F8E0 00 00 00 00 00 00 00 00 00 00 00 00 00 00 00 00 ................
0040F8F0 00 00 00 00 00 00 00 00 00 00 00 00 00 00 00 00 ................
0040F900 00 00 00 00 00 00 00 00 00 00 00 00 00 00 00 00 ................
0040F910 00 00 00 00 00 00 00 00 00 00 00 00 00 00 00 00 ................
0040F920 00 00 00 00 00 00 00 00 00 00 00 00 00 00 00 00 ................
0040F930 00 00 00 00 00 00 00 00 00 00 00 00 00 00 00 00 ................
0040F940 00 00 00 00 00 00 00 00 00 00 00 00 00 00 00 00 ................
0040F950 00 00 00 00 00 00 00 00 00 00 00 00 00 00 00 00 ................
0040F960 00 00 00 00 00 00 00 00 00 00 00 00 00 00 00 00 ................
0040F970 00 00 00 00 00 00 00 00 00 00 00 00 00 00 00 00 ................
0040F980 00 00 00 00 00 00 00 00 00 00 00 00 00 00 00 00 ................
0040F990 00 00 00 00 00 00 00 00 00 00 00 00 00 00 00 00 ................
0040F9A0 00 00 00 00 00 00 00 00 00 00 00 00 00 00 00 00 ................
0040F9B0 00 00 00 00 00 00 00 00 00 00 00 00 00 00 00 00 ................
0040F9C0 00 00 00 00 00 00 00 00 00 00 00 00 00 00 00 00 ................
0040F9D0 00 00 00 00 00 00 00 00 00 00 00 00 00 00 00 00 ................
0040F9E0 00 00 00 00 00 00 00 00 00 00 00 00 00 00 00 00 ................
0040F9F0 00 00 00 00 00 00 00 00 00 00 00 00 00 00 00 00 ................
0040FA00 00 00 00 00 00 00 00 00 00 00 00 00 00 00 00 00 ................
0040FA10 00 00 00 00 00 00 00 00 00 00 00 00 00 00 00 00 ................
0040FA20 00 00 00 00 00 00 00 00 00 00 00 00 00 00 00 00 ................
0040FA30 00 00 00 00 00 00 00 00 00 00 00 00 00 00 00 00 ................
0040FA40 00 00 00 00 00 00 00 00 00 00 00 00 00 00 00 00 ................
0040FA50 00 00 00 00 00 00 00 00 00 00 00 00 00 00 00 00 ................
0040FA60 00 00 00 00 00 00 00 00 00 00 00 00 00 00 00 00 ................
0040FA70 00 00 00 00 00 00 00 00 00 00 00 00 00 00 00 00 ................
0040FA80 00 00 00 00 00 00 00 00 00 00 00 00 00 00 00 00 ................
0040FA90 00 00 00 00 00 00 00 00 00 00 00 00 00 00 00 00 ................
0040FAA0 00 00 00 00 00 00 00 00 00 00 00 00 00 00 00 00 ................
0040FAB0 00 00 00 00 00 00 00 00 00 00 00 00 00 00 00 00 ................
0040FAC0 00 00 00 00 00 00 00 00 00 00 00 00 00 00 00 00 ................
0040FAD0 00 00 00 00 00 00 00 00 00 00 00 00 00 00 00 00 ................
0040FAE0 00 00 00 00 00 00 00 00 00 00 00 00 00 00 00 00 ................
0040FAF0 00 00 00 00 00 00 00 00 00 00 00 00 00 00 00 00 ................
0040FB00 00 00 00 00 00 00 00 00 00 00 00 00 00 00 00 00 ................
0040FB10 00 00 00 00 00 00 00 00 00 00 00 00 00 00 00 00 ................
0040FB20 00 00 00 00 00 00 00 00 00 00 00 00 00 00 00 00 ................
0040FB30 00 00 00 00 00 00 00 00 00 00 00 00 00 00 00 00 ................
0040FB40 00 00 00 00 00 00 00 00 00 00 00 00 00 00 00 00 ................
0040FB50 00 00 00 00 00 00 00 00 00 00 00 00 00 00 00 00 ................
0040FB60 00 00 00 00 00 00 00 00 00 00 00 00 00 00 00 00 ................
0040FB70 00 00 00 00 00 00 00 00 00 00 00 00 00 00 00 00 ................
0040FB80 00 00 00 00 00 00 00 00 00 00 00 00 00 00 00 00 ................
0040FB90 00 00 00 00 00 00 00 00 00 00 00 00 00 00 00 00 ................
0040FBA0 00 00 00 00 00 00 00 00 00 00 00 00 00 00 00 00 ................
0040FBB0 00 00 00 00 00 00 00 00 00 00 00 00 00 00 00 00 ................
0040FBC0 00 00 00 00 00 00 00 00 00 00 00 00 00 00 00 00 ................
0040FBD0 00 00 00 00 00 00 00 00 00 00 00 00 00 00 00 00 ................
0040FBE0 00 00 00 00 00 00 00 00 00 00 00 00 00 00 00 00 ................
0040FBF0 00 00 00 00 00 00 00 00 00 00 00 00 00 00 00 00 ................
0040FC00 00 00 00 00 00 00 00 00 00 00 00 00 00 00 00 00 ................
0040FC10 00 00 00 00 00 00 00 00 00 00 00 00 00 00 00 00 ................
0040FC20 00 00 00 00 00 00 00 00 00 00 00 00 00 00 00 00 ................
0040FC30 00 00 00 00 00 00 00 00 00 00 00 00 00 00 00 00 ................
0040FC40 00 00 00 00 00 00 00 00 00 00 00 00 00 00 00 00 ................
0040FC50 00 00 00 00 00 00 00 00 00 00 00 00 00 00 00 00 ................
0040FC60 00 00 00 00 00 00 00 00 00 00 00 00 00 00 00 00 ................
0040FC70 00 00 00 00 00 00 00 00 00 00 00 00 00 00 00 00 ................
0040FC80 00 00 00 00 00 00 00 00 00 00 00 00 00 00 00 00 ................
0040FC90 00 00 00 00 00 00 00 00 00 00 00 00 00 00 00 00 ................
0040FCA0 00 00 00 00 00 00 00 00 00 00 00 00 00 00 00 00 ................
0040FCB0 00 00 00 00 00 00 00 00 00 00 00 00 00 00 00 00 ................
0040FCC0 00 00 00 00 00 00 00 00 00 00 00 00 00 00 00 00 ................
0040FCD0 00 00 00 00 00 00 00 00 00 00 00 00 00 00 00 00 ................
0040FCE0 00 00 00 00 00 00 00 00 00 00 00 00 00 00 00 00 ................
0040FCF0 00 00 00 00 00 00 00 00 00 00 00 00 00 00 00 00 ................
0040FD00 00 00 00 00 00 00 00 00 00 00 00 00 00 00 00 00 ................
0040FD10 00 00 00 00 00 00 00 00 00 00 00 00 00 00 00 00 ................
0040FD20 00 00 00 00 00 00 00 00 00 00 00 00 00 00 00 00 ................
0040FD30 00 00 00 00 00 00 00 00 00 00 00 00 00 00 00 00 ................
0040FD40 00 00 00 00 00 00 00 00 00 00 00 00 00 00 00 00 ................
0040FD50 00 00 00 00 00 00 00 00 00 00 00 00 00 00 00 00 ................
0040FD60 00 00 00 00 00 00 00 00 00 00 00 00 00 00 00 00 ................
0040FD70 00 00 00 00 00 00 00 00 00 00 00 00 00 00 00 00 ................
0040FD80 00 00 00 00 00 00 00 00 00 00 00 00 00 00 00 00 ................
0040FD90 00 00 00 00 00 00 00 00 00 00 00 00 00 00 00 00 ................
0040FDA0 00 00 00 00 00 00 00 00 00 00 00 00 00 00 00 00 ................
0040FDB0 00 00 00 00 00 00 00 00 00 00 00 00 00 00 00 00 ................
0040FDC0 00 00 00 00 00 00 00 00 00 00 00 00 00 00 00 00 ................
0040FDD0 00 00 00 00 00 00 00 00 00 00 00 00 00 00 00 00 ................
0040FDE0 00 00 00 00 00 00 00 00 00 00 00 00 00 00 00 00 ................
0040FDF0 00 00 00 00 00 00 00 00 00 00 00 00 00 00 00 00 ................
0040FE00 00 00 00 00 00 00 00 00 00 00 00 00 00 00 00 00 ................
0040FE10 00 00 00 00 00 00 00 00 00 00 00 00 00 00 00 00 ................
0040FE20 00 00 00 00 00 00 00 00 00 00 00 00 00 00 00 00 ................
0040FE30 00 00 00 00 00 00 00 00 00 00 00 00 00 00 00 00 ................
0040FE40 00 00 00 00 00 00 00 00 00 00 00 00 00 00 00 00 ................
0040FE50 00 00 00 00 00 00 00 00 00 00 00 00 00 00 00 00 ................
0040FE60 00 00 00 00 00 00 00 00 00 00 00 00 00 00 00 00 ................
0040FE70 00 00 00 00 00 00 00 00 00 00 00 00 00 00 00 00 ................
0040FE80 00 00 00 00 00 00 00 00 00 00 00 00 00 00 00 00 ................
0040FE90 00 00 00 00 00 00 00 00 00 00 00 00 00 00 00 00 ................
0040FEA0 00 00 00 00 00 00 00 00 00 00 00 00 00 00 00 00 ................
0040FEB0 00 00 00 00 00 00 00 00 00 00 00 00 00 00 00 00 ................
0040FEC0 00 00 00 00 00 00 00 00 00 00 00 00 00 00 00 00 ................
0040FED0 00 00 00 00 00 00 00 00 00 00 00 00 00 00 00 00 ................
0040FEE0 00 00 00 00 00 00 00 00 00 00 00 00 00 00 00 00 ................
0040FEF0 00 00 00 00 00 00 00 00 00 00 00 00 00 00 00 00 ................
0040FF00 00 00 00 00 00 00 00 00 00 00 00 00 00 00 00 00 ................
0040FF10 00 00 00 00 00 00 00 00 00 00 00 00 00 00 00 00 ................
0040FF20 00 00 00 00 00 00 00 00 00 00 00 00 00 00 00 00 ................
0040FF30 00 00 00 00 00 00 00 00 00 00 00 00 00 00 00 00 ................
0040FF40 00 00 00 00 00 00 00 00 00 00 00 00 00 00 00 00 ................
0040FF50 00 00 00 00 00 00 00 00 00 00 00 00 00 00 00 00 ................
0040FF60 00 00 00 00 00 00 00 00 00 00 00 00 00 00 00 00 ................
0040FF70 00 00 00 00 00 00 00 00 00 00 00 00 00 00 00 00 ................
0040FF80 00 00 00 00 00 00 00 00 00 00 00 00 00 00 00 00 ................
0040FF90 00 00 00 00 00 00 00 00 00 00 00 00 00 00 00 00 ................
0040FFA0 00 00 00 00 00 00 00 00 00 00 00 00 00 00 00 00 ................
0040FFB0 00 00 00 00 00 00 00 00 00 00 00 00 00 00 00 00 ................
0040FFC0 00 00 00 00 00 00 00 00 00 00 00 00 00 00 00 00 ................
0040FFD0 00 00 00 00 00 00 00 00 00 00 00 00 00 00 00 00 ................
0040FFE0 00 00 00 00 00 00 00 00 00 00 00 00 00 00 00 00 ................
0040FFF0 00 00 00 00 00 00 00 00 00 00 00 00 00 00 00 00 ................
00410000 00 00 00 00 00 00 00 00 00 00 00 00 00 00 03 00 ................
00410010 03 00 00 00 28 00 00 80 0E 00 00 00 40 00 00 80 ....(.......@...
00410020 10 00 00 00 58 00 00 80 00 00 00 00 00 00 00 00 ....X...........
00410030 00 00 00 00 00 00 01 00 01 00 00 00 70 00 00 80 ............p...
00410040 00 00 00 00 00 00 00 00 00 00 00 00 00 00 01 00 ................
00410050 41 7E 00 00 88 00 00 80 00 00 00 00 00 00 00 00 A~..............
00410060 00 00 00 00 00 00 01 00 7A F8 00 00 A0 00 00 80 ........z.......
00410070 00 00 00 00 00 00 00 00 00 00 00 00 00 00 01 00 ................
00410080 19 04 00 00 B8 00 00 00 00 00 00 00 00 00 00 00 ................
00410090 00 00 00 00 00 00 01 00 19 04 00 00 C8 00 00 00 ................
004100A0 00 00 00 00 00 00 00 00 00 00 00 00 00 00 01 00 ................
004100B0 19 04 00 00 D8 00 00 00 E8 00 01 00 A8 08 00 00 ................
004100C0 00 00 00 00 00 00 00 00 90 09 01 00 14 00 00 00 ................
004100D0 00 00 00 00 00 00 00 00 A4 09 01 00 FC 02 00 00 ................
004100E0 00 00 00 00 00 00 00 00 28 00 00 00 20 00 00 00 ........(... ...
004100F0 40 00 00 00 01 00 08 00 00 00 00 00 00 04 00 00 @...............
00410100 00 00 00 00 00 00 00 00 00 00 00 00 00 00 00 00 ................
00410110 00 00 00 00 00 00 80 00 00 80 00 00 00 80 80 00 ................
00410120 80 00 00 00 80 00 80 00 80 80 00 00 C0 C0 C0 00 ................
00410130 C0 DC C0 00 F0 CA A6 00 00 20 40 00 00 20 60 00 ......... @.. `.
00410140 00 20 80 00 00 20 A0 00 00 20 C0 00 00 20 E0 00 . ... ... ... ..
00410150 00 40 00 00 00 40 20 00 00 40 40 00 00 40 60 00 .@...@ ..@@..@`.
00410160 00 40 80 00 00 40 A0 00 00 40 C0 00 00 40 E0 00 .@...@...@...@..
00410170 00 60 00 00 00 60 20 00 00 60 40 00 00 60 60 00 .`...` ..`@..``.
00410180 00 60 80 00 00 60 A0 00 00 60 C0 00 00 60 E0 00 .`...`...`...`..
00410190 00 80 00 00 00 80 20 00 00 80 40 00 00 80 60 00 ...... ...@...`.
004101A0 00 80 80 00 00 80 A0 00 00 80 C0 00 00 80 E0 00 ................
004101B0 00 A0 00 00 00 A0 20 00 00 A0 40 00 00 A0 60 00 ...... ...@...`.
004101C0 00 A0 80 00 00 A0 A0 00 00 A0 C0 00 00 A0 E0 00 ................
004101D0 00 C0 00 00 00 C0 20 00 00 C0 40 00 00 C0 60 00 ...... ...@...`.
004101E0 00 C0 80 00 00 C0 A0 00 00 C0 C0 00 00 C0 E0 00 ................
004101F0 00 E0 00 00 00 E0 20 00 00 E0 40 00 00 E0 60 00 ...... ...@...`.
00410200 00 E0 80 00 00 E0 A0 00 00 E0 C0 00 00 E0 E0 00 ................
00410210 40 00 00 00 40 00 20 00 40 00 40 00 40 00 60 00 @...@. .@.@.@.`.
00410220 40 00 80 00 40 00 A0 00 40 00 C0 00 40 00 E0 00 @...@...@...@...
00410230 40 20 00 00 40 20 20 00 40 20 40 00 40 20 60 00 @ ..@  .@ @.@ `.
00410240 40 20 80 00 40 20 A0 00 40 20 C0 00 40 20 E0 00 @ ..@ ..@ ..@ ..
00410250 40 40 00 00 40 40 20 00 40 40 40 00 40 40 60 00 @@..@@ .@@@.@@`.
00410260 40 40 80 00 40 40 A0 00 40 40 C0 00 40 40 E0 00 @@..@@..@@..@@..
00410270 40 60 00 00 40 60 20 00 40 60 40 00 40 60 60 00 @`..@` .@`@.@``.
00410280 40 60 80 00 40 60 A0 00 40 60 C0 00 40 60 E0 00 @`..@`..@`..@`..
00410290 40 80 00 00 40 80 20 00 40 80 40 00 40 80 60 00 @...@. .@.@.@.`.
004102A0 40 80 80 00 40 80 A0 00 40 80 C0 00 40 80 E0 00 @...@...@...@...
004102B0 40 A0 00 00 40 A0 20 00 40 A0 40 00 40 A0 60 00 @...@. .@.@.@.`.
004102C0 40 A0 80 00 40 A0 A0 00 40 A0 C0 00 40 A0 E0 00 @...@...@...@...
004102D0 40 C0 00 00 40 C0 20 00 40 C0 40 00 40 C0 60 00 @...@. .@.@.@.`.
004102E0 40 C0 80 00 40 C0 A0 00 40 C0 C0 00 40 C0 E0 00 @...@...@...@...
004102F0 40 E0 00 00 40 E0 20 00 40 E0 40 00 40 E0 60 00 @...@. .@.@.@.`.
00410300 40 E0 80 00 40 E0 A0 00 40 E0 C0 00 40 E0 E0 00 @...@...@...@...
00410310 80 00 00 00 80 00 20 00 80 00 40 00 80 00 60 00 ...... ...@...`.
00410320 80 00 80 00 80 00 A0 00 80 00 C0 00 80 00 E0 00 ................
00410330 80 20 00 00 80 20 20 00 80 20 40 00 80 20 60 00 . ...  .. @.. `.
00410340 80 20 80 00 80 20 A0 00 80 20 C0 00 80 20 E0 00 . ... ... ... ..
00410350 80 40 00 00 80 40 20 00 80 40 40 00 80 40 60 00 .@...@ ..@@..@`.
00410360 80 40 80 00 80 40 A0 00 80 40 C0 00 80 40 E0 00 .@...@...@...@..
00410370 80 60 00 00 80 60 20 00 80 60 40 00 80 60 60 00 .`...` ..`@..``.
00410380 80 60 80 00 80 60 A0 00 80 60 C0 00 80 60 E0 00 .`...`...`...`..
00410390 80 80 00 00 80 80 20 00 80 80 40 00 80 80 60 00 ...... ...@...`.
004103A0 80 80 80 00 80 80 A0 00 80 80 C0 00 80 80 E0 00 ................
004103B0 80 A0 00 00 80 A0 20 00 80 A0 40 00 80 A0 60 00 ...... ...@...`.
004103C0 80 A0 80 00 80 A0 A0 00 80 A0 C0 00 80 A0 E0 00 ................
004103D0 80 C0 00 00 80 C0 20 00 80 C0 40 00 80 C0 60 00 ...... ...@...`.
004103E0 80 C0 80 00 80 C0 A0 00 80 C0 C0 00 80 C0 E0 00 ................
004103F0 80 E0 00 00 80 E0 20 00 80 E0 40 00 80 E0 60 00 ...... ...@...`.
00410400 80 E0 80 00 80 E0 A0 00 80 E0 C0 00 80 E0 E0 00 ................
00410410 C0 00 00 00 C0 00 20 00 C0 00 40 00 C0 00 60 00 ...... ...@...`.
00410420 C0 00 80 00 C0 00 A0 00 C0 00 C0 00 C0 00 E0 00 ................
00410430 C0 20 00 00 C0 20 20 00 C0 20 40 00 C0 20 60 00 . ...  .. @.. `.
00410440 C0 20 80 00 C0 20 A0 00 C0 20 C0 00 C0 20 E0 00 . ... ... ... ..
00410450 C0 40 00 00 C0 40 20 00 C0 40 40 00 C0 40 60 00 .@...@ ..@@..@`.
00410460 C0 40 80 00 C0 40 A0 00 C0 40 C0 00 C0 40 E0 00 .@...@...@...@..
00410470 C0 60 00 00 C0 60 20 00 C0 60 40 00 C0 60 60 00 .`...` ..`@..``.
00410480 C0 60 80 00 C0 60 A0 00 C0 60 C0 00 C0 60 E0 00 .`...`...`...`..
00410490 C0 80 00 00 C0 80 20 00 C0 80 40 00 C0 80 60 00 ...... ...@...`.
004104A0 C0 80 80 00 C0 80 A0 00 C0 80 C0 00 C0 80 E0 00 ................
004104B0 C0 A0 00 00 C0 A0 20 00 C0 A0 40 00 C0 A0 60 00 ...... ...@...`.
004104C0 C0 A0 80 00 C0 A0 A0 00 C0 A0 C0 00 C0 A0 E0 00 ................
004104D0 C0 C0 00 00 C0 C0 20 00 C0 C0 40 00 C0 C0 60 00 ...... ...@...`.
004104E0 C0 C0 80 00 C0 C0 A0 00 F0 FB FF 00 A4 A0 A0 00 ................
004104F0 80 80 80 00 00 00 FF 00 00 FF 00 00 00 FF FF 00 ................
00410500 FF 00 00 00 FF 00 FF 00 FF FF 00 00 FF FF FF 00 ................
00410510 00 00 00 00 00 00 00 00 00 00 00 00 00 00 00 00 ................
00410520 00 00 00 00 00 00 00 00 00 00 00 00 00 00 00 00 ................
00410530 00 00 00 00 00 00 ED A3 9A 9A 92 92 92 92 92 92 ................
00410540 92 92 92 92 92 92 92 92 92 92 92 92 92 92 92 00 ................
00410550 00 00 00 00 00 00 ED F6 07 09 09 09 09 09 09 09 ................
00410560 09 09 EC 09 09 EC EC EC EC EB EB EB EB EB 92 00 ................
00410570 00 00 00 00 00 00 ED F6 F6 F6 F6 F6 F6 F6 F6 F6 ................
00410580 F6 F6 F6 F6 F6 F6 F6 F6 09 09 09 09 09 EB 92 00 ................
00410590 00 00 00 00 00 00 ED F6 F6 F6 F6 F6 F6 F6 F6 F6 ................
004105A0 F6 F6 F6 F6 F6 F6 F6 F6 F6 F6 09 09 09 EB 92 00 ................
004105B0 00 00 00 00 00 00 ED F6 F6 F5 F5 ED ED EC EC EC ................
004105C0 E3 E3 E3 E3 E3 E3 E3 E3 E3 E3 F6 F6 09 EB 92 00 ................
004105D0 00 00 00 00 00 00 ED FF FF F5 FF FF FF F6 EC F6 ................
004105E0 F6 EC FF E3 F6 F6 EC FF E3 F6 F6 F6 F6 EB 92 00 ................
004105F0 00 00 00 00 00 00 ED FF FF F5 FF FF FF FF ED FF ................
00410600 FF EC FF E3 F6 F6 EC FF E3 F6 F6 F6 F6 EC 92 00 ................
00410610 00 00 00 00 00 00 ED FF FF F5 F5 F5 F5 F5 F5 ED ................
00410620 FF EC FF E3 F6 F6 EC FF E3 F6 F6 F6 F6 EC 92 00 ................
00410630 00 00 00 00 00 00 ED FF FF 09 FF FF FF FF F5 FF ................
00410640 FF ED FF E3 EC EC EC FF E3 F6 F6 F6 F6 EC 92 00 ................
00410650 00 00 00 00 00 00 ED FF FF 09 FF FF FF FF F5 FF ................
00410660 FF F5 FF E3 FF FF EC FF E3 F6 F6 F6 F6 EC 92 00 ................
00410670 00 00 00 00 00 00 ED FF FF 09 09 09 09 09 F5 F5 ................
00410680 FF F5 F5 E3 FF FF EC FF E3 F6 F6 F6 F6 EC 92 00 ................
00410690 00 00 00 00 00 00 ED FF FF 09 FF FF FF FF 09 FF ................
004106A0 FF FF FF FF FF FF ED ED E3 F6 F6 F6 F6 09 92 00 ................
004106B0 00 00 00 00 00 00 ED 08 08 ED 07 07 07 ED ED 08 ................
004106C0 FF FF FF F5 FF FF FF FF FF FF F6 F6 F6 09 92 00 ................
004106D0 00 00 00 00 00 00 F7 F7 F5 07 07 08 08 F6 08 ED ................
004106E0 EC 09 F5 F5 F5 F5 F5 F5 ED FF FF F6 F6 EC 92 00 ................
004106F0 00 19 18 AC 08 08 FF FF FF F6 F6 F6 F6 F6 08 07 ................
00410700 F6 FF FF 09 FF FF FF FF F5 FF FF FF F6 09 92 00 ................
00410710 00 19 B5 08 FF FF FF FF F6 F6 B5 1A 1A F6 F6 07 ................
00410720 F6 FF FF 09 FF FF FF FF F5 FF FF FF FF 09 92 00 ................
00410730 00 19 07 AC FF 08 B4 B4 B4 AB 22 1A 6B F6 F6 ED ..........".k...
00410740 F5 09 09 09 09 09 09 F5 F5 FF FF FF FF 09 92 00 ................
00410750 00 19 08 62 FF FF 08 B4 B4 62 1A 6C AB B5 F6 07 ...b.....b.l....
00410760 08 FF FF 09 FF FF FF FF F5 FF FF FF FF 09 92 00 ................
00410770 00 19 08 19 F6 FF FF 08 6B 1A 22 08 FF F6 F6 07 ........k.".....
00410780 08 FF FF 09 FF FF FF FF 09 FF FF FF FF 09 92 00 ................
00410790 00 21 08 19 07 FF FF 08 22 22 6B B4 F5 F6 F6 07 .!......""k.....
004107A0 F5 09 09 09 09 09 09 09 09 FF FF FF FF 09 92 00 ................
004107B0 00 21 08 19 AC FF F6 22 1A B5 F6 B4 B4 B4 F6 08 .!....."........
004107C0 08 FF FF 09 FF FF FF FF 09 FF FF FF FF 09 92 00 ................
004107D0 00 21 08 AC B4 FF 63 62 6C FF FF FF FF FF FF 08 .!....cbl.......
004107E0 08 FF FF 09 FF FF FF FF 07 09 09 09 09 09 92 00 ................
004107F0 00 61 08 B4 B4 FF FF FF FF FF FF FF FF FF FF F6 .a..............
00410800 07 09 09 09 09 09 09 ED A3 A3 9B 9A 9A 9A 92 00 ................
00410810 00 61 08 B5 B4 08 08 08 08 08 08 F5 B5 08 6B FF .a............k.
00410820 FF FF FF FF FF FF FF ED 09 09 09 09 09 92 F6 00 ................
00410830 00 61 B5 F6 B5 B5 B5 B5 B5 B5 B5 B5 B5 F6 61 FF .a............a.
00410840 FF FF FF FF FF FF FF ED F6 F6 09 09 92 F6 F6 00 ................
00410850 00 61 61 08 F6 08 BD BD BD BD BD BD B5 F6 61 F6 .aa...........a.
00410860 09 09 09 FF FF FF FF F5 F6 F6 09 92 F6 F6 00 00 ................
00410870 00 00 61 61 B5 08 F6 F6 F6 F6 F6 F6 F6 F6 61 FF ..aa..........a.
00410880 FF FF FF FF FF FF FF F5 F6 F6 9A F6 F6 00 00 00 ................
00410890 00 00 00 61 61 61 61 61 61 61 61 61 61 61 61 FF ...aaaaaaaaaaaa.
004108A0 FF FF FF FF FF FF FF F5 F6 9B F6 F6 00 00 00 00 ................
004108B0 00 00 00 00 00 00 07 FF FF FF FF FF FF FF FF FF ................
004108C0 FF FF FF FF FF FF FF F5 A4 F6 F6 00 00 00 00 00 ................
004108D0 00 00 00 00 00 00 07 07 07 07 07 F5 F5 F5 F5 F5 ................
004108E0 F5 F5 F5 F5 F5 F5 F5 F5 F6 F6 00 00 00 00 00 00 ................
004108F0 00 00 00 00 00 00 00 00 00 00 00 00 00 00 00 00 ................
00410900 00 00 00 00 00 00 00 00 00 00 00 00 00 00 00 00 ................
00410910 FF FF FF FF FC 00 00 01 FC 00 00 01 FC 00 00 01 ................
00410920 FC 00 00 01 FC 00 00 01 FC 00 00 01 FC 00 00 01 ................
00410930 FC 00 00 01 FC 00 00 01 FC 00 00 01 FC 00 00 01 ................
00410940 FC 00 00 01 C0 00 00 01 C0 00 00 01 80 00 00 01 ................
00410950 80 00 00 01 80 00 00 01 80 00 00 01 80 00 00 01 ................
00410960 80 00 00 01 80 00 00 01 80 00 00 01 80 00 00 01 ................
00410970 80 00 00 01 80 00 00 01 80 00 00 03 C0 00 00 07 ................
00410980 E0 00 00 0F FC 00 00 1F FC 00 00 3F FF FF FF FF ...........?....
00410990 00 00 01 00 01 00 20 20 08 00 00 00 00 00 A8 08 ......  ........
004109A0 00 00 01 00 FC 02 34 00 00 00 56 00 53 00 5F 00 ......4...V.S._.
004109B0 56 00 45 00 52 00 53 00 49 00 4F 00 4E 00 5F 00 V.E.R.S.I.O.N._.
004109C0 49 00 4E 00 46 00 4F 00 00 00 00 00 BD 04 EF FE I.N.F.O.........
004109D0 00 00 01 00 3D D2 F8 E3 3D D2 F8 E3 3D D2 F8 E3 ....=...=...=...
004109E0 3D D2 F8 E3 3D D2 00 00 00 00 00 00 04 00 04 00 =...=...........
004109F0 01 00 00 00 00 00 00 00 00 00 00 00 00 00 00 00 ................
00410A00 5C 02 00 00 00 00 53 00 74 00 72 00 69 00 6E 00 \.....S.t.r.i.n.
00410A10 67 00 46 00 69 00 6C 00 65 00 49 00 6E 00 66 00 g.F.i.l.e.I.n.f.
00410A20 6F 00 00 00 38 02 00 00 00 00 30 00 38 00 30 00 o...8.....0.8.0.
00410A30 30 00 30 00 34 00 42 00 30 00 00 00 44 00 11 00 0.0.4.B.0...D...
00410A40 01 00 43 00 6F 00 6D 00 70 00 61 00 6E 00 79 00 ..C.o.m.p.a.n.y.
00410A50 4E 00 61 00 6D 00 65 00 00 00 00 00 68 00 4A 00 N.a.m.e.....h.J.
00410A60 6A 00 41 00 49 00 68 00 4F 00 53 00 44 00 58 00 j.A.I.h.O.S.D.X.
00410A70 62 00 45 00 73 00 4A 00 50 00 74 00 00 00 00 00 b.E.s.J.P.t.....
00410A80 48 00 0F 00 01 00 46 00 69 00 6C 00 65 00 44 00 H.....F.i.l.e.D.
00410A90 65 00 73 00 63 00 72 00 69 00 70 00 74 00 69 00 e.s.c.r.i.p.t.i.
00410AA0 6F 00 6E 00 00 00 00 00 48 00 6B 00 61 00 79 00 o.n.....H.k.a.y.
00410AB0 51 00 4B 00 63 00 34 00 4E 00 45 00 57 00 77 00 Q.K.c.4.N.E.W.w.
00410AC0 53 00 42 00 00 00 00 00 44 00 11 00 01 00 46 00 S.B.....D.....F.
00410AD0 69 00 6C 00 65 00 56 00 65 00 72 00 73 00 69 00 i.l.e.V.e.r.s.i.
00410AE0 6F 00 6E 00 00 00 00 00 6A 00 51 00 68 00 31 00 o.n.....j.Q.h.1.
00410AF0 46 00 6A 00 6E 00 43 00 32 00 63 00 6C 00 36 00 F.j.n.C.2.c.l.6.
00410B00 57 00 72 00 6B 00 31 00 00 00 00 00 40 00 10 00 W.r.k.1.....@...
00410B10 01 00 49 00 6E 00 74 00 65 00 72 00 6E 00 61 00 ..I.n.t.e.r.n.a.
00410B20 6C 00 4E 00 61 00 6D 00 65 00 00 00 61 00 4D 00 l.N.a.m.e...a.M.
00410B30 46 00 77 00 70 00 67 00 55 00 33 00 32 00 41 00 F.w.p.g.U.3.2.A.
00410B40 73 00 47 00 78 00 58 00 64 00 00 00 40 00 0E 00 s.G.x.X.d...@...
00410B50 01 00 4C 00 65 00 67 00 61 00 6C 00 43 00 6F 00 ..L.e.g.a.l.C.o.
00410B60 70 00 79 00 72 00 69 00 67 00 68 00 74 00 00 00 p.y.r.i.g.h.t...
00410B70 58 00 76 00 58 00 66 00 59 00 78 00 76 00 45 00 X.v.X.f.Y.x.v.E.
00410B80 73 00 4E 00 67 00 4E 00 75 00 00 00 48 00 0F 00 s.N.g.N.u...H...
00410B90 01 00 4F 00 72 00 69 00 67 00 69 00 6E 00 61 00 ..O.r.i.g.i.n.a.
00410BA0 6C 00 46 00 69 00 6C 00 65 00 6E 00 61 00 6D 00 l.F.i.l.e.n.a.m.
00410BB0 65 00 00 00 62 00 34 00 47 00 47 00 48 00 34 00 e...b.4.G.G.H.4.
00410BC0 50 00 61 00 69 00 36 00 37 00 41 00 65 00 4C 00 P.a.i.6.7.A.e.L.
00410BD0 00 00 00 00 40 00 0F 00 01 00 50 00 72 00 6F 00 ....@.....P.r.o.
00410BE0 64 00 75 00 63 00 74 00 4E 00 61 00 6D 00 65 00 d.u.c.t.N.a.m.e.
00410BF0 00 00 00 00 45 00 6B 00 35 00 47 00 66 00 66 00 ....E.k.5.G.f.f.
00410C00 36 00 52 00 46 00 55 00 37 00 4D 00 59 00 76 00 6.R.F.U.7.M.Y.v.
00410C10 00 00 00 00 48 00 12 00 01 00 50 00 72 00 6F 00 ....H.....P.r.o.
00410C20 64 00 75 00 63 00 74 00 56 00 65 00 72 00 73 00 d.u.c.t.V.e.r.s.
00410C30 69 00 6F 00 6E 00 00 00 6F 00 70 00 71 00 6D 00 i.o.n...o.p.q.m.
00410C40 61 00 43 00 47 00 78 00 71 00 50 00 76 00 49 00 a.C.G.x.q.P.v.I.
00410C50 74 00 74 00 31 00 6C 00 52 00 00 00 44 00 00 00 t.t.1.l.R...D...
00410C60 00 00 56 00 61 00 72 00 46 00 69 00 6C 00 65 00 ..V.a.r.F.i.l.e.
00410C70 49 00 6E 00 66 00 6F 00 00 00 00 00 24 00 04 00 I.n.f.o.....$...
00410C80 00 00 54 00 72 00 61 00 6E 00 73 00 6C 00 61 00 ..T.r.a.n.s.l.a.
00410C90 74 00 69 00 6F 00 6E 00 00 00 00 00 00 08 B0 04 t.i.o.n.........
00410CA0 00 00 00 00 00 00 00 00 00 00 00 00 00 00 00 00 ................
00410CB0 00 00 00 00 00 00 00 00 00 00 00 00 00 00 00 00 ................
00410CC0 00 00 00 00 00 00 00 00 00 00 00 00 00 00 00 00 ................
00410CD0 00 00 00 00 00 00 00 00 00 00 00 00 00 00 00 00 ................
00410CE0 00 00 00 00 00 00 00 00 00 00 00 00 00 00 00 00 ................
00410CF0 00 00 00 00 00 00 00 00 00 00 00 00 00 00 00 00 ................
00410D00 00 00 00 00 00 00 00 00 00 00 00 00 00 00 00 00 ................
00410D10 00 00 00 00 00 00 00 00 00 00 00 00 00 00 00 00 ................
00410D20 00 00 00 00 00 00 00 00 00 00 00 00 00 00 00 00 ................
00410D30 00 00 00 00 00 00 00 00 00 00 00 00 00 00 00 00 ................
00410D40 00 00 00 00 00 00 00 00 00 00 00 00 00 00 00 00 ................
00410D50 00 00 00 00 00 00 00 00 00 00 00 00 00 00 00 00 ................
00410D60 00 00 00 00 00 00 00 00 00 00 00 00 00 00 00 00 ................
00410D70 00 00 00 00 00 00 00 00 00 00 00 00 00 00 00 00 ................
00410D80 00 00 00 00 00 00 00 00 00 00 00 00 00 00 00 00 ................
00410D90 00 00 00 00 00 00 00 00 00 00 00 00 00 00 00 00 ................
00410DA0 00 00 00 00 00 00 00 00 00 00 00 00 00 00 00 00 ................
00410DB0 00 00 00 00 00 00 00 00 00 00 00 00 00 00 00 00 ................
00410DC0 00 00 00 00 00 00 00 00 00 00 00 00 00 00 00 00 ................
00410DD0 00 00 00 00 00 00 00 00 00 00 00 00 00 00 00 00 ................
00410DE0 00 00 00 00 00 00 00 00 00 00 00 00 00 00 00 00 ................
00410DF0 00 00 00 00 00 00 00 00 00 00 00 00 00 00 00 00 ................
00410E00 00 00 00 00 00 00 00 00 00 00 00 00 00 00 00 00 ................
00410E10 00 00 00 00 00 00 00 00 00 00 00 00 00 00 00 00 ................
00410E20 00 00 00 00 00 00 00 00 00 00 00 00 00 00 00 00 ................
00410E30 00 00 00 00 00 00 00 00 00 00 00 00 00 00 00 00 ................
00410E40 00 00 00 00 00 00 00 00 00 00 00 00 00 00 00 00 ................
00410E50 00 00 00 00 00 00 00 00 00 00 00 00 00 00 00 00 ................
00410E60 00 00 00 00 00 00 00 00 00 00 00 00 00 00 00 00 ................
00410E70 00 00 00 00 00 00 00 00 00 00 00 00 00 00 00 00 ................
00410E80 00 00 00 00 00 00 00 00 00 00 00 00 00 00 00 00 ................
00410E90 00 00 00 00 00 00 00 00 00 00 00 00 00 00 00 00 ................
00410EA0 00 00 00 00 00 00 00 00 00 00 00 00 00 00 00 00 ................
00410EB0 00 00 00 00 00 00 00 00 00 00 00 00 00 00 00 00 ................
00410EC0 00 00 00 00 00 00 00 00 00 00 00 00 00 00 00 00 ................
00410ED0 00 00 00 00 00 00 00 00 00 00 00 00 00 00 00 00 ................
00410EE0 00 00 00 00 00 00 00 00 00 00 00 00 00 00 00 00 ................
00410EF0 00 00 00 00 00 00 00 00 00 00 00 00 00 00 00 00 ................
00410F00 00 00 00 00 00 00 00 00 00 00 00 00 00 00 00 00 ................
00410F10 00 00 00 00 00 00 00 00 00 00 00 00 00 00 00 00 ................
00410F20 00 00 00 00 00 00 00 00 00 00 00 00 00 00 00 00 ................
00410F30 00 00 00 00 00 00 00 00 00 00 00 00 00 00 00 00 ................
00410F40 00 00 00 00 00 00 00 00 00 00 00 00 00 00 00 00 ................
00410F50 00 00 00 00 00 00 00 00 00 00 00 00 00 00 00 00 ................
00410F60 00 00 00 00 00 00 00 00 00 00 00 00 00 00 00 00 ................
00410F70 00 00 00 00 00 00 00 00 00 00 00 00 00 00 00 00 ................
00410F80 00 00 00 00 00 00 00 00 00 00 00 00 00 00 00 00 ................
00410F90 00 00 00 00 00 00 00 00 00 00 00 00 00 00 00 00 ................
00410FA0 00 00 00 00 00 00 00 00 00 00 00 00 00 00 00 00 ................
00410FB0 00 00 00 00 00 00 00 00 00 00 00 00 00 00 00 00 ................
00410FC0 00 00 00 00 00 00 00 00 00 00 00 00 00 00 00 00 ................
00410FD0 00 00 00 00 00 00 00 00 00 00 00 00 00 00 00 00 ................
00410FE0 00 00 00 00 00 00 00 00 00 00 00 00 00 00 00 00 ................
00410FF0 00 00 00 00 00 00 00 00 00 00 00 00 00 00 00 00 ................
