00400000 00 00 00 00 00 00 00 00 00 00 00 00 00 00 00 00 ................
00400010 00 00 00 00 00 00 00 00 00 00 00 00 00 00 00 00 ................
00400020 00 00 00 00 00 00 00 00 00 00 00 00 00 00 00 00 ................
00400030 00 00 00 00 00 00 00 00 00 00 00 00 00 00 00 00 ................
00400040 00 00 00 00 00 00 00 00 00 00 00 00 00 00 00 00 ................
00400050 00 00 00 00 00 00 00 00 00 00 00 00 00 00 00 00 ................
00400060 00 00 00 00 00 00 00 00 00 00 00 00 00 00 00 00 ................
00400070 00 00 00 00 00 00 00 00 00 00 00 00 00 00 00 00 ................
00400080 00 00 00 00 00 00 00 00 00 00 00 00 00 00 00 00 ................
00400090 00 00 00 00 00 00 00 00 00 00 00 00 00 00 00 00 ................
004000A0 00 00 00 00 00 00 00 00 00 00 00 00 00 00 00 00 ................
004000B0 00 00 00 00 00 00 00 00 00 00 00 00 00 00 00 00 ................
004000C0 00 00 00 00 00 00 00 00 00 00 00 00 00 00 00 00 ................
004000D0 00 00 00 00 00 00 00 00 00 00 00 00 00 00 00 00 ................
004000E0 00 00 00 00 00 00 00 00 00 00 00 00 00 00 00 00 ................
004000F0 00 00 00 00 00 00 00 00 00 00 00 00 00 00 00 00 ................
00400100 00 00 00 00 00 00 00 00 00 00 00 00 00 00 00 00 ................
00400110 00 00 00 00 00 00 00 00 00 00 00 00 00 00 00 00 ................
00400120 00 00 00 00 00 00 00 00 00 00 00 00 00 00 00 00 ................
00400130 00 00 00 00 00 00 00 00 00 00 00 00 00 00 00 00 ................
00400140 00 00 00 00 00 00 00 00 00 00 00 00 00 00 00 00 ................
00400150 00 00 00 00 00 00 00 00 00 00 00 00 00 00 00 00 ................
00400160 00 00 00 00 00 00 00 00 00 00 00 00 00 00 00 00 ................
00400170 00 00 00 00 00 00 00 00 00 00 00 00 00 00 00 00 ................
00400180 00 00 00 00 00 00 00 00 00 00 00 00 00 00 00 00 ................
00400190 00 00 00 00 00 00 00 00 00 00 00 00 00 00 00 00 ................
004001A0 00 00 00 00 00 00 00 00 00 00 00 00 00 00 00 00 ................
004001B0 00 00 00 00 00 00 00 00 00 00 00 00 00 00 00 00 ................
004001C0 00 00 00 00 00 00 00 00 00 00 00 00 00 00 00 00 ................
004001D0 00 00 00 00 00 00 00 00 00 00 00 00 00 00 00 00 ................
004001E0 00 00 00 00 00 00 00 00 00 00 00 00 00 00 00 00 ................
004001F0 00 00 00 00 00 00 00 00 00 00 00 00 00 00 00 00 ................
00400200 00 00 00 00 00 00 00 00 00 00 00 00 00 00 00 00 ................
00400210 00 00 00 00 00 00 00 00 00 00 00 00 00 00 00 00 ................
00400220 00 00 00 00 00 00 00 00 00 00 00 00 00 00 00 00 ................
00400230 00 00 00 00 00 00 00 00 00 00 00 00 00 00 00 00 ................
00400240 00 00 00 00 00 00 00 00 00 00 00 00 00 00 00 00 ................
00400250 00 00 00 00 00 00 00 00 00 00 00 00 00 00 00 00 ................
00400260 00 00 00 00 00 00 00 00 00 00 00 00 00 00 00 00 ................
00400270 00 00 00 00 00 00 00 00 00 00 00 00 00 00 00 00 ................
00400280 00 00 00 00 00 00 00 00 00 00 00 00 00 00 00 00 ................
00400290 00 00 00 00 00 00 00 00 00 00 00 00 00 00 00 00 ................
004002A0 00 00 00 00 00 00 00 00 00 00 00 00 00 00 00 00 ................
004002B0 00 00 00 00 00 00 00 00 00 00 00 00 00 00 00 00 ................
004002C0 00 00 00 00 00 00 00 00 00 00 00 00 00 00 00 00 ................
004002D0 00 00 00 00 00 00 00 00 00 00 00 00 00 00 00 00 ................
004002E0 00 00 00 00 00 00 00 00 00 00 00 00 00 00 00 00 ................
004002F0 00 00 00 00 00 00 00 00 00 00 00 00 00 00 00 00 ................
00400300 00 00 00 00 00 00 00 00 00 00 00 00 00 00 00 00 ................
00400310 00 00 00 00 00 00 00 00 00 00 00 00 00 00 00 00 ................
00400320 00 00 00 00 00 00 00 00 00 00 00 00 00 00 00 00 ................
00400330 00 00 00 00 00 00 00 00 00 00 00 00 00 00 00 00 ................
00400340 00 00 00 00 00 00 00 00 00 00 00 00 00 00 00 00 ................
00400350 00 00 00 00 00 00 00 00 00 00 00 00 00 00 00 00 ................
00400360 00 00 00 00 00 00 00 00 00 00 00 00 00 00 00 00 ................
00400370 00 00 00 00 00 00 00 00 00 00 00 00 00 00 00 00 ................
00400380 00 00 00 00 00 00 00 00 00 00 00 00 00 00 00 00 ................
00400390 00 00 00 00 00 00 00 00 00 00 00 00 00 00 00 00 ................
004003A0 00 00 00 00 00 00 00 00 00 00 00 00 00 00 00 00 ................
004003B0 00 00 00 00 00 00 00 00 00 00 00 00 00 00 00 00 ................
004003C0 00 00 00 00 00 00 00 00 00 00 00 00 00 00 00 00 ................
004003D0 00 00 00 00 00 00 00 00 00 00 00 00 00 00 00 00 ................
004003E0 00 00 00 00 00 00 00 00 00 00 00 00 00 00 00 00 ................
004003F0 00 00 00 00 00 00 00 00 00 00 00 00 00 00 00 00 ................
00400400 00 00 00 00 00 00 00 00 00 00 00 00 00 00 00 00 ................
00400410 00 00 00 00 00 00 00 00 00 00 00 00 00 00 00 00 ................
00400420 00 00 00 00 00 00 00 00 00 00 00 00 00 00 00 00 ................
00400430 00 00 00 00 00 00 00 00 00 00 00 00 00 00 00 00 ................
00400440 00 00 00 00 00 00 00 00 00 00 00 00 00 00 00 00 ................
00400450 00 00 00 00 00 00 00 00 00 00 00 00 00 00 00 00 ................
00400460 00 00 00 00 00 00 00 00 00 00 00 00 00 00 00 00 ................
00400470 00 00 00 00 00 00 00 00 00 00 00 00 00 00 00 00 ................
00400480 00 00 00 00 00 00 00 00 00 00 00 00 00 00 00 00 ................
00400490 00 00 00 00 00 00 00 00 00 00 00 00 00 00 00 00 ................
004004A0 00 00 00 00 00 00 00 00 00 00 00 00 00 00 00 00 ................
004004B0 00 00 00 00 00 00 00 00 00 00 00 00 00 00 00 00 ................
004004C0 00 00 00 00 00 00 00 00 00 00 00 00 00 00 00 00 ................
004004D0 00 00 00 00 00 00 00 00 00 00 00 00 00 00 00 00 ................
004004E0 00 00 00 00 00 00 00 00 00 00 00 00 00 00 00 00 ................
004004F0 00 00 00 00 00 00 00 00 00 00 00 00 00 00 00 00 ................
00400500 00 00 00 00 00 00 00 00 00 00 00 00 00 00 00 00 ................
00400510 00 00 00 00 00 00 00 00 00 00 00 00 00 00 00 00 ................
00400520 00 00 00 00 00 00 00 00 00 00 00 00 00 00 00 00 ................
00400530 00 00 00 00 00 00 00 00 00 00 00 00 00 00 00 00 ................
00400540 00 00 00 00 00 00 00 00 00 00 00 00 00 00 00 00 ................
00400550 00 00 00 00 00 00 00 00 00 00 00 00 00 00 00 00 ................
00400560 00 00 00 00 00 00 00 00 00 00 00 00 00 00 00 00 ................
00400570 00 00 00 00 00 00 00 00 00 00 00 00 00 00 00 00 ................
00400580 00 00 00 00 00 00 00 00 00 00 00 00 00 00 00 00 ................
00400590 00 00 00 00 00 00 00 00 00 00 00 00 00 00 00 00 ................
004005A0 00 00 00 00 00 00 00 00 00 00 00 00 00 00 00 00 ................
004005B0 00 00 00 00 00 00 00 00 00 00 00 00 00 00 00 00 ................
004005C0 00 00 00 00 00 00 00 00 00 00 00 00 00 00 00 00 ................
004005D0 00 00 00 00 00 00 00 00 00 00 00 00 00 00 00 00 ................
004005E0 00 00 00 00 00 00 00 00 00 00 00 00 00 00 00 00 ................
004005F0 00 00 00 00 00 00 00 00 00 00 00 00 00 00 00 00 ................
00400600 00 00 00 00 00 00 00 00 00 00 00 00 00 00 00 00 ................
00400610 00 00 00 00 00 00 00 00 00 00 00 00 00 00 00 00 ................
00400620 00 00 00 00 00 00 00 00 00 00 00 00 00 00 00 00 ................
00400630 00 00 00 00 00 00 00 00 00 00 00 00 00 00 00 00 ................
00400640 00 00 00 00 00 00 00 00 00 00 00 00 00 00 00 00 ................
00400650 00 00 00 00 00 00 00 00 00 00 00 00 00 00 00 00 ................
00400660 00 00 00 00 00 00 00 00 00 00 00 00 00 00 00 00 ................
00400670 00 00 00 00 00 00 00 00 00 00 00 00 00 00 00 00 ................
00400680 00 00 00 00 00 00 00 00 00 00 00 00 00 00 00 00 ................
00400690 00 00 00 00 00 00 00 00 00 00 00 00 00 00 00 00 ................
004006A0 00 00 00 00 00 00 00 00 00 00 00 00 00 00 00 00 ................
004006B0 00 00 00 00 00 00 00 00 00 00 00 00 00 00 00 00 ................
004006C0 00 00 00 00 00 00 00 00 00 00 00 00 00 00 00 00 ................
004006D0 00 00 00 00 00 00 00 00 00 00 00 00 00 00 00 00 ................
004006E0 00 00 00 00 00 00 00 00 00 00 00 00 00 00 00 00 ................
004006F0 00 00 00 00 00 00 00 00 00 00 00 00 00 00 00 00 ................
00400700 00 00 00 00 00 00 00 00 00 00 00 00 00 00 00 00 ................
00400710 00 00 00 00 00 00 00 00 00 00 00 00 00 00 00 00 ................
00400720 00 00 00 00 00 00 00 00 00 00 00 00 00 00 00 00 ................
00400730 00 00 00 00 00 00 00 00 00 00 00 00 00 00 00 00 ................
00400740 00 00 00 00 00 00 00 00 00 00 00 00 00 00 00 00 ................
00400750 00 00 00 00 00 00 00 00 00 00 00 00 00 00 00 00 ................
00400760 00 00 00 00 00 00 00 00 00 00 00 00 00 00 00 00 ................
00400770 00 00 00 00 00 00 00 00 00 00 00 00 00 00 00 00 ................
00400780 00 00 00 00 00 00 00 00 00 00 00 00 00 00 00 00 ................
00400790 00 00 00 00 00 00 00 00 00 00 00 00 00 00 00 00 ................
004007A0 00 00 00 00 00 00 00 00 00 00 00 00 00 00 00 00 ................
004007B0 00 00 00 00 00 00 00 00 00 00 00 00 00 00 00 00 ................
004007C0 00 00 00 00 00 00 00 00 00 00 00 00 00 00 00 00 ................
004007D0 00 00 00 00 00 00 00 00 00 00 00 00 00 00 00 00 ................
004007E0 00 00 00 00 00 00 00 00 00 00 00 00 00 00 00 00 ................
004007F0 00 00 00 00 00 00 00 00 00 00 00 00 00 00 00 00 ................
00400800 00 00 00 00 00 00 00 00 00 00 00 00 00 00 00 00 ................
00400810 00 00 00 00 00 00 00 00 00 00 00 00 00 00 00 00 ................
00400820 00 00 00 00 00 00 00 00 00 00 00 00 00 00 00 00 ................
00400830 00 00 00 00 00 00 00 00 00 00 00 00 00 00 00 00 ................
00400840 00 00 00 00 00 00 00 00 00 00 00 00 00 00 00 00 ................
00400850 00 00 00 00 00 00 00 00 00 00 00 00 00 00 00 00 ................
00400860 00 00 00 00 00 00 00 00 00 00 00 00 00 00 00 00 ................
00400870 00 00 00 00 00 00 00 00 00 00 00 00 00 00 00 00 ................
00400880 00 00 00 00 00 00 00 00 00 00 00 00 00 00 00 00 ................
00400890 00 00 00 00 00 00 00 00 00 00 00 00 00 00 00 00 ................
004008A0 00 00 00 00 00 00 00 00 00 00 00 00 00 00 00 00 ................
004008B0 00 00 00 00 00 00 00 00 00 00 00 00 00 00 00 00 ................
004008C0 00 00 00 00 00 00 00 00 00 00 00 00 00 00 00 00 ................
004008D0 00 00 00 00 00 00 00 00 00 00 00 00 00 00 00 00 ................
004008E0 00 00 00 00 00 00 00 00 00 00 00 00 00 00 00 00 ................
004008F0 00 00 00 00 00 00 00 00 00 00 00 00 00 00 00 00 ................
00400900 00 00 00 00 00 00 00 00 00 00 00 00 00 00 00 00 ................
00400910 00 00 00 00 00 00 00 00 00 00 00 00 00 00 00 00 ................
00400920 00 00 00 00 00 00 00 00 00 00 00 00 00 00 00 00 ................
00400930 00 00 00 00 00 00 00 00 00 00 00 00 00 00 00 00 ................
00400940 00 00 00 00 00 00 00 00 00 00 00 00 00 00 00 00 ................
00400950 00 00 00 00 00 00 00 00 00 00 00 00 00 00 00 00 ................
00400960 00 00 00 00 00 00 00 00 00 00 00 00 00 00 00 00 ................
00400970 00 00 00 00 00 00 00 00 00 00 00 00 00 00 00 00 ................
00400980 00 00 00 00 00 00 00 00 00 00 00 00 00 00 00 00 ................
00400990 00 00 00 00 00 00 00 00 00 00 00 00 00 00 00 00 ................
004009A0 00 00 00 00 00 00 00 00 00 00 00 00 00 00 00 00 ................
004009B0 00 00 00 00 00 00 00 00 00 00 00 00 00 00 00 00 ................
004009C0 00 00 00 00 00 00 00 00 00 00 00 00 00 00 00 00 ................
004009D0 00 00 00 00 00 00 00 00 00 00 00 00 00 00 00 00 ................
004009E0 00 00 00 00 00 00 00 00 00 00 00 00 00 00 00 00 ................
004009F0 00 00 00 00 00 00 00 00 00 00 00 00 00 00 00 00 ................
00400A00 00 00 00 00 00 00 00 00 00 00 00 00 00 00 00 00 ................
00400A10 00 00 00 00 00 00 00 00 00 00 00 00 00 00 00 00 ................
00400A20 00 00 00 00 00 00 00 00 00 00 00 00 00 00 00 00 ................
00400A30 00 00 00 00 00 00 00 00 00 00 00 00 00 00 00 00 ................
00400A40 00 00 00 00 00 00 00 00 00 00 00 00 00 00 00 00 ................
00400A50 00 00 00 00 00 00 00 00 00 00 00 00 00 00 00 00 ................
00400A60 00 00 00 00 00 00 00 00 00 00 00 00 00 00 00 00 ................
00400A70 00 00 00 00 00 00 00 00 00 00 00 00 00 00 00 00 ................
00400A80 00 00 00 00 00 00 00 00 00 00 00 00 00 00 00 00 ................
00400A90 00 00 00 00 00 00 00 00 00 00 00 00 00 00 00 00 ................
00400AA0 00 00 00 00 00 00 00 00 00 00 00 00 00 00 00 00 ................
00400AB0 00 00 00 00 00 00 00 00 00 00 00 00 00 00 00 00 ................
00400AC0 00 00 00 00 00 00 00 00 00 00 00 00 00 00 00 00 ................
00400AD0 00 00 00 00 00 00 00 00 00 00 00 00 00 00 00 00 ................
00400AE0 00 00 00 00 00 00 00 00 00 00 00 00 00 00 00 00 ................
00400AF0 00 00 00 00 00 00 00 00 00 00 00 00 00 00 00 00 ................
00400B00 00 00 00 00 00 00 00 00 00 00 00 00 00 00 00 00 ................
00400B10 00 00 00 00 00 00 00 00 00 00 00 00 00 00 00 00 ................
00400B20 00 00 00 00 00 00 00 00 00 00 00 00 00 00 00 00 ................
00400B30 00 00 00 00 00 00 00 00 00 00 00 00 00 00 00 00 ................
00400B40 00 00 00 00 00 00 00 00 00 00 00 00 00 00 00 00 ................
00400B50 00 00 00 00 00 00 00 00 00 00 00 00 00 00 00 00 ................
00400B60 00 00 00 00 00 00 00 00 00 00 00 00 00 00 00 00 ................
00400B70 00 00 00 00 00 00 00 00 00 00 00 00 00 00 00 00 ................
00400B80 00 00 00 00 00 00 00 00 00 00 00 00 00 00 00 00 ................
00400B90 00 00 00 00 00 00 00 00 00 00 00 00 00 00 00 00 ................
00400BA0 00 00 00 00 00 00 00 00 00 00 00 00 00 00 00 00 ................
00400BB0 00 00 00 00 00 00 00 00 00 00 00 00 00 00 00 00 ................
00400BC0 00 00 00 00 00 00 00 00 00 00 00 00 00 00 00 00 ................
00400BD0 00 00 00 00 00 00 00 00 00 00 00 00 00 00 00 00 ................
00400BE0 00 00 00 00 00 00 00 00 00 00 00 00 00 00 00 00 ................
00400BF0 00 00 00 00 00 00 00 00 00 00 00 00 00 00 00 00 ................
00400C00 00 00 00 00 00 00 00 00 00 00 00 00 00 00 00 00 ................
00400C10 00 00 00 00 00 00 00 00 00 00 00 00 00 00 00 00 ................
00400C20 00 00 00 00 00 00 00 00 00 00 00 00 00 00 00 00 ................
00400C30 00 00 00 00 00 00 00 00 00 00 00 00 00 00 00 00 ................
00400C40 00 00 00 00 00 00 00 00 00 00 00 00 00 00 00 00 ................
00400C50 00 00 00 00 00 00 00 00 00 00 00 00 00 00 00 00 ................
00400C60 00 00 00 00 00 00 00 00 00 00 00 00 00 00 00 00 ................
00400C70 00 00 00 00 00 00 00 00 00 00 00 00 00 00 00 00 ................
00400C80 00 00 00 00 00 00 00 00 00 00 00 00 00 00 00 00 ................
00400C90 00 00 00 00 00 00 00 00 00 00 00 00 00 00 00 00 ................
00400CA0 00 00 00 00 00 00 00 00 00 00 00 00 00 00 00 00 ................
00400CB0 00 00 00 00 00 00 00 00 00 00 00 00 00 00 00 00 ................
00400CC0 00 00 00 00 00 00 00 00 00 00 00 00 00 00 00 00 ................
00400CD0 00 00 00 00 00 00 00 00 00 00 00 00 00 00 00 00 ................
00400CE0 00 00 00 00 00 00 00 00 00 00 00 00 00 00 00 00 ................
00400CF0 00 00 00 00 00 00 00 00 00 00 00 00 00 00 00 00 ................
00400D00 00 00 00 00 00 00 00 00 00 00 00 00 00 00 00 00 ................
00400D10 00 00 00 00 00 00 00 00 00 00 00 00 00 00 00 00 ................
00400D20 00 00 00 00 00 00 00 00 00 00 00 00 00 00 00 00 ................
00400D30 00 00 00 00 00 00 00 00 00 00 00 00 00 00 00 00 ................
00400D40 00 00 00 00 00 00 00 00 00 00 00 00 00 00 00 00 ................
00400D50 00 00 00 00 00 00 00 00 00 00 00 00 00 00 00 00 ................
00400D60 00 00 00 00 00 00 00 00 00 00 00 00 00 00 00 00 ................
00400D70 00 00 00 00 00 00 00 00 00 00 00 00 00 00 00 00 ................
00400D80 00 00 00 00 00 00 00 00 00 00 00 00 00 00 00 00 ................
00400D90 00 00 00 00 00 00 00 00 00 00 00 00 00 00 00 00 ................
00400DA0 00 00 00 00 00 00 00 00 00 00 00 00 00 00 00 00 ................
00400DB0 00 00 00 00 00 00 00 00 00 00 00 00 00 00 00 00 ................
00400DC0 00 00 00 00 00 00 00 00 00 00 00 00 00 00 00 00 ................
00400DD0 00 00 00 00 00 00 00 00 00 00 00 00 00 00 00 00 ................
00400DE0 00 00 00 00 00 00 00 00 00 00 00 00 00 00 00 00 ................
00400DF0 00 00 00 00 00 00 00 00 00 00 00 00 00 00 00 00 ................
00400E00 00 00 00 00 00 00 00 00 00 00 00 00 00 00 00 00 ................
00400E10 00 00 00 00 00 00 00 00 00 00 00 00 00 00 00 00 ................
00400E20 00 00 00 00 00 00 00 00 00 00 00 00 00 00 00 00 ................
00400E30 00 00 00 00 00 00 00 00 00 00 00 00 00 00 00 00 ................
00400E40 00 00 00 00 00 00 00 00 00 00 00 00 00 00 00 00 ................
00400E50 00 00 00 00 00 00 00 00 00 00 00 00 00 00 00 00 ................
00400E60 00 00 00 00 00 00 00 00 00 00 00 00 00 00 00 00 ................
00400E70 00 00 00 00 00 00 00 00 00 00 00 00 00 00 00 00 ................
00400E80 00 00 00 00 00 00 00 00 00 00 00 00 00 00 00 00 ................
00400E90 00 00 00 00 00 00 00 00 00 00 00 00 00 00 00 00 ................
00400EA0 00 00 00 00 00 00 00 00 00 00 00 00 00 00 00 00 ................
00400EB0 00 00 00 00 00 00 00 00 00 00 00 00 00 00 00 00 ................
00400EC0 00 00 00 00 00 00 00 00 00 00 00 00 00 00 00 00 ................
00400ED0 00 00 00 00 00 00 00 00 00 00 00 00 00 00 00 00 ................
00400EE0 00 00 00 00 00 00 00 00 00 00 00 00 00 00 00 00 ................
00400EF0 00 00 00 00 00 00 00 00 00 00 00 00 00 00 00 00 ................
00400F00 00 00 00 00 00 00 00 00 00 00 00 00 00 00 00 00 ................
00400F10 00 00 00 00 00 00 00 00 00 00 00 00 00 00 00 00 ................
00400F20 00 00 00 00 00 00 00 00 00 00 00 00 00 00 00 00 ................
00400F30 00 00 00 00 00 00 00 00 00 00 00 00 00 00 00 00 ................
00400F40 00 00 00 00 00 00 00 00 00 00 00 00 00 00 00 00 ................
00400F50 00 00 00 00 00 00 00 00 00 00 00 00 00 00 00 00 ................
00400F60 00 00 00 00 00 00 00 00 00 00 00 00 00 00 00 00 ................
00400F70 00 00 00 00 00 00 00 00 00 00 00 00 00 00 00 00 ................
00400F80 00 00 00 00 00 00 00 00 00 00 00 00 00 00 00 00 ................
00400F90 00 00 00 00 00 00 00 00 00 00 00 00 00 00 00 00 ................
00400FA0 00 00 00 00 00 00 00 00 00 00 00 00 00 00 00 00 ................
00400FB0 00 00 00 00 00 00 00 00 00 00 00 00 00 00 00 00 ................
00400FC0 00 00 00 00 00 00 00 00 00 00 00 00 00 00 00 00 ................
00400FD0 00 00 00 00 00 00 00                            .......        

l00400FD7:
	add	[eax],al
	add	[eax],al
	add	[eax],al
	add	[eax],al
	add	[eax],al
	add	[eax],al
	add	[eax],al
	add	[eax],al
	add	[eax],al
	add	[eax],al
	add	[eax],al
	add	[eax],al
	add	[eax],al
	add	[eax],al
	add	[eax],al
	add	[eax],al
	add	[eax],al
	add	[eax],al
	add	[eax],al
	add	[eax],al
	add	[esi+51],al
00401000 46 51 91 E4 D2 6A                               FQ...j         

fn00401006()
	lea	esp,[esp+04]

fn00401007()
	and	al,04
	mov	ecx,edi
	dec	esi
	inc	ebx
	xor	ebx,ecx
	xor	edi,edx
	xor	edx,ebx
	jpe	004012BE

fn0040101A()
	push	cx
	pop	cx
	xchg	ebx,ebx
	jpo	004012BE

l00401026:
	adc	[edi],bl
	imul	ebx,[edi+648D9901],F98B0424

fn0040102C()
	lea	esp,[esp+04]
	mov	edi,ecx

fn00401032()
	dec	ecx
	xor	esi,edx
	sub	edx,ecx
	dec	ebx
	add	esi,edi
	sub	esi,edx
	inc	edx
	js	0040104B

fn0040103F()
	mov	bx,bx
	jns	0040104B

l00401044:
	imul	esp,edi,00
	movsb	
	js	00400FD7

fn0040104B()
	mov	ecx,eax

l0040104C:
	enter	3349,C8

fn0040104D()
	dec	ecx
	xor	ecx,eax
	add	esi,edx
	mov	ebx,esi
	mov	edi,ebx
	add	edx,ecx
	add	ebx,edi
	jmp	004012A5
0040105F                                              16                .
00401060 AB 8E 98                                        ...            

fn00401063()
	pop	dword ptr [esp-14]
	mov	edx,ebx
	dec	esi
	sub	ecx,edi
	mov	edx,ebx
	dec	ecx
	or	ebx,eax
	call	004012F8
	rcr	ss:[ebp+6B],cl
	js	004010CC

fn0040107C()
	lea	esp,[esp+04]
	or	edx,ecx
	or	ebx,edi
	mov	esi,ebx
	inc	esi
	or	esi,edx
	sub	eax,EEEEEEEE
	dec	edx
	dec	edx
	call	0040102C
	retf	
00401096                   53 34 09 76                         S4.v     

fn0040109A()
	push	ebp
	mov	ebp,esp
	add	esi,eax
	or	ecx,edi
	add	edi,ecx
	dec	esi
	dec	ecx
	jo	00401289

l004010AB:
	xchg	edx,edx
	jno	00401289

l004010B3:
	fcom	double ptr [ebp+102D3D6C]
	xlat	
	mov	ebp,CA0BC88B

fn004010BB()
	mov	ecx,eax
	or	ecx,edx
	xor	esi,eax
	sub	edx,edi
	mov	eax,[eax]
	xor	edx,eax
	xor	ebx,esi
	add	esi,eax
	add	ebx,ecx

l004010CC:
	illegal	
	clc	
	jle	004011D2

fn004010D5()
	push	bx
	pop	bx
	jg	004011D2

l004010DF:
	jmp	dword ptr [ebp+40DBFB6E]

l004010E5:
	inc	ecx
	inc	edx
	add	edx,ebx
	or	edi,ebx
	inc	ebx
	inc	edx
	inc	ecx
	inc	edi
	call	00401270
	jo	00401153

l004010F6:
	aam	91
	shr	byte ptr [esi+D38BDE03],01

l004010FB:
	add	ebx,esi
	mov	edx,ebx

fn004010FF()
	sub	ecx,eax
	inc	edx
	sub	ebx,ecx
	add	ecx,ebx
	sub	esi,edx
	or	edx,ebx
	add	esi,ebx
	dec	edx
	call	00401006
	jg	0040118E

l00401114:
	stosd	
	mov	eax,ecx

fn00401117()
	add	ecx,ebx
	or	edx,ebx
	or	ebx,ecx
	xor	ecx,esi
	xor	edx,ecx
	mov	ebx,edi
	xor	ebx,esi
	jmp	00401337

l0040112A:
	dec	edx
	mov	edx,ebx
	xor	edi,eax
	sub	ebx,eax
	mov	ecx,edx
	mov	esi,ecx
	jmp	004012DF
0040113A                               91 AF 0F 59 E8 35           ...Y.5
00401140 44                                              D              

fn00401141()
	mov	edx,ecx
	or	ebx,esi
	add	edi,edx
	sub	edi,esi
	xor	edi,ebx
	inc	edx
	leave	
	xor	esi,eax
	sub	edx,esi
	or	ecx,ebx

l00401153:
	jmp	004010E5
00401155                AD EA 2C D6 CD                        ..,..     

fn0040115A()
	xchg	[esp],esi
	repne	
	pop	esi
	not	bl
	not	dh
	inc	dl
	adc	bl,96
	inc	edi
	not	bh
	inc	edx
	call	00401245
	jpe	0040110A
	cmpsb	
	push	esi
	pushf	
	movsb	

fn00401177()
	lea	esp,[esp+04]
	or	edx,edi
	xor	esi,eax
	sub	edx,eax
	xor	edi,esi
	mov	esi,edi
	sub	ebx,eax
	add	ecx,esi
	sub	edx,eax
	add	ebx,edx
	jmp	004010BB

fn0040118E()
	sub	edi,edi
	illegal	
00401192       BE 3D A2 07 F2 24                           .=...$       

fn00401198()
	inc	esi
	inc	ecx
	mov	edi,esi
	sub	edi,ebx
	mov	edx,esi
	inc	edi
	add	ebx,edi
	mov	esi,ebx
	inc	edx
	mov	esi,ebx
	call	0040107C
	les	edx,[edx+ecx*8-51]
	dec	esp
	push	eax
	push	ss
	sub	ebx,eax
	add	esi,ecx
	not	bl
	not	cl
	dec	ecx
	dec	edx
	sub	esi,ebx
	jc	0040112A

l004011C6:
	repne	
	rep	
	jnc	0040112A
	push	4109CBCF

fn004011D2()
	inc	ecx
	xor	ebx,ecx
	or	edi,ecx
	inc	ebx
	mov	ebx,edi
	mov	ecx,eax
	sub	edi,edx
	call	00401235
	imul	esi,[ebx-61],0E
	sub	al,8B

fn004011E8()
	mov	eax,[eax+08]

fn004011E9()
	inc	eax
	or	[ebx],cl
	illegal	
	dec	edi
	add	esi,ecx
	add	edi,edx
	xor	ecx,esi
	dec	ecx
	mov	ecx,edx
	dec	ebx
	add	ecx,edx
	call	00401218
	mov	bh,74
	adc	al,03

fn00401203()
	add	ecx,ebx

fn00401204()
	retf	
00401205                03 D0 4E 0B C3 0B C3 33 C8 E9 04      ..N....3...
00401210 FF FF FF                                        ...            
00401213          22 A8 BE 9D 2F                            ".../       

fn00401218()
	xchg	[esp],ecx
	xchg	al,al
	pop	ecx
	xor	edi,esi
	add	ebx,esi
	or	esi,edi
	and	eax,EEEEEEEE
	sub	ecx,ebx
	jmp	00401198
00401230 8F 1C 4A 54 18                                  ..JT.          

fn00401235()
	pop	dword ptr [esp-0C]
	dec	ebx
	inc	ebx
	dec	edi
	inc	ebx
	mov	edx,eax
	jmp	004011E8
00401241    0F D7 DB 5C 8D 64 24 04 B1 61 FE CE F6 D2 8A  ...\.d$..a.....
00401250 EC 80 D6 54 80 D2 A9 4F 33 F9 8A F7 0F 86 52 FF ...T...O3.....R.
00401260 FF FF 8B C0 0F 87 4A FF FF FF 01 10 25 2F A5 E4 ......J.....%/..

fn00401270()
	lea	esp,[esp+04]
	inc	edi
	mov	edi,ebx
	or	esi,ebx
	dec	ecx
	dec	eax
	xor	eax,edx
	sub	ebx,ecx
	inc	esi
	jmp	00401203
00401285                70 E5 36 9D                           p.6.      

l00401289:
	dec	ebx
	inc	edi
	or	esi,ebx
	mov	ebx,eax
	dec	edx
	inc	edx
	jc	004010FB

l00401297:
	jo	00401299

l00401299:
	jnc	004010FB

l0040129F:
	sbb	ah,ah

fn004012A0()
	in	al,42
	cdq	
	into	
	push	cs

fn004012A5()
	or	eax,eax
	jz	004012AA

l004012A9:
	ret	

l004012AA:
	xor	ecx,edi
	xor	edi,esi
	dec	esi
	dec	edi
	or	edi,eax
	call	00401316
	sbb	[ecx],bh
	mov	[edi],es
	dec	eax
	push	eax
	lds	esi,esi

fn004012BE()
	not	cl
	add	cl,77
	or	ch,bl
	mov	dh,3D
	sub	bl,dl
	neg	dh
	add	edx,ecx
	inc	ch
	or	dh,ah
	mov	cl,al
	call	0040115A
	mov	bh,48
	xchg	bl,cl
	mov	ss,[ebp+33]

fn004012DF()
	xor	esi,ebx
	mov	edi,esi
	add	edi,esi
	mov	eax,fs:[00000030]
	add	edx,eax
	sub	edx,edi
	call	00401063
	illegal	
	out	dx,al
	cwde	
	ror	[ebp+33042464],cl

fn004012F8()
	lea	esp,[esp+04]
	xor	esi,ecx
	inc	ebx
	mov	eax,[eax+00000090]
	sub	ecx,edx
	sub	edx,ebx
	xor	edi,ecx
	call	00401177
	clc	
	mov	ch,42

fn00401312()
	inc	edx

fn00401313()
	in	eax,7B
	jcxz	004012A0

fn00401316()
	mov	[esp],eax

fn00401317()
	add	al,24
	jmp	0040131E

fn0040131E()
	pop	eax
	mov	ebx,eax
	mov	edx,eax
	xor	edx,ebx
	js	00401141

l0040132B:
	rep	
	jns	00401141
	inc	edi
	sub	[esp+eax*4+0CB9E8D0],dh

fn00401337()
	call	00401FF5
	lodsd	
	xchg	eax,ebx
	and	[edi],bh
	add	[esp+ebx*4],ebx
	arpl	[ecx],bx
	sbb	al,1D
	imul	ecx,fs:[eax-70],91
	arpl	[edx],bx
	sbb	al,89
	jcxz	0040136D

l00401353:
	sbb	al,89
	pop	edx
	inc	edi
	mov	cl,9B
	test	[eax+949585A5],al
	and	eax,84919153
	das	
	test	[eax],dh
	push	ss
	ja	004013C1

l0040136A:
	mov	al,91
	xchg	eax,ecx

l0040136D:
	pop	es
	fiadd	dword ptr [ecx+7A]
	mov	edx,2390E623
	shl	dword ptr [ebx],01
	sti	
	adc	esp,[ebx]
	cli	
	xchg	eax,ebx
	ja	004013B4

l0040137F:
	jo	00401312

l00401381:
	xchg	eax,ecx
	illegal	
	inc	ebx
	dec	ebx
	ja	0040139A
	push	ebx
	xchg	eax,ecx
	xchg	eax,ecx
	xchg	eax,ebp

l0040138C:
	mov	eax,[4CD94325]
	xchg	eax,esp
	dec	ebp
	xchg	eax,ecx
	xchg	eax,ecx
	xchg	eax,ecx
	stc	
	xchg	eax,ecx
	loope	0040132B
	xchg	eax,ecx
	push	edx
	adc	dword ptr [ecx],1E20B3F0

l0040139E:
	adc	eax,esi
	mov	bl,20
	push	ds
	push	eax
	xchg	eax,ecx
	xchg	eax,ecx
	and	[esi+1FA0B3A1],dl
	push	eax
	xchg	eax,ecx
	xchg	eax,ecx
	js	00401428

l004013B1:
	cld	
	push	eax
	xchg	eax,ecx

l004013B4:
	xchg	eax,ecx
	mov	[FB6A0D6F],eax
	push	ebx
	mov	ah,4C
	xchg	eax,esp
	mov	[23919150],al

l004013C1:
	xchg	eax,ecx
	and	ebp,[eax]

l004013C3:
	sub	[eax],dh

l004013C4:
	xor	[ecx+1E87B119],bl
	cmp	dl,[ebx+edi*2+259191D0]

l004013CE:
	xchg	eax,ecx
	xchg	eax,ecx
	and	eax,91939169
	xchg	eax,ecx
	and	edi,edx
	mov	ah,[ebx]
	clc	
	or	esi,[edi-76]
	rcl	byte ptr [ecx+71169491],01
	push	ebp
	sub	edi,[ebp+ecx+4F]

l004013E6:
	jl	004013F5

l004013E7:
	or	eax,F00D774F

l004013EB:
	lock	
	xchg	eax,ecx
	xchg	eax,ecx
	xchg	eax,esp
	fcom	double ptr [eax-6F]
	xchg	eax,ecx
	aas	

l004013F4:
	sub	esp,esi
	loope	0040138C

l004013F8:
	push	ds
	xchg	eax,ecx
	xchg	eax,ecx
	xchg	eax,ecx
	aaa	
	inc	edx
	inc	ebp
	mov	edx,9258232F
	aaa	
	shl	[edi],cl
	adc	[ebx],ah
	push	edx
	mov	ds:[ecx],edi
	sub	dh,[ebx+917097E0]
	xchg	eax,ecx
	and	eax,9110486B
	ja	004013E6

l0040141C:
	lock	
	xchg	eax,ecx
	xchg	eax,ecx
	bound	esi,ebx
	xchg	eax,ebx
	cmp	[edx-6F],ebx
	cmp	[eax+4A],edx

l00401428:
	out	F0,al
	inc	ebx
	rcr	al,cl
	push	edx
	dec	edx
	sub	[esi],bh
	imul	esi,[edi+54],70
	xchg	eax,ecx
	xchg	eax,ecx
	push	ecx
	add	esi,[eax+3B]
	sbb	eax,90E130DD
	ja	004014AD

l00401442:
	adc	[ecx+916FEF91],dl
	xchg	eax,ecx
	xchg	eax,ecx
	xor	dword ptr [ebx+9190FA00],9191FE91
	xchg	eax,ecx
	xor	dword ptr [edi-67],29919190
	illegal	
	mov	[bx-7A],ss

l0040145F:
	ja	004013E7

l00401461:
	jo	004013F4

l00401463:
	xchg	eax,ecx
	illegal	
	xchg	eax,esp
	mov	bl,00
	sub	dl,cl
	mov	cl,B1
	xor	ch,[ebx+77]
	cmp	[ecx+9862B1B1],esi
	push	770F9095
	push	edx
	mov	cl,B1
	mov	cl,5E
	and	eax,75D252C9
	clc	
	and	esp,[133A2313]
	and	esp,[esi]
	adc	esi,[edi]
	lock	
	ja	0040144C
	push	ebx
	xchg	eax,ecx
	xchg	eax,ecx
	and	ebx,eax
	sbb	eax,9C77A839
	push	ebx
	xchg	eax,ecx
	xchg	eax,ecx
	loop	0040143B
	xlat	
	pop	ecx
	and	[ebx],ch
	sbb	esi,[ebx+91B07F40]

l004014AD:
	xchg	eax,ecx
	and	edi,eax
	xchg	eax,esi
	arpl	ax,bx
	mov	ah,[ebx]
	clc	
	pop	ss
	ja	004014BF

l004014B9:
	lock	
	xchg	eax,ecx
	xchg	eax,ecx
	ja	0040145F

l004014BE:
	lock	

l004014BF:
	xchg	eax,ecx
	xchg	eax,ecx
	ja	0040150A

l004014C3:
	lock	
	xchg	eax,ecx
	xchg	eax,ecx
	add	[eax+180F0153],ah
	and	ecx,[ebx+36]
	or	al,77
	bound	edx,[eax+FB239191]

l004014D7:
	adc	esi,[esi]
	or	al,77
	in	eax,dx
	nop	
	xchg	eax,ecx
	xchg	eax,ecx
	ja	00401521

l004014E1:
	nop	
	xchg	eax,ecx
	xchg	eax,ecx
	push	edi
	sbb	ebp,ecx
	ret	792D
004014EA                               AA FA 23 17 3A DA           ..#.:.
004014F0 BA 23 E1 13 04 23 FD 9F 91 91 91 37 43 F3 C1 F3 .#...#.....7C...

l00401500:
	pop	ds
	xchg	[00B381CA],ebp

l00401505:
	mov	bl,00

l00401507:
	insd	
	push	eax
	xchg	eax,ecx

l0040150A:
	xchg	eax,ecx
	xor	ch,ah
	nop	
	ja	00401529

l00401510:
	xor	[ecx+103B2391],dl

l00401514:
	cmp	edx,[eax]
	and	[edi-70],dh
	and	esi,[esi]

l0040151B:
	ja	0040158F

l0040151D:
	adc	[ecx+89359891],dl

l00401521:
	xor	eax,23BA0B89
	sti	
	xchg	eax,ebx
	and	esp,esi

l00401529:
	out	13,al
	and	esp,ecx
	nop	
	or	al,23
	test	al,A5
	lds	esi,[edi+6F]
	adc	[ecx+9738FE91],dl

l00401537:
	xchg	eax,ecx
	xchg	eax,ecx
	illegal	
	xchg	eax,edi
	jg	00401571

l0040153E:
	jpe	00401537

l00401540:
	fisub	word ptr [ebx]
	sti	
	adc	esp,[ebx]
	loope	004014D7

l00401547:
	dec	edi
	movsd	
	imul	ecx,[eax-70],91
	aaa	
	sub	eax,06A78071
	mov	dword ptr [edi+686A3039],337B3048
	imul	esi,[ebx+B1D1FDE0],B1
	and	edi,eax
	nop	
	and	edi,ebx
	adc	esp,[ebx]
	cli	
	xchg	eax,ebx
	jle	00401500

l00401570:
	ja	0040151B

l00401571:
	test	eax,3C919170

l00401572:
	jo	00401505

l00401574:
	xchg	eax,ecx
	cmp	al,D3

l00401576:
	rcl	[ebp+B38F5674],cl

l0040157A:
	pop	dword ptr [ebx+B1D13420]
	mov	cl,2E
	push	eax
	js	00401514

l00401585:
	xchg	eax,ebx
	xchg	eax,esp
	sub	eax,52B1B1D1
	mov	[esi],esp
	mov	dh,E6

l0040158F:
	out	BB,al

l00401590:
	mov	ebx,B1D15A77

l00401591:
	ja	004015ED
	shl	dword ptr [ecx+1CB610B1],01
	int	BB
	jmp	dword ptr [ebp+91D02B77]
	xchg	eax,ecx
	jpe	004015C7
	shl	[eax],cl
	dec	ebx
	mov	ds:[edi+57],esi
	adc	[ecx+10B57791],dl
	xchg	eax,ecx
	xchg	eax,ecx
	lahf	
	cmp	eax,EE0A2F34
	sbb	eax,95F823A7

l004015BB:
	and	edi,eax
	xchg	eax,ebp

l004015BE:
	xor	[ecx+9B982319],bl
	arpl	bx,bx
	adc	eax,E6B19947
	adc	eax,7795E6B1

l004015D0:
	mov	dword ptr [eax+2AA19191],FBA72190
	js	004015BE

l004015DC:
	and	ebp,eax
	jo	004015BB

l004015E1:
	and	esi,[esi+0C36973F]
	lds	esi,[edi-13]
	xor	[ecx+D11E7791],dl
	mov	cl,B1
	iret	
004015F3          B6 97 46 18 9D 20 28 13 23 5A 13 23 52    ..F.. (.#Z.#R
00401600 77 90 D1 B1 B1 23 5B 9F 3E 89 77 FF 73 91 91 77 w....#[.>.w.s..w
00401610 9D 73 91 91 3C 9A 11 AE D2 78 94 B0 D1 B1 B1 32 .s..<....x.....2
00401620 6B 94 91 D1 B1 B1 46 56 28 77 52 F1 B1 B1 B2 93 k.....FV(wR.....
00401630 97 A0 88 CC 1A 56 30 F8 95 B1 26 1C B1 26 90 9B .....V0...&..&..
00401640 94 38 D0 91 91 65 77 67 30 91 91 35 92 E1 AF 92 .8...ewg0..5....
00401650 50 54 A5 C5 25 6B 48 13 91 FA 77 B4 91 91 91 35 PT..%kH...w....5
00401660 26 5D 46 DC 07 67 9D 23 F8 90 6B 48 90 91 FA 23 &]F..g.#..kH...#
00401670 17 84 91 81 91 91 E3 F8 13 9B 77 F7 10 91 91 E1 ..........w.....
00401680 FE 80 B8 C7 BF 76 01 33 6B B3 E0 3A B0 91 91 25 .....v.3k..:...%
00401690 6B 48 13 91 FA 23 17 DA 77 0A 11 B1 B1 E1 C5 1E kH...#..w.......
004016A0 5C 97 E3 84 32 66 33 6E 9B 94 F1 91 91 91 B1 8B \...2f3n........
004016B0 E3 F8 97 9B E3 F8 16 9B 47 91 47 91 77 EF 30 91 ........G.G.w.0.
004016C0 91 8C 0C 0E 65 7B 26 B1 E6 93 E3 F8 13 9B E3 F8 ....e{&.........
004016D0 90 9B 47 B1 84 80 A5 85 95 77 B0 D0 91 91 21 05 ..G......w....!.
004016E0 42 B3 19 36 77 2A 10 91 91 2D 75 8B 35 10 1C 35 B..6w*...-u.5..5
004016F0 10 1C D5 68 35 10 1C 77 90 D0 91 91 F0 77 26 50 ...h5..w.....w&P
00401700 D8 23 94 D8 94 17 50 91 91 63 F8 95 04 23 F3 9F .#....P..c...#..
00401710 91 91 91 63 78 90 B1 E6 15 B1 E6 95 94 E8 50 91 ...cx.........P.
00401720 91 23 E5 0A 30 25 19 B1 26 1A 77 46 90 91 91 61 .#..0%..&.wF...a
00401730 6D 07 E4 F0 7E 93 A5 C5 6B 48 13 91 FA 23 17 37 m...~...kH...#.7
00401740 BC B9 E8 39 7A 54 23 17 20 08 11 3A DA BA 23 E5 ...9zT#. ..:..#.
00401750 90 30 25 19 E3 2D 81 91 91 91 23 3D 77 EF B0 91 .0%..-....#=w...
00401760 91 7C E2 62 B4 99 8C 70 85 23 E6 13 23 E1 90 11 .|.b...p.#..#...
00401770 4E 81 3E 35 0C 77 D3 50 91 91 B0 96 B4 CD 29 BA N.>5.w.P......).
00401780 3E C7 B1 8B 23 F8 11 6B 48 90 91 FA 23 17 20 08 >...#..kH...#. .
00401790 96 3A 77 B5 B0 91 91 94 8A 56 24 91 4E FF B3 A0 .:w......V$.N...
004017A0 A7 F1 B1 B1 A5 C5 25 6B 48 90 91 FA 23 17 77 AA ......%kH...#.w.
004017B0 F0 91 91 83 69 F9 CE BE 2D 65 63 F8 93 3E 4A B6 ....i...-ec..>J.
004017C0 E6 13 43 18 7D B1 43 1C 5D 80 04 7D B1 80 10 5D ..C.}.C.]..}...]
004017D0 7B 77 6E D1 B1 B1 8C 4C BB E6 3F FA 13 30 25 19 {wn....L..?..0%.
004017E0 E3 2D 8D 91 91 91 23 3D 23 FB 90 33 35 06 EE 39 .-....#=#..35..9
004017F0 FB 13 77 D3 F1 B1 B1 38 B0 2E 85 FA 23 17 20 08 ..w....8....#. .
00401800 0B 3A 47 91 B3 7E 23 88 60 74 B1 91 91 91 47 70 .:G..~#.`t....Gp
00401810 77 AB D1 B1 B1 3A 8F 85 F7 09 0B 30 68 63 F8 0B w....:.....0hc..
00401820 23 E5 95 B1 E6 0B B1 E6 8B 3A 94 09 11 B1 B1 3A #........:.....:
00401830 77 80 31 B1 B1 8B E4 09 D2 35 B5 60 70 B2 20 C8 w.1......5.`p. .
00401840 50 20 77 50 33 6B B3 E0 F7 91 91 91 30 25 10 20 P wP3k......0%. 
00401850 21 10 90 77 D8 B1 B1 B1 9E 26 FB 8E 94 5F B1 B1 !..w.....&..._..
00401860 B1 63 F8 14 B1 E6 96 B1 E6 14 3A 94 1C D1 B1 B1 .c........:.....
00401870 B6 F8 11 10 91 91 91 B3 00 23 F0 91 91 9B 77 86 .........#....w.
00401880 F0 91 91 66 20 81 DE F1 EF 84 0B 0B 0B 0B A3 F8 ...f ...........
00401890 97 84 91 DE 91 91 A3 F8 94 84 91 DE 91 91 A3 F8 ................
004018A0 14 84 DE FD B5 AC A3 F8 17 77 F3 F1 B1 B1 46 3A .........w....F:
004018B0 D6 50 A5 A5 9B 84 80 A5 85 95 94 B1 10 91 91 84 .P..............
004018C0 68 DF 8A 76 9B 94 74 D1 B1 B1 77 23 D0 91 91 51 h..v..t...w#...Q
004018D0 5E 8C 78 DA D6 23 3B 13 30 FB 95 B1 26 93 9B 7A ^.x..#;.0...&..z
004018E0 94 41 50 91 91 23 38 13 77 7B F1 B1 B1 01 0C 0E .AP..#8.w{......
004018F0 5B 57 30 8A 30 75 30 55 23 4B 36 0C 30 E6 11 20 [W0.0u0U#K6.0.. 
00401900 57 53 B6 55 77 28 31 B1 B1 AB A8 17 B2 E5 20 D9 WS.Uw(1....... .
00401910 91 B3 E0 DF 31 B1 B1 20 28 12 20 21 13 91 B3 E0 ....1.. (. !....
00401920 51 F0 91 91 A5 C5 25 77 77 91 91 91 34 57 F4 D5 Q.....%ww...4W..
00401930 31 20 C8 90 77 33 B1 B1 B1 B3 AE D0 B3 AE 96 C4 1 ..w3..........
00401940 60 B4 B1 B3 C4 68 94 13 20 96 30 B3 E0 F7 D1 B1 `....h.. .0.....
00401950 B1 30 39 30 E1 90 77 74 D1 B1 B1 D6 4C A3 DC 25 .090..wt....L..%
00401960 E3 F8 96 9B 84 80 A5 85 95 94 9B 10 91 91 84 C5 ................
00401970 08 B6 D7 9B 94 5E D1 B1 B1 B1 8B 77 AB 91 91 91 .....^.....w....
00401980 3D B0 22 6D E5 79 9F D5 2E 50 94 A2 51 B1 B1 B3 =."m.y...P..Q...
00401990 20 B5 F1 B1 B1 3E 6B 94 43 51 B1 B1 B3 20 1B 51  ....>k.CQ... .Q
004019A0 B1 B1 3E 89 94 E1 51 B1 B1 77 EB 31 B1 B1 8C 49 ..>...Q..w.1...I
004019B0 AA A6 03 02 20 28 9C 7B 33 6B B3 E0 31 F0 91 91 .... (.{3k..1...
004019C0 B1 E6 94 B1 E6 0A 94 2C 11 B1 B1 23 FB 95 23 78 .......,...#..#x
004019D0 19 23 18 70 9C 77 78 D1 B1 B1 D3 28 5F F9 52 D8 .#.p.wx....(_.R.
004019E0 B6 79 6B 48 13 91 FA 23 17 BA 3E 89 77 9B 31 B1 .ykH...#..>.w.1.
004019F0 B1 3A 41 B1 A3 FA 23 17 47 99 84 91 9F 91 91 E3 .:A...#.G.......
00401A00 F8 13 9B 47 91 E3 F8 90 77 C9 F0 91 91 CB 7D 1E ...G....w.....}.
00401A10 E1 B2 B9 B2 02 6B 48 10 91 FA 23 17 3A DA BA 23 .....kH...#.:..#
00401A20 E5 90 23 2A 77 6E F1 B1 B1 98 73 BD EF 3A 1F 96 ..#*wn....s..:..
00401A30 98 68 94 B3 68 95 B3 B3 AE 90 60 77 FB 45 91 91 .h..h.....`w.E..
00401A40 33 6B 77 DC 10 91 91 C1 F1 4F A4 0B 9C F3 9D 47 3kw......O.....G
00401A50 70 E3 F8 96 9B E3 F8 16 9B 84 80 A5 85 95 94 25 p..............%
00401A60 30 91 91 77 39 11 B1 B1 A9 58 0E 54 D3 60 84 80 0..w9....X.T.`..
00401A70 A5 85 95 94 D8 30 91 91 84 CE B1 1C 3E 9B 94 9C .....0......>...
00401A80 F1 B1 B1 B1 8B E3 F8 16 77 BC D1 B1 B1 82 14 69 ........w......i
00401A90 0B AE 68 89 B0 5E 70 78 81 79 91 E6 F6 FE 40 51 ..h..^px.y....@Q
00401AA0 9B 3B 39 28 B3 E0 03 50 91 91 23 B8 1C 30 48 77 .;9(...P..#..0Hw
00401AB0 67 50 91 91 55 C9 C5 7F 7A 6B 23 16 20 C8 93 84 gP..U...zk#. ...
00401AC0 91 99 91 91 63 1B 1C 89 E3 1B 1C 89 7A 77 21 96 ....c.......zw!.
00401AD0 B1 B1 6C 0E A0 0A 79 E1 2B 25 6B 48 93 91 FA 23 ..l...y.+%kH...#
00401AE0 17 3A 77 97 50 91 91 99 F7 E6 94 DB 66 6B 48 13 .:w.P.......fkH.
00401AF0 91 FA 23 17 B1 E6 90 47 B1 84 80 A5 85 95 94 29 ..#....G.......)
00401B00 50 91 91 77 B2 30 91 91 4F E4 ED 76 C9 E5 CE B1 P..w.0..O..v....
00401B10 E6 17 B1 E6 14 3A 94 28 B1 B1 B1 B6 F8 11 90 91 .....:.(........
00401B20 91 91 B3 00 19 F1 B1 B1 B1 E6 97 B1 E6 16 B1 E6 ................
00401B30 14 3A 77 FC F1 B1 B1 F7 B7 F6 69 31 63 F8 0A 23 .:w.......i1c..#
00401B40 E5 95 30 25 19 60 28 9D 70 91 91 23 25 13 30 E5 ..0%.`(.p..#%.0.
00401B50 95 37 09 FA C5 F1 64 9B 94 DB 11 B1 B1 9B 28 FA .7....d.......(.
00401B60 23 17 DA 77 09 71 B1 B1 DB 2C 3B 9B E3 F8 90 9B #..w.q...,;.....
00401B70 47 B1 84 80 A5 85 95 94 58 50 91 91 84 2F 84 30 G.......XP.../.0
00401B80 16 9B 94 1C 11 B1 B1 77 D6 91 91 91 02 60 2D E7 .......w.....`-.
00401B90 CF AC C6 C8 94 52 11 B1 B1 B1 8B B1 E6 90 84 80 .....R..........
00401BA0 A5 85 95 94 D2 50 91 91 84 B6 4A 07 61 9B 94 96 .....P....J.a...
00401BB0 31 B1 B1 77 4B 31 B1 B1 F3 5A 04 70 60 71 12 CF 1..wK1...Z.p`q..
00401BC0 B8 70 B3 E0 7C 31 B1 B1 9A 35 12 1C 9A 8E 30 91 .p..|1...5....0.
00401BD0 91 91 3E 4A C4 C3 94 C4 03 94 6A 88 77 A8 96 B1 ..>J......j.w...
00401BE0 B1 BB 5C 76 D3 A3 A4 CE E3 25 92 B1 26 9E A3 F8 ..\v.....%..&...
00401BF0 15 B1 26 9E B1 26 1D B1 26 9E B1 26 1D B1 26 1D ..&..&..&..&..&.
00401C00 94 17 D1 B1 B1 94 04 51 B1 B1 77 F6 51 B1 B1 BB .......Q..w.Q...
00401C10 BD 4D C8 D8 6C B6 F8 11 93 91 91 91 B3 00 16 51 .M..l..........Q
00401C20 B1 B1 B1 E6 95 94 A8 D1 B1 B1 B1 E6 15 B1 E6 95 ................
00401C30 94 79 51 B1 B1 23 E5 0A 30 25 19 37 2F 7D 46 FE .yQ..#..0%.7/}F.
00401C40 6F FD 23 FA 90 23 99 86 30 48 23 96 23 87 9D 30 o.#..#..0H#.#..0
00401C50 56 23 98 92 63 FB 11 23 E5 13 3E 6B 77 19 71 B1 V#..c..#..>kw.q.
00401C60 B1 0C 5A 04 F4 F7 1F 6F 65 20 C8 10 78 39 FB 11 ..Z....oe ..x9..
00401C70 B3 40 1F 71 B1 B1 A5 C5 77 19 70 91 91 8D CB 99 .@.q....w.p.....
00401C80 22 BC B1 8B 6B 48 90 91 FA 23 17 20 08 11 E3 F8 "...kH...#. ....
00401C90 11 9B 77 9F 51 B1 B1 DF FA 33 3C 9B B1 E6 11 94 ..w.Q....3<.....
00401CA0 A9 50 91 91 37 B3 30 F8 90 E3 99 50 9B B1 E6 11 .P..7.0....P....
00401CB0 94 CF 50 91 91 2F 77 3A 11 B1 B1 8E B0 D0 48 87 ..P../w:......H.
00401CC0 47 91 E3 F8 16 9B B1 E6 13 9B 84 80 A5 85 95 94 G...............
00401CD0 57 91 91 91 84 C5 08 B6 D7 9B 77 EE D1 B1 B1 15 W.........w.....
00401CE0 7C 10 73 EB F7 94 0A 91 91 91 84 09 13 C8 26 9B |.s...........&.
00401CF0 94 CE 51 B1 B1 B1 8B 23 F8 11 77 D7 F1 B1 B1 2C ..Q....#..w....,
00401D00 09 EE 13 F8 B3 37 2A D5 68 35 10 1C D5 68 B3 37 .....7*.h5...h.7
00401D10 68 E3 7B 70 77 2C D1 B1 B1 23 A3 5A C5 65 B3 AE h.{pw,...#.Z.e..
00401D20 13 98 23 B8 1D 30 48 23 10 80 30 48 77 F8 B1 B1 ..#..0H#..0Hw...
00401D30 B1 77 5E B1 B1 B1 3E 89 77 3F B1 B1 B1 CB 5A 50 .w^...>.w?....ZP
00401D40 86 5E E3 F8 11 9B 60 E1 13 B1 B1 91 91 B3 A0 E7 .^....`.........
00401D50 B1 B1 B1 B1 E6 13 47 91 77 D9 D1 B1 B1 77 C5 B1 ......G.w....w..
00401D60 B1 B1 77 27 06 80 23 F8 11 7F F8 96 20 89 53 7F ..w'..#..... .S.
00401D70 F8 13 20 E1 13 91 B3 E0 FF 70 91 91 23 F8 96 A5 .. ......p..#...
00401D80 C5 77 3A F1 B1 B1 A7 DB 2E 28 20 08 11 3A DA BA .w:......( ..:..
00401D90 23 F8 90 30 99 19 77 AC D1 B1 B1 02 47 E5 F9 81 #..0..w.....G...
00401DA0 76 32 50 CB 4A 89 43 4B 4A 88 65 4F 77 CC B6 B1 v2P.J.CKJ.eOw...
00401DB0 B1 F9 07 03 4A 54 9C 09 55 25 6B 48 90 91 FA 23 ....JT..U%kH...#
00401DC0 17 3A 04 23 F2 9F 91 91 91 23 5A 13 23 55 77 FC .:.#.....#Z.#Uw.
00401DD0 96 B1 B1 B3 B2 6F 30 23 FB 13 23 E5 90 77 EC 96 .....o0#..#..w..
00401DE0 B1 B1 23 F8 93 FE EA B1 52 FE 68 88 72 FF 46 74 ..#.....R.h.r.Ft
00401DF0 C2 12 77 28 71 B1 B1 C2 F5 D2 6C B1 E6 0A 94 79 ..w(q.....l....y
00401E00 71 B1 B1 77 F3 D1 B1 B1 B1 E6 14 9B B1 E6 0A 94 q..w............
00401E10 3B F1 B1 B1 77 11 F1 B1 B1 68 98 2D 74 31 8B 84 ;...w....h.-t1..
00401E20 34 3F 00 EA 9B 94 60 71 B1 B1 B1 8B 6B 48 10 91 4?....`q....kH..
00401E30 FA 23 17 20 08 97 B1 E6 90 77 5C 31 B1 B1 7B 56 .#. .....w\1..{V
00401E40 34 D5 94 78 D1 B1 B1 23 F8 95 23 88 30 99 19 23 4..x...#..#.0..#
00401E50 99 9C 30 68 63 F8 8B B1 E6 94 47 91 94 02 31 B1 ..0hc.....G...1.
00401E60 B1 77 CA 11 B1 B1 62 1D 7B B1 C3 6B A6 B3 E0 E9 .w....b.{..k....
00401E70 31 B1 B1 63 F8 95 11 84 91 91 91 91 A3 F8 11 84 1..c............
00401E80 B2 B5 28 09 A3 F8 96 84 0B 0B 0B 0B A3 F8 16 77 ..(............w
00401E90 F6 71 B1 B1 E2 39 93 ED 40 D7 79 23 E6 90 23 D1 .q...9..@.y#..#.
00401EA0 B3 CE E5 72 77 6B D1 B1 B1 20 E1 13 53 B3 40 5C ...rwk... ..S.@\
00401EB0 D6 B1 B1 23 28 3E 4A 69 53 91 91 91 B6 76 77 BF ...#(>JiS....vw.
00401EC0 51 B1 B1 97 48 3E 00 7A A3 E6 72 B1 E6 90 A3 D8 Q...H>.z..r.....
00401ED0 92 B1 E6 93 A3 D8 1D 77 C6 B6 B1 B1 23 DE 39 56 .......w....#.9V
00401EE0 B3 E0 6E F6 B1 B1 77 A4 B6 B1 B1 E3 D7 64 20 C9 ..n...w......d .
00401EF0 38 2B 20 39 91 06 10 23 3E 37 30 23 26 93 30 E6 8+ 9...#>70#&.0.
00401F00 90 23 21 93 77 1E F6 B1 B1 41 94 73 A2 D7 33 35 .#!.w....A.s..35
00401F10 B3 00 D3 51 B1 B1 30 E5 90 77 11 71 B1 B1 23 38 ...Q..0..w.q..#8
00401F20 13 30 F8 90 9B 94 D0 B1 B1 B1 63 F8 11 37 28 7F .0........c..7(.
00401F30 BA 7D DF 7E 68 89 B0 5E 70 20 68 50 C4 20 79 91 .}.~h..^p hP. y.
00401F40 E6 56 FE 40 51 9B 3B 39 F8 90 B3 E0 69 16 B1 B1 .V.@Q.;9....i...
00401F50 77 EF 16 B1 B1 C0 3F A7 1B 47 B1 8B 23 F8 97 6B w.....?..G..#..k
00401F60 48 10 91 FA 23 17 20 08 16 77 0A F1 B1 B1 40 F0 H...#. ..w....@.
00401F70 CC E7 5A 5C A2 19 DA BA 23 F8 13 3F F8 12 63 F8 ..Z\....#..?..c.
00401F80 13 63 F8 96 81 E1 93 91 B3 00 D7 F1 B1 B1 B3 CE .c..............
00401F90 F8 93 63 F8 11 77 70 B1 B1 B1 32 65 6A 69 AE 51 ..c..wp...2eji.Q
00401FA0 62 B1 E6 0A B1 E6 95 94 2E 31 B1 B1 B3 AE 3B D0 b........1....;.
00401FB0 60 28 96 91 91 91 77 F1 71 B1 B1 7A 23 38 12 30 `(....w.q..z#8.0
00401FC0 F8 0A 77 D3 71 B1 B1 25 7A 4F 04 9B 47 B1 84 80 ..w.q..%zO..G...
00401FD0 A5 85 95 94 D4 F1 B1 B1 84 C4 3A 50 58 9B 94 88 ..........:PX...
00401FE0 B6 B1 B1 B1 8B 77 E1 D6 B1 B1 F5 22 38 0B B4 22 .....w....."8.."
00401FF0 7A 6A 71 85 8E                                  zjq..          

fn00401FF5()
	xor	dh,cl
	dec	dl
	add	esi,eax
	xor	edx,esi
	sbb	bl,AC
	xor	ah,dl
	xor	ch,cl
	add	ch,dl
	or	edx,edi
	call	00402CD1
	jpe	0040205C

l0040200F:
	daa	
	stosb	

fn00402011()
	inc	ebx
	sub	esi,edi
	mov	ebx,edi
	add	ebx,edi
	adc	bh,EA
	sub	bl,ch
	push	dword ptr [eax+10]
	add	bh,96
	xor	ebx,edx
	call	00402146
	illegal	
	mov	edx,eax

fn0040202E()
	mov	dh,cl
	inc	eax
	shl	ecx,0F
	add	ebx,esi
	mov	bl,BC
	dec	ebx
	call	00402E10
	xor	eax,65447F69
	out	dx,ax

fn00402044()
	add	bl,78
	mov	bh,bl
	sbb	ah,47
	mov	dl,cl
	sub	edx,ecx
	mov	bl,D1
	shr	ecx,0F
	sbb	ah,2E
	jpe	004021BF

fn0040205C()
	add	[eax],al

fn0040205E()
	mov	ax,ax
	xchg	edx,edx
	jpo	004021BF

l00402069:
	retf	
0040206A                               92 13 6B 34 76              ..k4v

fn0040206F()
	mov	[esp],esi
	jz	00402074

l00402074:
	pop	esi
	add	cl,dl
	dec	edx
	mov	ch,ah
	or	ecx,edx
	mov	ch,dl
	xor	ch,bh
	js	00402D36

l00402086:
	lea	eax,[eax]
	push	ebx
	pop	ebx
	jns	00402D36

l00402090:
	add	byte ptr [ecx+edi*2],20
	retf	C097

fn00402097()
	lea	esp,[esp+04]
	inc	ch
	xor	cl,al
	not	cl
	add	ecx,edx
	sub	edi,edx
	or	edi,ecx
	jc	004023E8

l004020AD:
	jnc	004020AF

l004020AF:
	jmp	004020B5
004020B4             BD                                      .          

l004020B5:
	jnc	004023E8

l004020BB:
	fcomp	dword ptr [edi]
	adc	al,91
	jnc	0040210C
	mov	[D424448F],ax

fn004020C3()
	pop	dword ptr [esp-2C]
	dec	ah
	add	edi,esi
	not	ah
	or	cl,ch
	inc	al
	xor	al,bh
	call	004024D3
	ret	
004020D9                            BF A9 F5 69                   ...i  

fn004020DD()
	mov	[esp],esi
	push	edi
	pop	edi
	pop	esi
	dec	cl
	adc	ch,81
	mov	ah,al
	inc	ch
	or	cl,al
	or	ecx,ebx
	or	ch,dl
	jbe	00402DD6

l004020F8:
	mov	ah,ah
	jmp	004020FF

l004020FF:
	ja	00402DD6

l00402105:
	add	dl,cl
	out	90,al
	or	dh,[edx+FA0BCEBC]

l0040210C:
	into	

fn0040210D()
	or	edi,edx

fn0040210F()
	add	ecx,eax
	mov	ch,bh
	adc	ch,16
	xor	cl,ah
	sbb	cl,47
	add	cl,5E
	adc	cl,84
	not	cl
	call	0040206F
	cmovnc	ecx,[edx+4ADEF6ED]

fn0040212F()
	dec	edx
	add	bl,97
	add	bl,2C
	inc	ecx
	mov	al,70
	or	edi,eax
	mov	edx,esi
	jmp	004027FC
00402142       45 0F AC 9C                                 E...         

fn00402146()
	pop	dword ptr [esp-24]
	mov	bh,dh
	or	ebx,eax
	inc	bh
	inc	edi
	neg	bh
	mov	bh,cl
	call	00402C8C
	pop	ecx
	mov	cl,C9
	mov	ecx,F61E79D9

fn00402161()
	not	ch
	adc	dh,B9
	add	bl,33
	adc	bh,59
	or	edi,esi
	add	bl,70
	xor	bl,dl
	mov	ebx,eax
	jz	0040229F

l0040217B:
	jns	0040217D

l0040217D:
	xchg	bh,bh
	jnz	0040229F

l00402185:
	clc	
	cli	
	shr	[esi+65],cl
	scasd	
	jle	004021E9

fn0040218D()
	add	ch,dl
	sbb	cl,7C
	inc	ecx
	sub	ecx,ebx
	add	ecx,ebx
	sub	ch,cl
	xor	ecx,edx
	call	00402312
	lodsd	
	mov	ch,6A
	in	al,70
	pop	dword ptr [esp-1C]
	neg	bl
	or	bl,cl
	add	bh,al
	mov	edi,ebx
	inc	bh
	sub	esi,edi
	call	0040241F
	or	[ebx+62],bl
	mov	ebp,D00246C8

l004021BF:
	inc	esi
	add	dl,al

fn004021C2()
	sub	esi,eax
	xor	al,dl
	mov	edx,esi
	add	bh,D4
	dec	ah
	call	004025F2
	jl	0040222F

l004021D4:
	illegal	
	sub	ebx,esp
	and	[edx],al

fn004021D8()
	add	ah,bh
	mov	al,dh
	sub	eax,edx
	add	al,bl
	dec	cl
	dec	ecx
	mov	cl,0C
	dec	ch
	call	00402DB6

fn004021E9()
	or	eax,[eax]
	add	[esi+FE740FCC],cl

fn004021F0()
	dec	bl

fn004021F1()
	retf	
004021F2       33 DF 33 F1 B2 5C 80 D9 91 32 DC E9 3C 0A   3.3..\...2..<.
00402200 00 00                                           ..             
00402202       DB 43 04 D1 49 79 59                        .C..IyY      

fn00402209()
	adc	bh,4B
	xor	bl,dh
	or	ebx,esi
	inc	edi
	mov	bl,bh
	mov	esi,ecx
	dec	bh
	add	bl,al
	js	00402C1F

l0040221F:
	jge	00402221

l00402221:
	push	ax
	pop	ax
	jns	00402C1F

l0040222B:
	dec	ebp
	in	eax,78
	pop	ds

fn0040222F()
	sub	edi,ecx
	adc	dh,19
	sub	ch,bh
	xor	ebx,edx
	dec	ch
	xor	edx,eax
	sub	edx,edi
	jl	00402AAD

fn00402244()
	mov	bx,bx
	xchg	edi,edi
	jge	00402AAD

l0040224F:
	in	eax,B3
	push	ebx
	int	03

fn00402253()
	dec	ecx
	mov	ah,34
	xor	edi,eax
	adc	bl,A8
	xor	edx,eax
	sbb	dl,BB
	jmp	00402044
00402265                46 F3 10 80 51 73                     F...Qs    

fn0040226B()
	sub	dl,bl
	or	dh,ch
	not	dl
	sub	ch,bl
	adc	bl,43
	xor	edx,esi
	mov	bh,BC
	or	ebx,eax
	jmp	00402DF1
00402281    FD 62 EA 18 C1 DD                             .b....        

fn00402287()
	lea	esp,[esp+04]
	add	bl,C6
	mov	bh,cl
	add	bh,63
	inc	esi
	sub	bl,cl
	call	004028A2
	or	ebp,[ebx+5A]
	or	esi,[edx]

l0040229F:
	xor	al,dl
	sub	ah,dl
004022A3          80 D0 4A FE C4 0B D6 2A E7 80 C5 41 0F    ..J....*...A.
004022B0 82 F1 00 00 00 F3 0F 83 EA 00 00 00 93 B5 C5 71 ...............q

l004022C0:
	dec	bh
	mov	bl,ah
	sbb	bl,E9
	neg	bl
	add	bl,dl
	or	bh,dl
	adc	bl,5E
	jbe	00402011

l004022D6:
	repne	
	ja	00402011
	xchg	eax,ecx
	punpcklbw	xmm2,[esi]
	int	60

fn004022E3()
	sbb	ah,0B
	add	al,5A
	or	al,dh
	mov	ecx,esi
	mov	eax,ecx
	sbb	ah,E4
	mov	ecx,ebx
	xor	al,bl
	call	00402632
	fstp	double ptr ss:[ecx+C60A478C]

fn004022FF()
	inc	edi
	or	al,dh
	mov	dl,bh
	not	dh
	dec	ebx
	add	dl,al
	jmp	00402253
0040230E                                           00 3F               .?
00402310 0C 39                                           .9             

fn00402312()
	pop	dword ptr [esp-10]
	dec	ch
	dec	cl
	sbb	ch,A2
	or	ch,bh
	mov	ecx,esi
	inc	ch
	call	0040299C
	jg	00402348

l0040232A:
	inc	ebp
	illegal	
	sbb	[ecx],esi
	dec	ebx

fn00402330()
	mov	[esp],eax
	lea	di,[edi]
	pop	eax
	xor	bl,cl
	sub	bh,dl
	add	bl,59
	call	00402287
	shr	byte ptr [ebp+E39D36CF],01

l00402348:
	jcxz	0040238A

l00402349:
	inc	eax

fn0040234A()
	pop	dword ptr [esp-2C]
	dec	esi
	dec	ebx
	adc	bh,D2
	add	eax,08
	mov	ebx,esi
	xor	bh,dl
	add	edi,ebx
	jmp	004026D3
00402361    10 CF 80 5A B4 CD 0F E9 8D 64 24 04 8B F3 49  ...Z.....d$...I
00402370 8A C8 5E 80 DE F7 0F 8A 80 09 00 00 53 5B 7C 00 ..^.........S[|.
00402380 0F 8B 76 09 00 00 A4 6A BA 40                   ..v....j.@     

fn0040238A()
	add	eax,edx
	or	edi,eax
	dec	esi
	add	eax,ebx
	mov	esi,eax
	xor	edi,ecx
	mov	bl,DF
	xor	bh,dl
	call	004027E0
	repne	
	loopne	004023F5
	mov	[C2B4A189],al
	mov	ah,32
	sbb	dl,E6
	sbb	dl,45
	mov	edx,ecx
	sub	edx,esi
	inc	dl
	mov	ah,ch
	inc	dl
	or	ch,ah
	call	00402369
	dec	esi
	push	ebp
	pop	edx
	inc	ebp

fn004023C3()
	sub	edi,edx
	xor	edi,ebx
	mov	ecx,eax
	call	eax
	add	cl,61
	mov	dl,1F
	inc	bl
	xor	ch,cl
	jc	00402948

l004023DA:
	lea	edx,[edx]
	jnc	00402948

l004023E2:
	inc	edi
	mov	edi,87A87E4C

fn004023E8()
	xor	edi,edx
	or	ecx,eax
	sbb	cl,23
	sub	edi,esi
	neg	cl
	dec	ecx
	or	ecx,edi
	call	004020DD

fn004023FB()
	mov	ah,C6
	sub	eax,[ebx]
	adc	[esi],bh
	or	dword ptr [ebp+80042464],C0

fn00402402()
	lea	esp,[esp+04]
	add	al,58

fn00402408()
	pop	eax
	dec	cl
	add	ch,bh
	mov	ecx,edi
	adc	ch,23
	call	00402097

fn00402417()
	js	004023C3

fn00402419()
	xchg	eax,ecx
	frstor	word ptr [ebp-02]
	movsb	
	and	eax,0424648D

fn0040241F()
	lea	esp,[esp+04]
	sub	ebx,edi
	mov	bh,33
	neg	bl
	lea	edx,[eax+000000F8]
	neg	bl
	sub	bl,al
	not	bl
	add	esi,ecx
	or	edi,eax
	jz	00402E30

l0040243F:
	xchg	eax,eax
	jnz	00402E30

l00402447:
	ror	byte ptr [edi],01
	hlt	
	or	al,DF
	daa	
	jnc	004023D6

fn0040244E()
	xchg	[esp],ecx
	lea	ax,[eax]
	pop	ecx
	xor	ch,bl
	mov	cl,A6
	sub	ch,dl
	add	cl,bl
	or	ecx,edi
	jbe	00402C57

l00402465:
	repne	
	repne	
	ja	00402C57
	call	D1DC8540
	xchg	eax,esp

fn00402473()
	xchg	[esp],ebx
	js	00402478

l00402478:
	pop	ebx
	or	bh,dh
	or	dh,ch
	sbb	dh,8F
	inc	esi
	movzx	edx,al
	or	esi,edi
	add	bl,ah
	jmp	004028E4
0040248D                                        17 05 B6              ...
00402490 B6 47 00 A8                                     .G..           

l00402494:
	dec	esi
	add	cl,dh
	not	ch
	inc	edi
	sbb	cl,91
	sub	edi,eax
	add	bl,B5
	not	ch
	jmp	00402C02
004024A9                            BA 2E 06 4D CF 39 3F          ...M.9?

l004024B0:
	dec	eax
	sub	cl,al
	add	ch,AA
	dec	al
	add	cl,91
	inc	edi
	dec	dh
	add	eax,esi
	jbe	00402EA1

l004024C6:
	repne	
	ja	00402EA1
	adc	eax,F0696467
	lodsd	

fn004024D3()
	pop	dword ptr [esp-20]
	xor	edx,ebx
	add	dl,bl
	sbb	dh,D1
	xor	ecx,edi
	mov	ah,ch
	add	ecx,eax
	inc	cl
	jmp	00402511
004024E8                         83 1A 4C 7E 32 A1 5C            ..L~2.\

fn004024EF()
	lea	esp,[esp+04]

fn004024F3()
	dec	ecx
	mov	eax,ebx
	or	eax,esi
	not	dh
	add	ebx,000004BF
	dec	al
	inc	edi
	mov	ah,al
	call	004020C3

fn0040250A()
	sbb	eax,7D088D23
	cld	
	mov	eax,FE48D5F6

fn00402511()
	not	ch
	dec	eax
	dec	ch

fn00402515()
	int	F6
	ficom	word ptr [ebx+0A]
	aam	47
	add	edx,ebx
	not	ah
	sub	cl,al
	jc	00402A0D

l00402528:
	jc	0040252A

l0040252A:
	jnz	0040252C

l0040252C:
	jnc	00402A0D

l00402532:
	dec	edx
	jpo	004024F3

l00402535:
	aas	
	add	[edx+75],eax
	retf	F22B

fn0040253A()
	sub	esi,edx
	or	bh,ah
	sbb	dh,D5
	push	dword ptr [ecx]
	or	bh,dl
	sbb	bh,E8
	add	al,27
	add	bl,ah
	neg	bl
	add	dh,ch
	jle	00402805

l00402557:
	xchg	ebx,ebx
	rep	
	jg	00402805
	imul	esi,[ecx+8FEC361B],33E02444

fn00402565()
	pop	dword ptr [esp-20]
	xor	edi,eax
	xor	bh,dl
	add	bl,al
	or	ebx,edi
	not	bl
	call	00402AF1
	inc	edx
	call	6DA44768
	mov	ebx,D2F6C52A

fn0040257F()
	sub	al,ch
	not	dl
	mov	esi,ecx
	not	al
	xor	esi,eax
	dec	ah
	add	dl,ch
	jo	00402D13
	xchg	ecx,ecx
	mov	dh,dh
	jno	00402D13
	out	6C,al
	jns	00402559
	xchg	eax,ebp
	adc	eax,0AE52A38

fn004025A4()
	sub	ah,ch
	or	ah,al
	xor	ah,dh
	xor	edx,73FECA24
	xor	ch,dl
	or	al,ch
	add	ah,bh
	sub	al,bh
	jo	004022E3

l004025BE:
	rep	
	jno	004025C1
	jno	004022E3
	add	al,06
	sbb	al,74
	xchg	[edx-70],esi
	cmp	al,32

fn004025CF()
	xor	bh,cl
	sbb	bl,ED
	mov	eax,[eax]
	inc	bl
	not	bh
	sbb	bl,5F
	not	bh
	inc	edi
	add	bl,91
	inc	bl
	call	0040268F
	wait	
	test	[esi+ebx*8],bl
	les	esi,[ecx+3C896231]

fn004025F2()
	mov	[esp],edi
	xchg	edi,edi
	push	ebx
	pop	ebx
	pop	edi
	not	bh
	xor	dl,dh
	sub	dl,dh
	mov	eax,esi
	sbb	al,6C
	dec	esi
	jz	0040202E

l0040260C:
	repne	
	jnz	0040202E
	jg	004025F5
	sbb	ah,[edx-7D]

fn00402618()
	sbb	cl,32
	mov	[ebx],ah
	inc	edi
	sub	cl,ch
	mov	cl,25
	mov	cl,05
	neg	ch
	sub	ch,al
	call	00402BB8
	dec	esp
	sahf	
	jnz	004025BB
	mov	al,[0424648D]

fn00402632()
	lea	esp,[esp+04]
	mov	edi,edx
	not	ch

fn0040263A()
	sub	cl,dh
	inc	ch
	neg	al
	add	cl,ah
	inc	ch
	jmp	004028FC
00402649                            97 83 A5 A3                   ....  

fn0040264D()
	lea	esp,[esp+04]
	sub	edi,edx
	neg	cl
	add	ch,bl
	neg	ch
	mov	cl,C5
	sbb	cl,5B
	neg	cl
	add	ecx,edi
	add	cl,41
	jmp	0040210D
0040266A                               6D 2B 7A 2D 03 61           m+z-.a
00402670 E7                                              .              

fn00402671()
	dec	bl
	dec	bh
	dec	esi
	adc	bl,D7
	inc	bh
	mov	esi,edi
	mov	ebx,esi
	not	eax
	mov	ebx,esi
	call	00402A28
	push	cs
	inc	edi
	push	9D
	out	dx,ax
	sbb	al,B4

fn0040268F()
	lea	esp,[esp+04]
	add	esi,edi
	or	bl,dl
	dec	bh
	add	edi,ecx
	add	eax,ecx
	sub	bl,ch
	sub	ebx,edx
	or	bl,dh
	xor	bl,cl
	jmp	004022C0
004026AA                               2F 38 A0 FB                 /8.. 

fn004026AE()
	pop	dword ptr [esp-18]
	xor	dl,ch
	adc	dl,4C
	sub	ecx,esi
	mov	ecx,edi
	add	dh,AB
	js	00402D72

l004026C4:
	jns	004026C6

l004026C6:
	jns	00402D72

l004026CC:
	aaa	
	xchg	eax,ebp
	sbb	bl,[ecx+2B345E58]

fn004026D3()
	sub	ebx,edi

l004026D4:
	illegal	
	iret	
	inc	bl
	sub	ebx,esi
	or	esi,edi
	inc	esi
	jpe	004025CF

l004026E4:
	js	004026E6

l004026E6:
	rep	
	jpo	004025CF
	mov	eax,CE3C69EA
	xor	esi,[ecx+02]

fn004026F4()
	add	ch,dh
	adc	cl,0C
	xor	ch,dh
	xor	cl,dh
	sub	edi,edx
	inc	edi
	inc	ecx
	adc	cl,23
	jle	00402A94

l0040270A:
	jmp	00402710
0040270F                                              40                @

l00402710:
	repne	
	jg	00402A94
	xor	eax,F8A8C891
	popa	
	xor	ah,al

fn0040271E()
	xor	ah,al
	dec	ecx
	neg	ah
	sub	al,bl
	mov	ch,dl
	neg	cl
	call	004029CD
	das	
	push	cs
	mov	dh,79
	stosb	
	adc	bh,[eax+8085B301]

fn00402736()
	mov	bl,85
	add	ch,07

fn00402739()
	lds	eax,[edi]
	dec	edi
	neg	cl
	xor	edi,esi
	mov	dh,bh
	sub	ecx,esi
	add	dh,ah
	xor	dl,bl
	sbb	dh,69
	jmp	004023C3
00402750 AD 34 59 EF                                     .4Y.           

fn00402754()
	add	bh,7D
	sub	bl,ch
	sbb	bh,42
	neg	bl
	inc	bl
	add	esi,ebx
	inc	ebx
	inc	bl
	sbb	bh,0F
	add	bh,97
	jmp	00402671
00402770 86 CA 49 09                                     ..I.           

l00402774:
	dec	ebx
	not	bh
	dec	bh
	add	bh,bl
	or	bh,dh
	push	dword ptr [edx+08]
	dec	edi
	sub	ebx,esi
	mov	bl,dh
	or	bh,bl
	call	00402330
	mov	edx,6A677C44
	idiv	dword ptr [edx+ecx*4+D98041CD]

fn00402793()
	mov	cl,ch
	inc	ecx
	sbb	cl,B6

fn00402798()
	mov	dh,80
	illegal	
	int	2A
	int	03
	adc	cl,D7
	xor	ecx,ebx
	call	004029EB
	jz	004027E0

l004027AA:
	push	eax
	lodsb	
	add	dword ptr [ecx+97A488E9],F6

fn004027AE()
	sub	ecx,F697A488

fn004027B3()
	div	byte ptr [ebx]

fn004027B4()
	xor	edi,eax

fn004027B5()
	clc	
	add	edi,esi
	cmp	ecx,09685B78
	jnz	0040263A

fn004027C4()
	sbb	dl,73
	not	bl
	js	004021F0

l004027CF:
	mov	ch,ch
	jnc	004027D3

l004027D3:
	jns	004021F0

l004027D9:
	xlat	
	sub	ah,ch
	xchg	eax,esp
	or	cx,[ebp+02042464]

fn004027E0()
	lea	esp,[esp+04]
	add	bl,al

fn004027E5()
	fmul	dword ptr [ebx+0BF003D9]
	cli	
	adc	bh,DE
	sbb	bh,68
	call	004028BB

fn004027F7()
	lodsd	
	jpo	004027B3

fn004027FA()
	xchg	eax,ebp
	push	ds

fn004027FC()
	not	cl
	sub	eax,esi
	mov	bl,dh
	sbb	cl,7A

fn00402805()
	sbb	ah,2C
	mov	edi,edx
	sub	eax,edi
	inc	ah
	add	ebx,ecx
	xor	eax,esi
	not	al
	not	dh
	pop	eax
	jmp	00402C76
0040281C                                     27 EB 59 CC             '.Y.

fn00402820()
	mov	edi,ebx
	add	al,41
	adc	dh,15
	mov	ecx,ebx
	dec	bh
	not	dh
	or	ecx,esi
	add	ah,35
	not	cl
	xor	edx,ecx
	call	00402E47
	ror	dword ptr [ebp+06064F5B],01
	cmp	dh,bh

fn00402843()
	inc	dh

fn00402844()
	mov	byte ptr [eax+C58085C2],1D
	mov	ebx,esi
	push	00003000
	dec	edx
	inc	bh
	sub	edi,eax
	jmp	00402820
00402859                            68 2C 55                      h,U   

l0040285C:
	adc	ebx,[ecx+0B]
	ror	dword ptr [edx],01
	shl	dword ptr [ebx],01

l00402863:
	cli	
	inc	ebx
	not	ah
	add	eax,ebx
	or	edx,eax
	jz	004022FF

l00402871:
	push	edi
	pop	edi
	push	si
	pop	si
	jnz	004022FF

l0040287D:
	out	63,al
	jbe	0040285C

l00402881:
	pop	esi

l00402882:
	add	esi,ecx
	or	ebx,ecx
	dec	bl
	inc	bh
	sbb	bl,76
	xor	bh,bl
	or	edi,esi
	inc	esi
	mov	eax,ecx
	inc	bl
	call	00402CA9
	inc	ecx
	stosd	
	retf	
0040289E                                           60 93               `.
004028A0 A1 10                                           ..             

fn004028A2()
	lea	esp,[esp+04]
	neg	bh
	adc	bh,CB
	mov	edi,edx
	dec	esi
	sub	edi,edx
	call	00402B40
	bound	esi,[edi-3D]
	les	ecx,[ebx]
	adc	[edi+02F42444],cl

fn004028BB()
	pop	dword ptr [esp-0C]
	add	bh,ch
	or	esi,edi
	xor	ebx,eax
	xor	eax,FFFFFEC8
	sbb	bl,36
	not	bl
	jpe	00402754

l004028D5:
	mov	edx,edx
	jpo	00402754

l004028DD:
	push	ebx
	jns	00402863

l004028E0:
	cmp	dword ptr [edi],5C
	loopne	00402918

l004028E4:
	xor	esi,ecx

l004028E5:
	illegal	
	xor	bl,al
	sub	bl,ch
	dec	bh
	mov	bh,dl
	neg	bh
	or	bl,ch
	jmp	00402E81
004028F7                      1C E2 30 A2 8B                    ..0..   

l004028FC:
	adc	al,D0
	add	al,02
	xor	ah,al
	inc	al
	adc	ah,89
	dec	al
	jmp	0040271E
00402910 AF 70 4C 32                                     .pL2           

l00402914:
	sub	ebx,esi
	mov	bh,al

fn00402918()
	xor	edi,ebx
	add	ecx,esi
	dec	ecx
	xor	bh,dh
	jmp	0040222F
00402924             EB E6 EF DA F8 E4 D2                    .......    

fn0040292B()
	lea	esp,[esp+04]
	not	ch
	neg	dl
	dec	ecx
	xor	edi,ecx
	not	cl
	adc	al,C9
	call	00402B5F
	mov	dl,41
	push	ds
	shl	[esi+69],cl
	or	al,D1

fn00402948()
	sub	edx,ebx
	sbb	dh,BC
	add	ebx,edx
	not	bl
	sub	dh,al
	add	bl,BC
	xor	bh,al
	mov	[esp-08],eax
	call	004029B6
	daa	
	xchg	eax,esp
	add	[ebx+80D13218],esp

l00402966:
	xor	dl,cl
	sbb	dh,0C

fn00402969()
	fimul	word ptr [eax+eax*4]
	ror	[eax],cl
	mov	dl,63
	inc	edx
	inc	bh
	dec	bl
	jmp	0040253A
0040297A                               DC CF 37 8C EB F6           ..7...
00402980 DB B3                                           ..             

l00402982:
	illegal	
	add	eax,[eax+3C]
	mov	bh,BD
	add	edi,edx
	add	bl,C3
	mov	bl,dh
	xor	bl,bh
	or	esi,eax
	call	004021A5
	adc	eax,8FA0BCEE

fn0040299C()
	pop	dword ptr [esp-34]
	add	ch,dl
	inc	edi
	adc	ch,03
	or	edi,ecx
	inc	ebx
	call	0040264D
	add	al,6E
	jmp	00402982
004029B2       62 72 F2 58                                 br.X         

fn004029B6()
	xchg	[esp],edi
	mov	bl,bl
	pop	edi
	inc	edx
	inc	bl
	inc	cl
	mov	edx,edi
	call	00402E63
	push	ecx
	cmp	[ebp+3E],ebp
	mov	ebp,8D240487

fn004029CD()
	xchg	[esp],eax
	lea	eax,[eax]

fn004029D1()
	add	[ebp+6AB45812],cl
	or	ah,al
	mov	al,[esi]
	add	edi,eax
	mov	ecx,esi
	adc	ch,23
	jmp	00402793
004029E7                      98 EA 65 A9                       ..e.    

fn004029EB()
	lea	esp,[esp+04]
	not	ch
	inc	cl
	xor	al,9A
	dec	edi
	mov	cl,dh
	mov	ch,66
	mov	cl,BC
	xor	edi,esi
	xor	cl,bh
	jmp	004026F4
00402A06                   03 5D 2F AB 15 C1 4C                .]/...L  

l00402A0D:
	mov	al,C6
	sbb	cl,7F
	mov	ch,dh
	mov	edi,edx
	dec	ah
	add	ch,ah
	mov	edx,esi
	dec	ecx
	inc	edx
	jmp	00402D94
00402A23          3D 63 8F 7D CD                            =c.}.       

fn00402A28()
	pop	dword ptr [esp-1C]
	sub	edi,edx
	sbb	bh,D5
	add	bl,al
	adc	bh,D4
	adc	bh,96
	mov	bh,2B
	inc	bh
	mov	ebx,eax
	inc	ebx
	jo	00402209

l00402A46:
	mov	ah,ah
	mov	di,di
	jno	00402209

l00402A51:
	cmp	[edx+128F4763],dl
	adc	al,77
	lea	esp,[esp+04]
	adc	dh,95
	sbb	ah,A2
	add	dh,ah
	neg	dl
	adc	dh,3F
	mov	edx,edi
	sub	al,cl
	add	dl,DA
	call	0040292B
	pop	es
	mov	ah,C5
	xlat	

fn00402A7A()
	pop	dword ptr [esp-14]
	dec	edi
	add	edi,esi
	shr	eax,10
	or	edi,ebx
	dec	edi
	add	edi,esi
	jmp	0040238A
00402A8E                                           90 E5               ..
00402A90 2A 44 E1 F5                                     *D..           

l00402A94:
	or	ecx,esi
	or	cl,bl
	add	cl,AC
	not	ch
	rol	al,1B
	xor	edi,esi
	or	ch,cl
	call	0040244E
	xor	dl,[ecx+C9FE5FFD]

fn00402AAD()
	dec	cl
	or	dl,dh
	dec	dl
	add	dl,bh
	push	00
	mov	esi,edi
	jmp	00402736
00402ABE                                           9A 15               ..
00402AC0 F2 B2                                           ..             

fn00402AC2()
	mov	[esp],ebx
	rep	
	pop	ebx
	or	esi,eax
	adc	dl,BC
	inc	eax
	dec	esi
	jmp	00402D4D
	ror	byte ptr [edi],01
	jns	00402B43
	mov	esp,[eax-71]

fn00402AD9()
	pop	dword ptr [esp-1C]
	xor	bl,cl
	inc	ebx
	add	esi,edi
	add	bl,dl
	inc	bl
	dec	bh
	call	0040234A
	jz	00402B51

l00402AEF:
	xor	bh,[ecx]

fn00402AF1()
	pop	dword ptr [esp-30]
	xor	bl,dh
	dec	bh
	or	esi,ecx
	mov	edi,eax
	inc	bl
	add	edx,ecx
	jmp	00402494
00402B06                   8C 23 DD 9C 29 52 19                .#..)R.  

fn00402B0D()
	sub	ecx,edx
	or	ch,bl
	dec	cl
	xor	ecx,eax
	mov	ecx,edx
	sub	ch,dl
	not	cl
	xor	edi,edx
	sub	ecx,ebx
	xor	cl,ah
	call	00402402
	sub	esi,[edi+DDF6374C]

fn00402B2A()
	neg	ch

fn00402B2C()
	mov	ecx,edx
	dec	edi
	dec	edi
	sub	edi,esi
	xor	edi,ebx
	jmp	004027AE
00402B39                            0D F8 F7 53 58 C1 CA          ...SX..

fn00402B40()
	mov	[esp],ebx
	jmp	00402B49
00402B48                         B6                              .      

l00402B49:
	mov	ah,ah
	pop	ebx
	lea	eax,[eax+78]
	inc	esi
	mov	bl,DE

fn00402B51()
	fiadd	word ptr [eax+7FE8D7DF]
	illegal	
	jmp	dword ptr [eax+89202045]

fn00402B5A()
	movsb	
	mov	al,[89202045]

fn00402B5F()
	mov	[esp],eax
	mov	dx,dx
	pop	eax
	mov	ah,al
	adc	cl,21
	add	ah,C2
	sub	edx,esi
	call	004024EF
	fist	word ptr [edi]
	lahf	
	mov	ch,9D
	inc	edx
	test	[edx],cl

fn00402B7C()
	or	dl,dh
	or	ch,dh
	xor	esi,ecx
	mov	esi,edx
	inc	cl
	sub	bh,dh
	jmp	00402161
00402B8D                                        6C 27 EA              l'.
00402B90 5F 3A 1C 5B                                     _:.[           

fn00402B94()
	pop	dword ptr [esp-18]
	dec	edx
	sub	cl,bh
	ret	
00402B9C                                     2A DE 42 0F             *.B.
00402BA0 88 87 F5 FF FF E9 01 00 00 00 DB 8A E4 0F 89 79 ...............y
00402BB0 F5 FF FF 73 BA 75 26 E4                         ...s.u&.       

fn00402BB8()
	lea	esp,[esp+04]
	mov	edi,ebx
	not	cl
	xor	ch,dl
	mov	ecx,esi
	not	cl
	inc	esi
	inc	ch
	add	edi,edx
	add	ecx,esi
	jz	0040218D

l00402BD3:
	rep	
	mov	al,al
	jnz	0040218D
	mov	esi,E284838B
	clc	
	pop	ebx
	push	esi

fn00402BE4()
	inc	ch
	inc	edi
	sbb	bl,7A
	add	esi,eax
	mov	bh,EB
	inc	ebx
	add	ebx,edi
	mov	eax,[edx]
	xor	dl,bh
	jmp	00402914
00402BFA                               F4 E5 F1 AE A2 B6           ......
00402C00 5D D2                                           ].             

fn00402C02()
	add	cl,al
	dec	bl
	sbb	bl,7E
	neg	bl
	add	edx,0000001C
	xor	ecx,edx
	xor	cl,bh
	mov	ebx,esi
	mov	ecx,esi
	jmp	00402BE4
00402C1B                                  EE 8E A9 72               ...r

l00402C1F:
	mov	bh,cl
	sbb	bh,44
	or	eax,eax
	jnz	00402253

l00402C2C:
	adc	bh,90
	sub	bl,dh
	jmp	00402882
00402C36                   33 AE 7F 7C 8E 95 E4 F8             3..|.... 

l00402C3E:
	mov	eax,ebx
	dec	dl
	add	ch,bl
	or	edi,esi
	or	bh,cl
	xor	eax,ebx
	mov	ah,bl
	jmp	0040226B
00402C51    35 93 E3 C2 FB 36                             5....6        

l00402C57:
	dec	ecx
	mov	ch,al
	xor	ecx,ebx
	inc	cl
	neg	al
	xor	ch,bl
	xor	edi,ecx
	neg	ch
	or	edi,eax
	adc	ch,55
	jmp	00402B0D
00402C70 49 16 2E 83 51 EC                               I...Q.         

l00402C76:
	dec	edi
	not	bh
	not	dl
	xor	bh,ch
	dec	bl
	sub	dl,cl
	not	dl
	call	00402473
	xor	ecx,ebp
	sub	cl,[eax+86243C89]

fn00402C8C()
	mov	[esp],edi
	xchg	bl,bl

fn00402C90()
	fistp	dword ptr [edi-80]
	mov	dword ptr [ecx+F88BDFF6],0ADBF65A
	illegal	
	stc	
	call	00402565
	sbb	ecx,ebp
	sub	[ecx+ecx*4],dh

fn00402CA9()
	mov	[esp],eax

fn00402CAA()
	add	al,24
	xchg	dh,dh
	repne	
	pop	eax
	xor	bh,cl
	sub	esi,edi
	xor	bh,ch
	inc	edi
	mov	bl,ah
	or	bh,bl
	mov	esi,edx
	jl	0040297F
	push	edi
	pop	edi
	repne	
	jge	0040297F
	mov	[8B4C1C60],al

fn00402CD1()
	lea	esp,[esp+04]
	sbb	ah,0B
	inc	edi
	inc	edi
	xor	ch,bh
	or	bh,ah
	mov	dh,05
	mov	eax,ebx
	push	40
	not	bh
	jz	0040257F

l00402CEC:
	push	si
	pop	si
	rep	
	jnz	0040257F
	mov	dl,[ebx+FE6E9C48]
	shl	dh,DD
	xor	edx,edi
	neg	dh
	xor	ecx,eax
	or	al,cl
	call	00402A59
	pop	esp
	mov	al,[BAB75D50]

fn00402D13()
	sub	ch,bl
	xor	dl,ah
	mov	edx,eax
	dec	dl
	dec	ah
	mov	ch,0A
	neg	dl
	js	00402843

l00402D27:
	repne	
	jns	00402843
	add	eax,BF60FE4E
	stosd	
	mov	ch,12

fn00402D36()
	inc	cl
	inc	ecx
	add	ch,8F
	inc	ch
	dec	edi
	add	cl,95
	jmp	00402B2A
00402D47                      4F 75 A1 D3 FA 0B 80 DB A0        Ou.......
00402D50 33 F0 0B CE 2A CF 8B F9 33 FA 8B CB FE CE 0F 8A 3...*...3.......
00402D60 F9 FA FF FF F2 0F 8B F2 FA FF FF 55 26 37 DE 0D ...........U&7..
00402D70 0D C2                                           ..             

l00402D72:
	not	al
	or	eax,edx
	not	ah
	dec	ch
	add	al,bh
	mov	edx,73FEC690
	add	cl,4E
	not	al
	or	eax,edx
	jmp	004021D8
00402D8D                                        F9 20 DE              . .
00402D90 BF 6E 11 DD                                     .n..           

l00402D94:
	or	edx,edi
	mov	edx,ecx
	xor	ch,dh
	sub	ebx,000004BF
	xor	eax,esi
	add	ch,al
	add	ah,7B
	mov	cl,A3
	inc	dl
	jmp	004024B0
00402DB0 31 12 CB 1A E2 FD                               1.....         

fn00402DB6()
	xchg	[esp],ebx
	jmp	00402DBE

l00402DBE:
	pop	ebx
	sub	ch,bl
	add	al,dh
	dec	ecx
	adc	cl,43
	sbb	ah,A4
	jmp	004025A4
00402DCF                                              FC                .
00402DD0 19 47 5F FF 36 EF                               .G_.6.         

fn00402DD6()
	or	ch,cl
	inc	edi
	inc	cl
	not	cl
	sbb	ch,9B
	sbb	cl,57
	xor	ch,ah
	jmp	00402618
00402DEA                               CE 37 44 ED B1 61           .7D..a

fn00402DF0()
	xchg	eax,esi

fn00402DF1()
	add	ebx,ecx
	sub	al,ah
	add	al,ch
	inc	bh
	add	cl,DC
	or	ah,dh
	xor	edx,ecx
	dec	edx
	neg	ah
	call	00402B94
	nop	
	jpe	00402E1C

l00402E0B:
	ret	
00402E0C                                     15 37 22 54             .7"T

fn00402E10()
	lea	esp,[esp+04]
	add	esi,ebx
	or	dl,dh
	or	bl,bh
	add	ah,bl

fn00402E1C()
	adc	bh,73
	sub	edx,ecx
	sbb	bl,42
	jmp	00402966
00402E29                            07 6C C9 04 C4 03 BF          .l.....

l00402E30:
	inc	bh
	add	bh,9C
	not	bh
	xor	bh,al
	mov	bl,4C
	or	esi,eax
	jmp	00402774
00402E42       70 0D 2D 70 18                              p.-p.        

fn00402E47()
	pop	dword ptr [esp-20]
	sbb	bl,7C
	sub	bl,ch
	xor	eax,edx
	inc	dl
	call	00402E59

fn00402E59()
	inc	ecx
	call	00402AC2
	test	al,05
	jnz	00402DF0

fn00402E63()
	mov	[esp],esi
	jmp	00402E6B

l00402E6B:
	jbe	00402E6D

l00402E6D:
	pop	esi
	mov	edx,eax
	mov	dh,ah
	neg	ch
	jmp	00402B7C
00402E79                            5D CE AF 6C 42 F8 19          ]..lB..
00402E80 7C                                              |              

fn00402E81()
	add	bl,al
	sub	bh,ah
	sbb	bl,F0
	dec	ebx
	mov	bl,E0
	inc	bh
	movzx	ebx,ah
	mov	esi,ecx
	add	edi,edx
	call	00402A7A
	enter	DB13,CD
	pop	ebp
	wait	
	or	[ebx+03],dl

fn00402EA1()
	add	edx,eax

fn00402EA2()
	shl	byte ptr [ebx],01
	sti	
	sub	edx,eax
	mov	dl,BC
	inc	edx
	not	ch
	or	edx,eax
	dec	ch
	inc	dl
	call	004026AE
	xchg	eax,edx
	mov	ebp,C1F4B8A5
	leave	
	in	al,dx
	add	[eax],al
	add	[eax],al
	add	[eax],al
	add	[eax],al
	add	[eax],al
	add	[eax],al
	add	[eax],al
	add	[eax],al
	add	[eax],al
	add	[eax],al
	add	[eax],al
	add	[eax],al
	add	[eax],al
	add	[eax],al
	add	[eax],al
	add	[eax],al
	add	[eax],al
	add	[eax],al
	add	[eax],al
	add	[eax],al
	add	[eax],al
	add	[eax],al
	add	[eax],al
	add	[eax],al
	add	[eax],al
	add	[eax],al
	add	[eax],al
	add	[eax],al
	add	[eax],al
	add	[eax],al
	add	[eax],al
	add	[eax],al
	add	[eax],al
	add	[eax],al
	add	[eax],al
	add	[eax],al
	add	[eax],al
	add	[eax],al
	add	[eax],al
	add	[eax],al
	add	[eax],al
	add	[eax],al
	add	[eax],al
	add	[eax],al
	add	[eax],al
	add	[eax],al
	add	[eax],al
	add	[eax],al
	add	[eax],al
	add	[eax],al
	add	[eax],al
	add	[eax],al
	add	[eax],al
	add	[eax],al
	add	[eax],al
	add	[eax],al
	add	[eax],al
	add	[eax],al
	add	[eax],al
	add	[eax],al
	add	[eax],al
	add	[eax],al
	add	[eax],al
	add	[eax],al
	add	[eax],al
	add	[eax],al
	add	[eax],al
	add	[eax],al
	add	[eax],al
	add	[eax],al
	add	[eax],al
	add	[eax],al
	add	[eax],al
	add	[eax],al
	add	[eax],al
	add	[eax],al
	add	[eax],al
	add	[eax],al
	add	[eax],al
	add	[eax],al
	add	[eax],al
	add	[eax],al
	add	[eax],al
	add	[eax],al
	add	[eax],al
	add	[eax],al
	add	[eax],al
	add	[eax],al
	add	[eax],al
	add	[eax],al
	add	[eax],al
	add	[eax],al
	add	[eax],al
	add	[eax],al
	add	[eax],al
	add	[eax],al
	add	[eax],al
	add	[eax],al
	add	[eax],al
	add	[eax],al
	add	[eax],al
	add	[eax],al
	add	[eax],al
	add	[eax],al
	add	[eax],al
	add	[eax],al
	add	[eax],al
	add	[eax],al
	add	[eax],al
	add	[eax],al
	add	[eax],al
	add	[eax],al
	add	[eax],al
	add	[eax],al
	add	[eax],al
	add	[eax],al
	add	[eax],al
	add	[eax],al
	add	[eax],al
	add	[eax],al
	add	[eax],al
	add	[eax],al
	add	[eax],al
	add	[eax],al
	add	[eax],al
	add	[eax],al
	add	[eax],al
	add	[eax],al
	add	[eax],al
	add	[eax],al
	add	[eax],al
	add	[eax],al
	add	[eax],al
	add	[eax],al
	add	[eax],al
	add	[eax],al
	add	[eax],al
	add	[eax],al
	add	[eax],al
	add	[eax],al
	add	[eax],al
	add	[eax],al
	add	[eax],al
	add	[eax],al
	add	[eax],al
	add	[eax],al
	add	[eax],al
	add	[eax],al
	add	[eax],al
	add	[eax],al
	add	[eax],al
	add	[eax],al
	add	[eax],al
	add	[eax],al
	add	[eax],al
	add	[eax],al
	add	[eax],al
	add	[eax],al
	add	[eax],al
	add	[eax],al
	add	ch,dl
00403000 D5 00 F3 30 74 B3 D3 00 7C EF A9 FA C0 67 02 E4 ...0t...|....g..
00403010 F6 4E 49 D8 01 04 21 40 CD 60 9F 1C D5 9E C1 FC .NI...!@.`......
00403020 0C 00 48 3B 40 FF 01 E1 9A B7 80 75 43 85 01 7D ..H;@......uC..}
00403030 FF 9F 7A 00 AC 6F FC C5 F5 76 BA 30 40 6A F1 00 ..z..o...v.0@j..
00403040 A9 16 3B 00 A2 00 1E C5 32 27 17 1F 70 3D 00 BF ..;.....2'..p=..
00403050 3C 04 00 1F 2A 8D 7F 9E 07 00 4F 0E 3E 97 70 E2 <...*.....O.>.p.
00403060 C1 20 7A 26 45 91 7C 28 8E FF 52 3C 29 6B 00 40 . z&E.|(..R<)k.@
00403070 00 47 9D E3 3D 27 4E FF D9 0C DE A7 0D EA E2 0F .G..='N.........
00403080 67 13 B1 8C 28 28 04 0A 07 4D 8B 8D 00 5F 87 74 g...((...M..._.t
00403090 E1 00 9A DE 0A 6A 8B 0D F1 F6 1E 03 EB 81 7F FF .....j..........
004030A0 1C CA C3 D2 C2 BA 00 00 E8 17 0C 2F B8 DD CE EF .........../....
004030B0 7F 00 EE FF 9F BF 08 00 7D DB 02 7D FF C5 00 00 ........}..}....
004030C0 3E 5C 7E 32 7C FF D1 6C 00 00 A6 AB 0A 88 C7 EE >\~2|..l........
004030D0 00 BF 0F 18 F5 28 00 62 23 66 7E A6 19 E2 83 8D .....(.b#f~.....
004030E0 00 17 CD 41 5B A7 EB 9D AA 00 E1 2F 5A 3E EF 5C ...A[....../Z>.\
004030F0 29 1A C2 87 46 00 E9 FF 50 FF 40 FF F8 84 78 E6 )...F...P.@...x.
00403100 09 00 63 00 C3 6C C1 4D 06 7B D3 36 D9 57 1F 12 ..c..l.M.{.6.W..
00403110 A3 84 68 A8 00 FF 83 5B 3D 34 A9 BA FC EB F3 66 ..h....[=4.....f
00403120 00 30 9B A1 F1 84 13 B5 82 EA 01 1A 76 0E 00 6C .0..........v..l
00403130 17 A9 A1 C8 02 76 04 00 02 63 72 00 00 EB F4 A4 .....v...cr.....
00403140 4F 02 3D 17 FF 48 5A BB 4C D9 36 98 03 80 00 07 O.=..HZ.L.6.....
00403150 D1 55 62 FF E7 E7 FD A3 FF FF E1 0C 71 00 D2 E3 .Ub.........q...
00403160 1A C2 13 64 00 2C 00 3D 87 D4 00 37 D2 A1 A4 80 ...d.,.=...7....
00403170 46 00 14 E0 57 41 9D 93 4C FD E2 44 4B 4E 00 66 F...WA..L..DKN.f
00403180 FF FF 48 FC 97 0C 68 D6 BA 16 B4 17 BD 80 42 2D ..H...h.......B-
00403190 BE 4E 38 61 8A 08 70 46 D9 28 8F 22 43 62 42 00 .N8a..pF.(."CbB.
004031A0 AD 10 8D A6 57 33 A9 3B 23 97 00 20 FF 8F C7 50 ....W3.;#.. ...P
004031B0 FE C5 7B 37 EB 4E 00 38 76 7F 7D 23 A2 F6 F1 62 ..{7.N.8v.}#...b
004031C0 64 E0 B5 09 F0 00 E4 29 67 D7 12 0C F7 86 FF BE d......)g.......
004031D0 03 1E D8 00 00 98 54 C4 C6 00 FF 12 00 C7 F1 2E ......T.........
004031E0 28 11 EE 55 13 00 CD 24 00 AB 81 09 FB 00 75 79 (..U...$......uy
004031F0 71 99 D1 AC FF D6 C0 17 FF 5F 30 00 45 B1 6E 14 q........_0.E.n.
00403200 4D B1 0F 00 04 0F 11 00 AF D9 5F 07 E0 AB 70 30 M........._...p0
00403210 71 FB 3A A6 04 D0 00 80 B9 CE 2B 36 6E D4 FF E0 q.:.......+6n...
00403220 7A 9C 05 BB 2A 1B 00 FF 88 42 00 79 08 10 EE F8 z...*....B.y....
00403230 53 AA 00 EB DE F2 D9 FC EE 96 E3 EC FB 7B 00 89 S............{..
00403240 DF 35 00 5D EA 58 CC 70 9B 00 F3 61 20 8C 82 0C .5.].X.p...a ...
00403250 36 8F 8A 1C 18 17 34 B7 FF 00 A6 00 EA 64 DE A8 6.....4......d..
00403260 00 E5 53 22 37 27 BC F0 07 7B 4E FD 9F E1 96 99 ..S"7'...{N.....
00403270 E1 17 C8 26 85 73 FF BD 00 EF 5A 00 55 21 A5 87 ...&.s....Z.U!..
00403280 6D 8C 00 63 AA 6D 17 FF 27 97 B7 4F 74 83 61 E7 m..c.m..'..Ot.a.
00403290 F8 2C B7 FF 21 86 F6 B3 00 37 69 4E DD 5F B0 00 .,..!....7iN._..
004032A0 21 D5 8A 20 99 21 57 3B 85 78 36 92 FD 7B 8E 95 !.. .!W;.x6..{..
004032B0 9B 00 72 8B 1E 66 C6 70 38 ED AB 98 28 63 C1 6E ..r..f.p8...(c.n
004032C0 00 21 0C 89 E0 48 5F 58 D8 BD 71 31 E1 66 00 F4 .!...H_X..q1.f..
004032D0 A0 4A 1E CD 4D 47 50 43 E7 57 FF 00 DD 4E D7 1D .J..MGPC.W...N..
004032E0 83 52 D5 1F 5C 68 E7 14 41 6B C2 1D 1C D1 32 27 .R..\h..Ak....2'
004032F0 88 C2 00 C5 28 7B 05 3F EB F9 8C 99 9A F8 C4 9C ....({.?........
00403300 D5 00 4C 25 FC 68 F2 F5 39 5C 8E 38 D5 00 06 00 ..L%.h..9\.8....
00403310 99 1D 78 FA 4C C6 75 90 12 78 E7 28 ED B7 C0 C0 ..x.L.u..x.(....
00403320 7C 0F 44 77 EC F2 C4 91 B0 D7 E8 00 B5 25 4F 00 |.Dw.........%O.
00403330 64 72 19 B8 00 9D D5 00 24 AC 24 D5 00 7A BD D7 dr......$.$..z..
00403340 6B 6C C0 BF 4C EE 94 DF 31 00 E7 C7 2B 40 F5 35 kl..L...1...+@.5
00403350 52 0A 0B 44 2F 61 08 00 43 00 D1 00 C9 74 44 B3 R..D/a..C....tD.
00403360 7D 1F FF FB 47 B1 5A D7 5C 58 C0 00 B3 C6 1B F0 }...G.Z.\X......
00403370 00 2A C7 3C BD 29 FF 74 1E 43 06 D4 4C 9C 20 32 .*.<.).t.C..L. 2
00403380 64 06 45 CB A4 26 C1 0C B7 78 AE 87 00 4A 1A A2 d.E..&...x...J..
00403390 39 08 F6 A6 BF 78 C0 D9 7A DE 00 89 DE B8 D5 27 9....x..z......'
004033A0 46 1B 93 18 00 2F 00 51 23 58 71 0C AE CE B3 02 F..../.Q#Xq.....
004033B0 AB A7 00 34 00 00 F7 ED 9F F8 3A 65 AF 0F CC 20 ...4......:e... 
004033C0 D0 91 F3 50 6E A3 60 4B 49 11 2F 01 E6 4A 1A 4B ...Pn.`KI./..J.K
004033D0 60 FC 80 E3 79 16 10 8F FF E7 0C 00 2E 11 6E 38 `...y.........n8
004033E0 5D 46 62 00 08 89 98 0D 37 EC 45 02 5D 38 00 98 ]Fb.....7.E.]8..
004033F0 63 C2 CB 9C 00 C0 07 2B 46 00 00 0C FA 7A 42 C5 c......+F....zB.
00403400 07 98 85 00 0C D7 D2 7F 1F B9 D6 FE 9E 3C 00 CB .............<..
00403410 F0 95 55 00 00 5C A2 16 5D E7 65 65 82 D2 EF DA ..U..\..].ee....
00403420 05 71 BF FF 1F 71 BF BC 31 40 14 F6 16 BE AB 00 .q...q..1@......
00403430 9D BB F7 7F 97 00 65 AF 2A 68 B8 81 00 07 09 FF ......e.*h......
00403440 B4 D0 E4 83 FA AF C7 4B 1C 00 E9 09 3F B2 B9 83 .......K....?...
00403450 9F BB F4 8F FF 86 9C 1F 76 5E 5C 41 69 B0 3D 26 ........v^\Ai.=&
00403460 C7 CE 7F 6A 00 9A B3 DE 60 86 22 FB 88 FA 00 DF ...j....`.".....
00403470 ED 90 08 8F 7E E1 EB 46 AA 3C 00 00 36 94 00 AB ....~..F.<..6...
00403480 01 D1 0E 00 60 6B 50 D1 F4 DC 6E 09 B9 4E 01 0B ....`kP...n..N..
00403490 8F 0A 83 8D 89 6F 00 1C B9 C1 9B E7 39 FF E7 FF .....o......9...
004034A0 11 BF 1C 60 82 6A C4 D9 24 00 00 FF C6 DC 1C C6 ...`.j..$.......
004034B0 17 BE E0 8E 56 00 FF 3E 51 8F 29 A5 D0 3E D6 47 ....V..>Q.)..>.G
004034C0 00 64 00 D1 2D 7A 54 0A 7F 57 C4 35 00 B4 EC 00 .d..-zT..W.5....
004034D0 0B 50 D0 A9 FF 72 FA 99 00 00 4F 02 D4 E3 BA 01 .P...r....O.....
004034E0 3A 24 CB DB EC FF 2C 7B 69 C5 64 02 20 B3 46 2F :$....,{i.d. .F/
004034F0 A4 0D 03 00 13 38 F3 63 89 9D 5F E1 BF 45 74 01 .....8.c.._..Et.
00403500 49 A3 36 2C 06 30 FF 32 DC 34 9E 1B 03 05 33 80 I.6,.0.2.4....3.
00403510 E3 C3 81 58 00 FC 00 22 3F 85 EC E2 E7 1C CB 69 ...X..."?......i
00403520 26 F8 3C 6E 05 00 61 00 C7 71 64 48 00 8C 70 1F &.<n..a..qdH..p.
00403530 AD 07 00 C2 2E BD 81 6C 0F 36 7B 1C 31 51 6A 50 .......l.6{.1QjP
00403540 23 B1 00 84 F6 7F BB 08 34 A4 00 B3 FF C5 C6 EE #.......4.......
00403550 CA 00 96 8F DC 86 40 36 1C 00 00 F0 11 00 3B 79 ......@6......;y
00403560 C6 39 AE 1D 99 6D 40 7A AD EE 9F 18 FF AA CA 00 .9...m@z........
00403570 65 8A 7D 09 1F F8 30 00 5A 44 45 0D 00 39 B3 F7 e.}...0.ZDE..9..
00403580 43 00 FB F9 0D 8F 8E 00 20 00 FE 2A FB 22 41 BE C....... ..*."A.
00403590 68 00 F3 9F 3B EF AB F7 73 00 FF 58 7F FD 89 FF h...;...s..X....
004035A0 00 36 41 9F C0 42 77 25 4E 78 FF FF FB 5B 14 00 .6A..Bw%Nx...[..
004035B0 00 BF 91 2E E7 AC AE A4 E5 FF DC 71 9B 3F FF 7B ...........q.?.{
004035C0 D6 42 00 D2 FA E5 30 F6 0C 00 1C E2 5D 69 14 4F .B....0.....]i.O
004035D0 47 FF 33 A8 7C FD A5 D2 05 FD 1C 5E 91 3B FA 05 G.3.|......^.;..
004035E0 00 CF FF E7 AD B3 A3 73 BA 2E 15 87 09 00 00 50 .......s.......P
004035F0 DD A7 0D 27 71 A7 D3 70 A4 D0 1C E2 81 06 00 BA ...'q..p........
00403600 EC 7B C8 9B C1 4E 6F EF 13 3F 39 65 FE 65 00 E0 .{...No..?9e.e..
00403610 39 00 FF 00 00 15 F4 A0 02 40 CA 45 8D DC 66 DD 9........@.E..f.
00403620 EE 50 7C F2 C8 7D 0E 6F 32 A9 62 A5 72 00 5C 00 .P|..}.o2.b.r.\.
00403630 00 CD 3A 00 93 E7 A4 5E 4F 04 19 99 BB 26 08 26 ..:....^O....&.&
00403640 88 19 00 3D 15 6A 4F B0 E9 80 59 AD 9F 75 E1 6A ...=.jO...Y..u.j
00403650 1E 4A FC 34 E1 F2 61 00 6C B9 CD CC 1A 54 81 20 .J.4..a.l....T. 
00403660 33 00 3C E5 F0 FF 00 2C 0F 51 DF 06 B4 87 55 85 3.<....,.Q....U.
00403670 6C C5 48 63 B2 24 CE 00 13 FF 06 57 00 45 E5 EC l.Hc.$.....W.E..
00403680 DD FF F6 F4 CA D6 6B AD 1A F0 8D 69 D1 07 EB AD ......k....i....
00403690 00 EF E4 36 BF CB 76 70 71 A5 00 E2 FF 8E CF 7B ...6..vpq......{
004036A0 F3 80 1D F1 0E C2 1A CC 97 FD C2 25 3C 02 2D 6E ...........%<.-n
004036B0 3A 0B 30 16 9A 70 FF C6 67 61 98 9E FF 81 35 FF :.0..p..ga....5.
004036C0 07 CE E8 B1 8D ED 5D FF AD 5C FC 17 FD 66 C2 91 ......]..\...f..
004036D0 78 75 79 4C C1 7E 3A E0 F0 6D 01 AB FE 39 83 CD xuyL.~:..m...9..
004036E0 E1 83 FD FF 00 79 00 6C 8C FF EB C5 FF 7D 00 8D .....y.l.....}..
004036F0 9C E9 CE 1B EC 44 03 39 51 0C DE B5 9E C0 2F 86 .....D.9Q...../.
00403700 00 15 62 81 71 B9 D5 DF 1A 37 04 1F 52 00 74 00 ..b.q....7..R.t.
00403710 14 81 73 02 2A CF 3A 86 00 71 18 06 FD 4E FF 46 ..s.*.:..q...N.F
00403720 79 F1 F3 FC 4F 77 6A 3E DE 00 00 8B 85 00 A9 57 y...Owj>.......W
00403730 07 61 89 73 4E 33 04 28 30 C6 8C 57 FC 63 E2 EA .a.sN3.(0..W.c..
00403740 62 CB 81 3C 7E D4 1E 9E 21 08 5E FF F5 00 FF 00 b..<~...!.^.....
00403750 23 D7 08 E1 42 4A 94 39 31 9E 56 2D 0B 12 A4 06 #...BJ.91.V-....
00403760 76 DE 91 45 18 63 54 87 BF 81 08 00 F6 E7 31 FD v..E.cT.......1.
00403770 FF 2C 08 00 00 84 E7 FF 90 FF 5B 00 C1 C3 01 59 .,........[....Y
00403780 21 83 05 B2 9D B1 2B 9F 15 98 FF 82 00 00 2A 61 !.....+.......*a
00403790 00 86 52 07 00 BB C4 E4 E9 4E CD B6 FE FF 00 FF ..R......N......
004037A0 97 06 FB A4 60 FF F5 00 1D EB 0A 61 AC 77 2F 19 ....`......a.w/.
004037B0 1E F8 D8 71 78 00 93 5B B8 24 9B 60 9A 00 D2 C7 ...qx..[.$.`....
004037C0 13 F8 9E A1 7F 96 60 33 3F BF 16 DA E9 25 03 9B ......`3?....%..
004037D0 00 00 5F 22 00 A1 79 15 F3 02 FB 99 0C 01 F7 00 .._"..y.........
004037E0 D9 16 00 82 CE D4 FB 00 F9 CB E1 4B 61 9D 68 E8 ...........Ka.h.
004037F0 DC 46 34 D2 8D 31 4A AA 81 1C 00 6B FF 43 E1 93 .F4..1J....k.C..
00403800 58 09 3A 00 9A 68 54 EE 6C 79 14 4C A9 7B E5 57 X.:..hT.ly.L.{.W
00403810 DA E0 00 1B 62 00 FF BE 56 92 52 9C 48 0F F5 8A ....b...V.R.H...
00403820 FF 00 CD A9 11 00 0C 65 C8 6F 07 DF 01 20 00 1B .......e.o... ..
00403830 00 AC FE 35 5E 0C 9E CF 57 D1 67 FF 1C 69 0B AC ...5^...W.g..i..
00403840 A7 03 A3 31 08 A8 6C E6 5C C3 77 60 7F 00 24 03 ...1..l.\.w`..$.
00403850 88 0F 43 68 00 5F FF F3 76 71 A4 2F B2 39 00 3F ..Ch._..vq./.9.?
00403860 00 32 94 D4 19 70 12 FF 60 8C FF FF 33 E2 CE E0 .2...p..`...3...
00403870 2E F0 18 40 59 7A D2 C8 D0 88 4C 71 DB 38 6A 35 ...@Yz....Lq.8j5
00403880 4C 95 45 C2 57 00 F6 00 81 47 1E E6 F5 9F AA CA L.E.W....G......
00403890 63 FF 01 81 4D 00 67 C0 37 28 4D AD FF 41 15 9F c...M.g.7(M..A..
004038A0 68 BD 04 71 2C 7F D1 78 9C C9 7E 02 1A C9 35 61 h..q,..x..~...5a
004038B0 44 FF DD CB 2B DF AB C3 97 00 00 51 FF 5D D6 EF D...+......Q.]..
004038C0 87 FA 85 77 B6 C9 14 56 17 F7 F5 E2 7D FF 00 34 ...w...V....}..4
004038D0 8E 00 BD 78 FF AB A5 B6 07 11 0A E4 70 1D BE 4F ...x........p..O
004038E0 F0 FF 9E 69 96 40 61 FF 1B 10 6E E8 D7 55 F1 02 ...i.@a...n..U..
004038F0 D8 16 00 51 90 E0 CD 83 86 A1 F9 5E 3E FD D1 52 ...Q.......^>..R
00403900 CE 55 75 84 00 A4 A4 00 64 87 CE 00 FF C2 DF 09 .Uu.....d.......
00403910 30 F7 DC 6D 00 92 D9 63 00 3E C5 74 C8 16 00 DB 0..m...c.>.t....
00403920 78 00 FF EC 00 0B 1D D0 27 66 EF 05 1A 00 08 FF x.......'f......
00403930 B9 28 3B A3 4E 72 28 00 FA C3 0B 0D 90 4F EF AE .(;.Nr(......O..
00403940 2C F6 06 99 00 D0 CD 85 D8 1D 6C C4 05 29 2A 5C ,.........l..)*\
00403950 D1 00 2F 91 34 A7 E2 B0 7E 7A 00 28 0D 7C 58 57 ../.4...~z.(.|XW
00403960 80 1F F8 C6 2F 80 70 18 E5 00 A1 40 9E FC 63 2E ..../.p....@..c.
00403970 07 EA FF AF 66 25 3B F8 5E AB 80 98 88 FF 70 B8 ....f%;.^.....p.
00403980 35 00 36 51 58 2E 64 36 33 A3 11 00 BC 4F EF 00 5.6QX.d63....O..
00403990 00 E2 F8 13 D0 9C 6E FC FB 0E 25 60 2E 14 79 59 ......n...%`..yY
004039A0 4E 00 DC 23 35 19 58 85 56 F6 00 08 BA C7 DB E6 N..#5.X.V.......
004039B0 1B D1 FE 7C D5 27 C2 00 71 3C 4C 66 79 75 00 D5 ...|.'..q<Lfyu..
004039C0 88 50 64 00 1F C8 20 58 CB 06 D0 A3 F0 00 00 03 .Pd... X........
004039D0 F1 FA 39 9F 74 70 95 57 88 30 C5 00 7F 00 00 8C ..9.tp.W.0......
004039E0 AF 5F 6F B3 6B F4 46 A1 D7 6B 48 E9 3D 45 00 00 ._o.k.F..kH.=E..
004039F0 00 A5 97 CC D4 00 E5 BB D9 DA 00 8C 84 02 36 55 ..............6U
00403A00 FB 86 89 95 24 C0 81 7A CE D1 66 14 63 72 55 77 ....$..z..f.crUw
00403A10 09 8A 6B 8E 03 6E 00 FF 65 9B 02 7C 1B 20 D4 76 ..k..n..e..|. .v
00403A20 92 59 C9 04 C3 63 87 FF 51 E8 21 01 49 FF 78 B0 .Y...c..Q.!.I.x.
00403A30 24 DE 10 65 03 70 61 00 C5 A5 D8 84 00 34 AF 00 $..e.pa......4..
00403A40 14 11 78 81 F1 F8 49 CC 0F 05 81 8C AE 85 EE 08 ..x...I.........
00403A50 5C FF 0B E1 00 E2 00 2C D1 02 FD 9A 59 40 37 1E \......,....Y@7.
00403A60 FF 83 00 FA B0 C2 54 1E C3 96 4A B8 C3 00 BD 4E ......T...J....N
00403A70 D0 FF 4C B6 D3 59 1C E2 C6 3B 01 62 7F B8 77 12 ..L..Y...;.b..w.
00403A80 85 00 84 51 D2 82 FC 6E C0 14 96 B7 FA B8 B7 48 ...Q...n.......H
00403A90 00 75 B4 31 D8 36 66 00 92 BC 93 00 25 92 C7 A3 .u.1.6f.....%...
00403AA0 00 A1 49 AD DF 93 91 40 01 A7 20 71 49 00 4A 16 ..I....@.. qI.J.
00403AB0 0A 99 02 F3 ED 11 00 5A 37 57 00 36 45 04 0B 00 .......Z7W.6E...
00403AC0 E9 A1 B6 ED 89 70 C0 00 BC 86 BD 52 07 1F AF EF .....p.....R....
00403AD0 B0 01 12 50 82 48 97 A7 64 2C 02 8C FF 42 33 0C ...P.H..d,...B3.
00403AE0 50 2F BE E5 20 B5 00 C7 FF 00 A0 25 62 26 12 C0 P/.. ......%b&..
00403AF0 F0 0D 58 00 96 7F 68 FB 3F FF D8 B9 85 71 A1 F2 ..X...h.?....q..
00403B00 7A 8E E0 DC 14 69 7F 56 E5 FF 21 C2 E7 18 CC 00 z....i.V..!.....
00403B10 44 A5 00 70 A6 78 F2 40 AC 70 20 64 84 7D 46 0F D..p.x.@.p d.}F.
00403B20 FD D6 87 00 20 27 78 85 83 97 78 0C 00 00 35 00 .... 'x...x...5.
00403B30 00 C8 6A B7 F9 4C B7 46 27 9B 8A 00 4E E4 6C 31 ..j..L.F'...N.l1
00403B40 14 3D 55 38 09 4B 78 33 D7 EF 5E 23 6C A9 8E EA .=U8.Kx3..^#l...
00403B50 FA D2 13 80 D4 73 AA 27 F3 B3 00 A4 3E 25 00 9B .....s.'....>%..
00403B60 D4 54 4C 32 8B 74 8F 1B 01 C2 00 EB CF CD 8E 00 .TL2.t..........
00403B70 B7 6F E1 37 00 BD 7E E3 83 B8 0D 30 00 FE 36 00 .o.7..~....0..6.
00403B80 9A 42 14 1C 17 81 00 00 65 F7 CF E0 F0 C4 5F 8C .B......e....._.
00403B90 3B 12 80 25 09 00 6D 49 76 CC EA 95 0B 9B 00 35 ;..%..mIv......5
00403BA0 00 CF D7 44 AA 27 FF D1 B8 00 00 30 15 6A AD 40 ...D.'.....0.j.@
00403BB0 D6 00 07 00 F2 A4 23 AC 83 7B 2E D1 74 4D 7B 0E ......#..{..tM{.
00403BC0 F1 BE 00 97 97 91 BD 01 F7 53 E4 2D 79 C4 F5 23 .........S.-y..#
00403BD0 B9 43 62 36 11 CB C0 B7 AE 08 80 47 94 30 CD 01 .Cb6.......G.0..
00403BE0 E8 1E 41 00 A5 7A F7 15 5E 00 69 80 CD 00 FA 00 ..A..z..^.i.....
00403BF0 6E 7D 36 4B 4E 19 83 D1 FF 00 E0 E9 27 30 12 BD n}6KN.......'0..
00403C00 00 73 8C 8A 7A F8 B7 FF E0 14 28 2F 94 49 E7 59 .s..z.....(/.I.Y
00403C10 D5 00 54 CE 8D 15 29 30 DA A4 DF E6 00 FF 7C 00 ..T...)0......|.
00403C20 7E 3F 13 B7 4B 45 95 CE F9 00 BA 09 70 FB 68 D7 ~?..KE......p.h.
00403C30 00 63 14 A0 3C 98 EE F4 87 FF 2B 75 4A A0 85 75 .c..<.....+uJ..u
00403C40 79 05 F0 4D 3E 7D FE E7 36 76 58 6C F8 BC CA 33 y..M>}..6vXl...3
00403C50 18 37 E0 9F 7B 12 E0 1A 00 84 9F 74 0A 91 20 FF .7..{......t.. .
00403C60 99 0E 3E 7F 39 31 C4 22 66 00 E4 C3 00 FF 04 FD ..>.91."f.......
00403C70 BF 8D 00 7F 2B D9 00 60 75 00 5A C6 34 39 3A 00 ....+..`u.Z.49:.
00403C80 1D 98 EE 3C 00 61 BE 95 FF 04 00 82 1F 00 45 88 ...<.a........E.
00403C90 21 A4 18 61 B8 FD 10 29 BF 30 C3 88 D2 EF B3 64 !..a...).0.....d
00403CA0 06 78 24 6C D1 AE 96 FF BF EA 42 00 FF 00 2B 77 .x$l......B...+w
00403CB0 FF 6A F6 6E 85 88 46 7B BA B7 FF 34 00 D8 72 00 .j.n..F{...4..r.
00403CC0 C3 4F 00 4F 43 6E FF 83 24 D4 0B 00 F3 2E 0A 00 .O.OCn..$.......
00403CD0 44 33 73 00 2B 96 C2 FC C4 31 B6 E3 00 38 00 80 D3s.+....1...8..
00403CE0 3C 1D 95 E2 91 F9 47 00 4B 80 C0 5B F2 01 16 37 <.....G.K..[...7
00403CF0 58 99 54 4E B9 83 10 4E A7 5C 6C 10 2A CF 0D 65 X.TN...N.\l.*..e
00403D00 41 D9 54 A9 FF 06 AD 38 E0 C9 93 00 31 BA 4E 67 A.T....8....1.Ng
00403D10 E7 B8 FF D6 72 9E ED DD 00 02 E8 00 67 41 6F FE ....r.......gAo.
00403D20 B6 57 0C 38 B6 97 03 DA 73 8E D1 50 E4 00 22 06 .W.8....s..P..".
00403D30 FF 82 00 B3 A8 67 5F 80 FF 94 2A 0A 4D 00 C7 CB .....g_...*.M...
00403D40 51 78 B1 0D E1 84 00 85 48 B9 7B B7 55 FB 00 13 Qx......H.{.U...
00403D50 BC 00 8F 60 9B A0 42 00 FF D8 02 44 AA 00 7F C1 ...`..B....D....
00403D60 1D 00 51 00 93 BC BC 82 2E 9A 39 B5 F3 0F FF 38 ..Q.......9....8
00403D70 00 DD DE 43 3B 00 4D D1 35 83 07 24 B4 80 84 0A ...C;.M.5..$....
00403D80 4B 9F DE FF 8B E4 26 D0 B5 E2 39 FF 7C E2 92 BF K.....&...9.|...
00403D90 A8 22 FB FF CD 28 85 08 71 E5 30 F0 70 79 C2 B7 ."...(..q.0.py..
00403DA0 A9 4D 39 00 45 34 9C 8F 37 CE 38 00 FA BA 65 5B .M9.E4..7.8...e[
00403DB0 00 C3 07 06 3E 53 E6 44 69 A0 25 97 55 6D 8E 00 ....>S.Di.%.Um..
00403DC0 00 A5 36 E8 9D 00 18 A3 CD 79 01 59 5D 18 87 33 ..6......y.Y]..3
00403DD0 CC FF 98 8B 47 47 00 2B 6A C3 FF 0F DE 9F 6A AB ....GG.+j.....j.
00403DE0 4F E4 46 38 F7 9F C5 AD 00 5C 1F FF 00 0B BC 64 O.F8.....\.....d
00403DF0 AF 47 A7 C1 6C FF 15 34 CA 10 ED FF FB 86 83 00 .G..l..4........
00403E00 9C 08 AF 27 00 78 FF 00 22 6A E6 B2 E9 F1 8F C0 ...'.x.."j......
00403E10 DF 43 3E 00 4C 5A CE 94 14 C0 2D 00 E0 CC ED 00 .C>.LZ....-.....
00403E20 21 0B CF A2 BD 18 06 A9 F0 C6 10 D2 DB 14 00 B6 !...............
00403E30 3C AF 44 8A 73 9F 27 5F 74 FC 10 10 CF 5D F0 86 <.D.s.'_t....]..
00403E40 E1 C1 8B 2A 00 E4 76 72 30 4C 89 27 39 18 08 08 ...*..vr0L.'9...
00403E50 30 26 FA F0 77 C0 FF B5 A4 B4 EC 00 3D 3A D3 A6 0&..w.......=:..
00403E60 C5 B8 67 FF 36 BB 7D 3D C1 55 E0 01 81 FF BD 3A ..g.6.}=.U.....:
00403E70 BB EC C7 75 90 FF 90 76 7A 59 3B EB 38 FC 1B C2 ...u...vzY;.8...
00403E80 7D CA EB BE 80 85 7C 31 00 A6 1C 6D 3A 01 CA 8E }.....|1...m:...
00403E90 80 49 8F 10 F6 00 00 89 10 8C 03 FE 28 FF C6 32 .I..........(..2
00403EA0 E5 9C 00 00 BA 3F 35 00 F8 45 7F 9E 66 19 EB B9 .....?5..E..f...
00403EB0 00 46 8C 00 50 0C 44 00 50 58 E9 FF A2 68 47 08 .F..P.D.PX...hG.
00403EC0 BC CF 3E 20 20 97 3A E1 95 30 D4 C0 4C FE 96 2B ..>  .:..0..L..+
00403ED0 00 40 D1 00 C2 E0 FF FD 0A 07 13 B9 00 A7 00 DF .@..............
00403EE0 26 EE 49 70 47 85 B7 FF 3E C6 4E E5 6F A5 00 00 &.IpG...>.N.o...
00403EF0 00 20 17 9D 8F D7 FB 3D 1B FF 85 44 DA 64 00 7E . .....=...D.d.~
00403F00 FF 00 FF 95 60 91 05 D4 1E 70 64 6F AA DB FF 7C ....`....pdo...|
00403F10 00 00 01 0E 70 3B AB 42 3A 00 BA 6F CE 2E 00 9A ....p;.B:..o....
00403F20 BD 34 0D 37 FB 17 00 00 60 4E CC ED 84 D7 99 F3 .4.7....`N......
00403F30 63 D1 A7 14 59 F7 00 2C 9C 2C B1 CF 7F 7A 88 C0 c...Y..,.,...z..
00403F40 67 4E BA 01 75 D5 00 B4 B8 A7 27 64 00 00 5B 9C gN..u.....'d..[.
00403F50 25 E5 82 3E 58 7A E0 77 17 B7 F9 00 85 1C 89 E3 %..>Xz.w........
00403F60 09 CB 67 7D 16 00 7D A4 00 58 68 F9 B4 E2 73 C1 ..g}..}..Xh...s.
00403F70 17 02 AF 00 63 D8 EF 69 B5 9A B5 00 3E 00 F6 51 ....c..i....>..Q
00403F80 1F 72 A1 B9 FF 2C 56 00 00 00 FA 71 26 EE A9 CC .r...,V....q&...
00403F90 B1 61 95 00 CD 00 6A 13 1C C1 EA 30 02 C3 32 00 .a....j....0..2.
00403FA0 0B D6 FF 68 2E FF 49 54 DF 2F 80 00 37 00 D0 63 ...h..IT./..7..c
00403FB0 67 2E F5 EA D6 2C AC 45 22 4D D5 F8 F8 1E 9C 92 g....,.E"M......
00403FC0 81 5C 00 00 CF 8E 8F FF B1 EA 90 6F 51 2E 70 00 .\.........oQ.p.
00403FD0 24 00 3A 00 00 72 FF 3A BA 32 D1 FF 74 A5 83 5E $.:..r.:.2..t..^
00403FE0 B1 00 BA 7E F9 47 11 F7 06 1F 34 14 76 FF 66 CC ...~.G....4.v.f.
00403FF0 4D 1F C9 00 67 61 00 00 B3 FF FF FE 39 F1 02 2D M...ga......9..-
00404000 45 70 00 1F 38 5B DD 84 21 00 BF BA 99 FF 00 27 Ep..8[..!......'
00404010 FF 00 FF 11 0D 2C 95 04 16 00 9A 26 0F 78 54 00 .....,.....&.xT.
00404020 04 A9 77 2C 20 8E 4F 54 9C 67 31 73 00 00 00 03 ..w, .OT.g1s....
00404030 5C 8F 01 F9 13 42 78 EF E4 FF A9 E8 08 5E C5 D6 \....Bx......^..
00404040 FB 97 63 00 32 3F 00 E8 6F 00 F6 DA CC 5B A8 E9 ..c.2?..o....[..
00404050 E0 6B 00 37 89 32 44 A0 91 9C FF 46 E3 38 86 73 .k.7.2D....F.8.s
00404060 BB 80 4C CE FF 20 82 34 FD 96 B6 85 FE C2 3F 95 ..L.. .4......?.
00404070 27 35 FF 00 8B 84 C4 63 FD 00 00 00 94 47 6F 1F '5.....c.....Go.
00404080 13 45 00 5F 0F 09 BB 5F 6E 43 7E 90 50 ED 01 FF .E._..._nC~.P...
00404090 FB 0D 21 DD 00 F9 98 07 4C C5 54 E5 1B 00 27 00 ..!.....L.T...'.
004040A0 13 8C A9 14 AB 48 69 96 B3 6A B6 63 C9 0C B1 00 .....Hi..j.c....
004040B0 50 93 00 C4 4F 11 00 E1 00 7E 7D 87 E9 30 FF FE P...O....~}..0..
004040C0 00 F9 72 1C 1A F0 8E FD 52 76 69 09 BF 8D FE D3 ..r.....Rvi.....
004040D0 2B 9F 10 11 E1 07 FF FF 63 00 D7 05 38 00 45 04 +.......c...8.E.
004040E0 A4 C7 5E 34 7D 2D BF 95 45 86 E4 38 87 BF FE 00 ..^4}-..E..8....
004040F0 A2 5B B1 24 0E A6 FF 76 80 1C 76 74 11 83 00 8F .[.$...v..vt....
00404100 E4 1A A9 00 CF 00 18 F4 70 20 00 AD 2C EC 00 50 ........p ..,..P
00404110 3D A3 2C 95 7B 47 57 03 B1 9A 9E E4 18 D2 D7 34 =.,.{GW........4
00404120 81 86 1D 43 5C EE 35 DF FF A8 77 00 CC 00 F1 97 ...C\.5...w.....
00404130 E6 12 38 F5 2E 00 0C C0 A1 40 86 A8 5D 00 00 00 ..8......@..]...
00404140 12 21 66 49 20 1A E4 B2 F0 03 D8 F0 6E 1A CC 9A .!fI .......n...
00404150 52 DD 79 69 00 8C 89 C9 9C 95 C5 A1 E5 26 00 B8 R.yi.........&..
00404160 FF 3E 34 7C A3 57 3B 6D 73 39 F8 00 98 A9 09 A9 .>4|.W;ms9......
00404170 9C 84 EF F1 58 41 D0 33 82 F3 00 08 43 F0 EB 6C ....XA.3....C..l
00404180 63 83 3F FF E6 EB 04 4E 76 17 00 E6 00 B0 00 64 c.?....Nv......d
00404190 1A AE 04 4E E6 04 F5 7E DB 00 00 B1 01 68 6E C1 ...N...~.....hn.
004041A0 24 C7 13 97 E5 C7 78 7C 3C 60 26 12 00 CE 00 00 $.....x|<`&.....
004041B0 7D 5B FF 04 6A 00 FF 00 15 00 C3 DB 5F 27 F1 58 }[..j......._'.X
004041C0 5A 00 23 57 55 FF 82 00 BE AA C4 7D 90 E6 DB FD Z.#WU......}....
004041D0 B0 00 00 00 16 00 52 B2 08 56 81 21 00 C6 00 1B ......R..V.!....
004041E0 C2 00 00 08 1B 59 00 44 F5 C8 BE 47 D2 00 27 3F .....Y.D...G..'?
004041F0 0F 00 36 9C 00 B2 04 E8 1B 01 DF 41 60 39 00 4B ..6........A`9.K
00404200 DA 0F E4 0B A5 2A 21 0A 74 91 30 DC 16 30 7D 39 .....*!.t.0..0}9
00404210 A4 FF FF 70 E4 9B 62 20 0C 54 3D 00 D5 1F 01 D1 ...p..b .T=.....
00404220 4B 01 08 01 63 FE DF 02 01 39 A7 AA 01 93 92 26 K...c....9.....&
00404230 7A F6 44 31 78 35 1C 00 19 05 8A F8 18 DE 03 9F z.D1x5..........
00404240 06 DF 18 8E C6 44 FF 45 9C C6 FF 00 E0 0F FF A9 .....D.E........
00404250 96 22 84 D1 EE 94 9E ED F2 73 E3 29 26 98 D8 FF .".......s.)&...
00404260 13 E1 C2 7A E2 B0 92 3C 17 8B 06 DA 00 C0 0A 66 ...z...<.......f
00404270 FF 96 50 AF A1 00 70 F4 C7 29 D0 00 60 F9 00 49 ..P...p..)..`..I
00404280 00 9C 6D 1D 68 16 98 F3 00 46 00 50 0C 71 A4 52 ..m.h....F.P.q.R
00404290 FF C0 EE 02 E3 6A D5 FF FF B2 16 FB B4 88 82 37 .....j.........7
004042A0 22 FE 00 18 17 21 D0 7E 00 00 67 FF A7 50 00 82 "....!.~..g..P..
004042B0 00 4B 40 00 61 30 0A 09 E2 CF 9E 66 01 00 02 FF .K@.a0.....f....
004042C0 DF 4C C2 C4 23 80 3B 28 47 3D 5C 00 D8 E1 E0 45 .L..#.;(G=\....E
004042D0 0E 47 77 61 00 1B 42 EB 49 00 85 6E 62 C4 88 8A .Gwa..B.I..nb...
004042E0 B9 96 CD 0B 34 23 43 E2 7E 23 00 BF 00 57 B2 E4 ....4#C.~#...W..
004042F0 94 64 E6 00 3A D3 6C E5 B1 85 76 00 89 6E FF 60 .d..:.l...v..n.`
00404300 DE B1 D1 3C 57 E2 00 67 D3 33 01 00 00 6D 1D 70 ...<W..g.3...m.p
00404310 86 9B A3 00 97 00 96 0C 00 3F D2 00 C1 73 B7 DD .........?...s..
00404320 9D 4B EB BC EA 42 4A 8F ED 00 34 78 90 2F C7 00 .K...BJ...4x./..
00404330 98 37 01 00 82 8D 10 54 91 90 5F 00 69 FF DB 23 .7.....T.._.i..#
00404340 11 00 55 E1 5C DC F8 B1 A5 00 00 62 3E E7 FF B3 ..U.\......b>...
00404350 C1 AD 79 FF 2B 91 85 FF 8E 2A 00 7C 53 80 C8 5B ..y.+....*.|S..[
00404360 00 D4 08 A3 0E 92 00 FF E7 B6 2B 73 00 46 00 FF ..........+s.F..
00404370 00 50 FF 91 87 43 63 0F 01 CA DE 68 00 14 61 90 .P...Cc....h..a.
00404380 9B 33 00 00 A2 7E C6 1C 17 FE A8 9D 52 7E C4 1E .3...~......R~..
00404390 00 00 B2 9A B7 48 E4 83 FF BD C9 00 EA 52 ED 00 .....H.......R..
004043A0 1C 8D AF E2 08 3C B2 FF B3 5A B9 03 00 00 BD 24 .....<...Z.....$
004043B0 64 2E 69 FF 5A E8 4E 00 02 E6 F9 6C 00 BA CC E3 d.i.Z.N....l....
004043C0 A0 FC 6C 09 B7 0A 5B BF 00 DB 94 7E 11 00 0C FF ..l...[....~....
004043D0 D0 00 28 6C 3E 91 94 00 18 CE 49 33 86 A7 30 00 ..(l>.....I3..0.
004043E0 DF A7 FD A3 69 7E 00 00 C0 03 A4 00 00 D5 12 7C ....i~.........|
004043F0 19 FF C2 FC C6 77 00 00 93 00 C2 61 01 00 00 DE .....w.....a....
00404400 B7 15 4B 52 81 56 40 55 00 58 00 FB 00 E0 32 B6 ..KR.V@U.X....2.
00404410 73 00 3A 45 39 1C 00 00 CF C6 5A 0E B8 ED C1 9F s.:E9.....Z.....
00404420 93 FF 58 00 9F BF 22 C3 E3 0E 0F 01 68 E7 00 83 ..X...".....h...
00404430 21 B5 A2 74 1B 88 D1 00 00 21 5D 59 09 42 99 DF !..t.....!]Y.B..
00404440 FD CF 24 B3 00 5C 45 6E 00 30 07 15 17 3D A8 05 ..$..\En.0...=..
00404450 0C 84 FF 32 4E 91 B0 FF 77 9E F6 DF 3E 3B 41 BC ...2N...w...>;A.
00404460 41 C3 7A C9 1D 3F C8 D1 F2 08 00 FF DA 22 15 BE A.z..?......."..
00404470 00 00 81 0A 18 A3 E6 E2 50 E5 89 11 19 C8 24 14 ........P.....$.
00404480 30 7E B1 FF E2 0E 00 E8 51 7B 99 79 9F 4F 1F 37 0~......Q{.y.O.7
00404490 A4 2B 33 3E BA 61 FC 00 98 9E 3C 2E 18 B3 A5 F2 .+3>.a....<.....
004044A0 78 C4 A9 5A 4B 16 24 78 02 9B FF 00 18 2A 7F 00 x..ZK.$x.....*..
004044B0 50 F4 B1 07 B5 DE 00 00 6F FB DD E7 01 02 00 11 P.......o.......
004044C0 46 1E 00 74 FF 7E FF C1 33 5F 77 3B 72 71 EE 68 F..t.~..3_w;rq.h
004044D0 00 B5 58 30 00 36 00 CB 00 08 FF 13 E1 E0 00 FD ..X0.6..........
004044E0 61 02 DE FF 00 A0 F2 00 B0 C7 F2 00 F0 8D F0 00 a...............
004044F0 FF 75 C9 3F 28 6F 21 00 00 6D 8A 00 52 D2 FF DB .u.?(o!..m..R...
00404500 EA 2C 20 0E 8D 11 00 FF 00 5D AD A1 B3 84 64 21 ., ......]....d!
00404510 00 46 AE F3 8B 47 88 5E A6 AF C6 1A CC 95 00 01 .F...G.^........
00404520 A8 2A 3E 98 19 88 E4 44 1C 8F 3C 8F 4D 46 B4 1F .*>....D..<.MF..
00404530 33 04 00 DF 50 00 08 CB 89 9B 35 FF 5C A1 4C A1 3...P.....5.\.L.
00404540 F8 40 12 99 00 29 3D 86 F7 A0 5E 3B FB 60 CF C9 .@...)=...^;.`..
00404550 1E 16 87 0D 75 93 20 69 B7 DE FF A7 28 95 00 00 ....u. i....(...
00404560 7E 2F 06 58 46 7C 08 00 FF 41 63 AD 36 08 AD FF ~/.XF|...Ac.6...
00404570 D4 01 8C 00 9F BB 20 3E 3D 6D E7 1B 5E BF FF 80 ...... >=m..^...
00404580 02 10 52 A5 25 BC A3 23 62 5F 48 00 C1 DD 00 5A ..R.%..#b_H....Z
00404590 00 F0 1C D9 DD E8 00 00 50 50 9D CE FE 33 4C 00 ........PP...3L.
004045A0 EC 12 45 FF FF 58 FF 31 7B 2B 52 26 52 01 97 00 ..E..X.1{+R&R...
004045B0 F3 00 7F 08 F3 59 F1 AD 2F E1 A4 85 87 00 FB 2D .....Y../......-
004045C0 01 FF 3E AB 10 FF 24 98 00 FF 00 2D C0 DC F3 40 ..>...$....-...@
004045D0 DE 20 09 0E 00 FF 8D E0 A5 49 2D AF 00 00 88 EF . .......I-.....
004045E0 E2 56 00 AA 79 09 23 6C 58 66 4E B3 54 EB 3E FF .V..y.#lXfN.T.>.
004045F0 AB 12 AC 00 EE B7 18 FF 02 FF 51 B4 00 00 29 75 ..........Q...)u
00404600 98 62 2F 84 15 FF 00 E0 00 F9 66 53 E9 00 3C 1D .b/.......fS..<.
00404610 8F E4 D3 57 F1 04 01 FD 8E FF 73 00 00 E9 15 70 ...W......s....p
00404620 34 9C 1F 00 FB D2 C8 1A EE FC 44 1F DD 00 08 76 4.........D....v
00404630 00 7A 01 00 31 EC C1 00 7F 00 7D 8F 00 00 E1 02 .z..1.....}.....
00404640 00 00 2A 84 98 77 0B BF F7 D0 ED C6 00 FF 61 B3 ..*..w........a.
00404650 9B 46 D6 00 00 39 72 DD 00 19 86 21 74 5D 85 06 .F...9r....!t]..
00404660 D1 00 00 80 36 93 00 80 8D 00 B2 9E 00 30 FF 6B ....6........0.k
00404670 A3 D2 C9 00 30 B6 98 C5 00 6F 16 E7 EE 56 00 5C ....0....o...V.\
00404680 42 B9 38 1C C0 65 20 26 60 00 DB 27 00 85 6E FF B.8..e &`..'..n.
00404690 F5 FF E4 EC E2 61 00 00 FF 02 7E 04 57 40 FD 2C .....a....~.W@.,
004046A0 1D 01 10 00 BD 1D 00 A5 00 58 61 8B 15 0C F7 F4 .........Xa.....
004046B0 00 FF 00 44 12 0D C1 B0 00 5D FC ED DE BE 82 06 ...D.....]......
004046C0 A1 00 E8 BF AC B7 3A CB 00 B4 F6 F7 0A FC 61 46 ......:.......aF
004046D0 B8 68 00 4A A9 FF 00 B2 8C 00 41 22 71 62 D2 4B .h.J......A"qb.K
004046E0 BD 79 34 B8 82 00 00 3A 67 12 ED 1E 00 9A AC F6 .y4....:g.......
004046F0 00 00 D4 08 4C 62 1E E9 00 00 2F A4 E4 34 70 62 ....Lb..../..4pb
00404700 F5 61 24 00 42 6F F6 10 6F CB 8E 05 C3 00 0A C6 .a$.Bo..o.......
00404710 42 14 86 8F DE 02 20 D5 02 6D FA FF 7F 16 00 56 B..... ..m.....V
00404720 9E BF FF 92 A5 00 FB AA 60 E0 B1 49 D4 CB FF C6 ........`..I....
00404730 16 F8 98 AC DE BC F0 EF 9F FF C4 18 E0 64 40 78 .............d@x
00404740 7F 00 40 11 6F 24 09 4E C9 89 16 57 00 FF 3C 8A ..@.o$.N...W..<.
00404750 AA 7C 00 45 00 D4 FD 08 B9 35 C8 D7 00 9B 9D F4 .|.E.....5......
00404760 F7 FF FF 10 00 3C 28 FE D1 22 14 46 9E 45 2C B9 .....<(..".F.E,.
00404770 24 00 B9 34 85 74 5D 29 40 5A 3F 78 95 00 70 B6 $..4.t])@Z?x..p.
00404780 93 DF 4E CA 38 83 96 24 9F 00 10 20 81 59 C3 E4 ..N.8..$... .Y..
00404790 FF C7 52 4A E9 42 04 54 00 60 B8 BA 09 96 08 03 ..RJ.B.T.`......
004047A0 34 2F E2 0A 83 91 00 F2 51 06 C8 57 42 83 95 7C 4/......Q..WB..|
004047B0 62 13 74 53 00 00 F2 C0 C5 D6 E0 83 BF 66 B0 24 b.tS.........f.$
004047C0 00 2D AD 66 18 04 77 64 C8 4E 76 60 96 C7 19 28 .-.f..wd.Nv`...(
004047D0 8F 7F D4 01 A7 D8 26 4A 27 91 00 02 00 E0 F0 F9 ......&J'.......
004047E0 3E 34 DF 32 46 F9 DD FF 04 6B C4 45 55 1D 30 2B >4.2F....k.EU.0+
004047F0 C7 1C 68 36 32 83 00 E2 3B 23 57 30 38 60 67 39 ..h62...;#W08`g9
00404800 80 EC 8B 7D 63 14 7D C0 76 80 82 94 24 5A DD 9A ...}c.}.v...$Z..
00404810 1C E0 FF A4 87 51 D1 E1 0D BC DE AD 6B 89 00 9C .....Q......k...
00404820 4B E7 13 75 3E 50 B8 D7 6A 21 00 37 31 00 37 8A K..u>P..j!.71.7.
00404830 00 FF DC 41 68 E4 71 02 2D 93 7E 03 69 2C 68 BB ...Ah.q.-.~.i,h.
00404840 73 F6 00 DE 62 10 CD A4 BB BB 78 34 91 B0 3B 3D s...b.....x4..;=
00404850 40 13 1D 09 FF 70 C4 00 72 3A D1 00 3A 81 00 00 @....p..r:..:...
00404860 BA C7 E3 7C 3A 40 0B 00 81 20 58 49 BC 34 C7 00 ...|:@... XI.4..
00404870 31 36 E4 EF 14 00 E6 00 1F FE BE A7 E6 16 89 07 16..............
00404880 9F 2C 00 B8 3A A0 B8 97 E3 F2 4A 3E E4 F8 B4 5F .,..:.....J>..._
00404890 32 98 DA BF A9 0A 03 6F C6 5F 7E 99 50 BE 40 04 2......o._~.P.@.
004048A0 00 3B B3 17 56 B7 3D FF 00 00 87 8E 84 5E C9 A6 .;..V.=......^..
004048B0 22 17 10 C9 4A 22 00 99 EF FD FC 2D 0B C3 63 FF "...J".....-..c.
004048C0 04 D1 55 02 29 2A ED ED 01 FF 67 00 A8 63 03 E4 ..U.)*....g..c..
004048D0 D9 C7 AC 61 E7 00 00 98 D1 E0 A5 7A BC 85 40 29 ...a.......z..@)
004048E0 00 7D 0C 00 61 E0 D8 8D DE 00 25 66 00 CF 82 D2 .}..a.....%f....
004048F0 B5 07 42 CC F3 B5 73 4C 8B 91 57 FF 00 5B 36 56 ..B...sL..W..[6V
00404900 00 00 10 63 23 10 D2 FF 00 A3 3C 00 9E 6C 5F 78 ...c#.....<..l_x
00404910 00 D9 6F F2 25 14 26 9F DC 0B FF 83 13 8E 6F 50 ..o.%.&.......oP
00404920 91 E0 06 DA FF C1 C0 94 24 2E A0 34 2F 89 5A FB ........$..4/.Z.
00404930 C3 1C B6 C6 21 79 78 AD 00 D0 D8 00 00 DE 58 B9 ....!yx.......X.
00404940 5B 23 D0 5A 8A 86 78 90 7F 28 C4 09 BF 00 00 73 [#.Z..x..(.....s
00404950 C9 FB 5F FC 93 4B 61 C7 EB 8D 85 57 00 33 00 CC .._..Ka....W.3..
00404960 60 08 A5 E3 1F 00 C1 95 01 00 00 B8 9A DD 61 1C `.............a.
00404970 B9 FF 7A B4 74 D5 BF 20 40 C1 C8 20 B2 5E 00 00 ..z.t.. @.. .^..
00404980 00 2B 68 9D 7D 0B 00 B8 11 96 96 50 43 C1 CC 38 .+h.}......PC..8
00404990 F0 07 05 9D 44 A8 BF B4 26 19 FA D3 FF 7F 33 00 ....D...&.....3.
004049A0 30 BE E7 ED 00 B4 19 2E A4 3C 80 4F 1A 00 74 4A 0........<.O..tJ
004049B0 E4 8F B9 00 5C 8C 20 CA 10 22 E2 03 FF 22 E4 82 ....\. .."..."..
004049C0 2A F9 9B E8 CB 00 FF 26 AF BB B7 62 9C FD 1C 01 *......&...b....
004049D0 1A 8D 34 A0 3E DB 83 E3 00 5C 1C 7D 77 80 8F 74 ..4.>....\.}w..t
004049E0 80 F2 05 01 10 00 14 9A 33 F6 14 95 84 87 68 FF ........3.....h.
004049F0 8B 81 2F ED 5E FF 87 D6 88 13 13 15 00 00 EA 5E ../.^..........^
00404A00 47 79 00 70 0F 6E B6 C6 CC FF 5A 11 C6 DF 80 AE Gy.p.n....Z.....
00404A10 64 07 DC 8D E4 FF 85 D9 3E 59 BC B1 45 AD 7F 00 d.......>Y..E...
00404A20 B9 FC 58 8F C6 C8 10 F8 01 85 9D 00 40 D4 4E 08 ..X.........@.N.
00404A30 F1 CF 2C 58 1C FF 9D 96 2A 4D E3 20 14 6F 00 FF ..,X....*M. .o..
00404A40 D5 60 0F 00 00 60 B6 C0 C4 81 29 00 61 0B DF 4C .`...`....).a..L
00404A50 E4 9C 60 81 8D 00 9C FF 8D 56 FF 0E 72 27 73 9F ..`......V..r's.
00404A60 64 FF A8 12 58 10 00 CE 00 31 CA 0C 1E 7E BE 09 d...X....1...~..
00404A70 64 6C 5A 9D 8A 29 7D 04 34 FF 86 C2 82 8D 26 B1 dlZ..)}.4.....&.
00404A80 10 1C 3D B3 4E 26 E0 39 79 06 88 53 85 2F FF 47 ..=.N&.9y..S./.G
00404A90 61 74 B8 E5 87 B1 85 D1 AD 0D CD FA BC 74 00 A0 at...........t..
00404AA0 57 26 35 46 5C 83 FF F6 DE FF 0F 60 EC 63 00 97 W&5F\......`.c..
00404AB0 00 74 8B 92 7A 4D 6F 20 85 2E F6 1C 37 FF 22 4E .t..zMo ....7."N
00404AC0 41 77 00 7B EC 64 00 F6 A8 5E AB 00 BB 42 20 45 Aw.{.d...^...B E
00404AD0 3D BC 00 3C B9 6C 1E EE F0 8C C3 C7 01 42 00 A1 =..<.l.......B..
00404AE0 00 55 93 9B 33 80 DC 42 84 00 A1 0D 04 00 74 CC .U..3..B......t.
00404AF0 A9 D3 A6 8B B0 FF 45 15 E4 EA 60 0F EF 3B E3 35 ......E...`..;.5
00404B00 00 A6 C9 00 00 FF 62 08 54 8C 11 37 AC A2 D8 45 ......b.T..7...E
00404B10 FE DF 00 DE 7A 93 7C 00 EF 21 7C 1F 10 B2 18 38 ....z.|..!|....8
00404B20 FF 39 00 00 00 52 59 10 4A D3 4B 2E 2D 44 00 04 .9...RY.J.K.-D..
00404B30 00 FF 02 EB 6B 71 64 A1 81 7B A0 F0 B8 98 03 E5 ....kqd..{......
00404B40 67 CD 5A 5E 0A FB C7 FF 08 71 CC 00 76 00 77 3D g.Z^.....q..v.w=
00404B50 92 1E 4E 8E 00 00 3A BF 00 EF 24 3C F6 00 42 4E ..N...:...$<..BN
00404B60 A0 00 A0 60 C6 C1 80 28 25 7F 73 BD 6E 00 BA 00 ...`...(%.s.n...
00404B70 39 12 C0 00 E5 1B A4 00 76 40 4C 0A 00 DC 58 B9 9.......v@L...X.
00404B80 64 F8 60 B9 1C 00 18 40 5C 81 07 81 A1 DE 53 C0 d.`....@\.....S.
00404B90 C2 29 00 38 B0 5C 00 00 84 83 31 FF 39 00 F8 3C .).8.\....1.9..<
00404BA0 E8 31 B7 00 63 50 D2 95 32 F5 50 F9 18 C0 8E 94 .1..cP..2.P.....
00404BB0 11 7C 13 3E 03 98 E0 35 ED 6B E9 C0 EE 3E 00 E7 .|.>...5.k...>..
00404BC0 02 29 CC ED B1 C9 00 10 BC 84 B2 18 A0 C2 50 8C .)............P.
00404BD0 ED 46 CD 41 5F 9F 56 ED 00 22 81 3E A0 14 22 79 .F.A_.V..".>.."y
00404BE0 29 31 00 A7 87 D6 69 00 A8 16 C7 0F 02 DF 00 0E )1....i.........
00404BF0 CB 00 BD 7E 22 2D 08 96 3B 16 82 83 76 0B 4E 00 ...~"-..;...v.N.
00404C00 93 76 7B 63 FF E2 E8 C3 99 39 00 62 33 4C E3 CD .v{c.....9.b3L..
00404C10 62 46 0E CE 36 00 3A FE 43 40 01 BD 07 00 93 32 bF..6.:.C@.....2
00404C20 AE 00 00 00 00 A8 A1 73 17 92 3D 69 2F 2C 00 45 .......s..=i/,.E
00404C30 00 40 6F 9B 9E 9B 6A 28 36 7B 74 00 6D 70 00 53 .@o...j(6{t.mp.S
00404C40 F4 60 C4 CD 7B 00 08 C1 83 9C 63 00 9F 00 02 35 .`..{.....c....5
00404C50 4B 00 25 93 1B 1E CA FF F9 1E 26 E6 4A 3A FF BC K.%.......&.J:..
00404C60 BB 27 1A 6B 67 03 89 32 00 11 FF B5 CD C0 D4 75 .'.kg..2.......u
00404C70 00 DF 0C 14 5F D8 E1 B4 70 94 DF 00 D3 90 70 DE ...._...p.....p.
00404C80 2C 27 BC 00 D9 A9 18 00 00 54 81 89 BA 10 FF 00 ,'.......T......
00404C90 93 99 23 6C 10 25 69 00 00 33 2E 00 0B 7F 2D 2B ..#l.%i..3....-+
00404CA0 40 00 46 08 22 78 C1 C8 15 FF 43 CF F7 DC 20 44 @.F."x....C... D
00404CB0 00 0A 67 00 26 FF 4D AF 15 6F 30 00 E0 05 27 58 ..g.&.M..o0...'X
00404CC0 21 62 8F 79 00 C7 88 FF 95 F5 F5 51 65 00 BF DB !b.y.......Qe...
00404CD0 BF FF 35 73 8A 00 30 1C 19 A0 00 EF 5C B8 07 A1 ..5s..0.....\...
00404CE0 79 00 61 00 A6 EA AB 45 5A 66 4E A5 0C 00 BE 3A y.a....EZfN....:
00404CF0 1B 4C C7 4B 00 60 AB A2 FF 96 0F 21 A3 BA 00 C1 .L.K.`.....!....
00404D00 F6 A3 86 D5 47 40 65 FD E2 95 A2 00 00 1F FF DB ....G@e.........
00404D10 15 DF 7E E4 C6 F5 FF FF D8 84 00 97 9E CE DF 00 ..~.............
00404D20 B3 70 17 EA 58 10 37 F0 60 6C FF 26 0A 22 13 00 .p..X.7.`l.&."..
00404D30 DE 07 00 43 08 F4 FF 00 B6 00 8F 80 23 22 E1 40 ...C........#".@
00404D40 AB F6 00 66 20 94 ED D8 63 0E 00 0D 71 AA 20 57 ...f ...c...q. W
00404D50 3D 00 CC 00 8E FF 03 00 C1 DE 1B 14 05 7B C0 5A =............{.Z
00404D60 55 2E 13 D0 6F C3 12 24 71 00 95 F2 DE BC 6C 00 U...o..$q.....l.
00404D70 37 59 43 FD 78 93 7D 84 51 A0 FF 51 C2 FF FB 26 7YC.x.}.Q..Q...&
00404D80 C1 FF 10 80 6B 82 07 A2 00 8D E2 5E 00 6E A9 28 ....k......^.n.(
00404D90 0F 00 25 1E 4B DA CB 41 FF 66 48 8C 00 A7 26 D1 ..%.K..A.fH...&.
00404DA0 EB D6 28 A7 E2 47 00 BA 3D 2F 5B 62 08 00 C6 5B ..(..G..=/[b...[
00404DB0 60 2C 24 13 B8 00 80 38 FF 45 16 CF BF 00 5D 00 `,$....8.E....].
00404DC0 C0 22 64 30 14 1B 10 D7 00 00 32 FF 13 B1 8F BD ."d0......2.....
00404DD0 71 FE BF 51 E0 8B 00 98 3D E9 CC 77 C6 F7 ED 7F q..Q....=..w....
00404DE0 E8 FE 00 88 AE 29 77 4C FF 43 00 0B 51 19 FF 8E .....)wL.C..Q...
00404DF0 55 4F 85 A5 F3 00 EC C7 AE F3 49 C5 6B 9C 9C 76 UO........I.k..v
00404E00 00 74 97 20 5A 94 00 2A FF FC B8 FC C7 DA BA D8 .t. Z..*........
00404E10 6F 73 00 3F 00 4A 3E 9A E5 8C AE 82 00 B2 74 E2 os.?.J>.......t.
00404E20 0B D5 FF 18 1A B0 BF C8 6A 21 00 8C FF 00 F1 04 ........j!......
00404E30 74 60 37 EB 60 A3 47 09 05 3C 41 41 54 00 13 FF t`7.`.G..<AAT...
00404E40 80 00 00 A4 D0 DB B9 B6 B3 03 BB AE 95 C2 29 EA ..............).
00404E50 C4 66 2A 00 00 44 00 A5 00 FF 05 FE 3C DE 10 F7 .f*..D......<...
00404E60 E2 7C 85 EF D6 E8 3B 22 FA 81 0C D6 5A D8 00 A0 .|....;"....Z...
00404E70 30 0C FF 00 33 FF FC D0 47 DD 00 83 8B 71 24 72 0...3...G....q$r
00404E80 4C 22 54 0F 84 45 86 F3 DB B8 42 E1 19 24 08 71 L"T..E....B..$.q
00404E90 05 FF 7B E5 82 00 00 8D 5A 2D 37 E5 FC C8 7C A2 ..{.....Z-7...|.
00404EA0 00 CD EF 73 77 FF 6A D4 82 FF C4 D9 37 60 2E CD ...sw.j.....7`..
00404EB0 83 F9 4B 5F 81 1B 74 C1 ED 80 C7 D7 BD 3C 0A 56 ..K_..t......<.V
00404EC0 7A 18 00 00 00 65 D1 52 5A 90 9A 4F FD 64 E4 00 z....e.RZ..O.d..
00404ED0 00 4F 45 2E B5 2D B0 F9 4C A5 91 7A FA 66 00 A8 .OE..-..L..z.f..
00404EE0 00 32 9E D6 B4 F1 02 00 45 00 DD 47 CD 6F FF FE .2......E..G.o..
00404EF0 FF F5 5F 36 54 00 BF 7D 4B E6 FF BA EF A0 00 49 .._6T..}K......I
00404F00 8D 60 00 77 76 8D FF EC 7C 00 56 E6 CF B0 76 00 .`.wv...|.V...v.
00404F10 FC D9 9A FF FF 04 44 46 36 DF 29 DE 88 ED 8D AE ......DF6.).....
00404F20 EF C2 18 28 98 D3 3A 78 BF D4 AE FF 30 70 B1 91 ...(..:x....0p..
00404F30 08 A8 1F 64 50 95 8A 8F 62 14 2C 86 FF 65 1D 1C ...dP...b.,..e..
00404F40 B9 5D 89 08 14 1E 98 55 00 B7 00 A5 00 89 17 A0 .].....U........
00404F50 F6 F2 AC 21 75 00 43 CF 20 60 3A 10 89 02 C6 7A ...!u.C. `:....z
00404F60 9A 93 34 5C 60 07 65 00 82 00 22 00 00 FB 7C A1 ..4\`.e..."...|.
00404F70 F5 0F 99 C2 76 19 00 03 2D 02 B8 4E 30 6B 10 30 ....v...-..N0k.0
00404F80 02 00 B9 C4 FE E8 2E 0B CE 26 71 C0 04 D1 39 BE .........&q...9.
00404F90 1B 51 FF BD 05 89 11 BD B1 99 4B E7 BA CE E5 34 .Q........K....4
00404FA0 57 00 41 00 1E C7 7B 67 ED 07 C4 63 98 99 DB 42 W.A...{g...c...B
00404FB0 07 AF 99 4A F2 FF 8E D4 6F FF E8 00 EF E2 1E 8B ...J....o.......
00404FC0 00 00 0A 00 74 63 1E 46 2A 51 00 AE C8 51 C9 00 ....tc.F*Q...Q..
00404FD0 AF 63 7E 4D 11 C9 01 83 2C D2 B0 13 00 87 46 C7 .c~M....,.....F.
00404FE0 61 D5 00 00 6F 00 39 2A AD 00 C3 3B 08 47 C0 00 a...o.9*...;.G..
00404FF0 9C D1 EF 34 50 BB 03 20 99 FE 00 77 00 C2 00 FD ...4P.. ...w....
00405000 7A 23 D5 AE 63 83 00 70 C2 00 00 00 79 71 16 FF z#..c..p....yq..
00405010 B0 70 00 73 2A 0E 38 04 13 58 B5 B8 C6 D0 7A B4 .p.s*.8..X....z.
00405020 0B A2 98 AD 76 06 F0 2A 07 3A 82 66 0E 00 8C B6 ....v..*.:.f....
00405030 00 E3 BF 07 2C 3B DF CB 20 C4 61 57 C6 68 53 FF ....,;.. .aW.hS.
00405040 60 D6 FF 05 EE 8A 00 2B 11 00 FC A0 9B FD 7C 2A `......+......|*
00405050 EB 35 00 80 7C 00 48 D9 3F 3D A2 74 A6 00 40 FA .5..|.H.?=.t..@.
00405060 00 66 C2 3D 61 8B 01 5A 00 3F BD D0 FF 56 2C 00 .f.=a..Z.?...V,.
00405070 0D 00 3D 9F 00 2D 0C 7B 85 B3 C8 BE BE 00 7F 1B ..=..-.{........
00405080 00 E4 8E 0D 5C 30 FF 24 8F 07 0A FF 00 F1 E5 72 ....\0.$.......r
00405090 E4 91 82 F8 00 33 D3 52 8F 10 27 A4 53 00 ED 97 .....3.R..'.S...
004050A0 98 FF A7 CF FF 9C 1E 63 08 11 2D 0C 00 BF 0C 66 .......c..-....f
004050B0 00 8F F1 64 94 E1 0A 00 F6 9A 34 85 FD 52 A0 29 ...d......4..R.)
004050C0 1B 00 62 F3 00 00 4F 0C 70 00 D3 08 07 74 1C E9 ..b...O.p....t..
004050D0 00 B7 96 F3 DA 8C 95 99 00 9C 06 FF 02 07 52 82 ..............R.
004050E0 FE 40 6D 04 B3 00 FF B2 05 27 1F 00 37 9A 68 17 .@m......'..7.h.
004050F0 FF 02 C3 06 00 C5 0C EC 63 21 C1 EC ED 7E 44 59 ........c!...~DY
00405100 81 FF B2 A9 21 64 FF 0D 15 FF 33 27 E9 5B B5 2C ....!d....3'.[.,
00405110 EA 81 F8 A9 5C F4 4C 97 8D 00 88 F6 1A 00 00 25 ....\.L........%
00405120 53 1E 1E 49 F0 C4 E1 99 FF AC 00 00 4E EC C2 27 S..I........N..'
00405130 63 D9 FB 00 A6 89 4E 21 2D 9A 84 00 F9 DE B4 13 c.....N!-.......
00405140 56 00 3C CE 12 51 E9 BD 37 3E 88 FD E8 DF 08 85 V.<..Q..7>......
00405150 09 8D 00 5C 00 30 00 7E CF B0 00 0E 00 E1 16 55 ...\.0.~.......U
00405160 A8 CE CF BA 00 00 3B 00 DB 00 29 7F FE C0 61 54 ......;...)...aT
00405170 D4 7E FF E2 00 76 A2 2C 16 50 2B 84 7D 82 EB 01 .~...v.,.P+.}...
00405180 2A BC 90 00 E9 59 BD B5 00 A0 01 FF C5 4A E3 FF *....Y.......J..
00405190 42 06 D5 61 FF 76 5F 20 81 00 40 00 49 48 A4 FE B..a.v_ ..@.IH..
004051A0 2B 22 2F FC 9F 6F FF F9 00 2C 91 00 08 61 00 00 +"/..o...,...a..
004051B0 00 48 40 F5 00 FF A7 A8 00 50 05 9D 7C 82 00 19 .H@......P..|...
004051C0 4C F3 00 8C 31 A2 00 B3 FF 92 2E 56 CC 31 FF FC L...1......V.1..
004051D0 FD A2 B9 B0 1B CD E0 00 00 00 0C 02 37 77 00 44 ............7w.D
004051E0 E1 00 0F D6 4F 09 69 C1 28 6F 08 E0 80 FF 00 8C ....O.i.(o......
004051F0 00 00 28 C9 00 71 D6 2B AE F3 FB 2B E1 E5 6A 4A ..(..q.+...+..jJ
00405200 4E FE DC 87 22 28 26 E1 00 B9 00 1F 8F 47 78 80 N..."(&......Gx.
00405210 CA E0 FB E4 FF 0C 00 81 F5 72 C1 F8 0E 7C 57 FF .........r...|W.
00405220 8B FF 00 05 D3 8D E1 00 F8 FF F1 4E 51 9F 30 C3 ...........NQ.0.
00405230 35 1A 3A 63 71 10 0E CE 10 22 0A C5 00 6B 21 8A 5.:cq...."...k!.
00405240 53 B3 7C E2 C9 8C 58 73 E6 28 00 12 27 27 00 57 S.|...Xs.(..''.W
00405250 1F 00 78 FA AB 51 6B D8 20 F3 55 A7 3E 5B 30 BD ..x..Qk. .U.>[0.
00405260 8E 32 98 00 84 00 E7 3E B2 1C 9A 96 90 CD FD 94 .2.....>........
00405270 00 23 B4 DF 4C 24 27 00 D2 92 84 F0 B6 D7 8F A9 .#..L$'.........
00405280 36 00 F2 B1 7E 3D C1 CE FF FF 04 13 F7 96 02 1F 6...~=..........
00405290 B6 2D 00 FF B3 3D D5 07 C9 F8 01 AC 00 99 00 11 .-...=..........
004052A0 00 19 91 9E C4 04 3F 95 D4 B5 DD 67 F5 FF 9A CD ......?....g....
004052B0 8D EC 93 B6 D7 FD 7A A8 00 41 05 D2 33 36 00 A2 ......z..A..36..
004052C0 40 B4 00 BC 18 3D 7C AE CC 8A C1 03 00 60 6F E6 @....=|......`o.
004052D0 86 00 3E 6B 00 C3 8F 00 F9 41 67 4F C5 6F 8D C3 ..>k.....AgO.o..
004052E0 04 DD FF DE FB 02 4F 74 FF 0B CE FB 05 62 D2 73 ......Ot.....b.s
004052F0 56 42 00 AD 00 3B AB A0 B5 D8 27 4B 3C D1 EB 00 VB...;....'K<...
00405300 FF 00 2E 96 32 11 8C 1B 8F 9A BE F9 D3 68 C1 F9 ....2........h..
00405310 40 BA 00 B9 A8 82 4D B1 10 FF FB 00 90 99 B6 C6 @.....M.........
00405320 49 00 E8 37 1A 02 00 81 1C B6 00 79 CD 78 AD D7 I..7.......y.x..
00405330 14 D8 4F A3 00 3C 0B 82 08 4F 8B 44 E4 00 0D 90 ..O..<...O.D....
00405340 68 1F BA FF 3E 61 8B F2 E4 9F 7E E9 90 B7 20 FD h...>a....~... .
00405350 A4 00 85 0E BE 00 68 00 8A 49 C3 8A 00 94 2E B2 ......h..I......
00405360 DF B3 76 36 FF 14 9F EF 74 A2 0C FF E4 B2 9B 42 ..v6....t......B
00405370 20 FF 8F 00 F9 39 42 C1 9F B9 E8 03 00 FF C7 85  ....9B.........
00405380 BE 3D 08 10 6A 03 19 00 00 51 8B 94 C6 CF 37 D3 .=..j....Q....7.
00405390 FF B4 00 9C 0C 1C 03 30 E2 FF B2 28 6A 7F 75 C7 .......0...(j.u.
004053A0 8F B4 B3 26 D3 ED 3B 9A 86 A3 AF 00 5A 7B F7 20 ...&..;.....Z{. 
004053B0 4C 7F 00 8F 47 D6 DE 3A F4 25 88 7D 98 69 DD 00 L...G..:.%.}.i..
004053C0 00 ED 9B C7 0C 15 05 00 00 00 4D 00 FF 86 42 A5 ..........M...B.
004053D0 4B 60 00 FD C1 7C 1B 46 17 0A 00 93 00 01 CA FF K`...|.F........
004053E0 FB 6D 12 A7 00 52 00 FC 05 D9 E2 3A 1E 8F 00 5D .m...R.....:...]
004053F0 CF 82 00 87 0B CC 26 00 00 2B 62 03 61 53 38 28 ......&..+b.aS8(
00405400 A1 A0 67 10 00 CC BB 2E 54 D3 03 EB EE 00 26 A2 ..g.....T.....&.
00405410 09 A0 8F 0A F8 00 61 05 9A F0 BD 1E 00 82 3D FD ......a.......=.
00405420 1E 39 CC 7B 35 C8 A1 00 6C 2F B5 48 66 B1 5F F2 .9.{5...l/.Hf._.
00405430 48 03 46 00 73 BF CC 00 6C B1 4E 66 09 E5 C6 58 H.F.s...l.Nf...X
00405440 00 8E 99 00 3D C5 00 36 D4 50 6F 26 C0 F7 FB 2A ....=..6.Po&...*
00405450 20 DB FF CE 13 9B E3 EC 44 00 6A F0 80 00 C5 7E  .......D.j....~
00405460 B7 02 D9 00 05 A6 B8 1A F8 54 00 00 C1 19 20 5F .........T.... _
00405470 06 FF B8 06 D1 0B 51 CF 00 60 82 91 EB D9 18 48 ......Q..`.....H
00405480 6D 2C 00 73 00 00 1F CF 48 E4 C1 5E 8B FF 4A 80 m,.s....H..^..J.
00405490 4C 81 00 7F 0D 26 2D 15 5E 3C AC 8C D7 58 A4 B0 L....&-.^<...X..
004054A0 A4 0E C9 00 93 21 69 79 8C A4 00 70 5D DA 6F FF .....!iy...p].o.
004054B0 00 10 03 9B B8 F2 00 8A 00 92 00 10 FC 16 23 C9 ..............#.
004054C0 20 2A FF 58 C3 07 1D 03 EF 9A A6 E7 39 7F 40 88  *.X........9.@.
004054D0 B2 80 9E 00 50 A7 38 00 FF 19 EB 00 0F 7D FF 00 ....P.8......}..
004054E0 2D 68 8E 74 ED 00 D3 38 06 20 77 FF D2 FF 87 B7 -h.t...8. w.....
004054F0 50 FF 59 94 00 14 98 00 98 17 12 50 6D 9B 00 71 P.Y........Pm..q
00405500 00 97 FF 08 E5 AB A0 94 7A ED A8 FD F7 B5 0E 32 ........z......2
00405510 00 97 FF B1 3C 00 00 54 00 E8 DE 6F 34 02 BB 79 ....<..T...o4..y
00405520 7F 5E A2 AE F9 00 00 68 72 47 07 00 00 86 7C F9 .^.....hrG....|.
00405530 14 0C FF 03 7F E2 F2 5B 90 BC 40 00 00 27 AE 5F .......[..@..'._
00405540 82 00 9C EA 66 84 60 00 97 70 7F 00 09 8E 01 EB ....f.`..p......
00405550 E2 0D 00 92 5E 00 C5 8E A7 03 74 F3 DC 67 7F 01 ....^.....t..g..
00405560 19 1B C9 8E 8F C5 A2 B4 1B 5F 30 76 84 83 2C D7 ........._0v..,.
00405570 E9 5B 79 84 28 F0 B0 96 D1 6F B0 71 89 1A E1 CE .[y.(....o.q....
00405580 F6 1D EC 00 39 1C 96 3B 7C EE 97 38 AC 00 2A 22 ....9..;|..8..*"
00405590 FE 91 DF FF 0A DE FD 42 9A 81 86 E1 29 D0 FE 19 .......B....)...
004055A0 7F 13 03 00 20 D3 13 10 40 E3 AF 04 DB AB E1 7B .... ...@......{
004055B0 00 EB FF E0 22 00 C8 3A 99 E5 CA 9E D9 36 F0 8E ...."..:.....6..
004055C0 00 00 FF 1C 75 1D E4 61 D1 4C BA FE 00 05 02 FF ....u..a.L......
004055D0 2F 00 03 4B 5A B0 32 1F 00 E0 18 61 D3 00 13 6B /..KZ.2....a...k
004055E0 00 30 00 DF 0F C7 E7 97 10 E3 B1 FF 7C 83 BB 0A .0..........|...
004055F0 31 58 C4 30 00 B1 FE 4D 3D BF 89 3B 27 43 1F DC 1X.0...M=..;'C..
00405600 AB C1 00 5B 38 44 4B D3 E2 73 E8 0E A3 E7 FF FF ...[8DK..s......
00405610 EF F0 13 35 01 90 B6 C1 00 FF 19 CF 9B 00 A1 DB ...5............
00405620 15 28 FF 67 48 B5 46 04 08 1D 2E 00 2B 98 00 90 .(.gH.F.....+...
00405630 FB 00 70 09 F3 70 00 E8 04 9A 8E 12 72 C1 FF FB ..p..p......r...
00405640 96 70 9D 1A B9 06 9F BE 42 1C 2B 9F 0A 00 71 99 .p......B.+...q.
00405650 5D A8 CD 9B 00 21 67 B7 B8 1A 3F 61 77 4A 00 7F ]....!g...?awJ..
00405660 4C B3 D6 D9 D2 06 5C 15 83 13 36 2C 40 DC 00 50 L.....\...6,@..P
00405670 8E 2C 48 74 00 E2 51 18 89 85 69 BF 84 70 CF 59 .,Ht..Q...i..p.Y
00405680 00 FF B5 24 0E D4 10 32 00 32 FF 05 C6 D6 00 CC ...$...2.2......
00405690 DD 59 79 EC 4E 9E 06 00 00 32 4B 00 A6 E7 00 40 .Yy.N....2K....@
004056A0 7F 42 60 E0 00 BF 5A C9 7E 00 8B 55 0F 4B 00 C4 .B`...Z.~..U.K..
004056B0 59 6F 06 17 3C 0C C3 F8 40 95 5F B7 A4 00 31 40 Yo..<...@._...1@
004056C0 00 97 C7 18 27 F4 00 DA 00 2C 30 FF DB 99 33 00 ....'....,0...3.
004056D0 59 E1 00 EF 83 69 C9 00 79 C2 56 7C D3 D0 06 0F Y....i..y.V|....
004056E0 D8 1F 00 20 B3 78 C3 54 00 00 33 00 B9 00 FF 00 ... .x.T..3.....
004056F0 9D 19 A2 0C F8 D3 08 0C DF 01 D1 ED 0B 58 38 00 .............X8.
00405700 14 00 D6 61 E3 01 00 00 0E E0 00 80 33 D7 00 D0 ...a........3...
00405710 AE 52 05 00 EE 52 00 BC 24 30 2B D9 DB D3 A0 3A .R...R..$0+....:
00405720 E0 48 E9 9F 39 33 CF 6A FF 3B AB E0 00 62 C1 C6 .H..93.j.;...b..
00405730 8F F7 FF 99 0C 90 E9 6A BF A1 00 20 3C 1A 00 ED .......j... <...
00405740 46 BF F0 60 00 E8 A6 28 D3 CE 38 4B 3F 48 05 12 F..`...(..8K?H..
00405750 1D F0 12 24 AF DF 2D E6 EF A8 33 41 00 EA 20 54 ...$..-...3A.. T
00405760 0D DF BD 85 0A AD 87 8E 27 6D A6 F4 FF 67 04 20 ........'m...g. 
00405770 4E F2 52 00 41 61 7F 34 C9 FC 8C 89 FB D8 09 80 N.R.Aa.4........
00405780 7D 00 29 43 22 A9 24 FF 00 F8 FF BF 17 19 4A F1 }.)C".$.......J.
00405790 6C 1B 68 07 4F 9D 5D C8 FF 27 A5 05 07 82 4B FF l.h.O.]..'....K.
004057A0 0F CB 91 5D 40 FC 57 63 43 81 38 00 E3 9B CD 00 ...]@.WcC.8.....
004057B0 3F 1D 26 F2 00 C3 00 A7 C0 48 81 8E 44 0C A1 D6 ?.&......H..D...
004057C0 10 00 30 8D E0 32 EB 77 00 37 B7 CE 23 00 F8 7C ..0..2.w.7..#..|
004057D0 74 DF AA D5 D8 CF 7B 41 00 A5 63 30 00 D0 CE 99 t.....{A..c0....
004057E0 6E 77 00 FF 76 85 16 00 00 00 FF D7 10 00 91 73 nw..v..........s
004057F0 0A 1C 17 48 00 41 01 FC 60 03 73 54 FF AD 11 41 ...H.A..`.sT...A
00405800 56 A0 01 D1 00 E6 94 7F 56 2C AB AA E4 75 E3 00 V.......V,...u..
00405810 42 AF 89 5B 00 96 27 22 EB 6C 00 96 70 E3 27 D1 B..[..'".l..p.'.
00405820 A1 2C A5 02 0B 87 00 80 71 E0 38 6B 00 E6 08 AA .,......q.8k....
00405830 FF 36 81 11 92 1C F4 E8 5A 33 B7 10 E2 CD CC 5F .6......Z3....._
00405840 69 2B 2E 00 48 00 BD 76 79 F1 00 85 00 5A FF 2C i+..H..vy....Z.,
00405850 77 20 20 10 68 B2 BA C1 00 F8 0C 00 79 63 F9 00 w  .h.......yc..
00405860 88 18 70 AF FF C7 40 73 00 64 00 AC C3 50 1E 00 ..p...@s.d...P..
00405870 06 00 00 00 AF B6 00 16 C1 DB BE 00 9F A7 2A 48 ..............*H
00405880 EB 26 8F 00 2E 0B D0 3D 15 00 5D E5 46 C9 43 11 .&.....=..].F.C.
00405890 FF C3 2B 3A C1 8C 00 43 BA 83 02 52 71 24 A9 8C ..+:...C...Rq$..
004058A0 44 30 53 F3 A1 F1 00 AD 09 BB 0B 00 4C 21 C7 71 D0S.........L!.q
004058B0 FF FC 97 B9 CB BC 83 C0 AE 0E 70 21 37 17 07 66 ..........p!7..f
004058C0 00 6D 39 F6 4F 26 FC 29 00 CB DB DB 00 FD 00 9F .m9.O&.)........
004058D0 48 D0 32 B8 E1 34 00 A6 00 3C DC CD 35 D2 C9 7A H.2..4...<..5..z
004058E0 43 90 F1 35 B7 39 00 F0 2B DF 00 E4 81 B8 6C 12 C..5.9..+.....l.
004058F0 63 5E 51 D9 69 F2 10 88 18 07 42 00 E0 B4 CB 57 c^Q.i.....B....W
00405900 FF 66 39 D3 6C 00 BC 86 7D FF 00 00 00 3E A0 00 .f9.l...}....>..
00405910 D2 1A 8E 5B 50 0D A7 3E 44 91 FF 6B 8C 83 46 A4 ...[P..>D..k..F.
00405920 FF BA 02 90 44 E7 5A 7E 5A A7 F9 A8 3F 1D AF 20 ....D.Z~Z...?.. 
00405930 08 78 D1 77 3B 00 FD 91 E8 4B C5 C4 00 91 78 FF .x.w;....K....x.
00405940 00 F8 06 73 C1 89 08 39 FF C4 A4 95 00 1F 11 B2 ...s...9........
00405950 10 44 C2 6D 62 0E 13 FF 18 02 00 FF E1 6F CE 24 .D.mb........o.$
00405960 00 B3 7B 83 93 63 58 11 72 00 68 00 3C 6A F9 0F ..{..cX.r.h.<j..
00405970 71 8F 06 5C B8 04 BC 00 79 8C 70 00 29 B4 DB 82 q..\....y.p.)...
00405980 30 AE 71 C0 4D C3 83 8D 4D 45 8A 87 00 6B BF 49 0.q.M...ME...k.I
00405990 F4 5A 21 D7 F9 5C C2 3B 73 C7 4F 00 00 E5 00 21 .Z!..\.;s.O....!
004059A0 2C 81 71 43 6A F8 27 47 22 25 00 34 D8 FF B8 8E ,.qCj.'G"%.4....
004059B0 47 0D 00 46 70 53 FF C0 9E 23 00 06 E8 79 60 23 G..FpS...#...y`#
004059C0 00 24 81 2E E2 70 8E A7 92 7C FB FF A5 6F 64 89 .$...p...|...od.
004059D0 DE 2F 00 A6 36 3F 71 FA 20 43 FF 0A E3 84 DB 00 ./..6?q. C......
004059E0 BC 6A 5A D2 00 8C C0 40 F6 D5 9E E8 82 32 F1 E1 .jZ....@.....2..
004059F0 AE B7 00 62 1F CB F8 76 F8 73 4E 69 B8 2D 7F 9D ...b...v.sNi.-..
00405A00 04 A8 25 B7 88 AB 31 32 2C E2 CD 88 1C 2E 00 75 ..%...12,......u
00405A10 08 00 FF 48 B8 54 FF 15 00 EC FF C3 40 13 60 DC ...H.T......@.`.
00405A20 A3 70 00 00 FC 4B 32 FF FC DF 00 D9 02 4A 43 1D .p...K2......JC.
00405A30 22 65 69 76 AD 10 BD 6C A7 B9 31 00 11 EF 85 DC "eiv...l..1.....
00405A40 00 A3 EB D8 22 0C 06 FB 64 06 CD B9 A6 87 F3 9B ...."...d.......
00405A50 3C 8F 81 17 15 75 00 00 65 39 43 F9 00 3D 78 05 <....u..e9C..=x.
00405A60 8C 80 93 00 E8 F0 08 00 D8 27 00 13 DA F4 97 72 .........'.....r
00405A70 D3 00 BF 4E D4 40 62 8C FF 6B 82 FE A6 6D 10 00 ...N.@b..k...m..
00405A80 B9 66 20 04 53 27 03 F7 00 07 F6 55 00 0C C8 0F .f .S'.....U....
00405A90 FF 41 1E 7D 22 58 00 F3 00 CB 61 00 65 A0 00 88 .A.}"X....a.e...
00405AA0 00 FD 02 9D FF 80 01 17 9B 3C 52 32 F8 A7 C3 D1 .........<R2....
00405AB0 D4 F8 96 5E 00 90 76 5D 3F AF F7 70 2A 83 27 55 ...^..v]?..p*.'U
00405AC0 53 C3 F7 C5 D8 9E FC 86 0C A3 52 59 F2 44 27 FF S.........RY.D'.
00405AD0 64 1A 46 E7 00 7F C3 25 FD C3 75 8E F8 C0 00 73 d.F....%..u....s
00405AE0 42 9B E9 9C FF 28 CB 06 EF 0E D9 75 0D 67 00 09 B....(.....u.g..
00405AF0 35 6C 3F BC 88 60 FF 8F 15 CF 79 00 D2 00 CD C2 5l?..`....y.....
00405B00 B3 84 6D 4C 83 3C C1 89 C0 11 59 F3 83 00 93 6E ..mL.<....Y....n
00405B10 0B A6 6B 20 18 02 DD BF E3 C9 07 68 3A 2A 85 E8 ..k .......h:*..
00405B20 43 00 00 00 10 E5 34 00 00 0C 25 DF 99 39 CA 10 C.....4...%..9..
00405B30 00 00 34 F3 70 CD 03 4F 09 C5 5A F7 27 16 9D F1 ..4.p..O..Z.'...
00405B40 9D FF 57 FF 1E 0B 1A 58 D2 57 D5 66 3B F0 4C FF ..W....X.W.f;.L.
00405B50 09 00 1E 78 FF 00 D9 FA 6B D9 17 49 07 FC 25 51 ...x....k..I..%Q
00405B60 56 17 5B BF 18 DC 30 00 00 00 74 10 E0 00 00 58 V.[...0...t....X
00405B70 EF 3F 82 BF 8E 87 96 D3 E0 8D 84 30 0E 90 18 88 .?.........0....
00405B80 0D 21 87 20 F4 A5 BF 7F 1F 00 D8 0B FB 74 B4 B5 .!. .........t..
00405B90 63 00 48 13 FF 29 BE 52 00 0E 81 39 A0 D9 1E 00 c.H..).R...9....
00405BA0 FB FF B7 BB 44 FF EC 07 C4 FF 26 B0 D4 FB 61 42 ....D.....&...aB
00405BB0 AD 00 E0 20 59 01 A6 EC 00 FF 33 7B 36 25 CD 69 ... Y.....3{6%.i
00405BC0 EA 10 1F 00 00 00 60 1C 3C FF 0A 0D 64 6E FF CD ......`.<...dn..
00405BD0 C9 77 25 5E 68 F5 C3 FB BB 36 24 35 FF 7C BF F6 .w%^h....6$5.|..
00405BE0 57 3D C5 80 20 00 44 B6 C2 D1 B6 CC 88 62 00 A4 W=.. .D......b..
00405BF0 00 57 0E E7 ED FF 01 63 81 00 84 38 37 8D F0 00 .W.....c...87...
00405C00 08 A6 19 C0 BF D0 C7 4F C6 F6 89 C5 46 A9 BA 00 .......O....F...
00405C10 2A 12 6F 12 B9 79 61 AF 15 00 00 CE 2A 86 02 84 *.o..ya.....*...
00405C20 72 D0 CA D5 D5 73 88 61 41 FF 90 0A 0D 00 81 7F r....s.aA.......
00405C30 6F 51 00 7E 18 A0 B2 73 15 76 1F C3 A1 00 84 7C oQ.~...s.v.....|
00405C40 64 7F 76 F1 AB 0D 00 09 9F 62 42 29 2F 00 5E 2E d.v......bB)/.^.
00405C50 00 0A 00 F7 AF 45 03 01 DE 09 15 8F 0B A0 72 C1 .....E........r.
00405C60 00 00 1F D9 06 FF 00 00 00 00 00 4C 9C 77 8A 32 ...........L.w.2
00405C70 A1 D3 88 17 09 5C 92 5B 56 C1 99 0D 7D ED EE 00 .....\.[V...}...
00405C80 18 09 DB 5A 00 CE FF 0C 39 83 FD 89 25 4F C8 00 ...Z....9...%O..
00405C90 23 6E 64 73 04 E9 A0 F5 81 B9 22 1C FE F0 00 FF #nds......".....
00405CA0 DD 5F 82 FF 00 FB 9E 00 8F 01 F6 F3 4F 32 CB FF ._..........O2..
00405CB0 F2 D5 84 4C 00 00 29 00 E9 FF F8 1D 62 56 00 92 ...L..).....bV..
00405CC0 43 A8 99 80 98 04 1B 00 00 78 8F A5 00 B4 84 78 C........x.....x
00405CD0 97 89 04 51 E0 42 A7 5A 5A C5 4B 27 00 00 D1 EE ...Q.B.ZZ.K'....
00405CE0 86 32 14 B3 EC 7B 11 BD F9 9C 41 3B CF C9 0A 3F .2...{....A;...?
00405CF0 00 CC 84 2B 0F D7 8A F5 C8 00 FF 7C 4F F7 5A 9B ...+.......|O.Z.
00405D00 FF C6 4C 2F FF 95 C7 14 00 80 40 54 B0 07 26 2A ..L/......@T..&*
00405D10 E0 B8 FC 00 D8 49 CF CD C0 3B 0E A3 DE AB FA 51 .....I...;.....Q
00405D20 8A CA 9D 2B FD 4F 00 D1 71 51 64 02 C8 0A 14 A8 ...+.O..qQd.....
00405D30 00 00 00 92 1F 82 3B 00 FF 90 5E 0C 45 A2 0B 53 ......;...^.E..S
00405D40 46 3B 4C FB 20 81 A4 92 58 6F C5 B6 13 00 C1 87 F;L. ...Xo......
00405D50 00 E8 AD AC 36 14 75 B8 5E BC 29 50 88 5D D5 51 ....6.u.^.)P.].Q
00405D60 53 8F 86 34 7D FF 6D A9 F3 E2 41 16 1D FF C1 66 S..4}.m...A....f
00405D70 52 70 87 FF 32 53 8E B8 F7 DD 52 27 E8 FF FF 3D Rp..2S....R'...=
00405D80 5A B1 E1 D1 00 D0 E1 FA 00 58 73 FF 33 94 14 00 Z........Xs.3...
00405D90 F2 F6 17 55 62 42 C5 42 78 00 8C 89 03 12 0B DC ...UbB.Bx.......
00405DA0 8D 00 1F D2 83 60 00 AA 62 F4 C0 1A BE 6C FF E9 .....`..b....l..
00405DB0 68 83 76 D0 92 1E 41 9D 16 E7 77 00 00 4A F5 4D h.v...A...w..J.M
00405DC0 09 00 FF B2 0A A8 E0 9C 13 10 23 00 F3 6D 91 FF ..........#..m..
00405DD0 57 8F FE C1 9E 61 FF 00 77 E2 7C F0 00 F7 00 EE W....a..w.|.....
00405DE0 15 48 C0 AF D8 00 88 D1 77 18 00 3E 03 B8 00 67 .H......w..>...g
00405DF0 AE 37 26 00 07 2C E5 00 DE 2E 00 AA 00 87 D8 AC .7&..,..........
00405E00 C4 6E C0 1D B7 92 34 28 3C 82 85 B1 22 1C 9E 10 .n....4(<..."...
00405E10 E8 26 8F FC B2 00 D1 37 38 00 B8 00 54 74 A0 B6 .&.....78...Tt..
00405E20 00 FC FF B0 B3 5D FC CB DF 3D FE FD 71 87 20 92 .....]...=..q. .
00405E30 10 7E 63 FF CF E3 C8 00 C1 FC A0 8C 06 5B 00 DC .~c..........[..
00405E40 63 00 00 A0 04 4F 66 21 06 8C 17 D0 32 D0 A4 00 c....Of!....2...
00405E50 1A 1C 00 39 00 94 4B 18 3D 47 00 C9 F4 F8 00 5B ...9..K.=G.....[
00405E60 4E BF C2 E1 68 FF 3B 3C 12 40 08 05 31 7C 99 00 N...h.;<.@..1|..
00405E70 C3 1D B9 00 F5 6C DC 00 9E 37 E0 1A 04 BB 1E 00 .....l...7......
00405E80 8D 10 B2 BE 2F 1E 00 77 F0 19 85 0B 28 00 00 54 ..../..w....(..T
00405E90 7F 0F 4E 36 EC D8 5F 2C 76 D0 7D C4 CD 1A AB 89 ..N6.._,v.}.....
00405EA0 58 09 00 2C F1 0E 99 1B 80 3F 00 0B 1C BD 18 6F X..,.....?.....o
00405EB0 90 62 6C A4 F2 92 9C 4C F6 56 0A 09 69 F2 00 D4 .bl....L.V..i...
00405EC0 FF F9 00 AB 34 70 BB DF 13 36 0C 00 EE D7 02 18 ....4p...6......
00405ED0 99 50 19 26 00 6C 00 FF FC 99 1B 0F 00 A5 F8 C9 .P.&.l..........
00405EE0 1A 69 3B 0A 00 A7 B4 16 02 BD E4 4E 88 00 D4 BA .i;........N....
00405EF0 B9 13 6C AD E8 17 91 07 04 00 FF 0B 4C 29 0D FF ..l.........L)..
00405F00 A2 B2 FF EF C8 23 3A FF FF 88 42 EB 1A 80 96 C1 .....#:...B.....
00405F10 00 98 B9 87 93 7B 93 C0 47 FE 1F 7C 2E F4 6C B0 .....{..G..|..l.
00405F20 B4 99 97 B8 0D 00 1C 1E D8 00 7D 37 FA 6A 1A E6 ..........}7.j..
00405F30 69 3C 67 FF A6 76 E8 00 15 3C 0E D7 D7 5E 55 D0 i<g..v...<...^U.
00405F40 78 B7 DF 1A 13 88 0C B1 70 50 44 FF DD A3 CD 1A x.......pPD.....
00405F50 60 3E 00 2F F7 00 64 00 00 20 BC 98 8F 87 6F EB `>./..d.. ....o.
00405F60 9E 29 E8 38 35 98 20 2F 2B 00 54 9F AA A9 49 F7 .).85. /+.T...I.
00405F70 40 31 3C 00 71 C8 00 2C FF 4C E0 F7 35 FF 0E 63 @1<.q..,.L..5..c
00405F80 00 F9 1D BF C6 19 42 00 80 92 E7 DC 4F 82 D6 6F ......B.....O..o
00405F90 B8 03 08 06 40 CE 4F 12 FF 00 00 5B 2E D8 14 53 ....@.O....[...S
00405FA0 00 91 7B 00 E1 D2 60 82 F8 41 27 42 31 07 00 63 ..{...`..A'B1..c
00405FB0 FF 81 14 D3 08 D9 18 31 A7 3E 46 B7 91 53 00 9A .......1.>F..S..
00405FC0 CB 62 F6 FF 4B B3 62 30 99 C7 07 3E 00 00 7D 81 .b..K.b0...>..}.
00405FD0 18 FF 20 90 74 B1 C7 35 00 E7 D4 C9 4C 49 13 00 .. .t..5....LI..
00405FE0 0C 6F 00 ED B6 16 FF F3 E0 CF F7 C7 60 59 07 36 .o..........`Y.6
00405FF0 95 9D 77 E8 6B 39 40 47 00 0A 78 04 00 F7 DA D9 ..w.k9@G..x.....
00406000 2B 58 71 0F 05 FF C1 F5 E8 04 FF F6 00 C7 00 18 +Xq.............
00406010 00 4D 0C E6 72 F0 12 74 65 AD B9 E1 CF 97 86 77 .M..r..te......w
00406020 2B 59 00 62 68 59 B8 2E 00 4B 89 00 8A FC 10 EB +Y.bhY...K......
00406030 00 B6 00 75 E7 84 41 EF C6 DF 39 18 00 0E 00 BA ...u..A...9.....
00406040 CB BA 64 A9 DF 9E DD 48 3B 63 C5 81 00 80 FC C1 ..d....H;c......
00406050 7B 15 34 FD 88 FD 1B 60 63 EE 54 93 48 79 83 FF {.4....`c.T.Hy..
00406060 86 A3 EF 0E 80 BE C3 00 1E 04 D7 32 1D 5C 3E FF ...........2.\>.
00406070 DF 69 00 B4 3E 08 71 1B 03 F7 96 44 00 00 CD EC .i..>.q....D....
00406080 00 FF C8 C7 A2 32 00 5F 00 94 7D 78 00 92 FF 00 .....2._..}x....
00406090 A5 5C 97 63 00 00 C2 FF 1B 30 22 29 0B 50 21 3B .\.c.....0").P!;
004060A0 3F 00 2F F6 51 51 D7 00 F1 28 A7 00 DF 98 E3 A4 ?./.QQ...(......
004060B0 73 B9 FF 00 2B 7A 00 7B F0 87 6F 01 7B 00 A0 C2 s...+z.{..o.{...
004060C0 FF 1B 31 FF 08 FF FF 21 7A B1 75 20 26 67 9A 35 ..1....!z.u &g.5
004060D0 00 EC FF 23 00 72 8F 00 57 00 25 C6 86 F8 3E E2 ...#.r..W.%...>.
004060E0 38 65 42 06 00 00 FF 42 EF 95 87 05 FF 00 23 5A 8eB....B......#Z
004060F0 00 C1 04 01 A9 00 EB 93 00 21 39 00 00 02 00 0B .........!9.....
00406100 ED 41 F3 19 EF 1F 14 3C BF CA 54 FF FF 05 31 28 .A.....<..T...1(
00406110 5C FF 1B 17 41 01 C8 9C 77 FF 30 A7 7F 29 50 6C \...A...w.0..)Pl
00406120 34 21 E4 13 7F 00 D8 FD 6F 42 BD 00 08 06 00 FE 4!......oB......
00406130 FF 3C 00 96 91 FB 11 3C 1C 8C 4A 20 00 A3 AD 3A .<.....<..J ...:
00406140 28 B4 B6 73 9F 4A 6C 6D 00 00 13 EA 09 91 8B 90 (..s.Jlm........
00406150 8D 54 00 E3 B2 C7 26 EB E2 52 8C 68 15 EF 11 C0 .T....&..R.h....
00406160 DC 5F 68 00 76 72 2D B0 00 91 4F F0 8B 99 63 BC ._h.vr-...O...c.
00406170 D3 EA F0 00 66 79 AD 04 54 81 00 00 00 05 29 28 ....fy..T.....)(
00406180 D1 10 A8 00 87 C7 83 AF 00 2A 32 5C 3A FD 0D 00 .........*2\:...
00406190 61 53 0B C8 FE 3A F6 58 A6 F6 7D 0F B7 7A 00 3A aS...:.X..}..z.:
004061A0 18 A7 1D 19 16 EA 55 C4 93 B3 09 89 C4 E3 81 74 ......U........t
004061B0 28 99 BF 00 65 CF 1E 4F 1F 96 C9 B1 FF EF 00 00 (...e..O........
004061C0 35 7F 07 66 00 1A F5 DF FF 32 B6 86 25 92 A0 E8 5..f.....2..%...
004061D0 43 06 26 30 C4 02 FF D3 23 08 07 C8 9A 00 00 F8 C.&0....#.......
004061E0 7F 26 00 EC E6 C3 42 98 0F 27 43 85 46 9F 6C 00 .&....B..'C.F.l.
004061F0 1C 56 C6 80 F8 53 44 D7 66 D6 32 11 00 3D 12 B9 .V...SD.f.2..=..
00406200 E8 00 00 16 00 00 0B 07 EE 00 6B C4 BE 00 28 58 ..........k...(X
00406210 00 00 A3 9E A3 00 8B 00 29 45 36 B9 60 7B E8 78 ........)E6.`{.x
00406220 51 70 C3 24 D3 17 41 19 FD CC 18 41 42 BC 54 D2 Qp.$..A....AB.T.
00406230 BA 30 D0 22 00 80 72 27 01 67 1D 1D C7 57 BF 00 .0."..r'.g...W..
00406240 40 9B 00 84 15 A5 00 4D 9F D5 1F BB E5 00 FF 00 @......M........
00406250 C9 B4 08 26 E8 00 43 2A 47 00 7D F7 FD 87 9E FF ...&..C*G.}.....
00406260 09 98 4D 14 6F C5 E0 D6 F2 EE AC 68 2D 5C B4 E6 ..M.o......h-\..
00406270 35 18 02 7E CB B1 D7 D3 4C C2 F8 4C B3 15 78 82 5..~....L..L..x.
00406280 74 4C 3F F2 82 FF 7E 14 22 00 00 81 00 00 DF 31 tL?...~."......1
00406290 A6 17 2B E9 22 E0 00 2E 69 FF F4 F7 F7 9E 39 49 ..+."...i.....9I
004062A0 51 64 00 18 B2 24 AD 17 09 06 A5 25 00 BA 83 EC Qd...$.....%....
004062B0 8F D0 8F 1D 0D 07 C0 E7 45 86 7F 70 00 28 AE 70 ........E..p.(.p
004062C0 00 40 8B 3C 00 29 FF 28 67 0D F0 66 DA 00 E5 C9 .@.<.).(g..f....
004062D0 52 28 FF F3 66 B5 C0 00 C4 45 32 DD 64 8E 2B 7C R(..f....E2.d.+|
004062E0 8D 86 08 AF 31 FF EE F3 00 AB 3B 85 5D 00 E1 28 ....1.....;.]..(
004062F0 01 55 8C ED 00 1A E3 C3 FD 9A FE D8 90 00 FF 8D .U..............
00406300 08 E2 06 7E 00 00 85 EB E8 69 BA 00 00 00 F7 63 ...~.....i.....c
00406310 FF B9 A5 56 3E B8 9F 35 38 88 74 69 FF F9 CE AE ...V>..58.ti....
00406320 68 D0 95 21 6A 22 F7 D9 87 00 EF 41 53 67 EF 7C h..!j".....ASg.|
00406330 05 C8 5F 00 39 2E B9 00 E0 83 00 20 CC 3F CC AB .._.9...... .?..
00406340 C4 FF EB D4 00 D8 FF 00 00 14 FA F8 18 7F 31 E1 ..............1.
00406350 27 47 00 A6 7F 00 AC BB 18 1B 00 6A E2 00 00 A9 'G.........j....
00406360 00 69 00 7B 00 C6 3F 70 DD 0E 32 00 00 BF B9 95 .i.{..?p..2.....
00406370 A5 00 DF C0 D4 FF B6 FF AE 00 8B C4 DB 40 AA 13 .............@..
00406380 8A 01 56 08 E4 22 C5 57 9E 1D DB 18 3B A5 00 F2 ..V..".W....;...
00406390 CA 68 00 00 05 6F 8B 19 FC 6C E3 E3 F7 5D 13 00 .h...o...l...]..
004063A0 49 63 AF 87 E7 F7 12 F8 00 03 F7 AC 40 5B FE 8B Ic..........@[..
004063B0 72 A5 0A E0 87 40 16 00 00 21 4E 7E EE 6A 12 4C r....@...!N~.j.L
004063C0 33 B7 FF 40 90 CD B2 70 C0 39 49 61 3D 00 4F 60 3..@...p.9Ia=.O`
004063D0 AA 00 00 27 F4 80 5A 12 53 00 7E 32 51 10 44 00 ...'..Z.S.~2Q.D.
004063E0 F2 00 00 94 3E 27 FF 01 7A 00 4C C6 73 89 11 76 ....>'..z.L.s..v
004063F0 0F 69 92 A3 7C 0C 74 16 E7 0C EF 00 F1 0F 1F 00 .i..|.t.........
00406400 00 83 66 1B 00 8A 00 00 00 D9 AB 00 FF 6F C6 2D ..f..........o.-
00406410 00 7E 38 65 0A 00 00 FF 5C C3 82 6E A1 49 08 FF .~8e....\..n.I..
00406420 86 F5 FF BF C4 40 0A 00 69 84 6D 17 D0 44 C8 79 .....@..i.m..D.y
00406430 28 62 43 74 F6 00 0C 1F 39 5A B4 16 00 E8 1A 39 (bCt....9Z.....9
00406440 14 37 B9 00 BB 41 57 8D FF 4E 48 E7 00 71 38 E6 .7...AW..NH..q8.
00406450 0A E3 C1 0C 18 D8 95 9B FF 50 CD 0D 00 00 94 B7 .........P......
00406460 D9 4D 59 00 D2 A9 00 8C FF FF 13 1E 37 44 86 C0 .MY.........7D..
00406470 AC DC 68 BE 00 8C 13 B7 7D 4B 34 BD 1B 9C 24 F2 ..h.....}K4...$.
00406480 00 DE 7D 7A 00 FF 3E 50 00 A4 80 20 7A 6D C6 00 ..}z..>P... zm..
00406490 7B 0D 8C 6F 1C EA 5C BF F1 FF 8C 08 FF 00 01 FD {..o..\.........
004064A0 57 50 81 1B 00 4F BC 9E 94 82 DD 00 8F 00 9C 46 WP...O.........F
004064B0 EA 00 58 8F 00 49 00 FF A3 00 7A 00 AD 7A 00 C5 ..X..I....z..z..
004064C0 15 6B 00 AB 00 0F AA B1 29 02 01 91 30 C2 8D 00 .k......)...0...
004064D0 FC E8 00 00 09 3A D3 91 00 FE 1A 8A 65 D9 FA 87 .....:......e...
004064E0 09 66 00 FA 1F B6 0E 96 00 08 60 00 38 D8 00 E8 .f........`.8...
004064F0 C0 FF 39 04 23 00 B9 7D 00 AD 2D A4 00 CF 00 79 ..9.#..}..-....y
00406500 A4 A0 00 7F 90 51 00 F1 C0 00 1D 81 96 E7 66 C0 .....Q........f.
00406510 0A 00 B3 4D FF BD 7C FD 1D 99 39 06 25 AC D5 00 ...M..|...9.%...
00406520 72 E3 1E 00 85 F8 6B 4D 4F 3E A3 93 DB 4F 00 F3 r.....kMO>...O..
00406530 C6 86 FF 82 3C 5C 90 B7 46 D2 39 5C 4A F5 70 59 ....<\..F.9\J.pY
00406540 BD 29 3F 5B 16 76 FB B8 50 10 3E 00 20 00 C9 F9 .)?[.v..P.>. ...
00406550 73 03 FA 04 10 74 90 FB 00 7D FF E0 A6 FD D0 8D s....t...}......
00406560 FA 0F CD 0A 6C 00 4F 20 48 F6 E1 1D 6F 00 54 EE ....l.O H...o.T.
00406570 60 D4 C8 00 2F 90 EF 3A 6B C6 00 60 88 B7 E2 DA `.../..:k..`....
00406580 47 77 4F 34 28 2E F0 00 6F 7C 31 E4 00 FF 14 42 GwO4(...o|1....B
00406590 40 D6 F6 18 F0 D7 FB 60 FE 25 24 71 89 00 01 B1 @......`.%$q....
004065A0 40 AF A7 08 F4 1B FF 17 EB EA FF 00 25 FF 00 A9 @...........%...
004065B0 AC 0F EB F9 7B CD FB F0 73 C1 D4 ED 00 36 68 BC ....{...s....6h.
004065C0 AC 00 00 2D 8A 97 DC 0D CD B0 BF CD FC 10 6F 3D ...-..........o=
004065D0 8A 26 68 3A 00 BB 40 84 99 00 DE 69 00 FF 91 71 .&h:..@....i...q
004065E0 81 E4 27 DC 00 16 32 74 32 F0 79 C4 17 A0 73 DC ..'...2t2.y...s.
004065F0 A4 F6 00 03 05 84 91 00 5F C0 D4 2A 12 00 0E 34 ........_..*...4
00406600 00 00 00 00 00 00 00 00 00 00 00 00 00 00 00 00 ................
00406610 00 00 00 00 00 00 00 00 00 00 00 00 00 00 00 00 ................
00406620 00 00 00 00 00 00 00 00 00 00 00 00 00 00 00 00 ................
00406630 00 00 00 00 00 00 00 00 00 00 00 00 00 00 00 00 ................
00406640 00 00 00 00 00 00 00 00 00 00 00 00 00 00 00 00 ................
00406650 00 00 00 00 00 00 00 00 00 00 00 00 00 00 00 00 ................
00406660 00 00 00 00 00 00 00 00 00 00 00 00 00 00 00 00 ................
00406670 00 00 00 00 00 00 00 00 00 00 00 00 00 00 00 00 ................
00406680 00 00 00 00 00 00 00 00 00 00 00 00 00 00 00 00 ................
00406690 00 00 00 00 00 00 00 00 00 00 00 00 00 00 00 00 ................
004066A0 00 00 00 00 00 00 00 00 00 00 00 00 00 00 00 00 ................
004066B0 00 00 00 00 00 00 00 00 00 00 00 00 00 00 00 00 ................
004066C0 00 00 00 00 00 00 00 00 00 00 00 00 00 00 00 00 ................
004066D0 00 00 00 00 00 00 00 00 00 00 00 00 00 00 00 00 ................
004066E0 00 00 00 00 00 00 00 00 00 00 00 00 00 00 00 00 ................
004066F0 00 00 00 00 00 00 00 00 00 00 00 00 00 00 00 00 ................
00406700 00 00 00 00 00 00 00 00 00 00 00 00 00 00 00 00 ................
00406710 00 00 00 00 00 00 00 00 00 00 00 00 00 00 00 00 ................
00406720 00 00 00 00 00 00 00 00 00 00 00 00 00 00 00 00 ................
00406730 00 00 00 00 00 00 00 00 00 00 00 00 00 00 00 00 ................
00406740 00 00 00 00 00 00 00 00 00 00 00 00 00 00 00 00 ................
00406750 00 00 00 00 00 00 00 00 00 00 00 00 00 00 00 00 ................
00406760 00 00 00 00 00 00 00 00 00 00 00 00 00 00 00 00 ................
00406770 00 00 00 00 00 00 00 00 00 00 00 00 00 00 00 00 ................
00406780 00 00 00 00 00 00 00 00 00 00 00 00 00 00 00 00 ................
00406790 00 00 00 00 00 00 00 00 00 00 00 00 00 00 00 00 ................
004067A0 00 00 00 00 00 00 00 00 00 00 00 00 00 00 00 00 ................
004067B0 00 00 00 00 00 00 00 00 00 00 00 00 00 00 00 00 ................
004067C0 00 00 00 00 00 00 00 00 00 00 00 00 00 00 00 00 ................
004067D0 00 00 00 00 00 00 00 00 00 00 00 00 00 00 00 00 ................
004067E0 00 00 00 00 00 00 00 00 00 00 00 00 00 00 00 00 ................
004067F0 00 00 00 00 00 00 00 00 00 00 00 00 00 00 00 00 ................
00406800 00 00 00 00 00 00 00 00 00 00 00 00 00 00 00 00 ................
00406810 00 00 00 00 00 00 00 00 00 00 00 00 00 00 00 00 ................
00406820 00 00 00 00 00 00 00 00 00 00 00 00 00 00 00 00 ................
00406830 00 00 00 00 00 00 00 00 00 00 00 00 00 00 00 00 ................
00406840 00 00 00 00 00 00 00 00 00 00 00 00 00 00 00 00 ................
00406850 00 00 00 00 00 00 00 00 00 00 00 00 00 00 00 00 ................
00406860 00 00 00 00 00 00 00 00 00 00 00 00 00 00 00 00 ................
00406870 00 00 00 00 00 00 00 00 00 00 00 00 00 00 00 00 ................
00406880 00 00 00 00 00 00 00 00 00 00 00 00 00 00 00 00 ................
00406890 00 00 00 00 00 00 00 00 00 00 00 00 00 00 00 00 ................
004068A0 00 00 00 00 00 00 00 00 00 00 00 00 00 00 00 00 ................
004068B0 00 00 00 00 00 00 00 00 00 00 00 00 00 00 00 00 ................
004068C0 00 00 00 00 00 00 00 00 00 00 00 00 00 00 00 00 ................
004068D0 00 00 00 00 00 00 00 00 00 00 00 00 00 00 00 00 ................
004068E0 00 00 00 00 00 00 00 00 00 00 00 00 00 00 00 00 ................
004068F0 00 00 00 00 00 00 00 00 00 00 00 00 00 00 00 00 ................
00406900 00 00 00 00 00 00 00 00 00 00 00 00 00 00 00 00 ................
00406910 00 00 00 00 00 00 00 00 00 00 00 00 00 00 00 00 ................
00406920 00 00 00 00 00 00 00 00 00 00 00 00 00 00 00 00 ................
00406930 00 00 00 00 00 00 00 00 00 00 00 00 00 00 00 00 ................
00406940 00 00 00 00 00 00 00 00 00 00 00 00 00 00 00 00 ................
00406950 00 00 00 00 00 00 00 00 00 00 00 00 00 00 00 00 ................
00406960 00 00 00 00 00 00 00 00 00 00 00 00 00 00 00 00 ................
00406970 00 00 00 00 00 00 00 00 00 00 00 00 00 00 00 00 ................
00406980 00 00 00 00 00 00 00 00 00 00 00 00 00 00 00 00 ................
00406990 00 00 00 00 00 00 00 00 00 00 00 00 00 00 00 00 ................
004069A0 00 00 00 00 00 00 00 00 00 00 00 00 00 00 00 00 ................
004069B0 00 00 00 00 00 00 00 00 00 00 00 00 00 00 00 00 ................
004069C0 00 00 00 00 00 00 00 00 00 00 00 00 00 00 00 00 ................
004069D0 00 00 00 00 00 00 00 00 00 00 00 00 00 00 00 00 ................
004069E0 00 00 00 00 00 00 00 00 00 00 00 00 00 00 00 00 ................
004069F0 00 00 00 00 00 00 00 00 00 00 00 00 00 00 00 00 ................
00406A00 00 00 00 00 00 00 00 00 00 00 00 00 00 00 00 00 ................
00406A10 00 00 00 00 00 00 00 00 00 00 00 00 00 00 00 00 ................
00406A20 00 00 00 00 00 00 00 00 00 00 00 00 00 00 00 00 ................
00406A30 00 00 00 00 00 00 00 00 00 00 00 00 00 00 00 00 ................
00406A40 00 00 00 00 00 00 00 00 00 00 00 00 00 00 00 00 ................
00406A50 00 00 00 00 00 00 00 00 00 00 00 00 00 00 00 00 ................
00406A60 00 00 00 00 00 00 00 00 00 00 00 00 00 00 00 00 ................
00406A70 00 00 00 00 00 00 00 00 00 00 00 00 00 00 00 00 ................
00406A80 00 00 00 00 00 00 00 00 00 00 00 00 00 00 00 00 ................
00406A90 00 00 00 00 00 00 00 00 00 00 00 00 00 00 00 00 ................
00406AA0 00 00 00 00 00 00 00 00 00 00 00 00 00 00 00 00 ................
00406AB0 00 00 00 00 00 00 00 00 00 00 00 00 00 00 00 00 ................
00406AC0 00 00 00 00 00 00 00 00 00 00 00 00 00 00 00 00 ................
00406AD0 00 00 00 00 00 00 00 00 00 00 00 00 00 00 00 00 ................
00406AE0 00 00 00 00 00 00 00 00 00 00 00 00 00 00 00 00 ................
00406AF0 00 00 00 00 00 00 00 00 00 00 00 00 00 00 00 00 ................
00406B00 00 00 00 00 00 00 00 00 00 00 00 00 00 00 00 00 ................
00406B10 00 00 00 00 00 00 00 00 00 00 00 00 00 00 00 00 ................
00406B20 00 00 00 00 00 00 00 00 00 00 00 00 00 00 00 00 ................
00406B30 00 00 00 00 00 00 00 00 00 00 00 00 00 00 00 00 ................
00406B40 00 00 00 00 00 00 00 00 00 00 00 00 00 00 00 00 ................
00406B50 00 00 00 00 00 00 00 00 00 00 00 00 00 00 00 00 ................
00406B60 00 00 00 00 00 00 00 00 00 00 00 00 00 00 00 00 ................
00406B70 00 00 00 00 00 00 00 00 00 00 00 00 00 00 00 00 ................
00406B80 00 00 00 00 00 00 00 00 00 00 00 00 00 00 00 00 ................
00406B90 00 00 00 00 00 00 00 00 00 00 00 00 00 00 00 00 ................
00406BA0 00 00 00 00 00 00 00 00 00 00 00 00 00 00 00 00 ................
00406BB0 00 00 00 00 00 00 00 00 00 00 00 00 00 00 00 00 ................
00406BC0 00 00 00 00 00 00 00 00 00 00 00 00 00 00 00 00 ................
00406BD0 00 00 00 00 00 00 00 00 00 00 00 00 00 00 00 00 ................
00406BE0 00 00 00 00 00 00 00 00 00 00 00 00 00 00 00 00 ................
00406BF0 00 00 00 00 00 00 00 00 00 00 00 00 00 00 00 00 ................
00406C00 00 00 00 00 00 00 00 00 00 00 00 00 00 00 00 00 ................
00406C10 00 00 00 00 00 00 00 00 00 00 00 00 00 00 00 00 ................
00406C20 00 00 00 00 00 00 00 00 00 00 00 00 00 00 00 00 ................
00406C30 00 00 00 00 00 00 00 00 00 00 00 00 00 00 00 00 ................
00406C40 00 00 00 00 00 00 00 00 00 00 00 00 00 00 00 00 ................
00406C50 00 00 00 00 00 00 00 00 00 00 00 00 00 00 00 00 ................
00406C60 00 00 00 00 00 00 00 00 00 00 00 00 00 00 00 00 ................
00406C70 00 00 00 00 00 00 00 00 00 00 00 00 00 00 00 00 ................
00406C80 00 00 00 00 00 00 00 00 00 00 00 00 00 00 00 00 ................
00406C90 00 00 00 00 00 00 00 00 00 00 00 00 00 00 00 00 ................
00406CA0 00 00 00 00 00 00 00 00 00 00 00 00 00 00 00 00 ................
00406CB0 00 00 00 00 00 00 00 00 00 00 00 00 00 00 00 00 ................
00406CC0 00 00 00 00 00 00 00 00 00 00 00 00 00 00 00 00 ................
00406CD0 00 00 00 00 00 00 00 00 00 00 00 00 00 00 00 00 ................
00406CE0 00 00 00 00 00 00 00 00 00 00 00 00 00 00 00 00 ................
00406CF0 00 00 00 00 00 00 00 00 00 00 00 00 00 00 00 00 ................
00406D00 00 00 00 00 00 00 00 00 00 00 00 00 00 00 00 00 ................
00406D10 00 00 00 00 00 00 00 00 00 00 00 00 00 00 00 00 ................
00406D20 00 00 00 00 00 00 00 00 00 00 00 00 00 00 00 00 ................
00406D30 00 00 00 00 00 00 00 00 00 00 00 00 00 00 00 00 ................
00406D40 00 00 00 00 00 00 00 00 00 00 00 00 00 00 00 00 ................
00406D50 00 00 00 00 00 00 00 00 00 00 00 00 00 00 00 00 ................
00406D60 00 00 00 00 00 00 00 00 00 00 00 00 00 00 00 00 ................
00406D70 00 00 00 00 00 00 00 00 00 00 00 00 00 00 00 00 ................
00406D80 00 00 00 00 00 00 00 00 00 00 00 00 00 00 00 00 ................
00406D90 00 00 00 00 00 00 00 00 00 00 00 00 00 00 00 00 ................
00406DA0 00 00 00 00 00 00 00 00 00 00 00 00 00 00 00 00 ................
00406DB0 00 00 00 00 00 00 00 00 00 00 00 00 00 00 00 00 ................
00406DC0 00 00 00 00 00 00 00 00 00 00 00 00 00 00 00 00 ................
00406DD0 00 00 00 00 00 00 00 00 00 00 00 00 00 00 00 00 ................
00406DE0 00 00 00 00 00 00 00 00 00 00 00 00 00 00 00 00 ................
00406DF0 00 00 00 00 00 00 00 00 00 00 00 00 00 00 00 00 ................
00406E00 00 00 00 00 00 00 00 00 00 00 00 00 00 00 00 00 ................
00406E10 00 00 00 00 00 00 00 00 00 00 00 00 00 00 00 00 ................
00406E20 00 00 00 00 00 00 00 00 00 00 00 00 00 00 00 00 ................
00406E30 00 00 00 00 00 00 00 00 00 00 00 00 00 00 00 00 ................
00406E40 00 00 00 00 00 00 00 00 00 00 00 00 00 00 00 00 ................
00406E50 00 00 00 00 00 00 00 00 00 00 00 00 00 00 00 00 ................
00406E60 00 00 00 00 00 00 00 00 00 00 00 00 00 00 00 00 ................
00406E70 00 00 00 00 00 00 00 00 00 00 00 00 00 00 00 00 ................
00406E80 00 00 00 00 00 00 00 00 00 00 00 00 00 00 00 00 ................
00406E90 00 00 00 00 00 00 00 00 00 00 00 00 00 00 00 00 ................
00406EA0 00 00 00 00 00 00 00 00 00 00 00 00 00 00 00 00 ................
00406EB0 00 00 00 00 00 00 00 00 00 00 00 00 00 00 00 00 ................
00406EC0 00 00 00 00 00 00 00 00 00 00 00 00 00 00 00 00 ................
00406ED0 00 00 00 00 00 00 00 00 00 00 00 00 00 00 00 00 ................
00406EE0 00 00 00 00 00 00 00 00 00 00 00 00 00 00 00 00 ................
00406EF0 00 00 00 00 00 00 00 00 00 00 00 00 00 00 00 00 ................
00406F00 00 00 00 00 00 00 00 00 00 00 00 00 00 00 00 00 ................
00406F10 00 00 00 00 00 00 00 00 00 00 00 00 00 00 00 00 ................
00406F20 00 00 00 00 00 00 00 00 00 00 00 00 00 00 00 00 ................
00406F30 00 00 00 00 00 00 00 00 00 00 00 00 00 00 00 00 ................
00406F40 00 00 00 00 00 00 00 00 00 00 00 00 00 00 00 00 ................
00406F50 00 00 00 00 00 00 00 00 00 00 00 00 00 00 00 00 ................
00406F60 00 00 00 00 00 00 00 00 00 00 00 00 00 00 00 00 ................
00406F70 00 00 00 00 00 00 00 00 00 00 00 00 00 00 00 00 ................
00406F80 00 00 00 00 00 00 00 00 00 00 00 00 00 00 00 00 ................
00406F90 00 00 00 00 00 00 00 00 00 00 00 00 00 00 00 00 ................
00406FA0 00 00 00 00 00 00 00 00 00 00 00 00 00 00 00 00 ................
00406FB0 00 00 00 00 00 00 00 00 00 00 00 00 00 00 00 00 ................
00406FC0 00 00 00 00 00 00 00 00 00 00 00 00 00 00 00 00 ................
00406FD0 00 00 00 00 00 00 00 00 00 00 00 00 00 00 00 00 ................
00406FE0 00 00 00 00 00 00 00 00 00 00 00 00 00 00 00 00 ................
00406FF0 00 00 00 00 00 00 00 00 00 00 00 00 00 00 00 00 ................
00407000 00 00 00 00 00 00 00 00 00 00 00 00 00 00 00 00 ................
00407010 00 00 00 00 00 00 00 00 00 00 00 00 00 00 00 00 ................
00407020 00 00 00 00 00 00 00 00 00 00 00 00 00 00 00 00 ................
00407030 00 00 00 00 00 00 00 00 00 00 00 00 00 00 00 00 ................
00407040 00 00 00 00 00 00 00 00 00 00 00 00 00 00 00 00 ................
00407050 00 00 00 00 00 00 00 00 00 00 00 00 00 00 00 00 ................
00407060 00 00 00 00 00 00 00 00 00 00 00 00 00 00 00 00 ................
00407070 00 00 00 00 00 00 00 00 00 00 00 00 00 00 00 00 ................
00407080 00 00 00 00 00 00 00 00 00 00 00 00 00 00 00 00 ................
00407090 00 00 00 00 00 00 00 00 00 00 00 00 00 00 00 00 ................
004070A0 00 00 00 00 00 00 00 00 00 00 00 00 00 00 00 00 ................
004070B0 00 00 00 00 00 00 00 00 00 00 00 00 00 00 00 00 ................
004070C0 00 00 00 00 00 00 00 00 00 00 00 00 00 00 00 00 ................
004070D0 00 00 00 00 00 00 00 00 00 00 00 00 00 00 00 00 ................
004070E0 00 00 00 00 00 00 00 00 00 00 00 00 00 00 00 00 ................
004070F0 00 00 00 00 00 00 00 00 00 00 00 00 00 00 00 00 ................
00407100 00 00 00 00 00 00 00 00 00 00 00 00 00 00 00 00 ................
00407110 00 00 00 00 00 00 00 00 00 00 00 00 00 00 00 00 ................
00407120 00 00 00 00 00 00 00 00 00 00 00 00 00 00 00 00 ................
00407130 00 00 00 00 00 00 00 00 00 00 00 00 00 00 00 00 ................
00407140 00 00 00 00 00 00 00 00 00 00 00 00 00 00 00 00 ................
00407150 00 00 00 00 00 00 00 00 00 00 00 00 00 00 00 00 ................
00407160 00 00 00 00 00 00 00 00 00 00 00 00 00 00 00 00 ................
00407170 00 00 00 00 00 00 00 00 00 00 00 00 00 00 00 00 ................
00407180 00 00 00 00 00 00 00 00 00 00 00 00 00 00 00 00 ................
00407190 00 00 00 00 00 00 00 00 00 00 00 00 00 00 00 00 ................
004071A0 00 00 00 00 00 00 00 00 00 00 00 00 00 00 00 00 ................
004071B0 00 00 00 00 00 00 00 00 00 00 00 00 00 00 00 00 ................
004071C0 00 00 00 00 00 00 00 00 00 00 00 00 00 00 00 00 ................
004071D0 00 00 00 00 00 00 00 00 00 00 00 00 00 00 00 00 ................
004071E0 00 00 00 00 00 00 00 00 00 00 00 00 00 00 00 00 ................
004071F0 00 00 00 00 00 00 00 00 00 00 00 00 00 00 00 00 ................
00407200 00 00 00 00 00 00 00 00 00 00 00 00 00 00 00 00 ................
00407210 00 00 00 00 00 00 00 00 00 00 00 00 00 00 00 00 ................
00407220 00 00 00 00 00 00 00 00 00 00 00 00 00 00 00 00 ................
00407230 00 00 00 00 00 00 00 00 00 00 00 00 00 00 00 00 ................
00407240 00 00 00 00 00 00 00 00 00 00 00 00 00 00 00 00 ................
00407250 00 00 00 00 00 00 00 00 00 00 00 00 00 00 00 00 ................
00407260 00 00 00 00 00 00 00 00 00 00 00 00 00 00 00 00 ................
00407270 00 00 00 00 00 00 00 00 00 00 00 00 00 00 00 00 ................
00407280 00 00 00 00 00 00 00 00 00 00 00 00 00 00 00 00 ................
00407290 00 00 00 00 00 00 00 00 00 00 00 00 00 00 00 00 ................
004072A0 00 00 00 00 00 00 00 00 00 00 00 00 00 00 00 00 ................
004072B0 00 00 00 00 00 00 00 00 00 00 00 00 00 00 00 00 ................
004072C0 00 00 00 00 00 00 00 00 00 00 00 00 00 00 00 00 ................
004072D0 00 00 00 00 00 00 00 00 00 00 00 00 00 00 00 00 ................
004072E0 00 00 00 00 00 00 00 00 00 00 00 00 00 00 00 00 ................
004072F0 00 00 00 00 00 00 00 00 00 00 00 00 00 00 00 00 ................
00407300 00 00 00 00 00 00 00 00 00 00 00 00 00 00 00 00 ................
00407310 00 00 00 00 00 00 00 00 00 00 00 00 00 00 00 00 ................
00407320 00 00 00 00 00 00 00 00 00 00 00 00 00 00 00 00 ................
00407330 00 00 00 00 00 00 00 00 00 00 00 00 00 00 00 00 ................
00407340 00 00 00 00 00 00 00 00 00 00 00 00 00 00 00 00 ................
00407350 00 00 00 00 00 00 00 00 00 00 00 00 00 00 00 00 ................
00407360 00 00 00 00 00 00 00 00 00 00 00 00 00 00 00 00 ................
00407370 00 00 00 00 00 00 00 00 00 00 00 00 00 00 00 00 ................
00407380 00 00 00 00 00 00 00 00 00 00 00 00 00 00 00 00 ................
00407390 00 00 00 00 00 00 00 00 00 00 00 00 00 00 00 00 ................
004073A0 00 00 00 00 00 00 00 00 00 00 00 00 00 00 00 00 ................
004073B0 00 00 00 00 00 00 00 00 00 00 00 00 00 00 00 00 ................
004073C0 00 00 00 00 00 00 00 00 00 00 00 00 00 00 00 00 ................
004073D0 00 00 00 00 00 00 00 00 00 00 00 00 00 00 00 00 ................
004073E0 00 00 00 00 00 00 00 00 00 00 00 00 00 00 00 00 ................
004073F0 00 00 00 00 00 00 00 00 00 00 00 00 00 00 00 00 ................
00407400 00 00 00 00 00 00 00 00 00 00 00 00 00 00 00 00 ................
00407410 00 00 00 00 00 00 00 00 00 00 00 00 00 00 00 00 ................
00407420 00 00 00 00 00 00 00 00 00 00 00 00 00 00 00 00 ................
00407430 00 00 00 00 00 00 00 00 00 00 00 00 00 00 00 00 ................
00407440 00 00 00 00 00 00 00 00 00 00 00 00 00 00 00 00 ................
00407450 00 00 00 00 00 00 00 00 00 00 00 00 00 00 00 00 ................
00407460 00 00 00 00 00 00 00 00 00 00 00 00 00 00 00 00 ................
00407470 00 00 00 00 00 00 00 00 00 00 00 00 00 00 00 00 ................
00407480 00 00 00 00 00 00 00 00 00 00 00 00 00 00 00 00 ................
00407490 00 00 00 00 00 00 00 00 00 00 00 00 00 00 00 00 ................
004074A0 00 00 00 00 00 00 00 00 00 00 00 00 00 00 00 00 ................
004074B0 00 00 00 00 00 00 00 00 00 00 00 00 00 00 00 00 ................
004074C0 00 00 00 00 00 00 00 00 00 00 00 00 00 00 00 00 ................
004074D0 00 00 00 00 00 00 00 00 00 00 00 00 00 00 00 00 ................
004074E0 00 00 00 00 00 00 00 00 00 00 00 00 00 00 00 00 ................
004074F0 00 00 00 00 00 00 00 00 00 00 00 00 00 00 00 00 ................
00407500 00 00 00 00 00 00 00 00 00 00 00 00 00 00 00 00 ................
00407510 00 00 00 00 00 00 00 00 00 00 00 00 00 00 00 00 ................
00407520 00 00 00 00 00 00 00 00 00 00 00 00 00 00 00 00 ................
00407530 00 00 00 00 00 00 00 00 00 00 00 00 00 00 00 00 ................
00407540 00 00 00 00 00 00 00 00 00 00 00 00 00 00 00 00 ................
00407550 00 00 00 00 00 00 00 00 00 00 00 00 00 00 00 00 ................
00407560 00 00 00 00 00 00 00 00 00 00 00 00 00 00 00 00 ................
00407570 00 00 00 00 00 00 00 00 00 00 00 00 00 00 00 00 ................
00407580 00 00 00 00 00 00 00 00 00 00 00 00 00 00 00 00 ................
00407590 00 00 00 00 00 00 00 00 00 00 00 00 00 00 00 00 ................
004075A0 00 00 00 00 00 00 00 00 00 00 00 00 00 00 00 00 ................
004075B0 00 00 00 00 00 00 00 00 00 00 00 00 00 00 00 00 ................
004075C0 00 00 00 00 00 00 00 00 00 00 00 00 00 00 00 00 ................
004075D0 00 00 00 00 00 00 00 00 00 00 00 00 00 00 00 00 ................
004075E0 00 00 00 00 00 00 00 00 00 00 00 00 00 00 00 00 ................
004075F0 00 00 00 00 00 00 00 00 00 00 00 00 00 00 00 00 ................
00407600 00 00 00 00 00 00 00 00 00 00 00 00 00 00 00 00 ................
00407610 00 00 00 00 00 00 00 00 00 00 00 00 00 00 00 00 ................
00407620 00 00 00 00 00 00 00 00 00 00 00 00 00 00 00 00 ................
00407630 00 00 00 00 00 00 00 00 00 00 00 00 00 00 00 00 ................
00407640 00 00 00 00 00 00 00 00 00 00 00 00 00 00 00 00 ................
00407650 00 00 00 00 00 00 00 00 00 00 00 00 00 00 00 00 ................
00407660 00 00 00 00 00 00 00 00 00 00 00 00 00 00 00 00 ................
00407670 00 00 00 00 00 00 00 00 00 00 00 00 00 00 00 00 ................
00407680 00 00 00 00 00 00 00 00 00 00 00 00 00 00 00 00 ................
00407690 00 00 00 00 00 00 00 00 00 00 00 00 00 00 00 00 ................
004076A0 00 00 00 00 00 00 00 00 00 00 00 00 00 00 00 00 ................
004076B0 00 00 00 00 00 00 00 00 00 00 00 00 00 00 00 00 ................
004076C0 00 00 00 00 00 00 00 00 00 00 00 00 00 00 00 00 ................
004076D0 00 00 00 00 00 00 00 00 00 00 00 00 00 00 00 00 ................
004076E0 00 00 00 00 00 00 00 00 00 00 00 00 00 00 00 00 ................
004076F0 00 00 00 00 00 00 00 00 00 00 00 00 00 00 00 00 ................
00407700 00 00 00 00 00 00 00 00 00 00 00 00 00 00 00 00 ................
00407710 00 00 00 00 00 00 00 00 00 00 00 00 00 00 00 00 ................
00407720 00 00 00 00 00 00 00 00 00 00 00 00 00 00 00 00 ................
00407730 00 00 00 00 00 00 00 00 00 00 00 00 00 00 00 00 ................
00407740 00 00 00 00 00 00 00 00 00 00 00 00 00 00 00 00 ................
00407750 00 00 00 00 00 00 00 00 00 00 00 00 00 00 00 00 ................
00407760 00 00 00 00 00 00 00 00 00 00 00 00 00 00 00 00 ................
00407770 00 00 00 00 00 00 00 00 00 00 00 00 00 00 00 00 ................
00407780 00 00 00 00 00 00 00 00 00 00 00 00 00 00 00 00 ................
00407790 00 00 00 00 00 00 00 00 00 00 00 00 00 00 00 00 ................
004077A0 00 00 00 00 00 00 00 00 00 00 00 00 00 00 00 00 ................
004077B0 00 00 00 00 00 00 00 00 00 00 00 00 00 00 00 00 ................
004077C0 00 00 00 00 00 00 00 00 00 00 00 00 00 00 00 00 ................
004077D0 00 00 00 00 00 00 00 00 00 00 00 00 00 00 00 00 ................
004077E0 00 00 00 00 00 00 00 00 00 00 00 00 00 00 00 00 ................
004077F0 00 00 00 00 00 00 00 00 00 00 00 00 00 00 00 00 ................
00407800 00 00 00 00 00 00 00 00 00 00 00 00 00 00 00 00 ................
00407810 00 00 00 00 00 00 00 00 00 00 00 00 00 00 00 00 ................
00407820 00 00 00 00 00 00 00 00 00 00 00 00 00 00 00 00 ................
00407830 00 00 00 00 00 00 00 00 00 00 00 00 00 00 00 00 ................
00407840 00 00 00 00 00 00 00 00 00 00 00 00 00 00 00 00 ................
00407850 00 00 00 00 00 00 00 00 00 00 00 00 00 00 00 00 ................
00407860 00 00 00 00 00 00 00 00 00 00 00 00 00 00 00 00 ................
00407870 00 00 00 00 00 00 00 00 00 00 00 00 00 00 00 00 ................
00407880 00 00 00 00 00 00 00 00 00 00 00 00 00 00 00 00 ................
00407890 00 00 00 00 00 00 00 00 00 00 00 00 00 00 00 00 ................
004078A0 00 00 00 00 00 00 00 00 00 00 00 00 00 00 00 00 ................
004078B0 00 00 00 00 00 00 00 00 00 00 00 00 00 00 00 00 ................
004078C0 00 00 00 00 00 00 00 00 00 00 00 00 00 00 00 00 ................
004078D0 00 00 00 00 00 00 00 00 00 00 00 00 00 00 00 00 ................
004078E0 00 00 00 00 00 00 00 00 00 00 00 00 00 00 00 00 ................
004078F0 00 00 00 00 00 00 00 00 00 00 00 00 00 00 00 00 ................
00407900 00 00 00 00 00 00 00 00 00 00 00 00 00 00 00 00 ................
00407910 00 00 00 00 00 00 00 00 00 00 00 00 00 00 00 00 ................
00407920 00 00 00 00 00 00 00 00 00 00 00 00 00 00 00 00 ................
00407930 00 00 00 00 00 00 00 00 00 00 00 00 00 00 00 00 ................
00407940 00 00 00 00 00 00 00 00 00 00 00 00 00 00 00 00 ................
00407950 00 00 00 00 00 00 00 00 00 00 00 00 00 00 00 00 ................
00407960 00 00 00 00 00 00 00 00 00 00 00 00 00 00 00 00 ................
00407970 00 00 00 00 00 00 00 00 00 00 00 00 00 00 00 00 ................
00407980 00 00 00 00 00 00 00 00 00 00 00 00 00 00 00 00 ................
00407990 00 00 00 00 00 00 00 00 00 00 00 00 00 00 00 00 ................
004079A0 00 00 00 00 00 00 00 00 00 00 00 00 00 00 00 00 ................
004079B0 00 00 00 00 00 00 00 00 00 00 00 00 00 00 00 00 ................
004079C0 00 00 00 00 00 00 00 00 00 00 00 00 00 00 00 00 ................
004079D0 00 00 00 00 00 00 00 00 00 00 00 00 00 00 00 00 ................
004079E0 00 00 00 00 00 00 00 00 00 00 00 00 00 00 00 00 ................
004079F0 00 00 00 00 00 00 00 00 00 00 00 00 00 00 00 00 ................
00407A00 00 00 00 00 00 00 00 00 00 00 00 00 00 00 00 00 ................
00407A10 00 00 00 00 00 00 00 00 00 00 00 00 00 00 00 00 ................
00407A20 00 00 00 00 00 00 00 00 00 00 00 00 00 00 00 00 ................
00407A30 00 00 00 00 00 00 00 00 00 00 00 00 00 00 00 00 ................
00407A40 00 00 00 00 00 00 00 00 00 00 00 00 00 00 00 00 ................
00407A50 00 00 00 00 00 00 00 00 00 00 00 00 00 00 00 00 ................
00407A60 00 00 00 00 00 00 00 00 00 00 00 00 00 00 00 00 ................
00407A70 00 00 00 00 00 00 00 00 00 00 00 00 00 00 00 00 ................
00407A80 00 00 00 00 00 00 00 00 00 00 00 00 00 00 00 00 ................
00407A90 00 00 00 00 00 00 00 00 00 00 00 00 00 00 00 00 ................
00407AA0 00 00 00 00 00 00 00 00 00 00 00 00 00 00 00 00 ................
00407AB0 00 00 00 00 00 00 00 00 00 00 00 00 00 00 00 00 ................
00407AC0 00 00 00 00 00 00 00 00 00 00 00 00 00 00 00 00 ................
00407AD0 00 00 00 00 00 00 00 00 00 00 00 00 00 00 00 00 ................
00407AE0 00 00 00 00 00 00 00 00 00 00 00 00 00 00 00 00 ................
00407AF0 00 00 00 00 00 00 00 00 00 00 00 00 00 00 00 00 ................
00407B00 00 00 00 00 00 00 00 00 00 00 00 00 00 00 00 00 ................
00407B10 00 00 00 00 00 00 00 00 00 00 00 00 00 00 00 00 ................
00407B20 00 00 00 00 00 00 00 00 00 00 00 00 00 00 00 00 ................
00407B30 00 00 00 00 00 00 00 00 00 00 00 00 00 00 00 00 ................
00407B40 00 00 00 00 00 00 00 00 00 00 00 00 00 00 00 00 ................
00407B50 00 00 00 00 00 00 00 00 00 00 00 00 00 00 00 00 ................
00407B60 00 00 00 00 00 00 00 00 00 00 00 00 00 00 00 00 ................
00407B70 00 00 00 00 00 00 00 00 00 00 00 00 00 00 00 00 ................
00407B80 00 00 00 00 00 00 00 00 00 00 00 00 00 00 00 00 ................
00407B90 00 00 00 00 00 00 00 00 00 00 00 00 00 00 00 00 ................
00407BA0 00 00 00 00 00 00 00 00 00 00 00 00 00 00 00 00 ................
00407BB0 00 00 00 00 00 00 00 00 00 00 00 00 00 00 00 00 ................
00407BC0 00 00 00 00 00 00 00 00 00 00 00 00 00 00 00 00 ................
00407BD0 00 00 00 00 00 00 00 00 00 00 00 00 00 00 00 00 ................
00407BE0 00 00 00 00 00 00 00 00 00 00 00 00 00 00 00 00 ................
00407BF0 00 00 00 00 00 00 00 00 00 00 00 00 00 00 00 00 ................
00407C00 00 00 00 00 00 00 00 00 00 00 00 00 00 00 00 00 ................
00407C10 00 00 00 00 00 00 00 00 00 00 00 00 00 00 00 00 ................
00407C20 00 00 00 00 00 00 00 00 00 00 00 00 00 00 00 00 ................
00407C30 00 00 00 00 00 00 00 00 00 00 00 00 00 00 00 00 ................
00407C40 00 00 00 00 00 00 00 00 00 00 00 00 00 00 00 00 ................
00407C50 00 00 00 00 00 00 00 00 00 00 00 00 00 00 00 00 ................
00407C60 00 00 00 00 00 00 00 00 00 00 00 00 00 00 00 00 ................
00407C70 00 00 00 00 00 00 00 00 00 00 00 00 00 00 00 00 ................
00407C80 00 00 00 00 00 00 00 00 00 00 00 00 00 00 00 00 ................
00407C90 00 00 00 00 00 00 00 00 00 00 00 00 00 00 00 00 ................
00407CA0 00 00 00 00 00 00 00 00 00 00 00 00 00 00 00 00 ................
00407CB0 00 00 00 00 00 00 00 00 00 00 00 00 00 00 00 00 ................
00407CC0 00 00 00 00 00 00 00 00 00 00 00 00 00 00 00 00 ................
00407CD0 00 00 00 00 00 00 00 00 00 00 00 00 00 00 00 00 ................
00407CE0 00 00 00 00 00 00 00 00 00 00 00 00 00 00 00 00 ................
00407CF0 00 00 00 00 00 00 00 00 00 00 00 00 00 00 00 00 ................
00407D00 00 00 00 00 00 00 00 00 00 00 00 00 00 00 00 00 ................
00407D10 00 00 00 00 00 00 00 00 00 00 00 00 00 00 00 00 ................
00407D20 00 00 00 00 00 00 00 00 00 00 00 00 00 00 00 00 ................
00407D30 00 00 00 00 00 00 00 00 00 00 00 00 00 00 00 00 ................
00407D40 00 00 00 00 00 00 00 00 00 00 00 00 00 00 00 00 ................
00407D50 00 00 00 00 00 00 00 00 00 00 00 00 00 00 00 00 ................
00407D60 00 00 00 00 00 00 00 00 00 00 00 00 00 00 00 00 ................
00407D70 00 00 00 00 00 00 00 00 00 00 00 00 00 00 00 00 ................
00407D80 00 00 00 00 00 00 00 00 00 00 00 00 00 00 00 00 ................
00407D90 00 00 00 00 00 00 00 00 00 00 00 00 00 00 00 00 ................
00407DA0 00 00 00 00 00 00 00 00 00 00 00 00 00 00 00 00 ................
00407DB0 00 00 00 00 00 00 00 00 00 00 00 00 00 00 00 00 ................
00407DC0 00 00 00 00 00 00 00 00 00 00 00 00 00 00 00 00 ................
00407DD0 00 00 00 00 00 00 00 00 00 00 00 00 00 00 00 00 ................
00407DE0 00 00 00 00 00 00 00 00 00 00 00 00 00 00 00 00 ................
00407DF0 00 00 00 00 00 00 00 00 00 00 00 00 00 00 00 00 ................
00407E00 00 00 00 00 00 00 00 00 00 00 00 00 00 00 00 00 ................
00407E10 00 00 00 00 00 00 00 00 00 00 00 00 00 00 00 00 ................
00407E20 00 00 00 00 00 00 00 00 00 00 00 00 00 00 00 00 ................
00407E30 00 00 00 00 00 00 00 00 00 00 00 00 00 00 00 00 ................
00407E40 00 00 00 00 00 00 00 00 00 00 00 00 00 00 00 00 ................
00407E50 00 00 00 00 00 00 00 00 00 00 00 00 00 00 00 00 ................
00407E60 00 00 00 00 00 00 00 00 00 00 00 00 00 00 00 00 ................
00407E70 00 00 00 00 00 00 00 00 00 00 00 00 00 00 00 00 ................
00407E80 00 00 00 00 00 00 00 00 00 00 00 00 00 00 00 00 ................
00407E90 00 00 00 00 00 00 00 00 00 00 00 00 00 00 00 00 ................
00407EA0 00 00 00 00 00 00 00 00 00 00 00 00 00 00 00 00 ................
00407EB0 00 00 00 00 00 00 00 00 00 00 00 00 00 00 00 00 ................
00407EC0 00 00 00 00 00 00 00 00 00 00 00 00 00 00 00 00 ................
00407ED0 00 00 00 00 00 00 00 00 00 00 00 00 00 00 00 00 ................
00407EE0 00 00 00 00 00 00 00 00 00 00 00 00 00 00 00 00 ................
00407EF0 00 00 00 00 00 00 00 00 00 00 00 00 00 00 00 00 ................
00407F00 00 00 00 00 00 00 00 00 00 00 00 00 00 00 00 00 ................
00407F10 00 00 00 00 00 00 00 00 00 00 00 00 00 00 00 00 ................
00407F20 00 00 00 00 00 00 00 00 00 00 00 00 00 00 00 00 ................
00407F30 00 00 00 00 00 00 00 00 00 00 00 00 00 00 00 00 ................
00407F40 00 00 00 00 00 00 00 00 00 00 00 00 00 00 00 00 ................
00407F50 00 00 00 00 00 00 00 00 00 00 00 00 00 00 00 00 ................
00407F60 00 00 00 00 00 00 00 00 00 00 00 00 00 00 00 00 ................
00407F70 00 00 00 00 00 00 00 00 00 00 00 00 00 00 00 00 ................
00407F80 00 00 00 00 00 00 00 00 00 00 00 00 00 00 00 00 ................
00407F90 00 00 00 00 00 00 00 00 00 00 00 00 00 00 00 00 ................
00407FA0 00 00 00 00 00 00 00 00 00 00 00 00 00 00 00 00 ................
00407FB0 00 00 00 00 00 00 00 00 00 00 00 00 00 00 00 00 ................
00407FC0 00 00 00 00 00 00 00 00 00 00 00 00 00 00 00 00 ................
00407FD0 00 00 00 00 00 00 00 00 00 00 00 00 00 00 00 00 ................
00407FE0 00 00 00 00 00 00 00 00 00 00 00 00 00 00 00 00 ................
00407FF0 00 00 00 00 00 00 00 00 00 00 00 00 00 00 00 00 ................
00408000 00 00 00 00 00 00 00 00 00 00 00 00 00 00 00 00 ................
00408010 00 00 00 00 00 00 00 00 00 00 00 00 00 00 00 00 ................
00408020 00 00 00 00 00 00 00 00 00 00 00 00 00 00 00 00 ................
00408030 00 00 00 00 00 00 00 00 00 00 00 00 00 00 00 00 ................
00408040 00 00 00 00 00 00 00 00 00 00 00 00 00 00 00 00 ................
00408050 00 00 00 00 00 00 00 00 00 00 00 00 00 00 00 00 ................
00408060 00 00 00 00 00 00 00 00 00 00 00 00 00 00 00 00 ................
00408070 00 00 00 00 00 00 00 00 00 00 00 00 00 00 00 00 ................
00408080 00 00 00 00 00 00 00 00 00 00 00 00 00 00 00 00 ................
00408090 00 00 00 00 00 00 00 00 00 00 00 00 00 00 00 00 ................
004080A0 00 00 00 00 00 00 00 00 00 00 00 00 00 00 00 00 ................
004080B0 00 00 00 00 00 00 00 00 00 00 00 00 00 00 00 00 ................
004080C0 00 00 00 00 00 00 00 00 00 00 00 00 00 00 00 00 ................
004080D0 00 00 00 00 00 00 00 00 00 00 00 00 00 00 00 00 ................
004080E0 00 00 00 00 00 00 00 00 00 00 00 00 00 00 00 00 ................
004080F0 00 00 00 00 00 00 00 00 00 00 00 00 00 00 00 00 ................
00408100 00 00 00 00 00 00 00 00 00 00 00 00 00 00 00 00 ................
00408110 00 00 00 00 00 00 00 00 00 00 00 00 00 00 00 00 ................
00408120 00 00 00 00 00 00 00 00 00 00 00 00 00 00 00 00 ................
00408130 00 00 00 00 00 00 00 00 00 00 00 00 00 00 00 00 ................
00408140 00 00 00 00 00 00 00 00 00 00 00 00 00 00 00 00 ................
00408150 00 00 00 00 00 00 00 00 00 00 00 00 00 00 00 00 ................
00408160 00 00 00 00 00 00 00 00 00 00 00 00 00 00 00 00 ................
00408170 00 00 00 00 00 00 00 00 00 00 00 00 00 00 00 00 ................
00408180 00 00 00 00 00 00 00 00 00 00 00 00 00 00 00 00 ................
00408190 00 00 00 00 00 00 00 00 00 00 00 00 00 00 00 00 ................
004081A0 00 00 00 00 00 00 00 00 00 00 00 00 00 00 00 00 ................
004081B0 00 00 00 00 00 00 00 00 00 00 00 00 00 00 00 00 ................
004081C0 00 00 00 00 00 00 00 00 00 00 00 00 00 00 00 00 ................
004081D0 00 00 00 00 00 00 00 00 00 00 00 00 00 00 00 00 ................
004081E0 00 00 00 00 00 00 00 00 00 00 00 00 00 00 00 00 ................
004081F0 00 00 00 00 00 00 00 00 00 00 00 00 00 00 00 00 ................
00408200 00 00 00 00 00 00 00 00 00 00 00 00 00 00 00 00 ................
00408210 00 00 00 00 00 00 00 00 00 00 00 00 00 00 00 00 ................
00408220 00 00 00 00 00 00 00 00 00 00 00 00 00 00 00 00 ................
00408230 00 00 00 00 00 00 00 00 00 00 00 00 00 00 00 00 ................
00408240 00 00 00 00 00 00 00 00 00 00 00 00 00 00 00 00 ................
00408250 00 00 00 00 00 00 00 00 00 00 00 00 00 00 00 00 ................
00408260 00 00 00 00 00 00 00 00 00 00 00 00 00 00 00 00 ................
00408270 00 00 00 00 00 00 00 00 00 00 00 00 00 00 00 00 ................
00408280 00 00 00 00 00 00 00 00 00 00 00 00 00 00 00 00 ................
00408290 00 00 00 00 00 00 00 00 00 00 00 00 00 00 00 00 ................
004082A0 00 00 00 00 00 00 00 00 00 00 00 00 00 00 00 00 ................
004082B0 00 00 00 00 00 00 00 00 00 00 00 00 00 00 00 00 ................
004082C0 00 00 00 00 00 00 00 00 00 00 00 00 00 00 00 00 ................
004082D0 00 00 00 00 00 00 00 00 00 00 00 00 00 00 00 00 ................
004082E0 00 00 00 00 00 00 00 00 00 00 00 00 00 00 00 00 ................
004082F0 00 00 00 00 00 00 00 00 00 00 00 00 00 00 00 00 ................
00408300 00 00 00 00 00 00 00 00 00 00 00 00 00 00 00 00 ................
00408310 00 00 00 00 00 00 00 00 00 00 00 00 00 00 00 00 ................
00408320 00 00 00 00 00 00 00 00 00 00 00 00 00 00 00 00 ................
00408330 00 00 00 00 00 00 00 00 00 00 00 00 00 00 00 00 ................
00408340 00 00 00 00 00 00 00 00 00 00 00 00 00 00 00 00 ................
00408350 00 00 00 00 00 00 00 00 00 00 00 00 00 00 00 00 ................
00408360 00 00 00 00 00 00 00 00 00 00 00 00 00 00 00 00 ................
00408370 00 00 00 00 00 00 00 00 00 00 00 00 00 00 00 00 ................
00408380 00 00 00 00 00 00 00 00 00 00 00 00 00 00 00 00 ................
00408390 00 00 00 00 00 00 00 00 00 00 00 00 00 00 00 00 ................
004083A0 00 00 00 00 00 00 00 00 00 00 00 00 00 00 00 00 ................
004083B0 00 00 00 00 00 00 00 00 00 00 00 00 00 00 00 00 ................
004083C0 00 00 00 00 00 00 00 00 00 00 00 00 00 00 00 00 ................
004083D0 00 00 00 00 00 00 00 00 00 00 00 00 00 00 00 00 ................
004083E0 00 00 00 00 00 00 00 00 00 00 00 00 00 00 00 00 ................
004083F0 00 00 00 00 00 00 00 00 00 00 00 00 00 00 00 00 ................
00408400 00 00 00 00 00 00 00 00 00 00 00 00 00 00 00 00 ................
00408410 00 00 00 00 00 00 00 00 00 00 00 00 00 00 00 00 ................
00408420 00 00 00 00 00 00 00 00 00 00 00 00 00 00 00 00 ................
00408430 00 00 00 00 00 00 00 00 00 00 00 00 00 00 00 00 ................
00408440 00 00 00 00 00 00 00 00 00 00 00 00 00 00 00 00 ................
00408450 00 00 00 00 00 00 00 00 00 00 00 00 00 00 00 00 ................
00408460 00 00 00 00 00 00 00 00 00 00 00 00 00 00 00 00 ................
00408470 00 00 00 00 00 00 00 00 00 00 00 00 00 00 00 00 ................
00408480 00 00 00 00 00 00 00 00 00 00 00 00 00 00 00 00 ................
00408490 00 00 00 00 00 00 00 00 00 00 00 00 00 00 00 00 ................
004084A0 00 00 00 00 00 00 00 00 00 00 00 00 00 00 00 00 ................
004084B0 00 00 00 00 00 00 00 00 00 00 00 00 00 00 00 00 ................
004084C0 00 00 00 00 00 00 00 00 00 00 00 00 00 00 00 00 ................
004084D0 00 00 00 00 00 00 00 00 00 00 00 00 00 00 00 00 ................
004084E0 00 00 00 00 00 00 00 00 00 00 00 00 00 00 00 00 ................
004084F0 00 00 00 00 00 00 00 00 00 00 00 00 00 00 00 00 ................
00408500 00 00 00 00 00 00 00 00 00 00 00 00 00 00 00 00 ................
00408510 00 00 00 00 00 00 00 00 00 00 00 00 00 00 00 00 ................
00408520 00 00 00 00 00 00 00 00 00 00 00 00 00 00 00 00 ................
00408530 00 00 00 00 00 00 00 00 00 00 00 00 00 00 00 00 ................
00408540 00 00 00 00 00 00 00 00 00 00 00 00 00 00 00 00 ................
00408550 00 00 00 00 00 00 00 00 00 00 00 00 00 00 00 00 ................
00408560 00 00 00 00 00 00 00 00 00 00 00 00 00 00 00 00 ................
00408570 00 00 00 00 00 00 00 00 00 00 00 00 00 00 00 00 ................
00408580 00 00 00 00 00 00 00 00 00 00 00 00 00 00 00 00 ................
00408590 00 00 00 00 00 00 00 00 00 00 00 00 00 00 00 00 ................
004085A0 00 00 00 00 00 00 00 00 00 00 00 00 00 00 00 00 ................
004085B0 00 00 00 00 00 00 00 00 00 00 00 00 00 00 00 00 ................
004085C0 00 00 00 00 00 00 00 00 00 00 00 00 00 00 00 00 ................
004085D0 00 00 00 00 00 00 00 00 00 00 00 00 00 00 00 00 ................
004085E0 00 00 00 00 00 00 00 00 00 00 00 00 00 00 00 00 ................
004085F0 00 00 00 00 00 00 00 00 00 00 00 00 00 00 00 00 ................
00408600 00 00 00 00 00 00 00 00 00 00 00 00 00 00 00 00 ................
00408610 00 00 00 00 00 00 00 00 00 00 00 00 00 00 00 00 ................
00408620 00 00 00 00 00 00 00 00 00 00 00 00 00 00 00 00 ................
00408630 00 00 00 00 00 00 00 00 00 00 00 00 00 00 00 00 ................
00408640 00 00 00 00 00 00 00 00 00 00 00 00 00 00 00 00 ................
00408650 00 00 00 00 00 00 00 00 00 00 00 00 00 00 00 00 ................
00408660 00 00 00 00 00 00 00 00 00 00 00 00 00 00 00 00 ................
00408670 00 00 00 00 00 00 00 00 00 00 00 00 00 00 00 00 ................
00408680 00 00 00 00 00 00 00 00 00 00 00 00 00 00 00 00 ................
00408690 00 00 00 00 00 00 00 00 00 00 00 00 00 00 00 00 ................
004086A0 00 00 00 00 00 00 00 00 00 00 00 00 00 00 00 00 ................
004086B0 00 00 00 00 00 00 00 00 00 00 00 00 00 00 00 00 ................
004086C0 00 00 00 00 00 00 00 00 00 00 00 00 00 00 00 00 ................
004086D0 00 00 00 00 00 00 00 00 00 00 00 00 00 00 00 00 ................
004086E0 00 00 00 00 00 00 00 00 00 00 00 00 00 00 00 00 ................
004086F0 00 00 00 00 00 00 00 00 00 00 00 00 00 00 00 00 ................
00408700 00 00 00 00 00 00 00 00 00 00 00 00 00 00 00 00 ................
00408710 00 00 00 00 00 00 00 00 00 00 00 00 00 00 00 00 ................
00408720 00 00 00 00 00 00 00 00 00 00 00 00 00 00 00 00 ................
00408730 00 00 00 00 00 00 00 00 00 00 00 00 00 00 00 00 ................
00408740 00 00 00 00 00 00 00 00 00 00 00 00 00 00 00 00 ................
00408750 00 00 00 00 00 00 00 00 00 00 00 00 00 00 00 00 ................
00408760 00 00 00 00 00 00 00 00 00 00 00 00 00 00 00 00 ................
00408770 00 00 00 00 00 00 00 00 00 00 00 00 00 00 00 00 ................
00408780 00 00 00 00 00 00 00 00 00 00 00 00 00 00 00 00 ................
00408790 00 00 00 00 00 00 00 00 00 00 00 00 00 00 00 00 ................
004087A0 00 00 00 00 00 00 00 00 00 00 00 00 00 00 00 00 ................
004087B0 00 00 00 00 00 00 00 00 00 00 00 00 00 00 00 00 ................
004087C0 00 00 00 00 00 00 00 00 00 00 00 00 00 00 00 00 ................
004087D0 00 00 00 00 00 00 00 00 00 00 00 00 00 00 00 00 ................
004087E0 00 00 00 00 00 00 00 00 00 00 00 00 00 00 00 00 ................
004087F0 00 00 00 00 00 00 00 00 00 00 00 00 00 00 00 00 ................
00408800 00 00 00 00 00 00 00 00 00 00 00 00 00 00 00 00 ................
00408810 00 00 00 00 00 00 00 00 00 00 00 00 00 00 00 00 ................
00408820 00 00 00 00 00 00 00 00 00 00 00 00 00 00 00 00 ................
00408830 00 00 00 00 00 00 00 00 00 00 00 00 00 00 00 00 ................
00408840 00 00 00 00 00 00 00 00 00 00 00 00 00 00 00 00 ................
00408850 00 00 00 00 00 00 00 00 00 00 00 00 00 00 00 00 ................
00408860 00 00 00 00 00 00 00 00 00 00 00 00 00 00 00 00 ................
00408870 00 00 00 00 00 00 00 00 00 00 00 00 00 00 00 00 ................
00408880 00 00 00 00 00 00 00 00 00 00 00 00 00 00 00 00 ................
00408890 00 00 00 00 00 00 00 00 00 00 00 00 00 00 00 00 ................
004088A0 00 00 00 00 00 00 00 00 00 00 00 00 00 00 00 00 ................
004088B0 00 00 00 00 00 00 00 00 00 00 00 00 00 00 00 00 ................
004088C0 00 00 00 00 00 00 00 00 00 00 00 00 00 00 00 00 ................
004088D0 00 00 00 00 00 00 00 00 00 00 00 00 00 00 00 00 ................
004088E0 00 00 00 00 00 00 00 00 00 00 00 00 00 00 00 00 ................
004088F0 00 00 00 00 00 00 00 00 00 00 00 00 00 00 00 00 ................
00408900 00 00 00 00 00 00 00 00 00 00 00 00 00 00 00 00 ................
00408910 00 00 00 00 00 00 00 00 00 00 00 00 00 00 00 00 ................
00408920 00 00 00 00 00 00 00 00 00 00 00 00 00 00 00 00 ................
00408930 00 00 00 00 00 00 00 00 00 00 00 00 00 00 00 00 ................
00408940 00 00 00 00 00 00 00 00 00 00 00 00 00 00 00 00 ................
00408950 00 00 00 00 00 00 00 00 00 00 00 00 00 00 00 00 ................
00408960 00 00 00 00 00 00 00 00 00 00 00 00 00 00 00 00 ................
00408970 00 00 00 00 00 00 00 00 00 00 00 00 00 00 00 00 ................
00408980 00 00 00 00 00 00 00 00 00 00 00 00 00 00 00 00 ................
00408990 00 00 00 00 00 00 00 00 00 00 00 00 00 00 00 00 ................
004089A0 00 00 00 00 00 00 00 00 00 00 00 00 00 00 00 00 ................
004089B0 00 00 00 00 00 00 00 00 00 00 00 00 00 00 00 00 ................
004089C0 00 00 00 00 00 00 00 00 00 00 00 00 00 00 00 00 ................
004089D0 00 00 00 00 00 00 00 00 00 00 00 00 00 00 00 00 ................
004089E0 00 00 00 00 00 00 00 00 00 00 00 00 00 00 00 00 ................
004089F0 00 00 00 00 00 00 00 00 00 00 00 00 00 00 00 00 ................
00408A00 00 00 00 00 00 00 00 00 00 00 00 00 00 00 00 00 ................
00408A10 00 00 00 00 00 00 00 00 00 00 00 00 00 00 00 00 ................
00408A20 00 00 00 00 00 00 00 00 00 00 00 00 00 00 00 00 ................
00408A30 00 00 00 00 00 00 00 00 00 00 00 00 00 00 00 00 ................
00408A40 00 00 00 00 00 00 00 00 00 00 00 00 00 00 00 00 ................
00408A50 00 00 00 00 00 00 00 00 00 00 00 00 00 00 00 00 ................
00408A60 00 00 00 00 00 00 00 00 00 00 00 00 00 00 00 00 ................
00408A70 00 00 00 00 00 00 00 00 00 00 00 00 00 00 00 00 ................
00408A80 00 00 00 00 00 00 00 00 00 00 00 00 00 00 00 00 ................
00408A90 00 00 00 00 00 00 00 00 00 00 00 00 00 00 00 00 ................
00408AA0 00 00 00 00 00 00 00 00 00 00 00 00 00 00 00 00 ................
00408AB0 00 00 00 00 00 00 00 00 00 00 00 00 00 00 00 00 ................
00408AC0 00 00 00 00 00 00 00 00 00 00 00 00 00 00 00 00 ................
00408AD0 00 00 00 00 00 00 00 00 00 00 00 00 00 00 00 00 ................
00408AE0 00 00 00 00 00 00 00 00 00 00 00 00 00 00 00 00 ................
00408AF0 00 00 00 00 00 00 00 00 00 00 00 00 00 00 00 00 ................
00408B00 00 00 00 00 00 00 00 00 00 00 00 00 00 00 00 00 ................
00408B10 00 00 00 00 00 00 00 00 00 00 00 00 00 00 00 00 ................
00408B20 00 00 00 00 00 00 00 00 00 00 00 00 00 00 00 00 ................
00408B30 00 00 00 00 00 00 00 00 00 00 00 00 00 00 00 00 ................
00408B40 00 00 00 00 00 00 00 00 00 00 00 00 00 00 00 00 ................
00408B50 00 00 00 00 00 00 00 00 00 00 00 00 00 00 00 00 ................
00408B60 00 00 00 00 00 00 00 00 00 00 00 00 00 00 00 00 ................
00408B70 00 00 00 00 00 00 00 00 00 00 00 00 00 00 00 00 ................
00408B80 00 00 00 00 00 00 00 00 00 00 00 00 00 00 00 00 ................
00408B90 00 00 00 00 00 00 00 00 00 00 00 00 00 00 00 00 ................
00408BA0 00 00 00 00 00 00 00 00 00 00 00 00 00 00 00 00 ................
00408BB0 00 00 00 00 00 00 00 00 00 00 00 00 00 00 00 00 ................
00408BC0 00 00 00 00 00 00 00 00 00 00 00 00 00 00 00 00 ................
00408BD0 00 00 00 00 00 00 00 00 00 00 00 00 00 00 00 00 ................
00408BE0 00 00 00 00 00 00 00 00 00 00 00 00 00 00 00 00 ................
00408BF0 00 00 00 00 00 00 00 00 00 00 00 00 00 00 00 00 ................
00408C00 00 00 00 00 00 00 00 00 00 00 00 00 00 00 00 00 ................
00408C10 00 00 00 00 00 00 00 00 00 00 00 00 00 00 00 00 ................
00408C20 00 00 00 00 00 00 00 00 00 00 00 00 00 00 00 00 ................
00408C30 00 00 00 00 00 00 00 00 00 00 00 00 00 00 00 00 ................
00408C40 00 00 00 00 00 00 00 00 00 00 00 00 00 00 00 00 ................
00408C50 00 00 00 00 00 00 00 00 00 00 00 00 00 00 00 00 ................
00408C60 00 00 00 00 00 00 00 00 00 00 00 00 00 00 00 00 ................
00408C70 00 00 00 00 00 00 00 00 00 00 00 00 00 00 00 00 ................
00408C80 00 00 00 00 00 00 00 00 00 00 00 00 00 00 00 00 ................
00408C90 00 00 00 00 00 00 00 00 00 00 00 00 00 00 00 00 ................
00408CA0 00 00 00 00 00 00 00 00 00 00 00 00 00 00 00 00 ................
00408CB0 00 00 00 00 00 00 00 00 00 00 00 00 00 00 00 00 ................
00408CC0 00 00 00 00 00 00 00 00 00 00 00 00 00 00 00 00 ................
00408CD0 00 00 00 00 00 00 00 00 00 00 00 00 00 00 00 00 ................
00408CE0 00 00 00 00 00 00 00 00 00 00 00 00 00 00 00 00 ................
00408CF0 00 00 00 00 00 00 00 00 00 00 00 00 00 00 00 00 ................
00408D00 00 00 00 00 00 00 00 00 00 00 00 00 00 00 00 00 ................
00408D10 00 00 00 00 00 00 00 00 00 00 00 00 00 00 00 00 ................
00408D20 00 00 00 00 00 00 00 00 00 00 00 00 00 00 00 00 ................
00408D30 00 00 00 00 00 00 00 00 00 00 00 00 00 00 00 00 ................
00408D40 00 00 00 00 00 00 00 00 00 00 00 00 00 00 00 00 ................
00408D50 00 00 00 00 00 00 00 00 00 00 00 00 00 00 00 00 ................
00408D60 00 00 00 00 00 00 00 00 00 00 00 00 00 00 00 00 ................
00408D70 00 00 00 00 00 00 00 00 00 00 00 00 00 00 00 00 ................
00408D80 00 00 00 00 00 00 00 00 00 00 00 00 00 00 00 00 ................
00408D90 00 00 00 00 00 00 00 00 00 00 00 00 00 00 00 00 ................
00408DA0 00 00 00 00 00 00 00 00 00 00 00 00 00 00 00 00 ................
00408DB0 00 00 00 00 00 00 00 00 00 00 00 00 00 00 00 00 ................
00408DC0 00 00 00 00 00 00 00 00 00 00 00 00 00 00 00 00 ................
00408DD0 00 00 00 00 00 00 00 00 00 00 00 00 00 00 00 00 ................
00408DE0 00 00 00 00 00 00 00 00 00 00 00 00 00 00 00 00 ................
00408DF0 00 00 00 00 00 00 00 00 00 00 00 00 00 00 00 00 ................
00408E00 00 00 00 00 00 00 00 00 00 00 00 00 00 00 00 00 ................
00408E10 00 00 00 00 00 00 00 00 00 00 00 00 00 00 00 00 ................
00408E20 00 00 00 00 00 00 00 00 00 00 00 00 00 00 00 00 ................
00408E30 00 00 00 00 00 00 00 00 00 00 00 00 00 00 00 00 ................
00408E40 00 00 00 00 00 00 00 00 00 00 00 00 00 00 00 00 ................
00408E50 00 00 00 00 00 00 00 00 00 00 00 00 00 00 00 00 ................
00408E60 00 00 00 00 00 00 00 00 00 00 00 00 00 00 00 00 ................
00408E70 00 00 00 00 00 00 00 00 00 00 00 00 00 00 00 00 ................
00408E80 00 00 00 00 00 00 00 00 00 00 00 00 00 00 00 00 ................
00408E90 00 00 00 00 00 00 00 00 00 00 00 00 00 00 00 00 ................
00408EA0 00 00 00 00 00 00 00 00 00 00 00 00 00 00 00 00 ................
00408EB0 00 00 00 00 00 00 00 00 00 00 00 00 00 00 00 00 ................
00408EC0 00 00 00 00 00 00 00 00 00 00 00 00 00 00 00 00 ................
00408ED0 00 00 00 00 00 00 00 00 00 00 00 00 00 00 00 00 ................
00408EE0 00 00 00 00 00 00 00 00 00 00 00 00 00 00 00 00 ................
00408EF0 00 00 00 00 00 00 00 00 00 00 00 00 00 00 00 00 ................
00408F00 00 00 00 00 00 00 00 00 00 00 00 00 00 00 00 00 ................
00408F10 00 00 00 00 00 00 00 00 00 00 00 00 00 00 00 00 ................
00408F20 00 00 00 00 00 00 00 00 00 00 00 00 00 00 00 00 ................
00408F30 00 00 00 00 00 00 00 00 00 00 00 00 00 00 00 00 ................
00408F40 00 00 00 00 00 00 00 00 00 00 00 00 00 00 00 00 ................
00408F50 00 00 00 00 00 00 00 00 00 00 00 00 00 00 00 00 ................
00408F60 00 00 00 00 00 00 00 00 00 00 00 00 00 00 00 00 ................
00408F70 00 00 00 00 00 00 00 00 00 00 00 00 00 00 00 00 ................
00408F80 00 00 00 00 00 00 00 00 00 00 00 00 00 00 00 00 ................
00408F90 00 00 00 00 00 00 00 00 00 00 00 00 00 00 00 00 ................
00408FA0 00 00 00 00 00 00 00 00 00 00 00 00 00 00 00 00 ................
00408FB0 00 00 00 00 00 00 00 00 00 00 00 00 00 00 00 00 ................
00408FC0 00 00 00 00 00 00 00 00 00 00 00 00 00 00 00 00 ................
00408FD0 00 00 00 00 00 00 00 00 00 00 00 00 00 00 00 00 ................
00408FE0 00 00 00 00 00 00 00 00 00 00 00 00 00 00 00 00 ................
00408FF0 00 00 00 00 00 00 00 00 00 00 00 00 00 00 00 00 ................
00409000 00 00 00 00 00 00 00 00 00 00 00 00 00 00 00 00 ................
00409010 00 00 00 00 00 00 00 00 00 00 00 00 00 00 00 00 ................
00409020 00 00 00 00 00 00 00 00 00 00 00 00 00 00 00 00 ................
00409030 00 00 00 00 00 00 00 00 00 00 00 00 00 00 00 00 ................
00409040 00 00 00 00 00 00 00 00 00 00 00 00 00 00 00 00 ................
00409050 00 00 00 00 00 00 00 00 00 00 00 00 00 00 00 00 ................
00409060 00 00 00 00 00 00 00 00 00 00 00 00 00 00 00 00 ................
00409070 00 00 00 00 00 00 00 00 00 00 00 00 00 00 00 00 ................
00409080 00 00 00 00 00 00 00 00 00 00 00 00 00 00 00 00 ................
00409090 00 00 00 00 00 00 00 00 00 00 00 00 00 00 00 00 ................
004090A0 00 00 00 00 00 00 00 00 00 00 00 00 00 00 00 00 ................
004090B0 00 00 00 00 00 00 00 00 00 00 00 00 00 00 00 00 ................
004090C0 00 00 00 00 00 00 00 00 00 00 00 00 00 00 00 00 ................
004090D0 00 00 00 00 00 00 00 00 00 00 00 00 00 00 00 00 ................
004090E0 00 00 00 00 00 00 00 00 00 00 00 00 00 00 00 00 ................
004090F0 00 00 00 00 00 00 00 00 00 00 00 00 00 00 00 00 ................
00409100 00 00 00 00 00 00 00 00 00 00 00 00 00 00 00 00 ................
00409110 00 00 00 00 00 00 00 00 00 00 00 00 00 00 00 00 ................
00409120 00 00 00 00 00 00 00 00 00 00 00 00 00 00 00 00 ................
00409130 00 00 00 00 00 00 00 00 00 00 00 00 00 00 00 00 ................
00409140 00 00 00 00 00 00 00 00 00 00 00 00 00 00 00 00 ................
00409150 00 00 00 00 00 00 00 00 00 00 00 00 00 00 00 00 ................
00409160 00 00 00 00 00 00 00 00 00 00 00 00 00 00 00 00 ................
00409170 00 00 00 00 00 00 00 00 00 00 00 00 00 00 00 00 ................
00409180 00 00 00 00 00 00 00 00 00 00 00 00 00 00 00 00 ................
00409190 00 00 00 00 00 00 00 00 00 00 00 00 00 00 00 00 ................
004091A0 00 00 00 00 00 00 00 00 00 00 00 00 00 00 00 00 ................
004091B0 00 00 00 00 00 00 00 00 00 00 00 00 00 00 00 00 ................
004091C0 00 00 00 00 00 00 00 00 00 00 00 00 00 00 00 00 ................
004091D0 00 00 00 00 00 00 00 00 00 00 00 00 00 00 00 00 ................
004091E0 00 00 00 00 00 00 00 00 00 00 00 00 00 00 00 00 ................
004091F0 00 00 00 00 00 00 00 00 00 00 00 00 00 00 00 00 ................
00409200 00 00 00 00 00 00 00 00 00 00 00 00 00 00 00 00 ................
00409210 00 00 00 00 00 00 00 00 00 00 00 00 00 00 00 00 ................
00409220 00 00 00 00 00 00 00 00 00 00 00 00 00 00 00 00 ................
00409230 00 00 00 00 00 00 00 00 00 00 00 00 00 00 00 00 ................
00409240 00 00 00 00 00 00 00 00 00 00 00 00 00 00 00 00 ................
00409250 00 00 00 00 00 00 00 00 00 00 00 00 00 00 00 00 ................
00409260 00 00 00 00 00 00 00 00 00 00 00 00 00 00 00 00 ................
00409270 00 00 00 00 00 00 00 00 00 00 00 00 00 00 00 00 ................
00409280 00 00 00 00 00 00 00 00 00 00 00 00 00 00 00 00 ................
00409290 00 00 00 00 00 00 00 00 00 00 00 00 00 00 00 00 ................
004092A0 00 00 00 00 00 00 00 00 00 00 00 00 00 00 00 00 ................
004092B0 00 00 00 00 00 00 00 00 00 00 00 00 00 00 00 00 ................
004092C0 00 00 00 00 00 00 00 00 00 00 00 00 00 00 00 00 ................
004092D0 00 00 00 00 00 00 00 00 00 00 00 00 00 00 00 00 ................
004092E0 00 00 00 00 00 00 00 00 00 00 00 00 00 00 00 00 ................
004092F0 00 00 00 00 00 00 00 00 00 00 00 00 00 00 00 00 ................
00409300 00 00 00 00 00 00 00 00 00 00 00 00 00 00 00 00 ................
00409310 00 00 00 00 00 00 00 00 00 00 00 00 00 00 00 00 ................
00409320 00 00 00 00 00 00 00 00 00 00 00 00 00 00 00 00 ................
00409330 00 00 00 00 00 00 00 00 00 00 00 00 00 00 00 00 ................
00409340 00 00 00 00 00 00 00 00 00 00 00 00 00 00 00 00 ................
00409350 00 00 00 00 00 00 00 00 00 00 00 00 00 00 00 00 ................
00409360 00 00 00 00 00 00 00 00 00 00 00 00 00 00 00 00 ................
00409370 00 00 00 00 00 00 00 00 00 00 00 00 00 00 00 00 ................
00409380 00 00 00 00 00 00 00 00 00 00 00 00 00 00 00 00 ................
00409390 00 00 00 00 00 00 00 00 00 00 00 00 00 00 00 00 ................
004093A0 00 00 00 00 00 00 00 00 00 00 00 00 00 00 00 00 ................
004093B0 00 00 00 00 00 00 00 00 00 00 00 00 00 00 00 00 ................
004093C0 00 00 00 00 00 00 00 00 00 00 00 00 00 00 00 00 ................
004093D0 00 00 00 00 00 00 00 00 00 00 00 00 00 00 00 00 ................
004093E0 00 00 00 00 00 00 00 00 00 00 00 00 00 00 00 00 ................
004093F0 00 00 00 00 00 00 00 00 00 00 00 00 00 00 00 00 ................
00409400 00 00 00 00 00 00 00 00 00 00 00 00 00 00 00 00 ................
00409410 00 00 00 00 00 00 00 00 00 00 00 00 00 00 00 00 ................
00409420 00 00 00 00 00 00 00 00 00 00 00 00 00 00 00 00 ................
00409430 00 00 00 00 00 00 00 00 00 00 00 00 00 00 00 00 ................
00409440 00 00 00 00 00 00 00 00 00 00 00 00 00 00 00 00 ................
00409450 00 00 00 00 00 00 00 00 00 00 00 00 00 00 00 00 ................
00409460 00 00 00 00 00 00 00 00 00 00 00 00 00 00 00 00 ................
00409470 00 00 00 00 00 00 00 00 00 00 00 00 00 00 00 00 ................
00409480 00 00 00 00 00 00 00 00 00 00 00 00 00 00 00 00 ................
00409490 00 00 00 00 00 00 00 00 00 00 00 00 00 00 00 00 ................
004094A0 00 00 00 00 00 00 00 00 00 00 00 00 00 00 00 00 ................
004094B0 00 00 00 00 00 00 00 00 00 00 00 00 00 00 00 00 ................
004094C0 00 00 00 00 00 00 00 00 00 00 00 00 00 00 00 00 ................
004094D0 00 00 00 00 00 00 00 00 00 00 00 00 00 00 00 00 ................
004094E0 00 00 00 00 00 00 00 00 00 00 00 00 00 00 00 00 ................
004094F0 00 00 00 00 00 00 00 00 00 00 00 00 00 00 00 00 ................
00409500 00 00 00 00 00 00 00 00 00 00 00 00 00 00 00 00 ................
00409510 00 00 00 00 00 00 00 00 00 00 00 00 00 00 00 00 ................
00409520 00 00 00 00 00 00 00 00 00 00 00 00 00 00 00 00 ................
00409530 00 00 00 00 00 00 00 00 00 00 00 00 00 00 00 00 ................
00409540 00 00 00 00 00 00 00 00 00 00 00 00 00 00 00 00 ................
00409550 00 00 00 00 00 00 00 00 00 00 00 00 00 00 00 00 ................
00409560 00 00 00 00 00 00 00 00 00 00 00 00 00 00 00 00 ................
00409570 00 00 00 00 00 00 00 00 00 00 00 00 00 00 00 00 ................
00409580 00 00 00 00 00 00 00 00 00 00 00 00 00 00 00 00 ................
00409590 00 00 00 00 00 00 00 00 00 00 00 00 00 00 00 00 ................
004095A0 00 00 00 00 00 00 00 00 00 00 00 00 00 00 00 00 ................
004095B0 00 00 00 00 00 00 00 00 00 00 00 00 00 00 00 00 ................
004095C0 00 00 00 00 00 00 00 00 00 00 00 00 00 00 00 00 ................
004095D0 00 00 00 00 00 00 00 00 00 00 00 00 00 00 00 00 ................
004095E0 00 00 00 00 00 00 00 00 00 00 00 00 00 00 00 00 ................
004095F0 00 00 00 00 00 00 00 00 00 00 00 00 00 00 00 00 ................
00409600 00 00 00 00 00 00 00 00 00 00 00 00 00 00 00 00 ................
00409610 00 00 00 00 00 00 00 00 00 00 00 00 00 00 00 00 ................
00409620 00 00 00 00 00 00 00 00 00 00 00 00 00 00 00 00 ................
00409630 00 00 00 00 00 00 00 00 00 00 00 00 00 00 00 00 ................
00409640 00 00 00 00 00 00 00 00 00 00 00 00 00 00 00 00 ................
00409650 00 00 00 00 00 00 00 00 00 00 00 00 00 00 00 00 ................
00409660 00 00 00 00 00 00 00 00 00 00 00 00 00 00 00 00 ................
00409670 00 00 00 00 00 00 00 00 00 00 00 00 00 00 00 00 ................
00409680 00 00 00 00 00 00 00 00 00 00 00 00 00 00 00 00 ................
00409690 00 00 00 00 00 00 00 00 00 00 00 00 00 00 00 00 ................
004096A0 00 00 00 00 00 00 00 00 00 00 00 00 00 00 00 00 ................
004096B0 00 00 00 00 00 00 00 00 00 00 00 00 00 00 00 00 ................
004096C0 00 00 00 00 00 00 00 00 00 00 00 00 00 00 00 00 ................
004096D0 00 00 00 00 00 00 00 00 00 00 00 00 00 00 00 00 ................
004096E0 00 00 00 00 00 00 00 00 00 00 00 00 00 00 00 00 ................
004096F0 00 00 00 00 00 00 00 00 00 00 00 00 00 00 00 00 ................
00409700 00 00 00 00 00 00 00 00 00 00 00 00 00 00 00 00 ................
00409710 00 00 00 00 00 00 00 00 00 00 00 00 00 00 00 00 ................
00409720 00 00 00 00 00 00 00 00 00 00 00 00 00 00 00 00 ................
00409730 00 00 00 00 00 00 00 00 00 00 00 00 00 00 00 00 ................
00409740 00 00 00 00 00 00 00 00 00 00 00 00 00 00 00 00 ................
00409750 00 00 00 00 00 00 00 00 00 00 00 00 00 00 00 00 ................
00409760 00 00 00 00 00 00 00 00 00 00 00 00 00 00 00 00 ................
00409770 00 00 00 00 00 00 00 00 00 00 00 00 00 00 00 00 ................
00409780 00 00 00 00 00 00 00 00 00 00 00 00 00 00 00 00 ................
00409790 00 00 00 00 00 00 00 00 00 00 00 00 00 00 00 00 ................
004097A0 00 00 00 00 00 00 00 00 00 00 00 00 00 00 00 00 ................
004097B0 00 00 00 00 00 00 00 00 00 00 00 00 00 00 00 00 ................
004097C0 00 00 00 00 00 00 00 00 00 00 00 00 00 00 00 00 ................
004097D0 00 00 00 00 00 00 00 00 00 00 00 00 00 00 00 00 ................
004097E0 00 00 00 00 00 00 00 00 00 00 00 00 00 00 00 00 ................
004097F0 00 00 00 00 00 00 00 00 00 00 00 00 00 00 00 00 ................
00409800 00 00 00 00 00 00 00 00 00 00 00 00 00 00 00 00 ................
00409810 00 00 00 00 00 00 00 00 00 00 00 00 00 00 00 00 ................
00409820 00 00 00 00 00 00 00 00 00 00 00 00 00 00 00 00 ................
00409830 00 00 00 00 00 00 00 00 00 00 00 00 00 00 00 00 ................
00409840 00 00 00 00 00 00 00 00 00 00 00 00 00 00 00 00 ................
00409850 00 00 00 00 00 00 00 00 00 00 00 00 00 00 00 00 ................
00409860 00 00 00 00 00 00 00 00 00 00 00 00 00 00 00 00 ................
00409870 00 00 00 00 00 00 00 00 00 00 00 00 00 00 00 00 ................
00409880 00 00 00 00 00 00 00 00 00 00 00 00 00 00 00 00 ................
00409890 00 00 00 00 00 00 00 00 00 00 00 00 00 00 00 00 ................
004098A0 00 00 00 00 00 00 00 00 00 00 00 00 00 00 00 00 ................
004098B0 00 00 00 00 00 00 00 00 00 00 00 00 00 00 00 00 ................
004098C0 00 00 00 00 00 00 00 00 00 00 00 00 00 00 00 00 ................
004098D0 00 00 00 00 00 00 00 00 00 00 00 00 00 00 00 00 ................
004098E0 00 00 00 00 00 00 00 00 00 00 00 00 00 00 00 00 ................
004098F0 00 00 00 00 00 00 00 00 00 00 00 00 00 00 00 00 ................
00409900 00 00 00 00 00 00 00 00 00 00 00 00 00 00 00 00 ................
00409910 00 00 00 00 00 00 00 00 00 00 00 00 00 00 00 00 ................
00409920 00 00 00 00 00 00 00 00 00 00 00 00 00 00 00 00 ................
00409930 00 00 00 00 00 00 00 00 00 00 00 00 00 00 00 00 ................
00409940 00 00 00 00 00 00 00 00 00 00 00 00 00 00 00 00 ................
00409950 00 00 00 00 00 00 00 00 00 00 00 00 00 00 00 00 ................
00409960 00 00 00 00 00 00 00 00 00 00 00 00 00 00 00 00 ................
00409970 00 00 00 00 00 00 00 00 00 00 00 00 00 00 00 00 ................
00409980 00 00 00 00 00 00 00 00 00 00 00 00 00 00 00 00 ................
00409990 00 00 00 00 00 00 00 00 00 00 00 00 00 00 00 00 ................
004099A0 00 00 00 00 00 00 00 00 00 00 00 00 00 00 00 00 ................
004099B0 00 00 00 00 00 00 00 00 00 00 00 00 00 00 00 00 ................
004099C0 00 00 00 00 00 00 00 00 00 00 00 00 00 00 00 00 ................
004099D0 00 00 00 00 00 00 00 00 00 00 00 00 00 00 00 00 ................
004099E0 00 00 00 00 00 00 00 00 00 00 00 00 00 00 00 00 ................
004099F0 00 00 00 00 00 00 00 00 00 00 00 00 00 00 00 00 ................
00409A00 00 00 00 00 00 00 00 00 00 00 00 00 00 00 00 00 ................
00409A10 00 00 00 00 00 00 00 00 00 00 00 00 00 00 00 00 ................
00409A20 00 00 00 00 00 00 00 00 00 00 00 00 00 00 00 00 ................
00409A30 00 00 00 00 00 00 00 00 00 00 00 00 00 00 00 00 ................
00409A40 00 00 00 00 00 00 00 00 00 00 00 00 00 00 00 00 ................
00409A50 00 00 00 00 00 00 00 00 00 00 00 00 00 00 00 00 ................
00409A60 00 00 00 00 00 00 00 00 00 00 00 00 00 00 00 00 ................
00409A70 00 00 00 00 00 00 00 00 00 00 00 00 00 00 00 00 ................
00409A80 00 00 00 00 00 00 00 00 00 00 00 00 00 00 00 00 ................
00409A90 00 00 00 00 00 00 00 00 00 00 00 00 00 00 00 00 ................
00409AA0 00 00 00 00 00 00 00 00 00 00 00 00 00 00 00 00 ................
00409AB0 00 00 00 00 00 00 00 00 00 00 00 00 00 00 00 00 ................
00409AC0 00 00 00 00 00 00 00 00 00 00 00 00 00 00 00 00 ................
00409AD0 00 00 00 00 00 00 00 00 00 00 00 00 00 00 00 00 ................
00409AE0 00 00 00 00 00 00 00 00 00 00 00 00 00 00 00 00 ................
00409AF0 00 00 00 00 00 00 00 00 00 00 00 00 00 00 00 00 ................
00409B00 00 00 00 00 00 00 00 00 00 00 00 00 00 00 00 00 ................
00409B10 00 00 00 00 00 00 00 00 00 00 00 00 00 00 00 00 ................
00409B20 00 00 00 00 00 00 00 00 00 00 00 00 00 00 00 00 ................
00409B30 00 00 00 00 00 00 00 00 00 00 00 00 00 00 00 00 ................
00409B40 00 00 00 00 00 00 00 00 00 00 00 00 00 00 00 00 ................
00409B50 00 00 00 00 00 00 00 00 00 00 00 00 00 00 00 00 ................
00409B60 00 00 00 00 00 00 00 00 00 00 00 00 00 00 00 00 ................
00409B70 00 00 00 00 00 00 00 00 00 00 00 00 00 00 00 00 ................
00409B80 00 00 00 00 00 00 00 00 00 00 00 00 00 00 00 00 ................
00409B90 00 00 00 00 00 00 00 00 00 00 00 00 00 00 00 00 ................
00409BA0 00 00 00 00 00 00 00 00 00 00 00 00 00 00 00 00 ................
00409BB0 00 00 00 00 00 00 00 00 00 00 00 00 00 00 00 00 ................
00409BC0 00 00 00 00 00 00 00 00 00 00 00 00 00 00 00 00 ................
00409BD0 00 00 00 00 00 00 00 00 00 00 00 00 00 00 00 00 ................
00409BE0 00 00 00 00 00 00 00 00 00 00 00 00 00 00 00 00 ................
00409BF0 00 00 00 00 00 00 00 00 00 00 00 00 00 00 00 00 ................
00409C00 00 00 00 00 00 00 00 00 00 00 00 00 00 00 00 00 ................
00409C10 00 00 00 00 00 00 00 00 00 00 00 00 00 00 00 00 ................
00409C20 00 00 00 00 00 00 00 00 00 00 00 00 00 00 00 00 ................
00409C30 00 00 00 00 00 00 00 00 00 00 00 00 00 00 00 00 ................
00409C40 00 00 00 00 00 00 00 00 00 00 00 00 00 00 00 00 ................
00409C50 00 00 00 00 00 00 00 00 00 00 00 00 00 00 00 00 ................
00409C60 00 00 00 00 00 00 00 00 00 00 00 00 00 00 00 00 ................
00409C70 00 00 00 00 00 00 00 00 00 00 00 00 00 00 00 00 ................
00409C80 00 00 00 00 00 00 00 00 00 00 00 00 00 00 00 00 ................
00409C90 00 00 00 00 00 00 00 00 00 00 00 00 00 00 00 00 ................
00409CA0 00 00 00 00 00 00 00 00 00 00 00 00 00 00 00 00 ................
00409CB0 00 00 00 00 00 00 00 00 00 00 00 00 00 00 00 00 ................
00409CC0 00 00 00 00 00 00 00 00 00 00 00 00 00 00 00 00 ................
00409CD0 00 00 00 00 00 00 00 00 00 00 00 00 00 00 00 00 ................
00409CE0 00 00 00 00 00 00 00 00 00 00 00 00 00 00 00 00 ................
00409CF0 00 00 00 00 00 00 00 00 00 00 00 00 00 00 00 00 ................
00409D00 00 00 00 00 00 00 00 00 00 00 00 00 00 00 00 00 ................
00409D10 00 00 00 00 00 00 00 00 00 00 00 00 00 00 00 00 ................
00409D20 00 00 00 00 00 00 00 00 00 00 00 00 00 00 00 00 ................
00409D30 00 00 00 00 00 00 00 00 00 00 00 00 00 00 00 00 ................
00409D40 00 00 00 00 00 00 00 00 00 00 00 00 00 00 00 00 ................
00409D50 00 00 00 00 00 00 00 00 00 00 00 00 00 00 00 00 ................
00409D60 00 00 00 00 00 00 00 00 00 00 00 00 00 00 00 00 ................
00409D70 00 00 00 00 00 00 00 00 00 00 00 00 00 00 00 00 ................
00409D80 00 00 00 00 00 00 00 00 00 00 00 00 00 00 00 00 ................
00409D90 00 00 00 00 00 00 00 00 00 00 00 00 00 00 00 00 ................
00409DA0 00 00 00 00 00 00 00 00 00 00 00 00 00 00 00 00 ................
00409DB0 00 00 00 00 00 00 00 00 00 00 00 00 00 00 00 00 ................
00409DC0 00 00 00 00 00 00 00 00 00 00 00 00 00 00 00 00 ................
00409DD0 00 00 00 00 00 00 00 00 00 00 00 00 00 00 00 00 ................
00409DE0 00 00 00 00 00 00 00 00 00 00 00 00 00 00 00 00 ................
00409DF0 00 00 00 00 00 00 00 00 00 00 00 00 00 00 00 00 ................
00409E00 00 00 00 00 00 00 00 00 00 00 00 00 00 00 00 00 ................
00409E10 00 00 00 00 00 00 00 00 00 00 00 00 00 00 00 00 ................
00409E20 00 00 00 00 00 00 00 00 00 00 00 00 00 00 00 00 ................
00409E30 00 00 00 00 00 00 00 00 00 00 00 00 00 00 00 00 ................
00409E40 00 00 00 00 00 00 00 00 00 00 00 00 00 00 00 00 ................
00409E50 00 00 00 00 00 00 00 00 00 00 00 00 00 00 00 00 ................
00409E60 00 00 00 00 00 00 00 00 00 00 00 00 00 00 00 00 ................
00409E70 00 00 00 00 00 00 00 00 00 00 00 00 00 00 00 00 ................
00409E80 00 00 00 00 00 00 00 00 00 00 00 00 00 00 00 00 ................
00409E90 00 00 00 00 00 00 00 00 00 00 00 00 00 00 00 00 ................
00409EA0 00 00 00 00 00 00 00 00 00 00 00 00 00 00 00 00 ................
00409EB0 00 00 00 00 00 00 00 00 00 00 00 00 00 00 00 00 ................
00409EC0 00 00 00 00 00 00 00 00 00 00 00 00 00 00 00 00 ................
00409ED0 00 00 00 00 00 00 00 00 00 00 00 00 00 00 00 00 ................
00409EE0 00 00 00 00 00 00 00 00 00 00 00 00 00 00 00 00 ................
00409EF0 00 00 00 00 00 00 00 00 00 00 00 00 00 00 00 00 ................
00409F00 00 00 00 00 00 00 00 00 00 00 00 00 00 00 00 00 ................
00409F10 00 00 00 00 00 00 00 00 00 00 00 00 00 00 00 00 ................
00409F20 00 00 00 00 00 00 00 00 00 00 00 00 00 00 00 00 ................
00409F30 00 00 00 00 00 00 00 00 00 00 00 00 00 00 00 00 ................
00409F40 00 00 00 00 00 00 00 00 00 00 00 00 00 00 00 00 ................
00409F50 00 00 00 00 00 00 00 00 00 00 00 00 00 00 00 00 ................
00409F60 00 00 00 00 00 00 00 00 00 00 00 00 00 00 00 00 ................
00409F70 00 00 00 00 00 00 00 00 00 00 00 00 00 00 00 00 ................
00409F80 00 00 00 00 00 00 00 00 00 00 00 00 00 00 00 00 ................
00409F90 00 00 00 00 00 00 00 00 00 00 00 00 00 00 00 00 ................
00409FA0 00 00 00 00 00 00 00 00 00 00 00 00 00 00 00 00 ................
00409FB0 00 00 00 00 00 00 00 00 00 00 00 00 00 00 00 00 ................
00409FC0 00 00 00 00 00 00 00 00 00 00 00 00 00 00 00 00 ................
00409FD0 00 00 00 00 00 00 00 00 00 00 00 00 00 00 00 00 ................
00409FE0 00 00 00 00 00 00 00 00 00 00 00 00 00 00 00 00 ................
00409FF0 00 00 00 00 00 00 00 00 00 00 00 00 00 00 00 00 ................
0040A000 00 00 00 00 00 00 00 00 00 00 00 00 00 00 00 00 ................
0040A010 00 00 00 00 00 00 00 00 00 00 00 00 00 00 00 00 ................
0040A020 00 00 00 00 00 00 00 00 00 00 00 00 00 00 00 00 ................
0040A030 00 00 00 00 00 00 00 00 00 00 00 00 00 00 00 00 ................
0040A040 00 00 00 00 00 00 00 00 00 00 00 00 00 00 00 00 ................
0040A050 00 00 00 00 00 00 00 00 00 00 00 00 00 00 00 00 ................
0040A060 00 00 00 00 00 00 00 00 00 00 00 00 00 00 00 00 ................
0040A070 00 00 00 00 00 00 00 00 00 00 00 00 00 00 00 00 ................
0040A080 00 00 00 00 00 00 00 00 00 00 00 00 00 00 00 00 ................
0040A090 00 00 00 00 00 00 00 00 00 00 00 00 00 00 00 00 ................
0040A0A0 00 00 00 00 00 00 00 00 00 00 00 00 00 00 00 00 ................
0040A0B0 00 00 00 00 00 00 00 00 00 00 00 00 00 00 00 00 ................
0040A0C0 00 00 00 00 00 00 00 00 00 00 00 00 00 00 00 00 ................
0040A0D0 00 00 00 00 00 00 00 00 00 00 00 00 00 00 00 00 ................
0040A0E0 00 00 00 00 00 00 00 00 00 00 00 00 00 00 00 00 ................
0040A0F0 00 00 00 00 00 00 00 00 00 00 00 00 00 00 00 00 ................
0040A100 00 00 00 00 00 00 00 00 00 00 00 00 00 00 00 00 ................
0040A110 00 00 00 00 00 00 00 00 00 00 00 00 00 00 00 00 ................
0040A120 00 00 00 00 00 00 00 00 00 00 00 00 00 00 00 00 ................
0040A130 00 00 00 00 00 00 00 00 00 00 00 00 00 00 00 00 ................
0040A140 00 00 00 00 00 00 00 00 00 00 00 00 00 00 00 00 ................
0040A150 00 00 00 00 00 00 00 00 00 00 00 00 00 00 00 00 ................
0040A160 00 00 00 00 00 00 00 00 00 00 00 00 00 00 00 00 ................
0040A170 00 00 00 00 00 00 00 00 00 00 00 00 00 00 00 00 ................
0040A180 00 00 00 00 00 00 00 00 00 00 00 00 00 00 00 00 ................
0040A190 00 00 00 00 00 00 00 00 00 00 00 00 00 00 00 00 ................
0040A1A0 00 00 00 00 00 00 00 00 00 00 00 00 00 00 00 00 ................
0040A1B0 00 00 00 00 00 00 00 00 00 00 00 00 00 00 00 00 ................
0040A1C0 00 00 00 00 00 00 00 00 00 00 00 00 00 00 00 00 ................
0040A1D0 00 00 00 00 00 00 00 00 00 00 00 00 00 00 00 00 ................
0040A1E0 00 00 00 00 00 00 00 00 00 00 00 00 00 00 00 00 ................
0040A1F0 00 00 00 00 00 00 00 00 00 00 00 00 00 00 00 00 ................
0040A200 00 00 00 00 00 00 00 00 00 00 00 00 00 00 00 00 ................
0040A210 00 00 00 00 00 00 00 00 00 00 00 00 00 00 00 00 ................
0040A220 00 00 00 00 00 00 00 00 00 00 00 00 00 00 00 00 ................
0040A230 00 00 00 00 00 00 00 00 00 00 00 00 00 00 00 00 ................
0040A240 00 00 00 00 00 00 00 00 00 00 00 00 00 00 00 00 ................
0040A250 00 00 00 00 00 00 00 00 00 00 00 00 00 00 00 00 ................
0040A260 00 00 00 00 00 00 00 00 00 00 00 00 00 00 00 00 ................
0040A270 00 00 00 00 00 00 00 00 00 00 00 00 00 00 00 00 ................
0040A280 00 00 00 00 00 00 00 00 00 00 00 00 00 00 00 00 ................
0040A290 00 00 00 00 00 00 00 00 00 00 00 00 00 00 00 00 ................
0040A2A0 00 00 00 00 00 00 00 00 00 00 00 00 00 00 00 00 ................
0040A2B0 00 00 00 00 00 00 00 00 00 00 00 00 00 00 00 00 ................
0040A2C0 00 00 00 00 00 00 00 00 00 00 00 00 00 00 00 00 ................
0040A2D0 00 00 00 00 00 00 00 00 00 00 00 00 00 00 00 00 ................
0040A2E0 00 00 00 00 00 00 00 00 00 00 00 00 00 00 00 00 ................
0040A2F0 00 00 00 00 00 00 00 00 00 00 00 00 00 00 00 00 ................
0040A300 00 00 00 00 00 00 00 00 00 00 00 00 00 00 00 00 ................
0040A310 00 00 00 00 00 00 00 00 00 00 00 00 00 00 00 00 ................
0040A320 00 00 00 00 00 00 00 00 00 00 00 00 00 00 00 00 ................
0040A330 00 00 00 00 00 00 00 00 00 00 00 00 00 00 00 00 ................
0040A340 00 00 00 00 00 00 00 00 00 00 00 00 00 00 00 00 ................
0040A350 00 00 00 00 00 00 00 00 00 00 00 00 00 00 00 00 ................
0040A360 00 00 00 00 00 00 00 00 00 00 00 00 00 00 00 00 ................
0040A370 00 00 00 00 00 00 00 00 00 00 00 00 00 00 00 00 ................
0040A380 00 00 00 00 00 00 00 00 00 00 00 00 00 00 00 00 ................
0040A390 00 00 00 00 00 00 00 00 00 00 00 00 00 00 00 00 ................
0040A3A0 00 00 00 00 00 00 00 00 00 00 00 00 00 00 00 00 ................
0040A3B0 00 00 00 00 00 00 00 00 00 00 00 00 00 00 00 00 ................
0040A3C0 00 00 00 00 00 00 00 00 00 00 00 00 00 00 00 00 ................
0040A3D0 00 00 00 00 00 00 00 00 00 00 00 00 00 00 00 00 ................
0040A3E0 00 00 00 00 00 00 00 00 00 00 00 00 00 00 00 00 ................
0040A3F0 00 00 00 00 00 00 00 00 00 00 00 00 00 00 00 00 ................
0040A400 00 00 00 00 00 00 00 00 00 00 00 00 00 00 00 00 ................
0040A410 00 00 00 00 00 00 00 00 00 00 00 00 00 00 00 00 ................
0040A420 00 00 00 00 00 00 00 00 00 00 00 00 00 00 00 00 ................
0040A430 00 00 00 00 00 00 00 00 00 00 00 00 00 00 00 00 ................
0040A440 00 00 00 00 00 00 00 00 00 00 00 00 00 00 00 00 ................
0040A450 00 00 00 00 00 00 00 00 00 00 00 00 00 00 00 00 ................
0040A460 00 00 00 00 00 00 00 00 00 00 00 00 00 00 00 00 ................
0040A470 00 00 00 00 00 00 00 00 00 00 00 00 00 00 00 00 ................
0040A480 00 00 00 00 00 00 00 00 00 00 00 00 00 00 00 00 ................
0040A490 00 00 00 00 00 00 00 00 00 00 00 00 00 00 00 00 ................
0040A4A0 00 00 00 00 00 00 00 00 00 00 00 00 00 00 00 00 ................
0040A4B0 00 00 00 00 00 00 00 00 00 00 00 00 00 00 00 00 ................
0040A4C0 00 00 00 00 00 00 00 00 00 00 00 00 00 00 00 00 ................
0040A4D0 00 00 00 00 00 00 00 00 00 00 00 00 00 00 00 00 ................
0040A4E0 00 00 00 00 00 00 00 00 00 00 00 00 00 00 00 00 ................
0040A4F0 00 00 00 00 00 00 00 00 00 00 00 00 00 00 00 00 ................
0040A500 00 00 00 00 00 00 00 00 00 00 00 00 00 00 00 00 ................
0040A510 00 00 00 00 00 00 00 00 00 00 00 00 00 00 00 00 ................
0040A520 00 00 00 00 00 00 00 00 00 00 00 00 00 00 00 00 ................
0040A530 00 00 00 00 00 00 00 00 00 00 00 00 00 00 00 00 ................
0040A540 00 00 00 00 00 00 00 00 00 00 00 00 00 00 00 00 ................
0040A550 00 00 00 00 00 00 00 00 00 00 00 00 00 00 00 00 ................
0040A560 00 00 00 00 00 00 00 00 00 00 00 00 00 00 00 00 ................
0040A570 00 00 00 00 00 00 00 00 00 00 00 00 00 00 00 00 ................
0040A580 00 00 00 00 00 00 00 00 00 00 00 00 00 00 00 00 ................
0040A590 00 00 00 00 00 00 00 00 00 00 00 00 00 00 00 00 ................
0040A5A0 00 00 00 00 00 00 00 00 00 00 00 00 00 00 00 00 ................
0040A5B0 00 00 00 00 00 00 00 00 00 00 00 00 00 00 00 00 ................
0040A5C0 00 00 00 00 00 00 00 00 00 00 00 00 00 00 00 00 ................
0040A5D0 00 00 00 00 00 00 00 00 00 00 00 00 00 00 00 00 ................
0040A5E0 00 00 00 00 00 00 00 00 00 00 00 00 00 00 00 00 ................
0040A5F0 00 00 00 00 00 00 00 00 00 00 00 00 00 00 00 00 ................
0040A600 00 00 00 00 00 00 00 00 00 00 00 00 00 00 00 00 ................
0040A610 00 00 00 00 00 00 00 00 00 00 00 00 00 00 00 00 ................
0040A620 00 00 00 00 00 00 00 00 00 00 00 00 00 00 00 00 ................
0040A630 00 00 00 00 00 00 00 00 00 00 00 00 00 00 00 00 ................
0040A640 00 00 00 00 00 00 00 00 00 00 00 00 00 00 00 00 ................
0040A650 00 00 00 00 00 00 00 00 00 00 00 00 00 00 00 00 ................
0040A660 00 00 00 00 00 00 00 00 00 00 00 00 00 00 00 00 ................
0040A670 00 00 00 00 00 00 00 00 00 00 00 00 00 00 00 00 ................
0040A680 00 00 00 00 00 00 00 00 00 00 00 00 00 00 00 00 ................
0040A690 00 00 00 00 00 00 00 00 00 00 00 00 00 00 00 00 ................
0040A6A0 00 00 00 00 00 00 00 00 00 00 00 00 00 00 00 00 ................
0040A6B0 00 00 00 00 00 00 00 00 00 00 00 00 00 00 00 00 ................
0040A6C0 00 00 00 00 00 00 00 00 00 00 00 00 00 00 00 00 ................
0040A6D0 00 00 00 00 00 00 00 00 00 00 00 00 00 00 00 00 ................
0040A6E0 00 00 00 00 00 00 00 00 00 00 00 00 00 00 00 00 ................
0040A6F0 00 00 00 00 00 00 00 00 00 00 00 00 00 00 00 00 ................
0040A700 00 00 00 00 00 00 00 00 00 00 00 00 00 00 00 00 ................
0040A710 00 00 00 00 00 00 00 00 00 00 00 00 00 00 00 00 ................
0040A720 00 00 00 00 00 00 00 00 00 00 00 00 00 00 00 00 ................
0040A730 00 00 00 00 00 00 00 00 00 00 00 00 00 00 00 00 ................
0040A740 00 00 00 00 00 00 00 00 00 00 00 00 00 00 00 00 ................
0040A750 00 00 00 00 00 00 00 00 00 00 00 00 00 00 00 00 ................
0040A760 00 00 00 00 00 00 00 00 00 00 00 00 00 00 00 00 ................
0040A770 00 00 00 00 00 00 00 00 00 00 00 00 00 00 00 00 ................
0040A780 00 00 00 00 00 00 00 00 00 00 00 00 00 00 00 00 ................
0040A790 00 00 00 00 00 00 00 00 00 00 00 00 00 00 00 00 ................
0040A7A0 00 00 00 00 00 00 00 00 00 00 00 00 00 00 00 00 ................
0040A7B0 00 00 00 00 00 00 00 00 00 00 00 00 00 00 00 00 ................
0040A7C0 00 00 00 00 00 00 00 00 00 00 00 00 00 00 00 00 ................
0040A7D0 00 00 00 00 00 00 00 00 00 00 00 00 00 00 00 00 ................
0040A7E0 00 00 00 00 00 00 00 00 00 00 00 00 00 00 00 00 ................
0040A7F0 00 00 00 00 00 00 00 00 00 00 00 00 00 00 00 00 ................
0040A800 00 00 00 00 00 00 00 00 00 00 00 00 00 00 00 00 ................
0040A810 00 00 00 00 00 00 00 00 00 00 00 00 00 00 00 00 ................
0040A820 00 00 00 00 00 00 00 00 00 00 00 00 00 00 00 00 ................
0040A830 00 00 00 00 00 00 00 00 00 00 00 00 00 00 00 00 ................
0040A840 00 00 00 00 00 00 00 00 00 00 00 00 00 00 00 00 ................
0040A850 00 00 00 00 00 00 00 00 00 00 00 00 00 00 00 00 ................
0040A860 00 00 00 00 00 00 00 00 00 00 00 00 00 00 00 00 ................
0040A870 00 00 00 00 00 00 00 00 00 00 00 00 00 00 00 00 ................
0040A880 00 00 00 00 00 00 00 00 00 00 00 00 00 00 00 00 ................
0040A890 00 00 00 00 00 00 00 00 00 00 00 00 00 00 00 00 ................
0040A8A0 00 00 00 00 00 00 00 00 00 00 00 00 00 00 00 00 ................
0040A8B0 00 00 00 00 00 00 00 00 00 00 00 00 00 00 00 00 ................
0040A8C0 00 00 00 00 00 00 00 00 00 00 00 00 00 00 00 00 ................
0040A8D0 00 00 00 00 00 00 00 00 00 00 00 00 00 00 00 00 ................
0040A8E0 00 00 00 00 00 00 00 00 00 00 00 00 00 00 00 00 ................
0040A8F0 00 00 00 00 00 00 00 00 00 00 00 00 00 00 00 00 ................
0040A900 00 00 00 00 00 00 00 00 00 00 00 00 00 00 00 00 ................
0040A910 00 00 00 00 00 00 00 00 00 00 00 00 00 00 00 00 ................
0040A920 00 00 00 00 00 00 00 00 00 00 00 00 00 00 00 00 ................
0040A930 00 00 00 00 00 00 00 00 00 00 00 00 00 00 00 00 ................
0040A940 00 00 00 00 00 00 00 00 00 00 00 00 00 00 00 00 ................
0040A950 00 00 00 00 00 00 00 00 00 00 00 00 00 00 00 00 ................
0040A960 00 00 00 00 00 00 00 00 00 00 00 00 00 00 00 00 ................
0040A970 00 00 00 00 00 00 00 00 00 00 00 00 00 00 00 00 ................
0040A980 00 00 00 00 00 00 00 00 00 00 00 00 00 00 00 00 ................
0040A990 00 00 00 00 00 00 00 00 00 00 00 00 00 00 00 00 ................
0040A9A0 00 00 00 00 00 00 00 00 00 00 00 00 00 00 00 00 ................
0040A9B0 00 00 00 00 00 00 00 00 00 00 00 00 00 00 00 00 ................
0040A9C0 00 00 00 00 00 00 00 00 00 00 00 00 00 00 00 00 ................
0040A9D0 00 00 00 00 00 00 00 00 00 00 00 00 00 00 00 00 ................
0040A9E0 00 00 00 00 00 00 00 00 00 00 00 00 00 00 00 00 ................
0040A9F0 00 00 00 00 00 00 00 00 00 00 00 00 00 00 00 00 ................
0040AA00 00 00 00 00 00 00 00 00 00 00 00 00 00 00 00 00 ................
0040AA10 00 00 00 00 00 00 00 00 00 00 00 00 00 00 00 00 ................
0040AA20 00 00 00 00 00 00 00 00 00 00 00 00 00 00 00 00 ................
0040AA30 00 00 00 00 00 00 00 00 00 00 00 00 00 00 00 00 ................
0040AA40 00 00 00 00 00 00 00 00 00 00 00 00 00 00 00 00 ................
0040AA50 00 00 00 00 00 00 00 00 00 00 00 00 00 00 00 00 ................
0040AA60 00 00 00 00 00 00 00 00 00 00 00 00 00 00 00 00 ................
0040AA70 00 00 00 00 00 00 00 00 00 00 00 00 00 00 00 00 ................
0040AA80 00 00 00 00 00 00 00 00 00 00 00 00 00 00 00 00 ................
0040AA90 00 00 00 00 00 00 00 00 00 00 00 00 00 00 00 00 ................
0040AAA0 00 00 00 00 00 00 00 00 00 00 00 00 00 00 00 00 ................
0040AAB0 00 00 00 00 00 00 00 00 00 00 00 00 00 00 00 00 ................
0040AAC0 00 00 00 00 00 00 00 00 00 00 00 00 00 00 00 00 ................
0040AAD0 00 00 00 00 00 00 00 00 00 00 00 00 00 00 00 00 ................
0040AAE0 00 00 00 00 00 00 00 00 00 00 00 00 00 00 00 00 ................
0040AAF0 00 00 00 00 00 00 00 00 00 00 00 00 00 00 00 00 ................
0040AB00 00 00 00 00 00 00 00 00 00 00 00 00 00 00 00 00 ................
0040AB10 00 00 00 00 00 00 00 00 00 00 00 00 00 00 00 00 ................
0040AB20 00 00 00 00 00 00 00 00 00 00 00 00 00 00 00 00 ................
0040AB30 00 00 00 00 00 00 00 00 00 00 00 00 00 00 00 00 ................
0040AB40 00 00 00 00 00 00 00 00 00 00 00 00 00 00 00 00 ................
0040AB50 00 00 00 00 00 00 00 00 00 00 00 00 00 00 00 00 ................
0040AB60 00 00 00 00 00 00 00 00 00 00 00 00 00 00 00 00 ................
0040AB70 00 00 00 00 00 00 00 00 00 00 00 00 00 00 00 00 ................
0040AB80 00 00 00 00 00 00 00 00 00 00 00 00 00 00 00 00 ................
0040AB90 00 00 00 00 00 00 00 00 00 00 00 00 00 00 00 00 ................
0040ABA0 00 00 00 00 00 00 00 00 00 00 00 00 00 00 00 00 ................
0040ABB0 00 00 00 00 00 00 00 00 00 00 00 00 00 00 00 00 ................
0040ABC0 00 00 00 00 00 00 00 00 00 00 00 00 00 00 00 00 ................
0040ABD0 00 00 00 00 00 00 00 00 00 00 00 00 00 00 00 00 ................
0040ABE0 00 00 00 00 00 00 00 00 00 00 00 00 00 00 00 00 ................
0040ABF0 00 00 00 00 00 00 00 00 00 00 00 00 00 00 00 00 ................
0040AC00 00 00 00 00 00 00 00 00 00 00 00 00 00 00 00 00 ................
0040AC10 00 00 00 00 00 00 00 00 00 00 00 00 00 00 00 00 ................
0040AC20 00 00 00 00 00 00 00 00 00 00 00 00 00 00 00 00 ................
0040AC30 00 00 00 00 00 00 00 00 00 00 00 00 00 00 00 00 ................
0040AC40 00 00 00 00 00 00 00 00 00 00 00 00 00 00 00 00 ................
0040AC50 00 00 00 00 00 00 00 00 00 00 00 00 00 00 00 00 ................
0040AC60 00 00 00 00 00 00 00 00 00 00 00 00 00 00 00 00 ................
0040AC70 00 00 00 00 00 00 00 00 00 00 00 00 00 00 00 00 ................
0040AC80 00 00 00 00 00 00 00 00 00 00 00 00 00 00 00 00 ................
0040AC90 00 00 00 00 00 00 00 00 00 00 00 00 00 00 00 00 ................
0040ACA0 00 00 00 00 00 00 00 00 00 00 00 00 00 00 00 00 ................
0040ACB0 00 00 00 00 00 00 00 00 00 00 00 00 00 00 00 00 ................
0040ACC0 00 00 00 00 00 00 00 00 00 00 00 00 00 00 00 00 ................
0040ACD0 00 00 00 00 00 00 00 00 00 00 00 00 00 00 00 00 ................
0040ACE0 00 00 00 00 00 00 00 00 00 00 00 00 00 00 00 00 ................
0040ACF0 00 00 00 00 00 00 00 00 00 00 00 00 00 00 00 00 ................
0040AD00 00 00 00 00 00 00 00 00 00 00 00 00 00 00 00 00 ................
0040AD10 00 00 00 00 00 00 00 00 00 00 00 00 00 00 00 00 ................
0040AD20 00 00 00 00 00 00 00 00 00 00 00 00 00 00 00 00 ................
0040AD30 00 00 00 00 00 00 00 00 00 00 00 00 00 00 00 00 ................
0040AD40 00 00 00 00 00 00 00 00 00 00 00 00 00 00 00 00 ................
0040AD50 00 00 00 00 00 00 00 00 00 00 00 00 00 00 00 00 ................
0040AD60 00 00 00 00 00 00 00 00 00 00 00 00 00 00 00 00 ................
0040AD70 00 00 00 00 00 00 00 00 00 00 00 00 00 00 00 00 ................
0040AD80 00 00 00 00 00 00 00 00 00 00 00 00 00 00 00 00 ................
0040AD90 00 00 00 00 00 00 00 00 00 00 00 00 00 00 00 00 ................
0040ADA0 00 00 00 00 00 00 00 00 00 00 00 00 00 00 00 00 ................
0040ADB0 00 00 00 00 00 00 00 00 00 00 00 00 00 00 00 00 ................
0040ADC0 00 00 00 00 00 00 00 00 00 00 00 00 00 00 00 00 ................
0040ADD0 00 00 00 00 00 00 00 00 00 00 00 00 00 00 00 00 ................
0040ADE0 00 00 00 00 00 00 00 00 00 00 00 00 00 00 00 00 ................
0040ADF0 00 00 00 00 00 00 00 00 00 00 00 00 00 00 00 00 ................
0040AE00 00 00 00 00 00 00 00 00 00 00 00 00 00 00 00 00 ................
0040AE10 00 00 00 00 00 00 00 00 00 00 00 00 00 00 00 00 ................
0040AE20 00 00 00 00 00 00 00 00 00 00 00 00 00 00 00 00 ................
0040AE30 00 00 00 00 00 00 00 00 00 00 00 00 00 00 00 00 ................
0040AE40 00 00 00 00 00 00 00 00 00 00 00 00 00 00 00 00 ................
0040AE50 00 00 00 00 00 00 00 00 00 00 00 00 00 00 00 00 ................
0040AE60 00 00 00 00 00 00 00 00 00 00 00 00 00 00 00 00 ................
0040AE70 00 00 00 00 00 00 00 00 00 00 00 00 00 00 00 00 ................
0040AE80 00 00 00 00 00 00 00 00 00 00 00 00 00 00 00 00 ................
0040AE90 00 00 00 00 00 00 00 00 00 00 00 00 00 00 00 00 ................
0040AEA0 00 00 00 00 00 00 00 00 00 00 00 00 00 00 00 00 ................
0040AEB0 00 00 00 00 00 00 00 00 00 00 00 00 00 00 00 00 ................
0040AEC0 00 00 00 00 00 00 00 00 00 00 00 00 00 00 00 00 ................
0040AED0 00 00 00 00 00 00 00 00 00 00 00 00 00 00 00 00 ................
0040AEE0 00 00 00 00 00 00 00 00 00 00 00 00 00 00 00 00 ................
0040AEF0 00 00 00 00 00 00 00 00 00 00 00 00 00 00 00 00 ................
0040AF00 00 00 00 00 00 00 00 00 00 00 00 00 00 00 00 00 ................
0040AF10 00 00 00 00 00 00 00 00 00 00 00 00 00 00 00 00 ................
0040AF20 00 00 00 00 00 00 00 00 00 00 00 00 00 00 00 00 ................
0040AF30 00 00 00 00 00 00 00 00 00 00 00 00 00 00 00 00 ................
0040AF40 00 00 00 00 00 00 00 00 00 00 00 00 00 00 00 00 ................
0040AF50 00 00 00 00 00 00 00 00 00 00 00 00 00 00 00 00 ................
0040AF60 00 00 00 00 00 00 00 00 00 00 00 00 00 00 00 00 ................
0040AF70 00 00 00 00 00 00 00 00 00 00 00 00 00 00 00 00 ................
0040AF80 00 00 00 00 00 00 00 00 00 00 00 00 00 00 00 00 ................
0040AF90 00 00 00 00 00 00 00 00 00 00 00 00 00 00 00 00 ................
0040AFA0 00 00 00 00 00 00 00 00 00 00 00 00 00 00 00 00 ................
0040AFB0 00 00 00 00 00 00 00 00 00 00 00 00 00 00 00 00 ................
0040AFC0 00 00 00 00 00 00 00 00 00 00 00 00 00 00 00 00 ................
0040AFD0 00 00 00 00 00 00 00 00 00 00 00 00 00 00 00 00 ................
0040AFE0 00 00 00 00 00 00 00 00 00 00 00 00 00 00 00 00 ................
0040AFF0 00 00 00 00 00 00 00 00 00 00 00 00 00 00 00 00 ................
0040B000 00 00 00 00 00 00 00 00 00 00 00 00 00 00 00 00 ................
0040B010 00 00 00 00 00 00 00 00 00 00 00 00 00 00 00 00 ................
0040B020 00 00 00 00 00 00 00 00 00 00 00 00 00 00 00 00 ................
0040B030 00 00 00 00 00 00 00 00 00 00 00 00 00 00 00 00 ................
0040B040 00 00 00 00 00 00 00 00 00 00 00 00 00 00 00 00 ................
0040B050 00 00 00 00 00 00 00 00 00 00 00 00 00 00 00 00 ................
0040B060 00 00 00 00 00 00 00 00 00 00 00 00 00 00 00 00 ................
0040B070 00 00 00 00 00 00 00 00 00 00 00 00 00 00 00 00 ................
0040B080 00 00 00 00 00 00 00 00 00 00 00 00 00 00 00 00 ................
0040B090 00 00 00 00 00 00 00 00 00 00 00 00 00 00 00 00 ................
0040B0A0 00 00 00 00 00 00 00 00 00 00 00 00 00 00 00 00 ................
0040B0B0 00 00 00 00 00 00 00 00 00 00 00 00 00 00 00 00 ................
0040B0C0 00 00 00 00 00 00 00 00 00 00 00 00 00 00 00 00 ................
0040B0D0 00 00 00 00 00 00 00 00 00 00 00 00 00 00 00 00 ................
0040B0E0 00 00 00 00 00 00 00 00 00 00 00 00 00 00 00 00 ................
0040B0F0 00 00 00 00 00 00 00 00 00 00 00 00 00 00 00 00 ................
0040B100 00 00 00 00 00 00 00 00 00 00 00 00 00 00 00 00 ................
0040B110 00 00 00 00 00 00 00 00 00 00 00 00 00 00 00 00 ................
0040B120 00 00 00 00 00 00 00 00 00 00 00 00 00 00 00 00 ................
0040B130 00 00 00 00 00 00 00 00 00 00 00 00 00 00 00 00 ................
0040B140 00 00 00 00 00 00 00 00 00 00 00 00 00 00 00 00 ................
0040B150 00 00 00 00 00 00 00 00 00 00 00 00 00 00 00 00 ................
0040B160 00 00 00 00 00 00 00 00 00 00 00 00 00 00 00 00 ................
0040B170 00 00 00 00 00 00 00 00 00 00 00 00 00 00 00 00 ................
0040B180 00 00 00 00 00 00 00 00 00 00 00 00 00 00 00 00 ................
0040B190 00 00 00 00 00 00 00 00 00 00 00 00 00 00 00 00 ................
0040B1A0 00 00 00 00 00 00 00 00 00 00 00 00 00 00 00 00 ................
0040B1B0 00 00 00 00 00 00 00 00 00 00 00 00 00 00 00 00 ................
0040B1C0 00 00 00 00 00 00 00 00 00 00 00 00 00 00 00 00 ................
0040B1D0 00 00 00 00 00 00 00 00 00 00 00 00 00 00 00 00 ................
0040B1E0 00 00 00 00 00 00 00 00 00 00 00 00 00 00 00 00 ................
0040B1F0 00 00 00 00 00 00 00 00 00 00 00 00 00 00 00 00 ................
0040B200 00 00 00 00 00 00 00 00 00 00 00 00 00 00 00 00 ................
0040B210 00 00 00 00 00 00 00 00 00 00 00 00 00 00 00 00 ................
0040B220 00 00 00 00 00 00 00 00 00 00 00 00 00 00 00 00 ................
0040B230 00 00 00 00 00 00 00 00 00 00 00 00 00 00 00 00 ................
0040B240 00 00 00 00 00 00 00 00 00 00 00 00 00 00 00 00 ................
0040B250 00 00 00 00 00 00 00 00 00 00 00 00 00 00 00 00 ................
0040B260 00 00 00 00 00 00 00 00 00 00 00 00 00 00 00 00 ................
0040B270 00 00 00 00 00 00 00 00 00 00 00 00 00 00 00 00 ................
0040B280 00 00 00 00 00 00 00 00 00 00 00 00 00 00 00 00 ................
0040B290 00 00 00 00 00 00 00 00 00 00 00 00 00 00 00 00 ................
0040B2A0 00 00 00 00 00 00 00 00 00 00 00 00 00 00 00 00 ................
0040B2B0 00 00 00 00 00 00 00 00 00 00 00 00 00 00 00 00 ................
0040B2C0 00 00 00 00 00 00 00 00 00 00 00 00 00 00 00 00 ................
0040B2D0 00 00 00 00 00 00 00 00 00 00 00 00 00 00 00 00 ................
0040B2E0 00 00 00 00 00 00 00 00 00 00 00 00 00 00 00 00 ................
0040B2F0 00 00 00 00 00 00 00 00 00 00 00 00 00 00 00 00 ................
0040B300 00 00 00 00 00 00 00 00 00 00 00 00 00 00 00 00 ................
0040B310 00 00 00 00 00 00 00 00 00 00 00 00 00 00 00 00 ................
0040B320 00 00 00 00 00 00 00 00 00 00 00 00 00 00 00 00 ................
0040B330 00 00 00 00 00 00 00 00 00 00 00 00 00 00 00 00 ................
0040B340 00 00 00 00 00 00 00 00 00 00 00 00 00 00 00 00 ................
0040B350 00 00 00 00 00 00 00 00 00 00 00 00 00 00 00 00 ................
0040B360 00 00 00 00 00 00 00 00 00 00 00 00 00 00 00 00 ................
0040B370 00 00 00 00 00 00 00 00 00 00 00 00 00 00 00 00 ................
0040B380 00 00 00 00 00 00 00 00 00 00 00 00 00 00 00 00 ................
0040B390 00 00 00 00 00 00 00 00 00 00 00 00 00 00 00 00 ................
0040B3A0 00 00 00 00 00 00 00 00 00 00 00 00 00 00 00 00 ................
0040B3B0 00 00 00 00 00 00 00 00 00 00 00 00 00 00 00 00 ................
0040B3C0 00 00 00 00 00 00 00 00 00 00 00 00 00 00 00 00 ................
0040B3D0 00 00 00 00 00 00 00 00 00 00 00 00 00 00 00 00 ................
0040B3E0 00 00 00 00 00 00 00 00 00 00 00 00 00 00 00 00 ................
0040B3F0 00 00 00 00 00 00 00 00 00 00 00 00 00 00 00 00 ................
0040B400 00 00 00 00 00 00 00 00 00 00 00 00 00 00 00 00 ................
0040B410 00 00 00 00 00 00 00 00 00 00 00 00 00 00 00 00 ................
0040B420 00 00 00 00 00 00 00 00 00 00 00 00 00 00 00 00 ................
0040B430 00 00 00 00 00 00 00 00 00 00 00 00 00 00 00 00 ................
0040B440 00 00 00 00 00 00 00 00 00 00 00 00 00 00 00 00 ................
0040B450 00 00 00 00 00 00 00 00 00 00 00 00 00 00 00 00 ................
0040B460 00 00 00 00 00 00 00 00 00 00 00 00 00 00 00 00 ................
0040B470 00 00 00 00 00 00 00 00 00 00 00 00 00 00 00 00 ................
0040B480 00 00 00 00 00 00 00 00 00 00 00 00 00 00 00 00 ................
0040B490 00 00 00 00 00 00 00 00 00 00 00 00 00 00 00 00 ................
0040B4A0 00 00 00 00 00 00 00 00 00 00 00 00 00 00 00 00 ................
0040B4B0 00 00 00 00 00 00 00 00 00 00 00 00 00 00 00 00 ................
0040B4C0 00 00 00 00 00 00 00 00 00 00 00 00 00 00 00 00 ................
0040B4D0 00 00 00 00 00 00 00 00 00 00 00 00 00 00 00 00 ................
0040B4E0 00 00 00 00 00 00 00 00 00 00 00 00 00 00 00 00 ................
0040B4F0 00 00 00 00 00 00 00 00 00 00 00 00 00 00 00 00 ................
0040B500 00 00 00 00 00 00 00 00 00 00 00 00 00 00 00 00 ................
0040B510 00 00 00 00 00 00 00 00 00 00 00 00 00 00 00 00 ................
0040B520 00 00 00 00 00 00 00 00 00 00 00 00 00 00 00 00 ................
0040B530 00 00 00 00 00 00 00 00 00 00 00 00 00 00 00 00 ................
0040B540 00 00 00 00 00 00 00 00 00 00 00 00 00 00 00 00 ................
0040B550 00 00 00 00 00 00 00 00 00 00 00 00 00 00 00 00 ................
0040B560 00 00 00 00 00 00 00 00 00 00 00 00 00 00 00 00 ................
0040B570 00 00 00 00 00 00 00 00 00 00 00 00 00 00 00 00 ................
0040B580 00 00 00 00 00 00 00 00 00 00 00 00 00 00 00 00 ................
0040B590 00 00 00 00 00 00 00 00 00 00 00 00 00 00 00 00 ................
0040B5A0 00 00 00 00 00 00 00 00 00 00 00 00 00 00 00 00 ................
0040B5B0 00 00 00 00 00 00 00 00 00 00 00 00 00 00 00 00 ................
0040B5C0 00 00 00 00 00 00 00 00 00 00 00 00 00 00 00 00 ................
0040B5D0 00 00 00 00 00 00 00 00 00 00 00 00 00 00 00 00 ................
0040B5E0 00 00 00 00 00 00 00 00 00 00 00 00 00 00 00 00 ................
0040B5F0 00 00 00 00 00 00 00 00 00 00 00 00 00 00 00 00 ................
0040B600 00 00 00 00 00 00 00 00 00 00 00 00 00 00 00 00 ................
0040B610 00 00 00 00 00 00 00 00 00 00 00 00 00 00 00 00 ................
0040B620 00 00 00 00 00 00 00 00 00 00 00 00 00 00 00 00 ................
0040B630 00 00 00 00 00 00 00 00 00 00 00 00 00 00 00 00 ................
0040B640 00 00 00 00 00 00 00 00 00 00 00 00 00 00 00 00 ................
0040B650 00 00 00 00 00 00 00 00 00 00 00 00 00 00 00 00 ................
0040B660 00 00 00 00 00 00 00 00 00 00 00 00 00 00 00 00 ................
0040B670 00 00 00 00 00 00 00 00 00 00 00 00 00 00 00 00 ................
0040B680 00 00 00 00 00 00 00 00 00 00 00 00 00 00 00 00 ................
0040B690 00 00 00 00 00 00 00 00 00 00 00 00 00 00 00 00 ................
0040B6A0 00 00 00 00 00 00 00 00 00 00 00 00 00 00 00 00 ................
0040B6B0 00 00 00 00 00 00 00 00 00 00 00 00 00 00 00 00 ................
0040B6C0 00 00 00 00 00 00 00 00 00 00 00 00 00 00 00 00 ................
0040B6D0 00 00 00 00 00 00 00 00 00 00 00 00 00 00 00 00 ................
0040B6E0 00 00 00 00 00 00 00 00 00 00 00 00 00 00 00 00 ................
0040B6F0 00 00 00 00 00 00 00 00 00 00 00 00 00 00 00 00 ................
0040B700 00 00 00 00 00 00 00 00 00 00 00 00 00 00 00 00 ................
0040B710 00 00 00 00 00 00 00 00 00 00 00 00 00 00 00 00 ................
0040B720 00 00 00 00 00 00 00 00 00 00 00 00 00 00 00 00 ................
0040B730 00 00 00 00 00 00 00 00 00 00 00 00 00 00 00 00 ................
0040B740 00 00 00 00 00 00 00 00 00 00 00 00 00 00 00 00 ................
0040B750 00 00 00 00 00 00 00 00 00 00 00 00 00 00 00 00 ................
0040B760 00 00 00 00 00 00 00 00 00 00 00 00 00 00 00 00 ................
0040B770 00 00 00 00 00 00 00 00 00 00 00 00 00 00 00 00 ................
0040B780 00 00 00 00 00 00 00 00 00 00 00 00 00 00 00 00 ................
0040B790 00 00 00 00 00 00 00 00 00 00 00 00 00 00 00 00 ................
0040B7A0 00 00 00 00 00 00 00 00 00 00 00 00 00 00 00 00 ................
0040B7B0 00 00 00 00 00 00 00 00 00 00 00 00 00 00 00 00 ................
0040B7C0 00 00 00 00 00 00 00 00 00 00 00 00 00 00 00 00 ................
0040B7D0 00 00 00 00 00 00 00 00 00 00 00 00 00 00 00 00 ................
0040B7E0 00 00 00 00 00 00 00 00 00 00 00 00 00 00 00 00 ................
0040B7F0 00 00 00 00 00 00 00 00 00 00 00 00 00 00 00 00 ................
0040B800 00 00 00 00 00 00 00 00 00 00 00 00 00 00 00 00 ................
0040B810 00 00 00 00 00 00 00 00 00 00 00 00 00 00 00 00 ................
0040B820 00 00 00 00 00 00 00 00 00 00 00 00 00 00 00 00 ................
0040B830 00 00 00 00 00 00 00 00 00 00 00 00 00 00 00 00 ................
0040B840 00 00 00 00 00 00 00 00 00 00 00 00 00 00 00 00 ................
0040B850 00 00 00 00 00 00 00 00 00 00 00 00 00 00 00 00 ................
0040B860 00 00 00 00 00 00 00 00 00 00 00 00 00 00 00 00 ................
0040B870 00 00 00 00 00 00 00 00 00 00 00 00 00 00 00 00 ................
0040B880 00 00 00 00 00 00 00 00 00 00 00 00 00 00 00 00 ................
0040B890 00 00 00 00 00 00 00 00 00 00 00 00 00 00 00 00 ................
0040B8A0 00 00 00 00 00 00 00 00 00 00 00 00 00 00 00 00 ................
0040B8B0 00 00 00 00 00 00 00 00 00 00 00 00 00 00 00 00 ................
0040B8C0 00 00 00 00 00 00 00 00 00 00 00 00 00 00 00 00 ................
0040B8D0 00 00 00 00 00 00 00 00 00 00 00 00 00 00 00 00 ................
0040B8E0 00 00 00 00 00 00 00 00 00 00 00 00 00 00 00 00 ................
0040B8F0 00 00 00 00 00 00 00 00 00 00 00 00 00 00 00 00 ................
0040B900 00 00 00 00 00 00 00 00 00 00 00 00 00 00 00 00 ................
0040B910 00 00 00 00 00 00 00 00 00 00 00 00 00 00 00 00 ................
0040B920 00 00 00 00 00 00 00 00 00 00 00 00 00 00 00 00 ................
0040B930 00 00 00 00 00 00 00 00 00 00 00 00 00 00 00 00 ................
0040B940 00 00 00 00 00 00 00 00 00 00 00 00 00 00 00 00 ................
0040B950 00 00 00 00 00 00 00 00 00 00 00 00 00 00 00 00 ................
0040B960 00 00 00 00 00 00 00 00 00 00 00 00 00 00 00 00 ................
0040B970 00 00 00 00 00 00 00 00 00 00 00 00 00 00 00 00 ................
0040B980 00 00 00 00 00 00 00 00 00 00 00 00 00 00 00 00 ................
0040B990 00 00 00 00 00 00 00 00 00 00 00 00 00 00 00 00 ................
0040B9A0 00 00 00 00 00 00 00 00 00 00 00 00 00 00 00 00 ................
0040B9B0 00 00 00 00 00 00 00 00 00 00 00 00 00 00 00 00 ................
0040B9C0 00 00 00 00 00 00 00 00 00 00 00 00 00 00 00 00 ................
0040B9D0 00 00 00 00 00 00 00 00 00 00 00 00 00 00 00 00 ................
0040B9E0 00 00 00 00 00 00 00 00 00 00 00 00 00 00 00 00 ................
0040B9F0 00 00 00 00 00 00 00 00 00 00 00 00 00 00 00 00 ................
0040BA00 00 00 00 00 00 00 00 00 00 00 00 00 00 00 00 00 ................
0040BA10 00 00 00 00 00 00 00 00 00 00 00 00 00 00 00 00 ................
0040BA20 00 00 00 00 00 00 00 00 00 00 00 00 00 00 00 00 ................
0040BA30 00 00 00 00 00 00 00 00 00 00 00 00 00 00 00 00 ................
0040BA40 00 00 00 00 00 00 00 00 00 00 00 00 00 00 00 00 ................
0040BA50 00 00 00 00 00 00 00 00 00 00 00 00 00 00 00 00 ................
0040BA60 00 00 00 00 00 00 00 00 00 00 00 00 00 00 00 00 ................
0040BA70 00 00 00 00 00 00 00 00 00 00 00 00 00 00 00 00 ................
0040BA80 00 00 00 00 00 00 00 00 00 00 00 00 00 00 00 00 ................
0040BA90 00 00 00 00 00 00 00 00 00 00 00 00 00 00 00 00 ................
0040BAA0 00 00 00 00 00 00 00 00 00 00 00 00 00 00 00 00 ................
0040BAB0 00 00 00 00 00 00 00 00 00 00 00 00 00 00 00 00 ................
0040BAC0 00 00 00 00 00 00 00 00 00 00 00 00 00 00 00 00 ................
0040BAD0 00 00 00 00 00 00 00 00 00 00 00 00 00 00 00 00 ................
0040BAE0 00 00 00 00 00 00 00 00 00 00 00 00 00 00 00 00 ................
0040BAF0 00 00 00 00 00 00 00 00 00 00 00 00 00 00 00 00 ................
0040BB00 00 00 00 00 00 00 00 00 00 00 00 00 00 00 00 00 ................
0040BB10 00 00 00 00 00 00 00 00 00 00 00 00 00 00 00 00 ................
0040BB20 00 00 00 00 00 00 00 00 00 00 00 00 00 00 00 00 ................
0040BB30 00 00 00 00 00 00 00 00 00 00 00 00 00 00 00 00 ................
0040BB40 00 00 00 00 00 00 00 00 00 00 00 00 00 00 00 00 ................
0040BB50 00 00 00 00 00 00 00 00 00 00 00 00 00 00 00 00 ................
0040BB60 00 00 00 00 00 00 00 00 00 00 00 00 00 00 00 00 ................
0040BB70 00 00 00 00 00 00 00 00 00 00 00 00 00 00 00 00 ................
0040BB80 00 00 00 00 00 00 00 00 00 00 00 00 00 00 00 00 ................
0040BB90 00 00 00 00 00 00 00 00 00 00 00 00 00 00 00 00 ................
0040BBA0 00 00 00 00 00 00 00 00 00 00 00 00 00 00 00 00 ................
0040BBB0 00 00 00 00 00 00 00 00 00 00 00 00 00 00 00 00 ................
0040BBC0 00 00 00 00 00 00 00 00 00 00 00 00 00 00 00 00 ................
0040BBD0 00 00 00 00 00 00 00 00 00 00 00 00 00 00 00 00 ................
0040BBE0 00 00 00 00 00 00 00 00 00 00 00 00 00 00 00 00 ................
0040BBF0 00 00 00 00 00 00 00 00 00 00 00 00 00 00 00 00 ................
0040BC00 00 00 00 00 00 00 00 00 00 00 00 00 00 00 00 00 ................
0040BC10 00 00 00 00 00 00 00 00 00 00 00 00 00 00 00 00 ................
0040BC20 00 00 00 00 00 00 00 00 00 00 00 00 00 00 00 00 ................
0040BC30 00 00 00 00 00 00 00 00 00 00 00 00 00 00 00 00 ................
0040BC40 00 00 00 00 00 00 00 00 00 00 00 00 00 00 00 00 ................
0040BC50 00 00 00 00 00 00 00 00 00 00 00 00 00 00 00 00 ................
0040BC60 00 00 00 00 00 00 00 00 00 00 00 00 00 00 00 00 ................
0040BC70 00 00 00 00 00 00 00 00 00 00 00 00 00 00 00 00 ................
0040BC80 00 00 00 00 00 00 00 00 00 00 00 00 00 00 00 00 ................
0040BC90 00 00 00 00 00 00 00 00 00 00 00 00 00 00 00 00 ................
0040BCA0 00 00 00 00 00 00 00 00 00 00 00 00 00 00 00 00 ................
0040BCB0 00 00 00 00 00 00 00 00 00 00 00 00 00 00 00 00 ................
0040BCC0 00 00 00 00 00 00 00 00 00 00 00 00 00 00 00 00 ................
0040BCD0 00 00 00 00 00 00 00 00 00 00 00 00 00 00 00 00 ................
0040BCE0 00 00 00 00 00 00 00 00 00 00 00 00 00 00 00 00 ................
0040BCF0 00 00 00 00 00 00 00 00 00 00 00 00 00 00 00 00 ................
0040BD00 00 00 00 00 00 00 00 00 00 00 00 00 00 00 00 00 ................
0040BD10 00 00 00 00 00 00 00 00 00 00 00 00 00 00 00 00 ................
0040BD20 00 00 00 00 00 00 00 00 00 00 00 00 00 00 00 00 ................
0040BD30 00 00 00 00 00 00 00 00 00 00 00 00 00 00 00 00 ................
0040BD40 00 00 00 00 00 00 00 00 00 00 00 00 00 00 00 00 ................
0040BD50 00 00 00 00 00 00 00 00 00 00 00 00 00 00 00 00 ................
0040BD60 00 00 00 00 00 00 00 00 00 00 00 00 00 00 00 00 ................
0040BD70 00 00 00 00 00 00 00 00 00 00 00 00 00 00 00 00 ................
0040BD80 00 00 00 00 00 00 00 00 00 00 00 00 00 00 00 00 ................
0040BD90 00 00 00 00 00 00 00 00 00 00 00 00 00 00 00 00 ................
0040BDA0 00 00 00 00 00 00 00 00 00 00 00 00 00 00 00 00 ................
0040BDB0 00 00 00 00 00 00 00 00 00 00 00 00 00 00 00 00 ................
0040BDC0 00 00 00 00 00 00 00 00 00 00 00 00 00 00 00 00 ................
0040BDD0 00 00 00 00 00 00 00 00 00 00 00 00 00 00 00 00 ................
0040BDE0 00 00 00 00 00 00 00 00 00 00 00 00 00 00 00 00 ................
0040BDF0 00 00 00 00 00 00 00 00 00 00 00 00 00 00 00 00 ................
0040BE00 00 00 00 00 00 00 00 00 00 00 00 00 00 00 00 00 ................
0040BE10 00 00 00 00 00 00 00 00 00 00 00 00 00 00 00 00 ................
0040BE20 00 00 00 00 00 00 00 00 00 00 00 00 00 00 00 00 ................
0040BE30 00 00 00 00 00 00 00 00 00 00 00 00 00 00 00 00 ................
0040BE40 00 00 00 00 00 00 00 00 00 00 00 00 00 00 00 00 ................
0040BE50 00 00 00 00 00 00 00 00 00 00 00 00 00 00 00 00 ................
0040BE60 00 00 00 00 00 00 00 00 00 00 00 00 00 00 00 00 ................
0040BE70 00 00 00 00 00 00 00 00 00 00 00 00 00 00 00 00 ................
0040BE80 00 00 00 00 00 00 00 00 00 00 00 00 00 00 00 00 ................
0040BE90 00 00 00 00 00 00 00 00 00 00 00 00 00 00 00 00 ................
0040BEA0 00 00 00 00 00 00 00 00 00 00 00 00 00 00 00 00 ................
0040BEB0 00 00 00 00 00 00 00 00 00 00 00 00 00 00 00 00 ................
0040BEC0 00 00 00 00 00 00 00 00 00 00 00 00 00 00 00 00 ................
0040BED0 00 00 00 00 00 00 00 00 00 00 00 00 00 00 00 00 ................
0040BEE0 00 00 00 00 00 00 00 00 00 00 00 00 00 00 00 00 ................
0040BEF0 00 00 00 00 00 00 00 00 00 00 00 00 00 00 00 00 ................
0040BF00 00 00 00 00 00 00 00 00 00 00 00 00 00 00 00 00 ................
0040BF10 00 00 00 00 00 00 00 00 00 00 00 00 00 00 00 00 ................
0040BF20 00 00 00 00 00 00 00 00 00 00 00 00 00 00 00 00 ................
0040BF30 00 00 00 00 00 00 00 00 00 00 00 00 00 00 00 00 ................
0040BF40 00 00 00 00 00 00 00 00 00 00 00 00 00 00 00 00 ................
0040BF50 00 00 00 00 00 00 00 00 00 00 00 00 00 00 00 00 ................
0040BF60 00 00 00 00 00 00 00 00 00 00 00 00 00 00 00 00 ................
0040BF70 00 00 00 00 00 00 00 00 00 00 00 00 00 00 00 00 ................
0040BF80 00 00 00 00 00 00 00 00 00 00 00 00 00 00 00 00 ................
0040BF90 00 00 00 00 00 00 00 00 00 00 00 00 00 00 00 00 ................
0040BFA0 00 00 00 00 00 00 00 00 00 00 00 00 00 00 00 00 ................
0040BFB0 00 00 00 00 00 00 00 00 00 00 00 00 00 00 00 00 ................
0040BFC0 00 00 00 00 00 00 00 00 00 00 00 00 00 00 00 00 ................
0040BFD0 00 00 00 00 00 00 00 00 00 00 00 00 00 00 00 00 ................
0040BFE0 00 00 00 00 00 00 00 00 00 00 00 00 00 00 00 00 ................
0040BFF0 00 00 00 00 00 00 00 00 00 00 00 00 00 00 00 00 ................
0040C000 00 00 00 00 00 00 00 00 00 00 00 00 00 00 00 00 ................
0040C010 00 00 00 00 00 00 00 00 00 00 00 00 00 00 00 00 ................
0040C020 00 00 00 00 00 00 00 00 00 00 00 00 00 00 00 00 ................
0040C030 00 00 00 00 00 00 00 00 00 00 00 00 00 00 00 00 ................
0040C040 00 00 00 00 00 00 00 00 00 00 00 00 00 00 00 00 ................
0040C050 00 00 00 00 00 00 00 00 00 00 00 00 00 00 00 00 ................
0040C060 00 00 00 00 00 00 00 00 00 00 00 00 00 00 00 00 ................
0040C070 00 00 00 00 00 00 00 00 00 00 00 00 00 00 00 00 ................
0040C080 00 00 00 00 00 00 00 00 00 00 00 00 00 00 00 00 ................
0040C090 00 00 00 00 00 00 00 00 00 00 00 00 00 00 00 00 ................
0040C0A0 00 00 00 00 00 00 00 00 00 00 00 00 00 00 00 00 ................
0040C0B0 00 00 00 00 00 00 00 00 00 00 00 00 00 00 00 00 ................
0040C0C0 00 00 00 00 00 00 00 00 00 00 00 00 00 00 00 00 ................
0040C0D0 00 00 00 00 00 00 00 00 00 00 00 00 00 00 00 00 ................
0040C0E0 00 00 00 00 00 00 00 00 00 00 00 00 00 00 00 00 ................
0040C0F0 00 00 00 00 00 00 00 00 00 00 00 00 00 00 00 00 ................
0040C100 00 00 00 00 00 00 00 00 00 00 00 00 00 00 00 00 ................
0040C110 00 00 00 00 00 00 00 00 00 00 00 00 00 00 00 00 ................
0040C120 00 00 00 00 00 00 00 00 00 00 00 00 00 00 00 00 ................
0040C130 00 00 00 00 00 00 00 00 00 00 00 00 00 00 00 00 ................
0040C140 00 00 00 00 00 00 00 00 00 00 00 00 00 00 00 00 ................
0040C150 00 00 00 00 00 00 00 00 00 00 00 00 00 00 00 00 ................
0040C160 00 00 00 00 00 00 00 00 00 00 00 00 00 00 00 00 ................
0040C170 00 00 00 00 00 00 00 00 00 00 00 00 00 00 00 00 ................
0040C180 00 00 00 00 00 00 00 00 00 00 00 00 00 00 00 00 ................
0040C190 00 00 00 00 00 00 00 00 00 00 00 00 00 00 00 00 ................
0040C1A0 00 00 00 00 00 00 00 00 00 00 00 00 00 00 00 00 ................
0040C1B0 00 00 00 00 00 00 00 00 00 00 00 00 00 00 00 00 ................
0040C1C0 00 00 00 00 00 00 00 00 00 00 00 00 00 00 00 00 ................
0040C1D0 00 00 00 00 00 00 00 00 00 00 00 00 00 00 00 00 ................
0040C1E0 00 00 00 00 00 00 00 00 00 00 00 00 00 00 00 00 ................
0040C1F0 00 00 00 00 00 00 00 00 00 00 00 00 00 00 00 00 ................
0040C200 00 00 00 00 00 00 00 00 00 00 00 00 00 00 00 00 ................
0040C210 00 00 00 00 00 00 00 00 00 00 00 00 00 00 00 00 ................
0040C220 00 00 00 00 00 00 00 00 00 00 00 00 00 00 00 00 ................
0040C230 00 00 00 00 00 00 00 00 00 00 00 00 00 00 00 00 ................
0040C240 00 00 00 00 00 00 00 00 00 00 00 00 00 00 00 00 ................
0040C250 00 00 00 00 00 00 00 00 00 00 00 00 00 00 00 00 ................
0040C260 00 00 00 00 00 00 00 00 00 00 00 00 00 00 00 00 ................
0040C270 00 00 00 00 00 00 00 00 00 00 00 00 00 00 00 00 ................
0040C280 00 00 00 00 00 00 00 00 00 00 00 00 00 00 00 00 ................
0040C290 00 00 00 00 00 00 00 00 00 00 00 00 00 00 00 00 ................
0040C2A0 00 00 00 00 00 00 00 00 00 00 00 00 00 00 00 00 ................
0040C2B0 00 00 00 00 00 00 00 00 00 00 00 00 00 00 00 00 ................
0040C2C0 00 00 00 00 00 00 00 00 00 00 00 00 00 00 00 00 ................
0040C2D0 00 00 00 00 00 00 00 00 00 00 00 00 00 00 00 00 ................
0040C2E0 00 00 00 00 00 00 00 00 00 00 00 00 00 00 00 00 ................
0040C2F0 00 00 00 00 00 00 00 00 00 00 00 00 00 00 00 00 ................
0040C300 00 00 00 00 00 00 00 00 00 00 00 00 00 00 00 00 ................
0040C310 00 00 00 00 00 00 00 00 00 00 00 00 00 00 00 00 ................
0040C320 00 00 00 00 00 00 00 00 00 00 00 00 00 00 00 00 ................
0040C330 00 00 00 00 00 00 00 00 00 00 00 00 00 00 00 00 ................
0040C340 00 00 00 00 00 00 00 00 00 00 00 00 00 00 00 00 ................
0040C350 00 00 00 00 00 00 00 00 00 00 00 00 00 00 00 00 ................
0040C360 00 00 00 00 00 00 00 00 00 00 00 00 00 00 00 00 ................
0040C370 00 00 00 00 00 00 00 00 00 00 00 00 00 00 00 00 ................
0040C380 00 00 00 00 00 00 00 00 00 00 00 00 00 00 00 00 ................
0040C390 00 00 00 00 00 00 00 00 00 00 00 00 00 00 00 00 ................
0040C3A0 00 00 00 00 00 00 00 00 00 00 00 00 00 00 00 00 ................
0040C3B0 00 00 00 00 00 00 00 00 00 00 00 00 00 00 00 00 ................
0040C3C0 00 00 00 00 00 00 00 00 00 00 00 00 00 00 00 00 ................
0040C3D0 00 00 00 00 00 00 00 00 00 00 00 00 00 00 00 00 ................
0040C3E0 00 00 00 00 00 00 00 00 00 00 00 00 00 00 00 00 ................
0040C3F0 00 00 00 00 00 00 00 00 00 00 00 00 00 00 00 00 ................
0040C400 00 00 00 00 00 00 00 00 00 00 00 00 00 00 00 00 ................
0040C410 00 00 00 00 00 00 00 00 00 00 00 00 00 00 00 00 ................
0040C420 00 00 00 00 00 00 00 00 00 00 00 00 00 00 00 00 ................
0040C430 00 00 00 00 00 00 00 00 00 00 00 00 00 00 00 00 ................
0040C440 00 00 00 00 00 00 00 00 00 00 00 00 00 00 00 00 ................
0040C450 00 00 00 00 00 00 00 00 00 00 00 00 00 00 00 00 ................
0040C460 00 00 00 00 00 00 00 00 00 00 00 00 00 00 00 00 ................
0040C470 00 00 00 00 00 00 00 00 00 00 00 00 00 00 00 00 ................
0040C480 00 00 00 00 00 00 00 00 00 00 00 00 00 00 00 00 ................
0040C490 00 00 00 00 00 00 00 00 00 00 00 00 00 00 00 00 ................
0040C4A0 00 00 00 00 00 00 00 00 00 00 00 00 00 00 00 00 ................
0040C4B0 00 00 00 00 00 00 00 00 00 00 00 00 00 00 00 00 ................
0040C4C0 00 00 00 00 00 00 00 00 00 00 00 00 00 00 00 00 ................
0040C4D0 00 00 00 00 00 00 00 00 00 00 00 00 00 00 00 00 ................
0040C4E0 00 00 00 00 00 00 00 00 00 00 00 00 00 00 00 00 ................
0040C4F0 00 00 00 00 00 00 00 00 00 00 00 00 00 00 00 00 ................
0040C500 00 00 00 00 00 00 00 00 00 00 00 00 00 00 00 00 ................
0040C510 00 00 00 00 00 00 00 00 00 00 00 00 00 00 00 00 ................
0040C520 00 00 00 00 00 00 00 00 00 00 00 00 00 00 00 00 ................
0040C530 00 00 00 00 00 00 00 00 00 00 00 00 00 00 00 00 ................
0040C540 00 00 00 00 00 00 00 00 00 00 00 00 00 00 00 00 ................
0040C550 00 00 00 00 00 00 00 00 00 00 00 00 00 00 00 00 ................
0040C560 00 00 00 00 00 00 00 00 00 00 00 00 00 00 00 00 ................
0040C570 00 00 00 00 00 00 00 00 00 00 00 00 00 00 00 00 ................
0040C580 00 00 00 00 00 00 00 00 00 00 00 00 00 00 00 00 ................
0040C590 00 00 00 00 00 00 00 00 00 00 00 00 00 00 00 00 ................
0040C5A0 00 00 00 00 00 00 00 00 00 00 00 00 00 00 00 00 ................
0040C5B0 00 00 00 00 00 00 00 00 00 00 00 00 00 00 00 00 ................
0040C5C0 00 00 00 00 00 00 00 00 00 00 00 00 00 00 00 00 ................
0040C5D0 00 00 00 00 00 00 00 00 00 00 00 00 00 00 00 00 ................
0040C5E0 00 00 00 00 00 00 00 00 00 00 00 00 00 00 00 00 ................
0040C5F0 00 00 00 00 00 00 00 00 00 00 00 00 00 00 00 00 ................
0040C600 00 00 00 00 00 00 00 00 00 00 00 00 00 00 00 00 ................
0040C610 00 00 00 00 00 00 00 00 00 00 00 00 00 00 00 00 ................
0040C620 00 00 00 00 00 00 00 00 00 00 00 00 00 00 00 00 ................
0040C630 00 00 00 00 00 00 00 00 00 00 00 00 00 00 00 00 ................
0040C640 00 00 00 00 00 00 00 00 00 00 00 00 00 00 00 00 ................
0040C650 00 00 00 00 00 00 00 00 00 00 00 00 00 00 00 00 ................
0040C660 00 00 00 00 00 00 00 00 00 00 00 00 00 00 00 00 ................
0040C670 00 00 00 00 00 00 00 00 00 00 00 00 00 00 00 00 ................
0040C680 00 00 00 00 00 00 00 00 00 00 00 00 00 00 00 00 ................
0040C690 00 00 00 00 00 00 00 00 00 00 00 00 00 00 00 00 ................
0040C6A0 00 00 00 00 00 00 00 00 00 00 00 00 00 00 00 00 ................
0040C6B0 00 00 00 00 00 00 00 00 00 00 00 00 00 00 00 00 ................
0040C6C0 00 00 00 00 00 00 00 00 00 00 00 00 00 00 00 00 ................
0040C6D0 00 00 00 00 00 00 00 00 00 00 00 00 00 00 00 00 ................
0040C6E0 00 00 00 00 00 00 00 00 00 00 00 00 00 00 00 00 ................
0040C6F0 00 00 00 00 00 00 00 00 00 00 00 00 00 00 00 00 ................
0040C700 00 00 00 00 00 00 00 00 00 00 00 00 00 00 00 00 ................
0040C710 00 00 00 00 00 00 00 00 00 00 00 00 00 00 00 00 ................
0040C720 00 00 00 00 00 00 00 00 00 00 00 00 00 00 00 00 ................
0040C730 00 00 00 00 00 00 00 00 00 00 00 00 00 00 00 00 ................
0040C740 00 00 00 00 00 00 00 00 00 00 00 00 00 00 00 00 ................
0040C750 00 00 00 00 00 00 00 00 00 00 00 00 00 00 00 00 ................
0040C760 00 00 00 00 00 00 00 00 00 00 00 00 00 00 00 00 ................
0040C770 00 00 00 00 00 00 00 00 00 00 00 00 00 00 00 00 ................
0040C780 00 00 00 00 00 00 00 00 00 00 00 00 00 00 00 00 ................
0040C790 00 00 00 00 00 00 00 00 00 00 00 00 00 00 00 00 ................
0040C7A0 00 00 00 00 00 00 00 00 00 00 00 00 00 00 00 00 ................
0040C7B0 00 00 00 00 00 00 00 00 00 00 00 00 00 00 00 00 ................
0040C7C0 00 00 00 00 00 00 00 00 00 00 00 00 00 00 00 00 ................
0040C7D0 00 00 00 00 00 00 00 00 00 00 00 00 00 00 00 00 ................
0040C7E0 00 00 00 00 00 00 00 00 00 00 00 00 00 00 00 00 ................
0040C7F0 00 00 00 00 00 00 00 00 00 00 00 00 00 00 00 00 ................
0040C800 00 00 00 00 00 00 00 00 00 00 00 00 00 00 00 00 ................
0040C810 00 00 00 00 00 00 00 00 00 00 00 00 00 00 00 00 ................
0040C820 00 00 00 00 00 00 00 00 00 00 00 00 00 00 00 00 ................
0040C830 00 00 00 00 00 00 00 00 00 00 00 00 00 00 00 00 ................
0040C840 00 00 00 00 00 00 00 00 00 00 00 00 00 00 00 00 ................
0040C850 00 00 00 00 00 00 00 00 00 00 00 00 00 00 00 00 ................
0040C860 00 00 00 00 00 00 00 00 00 00 00 00 00 00 00 00 ................
0040C870 00 00 00 00 00 00 00 00 00 00 00 00 00 00 00 00 ................
0040C880 00 00 00 00 00 00 00 00 00 00 00 00 00 00 00 00 ................
0040C890 00 00 00 00 00 00 00 00 00 00 00 00 00 00 00 00 ................
0040C8A0 00 00 00 00 00 00 00 00 00 00 00 00 00 00 00 00 ................
0040C8B0 00 00 00 00 00 00 00 00 00 00 00 00 00 00 00 00 ................
0040C8C0 00 00 00 00 00 00 00 00 00 00 00 00 00 00 00 00 ................
0040C8D0 00 00 00 00 00 00 00 00 00 00 00 00 00 00 00 00 ................
0040C8E0 00 00 00 00 00 00 00 00 00 00 00 00 00 00 00 00 ................
0040C8F0 00 00 00 00 00 00 00 00 00 00 00 00 00 00 00 00 ................
0040C900 00 00 00 00 00 00 00 00 00 00 00 00 00 00 00 00 ................
0040C910 00 00 00 00 00 00 00 00 00 00 00 00 00 00 00 00 ................
0040C920 00 00 00 00 00 00 00 00 00 00 00 00 00 00 00 00 ................
0040C930 00 00 00 00 00 00 00 00 00 00 00 00 00 00 00 00 ................
0040C940 00 00 00 00 00 00 00 00 00 00 00 00 00 00 00 00 ................
0040C950 00 00 00 00 00 00 00 00 00 00 00 00 00 00 00 00 ................
0040C960 00 00 00 00 00 00 00 00 00 00 00 00 00 00 00 00 ................
0040C970 00 00 00 00 00 00 00 00 00 00 00 00 00 00 00 00 ................
0040C980 00 00 00 00 00 00 00 00 00 00 00 00 00 00 00 00 ................
0040C990 00 00 00 00 00 00 00 00 00 00 00 00 00 00 00 00 ................
0040C9A0 00 00 00 00 00 00 00 00 00 00 00 00 00 00 00 00 ................
0040C9B0 00 00 00 00 00 00 00 00 00 00 00 00 00 00 00 00 ................
0040C9C0 00 00 00 00 00 00 00 00 00 00 00 00 00 00 00 00 ................
0040C9D0 00 00 00 00 00 00 00 00 00 00 00 00 00 00 00 00 ................
0040C9E0 00 00 00 00 00 00 00 00 00 00 00 00 00 00 00 00 ................
0040C9F0 00 00 00 00 00 00 00 00 00 00 00 00 00 00 00 00 ................
0040CA00 00 00 00 00 00 00 00 00 00 00 00 00 00 00 00 00 ................
0040CA10 00 00 00 00 00 00 00 00 00 00 00 00 00 00 00 00 ................
0040CA20 00 00 00 00 00 00 00 00 00 00 00 00 00 00 00 00 ................
0040CA30 00 00 00 00 00 00 00 00 00 00 00 00 00 00 00 00 ................
0040CA40 00 00 00 00 00 00 00 00 00 00 00 00 00 00 00 00 ................
0040CA50 00 00 00 00 00 00 00 00 00 00 00 00 00 00 00 00 ................
0040CA60 00 00 00 00 00 00 00 00 00 00 00 00 00 00 00 00 ................
0040CA70 00 00 00 00 00 00 00 00 00 00 00 00 00 00 00 00 ................
0040CA80 00 00 00 00 00 00 00 00 00 00 00 00 00 00 00 00 ................
0040CA90 00 00 00 00 00 00 00 00 00 00 00 00 00 00 00 00 ................
0040CAA0 00 00 00 00 00 00 00 00 00 00 00 00 00 00 00 00 ................
0040CAB0 00 00 00 00 00 00 00 00 00 00 00 00 00 00 00 00 ................
0040CAC0 00 00 00 00 00 00 00 00 00 00 00 00 00 00 00 00 ................
0040CAD0 00 00 00 00 00 00 00 00 00 00 00 00 00 00 00 00 ................
0040CAE0 00 00 00 00 00 00 00 00 00 00 00 00 00 00 00 00 ................
0040CAF0 00 00 00 00 00 00 00 00 00 00 00 00 00 00 00 00 ................
0040CB00 00 00 00 00 00 00 00 00 00 00 00 00 00 00 00 00 ................
0040CB10 00 00 00 00 00 00 00 00 00 00 00 00 00 00 00 00 ................
0040CB20 00 00 00 00 00 00 00 00 00 00 00 00 00 00 00 00 ................
0040CB30 00 00 00 00 00 00 00 00 00 00 00 00 00 00 00 00 ................
0040CB40 00 00 00 00 00 00 00 00 00 00 00 00 00 00 00 00 ................
0040CB50 00 00 00 00 00 00 00 00 00 00 00 00 00 00 00 00 ................
0040CB60 00 00 00 00 00 00 00 00 00 00 00 00 00 00 00 00 ................
0040CB70 00 00 00 00 00 00 00 00 00 00 00 00 00 00 00 00 ................
0040CB80 00 00 00 00 00 00 00 00 00 00 00 00 00 00 00 00 ................
0040CB90 00 00 00 00 00 00 00 00 00 00 00 00 00 00 00 00 ................
0040CBA0 00 00 00 00 00 00 00 00 00 00 00 00 00 00 00 00 ................
0040CBB0 00 00 00 00 00 00 00 00 00 00 00 00 00 00 00 00 ................
0040CBC0 00 00 00 00 00 00 00 00 00 00 00 00 00 00 00 00 ................
0040CBD0 00 00 00 00 00 00 00 00 00 00 00 00 00 00 00 00 ................
0040CBE0 00 00 00 00 00 00 00 00 00 00 00 00 00 00 00 00 ................
0040CBF0 00 00 00 00 00 00 00 00 00 00 00 00 00 00 00 00 ................
0040CC00 00 00 00 00 00 00 00 00 00 00 00 00 00 00 00 00 ................
0040CC10 00 00 00 00 00 00 00 00 00 00 00 00 00 00 00 00 ................
0040CC20 00 00 00 00 00 00 00 00 00 00 00 00 00 00 00 00 ................
0040CC30 00 00 00 00 00 00 00 00 00 00 00 00 00 00 00 00 ................
0040CC40 00 00 00 00 00 00 00 00 00 00 00 00 00 00 00 00 ................
0040CC50 00 00 00 00 00 00 00 00 00 00 00 00 00 00 00 00 ................
0040CC60 00 00 00 00 00 00 00 00 00 00 00 00 00 00 00 00 ................
0040CC70 00 00 00 00 00 00 00 00 00 00 00 00 00 00 00 00 ................
0040CC80 00 00 00 00 00 00 00 00 00 00 00 00 00 00 00 00 ................
0040CC90 00 00 00 00 00 00 00 00 00 00 00 00 00 00 00 00 ................
0040CCA0 00 00 00 00 00 00 00 00 00 00 00 00 00 00 00 00 ................
0040CCB0 00 00 00 00 00 00 00 00 00 00 00 00 00 00 00 00 ................
0040CCC0 00 00 00 00 00 00 00 00 00 00 00 00 00 00 00 00 ................
0040CCD0 00 00 00 00 00 00 00 00 00 00 00 00 00 00 00 00 ................
0040CCE0 00 00 00 00 00 00 00 00 00 00 00 00 00 00 00 00 ................
0040CCF0 00 00 00 00 00 00 00 00 00 00 00 00 00 00 00 00 ................
0040CD00 00 00 00 00 00 00 00 00 00 00 00 00 00 00 00 00 ................
0040CD10 00 00 00 00 00 00 00 00 00 00 00 00 00 00 00 00 ................
0040CD20 00 00 00 00 00 00 00 00 00 00 00 00 00 00 00 00 ................
0040CD30 00 00 00 00 00 00 00 00 00 00 00 00 00 00 00 00 ................
0040CD40 00 00 00 00 00 00 00 00 00 00 00 00 00 00 00 00 ................
0040CD50 00 00 00 00 00 00 00 00 00 00 00 00 00 00 00 00 ................
0040CD60 00 00 00 00 00 00 00 00 00 00 00 00 00 00 00 00 ................
0040CD70 00 00 00 00 00 00 00 00 00 00 00 00 00 00 00 00 ................
0040CD80 00 00 00 00 00 00 00 00 00 00 00 00 00 00 00 00 ................
0040CD90 00 00 00 00 00 00 00 00 00 00 00 00 00 00 00 00 ................
0040CDA0 00 00 00 00 00 00 00 00 00 00 00 00 00 00 00 00 ................
0040CDB0 00 00 00 00 00 00 00 00 00 00 00 00 00 00 00 00 ................
0040CDC0 00 00 00 00 00 00 00 00 00 00 00 00 00 00 00 00 ................
0040CDD0 00 00 00 00 00 00 00 00 00 00 00 00 00 00 00 00 ................
0040CDE0 00 00 00 00 00 00 00 00 00 00 00 00 00 00 00 00 ................
0040CDF0 00 00 00 00 00 00 00 00 00 00 00 00 00 00 00 00 ................
0040CE00 00 00 00 00 00 00 00 00 00 00 00 00 00 00 00 00 ................
0040CE10 00 00 00 00 00 00 00 00 00 00 00 00 00 00 00 00 ................
0040CE20 00 00 00 00 00 00 00 00 00 00 00 00 00 00 00 00 ................
0040CE30 00 00 00 00 00 00 00 00 00 00 00 00 00 00 00 00 ................
0040CE40 00 00 00 00 00 00 00 00 00 00 00 00 00 00 00 00 ................
0040CE50 00 00 00 00 00 00 00 00 00 00 00 00 00 00 00 00 ................
0040CE60 00 00 00 00 00 00 00 00 00 00 00 00 00 00 00 00 ................
0040CE70 00 00 00 00 00 00 00 00 00 00 00 00 00 00 00 00 ................
0040CE80 00 00 00 00 00 00 00 00 00 00 00 00 00 00 00 00 ................
0040CE90 00 00 00 00 00 00 00 00 00 00 00 00 00 00 00 00 ................
0040CEA0 00 00 00 00 00 00 00 00 00 00 00 00 00 00 00 00 ................
0040CEB0 00 00 00 00 00 00 00 00 00 00 00 00 00 00 00 00 ................
0040CEC0 00 00 00 00 00 00 00 00 00 00 00 00 00 00 00 00 ................
0040CED0 00 00 00 00 00 00 00 00 00 00 00 00 00 00 00 00 ................
0040CEE0 00 00 00 00 00 00 00 00 00 00 00 00 00 00 00 00 ................
0040CEF0 00 00 00 00 00 00 00 00 00 00 00 00 00 00 00 00 ................
0040CF00 00 00 00 00 00 00 00 00 00 00 00 00 00 00 00 00 ................
0040CF10 00 00 00 00 00 00 00 00 00 00 00 00 00 00 00 00 ................
0040CF20 00 00 00 00 00 00 00 00 00 00 00 00 00 00 00 00 ................
0040CF30 00 00 00 00 00 00 00 00 00 00 00 00 00 00 00 00 ................
0040CF40 00 00 00 00 00 00 00 00 00 00 00 00 00 00 00 00 ................
0040CF50 00 00 00 00 00 00 00 00 00 00 00 00 00 00 00 00 ................
0040CF60 00 00 00 00 00 00 00 00 00 00 00 00 00 00 00 00 ................
0040CF70 00 00 00 00 00 00 00 00 00 00 00 00 00 00 00 00 ................
0040CF80 00 00 00 00 00 00 00 00 00 00 00 00 00 00 00 00 ................
0040CF90 00 00 00 00 00 00 00 00 00 00 00 00 00 00 00 00 ................
0040CFA0 00 00 00 00 00 00 00 00 00 00 00 00 00 00 00 00 ................
0040CFB0 00 00 00 00 00 00 00 00 00 00 00 00 00 00 00 00 ................
0040CFC0 00 00 00 00 00 00 00 00 00 00 00 00 00 00 00 00 ................
0040CFD0 00 00 00 00 00 00 00 00 00 00 00 00 00 00 00 00 ................
0040CFE0 00 00 00 00 00 00 00 00 00 00 00 00 00 00 00 00 ................
0040CFF0 00 00 00 00 00 00 00 00 00 00 00 00 00 00 00 00 ................
0040D000 00 00 00 00 00 00 00 00 00 00 00 00 00 00 00 00 ................
0040D010 00 00 00 00 00 00 00 00 00 00 00 00 00 00 00 00 ................
0040D020 00 00 00 00 00 00 00 00 00 00 00 00 00 00 00 00 ................
0040D030 00 00 00 00 00 00 00 00 00 00 00 00 00 00 00 00 ................
0040D040 00 00 00 00 00 00 00 00 00 00 00 00 00 00 00 00 ................
0040D050 00 00 00 00 00 00 00 00 00 00 00 00 00 00 00 00 ................
0040D060 00 00 00 00 00 00 00 00 00 00 00 00 00 00 00 00 ................
0040D070 00 00 00 00 00 00 00 00 00 00 00 00 00 00 00 00 ................
0040D080 00 00 00 00 00 00 00 00 00 00 00 00 00 00 00 00 ................
0040D090 00 00 00 00 00 00 00 00 00 00 00 00 00 00 00 00 ................
0040D0A0 00 00 00 00 00 00 00 00 00 00 00 00 00 00 00 00 ................
0040D0B0 00 00 00 00 00 00 00 00 00 00 00 00 00 00 00 00 ................
0040D0C0 00 00 00 00 00 00 00 00 00 00 00 00 00 00 00 00 ................
0040D0D0 00 00 00 00 00 00 00 00 00 00 00 00 00 00 00 00 ................
0040D0E0 00 00 00 00 00 00 00 00 00 00 00 00 00 00 00 00 ................
0040D0F0 00 00 00 00 00 00 00 00 00 00 00 00 00 00 00 00 ................
0040D100 00 00 00 00 00 00 00 00 00 00 00 00 00 00 00 00 ................
0040D110 00 00 00 00 00 00 00 00 00 00 00 00 00 00 00 00 ................
0040D120 00 00 00 00 00 00 00 00 00 00 00 00 00 00 00 00 ................
0040D130 00 00 00 00 00 00 00 00 00 00 00 00 00 00 00 00 ................
0040D140 00 00 00 00 00 00 00 00 00 00 00 00 00 00 00 00 ................
0040D150 00 00 00 00 00 00 00 00 00 00 00 00 00 00 00 00 ................
0040D160 00 00 00 00 00 00 00 00 00 00 00 00 00 00 00 00 ................
0040D170 00 00 00 00 00 00 00 00 00 00 00 00 00 00 00 00 ................
0040D180 00 00 00 00 00 00 00 00 00 00 00 00 00 00 00 00 ................
0040D190 00 00 00 00 00 00 00 00 00 00 00 00 00 00 00 00 ................
0040D1A0 00 00 00 00 00 00 00 00 00 00 00 00 00 00 00 00 ................
0040D1B0 00 00 00 00 00 00 00 00 00 00 00 00 00 00 00 00 ................
0040D1C0 00 00 00 00 00 00 00 00 00 00 00 00 00 00 00 00 ................
0040D1D0 00 00 00 00 00 00 00 00 00 00 00 00 00 00 00 00 ................
0040D1E0 00 00 00 00 00 00 00 00 00 00 00 00 00 00 00 00 ................
0040D1F0 00 00 00 00 00 00 00 00 00 00 00 00 00 00 00 00 ................
0040D200 00 00 00 00 00 00 00 00 00 00 00 00 00 00 00 00 ................
0040D210 00 00 00 00 00 00 00 00 00 00 00 00 00 00 00 00 ................
0040D220 00 00 00 00 00 00 00 00 00 00 00 00 00 00 00 00 ................
0040D230 00 00 00 00 00 00 00 00 00 00 00 00 00 00 00 00 ................
0040D240 00 00 00 00 00 00 00 00 00 00 00 00 00 00 00 00 ................
0040D250 00 00 00 00 00 00 00 00 00 00 00 00 00 00 00 00 ................
0040D260 00 00 00 00 00 00 00 00 00 00 00 00 00 00 00 00 ................
0040D270 00 00 00 00 00 00 00 00 00 00 00 00 00 00 00 00 ................
0040D280 00 00 00 00 00 00 00 00 00 00 00 00 00 00 00 00 ................
0040D290 00 00 00 00 00 00 00 00 00 00 00 00 00 00 00 00 ................
0040D2A0 00 00 00 00 00 00 00 00 00 00 00 00 00 00 00 00 ................
0040D2B0 00 00 00 00 00 00 00 00 00 00 00 00 00 00 00 00 ................
0040D2C0 00 00 00 00 00 00 00 00 00 00 00 00 00 00 00 00 ................
0040D2D0 00 00 00 00 00 00 00 00 00 00 00 00 00 00 00 00 ................
0040D2E0 00 00 00 00 00 00 00 00 00 00 00 00 00 00 00 00 ................
0040D2F0 00 00 00 00 00 00 00 00 00 00 00 00 00 00 00 00 ................
0040D300 00 00 00 00 00 00 00 00 00 00 00 00 00 00 00 00 ................
0040D310 00 00 00 00 00 00 00 00 00 00 00 00 00 00 00 00 ................
0040D320 00 00 00 00 00 00 00 00 00 00 00 00 00 00 00 00 ................
0040D330 00 00 00 00 00 00 00 00 00 00 00 00 00 00 00 00 ................
0040D340 00 00 00 00 00 00 00 00 00 00 00 00 00 00 00 00 ................
0040D350 00 00 00 00 00 00 00 00 00 00 00 00 00 00 00 00 ................
0040D360 00 00 00 00 00 00 00 00 00 00 00 00 00 00 00 00 ................
0040D370 00 00 00 00 00 00 00 00 00 00 00 00 00 00 00 00 ................
0040D380 00 00 00 00 00 00 00 00 00 00 00 00 00 00 00 00 ................
0040D390 00 00 00 00 00 00 00 00 00 00 00 00 00 00 00 00 ................
0040D3A0 00 00 00 00 00 00 00 00 00 00 00 00 00 00 00 00 ................
0040D3B0 00 00 00 00 00 00 00 00 00 00 00 00 00 00 00 00 ................
0040D3C0 00 00 00 00 00 00 00 00 00 00 00 00 00 00 00 00 ................
0040D3D0 00 00 00 00 00 00 00 00 00 00 00 00 00 00 00 00 ................
0040D3E0 00 00 00 00 00 00 00 00 00 00 00 00 00 00 00 00 ................
0040D3F0 00 00 00 00 00 00 00 00 00 00 00 00 00 00 00 00 ................
0040D400 00 00 00 00 00 00 00 00 00 00 00 00 00 00 00 00 ................
0040D410 00 00 00 00 00 00 00 00 00 00 00 00 00 00 00 00 ................
0040D420 00 00 00 00 00 00 00 00 00 00 00 00 00 00 00 00 ................
0040D430 00 00 00 00 00 00 00 00 00 00 00 00 00 00 00 00 ................
0040D440 00 00 00 00 00 00 00 00 00 00 00 00 00 00 00 00 ................
0040D450 00 00 00 00 00 00 00 00 00 00 00 00 00 00 00 00 ................
0040D460 00 00 00 00 00 00 00 00 00 00 00 00 00 00 00 00 ................
0040D470 00 00 00 00 00 00 00 00 00 00 00 00 00 00 00 00 ................
0040D480 00 00 00 00 00 00 00 00 00 00 00 00 00 00 00 00 ................
0040D490 00 00 00 00 00 00 00 00 00 00 00 00 00 00 00 00 ................
0040D4A0 00 00 00 00 00 00 00 00 00 00 00 00 00 00 00 00 ................
0040D4B0 00 00 00 00 00 00 00 00 00 00 00 00 00 00 00 00 ................
0040D4C0 00 00 00 00 00 00 00 00 00 00 00 00 00 00 00 00 ................
0040D4D0 00 00 00 00 00 00 00 00 00 00 00 00 00 00 00 00 ................
0040D4E0 00 00 00 00 00 00 00 00 00 00 00 00 00 00 00 00 ................
0040D4F0 00 00 00 00 00 00 00 00 00 00 00 00 00 00 00 00 ................
0040D500 00 00 00 00 00 00 00 00 00 00 00 00 00 00 00 00 ................
0040D510 00 00 00 00 00 00 00 00 00 00 00 00 00 00 00 00 ................
0040D520 00 00 00 00 00 00 00 00 00 00 00 00 00 00 00 00 ................
0040D530 00 00 00 00 00 00 00 00 00 00 00 00 00 00 00 00 ................
0040D540 00 00 00 00 00 00 00 00 00 00 00 00 00 00 00 00 ................
0040D550 00 00 00 00 00 00 00 00 00 00 00 00 00 00 00 00 ................
0040D560 00 00 00 00 00 00 00 00 00 00 00 00 00 00 00 00 ................
0040D570 00 00 00 00 00 00 00 00 00 00 00 00 00 00 00 00 ................
0040D580 00 00 00 00 00 00 00 00 00 00 00 00 00 00 00 00 ................
0040D590 00 00 00 00 00 00 00 00 00 00 00 00 00 00 00 00 ................
0040D5A0 00 00 00 00 00 00 00 00 00 00 00 00 00 00 00 00 ................
0040D5B0 00 00 00 00 00 00 00 00 00 00 00 00 00 00 00 00 ................
0040D5C0 00 00 00 00 00 00 00 00 00 00 00 00 00 00 00 00 ................
0040D5D0 00 00 00 00 00 00 00 00 00 00 00 00 00 00 00 00 ................
0040D5E0 00 00 00 00 00 00 00 00 00 00 00 00 00 00 00 00 ................
0040D5F0 00 00 00 00 00 00 00 00 00 00 00 00 00 00 00 00 ................
0040D600 00 00 00 00 00 00 00 00 00 00 00 00 00 00 00 00 ................
0040D610 00 00 00 00 00 00 00 00 00 00 00 00 00 00 00 00 ................
0040D620 00 00 00 00 00 00 00 00 00 00 00 00 00 00 00 00 ................
0040D630 00 00 00 00 00 00 00 00 00 00 00 00 00 00 00 00 ................
0040D640 00 00 00 00 00 00 00 00 00 00 00 00 00 00 00 00 ................
0040D650 00 00 00 00 00 00 00 00 00 00 00 00 00 00 00 00 ................
0040D660 00 00 00 00 00 00 00 00 00 00 00 00 00 00 00 00 ................
0040D670 00 00 00 00 00 00 00 00 00 00 00 00 00 00 00 00 ................
0040D680 00 00 00 00 00 00 00 00 00 00 00 00 00 00 00 00 ................
0040D690 00 00 00 00 00 00 00 00 00 00 00 00 00 00 00 00 ................
0040D6A0 00 00 00 00 00 00 00 00 00 00 00 00 00 00 00 00 ................
0040D6B0 00 00 00 00 00 00 00 00 00 00 00 00 00 00 00 00 ................
0040D6C0 00 00 00 00 00 00 00 00 00 00 00 00 00 00 00 00 ................
0040D6D0 00 00 00 00 00 00 00 00 00 00 00 00 00 00 00 00 ................
0040D6E0 00 00 00 00 00 00 00 00 00 00 00 00 00 00 00 00 ................
0040D6F0 00 00 00 00 00 00 00 00 00 00 00 00 00 00 00 00 ................
0040D700 00 00 00 00 00 00 00 00 00 00 00 00 00 00 00 00 ................
0040D710 00 00 00 00 00 00 00 00 00 00 00 00 00 00 00 00 ................
0040D720 00 00 00 00 00 00 00 00 00 00 00 00 00 00 00 00 ................
0040D730 00 00 00 00 00 00 00 00 00 00 00 00 00 00 00 00 ................
0040D740 00 00 00 00 00 00 00 00 00 00 00 00 00 00 00 00 ................
0040D750 00 00 00 00 00 00 00 00 00 00 00 00 00 00 00 00 ................
0040D760 00 00 00 00 00 00 00 00 00 00 00 00 00 00 00 00 ................
0040D770 00 00 00 00 00 00 00 00 00 00 00 00 00 00 00 00 ................
0040D780 00 00 00 00 00 00 00 00 00 00 00 00 00 00 00 00 ................
0040D790 00 00 00 00 00 00 00 00 00 00 00 00 00 00 00 00 ................
0040D7A0 00 00 00 00 00 00 00 00 00 00 00 00 00 00 00 00 ................
0040D7B0 00 00 00 00 00 00 00 00 00 00 00 00 00 00 00 00 ................
0040D7C0 00 00 00 00 00 00 00 00 00 00 00 00 00 00 00 00 ................
0040D7D0 00 00 00 00 00 00 00 00 00 00 00 00 00 00 00 00 ................
0040D7E0 00 00 00 00 00 00 00 00 00 00 00 00 00 00 00 00 ................
0040D7F0 00 00 00 00 00 00 00 00 00 00 00 00 00 00 00 00 ................
0040D800 00 00 00 00 00 00 00 00 00 00 00 00 00 00 00 00 ................
0040D810 00 00 00 00 00 00 00 00 00 00 00 00 00 00 00 00 ................
0040D820 00 00 00 00 00 00 00 00 00 00 00 00 00 00 00 00 ................
0040D830 00 00 00 00 00 00 00 00 00 00 00 00 00 00 00 00 ................
0040D840 00 00 00 00 00 00 00 00 00 00 00 00 00 00 00 00 ................
0040D850 00 00 00 00 00 00 00 00 00 00 00 00 00 00 00 00 ................
0040D860 00 00 00 00 00 00 00 00 00 00 00 00 00 00 00 00 ................
0040D870 00 00 00 00 00 00 00 00 00 00 00 00 00 00 00 00 ................
0040D880 00 00 00 00 00 00 00 00 00 00 00 00 00 00 00 00 ................
0040D890 00 00 00 00 00 00 00 00 00 00 00 00 00 00 00 00 ................
0040D8A0 00 00 00 00 00 00 00 00 00 00 00 00 00 00 00 00 ................
0040D8B0 00 00 00 00 00 00 00 00 00 00 00 00 00 00 00 00 ................
0040D8C0 00 00 00 00 00 00 00 00 00 00 00 00 00 00 00 00 ................
0040D8D0 00 00 00 00 00 00 00 00 00 00 00 00 00 00 00 00 ................
0040D8E0 00 00 00 00 00 00 00 00 00 00 00 00 00 00 00 00 ................
0040D8F0 00 00 00 00 00 00 00 00 00 00 00 00 00 00 00 00 ................
0040D900 00 00 00 00 00 00 00 00 00 00 00 00 00 00 00 00 ................
0040D910 00 00 00 00 00 00 00 00 00 00 00 00 00 00 00 00 ................
0040D920 00 00 00 00 00 00 00 00 00 00 00 00 00 00 00 00 ................
0040D930 00 00 00 00 00 00 00 00 00 00 00 00 00 00 00 00 ................
0040D940 00 00 00 00 00 00 00 00 00 00 00 00 00 00 00 00 ................
0040D950 00 00 00 00 00 00 00 00 00 00 00 00 00 00 00 00 ................
0040D960 00 00 00 00 00 00 00 00 00 00 00 00 00 00 00 00 ................
0040D970 00 00 00 00 00 00 00 00 00 00 00 00 00 00 00 00 ................
0040D980 00 00 00 00 00 00 00 00 00 00 00 00 00 00 00 00 ................
0040D990 00 00 00 00 00 00 00 00 00 00 00 00 00 00 00 00 ................
0040D9A0 00 00 00 00 00 00 00 00 00 00 00 00 00 00 00 00 ................
0040D9B0 00 00 00 00 00 00 00 00 00 00 00 00 00 00 00 00 ................
0040D9C0 00 00 00 00 00 00 00 00 00 00 00 00 00 00 00 00 ................
0040D9D0 00 00 00 00 00 00 00 00 00 00 00 00 00 00 00 00 ................
0040D9E0 00 00 00 00 00 00 00 00 00 00 00 00 00 00 00 00 ................
0040D9F0 00 00 00 00 00 00 00 00 00 00 00 00 00 00 00 00 ................
0040DA00 00 00 00 00 00 00 00 00 00 00 00 00 00 00 00 00 ................
0040DA10 00 00 00 00 00 00 00 00 00 00 00 00 00 00 00 00 ................
0040DA20 00 00 00 00 00 00 00 00 00 00 00 00 00 00 00 00 ................
0040DA30 00 00 00 00 00 00 00 00 00 00 00 00 00 00 00 00 ................
0040DA40 00 00 00 00 00 00 00 00 00 00 00 00 00 00 00 00 ................
0040DA50 00 00 00 00 00 00 00 00 00 00 00 00 00 00 00 00 ................
0040DA60 00 00 00 00 00 00 00 00 00 00 00 00 00 00 00 00 ................
0040DA70 00 00 00 00 00 00 00 00 00 00 00 00 00 00 00 00 ................
0040DA80 00 00 00 00 00 00 00 00 00 00 00 00 00 00 00 00 ................
0040DA90 00 00 00 00 00 00 00 00 00 00 00 00 00 00 00 00 ................
0040DAA0 00 00 00 00 00 00 00 00 00 00 00 00 00 00 00 00 ................
0040DAB0 00 00 00 00 00 00 00 00 00 00 00 00 00 00 00 00 ................
0040DAC0 00 00 00 00 00 00 00 00 00 00 00 00 00 00 00 00 ................
0040DAD0 00 00 00 00 00 00 00 00 00 00 00 00 00 00 00 00 ................
0040DAE0 00 00 00 00 00 00 00 00 00 00 00 00 00 00 00 00 ................
0040DAF0 00 00 00 00 00 00 00 00 00 00 00 00 00 00 00 00 ................
0040DB00 00 00 00 00 00 00 00 00 00 00 00 00 00 00 00 00 ................
0040DB10 00 00 00 00 00 00 00 00 00 00 00 00 00 00 00 00 ................
0040DB20 00 00 00 00 00 00 00 00 00 00 00 00 00 00 00 00 ................
0040DB30 00 00 00 00 00 00 00 00 00 00 00 00 00 00 00 00 ................
0040DB40 00 00 00 00 00 00 00 00 00 00 00 00 00 00 00 00 ................
0040DB50 00 00 00 00 00 00 00 00 00 00 00 00 00 00 00 00 ................
0040DB60 00 00 00 00 00 00 00 00 00 00 00 00 00 00 00 00 ................
0040DB70 00 00 00 00 00 00 00 00 00 00 00 00 00 00 00 00 ................
0040DB80 00 00 00 00 00 00 00 00 00 00 00 00 00 00 00 00 ................
0040DB90 00 00 00 00 00 00 00 00 00 00 00 00 00 00 00 00 ................
0040DBA0 00 00 00 00 00 00 00 00 00 00 00 00 00 00 00 00 ................
0040DBB0 00 00 00 00 00 00 00 00 00 00 00 00 00 00 00 00 ................
0040DBC0 00 00 00 00 00 00 00 00 00 00 00 00 00 00 00 00 ................
0040DBD0 00 00 00 00 00 00 00 00 00 00 00 00 00 00 00 00 ................
0040DBE0 00 00 00 00 00 00 00 00 00 00 00 00 00 00 00 00 ................
0040DBF0 00 00 00 00 00 00 00 00 00 00 00 00 00 00 00 00 ................
0040DC00 00 00 00 00 00 00 00 00 00 00 00 00 00 00 00 00 ................
0040DC10 00 00 00 00 00 00 00 00 00 00 00 00 00 00 00 00 ................
0040DC20 00 00 00 00 00 00 00 00 00 00 00 00 00 00 00 00 ................
0040DC30 00 00 00 00 00 00 00 00 00 00 00 00 00 00 00 00 ................
0040DC40 00 00 00 00 00 00 00 00 00 00 00 00 00 00 00 00 ................
0040DC50 00 00 00 00 00 00 00 00 00 00 00 00 00 00 00 00 ................
0040DC60 00 00 00 00 00 00 00 00 00 00 00 00 00 00 00 00 ................
0040DC70 00 00 00 00 00 00 00 00 00 00 00 00 00 00 00 00 ................
0040DC80 00 00 00 00 00 00 00 00 00 00 00 00 00 00 00 00 ................
0040DC90 00 00 00 00 00 00 00 00 00 00 00 00 00 00 00 00 ................
0040DCA0 00 00 00 00 00 00 00 00 00 00 00 00 00 00 00 00 ................
0040DCB0 00 00 00 00 00 00 00 00 00 00 00 00 00 00 00 00 ................
0040DCC0 00 00 00 00 00 00 00 00 00 00 00 00 00 00 00 00 ................
0040DCD0 00 00 00 00 00 00 00 00 00 00 00 00 00 00 00 00 ................
0040DCE0 00 00 00 00 00 00 00 00 00 00 00 00 00 00 00 00 ................
0040DCF0 00 00 00 00 00 00 00 00 00 00 00 00 00 00 00 00 ................
0040DD00 00 00 00 00 00 00 00 00 00 00 00 00 00 00 00 00 ................
0040DD10 00 00 00 00 00 00 00 00 00 00 00 00 00 00 00 00 ................
0040DD20 00 00 00 00 00 00 00 00 00 00 00 00 00 00 00 00 ................
0040DD30 00 00 00 00 00 00 00 00 00 00 00 00 00 00 00 00 ................
0040DD40 00 00 00 00 00 00 00 00 00 00 00 00 00 00 00 00 ................
0040DD50 00 00 00 00 00 00 00 00 00 00 00 00 00 00 00 00 ................
0040DD60 00 00 00 00 00 00 00 00 00 00 00 00 00 00 00 00 ................
0040DD70 00 00 00 00 00 00 00 00 00 00 00 00 00 00 00 00 ................
0040DD80 00 00 00 00 00 00 00 00 00 00 00 00 00 00 00 00 ................
0040DD90 00 00 00 00 00 00 00 00 00 00 00 00 00 00 00 00 ................
0040DDA0 00 00 00 00 00 00 00 00 00 00 00 00 00 00 00 00 ................
0040DDB0 00 00 00 00 00 00 00 00 00 00 00 00 00 00 00 00 ................
0040DDC0 00 00 00 00 00 00 00 00 00 00 00 00 00 00 00 00 ................
0040DDD0 00 00 00 00 00 00 00 00 00 00 00 00 00 00 00 00 ................
0040DDE0 00 00 00 00 00 00 00 00 00 00 00 00 00 00 00 00 ................
0040DDF0 00 00 00 00 00 00 00 00 00 00 00 00 00 00 00 00 ................
0040DE00 00 00 00 00 00 00 00 00 00 00 00 00 00 00 00 00 ................
0040DE10 00 00 00 00 00 00 00 00 00 00 00 00 00 00 00 00 ................
0040DE20 00 00 00 00 00 00 00 00 00 00 00 00 00 00 00 00 ................
0040DE30 00 00 00 00 00 00 00 00 00 00 00 00 00 00 00 00 ................
0040DE40 00 00 00 00 00 00 00 00 00 00 00 00 00 00 00 00 ................
0040DE50 00 00 00 00 00 00 00 00 00 00 00 00 00 00 00 00 ................
0040DE60 00 00 00 00 00 00 00 00 00 00 00 00 00 00 00 00 ................
0040DE70 00 00 00 00 00 00 00 00 00 00 00 00 00 00 00 00 ................
0040DE80 00 00 00 00 00 00 00 00 00 00 00 00 00 00 00 00 ................
0040DE90 00 00 00 00 00 00 00 00 00 00 00 00 00 00 00 00 ................
0040DEA0 00 00 00 00 00 00 00 00 00 00 00 00 00 00 00 00 ................
0040DEB0 00 00 00 00 00 00 00 00 00 00 00 00 00 00 00 00 ................
0040DEC0 00 00 00 00 00 00 00 00 00 00 00 00 00 00 00 00 ................
0040DED0 00 00 00 00 00 00 00 00 00 00 00 00 00 00 00 00 ................
0040DEE0 00 00 00 00 00 00 00 00 00 00 00 00 00 00 00 00 ................
0040DEF0 00 00 00 00 00 00 00 00 00 00 00 00 00 00 00 00 ................
0040DF00 00 00 00 00 00 00 00 00 00 00 00 00 00 00 00 00 ................
0040DF10 00 00 00 00 00 00 00 00 00 00 00 00 00 00 00 00 ................
0040DF20 00 00 00 00 00 00 00 00 00 00 00 00 00 00 00 00 ................
0040DF30 00 00 00 00 00 00 00 00 00 00 00 00 00 00 00 00 ................
0040DF40 00 00 00 00 00 00 00 00 00 00 00 00 00 00 00 00 ................
0040DF50 00 00 00 00 00 00 00 00 00 00 00 00 00 00 00 00 ................
0040DF60 00 00 00 00 00 00 00 00 00 00 00 00 00 00 00 00 ................
0040DF70 00 00 00 00 00 00 00 00 00 00 00 00 00 00 00 00 ................
0040DF80 00 00 00 00 00 00 00 00 00 00 00 00 00 00 00 00 ................
0040DF90 00 00 00 00 00 00 00 00 00 00 00 00 00 00 00 00 ................
0040DFA0 00 00 00 00 00 00 00 00 00 00 00 00 00 00 00 00 ................
0040DFB0 00 00 00 00 00 00 00 00 00 00 00 00 00 00 00 00 ................
0040DFC0 00 00 00 00 00 00 00 00 00 00 00 00 00 00 00 00 ................
0040DFD0 00 00 00 00 00 00 00 00 00 00 00 00 00 00 00 00 ................
0040DFE0 00 00 00 00 00 00 00 00 00 00 00 00 00 00 00 00 ................
0040DFF0 00 00 00 00 00 00 00 00 00 00 00 00 00 00 00 00 ................
0040E000 00 00 00 00 00 00 00 00 00 00 00 00 00 00 00 00 ................
0040E010 00 00 00 00 00 00 00 00 00 00 00 00 00 00 00 00 ................
0040E020 00 00 00 00 00 00 00 00 00 00 00 00 00 00 00 00 ................
0040E030 00 00 00 00 00 00 00 00 00 00 00 00 00 00 00 00 ................
0040E040 00 00 00 00 00 00 00 00 00 00 00 00 00 00 00 00 ................
0040E050 00 00 00 00 00 00 00 00 00 00 00 00 00 00 00 00 ................
0040E060 00 00 00 00 00 00 00 00 00 00 00 00 00 00 00 00 ................
0040E070 00 00 00 00 00 00 00 00 00 00 00 00 00 00 00 00 ................
0040E080 00 00 00 00 00 00 00 00 00 00 00 00 00 00 00 00 ................
0040E090 00 00 00 00 00 00 00 00 00 00 00 00 00 00 00 00 ................
0040E0A0 00 00 00 00 00 00 00 00 00 00 00 00 00 00 00 00 ................
0040E0B0 00 00 00 00 00 00 00 00 00 00 00 00 00 00 00 00 ................
0040E0C0 00 00 00 00 00 00 00 00 00 00 00 00 00 00 00 00 ................
0040E0D0 00 00 00 00 00 00 00 00 00 00 00 00 00 00 00 00 ................
0040E0E0 00 00 00 00 00 00 00 00 00 00 00 00 00 00 00 00 ................
0040E0F0 00 00 00 00 00 00 00 00 00 00 00 00 00 00 00 00 ................
0040E100 00 00 00 00 00 00 00 00 00 00 00 00 00 00 00 00 ................
0040E110 00 00 00 00 00 00 00 00 00 00 00 00 00 00 00 00 ................
0040E120 00 00 00 00 00 00 00 00 00 00 00 00 00 00 00 00 ................
0040E130 00 00 00 00 00 00 00 00 00 00 00 00 00 00 00 00 ................
0040E140 00 00 00 00 00 00 00 00 00 00 00 00 00 00 00 00 ................
0040E150 00 00 00 00 00 00 00 00 00 00 00 00 00 00 00 00 ................
0040E160 00 00 00 00 00 00 00 00 00 00 00 00 00 00 00 00 ................
0040E170 00 00 00 00 00 00 00 00 00 00 00 00 00 00 00 00 ................
0040E180 00 00 00 00 00 00 00 00 00 00 00 00 00 00 00 00 ................
0040E190 00 00 00 00 00 00 00 00 00 00 00 00 00 00 00 00 ................
0040E1A0 00 00 00 00 00 00 00 00 00 00 00 00 00 00 00 00 ................
0040E1B0 00 00 00 00 00 00 00 00 00 00 00 00 00 00 00 00 ................
0040E1C0 00 00 00 00 00 00 00 00 00 00 00 00 00 00 00 00 ................
0040E1D0 00 00 00 00 00 00 00 00 00 00 00 00 00 00 00 00 ................
0040E1E0 00 00 00 00 00 00 00 00 00 00 00 00 00 00 00 00 ................
0040E1F0 00 00 00 00 00 00 00 00 00 00 00 00 00 00 00 00 ................
0040E200 00 00 00 00 00 00 00 00 00 00 00 00 00 00 00 00 ................
0040E210 00 00 00 00 00 00 00 00 00 00 00 00 00 00 00 00 ................
0040E220 00 00 00 00 00 00 00 00 00 00 00 00 00 00 00 00 ................
0040E230 00 00 00 00 00 00 00 00 00 00 00 00 00 00 00 00 ................
0040E240 00 00 00 00 00 00 00 00 00 00 00 00 00 00 00 00 ................
0040E250 00 00 00 00 00 00 00 00 00 00 00 00 00 00 00 00 ................
0040E260 00 00 00 00 00 00 00 00 00 00 00 00 00 00 00 00 ................
0040E270 00 00 00 00 00 00 00 00 00 00 00 00 00 00 00 00 ................
0040E280 00 00 00 00 00 00 00 00 00 00 00 00 00 00 00 00 ................
0040E290 00 00 00 00 00 00 00 00 00 00 00 00 00 00 00 00 ................
0040E2A0 00 00 00 00 00 00 00 00 00 00 00 00 00 00 00 00 ................
0040E2B0 00 00 00 00 00 00 00 00 00 00 00 00 00 00 00 00 ................
0040E2C0 00 00 00 00 00 00 00 00 00 00 00 00 00 00 00 00 ................
0040E2D0 00 00 00 00 00 00 00 00 00 00 00 00 00 00 00 00 ................
0040E2E0 00 00 00 00 00 00 00 00 00 00 00 00 00 00 00 00 ................
0040E2F0 00 00 00 00 00 00 00 00 00 00 00 00 00 00 00 00 ................
0040E300 00 00 00 00 00 00 00 00 00 00 00 00 00 00 00 00 ................
0040E310 00 00 00 00 00 00 00 00 00 00 00 00 00 00 00 00 ................
0040E320 00 00 00 00 00 00 00 00 00 00 00 00 00 00 00 00 ................
0040E330 00 00 00 00 00 00 00 00 00 00 00 00 00 00 00 00 ................
0040E340 00 00 00 00 00 00 00 00 00 00 00 00 00 00 00 00 ................
0040E350 00 00 00 00 00 00 00 00 00 00 00 00 00 00 00 00 ................
0040E360 00 00 00 00 00 00 00 00 00 00 00 00 00 00 00 00 ................
0040E370 00 00 00 00 00 00 00 00 00 00 00 00 00 00 00 00 ................
0040E380 00 00 00 00 00 00 00 00 00 00 00 00 00 00 00 00 ................
0040E390 00 00 00 00 00 00 00 00 00 00 00 00 00 00 00 00 ................
0040E3A0 00 00 00 00 00 00 00 00 00 00 00 00 00 00 00 00 ................
0040E3B0 00 00 00 00 00 00 00 00 00 00 00 00 00 00 00 00 ................
0040E3C0 00 00 00 00 00 00 00 00 00 00 00 00 00 00 00 00 ................
0040E3D0 00 00 00 00 00 00 00 00 00 00 00 00 00 00 00 00 ................
0040E3E0 00 00 00 00 00 00 00 00 00 00 00 00 00 00 00 00 ................
0040E3F0 00 00 00 00 00 00 00 00 00 00 00 00 00 00 00 00 ................
0040E400 00 00 00 00 00 00 00 00 00 00 00 00 00 00 00 00 ................
0040E410 00 00 00 00 00 00 00 00 00 00 00 00 00 00 00 00 ................
0040E420 00 00 00 00 00 00 00 00 00 00 00 00 00 00 00 00 ................
0040E430 00 00 00 00 00 00 00 00 00 00 00 00 00 00 00 00 ................
0040E440 00 00 00 00 00 00 00 00 00 00 00 00 00 00 00 00 ................
0040E450 00 00 00 00 00 00 00 00 00 00 00 00 00 00 00 00 ................
0040E460 00 00 00 00 00 00 00 00 00 00 00 00 00 00 00 00 ................
0040E470 00 00 00 00 00 00 00 00 00 00 00 00 00 00 00 00 ................
0040E480 00 00 00 00 00 00 00 00 00 00 00 00 00 00 00 00 ................
0040E490 00 00 00 00 00 00 00 00 00 00 00 00 00 00 00 00 ................
0040E4A0 00 00 00 00 00 00 00 00 00 00 00 00 00 00 00 00 ................
0040E4B0 00 00 00 00 00 00 00 00 00 00 00 00 00 00 00 00 ................
0040E4C0 00 00 00 00 00 00 00 00 00 00 00 00 00 00 00 00 ................
0040E4D0 00 00 00 00 00 00 00 00 00 00 00 00 00 00 00 00 ................
0040E4E0 00 00 00 00 00 00 00 00 00 00 00 00 00 00 00 00 ................
0040E4F0 00 00 00 00 00 00 00 00 00 00 00 00 00 00 00 00 ................
0040E500 00 00 00 00 00 00 00 00 00 00 00 00 00 00 00 00 ................
0040E510 00 00 00 00 00 00 00 00 00 00 00 00 00 00 00 00 ................
0040E520 00 00 00 00 00 00 00 00 00 00 00 00 00 00 00 00 ................
0040E530 00 00 00 00 00 00 00 00 00 00 00 00 00 00 00 00 ................
0040E540 00 00 00 00 00 00 00 00 00 00 00 00 00 00 00 00 ................
0040E550 00 00 00 00 00 00 00 00 00 00 00 00 00 00 00 00 ................
0040E560 00 00 00 00 00 00 00 00 00 00 00 00 00 00 00 00 ................
0040E570 00 00 00 00 00 00 00 00 00 00 00 00 00 00 00 00 ................
0040E580 00 00 00 00 00 00 00 00 00 00 00 00 00 00 00 00 ................
0040E590 00 00 00 00 00 00 00 00 00 00 00 00 00 00 00 00 ................
0040E5A0 00 00 00 00 00 00 00 00 00 00 00 00 00 00 00 00 ................
0040E5B0 00 00 00 00 00 00 00 00 00 00 00 00 00 00 00 00 ................
0040E5C0 00 00 00 00 00 00 00 00 00 00 00 00 00 00 00 00 ................
0040E5D0 00 00 00 00 00 00 00 00 00 00 00 00 00 00 00 00 ................
0040E5E0 00 00 00 00 00 00 00 00 00 00 00 00 00 00 00 00 ................
0040E5F0 00 00 00 00 00 00 00 00 00 00 00 00 00 00 00 00 ................
0040E600 00 00 00 00 00 00 00 00 00 00 00 00 00 00 00 00 ................
0040E610 00 00 00 00 00 00 00 00 00 00 00 00 00 00 00 00 ................
0040E620 00 00 00 00 00 00 00 00 00 00 00 00 00 00 00 00 ................
0040E630 00 00 00 00 00 00 00 00 00 00 00 00 00 00 00 00 ................
0040E640 00 00 00 00 00 00 00 00 00 00 00 00 00 00 00 00 ................
0040E650 00 00 00 00 00 00 00 00 00 00 00 00 00 00 00 00 ................
0040E660 00 00 00 00 00 00 00 00 00 00 00 00 00 00 00 00 ................
0040E670 00 00 00 00 00 00 00 00 00 00 00 00 00 00 00 00 ................
0040E680 00 00 00 00 00 00 00 00 00 00 00 00 00 00 00 00 ................
0040E690 00 00 00 00 00 00 00 00 00 00 00 00 00 00 00 00 ................
0040E6A0 00 00 00 00 00 00 00 00 00 00 00 00 00 00 00 00 ................
0040E6B0 00 00 00 00 00 00 00 00 00 00 00 00 00 00 00 00 ................
0040E6C0 00 00 00 00 00 00 00 00 00 00 00 00 00 00 00 00 ................
0040E6D0 00 00 00 00 00 00 00 00 00 00 00 00 00 00 00 00 ................
0040E6E0 00 00 00 00 00 00 00 00 00 00 00 00 00 00 00 00 ................
0040E6F0 00 00 00 00 00 00 00 00 00 00 00 00 00 00 00 00 ................
0040E700 00 00 00 00 00 00 00 00 00 00 00 00 00 00 00 00 ................
0040E710 00 00 00 00 00 00 00 00 00 00 00 00 00 00 00 00 ................
0040E720 00 00 00 00 00 00 00 00 00 00 00 00 00 00 00 00 ................
0040E730 00 00 00 00 00 00 00 00 00 00 00 00 00 00 00 00 ................
0040E740 00 00 00 00 00 00 00 00 00 00 00 00 00 00 00 00 ................
0040E750 00 00 00 00 00 00 00 00 00 00 00 00 00 00 00 00 ................
0040E760 00 00 00 00 00 00 00 00 00 00 00 00 00 00 00 00 ................
0040E770 00 00 00 00 00 00 00 00 00 00 00 00 00 00 00 00 ................
0040E780 00 00 00 00 00 00 00 00 00 00 00 00 00 00 00 00 ................
0040E790 00 00 00 00 00 00 00 00 00 00 00 00 00 00 00 00 ................
0040E7A0 00 00 00 00 00 00 00 00 00 00 00 00 00 00 00 00 ................
0040E7B0 00 00 00 00 00 00 00 00 00 00 00 00 00 00 00 00 ................
0040E7C0 00 00 00 00 00 00 00 00 00 00 00 00 00 00 00 00 ................
0040E7D0 00 00 00 00 00 00 00 00 00 00 00 00 00 00 00 00 ................
0040E7E0 00 00 00 00 00 00 00 00 00 00 00 00 00 00 00 00 ................
0040E7F0 00 00 00 00 00 00 00 00 00 00 00 00 00 00 00 00 ................
0040E800 00 00 00 00 00 00 00 00 00 00 00 00 00 00 00 00 ................
0040E810 00 00 00 00 00 00 00 00 00 00 00 00 00 00 00 00 ................
0040E820 00 00 00 00 00 00 00 00 00 00 00 00 00 00 00 00 ................
0040E830 00 00 00 00 00 00 00 00 00 00 00 00 00 00 00 00 ................
0040E840 00 00 00 00 00 00 00 00 00 00 00 00 00 00 00 00 ................
0040E850 00 00 00 00 00 00 00 00 00 00 00 00 00 00 00 00 ................
0040E860 00 00 00 00 00 00 00 00 00 00 00 00 00 00 00 00 ................
0040E870 00 00 00 00 00 00 00 00 00 00 00 00 00 00 00 00 ................
0040E880 00 00 00 00 00 00 00 00 00 00 00 00 00 00 00 00 ................
0040E890 00 00 00 00 00 00 00 00 00 00 00 00 00 00 00 00 ................
0040E8A0 00 00 00 00 00 00 00 00 00 00 00 00 00 00 00 00 ................
0040E8B0 00 00 00 00 00 00 00 00 00 00 00 00 00 00 00 00 ................
0040E8C0 00 00 00 00 00 00 00 00 00 00 00 00 00 00 00 00 ................
0040E8D0 00 00 00 00 00 00 00 00 00 00 00 00 00 00 00 00 ................
0040E8E0 00 00 00 00 00 00 00 00 00 00 00 00 00 00 00 00 ................
0040E8F0 00 00 00 00 00 00 00 00 00 00 00 00 00 00 00 00 ................
0040E900 00 00 00 00 00 00 00 00 00 00 00 00 00 00 00 00 ................
0040E910 00 00 00 00 00 00 00 00 00 00 00 00 00 00 00 00 ................
0040E920 00 00 00 00 00 00 00 00 00 00 00 00 00 00 00 00 ................
0040E930 00 00 00 00 00 00 00 00 00 00 00 00 00 00 00 00 ................
0040E940 00 00 00 00 00 00 00 00 00 00 00 00 00 00 00 00 ................
0040E950 00 00 00 00 00 00 00 00 00 00 00 00 00 00 00 00 ................
0040E960 00 00 00 00 00 00 00 00 00 00 00 00 00 00 00 00 ................
0040E970 00 00 00 00 00 00 00 00 00 00 00 00 00 00 00 00 ................
0040E980 00 00 00 00 00 00 00 00 00 00 00 00 00 00 00 00 ................
0040E990 00 00 00 00 00 00 00 00 00 00 00 00 00 00 00 00 ................
0040E9A0 00 00 00 00 00 00 00 00 00 00 00 00 00 00 00 00 ................
0040E9B0 00 00 00 00 00 00 00 00 00 00 00 00 00 00 00 00 ................
0040E9C0 00 00 00 00 00 00 00 00 00 00 00 00 00 00 00 00 ................
0040E9D0 00 00 00 00 00 00 00 00 00 00 00 00 00 00 00 00 ................
0040E9E0 00 00 00 00 00 00 00 00 00 00 00 00 00 00 00 00 ................
0040E9F0 00 00 00 00 00 00 00 00 00 00 00 00 00 00 00 00 ................
0040EA00 00 00 00 00 00 00 00 00 00 00 00 00 00 00 00 00 ................
0040EA10 00 00 00 00 00 00 00 00 00 00 00 00 00 00 00 00 ................
0040EA20 00 00 00 00 00 00 00 00 00 00 00 00 00 00 00 00 ................
0040EA30 00 00 00 00 00 00 00 00 00 00 00 00 00 00 00 00 ................
0040EA40 00 00 00 00 00 00 00 00 00 00 00 00 00 00 00 00 ................
0040EA50 00 00 00 00 00 00 00 00 00 00 00 00 00 00 00 00 ................
0040EA60 00 00 00 00 00 00 00 00 00 00 00 00 00 00 00 00 ................
0040EA70 00 00 00 00 00 00 00 00 00 00 00 00 00 00 00 00 ................
0040EA80 00 00 00 00 00 00 00 00 00 00 00 00 00 00 00 00 ................
0040EA90 00 00 00 00 00 00 00 00 00 00 00 00 00 00 00 00 ................
0040EAA0 00 00 00 00 00 00 00 00 00 00 00 00 00 00 00 00 ................
0040EAB0 00 00 00 00 00 00 00 00 00 00 00 00 00 00 00 00 ................
0040EAC0 00 00 00 00 00 00 00 00 00 00 00 00 00 00 00 00 ................
0040EAD0 00 00 00 00 00 00 00 00 00 00 00 00 00 00 00 00 ................
0040EAE0 00 00 00 00 00 00 00 00 00 00 00 00 00 00 00 00 ................
0040EAF0 00 00 00 00 00 00 00 00 00 00 00 00 00 00 00 00 ................
0040EB00 00 00 00 00 00 00 00 00 00 00 00 00 00 00 00 00 ................
0040EB10 00 00 00 00 00 00 00 00 00 00 00 00 00 00 00 00 ................
0040EB20 00 00 00 00 00 00 00 00 00 00 00 00 00 00 00 00 ................
0040EB30 00 00 00 00 00 00 00 00 00 00 00 00 00 00 00 00 ................
0040EB40 00 00 00 00 00 00 00 00 00 00 00 00 00 00 00 00 ................
0040EB50 00 00 00 00 00 00 00 00 00 00 00 00 00 00 00 00 ................
0040EB60 00 00 00 00 00 00 00 00 00 00 00 00 00 00 00 00 ................
0040EB70 00 00 00 00 00 00 00 00 00 00 00 00 00 00 00 00 ................
0040EB80 00 00 00 00 00 00 00 00 00 00 00 00 00 00 00 00 ................
0040EB90 00 00 00 00 00 00 00 00 00 00 00 00 00 00 00 00 ................
0040EBA0 00 00 00 00 00 00 00 00 00 00 00 00 00 00 00 00 ................
0040EBB0 00 00 00 00 00 00 00 00 00 00 00 00 00 00 00 00 ................
0040EBC0 00 00 00 00 00 00 00 00 00 00 00 00 00 00 00 00 ................
0040EBD0 00 00 00 00 00 00 00 00 00 00 00 00 00 00 00 00 ................
0040EBE0 00 00 00 00 00 00 00 00 00 00 00 00 00 00 00 00 ................
0040EBF0 00 00 00 00 00 00 00 00 00 00 00 00 00 00 00 00 ................
0040EC00 00 00 00 00 00 00 00 00 00 00 00 00 00 00 00 00 ................
0040EC10 00 00 00 00 00 00 00 00 00 00 00 00 00 00 00 00 ................
0040EC20 00 00 00 00 00 00 00 00 00 00 00 00 00 00 00 00 ................
0040EC30 00 00 00 00 00 00 00 00 00 00 00 00 00 00 00 00 ................
0040EC40 00 00 00 00 00 00 00 00 00 00 00 00 00 00 00 00 ................
0040EC50 00 00 00 00 00 00 00 00 00 00 00 00 00 00 00 00 ................
0040EC60 00 00 00 00 00 00 00 00 00 00 00 00 00 00 00 00 ................
0040EC70 00 00 00 00 00 00 00 00 00 00 00 00 00 00 00 00 ................
0040EC80 00 00 00 00 00 00 00 00 00 00 00 00 00 00 00 00 ................
0040EC90 00 00 00 00 00 00 00 00 00 00 00 00 00 00 00 00 ................
0040ECA0 00 00 00 00 00 00 00 00 00 00 00 00 00 00 00 00 ................
0040ECB0 00 00 00 00 00 00 00 00 00 00 00 00 00 00 00 00 ................
0040ECC0 00 00 00 00 00 00 00 00 00 00 00 00 00 00 00 00 ................
0040ECD0 00 00 00 00 00 00 00 00 00 00 00 00 00 00 00 00 ................
0040ECE0 00 00 00 00 00 00 00 00 00 00 00 00 00 00 00 00 ................
0040ECF0 00 00 00 00 00 00 00 00 00 00 00 00 00 00 00 00 ................
0040ED00 00 00 00 00 00 00 00 00 00 00 00 00 00 00 00 00 ................
0040ED10 00 00 00 00 00 00 00 00 00 00 00 00 00 00 00 00 ................
0040ED20 00 00 00 00 00 00 00 00 00 00 00 00 00 00 00 00 ................
0040ED30 00 00 00 00 00 00 00 00 00 00 00 00 00 00 00 00 ................
0040ED40 00 00 00 00 00 00 00 00 00 00 00 00 00 00 00 00 ................
0040ED50 00 00 00 00 00 00 00 00 00 00 00 00 00 00 00 00 ................
0040ED60 00 00 00 00 00 00 00 00 00 00 00 00 00 00 00 00 ................
0040ED70 00 00 00 00 00 00 00 00 00 00 00 00 00 00 00 00 ................
0040ED80 00 00 00 00 00 00 00 00 00 00 00 00 00 00 00 00 ................
0040ED90 00 00 00 00 00 00 00 00 00 00 00 00 00 00 00 00 ................
0040EDA0 00 00 00 00 00 00 00 00 00 00 00 00 00 00 00 00 ................
0040EDB0 00 00 00 00 00 00 00 00 00 00 00 00 00 00 00 00 ................
0040EDC0 00 00 00 00 00 00 00 00 00 00 00 00 00 00 00 00 ................
0040EDD0 00 00 00 00 00 00 00 00 00 00 00 00 00 00 00 00 ................
0040EDE0 00 00 00 00 00 00 00 00 00 00 00 00 00 00 00 00 ................
0040EDF0 00 00 00 00 00 00 00 00 00 00 00 00 00 00 00 00 ................
0040EE00 00 00 00 00 00 00 00 00 00 00 00 00 00 00 00 00 ................
0040EE10 00 00 00 00 00 00 00 00 00 00 00 00 00 00 00 00 ................
0040EE20 00 00 00 00 00 00 00 00 00 00 00 00 00 00 00 00 ................
0040EE30 00 00 00 00 00 00 00 00 00 00 00 00 00 00 00 00 ................
0040EE40 00 00 00 00 00 00 00 00 00 00 00 00 00 00 00 00 ................
0040EE50 00 00 00 00 00 00 00 00 00 00 00 00 00 00 00 00 ................
0040EE60 00 00 00 00 00 00 00 00 00 00 00 00 00 00 00 00 ................
0040EE70 00 00 00 00 00 00 00 00 00 00 00 00 00 00 00 00 ................
0040EE80 00 00 00 00 00 00 00 00 00 00 00 00 00 00 00 00 ................
0040EE90 00 00 00 00 00 00 00 00 00 00 00 00 00 00 00 00 ................
0040EEA0 00 00 00 00 00 00 00 00 00 00 00 00 00 00 00 00 ................
0040EEB0 00 00 00 00 00 00 00 00 00 00 00 00 00 00 00 00 ................
0040EEC0 00 00 00 00 00 00 00 00 00 00 00 00 00 00 00 00 ................
0040EED0 00 00 00 00 00 00 00 00 00 00 00 00 00 00 00 00 ................
0040EEE0 00 00 00 00 00 00 00 00 00 00 00 00 00 00 00 00 ................
0040EEF0 00 00 00 00 00 00 00 00 00 00 00 00 00 00 00 00 ................
0040EF00 00 00 00 00 00 00 00 00 00 00 00 00 00 00 00 00 ................
0040EF10 00 00 00 00 00 00 00 00 00 00 00 00 00 00 00 00 ................
0040EF20 00 00 00 00 00 00 00 00 00 00 00 00 00 00 00 00 ................
0040EF30 00 00 00 00 00 00 00 00 00 00 00 00 00 00 00 00 ................
0040EF40 00 00 00 00 00 00 00 00 00 00 00 00 00 00 00 00 ................
0040EF50 00 00 00 00 00 00 00 00 00 00 00 00 00 00 00 00 ................
0040EF60 00 00 00 00 00 00 00 00 00 00 00 00 00 00 00 00 ................
0040EF70 00 00 00 00 00 00 00 00 00 00 00 00 00 00 00 00 ................
0040EF80 00 00 00 00 00 00 00 00 00 00 00 00 00 00 00 00 ................
0040EF90 00 00 00 00 00 00 00 00 00 00 00 00 00 00 00 00 ................
0040EFA0 00 00 00 00 00 00 00 00 00 00 00 00 00 00 00 00 ................
0040EFB0 00 00 00 00 00 00 00 00 00 00 00 00 00 00 00 00 ................
0040EFC0 00 00 00 00 00 00 00 00 00 00 00 00 00 00 00 00 ................
0040EFD0 00 00 00 00 00 00 00 00 00 00 00 00 00 00 00 00 ................
0040EFE0 00 00 00 00 00 00 00 00 00 00 00 00 00 00 00 00 ................
0040EFF0 00 00 00 00 00 00 00 00 00 00 00 00 00 00 00 00 ................
0040F000 18 F3 00 00 34 F3 00 00 46 F3 00 00 50 F3 00 00 ....4...F...P...
0040F010 5C F3 00 00 68 F3 00 00 7C F3 00 00 88 F3 00 00 \...h...|.......
0040F020 98 F3 00 00 AA F3 00 00 B8 F3 00 00 D0 F3 00 00 ................
0040F030 E2 F3 00 00 F0 F3 00 00 FE F3 00 00 0E F4 00 00 ................
0040F040 22 F4 00 00 32 F4 00 00 42 F4 00 00 4E F4 00 00 "...2...B...N...
0040F050 5A F4 00 00 66 F4 00 00 70 F4 00 00 78 F4 00 00 Z...f...p...x...
0040F060 84 F4 00 00 94 F4 00 00 AA F4 00 00 B4 F4 00 00 ................
0040F070 C4 F4 00 00 E0 F4 00 00 FE F4 00 00 0E F5 00 00 ................
0040F080 24 F5 00 00 3C F5 00 00 4E F5 00 00 68 F5 00 00 $...<...N...h...
0040F090 84 F5 00 00 92 F5 00 00 A0 F5 00 00 00 00 00 00 ................
0040F0A0 C0 F5 00 00 D6 F5 00 00 E0 F5 00 00 EC F5 00 00 ................
0040F0B0 F8 F5 00 00 04 F6 00 00 12 F6 00 00 1E F6 00 00 ................
0040F0C0 2A F6 00 00 3C F6 00 00 48 F6 00 00 5C F6 00 00 *...<...H...\...
0040F0D0 6C F6 00 00 7A F6 00 00 86 F6 00 00 90 F6 00 00 l...z...........
0040F0E0 9E F6 00 00 AC F6 00 00 BC F6 00 00 CE F6 00 00 ................
0040F0F0 DA F6 00 00 E8 F6 00 00 F6 F6 00 00 02 F7 00 00 ................
0040F100 10 F7 00 00 1E F7 00 00 30 F7 00 00 42 F7 00 00 ........0...B...
0040F110 4E F7 00 00 64 F7 00 00 76 F7 00 00 82 F7 00 00 N...d...v.......
0040F120 8E F7 00 00 A0 F7 00 00 B4 F7 00 00 C8 F7 00 00 ................
0040F130 D4 F7 00 00 E6 F7 00 00 F2 F7 00 00 00 F8 00 00 ................
0040F140 16 F8 00 00 24 F8 00 00 34 F8 00 00 46 F8 00 00 ....$...4...F...
0040F150 58 F8 00 00 66 F8 00 00 7A F8 00 00 8C F8 00 00 X...f...z.......
0040F160 9E F8 00 00 AA F8 00 00 00 00 00 00 00 00 00 00 ................
0040F170 AC F1 00 00 00 00 00 00 00 00 00 00 B2 F5 00 00 ................
0040F180 00 F0 00 00 4C F2 00 00 00 00 00 00 00 00 00 00 ....L...........
0040F190 B8 F8 00 00 A0 F0 00 00 00 00 00 00 00 00 00 00 ................
0040F1A0 00 00 00 00 00 00 00 00 00 00 00 00 18 F3 00 00 ................
0040F1B0 34 F3 00 00 46 F3 00 00 50 F3 00 00 5C F3 00 00 4...F...P...\...
0040F1C0 68 F3 00 00 7C F3 00 00 88 F3 00 00 98 F3 00 00 h...|...........
0040F1D0 AA F3 00 00 B8 F3 00 00 D0 F3 00 00 E2 F3 00 00 ................
0040F1E0 F0 F3 00 00 FE F3 00 00 0E F4 00 00 22 F4 00 00 ............"...
0040F1F0 32 F4 00 00 42 F4 00 00 4E F4 00 00 5A F4 00 00 2...B...N...Z...
0040F200 66 F4 00 00 70 F4 00 00 78 F4 00 00 84 F4 00 00 f...p...x.......
0040F210 94 F4 00 00 AA F4 00 00 B4 F4 00 00 C4 F4 00 00 ................
0040F220 E0 F4 00 00 FE F4 00 00 0E F5 00 00 24 F5 00 00 ............$...
0040F230 3C F5 00 00 4E F5 00 00 68 F5 00 00 84 F5 00 00 <...N...h.......
0040F240 92 F5 00 00 A0 F5 00 00 00 00 00 00 C0 F5 00 00 ................
0040F250 D6 F5 00 00 E0 F5 00 00 EC F5 00 00 F8 F5 00 00 ................
0040F260 04 F6 00 00 12 F6 00 00 1E F6 00 00 2A F6 00 00 ............*...
0040F270 3C F6 00 00 48 F6 00 00 5C F6 00 00 6C F6 00 00 <...H...\...l...
0040F280 7A F6 00 00 86 F6 00 00 90 F6 00 00 9E F6 00 00 z...............
0040F290 AC F6 00 00 BC F6 00 00 CE F6 00 00 DA F6 00 00 ................
0040F2A0 E8 F6 00 00 F6 F6 00 00 02 F7 00 00 10 F7 00 00 ................
0040F2B0 1E F7 00 00 30 F7 00 00 42 F7 00 00 4E F7 00 00 ....0...B...N...
0040F2C0 64 F7 00 00 76 F7 00 00 82 F7 00 00 8E F7 00 00 d...v...........
0040F2D0 A0 F7 00 00 B4 F7 00 00 C8 F7 00 00 D4 F7 00 00 ................
0040F2E0 E6 F7 00 00 F2 F7 00 00 00 F8 00 00 16 F8 00 00 ................
0040F2F0 24 F8 00 00 34 F8 00 00 46 F8 00 00 58 F8 00 00 $...4...F...X...
0040F300 66 F8 00 00 7A F8 00 00 8C F8 00 00 9E F8 00 00 f...z...........
0040F310 AA F8 00 00 00 00 00 00 0C 00 55 6E 68 61 6E 64 ..........Unhand
0040F320 6C 65 64 45 78 63 65 70 74 69 6F 6E 46 69 6C 74 ledExceptionFilt
0040F330 65 72 00 00 0F 00 47 65 74 53 74 61 72 74 75 70 er....GetStartup
0040F340 49 6E 66 6F 41 00 13 00 47 65 74 41 43 50 00 00 InfoA...GetACP..
0040F350 15 00 52 65 61 64 46 69 6C 65 00 00 1B 00 53 65 ..ReadFile....Se
0040F360 74 45 76 65 6E 74 00 00 1E 00 47 65 74 43 75 72 tEvent....GetCur
0040F370 72 65 6E 74 50 72 6F 63 65 73 73 00 22 00 48 65 rentProcess.".He
0040F380 61 70 41 6C 6C 6F 63 00 27 00 56 69 72 74 75 61 apAlloc.'.Virtua
0040F390 6C 41 6C 6C 6F 63 00 00 2B 00 47 65 74 53 74 61 lAlloc..+.GetSta
0040F3A0 72 74 75 70 49 6E 66 6F 57 00 2E 00 43 6C 6F 73 rtupInfoW...Clos
0040F3B0 65 48 61 6E 64 6C 65 00 31 00 44 65 6C 65 74 65 eHandle.1.Delete
0040F3C0 43 72 69 74 69 63 61 6C 53 65 63 74 69 6F 6E 00 CriticalSection.
0040F3D0 36 00 47 65 74 53 74 61 72 74 75 70 49 6E 66 6F 6.GetStartupInfo
0040F3E0 41 00 3A 00 56 69 72 74 75 61 6C 46 72 65 65 00 A.:.VirtualFree.
0040F3F0 3E 00 48 65 61 70 52 65 41 6C 6C 6F 63 00 43 00 >.HeapReAlloc.C.
0040F400 4C 6F 61 64 4C 69 62 72 61 72 79 57 00 00 46 00 LoadLibraryW..F.
0040F410 47 65 74 4D 6F 64 75 6C 65 48 61 6E 64 6C 65 41 GetModuleHandleA
0040F420 00 00 47 00 47 65 74 54 69 63 6B 43 6F 75 6E 74 ..G.GetTickCount
0040F430 00 00 48 00 4C 6F 61 64 4C 69 62 72 61 72 79 57 ..H.LoadLibraryW
0040F440 00 00 4C 00 48 65 61 70 46 72 65 65 00 00 52 00 ..L.HeapFree..R.
0040F450 6C 73 74 72 6C 65 6E 57 00 00 56 00 6C 73 74 72 lstrlenW..V.lstr
0040F460 6C 65 6E 57 00 00 5A 00 47 65 74 41 43 50 00 00 lenW..Z.GetACP..
0040F470 5C 00 53 6C 65 65 70 00 5E 00 57 72 69 74 65 46 \.Sleep.^.WriteF
0040F480 69 6C 65 00 64 00 4C 6F 61 64 4C 69 62 72 61 72 ile.d.LoadLibrar
0040F490 79 41 00 00 6A 00 47 65 74 43 75 72 72 65 6E 74 yA..j.GetCurrent
0040F4A0 50 72 6F 63 65 73 73 49 64 00 70 00 47 65 74 41 ProcessId.p.GetA
0040F4B0 43 50 00 00 73 00 4C 6F 61 64 4C 69 62 72 61 72 CP..s.LoadLibrar
0040F4C0 79 41 00 00 74 00 49 6E 69 74 69 61 6C 69 7A 65 yA..t.Initialize
0040F4D0 43 72 69 74 69 63 61 6C 53 65 63 74 69 6F 6E 00 CriticalSection.
0040F4E0 78 00 53 65 74 55 6E 68 61 6E 64 6C 65 64 45 78 x.SetUnhandledEx
0040F4F0 63 65 70 74 69 6F 6E 46 69 6C 74 65 72 00 7B 00 ceptionFilter.{.
0040F500 56 69 72 74 75 61 6C 41 6C 6C 6F 63 00 00 81 00 VirtualAlloc....
0040F510 57 61 69 74 46 6F 72 53 69 6E 67 6C 65 4F 62 6A WaitForSingleObj
0040F520 65 63 74 00 86 00 44 65 6C 65 74 65 43 72 69 74 ect...DeleteCrit
0040F530 69 63 61 6C 53 65 63 74 69 6F 6E 00 87 00 47 65 icalSection...Ge
0040F540 74 53 74 61 72 74 75 70 49 6E 66 6F 57 00 88 00 tStartupInfoW...
0040F550 47 65 74 53 79 73 74 65 6D 54 69 6D 65 41 73 46 GetSystemTimeAsF
0040F560 69 6C 65 54 69 6D 65 00 8A 00 55 6E 68 61 6E 64 ileTime...Unhand
0040F570 6C 65 64 45 78 63 65 70 74 69 6F 6E 46 69 6C 74 ledExceptionFilt
0040F580 65 72 00 00 8B 00 48 65 61 70 52 65 41 6C 6C 6F er....HeapReAllo
0040F590 63 00 91 00 48 65 61 70 44 65 73 74 72 6F 79 00 c...HeapDestroy.
0040F5A0 92 00 53 65 74 46 69 6C 65 50 6F 69 6E 74 65 72 ..SetFilePointer
0040F5B0 00 00 4B 45 52 4E 45 4C 33 32 2E 44 4C 4C 00 00 ..KERNEL32.DLL..
0040F5C0 2B 00 53 65 74 46 6F 72 65 67 72 6F 75 6E 64 57 +.SetForegroundW
0040F5D0 69 6E 64 6F 77 00 2E 00 53 65 74 52 65 63 74 00 indow...SetRect.
0040F5E0 2F 00 53 65 74 43 75 72 73 6F 72 00 31 00 44 72 /.SetCursor.1.Dr
0040F5F0 61 77 54 65 78 74 57 00 32 00 45 6E 64 44 69 61 awTextW.2.EndDia
0040F600 6C 6F 67 00 33 00 4C 6F 61 64 53 74 72 69 6E 67 log.3.LoadString
0040F610 57 00 35 00 47 65 74 50 61 72 65 6E 74 00 39 00 W.5.GetParent.9.
0040F620 53 65 74 54 69 6D 65 72 00 00 3A 00 53 65 74 57 SetTimer..:.SetW
0040F630 69 6E 64 6F 77 54 65 78 74 57 00 00 3C 00 77 73 indowTextW..<.ws
0040F640 70 72 69 6E 74 66 41 00 41 00 49 73 44 69 61 6C printfA.A.IsDial
0040F650 6F 67 4D 65 73 73 61 67 65 57 00 00 44 00 45 6E ogMessageW..D.En
0040F660 61 62 6C 65 57 69 6E 64 6F 77 00 00 49 00 4C 6F ableWindow..I.Lo
0040F670 61 64 49 6D 61 67 65 57 00 00 4B 00 49 73 57 69 adImageW..K.IsWi
0040F680 6E 64 6F 77 00 00 4C 00 47 65 74 4D 65 6E 75 00 ndow..L.GetMenu.
0040F690 4E 00 4C 6F 61 64 53 74 72 69 6E 67 57 00 4F 00 N.LoadStringW.O.
0040F6A0 42 65 67 69 6E 50 61 69 6E 74 00 00 50 00 50 6F BeginPaint..P.Po
0040F6B0 73 74 4D 65 73 73 61 67 65 57 00 00 55 00 53 63 stMessageW..U.Sc
0040F6C0 72 65 65 6E 54 6F 43 6C 69 65 6E 74 00 00 56 00 reenToClient..V.
0040F6D0 46 69 6C 6C 52 65 63 74 00 00 58 00 47 65 74 4B FillRect..X.GetK
0040F6E0 65 79 53 74 61 74 65 00 5B 00 53 65 74 43 61 70 eyState.[.SetCap
0040F6F0 74 75 72 65 00 00 61 00 43 68 61 72 4E 65 78 74 ture..a.CharNext
0040F700 57 00 67 00 44 65 73 74 72 6F 79 4D 65 6E 75 00 W.g.DestroyMenu.
0040F710 6C 00 44 65 73 74 72 6F 79 49 63 6F 6E 00 71 00 l.DestroyIcon.q.
0040F720 53 63 72 65 65 6E 54 6F 43 6C 69 65 6E 74 00 00 ScreenToClient..
0040F730 72 00 43 61 6C 6C 57 69 6E 64 6F 77 50 72 6F 63 r.CallWindowProc
0040F740 57 00 74 00 43 6F 70 79 52 65 63 74 00 00 7A 00 W.t.CopyRect..z.
0040F750 53 65 74 46 6F 72 65 67 72 6F 75 6E 64 57 69 6E SetForegroundWin
0040F760 64 6F 77 00 7F 00 52 65 6C 65 61 73 65 43 61 70 dow...ReleaseCap
0040F770 74 75 72 65 00 00 80 00 47 65 74 46 6F 63 75 73 ture....GetFocus
0040F780 00 00 84 00 47 65 74 57 69 6E 64 6F 77 00 85 00 ....GetWindow...
0040F790 53 65 74 44 6C 67 49 74 65 6D 54 65 78 74 57 00 SetDlgItemTextW.
0040F7A0 86 00 47 65 74 44 65 73 6B 74 6F 70 57 69 6E 64 ..GetDesktopWind
0040F7B0 6F 77 00 00 89 00 44 69 73 70 61 74 63 68 4D 65 ow....DispatchMe
0040F7C0 73 73 61 67 65 57 00 00 8D 00 50 74 49 6E 52 65 ssageW....PtInRe
0040F7D0 63 74 00 00 93 00 52 65 67 69 73 74 65 72 43 6C ct....RegisterCl
0040F7E0 61 73 73 57 00 00 98 00 50 74 49 6E 52 65 63 74 assW....PtInRect
0040F7F0 00 00 99 00 44 65 73 74 72 6F 79 49 63 6F 6E 00 ....DestroyIcon.
0040F800 9F 00 49 73 44 6C 67 42 75 74 74 6F 6E 43 68 65 ..IsDlgButtonChe
0040F810 63 6B 65 64 00 00 A0 00 53 68 6F 77 57 69 6E 64 cked....ShowWind
0040F820 6F 77 00 00 A1 00 50 65 65 6B 4D 65 73 73 61 67 ow....PeekMessag
0040F830 65 57 00 00 A6 00 47 65 74 57 69 6E 64 6F 77 54 eW....GetWindowT
0040F840 65 78 74 57 00 00 AA 00 53 65 74 57 69 6E 64 6F extW....SetWindo
0040F850 77 54 65 78 74 57 00 00 AD 00 53 65 74 43 61 70 wTextW....SetCap
0040F860 74 75 72 65 00 00 B3 00 52 65 67 69 73 74 65 72 ture....Register
0040F870 43 6C 61 73 73 45 78 57 00 00 B9 00 47 65 74 57 ClassExW....GetW
0040F880 69 6E 64 6F 77 54 65 78 74 57 00 00 BC 00 53 65 indowTextW....Se
0040F890 74 57 69 6E 64 6F 77 54 65 78 74 57 00 00 C1 00 tWindowTextW....
0040F8A0 45 6E 64 44 69 61 6C 6F 67 00 C5 00 4C 6F 61 64 EndDialog...Load
0040F8B0 53 74 72 69 6E 67 41 00 55 53 45 52 33 32 2E 44 StringA.USER32.D
0040F8C0 4C 4C 00 00 00 00 00 00 00 00 00 00 00 00 00 00 LL..............
0040F8D0 00 00 00 00 00 00 00 00 00 00 00 00 00 00 00 00 ................
0040F8E0 00 00 00 00 00 00 00 00 00 00 00 00 00 00 00 00 ................
0040F8F0 00 00 00 00 00 00 00 00 00 00 00 00 00 00 00 00 ................
0040F900 00 00 00 00 00 00 00 00 00 00 00 00 00 00 00 00 ................
0040F910 00 00 00 00 00 00 00 00 00 00 00 00 00 00 00 00 ................
0040F920 00 00 00 00 00 00 00 00 00 00 00 00 00 00 00 00 ................
0040F930 00 00 00 00 00 00 00 00 00 00 00 00 00 00 00 00 ................
0040F940 00 00 00 00 00 00 00 00 00 00 00 00 00 00 00 00 ................
0040F950 00 00 00 00 00 00 00 00 00 00 00 00 00 00 00 00 ................
0040F960 00 00 00 00 00 00 00 00 00 00 00 00 00 00 00 00 ................
0040F970 00 00 00 00 00 00 00 00 00 00 00 00 00 00 00 00 ................
0040F980 00 00 00 00 00 00 00 00 00 00 00 00 00 00 00 00 ................
0040F990 00 00 00 00 00 00 00 00 00 00 00 00 00 00 00 00 ................
0040F9A0 00 00 00 00 00 00 00 00 00 00 00 00 00 00 00 00 ................
0040F9B0 00 00 00 00 00 00 00 00 00 00 00 00 00 00 00 00 ................
0040F9C0 00 00 00 00 00 00 00 00 00 00 00 00 00 00 00 00 ................
0040F9D0 00 00 00 00 00 00 00 00 00 00 00 00 00 00 00 00 ................
0040F9E0 00 00 00 00 00 00 00 00 00 00 00 00 00 00 00 00 ................
0040F9F0 00 00 00 00 00 00 00 00 00 00 00 00 00 00 00 00 ................
0040FA00 00 00 00 00 00 00 00 00 00 00 00 00 00 00 00 00 ................
0040FA10 00 00 00 00 00 00 00 00 00 00 00 00 00 00 00 00 ................
0040FA20 00 00 00 00 00 00 00 00 00 00 00 00 00 00 00 00 ................
0040FA30 00 00 00 00 00 00 00 00 00 00 00 00 00 00 00 00 ................
0040FA40 00 00 00 00 00 00 00 00 00 00 00 00 00 00 00 00 ................
0040FA50 00 00 00 00 00 00 00 00 00 00 00 00 00 00 00 00 ................
0040FA60 00 00 00 00 00 00 00 00 00 00 00 00 00 00 00 00 ................
0040FA70 00 00 00 00 00 00 00 00 00 00 00 00 00 00 00 00 ................
0040FA80 00 00 00 00 00 00 00 00 00 00 00 00 00 00 00 00 ................
0040FA90 00 00 00 00 00 00 00 00 00 00 00 00 00 00 00 00 ................
0040FAA0 00 00 00 00 00 00 00 00 00 00 00 00 00 00 00 00 ................
0040FAB0 00 00 00 00 00 00 00 00 00 00 00 00 00 00 00 00 ................
0040FAC0 00 00 00 00 00 00 00 00 00 00 00 00 00 00 00 00 ................
0040FAD0 00 00 00 00 00 00 00 00 00 00 00 00 00 00 00 00 ................
0040FAE0 00 00 00 00 00 00 00 00 00 00 00 00 00 00 00 00 ................
0040FAF0 00 00 00 00 00 00 00 00 00 00 00 00 00 00 00 00 ................
0040FB00 00 00 00 00 00 00 00 00 00 00 00 00 00 00 00 00 ................
0040FB10 00 00 00 00 00 00 00 00 00 00 00 00 00 00 00 00 ................
0040FB20 00 00 00 00 00 00 00 00 00 00 00 00 00 00 00 00 ................
0040FB30 00 00 00 00 00 00 00 00 00 00 00 00 00 00 00 00 ................
0040FB40 00 00 00 00 00 00 00 00 00 00 00 00 00 00 00 00 ................
0040FB50 00 00 00 00 00 00 00 00 00 00 00 00 00 00 00 00 ................
0040FB60 00 00 00 00 00 00 00 00 00 00 00 00 00 00 00 00 ................
0040FB70 00 00 00 00 00 00 00 00 00 00 00 00 00 00 00 00 ................
0040FB80 00 00 00 00 00 00 00 00 00 00 00 00 00 00 00 00 ................
0040FB90 00 00 00 00 00 00 00 00 00 00 00 00 00 00 00 00 ................
0040FBA0 00 00 00 00 00 00 00 00 00 00 00 00 00 00 00 00 ................
0040FBB0 00 00 00 00 00 00 00 00 00 00 00 00 00 00 00 00 ................
0040FBC0 00 00 00 00 00 00 00 00 00 00 00 00 00 00 00 00 ................
0040FBD0 00 00 00 00 00 00 00 00 00 00 00 00 00 00 00 00 ................
0040FBE0 00 00 00 00 00 00 00 00 00 00 00 00 00 00 00 00 ................
0040FBF0 00 00 00 00 00 00 00 00 00 00 00 00 00 00 00 00 ................
0040FC00 00 00 00 00 00 00 00 00 00 00 00 00 00 00 00 00 ................
0040FC10 00 00 00 00 00 00 00 00 00 00 00 00 00 00 00 00 ................
0040FC20 00 00 00 00 00 00 00 00 00 00 00 00 00 00 00 00 ................
0040FC30 00 00 00 00 00 00 00 00 00 00 00 00 00 00 00 00 ................
0040FC40 00 00 00 00 00 00 00 00 00 00 00 00 00 00 00 00 ................
0040FC50 00 00 00 00 00 00 00 00 00 00 00 00 00 00 00 00 ................
0040FC60 00 00 00 00 00 00 00 00 00 00 00 00 00 00 00 00 ................
0040FC70 00 00 00 00 00 00 00 00 00 00 00 00 00 00 00 00 ................
0040FC80 00 00 00 00 00 00 00 00 00 00 00 00 00 00 00 00 ................
0040FC90 00 00 00 00 00 00 00 00 00 00 00 00 00 00 00 00 ................
0040FCA0 00 00 00 00 00 00 00 00 00 00 00 00 00 00 00 00 ................
0040FCB0 00 00 00 00 00 00 00 00 00 00 00 00 00 00 00 00 ................
0040FCC0 00 00 00 00 00 00 00 00 00 00 00 00 00 00 00 00 ................
0040FCD0 00 00 00 00 00 00 00 00 00 00 00 00 00 00 00 00 ................
0040FCE0 00 00 00 00 00 00 00 00 00 00 00 00 00 00 00 00 ................
0040FCF0 00 00 00 00 00 00 00 00 00 00 00 00 00 00 00 00 ................
0040FD00 00 00 00 00 00 00 00 00 00 00 00 00 00 00 00 00 ................
0040FD10 00 00 00 00 00 00 00 00 00 00 00 00 00 00 00 00 ................
0040FD20 00 00 00 00 00 00 00 00 00 00 00 00 00 00 00 00 ................
0040FD30 00 00 00 00 00 00 00 00 00 00 00 00 00 00 00 00 ................
0040FD40 00 00 00 00 00 00 00 00 00 00 00 00 00 00 00 00 ................
0040FD50 00 00 00 00 00 00 00 00 00 00 00 00 00 00 00 00 ................
0040FD60 00 00 00 00 00 00 00 00 00 00 00 00 00 00 00 00 ................
0040FD70 00 00 00 00 00 00 00 00 00 00 00 00 00 00 00 00 ................
0040FD80 00 00 00 00 00 00 00 00 00 00 00 00 00 00 00 00 ................
0040FD90 00 00 00 00 00 00 00 00 00 00 00 00 00 00 00 00 ................
0040FDA0 00 00 00 00 00 00 00 00 00 00 00 00 00 00 00 00 ................
0040FDB0 00 00 00 00 00 00 00 00 00 00 00 00 00 00 00 00 ................
0040FDC0 00 00 00 00 00 00 00 00 00 00 00 00 00 00 00 00 ................
0040FDD0 00 00 00 00 00 00 00 00 00 00 00 00 00 00 00 00 ................
0040FDE0 00 00 00 00 00 00 00 00 00 00 00 00 00 00 00 00 ................
0040FDF0 00 00 00 00 00 00 00 00 00 00 00 00 00 00 00 00 ................
0040FE00 00 00 00 00 00 00 00 00 00 00 00 00 00 00 00 00 ................
0040FE10 00 00 00 00 00 00 00 00 00 00 00 00 00 00 00 00 ................
0040FE20 00 00 00 00 00 00 00 00 00 00 00 00 00 00 00 00 ................
0040FE30 00 00 00 00 00 00 00 00 00 00 00 00 00 00 00 00 ................
0040FE40 00 00 00 00 00 00 00 00 00 00 00 00 00 00 00 00 ................
0040FE50 00 00 00 00 00 00 00 00 00 00 00 00 00 00 00 00 ................
0040FE60 00 00 00 00 00 00 00 00 00 00 00 00 00 00 00 00 ................
0040FE70 00 00 00 00 00 00 00 00 00 00 00 00 00 00 00 00 ................
0040FE80 00 00 00 00 00 00 00 00 00 00 00 00 00 00 00 00 ................
0040FE90 00 00 00 00 00 00 00 00 00 00 00 00 00 00 00 00 ................
0040FEA0 00 00 00 00 00 00 00 00 00 00 00 00 00 00 00 00 ................
0040FEB0 00 00 00 00 00 00 00 00 00 00 00 00 00 00 00 00 ................
0040FEC0 00 00 00 00 00 00 00 00 00 00 00 00 00 00 00 00 ................
0040FED0 00 00 00 00 00 00 00 00 00 00 00 00 00 00 00 00 ................
0040FEE0 00 00 00 00 00 00 00 00 00 00 00 00 00 00 00 00 ................
0040FEF0 00 00 00 00 00 00 00 00 00 00 00 00 00 00 00 00 ................
0040FF00 00 00 00 00 00 00 00 00 00 00 00 00 00 00 00 00 ................
0040FF10 00 00 00 00 00 00 00 00 00 00 00 00 00 00 00 00 ................
0040FF20 00 00 00 00 00 00 00 00 00 00 00 00 00 00 00 00 ................
0040FF30 00 00 00 00 00 00 00 00 00 00 00 00 00 00 00 00 ................
0040FF40 00 00 00 00 00 00 00 00 00 00 00 00 00 00 00 00 ................
0040FF50 00 00 00 00 00 00 00 00 00 00 00 00 00 00 00 00 ................
0040FF60 00 00 00 00 00 00 00 00 00 00 00 00 00 00 00 00 ................
0040FF70 00 00 00 00 00 00 00 00 00 00 00 00 00 00 00 00 ................
0040FF80 00 00 00 00 00 00 00 00 00 00 00 00 00 00 00 00 ................
0040FF90 00 00 00 00 00 00 00 00 00 00 00 00 00 00 00 00 ................
0040FFA0 00 00 00 00 00 00 00 00 00 00 00 00 00 00 00 00 ................
0040FFB0 00 00 00 00 00 00 00 00 00 00 00 00 00 00 00 00 ................
0040FFC0 00 00 00 00 00 00 00 00 00 00 00 00 00 00 00 00 ................
0040FFD0 00 00 00 00 00 00 00 00 00 00 00 00 00 00 00 00 ................
0040FFE0 00 00 00 00 00 00 00 00 00 00 00 00 00 00 00 00 ................
0040FFF0 00 00 00 00 00 00 00 00 00 00 00 00 00 00 00 00 ................
00410000 00 00 00 00 00 00 00 00 00 00 00 00 00 00 03 00 ................
00410010 03 00 00 00 28 00 00 80 0E 00 00 00 40 00 00 80 ....(.......@...
00410020 10 00 00 00 58 00 00 80 00 00 00 00 00 00 00 00 ....X...........
00410030 00 00 00 00 00 00 01 00 01 00 00 00 70 00 00 80 ............p...
00410040 00 00 00 00 00 00 00 00 00 00 00 00 00 00 01 00 ................
00410050 86 C2 00 00 88 00 00 80 00 00 00 00 00 00 00 00 ................
00410060 00 00 00 00 00 00 01 00 3D 26 00 00 A0 00 00 80 ........=&......
00410070 00 00 00 00 00 00 00 00 00 00 00 00 00 00 01 00 ................
00410080 19 04 00 00 B8 00 00 00 00 00 00 00 00 00 00 00 ................
00410090 00 00 00 00 00 00 01 00 19 04 00 00 C8 00 00 00 ................
004100A0 00 00 00 00 00 00 00 00 00 00 00 00 00 00 01 00 ................
004100B0 19 04 00 00 D8 00 00 00 E8 00 01 00 A8 08 00 00 ................
004100C0 00 00 00 00 00 00 00 00 90 09 01 00 14 00 00 00 ................
004100D0 00 00 00 00 00 00 00 00 A4 09 01 00 14 03 00 00 ................
004100E0 00 00 00 00 00 00 00 00 28 00 00 00 20 00 00 00 ........(... ...
004100F0 40 00 00 00 01 00 08 00 00 00 00 00 00 04 00 00 @...............
00410100 00 00 00 00 00 00 00 00 00 00 00 00 00 00 00 00 ................
00410110 00 00 00 00 00 00 80 00 00 80 00 00 00 80 80 00 ................
00410120 80 00 00 00 80 00 80 00 80 80 00 00 C0 C0 C0 00 ................
00410130 C0 DC C0 00 F0 CA A6 00 00 20 40 00 00 20 60 00 ......... @.. `.
00410140 00 20 80 00 00 20 A0 00 00 20 C0 00 00 20 E0 00 . ... ... ... ..
00410150 00 40 00 00 00 40 20 00 00 40 40 00 00 40 60 00 .@...@ ..@@..@`.
00410160 00 40 80 00 00 40 A0 00 00 40 C0 00 00 40 E0 00 .@...@...@...@..
00410170 00 60 00 00 00 60 20 00 00 60 40 00 00 60 60 00 .`...` ..`@..``.
00410180 00 60 80 00 00 60 A0 00 00 60 C0 00 00 60 E0 00 .`...`...`...`..
00410190 00 80 00 00 00 80 20 00 00 80 40 00 00 80 60 00 ...... ...@...`.
004101A0 00 80 80 00 00 80 A0 00 00 80 C0 00 00 80 E0 00 ................
004101B0 00 A0 00 00 00 A0 20 00 00 A0 40 00 00 A0 60 00 ...... ...@...`.
004101C0 00 A0 80 00 00 A0 A0 00 00 A0 C0 00 00 A0 E0 00 ................
004101D0 00 C0 00 00 00 C0 20 00 00 C0 40 00 00 C0 60 00 ...... ...@...`.
004101E0 00 C0 80 00 00 C0 A0 00 00 C0 C0 00 00 C0 E0 00 ................
004101F0 00 E0 00 00 00 E0 20 00 00 E0 40 00 00 E0 60 00 ...... ...@...`.
00410200 00 E0 80 00 00 E0 A0 00 00 E0 C0 00 00 E0 E0 00 ................
00410210 40 00 00 00 40 00 20 00 40 00 40 00 40 00 60 00 @...@. .@.@.@.`.
00410220 40 00 80 00 40 00 A0 00 40 00 C0 00 40 00 E0 00 @...@...@...@...
00410230 40 20 00 00 40 20 20 00 40 20 40 00 40 20 60 00 @ ..@  .@ @.@ `.
00410240 40 20 80 00 40 20 A0 00 40 20 C0 00 40 20 E0 00 @ ..@ ..@ ..@ ..
00410250 40 40 00 00 40 40 20 00 40 40 40 00 40 40 60 00 @@..@@ .@@@.@@`.
00410260 40 40 80 00 40 40 A0 00 40 40 C0 00 40 40 E0 00 @@..@@..@@..@@..
00410270 40 60 00 00 40 60 20 00 40 60 40 00 40 60 60 00 @`..@` .@`@.@``.
00410280 40 60 80 00 40 60 A0 00 40 60 C0 00 40 60 E0 00 @`..@`..@`..@`..
00410290 40 80 00 00 40 80 20 00 40 80 40 00 40 80 60 00 @...@. .@.@.@.`.
004102A0 40 80 80 00 40 80 A0 00 40 80 C0 00 40 80 E0 00 @...@...@...@...
004102B0 40 A0 00 00 40 A0 20 00 40 A0 40 00 40 A0 60 00 @...@. .@.@.@.`.
004102C0 40 A0 80 00 40 A0 A0 00 40 A0 C0 00 40 A0 E0 00 @...@...@...@...
004102D0 40 C0 00 00 40 C0 20 00 40 C0 40 00 40 C0 60 00 @...@. .@.@.@.`.
004102E0 40 C0 80 00 40 C0 A0 00 40 C0 C0 00 40 C0 E0 00 @...@...@...@...
004102F0 40 E0 00 00 40 E0 20 00 40 E0 40 00 40 E0 60 00 @...@. .@.@.@.`.
00410300 40 E0 80 00 40 E0 A0 00 40 E0 C0 00 40 E0 E0 00 @...@...@...@...
00410310 80 00 00 00 80 00 20 00 80 00 40 00 80 00 60 00 ...... ...@...`.
00410320 80 00 80 00 80 00 A0 00 80 00 C0 00 80 00 E0 00 ................
00410330 80 20 00 00 80 20 20 00 80 20 40 00 80 20 60 00 . ...  .. @.. `.
00410340 80 20 80 00 80 20 A0 00 80 20 C0 00 80 20 E0 00 . ... ... ... ..
00410350 80 40 00 00 80 40 20 00 80 40 40 00 80 40 60 00 .@...@ ..@@..@`.
00410360 80 40 80 00 80 40 A0 00 80 40 C0 00 80 40 E0 00 .@...@...@...@..
00410370 80 60 00 00 80 60 20 00 80 60 40 00 80 60 60 00 .`...` ..`@..``.
00410380 80 60 80 00 80 60 A0 00 80 60 C0 00 80 60 E0 00 .`...`...`...`..
00410390 80 80 00 00 80 80 20 00 80 80 40 00 80 80 60 00 ...... ...@...`.
004103A0 80 80 80 00 80 80 A0 00 80 80 C0 00 80 80 E0 00 ................
004103B0 80 A0 00 00 80 A0 20 00 80 A0 40 00 80 A0 60 00 ...... ...@...`.
004103C0 80 A0 80 00 80 A0 A0 00 80 A0 C0 00 80 A0 E0 00 ................
004103D0 80 C0 00 00 80 C0 20 00 80 C0 40 00 80 C0 60 00 ...... ...@...`.
004103E0 80 C0 80 00 80 C0 A0 00 80 C0 C0 00 80 C0 E0 00 ................
004103F0 80 E0 00 00 80 E0 20 00 80 E0 40 00 80 E0 60 00 ...... ...@...`.
00410400 80 E0 80 00 80 E0 A0 00 80 E0 C0 00 80 E0 E0 00 ................
00410410 C0 00 00 00 C0 00 20 00 C0 00 40 00 C0 00 60 00 ...... ...@...`.
00410420 C0 00 80 00 C0 00 A0 00 C0 00 C0 00 C0 00 E0 00 ................
00410430 C0 20 00 00 C0 20 20 00 C0 20 40 00 C0 20 60 00 . ...  .. @.. `.
00410440 C0 20 80 00 C0 20 A0 00 C0 20 C0 00 C0 20 E0 00 . ... ... ... ..
00410450 C0 40 00 00 C0 40 20 00 C0 40 40 00 C0 40 60 00 .@...@ ..@@..@`.
00410460 C0 40 80 00 C0 40 A0 00 C0 40 C0 00 C0 40 E0 00 .@...@...@...@..
00410470 C0 60 00 00 C0 60 20 00 C0 60 40 00 C0 60 60 00 .`...` ..`@..``.
00410480 C0 60 80 00 C0 60 A0 00 C0 60 C0 00 C0 60 E0 00 .`...`...`...`..
00410490 C0 80 00 00 C0 80 20 00 C0 80 40 00 C0 80 60 00 ...... ...@...`.
004104A0 C0 80 80 00 C0 80 A0 00 C0 80 C0 00 C0 80 E0 00 ................
004104B0 C0 A0 00 00 C0 A0 20 00 C0 A0 40 00 C0 A0 60 00 ...... ...@...`.
004104C0 C0 A0 80 00 C0 A0 A0 00 C0 A0 C0 00 C0 A0 E0 00 ................
004104D0 C0 C0 00 00 C0 C0 20 00 C0 C0 40 00 C0 C0 60 00 ...... ...@...`.
004104E0 C0 C0 80 00 C0 C0 A0 00 F0 FB FF 00 A4 A0 A0 00 ................
004104F0 80 80 80 00 00 00 FF 00 00 FF 00 00 00 FF FF 00 ................
00410500 FF 00 00 00 FF 00 FF 00 FF FF 00 00 FF FF FF 00 ................
00410510 00 00 00 00 00 00 00 00 00 00 00 00 00 00 00 00 ................
00410520 00 00 00 00 00 00 00 00 00 00 00 00 00 00 00 00 ................
00410530 00 00 00 00 00 00 ED A3 9A 9A 92 92 92 92 92 92 ................
00410540 92 92 92 92 92 92 92 92 92 92 92 92 92 92 92 00 ................
00410550 00 00 00 00 00 00 ED F6 07 09 09 09 09 09 09 09 ................
00410560 09 09 EC 09 09 EC EC EC EC EB EB EB EB EB 92 00 ................
00410570 00 00 00 00 00 00 ED F6 F6 F6 F6 F6 F6 F6 F6 F6 ................
00410580 F6 F6 F6 F6 F6 F6 F6 F6 09 09 09 09 09 EB 92 00 ................
00410590 00 00 00 00 00 00 ED F6 F6 F6 F6 F6 F6 F6 F6 F6 ................
004105A0 F6 F6 F6 F6 F6 F6 F6 F6 F6 F6 09 09 09 EB 92 00 ................
004105B0 00 00 00 00 00 00 ED F6 F6 F5 F5 ED ED EC EC EC ................
004105C0 E3 E3 E3 E3 E3 E3 E3 E3 E3 E3 F6 F6 09 EB 92 00 ................
004105D0 00 00 00 00 00 00 ED FF FF F5 FF FF FF F6 EC F6 ................
004105E0 F6 EC FF E3 F6 F6 EC FF E3 F6 F6 F6 F6 EB 92 00 ................
004105F0 00 00 00 00 00 00 ED FF FF F5 FF FF FF FF ED FF ................
00410600 FF EC FF E3 F6 F6 EC FF E3 F6 F6 F6 F6 EC 92 00 ................
00410610 00 00 00 00 00 00 ED FF FF F5 F5 F5 F5 F5 F5 ED ................
00410620 FF EC FF E3 F6 F6 EC FF E3 F6 F6 F6 F6 EC 92 00 ................
00410630 00 00 00 00 00 00 ED FF FF 09 FF FF FF FF F5 FF ................
00410640 FF ED FF E3 EC EC EC FF E3 F6 F6 F6 F6 EC 92 00 ................
00410650 00 00 00 00 00 00 ED FF FF 09 FF FF FF FF F5 FF ................
00410660 FF F5 FF E3 FF FF EC FF E3 F6 F6 F6 F6 EC 92 00 ................
00410670 00 00 00 00 00 00 ED FF FF 09 09 09 09 09 F5 F5 ................
00410680 FF F5 F5 E3 FF FF EC FF E3 F6 F6 F6 F6 EC 92 00 ................
00410690 00 00 00 00 00 00 ED FF FF 09 FF FF FF FF 09 FF ................
004106A0 FF FF FF FF FF FF ED ED E3 F6 F6 F6 F6 09 92 00 ................
004106B0 00 00 00 00 00 00 ED 08 08 ED 07 07 07 ED ED 08 ................
004106C0 FF FF FF F5 FF FF FF FF FF FF F6 F6 F6 09 92 00 ................
004106D0 00 00 00 00 00 00 F7 F7 F5 07 07 08 08 F6 08 ED ................
004106E0 EC 09 F5 F5 F5 F5 F5 F5 ED FF FF F6 F6 EC 92 00 ................
004106F0 00 19 18 AC 08 08 FF FF FF F6 F6 F6 F6 F6 08 07 ................
00410700 F6 FF FF 09 FF FF FF FF F5 FF FF FF F6 09 92 00 ................
00410710 00 19 B5 08 FF FF FF FF F6 F6 B5 1A 1A F6 F6 07 ................
00410720 F6 FF FF 09 FF FF FF FF F5 FF FF FF FF 09 92 00 ................
00410730 00 19 07 AC FF 08 B4 B4 B4 AB 22 1A 6B F6 F6 ED ..........".k...
00410740 F5 09 09 09 09 09 09 F5 F5 FF FF FF FF 09 92 00 ................
00410750 00 19 08 62 FF FF 08 B4 B4 62 1A 6C AB B5 F6 07 ...b.....b.l....
00410760 08 FF FF 09 FF FF FF FF F5 FF FF FF FF 09 92 00 ................
00410770 00 19 08 19 F6 FF FF 08 6B 1A 22 08 FF F6 F6 07 ........k.".....
00410780 08 FF FF 09 FF FF FF FF 09 FF FF FF FF 09 92 00 ................
00410790 00 21 08 19 07 FF FF 08 22 22 6B B4 F5 F6 F6 07 .!......""k.....
004107A0 F5 09 09 09 09 09 09 09 09 FF FF FF FF 09 92 00 ................
004107B0 00 21 08 19 AC FF F6 22 1A B5 F6 B4 B4 B4 F6 08 .!....."........
004107C0 08 FF FF 09 FF FF FF FF 09 FF FF FF FF 09 92 00 ................
004107D0 00 21 08 AC B4 FF 63 62 6C FF FF FF FF FF FF 08 .!....cbl.......
004107E0 08 FF FF 09 FF FF FF FF 07 09 09 09 09 09 92 00 ................
004107F0 00 61 08 B4 B4 FF FF FF FF FF FF FF FF FF FF F6 .a..............
00410800 07 09 09 09 09 09 09 ED A3 A3 9B 9A 9A 9A 92 00 ................
00410810 00 61 08 B5 B4 08 08 08 08 08 08 F5 B5 08 6B FF .a............k.
00410820 FF FF FF FF FF FF FF ED 09 09 09 09 09 92 F6 00 ................
00410830 00 61 B5 F6 B5 B5 B5 B5 B5 B5 B5 B5 B5 F6 61 FF .a............a.
00410840 FF FF FF FF FF FF FF ED F6 F6 09 09 92 F6 F6 00 ................
00410850 00 61 61 08 F6 08 BD BD BD BD BD BD B5 F6 61 F6 .aa...........a.
00410860 09 09 09 FF FF FF FF F5 F6 F6 09 92 F6 F6 00 00 ................
00410870 00 00 61 61 B5 08 F6 F6 F6 F6 F6 F6 F6 F6 61 FF ..aa..........a.
00410880 FF FF FF FF FF FF FF F5 F6 F6 9A F6 F6 00 00 00 ................
00410890 00 00 00 61 61 61 61 61 61 61 61 61 61 61 61 FF ...aaaaaaaaaaaa.
004108A0 FF FF FF FF FF FF FF F5 F6 9B F6 F6 00 00 00 00 ................
004108B0 00 00 00 00 00 00 07 FF FF FF FF FF FF FF FF FF ................
004108C0 FF FF FF FF FF FF FF F5 A4 F6 F6 00 00 00 00 00 ................
004108D0 00 00 00 00 00 00 07 07 07 07 07 F5 F5 F5 F5 F5 ................
004108E0 F5 F5 F5 F5 F5 F5 F5 F5 F6 F6 00 00 00 00 00 00 ................
004108F0 00 00 00 00 00 00 00 00 00 00 00 00 00 00 00 00 ................
00410900 00 00 00 00 00 00 00 00 00 00 00 00 00 00 00 00 ................
00410910 FF FF FF FF FC 00 00 01 FC 00 00 01 FC 00 00 01 ................
00410920 FC 00 00 01 FC 00 00 01 FC 00 00 01 FC 00 00 01 ................
00410930 FC 00 00 01 FC 00 00 01 FC 00 00 01 FC 00 00 01 ................
00410940 FC 00 00 01 C0 00 00 01 C0 00 00 01 80 00 00 01 ................
00410950 80 00 00 01 80 00 00 01 80 00 00 01 80 00 00 01 ................
00410960 80 00 00 01 80 00 00 01 80 00 00 01 80 00 00 01 ................
00410970 80 00 00 01 80 00 00 01 80 00 00 03 C0 00 00 07 ................
00410980 E0 00 00 0F FC 00 00 1F FC 00 00 3F FF FF FF FF ...........?....
00410990 00 00 01 00 01 00 20 20 08 00 00 00 00 00 A8 08 ......  ........
004109A0 00 00 01 00 14 03 34 00 00 00 56 00 53 00 5F 00 ......4...V.S._.
004109B0 56 00 45 00 52 00 53 00 49 00 4F 00 4E 00 5F 00 V.E.R.S.I.O.N._.
004109C0 49 00 4E 00 46 00 4F 00 00 00 00 00 BD 04 EF FE I.N.F.O.........
004109D0 00 00 01 00 64 F6 69 BF 64 F6 69 BF 64 F6 69 BF ....d.i.d.i.d.i.
004109E0 64 F6 69 BF 64 F6 00 00 00 00 00 00 04 00 04 00 d.i.d...........
004109F0 01 00 00 00 00 00 00 00 00 00 00 00 00 00 00 00 ................
00410A00 74 02 00 00 00 00 53 00 74 00 72 00 69 00 6E 00 t.....S.t.r.i.n.
00410A10 67 00 46 00 69 00 6C 00 65 00 49 00 6E 00 66 00 g.F.i.l.e.I.n.f.
00410A20 6F 00 00 00 50 02 00 00 00 00 30 00 38 00 30 00 o...P.....0.8.0.
00410A30 30 00 30 00 34 00 42 00 30 00 00 00 44 00 11 00 0.0.4.B.0...D...
00410A40 01 00 43 00 6F 00 6D 00 70 00 61 00 6E 00 79 00 ..C.o.m.p.a.n.y.
00410A50 4E 00 61 00 6D 00 65 00 00 00 00 00 79 00 4A 00 N.a.m.e.....y.J.
00410A60 34 00 57 00 53 00 57 00 45 00 75 00 36 00 4F 00 4.W.S.W.E.u.6.O.
00410A70 49 00 59 00 6F 00 4A 00 77 00 74 00 00 00 00 00 I.Y.o.J.w.t.....
00410A80 4C 00 11 00 01 00 46 00 69 00 6C 00 65 00 44 00 L.....F.i.l.e.D.
00410A90 65 00 73 00 63 00 72 00 69 00 70 00 74 00 69 00 e.s.c.r.i.p.t.i.
00410AA0 6F 00 6E 00 00 00 00 00 4B 00 77 00 45 00 4A 00 o.n.....K.w.E.J.
00410AB0 38 00 38 00 6B 00 52 00 59 00 64 00 57 00 55 00 8.8.k.R.Y.d.W.U.
00410AC0 62 00 59 00 6C 00 66 00 00 00 00 00 48 00 14 00 b.Y.l.f.....H...
00410AD0 01 00 46 00 69 00 6C 00 65 00 56 00 65 00 72 00 ..F.i.l.e.V.e.r.
00410AE0 73 00 69 00 6F 00 6E 00 00 00 00 00 6B 00 4F 00 s.i.o.n.....k.O.
00410AF0 50 00 6C 00 43 00 35 00 67 00 50 00 35 00 63 00 P.l.C.5.g.P.5.c.
00410B00 46 00 61 00 4A 00 44 00 78 00 33 00 54 00 34 00 F.a.J.D.x.3.T.4.
00410B10 41 00 00 00 40 00 0F 00 01 00 49 00 6E 00 74 00 A...@.....I.n.t.
00410B20 65 00 72 00 6E 00 61 00 6C 00 4E 00 61 00 6D 00 e.r.n.a.l.N.a.m.
00410B30 65 00 00 00 51 00 78 00 6F 00 4F 00 75 00 46 00 e...Q.x.o.O.u.F.
00410B40 4E 00 75 00 31 00 6E 00 53 00 6A 00 4C 00 47 00 N.u.1.n.S.j.L.G.
00410B50 00 00 00 00 40 00 0E 00 01 00 4C 00 65 00 67 00 ....@.....L.e.g.
00410B60 61 00 6C 00 43 00 6F 00 70 00 79 00 72 00 69 00 a.l.C.o.p.y.r.i.
00410B70 67 00 68 00 74 00 00 00 47 00 58 00 74 00 34 00 g.h.t...G.X.t.4.
00410B80 50 00 66 00 31 00 6C 00 55 00 67 00 62 00 77 00 P.f.1.l.U.g.b.w.
00410B90 45 00 00 00 4C 00 11 00 01 00 4F 00 72 00 69 00 E...L.....O.r.i.
00410BA0 67 00 69 00 6E 00 61 00 6C 00 46 00 69 00 6C 00 g.i.n.a.l.F.i.l.
00410BB0 65 00 6E 00 61 00 6D 00 65 00 00 00 42 00 4B 00 e.n.a.m.e...B.K.
00410BC0 4B 00 32 00 4E 00 72 00 77 00 79 00 36 00 53 00 K.2.N.r.w.y.6.S.
00410BD0 75 00 62 00 57 00 32 00 47 00 4F 00 00 00 00 00 u.b.W.2.G.O.....
00410BE0 48 00 14 00 01 00 50 00 72 00 6F 00 64 00 75 00 H.....P.r.o.d.u.
00410BF0 63 00 74 00 4E 00 61 00 6D 00 65 00 00 00 00 00 c.t.N.a.m.e.....
00410C00 6D 00 38 00 6F 00 38 00 6B 00 4A 00 54 00 46 00 m.8.o.8.k.J.T.F.
00410C10 4E 00 77 00 61 00 58 00 69 00 76 00 4A 00 74 00 N.w.a.X.i.v.J.t.
00410C20 4F 00 56 00 78 00 00 00 4C 00 14 00 01 00 50 00 O.V.x...L.....P.
00410C30 72 00 6F 00 64 00 75 00 63 00 74 00 56 00 65 00 r.o.d.u.c.t.V.e.
00410C40 72 00 73 00 69 00 6F 00 6E 00 00 00 4D 00 78 00 r.s.i.o.n...M.x.
00410C50 75 00 59 00 34 00 49 00 76 00 57 00 79 00 4A 00 u.Y.4.I.v.W.y.J.
00410C60 64 00 63 00 32 00 58 00 47 00 4A 00 49 00 6E 00 d.c.2.X.G.J.I.n.
00410C70 74 00 00 00 44 00 00 00 00 00 56 00 61 00 72 00 t...D.....V.a.r.
00410C80 46 00 69 00 6C 00 65 00 49 00 6E 00 66 00 6F 00 F.i.l.e.I.n.f.o.
00410C90 00 00 00 00 24 00 04 00 00 00 54 00 72 00 61 00 ....$.....T.r.a.
00410CA0 6E 00 73 00 6C 00 61 00 74 00 69 00 6F 00 6E 00 n.s.l.a.t.i.o.n.
00410CB0 00 00 00 00 00 08 B0 04 00 00 00 00 00 00 00 00 ................
00410CC0 00 00 00 00 00 00 00 00 00 00 00 00 00 00 00 00 ................
00410CD0 00 00 00 00 00 00 00 00 00 00 00 00 00 00 00 00 ................
00410CE0 00 00 00 00 00 00 00 00 00 00 00 00 00 00 00 00 ................
00410CF0 00 00 00 00 00 00 00 00 00 00 00 00 00 00 00 00 ................
00410D00 00 00 00 00 00 00 00 00 00 00 00 00 00 00 00 00 ................
00410D10 00 00 00 00 00 00 00 00 00 00 00 00 00 00 00 00 ................
00410D20 00 00 00 00 00 00 00 00 00 00 00 00 00 00 00 00 ................
00410D30 00 00 00 00 00 00 00 00 00 00 00 00 00 00 00 00 ................
00410D40 00 00 00 00 00 00 00 00 00 00 00 00 00 00 00 00 ................
00410D50 00 00 00 00 00 00 00 00 00 00 00 00 00 00 00 00 ................
00410D60 00 00 00 00 00 00 00 00 00 00 00 00 00 00 00 00 ................
00410D70 00 00 00 00 00 00 00 00 00 00 00 00 00 00 00 00 ................
00410D80 00 00 00 00 00 00 00 00 00 00 00 00 00 00 00 00 ................
00410D90 00 00 00 00 00 00 00 00 00 00 00 00 00 00 00 00 ................
00410DA0 00 00 00 00 00 00 00 00 00 00 00 00 00 00 00 00 ................
00410DB0 00 00 00 00 00 00 00 00 00 00 00 00 00 00 00 00 ................
00410DC0 00 00 00 00 00 00 00 00 00 00 00 00 00 00 00 00 ................
00410DD0 00 00 00 00 00 00 00 00 00 00 00 00 00 00 00 00 ................
00410DE0 00 00 00 00 00 00 00 00 00 00 00 00 00 00 00 00 ................
00410DF0 00 00 00 00 00 00 00 00 00 00 00 00 00 00 00 00 ................
00410E00 00 00 00 00 00 00 00 00 00 00 00 00 00 00 00 00 ................
00410E10 00 00 00 00 00 00 00 00 00 00 00 00 00 00 00 00 ................
00410E20 00 00 00 00 00 00 00 00 00 00 00 00 00 00 00 00 ................
00410E30 00 00 00 00 00 00 00 00 00 00 00 00 00 00 00 00 ................
00410E40 00 00 00 00 00 00 00 00 00 00 00 00 00 00 00 00 ................
00410E50 00 00 00 00 00 00 00 00 00 00 00 00 00 00 00 00 ................
00410E60 00 00 00 00 00 00 00 00 00 00 00 00 00 00 00 00 ................
00410E70 00 00 00 00 00 00 00 00 00 00 00 00 00 00 00 00 ................
00410E80 00 00 00 00 00 00 00 00 00 00 00 00 00 00 00 00 ................
00410E90 00 00 00 00 00 00 00 00 00 00 00 00 00 00 00 00 ................
00410EA0 00 00 00 00 00 00 00 00 00 00 00 00 00 00 00 00 ................
00410EB0 00 00 00 00 00 00 00 00 00 00 00 00 00 00 00 00 ................
00410EC0 00 00 00 00 00 00 00 00 00 00 00 00 00 00 00 00 ................
00410ED0 00 00 00 00 00 00 00 00 00 00 00 00 00 00 00 00 ................
00410EE0 00 00 00 00 00 00 00 00 00 00 00 00 00 00 00 00 ................
00410EF0 00 00 00 00 00 00 00 00 00 00 00 00 00 00 00 00 ................
00410F00 00 00 00 00 00 00 00 00 00 00 00 00 00 00 00 00 ................
00410F10 00 00 00 00 00 00 00 00 00 00 00 00 00 00 00 00 ................
00410F20 00 00 00 00 00 00 00 00 00 00 00 00 00 00 00 00 ................
00410F30 00 00 00 00 00 00 00 00 00 00 00 00 00 00 00 00 ................
00410F40 00 00 00 00 00 00 00 00 00 00 00 00 00 00 00 00 ................
00410F50 00 00 00 00 00 00 00 00 00 00 00 00 00 00 00 00 ................
00410F60 00 00 00 00 00 00 00 00 00 00 00 00 00 00 00 00 ................
00410F70 00 00 00 00 00 00 00 00 00 00 00 00 00 00 00 00 ................
00410F80 00 00 00 00 00 00 00 00 00 00 00 00 00 00 00 00 ................
00410F90 00 00 00 00 00 00 00 00 00 00 00 00 00 00 00 00 ................
00410FA0 00 00 00 00 00 00 00 00 00 00 00 00 00 00 00 00 ................
00410FB0 00 00 00 00 00 00 00 00 00 00 00 00 00 00 00 00 ................
00410FC0 00 00 00 00 00 00 00 00 00 00 00 00 00 00 00 00 ................
00410FD0 00 00 00 00 00 00 00 00 00 00 00 00 00 00 00 00 ................
00410FE0 00 00 00 00 00 00 00 00 00 00 00 00 00 00 00 00 ................
00410FF0 00 00 00 00 00 00 00 00 00 00 00 00 00 00 00 00 ................
