00400000 00 00 00 00 00 00 00 00 00 00 00 00 00 00 00 00 ................
00400010 00 00 00 00 00 00 00 00 00 00 00 00 00 00 00 00 ................
00400020 00 00 00 00 00 00 00 00 00 00 00 00 00 00 00 00 ................
00400030 00 00 00 00 00 00 00 00 00 00 00 00 00 00 00 00 ................
00400040 00 00 00 00 00 00 00 00 00 00 00 00 00 00 00 00 ................
00400050 00 00 00 00 00 00 00 00 00 00 00 00 00 00 00 00 ................
00400060 00 00 00 00 00 00 00 00 00 00 00 00 00 00 00 00 ................
00400070 00 00 00 00 00 00 00 00 00 00 00 00 00 00 00 00 ................
00400080 00 00 00 00 00 00 00 00 00 00 00 00 00 00 00 00 ................
00400090 00 00 00 00 00 00 00 00 00 00 00 00 00 00 00 00 ................
004000A0 00 00 00 00 00 00 00 00 00 00 00 00 00 00 00 00 ................
004000B0 00 00 00 00 00 00 00 00 00 00 00 00 00 00 00 00 ................
004000C0 00 00 00 00 00 00 00 00 00 00 00 00 00 00 00 00 ................
004000D0 00 00 00 00 00 00 00 00 00 00 00 00 00 00 00 00 ................
004000E0 00 00 00 00 00 00 00 00 00 00 00 00 00 00 00 00 ................
004000F0 00 00 00 00 00 00 00 00 00 00 00 00 00 00 00 00 ................
00400100 00 00 00 00 00 00 00 00 00 00 00 00 00 00 00 00 ................
00400110 00 00 00 00 00 00 00 00 00 00 00 00 00 00 00 00 ................
00400120 00 00 00 00 00 00 00 00 00 00 00 00 00 00 00 00 ................
00400130 00 00 00 00 00 00 00 00 00 00 00 00 00 00 00 00 ................
00400140 00 00 00 00 00 00 00 00 00 00 00 00 00 00 00 00 ................
00400150 00 00 00 00 00 00 00 00 00 00 00 00 00 00 00 00 ................
00400160 00 00 00 00 00 00 00 00 00 00 00 00 00 00 00 00 ................
00400170 00 00 00 00 00 00 00 00 00 00 00 00 00 00 00 00 ................
00400180 00 00 00 00 00 00 00 00 00 00 00 00 00 00 00 00 ................
00400190 00 00 00 00 00 00 00 00 00 00 00 00 00 00 00 00 ................
004001A0 00 00 00 00 00 00 00 00 00 00 00 00 00 00 00 00 ................
004001B0 00 00 00 00 00 00 00 00 00 00 00 00 00 00 00 00 ................
004001C0 00 00 00 00 00 00 00 00 00 00 00 00 00 00 00 00 ................
004001D0 00 00 00 00 00 00 00 00 00 00 00 00 00 00 00 00 ................
004001E0 00 00 00 00 00 00 00 00 00 00 00 00 00 00 00 00 ................
004001F0 00 00 00 00 00 00 00 00 00 00 00 00 00 00 00 00 ................
00400200 00 00 00 00 00 00 00 00 00 00 00 00 00 00 00 00 ................
00400210 00 00 00 00 00 00 00 00 00 00 00 00 00 00 00 00 ................
00400220 00 00 00 00 00 00 00 00 00 00 00 00 00 00 00 00 ................
00400230 00 00 00 00 00 00 00 00 00 00 00 00 00 00 00 00 ................
00400240 00 00 00 00 00 00 00 00 00 00 00 00 00 00 00 00 ................
00400250 00 00 00 00 00 00 00 00 00 00 00 00 00 00 00 00 ................
00400260 00 00 00 00 00 00 00 00 00 00 00 00 00 00 00 00 ................
00400270 00 00 00 00 00 00 00 00 00 00 00 00 00 00 00 00 ................
00400280 00 00 00 00 00 00 00 00 00 00 00 00 00 00 00 00 ................
00400290 00 00 00 00 00 00 00 00 00 00 00 00 00 00 00 00 ................
004002A0 00 00 00 00 00 00 00 00 00 00 00 00 00 00 00 00 ................
004002B0 00 00 00 00 00 00 00 00 00 00 00 00 00 00 00 00 ................
004002C0 00 00 00 00 00 00 00 00 00 00 00 00 00 00 00 00 ................
004002D0 00 00 00 00 00 00 00 00 00 00 00 00 00 00 00 00 ................
004002E0 00 00 00 00 00 00 00 00 00 00 00 00 00 00 00 00 ................
004002F0 00 00 00 00 00 00 00 00 00 00 00 00 00 00 00 00 ................
00400300 00 00 00 00 00 00 00 00 00 00 00 00 00 00 00 00 ................
00400310 00 00 00 00 00 00 00 00 00 00 00 00 00 00 00 00 ................
00400320 00 00 00 00 00 00 00 00 00 00 00 00 00 00 00 00 ................
00400330 00 00 00 00 00 00 00 00 00 00 00 00 00 00 00 00 ................
00400340 00 00 00 00 00 00 00 00 00 00 00 00 00 00 00 00 ................
00400350 00 00 00 00 00 00 00 00 00 00 00 00 00 00 00 00 ................
00400360 00 00 00 00 00 00 00 00 00 00 00 00 00 00 00 00 ................
00400370 00 00 00 00 00 00 00 00 00 00 00 00 00 00 00 00 ................
00400380 00 00 00 00 00 00 00 00 00 00 00 00 00 00 00 00 ................
00400390 00 00 00 00 00 00 00 00 00 00 00 00 00 00 00 00 ................
004003A0 00 00 00 00 00 00 00 00 00 00 00 00 00 00 00 00 ................
004003B0 00 00 00 00 00 00 00 00 00 00 00 00 00 00 00 00 ................
004003C0 00 00 00 00 00 00 00 00 00 00 00 00 00 00 00 00 ................
004003D0 00 00 00 00 00 00 00 00 00 00 00 00 00 00 00 00 ................
004003E0 00 00 00 00 00 00 00 00 00 00 00 00 00 00 00 00 ................
004003F0 00 00 00 00 00 00 00 00 00 00 00 00 00 00 00 00 ................
00400400 00 00 00 00 00 00 00 00 00 00 00 00 00 00 00 00 ................
00400410 00 00 00 00 00 00 00 00 00 00 00 00 00 00 00 00 ................
00400420 00 00 00 00 00 00 00 00 00 00 00 00 00 00 00 00 ................
00400430 00 00 00 00 00 00 00 00 00 00 00 00 00 00 00 00 ................
00400440 00 00 00 00 00 00 00 00 00 00 00 00 00 00 00 00 ................
00400450 00 00 00 00 00 00 00 00 00 00 00 00 00 00 00 00 ................
00400460 00 00 00 00 00 00 00 00 00 00 00 00 00 00 00 00 ................
00400470 00 00 00 00 00 00 00 00 00 00 00 00 00 00 00 00 ................
00400480 00 00 00 00 00 00 00 00 00 00 00 00 00 00 00 00 ................
00400490 00 00 00 00 00 00 00 00 00 00 00 00 00 00 00 00 ................
004004A0 00 00 00 00 00 00 00 00 00 00 00 00 00 00 00 00 ................
004004B0 00 00 00 00 00 00 00 00 00 00 00 00 00 00 00 00 ................
004004C0 00 00 00 00 00 00 00 00 00 00 00 00 00 00 00 00 ................
004004D0 00 00 00 00 00 00 00 00 00 00 00 00 00 00 00 00 ................
004004E0 00 00 00 00 00 00 00 00 00 00 00 00 00 00 00 00 ................
004004F0 00 00 00 00 00 00 00 00 00 00 00 00 00 00 00 00 ................
00400500 00 00 00 00 00 00 00 00 00 00 00 00 00 00 00 00 ................
00400510 00 00 00 00 00 00 00 00 00 00 00 00 00 00 00 00 ................
00400520 00 00 00 00 00 00 00 00 00 00 00 00 00 00 00 00 ................
00400530 00 00 00 00 00 00 00 00 00 00 00 00 00 00 00 00 ................
00400540 00 00 00 00 00 00 00 00 00 00 00 00 00 00 00 00 ................
00400550 00 00 00 00 00 00 00 00 00 00 00 00 00 00 00 00 ................
00400560 00 00 00 00 00 00 00 00 00 00 00 00 00 00 00 00 ................
00400570 00 00 00 00 00 00 00 00 00 00 00 00 00 00 00 00 ................
00400580 00 00 00 00 00 00 00 00 00 00 00 00 00 00 00 00 ................
00400590 00 00 00 00 00 00 00 00 00 00 00 00 00 00 00 00 ................
004005A0 00 00 00 00 00 00 00 00 00 00 00 00 00 00 00 00 ................
004005B0 00 00 00 00 00 00 00 00 00 00 00 00 00 00 00 00 ................
004005C0 00 00 00 00 00 00 00 00 00 00 00 00 00 00 00 00 ................
004005D0 00 00 00 00 00 00 00 00 00 00 00 00 00 00 00 00 ................
004005E0 00 00 00 00 00 00 00 00 00 00 00 00 00 00 00 00 ................
004005F0 00 00 00 00 00 00 00 00 00 00 00 00 00 00 00 00 ................
00400600 00 00 00 00 00 00 00 00 00 00 00 00 00 00 00 00 ................
00400610 00 00 00 00 00 00 00 00 00 00 00 00 00 00 00 00 ................
00400620 00 00 00 00 00 00 00 00 00 00 00 00 00 00 00 00 ................
00400630 00 00 00 00 00 00 00 00 00 00 00 00 00 00 00 00 ................
00400640 00 00 00 00 00 00 00 00 00 00 00 00 00 00 00 00 ................
00400650 00 00 00 00 00 00 00 00 00 00 00 00 00 00 00 00 ................
00400660 00 00 00 00 00 00 00 00 00 00 00 00 00 00 00 00 ................
00400670 00 00 00 00 00 00 00 00 00 00 00 00 00 00 00 00 ................
00400680 00 00 00 00 00 00 00 00 00 00 00 00 00 00 00 00 ................
00400690 00 00 00 00 00 00 00 00 00 00 00 00 00 00 00 00 ................
004006A0 00 00 00 00 00 00 00 00 00 00 00 00 00 00 00 00 ................
004006B0 00 00 00 00 00 00 00 00 00 00 00 00 00 00 00 00 ................
004006C0 00 00 00 00 00 00 00 00 00 00 00 00 00 00 00 00 ................
004006D0 00 00 00 00 00 00 00 00 00 00 00 00 00 00 00 00 ................
004006E0 00 00 00 00 00 00 00 00 00 00 00 00 00 00 00 00 ................
004006F0 00 00 00 00 00 00 00 00 00 00 00 00 00 00 00 00 ................
00400700 00 00 00 00 00 00 00 00 00 00 00 00 00 00 00 00 ................
00400710 00 00 00 00 00 00 00 00 00 00 00 00 00 00 00 00 ................
00400720 00 00 00 00 00 00 00 00 00 00 00 00 00 00 00 00 ................
00400730 00 00 00 00 00 00 00 00 00 00 00 00 00 00 00 00 ................
00400740 00 00 00 00 00 00 00 00 00 00 00 00 00 00 00 00 ................
00400750 00 00 00 00 00 00 00 00 00 00 00 00 00 00 00 00 ................
00400760 00 00 00 00 00 00 00 00 00 00 00 00 00 00 00 00 ................
00400770 00 00 00 00 00 00 00 00 00 00 00 00 00 00 00 00 ................
00400780 00 00 00 00 00 00 00 00 00 00 00 00 00 00 00 00 ................
00400790 00 00 00 00 00 00 00 00 00 00 00 00 00 00 00 00 ................
004007A0 00 00 00 00 00 00 00 00 00 00 00 00 00 00 00 00 ................
004007B0 00 00 00 00 00 00 00 00 00 00 00 00 00 00 00 00 ................
004007C0 00 00 00 00 00 00 00 00 00 00 00 00 00 00 00 00 ................
004007D0 00 00 00 00 00 00 00 00 00 00 00 00 00 00 00 00 ................
004007E0 00 00 00 00 00 00 00 00 00 00 00 00 00 00 00 00 ................
004007F0 00 00 00 00 00 00 00 00 00 00 00 00 00 00 00 00 ................
00400800 00 00 00 00 00 00 00 00 00 00 00 00 00 00 00 00 ................
00400810 00 00 00 00 00 00 00 00 00 00 00 00 00 00 00 00 ................
00400820 00 00 00 00 00 00 00 00 00 00 00 00 00 00 00 00 ................
00400830 00 00 00 00 00 00 00 00 00 00 00 00 00 00 00 00 ................
00400840 00 00 00 00 00 00 00 00 00 00 00 00 00 00 00 00 ................
00400850 00 00 00 00 00 00 00 00 00 00 00 00 00 00 00 00 ................
00400860 00 00 00 00 00 00 00 00 00 00 00 00 00 00 00 00 ................
00400870 00 00 00 00 00 00 00 00 00 00 00 00 00 00 00 00 ................
00400880 00 00 00 00 00 00 00 00 00 00 00 00 00 00 00 00 ................
00400890 00 00 00 00 00 00 00 00 00 00 00 00 00 00 00 00 ................
004008A0 00 00 00 00 00 00 00 00 00 00 00 00 00 00 00 00 ................
004008B0 00 00 00 00 00 00 00 00 00 00 00 00 00 00 00 00 ................
004008C0 00 00 00 00 00 00 00 00 00 00 00 00 00 00 00 00 ................
004008D0 00 00 00 00 00 00 00 00 00 00 00 00 00 00 00 00 ................
004008E0 00 00 00 00 00 00 00 00 00 00 00 00 00 00 00 00 ................
004008F0 00 00 00 00 00 00 00 00 00 00 00 00 00 00 00 00 ................
00400900 00 00 00 00 00 00 00 00 00 00 00 00 00 00 00 00 ................
00400910 00 00 00 00 00 00 00 00 00 00 00 00 00 00 00 00 ................
00400920 00 00 00 00 00 00 00 00 00 00 00 00 00 00 00 00 ................
00400930 00 00 00 00 00 00 00 00 00 00 00 00 00 00 00 00 ................
00400940 00 00 00 00 00 00 00 00 00 00 00 00 00 00 00 00 ................
00400950 00 00 00 00 00 00 00 00 00 00 00 00 00 00 00 00 ................
00400960 00 00 00 00 00 00 00 00 00 00 00 00 00 00 00 00 ................
00400970 00 00 00 00 00 00 00 00 00 00 00 00 00 00 00 00 ................
00400980 00 00 00 00 00 00 00 00 00 00 00 00 00 00 00 00 ................
00400990 00 00 00 00 00 00 00 00 00 00 00 00 00 00 00 00 ................
004009A0 00 00 00 00 00 00 00 00 00 00 00 00 00 00 00 00 ................
004009B0 00 00 00 00 00 00 00 00 00 00 00 00 00 00 00 00 ................
004009C0 00 00 00 00 00 00 00 00 00 00 00 00 00 00 00 00 ................
004009D0 00 00 00 00 00 00 00 00 00 00 00 00 00 00 00 00 ................
004009E0 00 00 00 00 00 00 00 00 00 00 00 00 00 00 00 00 ................
004009F0 00 00 00 00 00 00 00 00 00 00 00 00 00 00 00 00 ................
00400A00 00 00 00 00 00 00 00 00 00 00 00 00 00 00 00 00 ................
00400A10 00 00 00 00 00 00 00 00 00 00 00 00 00 00 00 00 ................
00400A20 00 00 00 00 00 00 00 00 00 00 00 00 00 00 00 00 ................
00400A30 00 00 00 00 00 00 00 00 00 00 00 00 00 00 00 00 ................
00400A40 00 00 00 00 00 00 00 00 00 00 00 00 00 00 00 00 ................
00400A50 00 00 00 00 00 00 00 00 00 00 00 00 00 00 00 00 ................
00400A60 00 00 00 00 00 00 00 00 00 00 00 00 00 00 00 00 ................
00400A70 00 00 00 00 00 00 00 00 00 00 00 00 00 00 00 00 ................
00400A80 00 00 00 00 00 00 00 00 00 00 00 00 00 00 00 00 ................
00400A90 00 00 00 00 00 00 00 00 00 00 00 00 00 00 00 00 ................
00400AA0 00 00 00 00 00 00 00 00 00 00 00 00 00 00 00 00 ................
00400AB0 00 00 00 00 00 00 00 00 00 00 00 00 00 00 00 00 ................
00400AC0 00 00 00 00 00 00 00 00 00 00 00 00 00 00 00 00 ................
00400AD0 00 00 00 00 00 00 00 00 00 00 00 00 00 00 00 00 ................
00400AE0 00 00 00 00 00 00 00 00 00 00 00 00 00 00 00 00 ................
00400AF0 00 00 00 00 00 00 00 00 00 00 00 00 00 00 00 00 ................
00400B00 00 00 00 00 00 00 00 00 00 00 00 00 00 00 00 00 ................
00400B10 00 00 00 00 00 00 00 00 00 00 00 00 00 00 00 00 ................
00400B20 00 00 00 00 00 00 00 00 00 00 00 00 00 00 00 00 ................
00400B30 00 00 00 00 00 00 00 00 00 00 00 00 00 00 00 00 ................
00400B40 00 00 00 00 00 00 00 00 00 00 00 00 00 00 00 00 ................
00400B50 00 00 00 00 00 00 00 00 00 00 00 00 00 00 00 00 ................
00400B60 00 00 00 00 00 00 00 00 00 00 00 00 00 00 00 00 ................
00400B70 00 00 00 00 00 00 00 00 00 00 00 00 00 00 00 00 ................
00400B80 00 00 00 00 00 00 00 00 00 00 00 00 00 00 00 00 ................
00400B90 00 00 00 00 00 00 00 00 00 00 00 00 00 00 00 00 ................
00400BA0 00 00 00 00 00 00 00 00 00 00 00 00 00 00 00 00 ................
00400BB0 00 00 00 00 00 00 00 00 00 00 00 00 00 00 00 00 ................
00400BC0 00 00 00 00 00 00 00 00 00 00 00 00 00 00 00 00 ................
00400BD0 00 00 00 00 00 00 00 00 00 00 00 00 00 00 00 00 ................
00400BE0 00 00 00 00 00 00 00 00 00 00 00 00 00 00 00 00 ................
00400BF0 00 00 00 00 00 00 00 00 00 00 00 00 00 00 00 00 ................
00400C00 00 00 00 00 00 00 00 00 00 00 00 00 00 00 00 00 ................
00400C10 00 00 00 00 00 00 00 00 00 00 00 00 00 00 00 00 ................
00400C20 00 00 00 00 00 00 00 00 00 00 00 00 00 00 00 00 ................
00400C30 00 00 00 00 00 00 00 00 00 00 00 00 00 00 00 00 ................
00400C40 00 00 00 00 00 00 00 00 00 00 00 00 00 00 00 00 ................
00400C50 00 00 00 00 00 00 00 00 00 00 00 00 00 00 00 00 ................
00400C60 00 00 00 00 00 00 00 00 00 00 00 00 00 00 00 00 ................
00400C70 00 00 00 00 00 00 00 00 00 00 00 00 00 00 00 00 ................
00400C80 00 00 00 00 00 00 00 00 00 00 00 00 00 00 00 00 ................
00400C90 00 00 00 00 00 00 00 00 00 00 00 00 00 00 00 00 ................
00400CA0 00 00 00 00 00 00 00 00 00 00 00 00 00 00 00 00 ................
00400CB0 00 00 00 00 00 00 00 00 00 00 00 00 00 00 00 00 ................
00400CC0 00 00 00 00 00 00 00 00 00 00 00 00 00 00 00 00 ................
00400CD0 00 00 00 00 00 00 00 00 00 00 00 00 00 00 00 00 ................
00400CE0 00 00 00 00 00 00 00 00 00 00 00 00 00 00 00 00 ................
00400CF0 00 00 00 00 00 00 00 00 00 00 00 00 00 00 00 00 ................
00400D00 00 00 00 00 00 00 00 00 00 00 00 00 00 00 00 00 ................
00400D10 00 00 00 00 00 00 00 00 00 00 00 00 00 00 00 00 ................
00400D20 00 00 00 00 00 00 00 00 00 00 00 00 00 00 00 00 ................
00400D30 00 00 00 00 00 00 00 00 00 00 00 00 00 00 00 00 ................
00400D40 00 00 00 00 00 00 00 00 00 00 00 00 00 00 00 00 ................
00400D50 00 00 00 00 00 00 00 00 00 00 00 00 00 00 00 00 ................
00400D60 00 00 00 00 00 00 00 00 00 00 00 00 00 00 00 00 ................
00400D70 00 00 00 00 00 00 00 00 00 00 00 00 00 00 00 00 ................
00400D80 00 00 00 00 00 00 00 00 00 00 00 00 00 00 00 00 ................
00400D90 00 00 00 00 00 00 00 00 00 00 00 00 00 00 00 00 ................
00400DA0 00 00 00 00 00 00 00 00 00 00 00 00 00 00 00 00 ................
00400DB0 00 00 00 00 00 00 00 00 00 00 00 00 00 00 00 00 ................
00400DC0 00 00 00 00 00 00 00 00 00 00 00 00 00 00 00 00 ................
00400DD0 00 00 00 00 00 00 00 00 00 00 00 00 00 00 00 00 ................
00400DE0 00 00 00 00 00 00 00 00 00 00 00 00 00 00 00 00 ................
00400DF0 00 00 00 00 00 00 00 00 00 00 00 00 00 00 00 00 ................
00400E00 00 00 00 00 00 00 00 00 00 00 00 00 00 00 00 00 ................
00400E10 00 00 00 00 00 00 00 00 00 00 00 00 00 00 00 00 ................
00400E20 00 00 00 00 00 00 00 00 00 00 00 00 00 00 00 00 ................
00400E30 00 00 00 00 00 00 00 00 00 00 00 00 00 00 00 00 ................
00400E40 00 00 00 00 00 00 00 00 00 00 00 00 00 00 00 00 ................
00400E50 00 00 00 00 00 00 00 00 00 00 00 00 00 00 00 00 ................
00400E60 00 00 00 00 00 00 00 00 00 00 00 00 00 00 00 00 ................
00400E70 00 00 00 00 00 00 00 00 00 00 00 00 00 00 00 00 ................
00400E80 00 00 00 00 00 00 00 00 00 00 00 00 00 00 00 00 ................
00400E90 00 00 00 00 00 00 00 00 00 00 00 00 00 00 00 00 ................
00400EA0 00 00 00 00 00 00 00 00 00 00 00 00 00 00 00 00 ................
00400EB0 00 00 00 00 00 00 00 00 00 00 00 00 00 00 00 00 ................
00400EC0 00 00 00 00 00 00 00 00 00 00 00 00 00 00 00 00 ................
00400ED0 00 00 00 00 00 00 00 00 00 00 00 00 00 00 00 00 ................
00400EE0 00 00 00 00 00 00 00 00 00 00 00 00 00 00 00 00 ................
00400EF0 00 00 00 00 00 00 00 00 00 00 00 00 00 00 00 00 ................
00400F00 00 00 00 00 00 00 00 00 00 00 00 00 00 00 00 00 ................
00400F10 00 00 00 00 00 00 00 00 00 00 00 00 00 00 00 00 ................
00400F20 00 00 00 00 00 00 00 00 00 00 00 00 00 00 00 00 ................
00400F30 00 00 00 00 00 00 00 00 00 00 00 00 00 00 00 00 ................
00400F40 00 00 00 00 00 00 00 00 00 00 00 00 00 00 00 00 ................
00400F50 00 00 00 00 00 00 00 00 00 00 00 00 00 00 00 00 ................
00400F60 00 00 00 00 00 00 00 00 00 00 00 00 00 00 00 00 ................
00400F70 00 00 00 00 00 00 00 00 00 00 00 00 00 00 00 00 ................
00400F80 00 00 00 00 00 00 00 00 00 00 00 00 00 00 00 00 ................
00400F90 00 00 00 00 00 00 00 00 00 00 00 00 00 00 00 00 ................
00400FA0 00 00 00 00 00 00 00 00 00 00 00 00 00 00 00 00 ................
00400FB0 00 00 00 00 00 00 00 00 00 00 00 00 00 00 00 00 ................
00400FC0 00 00 00 00 00 00 00 00 00 00 00 00 00 00 00 00 ................
00400FD0 00 00 00 00 00 00 00 00 00 00 00 00 00 00 00 00 ................
00400FE0 00 00 00 00 00 00 00 00 00 00 00 00 00 00 00 00 ................
00400FF0 00 00 00                                        ...            

l00400FF3:
	add	[eax],al
	add	[eax],al
	add	[eax],al
	add	[eax],al
	add	[eax],al
	add	[eax],al
	add	[eax-0C],bl
00401000 58 F4 87 1F 86 7B EA 8F                         X....{..       

l00401008:
	xor	bh,cl

fn00401009()
	stc	
	xor	bl,al
	mov	bl,08
	add	edi,ecx
	inc	edi
	inc	esi
	add	bl,dh
	jmp	004010C6
00401019                            61 D0 77 1F                   a.w.  

fn0040101D()
	leave	
	or	ebx,ecx
	add	edx,ecx
	add	edi,eax
	dec	esi
	add	edx,esi
	or	edx,eax
	or	edi,eax
	mov	edx,ebx
	call	004010FA
	illegal	
	leave	
	sahf	
	jz	00401072
	add	[esi+ebp+0424648D],bl

fn0040103A()
	lea	esp,[esp+04]
	inc	edi
	add	esi,ecx
	sub	bh,bl
	or	bl,ch
	neg	bh
	sub	ebx,esi
	mov	bl,90
	neg	bh
	jmp	00401008
0040104F                                              19                .
00401050 AB 59 9C C3 AE 69                               .Y...i         

l00401056:
	add	bl,bh
	xor	bl,bh
	sub	bh,bl
	inc	ebx
	mov	bh,7F
	xor	bl,bh
	sub	edi,ebx
	dec	esi
	sub	ebx,edx
	sub	ebx,eax
	call	00401141
	ja	00400FF3

l0040106F:
	fcom	st(0),st(3)
	test	al,0B

l00401072:
	or	edi,ecx

fn00401073()
	stc	
	mov	esi,edx
	inc	ebx
	dec	esi
	mov	edi,esi
	mov	edi,ecx
	jle	004010E2

fn0040107E()
	mov	ah,ah
	jg	004010E2

l00401082:
	sbb	edx,ebx
	rol	dword ptr [ebp+edx*2+DA33EC8B],01

fn00401086()
	push	ebp
	mov	ebp,esp
	xor	ebx,edx

l0040108B:
	dec	ebx
	mov	esi,eax
	mov	ebx,ecx
	dec	edi
	inc	ebx
	or	edi,eax
	or	ebx,edi
	add	esi,edx
	jmp	00401072
0040109A                               D8 41 F2 58 A4              .A.X.

fn0040109F()
	lea	esp,[esp+04]
	xor	ebx,esi
	dec	esi
	mov	edi,eax
	dec	ebx
	or	bl,al
	sub	ebx,edi
	call	0040103A
	xchg	eax,ecx
	add	al,30
	mov	dword ptr [ebx-75],33D62BCF

fn004010B7()
	mov	ecx,edi
	sub	edx,esi
	xor	edi,esi

fn004010BC()
	dec	byte ptr [ebx]
	clc	
	add	ebx,edi
	jmp	00401162

fn004010C6()
	mov	bh,ah
	dec	esi
	or	edi,esi
	dec	edi
	mov	bh,al
	sub	esi,eax
	mov	bl,5F
	sub	bh,cl
	sub	bh,ah
	or	edi,edx
	jmp	00401056
004010DD                                        94 94 8B              ...
004010E0 44 AE                                           D.             

fn004010E2()
	or	ebx,eax
	dec	ebx
	sub	ebx,edx
	add	edi,ebx
	inc	ebx
	dec	esi
	xor	ebx,edi
	or	esi,edi
	call	0040109F
	test	eax,edi
	leave	
	jc	0040114E

l004010F9:
	insb	

fn004010FA()
	lea	esp,[esp+04]
	sub	edx,esi
	mov	ecx,ebx
	inc	eax
	or	eax,ecx
	inc	esi

fn00401106()
	xor	eax,edx
	mov	esi,eax
	mov	eax,esi
	sub	ebx,esi
	jbe	004010B7

l00401110:
	push	si
	pop	si
	lea	ebx,[ebx]
	ja	004010B7

l00401118:
	mov	esi,[esp+ecx*8]
	mov	dword ptr [edi-2C],0BF72B03

fn0040111F()
	sub	esi,edi
	or	ebx,esi

fn00401122()
	fidiv	word ptr [ebx]
	lock	
	mov	ebx,eax
	xor	ebx,edx
	mov	esi,edi
	mov	esi,ecx
	jbe	0040101D

fn00401133()
	mov	ch,ch
	push	eax
	pop	eax
	ja	0040101D

l0040113D:
	jns	00401106

fn0040113F()
	mov	edx,[ecx]

fn00401141()
	pop	dword ptr [esp-14]
	mov	ebx,edi
	xor	ebx,edi
	dec	esi
	sub	esi,eax
	inc	ebx
	inc	ebx

fn0040114E()
	dec	edi
	inc	edi
	add	esi,edi
	jbe	0040111F

fn00401154()
	push	bx
	pop	bx
	jle	0040115A

l0040115A:
	ja	0040111F

l0040115C:
	or	al,2C
	into	
	mov	ebp,4DE89C8F

fn00401162()
	call	004028B4
	test	al,D9
	clc	
	mov	dh,16
	push	edx
	and	[ecx+8BBA16D7],edx
	or	dh,dh
	mov	ecx,[eax]
	loop	004011A4

l00401179:
	add	byte ptr [edi-27],DA
	fidiv	dword ptr [edx]
	push	edi
	xchg	eax,edi
	ret	DF22
00401184             A1 DB 55 98 D6 DA DA 81 B9 D9 DA DA     ..U.........
00401190 73 12 70 BA 4B D7 B2 D7 B1 D7 B0 5F A0 87 76 D7 s.p.K......_..v.
004011A0 06 8E BF CC                                     ....           

l004011A4:
	mul	dl
	sbb	al,4D
	add	ecx,[esi-22]
	xchg	eax,esp
	or	[ebx],ch
	or	byte ptr [esi+8BDADAE2],AA
	pop	edi
	push	ss
	mov	fs,[ecx+81DADE98]
	rcl	ebp,cl
	illegal	
	mov	al,A8
	in	al,13
	fild	dword ptr [esi+edx-16]
	popa	
	push	ss
	mov	ds,[edi+06]
	loop	0040122F
	mov	bx,ds
	inc	esp
	jmp	DB19CF5A
	fidivr	dword ptr [edi+E886150B]
	mov	al,75
	push	83E08057
	mov	al,5F
	mov	al,[E0BF7687]
	pop	edi
	push	ds
	fiadd	word ptr [edi+D9B08176]
	illegal	
	pop	edi
	push	ss
	mov	es,cx
	push	ss
	xchg	eax,edx
	or	dword ptr [ebx-27],6556DADA
	xchg	eax,ecx
	sbb	ebp,edx
	popa	
	daa	
	neg	byte ptr [edx+9AF6275D]
	sub	[ecx],eax
	mov	ebp,[ebx]
	add	esp,[edx+2C]
	cmp	edi,[edx+DADA6A82]
	fiadd	dword ptr [ebx]
	jg	00401223
	xlat	
	xchg	[ecx+DADAD339],al
	cdq	
	leave	
	call	far 5FC1:0ADC
	mov	[edi+1E],ds
	ficomp	word ptr [edi+26]
	jmp	far 8110:9957
	inc	edi
	xlat	
	illegal	
	push	edi
	adc	dword ptr [eax],A0602A7E
	mov	edi,BC58420E
	aam	74
	push	edi
	push	cs
	fsubrp	st(0),st(0)
	or	[edi+5F],ebp
	xchg	eax,edi
	mov	dword ptr [eax+DADAE051],818983DA
	mov	dword ptr [ebx+2AE88B8B],A1CB5328
	cwde	
	jmp	far BE5F:26DA
	sub	[edi+1E],bl
	ficomp	word ptr [edi+2E]
	loop	004011F7
	inc	esi
	illegal	
	fiadd	dword ptr [ecx+DADAE17E]
	loopne	00401234
	out	9D,al
	xchg	eax,ebx
	fist	dword ptr [edi+45]
	loop	00401263
	illegal	
	call	far DAD7:2282
	illegal	
	push	edi
	illegal	
	illegal	
	inc	edi
	fcomp	dword ptr [edx]
	and	dword ptr [ecx-1E],5AA8DADA
	pusha	
	jge	004012A9
	and	esp,A1302D2C
	cwde	
	loop	00401287
	pop	edi
	mov	esi,E55F3728
	retf	DADA
	ficomp	dword ptr [edi+29]
	fiadd	word ptr [ecx+DADAD849]
	cmc	
	mov	dh,B2
	iret	
	pop	edx
	mov	edi,esp
	fcomp	dword ptr [eax+ebp*4+A8A0609A]
	mov	[A9D74032],al
	cdq	
	cwde	
	xlat	
	sub	edx,17DADAD7
	push	ss
	mov	bl,[edx+DAD39F82]
	fimul	dword ptr [ebx+8A165DAA]
	sub	ebx,[ebp+16]
	xchg	[ebx],ch
	add	edx,ebx
	add	edx,ebx
	add	esp,[edx+2C]
	cmp	edi,[edx+0962D6BF]
	mov	eax,[8B7F82FA]
	mov	ecx,[ebx+F68B4403]
	mov	dword ptr [ebx],DAD37882
	fimul	dword ptr [ebx+86165DAA]
	sub	eax,[ebx]
	bound	ebp,[ebx+edi]
	mov	edx,DAE27281
	ficom	dword ptr [edi+B3124E9C]
	shl	dword ptr [esi+2F],2B
	adc	byte ptr [esi-2D],DA
	fimul	dword ptr [ebx+E298A1AA]
	fisub	dword ptr [esi]
	pop	edi
	mov	esi,5D8E9657
	push	ss
	mov	gs,[ebx]
	and	eax,1BDADAE0
	xchg	eax,edi
	and	[5FF37448+ecx],bl
	mov	esi,5D869657
	push	ss
	mov	gs,[ebx]
	pop	ecx
	push	cs
	fimul	word ptr [ebx+04DADA8B]
	loopne	004012E6
	push	es
	fiadd	word ptr [ecx]
	fiadd	dword ptr [ecx+DADAD497]
	add	edx,ebx
	add	eax,83DADAE1
	bound	edx,[esi]
	xchg	eax,esp
	jpo	00401312
	mov	eax,[esi]
	or	byte ptr [ebx+6082A606],D4
	illegal	
	pop	edi
	push	ds
	mov	edx,5FCE1A5F
	pop	ss
	fld	st(2)
	xlat	
	cdq	
	popa	
	push	ss
	sahf	
	pop	edi
	mov	edx,DAD96E81
	fisub	dword ptr [esi+E1D3D3F2]
	xor	eax,D7A25FED
	sbb	ecx,esi
	pop	edi
	sbb	eax,edx
	xlat	
	cdq	
	popa	
	push	ss
	stosb	
	mov	eax,[esi]
	add	byte ptr [ecx],DA
	adc	byte ptr [ecx+1661DADA],A6
	and	dword ptr [ebp-2D],BC93DADA
	ficom	dword ptr [eax-6D]
	fldcw	word ptr [bp+di+57]
	call	far DE16:C1E0
	push	edi
	push	cs
	illegal	
	fist	dword ptr [ebp+10]
	mov	[ebx+92165F8B],cs
	sub	al,2D
	xor	[ecx+8B8B8C5F],al
	popa	
	clc	
	or	eax,FCB0C978
	mov	esp,DA5A6F5D
	illegal	
	pop	edi
	out	dx,ax
	fild	qword ptr [edi+D89256DB]
	illegal	
	xlat	
	loop	00401379
	xchg	bl,dl
	illegal	
	sub	dword ptr [ecx-2D],0F6DDADA
	jg	0040141A
	lodsd	
	pop	edi
	mov	esi,5F9AC724
	push	ds
	ficomp	word ptr [edi+0E]
	loop	0040139A
	inc	eax
	sub	al,81
	mov	fs,dx
	illegal	
	push	edi
	mov	ebx,609A3B85
	pop	ss
	illegal	
	mov	esp,[eax-0A]
	lock	
	bound	esi,[edi]
	illegal	
	mov	esp,[edx-2A]
	lock	
	and	bl,bh
	mov	eax,[D38555DB]
	illegal	
	xor	[ecx+DADADAAE],al
	cmpsb	
	jge	004013F8
	sahf	
	pop	ebx
	adc	eax,EA068BF2
	pop	ebx
	adc	eax,5FD4BFEE
	les	ecx,edi
	mov	[esi],al
	imul	dword ptr [D8868130+ebp]
	illegal	
	bound	eax,ebx
	pusha	
	in	al,dx
	test	[esi+45],esp
	aaa	
	pop	edi
	in	eax,dx
	retf	DADA
	ficomp	dword ptr [edi+30]
	ficomp	word ptr [edi+28]
	ficomp	word ptr [edi+08]
	fidivr	word ptr [edi+5FB1BFD8]
	adc	eax,0693CFEE
	stosb	
	mov	eax,[esi]
	loop	0040143E
	call	far 44ED:4E01
	xchg	eax,ebx
	cmp	byte ptr [edi-1E],DA
	fisub	dword ptr [ecx+16]
	mov	dh,8B
	push	es
	xchg	eax,edx
	mov	eax,[esi]
	mov	dh,28
	sbb	byte ptr [eax-26],DA
	fiadd	dword ptr [ebx+DAD68E16]
	illegal	
	fist	dword ptr [esi-5B]
	illegal	
	fisubr	dword ptr [ebx]
	adc	dword ptr [ebp+1DDADAD9],8E80ADC2
	dec	eax
	pop	edx
	mov	dword ptr [edi+82D84776],DADAD9EE
	or	[edi+eax*8+D9E782A1],al
	illegal	
	adc	dword ptr [edx-73],A2A78B8B
	pop	dword ptr [ecx+5F]
	illegal	
	bound	edx,edi
	cwde	
	sbb	dword ptr [esi+BF8B8B8D],329AC7D8
	push	edi
	xchg	eax,esp
	illegal	
	sbb	cl,bh
	push	ds
	mov	ds,bx
	pop	eax
	leave	
	aam	DA
	fiadd	dword ptr [ecx+8B8B8D45]
	lahf	
	pop	ds
	dec	edi
	lock	
	in	al,dx
	add	byte ptr [edi-2B],DA
	fimul	dword ptr [ebx+D698A1AA]
	fisub	dword ptr [esi]
	pop	edi
	mov	esi,8B8A9657
	push	es
	loop	00401569
	push	ss
	xchg	eax,edx
	sub	eax,[ecx+DADAD95D]
	int	F5
	cmp	bh,cl
	mov	eax,[26DADE98]
	pop	edi
	mov	esi,065F2425
	loop	004014A6
	illegal	
	lea	ecx,[ebx+1BAA538B]
	mov	ebp,9E068B55
	mov	eax,[esi]
	stosb	
	sub	[edx+DADAD3AB],al
	sub	[edx+DADAD8EA],al
	pop	edi
	xchg	eax,edi
	sbb	dword ptr [edi+edx*8+F86BDADA],165BA924
	mov	al,[ebx]
	illegal	
	illegal	
	pop	ebx
	push	ss
	add	byte ptr [ebx],DA
	les	ebx,edx
	ficomp	dword ptr [ebx+16]
	mov	dh,03
	mov	edi,81A2C886
	add	bl,dl
	illegal	
	xor	edi,[ebp-1B]
	push	ds
	xchg	eax,esp
	call	far B05F:D81E
	push	edi
	xchg	eax,edi
	ficomp	word ptr [edi+29]
	ficomp	word ptr [edi-18]
	mov	edi,CA215FEE
	adc	dword ptr [ebp+5CDADAD6],4B55312B
	add	bl,[edi+19]
	repne	
	sub	dword ptr [ebx+BFDADAD3],C7E85FD6
	call	far 9E81:A7CF
	rcr	edx,cl
	ficom	dword ptr [ebx+23586185]
	xchg	[eax+55DBA1DF],ebx
	cmp	dl,ah
	illegal	
	xlat	
	xor	dh,dl
	push	edi
	adc	dh,dl
	loop	00401592
	push	ebx
	pop	ss
	aam	DA
	fisubr	dword ptr [D6B38130+ebp]
	illegal	
	sahf	
	pop	ds
	dec	esi
	lea	ebx,ecx
	loop	004015BD
	inc	edi
	fldenv	word ptr [8AFF835F]
	xchg	[esi+2D],esi
	sub	dword ptr [ebx+D88B8B8C],F755DBA8
	xlat	
	illegal	
	xor	ecx,C6DADAD7
	cmp	eax,225D9EFA
	mov	edx,[edi-67]
	adc	[edi-6F],dl
	adc	bl,bl
	push	ebp
	pop	ss
	mov	cs,[ebx+E2165F8B]
	pop	edi
	push	ds
	ficomp	word ptr [edi+26]
	jmp	far EAC9:E2C9
	sub	al,81
	adc	al,bl
	illegal	
	pop	ds
	dec	esi
	cmp	byte ptr [ebx+DB99AC51],BF
	cdq	
	pop	ebp
	and	bl,cl
	pop	ecx
	xchg	eax,ecx
	out	dx,ax
	add	byte ptr [esi-27],DB
	push	ebp
	sbb	edi,edx
	illegal	
	xor	eax,[ecx+DADAD614]
	adc	al,39
	movsd	
	pop	ss
	lodsd	
	pop	dword ptr [ebx+068BA606]
	mov	edx,DAD72882
	illegal	
	inc	ebx
	and	ah,dl
	pop	ecx
	xchg	eax,edi
	xchg	eax,edx
	illegal	
	fiadd	dword ptr [ecx+8B8B8FC4]
	sub	al,[ecx+DADAD590]
	xor	ch,al
	mov	al,06
	std	
	call	0E9F5707
	loop	004015E6
	jbe	004016C0
	xchg	eax,ebx
	sub	al,2D
	mov	eax,[81DADE98]
	jno	004015F8
	mov	ecx,[ebx+24DF1326]
	add	al,8B
	push	es
	cmpsb	
	and	bh,D8
	illegal	
	mov	edi,B6068BDE
	sub	ecx,[ebx+E182A606]
	xlat	
	illegal	
	adc	dword ptr [esi],8E
	jmp	far DBDA:DADA
	push	esi
	illegal	
	illegal	
	fimul	dword ptr [ebx+FC81BA06]
	xlat	
	illegal	
	or	ch,[edi+62038D7B]
	sub	al,3B
	mov	edx,8B8ED882
	mov	eax,[ebx]
	sub	eax,2BBC8396
	adc	byte ptr [ecx+8BDADAD7],AA
	add	ecx,ebx
	pop	ebp
	push	ss
	xchg	eax,edx
	cmp	dword ptr [ebx-2A],160DDADA
	and	al,[eax]
	ja	004016EA
	pop	edi
	mov	esi,01E2068B
	mov	eax,[ebx]
	bound	ebp,[ebx+edi]
	mov	edx,8B8FA782
	mov	eax,[ebx]
	mov	bh,FF
	push	esi
	movsd	
	sub	eax,[ecx+8B8B8CE8]
	and	esi,[ebx+CE655002]
	arpl	[D698A130+ebp],bx
	fisub	dword ptr [esi]
	cmp	esp,6FDADAD9
	call	far 9F48:1AF4
	call	far DB9F:FFC1
	push	ebp
	test	al,DA
	illegal	
	adc	byte ptr [edx+81DADAD9],4B
	illegal	
	fidivr	dword ptr [esi-57]
	sbb	bl,56
	jge	004016F4
	illegal	
	out	A1,al
	add	dword ptr [edi-26],87ACDADA
	dec	ebx
	insb	
	or	[edx+24],edx
	pop	edi
	push	ss
	fdivp	st(7),st(0)
	push	ss
	out	61,al
	push	ss
	fisub	word ptr [ecx+16]
	xchg	eax,edx
	pop	edx
	push	cs
	jmp	far 6956:DBDA
	mov	cs,[ebx+905A818B]
	mov	ecx,[ebx+CF803210]
	lahf	
	pop	ss
	mov	edi,DE98A172
	fisub	dword ptr [esi]
	pop	edi
	mov	esi,288E9657
	and	eax,E22E5F24
	xlat	
	xor	dh,cl
	or	dword ptr [esi+ecx*4],233E8B8B
	pop	ebp
	imul	ebx,ebx,C3
	xlat	
	sbb	ecx,esi
	pop	edi
	loop	004017D1
	sbb	edx,[ebx]
	xlat	
	cwde	
	pop	edi
	xchg	eax,edx
	pop	edi
	or	edi,edx
	sbb	dword ptr [edi-29],12FADADA
	mov	bh,7C
	ret	
	jnc	0040170A
	mov	edi,61DADAD5
	push	ss
	mov	edx,CADD5F37
	illegal	
	fisub	dword ptr [ecx+1A]
	loop	00401725
	push	es
	scasb	
	mov	eax,[esi]
	mov	edx,8B8E3982
	mov	ebx,[edi+2E]
	cmpsb	
	xlat	
	xor	dh,cl
	mov	ecx,[eax]
	daa	
	sbb	dword ptr [ecx-74],AF918B8B
	dec	eax
	das	
	xor	cl,ah
	add	byte ptr [edx+8B8B8CEF],E7
	mov	eax,[8B8CE682]
	mov	ecx,[ecx]
	mov	[edi+C2F60FFF],dl
	popa	
	illegal	
	out	dx,al
	cmp	ah,[ecx+81DAE298]
	xchg	dl,bl
	illegal	
	imul	esp,[ebx],7EE2BA99
	cmp	dl,D9
	illegal	
	int	DA
	push	cs
	illegal	
	fist	dword ptr [edi-54]
	illegal	
	ficomp	dword ptr [edx-72]
	illegal	
	fist	dword ptr [edi-5C]
	illegal	
	fiadd	dword ptr [ecx+DADADA9F]
	stc	
	pop	ecx
	pop	ebx
	leave	
	scasd	
	pop	ebp
	push	ss
	fisubr	word ptr [ebx]
	pop	ebp
	push	ss
	loop	00401837
	add	[ebx+3B2C6203],ecx
	mov	edx,8B906582
	mov	eax,[ebx]
	jg	0040181E
	xlat	
	xchg	[ecx+8B8B8FD7],al
	cmp	al,5E
	bound	ecx,esi
	jnc	00401887
	mov	esi,5F242528
	loop	0040188F
	cmpsd	
	jmp	dword ptr [esi]
	illegal	
	xor	dh,cl
	mov	edi,35D30BF8
	add	al,26
	pop	edi
	mov	esi,289E9657
	add	edx,ebx
	illegal	
	pop	edi
	mov	[DA8BB959],al
	illegal	
	add	ecx,ebx
	sbb	esi,B9DADAD9
	and	ah,[edi-70]
	pop	ebp
	outsd	
	jpe	00401839
	illegal	
	pop	edi
	out	dx,ax
	pop	edi
	push	ds
	loop	00401846
	scasd	
	fist	dword ptr [esi+1D]
	lea	ecx,[ebx+DE1ECF8B]
	fist	dword ptr [esi+16]
	lea	ecx,[ebx+E22ED78B]
	add	edi,818B8B8D
	illegal	
	illegal	
	pop	edx
	inc	edi
	pop	ecx
	iret	
	sub	eax,DADE98A1
	pop	edi
	mov	esi,DE065F3B
	pop	edi
	push	cs
	loop	00401819
	in	eax,8E
	mov	ecx,[ebx+D577AE90]
	mov	es,[ebx]
	illegal	
	illegal	
	pop	ebx
	push	ss
	mov	es,[ebx]
	and	eax,5B861C45
	push	ss
	xchg	eax,edx
	add	ebx,[esi+5B9E9E9E]
	push	ss
	xchg	[ebx],al
	sahf	
	sahf	
	sahf	
	sahf	
	and	dword ptr [ecx-72],7A4A8B8B
	pop	esp
	push	esi
	sti	
	inc	esi
	rcl	dword ptr [edi-6E],0C
	add	al,D8
	sbb	bl,[edx]
	pop	edi
	xchg	eax,ebp
	or	dword ptr [eax+318B8B8E],102DE74E
	and	edi,[edi+165DDA01]
	loop	00401911
	add	[ebx+3B2C6203],ecx
	mov	edx,8B914F82
	mov	eax,[ebx]
	xor	eax,8119D828
	pop	edx
	illegal	
	sahf	
	inc	edi
	add	byte ptr [E815E460],A8
	xchg	eax,edi
	mov	dword ptr [ecx+8C7E811A],4E2B8B8B
	in	al,dx
	out	BB,al
	mov	ebp,edi
	movsb	
	xlat	
	sbb	ecx,esi
	mov	ecx,[ebx]
	mov	byte ptr [eax],82
	test	eax,308B8B8D
	push	ecx
	illegal	
	illegal	
	pop	edi
	mov	dl,81
	jc	00401907
	illegal	
	pop	edi
	illegal	
	cmpsd	
	adc	ebx,[edi-39]
	mov	edi,EA085FD7
	xlat	
	push	es
	loop	0040199F
	adc	dl,ch
	xlat	
	push	cs
	loop	004018C7
	jo	00401920
	illegal	
	jge	0040198D
	illegal	
	ficomp	dword ptr [edx-25]
	push	esi
	std	
	xlat	
	illegal	
	and	ebp,C8DADAD7
	clc	
	cmpsb	
	sub	al,2A
	sbb	[ebp+8E488196],dl
	mov	ecx,[ebx+AFAAB16F]
	illegal	
	imul	byte ptr [edi+99ACF6D6]
	scasd	
	illegal	
	neg	bl
	mov	edi,AF99ACA7
	illegal	
	test	byte ptr [ecx+8B8B8E5B],14
	illegal	
	xchg	eax,ebp
	push	esi
	illegal	
	sub	eax,[edx+DADAD9FA]
	sub	edx,[edi+25BE5F26]
	and	al,5F
	push	ds
	jmp	far 81DE:065F
	push	eax
	mov	cs,[ebx+AC0ED28B]
	mov	eax,[23FFADF5]
	cdq	
	sbb	bl,99
	mov	edx,E243DBDB
	pop	ecx
	sbb	dword ptr [esi],DFDADA31
	mov	eax,[1661BE06]
	mov	edx,8B8CAE81
	mov	esp,[eax-23]
	dec	ebx
	out	dx,ax
	jle	00401A48
	xor	al,[edx+8B8B8E92]
	mov	eax,[esi]
	scasb	
	mov	eax,[esi]
	mov	edx,DADAFF82
	ficomp	dword ptr [edi+2E]
	cmpsb	
	xlat	
	xor	dh,cl
	pop	ebp
	xor	dl,dh
	mov	ecx,[eax]
	rcr	[ebx+16],cl
	scasb	
	mov	ecx,[eax]
	rol	[ecx+DADADA90],cl
	jbe	004019F8
	ja	00401A3D
	fldcw	word ptr [ebx]
	or	byte ptr [eax-26],DA
	fimul	dword ptr [ebx+E2165FAA]
	mov	eax,[26DAE298]
	pop	edi
	mov	esi,DA5ADA03
	fiadd	dword ptr [ecx+8B8B8D89]
	and	al,12
	add	bl,bh
	dec	edx
	imul	edx,[eax+03],BC83962D
	sub	eax,[edx+DADADA60]
	mov	ebp,[edx+03E2068B]
	bound	ebp,[ebx+edi]
	mov	edx,8B921282
	mov	eax,[ebx]
	sub	dword ptr [eax+822B123F],0B
	illegal	
	fiadd	dword ptr [ecx+DADAD881]
	test	al,3C
	movsd	
	cmp	[ecx+53],bl
	mov	dword ptr [edx+9A99E2BF],57D9C8D3
	cdq	
	fdiv	dword ptr [06DAD157]
	mov	ch,al
	pop	eax
	nop	
	sub	esp,[eax]
	iret	
	push	ss
	loop	00401A40
	push	ebp
	dec	dword ptr [edi+EE818B8B]
	pop	dword ptr [ebx+0721B28B]
	or	ebp,[edi+5233F6E6]
	xlat	
	illegal	
	illegal	
	test	al,35
	pop	esp
	xor	byte ptr [A2A9825E],81
	cmc	
	fcomp	st(0),st(2)
	illegal	
	or	al,6C
	and	[ecx+06],edx
	rcl	edi,cl
	iret	
	xlat	
	push	cs
	loop	00401A71
	jcxz	00401AF1
	xchg	eax,esp
	fcom	dword ptr [edi-7F]
	fadd	dword ptr [ecx+8B8B8FD7]
	lodsb	
	in	al,EB
	retf	E7A2
	xor	[ecx+26DAE298],ah
	pop	edi
	mov	esi,288E9657
	and	eax,E2165F24
	cmp	dword ptr [edi-72],72838B8B
	add	dl,al
	outsd	
	cli	
	jns	00401ADC
	pop	edi
	push	ss
	sahf	
	mov	eax,[9457865F]
	jmp	far DA1B:DA03
	fisub	dword ptr [ecx+1F]
	neg	byte ptr [edx+9AF61F5D]
	sub	al,[ecx+8B8B83F7]
	mov	dword ptr [ebx+DE57EA8E],088B71ED
	out	dx,al
	mov	ecx,[eax]
	ror	[ebx+088BEE08],cl
	out	dx,al
	sbb	byte ptr [edi+828B8B8F],D6
	mov	ecx,[ebx+8E5A818B]
	mov	ecx,[ebx+F3306422]
	xlat	
	mov	[edi+23],bl
	repne	
	popa	
	push	ds
	mov	ds,[edi+2E]
	faddp	st(7),st(0)
	mov	eax,[8B919481]
	mov	ebp,[edx]
	xor	dword ptr [ecx+61DADAD9],72C4A49A
	dec	edx
	jmp	far 8B90:7F82
	mov	ebp,eax
	call	far 55DB:8308
	nop	
	mov	ecx,[ebx+91118140]
	mov	ecx,[ebx+8B8D9682]
	mov	eax,[ecx+8B8B8F52]
	sbb	eax,fs:[ecx-58]
	cmpsd	
	pop	edi
	mov	edx,59CE30D7
	xchg	eax,edi
	cli	
	illegal	
	ficomp	dword ptr [edi+30]
	illegal	
	mov	edx,8BBE068B
	push	es
	mov	dh,28
	and	dword ptr [ecx],37DADAD8
	imul	edx,[ecx+5D2B7017],16
	xchg	[ebx],ch
	add	esp,[edx+2C]
	cmp	edi,[edx+8B83FD82]
	mov	eax,[ebx]
	out	0A,al
	illegal	
	sub	eax,[ecx+8B8B8327]
	clc	
	mov	eax,[E055C196]
	wait	
	pop	edi
	sbb	dh,bl
	xlat	
	push	ss
	loop	00401BC4
	xor	byte ptr [edi],91
	mov	ecx,[ebx+578E1661]
	iret	
	illegal	
	push	esi
	pop	ebx
	lea	ecx,[ebx+8D54818B]
	mov	ecx,[ebx+9E155C25]
	sar	cl,82
	xchg	[ebx+ecx*4+FC99038B],eax
	mov	dl,89
	sub	eax,[edx+8B8B8C80]
	mov	ebp,[edx+A18A165F]
	cwde	
	illegal	
	fisub	dword ptr [esi]
	add	dword ptr [edi],728B8B83
	iret	
	mov	ah,E0
	mov	bh,60
	aas	
	mov	eax,[esi]
	mov	es,[edx+8B8B8BBF]
	jg	00401C3C
	int	03
	illegal	
	push	ebp
	lea	ecx,cs:[ebx+E697578B]
	push	edi
	adc	dh,bl
	fiadd	dword ptr [esi]
	outsb	
	or	dword ptr [ecx+3A8B8B90],16C1A10B
	pop	edi
	and	dh,dl
	push	edi
	and	edx,9457875F
	loop	00401B8D
	arpl	[ecx+43DB8B8B],bx
	aam	DB
	inc	ebx
	xchg	eax,edx
	xor	eax,DB8BB359
	xor	eax,57DE8299
	xchg	eax,edx
	xlat	
	add	dword ptr [edx],368B8B8C
	cmp	dword ptr [EA165F2B],E88BA5C5
	lds	ebx,[ecx+09FDE9A2]
	mov	ecx,1661E664
	jmp	far 0683:A8C7
	fiadd	word ptr [ecx+8B8B83A3]
	lds	ebx,[5F71732E]
	sbb	dh,ah
	xlat	
	push	ss
	cmpsb	
	pop	edi
	and	dh,bl
	xlat	
	push	ds
	mov	edx,2BEA088B
	sub	al,[edx+8B8B8DFC]
	pop	edi
	sbb	dh,bl
	adc	esi,F38B8B85
	jmp	00401C38
	pop	ebp
	dec	edx
	lds	ebx,edx
	illegal	
	pop	edx
	sub	ecx,[ebx+2B828E06]
	mov	ecx,[ebx+8B3B818B]
	mov	ecx,[ebx+5DE216D7]
	sbb	ebx,eax
	sub	eax,[ecx+8B8B8B1F]
	jno	00401D05
	cmpsd	
	movsd	
	mov	[esi+5D],cs
	push	ss
	xchg	[ebx],ch
	mov	eax,[esi]
	fisubr	word ptr [ebx]
	add	esp,[edx+2C]
	cmp	edi,[edx+8B84D482]
	mov	eax,[ecx+8B8B8D3D]
	and	byte ptr [ebx-2B],31
	fistp	dword ptr [eax-61]
	lea	ecx,[ebx+92165F8B]
	popa	
	push	ss
	mov	dl,5F
	push	ss
	mov	esi,8B8EB681
	mov	eax,[ecx+8B8B8EBB]
	xor	dword ptr [eax+828B8B8E],A3EACF0F
	lodsd	
	pop	ebx
	push	ss
	mov	esi,D7BA165F
	sbb	ecx,esi
	pop	edi
	and	ebp,[ebx]
	popa	
	push	ds
	scasb	
	add	[ebx],ebx
	mov	eax,[esi]
	scasb	
	mov	eax,[esi]
	mov	edx,8B841A82
	mov	ebx,[edi+16]
	mov	edx,8B847881
	mov	edx,esi
	dec	esp
	mov	eax,D7DC5F1A
	mov	al,[D4BF9AC7]
	cdq	
	call	far 1AD9:C8D3
	pop	edx
	rcr	edx,01
	push	es
	test	[edi+20A0A80D],edi
	sbb	bl,[edi-5F]
	cwde	
	loop	00401CF4
	pop	edi
	mov	esi,5F242528
	push	cs
	fiadd	word ptr [ecx+8B8B83D2]
	mov	bh,78
	pusha	
	mov	ebp,[edx+A18E165F]
	cwde	
	loop	00401D10
	pop	edi
	mov	esi,28929657
	and	eax,8B91B481
	mov	esp,ebx
	mov	edi,6E76C9DD
	mov	edi,5DEA068B
	push	ss
	fisubr	word ptr [ebx]
	pop	ebp
	push	ss
	loop	00401D80
	add	[ebx+3B2C6203],ecx
	mov	edx,8B851F82
	mov	eax,[ecx+8B8B8619]
	das	
	sub	edx,ebp
	stc	
	shl	[ebx+ebx*8+55],cl
	fist	word ptr [edx+A1308B8B]
	cwde	
	illegal	
	fisub	dword ptr [esi]
	pop	edi
	mov	esi,DA031B01
	retf	DADA
	pop	ebp
	push	ss
	fisubr	word ptr [ebx]
	and	dword ptr [078B8B8F],D9BF8F5E
	lds	ebx,[eax-70]
	sub	esp,[eax]
	iret	
	xchg	eax,edi
	fist	dword ptr [ebp+1B]
	or	dword ptr [ebx+F6145F8B],D7
	cwde	
	xor	bl,bl
	inc	ebx
	fisub	word ptr [ebx]
	pop	edi
	adc	al,EE
	xlat	
	cwde	
	cmp	edx,748B8B83
	jns	00401D3E
	sbb	bh,[edx+864A8266]
	mov	ecx,[ebx+E28E1683]
	illegal	
	illegal	
	push	esi
	xchg	eax,esp
	test	[ebx+8A068B8B],cl
	mov	eax,[esi]
	xchg	[ebx+8128B606],cl
	jpo	00401D59
	mov	ecx,[ebx+7911EAC5]
	sbb	al,D0
	push	esp
	pop	dword ptr [ebx]
	illegal	
	aaa	
	mov	dl,17

fn00401DE5()
	xor	ecx,ebx
	add	eax,edi
	xor	cl,ch
	xor	eax,edx
	add	edx,000006D6
	or	eax,esi
	neg	al
	call	004020CB
	adc	[edx+516D5F17],ebp
	dec	edi
	ror	dword ptr [edi+02F42444],01
	fisubr	word ptr [ebx]
	dec	byte ptr [ebx-0A]
	fbstp	tword ptr [edi+8A5CB751]
	sti	
	jc	00402BC0
	mov	bh,bh
	jnc	00402BC0
	and	ch,al
	sub	byte ptr [esi+33CF0B90],F0
	or	cl,bl
	add	ecx,ebx
	inc	ecx
	mov	bl,dl
	mov	esi,ecx
	jmp	00402784
	or	eax,25AE3C54
	cmp	ebp,[edx]

fn00401E40()
	sub	bh,bl
	or	bl,ch
	sub	bh,dh
	mov	bl,al
	sub	bl,al
	xor	bl,cl
	dec	ebx
	mov	bh,B2
	inc	ebx
	js	0040248D

l00401E56:
	xchg	ecx,ecx
	jns	0040248D

l00401E5E:
	inc	eax
	lock	
	aaa	
	xchg	[ebx],ebp

fn00401E62()
	sub	ebx,eax

fn00401E63()
	fadd	dword ptr [esi+2B]
	fidiv	word ptr [ebx+8ADFF66C]
	fsubr	double ptr [edx]
	fsubr	st(0),st(1)
	push	esp
	or	eax,[eax]
	add	dh,bl
00401E74             DE 2F 59 34                             ./Y4       

fn00401E78()
	lea	esp,[esp+04]

fn00401E79()
	and	al,04
	xor	eax,FFFFFEC8
	dec	esi
	dec	esi
	add	bh,dl
	sub	bl,ah
	jmp	0040294A
00401E8C                                     59 87 7B 8A             Y.{.
00401E90 E9                                              .              

fn00401E91()
	pop	dword ptr [esp-24]
	sub	edi,edx
	mov	edi,ebx
	cmp	ebx,A8CBE516
	jnz	00402839

l00401EA5:
	or	ecx,esi
	sub	bl,cl
	xor	ch,dl
	sub	edx,ebx
	or	al,cl
	call	00402AAD
	test	eax,edi
	mov	esp,39D36EBD

fn00401EBB()
	pop	dword ptr [esp-28]
	sub	ah,E4
	add	bl,ch
	add	ebx,ecx
	or	edi,esi
	mov	edi,esi
	mov	bl,bh
	mov	bh,06
	or	bl,al
	jmp	00402173
00401ED5                80 F8 33 06 A5 2E 26                  ..3...&   

fn00401EDC()
	mov	[esp],edx
	repne	
	mov	edx,edx
	pop	edx
	add	ah,dh
	add	edx,edi
	neg	al
	sub	ebx,esi
	neg	dh
	jz	004027F0
	jmp	00401EF8
	jg	00401EFA
	jnz	004027F0
	lahf	
	dec	dword ptr [edx+eax*4+8A57B2AD]

fn00401F07()
	mov	cl,dh
	xor	esi,edi
	mov	dl,ah
	sub	edx,ecx
	neg	dl
	sub	dh,bh
	or	esi,edx
	mov	[esp-08],eax
	jbe	0040233D
	mov	bh,bh
	mov	bh,bh
	ja	0040233D
	mov	dl,4A
	sbb	cl,bh
	lock	
	retf	7EDE

fn00401F31()
	dec	edi
	mov	eax,ecx
	sub	ecx,esi
	or	ch,al
	neg	bh
	or	ecx,ebx
	xor	ebx,edi
	jmp	0040260B
00401F43          CA E1 3C 98 C2 B8 60 37                   ..<...`7    

l00401F4B:
	mov	bl,C6
	neg	bl
	mov	al,ah
	sub	ebx,edi
	mov	bh,cl
	add	bl,ch
	mov	bh,C3
	xor	bl,cl
	call	00402062
	cmc	
	or	eax,[esi]
	inc	esp

fn00401F64()
	add	bl,ch
	add	ebx,edx
	or	bl,dh
	inc	ebx
	add	bh,dl
	or	ebx,edi
	mov	edi,edx
	xor	edi,eax
	add	edi,eax
	add	ebx,edi
	call	004027A6
	sub	eax,30C1EC44
	loopne	00401FF0
	jcxz	00401FB8

l00401F84:
	xor	ebx,eax
	add	bh,bl
	sub	edi,esi
	sub	ebx,ecx
	xor	bl,ch
	sub	ebx,esi
	jmp	004028D1
00401F95                E6 18 00 C1 02 D1 0B F9 8A E1 33      ..........3
00401FA0 D0 4B 0A C2 4A 2A E3 48 B6 39 0F 8A AF 05 00 00 .K..J*.H.9......
00401FB0 F3 0F 8B A8 05 00 00 80 21 7F 77                ........!.w    

fn00401FBB()
	mov	ecx,eax
	mov	cl,bl
	xor	ebx,edi
	add	dh,bh
	xor	ch,bh
	mov	edx,eax
	jbe	00402B2B

l00401FCD:
	jpe	00401FCF

l00401FCF:
	push	bx
	pop	bx
	ja	00402B2B

l00401FD9:
	int	6E
	arpl	dx,bx
	adc	dh,[ebx]
	add	edx,esp

l00401FE1:
	mov	esi,edx
	xor	edi,ebx
	inc	edi
	shr	eax,10
	xor	esi,edi
	mov	edi,eax
	mov	edi,ebx
	xor	edi,esi

l00401FF0:
	illegal	
	xchg	eax,esp
	or	eax,[eax]
	add	[ebp-13],al
	push	ecx
	wait	

fn00401FFA()
	or	bl,al
	or	eax,eax
	jnz	004022DB

l00402004:
	or	bh,bl
	or	esi,eax
	xor	bh,cl
	mov	bl,7E
	sub	bh,dl
	call	00402086
	dec	ecx
	inc	esi
	fiadd	dword ptr [edx-73]

fn00402018()
	pop	dword ptr [esp-2C]
	push	00
	add	ebx,edi
	sub	bl,ch
	xor	ch,bl
	mov	ecx,edx
	mov	dl,bl
	add	ecx,ebx
	jl	004026FE

fn00402030()
	mov	si,si
	jge	004026FE

l00402039:
	push	esp
	xchg	eax,ebx
	or	[ebx+ecx*4],edi

fn0040203D()
	mov	eax,ecx

fn0040203E()
	shl	esi,DB
	neg	bh
	neg	ah
	xor	ah,bh
	sub	eax,edx
	xor	bl,al
	pop	esi
	neg	ah
	jbe	00401F31

fn00402054()
	xchg	dl,dl
	ja	00401F31

l0040205C:
	retf	D90F
0040205F                                              57                W
00402060 65 6B                                           ek             

fn00402062()
	xchg	[esp],edx
	jmp	0040206A

l0040206A:
	mov	di,di
	pop	edx
	sub	bl,bh
	xor	edi,ecx
	add	bl,cl
	mov	bh,B6
	add	edi,esi
	mov	bh,21
	jmp	00402A2B
0040207F                                              67                g
00402080 6A 6E 9F 5C E6 B7                               jn.\..         

fn00402086()
	lea	esp,[esp+04]
	sub	bh,ah
	mov	bl,dh
	or	bl,ah
	add	esi,eax
	mov	bl,89
	mov	eax,ecx
	inc	esi
	jz	00402A63

l0040209D:
	mov	esi,esi
	xchg	eax,eax
	jnz	00402A63

l004020A7:
	test	al,3A
	or	eax,47D98BD4

l004020AB:
	mov	ebx,ecx
	inc	edi

fn004020AE()
	sub	edi,ecx
	mov	edi,ecx
	dec	edi
	xor	edi,esi
	dec	edi
	add	edi,edx
	sub	ebx,57341AEA
	sub	edi,ecx
	call	00401E91
	mov	[esi],fs
	sub	bh,ch
	sub	[eax-71],al

fn004020CB()
	pop	dword ptr [esp-24]

fn004020CC()
	inc	esp
	and	al,DC
	mov	ecx,eax
	neg	bh
	add	ah,dl
	or	ebx,edi
	neg	bl
	inc	edi
	jmp	004023DD
004020DF                                              80                .
004020E0 6F 63 DC C9 32 D6                               oc..2.         

fn004020E6()
	dec	edi
	xor	bh,ch
	or	bl,cl
	sub	edi,ecx
	or	bh,ch
	sub	ebx,eax
	not	eax
	xor	edi,edx
	mov	edi,edx
	jmp	004020FF
004020F9                            D9 BA 7F 06 9E 59             .....Y

l004020FF:
	dec	esi
	sub	bl,ah
	mov	bl,dl
	xor	edi,ecx
	add	edi,ebx
	xor	bh,ch
	neg	bh
	or	ebx,edi
	mov	bl,dl
	inc	ebx
	call	00402AD2
	add	[esi+648D07E8],ebp

fn0040211A()
	lea	esp,[esp+04]

fn0040211C()
	and	al,04
	or	bl,al
	mov	ebx,esi
	inc	edi
	or	ebx,ecx
	or	bl,bh
	mov	bl,50
	push	dword ptr [edx+08]
	call	0040272B

fn00402131()
	dec	ecx
	or	dh,dl
	lodsd	
	sub	dl,bl

fn00402137()
	mov	ecx,edi
	mov	ch,ah
	mov	ah,bl
	or	edi,edx
	mov	esi,eax
	mov	al,cl
	jl	00402324

l00402149:
	mov	di,di
	jge	00402324

l00402152:
	or	ah,dh
	cmc	
	in	eax,A7

fn00402157()
	sub	bl,bh
	add	ebx,edx
	neg	bh
	or	esi,ebx
	neg	bh
	neg	bh
	sub	esi,edx
	add	bl,dh
	xor	bh,al
	call	0040211A

fn0040216E()
	inc	edi
	out	EE,al
	cmp	eax,43DA03EC

fn00402173()
	add	ebx,edx
	inc	ebx

fn00402176()
	inc	edi
	mov	bh,dh
	or	edi,eax
	mov	ebx,eax
	ror	ah,1A
	inc	ebx
	jo	00401F64

fn00402187()
	repne	
	xchg	cl,cl
	jno	00401F64
	sbb	eax,0F05F0E5
	illegal	

fn00402197()
	xchg	[esp],edi
	jpe	0040219C

l0040219C:
	pop	edi
	sub	ah,ch
	mov	eax,esi
	or	eax,esi
	add	bl,ch
	xor	cl,ch
	call	0040274C
	pop	ebp
	dec	ebx
	mov	ecx,E202E8AC

fn004021B1()
	add	ah,dl

fn004021B3()
	xor	eax,edi
	mov	dl,7C
	add	eax,ecx
	sub	eax,edi
	sub	ah,dl
	add	bh,al
	add	edx,edi
	sub	edx,ecx
	jc	004023A0

fn004021C9()
	jbe	004021CB

l004021CB:
	xchg	al,al
	jnc	004023A0

l004021D3:
	out	76,al
	and	eax,BAB4C3FA

fn004021DA()
	sub	ebx,eax
	neg	bh
	or	bh,al
	or	bh,dh
	add	bl,ch
	xor	edi,ebx
	call	0040257E

l004021EB:
	xchg	eax,esi
	ret	8DA6
004021EF                                              38                8
004021F0 6B 14 E8                                        k..            

fn004021F3()
	add	ch,dl
	mov	ch,al
	neg	al
	mov	ch,dh
	neg	dl
	sub	esi,edi
	dec	ebx
	xor	ecx,edi
	mov	cl,bh
	call	004027D0
	imul	edi,edi,11
	nop	
	sbb	edi,edi
	pop	edx

fn00402210()
	mov	[esp],eax
	mov	ch,ch
	pop	eax
	inc	edx
	mov	bl,ah
	sub	bh,dh
	inc	ebx
	sub	bl,dl
	call	00402AF3
	jmp	0040223B
00402225                BE F4                                 ..        

fn00402227()
	lea	esp,[esp+04]
	neg	bl
	or	bh,bl
	sub	ebx,esi
	inc	esi
	sub	ebx,ecx
	add	edi,esi
	xor	edi,esi
	jl	004023B7

fn0040223B()
	add	[eax],eax
	add	[esi-75],ah
	dec	dword ptr [edi]
	lea	esi,[eax+01]
	add	[eax],al
	mov	dword ptr [ebp+59457661],8B41E60A

fn0040224D()
	or	ah,dh
	inc	ecx
	mov	ecx,eax

fn00402251()
	enter	58B1,32
	ret	DCF6
00402258                         8A E8 33 CF 0F 86 29 07         ..3...).
00402260 00 00                                           ..             

l00402262:
	xchg	ch,ch
	ja	0040298B

l0040226A:
	jc	004022CA

l0040226C:
	fsubr	dword ptr [esp+edi*4]
	in	al,41
	mov	esi,4DB3474B

fn00402272()
	dec	ebx
	inc	edi
	mov	bl,4D
	add	eax,[eax+3C]
	mov	bl,dh
	add	esi,ecx
	call	004029EF
	mov	esp,36DE980C
	sub	dword ptr [edx+2A],F9

fn00402289()
	sub	bh,cl

fn0040228B()
	mov	edi,edx
	sub	bh,cl
	add	bl,dh
	mov	bl,82
	dec	edi
	jle	00402272

fn00402296()
	repne	
	jg	00402272
	test	ecx,133637AF

fn0040229F()
	neg	dh
	sub	cl,dl
	mov	eax,edi
	add	bl,ch
	sub	eax,edi
	inc	ebx
	sub	edx,eax
	call	0040290A
	xor	[esi],ebp
	inc	ecx
	xchg	eax,esi
	xchg	[edx+8AF90AFD],cl

fn004022B6()
	mov	bh,ch
	or	bh,cl
	mov	bl,al

fn004022BB()
	fmul	dword ptr [ebx+0ADE02F7]
	fcomp	double ptr [edx-75]
	stc	
	add	bh,ch
	call	004025D2

fn004022CA()
	add	[eax],al
	mov	esp,460D2614
	out	dx,al
	and	[edi+32F02444],cl

fn004022D3()
	pop	dword ptr [esp-10]
	xor	dl,ah

fn004022D8()
	aam	0A
	illegal	

fn004022DB()
	dec	ecx
	sub	dh,bh
	dec	edx
	jmp	004021B1
004022E4             90 44 23 BC 46 45 CF CA                 .D#.FE..   

l004022EC:
	inc	edi
	neg	bh
	sub	ebx,ecx
	xor	ebx,esi
	xor	al,ch
	mov	ah,[esi]
	sub	bl,ah
	mov	ebx,edx
	dec	edi
	call	00402695
	pop	esp
	push	65CE27AB
	xchg	eax,ebp

fn00402308()
	mov	esi,ebx
	sub	edi,ecx
	dec	ebx
	sub	ebx,ecx
	mov	bh,bl
	xor	ebx,ecx
	movzx	ebx,ah
	add	edi,esi
	jmp	00401FE1
0040231D                                        53 8A E2              S..
00402320 D3 AB A7 D3                                     ....           

l00402324:
	sub	edi,eax
	push	40
	mov	dl,ah
	add	edi,ecx
	add	al,ch
	dec	eax
	add	esi,ebx
	sub	ah,ch
	dec	ecx
	call	00402BA6
	neg	dword ptr [BEB1FEAC]

fn0040233D()
	mov	cl,BE

fn0040233F()
	mov	dh,dl
	mov	edi,eax
	add	ch,bh
	mov	edi,esi
	dec	esi
	call	004025B8
	lock	
	xchg	[esi],bh
	out	dx,al
	stosd	
	adc	ecx,[edx+CF2BCF2B]
	xor	dh,dl
	xor	cl,bh
	xor	bl,dl
	add	dh,bh
	inc	ebx
	neg	ch
	jc	0040281A

fn00402369()
	jbe	0040236B

l0040236B:
	repne	
	jnc	0040281A
	push	ds
	das	
	mov	[F646ED4B],al

fn00402377()
	inc	esi
	neg	bh
	sub	bl,dh
	sub	esi,ebx
	mov	bl,82
	sub	esi,eax
	jmp	0040262C
00402387                      32 B2 B4 B6                       2...    

l0040238B:
	mov	bl,9C
	or	ch,dl
	dec	edi
	mov	al,ah
	add	ecx,esi
	xor	eax,esi
	jmp	00402471
0040239B                                  AF 1B 58 17 24            ..X.$

fn004023A0()
	shr	ecx,0F
	mov	dh,46
	xor	edx,esi
	neg	bl
	add	edi,edx
	neg	bh
	call	00401EDC
	fimul	word ptr [edi-53]
	mov	ebx,F6A4B7C7

fn004023B7()
	mov	bh,A4
	neg	bh

fn004023BA()
	fild	word ptr [ebx]
	fimul	dword ptr [ebx+32DBF6F8]
	fidiv	dword ptr [ebx]
	fisubr	word ptr [ebx]
	sti	
	dec	edi
	jl	0040245A

fn004023CE()
	rep	
	jge	0040245A
	jl	00402383
	popa	
	mov	ecx,0C358F3C

fn004023DD()
	xor	ebx,esi
	inc	ebx
	mov	ecx,esi
	mov	al,BA
	add	ecx,edi
	add	eax,edx
	jo	004026B3

l004023EE:
	jbe	004023F0

l004023F0:
	xchg	esi,esi
	jno	004026B3

l004023F8:
	cmpsd	
	cmp	dh,[esi+448F3AB8]

fn004023FD()
	pop	dword ptr [esp-10]

fn004023FF()
	and	al,F0
	sub	bl,ch
	xor	bh,ch
	sub	esi,eax
	inc	esi
	add	edi,ebx
	call	00401E78

fn0040240F()
	int	D7
	sub	al,AD

fn00402414()
	xchg	[esp],ebx
	lea	ecx,[ecx]
	mov	bl,bl
	pop	ebx
	dec	ebx
	xor	bh,dh
	or	ebx,ecx
	neg	bh
	inc	esi
	xor	esi,ebx
	js	004022B6

l0040242C:
	xchg	ch,ch
	jns	004022B6

l00402434:
	jmp	far 2430:2E6C
00402439                            E7 DF                         ..    

fn0040243B()
	pop	dword ptr [esp-30]
	xor	edi,edx
	add	edi,ecx
	mov	bh,4D
	add	ebx,edx
	or	bh,cl
	or	ebx,eax
	dec	ecx
	or	ebx,esi
	mov	edi,ebx
	call	004024EF
	pop	eax
	mov	[B72DB46C],al

fn0040245A()
	mov	bh,4D

fn0040245B()
	dec	ebp
	or	bl,ch
	add	bh,dl
	mov	bl,dl
	sub	bh,ch
	mov	edi,ebx
	dec	edi
	call	00402210

fn0040246C()
	mov	eax,[54448C44]

fn00402471()
	sub	edi,ebx
	inc	eax
	add	ebx,edx
	mov	ecx,ebx
	mov	bh,55
	mov	ecx,edi
	xor	ecx,edi
	xor	cl,dl
	neg	bl
	call	00402653
	cmpsb	
	std	
	int	E2
	mov	al,[12C4C092]

fn0040248D()
	rol	ah,12
	mov	bl,ch
	add	edi,eax
	or	edi,eax
	add	bl,ch
	or	bl,al
	dec	ebx
	mov	bl,39
	jmp	00402873
004024A2       6E A3 1F BA C7 22 49 02 E8 33 CA 8B FE B3   n...."I..3....
004024B0 BC 33 FB 47 0F 8E B0 02 00 00 E9 01 00 00 00 E3 .3.G............
004024C0 8D 12 0F 8F A2 02 00 00 4E F4 3A E7 34 53 E9 DB ........N.:.4S..

fn004024D0()
	pop	dword ptr [esp-28]
	mov	edi,esi
	or	bl,al
	mov	bh,ah
	dec	ebx
	dec	edi
	sub	bh,bl
	add	bl,cl
	xor	edi,eax
	jmp	00401F84
004024E7                      06 0D 12 5D 82 41 B3 9D           ...].A..

fn004024EF()
	lea	esp,[esp+04]
	add	edi,ecx
	xor	edi,esi
	xor	bh,al
	add	edi,eax
	mov	bl,40
	dec	ebx
	sub	bh,dl
	jc	00402891

l00402506:
	lea	eax,[eax]
	mov	eax,eax
	jnc	00402891

l00402510:
	mov	dl,F7
	arpl	ax,bx
	not	byte ptr [eax+0C]

fn00402517()
	add	bh,al
	mov	bh,dl
	or	edi,ecx
	dec	ebx
	dec	edi
	mov	bh,cl
	xor	bh,al
	neg	bl
	add	bh,dl
	add	edi,ebx
	jle	00401F4B

l0040252F:
	mov	ah,ah
	rep	
	jg	00401F4B
	and	al,FB
	shr	dword ptr [ebx+ebx*2],B0

fn0040253E()
	add	eax,ebx
	dec	eax
	sub	ebx,edx
	sub	ebx,ecx
	or	edi,ebx
	or	al,ch
	neg	al
	or	ch,ah
	jo	00401DE5

l00402553:
	repne	
	jno	00401DE5
	fld	tword ptr [edi+B7BD826A]
	inc	edi
	add	esi,eax
	xor	esi,ecx
	or	bl,dl
	mov	dl,C0
	neg	bl
	jl	00402C29
	rep	
	mov	bh,bh
	jge	00402C29
	jno	00402599
	mov	edi,24648DA8

fn0040257E()
	lea	esp,[esp+04]
	xor	edi,eax
	neg	bl
	sub	bl,ah
	sub	edi,edx
	mov	edi,esi
	sub	ebx,ecx
	call	00401EBB
	mov	[edx-52],ah
	xor	[edx+81C32AE3],cl

fn00402597()
	mov	ah,bl
	sub	al,bl
	xor	ecx,AF5DA452

l0040259C:
	illegal	
	push	edx
	movsb	
	pop	ebp
	scasd	
	or	bh,bl
	mov	ah,bl
	add	ebx,eax
	or	ebx,edi
	xor	edi,esi
	call	00402716
	sbb	ebp,ecx
	rol	byte ptr [edi],01
	mov	eax,8FABEE74

fn004025B8()
	pop	dword ptr [esp-10]
	add	edx,ecx
	or	dh,al
	mov	bh,53
	xor	esi,edi
	or	edi,ebx
	inc	edi
	jmp	00401FBB
004025CC                                     2D 97 47 2D             -.G-
004025D0 2E 19                                           ..             

fn004025D2()
	xchg	[esp],ecx
	lea	edx,[edx]
	rep	
	pop	ecx
	sub	bl,ah
	mov	bl,cl
	xor	bh,cl
	call	00401E04
	mov	bh,F3
	insd	
	cmp	[ebp+8BF83223],cl
	fsubr	dword ptr [ebx]
	fstenv	word ptr [edx]
	out	dx,al
	mov	ch,bh
	or	ch,dh
	js	004024A8
	mov	ah,ah
	jno	00402600
	jns	004024A8
	or	[ebp+4F],ecx
	pop	edi
	ror	dword ptr [ebx+2A],01

fn0040260B()
	dec	ebx
	sub	bh,bl
	xor	bl,dl
	xor	edi,ebx
	xor	ah,cl
	or	edi,ecx
	jbe	0040253E
	lea	dx,[edx]
	repne	
	ja	0040253E
	xchg	eax,esi
	adc	esp,[ecx+39]
	sbb	[esi+47],edi

l0040262C:
	inc	edi
	add	bl,bh
	or	edi,esi
	mov	bh,14
	mov	eax,[eax]
	mov	bh,35
	mov	ebx,ecx
	sub	bh,bl
	neg	bl
	jle	004028EA

l00402643:
	push	eax
	pop	eax
	push	cx
	pop	cx
	jg	004028EA

l0040264F:
	push	ecx
	mov	cl,bl
	and	cl,[ebp+81042464]

fn00402653()
	lea	esp,[esp+04]
	sub	edx,000006D6
0040265D                                        4F 32 EB              O2.
00402660 8A C4 F6 D9 43 2B FA 02 CA E9 DA 03 00 00       ....C+........ 
0040266E                                           3E D8               >.
00402670 6B 0F CC 5F                                     k.._           

l00402674:
	xor	ebx,ecx
	neg	dl
	add	ecx,ebx
	inc	edx
	inc	edx
	add	esi,ecx
	sub	dh,al
	jz	00402A7A

l00402686:
	mov	bx,bx
	jnz	00402A7A

l0040268F:
	scasb	
	xchg	eax,esi
	xor	[eax-28],al
	xchg	[si],ebx

fn00402695()
	xchg	[esp],ebx

fn00402697()
	and	al,77
	add	[ebx+2B],bl

l0040269A:
	pop	ebx
	sub	ebx,edx

fn0040269C()
	fiadd	dword ptr [edi-49]
	jmp	far DF03:FB33
004026A4             8B DA F6 DF E9 93 F7 FF FF              .........  
004026AD                                        03 7E C3              .~.
004026B0 27 EA B6                                        '..            

l004026B3:
	mov	bh,04
	mov	ch,dh
	or	ah,dl
	neg	bl
	sub	ch,bh
	xor	edi,esi
	push	edx
	xor	ebx,esi
	mov	ecx,esi
	jz	0040238B

l004026CA:
	rep	
	lea	esi,[esi]
	jnz	0040238B
	sar	dword ptr [edi],01
	xchg	eax,esi
	xor	al,[ebx]
	ret	0FB3
	xor	esi,ecx
	dec	esi
	add	edx,edi
	mov	bl,dl
	sub	bl,bh
	dec	edx
	push	dword ptr [ecx]
	jmp	00401F99
	or	byte ptr [eax+CF028228],8A
	ret	CC02
	neg	dl
	sub	ch,dh
	xor	edi,eax
	sub	cl,bl

fn004026FE()
	add	bl,ah
	mov	bh,cl
	sub	ch,ah
	or	dh,al
	dec	esi
	sub	edi,ebx
	inc	esi
	jmp	00402674
0040270F                                              08                .
00402710 51 72 DE C1 C1 C7                               Qr....         

fn00402716()
	lea	esp,[esp+04]
	mov	bh,ah
	add	al,ch
	inc	edi
	neg	ah
	dec	ebx
	call	00402833
	xchg	eax,ebx
	xor	byte ptr [ebx-2B],8D

fn0040272B()
	lea	esp,[esp+04]

fn0040272C()
	and	al,04
	mov	edi,ecx
	sub	ebx,edx
	or	bh,ch
	mov	esi,ebx
	neg	bl
	add	bl,bh
	mov	edi,ebx
	add	bl,ch
	inc	esi
	call	00402BDF

l00402745:
	into	
	jns	00402793
	add	al,89
	sub	byte ptr [ebx+D024448F],02

fn0040274C()
	pop	dword ptr [esp-30]
	add	al,bl
	ret	
00402753          02 FC 2A FC B5 C7 02 F7 0B C8 F6 DF B0    ..*..........
00402760 20 EB 8D C5 DC 09 A9 80 2B EA F6 DB 03 D8 2B D9  .......+.....+.
00402770 2B D8 2A D9 8B 02 0B F9 8B F8 E9 D5 FB FF FF AD +.*.............
00402780 2F A7 EB E1 0A CC 03 F3 0A EE B1 AC 41 49 8A FE /...........AI..
00402790 81 C2 18 00 00 00 0B F1 2A DA E9 4B FE FF FF B3 ........*..K....
004027A0 EA C4 35 32 31 4A                               ..521J         

fn004027A6()
	pop	dword ptr [esp-34]
	dec	edi
	xor	ah,A7
	mov	edi,esi
	mov	bh,dh
	dec	ebx
	xor	bh,ch
	mov	bh,DE
	inc	ebx
	or	bh,cl
	jl	00402517

l004027C0:
	jns	004027C2

l004027C2:
	jge	00402517

l004027C8:
	mov	ch,25
	lds	esp,[edi+C3C004EB]

fn004027D0()
	lea	esp,[esp+04]
	add	ebx,esi
	or	ch,bh
	sub	edi,esi
	call	004027DF

fn004027DF()
	or	edi,esi
	add	bl,ch
	mov	cl,81
	jmp	0040229F
004027EA                               82 6F 9A 1B 69 97           .o..i.
004027F0 0A DA 32 E6 C1 E1 0F 42 F6 DC B4 55 32 DF F6 D8 ..2....B...U2...
00402800 0B F0 2B F0 0F 84 CD FE FF FF F2 8A C9 0F 85 C4 ..+.............
00402810 FE FF FF 9A 32 E5 57 1E 83 3B                   ....2.W..;     

fn0040281A()
	mov	esi,edx
	add	esi,eax
	sub	bh,dh
	neg	bh
	sub	dh,bh
	add	edx,eax
	mov	ebx,esi
	call	00402018
	ja	0040285A

l0040282F:
	cmp	al,B3
	inc	ebp
	sbb	ecx,[ebp+B3042464]

fn00402833()
	lea	esp,[esp+04]
	mov	bl,97

fn00402838()
	xchg	eax,edi

fn00402839()
	or	bl,ah
	or	ah,bl
	sub	eax,edx

l0040283E:
	ret	D92B

fn0040283F()
	sub	ebx,ecx
	add	eax,edx
	xor	eax,ebx
	jpe	004022EC

l0040284B:
	mov	cl,cl
	jpo	004022EC

l00402853:
	sbb	bh,ah
	inc	ebx
	sbb	edx,[ebp-6C]

fn00402859()
	lea	esp,[esp+04]

fn0040285A()
	and	al,04
	sub	bh,ch
	or	bl,cl
	neg	bh
	or	bh,ah
	mov	bh,01
	call	00402227
	mov	[1F533787],eax
	in	al,dx
	inc	esp

fn00402873()
	mov	bh,ch
	xor	edi,ecx
	sub	bl,ah
	add	edi,esi
	sub	bh,cl
	neg	bh
	mov	bl,2B
	inc	edi
	add	ah,17
	mov	bl,7E
	jmp	004021DA
0040288C                                     3B E9 D0 D9             ;...
00402890 53                                              S              

fn00402891()
	inc	edi
	mov	ebx,ecx
	or	edi,esi
	xor	bh,al
	or	bh,ah
	sub	bl,al
	xor	edi,ebx
	jl	004020AB

l004028A4:
	jbe	004028A6

l004028A6:
	jge	004020AB

l004028AC:
	jpo	0040283E

l004028AE:
	or	al,49
	lodsb	
	sar	[edi],cl

fn004028B4()
	add	cl,al
	mov	cl,bl
	mov	edi,ebx
	neg	ch
	dec	edx
	sub	eax,esi
	add	ah,al
	inc	ecx
	add	cl,dh
	jmp	00402137
004028C9                            36 79 0D 58 71 7C 2E          6y.Xq|.
004028D0 32                                              2              

l004028D1:
	push	dword ptr [eax+10]
	mov	bh,dh
	sub	bl,cl

l004028D7:
	illegal	
	rep	
	or	ebx,eax
	xor	bl,ah
	call	00402414
	mov	edx,ECCB9A7A
	rcr	ebx,8A

l004028EA:
	mov	bl,ah
	sub	edi,ebx
	or	esi,ecx
	or	esi,edx
	xor	ebx,edi
	add	bh,al
	add	eax,ecx
	mov	bl,bh
	sub	esi,eax
	add	bl,dl
	call	004024D0
	jbe	004028D7
	lodsd	

fn00402906()
	jz	0040290A

l00402908:
	dec	eax
	scasd	

fn0040290A()
	pop	dword ptr [esp-30]
	xor	al,bh
	or	ah,cl
	inc	esi
	mov	dh,bh
	sub	cl,ch
	neg	bl
	neg	ah
	xor	ecx,edx
	pop	ecx
	call	00402C4F
	jo	00402906

l00402925:
	illegal	
	mov	bh,65

fn00402928()
	or	bh,dh
	dec	ebx
	inc	ecx
	add	esi,eax
	dec	esi
	mov	bh,ah
	add	bh,bl
	jz	00401F07

l00402939:
	lea	di,[edi]
	mov	bh,bh
	jnz	00401F07

l00402944:
	mov	ch,37
	mov	edi,8A94C597

fn0040294A()
	mov	bl,dh

fn0040294B()
	fisubr	word ptr [ebx]
	illegal	
	dec	byte ptr [esi+02]
	std	
	xor	bh,ch
	add	bh,al
	xor	bh,ah
	or	bh,cl
	or	bh,al
	jc	004020E6

fn00402963()
	xchg	dh,dh
	rep	
	jnc	004020E6
	mov	edi,2B929912
	dec	esi
	mov	dh,DC
	sub	dh,dl
	add	bh,bl
	xor	edx,edi
	add	esi,ebx
	mov	ebx,edx
	inc	ebx
	call	00402C09
	push	ebx
	push	ds
	wait	
	lahf	
	push	ecx

fn0040298B()
	mov	edi,esi
	mov	ah,C9
	sub	ah,cl
	sub	ah,ch
	xor	al,dl
	mov	ecx,AF5DA824
	neg	ah
	dec	eax
	jmp	00402B41
004029A2       DD F6 A6 F5                                 ....         

fn004029A6()
	mov	ebx,eax
	mov	esi,ecx
	dec	ebx
	add	esi,ecx
	sub	edi,ecx
	or	bh,dl
	neg	bl
	or	bh,ah
	jc	00402308

l004029BB:
	lea	eax,[eax]
	jnc	00402308

l004029C3:
	mov	ecx,[edx+7C]
	sbb	ebx,[ecx+C083DFF6]

l004029C8:
	neg	bh
	add	eax,08

fn004029CC()
	or	[edx+B3FB0BD9],cl
	retf	FE02
004029D5                32 F8 8A FD B7 AB 0F 80 96 F9 FF      2..........
004029E0 FF 66 8B DB 0F 81 8D F9 FF FF CA 4D C8 70 A8    .f.........M.p.

fn004029EF()
	pop	dword ptr [esp-20]
	add	edi,ebx
	sub	ebx,esi
	xor	bl,bh
	or	bl,ch
	inc	ebx
	xor	bh,dh
	xor	bl,ch
	sub	ebx,eax
	add	bh,bl
	jz	00402B5F

l00402A0A:
	repne	
	jnz	00402B5F
	mov	dl,9A
	lodsd	
	pop	esp
	mov	esi,2BD88BF0

fn00402A17()
	mov	ebx,eax
	sub	esi,ebx
	xor	cl,al
	xor	ecx,ebx
	mov	cl,al
	mov	edi,ecx
	mov	ah,5F
	jmp	00402A95
00402A27                      00 4A 67 D7                       .Jg.    

fn00402A2B()
	mov	bl,A6
	add	bh,dl
	sub	edi,edx
	mov	[edx],al
	xor	bl,ah
	xor	ebx,eax
	neg	bh
	xor	bl,al
	add	ebx,eax
	neg	bh
	call	00402859
	sub	bl,[ecx]
	cmc	
	aas	

fn00402A48()
	mov	cl,31
	or	bl,ch
	xor	edi,ecx
	dec	ebx
	sub	al,cl
	sub	ebx,edx
	mov	bh,ah
	sub	ecx,esi
	dec	edi
	jmp	0040224D
00402A5D                                        2F 3B D5              /;.
00402A60 F2 63 8D                                        .c.            

l00402A63:
	add	esi,edx
	inc	edi
	mov	bl,dl
	add	bl,ch
	xor	edi,ecx
	add	ebx,esi
	xor	bl,al
	jmp	00402289
00402A75                ED AA F7 81 D3                        .....     

l00402A7A:
	call	eax
	mov	bh,6C
	mov	esi,edx
	sub	ebx,ecx
	or	ebx,esi
	neg	bl
	neg	ch
	jmp	00402928
00402A8D                                        1B 96 E4              ...
00402A90 A1 02 DF A3 C2                                  .....          

fn00402A95()
	mov	esi,eax
	mov	esi,ebx
	xor	esi,eax
	sub	edx,esi
	add	bh,dh
	or	dl,cl
	sub	bh,ch
	call	00402197
	jle	00402AB8

l00402AAA:
	popa	
	mov	dl,5D

fn00402AAD()
	xchg	[esp],edi
	jnz	00402AB2

l00402AB2:
	pop	edi
	add	ch,ah
	mov	ecx,esi
	xor	dh,bh

fn00402AB8()
	div	esi
	fimul	dword ptr [edi]
	adc	byte ptr [esi-01],FF
	jmp	dword ptr [esi+56]

fn00402AC1()
	push	si
00402AC3          66 5E 0F 83 4C FF FF FF                   f^..L...    

l00402ACB:
	xchg	eax,edi
	push	eax
	fstenv	word ptr [ebx]
	rol	dh,cl
	inc	edx

fn00402AD2()
	pop	dword ptr [esp-2C]
	add	ebx,esi
	inc	edi
	neg	bh
	add	bh,ch
	sub	bl,cl
	dec	edi
	jbe	00401FFA

l00402AE6:
	xchg	ch,ch
	repne	
	ja	00401FFA
	jns	00402B41
	sbb	ebp,[ebx]

fn00402AF3()
	pop	dword ptr [esp-10]
	xor	bh,bl
	xor	ebx,eax
	dec	edi
	mov	ebx,eax
	add	bh,ch
	neg	bh
	neg	bl
	inc	edi
	mov	bh,D1
	call	0040243B
	loop	00402B12

l00402B0E:
	pop	ds
	ror	dword ptr [ebx],01

fn00402B11()
	add	eax,ebx

fn00402B12()
	ret	
00402B13          0A D9 F6 DB B3 E4 8B FE 43 0B D8 E8 DA    ........C....
00402B20 F8 FF FF 5F D2 32 1D 36 97 EA B1                ..._.2.6...    

fn00402B2B()
	or	ebx,edi
	add	ebx,esi
	add	ecx,esi
	dec	ecx
	or	ah,al
	or	ch,cl
	jmp	0040203D
00402B3B                                  6E 80 A4 7F 40            n...@
00402B40 D3                                              .              

fn00402B41()
	sub	bl,al
	add	edi,ebx
	inc	edi
	xor	al,bl
	add	al,dh
	dec	ebx
	jc	00402597

l00402B51:
	push	si
	pop	si
	jnc	00402597

l00402B5B:
	retf	
00402B5C                                     D2 78 8A                .x.

l00402B5F:
	mov	bh,C0
	add	bh,al
	xor	edi,eax
	sub	esi,ecx
	dec	edi
	lea	edx,[eax+000000F8]
	mov	ebx,eax
	or	bl,ch
	sub	esi,ecx
	xor	bh,dl
	jle	00402157

l00402B7C:
	rep	
	rep	
	jg	00402157
	pushf	
	xchg	eax,edx
	cmp	al,E3
	out	dx,al
	pop	esi

fn00402B8A()
	lea	esp,[esp+04]
	mov	esi,ebx
	sub	edi,eax
	xor	esi,eax
	add	eax,edx
	or	edi,esi
	inc	esi
	xor	edi,ecx
	jmp	00402B11
00402BA0 4E 02 08 5F 34 7C                               N.._4|         

fn00402BA6()
	pop	dword ptr [esp-2C]
	or	ebx,ecx
	dec	edx
	inc	esi
	push	00003000
	add	edx,esi
	jmp	004021F3
00402BBA                               C1 B9 5C 76 71 62           ..\vqb
00402BC0 0A DA 33 F7 43 46 8A DC 03 D1 0F 8E 58 F2 FF FF ..3.CF......X...
00402BD0 F2 0F 8F 51 F2 FF FF F5 E9 DD B4 B0 9F A3 5E    ...Q..........^

fn00402BDF()
	pop	dword ptr [esp-28]
	sub	ebx,edi
	xor	esi,edi
	lea	eax,[eax+78]
	xor	esi,ecx
	dec	edi
	inc	edi
	sub	bl,al
	jc	00401E62

l00402BF6:
	jmp	00402BFC
00402BFB                                  F9                        .   

l00402BFC:
	mov	edi,edi
	jnc	00401E62

l00402C04:
	sbb	[ecx-76],bh
	out	16,al
	lea	esp,[esp+04]
	or	edi,eax
	xor	ebx,esi
	neg	bl
	movzx	edx,al
	add	esi,edx
	mov	bl,ch
	inc	edi
	or	ebx,eax
	jmp	004029A6
00402C22       9D 09 F5 40 2F 6D 8C 58 F6 DF 0A F9 F6 DA   ...@/m.X......
00402C30 2B F3 F6 DA 33 DE B2 E5 0F 80 33 FD FF FF F2 8A +...3.....3.....
00402C40 ED 0F 81 2A FD FF FF 5A 8E D6 16 53 4F 28 2A    ...*...Z...SO(*

fn00402C4F()
	lea	esp,[esp+04]
	dec	edx
	mov	ebx,edi
	mov	edx,ecx
	sub	dh,ch
	add	bl,dh
	or	ebx,eax
	mov	edx,esi
	xor	edi,esi
	add	ebx,esi
	call	004022D3
	dec	ecx
	inc	esi
	sub	eax,94087D61
	leave	
	add	[eax],al
	add	[eax],al
	add	[eax],al
	add	[eax],al
	add	[eax],al
	add	[eax],al
	add	[eax],al
	add	[eax],al
	add	[eax],al
	add	[eax],al
	add	[eax],al
	add	[eax],al
	add	[eax],al
	add	[eax],al
	add	[eax],al
	add	[eax],al
	add	[eax],al
	add	[eax],al
	add	[eax],al
	add	[eax],al
	add	[eax],al
	add	[eax],al
	add	[eax],al
	add	[eax],al
	add	[eax],al
	add	[eax],al
	add	[eax],al
	add	[eax],al
	add	[eax],al
	add	[eax],al
	add	[eax],al
	add	[eax],al
	add	[eax],al
	add	[eax],al
	add	[eax],al
	add	[eax],al
	add	[eax],al
	add	[eax],al
	add	[eax],al
	add	[eax],al
	add	[eax],al
	add	[eax],al
	add	[eax],al
	add	[eax],al
	add	[eax],al
	add	[eax],al
	add	[eax],al
	add	[eax],al
	add	[eax],al
	add	[eax],al
	add	[eax],al
	add	[eax],al
	add	[eax],al
	add	[eax],al
	add	[eax],al
	add	[eax],al
	add	[eax],al
	add	[eax],al
	add	[eax],al
	add	[eax],al
	add	[eax],al
	add	[eax],al
	add	[eax],al
	add	[eax],al
	add	[eax],al
	add	[eax],al
	add	[eax],al
	add	[eax],al
	add	[eax],al
	add	[eax],al
	add	[eax],al
	add	[eax],al
	add	[eax],al
	add	[eax],al
	add	[eax],al
	add	[eax],al
	add	[eax],al
	add	[eax],al
	add	[eax],al
	add	[eax],al
	add	[eax],al
	add	[eax],al
	add	[eax],al
	add	[eax],al
	add	[eax],al
	add	[eax],al
	add	[eax],al
	add	[eax],al
	add	[eax],al
	add	[eax],al
	add	[eax],al
	add	[eax],al
	add	[eax],al
	add	[eax],al
	add	[eax],al
	add	[eax],al
	add	[eax],al
	add	[eax],al
	add	[eax],al
	add	[eax],al
	add	[eax],al
	add	[eax],al
	add	[eax],al
	add	[eax],al
	add	[eax],al
	add	[eax],al
	add	[eax],al
	add	[eax],al
	add	[eax],al
	add	[eax],al
	add	[eax],al
	add	[eax],al
	add	[eax],al
	add	[eax],al
	add	[eax],al
	add	[eax],al
	add	[eax],al
	add	[eax],al
	add	[eax],al
	add	[eax],al
	add	[eax],al
	add	[eax],al
	add	[eax],al
	add	[eax],al
	add	[eax],al
	add	[eax],al
	add	[eax],al
	add	[eax],al
	add	[eax],al
	add	[eax],al
	add	[eax],al
	add	[eax],al
	add	[eax],al
	add	[eax],al
	add	[eax],al
	add	[eax],al
	add	[eax],al
	add	[eax],al
	add	[eax],al
	add	[eax],al
	add	[eax],al
	add	[eax],al
	add	[eax],al
	add	[eax],al
	add	[eax],al
	add	[eax],al
	add	[eax],al
	add	[eax],al
	add	[eax],al
	add	[eax],al
	add	[eax],al
	add	[eax],al
	add	[eax],al
	add	[eax],al
	add	[eax],al
	add	[eax],al
	add	[eax],al
	add	[eax],al
	add	[eax],al
	add	[eax],al
	add	[eax],al
	add	[eax],al
	add	[eax],al
	add	[eax],al
	add	[eax],al
	add	[eax],al
	add	[eax],al
	add	[eax],al
	add	[eax],al
	add	[eax],al
	add	[eax],al
	add	[eax],al
	add	[eax],al
	add	[eax],al
	add	[eax],al
	add	[eax],al
	add	[eax],al
	add	[eax],al
	add	[eax],al
	add	[eax],al
	add	[eax],al
	add	[eax],al
	add	[eax],al
	add	[eax],al
	add	[eax],al
	add	[eax],al
	add	[eax],al
	add	[eax],al
	add	[eax],al
	add	[eax],al
	add	[eax],al
	add	[eax],al
	add	[eax],al
	add	[eax],al
	add	[eax],al
	add	[eax],al
	add	[eax],al
	add	[eax],al
	add	[eax],al
	add	[eax],al
	add	[eax],al
	add	[eax],al
	add	[eax],al
	add	[eax],al
	add	[eax],al
	add	[eax],al
	add	[eax],al
	add	[eax],al
	add	[eax],al
	add	[eax],al
	add	[eax],al
	add	[eax],al
	add	[eax],al
	add	[eax],al
	add	[eax],al
	add	[eax],al
	add	[eax],al
	add	[eax],al
	add	[eax],al
	add	[eax],al
	add	[eax],al
	add	[eax],al
	add	[eax],al
	add	[eax],al
	add	[eax],al
	add	[eax],al
	add	[eax],al
	add	[eax],al
	add	[eax],al
	add	[eax],al
	add	[eax],al
	add	[eax],al
	add	[eax],al
	add	[eax],al
	add	[eax],al
	add	[eax],al
	add	[eax],al
	add	[eax],al
	add	[eax],al
	add	[eax],al
	add	[eax],al
	add	[eax],al
	add	[eax],al
	add	[eax],al
	add	[eax],al
	add	[eax],al
	add	[eax],al
	add	[eax],al
	add	[eax],al
	add	[eax],al
	add	[eax],al
	add	[eax],al
	add	[eax],al
	add	[eax],al
	add	[eax],al
	add	[eax],al
	add	[eax],al
	add	[eax],al
	add	[eax],al
	add	[eax],al
	add	[eax],al
	add	[eax],al
	add	[eax],al
	add	[eax],al
	add	[eax],al
	add	[eax],al
	add	[eax],al
	add	[eax],al
	add	[eax],al
	add	[eax],al
	add	[eax],al
	add	[eax],al
	add	[eax],al
	add	[eax],al
	add	[eax],al
	add	[eax],al
	add	[eax],al
	add	[eax],al
	add	[eax],al
	add	[eax],al
	add	[eax],al
	add	[eax],al
	add	[eax],al
	add	[eax],al
	add	[eax],al
	add	[eax],al
	add	[eax],al
	add	[eax],al
	add	[eax],al
	add	[eax],al
	add	[eax],al
	add	[eax],al
	add	[eax],al
	add	[eax],al
	add	[eax],al
	add	[eax],al
	add	[eax],al
	add	[eax],al
	add	[eax],al
	add	[eax],al
	add	[eax],al
	add	[eax],al
	add	[eax],al
	add	[eax],al
	add	[eax],al
	add	[eax],al
	add	[eax],al
	add	[eax],al
	add	[eax],al
	add	[eax],al
	add	[eax],al
	add	[eax],al
	add	[eax],al
	add	[eax],al
	add	[eax],al
	add	[eax],al
	add	[eax],al
	add	[eax],al
	add	[eax],al
	add	[eax],al
	add	[eax],al
	add	[eax],al
	add	[eax],al
	add	[eax],al
	add	[eax],al
	add	[eax],al
	add	[eax],al
	add	[eax],al
	add	[eax],al
	add	[eax],al
	add	[eax],al
	add	[eax],al
	add	[eax],al
	add	[eax],al
	add	[eax],al
	add	[eax],al
	add	[eax],al
	add	[eax],al
	add	[eax],al
	add	[eax],al
	add	[eax],al
	add	[eax],al
	add	[eax],al
	add	[eax],al
	add	[eax],al
	add	[eax],al
	add	[eax],al
	add	[eax],al
	add	[eax],al
	add	[eax],al
	add	[eax],al
	add	[eax],al
	add	[eax],al
	add	[eax],al
	add	[eax],al
	add	[eax],al
	add	[eax],al
	add	[eax],al
	add	[eax],al
	add	[eax],al
	add	[eax],al
	add	[eax],al
	add	[eax],al
	add	[eax],al
	add	[eax],al
	add	[eax],al
	add	[eax],al
	add	[eax],al
	add	[eax],al
	add	[eax],al
	add	[eax],al
	add	[eax],al
	add	[eax],al
	add	[eax],al
	add	[eax],al
	add	[eax],al
	add	[eax],al
	add	[eax],al
	add	[eax],al
	add	[eax],al
	add	[eax],al
	add	[eax],al
	add	[eax],al
	add	[eax],al
	add	[eax],al
	add	[eax],al
	add	[eax],al
	add	[eax],al
	add	[eax],al
	add	[eax],al
	add	[eax],al
	add	[eax],al
	add	[eax],al
	add	[eax],al
	add	[eax],al
	add	[eax],al
	add	[eax],al
	add	[eax],al
	add	[eax],al
	add	[eax],al
	add	[eax],al
	add	[eax],al
	add	[eax],al
	add	[eax],al
	add	[eax],al
	add	[eax],al
	add	[eax],al
	add	[eax],al
	add	[eax],al
	add	[eax],al
	add	[eax],al
	add	[eax],al
	add	[eax],al
	add	[eax],al
	add	[eax],al
	add	[eax],al
	add	[eax],al
	add	[eax],al
	add	[eax],al
	add	[eax],al
	add	[eax],al
	add	[eax],al
	add	[eax],al
	add	[eax],al
	add	[eax],al
	add	[eax],al
	add	[eax],al
	add	[eax],al
	add	[eax],al
	add	[eax],al
	add	[eax],al
	add	[eax],al
	add	[eax],al

l00402FD2:
	add	[eax],al
	add	[eax],al
	add	[eax],al
	add	[eax],al
	add	[eax],al
	add	[eax],al
	add	[eax],al
	add	[eax],al
	add	[eax],al
	add	[eax],al
	add	[eax],al
	add	[eax],al
	add	[eax],al
	add	[eax],al
	add	[eax],al
	add	[eax],al
	add	[eax],al
	add	[eax],al
	add	[eax],al
	add	[eax],al
	add	[eax],al
	add	[eax],al
	add	[eax],al
00403000 87 27 80 C2 6C BA 11 80 FF 00 6C 76 C5          .'..l.....lv.  

l0040300D:
	add	[ecx],al
	dec	esi
	and	eax,[eax]
	add	bh,[eax-1D]
	ret	
00403016                   4C F8 81 DC D2 1D 58 10 90 00       L.....X...
00403020 F7 37 7B 72 7C B1 00 D8 56 17 DE 14 C9 69 65 00 .7{r|...V....ie.
00403030 62 00 49 EF 00 00 D8 56 FF A0 DD 04 F4 5B FF 90 b.I....V.....[..
00403040 9A C6 16 26 DC 30 00 C4 B8 FF 87 71 BD 5A 85 1E ...&.0.....q.Z..
00403050 26 E7 40 73 FF 85 C6 FE 20 DF 23 00 3E 51 1E FF &.@s.... .#.>Q..
00403060 39 6C B5 3E E0 A5 A0 B7 00 E0 02 18 D2 46 37 92 9l.>.........F7.
00403070 00 6F 0E 94 00 33 51 BF B4 00 00 32 A3 54 F6 00 .o...3Q....2.T..
00403080 49 F1 56 6B 5C 9A FF 66 EA 9C FE 09 D9 06 63 C4 I.Vk\..f......c.
00403090 12 1D 08 D9 78 BF 28 25 C1 BF 81 00 EA 31 FF A6 ....x.(%.....1..
004030A0 6C D8 44 D3 57 31 40 5D DA F5 00 F1 00 FF F8 32 l.D.W1@].......2
004030B0 3E 63 04 71 81 25 9A 00 DF C0 0C 81 21 00 9C 00 >c.q.%......!...
004030C0 F6 9A 8E 4C E9 00 CC 60 61 62 28 0E 2B 92 E5 80 ...L...`ab(.+...
004030D0 14 FF E1 00 87 E4 E6 00 FF 1E 33 C8 00 00 33 F7 ..........3...3.
004030E0 10 9F 00 4E 6E 41 FF 51 58 44 CF 46 9C 47 B6 BA ...NnA.QXD.F.G..
004030F0 6C E7 BD 12 98 B2 27 F3 0F 0F 00 50 E0 40 E6 FF l.....'....P.@..
00403100 D8 F1 FD FF FE 18 C7 FF 61 A0 65 0F A9 4E 6C FF ........a.e..Nl.
00403110 2C 9C 3A E2 E9 5A F6 0B 34 2C B9 00 E7 0F 3F 27 ,.:..Z..4,....?'
00403120 4C 00 7E 01 00 72 FF DE FF 74 00 16 00 99 00 91 L.~..r...t......
00403130 2A 46 21 6C 64 00 BB 3D D8 E4 94 43 07 13 FF FF *F!ld..=...C....
00403140 DC E0 07 C9 83 1B 00 1A 24 F4 16 EE 50 97 21 73 ........$...P.!s
00403150 F5 00 2B 2C 00 47 1C 03 00 8D CF C9 28 5A 4A A8 ..+,.G......(ZJ.
00403160 00 2F 1D 8D 24 FF E8 42 1C 31 DD D2 65 DA DF 9A ./..$..B.1..e...
00403170 CC CA 68 8E 16 27 F6 97 35 E0 00 00 A1 B1 5D A5 ..h..'..5.....].
00403180 C6 14 05 40 93 C5 16 00 00 AE BD FA 8C AF 5E A4 ...@..........^.
00403190 72 8C F8 85 64 B0 54 28 77 00 FE 79 78 9D F7 26 r...d.T(w..yx..&
004031A0 2F 5C FF F9 F3 48 38 6C D5 2D 7A B2 1E 38 FF 81 /\...H8l.-z..8..
004031B0 3C CB 26 A6 CD 21 7B 03 DD 06 51 FC A0 0D ED 00 <.&..!{...Q.....
004031C0 E9 49 F7 AC 33 0C 93 4E 77 1F 79 E9 15 A1 00 00 .I..3..Nw.y.....
004031D0 4A A0 00 21 77 19 B7 BF FF EA 1D 3D 00 00 C1 9D J..!w......=....
004031E0 7B 77 25 83 35 00 00 38 7A 8C 04 63 B4 63 53 00 {w%.5..8z..c.cS.
004031F0 74 1C 4F 49 09 75 C7 72 61 B4 00 4E 26 00 4C 66 t.OI.u.ra..N&.Lf
00403200 98 4B C8 E2 E9 E1 54 00 78 00 BF 0B 00 00 9C FF .K....T.x.......
00403210 00 00 D2 80 B6 D9 28 82 16 F4 45 6A 3C 83 3F AF ......(...Ej<.?.
00403220 07 9A 21 A9 20 D5 3F D2 BA E5 8E F0 DF 00 43 76 ..!. .?.......Cv
00403230 F4 AD F5 00 B3 C6 82 4E 00 21 00 AE FF D0 00 B2 .......N.!......
00403240 77 4C E7 FF DE 01 46 00 57 44 66 E6 2C 7E 7A 03 wL....F.WDf.,~z.
00403250 89 6E E7 03 13 C1 E2 00 B0 00 9F 00 00 9A 1A 6D .n.............m
00403260 B0 0B 0D 9F 1F 6B 00 00 09 D1 D6 D6 04 00 FF A7 .....k..........
00403270 32 4C 62 A2 3F 43 E0 6B E0 12 8F C3 B1 49 FD 3E 2Lb.?C.k.....I.>
00403280 2E FD FF 78 C9 18 31 FF 27 B9 85 B8 00 42 06 A0 ...x..1.'....B..
00403290 8C 10 FF CB E2 39 10 A6 93 BA 58 E4 00 8B BC A0 .....9....X.....
004032A0 61 74 EB 00 2E AF ED B8 61 46 0D 3E 13 2D 31 24 at......aF.>.-1$
004032B0 F5 85 B9 FF 15 67 30 74 FF 31 A0 42 BE 69 87 15 .....g0t.1.B.i..
004032C0 C2 5C 00 EE 62 8F 9A 18 00 88 C0 0A 1E 1E A9 E3 .\..b...........
004032D0 B7 1E 61 A7 16 7F 98 5A 2A EA E3 C2 00 74 F9 78 ..a....Z*....t.x
004032E0 89 49 02 78 B1 B6 DF CD 2D FF FA 39 D2 CD A3 6F .I.x....-..9...o
004032F0 4B D9 0E 97 CB 00 95 FC EC DC 64 20 0A 00 42 3D K.........d ..B=
00403300 00 34 FF 74 15 D1 03 0C 88 3F 33 0B F6 00 D9 8F .4.t.....?3.....
00403310 D0 CF B1 07 37 00 00 FF 00 00 58 1B 8B 00 17 00 ....7.....X.....
00403320 9C B4 33 00 0E 00 DC F7 B9 00 94 AB FF 3E BB 0E ..3..........>..
00403330 87 6C 11 D0 B0 46 C0 FD 00 8E 8E 3C 12 85 08 0E .l...F.....<....
00403340 38 A7 FF 00 FF 5D 00 E4 61 00 92 02 AF 7D FD 82 8....]..a....}..
00403350 79 49 00 3B D8 6C 41 D0 16 00 72 D4 4B FF 00 82 yI.;.lA...r.K...
00403360 6A 3B 39 2C 6B 07 FF FF FF F6 11 20 FC 76 2B 82 j;9,k...... .v+.
00403370 6C 52 B4 D2 FF 6A A7 A2 00 00 04 9B 14 61 31 7B lR...j.......a1{
00403380 86 F8 32 DB 91 35 EA 7E 5C 00 27 6E 1B F6 99 4E ..2..5.~\.'n...N
00403390 F9 78 D6 FC FF 95 D3 86 BD 81 1D D4 2D D5 00 5A .x..........-..Z
004033A0 79 0E 18 92 18 49 FD 27 FE 00 70 FF 0B 9E B4 91 y....I.'..p.....
004033B0 00 EC D8 7B 13 07 DF 14 C6 7B F0 7E 88 00 E2 30 ...{.....{.~...0
004033C0 1A F0 03 3A 17 82 D7 88 9C 86 3E 28 1E 00 10 61 ...:......>(...a
004033D0 92 82 02 08 1C C6 E4 48 E6 9D 3B 3D 40 40 0C 52 .......H..;=@@.R
004033E0 23 70 00 BB D6 53 1D 4D 50 9B 5A 44 83 3E C8 8F #p...S.MP.ZD.>..
004033F0 3B 95 57 05 21 C5 B5 5E 0B 74 70 BC 71 EF 38 45 ;.W.!..^.tp.q.8E
00403400 24 39 26 C9 18 2D 28 54 FF 29 2F FC 88 B9 C3 24 $9&..-(T.)/....$
00403410 58 81 88 00 FF 41 FF FA 05 86 BF 00 15 97 75 7A X....A........uz
00403420 84 FF 76 69 B7 30 E4 5F 1C 77 28 0B 82 25 66 EB ..vi.0._.w(..%f.
00403430 E7 68 12 DE 00 2F 50 00 63 02 D7 82 40 FF 08 CC .h.../P.c...@...
00403440 55 A3 4B 83 0E E1 1D 04 01 30 D3 62 37 FF 2E 00 U.K......0.b7...
00403450 04 D2 E4 06 50 83 00 E0 A7 00 0E 05 70 90 7E 33 ....P.......p.~3
00403460 3F F9 8E 86 F9 17 94 21 8F 7C 92 DF D9 2F FA 73 ?......!.|.../.s
00403470 E3 6B 00 1D 1C 19 83 70 BD F7 00 28 80 89 FA 69 .k.....p...(...i
00403480 83 58 F5 AF BF 96 0A 00 39 02 0A 7A 9F 9A 3D E9 .X......9..z..=.
00403490 FF E0 00 00 0B C3 B1 43 E1 C0 D2 00 B1 DF 92 88 .......C........
004034A0 7C 80 00 66 7E 5C 00 C3 3E 20 BB FF 68 00 BF 50 |..f~\..> ..h..P
004034B0 1C A2 A8 90 52 C8 00 B0 A5 EB E8 FE FF FE 11 02 ....R...........
004034C0 F8 06 0B E1 1C 00 6F 00 53 4B 01 A9 C2 D5 50 01 ......o.SK....P.
004034D0 12 DA 57 7E 52 A1 CE FF E1 18 5A 73 83 00 BD 00 ..W~R.....Zs....
004034E0 FD 33 00 7D 97 61 7C F9 05 00 3B 1E 41 07 56 9B .3.}.a|...;.A.V.
004034F0 41 85 96 CC 80 2E 03 0B F1 DF 15 21 B5 CD 60 E4 A..........!..`.
00403500 89 82 30 7A 2D A2 B3 00 32 E2 DC 4A 39 E6 47 33 ..0z-...2..J9.G3
00403510 B4 FF 7C E1 9C 3A A8 0F E2 21 B5 6E 24 ED 00 B4 ..|..:...!.n$...
00403520 3A C5 4F C0 00 49 70 CD 47 00 A0 74 DF C5 A8 58 :.O..Ip.G..t...X
00403530 35 2E B7 98 FD B2 76 FD 1D 83 DD 00 EC F3 14 76 5.....v........v
00403540 FF B3 4C 70 00 11 8D 08 DA EF C0 2C 26 D9 F0 F4 ..Lp.......,&...
00403550 9B 46 81 FA 03 28 CB 9F 03 72 66 45 12 A2 26 5C .F...(...rfE..&\
00403560 95 BB 67 00 8B DA 88 81 F1 19 E3 F7 26 00 3E C6 ..g.........&.>.
00403570 C7 D6 00 7F DE B8 A7 00 73 AC AB F1 76 FD AA 27 ........s...v..'
00403580 58 EC F4 00 32 8B 00 E2 FF F3 CA B3 B4 DB 00 62 X...2..........b
00403590 E1 F1 B3 63 AC B3 E3 84 8E 74 AE BB 00 FF 3B 62 ...c.....t....;b
004035A0 82 5C 34 38 54 3A 7A 30 55 00 3F 90 10 00 F2 85 .\48T:z0U.?.....
004035B0 90 CC FB 80 72 C4 00 5F E8 57 00 F0 1B ED 68 FF ....r.._.W....h.
004035C0 00 66 F1 00 60 C8 7B A1 21 02 43 FF 2A E2 C6 00 .f..`.{.!.C.*...
004035D0 B6 F4 13 00 00 F8 FF AB F6 A9 E0 FF BA 1D 54 26 ..............T&
004035E0 9E 00 2A 55 F8 71 89 F4 AA 00 6A 00 A1 C2 27 18 ..*U.q....j...'.
004035F0 F4 61 E1 20 6E C8 33 00 BF F6 83 B1 8D 9B 1D 7A .a. n.3........z
00403600 7A 36 94 77 BC FE 6E 00 23 09 00 C3 61 42 AC 58 z6.w..n.#...aB.X
00403610 03 E5 5C EC 47 F4 3C 82 98 7A FF 00 9D 91 0F 1D ..\.G.<..z......
00403620 B3 45 C4 A4 8A 97 00 80 77 9E 29 E9 A8 57 89 92 .E......w.)..W..
00403630 80 33 00 73 89 38 98 6A 0C 12 38 99 0C E3 4F 0D .3.s.8.j..8...O.
00403640 7C 7D 82 06 95 BB 3C 00 E6 7B 01 A6 04 BB 15 8F |}....<..{......
00403650 FD 00 0C 18 A6 0C 53 06 00 1A D8 7F 5F 00 00 9B ......S....._...
00403660 00 BF 0E FF 43 B0 55 00 3E 60 1C CF 78 F5 06 C6 ....C.U.>`..x...
00403670 D8 24 01 21 37 5A DA 02 93 CE 19 A3 E1 8E 00 2C .$.!7Z.........,
00403680 00 25 F2 39 77 42 96 0B 87 15 AC 48 A2 81 38 F9 .%.9wB.....H..8.
00403690 16 12 00 3A AF 3C 33 00 AF 0D F4 9D 0F 66 8D 40 ...:.<3......f.@
004036A0 71 FF 98 C1 D1 F8 EC D7 C6 F0 74 37 85 F2 F3 FB q.........t7....
004036B0 0E 6B 7D 00 00 02 54 7F B5 66 38 66 4A 6A 04 A6 .k}...T..f8fJj..
004036C0 10 B9 FA 03 FF 20 4D C0 8E 89 AE 00 32 78 74 DB ..... M.....2xt.
004036D0 DC 85 4E 88 E1 22 03 00 9E E8 2E 48 BE 77 34 AD ..N..".....H.w4.
004036E0 00 00 CF 37 6C FF F3 FF 19 00 D9 9D FD D4 FC FF ...7l...........
004036F0 03 C5 C7 34 00 31 A7 66 59 9B F9 EC FB 71 D9 B2 ...4.1.fY....q..
00403700 C4 4C 61 FD 00 00 8C AF AA B8 56 1A A2 B6 78 37 .La.......V...x7
00403710 89 4D 17 BA 08 52 31 3E 92 00 60 C2 9F E4 5E F7 .M...R1>..`...^.
00403720 D9 7E E3 83 00 6B F6 84 DF 61 78 F0 BF 89 58 63 .~...k...ax...Xc
00403730 9C FF FD 00 E0 CB 3A AD 4C 00 D5 FF 57 6F CC 6C ......:.L...Wo.l
00403740 50 E0 40 15 E6 97 49 00 A0 83 37 F3 71 DE 00 0F P.@...I...7.q...
00403750 A0 13 A0 4C 0C 36 99 A9 00 C4 83 00 C7 E0 BA 42 ...L.6.........B
00403760 D4 92 DB D3 00 00 6B 1E E3 1D 7F 00 2A 23 00 BC ......k.....*#..
00403770 00 EB E0 2B C1 D5 3E D8 3E FF 17 82 E3 E8 E7 A9 ...+..>.>.......
00403780 E0 5B 00 E4 FE 6E BF C9 97 F5 9C 28 E3 16 F6 00 .[...n.....(....
00403790 F6 20 22 00 FA 9F 00 40 4A BA 93 FF E6 FB F1 FC . "....@J.......
004037A0 BB F0 46 7D F0 C0 5C D9 00 F6 A2 00 00 03 59 5F ..F}..\.......Y_
004037B0 34 CE C5 00 46 BF BA E4 67 B8 F8 DF CA 50 14 11 4...F...g....P..
004037C0 00 75 30 42 7A 09 4D 23 88 FF 7C 8E 10 5E FF E0 .u0Bz.M#..|..^..
004037D0 D1 54 DB 87 91 00 00 A6 86 92 0A 2E 7A 46 48 FF .T..........zFH.
004037E0 00 10 7F 19 90 90 00 69 19 16 50 BD 8C 00 F3 2C .......i..P....,
004037F0 5D 1D 00 00 AF 00 F1 7B CB 17 06 76 F3 90 CD 00 ]......{...v....
00403800 44 30 D1 CF 00 5C 3A 54 16 F8 05 39 32 6C F5 CB D0...\:T...92l..
00403810 AD A9 D0 5A D6 E4 2C FF DE 12 61 0C 49 16 DA 86 ...Z..,...a.I...
00403820 1A 63 7F BB A5 5F E9 52 02 DB 98 07 BD 6C 28 30 .c..._.R.....l(0
00403830 8E 6A 00 10 03 2E BE 50 00 48 00 7D F3 0A E7 B7 .j.....P.H.}....
00403840 00 7F B8 0D E5 C7 0F 8C B1 ED 5C 8E 00 00 D9 30 ..........\....0
00403850 B3 1E B0 64 92 1F 1C 05 7F F8 81 32 B0 C0 E8 40 ...d.......2...@
00403860 95 B6 89 8D 00 67 C0 4A C1 FC 41 00 14 DC 09 AF .....g.J..A.....
00403870 50 00 13 03 98 F6 93 00 BC 04 FF 98 5A 40 FC 51 P...........Z@.Q
00403880 1D 65 07 2F 9F 2F 00 00 80 CE 77 B0 44 F5 86 5A .e././....w.D..Z
00403890 95 5E D1 1D 8E F8 8A FB 0F 1C 06 00 A1 A5 7F 98 .^..............
004038A0 FC E6 FF 82 8F 68 06 C3 FF EF D5 71 0D F1 00 DE .....h.....q....
004038B0 58 EF C4 BF C4 7B 44 3B 00 79 A7 88 9C 87 10 AB X....{D;.y......
004038C0 24 0E C6 BF A7 22 AA E8 FF DB 60 9E CF FF F2 8E $...."....`.....
004038D0 92 48 C8 00 FF DE D3 D8 61 EC 6E 62 6D FB 00 4F .H......a.nbm..O
004038E0 EF 4F 00 11 74 01 9B FF F9 A6 A0 2F 63 D5 A5 28 .O..t....../c..(
004038F0 AB B8 D6 FD 0F 00 04 F5 CB 6C 3B F5 00 1A 87 A3 .........l;.....
00403900 4B 02 DA 95 00 0E D2 6F 1A D9 FF C5 73 12 28 AD K......o....s.(.
00403910 A3 39 1E 39 9C 00 81 DB 93 67 92 B8 B0 E8 00 BC .9.9.....g......
00403920 50 69 00 B2 0E FF 84 38 98 8F 58 01 F3 84 23 C0 Pi.....8..X...#.
00403930 CD 82 0A 00 B2 6C 3B 75 90 06 F6 00 10 37 A6 B2 .....l;u.....7..
00403940 00 00 79 FF 00 95 14 BF E5 00 7A 01 ED C2 9A 93 ..y.......z.....
00403950 6A 1C 3A 56 3D 75 10 9B 0A FE 62 FF 6C B0 87 EC j.:V=u....b.l...
00403960 69 9A 16 00 B2 81 9C FF 9E 52 D2 00 B4 05 93 63 i........R.....c
00403970 3A D3 8F 28 71 00 F7 C2 00 F4 05 2A FD 00 9B EC :..(q......*....
00403980 E7 FF 91 56 63 B5 73 10 4D 19 FF FF 00 7B 22 40 ...Vc.s.M....{"@
00403990 C1 F6 4A 7F 40 AB AB BD FF 00 90 AF 3A D6 75 44 ..J.@.......:.uD
004039A0 8F 91 00 00 17 33 FF BA 00 D6 EE 29 6F FF 16 7B .....3.....)o..{
004039B0 0F B3 13 00 87 4F 67 81 52 C5 83 DB EF B7 DD 43 .....Og.R......C
004039C0 83 5C 0C 2D 77 58 13 82 81 7B D0 C7 0C AE 53 2E .\.-wX...{....S.
004039D0 FF BC C2 51 00 40 02 6A 0C 2E A1 34 A4 9E 00 20 ...Q.@.j...4... 
004039E0 00 E1 50 D5 63 C6 FF 8C 57 7A 57 FF CA 22 4B 0E ..P.c...WzW.."K.
004039F0 1F C1 A5 AA 81 BB FB BC CA 0D 6A C4 6C C3 FF 53 ..........j.l..S
00403A00 07 BC 44 D3 39 F1 09 F3 37 F0 70 00 E0 AD 63 00 ..D.9...7.p...c.
00403A10 38 43 A8 4F 03 C1 18 00 1D 23 70 FE A3 CF D9 4F 8C.O.....#p....O
00403A20 00 A5 00 E7 4F 4F FF AC FF EF C7 C4 C0 00 E2 E9 ....OO..........
00403A30 CB 8F 7C B3 28 89 00 00 B1 75 C7 2F 9C CA 2E 00 ..|.(....u./....
00403A40 FF 9E 0B A3 F9 19 94 F5 00 3A F9 60 E9 00 5F 66 .........:.`.._f
00403A50 10 24 EF BF 00 6E 0D F3 00 82 7E 43 58 A1 94 3C .$...n....~CX..<
00403A60 00 C7 00 6C 3B 61 FC 14 FB 00 74 E5 E3 1F EB 57 ...l;a....t....W
00403A70 0B 39 93 85 B4 49 F3 00 00 07 81 7F 02 28 6B 0D .9...I.......(k.
00403A80 9C 9E 24 83 E8 19 4A 9A 67 00 00 83 00 00 3C 00 ..$...J.g.....<.
00403A90 93 6E A7 CB 09 18 E5 9B 70 5C F6 1D 4E 92 DD 28 .n......p\..N..(
00403AA0 00 43 1D 63 A9 A2 13 00 47 00 FA 04 AB 64 FF 93 .C.c....G....d..
00403AB0 D2 C7 07 AB DE 2A F2 00 1A C0 A6 92 FC BD 00 57 .....*.........W
00403AC0 3E DC C8 03 FF 02 69 30 00 7C B5 CB B3 30 C2 DD >.....i0.|...0..
00403AD0 13 3C 00 00 50 3C 75 24 94 1E D2 C7 FF C8 4D BE .<..P<u$......M.
00403AE0 A1 00 C0 A0 9D D7 C7 96 FF 00 8A EE 22 00 00 DA ............"...
00403AF0 D3 CB 3D 75 47 45 C9 CA FE FF C4 4E E0 8A 7E F2 ..=uGE.....N..~.
00403B00 F8 21 54 4E CB 0A BC 12 5C D7 2F 22 71 CF E2 AF .!TN....\./"q...
00403B10 D1 7B 62 F3 1D EB FC FE 3B 67 94 62 F8 7B EA 19 .{b.....;g.b.{..
00403B20 E4 FA ED 0B 0B 0C 47 4A 17 A8 4C 02 4E 4C 44 E8 ......GJ..L.NLD.
00403B30 DF 84 77 00 B3 00 8F B6 41 39 FA 4C 0C 1C 40 8C ..w.....A9.L..@.
00403B40 4C 00 60 8C 69 37 05 D6 81 DE 63 E3 FF 70 08 FF L.`.i7....c..p..
00403B50 15 7B 27 BF 55 CC 01 40 00 FF 5C 0D 8F E6 E1 7C .{'.U..@..\....|
00403B60 55 BC C2 04 F5 35 11 E7 04 00 36 B7 74 0F 04 3C U....5....6.t..<
00403B70 05 7D 00 87 00 29 03 00 80 10 5A FF 00 F3 25 27 .}...)....Z...%'
00403B80 88 0C 46 B9 E0 C2 4C 41 E8 83 00 70 90 99 A1 13 ..F...LA...p....
00403B90 FF E1 04 27 B8 24 F3 A8 BD 40 D9 A1 85 8E 68 4D ...'.$...@....hM
00403BA0 FF 82 FF 2B BE D0 B4 EF 7E 00 11 00 4F C6 76 97 ...+....~...O.v.
00403BB0 5E 00 00 61 2E 71 FF 1D 87 C9 53 00 FE A4 55 F8 ^..a.q....S...U.
00403BC0 F5 02 4C 68 06 88 FF 20 84 99 A8 D3 73 73 3C 53 ..Lh... ....ss<S
00403BD0 A4 0A 94 13 FE 40 E6 DF FF 8C E4 D5 C8 B2 5A 76 .....@........Zv
00403BE0 00 16 4D AF 88 FA 1F C0 00 3E 00 C7 80 00 C2 FC ..M......>......
00403BF0 E9 76 60 E4 99 16 44 3F B9 FF 80 1F 6F 26 D4 17 .v`...D?....o&..
00403C00 56 F7 37 AF FA 5B B6 E1 60 35 4A D9 48 76 53 00 V.7..[..`5J.HvS.
00403C10 D9 C0 3E 2C 50 00 10 94 00 04 00 06 84 03 E0 D7 ..>,P...........
00403C20 96 0F 39 F7 E2 14 69 84 E5 9B 42 9F 00 8F 8F DC ..9...i...B.....
00403C30 30 91 9D 48 00 61 64 16 D1 51 A7 00 32 6E CE 16 0..H.ad..Q..2n..
00403C40 00 8D DA 00 68 36 D5 47 67 D9 07 66 3A 82 2D 1C ....h6.Gg..f:.-.
00403C50 A3 4A 41 88 80 06 63 F8 8E 1A 76 23 00 F2 CF 00 .JA...c...v#....
00403C60 0A 84 A9 2E 1A FA 74 C0 19 74 C1 F8 B7 00 00 79 ......t..t.....y
00403C70 E5 B6 04 BE CF 1E 00 0C 60 3E 0A 53 9C B3 0C CF ........`>.S....
00403C80 FF 68 ED 08 FF BE 28 00 37 CF CB 96 24 00 46 D1 .h....(.7...$.F.
00403C90 B1 A0 8D E7 89 47 F8 DE 77 4C 1B A1 21 70 F0 07 .....G..wL..!p..
00403CA0 91 A0 00 00 8D 50 BF 61 AA 1B 00 D9 B7 20 00 C8 .....P.a..... ..
00403CB0 46 96 9B 0D 07 F6 AF D1 90 CD 00 FC FF BE 6E 50 F.............nP
00403CC0 35 00 9B FF 4E 00 12 CF C7 32 EE 10 CD EC 94 00 5...N....2......
00403CD0 4B 98 00 3A A3 D0 5E B9 A5 FF F4 9C 13 3E B8 00 K..:..^......>..
00403CE0 D0 C0 63 1A B1 03 6D 00 8D 9B E6 C9 F2 BB 00 CF ..c...m.........
00403CF0 0F 2A 0C 3B C0 67 E9 EC 8B 00 3F 20 02 F1 B4 1B .*.;.g....? ....
00403D00 BB 18 00 0E 2C CB 1B 02 0A 25 FF 88 44 FB 00 D5 ....,....%..D...
00403D10 B0 58 ED 54 6C DF FE 00 96 D7 9D 78 4E C8 E6 1D .X.Tl......xN...
00403D20 FC A9 96 D4 A9 02 8C 55 F8 12 92 6F FF FF 30 C6 .......U...o..0.
00403D30 00 C0 63 00 B7 12 00 73 50 BC 00 68 C9 F8 00 00 ..c....sP..h....
00403D40 01 9F 26 00 3F 03 7C B7 9A AC CF 14 5A 00 0A 08 ..&.?.|.....Z...
00403D50 BA 1C 04 F6 6E CF 79 D2 00 00 3E 8E 47 FF CD E6 ....n.y...>.G...
00403D60 00 A2 30 03 30 00 FF 5E 06 8A 5D 9E A9 3E 3E 60 ..0.0..^..]..>>`
00403D70 80 A7 0C BC 79 7F 18 FF 7A EF 7D 46 8C 52 A7 F1 ....y...z.}F.R..
00403D80 BD 00 89 00 61 BB EE DE D3 04 ED 90 F6 00 00 61 ....a..........a
00403D90 6F 43 9C 1B 28 A7 39 FC AC BB 6B A8 00 A6 27 88 oC..(.9...k...'.
00403DA0 1A 49 FF 4A 1A 68 9A F8 21 4D BD 95 B7 62 EF 89 .I.J.h..!M...b..
00403DB0 C4 1A 00 C6 B1 31 CA C8 FF D8 FF 9A E4 B4 D5 9D .....1..........
00403DC0 34 DC 12 7F 18 89 10 94 00 21 00 9E 4F 64 25 64 4........!..Od%d
00403DD0 D6 9F B5 00 75 83 D2 42 6C 2A 00 F1 16 62 54 15 ....u..Bl*...bT.
00403DE0 FC 18 7F FA E0 85 0F FF 48 D1 78 C0 02 45 FF A4 ........H.x..E..
00403DF0 E6 0D BD BD B4 00 08 C1 6A 41 76 32 E9 00 43 9A ........jAv2..C.
00403E00 2C 06 79 0A 4F FC DC FD 51 91 41 6D B4 66 63 08 ,.y.O...Q.Am.fc.
00403E10 A3 00 EC 67 E3 94 85 DF 32 81 D9 00 2C F5 00 05 ...g....2...,...
00403E20 86 38 55 8C E8 00 F1 42 17 17 7F 40 FF 32 B2 31 .8U....B...@.2.1
00403E30 F4 D3 CD B6 10 0A 19 90 6E 24 00 D9 B4 DD 76 F7 ........n$....v.
00403E40 00 7E 30 C7 00 D8 DD 5C F8 05 53 FF 94 A7 E0 B8 .~0....\..S.....
00403E50 65 82 54 E7 F5 00 22 AC D1 60 74 5F C1 16 74 A8 e.T..."..`t_..t.
00403E60 4B E7 00 36 87 D8 D2 06 2B E2 00 00 11 9E 00 0D K..6....+.......
00403E70 00 81 64 F0 2F 00 CC 62 F1 00 00 FF 3F 00 68 3F ..d./..b....?.h?
00403E80 4F 00 C9 87 D9 FF 05 FB C1 CD A8 BB 3A DB BE 9F O...........:...
00403E90 54 00 4E EF 1D EB 0F E1 1B 00 A7 F0 AA DA FF ED T.N.............
00403EA0 C9 A9 99 1C 00 FF 96 63 FB BB AB 23 03 60 FE 29 .......c...#.`.)
00403EB0 05 AF 05 AB 2C 4C E0 60 07 00 7E E3 03 5B FF 8B ....,L.`..~..[..
00403EC0 90 90 7D 34 D8 B9 5D 9C 82 81 31 00 62 2A 0F 00 ..}4..]...1.b*..
00403ED0 20 43 33 00 EF 12 F7 00 2D 00 CB 8F 54 0F 71 69  C3.....-...T.qi
00403EE0 B8 22 58 20 12 DF EB BB B4 00 C3 D9 18 49 E3 FF ."X .........I..
00403EF0 75 28 1A D3 C2 87 70 FA D0 8A 18 00 E3 FF F2 E4 u(....p.........
00403F00 39 70 00 53 68 6C 31 C4 E9 98 FF B8 00 FD CA A5 9p.Shl1.........
00403F10 82 20 2E CD 81 00 50 A7 EE 31 E2 FF 00 DE 00 E1 . ....P..1......
00403F20 29 3B 00 50 25 31 36 E4 F8 C1 16 00 6E DE 7B 7D );.P%16.....n.{}
00403F30 C9 4C 20 7F FF 25 00 B4 88 F0 50 14 F8 35 5C FF .L ..%....P..5\.
00403F40 B1 EA CF CE F0 E8 7A 22 B6 DD 23 6A 90 4C F7 00 ......z"..#j.L..
00403F50 1F FF 57 0E 2B 93 8A E0 57 F2 00 F6 D7 F4 4A 3F ..W.+...W.....J?
00403F60 D4 F0 6D 33 F8 F4 4E DB E7 83 21 F8 FF 00 D8 FF ..m3..N...!.....
00403F70 2E 4D BE 23 7F 08 51 00 00 00 F9 00 C0 00 2C 18 .M.#..Q.......,.
00403F80 5E 67 49 21 C0 5A CE E1 00 35 C3 83 A6 6A EC A7 ^gI!.Z...5...j..
00403F90 E0 3A 80 03 40 31 90 ED 00 26 F5 EF 00 DE 46 CD .:..@1...&....F.
00403FA0 CF 00 B0 0E 79 A3 83 8D 0C EB A8 00 24 87 62 2C ....y.......$.b,
00403FB0 A7 FA EF C3 38 02 22 BD 00 3C 7F EC 2E 30 D8 55 ....8."..<...0.U
00403FC0 DD 21 AC 3C C2 FF A4 00 C2 34 7D 0F 38 3C 70 00 .!.<.....4}.8<p.
00403FD0 09 00 71 4E 7A 01 EE E9 A0 00 16 DA FF 07 C7 82 ..qNz...........
00403FE0 FA A5 C4 DE 00 70 E8 00 C3 E2 00 45 00 25 7D FB .....p.....E.%}.
00403FF0 40 59 FF 7F 1F F3 69 46 A8 74 56 00 5F 97 83 51 @Y....iF.tV._..Q
00404000 89 42 FF 1C A5 F0 00 F4 75 0A 8D 56 0A 00 68 71 .B......u..V..hq
00404010 7F 00 7D 61 00 00 00 C8 C2 00 4D 30 F6 20 D9 FF ..}a......M0. ..
00404020 8A FF 1C F0 C5 6E 00 26 11 9B 00 64 23 DE 00 92 .....n.&...d#...
00404030 AE 00 53 FF 3A A5 2D 18 62 26 19 CE 1E 7F 00 78 ..S.:.-.b&.....x
00404040 B5 15 54 4F 16 9D 47 DB 00 FF 5F 0E 57 B8 29 19 ..TO..G..._.W.).
00404050 13 26 0E 96 3C BD EC 0F CC 1B FF F3 E2 75 D1 00 .&..<........u..
00404060 46 6C 6F F7 D7 35 00 99 D0 60 F8 FA 13 00 FB DF Flo..5...`......
00404070 76 F5 09 C2 26 FF 5F 35 D2 74 05 82 C3 B9 00 5D v...&._5.t.....]
00404080 00 5E D8 00 04 22 88 A3 A0 00 68 F7 00 31 20 53 .^..."....h..1 S
00404090 CC 81 F6 05 00 6B C4 6F 60 00 CF 9B 00 79 90 00 .....k.o`....y..
004040A0 C0 35 00 BB E3 00 C3 FD 8B 69 D2 B8 0D 1F 5F F8 .5.......i...._.
004040B0 F6 84 D7 40 65 47 83 88 41 BF 00 00 00 6F 00 F2 ...@eG..A....o..
004040C0 BD 03 33 00 2C 07 FD 88 80 6C C9 9B 00 10 FF AB ..3.,....l......
004040D0 C2 30 6A 98 8D 00 06 4C D0 4B 00 5C B5 19 00 E1 .0j....L.K.\....
004040E0 00 00 08 60 CC 00 0B 00 B2 00 80 08 16 F7 EC 9B ...`............
004040F0 7B 64 7C C2 E4 22 D8 68 37 62 19 98 87 7D 8A 1A {d|..".h7b...}..
00404100 4C 69 E2 13 C1 0F 86 9E 24 2B 00 FB A5 58 83 03 Li......$+...X..
00404110 00 6C 4E 00 13 F2 15 FF 1F 21 00 54 14 7E 00 24 .lN......!.T.~.$
00404120 46 C5 0B CC 6D B9 5C 62 5A 65 87 78 2A 04 00 00 F...m.\bZe.x*...
00404130 82 2B 86 00 5D 60 BB 2A 7F E6 BE 3A 20 14 D7 7F .+..]`.*...: ...
00404140 C3 96 26 98 C5 FD 20 94 44 C1 E0 B7 00 97 F2 9A ..&... .D.......
00404150 00 0C FF 2C DC 97 08 2D C2 FA 02 FF 9B 00 D2 2D ...,...-.......-
00404160 73 E3 30 CA 8E 31 96 5E 04 48 00 DC 0A C0 C7 FF s.0..1.^.H......
00404170 57 1E FF D2 BA 47 7F C7 E3 4C 00 DC 00 60 30 6B W....G...L...`0k
00404180 90 7D B4 00 A4 53 0E AC AF C3 71 51 9E B4 FF 00 .}...S....qQ....
00404190 00 D1 19 C5 83 5C 2D FF CE DD FF 02 52 AA 7F D3 .....\-.....R...
004041A0 F4 28 FF BD 23 07 08 F8 6D 35 F2 21 DA 5C 22 1E .(..#...m5.!.\".
004041B0 FF 99 2E 42 A9 27 93 00 AF 79 57 8D B5 11 74 8D ...B.'...yW...t.
004041C0 00 4C 13 31 46 FF 00 FA 50 7D 91 38 00 FF C3 48 .L.1F...P}.8...H
004041D0 91 91 90 D6 BF 5D 24 4B 00 30 9D 00 5C 79 76 54 .....]$K.0..\yvT
004041E0 2D 2D 87 00 4A 7E 49 00 A0 30 5D C3 00 59 F4 EC --..J~I..0]..Y..
004041F0 69 00 05 8B 54 C2 48 52 59 19 00 FF 00 2A 1E 9E i...T.HRY....*..
00404200 40 B2 E1 CC 60 00 73 59 FF 1D AD 54 A2 23 A8 6B @...`.sY...T.#.k
00404210 9A 75 01 09 80 65 BF 8C 00 66 3D 82 FF 62 8D 26 .u...e...f=..b.&
00404220 7E B6 88 BB 23 2C FA 15 58 23 93 61 F2 FF 00 6B ~...#,..X#.a...k
00404230 27 5E 43 FF 2F 8F DF B4 81 00 2A FF 41 81 81 FF '^C./.....*.A...
00404240 8E 00 17 46 D6 47 00 65 AC 4E 48 F3 6F 00 A4 F0 ...F.G.e.NH.o...
00404250 9C 08 44 99 BC 00 C8 F6 1C 28 19 36 5C DB 91 E1 ..D......(.6\...
00404260 52 00 88 20 2E 2D 27 C0 EF CB 40 1A 00 62 FF 0D R.. .-'...@..b..
00404270 A0 3A 60 4B 61 88 FC DA FF 00 66 18 5F 7C 1A 0C .:`Ka.....f._|..
00404280 7F 0F E3 53 22 C3 00 CD FF 00 2C B6 8E B0 1B B6 ...S".....,.....
00404290 BD E0 76 61 00 7F 6E 84 00 8D C0 C5 00 00 55 FB ..va..n.......U.
004042A0 CD 12 98 77 44 E4 94 08 EF EE 2D AE DD 61 00 69 ...wD.....-..a.i
004042B0 00 09 00 5F CB E2 BA 26 0A 88 EF 76 31 19 C8 00 ..._...&...v1...
004042C0 7C 00 E3 47 CC 00 86 32 64 3D EB 40 58 FF B1 1D |..G...2d=.@X...
004042D0 65 12 C0 32 D5 63 D5 A3 F6 01 A0 D1 66 00 D2 76 e..2.c......f..v
004042E0 EC F0 E5 9C 03 2D A9 00 4D 6F 1A DD 71 9F FC 52 .....-..Mo..q..R
004042F0 64 78 01 38 0B 00 10 C1 24 13 8B C1 9D A6 F7 83 dx.8....$.......
00404300 F6 E0 00 00 FF 72 03 07 0F 3D 62 1D 53 00 00 D4 .....r...=b.S...
00404310 5B 00 02 DB 14 00 1B 00 AD 11 00 5C 02 44 78 0B [..........\.Dx.
00404320 11 1C 00 C3 2C 95 38 CF 6F C1 85 0E 07 F7 05 73 ....,.8.o......s
00404330 59 31 FF 74 F4 81 E9 12 63 27 04 7C 6F 0B 1E 10 Y1.t....c'.|o...
00404340 15 AC 00 91 78 32 16 92 04 C8 82 3E 00 A2 7A D7 ....x2.....>..z.
00404350 00 93 01 F3 8A C3 7E 83 FF F1 EE 00 E3 14 80 42 ......~........B
00404360 90 BF AA 13 2D 2E 10 B4 7E E0 35 D9 00 70 54 89 ....-...~.5..pT.
00404370 68 FA FB 24 41 32 84 E3 9D 61 40 50 A1 49 42 69 h..$A2...a@P.IBi
00404380 84 12 64 00 01 00 72 57 6C 40 00 0F 87 6E 6D 10 ..d...rWl@...nm.
00404390 09 4E 7F 56 22 9E 56 A6 24 7E 89 B7 C8 7C 78 4E .N.V".V.$~...|xN
004043A0 C4 14 00 D6 14 CE EC 97 18 5F A6 65 03 26 8E 4B ........._.e.&.K
004043B0 B5 FF FF 78 C0 FF FF 41 FF 35 00 FF 34 00 79 5E ...x...A.5..4.y^
004043C0 47 96 06 61 00 38 B9 9B 62 F9 77 50 4C 71 C1 00 G..a.8..b.wPLq..
004043D0 0C 00 D5 D8 68 79 23 FF F7 CD 85 00 37 00 B4 18 ....hy#.....7...
004043E0 6F 9D 00 C7 AC 5F AB C1 44 E8 C2 00 82 C2 FB CE o...._..D.......
004043F0 C1 55 B3 3D 0F 41 46 00 00 93 04 20 1C A5 01 00 .U.=.AF.... ....
00404400 A1 FF 00 FC 52 5D C6 FF 43 72 87 FC 77 9D 61 72 ....R]..Cr..w.ar
00404410 C0 E9 CF 80 B3 00 04 25 A1 B4 7C 74 27 1E AB FB .......%..|t'...
00404420 A3 64 9C 13 B5 B4 F1 00 24 E5 0C 82 88 FE F2 E2 .d......$.......
00404430 C6 3C FF 34 00 68 C9 AE 7E 7F EA 02 00 25 15 3C .<.4.h..~....%.<
00404440 F3 BF 00 26 0D 96 78 FA 34 38 06 6F 87 FF 33 E6 ...&..x.48.o..3.
00404450 8A 81 D0 D2 00 27 A1 50 00 AF 5D 00 40 3B 70 F7 .....'.P..].@;p.
00404460 DE 46 17 00 01 D7 95 9F 00 44 3E 16 1B 3C 0D CE .F.......D>..<..
00404470 F2 83 6B 8B FF A8 C0 50 25 50 44 4A 86 8B 40 00 ..k....P%PDJ..@.
00404480 49 00 BF C1 00 C5 52 E8 39 FF 65 FF 81 76 FF B2 I.....R.9.e..v..
00404490 F9 A0 54 59 39 00 F0 8E 0C 5C 27 80 CA 00 C7 58 ..TY9....\'....X
004044A0 00 22 00 36 8D 5C 00 D2 1A 27 29 C2 CC 40 78 06 .".6.\...')..@x.
004044B0 A7 48 18 AF 41 74 FF D4 00 9E 00 6A FC 85 2A DF .H..At.....j..*.
004044C0 CC BE 1B 00 00 0B 04 B7 ED 81 01 45 85 00 8C 00 ...........E....
004044D0 38 14 F5 62 2E 73 BA 36 08 91 00 13 61 7E 00 25 8..b.s.6....a~.%
004044E0 A2 F1 7B 3C CF 2C 95 C2 40 C8 BC 00 1F 06 7C 47 ..{<.,..@.....|G
004044F0 00 5F 8A 07 00 E1 C3 8D 73 F0 06 9B 02 3C 00 C3 ._......s....<..
00404500 EF 5C FF 66 64 38 5C 8D CD 03 04 D7 00 3B 16 00 .\.fd8\......;..
00404510 00 86 DC 15 0A 40 D5 BA 19 00 DD EB 04 00 40 FF .....@........@.
00404520 35 FA 31 6E 04 15 32 3A 12 DC 7E FA 00 21 5A CE 5.1n..2:..~..!Z.
00404530 00 95 46 26 17 F0 31 1A EF 80 DA 50 8D E0 4A D1 ..F&..1....P..J.
00404540 1D 00 BA 12 C0 00 96 08 4E C4 99 4E 4A C1 00 CA ........N..NJ...
00404550 00 49 11 21 35 00 00 0C 08 00 EA E2 24 00 17 F7 .I.!5.......$...
00404560 9B 00 07 6D 54 27 E9 C2 02 48 99 9C CD 1B B2 83 ...mT'...H......
00404570 62 81 3F 42 FF 00 18 B5 6A 14 50 BC 00 27 47 50 b.?B....j.P..'GP
00404580 00 FA B3 52 3D 00 D5 00 18 6A FF 6C 0D 47 D0 FF ...R=....j.l.G..
00404590 0F 6E FF CF 00 08 E5 CB 9E E2 00 E3 E8 B9 A9 58 .n.............X
004045A0 7C F3 00 10 1D 28 B1 00 73 BD 67 ED 41 00 50 35 |....(..s.g.A.P5
004045B0 AB 74 AD 00 EF E8 DF 59 F3 32 88 F4 7F 08 F8 F1 .t.....Y.2......
004045C0 C6 31 4D 24 BA 09 FF 81 05 D7 88 00 FF 21 76 56 .1M$.........!vV
004045D0 1E 42 85 7F 63 B0 EB F7 A0 A7 2E 00 DF A6 23 00 .B..c.........#.
004045E0 A0 40 00 D0 13 15 16 04 00 A1 94 00 9D 3B D1 56 .@...........;.V
004045F0 A3 01 8A 00 00 D5 1D 1C DE EB 80 F1 FF C5 84 D7 ................
00404600 FE D3 C1 11 35 08 0C 89 E0 2D 18 84 81 13 88 00 ....5....-......
00404610 00 11 00 00 A8 FF 1D E5 DB 00 79 2B 0A FD 68 E4 ..........y+..h.
00404620 C2 E7 4F D5 33 6D 14 E1 03 77 2E CD FF 40 36 44 ..O.3m...w...@6D
00404630 FF A0 00 C2 25 00 20 25 00 B1 FA CD 57 AA 53 4C ....%. %....W.SL
00404640 C5 80 B7 4E 59 3A DD 0B 82 5E C3 C0 00 1E 6D FF ...NY:...^....m.
00404650 E3 69 00 9D E2 6C 95 38 59 BE D8 64 FF 06 17 83 .i...l.8Y..d....
00404660 1A B4 63 A7 2B 24 00 90 53 3D 51 FF 92 FF 00 F9 ..c.+$..S=Q.....
00404670 00 86 39 D5 33 00 60 A6 8E 99 8C CD 61 C2 FC 99 ..9.3.`.....a...
00404680 CF 21 00 72 FF FF B1 51 00 9C 04 0A 60 00 49 76 .!.r...Q....`.Iv
00404690 B8 40 00 E2 8E E0 00 52 00 00 00 00 0D 1E 36 90 .@.....R......6.
004046A0 34 21 3A 1A 19 C8 00 6D CE 16 41 01 5C 00 3A 3D 4!:....m..A.\.:=
004046B0 ED 24 EF 00 00 84 1D FF 28 7F 96 F8 73 EF 4F 6E .$......(...s.On
004046C0 AF 3F 91 F9 11 D1 9B 01 85 78 4C EF 2D 0D 98 2E .?.......xL.-...
004046D0 0A 00 00 E5 89 00 22 40 25 46 6C 00 D6 E5 0A 91 ......"@%Fl.....
004046E0 4C 10 A9 53 21 52 FF DC 00 C6 C0 FF 00 DF F4 A7 L..S!R..........
004046F0 9F 8F E7 A8 C2 66 80 16 36 5D 51 16 8B 13 26 C0 .....f..6]Q...&.
00404700 8F 3D CF 88 41 BD 87 F2 F9 A2 12 5F 00 33 E0 A3 .=..A......_.3..
00404710 DE 07 09 AB D8 92 86 46 FC 05 91 4A EA CD 34 C8 .......F...J..4.
00404720 59 18 C7 9E D9 78 4D FF 82 CC 85 6F 60 79 00 00 Y....xM....o`y..
00404730 3C 00 BB 06 5E 96 00 03 7B A8 22 7F 0B D7 64 00 <...^...{."...d.
00404740 66 FF 06 FF 89 1D 91 70 BD D4 DC 17 28 38 7D FB f......p....(8}.
00404750 7E 36 4F 00 3F 6B 00 C2 3E 00 35 00 94 08 06 BC ~6O.?k..>.5.....
00404760 26 27 45 26 00 A1 E9 6D B6 BE F5 CD 63 EC E5 FA &'E&...m....c...
00404770 AF 00 82 78 A5 91 60 66 00 DA F8 D7 7D 00 B3 A1 ...x..`f....}...
00404780 3B 3C A6 7D 00 FE 7E 04 1E 14 FF E4 00 00 00 B7 ;<.}..~.........
00404790 A5 18 00 00 10 86 EE 5E 24 D0 45 46 FB F7 BA AD .......^$.EF....
004047A0 5E 00 77 78 91 A5 FF C8 15 00 01 06 E0 F0 CE 0C ^.wx............
004047B0 80 61 23 D4 E6 8F 1D 8E 96 E0 DF CD D4 00 00 DE .a#.............
004047C0 99 6D B1 7E BF FF B9 3B 48 00 26 D8 8E 15 BB 78 .m.~...;H.&....x
004047D0 9A 91 FF 95 92 06 00 02 81 00 06 6E 8D 08 50 00 ...........n..P.
004047E0 80 01 EE 5C 33 7E D1 13 DE 18 54 61 B1 00 D8 F6 ...\3~....Ta....
004047F0 A5 00 07 70 CE 43 21 4A 3E B1 F7 F5 2B B1 03 FF ...p.C!J>...+...
00404800 78 0B E0 FF 0C D0 00 00 68 7E 81 5C 06 D2 74 4B x.......h~.\..tK
00404810 61 81 E9 31 50 0C 00 DF D6 2A 75 EC E9 54 A1 00 a..1P....*u..T..
00404820 00 01 81 A8 60 FE EE 75 18 67 79 93 00 C0 00 BA ....`..u.gy.....
00404830 00 20 FF 20 F8 FF DD EA 62 45 47 FF 02 18 14 4E . . ....bEG....N
00404840 33 CF CB 01 C3 82 80 20 31 B6 DD 00 00 15 74 20 3...... 1.....t 
00404850 91 FF 2A 5E 00 39 F5 FF A2 00 E5 ED FF FF CF 00 ..*^.9..........
00404860 FD D0 A3 B1 D8 BC D4 80 81 F9 68 5B 3F 7C 9E E6 ..........h[?|..
00404870 07 6C 00 59 7F D7 EF C4 D3 00 87 FF 4D 93 E2 12 .l.Y........M...
00404880 00 85 00 19 8F A4 FC 00 96 26 FD EC CD 41 4D 00 .........&...AM.
00404890 7E 12 25 FE 54 D9 60 1F 75 18 84 7C 20 00 3C 89 ~.%.T.`.u..| .<.
004048A0 80 6E 35 AA 00 2B 0D 07 CE 51 4E 31 09 3E F1 40 .n5..+...QN1.>.@
004048B0 00 5A 6C D0 C7 BD D9 8E 00 CD A6 39 FF 00 5A 4E .Zl........9..ZN
004048C0 4D 56 00 FF 04 FF 07 00 61 DF 00 91 84 00 00 1F MV......a.......
004048D0 37 A9 8E F8 A4 00 6E 70 00 D1 20 E4 94 81 0D 1E 7.....np.. .....
004048E0 00 BD 26 C8 E2 01 F3 A8 9B 0A 00 3F 86 1E 30 00 ..&........?..0.
004048F0 FC D0 04 06 00 F8 21 FF E9 FF A6 00 B3 5B 91 B7 ......!......[..
00404900 45 49 51 00 FE 3B 6F D3 F3 AC A6 00 B5 2E B8 E1 EIQ..;o.........
00404910 63 2F 3C F8 28 18 CB 04 8F 00 A6 00 06 2E 1D BF c/<.(...........
00404920 8C 5D A7 3E 00 3F 1C 4D 15 26 9F 00 CC AB 0C EF .].>.?.M.&......
00404930 E2 5E 5D 6D 47 00 00 66 FF 05 C6 8B 1F 00 CB 5F .^]mG..f......._
00404940 52 C7 D0 D5 01 48 ED A6 25 50 31 27 49 DE 45 76 R....H..%P1'I.Ev
00404950 C1 F0 B9 53 6F E5 03 7B ED 00 73 E4 18 AE 97 73 ...So..{..s....s
00404960 45 69 2E 24 BF 00 61 C7 00 00 01 FF 42 28 CB 00 Ei.$..a.....B(..
00404970 4A E8 C0 FF C9 00 80 DD 00 54 CF DF 25 E2 02 B5 J........T..%...
00404980 E6 F3 EE EE 00 2D F8 F2 74 15 2F C4 00 22 57 BC .....-..t./.."W.
00404990 3F 33 CE BC 07 FD C2 75 7C A5 6E 00 00 D5 6F 00 ?3.....u|.n...o.
004049A0 E8 32 40 60 C3 FF DF B0 03 C6 84 A6 2D 31 FC 39 .2@`........-1.9
004049B0 00 00 01 46 65 5E DC E4 20 01 61 00 E3 74 AC 3C ...Fe^.. .a..t.<
004049C0 00 0C B9 C3 F4 7B C7 46 40 FF BF 0C 34 98 3D 02 .....{.F@...4.=.
004049D0 FA 6F EF 07 7B 00 50 00 DB D8 09 C0 FF 76 6A 1E .o..{.P......vj.
004049E0 6F B3 D2 D3 AA 82 2E 7D C1 77 FF F4 3F E9 DE B8 o......}.w..?...
004049F0 64 AB 00 D8 AC B7 FB 00 88 FA ED 82 33 00 7B C5 d...........3.{.
00404A00 74 8F 2B 00 5F E5 1E 00 FF 7A 13 CC 9A AF E3 7A t.+._....z.....z
00404A10 00 01 1B EC 68 96 00 6F 4E F6 76 B1 C3 FC AD 05 ....h..oN.v.....
00404A20 07 9D 6F C1 D1 28 00 07 24 2E AC 45 00 FC FD FD ..o..(..$..E....
00404A30 00 C3 7F 3B 00 A8 EF 5B 24 00 DE FD 4F 0F 00 1E ...;...[$...O...
00404A40 1F A9 46 80 43 17 55 E5 4F E7 5D 09 00 FD 3D FB ..F.C.U.O.]...=.
00404A50 5F 36 BB FF 28 E2 7B 00 CD 1B 85 78 D4 01 81 01 _6..(.{....x....
00404A60 3F 12 CD D0 2F 26 7E 19 FF AB 00 50 1C 16 AC C4 ?.../&~....P....
00404A70 27 28 86 EE 85 00 6C B7 EE 00 01 86 8D FF C0 83 '(....l.........
00404A80 00 D7 A1 D4 FF 99 F1 23 3E B5 36 9D AA F6 00 E0 .......#>.6.....
00404A90 26 C8 AE 01 E2 49 FF F3 61 00 3E A2 1B 86 0E 39 &....I..a.>....9
00404AA0 A8 1B 38 63 1C E7 19 40 FF C0 D8 00 34 43 02 86 ..8c...@....4C..
00404AB0 AC B7 28 01 A6 41 00 44 76 00 81 35 05 EC 24 2A ..(..A.Dv..5..$*
00404AC0 27 32 14 4C AF 28 46 FF 26 DD 06 D5 B0 5C B9 00 '2.L.(F.&....\..
00404AD0 E8 E5 21 94 8F 19 43 A2 1A 88 7B 20 C1 A5 48 D4 ..!...C...{ ..H.
00404AE0 FA 00 00 DB 44 FF 0C CD 5D 81 73 AC 00 C1 04 87 ....D...].s.....
00404AF0 73 9A 00 AC 30 02 F2 7A 25 6D FF 1A 27 36 6C 43 s...0..z%m..'6lC
00404B00 22 88 DA 8D 06 D1 F0 51 85 7C C5 86 CC 1B C5 FF "......Q.|......
00404B10 B2 92 11 6C DE 20 07 D2 00 5B 08 00 36 0F 10 40 ...l. ...[..6..@
00404B20 E3 00 00 35 B9 72 E2 B6 C9 92 E2 40 81 FF 8C 49 ...5.r.....@...I
00404B30 E4 06 FC 06 4C CC 0E C7 1A 82 00 C7 60 65 FF DC ....L.......`e..
00404B40 50 F4 20 00 84 53 1F 27 3F 58 9F 19 00 C0 75 ED P. ..S.'?X....u.
00404B50 75 AD 28 EB 6A A3 D1 A4 3A 75 FF 6C 45 AD 59 38 u.(.j...:u.lE.Y8
00404B60 97 9F 00 91 3D 41 A1 97 25 C5 5A 66 AF 72 A4 3F ....=A..%.Zf.r.?
00404B70 2D B6 75 81 25 74 74 3A 36 3E 00 A1 20 83 FD 88 -.u.%tt:6>.. ...
00404B80 4F 0F E7 2B 1C E4 C6 8B 20 D1 98 06 68 FD 56 6A O..+.... ...h.Vj
00404B90 C1 7F 83 00 A0 66 82 E8 1A 36 91 DD 50 93 AF 8C .....f...6..P...
00404BA0 00 33 9A 9F A9 AF 00 A4 7B 00 E9 00 9D 4F B9 CD .3......{....O..
00404BB0 33 D4 72 FD EF E6 B9 9E 00 A7 00 FF 03 00 5C 00 3.r...........\.
00404BC0 C4 FA E7 85 5A 8C 71 00 00 FF AC 30 73 25 19 55 ....Z.q....0s%.U
00404BD0 7D F6 00 71 31 C8 15 E8 BF A1 00 3F 10 A0 51 8E }..q1......?..Q.
00404BE0 19 0D 8C 35 F8 65 67 00 46 40 94 BF AA E6 04 80 ...5.eg.F@......
00404BF0 80 B4 B7 00 6F 36 4C 00 E9 D1 BC 32 DE 61 28 16 ....o6L....2.a(.
00404C00 00 80 12 86 E2 C8 0A CD 1F 21 62 C8 3F C0 2E 31 .........!b.?..1
00404C10 82 00 FC 06 E3 5A 2A E9 21 1C 39 74 00 93 87 A7 .....Z*.!.9t....
00404C20 A0 FE 96 71 E9 53 D1 59 97 5F 4F 4E E6 F9 12 88 ...q.S.Y._ON....
00404C30 57 83 F3 22 A6 00 FF 00 00 8C FF 84 28 B1 61 2A W.."........(.a*
00404C40 48 00 FC 00 F0 DD AE FF CD 90 2E E3 7F 64 AF A0 H............d..
00404C50 F3 7B 87 BB 85 FF 82 12 13 03 A2 A5 AB 11 FF F8 .{..............
00404C60 F3 DE 7D 00 BE CA CF F6 00 14 5F E6 CF DD 23 00 ..}......._...#.
00404C70 C3 C8 14 BF EC 3A 00 FF 00 B8 96 0B 00 E1 1B F8 .....:..........
00404C80 C9 9C 68 E4 00 3D 86 1B E5 FF 84 92 04 25 6B 1E ..h..=.......%k.
00404C90 A9 03 00 91 FF 9D E0 55 02 FB 68 00 06 B0 67 70 .......U..h...gp
00404CA0 E9 BF DE 40 A1 D8 81 EB C3 21 2D 52 00 46 DC 2A ...@.....!-R.F.*
00404CB0 00 15 0E EC 81 00 FF 7E C0 42 2C E9 00 19 AA 2F .......~.B,..../
00404CC0 00 FF A0 E7 BF 61 87 DC 6A 00 62 00 60 8A 1C 53 .....a..j.b.`..S
00404CD0 CB DD AF BD 00 D0 63 6D 1D 02 12 EF 1D 00 DB 49 ......cm.......I
00404CE0 FF 88 09 00 BC 69 00 F7 00 73 00 A1 0C C7 00 B3 .....i...s......
00404CF0 98 45 0C DD 1C AC FA FF 00 B1 BF 10 00 3A FF 48 .E...........:.H
00404D00 40 00 E4 40 09 08 EF FF 00 B3 F2 F1 69 DF 5B 63 @..@........i.[c
00404D10 00 65 25 FF 22 B6 09 2D 18 89 00 71 00 CC 17 01 .e%."..-...q....
00404D20 84 E4 70 91 B9 1D 00 20 DB 00 FC 00 EC 86 00 10 ..p.... ........
00404D30 FF EC 9F B1 00 93 64 94 45 C5 BC 2F ED 00 3C 60 ......d.E../..<`
00404D40 0E B0 FF E7 58 6B 41 A7 72 40 ED 00 00 00 C9 21 ....XkA.r@.....!
00404D50 00 FF BF 08 DA CE CE D9 E3 E3 00 E0 3D DF D0 3C ............=..<
00404D60 E1 79 31 78 FF 00 00 CC D9 7C 00 CE 08 EC E5 B2 .y1x.....|......
00404D70 82 42 14 00 4F 00 F9 23 00 00 FB B8 65 05 99 3F .B..O..#....e..?
00404D80 5C 56 8B F6 48 F1 68 0C 84 00 B4 B3 04 5E 17 9E \V..H.h......^..
00404D90 BF 41 DB FF F4 0A DE 41 19 B7 19 E1 18 27 5B 70 .A.....A.....'[p
00404DA0 FC 23 EE 8F 5B 8D 8F C7 FF 8F 61 6F 4E BC C7 D8 .#..[.....aoN...
00404DB0 41 00 00 F2 69 00 4A BF 5F 8C FF 00 F2 48 EA E0 A...i.J._....H..
00404DC0 B4 D6 61 10 E1 54 53 8A 39 D8 26 D7 50 D7 60 EB ..a..TS.9.&.P.`.
00404DD0 C6 10 54 64 8C D7 7B E3 60 D3 BD CD D6 0A 1F 0E ..Td..{.`.......
00404DE0 0A DF FF 5A ED D5 27 B2 DB B5 FB 43 EA 61 1C 48 ...Z..'....C.a.H
00404DF0 0D BB 94 75 21 6A 00 00 9D 5A 99 1F C3 5C 00 B8 ...u!j...Z...\..
00404E00 66 FC 52 00 32 00 CA 08 0A A6 7F 32 73 EF B3 9E f.R.2......2s...
00404E10 00 4D 04 3C 8A E4 B1 81 7D 0E 09 94 04 00 47 2B .M.<....}.....G+
00404E20 A0 6E 0E EF 94 1D C2 4B 23 00 87 A1 F0 97 B8 8B .n.....K#.......
00404E30 CD 99 62 49 07 6D 8C C1 20 AC 00 3C 43 0C 65 12 ..bI.m.. ..<C.e.
00404E40 D5 F2 AE 54 6F 5D 18 C2 20 FF 27 1C 02 A7 00 9B ...To].. .'.....
00404E50 F9 4F 5F 26 9B 00 83 CB 1B 86 30 8F 00 EC 22 BF .O_&......0...".
00404E60 FF 27 0E CE BA 25 EC C1 F0 00 7A 55 83 96 E9 1D .'...%....zU....
00404E70 BE 00 B4 7D FF 39 9B BC 9C 98 63 1A 1A FF 20 E6 ...}.9....c... .
00404E80 3C 1B C0 00 2C 10 13 C9 2D FF 30 4F 06 7A 70 CF <...,...-.0O.zp.
00404E90 DF 4E 67 A5 5C 00 E0 00 B2 56 8B 09 1A 05 52 8D .Ng.\....V....R.
00404EA0 0C 80 F4 11 52 10 88 C5 FD 8F 00 2D 26 E0 3A 00 ....R......-&.:.
00404EB0 83 73 E0 AD AF 1B F9 67 FE 51 50 AE 00 77 BC 00 .s.....g.QP..w..
00404EC0 32 00 2A E3 B3 8E 00 43 94 B9 FF 2E 83 2C 36 98 2.*....C.....,6.
00404ED0 3C 00 00 4B 58 49 33 00 B0 9B 4F 74 8B 0E 9F 1A <..KXI3...Ot....
00404EE0 00 91 4C 2C 00 EE 54 FF 6B 87 21 00 12 B8 40 FF ..L,..T.k.!...@.
00404EF0 E2 A3 BC 9C 88 3D 21 EF 00 0C 00 EB 58 C8 9F C1 .....=!.....X...
00404F00 9A E0 F9 4C 54 8D FD EF 00 98 F7 A7 91 64 19 9C ...LT........d..
00404F10 A5 CA 18 5E 11 D0 C0 01 43 0C 10 73 FB 0F 00 50 ...^....C..s...P
00404F20 0F 12 56 09 0E 00 60 32 38 04 FF 1A 17 F1 D1 B9 ..V...`28.......
00404F30 0A 10 7D 73 00 A3 00 D7 00 DA 8B FF 00 FF FF FE ..}s............
00404F40 00 07 A7 35 9E 50 3D 00 72 DB 47 00 26 C7 00 FF ...5.P=.r.G.&...
00404F50 00 5B AE 31 13 00 E4 B6 5C 26 46 64 C0 64 E8 C0 .[.1....\&Fd.d..
00404F60 15 4C 28 EE 76 E3 99 00 BF FC 45 93 FA 00 C5 4F .L(.v.....E....O
00404F70 73 29 95 35 E1 41 00 00 D8 CC 80 78 E2 00 00 1C s).5.A.....x....
00404F80 B2 CB 3F 77 55 70 05 BC C4 00 B5 88 8D 00 5C 72 ..?wUp........\r
00404F90 C9 89 70 00 00 F7 43 CC 00 54 45 97 83 3C 73 C5 ..p...C..TE..<s.
00404FA0 27 62 49 FF 03 00 3B C4 16 FF 71 91 DE AC 2C 1A 'bI...;...q...,.
00404FB0 DF E7 00 00 4C FF 99 DF A8 9F DE 00 3D F2 1B BE ....L.......=...
00404FC0 A3 36 9F E5 FF 01 00 73 BD 79 04 49 23 0D 00 54 .6.....s.y.I#..T
00404FD0 DF 26 5D 09 00 FF 33 AC 3B EB 3A F0 FF 00 00 E3 .&]...3.;.:.....
00404FE0 14 00 D4 70 24 10 80 86 00 80 00 BF 6A 38 F6 02 ...p$.......j8..
00404FF0 58 5A 64 71 FF BF 18 04 00 E3 99 14 1C 00 01 2E XZdq............
00405000 93 53 C0 D1 1B 00 84 70 B5 00 3D 1F F8 DC 1C 8B .S.....p..=.....
00405010 D1 00 FE 4C 05 41 00 D7 10 10 6A 53 00 26 4E 37 ...L.A....jS.&N7
00405020 FE 00 15 26 9C 41 2C 90 5B 97 6C BF 81 B7 E5 16 ...&.A,.[.l.....
00405030 D9 81 DD 13 00 51 3A C6 E7 C0 99 54 9E D8 00 D9 .....Q:....T....
00405040 18 98 F1 29 A5 15 BB D0 EF 1C 00 60 80 DC C1 89 ...).......`....
00405050 60 1C 00 28 E5 3C 4B B1 66 04 B8 35 88 67 1E 5F `..(.<K.f..5.g._
00405060 FF 3A 0A 04 BA 00 FF 00 A8 00 C5 08 4D 09 93 61 .:..........M..a
00405070 80 65 73 08 00 BE 78 5E 6C 1D 3C 1A 05 C1 05 00 .es...x^l.<.....
00405080 00 E6 00 DF 60 27 40 27 28 00 21 B4 00 00 DD 52 ....`'@'(.!....R
00405090 5D 60 28 7C 00 F7 91 CE F2 D0 4B 18 FB 92 88 70 ]`(|......K....p
004050A0 C7 2B D3 4C CF 9C D7 72 A3 D9 98 7C FF CF 5D 05 .+.L...r...|..].
004050B0 B8 C6 9C 1D 7E 16 DC 25 3D B0 F4 D1 AF 15 8C EA ....~..%=.......
004050C0 01 66 4C 19 00 D5 0B 00 10 97 49 00 51 63 9E 51 .fL.......I.Qc.Q
004050D0 56 F9 D7 C6 41 CF 55 0B E7 83 95 EC A8 9F 00 F7 V...A.U.........
004050E0 76 08 A1 03 57 4B 00 3F 34 3E FF D8 10 1F 33 FF v...WK.?4>....3.
004050F0 27 00 00 00 52 BF 00 C8 AA E1 43 A0 FF D0 71 BF '...R.....C...q.
00405100 49 D6 BC 02 44 EC 4A 00 7B A4 10 E6 74 37 F1 16 I...D.J.{...t7..
00405110 FF CC 41 EC BF 14 00 B1 E0 3F FF 77 EE 08 C4 B2 ..A......?.w....
00405120 B5 00 08 FC 84 E5 5E 00 08 7E 6A AA A3 96 F1 20 ......^..~j.... 
00405130 87 93 19 00 6D 00 A7 13 CB 00 00 79 99 71 80 BD ....m......y.q..
00405140 B1 65 51 00 00 09 FF 00 05 E5 48 17 CA B6 8E AA .eQ.......H.....
00405150 00 9E 44 00 BA 86 88 56 38 53 B4 4A EB FF C3 93 ..D....V8S.J....
00405160 00 81 F1 26 00 0C E8 FF C0 8E 95 FD A3 0D 98 28 ...&...........(
00405170 FE FF 8B 0F 80 A0 81 96 B0 57 A8 FC 8E FE 8E 52 .........W.....R
00405180 0B DA 00 83 9B 2A 80 B4 7F 00 79 0C 48 9C 7C 92 .....*....y.H.|.
00405190 ED 74 2E 82 00 C9 5A F4 DB 40 AD 00 79 07 FF 3C .t....Z..@..y..<
004051A0 9C 00 00 FB 00 7E 88 8F 54 6D FF FE CF F8 88 3B .....~..Tm.....;
004051B0 45 18 7C 0C DB 44 00 8D DC 31 0C 2A 89 BA 51 D6 E.|..D...1.*..Q.
004051C0 EB DC 46 A7 3C 73 C0 24 F6 62 80 04 F5 51 E6 C7 ..F.<s.$.b...Q..
004051D0 FF 00 56 78 22 5D 01 F1 C1 8D 00 2F 16 12 6E 65 ..Vx"]...../..ne
004051E0 74 00 5A 00 4E C0 00 46 6C CD 52 7B C7 C8 0E DA t.Z.N..Fl.R{....
004051F0 91 83 96 FF B8 79 23 48 AE 40 08 68 00 8C 71 A8 .....y#H.@.h..q.
00405200 FF 00 1B F9 00 E1 90 A4 B2 E9 1A 4E 00 76 00 C7 ...........N.v..
00405210 01 FF E6 85 99 8F C0 20 09 B1 B7 FD 3B 96 3E 3A ....... ....;.>:
00405220 FF 9F EC 9E 1C 00 38 86 EA B7 63 07 E8 42 DC DA ......8...c..B..
00405230 C5 62 66 7D E4 B9 DA 90 08 FF 62 01 97 42 EA 14 .bf}......b..B..
00405240 1C DF FE EA 17 B0 06 2B FF 87 00 00 82 38 67 32 .......+.....8g2
00405250 F7 2A 25 7F 30 24 40 FF BA 5F F8 75 FD A2 2A 13 .*%.0$@.._.u..*.
00405260 FA 90 00 1C DE 00 3E 4F 48 CB 4B 50 F1 C4 11 0C ......>OH.KP....
00405270 98 73 D8 90 95 8D E4 BE 06 81 C2 EF D5 80 82 A1 .s..............
00405280 DE C8 60 9E C2 FF BF FF 35 AD 5E 00 47 FF 2B C0 ..`.....5.^.G.+.
00405290 B2 39 FE 33 D0 FF DE 13 E0 10 00 AB 01 EB 79 75 .9.3..........yu
004052A0 D2 36 00 4E 01 BF 0A 91 E2 1D 2E 08 00 48 8F CB .6.N.........H..
004052B0 F5 D9 94 00 8D BA 01 44 29 0B 88 62 65 1C FF 08 .......D)..be...
004052C0 9F 9E 44 35 00 00 FD 82 C9 04 00 79 C7 82 11 BF ..D5.......y....
004052D0 00 7F 25 00 00 FF 5C 4F 88 CF 7F 70 C1 CB 60 ED ..%...\O...p..`.
004052E0 95 DF AA 11 B7 8F 6C 82 6F 78 3D 24 6D E2 11 DF ......l.ox=$m...
004052F0 FF 1A 05 40 29 36 ED C9 A4 00 00 79 88 AB 51 50 ...@)6.....y..QP
00405300 00 A5 00 08 4A 0C 4C 5C 00 5E A4 14 AB 66 00 89 ....J.L\.^...f..
00405310 66 83 97 5D C2 B4 F0 4A 58 E1 20 A7 CE B0 12 7D f..]...JX. ....}
00405320 10 DB F3 DB 00 00 11 70 58 E9 AD 89 FF FF 3C C8 .......pX.....<.
00405330 6B 0C 81 66 CB 0E 9E 10 69 78 27 E2 A6 FF 19 91 k..f....ix'.....
00405340 61 75 2A FF C2 A4 00 75 FF 94 20 F7 01 9E 42 6C au*....u.. ...Bl
00405350 3F D1 02 E0 80 06 F6 DD EB B8 DD 7F 6F 02 81 66 ?...........o..f
00405360 BD 20 B5 23 8E 3D 73 21 00 00 EF 00 00 00 F0 E2 . .#.=s!........
00405370 5C FC 5D 57 00 07 74 35 22 52 4F 25 34 44 95 0D \.]W..t5"RO%4D..
00405380 CD 19 C3 2B 48 B0 C4 EC 9F E1 65 62 00 B0 C1 AF ...+H.....eb....
00405390 A0 95 00 0E 21 4D 4D C1 00 FF B6 E0 00 40 2A D5 ....!MM......@*.
004053A0 00 D1 FF E1 9C C9 06 8C 50 68 0D DE 00 FF 88 C4 ........Ph......
004053B0 79 C5 FF 5E B2 FF 52 35 53 FF 68 BE 5D 6A FF 29 y..^..R5S.h.]j.)
004053C0 7F A0 2D E1 57 FF CA 9C F6 71 B3 74 EB 08 FF 00 ..-.W....q.t....
004053D0 22 68 81 66 1E 4E 30 01 25 00 47 FF FC 63 47 E4 "h.f.N0.%.G..cG.
004053E0 02 BF 00 F2 45 DD 00 7F 2D 1E A3 05 68 16 49 58 ....E...-...h.IX
004053F0 17 D8 FE DD EC 05 FD 18 BF 2B E1 3E 00 00 00 00 .........+.>....
00405400 96 C9 FF 04 00 60 54 A2 F8 5E F7 76 45 50 00 4B .....`T..^.vEP.K
00405410 8D 00 C2 CC D5 CC 0E 8F CE 49 0A 27 00 51 00 D6 .........I.'.Q..
00405420 75 B7 8F 40 10 E0 6D FF 57 00 AC FF 47 54 28 00 u..@..m.W...GT(.
00405430 24 E8 FF 68 6B E3 BF CB E7 FB 9E 1C CE 8E 00 D0 $..hk...........
00405440 06 9C F1 0D 98 21 BA 49 E7 7A 00 00 A5 90 62 E1 .....!.I.z....b.
00405450 FF 7F D2 01 83 20 B4 FD 5A 77 CE 3D A7 6E 59 F7 ..... ..Zw.=.nY.
00405460 00 6F 00 00 9C 8B 00 FF 75 3E 54 38 69 80 FF D8 .o......u>T8i...
00405470 7D 3A 97 83 52 74 4E 94 00 00 0A 9C D5 BA FF 65 }:..RtN........e
00405480 29 90 F2 46 70 16 83 00 8C F7 4C 15 C6 83 15 28 )..Fp.....L....(
00405490 F8 60 36 00 46 CD 61 DC C7 91 00 A8 91 61 FE 51 .`6.F.a......a.Q
004054A0 68 66 A0 0C A3 C7 FF 00 FC 10 FF 91 7A B4 A2 8A hf..........z...
004054B0 0C E5 07 00 D5 67 69 F6 32 B9 60 7A 15 E7 22 BA .....gi.2.`z..".
004054C0 FF B0 1E 65 8D C0 35 00 6D A5 00 76 71 3C 00 00 ...e..5.m..vq<..
004054D0 48 B0 72 74 DC 83 ED 00 E1 22 12 FF A4 C1 00 B1 H.rt....."......
004054E0 00 08 35 8A 81 30 47 95 53 99 0F 96 D7 60 FF 00 ..5..0G.S....`..
004054F0 C0 77 5D 00 7B B3 00 7B C9 A8 96 BA 00 ED CE 00 .w].{..{........
00405500 87 F5 3F 7B 96 05 5C 21 D2 3A 78 C5 B4 1B 00 00 ..?{..\!.:x.....
00405510 00 76 38 55 FF 00 A8 00 49 39 0B 37 FF 3C 73 FA .v8U....I9.7.<s.
00405520 9B A5 71 72 E9 01 DB 8B 00 00 00 94 00 5C 00 20 ..qr.........\. 
00405530 4E 90 D5 9E 8E BD A3 00 74 F3 0C 48 27 E3 CD 5B N.......t..H'..[
00405540 F4 48 D6 38 42 31 77 D3 88 31 98 00 8B 8C 8B 73 .H.8B1w..1.....s
00405550 8D 00 F9 E4 ED A0 C0 00 8A FF 38 83 14 21 BD B3 ..........8..!..
00405560 61 08 DC 00 0C 00 22 19 F0 03 57 44 8C D4 41 89 a....."...WD..A.
00405570 25 E8 6A 4A C7 20 A3 F3 A9 64 D7 18 27 00 62 FF %.jJ. ...d..'.b.
00405580 91 00 FD 47 E5 84 0B A4 00 00 33 15 00 1C FF D2 ...G......3.....
00405590 0C 33 5F C7 00 67 29 00 3B 8E 5B 36 C9 F2 00 79 .3_..g).;.[6...y
004055A0 00 63 F1 00 00 00 FA 51 D9 5C DB 3E 08 4F 02 65 .c.....Q.\.>.O.e
004055B0 FF 09 00 1B BD 10 2A 23 F4 45 FA B7 35 1B 1C 7F ......*#.E..5...
004055C0 00 0E 43 00 8B B9 56 00 65 CA C1 60 00 A8 F8 00 ..C...V.e..`....
004055D0 65 A3 FF 35 FF 02 19 8F A3 80 F0 FF 00 41 08 DE e..5.........A..
004055E0 80 E6 F3 C3 4A 88 5E 00 CC DC 89 0D 48 AB 00 35 ....J.^.....H..5
004055F0 54 00 8D 3C C3 CF 38 FF 7A DF E4 1B C4 AA 4D EF T..<..8.z.....M.
00405600 EC 07 00 48 A0 35 B5 29 BF A8 AF 3B 00 1B D9 8D ...H.5.)...;....
00405610 22 E3 5B 5D 2B 9B 6C 97 D0 77 57 20 55 98 6D B7 ".[]+.l..wW U.m.
00405620 FF 00 39 32 E2 FF 13 1F 83 00 00 85 F7 45 D8 5A ..92.........E.Z
00405630 7A 4E 16 61 AF 9A 20 48 6B 78 E3 64 AB 0E 00 00 zN.a.. Hkx.d....
00405640 00 C5 00 29 56 BD DD 5C 00 00 B6 CF 26 88 88 36 ...)V..\....&..6
00405650 28 00 9C 4C 00 DC 00 45 22 83 F9 63 77 B8 37 AB (..L...E"..cw.7.
00405660 F8 00 64 2A D6 B6 AC E0 F1 72 1A 16 C2 16 39 67 ..d*.....r....9g
00405670 9C 89 1A B9 A0 E3 8E 32 D4 D5 16 7B F1 56 43 DE .......2...{.VC.
00405680 3B FB 1E 9A E7 74 8C 00 00 24 DF 07 A7 02 00 01 ;....t...$......
00405690 D9 D8 56 0F 52 9B FF 20 E0 6E 4B DC 06 95 40 2C ..V.R.. .nK...@,
004056A0 81 17 17 02 A6 6C C1 F6 8E 10 27 FF 00 09 C6 15 .....l....'.....
004056B0 54 00 F6 C3 7E F5 00 00 FE 00 80 FF BD 4E B0 08 T...~........N..
004056C0 C1 0C 80 57 00 9E F8 00 3B 70 47 FE 03 00 5C E3 ...W....;pG...\.
004056D0 89 B5 83 98 E4 73 84 CC 73 00 B1 B6 66 A2 58 50 .....s..s...f.XP
004056E0 C1 78 F1 66 5D 18 34 98 FF F7 7F 00 C3 7E A4 FF .x.f].4......~..
004056F0 13 96 B8 CC 46 3E 73 00 30 FF 18 F4 09 6F F0 86 ....F>s.0....o..
00405700 3A 98 B4 B9 41 1D 28 8B 7F 00 AA 90 80 10 6F 42 :...A.(.......oB
00405710 00 79 3E C7 C9 5D 83 00 01 00 3E 6A 9D 70 20 00 .y>..]....>j.p .
00405720 8B 22 C1 00 9C 10 7D E4 FF 2E 8F EC D7 48 40 00 ."....}......H@.
00405730 AD FD 38 22 AE C0 10 1B 34 B0 9E 1F 38 C2 00 D0 ..8"....4...8...
00405740 58 97 45 E1 06 FF 7F FD 00 FF FB A8 FF 77 22 32 X.E..........w"2
00405750 BF E7 00 87 74 BA 00 E9 72 A6 00 B4 BF FF 8D 10 ....t...r.......
00405760 8F 00 0F E1 38 E3 0E 16 00 F6 E2 6F B4 C9 E3 5D ....8......o...]
00405770 00 A8 00 E9 BF 3D E6 06 E5 6C 80 34 72 55 33 36 .....=...l.4rU36
00405780 B5 8A 6E E4 DA 97 70 B3 16 2C 03 00 1E 17 7B 00 ..n...p..,....{.
00405790 50 7D C3 26 EF 80 DC 60 A3 00 B1 FA 00 D0 E5 00 P}.&...`........
004057A0 00 D3 00 04 7B 00 F6 A1 35 FF 71 2D 76 00 50 5F ....{...5.q-v.P_
004057B0 20 7C C5 FC 64 A5 3A 16 E2 08 B4 D7 00 11 56 00  |..d.:.......V.
004057C0 C5 F9 FE 49 A0 9E 00 A2 00 D1 32 8D 83 BF 31 00 ...I......2...1.
004057D0 1C 29 83 FF 39 4A 23 00 FC 6A FF 40 82 FF FF 79 .)..9J#..j.@...y
004057E0 45 6B 10 69 21 83 70 0E 00 63 00 FF 77 4E 83 D6 Ek.i!.p..c..wN..
004057F0 68 EE EF FF B0 27 00 CB CC 33 E1 82 0A 01 D2 30 h....'...3.....0
00405800 D5 56 DD C0 EC B6 D8 A4 21 91 9B 21 BE 08 0E 00 .V......!..!....
00405810 6F 37 D2 44 A3 8C 00 58 00 C8 2C 67 05 0E 4A DE o7.D...X..,g..J.
00405820 61 0E A0 10 E6 5E ED 13 42 72 18 80 F3 BE D8 45 a....^..Br.....E
00405830 A0 EA 85 10 00 DB B1 00 00 AC 00 BE 62 AD 00 1D ............b...
00405840 5C 98 B6 F8 CF CB C3 77 E0 00 40 61 00 76 30 92 \......w..@a.v0.
00405850 99 87 00 4D 12 FF 96 00 40 41 34 CA 6E 65 00 FF ...M....@A4.ne..
00405860 87 F9 B4 2B 0D E9 00 42 6C 00 7D FD F9 6A FF E0 ...+...Bl.}..j..
00405870 99 C1 00 00 A2 E7 28 38 93 B8 FF 5F B7 CB 62 00 ......(8..._..b.
00405880 28 C7 00 2C 63 89 D0 38 FB 8C B6 17 C8 00 B1 76 (..,c..8.......v
00405890 FF D8 3F 45 FF 00 3D 0C 00 ED 86 B6 20 0C BE 46 ..?E..=..... ..F
004058A0 5B 00 00 F2 69 9D 00 E4 99 9E 8A 49 80 33 85 1E [...i......I.3..
004058B0 00 3C 00 CC 00 DA 4A 08 E4 E4 FF 7B 30 26 4F EF .<....J....{0&O.
004058C0 85 C2 E6 A6 FF BB 37 C7 AE C7 26 BB D1 DC 63 D2 ......7...&...c.
004058D0 4B 00 00 F8 61 83 8A F0 C6 17 8B 32 00 37 41 DF K...a......2.7A.
004058E0 F6 FF 51 83 7C 18 85 0E 1F 91 3E 19 B3 00 7B E2 ..Q.|.....>...{.
004058F0 D1 E7 48 00 0C D0 00 00 D3 10 DC 7C D2 1E 08 DF ..H........|....
00405900 81 89 10 94 9E 78 97 40 A0 4B 95 00 11 66 00 B3 .....x.@.K...f..
00405910 A4 63 A6 A5 8E CD 00 91 E7 81 7F 2F 64 3E 66 36 .c........./d>f6
00405920 87 04 00 2D 42 36 B0 68 A9 36 7C D4 8E BF D7 8A ...-B6.h.6|.....
00405930 00 AC B6 A3 FE 00 6B E7 5B 01 2E E1 A7 F1 98 A8 ......k.[.......
00405940 C2 D4 FF 6E 90 0A 98 F3 D2 D6 A3 FF 77 21 B5 20 ...n........w!. 
00405950 E0 47 00 53 6C C1 C3 10 D3 00 DA 4B 70 41 6F FF .G.Sl......KpAo.
00405960 D5 C9 69 0F 88 6A A2 1A 00 28 5B 00 00 FF 6E B7 ..i..j...([...n.
00405970 FF 9E 7B 9A FF 26 0D 63 8D 39 9E 72 54 28 89 00 ..{..&.c.9.rT(..
00405980 71 8C DE C1 AB C4 A7 DE 3B EF 00 A3 C3 79 CD 51 q.......;....y.Q
00405990 10 C7 B2 FA C0 2D 58 34 7C 23 00 00 FF 0C 00 00 .....-X4|#......
004059A0 5A BF 00 78 F0 68 B3 15 86 ED 20 76 FF 00 FF 9E Z..x.h.... v....
004059B0 7E 3E EF 00 91 89 04 02 40 10 00 7C B9 1F C6 2F ~>......@..|.../
004059C0 FF A0 00 80 56 99 17 FF DC 00 00 EF FF F4 00 00 ....V...........
004059D0 1B 00 AD BB DC 00 E6 36 00 18 00 00 FF 13 9C 14 .......6........
004059E0 3F 2C E2 FF E4 DA 0B AF D9 C1 E6 0E 53 BA 27 35 ?,..........S.'5
004059F0 00 33 1A 4C 53 76 D2 DD 96 00 49 EA 04 5C 91 F1 .3.LSv....I..\..
00405A00 72 00 61 74 CF BA 8B EB 0C 63 EA 88 00 00 CA 9F r.at.....c......
00405A10 BA B8 4E 3C A9 77 0F 20 95 C5 B8 FB 00 99 A1 6D ..N<.w. .......m
00405A20 00 0A A1 2D 08 5A FF FB AA 46 00 00 8F BE CB 1E ...-.Z...F......
00405A30 0D 00 C8 02 C0 3F 00 42 99 F8 64 7A 7E 37 00 20 .....?.B..dz~7. 
00405A40 CF DC F6 00 BD 80 0A FF DB 00 9D 15 00 3A 73 98 .............:s.
00405A50 4D 88 7F 36 22 00 00 D6 66 EB 12 22 EB 1B 18 00 M..6"...f.."....
00405A60 03 0C 3B 2F FF D2 06 69 35 CD 00 DC 95 86 00 8A ..;/...i5.......
00405A70 18 B0 94 41 62 0C C6 D2 05 7D E4 0F 8E C7 00 0A ...Ab....}......
00405A80 FB 10 4F 56 FF C1 38 81 04 00 06 8C B8 60 00 08 ..OV..8......`..
00405A90 0A F1 D2 71 1A D0 FE 57 18 04 85 43 22 03 A6 D8 ...q...W...C"...
00405AA0 34 EC 08 00 00 B7 EE C4 0E 00 B2 15 FF 4A 38 95 4............J8.
00405AB0 1C B8 15 E8 4F 1E CB 72 FF 7E 8B 00 FF FF 38 41 ....O..r.~....8A
00405AC0 FF B8 3F 10 D6 21 00 06 57 64 60 B9 8D 00 00 79 ..?..!..Wd`....y
00405AD0 00 FF 86 D6 D9 43 2E 06 02 FA 7E 97 19 00 B0 FF .....C....~.....
00405AE0 7D BA 00 4E 04 71 00 BC 98 16 8D 4C D0 86 91 00 }..N.q.....L....
00405AF0 7E A9 00 9D E1 8B 5C 1C 2D 54 D5 53 01 D5 00 C1 ~.....\.-T.S....
00405B00 AC BB C2 3B 1B C7 8A 0F 00 53 3B 92 00 C1 0A FA ...;.....S;.....
00405B10 5A 33 A5 76 F4 14 C8 79 BB 71 CE FB C6 85 AF 97 Z3.v...y.q......
00405B20 6F 00 32 D7 00 00 00 00 17 27 00 BE 4D 33 4C 93 o.2......'..M3L.
00405B30 38 79 87 3C 00 BA C9 FF 0E 0C 60 00 FF 20 3A 02 8y.<......`.. :.
00405B40 53 7F 62 F8 11 C6 70 5B 1D A1 4E E7 B4 FF E0 64 S.b...p[..N....d
00405B50 34 0F 9E 23 B8 00 66 B2 E2 8B 00 88 9C 4A 10 47 4..#..f......J.G
00405B60 BC 52 7B C3 75 D5 8F 00 93 6D B2 5C FD 80 00 86 .R{.u....m.\....
00405B70 CC 26 00 00 7B 7A 00 B8 71 BB 3B 49 00 FF FF 72 .&..{z..q.;I...r
00405B80 94 27 31 0B A2 0D 05 1E 53 3F D8 59 F3 CD 1B EA .'1.....S?.Y....
00405B90 61 00 52 84 00 01 86 8F 00 99 3E 7F 92 56 DA 03 a.R.......>..V..
00405BA0 9F 04 31 9D 00 6F 67 40 CD BC 2B 1D 00 1F 00 00 ..1..og@..+.....
00405BB0 00 00 5E 61 07 09 02 B0 F1 6A 9A 39 32 13 93 34 ..^a.....j.92..4
00405BC0 67 B1 61 20 01 5C 96 E0 00 FF 1C 1D 51 D6 C4 21 g.a .\......Q..!
00405BD0 BB 0D 49 7F 7F 82 0F 00 83 D3 59 FD DB 06 86 8D ..I.......Y.....
00405BE0 00 51 6F 79 1F 00 17 0C 00 1F 85 0F 2C 5B 0E A1 .Qoy........,[..
00405BF0 FE 00 FC 00 00 59 D5 11 B3 F7 19 C1 BE FF 20 00 .....Y........ .
00405C00 00 9C F1 F9 94 8F 00 FF A7 D4 FB 5C 42 00 97 9B ...........\B...
00405C10 FB 41 28 0F B0 CF 00 CB 01 D4 C9 00 00 38 03 93 .A(..........8..
00405C20 30 9E 86 00 03 5D 00 19 E8 C8 AD 9F B8 F2 63 00 0....]........c.
00405C30 D1 43 00 1B 00 84 C6 F1 EB 24 08 0A B3 8D 84 E0 .C.......$......
00405C40 00 00 D2 73 78 7F 00 00 67 7E 5E 58 FF 4E FF B6 ...sx...g~^X.N..
00405C50 00 58 C5 3A DC F9 D0 00 54 72 BD C8 18 00 87 C5 .X.:....Tr......
00405C60 F9 B4 38 00 06 67 83 00 00 7D 61 E8 63 A2 DA 27 ..8..g...}a.c..'
00405C70 CF A2 9E 00 47 48 0D 43 00 8D EF 8E 9F 11 3F D7 ....GH.C......?.
00405C80 22 EA 93 DB 09 FE 14 19 C5 FF 37 4C 12 CF 89 0A ".........7L....
00405C90 80 6E 08 34 04 00 00 18 00 BE 00 D1 00 EC 00 C1 .n.4............
00405CA0 69 D5 FA F5 00 00 A4 FE C0 83 CA 68 42 70 27 89 i..........hBp'.
00405CB0 70 9F FF D8 03 EF 40 77 D2 41 35 9D 24 8C 67 CB p.....@w.A5.$.g.
00405CC0 B0 51 53 4F 20 E6 F4 CC 11 87 FF 8A 00 40 84 A7 .QSO ........@..
00405CD0 C6 87 E8 00 86 00 81 04 90 04 BE CC 14 B3 C2 0E ................
00405CE0 47 C0 2A A1 00 FF 81 55 4E 27 C3 88 FF 00 04 07 G.*....UN'......
00405CF0 CB F6 AC 00 45 74 FF 12 4C 98 71 00 18 7C E8 00 ....Et..L.q..|..
00405D00 87 E2 42 7D 93 00 1E 1A A1 32 B0 D7 FF BC 00 D7 ..B}.....2......
00405D10 F4 CF 1B 91 6A 3B FF 96 CC 35 31 34 00 EF E2 00 ....j;...514....
00405D20 E9 FF 0E 00 12 C3 66 49 5A FF 42 B4 98 A3 63 8B ......fIZ.B...c.
00405D30 C1 0F B9 F9 ED 6A 7A C7 1C F0 E1 A1 2C 8B 6D 13 .....jz.....,.m.
00405D40 00 29 3C 73 A4 AF 6C B0 4D 1D 9E 87 0F A3 4F 76 .)<s..l.M.....Ov
00405D50 0C 75 FF 4C AB F0 DF 00 1E 00 44 E7 AB 96 09 42 .u.L......D....B
00405D60 5B 25 40 39 7F 80 87 15 DD 84 03 BD 28 FF DF 00 [%@9........(...
00405D70 39 A8 FF 00 D9 18 C6 88 3F 64 E9 00 CE 00 5F E7 9.......?d...._.
00405D80 9C E2 00 44 5B 00 CC BE 4B 05 B3 56 00 00 9E 00 ...D[...K..V....
00405D90 6F 62 FD 8F 57 78 99 45 F2 8A 00 FF 4F D8 3C BA ob..Wx.E....O.<.
00405DA0 B3 09 60 00 00 0B DE D2 5C 83 D0 49 EB 4B 70 D7 ..`.....\..I.Kp.
00405DB0 F8 CE 2C 9D C1 00 03 00 B3 04 11 40 25 07 00 24 ..,........@%..$
00405DC0 20 E8 C9 FC AB 8F E2 01 7D B0 7C E0 C6 DE 35 08  .......}.|...5.
00405DD0 3C F3 43 E5 B8 18 5A 79 BE 2B DF 60 5C 92 FF E3 <.C...Zy.+.`\...
00405DE0 FB EA 07 A6 0D 65 D0 5F 53 00 6C 98 2C 01 B9 C0 .....e._S.l.,...
00405DF0 C3 4A 9C FB 22 BB 50 00 34 BD E3 94 52 3E 44 FF .J..".P.4...R>D.
00405E00 89 B5 00 C6 00 8B 72 55 8B 67 AE 89 83 34 4C 80 ......rU.g...4L.
00405E10 00 AC F9 06 1B 8B D3 C4 50 81 00 4B 1F 08 48 89 ........P..K..H.
00405E20 DD 81 FC 90 78 21 00 00 86 07 E0 F3 8B 85 F2 00 ....x!..........
00405E30 00 02 FF 00 BF 72 10 00 10 52 ED 76 BA 00 8C DD .....r...R.v....
00405E40 3C 01 BE 1D 46 BF AD 43 6C 04 0D FE 60 B5 AF 00 <...F..Cl...`...
00405E50 86 48 7E 6C 02 B4 00 DF EF FF 00 00 6D C4 FF F1 .H~l........m...
00405E60 C5 83 43 FF A7 FF 4E 21 CF 9B 00 65 6C 00 00 FB ..C...N!...el...
00405E70 81 7F 00 1A 24 A6 F7 00 2B 3E 00 1A AC 64 00 25 ....$...+>...d.%
00405E80 41 FE 2B C5 1B 00 72 12 21 AA F0 07 B3 88 6C 02 A.+...r.!.....l.
00405E90 FC DB 06 BC 2B 4B D6 10 33 00 99 56 B1 8F 21 D0 ....+K..3..V..!.
00405EA0 66 8A 00 81 35 00 F8 65 D8 04 48 72 D8 21 CF 37 f...5..e..Hr.!.7
00405EB0 3A 6C 6F 66 CF 86 44 D4 DF 4C 2E B2 26 DD 82 0D :lof..D..L..&...
00405EC0 B0 27 60 3D 00 FE 00 1C 5C 87 31 FB 21 E1 02 DE .'`=....\.1.!...
00405ED0 E0 01 84 00 38 0B D1 A0 00 C1 EA 62 15 92 88 00 ....8......b....
00405EE0 00 00 2A 70 6B CC FD E9 1C FE 15 CC 8C E1 8B BC ..*pk...........
00405EF0 04 00 F0 4F 09 18 20 5B B7 01 DE BF 5C 8D E1 00 ...O.. [....\...
00405F00 14 00 98 40 E6 2E 8E 47 63 E7 0B D5 31 36 9B 85 ...@...Gc...16..
00405F10 00 4E 99 FB 00 00 F5 30 37 09 BE 00 BF 00 2A 15 .N.....07.....*.
00405F20 44 56 AC E0 E3 A0 49 7F FF 8F 4C 61 FC 5E FF 7A DV....I...La.^.z
00405F30 01 85 78 E5 D4 00 5A 3C 91 E6 FF 11 73 F0 00 13 ..x...Z<....s...
00405F40 29 AB F2 D0 1D 0D 00 E0 39 00 B0 B4 F6 B8 FE 43 ).......9......C
00405F50 5A 7D 20 00 BF 29 16 F0 6D 10 6A B7 87 FF 6A 2B Z} ..)..m.j...j+
00405F60 77 E0 44 00 8D 00 67 45 48 60 9B 9E D6 E5 F1 20 w.D...gEH`..... 
00405F70 EA CB 55 3B F3 00 87 D7 9D 1F 20 00 93 CC A6 00 ..U;...... .....
00405F80 80 00 DF 00 DD 70 FF FD 00 8C 00 DF 44 66 78 2F .....p......Dfx/
00405F90 3E 14 00 01 00 E9 BB CB DA 63 9D 41 47 D8 09 06 >........c.AG...
00405FA0 B3 06 FF FF 07 4E FF CF B7 2D 6E F3 79 95 87 00 .....N...-n.y...
00405FB0 C5 31 D7 6E 6F 39 00 30 00 F0 94 82 9E 80 58 00 .1.no9.0......X.
00405FC0 E6 50 E8 F7 E8 5C 00 00 00 EF 00 32 00 1C 18 9F .P...\.....2....
00405FD0 89 2C 28 FE 20 A1 47 63 F1 DB 84 2F FF D9 2A 88 .,(. .Gc.../..*.
00405FE0 CF 04 8F E2 90 FB FB 7C C6 C6 96 00 17 6F B2 25 .......|.....o.%
00405FF0 12 1D 00 41 7B 04 43 00 C5 FF F6 D1 00 F0 A3 00 ...A{.C.........
00406000 34 60 75 56 CE FF 37 00 E9 0F 6D 04 DE 61 63 00 4`uV..7...m..ac.
00406010 00 4F 00 7A 87 E8 52 4F 16 A4 DB 00 BE 82 B3 A2 .O.z..RO........
00406020 00 C4 FF 10 7E 17 9C 86 00 BC FF 68 AE 00 7C 2E ....~......h..|.
00406030 00 E7 85 42 CC A0 25 E3 1E 94 30 DE 00 A2 00 1F ...B..%...0.....
00406040 A2 29 0B 3E 99 D6 1B F1 23 FA 8B 05 22 36 09 59 .).>....#..."6.Y
00406050 10 C7 00 BA 57 8C 2C 00 00 00 5A D1 57 CE 07 40 ....W.,...Z.W..@
00406060 78 87 9B 0D 02 A9 0A 63 DB C0 57 00 75 FF A5 A5 x......c..W.u...
00406070 7F 00 00 00 9A 7D 0A 63 30 38 C3 C0 E0 00 95 E4 .....}.c08......
00406080 56 F8 72 22 9F 9E 00 70 6C 9C 3C 88 00 76 97 49 V.r"...pl.<..v.I
00406090 8B 3E FF 64 5E F7 B7 BD 1C 92 00 00 6C FA 1B 10 .>.d^.......l...
004060A0 FF F5 59 B1 B8 FF FF 82 00 DF C0 37 D2 E3 41 8E ..Y........7..A.
004060B0 00 BF C2 00 26 56 9E B7 00 07 C8 A2 13 B5 FF 3E ....&V.........>
004060C0 00 00 44 A1 DA A1 5A FF 18 46 00 5A 9F 6C 08 77 ..D...Z..F.Z.l.w
004060D0 0A C3 13 3B 00 D0 4C 2E A0 5F E4 00 3B 96 AD 4C ...;..L.._..;..L
004060E0 04 0D 00 18 FB 00 92 87 00 04 05 F1 BB 47 81 E6 .............G..
004060F0 70 47 36 64 BE 16 00 81 69 D4 CF 1F 0A 68 21 0C pG6d....i....h!.
00406100 9D 00 00 A3 E6 00 00 B2 02 0D B7 E0 14 88 4B E0 ..............K.
00406110 3E B8 87 12 A1 00 43 FE 3A 7D DE 47 FB 93 FF A1 >.....C.:}.G....
00406120 4E 00 0F 00 00 1F FF 74 DB 18 F9 00 37 BC 33 E6 N......t....7.3.
00406130 09 B9 7E F6 4D 7F C0 00 9C 7B 00 02 16 F3 D4 D0 ..~.M....{......
00406140 F5 55 D9 FF FF 00 7E 00 AE 85 1D 00 00 FF A3 3B .U....~........;
00406150 BB 9E 00 8B 16 FF BF 35 A4 80 2C 74 BF 00 02 5B .......5..,t...[
00406160 85 0E FD 37 A7 54 38 A4 83 39 9C 00 DB 04 27 F5 ...7.T8..9....'.
00406170 6F CC 01 00 C1 00 00 A6 8C FD 82 D4 55 43 97 8A o...........UC..
00406180 63 FF FF 00 C6 00 6D 0F CC 39 A4 9C 00 08 FF 6D c.....m..9.....m
00406190 73 96 D4 21 A8 F0 40 9C 12 E8 00 B7 C7 09 0B 52 s..!..@........R
004061A0 D2 A3 5C 59 C0 00 9E C9 77 04 C6 64 08 E7 A1 3E ..\Y....w..d...>
004061B0 B5 00 F5 D0 AE DA 71 0B 6D CA AA 8D 00 7A 00 16 ......q.m....z..
004061C0 77 4C E2 E2 F7 D1 1B 2D B2 00 4B 00 F1 A2 C5 68 wL.....-..K....h
004061D0 9C E7 6F 00 51 6A FF 60 7D 01 DC 06 14 1A BD 49 ..o.Qj.`}......I
004061E0 44 94 93 00 01 79 FF 8D FF E7 6B 00 ED 34 0A D0 D....y....k..4..
004061F0 17 CD 20 05 FF BA EC E8 00 41 AF 97 FF 01 C7 CC .. ......A......
00406200 89 BC DC FF 86 44 21 C8 8D 64 E8 6F B2 00 F1 4C .....D!..d.o...L
00406210 12 FF 00 FF 1E BB 6D C6 03 96 6E 96 53 B5 16 84 ......m...n.S...
00406220 E8 FF 00 9D 3F DE 8F 00 00 EC 62 FF 00 00 21 34 ....?.....b...!4
00406230 7F 58 F9 00 4D 16 03 64 0C 21 04 00 1C 61 6C 48 .X..M..d.!...alH
00406240 28 B7 16 A6 00 FB D2 C7 FF 03 00 7D 42 C6 38 FF (..........}B.8.
00406250 00 6D 27 00 13 64 D8 00 E3 68 B6 40 84 21 3C E7 .m'..d...h.@.!<.
00406260 00 0C FE E1 00 30 FC 8F B3 41 1E 83 D1 AE 26 79 .....0...A....&y
00406270 F3 18 00 A0 61 2D FA 00 62 7B FF 39 80 8C 3A 00 ....a-..b{.9..:.
00406280 50 49 12 00 00 21 3C A0 01 4F 00 97 79 00 17 8A PI...!<..O..y...
00406290 4C BD FF 16 D0 F1 63 84 02 95 74 17 81 25 DD 1E L.....c...t..%..
004062A0 FA 00 CE E3 00 5E FD 8F EF 1E 74 17 CC EA 3C 08 .....^....t...<.
004062B0 70 00 9C 3B 2E 88 00 00 F2 00 17 00 9F 98 00 97 p..;............
004062C0 93 FF 09 C5 BB C6 57 00 19 BF CA 5B 51 3D 01 6A ......W....[Q=.j
004062D0 FF 30 82 42 B8 00 3C DB 86 64 E3 48 84 85 54 00 .0.B..<..d.H..T.
004062E0 EE 4B 00 2E 00 BD 00 A1 0B 00 00 C1 00 69 BB 1F .K...........i..
004062F0 6D 80 20 4C 8B 47 00 67 C6 A4 24 1C 3B 00 FF 5D m. L.G.g..$.;..]
00406300 A7 08 F8 13 7F D4 B1 16 16 FF 08 00 0F 00 21 15 ..............!.
00406310 1C 83 FD 8D FF 00 39 61 00 FF A8 00 06 D2 00 92 ......9a........
00406320 0A 4C 3B 62 BD 99 C3 4E F1 00 57 00 7D F1 18 0C .L;b...N..W.}...
00406330 BF F3 89 4C 2F DB 44 8D 38 62 00 22 5B 3B 29 00 ...L/.D.8b."[;).
00406340 18 2C A0 B8 71 06 A1 D0 46 88 20 EC E4 D1 33 00 .,..q...F. ...3.
00406350 00 79 5F EA FF 12 00 8A 47 91 81 FF D6 85 8A C1 .y_.....G.......
00406360 22 EA 00 00 87 97 87 C1 00 1E 00 3D 84 79 EA E9 "..........=.y..
00406370 16 E3 01 B1 3E 00 FE CC B6 00 B4 71 E4 25 6F F1 ....>......q.%o.
00406380 BA C6 D8 7A 7F 4F E7 6E 0B 00 69 6F C9 1A FF AB ...z.O.n..io....
00406390 6F 96 CA 23 40 1C 80 9C 5D A3 D4 78 19 38 DF 27 o..#@...]..x.8.'
004063A0 DA AA CE C6 22 D0 7E 8A B7 77 00 91 16 FF 31 85 ....".~..w....1.
004063B0 00 08 AA 8B B8 26 09 00 FF 67 8E 4F 2F 2B 82 3A .....&...g.O/+.:
004063C0 C3 C0 2A 00 D6 7D 01 3C 00 AB 73 7E 5A C5 23 DB ..*..}.<..s~Z.#.
004063D0 F4 D1 7E 04 00 6F 70 EF BF 00 AB 00 00 14 F0 E9 ..~..op.........
004063E0 00 73 0C 62 59 BD 89 9C FE 2E BD F6 28 3A 00 FF .s.bY.......(:..
004063F0 28 90 00 32 CE 27 76 92 89 00 DD C8 73 00 8A 6C (..2.'v.....s..l
00406400 BA FF 93 02 E5 C6 8C D3 6E B5 73 60 70 CA 27 B5 ........n.s`p.'.
00406410 8C FF 62 28 65 7B CF E3 D3 A4 B4 EC 35 00 04 46 ..b(e{......5..F
00406420 4E 96 1C 00 6F 8B 5B A9 C6 3A 14 77 6F 00 67 8F N...o.[..:.wo.g.
00406430 E0 11 3F CA 50 53 00 6F 91 30 C9 34 01 51 B1 31 ..?.PS.o.0.4.Q.1
00406440 8F 02 55 DC 6B 6B 13 77 57 41 AE 38 32 F1 5F 80 ..U.kk.wWA.82._.
00406450 94 0D 16 03 5E F3 83 20 F6 1F 00 6B 7D 00 E4 5C ....^.. ...k}..\
00406460 3F D3 86 34 D5 FD 8C 01 19 36 98 FF 00 AF 26 F7 ?..4.....6....&.
00406470 42 75 9B 7B C2 00 87 3C FF 0F 00 08 DB 1A 89 08 Bu.{...<........
00406480 CF D0 00 00 FD 41 72 6C D1 FE 94 68 00 1C F9 00 .....Arl...h....
00406490 66 AA 00 D4 63 D4 73 00 CF 49 19 11 98 62 38 00 f...c.s..I...b8.
004064A0 9A 90 B4 FF 46 1E 67 63 26 35 4B 40 34 39 00 1C ....F.gc&5K@49..
004064B0 2C 38 A7 FF DC D5 E6 2C 97 1F 36 AC FF 00 C8 FF ,8.....,..6.....
004064C0 01 00 00 00 00 73 26 DB 78 FF BF 10 00 04 FF 9F .....s&.x.......
004064D0 C9 00 3A F4 C8 01 C3 BF 49 47 FF 00 99 5D 15 9F ..:.....IG...]..
004064E0 F7 12 BA 70 FD 12 55 00 FF 39 6D 00 B7 1B B6 1F ...p..U..9m.....
004064F0 FF 00 F8 4F FB C3 DD DF 89 97 90 E9 C3 FE 05 26 ...O...........&
00406500 C9 6E 3A 2C FC FC F2 19 6C 4B CC 9F FA E3 64 00 .n:,....lK....d.
00406510 17 90 B8 FF CE D4 2B 52 FF 21 39 A3 00 AE B6 18 ......+R.!9.....
00406520 FF 44 14 DE 7B ED CA 18 DF E3 39 90 79 E0 1F 00 .D..{.....9.y...
00406530 6E 05 74 1F B5 FE 1C 18 00 43 00 F9 07 01 0B F2 n.t......C......
00406540 63 EE 4F 00 00 00 57 00 9D 46 30 BD 04 04 5C 10 c.O...W..F0...\.
00406550 28 B0 48 38 42 2A 02 3C 00 4E AC 1F C9 06 1D C8 (.H8B*.<.N......
00406560 1E 27 5C ED 7B 9B 00 EB 2F 0B 78 F3 C5 92 9B F0 .'\.{.../.x.....
00406570 FF 6B BF FF CC D5 F1 00 00 00 50 02 47 D8 77 5A .k........P.G.wZ
00406580 FF 00 FF 46 EB ED 20 B8 0E 99 27 28 A6 11 02 3A ...F.. ...'(...:
00406590 E0 D2 2B 00 00 F2 3E 00 FF 1A 00 1A B1 DB 1C 33 ..+...>........3
004065A0 1E B4 00 4F 24 B5 00 83 00 5D 31 F5 FD 00 17 15 ...O$....]1.....
004065B0 16 74 E9 C0 43 47 A2 F4 EC 56 4E E0 00 FD DB 16 .t..CG...VN.....
004065C0 EB 18 8A 98 79 AA 02 E6 7C 8E FD FF D7 7D F4 00 ....y...|....}..
004065D0 00 FF D8 06 7C 00 95 08 FF 06 C3 FE 3E C5 99 2B ....|.......>..+
004065E0 40 F8 54 04 00 00 55 0F B2 00 C5 32 7F 17 32 E6 @.T...U....2..2.
004065F0 20 E4 D6 5C F2 04 29 FE 98 61 76 67 48 93 97 C6  ..\..)..avgH...
00406600 00 00 00 00 00 00 00 00 00 00 00 00 00 00 00 00 ................
00406610 00 00 00 00 00 00 00 00 00 00 00 00 00 00 00 00 ................
00406620 00 00 00 00 00 00 00 00 00 00 00 00 00 00 00 00 ................
00406630 00 00 00 00 00 00 00 00 00 00 00 00 00 00 00 00 ................
00406640 00 00 00 00 00 00 00 00 00 00 00 00 00 00 00 00 ................
00406650 00 00 00 00 00 00 00 00 00 00 00 00 00 00 00 00 ................
00406660 00 00 00 00 00 00 00 00 00 00 00 00 00 00 00 00 ................
00406670 00 00 00 00 00 00 00 00 00 00 00 00 00 00 00 00 ................
00406680 00 00 00 00 00 00 00 00 00 00 00 00 00 00 00 00 ................
00406690 00 00 00 00 00 00 00 00 00 00 00 00 00 00 00 00 ................
004066A0 00 00 00 00 00 00 00 00 00 00 00 00 00 00 00 00 ................
004066B0 00 00 00 00 00 00 00 00 00 00 00 00 00 00 00 00 ................
004066C0 00 00 00 00 00 00 00 00 00 00 00 00 00 00 00 00 ................
004066D0 00 00 00 00 00 00 00 00 00 00 00 00 00 00 00 00 ................
004066E0 00 00 00 00 00 00 00 00 00 00 00 00 00 00 00 00 ................
004066F0 00 00 00 00 00 00 00 00 00 00 00 00 00 00 00 00 ................
00406700 00 00 00 00 00 00 00 00 00 00 00 00 00 00 00 00 ................
00406710 00 00 00 00 00 00 00 00 00 00 00 00 00 00 00 00 ................
00406720 00 00 00 00 00 00 00 00 00 00 00 00 00 00 00 00 ................
00406730 00 00 00 00 00 00 00 00 00 00 00 00 00 00 00 00 ................
00406740 00 00 00 00 00 00 00 00 00 00 00 00 00 00 00 00 ................
00406750 00 00 00 00 00 00 00 00 00 00 00 00 00 00 00 00 ................
00406760 00 00 00 00 00 00 00 00 00 00 00 00 00 00 00 00 ................
00406770 00 00 00 00 00 00 00 00 00 00 00 00 00 00 00 00 ................
00406780 00 00 00 00 00 00 00 00 00 00 00 00 00 00 00 00 ................
00406790 00 00 00 00 00 00 00 00 00 00 00 00 00 00 00 00 ................
004067A0 00 00 00 00 00 00 00 00 00 00 00 00 00 00 00 00 ................
004067B0 00 00 00 00 00 00 00 00 00 00 00 00 00 00 00 00 ................
004067C0 00 00 00 00 00 00 00 00 00 00 00 00 00 00 00 00 ................
004067D0 00 00 00 00 00 00 00 00 00 00 00 00 00 00 00 00 ................
004067E0 00 00 00 00 00 00 00 00 00 00 00 00 00 00 00 00 ................
004067F0 00 00 00 00 00 00 00 00 00 00 00 00 00 00 00 00 ................
00406800 00 00 00 00 00 00 00 00 00 00 00 00 00 00 00 00 ................
00406810 00 00 00 00 00 00 00 00 00 00 00 00 00 00 00 00 ................
00406820 00 00 00 00 00 00 00 00 00 00 00 00 00 00 00 00 ................
00406830 00 00 00 00 00 00 00 00 00 00 00 00 00 00 00 00 ................
00406840 00 00 00 00 00 00 00 00 00 00 00 00 00 00 00 00 ................
00406850 00 00 00 00 00 00 00 00 00 00 00 00 00 00 00 00 ................
00406860 00 00 00 00 00 00 00 00 00 00 00 00 00 00 00 00 ................
00406870 00 00 00 00 00 00 00 00 00 00 00 00 00 00 00 00 ................
00406880 00 00 00 00 00 00 00 00 00 00 00 00 00 00 00 00 ................
00406890 00 00 00 00 00 00 00 00 00 00 00 00 00 00 00 00 ................
004068A0 00 00 00 00 00 00 00 00 00 00 00 00 00 00 00 00 ................
004068B0 00 00 00 00 00 00 00 00 00 00 00 00 00 00 00 00 ................
004068C0 00 00 00 00 00 00 00 00 00 00 00 00 00 00 00 00 ................
004068D0 00 00 00 00 00 00 00 00 00 00 00 00 00 00 00 00 ................
004068E0 00 00 00 00 00 00 00 00 00 00 00 00 00 00 00 00 ................
004068F0 00 00 00 00 00 00 00 00 00 00 00 00 00 00 00 00 ................
00406900 00 00 00 00 00 00 00 00 00 00 00 00 00 00 00 00 ................
00406910 00 00 00 00 00 00 00 00 00 00 00 00 00 00 00 00 ................
00406920 00 00 00 00 00 00 00 00 00 00 00 00 00 00 00 00 ................
00406930 00 00 00 00 00 00 00 00 00 00 00 00 00 00 00 00 ................
00406940 00 00 00 00 00 00 00 00 00 00 00 00 00 00 00 00 ................
00406950 00 00 00 00 00 00 00 00 00 00 00 00 00 00 00 00 ................
00406960 00 00 00 00 00 00 00 00 00 00 00 00 00 00 00 00 ................
00406970 00 00 00 00 00 00 00 00 00 00 00 00 00 00 00 00 ................
00406980 00 00 00 00 00 00 00 00 00 00 00 00 00 00 00 00 ................
00406990 00 00 00 00 00 00 00 00 00 00 00 00 00 00 00 00 ................
004069A0 00 00 00 00 00 00 00 00 00 00 00 00 00 00 00 00 ................
004069B0 00 00 00 00 00 00 00 00 00 00 00 00 00 00 00 00 ................
004069C0 00 00 00 00 00 00 00 00 00 00 00 00 00 00 00 00 ................
004069D0 00 00 00 00 00 00 00 00 00 00 00 00 00 00 00 00 ................
004069E0 00 00 00 00 00 00 00 00 00 00 00 00 00 00 00 00 ................
004069F0 00 00 00 00 00 00 00 00 00 00 00 00 00 00 00 00 ................
00406A00 00 00 00 00 00 00 00 00 00 00 00 00 00 00 00 00 ................
00406A10 00 00 00 00 00 00 00 00 00 00 00 00 00 00 00 00 ................
00406A20 00 00 00 00 00 00 00 00 00 00 00 00 00 00 00 00 ................
00406A30 00 00 00 00 00 00 00 00 00 00 00 00 00 00 00 00 ................
00406A40 00 00 00 00 00 00 00 00 00 00 00 00 00 00 00 00 ................
00406A50 00 00 00 00 00 00 00 00 00 00 00 00 00 00 00 00 ................
00406A60 00 00 00 00 00 00 00 00 00 00 00 00 00 00 00 00 ................
00406A70 00 00 00 00 00 00 00 00 00 00 00 00 00 00 00 00 ................
00406A80 00 00 00 00 00 00 00 00 00 00 00 00 00 00 00 00 ................
00406A90 00 00 00 00 00 00 00 00 00 00 00 00 00 00 00 00 ................
00406AA0 00 00 00 00 00 00 00 00 00 00 00 00 00 00 00 00 ................
00406AB0 00 00 00 00 00 00 00 00 00 00 00 00 00 00 00 00 ................
00406AC0 00 00 00 00 00 00 00 00 00 00 00 00 00 00 00 00 ................
00406AD0 00 00 00 00 00 00 00 00 00 00 00 00 00 00 00 00 ................
00406AE0 00 00 00 00 00 00 00 00 00 00 00 00 00 00 00 00 ................
00406AF0 00 00 00 00 00 00 00 00 00 00 00 00 00 00 00 00 ................
00406B00 00 00 00 00 00 00 00 00 00 00 00 00 00 00 00 00 ................
00406B10 00 00 00 00 00 00 00 00 00 00 00 00 00 00 00 00 ................
00406B20 00 00 00 00 00 00 00 00 00 00 00 00 00 00 00 00 ................
00406B30 00 00 00 00 00 00 00 00 00 00 00 00 00 00 00 00 ................
00406B40 00 00 00 00 00 00 00 00 00 00 00 00 00 00 00 00 ................
00406B50 00 00 00 00 00 00 00 00 00 00 00 00 00 00 00 00 ................
00406B60 00 00 00 00 00 00 00 00 00 00 00 00 00 00 00 00 ................
00406B70 00 00 00 00 00 00 00 00 00 00 00 00 00 00 00 00 ................
00406B80 00 00 00 00 00 00 00 00 00 00 00 00 00 00 00 00 ................
00406B90 00 00 00 00 00 00 00 00 00 00 00 00 00 00 00 00 ................
00406BA0 00 00 00 00 00 00 00 00 00 00 00 00 00 00 00 00 ................
00406BB0 00 00 00 00 00 00 00 00 00 00 00 00 00 00 00 00 ................
00406BC0 00 00 00 00 00 00 00 00 00 00 00 00 00 00 00 00 ................
00406BD0 00 00 00 00 00 00 00 00 00 00 00 00 00 00 00 00 ................
00406BE0 00 00 00 00 00 00 00 00 00 00 00 00 00 00 00 00 ................
00406BF0 00 00 00 00 00 00 00 00 00 00 00 00 00 00 00 00 ................
00406C00 00 00 00 00 00 00 00 00 00 00 00 00 00 00 00 00 ................
00406C10 00 00 00 00 00 00 00 00 00 00 00 00 00 00 00 00 ................
00406C20 00 00 00 00 00 00 00 00 00 00 00 00 00 00 00 00 ................
00406C30 00 00 00 00 00 00 00 00 00 00 00 00 00 00 00 00 ................
00406C40 00 00 00 00 00 00 00 00 00 00 00 00 00 00 00 00 ................
00406C50 00 00 00 00 00 00 00 00 00 00 00 00 00 00 00 00 ................
00406C60 00 00 00 00 00 00 00 00 00 00 00 00 00 00 00 00 ................
00406C70 00 00 00 00 00 00 00 00 00 00 00 00 00 00 00 00 ................
00406C80 00 00 00 00 00 00 00 00 00 00 00 00 00 00 00 00 ................
00406C90 00 00 00 00 00 00 00 00 00 00 00 00 00 00 00 00 ................
00406CA0 00 00 00 00 00 00 00 00 00 00 00 00 00 00 00 00 ................
00406CB0 00 00 00 00 00 00 00 00 00 00 00 00 00 00 00 00 ................
00406CC0 00 00 00 00 00 00 00 00 00 00 00 00 00 00 00 00 ................
00406CD0 00 00 00 00 00 00 00 00 00 00 00 00 00 00 00 00 ................
00406CE0 00 00 00 00 00 00 00 00 00 00 00 00 00 00 00 00 ................
00406CF0 00 00 00 00 00 00 00 00 00 00 00 00 00 00 00 00 ................
00406D00 00 00 00 00 00 00 00 00 00 00 00 00 00 00 00 00 ................
00406D10 00 00 00 00 00 00 00 00 00 00 00 00 00 00 00 00 ................
00406D20 00 00 00 00 00 00 00 00 00 00 00 00 00 00 00 00 ................
00406D30 00 00 00 00 00 00 00 00 00 00 00 00 00 00 00 00 ................
00406D40 00 00 00 00 00 00 00 00 00 00 00 00 00 00 00 00 ................
00406D50 00 00 00 00 00 00 00 00 00 00 00 00 00 00 00 00 ................
00406D60 00 00 00 00 00 00 00 00 00 00 00 00 00 00 00 00 ................
00406D70 00 00 00 00 00 00 00 00 00 00 00 00 00 00 00 00 ................
00406D80 00 00 00 00 00 00 00 00 00 00 00 00 00 00 00 00 ................
00406D90 00 00 00 00 00 00 00 00 00 00 00 00 00 00 00 00 ................
00406DA0 00 00 00 00 00 00 00 00 00 00 00 00 00 00 00 00 ................
00406DB0 00 00 00 00 00 00 00 00 00 00 00 00 00 00 00 00 ................
00406DC0 00 00 00 00 00 00 00 00 00 00 00 00 00 00 00 00 ................
00406DD0 00 00 00 00 00 00 00 00 00 00 00 00 00 00 00 00 ................
00406DE0 00 00 00 00 00 00 00 00 00 00 00 00 00 00 00 00 ................
00406DF0 00 00 00 00 00 00 00 00 00 00 00 00 00 00 00 00 ................
00406E00 00 00 00 00 00 00 00 00 00 00 00 00 00 00 00 00 ................
00406E10 00 00 00 00 00 00 00 00 00 00 00 00 00 00 00 00 ................
00406E20 00 00 00 00 00 00 00 00 00 00 00 00 00 00 00 00 ................
00406E30 00 00 00 00 00 00 00 00 00 00 00 00 00 00 00 00 ................
00406E40 00 00 00 00 00 00 00 00 00 00 00 00 00 00 00 00 ................
00406E50 00 00 00 00 00 00 00 00 00 00 00 00 00 00 00 00 ................
00406E60 00 00 00 00 00 00 00 00 00 00 00 00 00 00 00 00 ................
00406E70 00 00 00 00 00 00 00 00 00 00 00 00 00 00 00 00 ................
00406E80 00 00 00 00 00 00 00 00 00 00 00 00 00 00 00 00 ................
00406E90 00 00 00 00 00 00 00 00 00 00 00 00 00 00 00 00 ................
00406EA0 00 00 00 00 00 00 00 00 00 00 00 00 00 00 00 00 ................
00406EB0 00 00 00 00 00 00 00 00 00 00 00 00 00 00 00 00 ................
00406EC0 00 00 00 00 00 00 00 00 00 00 00 00 00 00 00 00 ................
00406ED0 00 00 00 00 00 00 00 00 00 00 00 00 00 00 00 00 ................
00406EE0 00 00 00 00 00 00 00 00 00 00 00 00 00 00 00 00 ................
00406EF0 00 00 00 00 00 00 00 00 00 00 00 00 00 00 00 00 ................
00406F00 00 00 00 00 00 00 00 00 00 00 00 00 00 00 00 00 ................
00406F10 00 00 00 00 00 00 00 00 00 00 00 00 00 00 00 00 ................
00406F20 00 00 00 00 00 00 00 00 00 00 00 00 00 00 00 00 ................
00406F30 00 00 00 00 00 00 00 00 00 00 00 00 00 00 00 00 ................
00406F40 00 00 00 00 00 00 00 00 00 00 00 00 00 00 00 00 ................
00406F50 00 00 00 00 00 00 00 00 00 00 00 00 00 00 00 00 ................
00406F60 00 00 00 00 00 00 00 00 00 00 00 00 00 00 00 00 ................
00406F70 00 00 00 00 00 00 00 00 00 00 00 00 00 00 00 00 ................
00406F80 00 00 00 00 00 00 00 00 00 00 00 00 00 00 00 00 ................
00406F90 00 00 00 00 00 00 00 00 00 00 00 00 00 00 00 00 ................
00406FA0 00 00 00 00 00 00 00 00 00 00 00 00 00 00 00 00 ................
00406FB0 00 00 00 00 00 00 00 00 00 00 00 00 00 00 00 00 ................
00406FC0 00 00 00 00 00 00 00 00 00 00 00 00 00 00 00 00 ................
00406FD0 00 00 00 00 00 00 00 00 00 00 00 00 00 00 00 00 ................
00406FE0 00 00 00 00 00 00 00 00 00 00 00 00 00 00 00 00 ................
00406FF0 00 00 00 00 00 00 00 00 00 00 00 00 00 00 00 00 ................
00407000 00 00 00 00 00 00 00 00 00 00 00 00 00 00 00 00 ................
00407010 00 00 00 00 00 00 00 00 00 00 00 00 00 00 00 00 ................
00407020 00 00 00 00 00 00 00 00 00 00 00 00 00 00 00 00 ................
00407030 00 00 00 00 00 00 00 00 00 00 00 00 00 00 00 00 ................
00407040 00 00 00 00 00 00 00 00 00 00 00 00 00 00 00 00 ................
00407050 00 00 00 00 00 00 00 00 00 00 00 00 00 00 00 00 ................
00407060 00 00 00 00 00 00 00 00 00 00 00 00 00 00 00 00 ................
00407070 00 00 00 00 00 00 00 00 00 00 00 00 00 00 00 00 ................
00407080 00 00 00 00 00 00 00 00 00 00 00 00 00 00 00 00 ................
00407090 00 00 00 00 00 00 00 00 00 00 00 00 00 00 00 00 ................
004070A0 00 00 00 00 00 00 00 00 00 00 00 00 00 00 00 00 ................
004070B0 00 00 00 00 00 00 00 00 00 00 00 00 00 00 00 00 ................
004070C0 00 00 00 00 00 00 00 00 00 00 00 00 00 00 00 00 ................
004070D0 00 00 00 00 00 00 00 00 00 00 00 00 00 00 00 00 ................
004070E0 00 00 00 00 00 00 00 00 00 00 00 00 00 00 00 00 ................
004070F0 00 00 00 00 00 00 00 00 00 00 00 00 00 00 00 00 ................
00407100 00 00 00 00 00 00 00 00 00 00 00 00 00 00 00 00 ................
00407110 00 00 00 00 00 00 00 00 00 00 00 00 00 00 00 00 ................
00407120 00 00 00 00 00 00 00 00 00 00 00 00 00 00 00 00 ................
00407130 00 00 00 00 00 00 00 00 00 00 00 00 00 00 00 00 ................
00407140 00 00 00 00 00 00 00 00 00 00 00 00 00 00 00 00 ................
00407150 00 00 00 00 00 00 00 00 00 00 00 00 00 00 00 00 ................
00407160 00 00 00 00 00 00 00 00 00 00 00 00 00 00 00 00 ................
00407170 00 00 00 00 00 00 00 00 00 00 00 00 00 00 00 00 ................
00407180 00 00 00 00 00 00 00 00 00 00 00 00 00 00 00 00 ................
00407190 00 00 00 00 00 00 00 00 00 00 00 00 00 00 00 00 ................
004071A0 00 00 00 00 00 00 00 00 00 00 00 00 00 00 00 00 ................
004071B0 00 00 00 00 00 00 00 00 00 00 00 00 00 00 00 00 ................
004071C0 00 00 00 00 00 00 00 00 00 00 00 00 00 00 00 00 ................
004071D0 00 00 00 00 00 00 00 00 00 00 00 00 00 00 00 00 ................
004071E0 00 00 00 00 00 00 00 00 00 00 00 00 00 00 00 00 ................
004071F0 00 00 00 00 00 00 00 00 00 00 00 00 00 00 00 00 ................
00407200 00 00 00 00 00 00 00 00 00 00 00 00 00 00 00 00 ................
00407210 00 00 00 00 00 00 00 00 00 00 00 00 00 00 00 00 ................
00407220 00 00 00 00 00 00 00 00 00 00 00 00 00 00 00 00 ................
00407230 00 00 00 00 00 00 00 00 00 00 00 00 00 00 00 00 ................
00407240 00 00 00 00 00 00 00 00 00 00 00 00 00 00 00 00 ................
00407250 00 00 00 00 00 00 00 00 00 00 00 00 00 00 00 00 ................
00407260 00 00 00 00 00 00 00 00 00 00 00 00 00 00 00 00 ................
00407270 00 00 00 00 00 00 00 00 00 00 00 00 00 00 00 00 ................
00407280 00 00 00 00 00 00 00 00 00 00 00 00 00 00 00 00 ................
00407290 00 00 00 00 00 00 00 00 00 00 00 00 00 00 00 00 ................
004072A0 00 00 00 00 00 00 00 00 00 00 00 00 00 00 00 00 ................
004072B0 00 00 00 00 00 00 00 00 00 00 00 00 00 00 00 00 ................
004072C0 00 00 00 00 00 00 00 00 00 00 00 00 00 00 00 00 ................
004072D0 00 00 00 00 00 00 00 00 00 00 00 00 00 00 00 00 ................
004072E0 00 00 00 00 00 00 00 00 00 00 00 00 00 00 00 00 ................
004072F0 00 00 00 00 00 00 00 00 00 00 00 00 00 00 00 00 ................
00407300 00 00 00 00 00 00 00 00 00 00 00 00 00 00 00 00 ................
00407310 00 00 00 00 00 00 00 00 00 00 00 00 00 00 00 00 ................
00407320 00 00 00 00 00 00 00 00 00 00 00 00 00 00 00 00 ................
00407330 00 00 00 00 00 00 00 00 00 00 00 00 00 00 00 00 ................
00407340 00 00 00 00 00 00 00 00 00 00 00 00 00 00 00 00 ................
00407350 00 00 00 00 00 00 00 00 00 00 00 00 00 00 00 00 ................
00407360 00 00 00 00 00 00 00 00 00 00 00 00 00 00 00 00 ................
00407370 00 00 00 00 00 00 00 00 00 00 00 00 00 00 00 00 ................
00407380 00 00 00 00 00 00 00 00 00 00 00 00 00 00 00 00 ................
00407390 00 00 00 00 00 00 00 00 00 00 00 00 00 00 00 00 ................
004073A0 00 00 00 00 00 00 00 00 00 00 00 00 00 00 00 00 ................
004073B0 00 00 00 00 00 00 00 00 00 00 00 00 00 00 00 00 ................
004073C0 00 00 00 00 00 00 00 00 00 00 00 00 00 00 00 00 ................
004073D0 00 00 00 00 00 00 00 00 00 00 00 00 00 00 00 00 ................
004073E0 00 00 00 00 00 00 00 00 00 00 00 00 00 00 00 00 ................
004073F0 00 00 00 00 00 00 00 00 00 00 00 00 00 00 00 00 ................
00407400 00 00 00 00 00 00 00 00 00 00 00 00 00 00 00 00 ................
00407410 00 00 00 00 00 00 00 00 00 00 00 00 00 00 00 00 ................
00407420 00 00 00 00 00 00 00 00 00 00 00 00 00 00 00 00 ................
00407430 00 00 00 00 00 00 00 00 00 00 00 00 00 00 00 00 ................
00407440 00 00 00 00 00 00 00 00 00 00 00 00 00 00 00 00 ................
00407450 00 00 00 00 00 00 00 00 00 00 00 00 00 00 00 00 ................
00407460 00 00 00 00 00 00 00 00 00 00 00 00 00 00 00 00 ................
00407470 00 00 00 00 00 00 00 00 00 00 00 00 00 00 00 00 ................
00407480 00 00 00 00 00 00 00 00 00 00 00 00 00 00 00 00 ................
00407490 00 00 00 00 00 00 00 00 00 00 00 00 00 00 00 00 ................
004074A0 00 00 00 00 00 00 00 00 00 00 00 00 00 00 00 00 ................
004074B0 00 00 00 00 00 00 00 00 00 00 00 00 00 00 00 00 ................
004074C0 00 00 00 00 00 00 00 00 00 00 00 00 00 00 00 00 ................
004074D0 00 00 00 00 00 00 00 00 00 00 00 00 00 00 00 00 ................
004074E0 00 00 00 00 00 00 00 00 00 00 00 00 00 00 00 00 ................
004074F0 00 00 00 00 00 00 00 00 00 00 00 00 00 00 00 00 ................
00407500 00 00 00 00 00 00 00 00 00 00 00 00 00 00 00 00 ................
00407510 00 00 00 00 00 00 00 00 00 00 00 00 00 00 00 00 ................
00407520 00 00 00 00 00 00 00 00 00 00 00 00 00 00 00 00 ................
00407530 00 00 00 00 00 00 00 00 00 00 00 00 00 00 00 00 ................
00407540 00 00 00 00 00 00 00 00 00 00 00 00 00 00 00 00 ................
00407550 00 00 00 00 00 00 00 00 00 00 00 00 00 00 00 00 ................
00407560 00 00 00 00 00 00 00 00 00 00 00 00 00 00 00 00 ................
00407570 00 00 00 00 00 00 00 00 00 00 00 00 00 00 00 00 ................
00407580 00 00 00 00 00 00 00 00 00 00 00 00 00 00 00 00 ................
00407590 00 00 00 00 00 00 00 00 00 00 00 00 00 00 00 00 ................
004075A0 00 00 00 00 00 00 00 00 00 00 00 00 00 00 00 00 ................
004075B0 00 00 00 00 00 00 00 00 00 00 00 00 00 00 00 00 ................
004075C0 00 00 00 00 00 00 00 00 00 00 00 00 00 00 00 00 ................
004075D0 00 00 00 00 00 00 00 00 00 00 00 00 00 00 00 00 ................
004075E0 00 00 00 00 00 00 00 00 00 00 00 00 00 00 00 00 ................
004075F0 00 00 00 00 00 00 00 00 00 00 00 00 00 00 00 00 ................
00407600 00 00 00 00 00 00 00 00 00 00 00 00 00 00 00 00 ................
00407610 00 00 00 00 00 00 00 00 00 00 00 00 00 00 00 00 ................
00407620 00 00 00 00 00 00 00 00 00 00 00 00 00 00 00 00 ................
00407630 00 00 00 00 00 00 00 00 00 00 00 00 00 00 00 00 ................
00407640 00 00 00 00 00 00 00 00 00 00 00 00 00 00 00 00 ................
00407650 00 00 00 00 00 00 00 00 00 00 00 00 00 00 00 00 ................
00407660 00 00 00 00 00 00 00 00 00 00 00 00 00 00 00 00 ................
00407670 00 00 00 00 00 00 00 00 00 00 00 00 00 00 00 00 ................
00407680 00 00 00 00 00 00 00 00 00 00 00 00 00 00 00 00 ................
00407690 00 00 00 00 00 00 00 00 00 00 00 00 00 00 00 00 ................
004076A0 00 00 00 00 00 00 00 00 00 00 00 00 00 00 00 00 ................
004076B0 00 00 00 00 00 00 00 00 00 00 00 00 00 00 00 00 ................
004076C0 00 00 00 00 00 00 00 00 00 00 00 00 00 00 00 00 ................
004076D0 00 00 00 00 00 00 00 00 00 00 00 00 00 00 00 00 ................
004076E0 00 00 00 00 00 00 00 00 00 00 00 00 00 00 00 00 ................
004076F0 00 00 00 00 00 00 00 00 00 00 00 00 00 00 00 00 ................
00407700 00 00 00 00 00 00 00 00 00 00 00 00 00 00 00 00 ................
00407710 00 00 00 00 00 00 00 00 00 00 00 00 00 00 00 00 ................
00407720 00 00 00 00 00 00 00 00 00 00 00 00 00 00 00 00 ................
00407730 00 00 00 00 00 00 00 00 00 00 00 00 00 00 00 00 ................
00407740 00 00 00 00 00 00 00 00 00 00 00 00 00 00 00 00 ................
00407750 00 00 00 00 00 00 00 00 00 00 00 00 00 00 00 00 ................
00407760 00 00 00 00 00 00 00 00 00 00 00 00 00 00 00 00 ................
00407770 00 00 00 00 00 00 00 00 00 00 00 00 00 00 00 00 ................
00407780 00 00 00 00 00 00 00 00 00 00 00 00 00 00 00 00 ................
00407790 00 00 00 00 00 00 00 00 00 00 00 00 00 00 00 00 ................
004077A0 00 00 00 00 00 00 00 00 00 00 00 00 00 00 00 00 ................
004077B0 00 00 00 00 00 00 00 00 00 00 00 00 00 00 00 00 ................
004077C0 00 00 00 00 00 00 00 00 00 00 00 00 00 00 00 00 ................
004077D0 00 00 00 00 00 00 00 00 00 00 00 00 00 00 00 00 ................
004077E0 00 00 00 00 00 00 00 00 00 00 00 00 00 00 00 00 ................
004077F0 00 00 00 00 00 00 00 00 00 00 00 00 00 00 00 00 ................
00407800 00 00 00 00 00 00 00 00 00 00 00 00 00 00 00 00 ................
00407810 00 00 00 00 00 00 00 00 00 00 00 00 00 00 00 00 ................
00407820 00 00 00 00 00 00 00 00 00 00 00 00 00 00 00 00 ................
00407830 00 00 00 00 00 00 00 00 00 00 00 00 00 00 00 00 ................
00407840 00 00 00 00 00 00 00 00 00 00 00 00 00 00 00 00 ................
00407850 00 00 00 00 00 00 00 00 00 00 00 00 00 00 00 00 ................
00407860 00 00 00 00 00 00 00 00 00 00 00 00 00 00 00 00 ................
00407870 00 00 00 00 00 00 00 00 00 00 00 00 00 00 00 00 ................
00407880 00 00 00 00 00 00 00 00 00 00 00 00 00 00 00 00 ................
00407890 00 00 00 00 00 00 00 00 00 00 00 00 00 00 00 00 ................
004078A0 00 00 00 00 00 00 00 00 00 00 00 00 00 00 00 00 ................
004078B0 00 00 00 00 00 00 00 00 00 00 00 00 00 00 00 00 ................
004078C0 00 00 00 00 00 00 00 00 00 00 00 00 00 00 00 00 ................
004078D0 00 00 00 00 00 00 00 00 00 00 00 00 00 00 00 00 ................
004078E0 00 00 00 00 00 00 00 00 00 00 00 00 00 00 00 00 ................
004078F0 00 00 00 00 00 00 00 00 00 00 00 00 00 00 00 00 ................
00407900 00 00 00 00 00 00 00 00 00 00 00 00 00 00 00 00 ................
00407910 00 00 00 00 00 00 00 00 00 00 00 00 00 00 00 00 ................
00407920 00 00 00 00 00 00 00 00 00 00 00 00 00 00 00 00 ................
00407930 00 00 00 00 00 00 00 00 00 00 00 00 00 00 00 00 ................
00407940 00 00 00 00 00 00 00 00 00 00 00 00 00 00 00 00 ................
00407950 00 00 00 00 00 00 00 00 00 00 00 00 00 00 00 00 ................
00407960 00 00 00 00 00 00 00 00 00 00 00 00 00 00 00 00 ................
00407970 00 00 00 00 00 00 00 00 00 00 00 00 00 00 00 00 ................
00407980 00 00 00 00 00 00 00 00 00 00 00 00 00 00 00 00 ................
00407990 00 00 00 00 00 00 00 00 00 00 00 00 00 00 00 00 ................
004079A0 00 00 00 00 00 00 00 00 00 00 00 00 00 00 00 00 ................
004079B0 00 00 00 00 00 00 00 00 00 00 00 00 00 00 00 00 ................
004079C0 00 00 00 00 00 00 00 00 00 00 00 00 00 00 00 00 ................
004079D0 00 00 00 00 00 00 00 00 00 00 00 00 00 00 00 00 ................
004079E0 00 00 00 00 00 00 00 00 00 00 00 00 00 00 00 00 ................
004079F0 00 00 00 00 00 00 00 00 00 00 00 00 00 00 00 00 ................
00407A00 00 00 00 00 00 00 00 00 00 00 00 00 00 00 00 00 ................
00407A10 00 00 00 00 00 00 00 00 00 00 00 00 00 00 00 00 ................
00407A20 00 00 00 00 00 00 00 00 00 00 00 00 00 00 00 00 ................
00407A30 00 00 00 00 00 00 00 00 00 00 00 00 00 00 00 00 ................
00407A40 00 00 00 00 00 00 00 00 00 00 00 00 00 00 00 00 ................
00407A50 00 00 00 00 00 00 00 00 00 00 00 00 00 00 00 00 ................
00407A60 00 00 00 00 00 00 00 00 00 00 00 00 00 00 00 00 ................
00407A70 00 00 00 00 00 00 00 00 00 00 00 00 00 00 00 00 ................
00407A80 00 00 00 00 00 00 00 00 00 00 00 00 00 00 00 00 ................
00407A90 00 00 00 00 00 00 00 00 00 00 00 00 00 00 00 00 ................
00407AA0 00 00 00 00 00 00 00 00 00 00 00 00 00 00 00 00 ................
00407AB0 00 00 00 00 00 00 00 00 00 00 00 00 00 00 00 00 ................
00407AC0 00 00 00 00 00 00 00 00 00 00 00 00 00 00 00 00 ................
00407AD0 00 00 00 00 00 00 00 00 00 00 00 00 00 00 00 00 ................
00407AE0 00 00 00 00 00 00 00 00 00 00 00 00 00 00 00 00 ................
00407AF0 00 00 00 00 00 00 00 00 00 00 00 00 00 00 00 00 ................
00407B00 00 00 00 00 00 00 00 00 00 00 00 00 00 00 00 00 ................
00407B10 00 00 00 00 00 00 00 00 00 00 00 00 00 00 00 00 ................
00407B20 00 00 00 00 00 00 00 00 00 00 00 00 00 00 00 00 ................
00407B30 00 00 00 00 00 00 00 00 00 00 00 00 00 00 00 00 ................
00407B40 00 00 00 00 00 00 00 00 00 00 00 00 00 00 00 00 ................
00407B50 00 00 00 00 00 00 00 00 00 00 00 00 00 00 00 00 ................
00407B60 00 00 00 00 00 00 00 00 00 00 00 00 00 00 00 00 ................
00407B70 00 00 00 00 00 00 00 00 00 00 00 00 00 00 00 00 ................
00407B80 00 00 00 00 00 00 00 00 00 00 00 00 00 00 00 00 ................
00407B90 00 00 00 00 00 00 00 00 00 00 00 00 00 00 00 00 ................
00407BA0 00 00 00 00 00 00 00 00 00 00 00 00 00 00 00 00 ................
00407BB0 00 00 00 00 00 00 00 00 00 00 00 00 00 00 00 00 ................
00407BC0 00 00 00 00 00 00 00 00 00 00 00 00 00 00 00 00 ................
00407BD0 00 00 00 00 00 00 00 00 00 00 00 00 00 00 00 00 ................
00407BE0 00 00 00 00 00 00 00 00 00 00 00 00 00 00 00 00 ................
00407BF0 00 00 00 00 00 00 00 00 00 00 00 00 00 00 00 00 ................
00407C00 00 00 00 00 00 00 00 00 00 00 00 00 00 00 00 00 ................
00407C10 00 00 00 00 00 00 00 00 00 00 00 00 00 00 00 00 ................
00407C20 00 00 00 00 00 00 00 00 00 00 00 00 00 00 00 00 ................
00407C30 00 00 00 00 00 00 00 00 00 00 00 00 00 00 00 00 ................
00407C40 00 00 00 00 00 00 00 00 00 00 00 00 00 00 00 00 ................
00407C50 00 00 00 00 00 00 00 00 00 00 00 00 00 00 00 00 ................
00407C60 00 00 00 00 00 00 00 00 00 00 00 00 00 00 00 00 ................
00407C70 00 00 00 00 00 00 00 00 00 00 00 00 00 00 00 00 ................
00407C80 00 00 00 00 00 00 00 00 00 00 00 00 00 00 00 00 ................
00407C90 00 00 00 00 00 00 00 00 00 00 00 00 00 00 00 00 ................
00407CA0 00 00 00 00 00 00 00 00 00 00 00 00 00 00 00 00 ................
00407CB0 00 00 00 00 00 00 00 00 00 00 00 00 00 00 00 00 ................
00407CC0 00 00 00 00 00 00 00 00 00 00 00 00 00 00 00 00 ................
00407CD0 00 00 00 00 00 00 00 00 00 00 00 00 00 00 00 00 ................
00407CE0 00 00 00 00 00 00 00 00 00 00 00 00 00 00 00 00 ................
00407CF0 00 00 00 00 00 00 00 00 00 00 00 00 00 00 00 00 ................
00407D00 00 00 00 00 00 00 00 00 00 00 00 00 00 00 00 00 ................
00407D10 00 00 00 00 00 00 00 00 00 00 00 00 00 00 00 00 ................
00407D20 00 00 00 00 00 00 00 00 00 00 00 00 00 00 00 00 ................
00407D30 00 00 00 00 00 00 00 00 00 00 00 00 00 00 00 00 ................
00407D40 00 00 00 00 00 00 00 00 00 00 00 00 00 00 00 00 ................
00407D50 00 00 00 00 00 00 00 00 00 00 00 00 00 00 00 00 ................
00407D60 00 00 00 00 00 00 00 00 00 00 00 00 00 00 00 00 ................
00407D70 00 00 00 00 00 00 00 00 00 00 00 00 00 00 00 00 ................
00407D80 00 00 00 00 00 00 00 00 00 00 00 00 00 00 00 00 ................
00407D90 00 00 00 00 00 00 00 00 00 00 00 00 00 00 00 00 ................
00407DA0 00 00 00 00 00 00 00 00 00 00 00 00 00 00 00 00 ................
00407DB0 00 00 00 00 00 00 00 00 00 00 00 00 00 00 00 00 ................
00407DC0 00 00 00 00 00 00 00 00 00 00 00 00 00 00 00 00 ................
00407DD0 00 00 00 00 00 00 00 00 00 00 00 00 00 00 00 00 ................
00407DE0 00 00 00 00 00 00 00 00 00 00 00 00 00 00 00 00 ................
00407DF0 00 00 00 00 00 00 00 00 00 00 00 00 00 00 00 00 ................
00407E00 00 00 00 00 00 00 00 00 00 00 00 00 00 00 00 00 ................
00407E10 00 00 00 00 00 00 00 00 00 00 00 00 00 00 00 00 ................
00407E20 00 00 00 00 00 00 00 00 00 00 00 00 00 00 00 00 ................
00407E30 00 00 00 00 00 00 00 00 00 00 00 00 00 00 00 00 ................
00407E40 00 00 00 00 00 00 00 00 00 00 00 00 00 00 00 00 ................
00407E50 00 00 00 00 00 00 00 00 00 00 00 00 00 00 00 00 ................
00407E60 00 00 00 00 00 00 00 00 00 00 00 00 00 00 00 00 ................
00407E70 00 00 00 00 00 00 00 00 00 00 00 00 00 00 00 00 ................
00407E80 00 00 00 00 00 00 00 00 00 00 00 00 00 00 00 00 ................
00407E90 00 00 00 00 00 00 00 00 00 00 00 00 00 00 00 00 ................
00407EA0 00 00 00 00 00 00 00 00 00 00 00 00 00 00 00 00 ................
00407EB0 00 00 00 00 00 00 00 00 00 00 00 00 00 00 00 00 ................
00407EC0 00 00 00 00 00 00 00 00 00 00 00 00 00 00 00 00 ................
00407ED0 00 00 00 00 00 00 00 00 00 00 00 00 00 00 00 00 ................
00407EE0 00 00 00 00 00 00 00 00 00 00 00 00 00 00 00 00 ................
00407EF0 00 00 00 00 00 00 00 00 00 00 00 00 00 00 00 00 ................
00407F00 00 00 00 00 00 00 00 00 00 00 00 00 00 00 00 00 ................
00407F10 00 00 00 00 00 00 00 00 00 00 00 00 00 00 00 00 ................
00407F20 00 00 00 00 00 00 00 00 00 00 00 00 00 00 00 00 ................
00407F30 00 00 00 00 00 00 00 00 00 00 00 00 00 00 00 00 ................
00407F40 00 00 00 00 00 00 00 00 00 00 00 00 00 00 00 00 ................
00407F50 00 00 00 00 00 00 00 00 00 00 00 00 00 00 00 00 ................
00407F60 00 00 00 00 00 00 00 00 00 00 00 00 00 00 00 00 ................
00407F70 00 00 00 00 00 00 00 00 00 00 00 00 00 00 00 00 ................
00407F80 00 00 00 00 00 00 00 00 00 00 00 00 00 00 00 00 ................
00407F90 00 00 00 00 00 00 00 00 00 00 00 00 00 00 00 00 ................
00407FA0 00 00 00 00 00 00 00 00 00 00 00 00 00 00 00 00 ................
00407FB0 00 00 00 00 00 00 00 00 00 00 00 00 00 00 00 00 ................
00407FC0 00 00 00 00 00 00 00 00 00 00 00 00 00 00 00 00 ................
00407FD0 00 00 00 00 00 00 00 00 00 00 00 00 00 00 00 00 ................
00407FE0 00 00 00 00 00 00 00 00 00 00 00 00 00 00 00 00 ................
00407FF0 00 00 00 00 00 00 00 00 00 00 00 00 00 00 00 00 ................
00408000 00 00 00 00 00 00 00 00 00 00 00 00 00 00 00 00 ................
00408010 00 00 00 00 00 00 00 00 00 00 00 00 00 00 00 00 ................
00408020 00 00 00 00 00 00 00 00 00 00 00 00 00 00 00 00 ................
00408030 00 00 00 00 00 00 00 00 00 00 00 00 00 00 00 00 ................
00408040 00 00 00 00 00 00 00 00 00 00 00 00 00 00 00 00 ................
00408050 00 00 00 00 00 00 00 00 00 00 00 00 00 00 00 00 ................
00408060 00 00 00 00 00 00 00 00 00 00 00 00 00 00 00 00 ................
00408070 00 00 00 00 00 00 00 00 00 00 00 00 00 00 00 00 ................
00408080 00 00 00 00 00 00 00 00 00 00 00 00 00 00 00 00 ................
00408090 00 00 00 00 00 00 00 00 00 00 00 00 00 00 00 00 ................
004080A0 00 00 00 00 00 00 00 00 00 00 00 00 00 00 00 00 ................
004080B0 00 00 00 00 00 00 00 00 00 00 00 00 00 00 00 00 ................
004080C0 00 00 00 00 00 00 00 00 00 00 00 00 00 00 00 00 ................
004080D0 00 00 00 00 00 00 00 00 00 00 00 00 00 00 00 00 ................
004080E0 00 00 00 00 00 00 00 00 00 00 00 00 00 00 00 00 ................
004080F0 00 00 00 00 00 00 00 00 00 00 00 00 00 00 00 00 ................
00408100 00 00 00 00 00 00 00 00 00 00 00 00 00 00 00 00 ................
00408110 00 00 00 00 00 00 00 00 00 00 00 00 00 00 00 00 ................
00408120 00 00 00 00 00 00 00 00 00 00 00 00 00 00 00 00 ................
00408130 00 00 00 00 00 00 00 00 00 00 00 00 00 00 00 00 ................
00408140 00 00 00 00 00 00 00 00 00 00 00 00 00 00 00 00 ................
00408150 00 00 00 00 00 00 00 00 00 00 00 00 00 00 00 00 ................
00408160 00 00 00 00 00 00 00 00 00 00 00 00 00 00 00 00 ................
00408170 00 00 00 00 00 00 00 00 00 00 00 00 00 00 00 00 ................
00408180 00 00 00 00 00 00 00 00 00 00 00 00 00 00 00 00 ................
00408190 00 00 00 00 00 00 00 00 00 00 00 00 00 00 00 00 ................
004081A0 00 00 00 00 00 00 00 00 00 00 00 00 00 00 00 00 ................
004081B0 00 00 00 00 00 00 00 00 00 00 00 00 00 00 00 00 ................
004081C0 00 00 00 00 00 00 00 00 00 00 00 00 00 00 00 00 ................
004081D0 00 00 00 00 00 00 00 00 00 00 00 00 00 00 00 00 ................
004081E0 00 00 00 00 00 00 00 00 00 00 00 00 00 00 00 00 ................
004081F0 00 00 00 00 00 00 00 00 00 00 00 00 00 00 00 00 ................
00408200 00 00 00 00 00 00 00 00 00 00 00 00 00 00 00 00 ................
00408210 00 00 00 00 00 00 00 00 00 00 00 00 00 00 00 00 ................
00408220 00 00 00 00 00 00 00 00 00 00 00 00 00 00 00 00 ................
00408230 00 00 00 00 00 00 00 00 00 00 00 00 00 00 00 00 ................
00408240 00 00 00 00 00 00 00 00 00 00 00 00 00 00 00 00 ................
00408250 00 00 00 00 00 00 00 00 00 00 00 00 00 00 00 00 ................
00408260 00 00 00 00 00 00 00 00 00 00 00 00 00 00 00 00 ................
00408270 00 00 00 00 00 00 00 00 00 00 00 00 00 00 00 00 ................
00408280 00 00 00 00 00 00 00 00 00 00 00 00 00 00 00 00 ................
00408290 00 00 00 00 00 00 00 00 00 00 00 00 00 00 00 00 ................
004082A0 00 00 00 00 00 00 00 00 00 00 00 00 00 00 00 00 ................
004082B0 00 00 00 00 00 00 00 00 00 00 00 00 00 00 00 00 ................
004082C0 00 00 00 00 00 00 00 00 00 00 00 00 00 00 00 00 ................
004082D0 00 00 00 00 00 00 00 00 00 00 00 00 00 00 00 00 ................
004082E0 00 00 00 00 00 00 00 00 00 00 00 00 00 00 00 00 ................
004082F0 00 00 00 00 00 00 00 00 00 00 00 00 00 00 00 00 ................
00408300 00 00 00 00 00 00 00 00 00 00 00 00 00 00 00 00 ................
00408310 00 00 00 00 00 00 00 00 00 00 00 00 00 00 00 00 ................
00408320 00 00 00 00 00 00 00 00 00 00 00 00 00 00 00 00 ................
00408330 00 00 00 00 00 00 00 00 00 00 00 00 00 00 00 00 ................
00408340 00 00 00 00 00 00 00 00 00 00 00 00 00 00 00 00 ................
00408350 00 00 00 00 00 00 00 00 00 00 00 00 00 00 00 00 ................
00408360 00 00 00 00 00 00 00 00 00 00 00 00 00 00 00 00 ................
00408370 00 00 00 00 00 00 00 00 00 00 00 00 00 00 00 00 ................
00408380 00 00 00 00 00 00 00 00 00 00 00 00 00 00 00 00 ................
00408390 00 00 00 00 00 00 00 00 00 00 00 00 00 00 00 00 ................
004083A0 00 00 00 00 00 00 00 00 00 00 00 00 00 00 00 00 ................
004083B0 00 00 00 00 00 00 00 00 00 00 00 00 00 00 00 00 ................
004083C0 00 00 00 00 00 00 00 00 00 00 00 00 00 00 00 00 ................
004083D0 00 00 00 00 00 00 00 00 00 00 00 00 00 00 00 00 ................
004083E0 00 00 00 00 00 00 00 00 00 00 00 00 00 00 00 00 ................
004083F0 00 00 00 00 00 00 00 00 00 00 00 00 00 00 00 00 ................
00408400 00 00 00 00 00 00 00 00 00 00 00 00 00 00 00 00 ................
00408410 00 00 00 00 00 00 00 00 00 00 00 00 00 00 00 00 ................
00408420 00 00 00 00 00 00 00 00 00 00 00 00 00 00 00 00 ................
00408430 00 00 00 00 00 00 00 00 00 00 00 00 00 00 00 00 ................
00408440 00 00 00 00 00 00 00 00 00 00 00 00 00 00 00 00 ................
00408450 00 00 00 00 00 00 00 00 00 00 00 00 00 00 00 00 ................
00408460 00 00 00 00 00 00 00 00 00 00 00 00 00 00 00 00 ................
00408470 00 00 00 00 00 00 00 00 00 00 00 00 00 00 00 00 ................
00408480 00 00 00 00 00 00 00 00 00 00 00 00 00 00 00 00 ................
00408490 00 00 00 00 00 00 00 00 00 00 00 00 00 00 00 00 ................
004084A0 00 00 00 00 00 00 00 00 00 00 00 00 00 00 00 00 ................
004084B0 00 00 00 00 00 00 00 00 00 00 00 00 00 00 00 00 ................
004084C0 00 00 00 00 00 00 00 00 00 00 00 00 00 00 00 00 ................
004084D0 00 00 00 00 00 00 00 00 00 00 00 00 00 00 00 00 ................
004084E0 00 00 00 00 00 00 00 00 00 00 00 00 00 00 00 00 ................
004084F0 00 00 00 00 00 00 00 00 00 00 00 00 00 00 00 00 ................
00408500 00 00 00 00 00 00 00 00 00 00 00 00 00 00 00 00 ................
00408510 00 00 00 00 00 00 00 00 00 00 00 00 00 00 00 00 ................
00408520 00 00 00 00 00 00 00 00 00 00 00 00 00 00 00 00 ................
00408530 00 00 00 00 00 00 00 00 00 00 00 00 00 00 00 00 ................
00408540 00 00 00 00 00 00 00 00 00 00 00 00 00 00 00 00 ................
00408550 00 00 00 00 00 00 00 00 00 00 00 00 00 00 00 00 ................
00408560 00 00 00 00 00 00 00 00 00 00 00 00 00 00 00 00 ................
00408570 00 00 00 00 00 00 00 00 00 00 00 00 00 00 00 00 ................
00408580 00 00 00 00 00 00 00 00 00 00 00 00 00 00 00 00 ................
00408590 00 00 00 00 00 00 00 00 00 00 00 00 00 00 00 00 ................
004085A0 00 00 00 00 00 00 00 00 00 00 00 00 00 00 00 00 ................
004085B0 00 00 00 00 00 00 00 00 00 00 00 00 00 00 00 00 ................
004085C0 00 00 00 00 00 00 00 00 00 00 00 00 00 00 00 00 ................
004085D0 00 00 00 00 00 00 00 00 00 00 00 00 00 00 00 00 ................
004085E0 00 00 00 00 00 00 00 00 00 00 00 00 00 00 00 00 ................
004085F0 00 00 00 00 00 00 00 00 00 00 00 00 00 00 00 00 ................
00408600 00 00 00 00 00 00 00 00 00 00 00 00 00 00 00 00 ................
00408610 00 00 00 00 00 00 00 00 00 00 00 00 00 00 00 00 ................
00408620 00 00 00 00 00 00 00 00 00 00 00 00 00 00 00 00 ................
00408630 00 00 00 00 00 00 00 00 00 00 00 00 00 00 00 00 ................
00408640 00 00 00 00 00 00 00 00 00 00 00 00 00 00 00 00 ................
00408650 00 00 00 00 00 00 00 00 00 00 00 00 00 00 00 00 ................
00408660 00 00 00 00 00 00 00 00 00 00 00 00 00 00 00 00 ................
00408670 00 00 00 00 00 00 00 00 00 00 00 00 00 00 00 00 ................
00408680 00 00 00 00 00 00 00 00 00 00 00 00 00 00 00 00 ................
00408690 00 00 00 00 00 00 00 00 00 00 00 00 00 00 00 00 ................
004086A0 00 00 00 00 00 00 00 00 00 00 00 00 00 00 00 00 ................
004086B0 00 00 00 00 00 00 00 00 00 00 00 00 00 00 00 00 ................
004086C0 00 00 00 00 00 00 00 00 00 00 00 00 00 00 00 00 ................
004086D0 00 00 00 00 00 00 00 00 00 00 00 00 00 00 00 00 ................
004086E0 00 00 00 00 00 00 00 00 00 00 00 00 00 00 00 00 ................
004086F0 00 00 00 00 00 00 00 00 00 00 00 00 00 00 00 00 ................
00408700 00 00 00 00 00 00 00 00 00 00 00 00 00 00 00 00 ................
00408710 00 00 00 00 00 00 00 00 00 00 00 00 00 00 00 00 ................
00408720 00 00 00 00 00 00 00 00 00 00 00 00 00 00 00 00 ................
00408730 00 00 00 00 00 00 00 00 00 00 00 00 00 00 00 00 ................
00408740 00 00 00 00 00 00 00 00 00 00 00 00 00 00 00 00 ................
00408750 00 00 00 00 00 00 00 00 00 00 00 00 00 00 00 00 ................
00408760 00 00 00 00 00 00 00 00 00 00 00 00 00 00 00 00 ................
00408770 00 00 00 00 00 00 00 00 00 00 00 00 00 00 00 00 ................
00408780 00 00 00 00 00 00 00 00 00 00 00 00 00 00 00 00 ................
00408790 00 00 00 00 00 00 00 00 00 00 00 00 00 00 00 00 ................
004087A0 00 00 00 00 00 00 00 00 00 00 00 00 00 00 00 00 ................
004087B0 00 00 00 00 00 00 00 00 00 00 00 00 00 00 00 00 ................
004087C0 00 00 00 00 00 00 00 00 00 00 00 00 00 00 00 00 ................
004087D0 00 00 00 00 00 00 00 00 00 00 00 00 00 00 00 00 ................
004087E0 00 00 00 00 00 00 00 00 00 00 00 00 00 00 00 00 ................
004087F0 00 00 00 00 00 00 00 00 00 00 00 00 00 00 00 00 ................
00408800 00 00 00 00 00 00 00 00 00 00 00 00 00 00 00 00 ................
00408810 00 00 00 00 00 00 00 00 00 00 00 00 00 00 00 00 ................
00408820 00 00 00 00 00 00 00 00 00 00 00 00 00 00 00 00 ................
00408830 00 00 00 00 00 00 00 00 00 00 00 00 00 00 00 00 ................
00408840 00 00 00 00 00 00 00 00 00 00 00 00 00 00 00 00 ................
00408850 00 00 00 00 00 00 00 00 00 00 00 00 00 00 00 00 ................
00408860 00 00 00 00 00 00 00 00 00 00 00 00 00 00 00 00 ................
00408870 00 00 00 00 00 00 00 00 00 00 00 00 00 00 00 00 ................
00408880 00 00 00 00 00 00 00 00 00 00 00 00 00 00 00 00 ................
00408890 00 00 00 00 00 00 00 00 00 00 00 00 00 00 00 00 ................
004088A0 00 00 00 00 00 00 00 00 00 00 00 00 00 00 00 00 ................
004088B0 00 00 00 00 00 00 00 00 00 00 00 00 00 00 00 00 ................
004088C0 00 00 00 00 00 00 00 00 00 00 00 00 00 00 00 00 ................
004088D0 00 00 00 00 00 00 00 00 00 00 00 00 00 00 00 00 ................
004088E0 00 00 00 00 00 00 00 00 00 00 00 00 00 00 00 00 ................
004088F0 00 00 00 00 00 00 00 00 00 00 00 00 00 00 00 00 ................
00408900 00 00 00 00 00 00 00 00 00 00 00 00 00 00 00 00 ................
00408910 00 00 00 00 00 00 00 00 00 00 00 00 00 00 00 00 ................
00408920 00 00 00 00 00 00 00 00 00 00 00 00 00 00 00 00 ................
00408930 00 00 00 00 00 00 00 00 00 00 00 00 00 00 00 00 ................
00408940 00 00 00 00 00 00 00 00 00 00 00 00 00 00 00 00 ................
00408950 00 00 00 00 00 00 00 00 00 00 00 00 00 00 00 00 ................
00408960 00 00 00 00 00 00 00 00 00 00 00 00 00 00 00 00 ................
00408970 00 00 00 00 00 00 00 00 00 00 00 00 00 00 00 00 ................
00408980 00 00 00 00 00 00 00 00 00 00 00 00 00 00 00 00 ................
00408990 00 00 00 00 00 00 00 00 00 00 00 00 00 00 00 00 ................
004089A0 00 00 00 00 00 00 00 00 00 00 00 00 00 00 00 00 ................
004089B0 00 00 00 00 00 00 00 00 00 00 00 00 00 00 00 00 ................
004089C0 00 00 00 00 00 00 00 00 00 00 00 00 00 00 00 00 ................
004089D0 00 00 00 00 00 00 00 00 00 00 00 00 00 00 00 00 ................
004089E0 00 00 00 00 00 00 00 00 00 00 00 00 00 00 00 00 ................
004089F0 00 00 00 00 00 00 00 00 00 00 00 00 00 00 00 00 ................
00408A00 00 00 00 00 00 00 00 00 00 00 00 00 00 00 00 00 ................
00408A10 00 00 00 00 00 00 00 00 00 00 00 00 00 00 00 00 ................
00408A20 00 00 00 00 00 00 00 00 00 00 00 00 00 00 00 00 ................
00408A30 00 00 00 00 00 00 00 00 00 00 00 00 00 00 00 00 ................
00408A40 00 00 00 00 00 00 00 00 00 00 00 00 00 00 00 00 ................
00408A50 00 00 00 00 00 00 00 00 00 00 00 00 00 00 00 00 ................
00408A60 00 00 00 00 00 00 00 00 00 00 00 00 00 00 00 00 ................
00408A70 00 00 00 00 00 00 00 00 00 00 00 00 00 00 00 00 ................
00408A80 00 00 00 00 00 00 00 00 00 00 00 00 00 00 00 00 ................
00408A90 00 00 00 00 00 00 00 00 00 00 00 00 00 00 00 00 ................
00408AA0 00 00 00 00 00 00 00 00 00 00 00 00 00 00 00 00 ................
00408AB0 00 00 00 00 00 00 00 00 00 00 00 00 00 00 00 00 ................
00408AC0 00 00 00 00 00 00 00 00 00 00 00 00 00 00 00 00 ................
00408AD0 00 00 00 00 00 00 00 00 00 00 00 00 00 00 00 00 ................
00408AE0 00 00 00 00 00 00 00 00 00 00 00 00 00 00 00 00 ................
00408AF0 00 00 00 00 00 00 00 00 00 00 00 00 00 00 00 00 ................
00408B00 00 00 00 00 00 00 00 00 00 00 00 00 00 00 00 00 ................
00408B10 00 00 00 00 00 00 00 00 00 00 00 00 00 00 00 00 ................
00408B20 00 00 00 00 00 00 00 00 00 00 00 00 00 00 00 00 ................
00408B30 00 00 00 00 00 00 00 00 00 00 00 00 00 00 00 00 ................
00408B40 00 00 00 00 00 00 00 00 00 00 00 00 00 00 00 00 ................
00408B50 00 00 00 00 00 00 00 00 00 00 00 00 00 00 00 00 ................
00408B60 00 00 00 00 00 00 00 00 00 00 00 00 00 00 00 00 ................
00408B70 00 00 00 00 00 00 00 00 00 00 00 00 00 00 00 00 ................
00408B80 00 00 00 00 00 00 00 00 00 00 00 00 00 00 00 00 ................
00408B90 00 00 00 00 00 00 00 00 00 00 00 00 00 00 00 00 ................
00408BA0 00 00 00 00 00 00 00 00 00 00 00 00 00 00 00 00 ................
00408BB0 00 00 00 00 00 00 00 00 00 00 00 00 00 00 00 00 ................
00408BC0 00 00 00 00 00 00 00 00 00 00 00 00 00 00 00 00 ................
00408BD0 00 00 00 00 00 00 00 00 00 00 00 00 00 00 00 00 ................
00408BE0 00 00 00 00 00 00 00 00 00 00 00 00 00 00 00 00 ................
00408BF0 00 00 00 00 00 00 00 00 00 00 00 00 00 00 00 00 ................
00408C00 00 00 00 00 00 00 00 00 00 00 00 00 00 00 00 00 ................
00408C10 00 00 00 00 00 00 00 00 00 00 00 00 00 00 00 00 ................
00408C20 00 00 00 00 00 00 00 00 00 00 00 00 00 00 00 00 ................
00408C30 00 00 00 00 00 00 00 00 00 00 00 00 00 00 00 00 ................
00408C40 00 00 00 00 00 00 00 00 00 00 00 00 00 00 00 00 ................
00408C50 00 00 00 00 00 00 00 00 00 00 00 00 00 00 00 00 ................
00408C60 00 00 00 00 00 00 00 00 00 00 00 00 00 00 00 00 ................
00408C70 00 00 00 00 00 00 00 00 00 00 00 00 00 00 00 00 ................
00408C80 00 00 00 00 00 00 00 00 00 00 00 00 00 00 00 00 ................
00408C90 00 00 00 00 00 00 00 00 00 00 00 00 00 00 00 00 ................
00408CA0 00 00 00 00 00 00 00 00 00 00 00 00 00 00 00 00 ................
00408CB0 00 00 00 00 00 00 00 00 00 00 00 00 00 00 00 00 ................
00408CC0 00 00 00 00 00 00 00 00 00 00 00 00 00 00 00 00 ................
00408CD0 00 00 00 00 00 00 00 00 00 00 00 00 00 00 00 00 ................
00408CE0 00 00 00 00 00 00 00 00 00 00 00 00 00 00 00 00 ................
00408CF0 00 00 00 00 00 00 00 00 00 00 00 00 00 00 00 00 ................
00408D00 00 00 00 00 00 00 00 00 00 00 00 00 00 00 00 00 ................
00408D10 00 00 00 00 00 00 00 00 00 00 00 00 00 00 00 00 ................
00408D20 00 00 00 00 00 00 00 00 00 00 00 00 00 00 00 00 ................
00408D30 00 00 00 00 00 00 00 00 00 00 00 00 00 00 00 00 ................
00408D40 00 00 00 00 00 00 00 00 00 00 00 00 00 00 00 00 ................
00408D50 00 00 00 00 00 00 00 00 00 00 00 00 00 00 00 00 ................
00408D60 00 00 00 00 00 00 00 00 00 00 00 00 00 00 00 00 ................
00408D70 00 00 00 00 00 00 00 00 00 00 00 00 00 00 00 00 ................
00408D80 00 00 00 00 00 00 00 00 00 00 00 00 00 00 00 00 ................
00408D90 00 00 00 00 00 00 00 00 00 00 00 00 00 00 00 00 ................
00408DA0 00 00 00 00 00 00 00 00 00 00 00 00 00 00 00 00 ................
00408DB0 00 00 00 00 00 00 00 00 00 00 00 00 00 00 00 00 ................
00408DC0 00 00 00 00 00 00 00 00 00 00 00 00 00 00 00 00 ................
00408DD0 00 00 00 00 00 00 00 00 00 00 00 00 00 00 00 00 ................
00408DE0 00 00 00 00 00 00 00 00 00 00 00 00 00 00 00 00 ................
00408DF0 00 00 00 00 00 00 00 00 00 00 00 00 00 00 00 00 ................
00408E00 00 00 00 00 00 00 00 00 00 00 00 00 00 00 00 00 ................
00408E10 00 00 00 00 00 00 00 00 00 00 00 00 00 00 00 00 ................
00408E20 00 00 00 00 00 00 00 00 00 00 00 00 00 00 00 00 ................
00408E30 00 00 00 00 00 00 00 00 00 00 00 00 00 00 00 00 ................
00408E40 00 00 00 00 00 00 00 00 00 00 00 00 00 00 00 00 ................
00408E50 00 00 00 00 00 00 00 00 00 00 00 00 00 00 00 00 ................
00408E60 00 00 00 00 00 00 00 00 00 00 00 00 00 00 00 00 ................
00408E70 00 00 00 00 00 00 00 00 00 00 00 00 00 00 00 00 ................
00408E80 00 00 00 00 00 00 00 00 00 00 00 00 00 00 00 00 ................
00408E90 00 00 00 00 00 00 00 00 00 00 00 00 00 00 00 00 ................
00408EA0 00 00 00 00 00 00 00 00 00 00 00 00 00 00 00 00 ................
00408EB0 00 00 00 00 00 00 00 00 00 00 00 00 00 00 00 00 ................
00408EC0 00 00 00 00 00 00 00 00 00 00 00 00 00 00 00 00 ................
00408ED0 00 00 00 00 00 00 00 00 00 00 00 00 00 00 00 00 ................
00408EE0 00 00 00 00 00 00 00 00 00 00 00 00 00 00 00 00 ................
00408EF0 00 00 00 00 00 00 00 00 00 00 00 00 00 00 00 00 ................
00408F00 00 00 00 00 00 00 00 00 00 00 00 00 00 00 00 00 ................
00408F10 00 00 00 00 00 00 00 00 00 00 00 00 00 00 00 00 ................
00408F20 00 00 00 00 00 00 00 00 00 00 00 00 00 00 00 00 ................
00408F30 00 00 00 00 00 00 00 00 00 00 00 00 00 00 00 00 ................
00408F40 00 00 00 00 00 00 00 00 00 00 00 00 00 00 00 00 ................
00408F50 00 00 00 00 00 00 00 00 00 00 00 00 00 00 00 00 ................
00408F60 00 00 00 00 00 00 00 00 00 00 00 00 00 00 00 00 ................
00408F70 00 00 00 00 00 00 00 00 00 00 00 00 00 00 00 00 ................
00408F80 00 00 00 00 00 00 00 00 00 00 00 00 00 00 00 00 ................
00408F90 00 00 00 00 00 00 00 00 00 00 00 00 00 00 00 00 ................
00408FA0 00 00 00 00 00 00 00 00 00 00 00 00 00 00 00 00 ................
00408FB0 00 00 00 00 00 00 00 00 00 00 00 00 00 00 00 00 ................
00408FC0 00 00 00 00 00 00 00 00 00 00 00 00 00 00 00 00 ................
00408FD0 00 00 00 00 00 00 00 00 00 00 00 00 00 00 00 00 ................
00408FE0 00 00 00 00 00 00 00 00 00 00 00 00 00 00 00 00 ................
00408FF0 00 00 00 00 00 00 00 00 00 00 00 00 00 00 00 00 ................
00409000 00 00 00 00 00 00 00 00 00 00 00 00 00 00 00 00 ................
00409010 00 00 00 00 00 00 00 00 00 00 00 00 00 00 00 00 ................
00409020 00 00 00 00 00 00 00 00 00 00 00 00 00 00 00 00 ................
00409030 00 00 00 00 00 00 00 00 00 00 00 00 00 00 00 00 ................
00409040 00 00 00 00 00 00 00 00 00 00 00 00 00 00 00 00 ................
00409050 00 00 00 00 00 00 00 00 00 00 00 00 00 00 00 00 ................
00409060 00 00 00 00 00 00 00 00 00 00 00 00 00 00 00 00 ................
00409070 00 00 00 00 00 00 00 00 00 00 00 00 00 00 00 00 ................
00409080 00 00 00 00 00 00 00 00 00 00 00 00 00 00 00 00 ................
00409090 00 00 00 00 00 00 00 00 00 00 00 00 00 00 00 00 ................
004090A0 00 00 00 00 00 00 00 00 00 00 00 00 00 00 00 00 ................
004090B0 00 00 00 00 00 00 00 00 00 00 00 00 00 00 00 00 ................
004090C0 00 00 00 00 00 00 00 00 00 00 00 00 00 00 00 00 ................
004090D0 00 00 00 00 00 00 00 00 00 00 00 00 00 00 00 00 ................
004090E0 00 00 00 00 00 00 00 00 00 00 00 00 00 00 00 00 ................
004090F0 00 00 00 00 00 00 00 00 00 00 00 00 00 00 00 00 ................
00409100 00 00 00 00 00 00 00 00 00 00 00 00 00 00 00 00 ................
00409110 00 00 00 00 00 00 00 00 00 00 00 00 00 00 00 00 ................
00409120 00 00 00 00 00 00 00 00 00 00 00 00 00 00 00 00 ................
00409130 00 00 00 00 00 00 00 00 00 00 00 00 00 00 00 00 ................
00409140 00 00 00 00 00 00 00 00 00 00 00 00 00 00 00 00 ................
00409150 00 00 00 00 00 00 00 00 00 00 00 00 00 00 00 00 ................
00409160 00 00 00 00 00 00 00 00 00 00 00 00 00 00 00 00 ................
00409170 00 00 00 00 00 00 00 00 00 00 00 00 00 00 00 00 ................
00409180 00 00 00 00 00 00 00 00 00 00 00 00 00 00 00 00 ................
00409190 00 00 00 00 00 00 00 00 00 00 00 00 00 00 00 00 ................
004091A0 00 00 00 00 00 00 00 00 00 00 00 00 00 00 00 00 ................
004091B0 00 00 00 00 00 00 00 00 00 00 00 00 00 00 00 00 ................
004091C0 00 00 00 00 00 00 00 00 00 00 00 00 00 00 00 00 ................
004091D0 00 00 00 00 00 00 00 00 00 00 00 00 00 00 00 00 ................
004091E0 00 00 00 00 00 00 00 00 00 00 00 00 00 00 00 00 ................
004091F0 00 00 00 00 00 00 00 00 00 00 00 00 00 00 00 00 ................
00409200 00 00 00 00 00 00 00 00 00 00 00 00 00 00 00 00 ................
00409210 00 00 00 00 00 00 00 00 00 00 00 00 00 00 00 00 ................
00409220 00 00 00 00 00 00 00 00 00 00 00 00 00 00 00 00 ................
00409230 00 00 00 00 00 00 00 00 00 00 00 00 00 00 00 00 ................
00409240 00 00 00 00 00 00 00 00 00 00 00 00 00 00 00 00 ................
00409250 00 00 00 00 00 00 00 00 00 00 00 00 00 00 00 00 ................
00409260 00 00 00 00 00 00 00 00 00 00 00 00 00 00 00 00 ................
00409270 00 00 00 00 00 00 00 00 00 00 00 00 00 00 00 00 ................
00409280 00 00 00 00 00 00 00 00 00 00 00 00 00 00 00 00 ................
00409290 00 00 00 00 00 00 00 00 00 00 00 00 00 00 00 00 ................
004092A0 00 00 00 00 00 00 00 00 00 00 00 00 00 00 00 00 ................
004092B0 00 00 00 00 00 00 00 00 00 00 00 00 00 00 00 00 ................
004092C0 00 00 00 00 00 00 00 00 00 00 00 00 00 00 00 00 ................
004092D0 00 00 00 00 00 00 00 00 00 00 00 00 00 00 00 00 ................
004092E0 00 00 00 00 00 00 00 00 00 00 00 00 00 00 00 00 ................
004092F0 00 00 00 00 00 00 00 00 00 00 00 00 00 00 00 00 ................
00409300 00 00 00 00 00 00 00 00 00 00 00 00 00 00 00 00 ................
00409310 00 00 00 00 00 00 00 00 00 00 00 00 00 00 00 00 ................
00409320 00 00 00 00 00 00 00 00 00 00 00 00 00 00 00 00 ................
00409330 00 00 00 00 00 00 00 00 00 00 00 00 00 00 00 00 ................
00409340 00 00 00 00 00 00 00 00 00 00 00 00 00 00 00 00 ................
00409350 00 00 00 00 00 00 00 00 00 00 00 00 00 00 00 00 ................
00409360 00 00 00 00 00 00 00 00 00 00 00 00 00 00 00 00 ................
00409370 00 00 00 00 00 00 00 00 00 00 00 00 00 00 00 00 ................
00409380 00 00 00 00 00 00 00 00 00 00 00 00 00 00 00 00 ................
00409390 00 00 00 00 00 00 00 00 00 00 00 00 00 00 00 00 ................
004093A0 00 00 00 00 00 00 00 00 00 00 00 00 00 00 00 00 ................
004093B0 00 00 00 00 00 00 00 00 00 00 00 00 00 00 00 00 ................
004093C0 00 00 00 00 00 00 00 00 00 00 00 00 00 00 00 00 ................
004093D0 00 00 00 00 00 00 00 00 00 00 00 00 00 00 00 00 ................
004093E0 00 00 00 00 00 00 00 00 00 00 00 00 00 00 00 00 ................
004093F0 00 00 00 00 00 00 00 00 00 00 00 00 00 00 00 00 ................
00409400 00 00 00 00 00 00 00 00 00 00 00 00 00 00 00 00 ................
00409410 00 00 00 00 00 00 00 00 00 00 00 00 00 00 00 00 ................
00409420 00 00 00 00 00 00 00 00 00 00 00 00 00 00 00 00 ................
00409430 00 00 00 00 00 00 00 00 00 00 00 00 00 00 00 00 ................
00409440 00 00 00 00 00 00 00 00 00 00 00 00 00 00 00 00 ................
00409450 00 00 00 00 00 00 00 00 00 00 00 00 00 00 00 00 ................
00409460 00 00 00 00 00 00 00 00 00 00 00 00 00 00 00 00 ................
00409470 00 00 00 00 00 00 00 00 00 00 00 00 00 00 00 00 ................
00409480 00 00 00 00 00 00 00 00 00 00 00 00 00 00 00 00 ................
00409490 00 00 00 00 00 00 00 00 00 00 00 00 00 00 00 00 ................
004094A0 00 00 00 00 00 00 00 00 00 00 00 00 00 00 00 00 ................
004094B0 00 00 00 00 00 00 00 00 00 00 00 00 00 00 00 00 ................
004094C0 00 00 00 00 00 00 00 00 00 00 00 00 00 00 00 00 ................
004094D0 00 00 00 00 00 00 00 00 00 00 00 00 00 00 00 00 ................
004094E0 00 00 00 00 00 00 00 00 00 00 00 00 00 00 00 00 ................
004094F0 00 00 00 00 00 00 00 00 00 00 00 00 00 00 00 00 ................
00409500 00 00 00 00 00 00 00 00 00 00 00 00 00 00 00 00 ................
00409510 00 00 00 00 00 00 00 00 00 00 00 00 00 00 00 00 ................
00409520 00 00 00 00 00 00 00 00 00 00 00 00 00 00 00 00 ................
00409530 00 00 00 00 00 00 00 00 00 00 00 00 00 00 00 00 ................
00409540 00 00 00 00 00 00 00 00 00 00 00 00 00 00 00 00 ................
00409550 00 00 00 00 00 00 00 00 00 00 00 00 00 00 00 00 ................
00409560 00 00 00 00 00 00 00 00 00 00 00 00 00 00 00 00 ................
00409570 00 00 00 00 00 00 00 00 00 00 00 00 00 00 00 00 ................
00409580 00 00 00 00 00 00 00 00 00 00 00 00 00 00 00 00 ................
00409590 00 00 00 00 00 00 00 00 00 00 00 00 00 00 00 00 ................
004095A0 00 00 00 00 00 00 00 00 00 00 00 00 00 00 00 00 ................
004095B0 00 00 00 00 00 00 00 00 00 00 00 00 00 00 00 00 ................
004095C0 00 00 00 00 00 00 00 00 00 00 00 00 00 00 00 00 ................
004095D0 00 00 00 00 00 00 00 00 00 00 00 00 00 00 00 00 ................
004095E0 00 00 00 00 00 00 00 00 00 00 00 00 00 00 00 00 ................
004095F0 00 00 00 00 00 00 00 00 00 00 00 00 00 00 00 00 ................
00409600 00 00 00 00 00 00 00 00 00 00 00 00 00 00 00 00 ................
00409610 00 00 00 00 00 00 00 00 00 00 00 00 00 00 00 00 ................
00409620 00 00 00 00 00 00 00 00 00 00 00 00 00 00 00 00 ................
00409630 00 00 00 00 00 00 00 00 00 00 00 00 00 00 00 00 ................
00409640 00 00 00 00 00 00 00 00 00 00 00 00 00 00 00 00 ................
00409650 00 00 00 00 00 00 00 00 00 00 00 00 00 00 00 00 ................
00409660 00 00 00 00 00 00 00 00 00 00 00 00 00 00 00 00 ................
00409670 00 00 00 00 00 00 00 00 00 00 00 00 00 00 00 00 ................
00409680 00 00 00 00 00 00 00 00 00 00 00 00 00 00 00 00 ................
00409690 00 00 00 00 00 00 00 00 00 00 00 00 00 00 00 00 ................
004096A0 00 00 00 00 00 00 00 00 00 00 00 00 00 00 00 00 ................
004096B0 00 00 00 00 00 00 00 00 00 00 00 00 00 00 00 00 ................
004096C0 00 00 00 00 00 00 00 00 00 00 00 00 00 00 00 00 ................
004096D0 00 00 00 00 00 00 00 00 00 00 00 00 00 00 00 00 ................
004096E0 00 00 00 00 00 00 00 00 00 00 00 00 00 00 00 00 ................
004096F0 00 00 00 00 00 00 00 00 00 00 00 00 00 00 00 00 ................
00409700 00 00 00 00 00 00 00 00 00 00 00 00 00 00 00 00 ................
00409710 00 00 00 00 00 00 00 00 00 00 00 00 00 00 00 00 ................
00409720 00 00 00 00 00 00 00 00 00 00 00 00 00 00 00 00 ................
00409730 00 00 00 00 00 00 00 00 00 00 00 00 00 00 00 00 ................
00409740 00 00 00 00 00 00 00 00 00 00 00 00 00 00 00 00 ................
00409750 00 00 00 00 00 00 00 00 00 00 00 00 00 00 00 00 ................
00409760 00 00 00 00 00 00 00 00 00 00 00 00 00 00 00 00 ................
00409770 00 00 00 00 00 00 00 00 00 00 00 00 00 00 00 00 ................
00409780 00 00 00 00 00 00 00 00 00 00 00 00 00 00 00 00 ................
00409790 00 00 00 00 00 00 00 00 00 00 00 00 00 00 00 00 ................
004097A0 00 00 00 00 00 00 00 00 00 00 00 00 00 00 00 00 ................
004097B0 00 00 00 00 00 00 00 00 00 00 00 00 00 00 00 00 ................
004097C0 00 00 00 00 00 00 00 00 00 00 00 00 00 00 00 00 ................
004097D0 00 00 00 00 00 00 00 00 00 00 00 00 00 00 00 00 ................
004097E0 00 00 00 00 00 00 00 00 00 00 00 00 00 00 00 00 ................
004097F0 00 00 00 00 00 00 00 00 00 00 00 00 00 00 00 00 ................
00409800 00 00 00 00 00 00 00 00 00 00 00 00 00 00 00 00 ................
00409810 00 00 00 00 00 00 00 00 00 00 00 00 00 00 00 00 ................
00409820 00 00 00 00 00 00 00 00 00 00 00 00 00 00 00 00 ................
00409830 00 00 00 00 00 00 00 00 00 00 00 00 00 00 00 00 ................
00409840 00 00 00 00 00 00 00 00 00 00 00 00 00 00 00 00 ................
00409850 00 00 00 00 00 00 00 00 00 00 00 00 00 00 00 00 ................
00409860 00 00 00 00 00 00 00 00 00 00 00 00 00 00 00 00 ................
00409870 00 00 00 00 00 00 00 00 00 00 00 00 00 00 00 00 ................
00409880 00 00 00 00 00 00 00 00 00 00 00 00 00 00 00 00 ................
00409890 00 00 00 00 00 00 00 00 00 00 00 00 00 00 00 00 ................
004098A0 00 00 00 00 00 00 00 00 00 00 00 00 00 00 00 00 ................
004098B0 00 00 00 00 00 00 00 00 00 00 00 00 00 00 00 00 ................
004098C0 00 00 00 00 00 00 00 00 00 00 00 00 00 00 00 00 ................
004098D0 00 00 00 00 00 00 00 00 00 00 00 00 00 00 00 00 ................
004098E0 00 00 00 00 00 00 00 00 00 00 00 00 00 00 00 00 ................
004098F0 00 00 00 00 00 00 00 00 00 00 00 00 00 00 00 00 ................
00409900 00 00 00 00 00 00 00 00 00 00 00 00 00 00 00 00 ................
00409910 00 00 00 00 00 00 00 00 00 00 00 00 00 00 00 00 ................
00409920 00 00 00 00 00 00 00 00 00 00 00 00 00 00 00 00 ................
00409930 00 00 00 00 00 00 00 00 00 00 00 00 00 00 00 00 ................
00409940 00 00 00 00 00 00 00 00 00 00 00 00 00 00 00 00 ................
00409950 00 00 00 00 00 00 00 00 00 00 00 00 00 00 00 00 ................
00409960 00 00 00 00 00 00 00 00 00 00 00 00 00 00 00 00 ................
00409970 00 00 00 00 00 00 00 00 00 00 00 00 00 00 00 00 ................
00409980 00 00 00 00 00 00 00 00 00 00 00 00 00 00 00 00 ................
00409990 00 00 00 00 00 00 00 00 00 00 00 00 00 00 00 00 ................
004099A0 00 00 00 00 00 00 00 00 00 00 00 00 00 00 00 00 ................
004099B0 00 00 00 00 00 00 00 00 00 00 00 00 00 00 00 00 ................
004099C0 00 00 00 00 00 00 00 00 00 00 00 00 00 00 00 00 ................
004099D0 00 00 00 00 00 00 00 00 00 00 00 00 00 00 00 00 ................
004099E0 00 00 00 00 00 00 00 00 00 00 00 00 00 00 00 00 ................
004099F0 00 00 00 00 00 00 00 00 00 00 00 00 00 00 00 00 ................
00409A00 00 00 00 00 00 00 00 00 00 00 00 00 00 00 00 00 ................
00409A10 00 00 00 00 00 00 00 00 00 00 00 00 00 00 00 00 ................
00409A20 00 00 00 00 00 00 00 00 00 00 00 00 00 00 00 00 ................
00409A30 00 00 00 00 00 00 00 00 00 00 00 00 00 00 00 00 ................
00409A40 00 00 00 00 00 00 00 00 00 00 00 00 00 00 00 00 ................
00409A50 00 00 00 00 00 00 00 00 00 00 00 00 00 00 00 00 ................
00409A60 00 00 00 00 00 00 00 00 00 00 00 00 00 00 00 00 ................
00409A70 00 00 00 00 00 00 00 00 00 00 00 00 00 00 00 00 ................
00409A80 00 00 00 00 00 00 00 00 00 00 00 00 00 00 00 00 ................
00409A90 00 00 00 00 00 00 00 00 00 00 00 00 00 00 00 00 ................
00409AA0 00 00 00 00 00 00 00 00 00 00 00 00 00 00 00 00 ................
00409AB0 00 00 00 00 00 00 00 00 00 00 00 00 00 00 00 00 ................
00409AC0 00 00 00 00 00 00 00 00 00 00 00 00 00 00 00 00 ................
00409AD0 00 00 00 00 00 00 00 00 00 00 00 00 00 00 00 00 ................
00409AE0 00 00 00 00 00 00 00 00 00 00 00 00 00 00 00 00 ................
00409AF0 00 00 00 00 00 00 00 00 00 00 00 00 00 00 00 00 ................
00409B00 00 00 00 00 00 00 00 00 00 00 00 00 00 00 00 00 ................
00409B10 00 00 00 00 00 00 00 00 00 00 00 00 00 00 00 00 ................
00409B20 00 00 00 00 00 00 00 00 00 00 00 00 00 00 00 00 ................
00409B30 00 00 00 00 00 00 00 00 00 00 00 00 00 00 00 00 ................
00409B40 00 00 00 00 00 00 00 00 00 00 00 00 00 00 00 00 ................
00409B50 00 00 00 00 00 00 00 00 00 00 00 00 00 00 00 00 ................
00409B60 00 00 00 00 00 00 00 00 00 00 00 00 00 00 00 00 ................
00409B70 00 00 00 00 00 00 00 00 00 00 00 00 00 00 00 00 ................
00409B80 00 00 00 00 00 00 00 00 00 00 00 00 00 00 00 00 ................
00409B90 00 00 00 00 00 00 00 00 00 00 00 00 00 00 00 00 ................
00409BA0 00 00 00 00 00 00 00 00 00 00 00 00 00 00 00 00 ................
00409BB0 00 00 00 00 00 00 00 00 00 00 00 00 00 00 00 00 ................
00409BC0 00 00 00 00 00 00 00 00 00 00 00 00 00 00 00 00 ................
00409BD0 00 00 00 00 00 00 00 00 00 00 00 00 00 00 00 00 ................
00409BE0 00 00 00 00 00 00 00 00 00 00 00 00 00 00 00 00 ................
00409BF0 00 00 00 00 00 00 00 00 00 00 00 00 00 00 00 00 ................
00409C00 00 00 00 00 00 00 00 00 00 00 00 00 00 00 00 00 ................
00409C10 00 00 00 00 00 00 00 00 00 00 00 00 00 00 00 00 ................
00409C20 00 00 00 00 00 00 00 00 00 00 00 00 00 00 00 00 ................
00409C30 00 00 00 00 00 00 00 00 00 00 00 00 00 00 00 00 ................
00409C40 00 00 00 00 00 00 00 00 00 00 00 00 00 00 00 00 ................
00409C50 00 00 00 00 00 00 00 00 00 00 00 00 00 00 00 00 ................
00409C60 00 00 00 00 00 00 00 00 00 00 00 00 00 00 00 00 ................
00409C70 00 00 00 00 00 00 00 00 00 00 00 00 00 00 00 00 ................
00409C80 00 00 00 00 00 00 00 00 00 00 00 00 00 00 00 00 ................
00409C90 00 00 00 00 00 00 00 00 00 00 00 00 00 00 00 00 ................
00409CA0 00 00 00 00 00 00 00 00 00 00 00 00 00 00 00 00 ................
00409CB0 00 00 00 00 00 00 00 00 00 00 00 00 00 00 00 00 ................
00409CC0 00 00 00 00 00 00 00 00 00 00 00 00 00 00 00 00 ................
00409CD0 00 00 00 00 00 00 00 00 00 00 00 00 00 00 00 00 ................
00409CE0 00 00 00 00 00 00 00 00 00 00 00 00 00 00 00 00 ................
00409CF0 00 00 00 00 00 00 00 00 00 00 00 00 00 00 00 00 ................
00409D00 00 00 00 00 00 00 00 00 00 00 00 00 00 00 00 00 ................
00409D10 00 00 00 00 00 00 00 00 00 00 00 00 00 00 00 00 ................
00409D20 00 00 00 00 00 00 00 00 00 00 00 00 00 00 00 00 ................
00409D30 00 00 00 00 00 00 00 00 00 00 00 00 00 00 00 00 ................
00409D40 00 00 00 00 00 00 00 00 00 00 00 00 00 00 00 00 ................
00409D50 00 00 00 00 00 00 00 00 00 00 00 00 00 00 00 00 ................
00409D60 00 00 00 00 00 00 00 00 00 00 00 00 00 00 00 00 ................
00409D70 00 00 00 00 00 00 00 00 00 00 00 00 00 00 00 00 ................
00409D80 00 00 00 00 00 00 00 00 00 00 00 00 00 00 00 00 ................
00409D90 00 00 00 00 00 00 00 00 00 00 00 00 00 00 00 00 ................
00409DA0 00 00 00 00 00 00 00 00 00 00 00 00 00 00 00 00 ................
00409DB0 00 00 00 00 00 00 00 00 00 00 00 00 00 00 00 00 ................
00409DC0 00 00 00 00 00 00 00 00 00 00 00 00 00 00 00 00 ................
00409DD0 00 00 00 00 00 00 00 00 00 00 00 00 00 00 00 00 ................
00409DE0 00 00 00 00 00 00 00 00 00 00 00 00 00 00 00 00 ................
00409DF0 00 00 00 00 00 00 00 00 00 00 00 00 00 00 00 00 ................
00409E00 00 00 00 00 00 00 00 00 00 00 00 00 00 00 00 00 ................
00409E10 00 00 00 00 00 00 00 00 00 00 00 00 00 00 00 00 ................
00409E20 00 00 00 00 00 00 00 00 00 00 00 00 00 00 00 00 ................
00409E30 00 00 00 00 00 00 00 00 00 00 00 00 00 00 00 00 ................
00409E40 00 00 00 00 00 00 00 00 00 00 00 00 00 00 00 00 ................
00409E50 00 00 00 00 00 00 00 00 00 00 00 00 00 00 00 00 ................
00409E60 00 00 00 00 00 00 00 00 00 00 00 00 00 00 00 00 ................
00409E70 00 00 00 00 00 00 00 00 00 00 00 00 00 00 00 00 ................
00409E80 00 00 00 00 00 00 00 00 00 00 00 00 00 00 00 00 ................
00409E90 00 00 00 00 00 00 00 00 00 00 00 00 00 00 00 00 ................
00409EA0 00 00 00 00 00 00 00 00 00 00 00 00 00 00 00 00 ................
00409EB0 00 00 00 00 00 00 00 00 00 00 00 00 00 00 00 00 ................
00409EC0 00 00 00 00 00 00 00 00 00 00 00 00 00 00 00 00 ................
00409ED0 00 00 00 00 00 00 00 00 00 00 00 00 00 00 00 00 ................
00409EE0 00 00 00 00 00 00 00 00 00 00 00 00 00 00 00 00 ................
00409EF0 00 00 00 00 00 00 00 00 00 00 00 00 00 00 00 00 ................
00409F00 00 00 00 00 00 00 00 00 00 00 00 00 00 00 00 00 ................
00409F10 00 00 00 00 00 00 00 00 00 00 00 00 00 00 00 00 ................
00409F20 00 00 00 00 00 00 00 00 00 00 00 00 00 00 00 00 ................
00409F30 00 00 00 00 00 00 00 00 00 00 00 00 00 00 00 00 ................
00409F40 00 00 00 00 00 00 00 00 00 00 00 00 00 00 00 00 ................
00409F50 00 00 00 00 00 00 00 00 00 00 00 00 00 00 00 00 ................
00409F60 00 00 00 00 00 00 00 00 00 00 00 00 00 00 00 00 ................
00409F70 00 00 00 00 00 00 00 00 00 00 00 00 00 00 00 00 ................
00409F80 00 00 00 00 00 00 00 00 00 00 00 00 00 00 00 00 ................
00409F90 00 00 00 00 00 00 00 00 00 00 00 00 00 00 00 00 ................
00409FA0 00 00 00 00 00 00 00 00 00 00 00 00 00 00 00 00 ................
00409FB0 00 00 00 00 00 00 00 00 00 00 00 00 00 00 00 00 ................
00409FC0 00 00 00 00 00 00 00 00 00 00 00 00 00 00 00 00 ................
00409FD0 00 00 00 00 00 00 00 00 00 00 00 00 00 00 00 00 ................
00409FE0 00 00 00 00 00 00 00 00 00 00 00 00 00 00 00 00 ................
00409FF0 00 00 00 00 00 00 00 00 00 00 00 00 00 00 00 00 ................
0040A000 00 00 00 00 00 00 00 00 00 00 00 00 00 00 00 00 ................
0040A010 00 00 00 00 00 00 00 00 00 00 00 00 00 00 00 00 ................
0040A020 00 00 00 00 00 00 00 00 00 00 00 00 00 00 00 00 ................
0040A030 00 00 00 00 00 00 00 00 00 00 00 00 00 00 00 00 ................
0040A040 00 00 00 00 00 00 00 00 00 00 00 00 00 00 00 00 ................
0040A050 00 00 00 00 00 00 00 00 00 00 00 00 00 00 00 00 ................
0040A060 00 00 00 00 00 00 00 00 00 00 00 00 00 00 00 00 ................
0040A070 00 00 00 00 00 00 00 00 00 00 00 00 00 00 00 00 ................
0040A080 00 00 00 00 00 00 00 00 00 00 00 00 00 00 00 00 ................
0040A090 00 00 00 00 00 00 00 00 00 00 00 00 00 00 00 00 ................
0040A0A0 00 00 00 00 00 00 00 00 00 00 00 00 00 00 00 00 ................
0040A0B0 00 00 00 00 00 00 00 00 00 00 00 00 00 00 00 00 ................
0040A0C0 00 00 00 00 00 00 00 00 00 00 00 00 00 00 00 00 ................
0040A0D0 00 00 00 00 00 00 00 00 00 00 00 00 00 00 00 00 ................
0040A0E0 00 00 00 00 00 00 00 00 00 00 00 00 00 00 00 00 ................
0040A0F0 00 00 00 00 00 00 00 00 00 00 00 00 00 00 00 00 ................
0040A100 00 00 00 00 00 00 00 00 00 00 00 00 00 00 00 00 ................
0040A110 00 00 00 00 00 00 00 00 00 00 00 00 00 00 00 00 ................
0040A120 00 00 00 00 00 00 00 00 00 00 00 00 00 00 00 00 ................
0040A130 00 00 00 00 00 00 00 00 00 00 00 00 00 00 00 00 ................
0040A140 00 00 00 00 00 00 00 00 00 00 00 00 00 00 00 00 ................
0040A150 00 00 00 00 00 00 00 00 00 00 00 00 00 00 00 00 ................
0040A160 00 00 00 00 00 00 00 00 00 00 00 00 00 00 00 00 ................
0040A170 00 00 00 00 00 00 00 00 00 00 00 00 00 00 00 00 ................
0040A180 00 00 00 00 00 00 00 00 00 00 00 00 00 00 00 00 ................
0040A190 00 00 00 00 00 00 00 00 00 00 00 00 00 00 00 00 ................
0040A1A0 00 00 00 00 00 00 00 00 00 00 00 00 00 00 00 00 ................
0040A1B0 00 00 00 00 00 00 00 00 00 00 00 00 00 00 00 00 ................
0040A1C0 00 00 00 00 00 00 00 00 00 00 00 00 00 00 00 00 ................
0040A1D0 00 00 00 00 00 00 00 00 00 00 00 00 00 00 00 00 ................
0040A1E0 00 00 00 00 00 00 00 00 00 00 00 00 00 00 00 00 ................
0040A1F0 00 00 00 00 00 00 00 00 00 00 00 00 00 00 00 00 ................
0040A200 00 00 00 00 00 00 00 00 00 00 00 00 00 00 00 00 ................
0040A210 00 00 00 00 00 00 00 00 00 00 00 00 00 00 00 00 ................
0040A220 00 00 00 00 00 00 00 00 00 00 00 00 00 00 00 00 ................
0040A230 00 00 00 00 00 00 00 00 00 00 00 00 00 00 00 00 ................
0040A240 00 00 00 00 00 00 00 00 00 00 00 00 00 00 00 00 ................
0040A250 00 00 00 00 00 00 00 00 00 00 00 00 00 00 00 00 ................
0040A260 00 00 00 00 00 00 00 00 00 00 00 00 00 00 00 00 ................
0040A270 00 00 00 00 00 00 00 00 00 00 00 00 00 00 00 00 ................
0040A280 00 00 00 00 00 00 00 00 00 00 00 00 00 00 00 00 ................
0040A290 00 00 00 00 00 00 00 00 00 00 00 00 00 00 00 00 ................
0040A2A0 00 00 00 00 00 00 00 00 00 00 00 00 00 00 00 00 ................
0040A2B0 00 00 00 00 00 00 00 00 00 00 00 00 00 00 00 00 ................
0040A2C0 00 00 00 00 00 00 00 00 00 00 00 00 00 00 00 00 ................
0040A2D0 00 00 00 00 00 00 00 00 00 00 00 00 00 00 00 00 ................
0040A2E0 00 00 00 00 00 00 00 00 00 00 00 00 00 00 00 00 ................
0040A2F0 00 00 00 00 00 00 00 00 00 00 00 00 00 00 00 00 ................
0040A300 00 00 00 00 00 00 00 00 00 00 00 00 00 00 00 00 ................
0040A310 00 00 00 00 00 00 00 00 00 00 00 00 00 00 00 00 ................
0040A320 00 00 00 00 00 00 00 00 00 00 00 00 00 00 00 00 ................
0040A330 00 00 00 00 00 00 00 00 00 00 00 00 00 00 00 00 ................
0040A340 00 00 00 00 00 00 00 00 00 00 00 00 00 00 00 00 ................
0040A350 00 00 00 00 00 00 00 00 00 00 00 00 00 00 00 00 ................
0040A360 00 00 00 00 00 00 00 00 00 00 00 00 00 00 00 00 ................
0040A370 00 00 00 00 00 00 00 00 00 00 00 00 00 00 00 00 ................
0040A380 00 00 00 00 00 00 00 00 00 00 00 00 00 00 00 00 ................
0040A390 00 00 00 00 00 00 00 00 00 00 00 00 00 00 00 00 ................
0040A3A0 00 00 00 00 00 00 00 00 00 00 00 00 00 00 00 00 ................
0040A3B0 00 00 00 00 00 00 00 00 00 00 00 00 00 00 00 00 ................
0040A3C0 00 00 00 00 00 00 00 00 00 00 00 00 00 00 00 00 ................
0040A3D0 00 00 00 00 00 00 00 00 00 00 00 00 00 00 00 00 ................
0040A3E0 00 00 00 00 00 00 00 00 00 00 00 00 00 00 00 00 ................
0040A3F0 00 00 00 00 00 00 00 00 00 00 00 00 00 00 00 00 ................
0040A400 00 00 00 00 00 00 00 00 00 00 00 00 00 00 00 00 ................
0040A410 00 00 00 00 00 00 00 00 00 00 00 00 00 00 00 00 ................
0040A420 00 00 00 00 00 00 00 00 00 00 00 00 00 00 00 00 ................
0040A430 00 00 00 00 00 00 00 00 00 00 00 00 00 00 00 00 ................
0040A440 00 00 00 00 00 00 00 00 00 00 00 00 00 00 00 00 ................
0040A450 00 00 00 00 00 00 00 00 00 00 00 00 00 00 00 00 ................
0040A460 00 00 00 00 00 00 00 00 00 00 00 00 00 00 00 00 ................
0040A470 00 00 00 00 00 00 00 00 00 00 00 00 00 00 00 00 ................
0040A480 00 00 00 00 00 00 00 00 00 00 00 00 00 00 00 00 ................
0040A490 00 00 00 00 00 00 00 00 00 00 00 00 00 00 00 00 ................
0040A4A0 00 00 00 00 00 00 00 00 00 00 00 00 00 00 00 00 ................
0040A4B0 00 00 00 00 00 00 00 00 00 00 00 00 00 00 00 00 ................
0040A4C0 00 00 00 00 00 00 00 00 00 00 00 00 00 00 00 00 ................
0040A4D0 00 00 00 00 00 00 00 00 00 00 00 00 00 00 00 00 ................
0040A4E0 00 00 00 00 00 00 00 00 00 00 00 00 00 00 00 00 ................
0040A4F0 00 00 00 00 00 00 00 00 00 00 00 00 00 00 00 00 ................
0040A500 00 00 00 00 00 00 00 00 00 00 00 00 00 00 00 00 ................
0040A510 00 00 00 00 00 00 00 00 00 00 00 00 00 00 00 00 ................
0040A520 00 00 00 00 00 00 00 00 00 00 00 00 00 00 00 00 ................
0040A530 00 00 00 00 00 00 00 00 00 00 00 00 00 00 00 00 ................
0040A540 00 00 00 00 00 00 00 00 00 00 00 00 00 00 00 00 ................
0040A550 00 00 00 00 00 00 00 00 00 00 00 00 00 00 00 00 ................
0040A560 00 00 00 00 00 00 00 00 00 00 00 00 00 00 00 00 ................
0040A570 00 00 00 00 00 00 00 00 00 00 00 00 00 00 00 00 ................
0040A580 00 00 00 00 00 00 00 00 00 00 00 00 00 00 00 00 ................
0040A590 00 00 00 00 00 00 00 00 00 00 00 00 00 00 00 00 ................
0040A5A0 00 00 00 00 00 00 00 00 00 00 00 00 00 00 00 00 ................
0040A5B0 00 00 00 00 00 00 00 00 00 00 00 00 00 00 00 00 ................
0040A5C0 00 00 00 00 00 00 00 00 00 00 00 00 00 00 00 00 ................
0040A5D0 00 00 00 00 00 00 00 00 00 00 00 00 00 00 00 00 ................
0040A5E0 00 00 00 00 00 00 00 00 00 00 00 00 00 00 00 00 ................
0040A5F0 00 00 00 00 00 00 00 00 00 00 00 00 00 00 00 00 ................
0040A600 00 00 00 00 00 00 00 00 00 00 00 00 00 00 00 00 ................
0040A610 00 00 00 00 00 00 00 00 00 00 00 00 00 00 00 00 ................
0040A620 00 00 00 00 00 00 00 00 00 00 00 00 00 00 00 00 ................
0040A630 00 00 00 00 00 00 00 00 00 00 00 00 00 00 00 00 ................
0040A640 00 00 00 00 00 00 00 00 00 00 00 00 00 00 00 00 ................
0040A650 00 00 00 00 00 00 00 00 00 00 00 00 00 00 00 00 ................
0040A660 00 00 00 00 00 00 00 00 00 00 00 00 00 00 00 00 ................
0040A670 00 00 00 00 00 00 00 00 00 00 00 00 00 00 00 00 ................
0040A680 00 00 00 00 00 00 00 00 00 00 00 00 00 00 00 00 ................
0040A690 00 00 00 00 00 00 00 00 00 00 00 00 00 00 00 00 ................
0040A6A0 00 00 00 00 00 00 00 00 00 00 00 00 00 00 00 00 ................
0040A6B0 00 00 00 00 00 00 00 00 00 00 00 00 00 00 00 00 ................
0040A6C0 00 00 00 00 00 00 00 00 00 00 00 00 00 00 00 00 ................
0040A6D0 00 00 00 00 00 00 00 00 00 00 00 00 00 00 00 00 ................
0040A6E0 00 00 00 00 00 00 00 00 00 00 00 00 00 00 00 00 ................
0040A6F0 00 00 00 00 00 00 00 00 00 00 00 00 00 00 00 00 ................
0040A700 00 00 00 00 00 00 00 00 00 00 00 00 00 00 00 00 ................
0040A710 00 00 00 00 00 00 00 00 00 00 00 00 00 00 00 00 ................
0040A720 00 00 00 00 00 00 00 00 00 00 00 00 00 00 00 00 ................
0040A730 00 00 00 00 00 00 00 00 00 00 00 00 00 00 00 00 ................
0040A740 00 00 00 00 00 00 00 00 00 00 00 00 00 00 00 00 ................
0040A750 00 00 00 00 00 00 00 00 00 00 00 00 00 00 00 00 ................
0040A760 00 00 00 00 00 00 00 00 00 00 00 00 00 00 00 00 ................
0040A770 00 00 00 00 00 00 00 00 00 00 00 00 00 00 00 00 ................
0040A780 00 00 00 00 00 00 00 00 00 00 00 00 00 00 00 00 ................
0040A790 00 00 00 00 00 00 00 00 00 00 00 00 00 00 00 00 ................
0040A7A0 00 00 00 00 00 00 00 00 00 00 00 00 00 00 00 00 ................
0040A7B0 00 00 00 00 00 00 00 00 00 00 00 00 00 00 00 00 ................
0040A7C0 00 00 00 00 00 00 00 00 00 00 00 00 00 00 00 00 ................
0040A7D0 00 00 00 00 00 00 00 00 00 00 00 00 00 00 00 00 ................
0040A7E0 00 00 00 00 00 00 00 00 00 00 00 00 00 00 00 00 ................
0040A7F0 00 00 00 00 00 00 00 00 00 00 00 00 00 00 00 00 ................
0040A800 00 00 00 00 00 00 00 00 00 00 00 00 00 00 00 00 ................
0040A810 00 00 00 00 00 00 00 00 00 00 00 00 00 00 00 00 ................
0040A820 00 00 00 00 00 00 00 00 00 00 00 00 00 00 00 00 ................
0040A830 00 00 00 00 00 00 00 00 00 00 00 00 00 00 00 00 ................
0040A840 00 00 00 00 00 00 00 00 00 00 00 00 00 00 00 00 ................
0040A850 00 00 00 00 00 00 00 00 00 00 00 00 00 00 00 00 ................
0040A860 00 00 00 00 00 00 00 00 00 00 00 00 00 00 00 00 ................
0040A870 00 00 00 00 00 00 00 00 00 00 00 00 00 00 00 00 ................
0040A880 00 00 00 00 00 00 00 00 00 00 00 00 00 00 00 00 ................
0040A890 00 00 00 00 00 00 00 00 00 00 00 00 00 00 00 00 ................
0040A8A0 00 00 00 00 00 00 00 00 00 00 00 00 00 00 00 00 ................
0040A8B0 00 00 00 00 00 00 00 00 00 00 00 00 00 00 00 00 ................
0040A8C0 00 00 00 00 00 00 00 00 00 00 00 00 00 00 00 00 ................
0040A8D0 00 00 00 00 00 00 00 00 00 00 00 00 00 00 00 00 ................
0040A8E0 00 00 00 00 00 00 00 00 00 00 00 00 00 00 00 00 ................
0040A8F0 00 00 00 00 00 00 00 00 00 00 00 00 00 00 00 00 ................
0040A900 00 00 00 00 00 00 00 00 00 00 00 00 00 00 00 00 ................
0040A910 00 00 00 00 00 00 00 00 00 00 00 00 00 00 00 00 ................
0040A920 00 00 00 00 00 00 00 00 00 00 00 00 00 00 00 00 ................
0040A930 00 00 00 00 00 00 00 00 00 00 00 00 00 00 00 00 ................
0040A940 00 00 00 00 00 00 00 00 00 00 00 00 00 00 00 00 ................
0040A950 00 00 00 00 00 00 00 00 00 00 00 00 00 00 00 00 ................
0040A960 00 00 00 00 00 00 00 00 00 00 00 00 00 00 00 00 ................
0040A970 00 00 00 00 00 00 00 00 00 00 00 00 00 00 00 00 ................
0040A980 00 00 00 00 00 00 00 00 00 00 00 00 00 00 00 00 ................
0040A990 00 00 00 00 00 00 00 00 00 00 00 00 00 00 00 00 ................
0040A9A0 00 00 00 00 00 00 00 00 00 00 00 00 00 00 00 00 ................
0040A9B0 00 00 00 00 00 00 00 00 00 00 00 00 00 00 00 00 ................
0040A9C0 00 00 00 00 00 00 00 00 00 00 00 00 00 00 00 00 ................
0040A9D0 00 00 00 00 00 00 00 00 00 00 00 00 00 00 00 00 ................
0040A9E0 00 00 00 00 00 00 00 00 00 00 00 00 00 00 00 00 ................
0040A9F0 00 00 00 00 00 00 00 00 00 00 00 00 00 00 00 00 ................
0040AA00 00 00 00 00 00 00 00 00 00 00 00 00 00 00 00 00 ................
0040AA10 00 00 00 00 00 00 00 00 00 00 00 00 00 00 00 00 ................
0040AA20 00 00 00 00 00 00 00 00 00 00 00 00 00 00 00 00 ................
0040AA30 00 00 00 00 00 00 00 00 00 00 00 00 00 00 00 00 ................
0040AA40 00 00 00 00 00 00 00 00 00 00 00 00 00 00 00 00 ................
0040AA50 00 00 00 00 00 00 00 00 00 00 00 00 00 00 00 00 ................
0040AA60 00 00 00 00 00 00 00 00 00 00 00 00 00 00 00 00 ................
0040AA70 00 00 00 00 00 00 00 00 00 00 00 00 00 00 00 00 ................
0040AA80 00 00 00 00 00 00 00 00 00 00 00 00 00 00 00 00 ................
0040AA90 00 00 00 00 00 00 00 00 00 00 00 00 00 00 00 00 ................
0040AAA0 00 00 00 00 00 00 00 00 00 00 00 00 00 00 00 00 ................
0040AAB0 00 00 00 00 00 00 00 00 00 00 00 00 00 00 00 00 ................
0040AAC0 00 00 00 00 00 00 00 00 00 00 00 00 00 00 00 00 ................
0040AAD0 00 00 00 00 00 00 00 00 00 00 00 00 00 00 00 00 ................
0040AAE0 00 00 00 00 00 00 00 00 00 00 00 00 00 00 00 00 ................
0040AAF0 00 00 00 00 00 00 00 00 00 00 00 00 00 00 00 00 ................
0040AB00 00 00 00 00 00 00 00 00 00 00 00 00 00 00 00 00 ................
0040AB10 00 00 00 00 00 00 00 00 00 00 00 00 00 00 00 00 ................
0040AB20 00 00 00 00 00 00 00 00 00 00 00 00 00 00 00 00 ................
0040AB30 00 00 00 00 00 00 00 00 00 00 00 00 00 00 00 00 ................
0040AB40 00 00 00 00 00 00 00 00 00 00 00 00 00 00 00 00 ................
0040AB50 00 00 00 00 00 00 00 00 00 00 00 00 00 00 00 00 ................
0040AB60 00 00 00 00 00 00 00 00 00 00 00 00 00 00 00 00 ................
0040AB70 00 00 00 00 00 00 00 00 00 00 00 00 00 00 00 00 ................
0040AB80 00 00 00 00 00 00 00 00 00 00 00 00 00 00 00 00 ................
0040AB90 00 00 00 00 00 00 00 00 00 00 00 00 00 00 00 00 ................
0040ABA0 00 00 00 00 00 00 00 00 00 00 00 00 00 00 00 00 ................
0040ABB0 00 00 00 00 00 00 00 00 00 00 00 00 00 00 00 00 ................
0040ABC0 00 00 00 00 00 00 00 00 00 00 00 00 00 00 00 00 ................
0040ABD0 00 00 00 00 00 00 00 00 00 00 00 00 00 00 00 00 ................
0040ABE0 00 00 00 00 00 00 00 00 00 00 00 00 00 00 00 00 ................
0040ABF0 00 00 00 00 00 00 00 00 00 00 00 00 00 00 00 00 ................
0040AC00 00 00 00 00 00 00 00 00 00 00 00 00 00 00 00 00 ................
0040AC10 00 00 00 00 00 00 00 00 00 00 00 00 00 00 00 00 ................
0040AC20 00 00 00 00 00 00 00 00 00 00 00 00 00 00 00 00 ................
0040AC30 00 00 00 00 00 00 00 00 00 00 00 00 00 00 00 00 ................
0040AC40 00 00 00 00 00 00 00 00 00 00 00 00 00 00 00 00 ................
0040AC50 00 00 00 00 00 00 00 00 00 00 00 00 00 00 00 00 ................
0040AC60 00 00 00 00 00 00 00 00 00 00 00 00 00 00 00 00 ................
0040AC70 00 00 00 00 00 00 00 00 00 00 00 00 00 00 00 00 ................
0040AC80 00 00 00 00 00 00 00 00 00 00 00 00 00 00 00 00 ................
0040AC90 00 00 00 00 00 00 00 00 00 00 00 00 00 00 00 00 ................
0040ACA0 00 00 00 00 00 00 00 00 00 00 00 00 00 00 00 00 ................
0040ACB0 00 00 00 00 00 00 00 00 00 00 00 00 00 00 00 00 ................
0040ACC0 00 00 00 00 00 00 00 00 00 00 00 00 00 00 00 00 ................
0040ACD0 00 00 00 00 00 00 00 00 00 00 00 00 00 00 00 00 ................
0040ACE0 00 00 00 00 00 00 00 00 00 00 00 00 00 00 00 00 ................
0040ACF0 00 00 00 00 00 00 00 00 00 00 00 00 00 00 00 00 ................
0040AD00 00 00 00 00 00 00 00 00 00 00 00 00 00 00 00 00 ................
0040AD10 00 00 00 00 00 00 00 00 00 00 00 00 00 00 00 00 ................
0040AD20 00 00 00 00 00 00 00 00 00 00 00 00 00 00 00 00 ................
0040AD30 00 00 00 00 00 00 00 00 00 00 00 00 00 00 00 00 ................
0040AD40 00 00 00 00 00 00 00 00 00 00 00 00 00 00 00 00 ................
0040AD50 00 00 00 00 00 00 00 00 00 00 00 00 00 00 00 00 ................
0040AD60 00 00 00 00 00 00 00 00 00 00 00 00 00 00 00 00 ................
0040AD70 00 00 00 00 00 00 00 00 00 00 00 00 00 00 00 00 ................
0040AD80 00 00 00 00 00 00 00 00 00 00 00 00 00 00 00 00 ................
0040AD90 00 00 00 00 00 00 00 00 00 00 00 00 00 00 00 00 ................
0040ADA0 00 00 00 00 00 00 00 00 00 00 00 00 00 00 00 00 ................
0040ADB0 00 00 00 00 00 00 00 00 00 00 00 00 00 00 00 00 ................
0040ADC0 00 00 00 00 00 00 00 00 00 00 00 00 00 00 00 00 ................
0040ADD0 00 00 00 00 00 00 00 00 00 00 00 00 00 00 00 00 ................
0040ADE0 00 00 00 00 00 00 00 00 00 00 00 00 00 00 00 00 ................
0040ADF0 00 00 00 00 00 00 00 00 00 00 00 00 00 00 00 00 ................
0040AE00 00 00 00 00 00 00 00 00 00 00 00 00 00 00 00 00 ................
0040AE10 00 00 00 00 00 00 00 00 00 00 00 00 00 00 00 00 ................
0040AE20 00 00 00 00 00 00 00 00 00 00 00 00 00 00 00 00 ................
0040AE30 00 00 00 00 00 00 00 00 00 00 00 00 00 00 00 00 ................
0040AE40 00 00 00 00 00 00 00 00 00 00 00 00 00 00 00 00 ................
0040AE50 00 00 00 00 00 00 00 00 00 00 00 00 00 00 00 00 ................
0040AE60 00 00 00 00 00 00 00 00 00 00 00 00 00 00 00 00 ................
0040AE70 00 00 00 00 00 00 00 00 00 00 00 00 00 00 00 00 ................
0040AE80 00 00 00 00 00 00 00 00 00 00 00 00 00 00 00 00 ................
0040AE90 00 00 00 00 00 00 00 00 00 00 00 00 00 00 00 00 ................
0040AEA0 00 00 00 00 00 00 00 00 00 00 00 00 00 00 00 00 ................
0040AEB0 00 00 00 00 00 00 00 00 00 00 00 00 00 00 00 00 ................
0040AEC0 00 00 00 00 00 00 00 00 00 00 00 00 00 00 00 00 ................
0040AED0 00 00 00 00 00 00 00 00 00 00 00 00 00 00 00 00 ................
0040AEE0 00 00 00 00 00 00 00 00 00 00 00 00 00 00 00 00 ................
0040AEF0 00 00 00 00 00 00 00 00 00 00 00 00 00 00 00 00 ................
0040AF00 00 00 00 00 00 00 00 00 00 00 00 00 00 00 00 00 ................
0040AF10 00 00 00 00 00 00 00 00 00 00 00 00 00 00 00 00 ................
0040AF20 00 00 00 00 00 00 00 00 00 00 00 00 00 00 00 00 ................
0040AF30 00 00 00 00 00 00 00 00 00 00 00 00 00 00 00 00 ................
0040AF40 00 00 00 00 00 00 00 00 00 00 00 00 00 00 00 00 ................
0040AF50 00 00 00 00 00 00 00 00 00 00 00 00 00 00 00 00 ................
0040AF60 00 00 00 00 00 00 00 00 00 00 00 00 00 00 00 00 ................
0040AF70 00 00 00 00 00 00 00 00 00 00 00 00 00 00 00 00 ................
0040AF80 00 00 00 00 00 00 00 00 00 00 00 00 00 00 00 00 ................
0040AF90 00 00 00 00 00 00 00 00 00 00 00 00 00 00 00 00 ................
0040AFA0 00 00 00 00 00 00 00 00 00 00 00 00 00 00 00 00 ................
0040AFB0 00 00 00 00 00 00 00 00 00 00 00 00 00 00 00 00 ................
0040AFC0 00 00 00 00 00 00 00 00 00 00 00 00 00 00 00 00 ................
0040AFD0 00 00 00 00 00 00 00 00 00 00 00 00 00 00 00 00 ................
0040AFE0 00 00 00 00 00 00 00 00 00 00 00 00 00 00 00 00 ................
0040AFF0 00 00 00 00 00 00 00 00 00 00 00 00 00 00 00 00 ................
0040B000 00 00 00 00 00 00 00 00 00 00 00 00 00 00 00 00 ................
0040B010 00 00 00 00 00 00 00 00 00 00 00 00 00 00 00 00 ................
0040B020 00 00 00 00 00 00 00 00 00 00 00 00 00 00 00 00 ................
0040B030 00 00 00 00 00 00 00 00 00 00 00 00 00 00 00 00 ................
0040B040 00 00 00 00 00 00 00 00 00 00 00 00 00 00 00 00 ................
0040B050 00 00 00 00 00 00 00 00 00 00 00 00 00 00 00 00 ................
0040B060 00 00 00 00 00 00 00 00 00 00 00 00 00 00 00 00 ................
0040B070 00 00 00 00 00 00 00 00 00 00 00 00 00 00 00 00 ................
0040B080 00 00 00 00 00 00 00 00 00 00 00 00 00 00 00 00 ................
0040B090 00 00 00 00 00 00 00 00 00 00 00 00 00 00 00 00 ................
0040B0A0 00 00 00 00 00 00 00 00 00 00 00 00 00 00 00 00 ................
0040B0B0 00 00 00 00 00 00 00 00 00 00 00 00 00 00 00 00 ................
0040B0C0 00 00 00 00 00 00 00 00 00 00 00 00 00 00 00 00 ................
0040B0D0 00 00 00 00 00 00 00 00 00 00 00 00 00 00 00 00 ................
0040B0E0 00 00 00 00 00 00 00 00 00 00 00 00 00 00 00 00 ................
0040B0F0 00 00 00 00 00 00 00 00 00 00 00 00 00 00 00 00 ................
0040B100 00 00 00 00 00 00 00 00 00 00 00 00 00 00 00 00 ................
0040B110 00 00 00 00 00 00 00 00 00 00 00 00 00 00 00 00 ................
0040B120 00 00 00 00 00 00 00 00 00 00 00 00 00 00 00 00 ................
0040B130 00 00 00 00 00 00 00 00 00 00 00 00 00 00 00 00 ................
0040B140 00 00 00 00 00 00 00 00 00 00 00 00 00 00 00 00 ................
0040B150 00 00 00 00 00 00 00 00 00 00 00 00 00 00 00 00 ................
0040B160 00 00 00 00 00 00 00 00 00 00 00 00 00 00 00 00 ................
0040B170 00 00 00 00 00 00 00 00 00 00 00 00 00 00 00 00 ................
0040B180 00 00 00 00 00 00 00 00 00 00 00 00 00 00 00 00 ................
0040B190 00 00 00 00 00 00 00 00 00 00 00 00 00 00 00 00 ................
0040B1A0 00 00 00 00 00 00 00 00 00 00 00 00 00 00 00 00 ................
0040B1B0 00 00 00 00 00 00 00 00 00 00 00 00 00 00 00 00 ................
0040B1C0 00 00 00 00 00 00 00 00 00 00 00 00 00 00 00 00 ................
0040B1D0 00 00 00 00 00 00 00 00 00 00 00 00 00 00 00 00 ................
0040B1E0 00 00 00 00 00 00 00 00 00 00 00 00 00 00 00 00 ................
0040B1F0 00 00 00 00 00 00 00 00 00 00 00 00 00 00 00 00 ................
0040B200 00 00 00 00 00 00 00 00 00 00 00 00 00 00 00 00 ................
0040B210 00 00 00 00 00 00 00 00 00 00 00 00 00 00 00 00 ................
0040B220 00 00 00 00 00 00 00 00 00 00 00 00 00 00 00 00 ................
0040B230 00 00 00 00 00 00 00 00 00 00 00 00 00 00 00 00 ................
0040B240 00 00 00 00 00 00 00 00 00 00 00 00 00 00 00 00 ................
0040B250 00 00 00 00 00 00 00 00 00 00 00 00 00 00 00 00 ................
0040B260 00 00 00 00 00 00 00 00 00 00 00 00 00 00 00 00 ................
0040B270 00 00 00 00 00 00 00 00 00 00 00 00 00 00 00 00 ................
0040B280 00 00 00 00 00 00 00 00 00 00 00 00 00 00 00 00 ................
0040B290 00 00 00 00 00 00 00 00 00 00 00 00 00 00 00 00 ................
0040B2A0 00 00 00 00 00 00 00 00 00 00 00 00 00 00 00 00 ................
0040B2B0 00 00 00 00 00 00 00 00 00 00 00 00 00 00 00 00 ................
0040B2C0 00 00 00 00 00 00 00 00 00 00 00 00 00 00 00 00 ................
0040B2D0 00 00 00 00 00 00 00 00 00 00 00 00 00 00 00 00 ................
0040B2E0 00 00 00 00 00 00 00 00 00 00 00 00 00 00 00 00 ................
0040B2F0 00 00 00 00 00 00 00 00 00 00 00 00 00 00 00 00 ................
0040B300 00 00 00 00 00 00 00 00 00 00 00 00 00 00 00 00 ................
0040B310 00 00 00 00 00 00 00 00 00 00 00 00 00 00 00 00 ................
0040B320 00 00 00 00 00 00 00 00 00 00 00 00 00 00 00 00 ................
0040B330 00 00 00 00 00 00 00 00 00 00 00 00 00 00 00 00 ................
0040B340 00 00 00 00 00 00 00 00 00 00 00 00 00 00 00 00 ................
0040B350 00 00 00 00 00 00 00 00 00 00 00 00 00 00 00 00 ................
0040B360 00 00 00 00 00 00 00 00 00 00 00 00 00 00 00 00 ................
0040B370 00 00 00 00 00 00 00 00 00 00 00 00 00 00 00 00 ................
0040B380 00 00 00 00 00 00 00 00 00 00 00 00 00 00 00 00 ................
0040B390 00 00 00 00 00 00 00 00 00 00 00 00 00 00 00 00 ................
0040B3A0 00 00 00 00 00 00 00 00 00 00 00 00 00 00 00 00 ................
0040B3B0 00 00 00 00 00 00 00 00 00 00 00 00 00 00 00 00 ................
0040B3C0 00 00 00 00 00 00 00 00 00 00 00 00 00 00 00 00 ................
0040B3D0 00 00 00 00 00 00 00 00 00 00 00 00 00 00 00 00 ................
0040B3E0 00 00 00 00 00 00 00 00 00 00 00 00 00 00 00 00 ................
0040B3F0 00 00 00 00 00 00 00 00 00 00 00 00 00 00 00 00 ................
0040B400 00 00 00 00 00 00 00 00 00 00 00 00 00 00 00 00 ................
0040B410 00 00 00 00 00 00 00 00 00 00 00 00 00 00 00 00 ................
0040B420 00 00 00 00 00 00 00 00 00 00 00 00 00 00 00 00 ................
0040B430 00 00 00 00 00 00 00 00 00 00 00 00 00 00 00 00 ................
0040B440 00 00 00 00 00 00 00 00 00 00 00 00 00 00 00 00 ................
0040B450 00 00 00 00 00 00 00 00 00 00 00 00 00 00 00 00 ................
0040B460 00 00 00 00 00 00 00 00 00 00 00 00 00 00 00 00 ................
0040B470 00 00 00 00 00 00 00 00 00 00 00 00 00 00 00 00 ................
0040B480 00 00 00 00 00 00 00 00 00 00 00 00 00 00 00 00 ................
0040B490 00 00 00 00 00 00 00 00 00 00 00 00 00 00 00 00 ................
0040B4A0 00 00 00 00 00 00 00 00 00 00 00 00 00 00 00 00 ................
0040B4B0 00 00 00 00 00 00 00 00 00 00 00 00 00 00 00 00 ................
0040B4C0 00 00 00 00 00 00 00 00 00 00 00 00 00 00 00 00 ................
0040B4D0 00 00 00 00 00 00 00 00 00 00 00 00 00 00 00 00 ................
0040B4E0 00 00 00 00 00 00 00 00 00 00 00 00 00 00 00 00 ................
0040B4F0 00 00 00 00 00 00 00 00 00 00 00 00 00 00 00 00 ................
0040B500 00 00 00 00 00 00 00 00 00 00 00 00 00 00 00 00 ................
0040B510 00 00 00 00 00 00 00 00 00 00 00 00 00 00 00 00 ................
0040B520 00 00 00 00 00 00 00 00 00 00 00 00 00 00 00 00 ................
0040B530 00 00 00 00 00 00 00 00 00 00 00 00 00 00 00 00 ................
0040B540 00 00 00 00 00 00 00 00 00 00 00 00 00 00 00 00 ................
0040B550 00 00 00 00 00 00 00 00 00 00 00 00 00 00 00 00 ................
0040B560 00 00 00 00 00 00 00 00 00 00 00 00 00 00 00 00 ................
0040B570 00 00 00 00 00 00 00 00 00 00 00 00 00 00 00 00 ................
0040B580 00 00 00 00 00 00 00 00 00 00 00 00 00 00 00 00 ................
0040B590 00 00 00 00 00 00 00 00 00 00 00 00 00 00 00 00 ................
0040B5A0 00 00 00 00 00 00 00 00 00 00 00 00 00 00 00 00 ................
0040B5B0 00 00 00 00 00 00 00 00 00 00 00 00 00 00 00 00 ................
0040B5C0 00 00 00 00 00 00 00 00 00 00 00 00 00 00 00 00 ................
0040B5D0 00 00 00 00 00 00 00 00 00 00 00 00 00 00 00 00 ................
0040B5E0 00 00 00 00 00 00 00 00 00 00 00 00 00 00 00 00 ................
0040B5F0 00 00 00 00 00 00 00 00 00 00 00 00 00 00 00 00 ................
0040B600 00 00 00 00 00 00 00 00 00 00 00 00 00 00 00 00 ................
0040B610 00 00 00 00 00 00 00 00 00 00 00 00 00 00 00 00 ................
0040B620 00 00 00 00 00 00 00 00 00 00 00 00 00 00 00 00 ................
0040B630 00 00 00 00 00 00 00 00 00 00 00 00 00 00 00 00 ................
0040B640 00 00 00 00 00 00 00 00 00 00 00 00 00 00 00 00 ................
0040B650 00 00 00 00 00 00 00 00 00 00 00 00 00 00 00 00 ................
0040B660 00 00 00 00 00 00 00 00 00 00 00 00 00 00 00 00 ................
0040B670 00 00 00 00 00 00 00 00 00 00 00 00 00 00 00 00 ................
0040B680 00 00 00 00 00 00 00 00 00 00 00 00 00 00 00 00 ................
0040B690 00 00 00 00 00 00 00 00 00 00 00 00 00 00 00 00 ................
0040B6A0 00 00 00 00 00 00 00 00 00 00 00 00 00 00 00 00 ................
0040B6B0 00 00 00 00 00 00 00 00 00 00 00 00 00 00 00 00 ................
0040B6C0 00 00 00 00 00 00 00 00 00 00 00 00 00 00 00 00 ................
0040B6D0 00 00 00 00 00 00 00 00 00 00 00 00 00 00 00 00 ................
0040B6E0 00 00 00 00 00 00 00 00 00 00 00 00 00 00 00 00 ................
0040B6F0 00 00 00 00 00 00 00 00 00 00 00 00 00 00 00 00 ................
0040B700 00 00 00 00 00 00 00 00 00 00 00 00 00 00 00 00 ................
0040B710 00 00 00 00 00 00 00 00 00 00 00 00 00 00 00 00 ................
0040B720 00 00 00 00 00 00 00 00 00 00 00 00 00 00 00 00 ................
0040B730 00 00 00 00 00 00 00 00 00 00 00 00 00 00 00 00 ................
0040B740 00 00 00 00 00 00 00 00 00 00 00 00 00 00 00 00 ................
0040B750 00 00 00 00 00 00 00 00 00 00 00 00 00 00 00 00 ................
0040B760 00 00 00 00 00 00 00 00 00 00 00 00 00 00 00 00 ................
0040B770 00 00 00 00 00 00 00 00 00 00 00 00 00 00 00 00 ................
0040B780 00 00 00 00 00 00 00 00 00 00 00 00 00 00 00 00 ................
0040B790 00 00 00 00 00 00 00 00 00 00 00 00 00 00 00 00 ................
0040B7A0 00 00 00 00 00 00 00 00 00 00 00 00 00 00 00 00 ................
0040B7B0 00 00 00 00 00 00 00 00 00 00 00 00 00 00 00 00 ................
0040B7C0 00 00 00 00 00 00 00 00 00 00 00 00 00 00 00 00 ................
0040B7D0 00 00 00 00 00 00 00 00 00 00 00 00 00 00 00 00 ................
0040B7E0 00 00 00 00 00 00 00 00 00 00 00 00 00 00 00 00 ................
0040B7F0 00 00 00 00 00 00 00 00 00 00 00 00 00 00 00 00 ................
0040B800 00 00 00 00 00 00 00 00 00 00 00 00 00 00 00 00 ................
0040B810 00 00 00 00 00 00 00 00 00 00 00 00 00 00 00 00 ................
0040B820 00 00 00 00 00 00 00 00 00 00 00 00 00 00 00 00 ................
0040B830 00 00 00 00 00 00 00 00 00 00 00 00 00 00 00 00 ................
0040B840 00 00 00 00 00 00 00 00 00 00 00 00 00 00 00 00 ................
0040B850 00 00 00 00 00 00 00 00 00 00 00 00 00 00 00 00 ................
0040B860 00 00 00 00 00 00 00 00 00 00 00 00 00 00 00 00 ................
0040B870 00 00 00 00 00 00 00 00 00 00 00 00 00 00 00 00 ................
0040B880 00 00 00 00 00 00 00 00 00 00 00 00 00 00 00 00 ................
0040B890 00 00 00 00 00 00 00 00 00 00 00 00 00 00 00 00 ................
0040B8A0 00 00 00 00 00 00 00 00 00 00 00 00 00 00 00 00 ................
0040B8B0 00 00 00 00 00 00 00 00 00 00 00 00 00 00 00 00 ................
0040B8C0 00 00 00 00 00 00 00 00 00 00 00 00 00 00 00 00 ................
0040B8D0 00 00 00 00 00 00 00 00 00 00 00 00 00 00 00 00 ................
0040B8E0 00 00 00 00 00 00 00 00 00 00 00 00 00 00 00 00 ................
0040B8F0 00 00 00 00 00 00 00 00 00 00 00 00 00 00 00 00 ................
0040B900 00 00 00 00 00 00 00 00 00 00 00 00 00 00 00 00 ................
0040B910 00 00 00 00 00 00 00 00 00 00 00 00 00 00 00 00 ................
0040B920 00 00 00 00 00 00 00 00 00 00 00 00 00 00 00 00 ................
0040B930 00 00 00 00 00 00 00 00 00 00 00 00 00 00 00 00 ................
0040B940 00 00 00 00 00 00 00 00 00 00 00 00 00 00 00 00 ................
0040B950 00 00 00 00 00 00 00 00 00 00 00 00 00 00 00 00 ................
0040B960 00 00 00 00 00 00 00 00 00 00 00 00 00 00 00 00 ................
0040B970 00 00 00 00 00 00 00 00 00 00 00 00 00 00 00 00 ................
0040B980 00 00 00 00 00 00 00 00 00 00 00 00 00 00 00 00 ................
0040B990 00 00 00 00 00 00 00 00 00 00 00 00 00 00 00 00 ................
0040B9A0 00 00 00 00 00 00 00 00 00 00 00 00 00 00 00 00 ................
0040B9B0 00 00 00 00 00 00 00 00 00 00 00 00 00 00 00 00 ................
0040B9C0 00 00 00 00 00 00 00 00 00 00 00 00 00 00 00 00 ................
0040B9D0 00 00 00 00 00 00 00 00 00 00 00 00 00 00 00 00 ................
0040B9E0 00 00 00 00 00 00 00 00 00 00 00 00 00 00 00 00 ................
0040B9F0 00 00 00 00 00 00 00 00 00 00 00 00 00 00 00 00 ................
0040BA00 00 00 00 00 00 00 00 00 00 00 00 00 00 00 00 00 ................
0040BA10 00 00 00 00 00 00 00 00 00 00 00 00 00 00 00 00 ................
0040BA20 00 00 00 00 00 00 00 00 00 00 00 00 00 00 00 00 ................
0040BA30 00 00 00 00 00 00 00 00 00 00 00 00 00 00 00 00 ................
0040BA40 00 00 00 00 00 00 00 00 00 00 00 00 00 00 00 00 ................
0040BA50 00 00 00 00 00 00 00 00 00 00 00 00 00 00 00 00 ................
0040BA60 00 00 00 00 00 00 00 00 00 00 00 00 00 00 00 00 ................
0040BA70 00 00 00 00 00 00 00 00 00 00 00 00 00 00 00 00 ................
0040BA80 00 00 00 00 00 00 00 00 00 00 00 00 00 00 00 00 ................
0040BA90 00 00 00 00 00 00 00 00 00 00 00 00 00 00 00 00 ................
0040BAA0 00 00 00 00 00 00 00 00 00 00 00 00 00 00 00 00 ................
0040BAB0 00 00 00 00 00 00 00 00 00 00 00 00 00 00 00 00 ................
0040BAC0 00 00 00 00 00 00 00 00 00 00 00 00 00 00 00 00 ................
0040BAD0 00 00 00 00 00 00 00 00 00 00 00 00 00 00 00 00 ................
0040BAE0 00 00 00 00 00 00 00 00 00 00 00 00 00 00 00 00 ................
0040BAF0 00 00 00 00 00 00 00 00 00 00 00 00 00 00 00 00 ................
0040BB00 00 00 00 00 00 00 00 00 00 00 00 00 00 00 00 00 ................
0040BB10 00 00 00 00 00 00 00 00 00 00 00 00 00 00 00 00 ................
0040BB20 00 00 00 00 00 00 00 00 00 00 00 00 00 00 00 00 ................
0040BB30 00 00 00 00 00 00 00 00 00 00 00 00 00 00 00 00 ................
0040BB40 00 00 00 00 00 00 00 00 00 00 00 00 00 00 00 00 ................
0040BB50 00 00 00 00 00 00 00 00 00 00 00 00 00 00 00 00 ................
0040BB60 00 00 00 00 00 00 00 00 00 00 00 00 00 00 00 00 ................
0040BB70 00 00 00 00 00 00 00 00 00 00 00 00 00 00 00 00 ................
0040BB80 00 00 00 00 00 00 00 00 00 00 00 00 00 00 00 00 ................
0040BB90 00 00 00 00 00 00 00 00 00 00 00 00 00 00 00 00 ................
0040BBA0 00 00 00 00 00 00 00 00 00 00 00 00 00 00 00 00 ................
0040BBB0 00 00 00 00 00 00 00 00 00 00 00 00 00 00 00 00 ................
0040BBC0 00 00 00 00 00 00 00 00 00 00 00 00 00 00 00 00 ................
0040BBD0 00 00 00 00 00 00 00 00 00 00 00 00 00 00 00 00 ................
0040BBE0 00 00 00 00 00 00 00 00 00 00 00 00 00 00 00 00 ................
0040BBF0 00 00 00 00 00 00 00 00 00 00 00 00 00 00 00 00 ................
0040BC00 00 00 00 00 00 00 00 00 00 00 00 00 00 00 00 00 ................
0040BC10 00 00 00 00 00 00 00 00 00 00 00 00 00 00 00 00 ................
0040BC20 00 00 00 00 00 00 00 00 00 00 00 00 00 00 00 00 ................
0040BC30 00 00 00 00 00 00 00 00 00 00 00 00 00 00 00 00 ................
0040BC40 00 00 00 00 00 00 00 00 00 00 00 00 00 00 00 00 ................
0040BC50 00 00 00 00 00 00 00 00 00 00 00 00 00 00 00 00 ................
0040BC60 00 00 00 00 00 00 00 00 00 00 00 00 00 00 00 00 ................
0040BC70 00 00 00 00 00 00 00 00 00 00 00 00 00 00 00 00 ................
0040BC80 00 00 00 00 00 00 00 00 00 00 00 00 00 00 00 00 ................
0040BC90 00 00 00 00 00 00 00 00 00 00 00 00 00 00 00 00 ................
0040BCA0 00 00 00 00 00 00 00 00 00 00 00 00 00 00 00 00 ................
0040BCB0 00 00 00 00 00 00 00 00 00 00 00 00 00 00 00 00 ................
0040BCC0 00 00 00 00 00 00 00 00 00 00 00 00 00 00 00 00 ................
0040BCD0 00 00 00 00 00 00 00 00 00 00 00 00 00 00 00 00 ................
0040BCE0 00 00 00 00 00 00 00 00 00 00 00 00 00 00 00 00 ................
0040BCF0 00 00 00 00 00 00 00 00 00 00 00 00 00 00 00 00 ................
0040BD00 00 00 00 00 00 00 00 00 00 00 00 00 00 00 00 00 ................
0040BD10 00 00 00 00 00 00 00 00 00 00 00 00 00 00 00 00 ................
0040BD20 00 00 00 00 00 00 00 00 00 00 00 00 00 00 00 00 ................
0040BD30 00 00 00 00 00 00 00 00 00 00 00 00 00 00 00 00 ................
0040BD40 00 00 00 00 00 00 00 00 00 00 00 00 00 00 00 00 ................
0040BD50 00 00 00 00 00 00 00 00 00 00 00 00 00 00 00 00 ................
0040BD60 00 00 00 00 00 00 00 00 00 00 00 00 00 00 00 00 ................
0040BD70 00 00 00 00 00 00 00 00 00 00 00 00 00 00 00 00 ................
0040BD80 00 00 00 00 00 00 00 00 00 00 00 00 00 00 00 00 ................
0040BD90 00 00 00 00 00 00 00 00 00 00 00 00 00 00 00 00 ................
0040BDA0 00 00 00 00 00 00 00 00 00 00 00 00 00 00 00 00 ................
0040BDB0 00 00 00 00 00 00 00 00 00 00 00 00 00 00 00 00 ................
0040BDC0 00 00 00 00 00 00 00 00 00 00 00 00 00 00 00 00 ................
0040BDD0 00 00 00 00 00 00 00 00 00 00 00 00 00 00 00 00 ................
0040BDE0 00 00 00 00 00 00 00 00 00 00 00 00 00 00 00 00 ................
0040BDF0 00 00 00 00 00 00 00 00 00 00 00 00 00 00 00 00 ................
0040BE00 00 00 00 00 00 00 00 00 00 00 00 00 00 00 00 00 ................
0040BE10 00 00 00 00 00 00 00 00 00 00 00 00 00 00 00 00 ................
0040BE20 00 00 00 00 00 00 00 00 00 00 00 00 00 00 00 00 ................
0040BE30 00 00 00 00 00 00 00 00 00 00 00 00 00 00 00 00 ................
0040BE40 00 00 00 00 00 00 00 00 00 00 00 00 00 00 00 00 ................
0040BE50 00 00 00 00 00 00 00 00 00 00 00 00 00 00 00 00 ................
0040BE60 00 00 00 00 00 00 00 00 00 00 00 00 00 00 00 00 ................
0040BE70 00 00 00 00 00 00 00 00 00 00 00 00 00 00 00 00 ................
0040BE80 00 00 00 00 00 00 00 00 00 00 00 00 00 00 00 00 ................
0040BE90 00 00 00 00 00 00 00 00 00 00 00 00 00 00 00 00 ................
0040BEA0 00 00 00 00 00 00 00 00 00 00 00 00 00 00 00 00 ................
0040BEB0 00 00 00 00 00 00 00 00 00 00 00 00 00 00 00 00 ................
0040BEC0 00 00 00 00 00 00 00 00 00 00 00 00 00 00 00 00 ................
0040BED0 00 00 00 00 00 00 00 00 00 00 00 00 00 00 00 00 ................
0040BEE0 00 00 00 00 00 00 00 00 00 00 00 00 00 00 00 00 ................
0040BEF0 00 00 00 00 00 00 00 00 00 00 00 00 00 00 00 00 ................
0040BF00 00 00 00 00 00 00 00 00 00 00 00 00 00 00 00 00 ................
0040BF10 00 00 00 00 00 00 00 00 00 00 00 00 00 00 00 00 ................
0040BF20 00 00 00 00 00 00 00 00 00 00 00 00 00 00 00 00 ................
0040BF30 00 00 00 00 00 00 00 00 00 00 00 00 00 00 00 00 ................
0040BF40 00 00 00 00 00 00 00 00 00 00 00 00 00 00 00 00 ................
0040BF50 00 00 00 00 00 00 00 00 00 00 00 00 00 00 00 00 ................
0040BF60 00 00 00 00 00 00 00 00 00 00 00 00 00 00 00 00 ................
0040BF70 00 00 00 00 00 00 00 00 00 00 00 00 00 00 00 00 ................
0040BF80 00 00 00 00 00 00 00 00 00 00 00 00 00 00 00 00 ................
0040BF90 00 00 00 00 00 00 00 00 00 00 00 00 00 00 00 00 ................
0040BFA0 00 00 00 00 00 00 00 00 00 00 00 00 00 00 00 00 ................
0040BFB0 00 00 00 00 00 00 00 00 00 00 00 00 00 00 00 00 ................
0040BFC0 00 00 00 00 00 00 00 00 00 00 00 00 00 00 00 00 ................
0040BFD0 00 00 00 00 00 00 00 00 00 00 00 00 00 00 00 00 ................
0040BFE0 00 00 00 00 00 00 00 00 00 00 00 00 00 00 00 00 ................
0040BFF0 00 00 00 00 00 00 00 00 00 00 00 00 00 00 00 00 ................
0040C000 00 00 00 00 00 00 00 00 00 00 00 00 00 00 00 00 ................
0040C010 00 00 00 00 00 00 00 00 00 00 00 00 00 00 00 00 ................
0040C020 00 00 00 00 00 00 00 00 00 00 00 00 00 00 00 00 ................
0040C030 00 00 00 00 00 00 00 00 00 00 00 00 00 00 00 00 ................
0040C040 00 00 00 00 00 00 00 00 00 00 00 00 00 00 00 00 ................
0040C050 00 00 00 00 00 00 00 00 00 00 00 00 00 00 00 00 ................
0040C060 00 00 00 00 00 00 00 00 00 00 00 00 00 00 00 00 ................
0040C070 00 00 00 00 00 00 00 00 00 00 00 00 00 00 00 00 ................
0040C080 00 00 00 00 00 00 00 00 00 00 00 00 00 00 00 00 ................
0040C090 00 00 00 00 00 00 00 00 00 00 00 00 00 00 00 00 ................
0040C0A0 00 00 00 00 00 00 00 00 00 00 00 00 00 00 00 00 ................
0040C0B0 00 00 00 00 00 00 00 00 00 00 00 00 00 00 00 00 ................
0040C0C0 00 00 00 00 00 00 00 00 00 00 00 00 00 00 00 00 ................
0040C0D0 00 00 00 00 00 00 00 00 00 00 00 00 00 00 00 00 ................
0040C0E0 00 00 00 00 00 00 00 00 00 00 00 00 00 00 00 00 ................
0040C0F0 00 00 00 00 00 00 00 00 00 00 00 00 00 00 00 00 ................
0040C100 00 00 00 00 00 00 00 00 00 00 00 00 00 00 00 00 ................
0040C110 00 00 00 00 00 00 00 00 00 00 00 00 00 00 00 00 ................
0040C120 00 00 00 00 00 00 00 00 00 00 00 00 00 00 00 00 ................
0040C130 00 00 00 00 00 00 00 00 00 00 00 00 00 00 00 00 ................
0040C140 00 00 00 00 00 00 00 00 00 00 00 00 00 00 00 00 ................
0040C150 00 00 00 00 00 00 00 00 00 00 00 00 00 00 00 00 ................
0040C160 00 00 00 00 00 00 00 00 00 00 00 00 00 00 00 00 ................
0040C170 00 00 00 00 00 00 00 00 00 00 00 00 00 00 00 00 ................
0040C180 00 00 00 00 00 00 00 00 00 00 00 00 00 00 00 00 ................
0040C190 00 00 00 00 00 00 00 00 00 00 00 00 00 00 00 00 ................
0040C1A0 00 00 00 00 00 00 00 00 00 00 00 00 00 00 00 00 ................
0040C1B0 00 00 00 00 00 00 00 00 00 00 00 00 00 00 00 00 ................
0040C1C0 00 00 00 00 00 00 00 00 00 00 00 00 00 00 00 00 ................
0040C1D0 00 00 00 00 00 00 00 00 00 00 00 00 00 00 00 00 ................
0040C1E0 00 00 00 00 00 00 00 00 00 00 00 00 00 00 00 00 ................
0040C1F0 00 00 00 00 00 00 00 00 00 00 00 00 00 00 00 00 ................
0040C200 00 00 00 00 00 00 00 00 00 00 00 00 00 00 00 00 ................
0040C210 00 00 00 00 00 00 00 00 00 00 00 00 00 00 00 00 ................
0040C220 00 00 00 00 00 00 00 00 00 00 00 00 00 00 00 00 ................
0040C230 00 00 00 00 00 00 00 00 00 00 00 00 00 00 00 00 ................
0040C240 00 00 00 00 00 00 00 00 00 00 00 00 00 00 00 00 ................
0040C250 00 00 00 00 00 00 00 00 00 00 00 00 00 00 00 00 ................
0040C260 00 00 00 00 00 00 00 00 00 00 00 00 00 00 00 00 ................
0040C270 00 00 00 00 00 00 00 00 00 00 00 00 00 00 00 00 ................
0040C280 00 00 00 00 00 00 00 00 00 00 00 00 00 00 00 00 ................
0040C290 00 00 00 00 00 00 00 00 00 00 00 00 00 00 00 00 ................
0040C2A0 00 00 00 00 00 00 00 00 00 00 00 00 00 00 00 00 ................
0040C2B0 00 00 00 00 00 00 00 00 00 00 00 00 00 00 00 00 ................
0040C2C0 00 00 00 00 00 00 00 00 00 00 00 00 00 00 00 00 ................
0040C2D0 00 00 00 00 00 00 00 00 00 00 00 00 00 00 00 00 ................
0040C2E0 00 00 00 00 00 00 00 00 00 00 00 00 00 00 00 00 ................
0040C2F0 00 00 00 00 00 00 00 00 00 00 00 00 00 00 00 00 ................
0040C300 00 00 00 00 00 00 00 00 00 00 00 00 00 00 00 00 ................
0040C310 00 00 00 00 00 00 00 00 00 00 00 00 00 00 00 00 ................
0040C320 00 00 00 00 00 00 00 00 00 00 00 00 00 00 00 00 ................
0040C330 00 00 00 00 00 00 00 00 00 00 00 00 00 00 00 00 ................
0040C340 00 00 00 00 00 00 00 00 00 00 00 00 00 00 00 00 ................
0040C350 00 00 00 00 00 00 00 00 00 00 00 00 00 00 00 00 ................
0040C360 00 00 00 00 00 00 00 00 00 00 00 00 00 00 00 00 ................
0040C370 00 00 00 00 00 00 00 00 00 00 00 00 00 00 00 00 ................
0040C380 00 00 00 00 00 00 00 00 00 00 00 00 00 00 00 00 ................
0040C390 00 00 00 00 00 00 00 00 00 00 00 00 00 00 00 00 ................
0040C3A0 00 00 00 00 00 00 00 00 00 00 00 00 00 00 00 00 ................
0040C3B0 00 00 00 00 00 00 00 00 00 00 00 00 00 00 00 00 ................
0040C3C0 00 00 00 00 00 00 00 00 00 00 00 00 00 00 00 00 ................
0040C3D0 00 00 00 00 00 00 00 00 00 00 00 00 00 00 00 00 ................
0040C3E0 00 00 00 00 00 00 00 00 00 00 00 00 00 00 00 00 ................
0040C3F0 00 00 00 00 00 00 00 00 00 00 00 00 00 00 00 00 ................
0040C400 00 00 00 00 00 00 00 00 00 00 00 00 00 00 00 00 ................
0040C410 00 00 00 00 00 00 00 00 00 00 00 00 00 00 00 00 ................
0040C420 00 00 00 00 00 00 00 00 00 00 00 00 00 00 00 00 ................
0040C430 00 00 00 00 00 00 00 00 00 00 00 00 00 00 00 00 ................
0040C440 00 00 00 00 00 00 00 00 00 00 00 00 00 00 00 00 ................
0040C450 00 00 00 00 00 00 00 00 00 00 00 00 00 00 00 00 ................
0040C460 00 00 00 00 00 00 00 00 00 00 00 00 00 00 00 00 ................
0040C470 00 00 00 00 00 00 00 00 00 00 00 00 00 00 00 00 ................
0040C480 00 00 00 00 00 00 00 00 00 00 00 00 00 00 00 00 ................
0040C490 00 00 00 00 00 00 00 00 00 00 00 00 00 00 00 00 ................
0040C4A0 00 00 00 00 00 00 00 00 00 00 00 00 00 00 00 00 ................
0040C4B0 00 00 00 00 00 00 00 00 00 00 00 00 00 00 00 00 ................
0040C4C0 00 00 00 00 00 00 00 00 00 00 00 00 00 00 00 00 ................
0040C4D0 00 00 00 00 00 00 00 00 00 00 00 00 00 00 00 00 ................
0040C4E0 00 00 00 00 00 00 00 00 00 00 00 00 00 00 00 00 ................
0040C4F0 00 00 00 00 00 00 00 00 00 00 00 00 00 00 00 00 ................
0040C500 00 00 00 00 00 00 00 00 00 00 00 00 00 00 00 00 ................
0040C510 00 00 00 00 00 00 00 00 00 00 00 00 00 00 00 00 ................
0040C520 00 00 00 00 00 00 00 00 00 00 00 00 00 00 00 00 ................
0040C530 00 00 00 00 00 00 00 00 00 00 00 00 00 00 00 00 ................
0040C540 00 00 00 00 00 00 00 00 00 00 00 00 00 00 00 00 ................
0040C550 00 00 00 00 00 00 00 00 00 00 00 00 00 00 00 00 ................
0040C560 00 00 00 00 00 00 00 00 00 00 00 00 00 00 00 00 ................
0040C570 00 00 00 00 00 00 00 00 00 00 00 00 00 00 00 00 ................
0040C580 00 00 00 00 00 00 00 00 00 00 00 00 00 00 00 00 ................
0040C590 00 00 00 00 00 00 00 00 00 00 00 00 00 00 00 00 ................
0040C5A0 00 00 00 00 00 00 00 00 00 00 00 00 00 00 00 00 ................
0040C5B0 00 00 00 00 00 00 00 00 00 00 00 00 00 00 00 00 ................
0040C5C0 00 00 00 00 00 00 00 00 00 00 00 00 00 00 00 00 ................
0040C5D0 00 00 00 00 00 00 00 00 00 00 00 00 00 00 00 00 ................
0040C5E0 00 00 00 00 00 00 00 00 00 00 00 00 00 00 00 00 ................
0040C5F0 00 00 00 00 00 00 00 00 00 00 00 00 00 00 00 00 ................
0040C600 00 00 00 00 00 00 00 00 00 00 00 00 00 00 00 00 ................
0040C610 00 00 00 00 00 00 00 00 00 00 00 00 00 00 00 00 ................
0040C620 00 00 00 00 00 00 00 00 00 00 00 00 00 00 00 00 ................
0040C630 00 00 00 00 00 00 00 00 00 00 00 00 00 00 00 00 ................
0040C640 00 00 00 00 00 00 00 00 00 00 00 00 00 00 00 00 ................
0040C650 00 00 00 00 00 00 00 00 00 00 00 00 00 00 00 00 ................
0040C660 00 00 00 00 00 00 00 00 00 00 00 00 00 00 00 00 ................
0040C670 00 00 00 00 00 00 00 00 00 00 00 00 00 00 00 00 ................
0040C680 00 00 00 00 00 00 00 00 00 00 00 00 00 00 00 00 ................
0040C690 00 00 00 00 00 00 00 00 00 00 00 00 00 00 00 00 ................
0040C6A0 00 00 00 00 00 00 00 00 00 00 00 00 00 00 00 00 ................
0040C6B0 00 00 00 00 00 00 00 00 00 00 00 00 00 00 00 00 ................
0040C6C0 00 00 00 00 00 00 00 00 00 00 00 00 00 00 00 00 ................
0040C6D0 00 00 00 00 00 00 00 00 00 00 00 00 00 00 00 00 ................
0040C6E0 00 00 00 00 00 00 00 00 00 00 00 00 00 00 00 00 ................
0040C6F0 00 00 00 00 00 00 00 00 00 00 00 00 00 00 00 00 ................
0040C700 00 00 00 00 00 00 00 00 00 00 00 00 00 00 00 00 ................
0040C710 00 00 00 00 00 00 00 00 00 00 00 00 00 00 00 00 ................
0040C720 00 00 00 00 00 00 00 00 00 00 00 00 00 00 00 00 ................
0040C730 00 00 00 00 00 00 00 00 00 00 00 00 00 00 00 00 ................
0040C740 00 00 00 00 00 00 00 00 00 00 00 00 00 00 00 00 ................
0040C750 00 00 00 00 00 00 00 00 00 00 00 00 00 00 00 00 ................
0040C760 00 00 00 00 00 00 00 00 00 00 00 00 00 00 00 00 ................
0040C770 00 00 00 00 00 00 00 00 00 00 00 00 00 00 00 00 ................
0040C780 00 00 00 00 00 00 00 00 00 00 00 00 00 00 00 00 ................
0040C790 00 00 00 00 00 00 00 00 00 00 00 00 00 00 00 00 ................
0040C7A0 00 00 00 00 00 00 00 00 00 00 00 00 00 00 00 00 ................
0040C7B0 00 00 00 00 00 00 00 00 00 00 00 00 00 00 00 00 ................
0040C7C0 00 00 00 00 00 00 00 00 00 00 00 00 00 00 00 00 ................
0040C7D0 00 00 00 00 00 00 00 00 00 00 00 00 00 00 00 00 ................
0040C7E0 00 00 00 00 00 00 00 00 00 00 00 00 00 00 00 00 ................
0040C7F0 00 00 00 00 00 00 00 00 00 00 00 00 00 00 00 00 ................
0040C800 00 00 00 00 00 00 00 00 00 00 00 00 00 00 00 00 ................
0040C810 00 00 00 00 00 00 00 00 00 00 00 00 00 00 00 00 ................
0040C820 00 00 00 00 00 00 00 00 00 00 00 00 00 00 00 00 ................
0040C830 00 00 00 00 00 00 00 00 00 00 00 00 00 00 00 00 ................
0040C840 00 00 00 00 00 00 00 00 00 00 00 00 00 00 00 00 ................
0040C850 00 00 00 00 00 00 00 00 00 00 00 00 00 00 00 00 ................
0040C860 00 00 00 00 00 00 00 00 00 00 00 00 00 00 00 00 ................
0040C870 00 00 00 00 00 00 00 00 00 00 00 00 00 00 00 00 ................
0040C880 00 00 00 00 00 00 00 00 00 00 00 00 00 00 00 00 ................
0040C890 00 00 00 00 00 00 00 00 00 00 00 00 00 00 00 00 ................
0040C8A0 00 00 00 00 00 00 00 00 00 00 00 00 00 00 00 00 ................
0040C8B0 00 00 00 00 00 00 00 00 00 00 00 00 00 00 00 00 ................
0040C8C0 00 00 00 00 00 00 00 00 00 00 00 00 00 00 00 00 ................
0040C8D0 00 00 00 00 00 00 00 00 00 00 00 00 00 00 00 00 ................
0040C8E0 00 00 00 00 00 00 00 00 00 00 00 00 00 00 00 00 ................
0040C8F0 00 00 00 00 00 00 00 00 00 00 00 00 00 00 00 00 ................
0040C900 00 00 00 00 00 00 00 00 00 00 00 00 00 00 00 00 ................
0040C910 00 00 00 00 00 00 00 00 00 00 00 00 00 00 00 00 ................
0040C920 00 00 00 00 00 00 00 00 00 00 00 00 00 00 00 00 ................
0040C930 00 00 00 00 00 00 00 00 00 00 00 00 00 00 00 00 ................
0040C940 00 00 00 00 00 00 00 00 00 00 00 00 00 00 00 00 ................
0040C950 00 00 00 00 00 00 00 00 00 00 00 00 00 00 00 00 ................
0040C960 00 00 00 00 00 00 00 00 00 00 00 00 00 00 00 00 ................
0040C970 00 00 00 00 00 00 00 00 00 00 00 00 00 00 00 00 ................
0040C980 00 00 00 00 00 00 00 00 00 00 00 00 00 00 00 00 ................
0040C990 00 00 00 00 00 00 00 00 00 00 00 00 00 00 00 00 ................
0040C9A0 00 00 00 00 00 00 00 00 00 00 00 00 00 00 00 00 ................
0040C9B0 00 00 00 00 00 00 00 00 00 00 00 00 00 00 00 00 ................
0040C9C0 00 00 00 00 00 00 00 00 00 00 00 00 00 00 00 00 ................
0040C9D0 00 00 00 00 00 00 00 00 00 00 00 00 00 00 00 00 ................
0040C9E0 00 00 00 00 00 00 00 00 00 00 00 00 00 00 00 00 ................
0040C9F0 00 00 00 00 00 00 00 00 00 00 00 00 00 00 00 00 ................
0040CA00 00 00 00 00 00 00 00 00 00 00 00 00 00 00 00 00 ................
0040CA10 00 00 00 00 00 00 00 00 00 00 00 00 00 00 00 00 ................
0040CA20 00 00 00 00 00 00 00 00 00 00 00 00 00 00 00 00 ................
0040CA30 00 00 00 00 00 00 00 00 00 00 00 00 00 00 00 00 ................
0040CA40 00 00 00 00 00 00 00 00 00 00 00 00 00 00 00 00 ................
0040CA50 00 00 00 00 00 00 00 00 00 00 00 00 00 00 00 00 ................
0040CA60 00 00 00 00 00 00 00 00 00 00 00 00 00 00 00 00 ................
0040CA70 00 00 00 00 00 00 00 00 00 00 00 00 00 00 00 00 ................
0040CA80 00 00 00 00 00 00 00 00 00 00 00 00 00 00 00 00 ................
0040CA90 00 00 00 00 00 00 00 00 00 00 00 00 00 00 00 00 ................
0040CAA0 00 00 00 00 00 00 00 00 00 00 00 00 00 00 00 00 ................
0040CAB0 00 00 00 00 00 00 00 00 00 00 00 00 00 00 00 00 ................
0040CAC0 00 00 00 00 00 00 00 00 00 00 00 00 00 00 00 00 ................
0040CAD0 00 00 00 00 00 00 00 00 00 00 00 00 00 00 00 00 ................
0040CAE0 00 00 00 00 00 00 00 00 00 00 00 00 00 00 00 00 ................
0040CAF0 00 00 00 00 00 00 00 00 00 00 00 00 00 00 00 00 ................
0040CB00 00 00 00 00 00 00 00 00 00 00 00 00 00 00 00 00 ................
0040CB10 00 00 00 00 00 00 00 00 00 00 00 00 00 00 00 00 ................
0040CB20 00 00 00 00 00 00 00 00 00 00 00 00 00 00 00 00 ................
0040CB30 00 00 00 00 00 00 00 00 00 00 00 00 00 00 00 00 ................
0040CB40 00 00 00 00 00 00 00 00 00 00 00 00 00 00 00 00 ................
0040CB50 00 00 00 00 00 00 00 00 00 00 00 00 00 00 00 00 ................
0040CB60 00 00 00 00 00 00 00 00 00 00 00 00 00 00 00 00 ................
0040CB70 00 00 00 00 00 00 00 00 00 00 00 00 00 00 00 00 ................
0040CB80 00 00 00 00 00 00 00 00 00 00 00 00 00 00 00 00 ................
0040CB90 00 00 00 00 00 00 00 00 00 00 00 00 00 00 00 00 ................
0040CBA0 00 00 00 00 00 00 00 00 00 00 00 00 00 00 00 00 ................
0040CBB0 00 00 00 00 00 00 00 00 00 00 00 00 00 00 00 00 ................
0040CBC0 00 00 00 00 00 00 00 00 00 00 00 00 00 00 00 00 ................
0040CBD0 00 00 00 00 00 00 00 00 00 00 00 00 00 00 00 00 ................
0040CBE0 00 00 00 00 00 00 00 00 00 00 00 00 00 00 00 00 ................
0040CBF0 00 00 00 00 00 00 00 00 00 00 00 00 00 00 00 00 ................
0040CC00 00 00 00 00 00 00 00 00 00 00 00 00 00 00 00 00 ................
0040CC10 00 00 00 00 00 00 00 00 00 00 00 00 00 00 00 00 ................
0040CC20 00 00 00 00 00 00 00 00 00 00 00 00 00 00 00 00 ................
0040CC30 00 00 00 00 00 00 00 00 00 00 00 00 00 00 00 00 ................
0040CC40 00 00 00 00 00 00 00 00 00 00 00 00 00 00 00 00 ................
0040CC50 00 00 00 00 00 00 00 00 00 00 00 00 00 00 00 00 ................
0040CC60 00 00 00 00 00 00 00 00 00 00 00 00 00 00 00 00 ................
0040CC70 00 00 00 00 00 00 00 00 00 00 00 00 00 00 00 00 ................
0040CC80 00 00 00 00 00 00 00 00 00 00 00 00 00 00 00 00 ................
0040CC90 00 00 00 00 00 00 00 00 00 00 00 00 00 00 00 00 ................
0040CCA0 00 00 00 00 00 00 00 00 00 00 00 00 00 00 00 00 ................
0040CCB0 00 00 00 00 00 00 00 00 00 00 00 00 00 00 00 00 ................
0040CCC0 00 00 00 00 00 00 00 00 00 00 00 00 00 00 00 00 ................
0040CCD0 00 00 00 00 00 00 00 00 00 00 00 00 00 00 00 00 ................
0040CCE0 00 00 00 00 00 00 00 00 00 00 00 00 00 00 00 00 ................
0040CCF0 00 00 00 00 00 00 00 00 00 00 00 00 00 00 00 00 ................
0040CD00 00 00 00 00 00 00 00 00 00 00 00 00 00 00 00 00 ................
0040CD10 00 00 00 00 00 00 00 00 00 00 00 00 00 00 00 00 ................
0040CD20 00 00 00 00 00 00 00 00 00 00 00 00 00 00 00 00 ................
0040CD30 00 00 00 00 00 00 00 00 00 00 00 00 00 00 00 00 ................
0040CD40 00 00 00 00 00 00 00 00 00 00 00 00 00 00 00 00 ................
0040CD50 00 00 00 00 00 00 00 00 00 00 00 00 00 00 00 00 ................
0040CD60 00 00 00 00 00 00 00 00 00 00 00 00 00 00 00 00 ................
0040CD70 00 00 00 00 00 00 00 00 00 00 00 00 00 00 00 00 ................
0040CD80 00 00 00 00 00 00 00 00 00 00 00 00 00 00 00 00 ................
0040CD90 00 00 00 00 00 00 00 00 00 00 00 00 00 00 00 00 ................
0040CDA0 00 00 00 00 00 00 00 00 00 00 00 00 00 00 00 00 ................
0040CDB0 00 00 00 00 00 00 00 00 00 00 00 00 00 00 00 00 ................
0040CDC0 00 00 00 00 00 00 00 00 00 00 00 00 00 00 00 00 ................
0040CDD0 00 00 00 00 00 00 00 00 00 00 00 00 00 00 00 00 ................
0040CDE0 00 00 00 00 00 00 00 00 00 00 00 00 00 00 00 00 ................
0040CDF0 00 00 00 00 00 00 00 00 00 00 00 00 00 00 00 00 ................
0040CE00 00 00 00 00 00 00 00 00 00 00 00 00 00 00 00 00 ................
0040CE10 00 00 00 00 00 00 00 00 00 00 00 00 00 00 00 00 ................
0040CE20 00 00 00 00 00 00 00 00 00 00 00 00 00 00 00 00 ................
0040CE30 00 00 00 00 00 00 00 00 00 00 00 00 00 00 00 00 ................
0040CE40 00 00 00 00 00 00 00 00 00 00 00 00 00 00 00 00 ................
0040CE50 00 00 00 00 00 00 00 00 00 00 00 00 00 00 00 00 ................
0040CE60 00 00 00 00 00 00 00 00 00 00 00 00 00 00 00 00 ................
0040CE70 00 00 00 00 00 00 00 00 00 00 00 00 00 00 00 00 ................
0040CE80 00 00 00 00 00 00 00 00 00 00 00 00 00 00 00 00 ................
0040CE90 00 00 00 00 00 00 00 00 00 00 00 00 00 00 00 00 ................
0040CEA0 00 00 00 00 00 00 00 00 00 00 00 00 00 00 00 00 ................
0040CEB0 00 00 00 00 00 00 00 00 00 00 00 00 00 00 00 00 ................
0040CEC0 00 00 00 00 00 00 00 00 00 00 00 00 00 00 00 00 ................
0040CED0 00 00 00 00 00 00 00 00 00 00 00 00 00 00 00 00 ................
0040CEE0 00 00 00 00 00 00 00 00 00 00 00 00 00 00 00 00 ................
0040CEF0 00 00 00 00 00 00 00 00 00 00 00 00 00 00 00 00 ................
0040CF00 00 00 00 00 00 00 00 00 00 00 00 00 00 00 00 00 ................
0040CF10 00 00 00 00 00 00 00 00 00 00 00 00 00 00 00 00 ................
0040CF20 00 00 00 00 00 00 00 00 00 00 00 00 00 00 00 00 ................
0040CF30 00 00 00 00 00 00 00 00 00 00 00 00 00 00 00 00 ................
0040CF40 00 00 00 00 00 00 00 00 00 00 00 00 00 00 00 00 ................
0040CF50 00 00 00 00 00 00 00 00 00 00 00 00 00 00 00 00 ................
0040CF60 00 00 00 00 00 00 00 00 00 00 00 00 00 00 00 00 ................
0040CF70 00 00 00 00 00 00 00 00 00 00 00 00 00 00 00 00 ................
0040CF80 00 00 00 00 00 00 00 00 00 00 00 00 00 00 00 00 ................
0040CF90 00 00 00 00 00 00 00 00 00 00 00 00 00 00 00 00 ................
0040CFA0 00 00 00 00 00 00 00 00 00 00 00 00 00 00 00 00 ................
0040CFB0 00 00 00 00 00 00 00 00 00 00 00 00 00 00 00 00 ................
0040CFC0 00 00 00 00 00 00 00 00 00 00 00 00 00 00 00 00 ................
0040CFD0 00 00 00 00 00 00 00 00 00 00 00 00 00 00 00 00 ................
0040CFE0 00 00 00 00 00 00 00 00 00 00 00 00 00 00 00 00 ................
0040CFF0 00 00 00 00 00 00 00 00 00 00 00 00 00 00 00 00 ................
0040D000 00 00 00 00 00 00 00 00 00 00 00 00 00 00 00 00 ................
0040D010 00 00 00 00 00 00 00 00 00 00 00 00 00 00 00 00 ................
0040D020 00 00 00 00 00 00 00 00 00 00 00 00 00 00 00 00 ................
0040D030 00 00 00 00 00 00 00 00 00 00 00 00 00 00 00 00 ................
0040D040 00 00 00 00 00 00 00 00 00 00 00 00 00 00 00 00 ................
0040D050 00 00 00 00 00 00 00 00 00 00 00 00 00 00 00 00 ................
0040D060 00 00 00 00 00 00 00 00 00 00 00 00 00 00 00 00 ................
0040D070 00 00 00 00 00 00 00 00 00 00 00 00 00 00 00 00 ................
0040D080 00 00 00 00 00 00 00 00 00 00 00 00 00 00 00 00 ................
0040D090 00 00 00 00 00 00 00 00 00 00 00 00 00 00 00 00 ................
0040D0A0 00 00 00 00 00 00 00 00 00 00 00 00 00 00 00 00 ................
0040D0B0 00 00 00 00 00 00 00 00 00 00 00 00 00 00 00 00 ................
0040D0C0 00 00 00 00 00 00 00 00 00 00 00 00 00 00 00 00 ................
0040D0D0 00 00 00 00 00 00 00 00 00 00 00 00 00 00 00 00 ................
0040D0E0 00 00 00 00 00 00 00 00 00 00 00 00 00 00 00 00 ................
0040D0F0 00 00 00 00 00 00 00 00 00 00 00 00 00 00 00 00 ................
0040D100 00 00 00 00 00 00 00 00 00 00 00 00 00 00 00 00 ................
0040D110 00 00 00 00 00 00 00 00 00 00 00 00 00 00 00 00 ................
0040D120 00 00 00 00 00 00 00 00 00 00 00 00 00 00 00 00 ................
0040D130 00 00 00 00 00 00 00 00 00 00 00 00 00 00 00 00 ................
0040D140 00 00 00 00 00 00 00 00 00 00 00 00 00 00 00 00 ................
0040D150 00 00 00 00 00 00 00 00 00 00 00 00 00 00 00 00 ................
0040D160 00 00 00 00 00 00 00 00 00 00 00 00 00 00 00 00 ................
0040D170 00 00 00 00 00 00 00 00 00 00 00 00 00 00 00 00 ................
0040D180 00 00 00 00 00 00 00 00 00 00 00 00 00 00 00 00 ................
0040D190 00 00 00 00 00 00 00 00 00 00 00 00 00 00 00 00 ................
0040D1A0 00 00 00 00 00 00 00 00 00 00 00 00 00 00 00 00 ................
0040D1B0 00 00 00 00 00 00 00 00 00 00 00 00 00 00 00 00 ................
0040D1C0 00 00 00 00 00 00 00 00 00 00 00 00 00 00 00 00 ................
0040D1D0 00 00 00 00 00 00 00 00 00 00 00 00 00 00 00 00 ................
0040D1E0 00 00 00 00 00 00 00 00 00 00 00 00 00 00 00 00 ................
0040D1F0 00 00 00 00 00 00 00 00 00 00 00 00 00 00 00 00 ................
0040D200 00 00 00 00 00 00 00 00 00 00 00 00 00 00 00 00 ................
0040D210 00 00 00 00 00 00 00 00 00 00 00 00 00 00 00 00 ................
0040D220 00 00 00 00 00 00 00 00 00 00 00 00 00 00 00 00 ................
0040D230 00 00 00 00 00 00 00 00 00 00 00 00 00 00 00 00 ................
0040D240 00 00 00 00 00 00 00 00 00 00 00 00 00 00 00 00 ................
0040D250 00 00 00 00 00 00 00 00 00 00 00 00 00 00 00 00 ................
0040D260 00 00 00 00 00 00 00 00 00 00 00 00 00 00 00 00 ................
0040D270 00 00 00 00 00 00 00 00 00 00 00 00 00 00 00 00 ................
0040D280 00 00 00 00 00 00 00 00 00 00 00 00 00 00 00 00 ................
0040D290 00 00 00 00 00 00 00 00 00 00 00 00 00 00 00 00 ................
0040D2A0 00 00 00 00 00 00 00 00 00 00 00 00 00 00 00 00 ................
0040D2B0 00 00 00 00 00 00 00 00 00 00 00 00 00 00 00 00 ................
0040D2C0 00 00 00 00 00 00 00 00 00 00 00 00 00 00 00 00 ................
0040D2D0 00 00 00 00 00 00 00 00 00 00 00 00 00 00 00 00 ................
0040D2E0 00 00 00 00 00 00 00 00 00 00 00 00 00 00 00 00 ................
0040D2F0 00 00 00 00 00 00 00 00 00 00 00 00 00 00 00 00 ................
0040D300 00 00 00 00 00 00 00 00 00 00 00 00 00 00 00 00 ................
0040D310 00 00 00 00 00 00 00 00 00 00 00 00 00 00 00 00 ................
0040D320 00 00 00 00 00 00 00 00 00 00 00 00 00 00 00 00 ................
0040D330 00 00 00 00 00 00 00 00 00 00 00 00 00 00 00 00 ................
0040D340 00 00 00 00 00 00 00 00 00 00 00 00 00 00 00 00 ................
0040D350 00 00 00 00 00 00 00 00 00 00 00 00 00 00 00 00 ................
0040D360 00 00 00 00 00 00 00 00 00 00 00 00 00 00 00 00 ................
0040D370 00 00 00 00 00 00 00 00 00 00 00 00 00 00 00 00 ................
0040D380 00 00 00 00 00 00 00 00 00 00 00 00 00 00 00 00 ................
0040D390 00 00 00 00 00 00 00 00 00 00 00 00 00 00 00 00 ................
0040D3A0 00 00 00 00 00 00 00 00 00 00 00 00 00 00 00 00 ................
0040D3B0 00 00 00 00 00 00 00 00 00 00 00 00 00 00 00 00 ................
0040D3C0 00 00 00 00 00 00 00 00 00 00 00 00 00 00 00 00 ................
0040D3D0 00 00 00 00 00 00 00 00 00 00 00 00 00 00 00 00 ................
0040D3E0 00 00 00 00 00 00 00 00 00 00 00 00 00 00 00 00 ................
0040D3F0 00 00 00 00 00 00 00 00 00 00 00 00 00 00 00 00 ................
0040D400 00 00 00 00 00 00 00 00 00 00 00 00 00 00 00 00 ................
0040D410 00 00 00 00 00 00 00 00 00 00 00 00 00 00 00 00 ................
0040D420 00 00 00 00 00 00 00 00 00 00 00 00 00 00 00 00 ................
0040D430 00 00 00 00 00 00 00 00 00 00 00 00 00 00 00 00 ................
0040D440 00 00 00 00 00 00 00 00 00 00 00 00 00 00 00 00 ................
0040D450 00 00 00 00 00 00 00 00 00 00 00 00 00 00 00 00 ................
0040D460 00 00 00 00 00 00 00 00 00 00 00 00 00 00 00 00 ................
0040D470 00 00 00 00 00 00 00 00 00 00 00 00 00 00 00 00 ................
0040D480 00 00 00 00 00 00 00 00 00 00 00 00 00 00 00 00 ................
0040D490 00 00 00 00 00 00 00 00 00 00 00 00 00 00 00 00 ................
0040D4A0 00 00 00 00 00 00 00 00 00 00 00 00 00 00 00 00 ................
0040D4B0 00 00 00 00 00 00 00 00 00 00 00 00 00 00 00 00 ................
0040D4C0 00 00 00 00 00 00 00 00 00 00 00 00 00 00 00 00 ................
0040D4D0 00 00 00 00 00 00 00 00 00 00 00 00 00 00 00 00 ................
0040D4E0 00 00 00 00 00 00 00 00 00 00 00 00 00 00 00 00 ................
0040D4F0 00 00 00 00 00 00 00 00 00 00 00 00 00 00 00 00 ................
0040D500 00 00 00 00 00 00 00 00 00 00 00 00 00 00 00 00 ................
0040D510 00 00 00 00 00 00 00 00 00 00 00 00 00 00 00 00 ................
0040D520 00 00 00 00 00 00 00 00 00 00 00 00 00 00 00 00 ................
0040D530 00 00 00 00 00 00 00 00 00 00 00 00 00 00 00 00 ................
0040D540 00 00 00 00 00 00 00 00 00 00 00 00 00 00 00 00 ................
0040D550 00 00 00 00 00 00 00 00 00 00 00 00 00 00 00 00 ................
0040D560 00 00 00 00 00 00 00 00 00 00 00 00 00 00 00 00 ................
0040D570 00 00 00 00 00 00 00 00 00 00 00 00 00 00 00 00 ................
0040D580 00 00 00 00 00 00 00 00 00 00 00 00 00 00 00 00 ................
0040D590 00 00 00 00 00 00 00 00 00 00 00 00 00 00 00 00 ................
0040D5A0 00 00 00 00 00 00 00 00 00 00 00 00 00 00 00 00 ................
0040D5B0 00 00 00 00 00 00 00 00 00 00 00 00 00 00 00 00 ................
0040D5C0 00 00 00 00 00 00 00 00 00 00 00 00 00 00 00 00 ................
0040D5D0 00 00 00 00 00 00 00 00 00 00 00 00 00 00 00 00 ................
0040D5E0 00 00 00 00 00 00 00 00 00 00 00 00 00 00 00 00 ................
0040D5F0 00 00 00 00 00 00 00 00 00 00 00 00 00 00 00 00 ................
0040D600 00 00 00 00 00 00 00 00 00 00 00 00 00 00 00 00 ................
0040D610 00 00 00 00 00 00 00 00 00 00 00 00 00 00 00 00 ................
0040D620 00 00 00 00 00 00 00 00 00 00 00 00 00 00 00 00 ................
0040D630 00 00 00 00 00 00 00 00 00 00 00 00 00 00 00 00 ................
0040D640 00 00 00 00 00 00 00 00 00 00 00 00 00 00 00 00 ................
0040D650 00 00 00 00 00 00 00 00 00 00 00 00 00 00 00 00 ................
0040D660 00 00 00 00 00 00 00 00 00 00 00 00 00 00 00 00 ................
0040D670 00 00 00 00 00 00 00 00 00 00 00 00 00 00 00 00 ................
0040D680 00 00 00 00 00 00 00 00 00 00 00 00 00 00 00 00 ................
0040D690 00 00 00 00 00 00 00 00 00 00 00 00 00 00 00 00 ................
0040D6A0 00 00 00 00 00 00 00 00 00 00 00 00 00 00 00 00 ................
0040D6B0 00 00 00 00 00 00 00 00 00 00 00 00 00 00 00 00 ................
0040D6C0 00 00 00 00 00 00 00 00 00 00 00 00 00 00 00 00 ................
0040D6D0 00 00 00 00 00 00 00 00 00 00 00 00 00 00 00 00 ................
0040D6E0 00 00 00 00 00 00 00 00 00 00 00 00 00 00 00 00 ................
0040D6F0 00 00 00 00 00 00 00 00 00 00 00 00 00 00 00 00 ................
0040D700 00 00 00 00 00 00 00 00 00 00 00 00 00 00 00 00 ................
0040D710 00 00 00 00 00 00 00 00 00 00 00 00 00 00 00 00 ................
0040D720 00 00 00 00 00 00 00 00 00 00 00 00 00 00 00 00 ................
0040D730 00 00 00 00 00 00 00 00 00 00 00 00 00 00 00 00 ................
0040D740 00 00 00 00 00 00 00 00 00 00 00 00 00 00 00 00 ................
0040D750 00 00 00 00 00 00 00 00 00 00 00 00 00 00 00 00 ................
0040D760 00 00 00 00 00 00 00 00 00 00 00 00 00 00 00 00 ................
0040D770 00 00 00 00 00 00 00 00 00 00 00 00 00 00 00 00 ................
0040D780 00 00 00 00 00 00 00 00 00 00 00 00 00 00 00 00 ................
0040D790 00 00 00 00 00 00 00 00 00 00 00 00 00 00 00 00 ................
0040D7A0 00 00 00 00 00 00 00 00 00 00 00 00 00 00 00 00 ................
0040D7B0 00 00 00 00 00 00 00 00 00 00 00 00 00 00 00 00 ................
0040D7C0 00 00 00 00 00 00 00 00 00 00 00 00 00 00 00 00 ................
0040D7D0 00 00 00 00 00 00 00 00 00 00 00 00 00 00 00 00 ................
0040D7E0 00 00 00 00 00 00 00 00 00 00 00 00 00 00 00 00 ................
0040D7F0 00 00 00 00 00 00 00 00 00 00 00 00 00 00 00 00 ................
0040D800 00 00 00 00 00 00 00 00 00 00 00 00 00 00 00 00 ................
0040D810 00 00 00 00 00 00 00 00 00 00 00 00 00 00 00 00 ................
0040D820 00 00 00 00 00 00 00 00 00 00 00 00 00 00 00 00 ................
0040D830 00 00 00 00 00 00 00 00 00 00 00 00 00 00 00 00 ................
0040D840 00 00 00 00 00 00 00 00 00 00 00 00 00 00 00 00 ................
0040D850 00 00 00 00 00 00 00 00 00 00 00 00 00 00 00 00 ................
0040D860 00 00 00 00 00 00 00 00 00 00 00 00 00 00 00 00 ................
0040D870 00 00 00 00 00 00 00 00 00 00 00 00 00 00 00 00 ................
0040D880 00 00 00 00 00 00 00 00 00 00 00 00 00 00 00 00 ................
0040D890 00 00 00 00 00 00 00 00 00 00 00 00 00 00 00 00 ................
0040D8A0 00 00 00 00 00 00 00 00 00 00 00 00 00 00 00 00 ................
0040D8B0 00 00 00 00 00 00 00 00 00 00 00 00 00 00 00 00 ................
0040D8C0 00 00 00 00 00 00 00 00 00 00 00 00 00 00 00 00 ................
0040D8D0 00 00 00 00 00 00 00 00 00 00 00 00 00 00 00 00 ................
0040D8E0 00 00 00 00 00 00 00 00 00 00 00 00 00 00 00 00 ................
0040D8F0 00 00 00 00 00 00 00 00 00 00 00 00 00 00 00 00 ................
0040D900 00 00 00 00 00 00 00 00 00 00 00 00 00 00 00 00 ................
0040D910 00 00 00 00 00 00 00 00 00 00 00 00 00 00 00 00 ................
0040D920 00 00 00 00 00 00 00 00 00 00 00 00 00 00 00 00 ................
0040D930 00 00 00 00 00 00 00 00 00 00 00 00 00 00 00 00 ................
0040D940 00 00 00 00 00 00 00 00 00 00 00 00 00 00 00 00 ................
0040D950 00 00 00 00 00 00 00 00 00 00 00 00 00 00 00 00 ................
0040D960 00 00 00 00 00 00 00 00 00 00 00 00 00 00 00 00 ................
0040D970 00 00 00 00 00 00 00 00 00 00 00 00 00 00 00 00 ................
0040D980 00 00 00 00 00 00 00 00 00 00 00 00 00 00 00 00 ................
0040D990 00 00 00 00 00 00 00 00 00 00 00 00 00 00 00 00 ................
0040D9A0 00 00 00 00 00 00 00 00 00 00 00 00 00 00 00 00 ................
0040D9B0 00 00 00 00 00 00 00 00 00 00 00 00 00 00 00 00 ................
0040D9C0 00 00 00 00 00 00 00 00 00 00 00 00 00 00 00 00 ................
0040D9D0 00 00 00 00 00 00 00 00 00 00 00 00 00 00 00 00 ................
0040D9E0 00 00 00 00 00 00 00 00 00 00 00 00 00 00 00 00 ................
0040D9F0 00 00 00 00 00 00 00 00 00 00 00 00 00 00 00 00 ................
0040DA00 00 00 00 00 00 00 00 00 00 00 00 00 00 00 00 00 ................
0040DA10 00 00 00 00 00 00 00 00 00 00 00 00 00 00 00 00 ................
0040DA20 00 00 00 00 00 00 00 00 00 00 00 00 00 00 00 00 ................
0040DA30 00 00 00 00 00 00 00 00 00 00 00 00 00 00 00 00 ................
0040DA40 00 00 00 00 00 00 00 00 00 00 00 00 00 00 00 00 ................
0040DA50 00 00 00 00 00 00 00 00 00 00 00 00 00 00 00 00 ................
0040DA60 00 00 00 00 00 00 00 00 00 00 00 00 00 00 00 00 ................
0040DA70 00 00 00 00 00 00 00 00 00 00 00 00 00 00 00 00 ................
0040DA80 00 00 00 00 00 00 00 00 00 00 00 00 00 00 00 00 ................
0040DA90 00 00 00 00 00 00 00 00 00 00 00 00 00 00 00 00 ................
0040DAA0 00 00 00 00 00 00 00 00 00 00 00 00 00 00 00 00 ................
0040DAB0 00 00 00 00 00 00 00 00 00 00 00 00 00 00 00 00 ................
0040DAC0 00 00 00 00 00 00 00 00 00 00 00 00 00 00 00 00 ................
0040DAD0 00 00 00 00 00 00 00 00 00 00 00 00 00 00 00 00 ................
0040DAE0 00 00 00 00 00 00 00 00 00 00 00 00 00 00 00 00 ................
0040DAF0 00 00 00 00 00 00 00 00 00 00 00 00 00 00 00 00 ................
0040DB00 00 00 00 00 00 00 00 00 00 00 00 00 00 00 00 00 ................
0040DB10 00 00 00 00 00 00 00 00 00 00 00 00 00 00 00 00 ................
0040DB20 00 00 00 00 00 00 00 00 00 00 00 00 00 00 00 00 ................
0040DB30 00 00 00 00 00 00 00 00 00 00 00 00 00 00 00 00 ................
0040DB40 00 00 00 00 00 00 00 00 00 00 00 00 00 00 00 00 ................
0040DB50 00 00 00 00 00 00 00 00 00 00 00 00 00 00 00 00 ................
0040DB60 00 00 00 00 00 00 00 00 00 00 00 00 00 00 00 00 ................
0040DB70 00 00 00 00 00 00 00 00 00 00 00 00 00 00 00 00 ................
0040DB80 00 00 00 00 00 00 00 00 00 00 00 00 00 00 00 00 ................
0040DB90 00 00 00 00 00 00 00 00 00 00 00 00 00 00 00 00 ................
0040DBA0 00 00 00 00 00 00 00 00 00 00 00 00 00 00 00 00 ................
0040DBB0 00 00 00 00 00 00 00 00 00 00 00 00 00 00 00 00 ................
0040DBC0 00 00 00 00 00 00 00 00 00 00 00 00 00 00 00 00 ................
0040DBD0 00 00 00 00 00 00 00 00 00 00 00 00 00 00 00 00 ................
0040DBE0 00 00 00 00 00 00 00 00 00 00 00 00 00 00 00 00 ................
0040DBF0 00 00 00 00 00 00 00 00 00 00 00 00 00 00 00 00 ................
0040DC00 00 00 00 00 00 00 00 00 00 00 00 00 00 00 00 00 ................
0040DC10 00 00 00 00 00 00 00 00 00 00 00 00 00 00 00 00 ................
0040DC20 00 00 00 00 00 00 00 00 00 00 00 00 00 00 00 00 ................
0040DC30 00 00 00 00 00 00 00 00 00 00 00 00 00 00 00 00 ................
0040DC40 00 00 00 00 00 00 00 00 00 00 00 00 00 00 00 00 ................
0040DC50 00 00 00 00 00 00 00 00 00 00 00 00 00 00 00 00 ................
0040DC60 00 00 00 00 00 00 00 00 00 00 00 00 00 00 00 00 ................
0040DC70 00 00 00 00 00 00 00 00 00 00 00 00 00 00 00 00 ................
0040DC80 00 00 00 00 00 00 00 00 00 00 00 00 00 00 00 00 ................
0040DC90 00 00 00 00 00 00 00 00 00 00 00 00 00 00 00 00 ................
0040DCA0 00 00 00 00 00 00 00 00 00 00 00 00 00 00 00 00 ................
0040DCB0 00 00 00 00 00 00 00 00 00 00 00 00 00 00 00 00 ................
0040DCC0 00 00 00 00 00 00 00 00 00 00 00 00 00 00 00 00 ................
0040DCD0 00 00 00 00 00 00 00 00 00 00 00 00 00 00 00 00 ................
0040DCE0 00 00 00 00 00 00 00 00 00 00 00 00 00 00 00 00 ................
0040DCF0 00 00 00 00 00 00 00 00 00 00 00 00 00 00 00 00 ................
0040DD00 00 00 00 00 00 00 00 00 00 00 00 00 00 00 00 00 ................
0040DD10 00 00 00 00 00 00 00 00 00 00 00 00 00 00 00 00 ................
0040DD20 00 00 00 00 00 00 00 00 00 00 00 00 00 00 00 00 ................
0040DD30 00 00 00 00 00 00 00 00 00 00 00 00 00 00 00 00 ................
0040DD40 00 00 00 00 00 00 00 00 00 00 00 00 00 00 00 00 ................
0040DD50 00 00 00 00 00 00 00 00 00 00 00 00 00 00 00 00 ................
0040DD60 00 00 00 00 00 00 00 00 00 00 00 00 00 00 00 00 ................
0040DD70 00 00 00 00 00 00 00 00 00 00 00 00 00 00 00 00 ................
0040DD80 00 00 00 00 00 00 00 00 00 00 00 00 00 00 00 00 ................
0040DD90 00 00 00 00 00 00 00 00 00 00 00 00 00 00 00 00 ................
0040DDA0 00 00 00 00 00 00 00 00 00 00 00 00 00 00 00 00 ................
0040DDB0 00 00 00 00 00 00 00 00 00 00 00 00 00 00 00 00 ................
0040DDC0 00 00 00 00 00 00 00 00 00 00 00 00 00 00 00 00 ................
0040DDD0 00 00 00 00 00 00 00 00 00 00 00 00 00 00 00 00 ................
0040DDE0 00 00 00 00 00 00 00 00 00 00 00 00 00 00 00 00 ................
0040DDF0 00 00 00 00 00 00 00 00 00 00 00 00 00 00 00 00 ................
0040DE00 00 00 00 00 00 00 00 00 00 00 00 00 00 00 00 00 ................
0040DE10 00 00 00 00 00 00 00 00 00 00 00 00 00 00 00 00 ................
0040DE20 00 00 00 00 00 00 00 00 00 00 00 00 00 00 00 00 ................
0040DE30 00 00 00 00 00 00 00 00 00 00 00 00 00 00 00 00 ................
0040DE40 00 00 00 00 00 00 00 00 00 00 00 00 00 00 00 00 ................
0040DE50 00 00 00 00 00 00 00 00 00 00 00 00 00 00 00 00 ................
0040DE60 00 00 00 00 00 00 00 00 00 00 00 00 00 00 00 00 ................
0040DE70 00 00 00 00 00 00 00 00 00 00 00 00 00 00 00 00 ................
0040DE80 00 00 00 00 00 00 00 00 00 00 00 00 00 00 00 00 ................
0040DE90 00 00 00 00 00 00 00 00 00 00 00 00 00 00 00 00 ................
0040DEA0 00 00 00 00 00 00 00 00 00 00 00 00 00 00 00 00 ................
0040DEB0 00 00 00 00 00 00 00 00 00 00 00 00 00 00 00 00 ................
0040DEC0 00 00 00 00 00 00 00 00 00 00 00 00 00 00 00 00 ................
0040DED0 00 00 00 00 00 00 00 00 00 00 00 00 00 00 00 00 ................
0040DEE0 00 00 00 00 00 00 00 00 00 00 00 00 00 00 00 00 ................
0040DEF0 00 00 00 00 00 00 00 00 00 00 00 00 00 00 00 00 ................
0040DF00 00 00 00 00 00 00 00 00 00 00 00 00 00 00 00 00 ................
0040DF10 00 00 00 00 00 00 00 00 00 00 00 00 00 00 00 00 ................
0040DF20 00 00 00 00 00 00 00 00 00 00 00 00 00 00 00 00 ................
0040DF30 00 00 00 00 00 00 00 00 00 00 00 00 00 00 00 00 ................
0040DF40 00 00 00 00 00 00 00 00 00 00 00 00 00 00 00 00 ................
0040DF50 00 00 00 00 00 00 00 00 00 00 00 00 00 00 00 00 ................
0040DF60 00 00 00 00 00 00 00 00 00 00 00 00 00 00 00 00 ................
0040DF70 00 00 00 00 00 00 00 00 00 00 00 00 00 00 00 00 ................
0040DF80 00 00 00 00 00 00 00 00 00 00 00 00 00 00 00 00 ................
0040DF90 00 00 00 00 00 00 00 00 00 00 00 00 00 00 00 00 ................
0040DFA0 00 00 00 00 00 00 00 00 00 00 00 00 00 00 00 00 ................
0040DFB0 00 00 00 00 00 00 00 00 00 00 00 00 00 00 00 00 ................
0040DFC0 00 00 00 00 00 00 00 00 00 00 00 00 00 00 00 00 ................
0040DFD0 00 00 00 00 00 00 00 00 00 00 00 00 00 00 00 00 ................
0040DFE0 00 00 00 00 00 00 00 00 00 00 00 00 00 00 00 00 ................
0040DFF0 00 00 00 00 00 00 00 00 00 00 00 00 00 00 00 00 ................
0040E000 00 00 00 00 00 00 00 00 00 00 00 00 00 00 00 00 ................
0040E010 00 00 00 00 00 00 00 00 00 00 00 00 00 00 00 00 ................
0040E020 00 00 00 00 00 00 00 00 00 00 00 00 00 00 00 00 ................
0040E030 00 00 00 00 00 00 00 00 00 00 00 00 00 00 00 00 ................
0040E040 00 00 00 00 00 00 00 00 00 00 00 00 00 00 00 00 ................
0040E050 00 00 00 00 00 00 00 00 00 00 00 00 00 00 00 00 ................
0040E060 00 00 00 00 00 00 00 00 00 00 00 00 00 00 00 00 ................
0040E070 00 00 00 00 00 00 00 00 00 00 00 00 00 00 00 00 ................
0040E080 00 00 00 00 00 00 00 00 00 00 00 00 00 00 00 00 ................
0040E090 00 00 00 00 00 00 00 00 00 00 00 00 00 00 00 00 ................
0040E0A0 00 00 00 00 00 00 00 00 00 00 00 00 00 00 00 00 ................
0040E0B0 00 00 00 00 00 00 00 00 00 00 00 00 00 00 00 00 ................
0040E0C0 00 00 00 00 00 00 00 00 00 00 00 00 00 00 00 00 ................
0040E0D0 00 00 00 00 00 00 00 00 00 00 00 00 00 00 00 00 ................
0040E0E0 00 00 00 00 00 00 00 00 00 00 00 00 00 00 00 00 ................
0040E0F0 00 00 00 00 00 00 00 00 00 00 00 00 00 00 00 00 ................
0040E100 00 00 00 00 00 00 00 00 00 00 00 00 00 00 00 00 ................
0040E110 00 00 00 00 00 00 00 00 00 00 00 00 00 00 00 00 ................
0040E120 00 00 00 00 00 00 00 00 00 00 00 00 00 00 00 00 ................
0040E130 00 00 00 00 00 00 00 00 00 00 00 00 00 00 00 00 ................
0040E140 00 00 00 00 00 00 00 00 00 00 00 00 00 00 00 00 ................
0040E150 00 00 00 00 00 00 00 00 00 00 00 00 00 00 00 00 ................
0040E160 00 00 00 00 00 00 00 00 00 00 00 00 00 00 00 00 ................
0040E170 00 00 00 00 00 00 00 00 00 00 00 00 00 00 00 00 ................
0040E180 00 00 00 00 00 00 00 00 00 00 00 00 00 00 00 00 ................
0040E190 00 00 00 00 00 00 00 00 00 00 00 00 00 00 00 00 ................
0040E1A0 00 00 00 00 00 00 00 00 00 00 00 00 00 00 00 00 ................
0040E1B0 00 00 00 00 00 00 00 00 00 00 00 00 00 00 00 00 ................
0040E1C0 00 00 00 00 00 00 00 00 00 00 00 00 00 00 00 00 ................
0040E1D0 00 00 00 00 00 00 00 00 00 00 00 00 00 00 00 00 ................
0040E1E0 00 00 00 00 00 00 00 00 00 00 00 00 00 00 00 00 ................
0040E1F0 00 00 00 00 00 00 00 00 00 00 00 00 00 00 00 00 ................
0040E200 00 00 00 00 00 00 00 00 00 00 00 00 00 00 00 00 ................
0040E210 00 00 00 00 00 00 00 00 00 00 00 00 00 00 00 00 ................
0040E220 00 00 00 00 00 00 00 00 00 00 00 00 00 00 00 00 ................
0040E230 00 00 00 00 00 00 00 00 00 00 00 00 00 00 00 00 ................
0040E240 00 00 00 00 00 00 00 00 00 00 00 00 00 00 00 00 ................
0040E250 00 00 00 00 00 00 00 00 00 00 00 00 00 00 00 00 ................
0040E260 00 00 00 00 00 00 00 00 00 00 00 00 00 00 00 00 ................
0040E270 00 00 00 00 00 00 00 00 00 00 00 00 00 00 00 00 ................
0040E280 00 00 00 00 00 00 00 00 00 00 00 00 00 00 00 00 ................
0040E290 00 00 00 00 00 00 00 00 00 00 00 00 00 00 00 00 ................
0040E2A0 00 00 00 00 00 00 00 00 00 00 00 00 00 00 00 00 ................
0040E2B0 00 00 00 00 00 00 00 00 00 00 00 00 00 00 00 00 ................
0040E2C0 00 00 00 00 00 00 00 00 00 00 00 00 00 00 00 00 ................
0040E2D0 00 00 00 00 00 00 00 00 00 00 00 00 00 00 00 00 ................
0040E2E0 00 00 00 00 00 00 00 00 00 00 00 00 00 00 00 00 ................
0040E2F0 00 00 00 00 00 00 00 00 00 00 00 00 00 00 00 00 ................
0040E300 00 00 00 00 00 00 00 00 00 00 00 00 00 00 00 00 ................
0040E310 00 00 00 00 00 00 00 00 00 00 00 00 00 00 00 00 ................
0040E320 00 00 00 00 00 00 00 00 00 00 00 00 00 00 00 00 ................
0040E330 00 00 00 00 00 00 00 00 00 00 00 00 00 00 00 00 ................
0040E340 00 00 00 00 00 00 00 00 00 00 00 00 00 00 00 00 ................
0040E350 00 00 00 00 00 00 00 00 00 00 00 00 00 00 00 00 ................
0040E360 00 00 00 00 00 00 00 00 00 00 00 00 00 00 00 00 ................
0040E370 00 00 00 00 00 00 00 00 00 00 00 00 00 00 00 00 ................
0040E380 00 00 00 00 00 00 00 00 00 00 00 00 00 00 00 00 ................
0040E390 00 00 00 00 00 00 00 00 00 00 00 00 00 00 00 00 ................
0040E3A0 00 00 00 00 00 00 00 00 00 00 00 00 00 00 00 00 ................
0040E3B0 00 00 00 00 00 00 00 00 00 00 00 00 00 00 00 00 ................
0040E3C0 00 00 00 00 00 00 00 00 00 00 00 00 00 00 00 00 ................
0040E3D0 00 00 00 00 00 00 00 00 00 00 00 00 00 00 00 00 ................
0040E3E0 00 00 00 00 00 00 00 00 00 00 00 00 00 00 00 00 ................
0040E3F0 00 00 00 00 00 00 00 00 00 00 00 00 00 00 00 00 ................
0040E400 00 00 00 00 00 00 00 00 00 00 00 00 00 00 00 00 ................
0040E410 00 00 00 00 00 00 00 00 00 00 00 00 00 00 00 00 ................
0040E420 00 00 00 00 00 00 00 00 00 00 00 00 00 00 00 00 ................
0040E430 00 00 00 00 00 00 00 00 00 00 00 00 00 00 00 00 ................
0040E440 00 00 00 00 00 00 00 00 00 00 00 00 00 00 00 00 ................
0040E450 00 00 00 00 00 00 00 00 00 00 00 00 00 00 00 00 ................
0040E460 00 00 00 00 00 00 00 00 00 00 00 00 00 00 00 00 ................
0040E470 00 00 00 00 00 00 00 00 00 00 00 00 00 00 00 00 ................
0040E480 00 00 00 00 00 00 00 00 00 00 00 00 00 00 00 00 ................
0040E490 00 00 00 00 00 00 00 00 00 00 00 00 00 00 00 00 ................
0040E4A0 00 00 00 00 00 00 00 00 00 00 00 00 00 00 00 00 ................
0040E4B0 00 00 00 00 00 00 00 00 00 00 00 00 00 00 00 00 ................
0040E4C0 00 00 00 00 00 00 00 00 00 00 00 00 00 00 00 00 ................
0040E4D0 00 00 00 00 00 00 00 00 00 00 00 00 00 00 00 00 ................
0040E4E0 00 00 00 00 00 00 00 00 00 00 00 00 00 00 00 00 ................
0040E4F0 00 00 00 00 00 00 00 00 00 00 00 00 00 00 00 00 ................
0040E500 00 00 00 00 00 00 00 00 00 00 00 00 00 00 00 00 ................
0040E510 00 00 00 00 00 00 00 00 00 00 00 00 00 00 00 00 ................
0040E520 00 00 00 00 00 00 00 00 00 00 00 00 00 00 00 00 ................
0040E530 00 00 00 00 00 00 00 00 00 00 00 00 00 00 00 00 ................
0040E540 00 00 00 00 00 00 00 00 00 00 00 00 00 00 00 00 ................
0040E550 00 00 00 00 00 00 00 00 00 00 00 00 00 00 00 00 ................
0040E560 00 00 00 00 00 00 00 00 00 00 00 00 00 00 00 00 ................
0040E570 00 00 00 00 00 00 00 00 00 00 00 00 00 00 00 00 ................
0040E580 00 00 00 00 00 00 00 00 00 00 00 00 00 00 00 00 ................
0040E590 00 00 00 00 00 00 00 00 00 00 00 00 00 00 00 00 ................
0040E5A0 00 00 00 00 00 00 00 00 00 00 00 00 00 00 00 00 ................
0040E5B0 00 00 00 00 00 00 00 00 00 00 00 00 00 00 00 00 ................
0040E5C0 00 00 00 00 00 00 00 00 00 00 00 00 00 00 00 00 ................
0040E5D0 00 00 00 00 00 00 00 00 00 00 00 00 00 00 00 00 ................
0040E5E0 00 00 00 00 00 00 00 00 00 00 00 00 00 00 00 00 ................
0040E5F0 00 00 00 00 00 00 00 00 00 00 00 00 00 00 00 00 ................
0040E600 00 00 00 00 00 00 00 00 00 00 00 00 00 00 00 00 ................
0040E610 00 00 00 00 00 00 00 00 00 00 00 00 00 00 00 00 ................
0040E620 00 00 00 00 00 00 00 00 00 00 00 00 00 00 00 00 ................
0040E630 00 00 00 00 00 00 00 00 00 00 00 00 00 00 00 00 ................
0040E640 00 00 00 00 00 00 00 00 00 00 00 00 00 00 00 00 ................
0040E650 00 00 00 00 00 00 00 00 00 00 00 00 00 00 00 00 ................
0040E660 00 00 00 00 00 00 00 00 00 00 00 00 00 00 00 00 ................
0040E670 00 00 00 00 00 00 00 00 00 00 00 00 00 00 00 00 ................
0040E680 00 00 00 00 00 00 00 00 00 00 00 00 00 00 00 00 ................
0040E690 00 00 00 00 00 00 00 00 00 00 00 00 00 00 00 00 ................
0040E6A0 00 00 00 00 00 00 00 00 00 00 00 00 00 00 00 00 ................
0040E6B0 00 00 00 00 00 00 00 00 00 00 00 00 00 00 00 00 ................
0040E6C0 00 00 00 00 00 00 00 00 00 00 00 00 00 00 00 00 ................
0040E6D0 00 00 00 00 00 00 00 00 00 00 00 00 00 00 00 00 ................
0040E6E0 00 00 00 00 00 00 00 00 00 00 00 00 00 00 00 00 ................
0040E6F0 00 00 00 00 00 00 00 00 00 00 00 00 00 00 00 00 ................
0040E700 00 00 00 00 00 00 00 00 00 00 00 00 00 00 00 00 ................
0040E710 00 00 00 00 00 00 00 00 00 00 00 00 00 00 00 00 ................
0040E720 00 00 00 00 00 00 00 00 00 00 00 00 00 00 00 00 ................
0040E730 00 00 00 00 00 00 00 00 00 00 00 00 00 00 00 00 ................
0040E740 00 00 00 00 00 00 00 00 00 00 00 00 00 00 00 00 ................
0040E750 00 00 00 00 00 00 00 00 00 00 00 00 00 00 00 00 ................
0040E760 00 00 00 00 00 00 00 00 00 00 00 00 00 00 00 00 ................
0040E770 00 00 00 00 00 00 00 00 00 00 00 00 00 00 00 00 ................
0040E780 00 00 00 00 00 00 00 00 00 00 00 00 00 00 00 00 ................
0040E790 00 00 00 00 00 00 00 00 00 00 00 00 00 00 00 00 ................
0040E7A0 00 00 00 00 00 00 00 00 00 00 00 00 00 00 00 00 ................
0040E7B0 00 00 00 00 00 00 00 00 00 00 00 00 00 00 00 00 ................
0040E7C0 00 00 00 00 00 00 00 00 00 00 00 00 00 00 00 00 ................
0040E7D0 00 00 00 00 00 00 00 00 00 00 00 00 00 00 00 00 ................
0040E7E0 00 00 00 00 00 00 00 00 00 00 00 00 00 00 00 00 ................
0040E7F0 00 00 00 00 00 00 00 00 00 00 00 00 00 00 00 00 ................
0040E800 00 00 00 00 00 00 00 00 00 00 00 00 00 00 00 00 ................
0040E810 00 00 00 00 00 00 00 00 00 00 00 00 00 00 00 00 ................
0040E820 00 00 00 00 00 00 00 00 00 00 00 00 00 00 00 00 ................
0040E830 00 00 00 00 00 00 00 00 00 00 00 00 00 00 00 00 ................
0040E840 00 00 00 00 00 00 00 00 00 00 00 00 00 00 00 00 ................
0040E850 00 00 00 00 00 00 00 00 00 00 00 00 00 00 00 00 ................
0040E860 00 00 00 00 00 00 00 00 00 00 00 00 00 00 00 00 ................
0040E870 00 00 00 00 00 00 00 00 00 00 00 00 00 00 00 00 ................
0040E880 00 00 00 00 00 00 00 00 00 00 00 00 00 00 00 00 ................
0040E890 00 00 00 00 00 00 00 00 00 00 00 00 00 00 00 00 ................
0040E8A0 00 00 00 00 00 00 00 00 00 00 00 00 00 00 00 00 ................
0040E8B0 00 00 00 00 00 00 00 00 00 00 00 00 00 00 00 00 ................
0040E8C0 00 00 00 00 00 00 00 00 00 00 00 00 00 00 00 00 ................
0040E8D0 00 00 00 00 00 00 00 00 00 00 00 00 00 00 00 00 ................
0040E8E0 00 00 00 00 00 00 00 00 00 00 00 00 00 00 00 00 ................
0040E8F0 00 00 00 00 00 00 00 00 00 00 00 00 00 00 00 00 ................
0040E900 00 00 00 00 00 00 00 00 00 00 00 00 00 00 00 00 ................
0040E910 00 00 00 00 00 00 00 00 00 00 00 00 00 00 00 00 ................
0040E920 00 00 00 00 00 00 00 00 00 00 00 00 00 00 00 00 ................
0040E930 00 00 00 00 00 00 00 00 00 00 00 00 00 00 00 00 ................
0040E940 00 00 00 00 00 00 00 00 00 00 00 00 00 00 00 00 ................
0040E950 00 00 00 00 00 00 00 00 00 00 00 00 00 00 00 00 ................
0040E960 00 00 00 00 00 00 00 00 00 00 00 00 00 00 00 00 ................
0040E970 00 00 00 00 00 00 00 00 00 00 00 00 00 00 00 00 ................
0040E980 00 00 00 00 00 00 00 00 00 00 00 00 00 00 00 00 ................
0040E990 00 00 00 00 00 00 00 00 00 00 00 00 00 00 00 00 ................
0040E9A0 00 00 00 00 00 00 00 00 00 00 00 00 00 00 00 00 ................
0040E9B0 00 00 00 00 00 00 00 00 00 00 00 00 00 00 00 00 ................
0040E9C0 00 00 00 00 00 00 00 00 00 00 00 00 00 00 00 00 ................
0040E9D0 00 00 00 00 00 00 00 00 00 00 00 00 00 00 00 00 ................
0040E9E0 00 00 00 00 00 00 00 00 00 00 00 00 00 00 00 00 ................
0040E9F0 00 00 00 00 00 00 00 00 00 00 00 00 00 00 00 00 ................
0040EA00 00 00 00 00 00 00 00 00 00 00 00 00 00 00 00 00 ................
0040EA10 00 00 00 00 00 00 00 00 00 00 00 00 00 00 00 00 ................
0040EA20 00 00 00 00 00 00 00 00 00 00 00 00 00 00 00 00 ................
0040EA30 00 00 00 00 00 00 00 00 00 00 00 00 00 00 00 00 ................
0040EA40 00 00 00 00 00 00 00 00 00 00 00 00 00 00 00 00 ................
0040EA50 00 00 00 00 00 00 00 00 00 00 00 00 00 00 00 00 ................
0040EA60 00 00 00 00 00 00 00 00 00 00 00 00 00 00 00 00 ................
0040EA70 00 00 00 00 00 00 00 00 00 00 00 00 00 00 00 00 ................
0040EA80 00 00 00 00 00 00 00 00 00 00 00 00 00 00 00 00 ................
0040EA90 00 00 00 00 00 00 00 00 00 00 00 00 00 00 00 00 ................
0040EAA0 00 00 00 00 00 00 00 00 00 00 00 00 00 00 00 00 ................
0040EAB0 00 00 00 00 00 00 00 00 00 00 00 00 00 00 00 00 ................
0040EAC0 00 00 00 00 00 00 00 00 00 00 00 00 00 00 00 00 ................
0040EAD0 00 00 00 00 00 00 00 00 00 00 00 00 00 00 00 00 ................
0040EAE0 00 00 00 00 00 00 00 00 00 00 00 00 00 00 00 00 ................
0040EAF0 00 00 00 00 00 00 00 00 00 00 00 00 00 00 00 00 ................
0040EB00 00 00 00 00 00 00 00 00 00 00 00 00 00 00 00 00 ................
0040EB10 00 00 00 00 00 00 00 00 00 00 00 00 00 00 00 00 ................
0040EB20 00 00 00 00 00 00 00 00 00 00 00 00 00 00 00 00 ................
0040EB30 00 00 00 00 00 00 00 00 00 00 00 00 00 00 00 00 ................
0040EB40 00 00 00 00 00 00 00 00 00 00 00 00 00 00 00 00 ................
0040EB50 00 00 00 00 00 00 00 00 00 00 00 00 00 00 00 00 ................
0040EB60 00 00 00 00 00 00 00 00 00 00 00 00 00 00 00 00 ................
0040EB70 00 00 00 00 00 00 00 00 00 00 00 00 00 00 00 00 ................
0040EB80 00 00 00 00 00 00 00 00 00 00 00 00 00 00 00 00 ................
0040EB90 00 00 00 00 00 00 00 00 00 00 00 00 00 00 00 00 ................
0040EBA0 00 00 00 00 00 00 00 00 00 00 00 00 00 00 00 00 ................
0040EBB0 00 00 00 00 00 00 00 00 00 00 00 00 00 00 00 00 ................
0040EBC0 00 00 00 00 00 00 00 00 00 00 00 00 00 00 00 00 ................
0040EBD0 00 00 00 00 00 00 00 00 00 00 00 00 00 00 00 00 ................
0040EBE0 00 00 00 00 00 00 00 00 00 00 00 00 00 00 00 00 ................
0040EBF0 00 00 00 00 00 00 00 00 00 00 00 00 00 00 00 00 ................
0040EC00 00 00 00 00 00 00 00 00 00 00 00 00 00 00 00 00 ................
0040EC10 00 00 00 00 00 00 00 00 00 00 00 00 00 00 00 00 ................
0040EC20 00 00 00 00 00 00 00 00 00 00 00 00 00 00 00 00 ................
0040EC30 00 00 00 00 00 00 00 00 00 00 00 00 00 00 00 00 ................
0040EC40 00 00 00 00 00 00 00 00 00 00 00 00 00 00 00 00 ................
0040EC50 00 00 00 00 00 00 00 00 00 00 00 00 00 00 00 00 ................
0040EC60 00 00 00 00 00 00 00 00 00 00 00 00 00 00 00 00 ................
0040EC70 00 00 00 00 00 00 00 00 00 00 00 00 00 00 00 00 ................
0040EC80 00 00 00 00 00 00 00 00 00 00 00 00 00 00 00 00 ................
0040EC90 00 00 00 00 00 00 00 00 00 00 00 00 00 00 00 00 ................
0040ECA0 00 00 00 00 00 00 00 00 00 00 00 00 00 00 00 00 ................
0040ECB0 00 00 00 00 00 00 00 00 00 00 00 00 00 00 00 00 ................
0040ECC0 00 00 00 00 00 00 00 00 00 00 00 00 00 00 00 00 ................
0040ECD0 00 00 00 00 00 00 00 00 00 00 00 00 00 00 00 00 ................
0040ECE0 00 00 00 00 00 00 00 00 00 00 00 00 00 00 00 00 ................
0040ECF0 00 00 00 00 00 00 00 00 00 00 00 00 00 00 00 00 ................
0040ED00 00 00 00 00 00 00 00 00 00 00 00 00 00 00 00 00 ................
0040ED10 00 00 00 00 00 00 00 00 00 00 00 00 00 00 00 00 ................
0040ED20 00 00 00 00 00 00 00 00 00 00 00 00 00 00 00 00 ................
0040ED30 00 00 00 00 00 00 00 00 00 00 00 00 00 00 00 00 ................
0040ED40 00 00 00 00 00 00 00 00 00 00 00 00 00 00 00 00 ................
0040ED50 00 00 00 00 00 00 00 00 00 00 00 00 00 00 00 00 ................
0040ED60 00 00 00 00 00 00 00 00 00 00 00 00 00 00 00 00 ................
0040ED70 00 00 00 00 00 00 00 00 00 00 00 00 00 00 00 00 ................
0040ED80 00 00 00 00 00 00 00 00 00 00 00 00 00 00 00 00 ................
0040ED90 00 00 00 00 00 00 00 00 00 00 00 00 00 00 00 00 ................
0040EDA0 00 00 00 00 00 00 00 00 00 00 00 00 00 00 00 00 ................
0040EDB0 00 00 00 00 00 00 00 00 00 00 00 00 00 00 00 00 ................
0040EDC0 00 00 00 00 00 00 00 00 00 00 00 00 00 00 00 00 ................
0040EDD0 00 00 00 00 00 00 00 00 00 00 00 00 00 00 00 00 ................
0040EDE0 00 00 00 00 00 00 00 00 00 00 00 00 00 00 00 00 ................
0040EDF0 00 00 00 00 00 00 00 00 00 00 00 00 00 00 00 00 ................
0040EE00 00 00 00 00 00 00 00 00 00 00 00 00 00 00 00 00 ................
0040EE10 00 00 00 00 00 00 00 00 00 00 00 00 00 00 00 00 ................
0040EE20 00 00 00 00 00 00 00 00 00 00 00 00 00 00 00 00 ................
0040EE30 00 00 00 00 00 00 00 00 00 00 00 00 00 00 00 00 ................
0040EE40 00 00 00 00 00 00 00 00 00 00 00 00 00 00 00 00 ................
0040EE50 00 00 00 00 00 00 00 00 00 00 00 00 00 00 00 00 ................
0040EE60 00 00 00 00 00 00 00 00 00 00 00 00 00 00 00 00 ................
0040EE70 00 00 00 00 00 00 00 00 00 00 00 00 00 00 00 00 ................
0040EE80 00 00 00 00 00 00 00 00 00 00 00 00 00 00 00 00 ................
0040EE90 00 00 00 00 00 00 00 00 00 00 00 00 00 00 00 00 ................
0040EEA0 00 00 00 00 00 00 00 00 00 00 00 00 00 00 00 00 ................
0040EEB0 00 00 00 00 00 00 00 00 00 00 00 00 00 00 00 00 ................
0040EEC0 00 00 00 00 00 00 00 00 00 00 00 00 00 00 00 00 ................
0040EED0 00 00 00 00 00 00 00 00 00 00 00 00 00 00 00 00 ................
0040EEE0 00 00 00 00 00 00 00 00 00 00 00 00 00 00 00 00 ................
0040EEF0 00 00 00 00 00 00 00 00 00 00 00 00 00 00 00 00 ................
0040EF00 00 00 00 00 00 00 00 00 00 00 00 00 00 00 00 00 ................
0040EF10 00 00 00 00 00 00 00 00 00 00 00 00 00 00 00 00 ................
0040EF20 00 00 00 00 00 00 00 00 00 00 00 00 00 00 00 00 ................
0040EF30 00 00 00 00 00 00 00 00 00 00 00 00 00 00 00 00 ................
0040EF40 00 00 00 00 00 00 00 00 00 00 00 00 00 00 00 00 ................
0040EF50 00 00 00 00 00 00 00 00 00 00 00 00 00 00 00 00 ................
0040EF60 00 00 00 00 00 00 00 00 00 00 00 00 00 00 00 00 ................
0040EF70 00 00 00 00 00 00 00 00 00 00 00 00 00 00 00 00 ................
0040EF80 00 00 00 00 00 00 00 00 00 00 00 00 00 00 00 00 ................
0040EF90 00 00 00 00 00 00 00 00 00 00 00 00 00 00 00 00 ................
0040EFA0 00 00 00 00 00 00 00 00 00 00 00 00 00 00 00 00 ................
0040EFB0 00 00 00 00 00 00 00 00 00 00 00 00 00 00 00 00 ................
0040EFC0 00 00 00 00 00 00 00 00 00 00 00 00 00 00 00 00 ................
0040EFD0 00 00 00 00 00 00 00 00 00 00 00 00 00 00 00 00 ................
0040EFE0 00 00 00 00 00 00 00 00 00 00 00 00 00 00 00 00 ................
0040EFF0 00 00 00 00 00 00 00 00 00 00 00 00 00 00 00 00 ................
0040F000 C0 F2 00 00 D0 F2 00 00 E4 F2 00 00 FA F2 00 00 ................
0040F010 0A F3 00 00 1A F3 00 00 36 F3 00 00 46 F3 00 00 ........6...F...
0040F020 60 F3 00 00 78 F3 00 00 88 F3 00 00 A0 F3 00 00 `...x...........
0040F030 B4 F3 00 00 CA F3 00 00 D6 F3 00 00 E4 F3 00 00 ................
0040F040 FE F3 00 00 0E F4 00 00 24 F4 00 00 3C F4 00 00 ........$...<...
0040F050 52 F4 00 00 5E F4 00 00 78 F4 00 00 8A F4 00 00 R...^...x.......
0040F060 98 F4 00 00 A4 F4 00 00 B8 F4 00 00 C8 F4 00 00 ................
0040F070 DC F4 00 00 EC F4 00 00 FA F4 00 00 14 F5 00 00 ................
0040F080 28 F5 00 00 34 F5 00 00 46 F5 00 00 54 F5 00 00 (...4...F...T...
0040F090 66 F5 00 00 72 F5 00 00 7C F5 00 00 94 F5 00 00 f...r...|.......
0040F0A0 B0 F5 00 00 00 00 00 00 D4 F5 00 00 E0 F5 00 00 ................
0040F0B0 F0 F5 00 00 FE F5 00 00 0E F6 00 00 1E F6 00 00 ................
0040F0C0 2C F6 00 00 3A F6 00 00 4C F6 00 00 5C F6 00 00 ,...:...L...\...
0040F0D0 68 F6 00 00 76 F6 00 00 8C F6 00 00 98 F6 00 00 h...v...........
0040F0E0 A4 F6 00 00 B6 F6 00 00 C2 F6 00 00 CE F6 00 00 ................
0040F0F0 E0 F6 00 00 EC F6 00 00 F8 F6 00 00 02 F7 00 00 ................
0040F100 0C F7 00 00 20 F7 00 00 2C F7 00 00 3A F7 00 00 .... ...,...:...
0040F110 48 F7 00 00 52 F7 00 00 64 F7 00 00 6E F7 00 00 H...R...d...n...
0040F120 84 F7 00 00 92 F7 00 00 A4 F7 00 00 B4 F7 00 00 ................
0040F130 C0 F7 00 00 D6 F7 00 00 E2 F7 00 00 00 00 00 00 ................
0040F140 00 00 00 00 80 F1 00 00 00 00 00 00 00 00 00 00 ................
0040F150 C6 F5 00 00 00 F0 00 00 28 F2 00 00 00 00 00 00 ........(.......
0040F160 00 00 00 00 F2 F7 00 00 A8 F0 00 00 00 00 00 00 ................
0040F170 00 00 00 00 00 00 00 00 00 00 00 00 00 00 00 00 ................
0040F180 C0 F2 00 00 D0 F2 00 00 E4 F2 00 00 FA F2 00 00 ................
0040F190 0A F3 00 00 1A F3 00 00 36 F3 00 00 46 F3 00 00 ........6...F...
0040F1A0 60 F3 00 00 78 F3 00 00 88 F3 00 00 A0 F3 00 00 `...x...........
0040F1B0 B4 F3 00 00 CA F3 00 00 D6 F3 00 00 E4 F3 00 00 ................
0040F1C0 FE F3 00 00 0E F4 00 00 24 F4 00 00 3C F4 00 00 ........$...<...
0040F1D0 52 F4 00 00 5E F4 00 00 78 F4 00 00 8A F4 00 00 R...^...x.......
0040F1E0 98 F4 00 00 A4 F4 00 00 B8 F4 00 00 C8 F4 00 00 ................
0040F1F0 DC F4 00 00 EC F4 00 00 FA F4 00 00 14 F5 00 00 ................
0040F200 28 F5 00 00 34 F5 00 00 46 F5 00 00 54 F5 00 00 (...4...F...T...
0040F210 66 F5 00 00 72 F5 00 00 7C F5 00 00 94 F5 00 00 f...r...|.......
0040F220 B0 F5 00 00 00 00 00 00 D4 F5 00 00 E0 F5 00 00 ................
0040F230 F0 F5 00 00 FE F5 00 00 0E F6 00 00 1E F6 00 00 ................
0040F240 2C F6 00 00 3A F6 00 00 4C F6 00 00 5C F6 00 00 ,...:...L...\...
0040F250 68 F6 00 00 76 F6 00 00 8C F6 00 00 98 F6 00 00 h...v...........
0040F260 A4 F6 00 00 B6 F6 00 00 C2 F6 00 00 CE F6 00 00 ................
0040F270 E0 F6 00 00 EC F6 00 00 F8 F6 00 00 02 F7 00 00 ................
0040F280 0C F7 00 00 20 F7 00 00 2C F7 00 00 3A F7 00 00 .... ...,...:...
0040F290 48 F7 00 00 52 F7 00 00 64 F7 00 00 6E F7 00 00 H...R...d...n...
0040F2A0 84 F7 00 00 92 F7 00 00 A4 F7 00 00 B4 F7 00 00 ................
0040F2B0 C0 F7 00 00 D6 F7 00 00 E2 F7 00 00 00 00 00 00 ................
0040F2C0 00 00 47 65 74 54 69 63 6B 43 6F 75 6E 74 00 00 ..GetTickCount..
0040F2D0 06 00 54 65 72 6D 69 6E 61 74 65 50 72 6F 63 65 ..TerminateProce
0040F2E0 73 73 00 00 07 00 57 61 69 74 46 6F 72 53 69 6E ss....WaitForSin
0040F2F0 67 6C 65 4F 62 6A 65 63 74 00 08 00 4C 6F 61 64 gleObject...Load
0040F300 4C 69 62 72 61 72 79 57 00 00 0B 00 47 65 74 54 LibraryW....GetT
0040F310 69 63 6B 43 6F 75 6E 74 00 00 11 00 49 6E 69 74 ickCount....Init
0040F320 69 61 6C 69 7A 65 43 72 69 74 69 63 61 6C 53 65 ializeCriticalSe
0040F330 63 74 69 6F 6E 00 17 00 56 69 72 74 75 61 6C 41 ction...VirtualA
0040F340 6C 6C 6F 63 00 00 1D 00 51 75 65 72 79 50 65 72 lloc....QueryPer
0040F350 66 6F 72 6D 61 6E 63 65 43 6F 75 6E 74 65 72 00 formanceCounter.
0040F360 1F 00 45 6E 74 65 72 43 72 69 74 69 63 61 6C 53 ..EnterCriticalS
0040F370 65 63 74 69 6F 6E 00 00 21 00 43 72 65 61 74 65 ection..!.Create
0040F380 54 68 72 65 61 64 00 00 24 00 45 6E 74 65 72 43 Thread..$.EnterC
0040F390 72 69 74 69 63 61 6C 53 65 63 74 69 6F 6E 00 00 riticalSection..
0040F3A0 26 00 54 65 72 6D 69 6E 61 74 65 50 72 6F 63 65 &.TerminateProce
0040F3B0 73 73 00 00 2A 00 57 69 64 65 43 68 61 72 54 6F ss..*.WideCharTo
0040F3C0 4D 75 6C 74 69 42 79 74 65 00 2B 00 48 65 61 70 MultiByte.+.Heap
0040F3D0 41 6C 6C 6F 63 00 31 00 4C 6F 63 61 6C 41 6C 6C Alloc.1.LocalAll
0040F3E0 6F 63 00 00 32 00 47 65 74 53 79 73 74 65 6D 54 oc..2.GetSystemT
0040F3F0 69 6D 65 41 73 46 69 6C 65 54 69 6D 65 00 34 00 imeAsFileTime.4.
0040F400 56 69 72 74 75 61 6C 41 6C 6C 6F 63 00 00 39 00 VirtualAlloc..9.
0040F410 47 65 74 43 75 72 72 65 6E 74 54 68 72 65 61 64 GetCurrentThread
0040F420 49 64 00 00 3D 00 49 6E 74 65 72 6C 6F 63 6B 65 Id..=.Interlocke
0040F430 64 49 6E 63 72 65 6D 65 6E 74 00 00 3E 00 57 61 dIncrement..>.Wa
0040F440 69 74 46 6F 72 53 69 6E 67 6C 65 4F 62 6A 65 63 itForSingleObjec
0040F450 74 00 42 00 6C 73 74 72 6C 65 6E 57 00 00 46 00 t.B.lstrlenW..F.
0040F460 51 75 65 72 79 50 65 72 66 6F 72 6D 61 6E 63 65 QueryPerformance
0040F470 43 6F 75 6E 74 65 72 00 47 00 47 65 74 50 72 6F Counter.G.GetPro
0040F480 63 65 73 73 48 65 61 70 00 00 4D 00 56 69 72 74 cessHeap..M.Virt
0040F490 75 61 6C 46 72 65 65 00 4F 00 48 65 61 70 41 6C ualFree.O.HeapAl
0040F4A0 6C 6F 63 00 51 00 47 65 74 4D 6F 64 75 6C 65 48 loc.Q.GetModuleH
0040F4B0 61 6E 64 6C 65 57 00 00 56 00 47 65 74 4C 61 73 andleW..V.GetLas
0040F4C0 74 45 72 72 6F 72 00 00 5C 00 54 65 72 6D 69 6E tError..\.Termin
0040F4D0 61 74 65 50 72 6F 63 65 73 73 00 00 5F 00 43 72 ateProcess.._.Cr
0040F4E0 65 61 74 65 54 68 72 65 61 64 00 00 64 00 48 65 eateThread..d.He
0040F4F0 61 70 52 65 41 6C 6C 6F 63 00 69 00 47 65 74 53 apReAlloc.i.GetS
0040F500 79 73 74 65 6D 54 69 6D 65 41 73 46 69 6C 65 54 ystemTimeAsFileT
0040F510 69 6D 65 00 6F 00 54 65 72 6D 69 6E 61 74 65 50 ime.o.TerminateP
0040F520 72 6F 63 65 73 73 00 00 72 00 52 65 61 64 46 69 rocess..r.ReadFi
0040F530 6C 65 00 00 75 00 47 65 74 50 72 6F 63 65 73 73 le..u.GetProcess
0040F540 48 65 61 70 00 00 77 00 46 72 65 65 4C 69 62 72 Heap..w.FreeLibr
0040F550 61 72 79 00 79 00 47 65 74 43 6F 6D 6D 61 6E 64 ary.y.GetCommand
0040F560 4C 69 6E 65 57 00 7B 00 48 65 61 70 46 72 65 65 LineW.{.HeapFree
0040F570 00 00 81 00 47 65 74 41 43 50 00 00 85 00 45 6E ....GetACP....En
0040F580 74 65 72 43 72 69 74 69 63 61 6C 53 65 63 74 69 terCriticalSecti
0040F590 6F 6E 00 00 88 00 55 6E 68 61 6E 64 6C 65 64 45 on....UnhandledE
0040F5A0 78 63 65 70 74 69 6F 6E 46 69 6C 74 65 72 00 00 xceptionFilter..
0040F5B0 8A 00 57 69 64 65 43 68 61 72 54 6F 4D 75 6C 74 ..WideCharToMult
0040F5C0 69 42 79 74 65 00 4B 45 52 4E 45 4C 33 32 2E 44 iByte.KERNEL32.D
0040F5D0 4C 4C 00 00 28 00 50 74 49 6E 52 65 63 74 00 00 LL..(.PtInRect..
0040F5E0 2B 00 53 65 74 57 69 6E 64 6F 77 50 6F 73 00 00 +.SetWindowPos..
0040F5F0 2D 00 53 68 6F 77 57 69 6E 64 6F 77 00 00 31 00 -.ShowWindow..1.
0040F600 53 65 74 57 69 6E 64 6F 77 50 6F 73 00 00 33 00 SetWindowPos..3.
0040F610 55 70 64 61 74 65 57 69 6E 64 6F 77 00 00 37 00 UpdateWindow..7.
0040F620 47 65 74 53 75 62 4D 65 6E 75 00 00 38 00 47 65 GetSubMenu..8.Ge
0040F630 74 53 75 62 4D 65 6E 75 00 00 3E 00 47 65 74 57 tSubMenu..>.GetW
0040F640 69 6E 64 6F 77 4C 6F 6E 67 57 00 00 3F 00 53 65 indowLongW..?.Se
0040F650 6E 64 4D 65 73 73 61 67 65 57 00 00 40 00 50 74 ndMessageW..@.Pt
0040F660 49 6E 52 65 63 74 00 00 46 00 4D 6F 76 65 57 69 InRect..F.MoveWi
0040F670 6E 64 6F 77 00 00 47 00 53 65 6E 64 44 6C 67 49 ndow..G.SendDlgI
0040F680 74 65 6D 4D 65 73 73 61 67 65 57 00 4C 00 47 65 temMessageW.L.Ge
0040F690 74 57 69 6E 64 6F 77 00 4D 00 53 65 74 43 75 72 tWindow.M.SetCur
0040F6A0 73 6F 72 00 51 00 52 65 67 69 73 74 65 72 43 6C sor.Q.RegisterCl
0040F6B0 61 73 73 57 00 00 54 00 44 72 61 77 54 65 78 74 assW..T.DrawText
0040F6C0 57 00 5A 00 53 65 74 46 6F 63 75 73 00 00 5D 00 W.Z.SetFocus..].
0040F6D0 43 72 65 61 74 65 57 69 6E 64 6F 77 45 78 57 00 CreateWindowExW.
0040F6E0 62 00 49 73 57 69 6E 64 6F 77 00 00 66 00 53 65 b.IsWindow..f.Se
0040F6F0 74 54 69 6D 65 72 00 00 68 00 53 65 74 52 65 63 tTimer..h.SetRec
0040F700 74 00 6B 00 53 65 74 52 65 63 74 00 6F 00 49 73 t.k.SetRect.o.Is
0040F710 44 69 61 6C 6F 67 4D 65 73 73 61 67 65 57 00 00 DialogMessageW..
0040F720 71 00 53 65 74 54 69 6D 65 72 00 00 76 00 42 65 q.SetTimer..v.Be
0040F730 67 69 6E 50 61 69 6E 74 00 00 7B 00 47 65 74 53 ginPaint..{.GetS
0040F740 79 73 43 6F 6C 6F 72 00 7C 00 53 65 74 52 65 63 ysColor.|.SetRec
0040F750 74 00 80 00 44 65 66 57 69 6E 64 6F 77 50 72 6F t...DefWindowPro
0040F760 63 57 00 00 84 00 47 65 74 4D 65 6E 75 00 87 00 cW....GetMenu...
0040F770 49 73 44 6C 67 42 75 74 74 6F 6E 43 68 65 63 6B IsDlgButtonCheck
0040F780 65 64 00 00 8D 00 4D 65 73 73 61 67 65 42 65 65 ed....MessageBee
0040F790 70 00 92 00 43 68 65 63 6B 44 6C 67 42 75 74 74 p...CheckDlgButt
0040F7A0 6F 6E 00 00 97 00 47 65 74 57 69 6E 64 6F 77 52 on....GetWindowR
0040F7B0 65 63 74 00 9A 00 53 65 74 46 6F 63 75 73 00 00 ect...SetFocus..
0040F7C0 9B 00 49 73 44 6C 67 42 75 74 74 6F 6E 43 68 65 ..IsDlgButtonChe
0040F7D0 63 6B 65 64 00 00 A0 00 44 72 61 77 54 65 78 74 cked....DrawText
0040F7E0 57 00 A2 00 53 65 6E 64 4D 65 73 73 61 67 65 41 W...SendMessageA
0040F7F0 00 00 55 53 45 52 33 32 2E 44 4C 4C 00 00 00 00 ..USER32.DLL....
0040F800 00 00 00 00 00 00 00 00 00 00 00 00 00 00 00 00 ................
0040F810 00 00 00 00 00 00 00 00 00 00 00 00 00 00 00 00 ................
0040F820 00 00 00 00 00 00 00 00 00 00 00 00 00 00 00 00 ................
0040F830 00 00 00 00 00 00 00 00 00 00 00 00 00 00 00 00 ................
0040F840 00 00 00 00 00 00 00 00 00 00 00 00 00 00 00 00 ................
0040F850 00 00 00 00 00 00 00 00 00 00 00 00 00 00 00 00 ................
0040F860 00 00 00 00 00 00 00 00 00 00 00 00 00 00 00 00 ................
0040F870 00 00 00 00 00 00 00 00 00 00 00 00 00 00 00 00 ................
0040F880 00 00 00 00 00 00 00 00 00 00 00 00 00 00 00 00 ................
0040F890 00 00 00 00 00 00 00 00 00 00 00 00 00 00 00 00 ................
0040F8A0 00 00 00 00 00 00 00 00 00 00 00 00 00 00 00 00 ................
0040F8B0 00 00 00 00 00 00 00 00 00 00 00 00 00 00 00 00 ................
0040F8C0 00 00 00 00 00 00 00 00 00 00 00 00 00 00 00 00 ................
0040F8D0 00 00 00 00 00 00 00 00 00 00 00 00 00 00 00 00 ................
0040F8E0 00 00 00 00 00 00 00 00 00 00 00 00 00 00 00 00 ................
0040F8F0 00 00 00 00 00 00 00 00 00 00 00 00 00 00 00 00 ................
0040F900 00 00 00 00 00 00 00 00 00 00 00 00 00 00 00 00 ................
0040F910 00 00 00 00 00 00 00 00 00 00 00 00 00 00 00 00 ................
0040F920 00 00 00 00 00 00 00 00 00 00 00 00 00 00 00 00 ................
0040F930 00 00 00 00 00 00 00 00 00 00 00 00 00 00 00 00 ................
0040F940 00 00 00 00 00 00 00 00 00 00 00 00 00 00 00 00 ................
0040F950 00 00 00 00 00 00 00 00 00 00 00 00 00 00 00 00 ................
0040F960 00 00 00 00 00 00 00 00 00 00 00 00 00 00 00 00 ................
0040F970 00 00 00 00 00 00 00 00 00 00 00 00 00 00 00 00 ................
0040F980 00 00 00 00 00 00 00 00 00 00 00 00 00 00 00 00 ................
0040F990 00 00 00 00 00 00 00 00 00 00 00 00 00 00 00 00 ................
0040F9A0 00 00 00 00 00 00 00 00 00 00 00 00 00 00 00 00 ................
0040F9B0 00 00 00 00 00 00 00 00 00 00 00 00 00 00 00 00 ................
0040F9C0 00 00 00 00 00 00 00 00 00 00 00 00 00 00 00 00 ................
0040F9D0 00 00 00 00 00 00 00 00 00 00 00 00 00 00 00 00 ................
0040F9E0 00 00 00 00 00 00 00 00 00 00 00 00 00 00 00 00 ................
0040F9F0 00 00 00 00 00 00 00 00 00 00 00 00 00 00 00 00 ................
0040FA00 00 00 00 00 00 00 00 00 00 00 00 00 00 00 00 00 ................
0040FA10 00 00 00 00 00 00 00 00 00 00 00 00 00 00 00 00 ................
0040FA20 00 00 00 00 00 00 00 00 00 00 00 00 00 00 00 00 ................
0040FA30 00 00 00 00 00 00 00 00 00 00 00 00 00 00 00 00 ................
0040FA40 00 00 00 00 00 00 00 00 00 00 00 00 00 00 00 00 ................
0040FA50 00 00 00 00 00 00 00 00 00 00 00 00 00 00 00 00 ................
0040FA60 00 00 00 00 00 00 00 00 00 00 00 00 00 00 00 00 ................
0040FA70 00 00 00 00 00 00 00 00 00 00 00 00 00 00 00 00 ................
0040FA80 00 00 00 00 00 00 00 00 00 00 00 00 00 00 00 00 ................
0040FA90 00 00 00 00 00 00 00 00 00 00 00 00 00 00 00 00 ................
0040FAA0 00 00 00 00 00 00 00 00 00 00 00 00 00 00 00 00 ................
0040FAB0 00 00 00 00 00 00 00 00 00 00 00 00 00 00 00 00 ................
0040FAC0 00 00 00 00 00 00 00 00 00 00 00 00 00 00 00 00 ................
0040FAD0 00 00 00 00 00 00 00 00 00 00 00 00 00 00 00 00 ................
0040FAE0 00 00 00 00 00 00 00 00 00 00 00 00 00 00 00 00 ................
0040FAF0 00 00 00 00 00 00 00 00 00 00 00 00 00 00 00 00 ................
0040FB00 00 00 00 00 00 00 00 00 00 00 00 00 00 00 00 00 ................
0040FB10 00 00 00 00 00 00 00 00 00 00 00 00 00 00 00 00 ................
0040FB20 00 00 00 00 00 00 00 00 00 00 00 00 00 00 00 00 ................
0040FB30 00 00 00 00 00 00 00 00 00 00 00 00 00 00 00 00 ................
0040FB40 00 00 00 00 00 00 00 00 00 00 00 00 00 00 00 00 ................
0040FB50 00 00 00 00 00 00 00 00 00 00 00 00 00 00 00 00 ................
0040FB60 00 00 00 00 00 00 00 00 00 00 00 00 00 00 00 00 ................
0040FB70 00 00 00 00 00 00 00 00 00 00 00 00 00 00 00 00 ................
0040FB80 00 00 00 00 00 00 00 00 00 00 00 00 00 00 00 00 ................
0040FB90 00 00 00 00 00 00 00 00 00 00 00 00 00 00 00 00 ................
0040FBA0 00 00 00 00 00 00 00 00 00 00 00 00 00 00 00 00 ................
0040FBB0 00 00 00 00 00 00 00 00 00 00 00 00 00 00 00 00 ................
0040FBC0 00 00 00 00 00 00 00 00 00 00 00 00 00 00 00 00 ................
0040FBD0 00 00 00 00 00 00 00 00 00 00 00 00 00 00 00 00 ................
0040FBE0 00 00 00 00 00 00 00 00 00 00 00 00 00 00 00 00 ................
0040FBF0 00 00 00 00 00 00 00 00 00 00 00 00 00 00 00 00 ................
0040FC00 00 00 00 00 00 00 00 00 00 00 00 00 00 00 00 00 ................
0040FC10 00 00 00 00 00 00 00 00 00 00 00 00 00 00 00 00 ................
0040FC20 00 00 00 00 00 00 00 00 00 00 00 00 00 00 00 00 ................
0040FC30 00 00 00 00 00 00 00 00 00 00 00 00 00 00 00 00 ................
0040FC40 00 00 00 00 00 00 00 00 00 00 00 00 00 00 00 00 ................
0040FC50 00 00 00 00 00 00 00 00 00 00 00 00 00 00 00 00 ................
0040FC60 00 00 00 00 00 00 00 00 00 00 00 00 00 00 00 00 ................
0040FC70 00 00 00 00 00 00 00 00 00 00 00 00 00 00 00 00 ................
0040FC80 00 00 00 00 00 00 00 00 00 00 00 00 00 00 00 00 ................
0040FC90 00 00 00 00 00 00 00 00 00 00 00 00 00 00 00 00 ................
0040FCA0 00 00 00 00 00 00 00 00 00 00 00 00 00 00 00 00 ................
0040FCB0 00 00 00 00 00 00 00 00 00 00 00 00 00 00 00 00 ................
0040FCC0 00 00 00 00 00 00 00 00 00 00 00 00 00 00 00 00 ................
0040FCD0 00 00 00 00 00 00 00 00 00 00 00 00 00 00 00 00 ................
0040FCE0 00 00 00 00 00 00 00 00 00 00 00 00 00 00 00 00 ................
0040FCF0 00 00 00 00 00 00 00 00 00 00 00 00 00 00 00 00 ................
0040FD00 00 00 00 00 00 00 00 00 00 00 00 00 00 00 00 00 ................
0040FD10 00 00 00 00 00 00 00 00 00 00 00 00 00 00 00 00 ................
0040FD20 00 00 00 00 00 00 00 00 00 00 00 00 00 00 00 00 ................
0040FD30 00 00 00 00 00 00 00 00 00 00 00 00 00 00 00 00 ................
0040FD40 00 00 00 00 00 00 00 00 00 00 00 00 00 00 00 00 ................
0040FD50 00 00 00 00 00 00 00 00 00 00 00 00 00 00 00 00 ................
0040FD60 00 00 00 00 00 00 00 00 00 00 00 00 00 00 00 00 ................
0040FD70 00 00 00 00 00 00 00 00 00 00 00 00 00 00 00 00 ................
0040FD80 00 00 00 00 00 00 00 00 00 00 00 00 00 00 00 00 ................
0040FD90 00 00 00 00 00 00 00 00 00 00 00 00 00 00 00 00 ................
0040FDA0 00 00 00 00 00 00 00 00 00 00 00 00 00 00 00 00 ................
0040FDB0 00 00 00 00 00 00 00 00 00 00 00 00 00 00 00 00 ................
0040FDC0 00 00 00 00 00 00 00 00 00 00 00 00 00 00 00 00 ................
0040FDD0 00 00 00 00 00 00 00 00 00 00 00 00 00 00 00 00 ................
0040FDE0 00 00 00 00 00 00 00 00 00 00 00 00 00 00 00 00 ................
0040FDF0 00 00 00 00 00 00 00 00 00 00 00 00 00 00 00 00 ................
0040FE00 00 00 00 00 00 00 00 00 00 00 00 00 00 00 00 00 ................
0040FE10 00 00 00 00 00 00 00 00 00 00 00 00 00 00 00 00 ................
0040FE20 00 00 00 00 00 00 00 00 00 00 00 00 00 00 00 00 ................
0040FE30 00 00 00 00 00 00 00 00 00 00 00 00 00 00 00 00 ................
0040FE40 00 00 00 00 00 00 00 00 00 00 00 00 00 00 00 00 ................
0040FE50 00 00 00 00 00 00 00 00 00 00 00 00 00 00 00 00 ................
0040FE60 00 00 00 00 00 00 00 00 00 00 00 00 00 00 00 00 ................
0040FE70 00 00 00 00 00 00 00 00 00 00 00 00 00 00 00 00 ................
0040FE80 00 00 00 00 00 00 00 00 00 00 00 00 00 00 00 00 ................
0040FE90 00 00 00 00 00 00 00 00 00 00 00 00 00 00 00 00 ................
0040FEA0 00 00 00 00 00 00 00 00 00 00 00 00 00 00 00 00 ................
0040FEB0 00 00 00 00 00 00 00 00 00 00 00 00 00 00 00 00 ................
0040FEC0 00 00 00 00 00 00 00 00 00 00 00 00 00 00 00 00 ................
0040FED0 00 00 00 00 00 00 00 00 00 00 00 00 00 00 00 00 ................
0040FEE0 00 00 00 00 00 00 00 00 00 00 00 00 00 00 00 00 ................
0040FEF0 00 00 00 00 00 00 00 00 00 00 00 00 00 00 00 00 ................
0040FF00 00 00 00 00 00 00 00 00 00 00 00 00 00 00 00 00 ................
0040FF10 00 00 00 00 00 00 00 00 00 00 00 00 00 00 00 00 ................
0040FF20 00 00 00 00 00 00 00 00 00 00 00 00 00 00 00 00 ................
0040FF30 00 00 00 00 00 00 00 00 00 00 00 00 00 00 00 00 ................
0040FF40 00 00 00 00 00 00 00 00 00 00 00 00 00 00 00 00 ................
0040FF50 00 00 00 00 00 00 00 00 00 00 00 00 00 00 00 00 ................
0040FF60 00 00 00 00 00 00 00 00 00 00 00 00 00 00 00 00 ................
0040FF70 00 00 00 00 00 00 00 00 00 00 00 00 00 00 00 00 ................
0040FF80 00 00 00 00 00 00 00 00 00 00 00 00 00 00 00 00 ................
0040FF90 00 00 00 00 00 00 00 00 00 00 00 00 00 00 00 00 ................
0040FFA0 00 00 00 00 00 00 00 00 00 00 00 00 00 00 00 00 ................
0040FFB0 00 00 00 00 00 00 00 00 00 00 00 00 00 00 00 00 ................
0040FFC0 00 00 00 00 00 00 00 00 00 00 00 00 00 00 00 00 ................
0040FFD0 00 00 00 00 00 00 00 00 00 00 00 00 00 00 00 00 ................
0040FFE0 00 00 00 00 00 00 00 00 00 00 00 00 00 00 00 00 ................
0040FFF0 00 00 00 00 00 00 00 00 00 00 00 00 00 00 00 00 ................
00410000 00 00 00 00 00 00 00 00 00 00 00 00 00 00 03 00 ................
00410010 03 00 00 00 28 00 00 80 0E 00 00 00 40 00 00 80 ....(.......@...
00410020 10 00 00 00 58 00 00 80 00 00 00 00 00 00 00 00 ....X...........
00410030 00 00 00 00 00 00 01 00 01 00 00 00 70 00 00 80 ............p...
00410040 00 00 00 00 00 00 00 00 00 00 00 00 00 00 01 00 ................
00410050 AA 2E 00 00 88 00 00 80 00 00 00 00 00 00 00 00 ................
00410060 00 00 00 00 00 00 01 00 C2 A7 00 00 A0 00 00 80 ................
00410070 00 00 00 00 00 00 00 00 00 00 00 00 00 00 01 00 ................
00410080 19 04 00 00 B8 00 00 00 00 00 00 00 00 00 00 00 ................
00410090 00 00 00 00 00 00 01 00 19 04 00 00 C8 00 00 00 ................
004100A0 00 00 00 00 00 00 00 00 00 00 00 00 00 00 01 00 ................
004100B0 19 04 00 00 D8 00 00 00 E8 00 01 00 A8 08 00 00 ................
004100C0 00 00 00 00 00 00 00 00 90 09 01 00 14 00 00 00 ................
004100D0 00 00 00 00 00 00 00 00 A4 09 01 00 00 03 00 00 ................
004100E0 00 00 00 00 00 00 00 00 28 00 00 00 20 00 00 00 ........(... ...
004100F0 40 00 00 00 01 00 08 00 00 00 00 00 00 04 00 00 @...............
00410100 00 00 00 00 00 00 00 00 00 00 00 00 00 00 00 00 ................
00410110 00 00 00 00 00 00 80 00 00 80 00 00 00 80 80 00 ................
00410120 80 00 00 00 80 00 80 00 80 80 00 00 C0 C0 C0 00 ................
00410130 C0 DC C0 00 F0 CA A6 00 00 20 40 00 00 20 60 00 ......... @.. `.
00410140 00 20 80 00 00 20 A0 00 00 20 C0 00 00 20 E0 00 . ... ... ... ..
00410150 00 40 00 00 00 40 20 00 00 40 40 00 00 40 60 00 .@...@ ..@@..@`.
00410160 00 40 80 00 00 40 A0 00 00 40 C0 00 00 40 E0 00 .@...@...@...@..
00410170 00 60 00 00 00 60 20 00 00 60 40 00 00 60 60 00 .`...` ..`@..``.
00410180 00 60 80 00 00 60 A0 00 00 60 C0 00 00 60 E0 00 .`...`...`...`..
00410190 00 80 00 00 00 80 20 00 00 80 40 00 00 80 60 00 ...... ...@...`.
004101A0 00 80 80 00 00 80 A0 00 00 80 C0 00 00 80 E0 00 ................
004101B0 00 A0 00 00 00 A0 20 00 00 A0 40 00 00 A0 60 00 ...... ...@...`.
004101C0 00 A0 80 00 00 A0 A0 00 00 A0 C0 00 00 A0 E0 00 ................
004101D0 00 C0 00 00 00 C0 20 00 00 C0 40 00 00 C0 60 00 ...... ...@...`.
004101E0 00 C0 80 00 00 C0 A0 00 00 C0 C0 00 00 C0 E0 00 ................
004101F0 00 E0 00 00 00 E0 20 00 00 E0 40 00 00 E0 60 00 ...... ...@...`.
00410200 00 E0 80 00 00 E0 A0 00 00 E0 C0 00 00 E0 E0 00 ................
00410210 40 00 00 00 40 00 20 00 40 00 40 00 40 00 60 00 @...@. .@.@.@.`.
00410220 40 00 80 00 40 00 A0 00 40 00 C0 00 40 00 E0 00 @...@...@...@...
00410230 40 20 00 00 40 20 20 00 40 20 40 00 40 20 60 00 @ ..@  .@ @.@ `.
00410240 40 20 80 00 40 20 A0 00 40 20 C0 00 40 20 E0 00 @ ..@ ..@ ..@ ..
00410250 40 40 00 00 40 40 20 00 40 40 40 00 40 40 60 00 @@..@@ .@@@.@@`.
00410260 40 40 80 00 40 40 A0 00 40 40 C0 00 40 40 E0 00 @@..@@..@@..@@..
00410270 40 60 00 00 40 60 20 00 40 60 40 00 40 60 60 00 @`..@` .@`@.@``.
00410280 40 60 80 00 40 60 A0 00 40 60 C0 00 40 60 E0 00 @`..@`..@`..@`..
00410290 40 80 00 00 40 80 20 00 40 80 40 00 40 80 60 00 @...@. .@.@.@.`.
004102A0 40 80 80 00 40 80 A0 00 40 80 C0 00 40 80 E0 00 @...@...@...@...
004102B0 40 A0 00 00 40 A0 20 00 40 A0 40 00 40 A0 60 00 @...@. .@.@.@.`.
004102C0 40 A0 80 00 40 A0 A0 00 40 A0 C0 00 40 A0 E0 00 @...@...@...@...
004102D0 40 C0 00 00 40 C0 20 00 40 C0 40 00 40 C0 60 00 @...@. .@.@.@.`.
004102E0 40 C0 80 00 40 C0 A0 00 40 C0 C0 00 40 C0 E0 00 @...@...@...@...
004102F0 40 E0 00 00 40 E0 20 00 40 E0 40 00 40 E0 60 00 @...@. .@.@.@.`.
00410300 40 E0 80 00 40 E0 A0 00 40 E0 C0 00 40 E0 E0 00 @...@...@...@...
00410310 80 00 00 00 80 00 20 00 80 00 40 00 80 00 60 00 ...... ...@...`.
00410320 80 00 80 00 80 00 A0 00 80 00 C0 00 80 00 E0 00 ................
00410330 80 20 00 00 80 20 20 00 80 20 40 00 80 20 60 00 . ...  .. @.. `.
00410340 80 20 80 00 80 20 A0 00 80 20 C0 00 80 20 E0 00 . ... ... ... ..
00410350 80 40 00 00 80 40 20 00 80 40 40 00 80 40 60 00 .@...@ ..@@..@`.
00410360 80 40 80 00 80 40 A0 00 80 40 C0 00 80 40 E0 00 .@...@...@...@..
00410370 80 60 00 00 80 60 20 00 80 60 40 00 80 60 60 00 .`...` ..`@..``.
00410380 80 60 80 00 80 60 A0 00 80 60 C0 00 80 60 E0 00 .`...`...`...`..
00410390 80 80 00 00 80 80 20 00 80 80 40 00 80 80 60 00 ...... ...@...`.
004103A0 80 80 80 00 80 80 A0 00 80 80 C0 00 80 80 E0 00 ................
004103B0 80 A0 00 00 80 A0 20 00 80 A0 40 00 80 A0 60 00 ...... ...@...`.
004103C0 80 A0 80 00 80 A0 A0 00 80 A0 C0 00 80 A0 E0 00 ................
004103D0 80 C0 00 00 80 C0 20 00 80 C0 40 00 80 C0 60 00 ...... ...@...`.
004103E0 80 C0 80 00 80 C0 A0 00 80 C0 C0 00 80 C0 E0 00 ................
004103F0 80 E0 00 00 80 E0 20 00 80 E0 40 00 80 E0 60 00 ...... ...@...`.
00410400 80 E0 80 00 80 E0 A0 00 80 E0 C0 00 80 E0 E0 00 ................
00410410 C0 00 00 00 C0 00 20 00 C0 00 40 00 C0 00 60 00 ...... ...@...`.
00410420 C0 00 80 00 C0 00 A0 00 C0 00 C0 00 C0 00 E0 00 ................
00410430 C0 20 00 00 C0 20 20 00 C0 20 40 00 C0 20 60 00 . ...  .. @.. `.
00410440 C0 20 80 00 C0 20 A0 00 C0 20 C0 00 C0 20 E0 00 . ... ... ... ..
00410450 C0 40 00 00 C0 40 20 00 C0 40 40 00 C0 40 60 00 .@...@ ..@@..@`.
00410460 C0 40 80 00 C0 40 A0 00 C0 40 C0 00 C0 40 E0 00 .@...@...@...@..
00410470 C0 60 00 00 C0 60 20 00 C0 60 40 00 C0 60 60 00 .`...` ..`@..``.
00410480 C0 60 80 00 C0 60 A0 00 C0 60 C0 00 C0 60 E0 00 .`...`...`...`..
00410490 C0 80 00 00 C0 80 20 00 C0 80 40 00 C0 80 60 00 ...... ...@...`.
004104A0 C0 80 80 00 C0 80 A0 00 C0 80 C0 00 C0 80 E0 00 ................
004104B0 C0 A0 00 00 C0 A0 20 00 C0 A0 40 00 C0 A0 60 00 ...... ...@...`.
004104C0 C0 A0 80 00 C0 A0 A0 00 C0 A0 C0 00 C0 A0 E0 00 ................
004104D0 C0 C0 00 00 C0 C0 20 00 C0 C0 40 00 C0 C0 60 00 ...... ...@...`.
004104E0 C0 C0 80 00 C0 C0 A0 00 F0 FB FF 00 A4 A0 A0 00 ................
004104F0 80 80 80 00 00 00 FF 00 00 FF 00 00 00 FF FF 00 ................
00410500 FF 00 00 00 FF 00 FF 00 FF FF 00 00 FF FF FF 00 ................
00410510 00 00 00 00 00 00 00 00 00 00 00 00 00 00 00 00 ................
00410520 00 00 00 00 00 00 00 00 00 00 00 00 00 00 00 00 ................
00410530 00 00 00 00 00 00 ED A3 9A 9A 92 92 92 92 92 92 ................
00410540 92 92 92 92 92 92 92 92 92 92 92 92 92 92 92 00 ................
00410550 00 00 00 00 00 00 ED F6 07 09 09 09 09 09 09 09 ................
00410560 09 09 EC 09 09 EC EC EC EC EB EB EB EB EB 92 00 ................
00410570 00 00 00 00 00 00 ED F6 F6 F6 F6 F6 F6 F6 F6 F6 ................
00410580 F6 F6 F6 F6 F6 F6 F6 F6 09 09 09 09 09 EB 92 00 ................
00410590 00 00 00 00 00 00 ED F6 F6 F6 F6 F6 F6 F6 F6 F6 ................
004105A0 F6 F6 F6 F6 F6 F6 F6 F6 F6 F6 09 09 09 EB 92 00 ................
004105B0 00 00 00 00 00 00 ED F6 F6 F5 F5 ED ED EC EC EC ................
004105C0 E3 E3 E3 E3 E3 E3 E3 E3 E3 E3 F6 F6 09 EB 92 00 ................
004105D0 00 00 00 00 00 00 ED FF FF F5 FF FF FF F6 EC F6 ................
004105E0 F6 EC FF E3 F6 F6 EC FF E3 F6 F6 F6 F6 EB 92 00 ................
004105F0 00 00 00 00 00 00 ED FF FF F5 FF FF FF FF ED FF ................
00410600 FF EC FF E3 F6 F6 EC FF E3 F6 F6 F6 F6 EC 92 00 ................
00410610 00 00 00 00 00 00 ED FF FF F5 F5 F5 F5 F5 F5 ED ................
00410620 FF EC FF E3 F6 F6 EC FF E3 F6 F6 F6 F6 EC 92 00 ................
00410630 00 00 00 00 00 00 ED FF FF 09 FF FF FF FF F5 FF ................
00410640 FF ED FF E3 EC EC EC FF E3 F6 F6 F6 F6 EC 92 00 ................
00410650 00 00 00 00 00 00 ED FF FF 09 FF FF FF FF F5 FF ................
00410660 FF F5 FF E3 FF FF EC FF E3 F6 F6 F6 F6 EC 92 00 ................
00410670 00 00 00 00 00 00 ED FF FF 09 09 09 09 09 F5 F5 ................
00410680 FF F5 F5 E3 FF FF EC FF E3 F6 F6 F6 F6 EC 92 00 ................
00410690 00 00 00 00 00 00 ED FF FF 09 FF FF FF FF 09 FF ................
004106A0 FF FF FF FF FF FF ED ED E3 F6 F6 F6 F6 09 92 00 ................
004106B0 00 00 00 00 00 00 ED 08 08 ED 07 07 07 ED ED 08 ................
004106C0 FF FF FF F5 FF FF FF FF FF FF F6 F6 F6 09 92 00 ................
004106D0 00 00 00 00 00 00 F7 F7 F5 07 07 08 08 F6 08 ED ................
004106E0 EC 09 F5 F5 F5 F5 F5 F5 ED FF FF F6 F6 EC 92 00 ................
004106F0 00 19 18 AC 08 08 FF FF FF F6 F6 F6 F6 F6 08 07 ................
00410700 F6 FF FF 09 FF FF FF FF F5 FF FF FF F6 09 92 00 ................
00410710 00 19 B5 08 FF FF FF FF F6 F6 B5 1A 1A F6 F6 07 ................
00410720 F6 FF FF 09 FF FF FF FF F5 FF FF FF FF 09 92 00 ................
00410730 00 19 07 AC FF 08 B4 B4 B4 AB 22 1A 6B F6 F6 ED ..........".k...
00410740 F5 09 09 09 09 09 09 F5 F5 FF FF FF FF 09 92 00 ................
00410750 00 19 08 62 FF FF 08 B4 B4 62 1A 6C AB B5 F6 07 ...b.....b.l....
00410760 08 FF FF 09 FF FF FF FF F5 FF FF FF FF 09 92 00 ................
00410770 00 19 08 19 F6 FF FF 08 6B 1A 22 08 FF F6 F6 07 ........k.".....
00410780 08 FF FF 09 FF FF FF FF 09 FF FF FF FF 09 92 00 ................
00410790 00 21 08 19 07 FF FF 08 22 22 6B B4 F5 F6 F6 07 .!......""k.....
004107A0 F5 09 09 09 09 09 09 09 09 FF FF FF FF 09 92 00 ................
004107B0 00 21 08 19 AC FF F6 22 1A B5 F6 B4 B4 B4 F6 08 .!....."........
004107C0 08 FF FF 09 FF FF FF FF 09 FF FF FF FF 09 92 00 ................
004107D0 00 21 08 AC B4 FF 63 62 6C FF FF FF FF FF FF 08 .!....cbl.......
004107E0 08 FF FF 09 FF FF FF FF 07 09 09 09 09 09 92 00 ................
004107F0 00 61 08 B4 B4 FF FF FF FF FF FF FF FF FF FF F6 .a..............
00410800 07 09 09 09 09 09 09 ED A3 A3 9B 9A 9A 9A 92 00 ................
00410810 00 61 08 B5 B4 08 08 08 08 08 08 F5 B5 08 6B FF .a............k.
00410820 FF FF FF FF FF FF FF ED 09 09 09 09 09 92 F6 00 ................
00410830 00 61 B5 F6 B5 B5 B5 B5 B5 B5 B5 B5 B5 F6 61 FF .a............a.
00410840 FF FF FF FF FF FF FF ED F6 F6 09 09 92 F6 F6 00 ................
00410850 00 61 61 08 F6 08 BD BD BD BD BD BD B5 F6 61 F6 .aa...........a.
00410860 09 09 09 FF FF FF FF F5 F6 F6 09 92 F6 F6 00 00 ................
00410870 00 00 61 61 B5 08 F6 F6 F6 F6 F6 F6 F6 F6 61 FF ..aa..........a.
00410880 FF FF FF FF FF FF FF F5 F6 F6 9A F6 F6 00 00 00 ................
00410890 00 00 00 61 61 61 61 61 61 61 61 61 61 61 61 FF ...aaaaaaaaaaaa.
004108A0 FF FF FF FF FF FF FF F5 F6 9B F6 F6 00 00 00 00 ................
004108B0 00 00 00 00 00 00 07 FF FF FF FF FF FF FF FF FF ................
004108C0 FF FF FF FF FF FF FF F5 A4 F6 F6 00 00 00 00 00 ................
004108D0 00 00 00 00 00 00 07 07 07 07 07 F5 F5 F5 F5 F5 ................
004108E0 F5 F5 F5 F5 F5 F5 F5 F5 F6 F6 00 00 00 00 00 00 ................
004108F0 00 00 00 00 00 00 00 00 00 00 00 00 00 00 00 00 ................
00410900 00 00 00 00 00 00 00 00 00 00 00 00 00 00 00 00 ................
00410910 FF FF FF FF FC 00 00 01 FC 00 00 01 FC 00 00 01 ................
00410920 FC 00 00 01 FC 00 00 01 FC 00 00 01 FC 00 00 01 ................
00410930 FC 00 00 01 FC 00 00 01 FC 00 00 01 FC 00 00 01 ................
00410940 FC 00 00 01 C0 00 00 01 C0 00 00 01 80 00 00 01 ................
00410950 80 00 00 01 80 00 00 01 80 00 00 01 80 00 00 01 ................
00410960 80 00 00 01 80 00 00 01 80 00 00 01 80 00 00 01 ................
00410970 80 00 00 01 80 00 00 01 80 00 00 03 C0 00 00 07 ................
00410980 E0 00 00 0F FC 00 00 1F FC 00 00 3F FF FF FF FF ...........?....
00410990 00 00 01 00 01 00 20 20 08 00 00 00 00 00 A8 08 ......  ........
004109A0 00 00 01 00 00 03 34 00 00 00 56 00 53 00 5F 00 ......4...V.S._.
004109B0 56 00 45 00 52 00 53 00 49 00 4F 00 4E 00 5F 00 V.E.R.S.I.O.N._.
004109C0 49 00 4E 00 46 00 4F 00 00 00 00 00 BD 04 EF FE I.N.F.O.........
004109D0 00 00 01 00 27 3B EC A4 27 3B EC A4 27 3B EC A4 ....';..';..';..
004109E0 27 3B EC A4 27 3B 00 00 00 00 00 00 04 00 04 00 ';..';..........
004109F0 01 00 00 00 00 00 00 00 00 00 00 00 00 00 00 00 ................
00410A00 60 02 00 00 00 00 53 00 74 00 72 00 69 00 6E 00 `.....S.t.r.i.n.
00410A10 67 00 46 00 69 00 6C 00 65 00 49 00 6E 00 66 00 g.F.i.l.e.I.n.f.
00410A20 6F 00 00 00 3C 02 00 00 00 00 30 00 38 00 30 00 o...<.....0.8.0.
00410A30 30 00 30 00 34 00 42 00 30 00 00 00 44 00 12 00 0.0.4.B.0...D...
00410A40 01 00 43 00 6F 00 6D 00 70 00 61 00 6E 00 79 00 ..C.o.m.p.a.n.y.
00410A50 4E 00 61 00 6D 00 65 00 00 00 00 00 6D 00 42 00 N.a.m.e.....m.B.
00410A60 53 00 33 00 63 00 33 00 70 00 4A 00 51 00 6E 00 S.3.c.3.p.J.Q.n.
00410A70 46 00 44 00 41 00 66 00 56 00 53 00 50 00 00 00 F.D.A.f.V.S.P...
00410A80 50 00 14 00 01 00 46 00 69 00 6C 00 65 00 44 00 P.....F.i.l.e.D.
00410A90 65 00 73 00 63 00 72 00 69 00 70 00 74 00 69 00 e.s.c.r.i.p.t.i.
00410AA0 6F 00 6E 00 00 00 00 00 70 00 69 00 51 00 4D 00 o.n.....p.i.Q.M.
00410AB0 54 00 43 00 79 00 45 00 63 00 69 00 4A 00 69 00 T.C.y.E.c.i.J.i.
00410AC0 68 00 62 00 37 00 46 00 71 00 6B 00 31 00 00 00 h.b.7.F.q.k.1...
00410AD0 40 00 0F 00 01 00 46 00 69 00 6C 00 65 00 56 00 @.....F.i.l.e.V.
00410AE0 65 00 72 00 73 00 69 00 6F 00 6E 00 00 00 00 00 e.r.s.i.o.n.....
00410AF0 4F 00 31 00 37 00 52 00 54 00 4D 00 70 00 6C 00 O.1.7.R.T.M.p.l.
00410B00 67 00 62 00 69 00 46 00 53 00 44 00 00 00 00 00 g.b.i.F.S.D.....
00410B10 44 00 12 00 01 00 49 00 6E 00 74 00 65 00 72 00 D.....I.n.t.e.r.
00410B20 6E 00 61 00 6C 00 4E 00 61 00 6D 00 65 00 00 00 n.a.l.N.a.m.e...
00410B30 35 00 4B 00 54 00 31 00 56 00 43 00 42 00 41 00 5.K.T.1.V.C.B.A.
00410B40 68 00 6F 00 78 00 4B 00 35 00 56 00 6A 00 63 00 h.o.x.K.5.V.j.c.
00410B50 79 00 00 00 40 00 0E 00 01 00 4C 00 65 00 67 00 y...@.....L.e.g.
00410B60 61 00 6C 00 43 00 6F 00 70 00 79 00 72 00 69 00 a.l.C.o.p.y.r.i.
00410B70 67 00 68 00 74 00 00 00 52 00 4D 00 4D 00 6E 00 g.h.t...R.M.M.n.
00410B80 76 00 44 00 35 00 49 00 61 00 6C 00 56 00 69 00 v.D.5.I.a.l.V.i.
00410B90 78 00 00 00 48 00 10 00 01 00 4F 00 72 00 69 00 x...H.....O.r.i.
00410BA0 67 00 69 00 6E 00 61 00 6C 00 46 00 69 00 6C 00 g.i.n.a.l.F.i.l.
00410BB0 65 00 6E 00 61 00 6D 00 65 00 00 00 4E 00 68 00 e.n.a.m.e...N.h.
00410BC0 6B 00 74 00 6D 00 43 00 32 00 4F 00 43 00 41 00 k.t.m.C.2.O.C.A.
00410BD0 56 00 44 00 33 00 4E 00 58 00 00 00 44 00 12 00 V.D.3.N.X...D...
00410BE0 01 00 50 00 72 00 6F 00 64 00 75 00 63 00 74 00 ..P.r.o.d.u.c.t.
00410BF0 4E 00 61 00 6D 00 65 00 00 00 00 00 32 00 74 00 N.a.m.e.....2.t.
00410C00 66 00 41 00 35 00 33 00 31 00 4F 00 42 00 63 00 f.A.5.3.1.O.B.c.
00410C10 6B 00 6F 00 62 00 73 00 54 00 6B 00 57 00 00 00 k.o.b.s.T.k.W...
00410C20 40 00 0D 00 01 00 50 00 72 00 6F 00 64 00 75 00 @.....P.r.o.d.u.
00410C30 63 00 74 00 56 00 65 00 72 00 73 00 69 00 6F 00 c.t.V.e.r.s.i.o.
00410C40 6E 00 00 00 76 00 67 00 36 00 53 00 46 00 67 00 n...v.g.6.S.F.g.
00410C50 71 00 75 00 45 00 47 00 50 00 4D 00 00 00 00 00 q.u.E.G.P.M.....
00410C60 44 00 00 00 00 00 56 00 61 00 72 00 46 00 69 00 D.....V.a.r.F.i.
00410C70 6C 00 65 00 49 00 6E 00 66 00 6F 00 00 00 00 00 l.e.I.n.f.o.....
00410C80 24 00 04 00 00 00 54 00 72 00 61 00 6E 00 73 00 $.....T.r.a.n.s.
00410C90 6C 00 61 00 74 00 69 00 6F 00 6E 00 00 00 00 00 l.a.t.i.o.n.....
00410CA0 00 08 B0 04 00 00 00 00 00 00 00 00 00 00 00 00 ................
00410CB0 00 00 00 00 00 00 00 00 00 00 00 00 00 00 00 00 ................
00410CC0 00 00 00 00 00 00 00 00 00 00 00 00 00 00 00 00 ................
00410CD0 00 00 00 00 00 00 00 00 00 00 00 00 00 00 00 00 ................
00410CE0 00 00 00 00 00 00 00 00 00 00 00 00 00 00 00 00 ................
00410CF0 00 00 00 00 00 00 00 00 00 00 00 00 00 00 00 00 ................
00410D00 00 00 00 00 00 00 00 00 00 00 00 00 00 00 00 00 ................
00410D10 00 00 00 00 00 00 00 00 00 00 00 00 00 00 00 00 ................
00410D20 00 00 00 00 00 00 00 00 00 00 00 00 00 00 00 00 ................
00410D30 00 00 00 00 00 00 00 00 00 00 00 00 00 00 00 00 ................
00410D40 00 00 00 00 00 00 00 00 00 00 00 00 00 00 00 00 ................
00410D50 00 00 00 00 00 00 00 00 00 00 00 00 00 00 00 00 ................
00410D60 00 00 00 00 00 00 00 00 00 00 00 00 00 00 00 00 ................
00410D70 00 00 00 00 00 00 00 00 00 00 00 00 00 00 00 00 ................
00410D80 00 00 00 00 00 00 00 00 00 00 00 00 00 00 00 00 ................
00410D90 00 00 00 00 00 00 00 00 00 00 00 00 00 00 00 00 ................
00410DA0 00 00 00 00 00 00 00 00 00 00 00 00 00 00 00 00 ................
00410DB0 00 00 00 00 00 00 00 00 00 00 00 00 00 00 00 00 ................
00410DC0 00 00 00 00 00 00 00 00 00 00 00 00 00 00 00 00 ................
00410DD0 00 00 00 00 00 00 00 00 00 00 00 00 00 00 00 00 ................
00410DE0 00 00 00 00 00 00 00 00 00 00 00 00 00 00 00 00 ................
00410DF0 00 00 00 00 00 00 00 00 00 00 00 00 00 00 00 00 ................
00410E00 00 00 00 00 00 00 00 00 00 00 00 00 00 00 00 00 ................
00410E10 00 00 00 00 00 00 00 00 00 00 00 00 00 00 00 00 ................
00410E20 00 00 00 00 00 00 00 00 00 00 00 00 00 00 00 00 ................
00410E30 00 00 00 00 00 00 00 00 00 00 00 00 00 00 00 00 ................
00410E40 00 00 00 00 00 00 00 00 00 00 00 00 00 00 00 00 ................
00410E50 00 00 00 00 00 00 00 00 00 00 00 00 00 00 00 00 ................
00410E60 00 00 00 00 00 00 00 00 00 00 00 00 00 00 00 00 ................
00410E70 00 00 00 00 00 00 00 00 00 00 00 00 00 00 00 00 ................
00410E80 00 00 00 00 00 00 00 00 00 00 00 00 00 00 00 00 ................
00410E90 00 00 00 00 00 00 00 00 00 00 00 00 00 00 00 00 ................
00410EA0 00 00 00 00 00 00 00 00 00 00 00 00 00 00 00 00 ................
00410EB0 00 00 00 00 00 00 00 00 00 00 00 00 00 00 00 00 ................
00410EC0 00 00 00 00 00 00 00 00 00 00 00 00 00 00 00 00 ................
00410ED0 00 00 00 00 00 00 00 00 00 00 00 00 00 00 00 00 ................
00410EE0 00 00 00 00 00 00 00 00 00 00 00 00 00 00 00 00 ................
00410EF0 00 00 00 00 00 00 00 00 00 00 00 00 00 00 00 00 ................
00410F00 00 00 00 00 00 00 00 00 00 00 00 00 00 00 00 00 ................
00410F10 00 00 00 00 00 00 00 00 00 00 00 00 00 00 00 00 ................
00410F20 00 00 00 00 00 00 00 00 00 00 00 00 00 00 00 00 ................
00410F30 00 00 00 00 00 00 00 00 00 00 00 00 00 00 00 00 ................
00410F40 00 00 00 00 00 00 00 00 00 00 00 00 00 00 00 00 ................
00410F50 00 00 00 00 00 00 00 00 00 00 00 00 00 00 00 00 ................
00410F60 00 00 00 00 00 00 00 00 00 00 00 00 00 00 00 00 ................
00410F70 00 00 00 00 00 00 00 00 00 00 00 00 00 00 00 00 ................
00410F80 00 00 00 00 00 00 00 00 00 00 00 00 00 00 00 00 ................
00410F90 00 00 00 00 00 00 00 00 00 00 00 00 00 00 00 00 ................
00410FA0 00 00 00 00 00 00 00 00 00 00 00 00 00 00 00 00 ................
00410FB0 00 00 00 00 00 00 00 00 00 00 00 00 00 00 00 00 ................
00410FC0 00 00 00 00 00 00 00 00 00 00 00 00 00 00 00 00 ................
00410FD0 00 00 00 00 00 00 00 00 00 00 00 00 00 00 00 00 ................
00410FE0 00 00 00 00 00 00 00 00 00 00 00 00 00 00 00 00 ................
00410FF0 00 00 00 00 00 00 00 00 00 00 00 00 00 00 00 00 ................
