
        .section        .rodata.str1.1,"aMS",@progbits,1
.LC_ret:
        .string "return block"

.LC_0:
        .string "then/else block 0"

.LC_1:
        .string "then/else block 1"

.LC_2:
        .string "then/else block 2"

.LC_3:
        .string "then/else block 3"

.LC_4:
        .string "then/else block 4"

.LC_5:
        .string "then/else block 5"

.LC_6:
        .string "then/else block 6"

.LC_7:
        .string "then/else block 7"

.LC_8:
        .string "then/else block 8"

.LC_9:
        .string "then/else block 9"

.LC_10:
        .string "then/else block 10"

.LC_11:
        .string "then/else block 11"

.LC_12:
        .string "then/else block 12"

.LC_13:
        .string "then/else block 13"

.LC_14:
        .string "then/else block 14"

.LC_15:
        .string "then/else block 15"

.LC_16:
        .string "then/else block 16"

.LC_17:
        .string "then/else block 17"

.LC_18:
        .string "then/else block 18"

.LC_19:
        .string "then/else block 19"

        .text
        .local  conditions
        .comm   conditions,4000,32
        .p2align 4,,15
        .type   initConditions, @function
initConditions:
.LFB0:
        .cfi_startproc
        pushl   %esi
        .cfi_def_cfa_offset 8
        .cfi_offset 6, -8
        pushl   %ebx
        .cfi_def_cfa_offset 12
        .cfi_offset 3, -12
        leal    1000(%eax), %ebx
        movl    %eax, %esi
        .p2align 4,,10
        .p2align 3
.L2:
        leal    1(%eax), %edx
        movl    %edx, %ecx
        subl    %esi, %ecx
        cmpl    %ebx, %edx
        movl    %eax, conditions-4(,%ecx,4)
        movl    %edx, %eax
        jne     .L2
        popl    %ebx
        .cfi_restore 3
        .cfi_def_cfa_offset 8
        popl    %esi
        .cfi_restore 6
        .cfi_def_cfa_offset 4
        ret
        .cfi_endproc
.LFE0:
        .size   initConditions, .-initConditions


        .type   test_1_blocks_1_targets_direct_variant_0, @function
test_1_blocks_1_targets_direct_variant_0:
.L_1_0_0:
        jmp .L_1_0_2
.L_1_0_1:
        pushl   $.LC_ret
        calll   puts
        addl    $4, %esp
        movl    $0, %eax
        ret        
        
.L_1_0_2:
        cmpl    $0, conditions+100
        je     .L_1_0_1
        jmp    .L_1_0_3

.L_1_0_3:
        pushl   $.LC_3
        calll   puts
        addl    $4, %esp
        jmp     .L_1_0_1

.L_1_0_FE1:
        .size   test_1_blocks_1_targets_direct_variant_0, .-test_1_blocks_1_targets_direct_variant_0

        .type   test_1_blocks_2_targets_variant_0, @function
test_1_blocks_2_targets_variant_0:
.L_2_0_0:
        jmp .L_2_0_2
.L_2_0_1:
        pushl   $.LC_ret
        calll   puts
        addl    $4, %esp
        movl    $0, %eax
        ret        
        
.L_2_0_2:
        cmpl    $0, conditions+100
        je     .L_2_0_3
        jmp    .L_2_0_4

.L_2_0_3:
        pushl   $.LC_3
        calll   puts
        addl    $4, %esp
        jmp     .L_2_0_1

.L_2_0_4:
        pushl   $.LC_4
        calll   puts
        addl    $4, %esp
        jmp     .L_2_0_1

.L_2_0_FE1:
        .size   test_1_blocks_2_targets_variant_0, .-test_1_blocks_2_targets_variant_0

        .type   test_1_blocks_2_targets_direct_variant_0, @function
test_1_blocks_2_targets_direct_variant_0:
.L_3_0_0:
        jmp .L_3_0_2
.L_3_0_1:
        pushl   $.LC_ret
        calll   puts
        addl    $4, %esp
        movl    $0, %eax
        ret        
        
.L_3_0_2:
        cmpl    $0, conditions+100
        je     .L_3_0_3
        jmp    .L_3_0_4

.L_3_0_3:
        pushl   $.LC_3
        calll   puts
        addl    $4, %esp
        jmp     .L_3_0_1

.L_3_0_4:
        pushl   $.LC_4
        calll   puts
        addl    $4, %esp
        jmp     .L_3_0_1

.L_3_0_FE1:
        .size   test_1_blocks_2_targets_direct_variant_0, .-test_1_blocks_2_targets_direct_variant_0

        .type   test_2_blocks_1_targets_direct_variant_0, @function
test_2_blocks_1_targets_direct_variant_0:
.L_4_0_0:
        jmp .L_4_0_2
.L_4_0_1:
        pushl   $.LC_ret
        calll   puts
        addl    $4, %esp
        movl    $0, %eax
        ret        
        
.L_4_0_2:
        cmpl    $0, conditions+100
        je     .L_4_0_3
        jmp    .L_4_0_4

.L_4_0_3:
        cmpl    $0, conditions+104
        je     .L_4_0_1
        jmp    .L_4_0_4

.L_4_0_4:
        pushl   $.LC_4
        calll   puts
        addl    $4, %esp
        jmp     .L_4_0_1

.L_4_0_FE1:
        .size   test_2_blocks_1_targets_direct_variant_0, .-test_2_blocks_1_targets_direct_variant_0

        .type   test_2_blocks_1_targets_direct_variant_1, @function
test_2_blocks_1_targets_direct_variant_1:
.L_5_1_0:
        jmp .L_5_1_2
.L_5_1_1:
        pushl   $.LC_ret
        calll   puts
        addl    $4, %esp
        movl    $0, %eax
        ret        
        
.L_5_1_2:
        cmpl    $0, conditions+100
        je     .L_5_1_1
        jmp    .L_5_1_3

.L_5_1_3:
        cmpl    $0, conditions+104
        je     .L_5_1_1
        jmp    .L_5_1_4

.L_5_1_4:
        pushl   $.LC_4
        calll   puts
        addl    $4, %esp
        jmp     .L_5_1_1

.L_5_1_FE1:
        .size   test_2_blocks_1_targets_direct_variant_1, .-test_2_blocks_1_targets_direct_variant_1

        .type   test_2_blocks_2_targets_variant_0, @function
test_2_blocks_2_targets_variant_0:
.L_6_0_0:
        jmp .L_6_0_2
.L_6_0_1:
        pushl   $.LC_ret
        calll   puts
        addl    $4, %esp
        movl    $0, %eax
        ret        
        
.L_6_0_2:
        cmpl    $0, conditions+100
        je     .L_6_0_3
        jmp    .L_6_0_4

.L_6_0_3:
        cmpl    $0, conditions+104
        je     .L_6_0_4
        jmp    .L_6_0_5

.L_6_0_4:
        pushl   $.LC_4
        calll   puts
        addl    $4, %esp
        jmp     .L_6_0_1

.L_6_0_5:
        pushl   $.LC_5
        calll   puts
        addl    $4, %esp
        jmp     .L_6_0_1

.L_6_0_FE1:
        .size   test_2_blocks_2_targets_variant_0, .-test_2_blocks_2_targets_variant_0

        .type   test_2_blocks_2_targets_variant_1, @function
test_2_blocks_2_targets_variant_1:
.L_7_1_0:
        jmp .L_7_1_2
.L_7_1_1:
        pushl   $.LC_ret
        calll   puts
        addl    $4, %esp
        movl    $0, %eax
        ret        
        
.L_7_1_2:
        cmpl    $0, conditions+100
        je     .L_7_1_3
        jmp    .L_7_1_5

.L_7_1_3:
        cmpl    $0, conditions+104
        je     .L_7_1_4
        jmp    .L_7_1_5

.L_7_1_4:
        pushl   $.LC_4
        calll   puts
        addl    $4, %esp
        jmp     .L_7_1_1

.L_7_1_5:
        pushl   $.LC_5
        calll   puts
        addl    $4, %esp
        jmp     .L_7_1_1

.L_7_1_FE1:
        .size   test_2_blocks_2_targets_variant_1, .-test_2_blocks_2_targets_variant_1

        .type   test_2_blocks_2_targets_direct_variant_0, @function
test_2_blocks_2_targets_direct_variant_0:
.L_8_0_0:
        jmp .L_8_0_2
.L_8_0_1:
        pushl   $.LC_ret
        calll   puts
        addl    $4, %esp
        movl    $0, %eax
        ret        
        
.L_8_0_2:
        cmpl    $0, conditions+100
        je     .L_8_0_3
        jmp    .L_8_0_4

.L_8_0_3:
        cmpl    $0, conditions+104
        je     .L_8_0_4
        jmp    .L_8_0_5

.L_8_0_4:
        pushl   $.LC_4
        calll   puts
        addl    $4, %esp
        jmp     .L_8_0_1

.L_8_0_5:
        pushl   $.LC_5
        calll   puts
        addl    $4, %esp
        jmp     .L_8_0_1

.L_8_0_FE1:
        .size   test_2_blocks_2_targets_direct_variant_0, .-test_2_blocks_2_targets_direct_variant_0

        .type   test_2_blocks_2_targets_direct_variant_1, @function
test_2_blocks_2_targets_direct_variant_1:
.L_9_1_0:
        jmp .L_9_1_2
.L_9_1_1:
        pushl   $.LC_ret
        calll   puts
        addl    $4, %esp
        movl    $0, %eax
        ret        
        
.L_9_1_2:
        cmpl    $0, conditions+100
        je     .L_9_1_3
        jmp    .L_9_1_4

.L_9_1_3:
        cmpl    $0, conditions+104
        je     .L_9_1_1
        jmp    .L_9_1_5

.L_9_1_4:
        pushl   $.LC_4
        calll   puts
        addl    $4, %esp
        jmp     .L_9_1_1

.L_9_1_5:
        pushl   $.LC_5
        calll   puts
        addl    $4, %esp
        jmp     .L_9_1_1

.L_9_1_FE1:
        .size   test_2_blocks_2_targets_direct_variant_1, .-test_2_blocks_2_targets_direct_variant_1

        .type   test_2_blocks_2_targets_direct_variant_2, @function
test_2_blocks_2_targets_direct_variant_2:
.L_10_2_0:
        jmp .L_10_2_2
.L_10_2_1:
        pushl   $.LC_ret
        calll   puts
        addl    $4, %esp
        movl    $0, %eax
        ret        
        
.L_10_2_2:
        cmpl    $0, conditions+100
        je     .L_10_2_3
        jmp    .L_10_2_5

.L_10_2_3:
        cmpl    $0, conditions+104
        je     .L_10_2_4
        jmp    .L_10_2_5

.L_10_2_4:
        pushl   $.LC_4
        calll   puts
        addl    $4, %esp
        jmp     .L_10_2_1

.L_10_2_5:
        pushl   $.LC_5
        calll   puts
        addl    $4, %esp
        jmp     .L_10_2_1

.L_10_2_FE1:
        .size   test_2_blocks_2_targets_direct_variant_2, .-test_2_blocks_2_targets_direct_variant_2

        .type   test_2_blocks_2_targets_direct_variant_3, @function
test_2_blocks_2_targets_direct_variant_3:
.L_11_3_0:
        jmp .L_11_3_2
.L_11_3_1:
        pushl   $.LC_ret
        calll   puts
        addl    $4, %esp
        movl    $0, %eax
        ret        
        
.L_11_3_2:
        cmpl    $0, conditions+100
        je     .L_11_3_3
        jmp    .L_11_3_5

.L_11_3_3:
        cmpl    $0, conditions+104
        je     .L_11_3_1
        jmp    .L_11_3_4

.L_11_3_4:
        pushl   $.LC_4
        calll   puts
        addl    $4, %esp
        jmp     .L_11_3_1

.L_11_3_5:
        pushl   $.LC_5
        calll   puts
        addl    $4, %esp
        jmp     .L_11_3_1

.L_11_3_FE1:
        .size   test_2_blocks_2_targets_direct_variant_3, .-test_2_blocks_2_targets_direct_variant_3

        .type   test_2_blocks_2_targets_direct_variant_4, @function
test_2_blocks_2_targets_direct_variant_4:
.L_12_4_0:
        jmp .L_12_4_2
.L_12_4_1:
        pushl   $.LC_ret
        calll   puts
        addl    $4, %esp
        movl    $0, %eax
        ret        
        
.L_12_4_2:
        cmpl    $0, conditions+100
        je     .L_12_4_1
        jmp    .L_12_4_3

.L_12_4_3:
        cmpl    $0, conditions+104
        je     .L_12_4_4
        jmp    .L_12_4_5

.L_12_4_4:
        pushl   $.LC_4
        calll   puts
        addl    $4, %esp
        jmp     .L_12_4_1

.L_12_4_5:
        pushl   $.LC_5
        calll   puts
        addl    $4, %esp
        jmp     .L_12_4_1

.L_12_4_FE1:
        .size   test_2_blocks_2_targets_direct_variant_4, .-test_2_blocks_2_targets_direct_variant_4

        .type   test_2_blocks_3_targets_variant_0, @function
test_2_blocks_3_targets_variant_0:
.L_13_0_0:
        jmp .L_13_0_2
.L_13_0_1:
        pushl   $.LC_ret
        calll   puts
        addl    $4, %esp
        movl    $0, %eax
        ret        
        
.L_13_0_2:
        cmpl    $0, conditions+100
        je     .L_13_0_3
        jmp    .L_13_0_4

.L_13_0_3:
        cmpl    $0, conditions+104
        je     .L_13_0_5
        jmp    .L_13_0_6

.L_13_0_4:
        pushl   $.LC_4
        calll   puts
        addl    $4, %esp
        jmp     .L_13_0_1

.L_13_0_5:
        pushl   $.LC_5
        calll   puts
        addl    $4, %esp
        jmp     .L_13_0_1

.L_13_0_6:
        pushl   $.LC_6
        calll   puts
        addl    $4, %esp
        jmp     .L_13_0_1

.L_13_0_FE1:
        .size   test_2_blocks_3_targets_variant_0, .-test_2_blocks_3_targets_variant_0

        .type   test_2_blocks_3_targets_variant_1, @function
test_2_blocks_3_targets_variant_1:
.L_14_1_0:
        jmp .L_14_1_2
.L_14_1_1:
        pushl   $.LC_ret
        calll   puts
        addl    $4, %esp
        movl    $0, %eax
        ret        
        
.L_14_1_2:
        cmpl    $0, conditions+100
        je     .L_14_1_3
        jmp    .L_14_1_5

.L_14_1_3:
        cmpl    $0, conditions+104
        je     .L_14_1_4
        jmp    .L_14_1_6

.L_14_1_4:
        pushl   $.LC_4
        calll   puts
        addl    $4, %esp
        jmp     .L_14_1_1

.L_14_1_5:
        pushl   $.LC_5
        calll   puts
        addl    $4, %esp
        jmp     .L_14_1_1

.L_14_1_6:
        pushl   $.LC_6
        calll   puts
        addl    $4, %esp
        jmp     .L_14_1_1

.L_14_1_FE1:
        .size   test_2_blocks_3_targets_variant_1, .-test_2_blocks_3_targets_variant_1

        .type   test_2_blocks_3_targets_variant_2, @function
test_2_blocks_3_targets_variant_2:
.L_15_2_0:
        jmp .L_15_2_2
.L_15_2_1:
        pushl   $.LC_ret
        calll   puts
        addl    $4, %esp
        movl    $0, %eax
        ret        
        
.L_15_2_2:
        cmpl    $0, conditions+100
        je     .L_15_2_3
        jmp    .L_15_2_6

.L_15_2_3:
        cmpl    $0, conditions+104
        je     .L_15_2_4
        jmp    .L_15_2_5

.L_15_2_4:
        pushl   $.LC_4
        calll   puts
        addl    $4, %esp
        jmp     .L_15_2_1

.L_15_2_5:
        pushl   $.LC_5
        calll   puts
        addl    $4, %esp
        jmp     .L_15_2_1

.L_15_2_6:
        pushl   $.LC_6
        calll   puts
        addl    $4, %esp
        jmp     .L_15_2_1

.L_15_2_FE1:
        .size   test_2_blocks_3_targets_variant_2, .-test_2_blocks_3_targets_variant_2

        .type   test_3_blocks_1_targets_direct_variant_0, @function
test_3_blocks_1_targets_direct_variant_0:
.L_16_0_0:
        jmp .L_16_0_2
.L_16_0_1:
        pushl   $.LC_ret
        calll   puts
        addl    $4, %esp
        movl    $0, %eax
        ret        
        
.L_16_0_2:
        cmpl    $0, conditions+100
        je     .L_16_0_3
        jmp    .L_16_0_4

.L_16_0_3:
        cmpl    $0, conditions+104
        je     .L_16_0_4
        jmp    .L_16_0_5

.L_16_0_4:
        cmpl    $0, conditions+108
        je     .L_16_0_1
        jmp    .L_16_0_5

.L_16_0_5:
        pushl   $.LC_5
        calll   puts
        addl    $4, %esp
        jmp     .L_16_0_1

.L_16_0_FE1:
        .size   test_3_blocks_1_targets_direct_variant_0, .-test_3_blocks_1_targets_direct_variant_0

        .type   test_3_blocks_1_targets_direct_variant_1, @function
test_3_blocks_1_targets_direct_variant_1:
.L_17_1_0:
        jmp .L_17_1_2
.L_17_1_1:
        pushl   $.LC_ret
        calll   puts
        addl    $4, %esp
        movl    $0, %eax
        ret        
        
.L_17_1_2:
        cmpl    $0, conditions+100
        je     .L_17_1_3
        jmp    .L_17_1_4

.L_17_1_3:
        cmpl    $0, conditions+104
        je     .L_17_1_1
        jmp    .L_17_1_4

.L_17_1_4:
        cmpl    $0, conditions+108
        je     .L_17_1_1
        jmp    .L_17_1_5

.L_17_1_5:
        pushl   $.LC_5
        calll   puts
        addl    $4, %esp
        jmp     .L_17_1_1

.L_17_1_FE1:
        .size   test_3_blocks_1_targets_direct_variant_1, .-test_3_blocks_1_targets_direct_variant_1

        .type   test_3_blocks_1_targets_direct_variant_2, @function
test_3_blocks_1_targets_direct_variant_2:
.L_18_2_0:
        jmp .L_18_2_2
.L_18_2_1:
        pushl   $.LC_ret
        calll   puts
        addl    $4, %esp
        movl    $0, %eax
        ret        
        
.L_18_2_2:
        cmpl    $0, conditions+100
        je     .L_18_2_3
        jmp    .L_18_2_4

.L_18_2_3:
        cmpl    $0, conditions+104
        je     .L_18_2_1
        jmp    .L_18_2_5

.L_18_2_4:
        cmpl    $0, conditions+108
        je     .L_18_2_3
        jmp    .L_18_2_5

.L_18_2_5:
        pushl   $.LC_5
        calll   puts
        addl    $4, %esp
        jmp     .L_18_2_1

.L_18_2_FE1:
        .size   test_3_blocks_1_targets_direct_variant_2, .-test_3_blocks_1_targets_direct_variant_2

        .type   test_3_blocks_1_targets_direct_variant_3, @function
test_3_blocks_1_targets_direct_variant_3:
.L_19_3_0:
        jmp .L_19_3_2
.L_19_3_1:
        pushl   $.LC_ret
        calll   puts
        addl    $4, %esp
        movl    $0, %eax
        ret        
        
.L_19_3_2:
        cmpl    $0, conditions+100
        je     .L_19_3_3
        jmp    .L_19_3_4

.L_19_3_3:
        cmpl    $0, conditions+104
        je     .L_19_3_1
        jmp    .L_19_3_5

.L_19_3_4:
        cmpl    $0, conditions+108
        je     .L_19_3_1
        jmp    .L_19_3_3

.L_19_3_5:
        pushl   $.LC_5
        calll   puts
        addl    $4, %esp
        jmp     .L_19_3_1

.L_19_3_FE1:
        .size   test_3_blocks_1_targets_direct_variant_3, .-test_3_blocks_1_targets_direct_variant_3

        .type   test_3_blocks_1_targets_direct_variant_4, @function
test_3_blocks_1_targets_direct_variant_4:
.L_20_4_0:
        jmp .L_20_4_2
.L_20_4_1:
        pushl   $.LC_ret
        calll   puts
        addl    $4, %esp
        movl    $0, %eax
        ret        
        
.L_20_4_2:
        cmpl    $0, conditions+100
        je     .L_20_4_3
        jmp    .L_20_4_4

.L_20_4_3:
        cmpl    $0, conditions+104
        je     .L_20_4_1
        jmp    .L_20_4_5

.L_20_4_4:
        cmpl    $0, conditions+108
        je     .L_20_4_1
        jmp    .L_20_4_5

.L_20_4_5:
        pushl   $.LC_5
        calll   puts
        addl    $4, %esp
        jmp     .L_20_4_1

.L_20_4_FE1:
        .size   test_3_blocks_1_targets_direct_variant_4, .-test_3_blocks_1_targets_direct_variant_4

        .type   test_3_blocks_1_targets_direct_variant_5, @function
test_3_blocks_1_targets_direct_variant_5:
.L_21_5_0:
        jmp .L_21_5_2
.L_21_5_1:
        pushl   $.LC_ret
        calll   puts
        addl    $4, %esp
        movl    $0, %eax
        ret        
        
.L_21_5_2:
        cmpl    $0, conditions+100
        je     .L_21_5_3
        jmp    .L_21_5_5

.L_21_5_3:
        cmpl    $0, conditions+104
        je     .L_21_5_4
        jmp    .L_21_5_5

.L_21_5_4:
        cmpl    $0, conditions+108
        je     .L_21_5_1
        jmp    .L_21_5_5

.L_21_5_5:
        pushl   $.LC_5
        calll   puts
        addl    $4, %esp
        jmp     .L_21_5_1

.L_21_5_FE1:
        .size   test_3_blocks_1_targets_direct_variant_5, .-test_3_blocks_1_targets_direct_variant_5

        .type   test_3_blocks_1_targets_direct_variant_6, @function
test_3_blocks_1_targets_direct_variant_6:
.L_22_6_0:
        jmp .L_22_6_2
.L_22_6_1:
        pushl   $.LC_ret
        calll   puts
        addl    $4, %esp
        movl    $0, %eax
        ret        
        
.L_22_6_2:
        cmpl    $0, conditions+100
        je     .L_22_6_3
        jmp    .L_22_6_5

.L_22_6_3:
        cmpl    $0, conditions+104
        je     .L_22_6_1
        jmp    .L_22_6_4

.L_22_6_4:
        cmpl    $0, conditions+108
        je     .L_22_6_1
        jmp    .L_22_6_5

.L_22_6_5:
        pushl   $.LC_5
        calll   puts
        addl    $4, %esp
        jmp     .L_22_6_1

.L_22_6_FE1:
        .size   test_3_blocks_1_targets_direct_variant_6, .-test_3_blocks_1_targets_direct_variant_6

        .type   test_3_blocks_1_targets_direct_variant_7, @function
test_3_blocks_1_targets_direct_variant_7:
.L_23_7_0:
        jmp .L_23_7_2
.L_23_7_1:
        pushl   $.LC_ret
        calll   puts
        addl    $4, %esp
        movl    $0, %eax
        ret        
        
.L_23_7_2:
        cmpl    $0, conditions+100
        je     .L_23_7_4
        jmp    .L_23_7_5

.L_23_7_3:
        cmpl    $0, conditions+104
        je     .L_23_7_1
        jmp    .L_23_7_5

.L_23_7_4:
        cmpl    $0, conditions+108
        je     .L_23_7_3
        jmp    .L_23_7_5

.L_23_7_5:
        pushl   $.LC_5
        calll   puts
        addl    $4, %esp
        jmp     .L_23_7_1

.L_23_7_FE1:
        .size   test_3_blocks_1_targets_direct_variant_7, .-test_3_blocks_1_targets_direct_variant_7

        .type   test_3_blocks_1_targets_direct_variant_8, @function
test_3_blocks_1_targets_direct_variant_8:
.L_24_8_0:
        jmp .L_24_8_2
.L_24_8_1:
        pushl   $.LC_ret
        calll   puts
        addl    $4, %esp
        movl    $0, %eax
        ret        
        
.L_24_8_2:
        cmpl    $0, conditions+100
        je     .L_24_8_4
        jmp    .L_24_8_5

.L_24_8_3:
        cmpl    $0, conditions+104
        je     .L_24_8_1
        jmp    .L_24_8_5

.L_24_8_4:
        cmpl    $0, conditions+108
        je     .L_24_8_1
        jmp    .L_24_8_3

.L_24_8_5:
        pushl   $.LC_5
        calll   puts
        addl    $4, %esp
        jmp     .L_24_8_1

.L_24_8_FE1:
        .size   test_3_blocks_1_targets_direct_variant_8, .-test_3_blocks_1_targets_direct_variant_8

        .type   test_3_blocks_1_targets_direct_variant_9, @function
test_3_blocks_1_targets_direct_variant_9:
.L_25_9_0:
        jmp .L_25_9_2
.L_25_9_1:
        pushl   $.LC_ret
        calll   puts
        addl    $4, %esp
        movl    $0, %eax
        ret        
        
.L_25_9_2:
        cmpl    $0, conditions+100
        je     .L_25_9_1
        jmp    .L_25_9_3

.L_25_9_3:
        cmpl    $0, conditions+104
        je     .L_25_9_4
        jmp    .L_25_9_5

.L_25_9_4:
        cmpl    $0, conditions+108
        je     .L_25_9_1
        jmp    .L_25_9_5

.L_25_9_5:
        pushl   $.LC_5
        calll   puts
        addl    $4, %esp
        jmp     .L_25_9_1

.L_25_9_FE1:
        .size   test_3_blocks_1_targets_direct_variant_9, .-test_3_blocks_1_targets_direct_variant_9

        .type   test_3_blocks_1_targets_direct_variant_10, @function
test_3_blocks_1_targets_direct_variant_10:
.L_26_10_0:
        jmp .L_26_10_2
.L_26_10_1:
        pushl   $.LC_ret
        calll   puts
        addl    $4, %esp
        movl    $0, %eax
        ret        
        
.L_26_10_2:
        cmpl    $0, conditions+100
        je     .L_26_10_1
        jmp    .L_26_10_3

.L_26_10_3:
        cmpl    $0, conditions+104
        je     .L_26_10_1
        jmp    .L_26_10_4

.L_26_10_4:
        cmpl    $0, conditions+108
        je     .L_26_10_1
        jmp    .L_26_10_5

.L_26_10_5:
        pushl   $.LC_5
        calll   puts
        addl    $4, %esp
        jmp     .L_26_10_1

.L_26_10_FE1:
        .size   test_3_blocks_1_targets_direct_variant_10, .-test_3_blocks_1_targets_direct_variant_10

        .type   test_3_blocks_1_targets_direct_variant_11, @function
test_3_blocks_1_targets_direct_variant_11:
.L_27_11_0:
        jmp .L_27_11_2
.L_27_11_1:
        pushl   $.LC_ret
        calll   puts
        addl    $4, %esp
        movl    $0, %eax
        ret        
        
.L_27_11_2:
        cmpl    $0, conditions+100
        je     .L_27_11_1
        jmp    .L_27_11_4

.L_27_11_3:
        cmpl    $0, conditions+104
        je     .L_27_11_1
        jmp    .L_27_11_5

.L_27_11_4:
        cmpl    $0, conditions+108
        je     .L_27_11_3
        jmp    .L_27_11_5

.L_27_11_5:
        pushl   $.LC_5
        calll   puts
        addl    $4, %esp
        jmp     .L_27_11_1

.L_27_11_FE1:
        .size   test_3_blocks_1_targets_direct_variant_11, .-test_3_blocks_1_targets_direct_variant_11

        .type   test_3_blocks_1_targets_direct_variant_12, @function
test_3_blocks_1_targets_direct_variant_12:
.L_28_12_0:
        jmp .L_28_12_2
.L_28_12_1:
        pushl   $.LC_ret
        calll   puts
        addl    $4, %esp
        movl    $0, %eax
        ret        
        
.L_28_12_2:
        cmpl    $0, conditions+100
        je     .L_28_12_1
        jmp    .L_28_12_4

.L_28_12_3:
        cmpl    $0, conditions+104
        je     .L_28_12_1
        jmp    .L_28_12_5

.L_28_12_4:
        cmpl    $0, conditions+108
        je     .L_28_12_1
        jmp    .L_28_12_3

.L_28_12_5:
        pushl   $.LC_5
        calll   puts
        addl    $4, %esp
        jmp     .L_28_12_1

.L_28_12_FE1:
        .size   test_3_blocks_1_targets_direct_variant_12, .-test_3_blocks_1_targets_direct_variant_12

        .type   test_3_blocks_2_targets_variant_0, @function
test_3_blocks_2_targets_variant_0:
.L_29_0_0:
        jmp .L_29_0_2
.L_29_0_1:
        pushl   $.LC_ret
        calll   puts
        addl    $4, %esp
        movl    $0, %eax
        ret        
        
.L_29_0_2:
        cmpl    $0, conditions+100
        je     .L_29_0_3
        jmp    .L_29_0_4

.L_29_0_3:
        cmpl    $0, conditions+104
        je     .L_29_0_4
        jmp    .L_29_0_5

.L_29_0_4:
        cmpl    $0, conditions+108
        je     .L_29_0_5
        jmp    .L_29_0_6

.L_29_0_5:
        pushl   $.LC_5
        calll   puts
        addl    $4, %esp
        jmp     .L_29_0_1

.L_29_0_6:
        pushl   $.LC_6
        calll   puts
        addl    $4, %esp
        jmp     .L_29_0_1

.L_29_0_FE1:
        .size   test_3_blocks_2_targets_variant_0, .-test_3_blocks_2_targets_variant_0

        .type   test_3_blocks_2_targets_variant_1, @function
test_3_blocks_2_targets_variant_1:
.L_30_1_0:
        jmp .L_30_1_2
.L_30_1_1:
        pushl   $.LC_ret
        calll   puts
        addl    $4, %esp
        movl    $0, %eax
        ret        
        
.L_30_1_2:
        cmpl    $0, conditions+100
        je     .L_30_1_3
        jmp    .L_30_1_4

.L_30_1_3:
        cmpl    $0, conditions+104
        je     .L_30_1_4
        jmp    .L_30_1_6

.L_30_1_4:
        cmpl    $0, conditions+108
        je     .L_30_1_5
        jmp    .L_30_1_6

.L_30_1_5:
        pushl   $.LC_5
        calll   puts
        addl    $4, %esp
        jmp     .L_30_1_1

.L_30_1_6:
        pushl   $.LC_6
        calll   puts
        addl    $4, %esp
        jmp     .L_30_1_1

.L_30_1_FE1:
        .size   test_3_blocks_2_targets_variant_1, .-test_3_blocks_2_targets_variant_1

        .type   test_3_blocks_2_targets_variant_2, @function
test_3_blocks_2_targets_variant_2:
.L_31_2_0:
        jmp .L_31_2_2
.L_31_2_1:
        pushl   $.LC_ret
        calll   puts
        addl    $4, %esp
        movl    $0, %eax
        ret        
        
.L_31_2_2:
        cmpl    $0, conditions+100
        je     .L_31_2_3
        jmp    .L_31_2_4

.L_31_2_3:
        cmpl    $0, conditions+104
        je     .L_31_2_5
        jmp    .L_31_2_6

.L_31_2_4:
        cmpl    $0, conditions+108
        je     .L_31_2_3
        jmp    .L_31_2_5

.L_31_2_5:
        pushl   $.LC_5
        calll   puts
        addl    $4, %esp
        jmp     .L_31_2_1

.L_31_2_6:
        pushl   $.LC_6
        calll   puts
        addl    $4, %esp
        jmp     .L_31_2_1

.L_31_2_FE1:
        .size   test_3_blocks_2_targets_variant_2, .-test_3_blocks_2_targets_variant_2

        .type   test_3_blocks_2_targets_variant_3, @function
test_3_blocks_2_targets_variant_3:
.L_32_3_0:
        jmp .L_32_3_2
.L_32_3_1:
        pushl   $.LC_ret
        calll   puts
        addl    $4, %esp
        movl    $0, %eax
        ret        
        
.L_32_3_2:
        cmpl    $0, conditions+100
        je     .L_32_3_3
        jmp    .L_32_3_4

.L_32_3_3:
        cmpl    $0, conditions+104
        je     .L_32_3_5
        jmp    .L_32_3_6

.L_32_3_4:
        cmpl    $0, conditions+108
        je     .L_32_3_3
        jmp    .L_32_3_6

.L_32_3_5:
        pushl   $.LC_5
        calll   puts
        addl    $4, %esp
        jmp     .L_32_3_1

.L_32_3_6:
        pushl   $.LC_6
        calll   puts
        addl    $4, %esp
        jmp     .L_32_3_1

.L_32_3_FE1:
        .size   test_3_blocks_2_targets_variant_3, .-test_3_blocks_2_targets_variant_3

        .type   test_3_blocks_2_targets_variant_4, @function
test_3_blocks_2_targets_variant_4:
.L_33_4_0:
        jmp .L_33_4_2
.L_33_4_1:
        pushl   $.LC_ret
        calll   puts
        addl    $4, %esp
        movl    $0, %eax
        ret        
        
.L_33_4_2:
        cmpl    $0, conditions+100
        je     .L_33_4_3
        jmp    .L_33_4_4

.L_33_4_3:
        cmpl    $0, conditions+104
        je     .L_33_4_5
        jmp    .L_33_4_6

.L_33_4_4:
        cmpl    $0, conditions+108
        je     .L_33_4_5
        jmp    .L_33_4_6

.L_33_4_5:
        pushl   $.LC_5
        calll   puts
        addl    $4, %esp
        jmp     .L_33_4_1

.L_33_4_6:
        pushl   $.LC_6
        calll   puts
        addl    $4, %esp
        jmp     .L_33_4_1

.L_33_4_FE1:
        .size   test_3_blocks_2_targets_variant_4, .-test_3_blocks_2_targets_variant_4

        .type   test_3_blocks_2_targets_variant_5, @function
test_3_blocks_2_targets_variant_5:
.L_34_5_0:
        jmp .L_34_5_2
.L_34_5_1:
        pushl   $.LC_ret
        calll   puts
        addl    $4, %esp
        movl    $0, %eax
        ret        
        
.L_34_5_2:
        cmpl    $0, conditions+100
        je     .L_34_5_3
        jmp    .L_34_5_5

.L_34_5_3:
        cmpl    $0, conditions+104
        je     .L_34_5_4
        jmp    .L_34_5_5

.L_34_5_4:
        cmpl    $0, conditions+108
        je     .L_34_5_5
        jmp    .L_34_5_6

.L_34_5_5:
        pushl   $.LC_5
        calll   puts
        addl    $4, %esp
        jmp     .L_34_5_1

.L_34_5_6:
        pushl   $.LC_6
        calll   puts
        addl    $4, %esp
        jmp     .L_34_5_1

.L_34_5_FE1:
        .size   test_3_blocks_2_targets_variant_5, .-test_3_blocks_2_targets_variant_5

        .type   test_3_blocks_2_targets_variant_6, @function
test_3_blocks_2_targets_variant_6:
.L_35_6_0:
        jmp .L_35_6_2
.L_35_6_1:
        pushl   $.LC_ret
        calll   puts
        addl    $4, %esp
        movl    $0, %eax
        ret        
        
.L_35_6_2:
        cmpl    $0, conditions+100
        je     .L_35_6_3
        jmp    .L_35_6_5

.L_35_6_3:
        cmpl    $0, conditions+104
        je     .L_35_6_4
        jmp    .L_35_6_6

.L_35_6_4:
        cmpl    $0, conditions+108
        je     .L_35_6_5
        jmp    .L_35_6_6

.L_35_6_5:
        pushl   $.LC_5
        calll   puts
        addl    $4, %esp
        jmp     .L_35_6_1

.L_35_6_6:
        pushl   $.LC_6
        calll   puts
        addl    $4, %esp
        jmp     .L_35_6_1

.L_35_6_FE1:
        .size   test_3_blocks_2_targets_variant_6, .-test_3_blocks_2_targets_variant_6

        .type   test_3_blocks_2_targets_variant_7, @function
test_3_blocks_2_targets_variant_7:
.L_36_7_0:
        jmp .L_36_7_2
.L_36_7_1:
        pushl   $.LC_ret
        calll   puts
        addl    $4, %esp
        movl    $0, %eax
        ret        
        
.L_36_7_2:
        cmpl    $0, conditions+100
        je     .L_36_7_3
        jmp    .L_36_7_6

.L_36_7_3:
        cmpl    $0, conditions+104
        je     .L_36_7_4
        jmp    .L_36_7_5

.L_36_7_4:
        cmpl    $0, conditions+108
        je     .L_36_7_5
        jmp    .L_36_7_6

.L_36_7_5:
        pushl   $.LC_5
        calll   puts
        addl    $4, %esp
        jmp     .L_36_7_1

.L_36_7_6:
        pushl   $.LC_6
        calll   puts
        addl    $4, %esp
        jmp     .L_36_7_1

.L_36_7_FE1:
        .size   test_3_blocks_2_targets_variant_7, .-test_3_blocks_2_targets_variant_7

        .type   test_3_blocks_2_targets_variant_8, @function
test_3_blocks_2_targets_variant_8:
.L_37_8_0:
        jmp .L_37_8_2
.L_37_8_1:
        pushl   $.LC_ret
        calll   puts
        addl    $4, %esp
        movl    $0, %eax
        ret        
        
.L_37_8_2:
        cmpl    $0, conditions+100
        je     .L_37_8_3
        jmp    .L_37_8_6

.L_37_8_3:
        cmpl    $0, conditions+104
        je     .L_37_8_4
        jmp    .L_37_8_6

.L_37_8_4:
        cmpl    $0, conditions+108
        je     .L_37_8_5
        jmp    .L_37_8_6

.L_37_8_5:
        pushl   $.LC_5
        calll   puts
        addl    $4, %esp
        jmp     .L_37_8_1

.L_37_8_6:
        pushl   $.LC_6
        calll   puts
        addl    $4, %esp
        jmp     .L_37_8_1

.L_37_8_FE1:
        .size   test_3_blocks_2_targets_variant_8, .-test_3_blocks_2_targets_variant_8

        .type   test_3_blocks_2_targets_variant_9, @function
test_3_blocks_2_targets_variant_9:
.L_38_9_0:
        jmp .L_38_9_2
.L_38_9_1:
        pushl   $.LC_ret
        calll   puts
        addl    $4, %esp
        movl    $0, %eax
        ret        
        
.L_38_9_2:
        cmpl    $0, conditions+100
        je     .L_38_9_4
        jmp    .L_38_9_5

.L_38_9_3:
        cmpl    $0, conditions+104
        je     .L_38_9_5
        jmp    .L_38_9_6

.L_38_9_4:
        cmpl    $0, conditions+108
        je     .L_38_9_3
        jmp    .L_38_9_5

.L_38_9_5:
        pushl   $.LC_5
        calll   puts
        addl    $4, %esp
        jmp     .L_38_9_1

.L_38_9_6:
        pushl   $.LC_6
        calll   puts
        addl    $4, %esp
        jmp     .L_38_9_1

.L_38_9_FE1:
        .size   test_3_blocks_2_targets_variant_9, .-test_3_blocks_2_targets_variant_9

        .type   test_3_blocks_2_targets_variant_10, @function
test_3_blocks_2_targets_variant_10:
.L_39_10_0:
        jmp .L_39_10_2
.L_39_10_1:
        pushl   $.LC_ret
        calll   puts
        addl    $4, %esp
        movl    $0, %eax
        ret        
        
.L_39_10_2:
        cmpl    $0, conditions+100
        je     .L_39_10_4
        jmp    .L_39_10_5

.L_39_10_3:
        cmpl    $0, conditions+104
        je     .L_39_10_5
        jmp    .L_39_10_6

.L_39_10_4:
        cmpl    $0, conditions+108
        je     .L_39_10_3
        jmp    .L_39_10_6

.L_39_10_5:
        pushl   $.LC_5
        calll   puts
        addl    $4, %esp
        jmp     .L_39_10_1

.L_39_10_6:
        pushl   $.LC_6
        calll   puts
        addl    $4, %esp
        jmp     .L_39_10_1

.L_39_10_FE1:
        .size   test_3_blocks_2_targets_variant_10, .-test_3_blocks_2_targets_variant_10

        .type   test_3_blocks_2_targets_variant_11, @function
test_3_blocks_2_targets_variant_11:
.L_40_11_0:
        jmp .L_40_11_2
.L_40_11_1:
        pushl   $.LC_ret
        calll   puts
        addl    $4, %esp
        movl    $0, %eax
        ret        
        
.L_40_11_2:
        cmpl    $0, conditions+100
        je     .L_40_11_4
        jmp    .L_40_11_6

.L_40_11_3:
        cmpl    $0, conditions+104
        je     .L_40_11_5
        jmp    .L_40_11_6

.L_40_11_4:
        cmpl    $0, conditions+108
        je     .L_40_11_3
        jmp    .L_40_11_5

.L_40_11_5:
        pushl   $.LC_5
        calll   puts
        addl    $4, %esp
        jmp     .L_40_11_1

.L_40_11_6:
        pushl   $.LC_6
        calll   puts
        addl    $4, %esp
        jmp     .L_40_11_1

.L_40_11_FE1:
        .size   test_3_blocks_2_targets_variant_11, .-test_3_blocks_2_targets_variant_11

        .type   test_3_blocks_2_targets_variant_12, @function
test_3_blocks_2_targets_variant_12:
.L_41_12_0:
        jmp .L_41_12_2
.L_41_12_1:
        pushl   $.LC_ret
        calll   puts
        addl    $4, %esp
        movl    $0, %eax
        ret        
        
.L_41_12_2:
        cmpl    $0, conditions+100
        je     .L_41_12_4
        jmp    .L_41_12_6

.L_41_12_3:
        cmpl    $0, conditions+104
        je     .L_41_12_5
        jmp    .L_41_12_6

.L_41_12_4:
        cmpl    $0, conditions+108
        je     .L_41_12_3
        jmp    .L_41_12_6

.L_41_12_5:
        pushl   $.LC_5
        calll   puts
        addl    $4, %esp
        jmp     .L_41_12_1

.L_41_12_6:
        pushl   $.LC_6
        calll   puts
        addl    $4, %esp
        jmp     .L_41_12_1

.L_41_12_FE1:
        .size   test_3_blocks_2_targets_variant_12, .-test_3_blocks_2_targets_variant_12

        .type   test_3_blocks_2_targets_direct_variant_0, @function
test_3_blocks_2_targets_direct_variant_0:
.L_42_0_0:
        jmp .L_42_0_2
.L_42_0_1:
        pushl   $.LC_ret
        calll   puts
        addl    $4, %esp
        movl    $0, %eax
        ret        
        
.L_42_0_2:
        cmpl    $0, conditions+100
        je     .L_42_0_3
        jmp    .L_42_0_4

.L_42_0_3:
        cmpl    $0, conditions+104
        je     .L_42_0_4
        jmp    .L_42_0_5

.L_42_0_4:
        cmpl    $0, conditions+108
        je     .L_42_0_5
        jmp    .L_42_0_6

.L_42_0_5:
        pushl   $.LC_5
        calll   puts
        addl    $4, %esp
        jmp     .L_42_0_1

.L_42_0_6:
        pushl   $.LC_6
        calll   puts
        addl    $4, %esp
        jmp     .L_42_0_1

.L_42_0_FE1:
        .size   test_3_blocks_2_targets_direct_variant_0, .-test_3_blocks_2_targets_direct_variant_0

        .type   test_3_blocks_2_targets_direct_variant_1, @function
test_3_blocks_2_targets_direct_variant_1:
.L_43_1_0:
        jmp .L_43_1_2
.L_43_1_1:
        pushl   $.LC_ret
        calll   puts
        addl    $4, %esp
        movl    $0, %eax
        ret        
        
.L_43_1_2:
        cmpl    $0, conditions+100
        je     .L_43_1_3
        jmp    .L_43_1_4

.L_43_1_3:
        cmpl    $0, conditions+104
        je     .L_43_1_4
        jmp    .L_43_1_5

.L_43_1_4:
        cmpl    $0, conditions+108
        je     .L_43_1_1
        jmp    .L_43_1_6

.L_43_1_5:
        pushl   $.LC_5
        calll   puts
        addl    $4, %esp
        jmp     .L_43_1_1

.L_43_1_6:
        pushl   $.LC_6
        calll   puts
        addl    $4, %esp
        jmp     .L_43_1_1

.L_43_1_FE1:
        .size   test_3_blocks_2_targets_direct_variant_1, .-test_3_blocks_2_targets_direct_variant_1

        .type   test_3_blocks_2_targets_direct_variant_2, @function
test_3_blocks_2_targets_direct_variant_2:
.L_44_2_0:
        jmp .L_44_2_2
.L_44_2_1:
        pushl   $.LC_ret
        calll   puts
        addl    $4, %esp
        movl    $0, %eax
        ret        
        
.L_44_2_2:
        cmpl    $0, conditions+100
        je     .L_44_2_3
        jmp    .L_44_2_4

.L_44_2_3:
        cmpl    $0, conditions+104
        je     .L_44_2_4
        jmp    .L_44_2_6

.L_44_2_4:
        cmpl    $0, conditions+108
        je     .L_44_2_5
        jmp    .L_44_2_6

.L_44_2_5:
        pushl   $.LC_5
        calll   puts
        addl    $4, %esp
        jmp     .L_44_2_1

.L_44_2_6:
        pushl   $.LC_6
        calll   puts
        addl    $4, %esp
        jmp     .L_44_2_1

.L_44_2_FE1:
        .size   test_3_blocks_2_targets_direct_variant_2, .-test_3_blocks_2_targets_direct_variant_2

        .type   test_3_blocks_2_targets_direct_variant_3, @function
test_3_blocks_2_targets_direct_variant_3:
.L_45_3_0:
        jmp .L_45_3_2
.L_45_3_1:
        pushl   $.LC_ret
        calll   puts
        addl    $4, %esp
        movl    $0, %eax
        ret        
        
.L_45_3_2:
        cmpl    $0, conditions+100
        je     .L_45_3_3
        jmp    .L_45_3_4

.L_45_3_3:
        cmpl    $0, conditions+104
        je     .L_45_3_4
        jmp    .L_45_3_6

.L_45_3_4:
        cmpl    $0, conditions+108
        je     .L_45_3_1
        jmp    .L_45_3_5

.L_45_3_5:
        pushl   $.LC_5
        calll   puts
        addl    $4, %esp
        jmp     .L_45_3_1

.L_45_3_6:
        pushl   $.LC_6
        calll   puts
        addl    $4, %esp
        jmp     .L_45_3_1

.L_45_3_FE1:
        .size   test_3_blocks_2_targets_direct_variant_3, .-test_3_blocks_2_targets_direct_variant_3

        .type   test_3_blocks_2_targets_direct_variant_4, @function
test_3_blocks_2_targets_direct_variant_4:
.L_46_4_0:
        jmp .L_46_4_2
.L_46_4_1:
        pushl   $.LC_ret
        calll   puts
        addl    $4, %esp
        movl    $0, %eax
        ret        
        
.L_46_4_2:
        cmpl    $0, conditions+100
        je     .L_46_4_3
        jmp    .L_46_4_4

.L_46_4_3:
        cmpl    $0, conditions+104
        je     .L_46_4_5
        jmp    .L_46_4_6

.L_46_4_4:
        cmpl    $0, conditions+108
        je     .L_46_4_3
        jmp    .L_46_4_5

.L_46_4_5:
        pushl   $.LC_5
        calll   puts
        addl    $4, %esp
        jmp     .L_46_4_1

.L_46_4_6:
        pushl   $.LC_6
        calll   puts
        addl    $4, %esp
        jmp     .L_46_4_1

.L_46_4_FE1:
        .size   test_3_blocks_2_targets_direct_variant_4, .-test_3_blocks_2_targets_direct_variant_4

        .type   test_3_blocks_2_targets_direct_variant_5, @function
test_3_blocks_2_targets_direct_variant_5:
.L_47_5_0:
        jmp .L_47_5_2
.L_47_5_1:
        pushl   $.LC_ret
        calll   puts
        addl    $4, %esp
        movl    $0, %eax
        ret        
        
.L_47_5_2:
        cmpl    $0, conditions+100
        je     .L_47_5_3
        jmp    .L_47_5_4

.L_47_5_3:
        cmpl    $0, conditions+104
        je     .L_47_5_5
        jmp    .L_47_5_6

.L_47_5_4:
        cmpl    $0, conditions+108
        je     .L_47_5_3
        jmp    .L_47_5_6

.L_47_5_5:
        pushl   $.LC_5
        calll   puts
        addl    $4, %esp
        jmp     .L_47_5_1

.L_47_5_6:
        pushl   $.LC_6
        calll   puts
        addl    $4, %esp
        jmp     .L_47_5_1

.L_47_5_FE1:
        .size   test_3_blocks_2_targets_direct_variant_5, .-test_3_blocks_2_targets_direct_variant_5

        .type   test_3_blocks_2_targets_direct_variant_6, @function
test_3_blocks_2_targets_direct_variant_6:
.L_48_6_0:
        jmp .L_48_6_2
.L_48_6_1:
        pushl   $.LC_ret
        calll   puts
        addl    $4, %esp
        movl    $0, %eax
        ret        
        
.L_48_6_2:
        cmpl    $0, conditions+100
        je     .L_48_6_3
        jmp    .L_48_6_4

.L_48_6_3:
        cmpl    $0, conditions+104
        je     .L_48_6_5
        jmp    .L_48_6_6

.L_48_6_4:
        cmpl    $0, conditions+108
        je     .L_48_6_5
        jmp    .L_48_6_6

.L_48_6_5:
        pushl   $.LC_5
        calll   puts
        addl    $4, %esp
        jmp     .L_48_6_1

.L_48_6_6:
        pushl   $.LC_6
        calll   puts
        addl    $4, %esp
        jmp     .L_48_6_1

.L_48_6_FE1:
        .size   test_3_blocks_2_targets_direct_variant_6, .-test_3_blocks_2_targets_direct_variant_6

        .type   test_3_blocks_2_targets_direct_variant_7, @function
test_3_blocks_2_targets_direct_variant_7:
.L_49_7_0:
        jmp .L_49_7_2
.L_49_7_1:
        pushl   $.LC_ret
        calll   puts
        addl    $4, %esp
        movl    $0, %eax
        ret        
        
.L_49_7_2:
        cmpl    $0, conditions+100
        je     .L_49_7_3
        jmp    .L_49_7_4

.L_49_7_3:
        cmpl    $0, conditions+104
        je     .L_49_7_5
        jmp    .L_49_7_6

.L_49_7_4:
        cmpl    $0, conditions+108
        je     .L_49_7_1
        jmp    .L_49_7_3

.L_49_7_5:
        pushl   $.LC_5
        calll   puts
        addl    $4, %esp
        jmp     .L_49_7_1

.L_49_7_6:
        pushl   $.LC_6
        calll   puts
        addl    $4, %esp
        jmp     .L_49_7_1

.L_49_7_FE1:
        .size   test_3_blocks_2_targets_direct_variant_7, .-test_3_blocks_2_targets_direct_variant_7

        .type   test_3_blocks_2_targets_direct_variant_8, @function
test_3_blocks_2_targets_direct_variant_8:
.L_50_8_0:
        jmp .L_50_8_2
.L_50_8_1:
        pushl   $.LC_ret
        calll   puts
        addl    $4, %esp
        movl    $0, %eax
        ret        
        
.L_50_8_2:
        cmpl    $0, conditions+100
        je     .L_50_8_3
        jmp    .L_50_8_4

.L_50_8_3:
        cmpl    $0, conditions+104
        je     .L_50_8_5
        jmp    .L_50_8_6

.L_50_8_4:
        cmpl    $0, conditions+108
        je     .L_50_8_1
        jmp    .L_50_8_5

.L_50_8_5:
        pushl   $.LC_5
        calll   puts
        addl    $4, %esp
        jmp     .L_50_8_1

.L_50_8_6:
        pushl   $.LC_6
        calll   puts
        addl    $4, %esp
        jmp     .L_50_8_1

.L_50_8_FE1:
        .size   test_3_blocks_2_targets_direct_variant_8, .-test_3_blocks_2_targets_direct_variant_8

        .type   test_3_blocks_2_targets_direct_variant_9, @function
test_3_blocks_2_targets_direct_variant_9:
.L_51_9_0:
        jmp .L_51_9_2
.L_51_9_1:
        pushl   $.LC_ret
        calll   puts
        addl    $4, %esp
        movl    $0, %eax
        ret        
        
.L_51_9_2:
        cmpl    $0, conditions+100
        je     .L_51_9_3
        jmp    .L_51_9_4

.L_51_9_3:
        cmpl    $0, conditions+104
        je     .L_51_9_5
        jmp    .L_51_9_6

.L_51_9_4:
        cmpl    $0, conditions+108
        je     .L_51_9_1
        jmp    .L_51_9_6

.L_51_9_5:
        pushl   $.LC_5
        calll   puts
        addl    $4, %esp
        jmp     .L_51_9_1

.L_51_9_6:
        pushl   $.LC_6
        calll   puts
        addl    $4, %esp
        jmp     .L_51_9_1

.L_51_9_FE1:
        .size   test_3_blocks_2_targets_direct_variant_9, .-test_3_blocks_2_targets_direct_variant_9

        .type   test_3_blocks_2_targets_direct_variant_10, @function
test_3_blocks_2_targets_direct_variant_10:
.L_52_10_0:
        jmp .L_52_10_2
.L_52_10_1:
        pushl   $.LC_ret
        calll   puts
        addl    $4, %esp
        movl    $0, %eax
        ret        
        
.L_52_10_2:
        cmpl    $0, conditions+100
        je     .L_52_10_3
        jmp    .L_52_10_4

.L_52_10_3:
        cmpl    $0, conditions+104
        je     .L_52_10_1
        jmp    .L_52_10_4

.L_52_10_4:
        cmpl    $0, conditions+108
        je     .L_52_10_5
        jmp    .L_52_10_6

.L_52_10_5:
        pushl   $.LC_5
        calll   puts
        addl    $4, %esp
        jmp     .L_52_10_1

.L_52_10_6:
        pushl   $.LC_6
        calll   puts
        addl    $4, %esp
        jmp     .L_52_10_1

.L_52_10_FE1:
        .size   test_3_blocks_2_targets_direct_variant_10, .-test_3_blocks_2_targets_direct_variant_10

        .type   test_3_blocks_2_targets_direct_variant_11, @function
test_3_blocks_2_targets_direct_variant_11:
.L_53_11_0:
        jmp .L_53_11_2
.L_53_11_1:
        pushl   $.LC_ret
        calll   puts
        addl    $4, %esp
        movl    $0, %eax
        ret        
        
.L_53_11_2:
        cmpl    $0, conditions+100
        je     .L_53_11_3
        jmp    .L_53_11_4

.L_53_11_3:
        cmpl    $0, conditions+104
        je     .L_53_11_1
        jmp    .L_53_11_5

.L_53_11_4:
        cmpl    $0, conditions+108
        je     .L_53_11_3
        jmp    .L_53_11_6

.L_53_11_5:
        pushl   $.LC_5
        calll   puts
        addl    $4, %esp
        jmp     .L_53_11_1

.L_53_11_6:
        pushl   $.LC_6
        calll   puts
        addl    $4, %esp
        jmp     .L_53_11_1

.L_53_11_FE1:
        .size   test_3_blocks_2_targets_direct_variant_11, .-test_3_blocks_2_targets_direct_variant_11

        .type   test_3_blocks_2_targets_direct_variant_12, @function
test_3_blocks_2_targets_direct_variant_12:
.L_54_12_0:
        jmp .L_54_12_2
.L_54_12_1:
        pushl   $.LC_ret
        calll   puts
        addl    $4, %esp
        movl    $0, %eax
        ret        
        
.L_54_12_2:
        cmpl    $0, conditions+100
        je     .L_54_12_3
        jmp    .L_54_12_4

.L_54_12_3:
        cmpl    $0, conditions+104
        je     .L_54_12_1
        jmp    .L_54_12_5

.L_54_12_4:
        cmpl    $0, conditions+108
        je     .L_54_12_5
        jmp    .L_54_12_6

.L_54_12_5:
        pushl   $.LC_5
        calll   puts
        addl    $4, %esp
        jmp     .L_54_12_1

.L_54_12_6:
        pushl   $.LC_6
        calll   puts
        addl    $4, %esp
        jmp     .L_54_12_1

.L_54_12_FE1:
        .size   test_3_blocks_2_targets_direct_variant_12, .-test_3_blocks_2_targets_direct_variant_12

        .type   test_3_blocks_2_targets_direct_variant_13, @function
test_3_blocks_2_targets_direct_variant_13:
.L_55_13_0:
        jmp .L_55_13_2
.L_55_13_1:
        pushl   $.LC_ret
        calll   puts
        addl    $4, %esp
        movl    $0, %eax
        ret        
        
.L_55_13_2:
        cmpl    $0, conditions+100
        je     .L_55_13_3
        jmp    .L_55_13_4

.L_55_13_3:
        cmpl    $0, conditions+104
        je     .L_55_13_1
        jmp    .L_55_13_5

.L_55_13_4:
        cmpl    $0, conditions+108
        je     .L_55_13_1
        jmp    .L_55_13_6

.L_55_13_5:
        pushl   $.LC_5
        calll   puts
        addl    $4, %esp
        jmp     .L_55_13_1

.L_55_13_6:
        pushl   $.LC_6
        calll   puts
        addl    $4, %esp
        jmp     .L_55_13_1

.L_55_13_FE1:
        .size   test_3_blocks_2_targets_direct_variant_13, .-test_3_blocks_2_targets_direct_variant_13

        .type   test_3_blocks_2_targets_direct_variant_14, @function
test_3_blocks_2_targets_direct_variant_14:
.L_56_14_0:
        jmp .L_56_14_2
.L_56_14_1:
        pushl   $.LC_ret
        calll   puts
        addl    $4, %esp
        movl    $0, %eax
        ret        
        
.L_56_14_2:
        cmpl    $0, conditions+100
        je     .L_56_14_3
        jmp    .L_56_14_4

.L_56_14_3:
        cmpl    $0, conditions+104
        je     .L_56_14_1
        jmp    .L_56_14_6

.L_56_14_4:
        cmpl    $0, conditions+108
        je     .L_56_14_3
        jmp    .L_56_14_5

.L_56_14_5:
        pushl   $.LC_5
        calll   puts
        addl    $4, %esp
        jmp     .L_56_14_1

.L_56_14_6:
        pushl   $.LC_6
        calll   puts
        addl    $4, %esp
        jmp     .L_56_14_1

.L_56_14_FE1:
        .size   test_3_blocks_2_targets_direct_variant_14, .-test_3_blocks_2_targets_direct_variant_14

        .type   test_3_blocks_2_targets_direct_variant_15, @function
test_3_blocks_2_targets_direct_variant_15:
.L_57_15_0:
        jmp .L_57_15_2
.L_57_15_1:
        pushl   $.LC_ret
        calll   puts
        addl    $4, %esp
        movl    $0, %eax
        ret        
        
.L_57_15_2:
        cmpl    $0, conditions+100
        je     .L_57_15_3
        jmp    .L_57_15_4

.L_57_15_3:
        cmpl    $0, conditions+104
        je     .L_57_15_1
        jmp    .L_57_15_6

.L_57_15_4:
        cmpl    $0, conditions+108
        je     .L_57_15_5
        jmp    .L_57_15_6

.L_57_15_5:
        pushl   $.LC_5
        calll   puts
        addl    $4, %esp
        jmp     .L_57_15_1

.L_57_15_6:
        pushl   $.LC_6
        calll   puts
        addl    $4, %esp
        jmp     .L_57_15_1

.L_57_15_FE1:
        .size   test_3_blocks_2_targets_direct_variant_15, .-test_3_blocks_2_targets_direct_variant_15

        .type   test_3_blocks_2_targets_direct_variant_16, @function
test_3_blocks_2_targets_direct_variant_16:
.L_58_16_0:
        jmp .L_58_16_2
.L_58_16_1:
        pushl   $.LC_ret
        calll   puts
        addl    $4, %esp
        movl    $0, %eax
        ret        
        
.L_58_16_2:
        cmpl    $0, conditions+100
        je     .L_58_16_3
        jmp    .L_58_16_4

.L_58_16_3:
        cmpl    $0, conditions+104
        je     .L_58_16_1
        jmp    .L_58_16_6

.L_58_16_4:
        cmpl    $0, conditions+108
        je     .L_58_16_1
        jmp    .L_58_16_5

.L_58_16_5:
        pushl   $.LC_5
        calll   puts
        addl    $4, %esp
        jmp     .L_58_16_1

.L_58_16_6:
        pushl   $.LC_6
        calll   puts
        addl    $4, %esp
        jmp     .L_58_16_1

.L_58_16_FE1:
        .size   test_3_blocks_2_targets_direct_variant_16, .-test_3_blocks_2_targets_direct_variant_16

        .type   test_3_blocks_2_targets_direct_variant_17, @function
test_3_blocks_2_targets_direct_variant_17:
.L_59_17_0:
        jmp .L_59_17_2
.L_59_17_1:
        pushl   $.LC_ret
        calll   puts
        addl    $4, %esp
        movl    $0, %eax
        ret        
        
.L_59_17_2:
        cmpl    $0, conditions+100
        je     .L_59_17_3
        jmp    .L_59_17_5

.L_59_17_3:
        cmpl    $0, conditions+104
        je     .L_59_17_4
        jmp    .L_59_17_5

.L_59_17_4:
        cmpl    $0, conditions+108
        je     .L_59_17_5
        jmp    .L_59_17_6

.L_59_17_5:
        pushl   $.LC_5
        calll   puts
        addl    $4, %esp
        jmp     .L_59_17_1

.L_59_17_6:
        pushl   $.LC_6
        calll   puts
        addl    $4, %esp
        jmp     .L_59_17_1

.L_59_17_FE1:
        .size   test_3_blocks_2_targets_direct_variant_17, .-test_3_blocks_2_targets_direct_variant_17

        .type   test_3_blocks_2_targets_direct_variant_18, @function
test_3_blocks_2_targets_direct_variant_18:
.L_60_18_0:
        jmp .L_60_18_2
.L_60_18_1:
        pushl   $.LC_ret
        calll   puts
        addl    $4, %esp
        movl    $0, %eax
        ret        
        
.L_60_18_2:
        cmpl    $0, conditions+100
        je     .L_60_18_3
        jmp    .L_60_18_5

.L_60_18_3:
        cmpl    $0, conditions+104
        je     .L_60_18_4
        jmp    .L_60_18_5

.L_60_18_4:
        cmpl    $0, conditions+108
        je     .L_60_18_1
        jmp    .L_60_18_6

.L_60_18_5:
        pushl   $.LC_5
        calll   puts
        addl    $4, %esp
        jmp     .L_60_18_1

.L_60_18_6:
        pushl   $.LC_6
        calll   puts
        addl    $4, %esp
        jmp     .L_60_18_1

.L_60_18_FE1:
        .size   test_3_blocks_2_targets_direct_variant_18, .-test_3_blocks_2_targets_direct_variant_18

        .type   test_3_blocks_2_targets_direct_variant_19, @function
test_3_blocks_2_targets_direct_variant_19:
.L_61_19_0:
        jmp .L_61_19_2
.L_61_19_1:
        pushl   $.LC_ret
        calll   puts
        addl    $4, %esp
        movl    $0, %eax
        ret        
        
.L_61_19_2:
        cmpl    $0, conditions+100
        je     .L_61_19_3
        jmp    .L_61_19_5

.L_61_19_3:
        cmpl    $0, conditions+104
        je     .L_61_19_4
        jmp    .L_61_19_6

.L_61_19_4:
        cmpl    $0, conditions+108
        je     .L_61_19_5
        jmp    .L_61_19_6

.L_61_19_5:
        pushl   $.LC_5
        calll   puts
        addl    $4, %esp
        jmp     .L_61_19_1

.L_61_19_6:
        pushl   $.LC_6
        calll   puts
        addl    $4, %esp
        jmp     .L_61_19_1

.L_61_19_FE1:
        .size   test_3_blocks_2_targets_direct_variant_19, .-test_3_blocks_2_targets_direct_variant_19

        .type   test_3_blocks_2_targets_direct_variant_20, @function
test_3_blocks_2_targets_direct_variant_20:
.L_62_20_0:
        jmp .L_62_20_2
.L_62_20_1:
        pushl   $.LC_ret
        calll   puts
        addl    $4, %esp
        movl    $0, %eax
        ret        
        
.L_62_20_2:
        cmpl    $0, conditions+100
        je     .L_62_20_3
        jmp    .L_62_20_5

.L_62_20_3:
        cmpl    $0, conditions+104
        je     .L_62_20_4
        jmp    .L_62_20_6

.L_62_20_4:
        cmpl    $0, conditions+108
        je     .L_62_20_1
        jmp    .L_62_20_5

.L_62_20_5:
        pushl   $.LC_5
        calll   puts
        addl    $4, %esp
        jmp     .L_62_20_1

.L_62_20_6:
        pushl   $.LC_6
        calll   puts
        addl    $4, %esp
        jmp     .L_62_20_1

.L_62_20_FE1:
        .size   test_3_blocks_2_targets_direct_variant_20, .-test_3_blocks_2_targets_direct_variant_20

        .type   test_3_blocks_2_targets_direct_variant_21, @function
test_3_blocks_2_targets_direct_variant_21:
.L_63_21_0:
        jmp .L_63_21_2
.L_63_21_1:
        pushl   $.LC_ret
        calll   puts
        addl    $4, %esp
        movl    $0, %eax
        ret        
        
.L_63_21_2:
        cmpl    $0, conditions+100
        je     .L_63_21_3
        jmp    .L_63_21_5

.L_63_21_3:
        cmpl    $0, conditions+104
        je     .L_63_21_4
        jmp    .L_63_21_6

.L_63_21_4:
        cmpl    $0, conditions+108
        je     .L_63_21_1
        jmp    .L_63_21_6

.L_63_21_5:
        pushl   $.LC_5
        calll   puts
        addl    $4, %esp
        jmp     .L_63_21_1

.L_63_21_6:
        pushl   $.LC_6
        calll   puts
        addl    $4, %esp
        jmp     .L_63_21_1

.L_63_21_FE1:
        .size   test_3_blocks_2_targets_direct_variant_21, .-test_3_blocks_2_targets_direct_variant_21

        .type   test_3_blocks_2_targets_direct_variant_22, @function
test_3_blocks_2_targets_direct_variant_22:
.L_64_22_0:
        jmp .L_64_22_2
.L_64_22_1:
        pushl   $.LC_ret
        calll   puts
        addl    $4, %esp
        movl    $0, %eax
        ret        
        
.L_64_22_2:
        cmpl    $0, conditions+100
        je     .L_64_22_3
        jmp    .L_64_22_5

.L_64_22_3:
        cmpl    $0, conditions+104
        je     .L_64_22_1
        jmp    .L_64_22_4

.L_64_22_4:
        cmpl    $0, conditions+108
        je     .L_64_22_5
        jmp    .L_64_22_6

.L_64_22_5:
        pushl   $.LC_5
        calll   puts
        addl    $4, %esp
        jmp     .L_64_22_1

.L_64_22_6:
        pushl   $.LC_6
        calll   puts
        addl    $4, %esp
        jmp     .L_64_22_1

.L_64_22_FE1:
        .size   test_3_blocks_2_targets_direct_variant_22, .-test_3_blocks_2_targets_direct_variant_22

        .type   test_3_blocks_2_targets_direct_variant_23, @function
test_3_blocks_2_targets_direct_variant_23:
.L_65_23_0:
        jmp .L_65_23_2
.L_65_23_1:
        pushl   $.LC_ret
        calll   puts
        addl    $4, %esp
        movl    $0, %eax
        ret        
        
.L_65_23_2:
        cmpl    $0, conditions+100
        je     .L_65_23_3
        jmp    .L_65_23_5

.L_65_23_3:
        cmpl    $0, conditions+104
        je     .L_65_23_1
        jmp    .L_65_23_4

.L_65_23_4:
        cmpl    $0, conditions+108
        je     .L_65_23_1
        jmp    .L_65_23_6

.L_65_23_5:
        pushl   $.LC_5
        calll   puts
        addl    $4, %esp
        jmp     .L_65_23_1

.L_65_23_6:
        pushl   $.LC_6
        calll   puts
        addl    $4, %esp
        jmp     .L_65_23_1

.L_65_23_FE1:
        .size   test_3_blocks_2_targets_direct_variant_23, .-test_3_blocks_2_targets_direct_variant_23

        .type   test_3_blocks_2_targets_direct_variant_24, @function
test_3_blocks_2_targets_direct_variant_24:
.L_66_24_0:
        jmp .L_66_24_2
.L_66_24_1:
        pushl   $.LC_ret
        calll   puts
        addl    $4, %esp
        movl    $0, %eax
        ret        
        
.L_66_24_2:
        cmpl    $0, conditions+100
        je     .L_66_24_3
        jmp    .L_66_24_6

.L_66_24_3:
        cmpl    $0, conditions+104
        je     .L_66_24_4
        jmp    .L_66_24_5

.L_66_24_4:
        cmpl    $0, conditions+108
        je     .L_66_24_5
        jmp    .L_66_24_6

.L_66_24_5:
        pushl   $.LC_5
        calll   puts
        addl    $4, %esp
        jmp     .L_66_24_1

.L_66_24_6:
        pushl   $.LC_6
        calll   puts
        addl    $4, %esp
        jmp     .L_66_24_1

.L_66_24_FE1:
        .size   test_3_blocks_2_targets_direct_variant_24, .-test_3_blocks_2_targets_direct_variant_24

        .type   test_3_blocks_2_targets_direct_variant_25, @function
test_3_blocks_2_targets_direct_variant_25:
.L_67_25_0:
        jmp .L_67_25_2
.L_67_25_1:
        pushl   $.LC_ret
        calll   puts
        addl    $4, %esp
        movl    $0, %eax
        ret        
        
.L_67_25_2:
        cmpl    $0, conditions+100
        je     .L_67_25_3
        jmp    .L_67_25_6

.L_67_25_3:
        cmpl    $0, conditions+104
        je     .L_67_25_4
        jmp    .L_67_25_5

.L_67_25_4:
        cmpl    $0, conditions+108
        je     .L_67_25_1
        jmp    .L_67_25_5

.L_67_25_5:
        pushl   $.LC_5
        calll   puts
        addl    $4, %esp
        jmp     .L_67_25_1

.L_67_25_6:
        pushl   $.LC_6
        calll   puts
        addl    $4, %esp
        jmp     .L_67_25_1

.L_67_25_FE1:
        .size   test_3_blocks_2_targets_direct_variant_25, .-test_3_blocks_2_targets_direct_variant_25

        .type   test_3_blocks_2_targets_direct_variant_26, @function
test_3_blocks_2_targets_direct_variant_26:
.L_68_26_0:
        jmp .L_68_26_2
.L_68_26_1:
        pushl   $.LC_ret
        calll   puts
        addl    $4, %esp
        movl    $0, %eax
        ret        
        
.L_68_26_2:
        cmpl    $0, conditions+100
        je     .L_68_26_3
        jmp    .L_68_26_6

.L_68_26_3:
        cmpl    $0, conditions+104
        je     .L_68_26_4
        jmp    .L_68_26_5

.L_68_26_4:
        cmpl    $0, conditions+108
        je     .L_68_26_1
        jmp    .L_68_26_6

.L_68_26_5:
        pushl   $.LC_5
        calll   puts
        addl    $4, %esp
        jmp     .L_68_26_1

.L_68_26_6:
        pushl   $.LC_6
        calll   puts
        addl    $4, %esp
        jmp     .L_68_26_1

.L_68_26_FE1:
        .size   test_3_blocks_2_targets_direct_variant_26, .-test_3_blocks_2_targets_direct_variant_26

        .type   test_3_blocks_2_targets_direct_variant_27, @function
test_3_blocks_2_targets_direct_variant_27:
.L_69_27_0:
        jmp .L_69_27_2
.L_69_27_1:
        pushl   $.LC_ret
        calll   puts
        addl    $4, %esp
        movl    $0, %eax
        ret        
        
.L_69_27_2:
        cmpl    $0, conditions+100
        je     .L_69_27_3
        jmp    .L_69_27_6

.L_69_27_3:
        cmpl    $0, conditions+104
        je     .L_69_27_4
        jmp    .L_69_27_6

.L_69_27_4:
        cmpl    $0, conditions+108
        je     .L_69_27_5
        jmp    .L_69_27_6

.L_69_27_5:
        pushl   $.LC_5
        calll   puts
        addl    $4, %esp
        jmp     .L_69_27_1

.L_69_27_6:
        pushl   $.LC_6
        calll   puts
        addl    $4, %esp
        jmp     .L_69_27_1

.L_69_27_FE1:
        .size   test_3_blocks_2_targets_direct_variant_27, .-test_3_blocks_2_targets_direct_variant_27

        .type   test_3_blocks_2_targets_direct_variant_28, @function
test_3_blocks_2_targets_direct_variant_28:
.L_70_28_0:
        jmp .L_70_28_2
.L_70_28_1:
        pushl   $.LC_ret
        calll   puts
        addl    $4, %esp
        movl    $0, %eax
        ret        
        
.L_70_28_2:
        cmpl    $0, conditions+100
        je     .L_70_28_3
        jmp    .L_70_28_6

.L_70_28_3:
        cmpl    $0, conditions+104
        je     .L_70_28_4
        jmp    .L_70_28_6

.L_70_28_4:
        cmpl    $0, conditions+108
        je     .L_70_28_1
        jmp    .L_70_28_5

.L_70_28_5:
        pushl   $.LC_5
        calll   puts
        addl    $4, %esp
        jmp     .L_70_28_1

.L_70_28_6:
        pushl   $.LC_6
        calll   puts
        addl    $4, %esp
        jmp     .L_70_28_1

.L_70_28_FE1:
        .size   test_3_blocks_2_targets_direct_variant_28, .-test_3_blocks_2_targets_direct_variant_28

        .type   test_3_blocks_2_targets_direct_variant_29, @function
test_3_blocks_2_targets_direct_variant_29:
.L_71_29_0:
        jmp .L_71_29_2
.L_71_29_1:
        pushl   $.LC_ret
        calll   puts
        addl    $4, %esp
        movl    $0, %eax
        ret        
        
.L_71_29_2:
        cmpl    $0, conditions+100
        je     .L_71_29_3
        jmp    .L_71_29_6

.L_71_29_3:
        cmpl    $0, conditions+104
        je     .L_71_29_1
        jmp    .L_71_29_4

.L_71_29_4:
        cmpl    $0, conditions+108
        je     .L_71_29_5
        jmp    .L_71_29_6

.L_71_29_5:
        pushl   $.LC_5
        calll   puts
        addl    $4, %esp
        jmp     .L_71_29_1

.L_71_29_6:
        pushl   $.LC_6
        calll   puts
        addl    $4, %esp
        jmp     .L_71_29_1

.L_71_29_FE1:
        .size   test_3_blocks_2_targets_direct_variant_29, .-test_3_blocks_2_targets_direct_variant_29

        .type   test_3_blocks_2_targets_direct_variant_30, @function
test_3_blocks_2_targets_direct_variant_30:
.L_72_30_0:
        jmp .L_72_30_2
.L_72_30_1:
        pushl   $.LC_ret
        calll   puts
        addl    $4, %esp
        movl    $0, %eax
        ret        
        
.L_72_30_2:
        cmpl    $0, conditions+100
        je     .L_72_30_3
        jmp    .L_72_30_6

.L_72_30_3:
        cmpl    $0, conditions+104
        je     .L_72_30_1
        jmp    .L_72_30_4

.L_72_30_4:
        cmpl    $0, conditions+108
        je     .L_72_30_1
        jmp    .L_72_30_5

.L_72_30_5:
        pushl   $.LC_5
        calll   puts
        addl    $4, %esp
        jmp     .L_72_30_1

.L_72_30_6:
        pushl   $.LC_6
        calll   puts
        addl    $4, %esp
        jmp     .L_72_30_1

.L_72_30_FE1:
        .size   test_3_blocks_2_targets_direct_variant_30, .-test_3_blocks_2_targets_direct_variant_30

        .type   test_3_blocks_2_targets_direct_variant_31, @function
test_3_blocks_2_targets_direct_variant_31:
.L_73_31_0:
        jmp .L_73_31_2
.L_73_31_1:
        pushl   $.LC_ret
        calll   puts
        addl    $4, %esp
        movl    $0, %eax
        ret        
        
.L_73_31_2:
        cmpl    $0, conditions+100
        je     .L_73_31_4
        jmp    .L_73_31_5

.L_73_31_3:
        cmpl    $0, conditions+104
        je     .L_73_31_5
        jmp    .L_73_31_6

.L_73_31_4:
        cmpl    $0, conditions+108
        je     .L_73_31_3
        jmp    .L_73_31_5

.L_73_31_5:
        pushl   $.LC_5
        calll   puts
        addl    $4, %esp
        jmp     .L_73_31_1

.L_73_31_6:
        pushl   $.LC_6
        calll   puts
        addl    $4, %esp
        jmp     .L_73_31_1

.L_73_31_FE1:
        .size   test_3_blocks_2_targets_direct_variant_31, .-test_3_blocks_2_targets_direct_variant_31

        .type   test_3_blocks_2_targets_direct_variant_32, @function
test_3_blocks_2_targets_direct_variant_32:
.L_74_32_0:
        jmp .L_74_32_2
.L_74_32_1:
        pushl   $.LC_ret
        calll   puts
        addl    $4, %esp
        movl    $0, %eax
        ret        
        
.L_74_32_2:
        cmpl    $0, conditions+100
        je     .L_74_32_4
        jmp    .L_74_32_5

.L_74_32_3:
        cmpl    $0, conditions+104
        je     .L_74_32_5
        jmp    .L_74_32_6

.L_74_32_4:
        cmpl    $0, conditions+108
        je     .L_74_32_3
        jmp    .L_74_32_6

.L_74_32_5:
        pushl   $.LC_5
        calll   puts
        addl    $4, %esp
        jmp     .L_74_32_1

.L_74_32_6:
        pushl   $.LC_6
        calll   puts
        addl    $4, %esp
        jmp     .L_74_32_1

.L_74_32_FE1:
        .size   test_3_blocks_2_targets_direct_variant_32, .-test_3_blocks_2_targets_direct_variant_32

        .type   test_3_blocks_2_targets_direct_variant_33, @function
test_3_blocks_2_targets_direct_variant_33:
.L_75_33_0:
        jmp .L_75_33_2
.L_75_33_1:
        pushl   $.LC_ret
        calll   puts
        addl    $4, %esp
        movl    $0, %eax
        ret        
        
.L_75_33_2:
        cmpl    $0, conditions+100
        je     .L_75_33_4
        jmp    .L_75_33_5

.L_75_33_3:
        cmpl    $0, conditions+104
        je     .L_75_33_5
        jmp    .L_75_33_6

.L_75_33_4:
        cmpl    $0, conditions+108
        je     .L_75_33_1
        jmp    .L_75_33_3

.L_75_33_5:
        pushl   $.LC_5
        calll   puts
        addl    $4, %esp
        jmp     .L_75_33_1

.L_75_33_6:
        pushl   $.LC_6
        calll   puts
        addl    $4, %esp
        jmp     .L_75_33_1

.L_75_33_FE1:
        .size   test_3_blocks_2_targets_direct_variant_33, .-test_3_blocks_2_targets_direct_variant_33

        .type   test_3_blocks_2_targets_direct_variant_34, @function
test_3_blocks_2_targets_direct_variant_34:
.L_76_34_0:
        jmp .L_76_34_2
.L_76_34_1:
        pushl   $.LC_ret
        calll   puts
        addl    $4, %esp
        movl    $0, %eax
        ret        
        
.L_76_34_2:
        cmpl    $0, conditions+100
        je     .L_76_34_4
        jmp    .L_76_34_5

.L_76_34_3:
        cmpl    $0, conditions+104
        je     .L_76_34_1
        jmp    .L_76_34_5

.L_76_34_4:
        cmpl    $0, conditions+108
        je     .L_76_34_3
        jmp    .L_76_34_6

.L_76_34_5:
        pushl   $.LC_5
        calll   puts
        addl    $4, %esp
        jmp     .L_76_34_1

.L_76_34_6:
        pushl   $.LC_6
        calll   puts
        addl    $4, %esp
        jmp     .L_76_34_1

.L_76_34_FE1:
        .size   test_3_blocks_2_targets_direct_variant_34, .-test_3_blocks_2_targets_direct_variant_34

        .type   test_3_blocks_2_targets_direct_variant_35, @function
test_3_blocks_2_targets_direct_variant_35:
.L_77_35_0:
        jmp .L_77_35_2
.L_77_35_1:
        pushl   $.LC_ret
        calll   puts
        addl    $4, %esp
        movl    $0, %eax
        ret        
        
.L_77_35_2:
        cmpl    $0, conditions+100
        je     .L_77_35_4
        jmp    .L_77_35_5

.L_77_35_3:
        cmpl    $0, conditions+104
        je     .L_77_35_1
        jmp    .L_77_35_6

.L_77_35_4:
        cmpl    $0, conditions+108
        je     .L_77_35_3
        jmp    .L_77_35_5

.L_77_35_5:
        pushl   $.LC_5
        calll   puts
        addl    $4, %esp
        jmp     .L_77_35_1

.L_77_35_6:
        pushl   $.LC_6
        calll   puts
        addl    $4, %esp
        jmp     .L_77_35_1

.L_77_35_FE1:
        .size   test_3_blocks_2_targets_direct_variant_35, .-test_3_blocks_2_targets_direct_variant_35

        .type   test_3_blocks_2_targets_direct_variant_36, @function
test_3_blocks_2_targets_direct_variant_36:
.L_78_36_0:
        jmp .L_78_36_2
.L_78_36_1:
        pushl   $.LC_ret
        calll   puts
        addl    $4, %esp
        movl    $0, %eax
        ret        
        
.L_78_36_2:
        cmpl    $0, conditions+100
        je     .L_78_36_4
        jmp    .L_78_36_5

.L_78_36_3:
        cmpl    $0, conditions+104
        je     .L_78_36_1
        jmp    .L_78_36_6

.L_78_36_4:
        cmpl    $0, conditions+108
        je     .L_78_36_3
        jmp    .L_78_36_6

.L_78_36_5:
        pushl   $.LC_5
        calll   puts
        addl    $4, %esp
        jmp     .L_78_36_1

.L_78_36_6:
        pushl   $.LC_6
        calll   puts
        addl    $4, %esp
        jmp     .L_78_36_1

.L_78_36_FE1:
        .size   test_3_blocks_2_targets_direct_variant_36, .-test_3_blocks_2_targets_direct_variant_36

        .type   test_3_blocks_2_targets_direct_variant_37, @function
test_3_blocks_2_targets_direct_variant_37:
.L_79_37_0:
        jmp .L_79_37_2
.L_79_37_1:
        pushl   $.LC_ret
        calll   puts
        addl    $4, %esp
        movl    $0, %eax
        ret        
        
.L_79_37_2:
        cmpl    $0, conditions+100
        je     .L_79_37_4
        jmp    .L_79_37_5

.L_79_37_3:
        cmpl    $0, conditions+104
        je     .L_79_37_1
        jmp    .L_79_37_6

.L_79_37_4:
        cmpl    $0, conditions+108
        je     .L_79_37_1
        jmp    .L_79_37_3

.L_79_37_5:
        pushl   $.LC_5
        calll   puts
        addl    $4, %esp
        jmp     .L_79_37_1

.L_79_37_6:
        pushl   $.LC_6
        calll   puts
        addl    $4, %esp
        jmp     .L_79_37_1

.L_79_37_FE1:
        .size   test_3_blocks_2_targets_direct_variant_37, .-test_3_blocks_2_targets_direct_variant_37

        .type   test_3_blocks_2_targets_direct_variant_38, @function
test_3_blocks_2_targets_direct_variant_38:
.L_80_38_0:
        jmp .L_80_38_2
.L_80_38_1:
        pushl   $.LC_ret
        calll   puts
        addl    $4, %esp
        movl    $0, %eax
        ret        
        
.L_80_38_2:
        cmpl    $0, conditions+100
        je     .L_80_38_4
        jmp    .L_80_38_6

.L_80_38_3:
        cmpl    $0, conditions+104
        je     .L_80_38_5
        jmp    .L_80_38_6

.L_80_38_4:
        cmpl    $0, conditions+108
        je     .L_80_38_3
        jmp    .L_80_38_5

.L_80_38_5:
        pushl   $.LC_5
        calll   puts
        addl    $4, %esp
        jmp     .L_80_38_1

.L_80_38_6:
        pushl   $.LC_6
        calll   puts
        addl    $4, %esp
        jmp     .L_80_38_1

.L_80_38_FE1:
        .size   test_3_blocks_2_targets_direct_variant_38, .-test_3_blocks_2_targets_direct_variant_38

        .type   test_3_blocks_2_targets_direct_variant_39, @function
test_3_blocks_2_targets_direct_variant_39:
.L_81_39_0:
        jmp .L_81_39_2
.L_81_39_1:
        pushl   $.LC_ret
        calll   puts
        addl    $4, %esp
        movl    $0, %eax
        ret        
        
.L_81_39_2:
        cmpl    $0, conditions+100
        je     .L_81_39_4
        jmp    .L_81_39_6

.L_81_39_3:
        cmpl    $0, conditions+104
        je     .L_81_39_5
        jmp    .L_81_39_6

.L_81_39_4:
        cmpl    $0, conditions+108
        je     .L_81_39_3
        jmp    .L_81_39_6

.L_81_39_5:
        pushl   $.LC_5
        calll   puts
        addl    $4, %esp
        jmp     .L_81_39_1

.L_81_39_6:
        pushl   $.LC_6
        calll   puts
        addl    $4, %esp
        jmp     .L_81_39_1

.L_81_39_FE1:
        .size   test_3_blocks_2_targets_direct_variant_39, .-test_3_blocks_2_targets_direct_variant_39

        .type   test_3_blocks_2_targets_direct_variant_40, @function
test_3_blocks_2_targets_direct_variant_40:
.L_82_40_0:
        jmp .L_82_40_2
.L_82_40_1:
        pushl   $.LC_ret
        calll   puts
        addl    $4, %esp
        movl    $0, %eax
        ret        
        
.L_82_40_2:
        cmpl    $0, conditions+100
        je     .L_82_40_4
        jmp    .L_82_40_6

.L_82_40_3:
        cmpl    $0, conditions+104
        je     .L_82_40_5
        jmp    .L_82_40_6

.L_82_40_4:
        cmpl    $0, conditions+108
        je     .L_82_40_1
        jmp    .L_82_40_3

.L_82_40_5:
        pushl   $.LC_5
        calll   puts
        addl    $4, %esp
        jmp     .L_82_40_1

.L_82_40_6:
        pushl   $.LC_6
        calll   puts
        addl    $4, %esp
        jmp     .L_82_40_1

.L_82_40_FE1:
        .size   test_3_blocks_2_targets_direct_variant_40, .-test_3_blocks_2_targets_direct_variant_40

        .type   test_3_blocks_2_targets_direct_variant_41, @function
test_3_blocks_2_targets_direct_variant_41:
.L_83_41_0:
        jmp .L_83_41_2
.L_83_41_1:
        pushl   $.LC_ret
        calll   puts
        addl    $4, %esp
        movl    $0, %eax
        ret        
        
.L_83_41_2:
        cmpl    $0, conditions+100
        je     .L_83_41_4
        jmp    .L_83_41_6

.L_83_41_3:
        cmpl    $0, conditions+104
        je     .L_83_41_1
        jmp    .L_83_41_5

.L_83_41_4:
        cmpl    $0, conditions+108
        je     .L_83_41_3
        jmp    .L_83_41_5

.L_83_41_5:
        pushl   $.LC_5
        calll   puts
        addl    $4, %esp
        jmp     .L_83_41_1

.L_83_41_6:
        pushl   $.LC_6
        calll   puts
        addl    $4, %esp
        jmp     .L_83_41_1

.L_83_41_FE1:
        .size   test_3_blocks_2_targets_direct_variant_41, .-test_3_blocks_2_targets_direct_variant_41

        .type   test_3_blocks_2_targets_direct_variant_42, @function
test_3_blocks_2_targets_direct_variant_42:
.L_84_42_0:
        jmp .L_84_42_2
.L_84_42_1:
        pushl   $.LC_ret
        calll   puts
        addl    $4, %esp
        movl    $0, %eax
        ret        
        
.L_84_42_2:
        cmpl    $0, conditions+100
        je     .L_84_42_4
        jmp    .L_84_42_6

.L_84_42_3:
        cmpl    $0, conditions+104
        je     .L_84_42_1
        jmp    .L_84_42_5

.L_84_42_4:
        cmpl    $0, conditions+108
        je     .L_84_42_3
        jmp    .L_84_42_6

.L_84_42_5:
        pushl   $.LC_5
        calll   puts
        addl    $4, %esp
        jmp     .L_84_42_1

.L_84_42_6:
        pushl   $.LC_6
        calll   puts
        addl    $4, %esp
        jmp     .L_84_42_1

.L_84_42_FE1:
        .size   test_3_blocks_2_targets_direct_variant_42, .-test_3_blocks_2_targets_direct_variant_42

        .type   test_3_blocks_2_targets_direct_variant_43, @function
test_3_blocks_2_targets_direct_variant_43:
.L_85_43_0:
        jmp .L_85_43_2
.L_85_43_1:
        pushl   $.LC_ret
        calll   puts
        addl    $4, %esp
        movl    $0, %eax
        ret        
        
.L_85_43_2:
        cmpl    $0, conditions+100
        je     .L_85_43_4
        jmp    .L_85_43_6

.L_85_43_3:
        cmpl    $0, conditions+104
        je     .L_85_43_1
        jmp    .L_85_43_5

.L_85_43_4:
        cmpl    $0, conditions+108
        je     .L_85_43_1
        jmp    .L_85_43_3

.L_85_43_5:
        pushl   $.LC_5
        calll   puts
        addl    $4, %esp
        jmp     .L_85_43_1

.L_85_43_6:
        pushl   $.LC_6
        calll   puts
        addl    $4, %esp
        jmp     .L_85_43_1

.L_85_43_FE1:
        .size   test_3_blocks_2_targets_direct_variant_43, .-test_3_blocks_2_targets_direct_variant_43

        .type   test_3_blocks_2_targets_direct_variant_44, @function
test_3_blocks_2_targets_direct_variant_44:
.L_86_44_0:
        jmp .L_86_44_2
.L_86_44_1:
        pushl   $.LC_ret
        calll   puts
        addl    $4, %esp
        movl    $0, %eax
        ret        
        
.L_86_44_2:
        cmpl    $0, conditions+100
        je     .L_86_44_4
        jmp    .L_86_44_6

.L_86_44_3:
        cmpl    $0, conditions+104
        je     .L_86_44_1
        jmp    .L_86_44_6

.L_86_44_4:
        cmpl    $0, conditions+108
        je     .L_86_44_3
        jmp    .L_86_44_5

.L_86_44_5:
        pushl   $.LC_5
        calll   puts
        addl    $4, %esp
        jmp     .L_86_44_1

.L_86_44_6:
        pushl   $.LC_6
        calll   puts
        addl    $4, %esp
        jmp     .L_86_44_1

.L_86_44_FE1:
        .size   test_3_blocks_2_targets_direct_variant_44, .-test_3_blocks_2_targets_direct_variant_44

        .type   test_3_blocks_2_targets_direct_variant_45, @function
test_3_blocks_2_targets_direct_variant_45:
.L_87_45_0:
        jmp .L_87_45_2
.L_87_45_1:
        pushl   $.LC_ret
        calll   puts
        addl    $4, %esp
        movl    $0, %eax
        ret        
        
.L_87_45_2:
        cmpl    $0, conditions+100
        je     .L_87_45_1
        jmp    .L_87_45_3

.L_87_45_3:
        cmpl    $0, conditions+104
        je     .L_87_45_4
        jmp    .L_87_45_5

.L_87_45_4:
        cmpl    $0, conditions+108
        je     .L_87_45_5
        jmp    .L_87_45_6

.L_87_45_5:
        pushl   $.LC_5
        calll   puts
        addl    $4, %esp
        jmp     .L_87_45_1

.L_87_45_6:
        pushl   $.LC_6
        calll   puts
        addl    $4, %esp
        jmp     .L_87_45_1

.L_87_45_FE1:
        .size   test_3_blocks_2_targets_direct_variant_45, .-test_3_blocks_2_targets_direct_variant_45

        .type   test_3_blocks_2_targets_direct_variant_46, @function
test_3_blocks_2_targets_direct_variant_46:
.L_88_46_0:
        jmp .L_88_46_2
.L_88_46_1:
        pushl   $.LC_ret
        calll   puts
        addl    $4, %esp
        movl    $0, %eax
        ret        
        
.L_88_46_2:
        cmpl    $0, conditions+100
        je     .L_88_46_1
        jmp    .L_88_46_3

.L_88_46_3:
        cmpl    $0, conditions+104
        je     .L_88_46_4
        jmp    .L_88_46_5

.L_88_46_4:
        cmpl    $0, conditions+108
        je     .L_88_46_1
        jmp    .L_88_46_6

.L_88_46_5:
        pushl   $.LC_5
        calll   puts
        addl    $4, %esp
        jmp     .L_88_46_1

.L_88_46_6:
        pushl   $.LC_6
        calll   puts
        addl    $4, %esp
        jmp     .L_88_46_1

.L_88_46_FE1:
        .size   test_3_blocks_2_targets_direct_variant_46, .-test_3_blocks_2_targets_direct_variant_46

        .type   test_3_blocks_2_targets_direct_variant_47, @function
test_3_blocks_2_targets_direct_variant_47:
.L_89_47_0:
        jmp .L_89_47_2
.L_89_47_1:
        pushl   $.LC_ret
        calll   puts
        addl    $4, %esp
        movl    $0, %eax
        ret        
        
.L_89_47_2:
        cmpl    $0, conditions+100
        je     .L_89_47_1
        jmp    .L_89_47_3

.L_89_47_3:
        cmpl    $0, conditions+104
        je     .L_89_47_4
        jmp    .L_89_47_6

.L_89_47_4:
        cmpl    $0, conditions+108
        je     .L_89_47_5
        jmp    .L_89_47_6

.L_89_47_5:
        pushl   $.LC_5
        calll   puts
        addl    $4, %esp
        jmp     .L_89_47_1

.L_89_47_6:
        pushl   $.LC_6
        calll   puts
        addl    $4, %esp
        jmp     .L_89_47_1

.L_89_47_FE1:
        .size   test_3_blocks_2_targets_direct_variant_47, .-test_3_blocks_2_targets_direct_variant_47

        .type   test_3_blocks_2_targets_direct_variant_48, @function
test_3_blocks_2_targets_direct_variant_48:
.L_90_48_0:
        jmp .L_90_48_2
.L_90_48_1:
        pushl   $.LC_ret
        calll   puts
        addl    $4, %esp
        movl    $0, %eax
        ret        
        
.L_90_48_2:
        cmpl    $0, conditions+100
        je     .L_90_48_1
        jmp    .L_90_48_3

.L_90_48_3:
        cmpl    $0, conditions+104
        je     .L_90_48_4
        jmp    .L_90_48_6

.L_90_48_4:
        cmpl    $0, conditions+108
        je     .L_90_48_1
        jmp    .L_90_48_5

.L_90_48_5:
        pushl   $.LC_5
        calll   puts
        addl    $4, %esp
        jmp     .L_90_48_1

.L_90_48_6:
        pushl   $.LC_6
        calll   puts
        addl    $4, %esp
        jmp     .L_90_48_1

.L_90_48_FE1:
        .size   test_3_blocks_2_targets_direct_variant_48, .-test_3_blocks_2_targets_direct_variant_48

        .type   test_3_blocks_2_targets_direct_variant_49, @function
test_3_blocks_2_targets_direct_variant_49:
.L_91_49_0:
        jmp .L_91_49_2
.L_91_49_1:
        pushl   $.LC_ret
        calll   puts
        addl    $4, %esp
        movl    $0, %eax
        ret        
        
.L_91_49_2:
        cmpl    $0, conditions+100
        je     .L_91_49_1
        jmp    .L_91_49_3

.L_91_49_3:
        cmpl    $0, conditions+104
        je     .L_91_49_1
        jmp    .L_91_49_4

.L_91_49_4:
        cmpl    $0, conditions+108
        je     .L_91_49_5
        jmp    .L_91_49_6

.L_91_49_5:
        pushl   $.LC_5
        calll   puts
        addl    $4, %esp
        jmp     .L_91_49_1

.L_91_49_6:
        pushl   $.LC_6
        calll   puts
        addl    $4, %esp
        jmp     .L_91_49_1

.L_91_49_FE1:
        .size   test_3_blocks_2_targets_direct_variant_49, .-test_3_blocks_2_targets_direct_variant_49

        .type   test_3_blocks_2_targets_direct_variant_50, @function
test_3_blocks_2_targets_direct_variant_50:
.L_92_50_0:
        jmp .L_92_50_2
.L_92_50_1:
        pushl   $.LC_ret
        calll   puts
        addl    $4, %esp
        movl    $0, %eax
        ret        
        
.L_92_50_2:
        cmpl    $0, conditions+100
        je     .L_92_50_1
        jmp    .L_92_50_4

.L_92_50_3:
        cmpl    $0, conditions+104
        je     .L_92_50_5
        jmp    .L_92_50_6

.L_92_50_4:
        cmpl    $0, conditions+108
        je     .L_92_50_3
        jmp    .L_92_50_5

.L_92_50_5:
        pushl   $.LC_5
        calll   puts
        addl    $4, %esp
        jmp     .L_92_50_1

.L_92_50_6:
        pushl   $.LC_6
        calll   puts
        addl    $4, %esp
        jmp     .L_92_50_1

.L_92_50_FE1:
        .size   test_3_blocks_2_targets_direct_variant_50, .-test_3_blocks_2_targets_direct_variant_50

        .type   test_3_blocks_2_targets_direct_variant_51, @function
test_3_blocks_2_targets_direct_variant_51:
.L_93_51_0:
        jmp .L_93_51_2
.L_93_51_1:
        pushl   $.LC_ret
        calll   puts
        addl    $4, %esp
        movl    $0, %eax
        ret        
        
.L_93_51_2:
        cmpl    $0, conditions+100
        je     .L_93_51_1
        jmp    .L_93_51_4

.L_93_51_3:
        cmpl    $0, conditions+104
        je     .L_93_51_5
        jmp    .L_93_51_6

.L_93_51_4:
        cmpl    $0, conditions+108
        je     .L_93_51_3
        jmp    .L_93_51_6

.L_93_51_5:
        pushl   $.LC_5
        calll   puts
        addl    $4, %esp
        jmp     .L_93_51_1

.L_93_51_6:
        pushl   $.LC_6
        calll   puts
        addl    $4, %esp
        jmp     .L_93_51_1

.L_93_51_FE1:
        .size   test_3_blocks_2_targets_direct_variant_51, .-test_3_blocks_2_targets_direct_variant_51

        .type   test_3_blocks_2_targets_direct_variant_52, @function
test_3_blocks_2_targets_direct_variant_52:
.L_94_52_0:
        jmp .L_94_52_2
.L_94_52_1:
        pushl   $.LC_ret
        calll   puts
        addl    $4, %esp
        movl    $0, %eax
        ret        
        
.L_94_52_2:
        cmpl    $0, conditions+100
        je     .L_94_52_1
        jmp    .L_94_52_4

.L_94_52_3:
        cmpl    $0, conditions+104
        je     .L_94_52_5
        jmp    .L_94_52_6

.L_94_52_4:
        cmpl    $0, conditions+108
        je     .L_94_52_1
        jmp    .L_94_52_3

.L_94_52_5:
        pushl   $.LC_5
        calll   puts
        addl    $4, %esp
        jmp     .L_94_52_1

.L_94_52_6:
        pushl   $.LC_6
        calll   puts
        addl    $4, %esp
        jmp     .L_94_52_1

.L_94_52_FE1:
        .size   test_3_blocks_2_targets_direct_variant_52, .-test_3_blocks_2_targets_direct_variant_52

        .type   test_3_blocks_2_targets_direct_variant_53, @function
test_3_blocks_2_targets_direct_variant_53:
.L_95_53_0:
        jmp .L_95_53_2
.L_95_53_1:
        pushl   $.LC_ret
        calll   puts
        addl    $4, %esp
        movl    $0, %eax
        ret        
        
.L_95_53_2:
        cmpl    $0, conditions+100
        je     .L_95_53_1
        jmp    .L_95_53_4

.L_95_53_3:
        cmpl    $0, conditions+104
        je     .L_95_53_1
        jmp    .L_95_53_5

.L_95_53_4:
        cmpl    $0, conditions+108
        je     .L_95_53_3
        jmp    .L_95_53_6

.L_95_53_5:
        pushl   $.LC_5
        calll   puts
        addl    $4, %esp
        jmp     .L_95_53_1

.L_95_53_6:
        pushl   $.LC_6
        calll   puts
        addl    $4, %esp
        jmp     .L_95_53_1

.L_95_53_FE1:
        .size   test_3_blocks_2_targets_direct_variant_53, .-test_3_blocks_2_targets_direct_variant_53

        .type   test_3_blocks_2_targets_direct_variant_54, @function
test_3_blocks_2_targets_direct_variant_54:
.L_96_54_0:
        jmp .L_96_54_2
.L_96_54_1:
        pushl   $.LC_ret
        calll   puts
        addl    $4, %esp
        movl    $0, %eax
        ret        
        
.L_96_54_2:
        cmpl    $0, conditions+100
        je     .L_96_54_1
        jmp    .L_96_54_4

.L_96_54_3:
        cmpl    $0, conditions+104
        je     .L_96_54_1
        jmp    .L_96_54_6

.L_96_54_4:
        cmpl    $0, conditions+108
        je     .L_96_54_3
        jmp    .L_96_54_5

.L_96_54_5:
        pushl   $.LC_5
        calll   puts
        addl    $4, %esp
        jmp     .L_96_54_1

.L_96_54_6:
        pushl   $.LC_6
        calll   puts
        addl    $4, %esp
        jmp     .L_96_54_1

.L_96_54_FE1:
        .size   test_3_blocks_2_targets_direct_variant_54, .-test_3_blocks_2_targets_direct_variant_54

        .type   test_3_blocks_3_targets_variant_0, @function
test_3_blocks_3_targets_variant_0:
.L_97_0_0:
        jmp .L_97_0_2
.L_97_0_1:
        pushl   $.LC_ret
        calll   puts
        addl    $4, %esp
        movl    $0, %eax
        ret        
        
.L_97_0_2:
        cmpl    $0, conditions+100
        je     .L_97_0_3
        jmp    .L_97_0_4

.L_97_0_3:
        cmpl    $0, conditions+104
        je     .L_97_0_4
        jmp    .L_97_0_5

.L_97_0_4:
        cmpl    $0, conditions+108
        je     .L_97_0_6
        jmp    .L_97_0_7

.L_97_0_5:
        pushl   $.LC_5
        calll   puts
        addl    $4, %esp
        jmp     .L_97_0_1

.L_97_0_6:
        pushl   $.LC_6
        calll   puts
        addl    $4, %esp
        jmp     .L_97_0_1

.L_97_0_7:
        pushl   $.LC_7
        calll   puts
        addl    $4, %esp
        jmp     .L_97_0_1

.L_97_0_FE1:
        .size   test_3_blocks_3_targets_variant_0, .-test_3_blocks_3_targets_variant_0

        .type   test_3_blocks_3_targets_variant_1, @function
test_3_blocks_3_targets_variant_1:
.L_98_1_0:
        jmp .L_98_1_2
.L_98_1_1:
        pushl   $.LC_ret
        calll   puts
        addl    $4, %esp
        movl    $0, %eax
        ret        
        
.L_98_1_2:
        cmpl    $0, conditions+100
        je     .L_98_1_3
        jmp    .L_98_1_4

.L_98_1_3:
        cmpl    $0, conditions+104
        je     .L_98_1_4
        jmp    .L_98_1_6

.L_98_1_4:
        cmpl    $0, conditions+108
        je     .L_98_1_5
        jmp    .L_98_1_7

.L_98_1_5:
        pushl   $.LC_5
        calll   puts
        addl    $4, %esp
        jmp     .L_98_1_1

.L_98_1_6:
        pushl   $.LC_6
        calll   puts
        addl    $4, %esp
        jmp     .L_98_1_1

.L_98_1_7:
        pushl   $.LC_7
        calll   puts
        addl    $4, %esp
        jmp     .L_98_1_1

.L_98_1_FE1:
        .size   test_3_blocks_3_targets_variant_1, .-test_3_blocks_3_targets_variant_1

        .type   test_3_blocks_3_targets_variant_2, @function
test_3_blocks_3_targets_variant_2:
.L_99_2_0:
        jmp .L_99_2_2
.L_99_2_1:
        pushl   $.LC_ret
        calll   puts
        addl    $4, %esp
        movl    $0, %eax
        ret        
        
.L_99_2_2:
        cmpl    $0, conditions+100
        je     .L_99_2_3
        jmp    .L_99_2_4

.L_99_2_3:
        cmpl    $0, conditions+104
        je     .L_99_2_4
        jmp    .L_99_2_7

.L_99_2_4:
        cmpl    $0, conditions+108
        je     .L_99_2_5
        jmp    .L_99_2_6

.L_99_2_5:
        pushl   $.LC_5
        calll   puts
        addl    $4, %esp
        jmp     .L_99_2_1

.L_99_2_6:
        pushl   $.LC_6
        calll   puts
        addl    $4, %esp
        jmp     .L_99_2_1

.L_99_2_7:
        pushl   $.LC_7
        calll   puts
        addl    $4, %esp
        jmp     .L_99_2_1

.L_99_2_FE1:
        .size   test_3_blocks_3_targets_variant_2, .-test_3_blocks_3_targets_variant_2

        .type   test_3_blocks_3_targets_variant_3, @function
test_3_blocks_3_targets_variant_3:
.L_100_3_0:
        jmp .L_100_3_2
.L_100_3_1:
        pushl   $.LC_ret
        calll   puts
        addl    $4, %esp
        movl    $0, %eax
        ret        
        
.L_100_3_2:
        cmpl    $0, conditions+100
        je     .L_100_3_3
        jmp    .L_100_3_4

.L_100_3_3:
        cmpl    $0, conditions+104
        je     .L_100_3_5
        jmp    .L_100_3_6

.L_100_3_4:
        cmpl    $0, conditions+108
        je     .L_100_3_3
        jmp    .L_100_3_7

.L_100_3_5:
        pushl   $.LC_5
        calll   puts
        addl    $4, %esp
        jmp     .L_100_3_1

.L_100_3_6:
        pushl   $.LC_6
        calll   puts
        addl    $4, %esp
        jmp     .L_100_3_1

.L_100_3_7:
        pushl   $.LC_7
        calll   puts
        addl    $4, %esp
        jmp     .L_100_3_1

.L_100_3_FE1:
        .size   test_3_blocks_3_targets_variant_3, .-test_3_blocks_3_targets_variant_3

        .type   test_3_blocks_3_targets_variant_4, @function
test_3_blocks_3_targets_variant_4:
.L_101_4_0:
        jmp .L_101_4_2
.L_101_4_1:
        pushl   $.LC_ret
        calll   puts
        addl    $4, %esp
        movl    $0, %eax
        ret        
        
.L_101_4_2:
        cmpl    $0, conditions+100
        je     .L_101_4_3
        jmp    .L_101_4_4

.L_101_4_3:
        cmpl    $0, conditions+104
        je     .L_101_4_5
        jmp    .L_101_4_6

.L_101_4_4:
        cmpl    $0, conditions+108
        je     .L_101_4_5
        jmp    .L_101_4_7

.L_101_4_5:
        pushl   $.LC_5
        calll   puts
        addl    $4, %esp
        jmp     .L_101_4_1

.L_101_4_6:
        pushl   $.LC_6
        calll   puts
        addl    $4, %esp
        jmp     .L_101_4_1

.L_101_4_7:
        pushl   $.LC_7
        calll   puts
        addl    $4, %esp
        jmp     .L_101_4_1

.L_101_4_FE1:
        .size   test_3_blocks_3_targets_variant_4, .-test_3_blocks_3_targets_variant_4

        .type   test_3_blocks_3_targets_variant_5, @function
test_3_blocks_3_targets_variant_5:
.L_102_5_0:
        jmp .L_102_5_2
.L_102_5_1:
        pushl   $.LC_ret
        calll   puts
        addl    $4, %esp
        movl    $0, %eax
        ret        
        
.L_102_5_2:
        cmpl    $0, conditions+100
        je     .L_102_5_3
        jmp    .L_102_5_4

.L_102_5_3:
        cmpl    $0, conditions+104
        je     .L_102_5_5
        jmp    .L_102_5_6

.L_102_5_4:
        cmpl    $0, conditions+108
        je     .L_102_5_6
        jmp    .L_102_5_7

.L_102_5_5:
        pushl   $.LC_5
        calll   puts
        addl    $4, %esp
        jmp     .L_102_5_1

.L_102_5_6:
        pushl   $.LC_6
        calll   puts
        addl    $4, %esp
        jmp     .L_102_5_1

.L_102_5_7:
        pushl   $.LC_7
        calll   puts
        addl    $4, %esp
        jmp     .L_102_5_1

.L_102_5_FE1:
        .size   test_3_blocks_3_targets_variant_5, .-test_3_blocks_3_targets_variant_5

        .type   test_3_blocks_3_targets_variant_6, @function
test_3_blocks_3_targets_variant_6:
.L_103_6_0:
        jmp .L_103_6_2
.L_103_6_1:
        pushl   $.LC_ret
        calll   puts
        addl    $4, %esp
        movl    $0, %eax
        ret        
        
.L_103_6_2:
        cmpl    $0, conditions+100
        je     .L_103_6_3
        jmp    .L_103_6_4

.L_103_6_3:
        cmpl    $0, conditions+104
        je     .L_103_6_5
        jmp    .L_103_6_7

.L_103_6_4:
        cmpl    $0, conditions+108
        je     .L_103_6_3
        jmp    .L_103_6_6

.L_103_6_5:
        pushl   $.LC_5
        calll   puts
        addl    $4, %esp
        jmp     .L_103_6_1

.L_103_6_6:
        pushl   $.LC_6
        calll   puts
        addl    $4, %esp
        jmp     .L_103_6_1

.L_103_6_7:
        pushl   $.LC_7
        calll   puts
        addl    $4, %esp
        jmp     .L_103_6_1

.L_103_6_FE1:
        .size   test_3_blocks_3_targets_variant_6, .-test_3_blocks_3_targets_variant_6

        .type   test_3_blocks_3_targets_variant_7, @function
test_3_blocks_3_targets_variant_7:
.L_104_7_0:
        jmp .L_104_7_2
.L_104_7_1:
        pushl   $.LC_ret
        calll   puts
        addl    $4, %esp
        movl    $0, %eax
        ret        
        
.L_104_7_2:
        cmpl    $0, conditions+100
        je     .L_104_7_3
        jmp    .L_104_7_4

.L_104_7_3:
        cmpl    $0, conditions+104
        je     .L_104_7_5
        jmp    .L_104_7_7

.L_104_7_4:
        cmpl    $0, conditions+108
        je     .L_104_7_5
        jmp    .L_104_7_6

.L_104_7_5:
        pushl   $.LC_5
        calll   puts
        addl    $4, %esp
        jmp     .L_104_7_1

.L_104_7_6:
        pushl   $.LC_6
        calll   puts
        addl    $4, %esp
        jmp     .L_104_7_1

.L_104_7_7:
        pushl   $.LC_7
        calll   puts
        addl    $4, %esp
        jmp     .L_104_7_1

.L_104_7_FE1:
        .size   test_3_blocks_3_targets_variant_7, .-test_3_blocks_3_targets_variant_7

        .type   test_3_blocks_3_targets_variant_8, @function
test_3_blocks_3_targets_variant_8:
.L_105_8_0:
        jmp .L_105_8_2
.L_105_8_1:
        pushl   $.LC_ret
        calll   puts
        addl    $4, %esp
        movl    $0, %eax
        ret        
        
.L_105_8_2:
        cmpl    $0, conditions+100
        je     .L_105_8_3
        jmp    .L_105_8_4

.L_105_8_3:
        cmpl    $0, conditions+104
        je     .L_105_8_5
        jmp    .L_105_8_7

.L_105_8_4:
        cmpl    $0, conditions+108
        je     .L_105_8_6
        jmp    .L_105_8_7

.L_105_8_5:
        pushl   $.LC_5
        calll   puts
        addl    $4, %esp
        jmp     .L_105_8_1

.L_105_8_6:
        pushl   $.LC_6
        calll   puts
        addl    $4, %esp
        jmp     .L_105_8_1

.L_105_8_7:
        pushl   $.LC_7
        calll   puts
        addl    $4, %esp
        jmp     .L_105_8_1

.L_105_8_FE1:
        .size   test_3_blocks_3_targets_variant_8, .-test_3_blocks_3_targets_variant_8

        .type   test_3_blocks_3_targets_variant_9, @function
test_3_blocks_3_targets_variant_9:
.L_106_9_0:
        jmp .L_106_9_2
.L_106_9_1:
        pushl   $.LC_ret
        calll   puts
        addl    $4, %esp
        movl    $0, %eax
        ret        
        
.L_106_9_2:
        cmpl    $0, conditions+100
        je     .L_106_9_3
        jmp    .L_106_9_4

.L_106_9_3:
        cmpl    $0, conditions+104
        je     .L_106_9_6
        jmp    .L_106_9_7

.L_106_9_4:
        cmpl    $0, conditions+108
        je     .L_106_9_3
        jmp    .L_106_9_5

.L_106_9_5:
        pushl   $.LC_5
        calll   puts
        addl    $4, %esp
        jmp     .L_106_9_1

.L_106_9_6:
        pushl   $.LC_6
        calll   puts
        addl    $4, %esp
        jmp     .L_106_9_1

.L_106_9_7:
        pushl   $.LC_7
        calll   puts
        addl    $4, %esp
        jmp     .L_106_9_1

.L_106_9_FE1:
        .size   test_3_blocks_3_targets_variant_9, .-test_3_blocks_3_targets_variant_9

        .type   test_3_blocks_3_targets_variant_10, @function
test_3_blocks_3_targets_variant_10:
.L_107_10_0:
        jmp .L_107_10_2
.L_107_10_1:
        pushl   $.LC_ret
        calll   puts
        addl    $4, %esp
        movl    $0, %eax
        ret        
        
.L_107_10_2:
        cmpl    $0, conditions+100
        je     .L_107_10_3
        jmp    .L_107_10_4

.L_107_10_3:
        cmpl    $0, conditions+104
        je     .L_107_10_6
        jmp    .L_107_10_7

.L_107_10_4:
        cmpl    $0, conditions+108
        je     .L_107_10_5
        jmp    .L_107_10_6

.L_107_10_5:
        pushl   $.LC_5
        calll   puts
        addl    $4, %esp
        jmp     .L_107_10_1

.L_107_10_6:
        pushl   $.LC_6
        calll   puts
        addl    $4, %esp
        jmp     .L_107_10_1

.L_107_10_7:
        pushl   $.LC_7
        calll   puts
        addl    $4, %esp
        jmp     .L_107_10_1

.L_107_10_FE1:
        .size   test_3_blocks_3_targets_variant_10, .-test_3_blocks_3_targets_variant_10

        .type   test_3_blocks_3_targets_variant_11, @function
test_3_blocks_3_targets_variant_11:
.L_108_11_0:
        jmp .L_108_11_2
.L_108_11_1:
        pushl   $.LC_ret
        calll   puts
        addl    $4, %esp
        movl    $0, %eax
        ret        
        
.L_108_11_2:
        cmpl    $0, conditions+100
        je     .L_108_11_3
        jmp    .L_108_11_4

.L_108_11_3:
        cmpl    $0, conditions+104
        je     .L_108_11_6
        jmp    .L_108_11_7

.L_108_11_4:
        cmpl    $0, conditions+108
        je     .L_108_11_5
        jmp    .L_108_11_7

.L_108_11_5:
        pushl   $.LC_5
        calll   puts
        addl    $4, %esp
        jmp     .L_108_11_1

.L_108_11_6:
        pushl   $.LC_6
        calll   puts
        addl    $4, %esp
        jmp     .L_108_11_1

.L_108_11_7:
        pushl   $.LC_7
        calll   puts
        addl    $4, %esp
        jmp     .L_108_11_1

.L_108_11_FE1:
        .size   test_3_blocks_3_targets_variant_11, .-test_3_blocks_3_targets_variant_11

        .type   test_3_blocks_3_targets_variant_12, @function
test_3_blocks_3_targets_variant_12:
.L_109_12_0:
        jmp .L_109_12_2
.L_109_12_1:
        pushl   $.LC_ret
        calll   puts
        addl    $4, %esp
        movl    $0, %eax
        ret        
        
.L_109_12_2:
        cmpl    $0, conditions+100
        je     .L_109_12_3
        jmp    .L_109_12_5

.L_109_12_3:
        cmpl    $0, conditions+104
        je     .L_109_12_4
        jmp    .L_109_12_5

.L_109_12_4:
        cmpl    $0, conditions+108
        je     .L_109_12_6
        jmp    .L_109_12_7

.L_109_12_5:
        pushl   $.LC_5
        calll   puts
        addl    $4, %esp
        jmp     .L_109_12_1

.L_109_12_6:
        pushl   $.LC_6
        calll   puts
        addl    $4, %esp
        jmp     .L_109_12_1

.L_109_12_7:
        pushl   $.LC_7
        calll   puts
        addl    $4, %esp
        jmp     .L_109_12_1

.L_109_12_FE1:
        .size   test_3_blocks_3_targets_variant_12, .-test_3_blocks_3_targets_variant_12

        .type   test_3_blocks_3_targets_variant_13, @function
test_3_blocks_3_targets_variant_13:
.L_110_13_0:
        jmp .L_110_13_2
.L_110_13_1:
        pushl   $.LC_ret
        calll   puts
        addl    $4, %esp
        movl    $0, %eax
        ret        
        
.L_110_13_2:
        cmpl    $0, conditions+100
        je     .L_110_13_3
        jmp    .L_110_13_5

.L_110_13_3:
        cmpl    $0, conditions+104
        je     .L_110_13_4
        jmp    .L_110_13_6

.L_110_13_4:
        cmpl    $0, conditions+108
        je     .L_110_13_5
        jmp    .L_110_13_7

.L_110_13_5:
        pushl   $.LC_5
        calll   puts
        addl    $4, %esp
        jmp     .L_110_13_1

.L_110_13_6:
        pushl   $.LC_6
        calll   puts
        addl    $4, %esp
        jmp     .L_110_13_1

.L_110_13_7:
        pushl   $.LC_7
        calll   puts
        addl    $4, %esp
        jmp     .L_110_13_1

.L_110_13_FE1:
        .size   test_3_blocks_3_targets_variant_13, .-test_3_blocks_3_targets_variant_13

        .type   test_3_blocks_3_targets_variant_14, @function
test_3_blocks_3_targets_variant_14:
.L_111_14_0:
        jmp .L_111_14_2
.L_111_14_1:
        pushl   $.LC_ret
        calll   puts
        addl    $4, %esp
        movl    $0, %eax
        ret        
        
.L_111_14_2:
        cmpl    $0, conditions+100
        je     .L_111_14_3
        jmp    .L_111_14_5

.L_111_14_3:
        cmpl    $0, conditions+104
        je     .L_111_14_4
        jmp    .L_111_14_6

.L_111_14_4:
        cmpl    $0, conditions+108
        je     .L_111_14_6
        jmp    .L_111_14_7

.L_111_14_5:
        pushl   $.LC_5
        calll   puts
        addl    $4, %esp
        jmp     .L_111_14_1

.L_111_14_6:
        pushl   $.LC_6
        calll   puts
        addl    $4, %esp
        jmp     .L_111_14_1

.L_111_14_7:
        pushl   $.LC_7
        calll   puts
        addl    $4, %esp
        jmp     .L_111_14_1

.L_111_14_FE1:
        .size   test_3_blocks_3_targets_variant_14, .-test_3_blocks_3_targets_variant_14

        .type   test_3_blocks_3_targets_variant_15, @function
test_3_blocks_3_targets_variant_15:
.L_112_15_0:
        jmp .L_112_15_2
.L_112_15_1:
        pushl   $.LC_ret
        calll   puts
        addl    $4, %esp
        movl    $0, %eax
        ret        
        
.L_112_15_2:
        cmpl    $0, conditions+100
        je     .L_112_15_3
        jmp    .L_112_15_5

.L_112_15_3:
        cmpl    $0, conditions+104
        je     .L_112_15_4
        jmp    .L_112_15_7

.L_112_15_4:
        cmpl    $0, conditions+108
        je     .L_112_15_5
        jmp    .L_112_15_6

.L_112_15_5:
        pushl   $.LC_5
        calll   puts
        addl    $4, %esp
        jmp     .L_112_15_1

.L_112_15_6:
        pushl   $.LC_6
        calll   puts
        addl    $4, %esp
        jmp     .L_112_15_1

.L_112_15_7:
        pushl   $.LC_7
        calll   puts
        addl    $4, %esp
        jmp     .L_112_15_1

.L_112_15_FE1:
        .size   test_3_blocks_3_targets_variant_15, .-test_3_blocks_3_targets_variant_15

        .type   test_3_blocks_3_targets_variant_16, @function
test_3_blocks_3_targets_variant_16:
.L_113_16_0:
        jmp .L_113_16_2
.L_113_16_1:
        pushl   $.LC_ret
        calll   puts
        addl    $4, %esp
        movl    $0, %eax
        ret        
        
.L_113_16_2:
        cmpl    $0, conditions+100
        je     .L_113_16_3
        jmp    .L_113_16_5

.L_113_16_3:
        cmpl    $0, conditions+104
        je     .L_113_16_4
        jmp    .L_113_16_7

.L_113_16_4:
        cmpl    $0, conditions+108
        je     .L_113_16_6
        jmp    .L_113_16_7

.L_113_16_5:
        pushl   $.LC_5
        calll   puts
        addl    $4, %esp
        jmp     .L_113_16_1

.L_113_16_6:
        pushl   $.LC_6
        calll   puts
        addl    $4, %esp
        jmp     .L_113_16_1

.L_113_16_7:
        pushl   $.LC_7
        calll   puts
        addl    $4, %esp
        jmp     .L_113_16_1

.L_113_16_FE1:
        .size   test_3_blocks_3_targets_variant_16, .-test_3_blocks_3_targets_variant_16

        .type   test_3_blocks_3_targets_variant_17, @function
test_3_blocks_3_targets_variant_17:
.L_114_17_0:
        jmp .L_114_17_2
.L_114_17_1:
        pushl   $.LC_ret
        calll   puts
        addl    $4, %esp
        movl    $0, %eax
        ret        
        
.L_114_17_2:
        cmpl    $0, conditions+100
        je     .L_114_17_3
        jmp    .L_114_17_6

.L_114_17_3:
        cmpl    $0, conditions+104
        je     .L_114_17_4
        jmp    .L_114_17_5

.L_114_17_4:
        cmpl    $0, conditions+108
        je     .L_114_17_5
        jmp    .L_114_17_7

.L_114_17_5:
        pushl   $.LC_5
        calll   puts
        addl    $4, %esp
        jmp     .L_114_17_1

.L_114_17_6:
        pushl   $.LC_6
        calll   puts
        addl    $4, %esp
        jmp     .L_114_17_1

.L_114_17_7:
        pushl   $.LC_7
        calll   puts
        addl    $4, %esp
        jmp     .L_114_17_1

.L_114_17_FE1:
        .size   test_3_blocks_3_targets_variant_17, .-test_3_blocks_3_targets_variant_17

        .type   test_3_blocks_3_targets_variant_18, @function
test_3_blocks_3_targets_variant_18:
.L_115_18_0:
        jmp .L_115_18_2
.L_115_18_1:
        pushl   $.LC_ret
        calll   puts
        addl    $4, %esp
        movl    $0, %eax
        ret        
        
.L_115_18_2:
        cmpl    $0, conditions+100
        je     .L_115_18_3
        jmp    .L_115_18_6

.L_115_18_3:
        cmpl    $0, conditions+104
        je     .L_115_18_4
        jmp    .L_115_18_5

.L_115_18_4:
        cmpl    $0, conditions+108
        je     .L_115_18_6
        jmp    .L_115_18_7

.L_115_18_5:
        pushl   $.LC_5
        calll   puts
        addl    $4, %esp
        jmp     .L_115_18_1

.L_115_18_6:
        pushl   $.LC_6
        calll   puts
        addl    $4, %esp
        jmp     .L_115_18_1

.L_115_18_7:
        pushl   $.LC_7
        calll   puts
        addl    $4, %esp
        jmp     .L_115_18_1

.L_115_18_FE1:
        .size   test_3_blocks_3_targets_variant_18, .-test_3_blocks_3_targets_variant_18

        .type   test_3_blocks_3_targets_variant_19, @function
test_3_blocks_3_targets_variant_19:
.L_116_19_0:
        jmp .L_116_19_2
.L_116_19_1:
        pushl   $.LC_ret
        calll   puts
        addl    $4, %esp
        movl    $0, %eax
        ret        
        
.L_116_19_2:
        cmpl    $0, conditions+100
        je     .L_116_19_3
        jmp    .L_116_19_6

.L_116_19_3:
        cmpl    $0, conditions+104
        je     .L_116_19_4
        jmp    .L_116_19_6

.L_116_19_4:
        cmpl    $0, conditions+108
        je     .L_116_19_5
        jmp    .L_116_19_7

.L_116_19_5:
        pushl   $.LC_5
        calll   puts
        addl    $4, %esp
        jmp     .L_116_19_1

.L_116_19_6:
        pushl   $.LC_6
        calll   puts
        addl    $4, %esp
        jmp     .L_116_19_1

.L_116_19_7:
        pushl   $.LC_7
        calll   puts
        addl    $4, %esp
        jmp     .L_116_19_1

.L_116_19_FE1:
        .size   test_3_blocks_3_targets_variant_19, .-test_3_blocks_3_targets_variant_19

        .type   test_3_blocks_3_targets_variant_20, @function
test_3_blocks_3_targets_variant_20:
.L_117_20_0:
        jmp .L_117_20_2
.L_117_20_1:
        pushl   $.LC_ret
        calll   puts
        addl    $4, %esp
        movl    $0, %eax
        ret        
        
.L_117_20_2:
        cmpl    $0, conditions+100
        je     .L_117_20_3
        jmp    .L_117_20_6

.L_117_20_3:
        cmpl    $0, conditions+104
        je     .L_117_20_4
        jmp    .L_117_20_7

.L_117_20_4:
        cmpl    $0, conditions+108
        je     .L_117_20_5
        jmp    .L_117_20_6

.L_117_20_5:
        pushl   $.LC_5
        calll   puts
        addl    $4, %esp
        jmp     .L_117_20_1

.L_117_20_6:
        pushl   $.LC_6
        calll   puts
        addl    $4, %esp
        jmp     .L_117_20_1

.L_117_20_7:
        pushl   $.LC_7
        calll   puts
        addl    $4, %esp
        jmp     .L_117_20_1

.L_117_20_FE1:
        .size   test_3_blocks_3_targets_variant_20, .-test_3_blocks_3_targets_variant_20

        .type   test_3_blocks_3_targets_variant_21, @function
test_3_blocks_3_targets_variant_21:
.L_118_21_0:
        jmp .L_118_21_2
.L_118_21_1:
        pushl   $.LC_ret
        calll   puts
        addl    $4, %esp
        movl    $0, %eax
        ret        
        
.L_118_21_2:
        cmpl    $0, conditions+100
        je     .L_118_21_3
        jmp    .L_118_21_6

.L_118_21_3:
        cmpl    $0, conditions+104
        je     .L_118_21_4
        jmp    .L_118_21_7

.L_118_21_4:
        cmpl    $0, conditions+108
        je     .L_118_21_5
        jmp    .L_118_21_7

.L_118_21_5:
        pushl   $.LC_5
        calll   puts
        addl    $4, %esp
        jmp     .L_118_21_1

.L_118_21_6:
        pushl   $.LC_6
        calll   puts
        addl    $4, %esp
        jmp     .L_118_21_1

.L_118_21_7:
        pushl   $.LC_7
        calll   puts
        addl    $4, %esp
        jmp     .L_118_21_1

.L_118_21_FE1:
        .size   test_3_blocks_3_targets_variant_21, .-test_3_blocks_3_targets_variant_21

        .type   test_3_blocks_3_targets_variant_22, @function
test_3_blocks_3_targets_variant_22:
.L_119_22_0:
        jmp .L_119_22_2
.L_119_22_1:
        pushl   $.LC_ret
        calll   puts
        addl    $4, %esp
        movl    $0, %eax
        ret        
        
.L_119_22_2:
        cmpl    $0, conditions+100
        je     .L_119_22_3
        jmp    .L_119_22_7

.L_119_22_3:
        cmpl    $0, conditions+104
        je     .L_119_22_4
        jmp    .L_119_22_5

.L_119_22_4:
        cmpl    $0, conditions+108
        je     .L_119_22_5
        jmp    .L_119_22_6

.L_119_22_5:
        pushl   $.LC_5
        calll   puts
        addl    $4, %esp
        jmp     .L_119_22_1

.L_119_22_6:
        pushl   $.LC_6
        calll   puts
        addl    $4, %esp
        jmp     .L_119_22_1

.L_119_22_7:
        pushl   $.LC_7
        calll   puts
        addl    $4, %esp
        jmp     .L_119_22_1

.L_119_22_FE1:
        .size   test_3_blocks_3_targets_variant_22, .-test_3_blocks_3_targets_variant_22

        .type   test_3_blocks_3_targets_variant_23, @function
test_3_blocks_3_targets_variant_23:
.L_120_23_0:
        jmp .L_120_23_2
.L_120_23_1:
        pushl   $.LC_ret
        calll   puts
        addl    $4, %esp
        movl    $0, %eax
        ret        
        
.L_120_23_2:
        cmpl    $0, conditions+100
        je     .L_120_23_3
        jmp    .L_120_23_7

.L_120_23_3:
        cmpl    $0, conditions+104
        je     .L_120_23_4
        jmp    .L_120_23_5

.L_120_23_4:
        cmpl    $0, conditions+108
        je     .L_120_23_6
        jmp    .L_120_23_7

.L_120_23_5:
        pushl   $.LC_5
        calll   puts
        addl    $4, %esp
        jmp     .L_120_23_1

.L_120_23_6:
        pushl   $.LC_6
        calll   puts
        addl    $4, %esp
        jmp     .L_120_23_1

.L_120_23_7:
        pushl   $.LC_7
        calll   puts
        addl    $4, %esp
        jmp     .L_120_23_1

.L_120_23_FE1:
        .size   test_3_blocks_3_targets_variant_23, .-test_3_blocks_3_targets_variant_23

        .type   test_3_blocks_3_targets_variant_24, @function
test_3_blocks_3_targets_variant_24:
.L_121_24_0:
        jmp .L_121_24_2
.L_121_24_1:
        pushl   $.LC_ret
        calll   puts
        addl    $4, %esp
        movl    $0, %eax
        ret        
        
.L_121_24_2:
        cmpl    $0, conditions+100
        je     .L_121_24_3
        jmp    .L_121_24_7

.L_121_24_3:
        cmpl    $0, conditions+104
        je     .L_121_24_4
        jmp    .L_121_24_6

.L_121_24_4:
        cmpl    $0, conditions+108
        je     .L_121_24_5
        jmp    .L_121_24_6

.L_121_24_5:
        pushl   $.LC_5
        calll   puts
        addl    $4, %esp
        jmp     .L_121_24_1

.L_121_24_6:
        pushl   $.LC_6
        calll   puts
        addl    $4, %esp
        jmp     .L_121_24_1

.L_121_24_7:
        pushl   $.LC_7
        calll   puts
        addl    $4, %esp
        jmp     .L_121_24_1

.L_121_24_FE1:
        .size   test_3_blocks_3_targets_variant_24, .-test_3_blocks_3_targets_variant_24

        .type   test_3_blocks_3_targets_variant_25, @function
test_3_blocks_3_targets_variant_25:
.L_122_25_0:
        jmp .L_122_25_2
.L_122_25_1:
        pushl   $.LC_ret
        calll   puts
        addl    $4, %esp
        movl    $0, %eax
        ret        
        
.L_122_25_2:
        cmpl    $0, conditions+100
        je     .L_122_25_3
        jmp    .L_122_25_7

.L_122_25_3:
        cmpl    $0, conditions+104
        je     .L_122_25_4
        jmp    .L_122_25_6

.L_122_25_4:
        cmpl    $0, conditions+108
        je     .L_122_25_5
        jmp    .L_122_25_7

.L_122_25_5:
        pushl   $.LC_5
        calll   puts
        addl    $4, %esp
        jmp     .L_122_25_1

.L_122_25_6:
        pushl   $.LC_6
        calll   puts
        addl    $4, %esp
        jmp     .L_122_25_1

.L_122_25_7:
        pushl   $.LC_7
        calll   puts
        addl    $4, %esp
        jmp     .L_122_25_1

.L_122_25_FE1:
        .size   test_3_blocks_3_targets_variant_25, .-test_3_blocks_3_targets_variant_25

        .type   test_3_blocks_3_targets_variant_26, @function
test_3_blocks_3_targets_variant_26:
.L_123_26_0:
        jmp .L_123_26_2
.L_123_26_1:
        pushl   $.LC_ret
        calll   puts
        addl    $4, %esp
        movl    $0, %eax
        ret        
        
.L_123_26_2:
        cmpl    $0, conditions+100
        je     .L_123_26_3
        jmp    .L_123_26_7

.L_123_26_3:
        cmpl    $0, conditions+104
        je     .L_123_26_4
        jmp    .L_123_26_7

.L_123_26_4:
        cmpl    $0, conditions+108
        je     .L_123_26_5
        jmp    .L_123_26_6

.L_123_26_5:
        pushl   $.LC_5
        calll   puts
        addl    $4, %esp
        jmp     .L_123_26_1

.L_123_26_6:
        pushl   $.LC_6
        calll   puts
        addl    $4, %esp
        jmp     .L_123_26_1

.L_123_26_7:
        pushl   $.LC_7
        calll   puts
        addl    $4, %esp
        jmp     .L_123_26_1

.L_123_26_FE1:
        .size   test_3_blocks_3_targets_variant_26, .-test_3_blocks_3_targets_variant_26

        .type   test_3_blocks_3_targets_variant_27, @function
test_3_blocks_3_targets_variant_27:
.L_124_27_0:
        jmp .L_124_27_2
.L_124_27_1:
        pushl   $.LC_ret
        calll   puts
        addl    $4, %esp
        movl    $0, %eax
        ret        
        
.L_124_27_2:
        cmpl    $0, conditions+100
        je     .L_124_27_4
        jmp    .L_124_27_5

.L_124_27_3:
        cmpl    $0, conditions+104
        je     .L_124_27_5
        jmp    .L_124_27_6

.L_124_27_4:
        cmpl    $0, conditions+108
        je     .L_124_27_3
        jmp    .L_124_27_7

.L_124_27_5:
        pushl   $.LC_5
        calll   puts
        addl    $4, %esp
        jmp     .L_124_27_1

.L_124_27_6:
        pushl   $.LC_6
        calll   puts
        addl    $4, %esp
        jmp     .L_124_27_1

.L_124_27_7:
        pushl   $.LC_7
        calll   puts
        addl    $4, %esp
        jmp     .L_124_27_1

.L_124_27_FE1:
        .size   test_3_blocks_3_targets_variant_27, .-test_3_blocks_3_targets_variant_27

        .type   test_3_blocks_3_targets_variant_28, @function
test_3_blocks_3_targets_variant_28:
.L_125_28_0:
        jmp .L_125_28_2
.L_125_28_1:
        pushl   $.LC_ret
        calll   puts
        addl    $4, %esp
        movl    $0, %eax
        ret        
        
.L_125_28_2:
        cmpl    $0, conditions+100
        je     .L_125_28_4
        jmp    .L_125_28_5

.L_125_28_3:
        cmpl    $0, conditions+104
        je     .L_125_28_5
        jmp    .L_125_28_7

.L_125_28_4:
        cmpl    $0, conditions+108
        je     .L_125_28_3
        jmp    .L_125_28_6

.L_125_28_5:
        pushl   $.LC_5
        calll   puts
        addl    $4, %esp
        jmp     .L_125_28_1

.L_125_28_6:
        pushl   $.LC_6
        calll   puts
        addl    $4, %esp
        jmp     .L_125_28_1

.L_125_28_7:
        pushl   $.LC_7
        calll   puts
        addl    $4, %esp
        jmp     .L_125_28_1

.L_125_28_FE1:
        .size   test_3_blocks_3_targets_variant_28, .-test_3_blocks_3_targets_variant_28

        .type   test_3_blocks_3_targets_variant_29, @function
test_3_blocks_3_targets_variant_29:
.L_126_29_0:
        jmp .L_126_29_2
.L_126_29_1:
        pushl   $.LC_ret
        calll   puts
        addl    $4, %esp
        movl    $0, %eax
        ret        
        
.L_126_29_2:
        cmpl    $0, conditions+100
        je     .L_126_29_4
        jmp    .L_126_29_5

.L_126_29_3:
        cmpl    $0, conditions+104
        je     .L_126_29_6
        jmp    .L_126_29_7

.L_126_29_4:
        cmpl    $0, conditions+108
        je     .L_126_29_3
        jmp    .L_126_29_5

.L_126_29_5:
        pushl   $.LC_5
        calll   puts
        addl    $4, %esp
        jmp     .L_126_29_1

.L_126_29_6:
        pushl   $.LC_6
        calll   puts
        addl    $4, %esp
        jmp     .L_126_29_1

.L_126_29_7:
        pushl   $.LC_7
        calll   puts
        addl    $4, %esp
        jmp     .L_126_29_1

.L_126_29_FE1:
        .size   test_3_blocks_3_targets_variant_29, .-test_3_blocks_3_targets_variant_29

        .type   test_3_blocks_3_targets_variant_30, @function
test_3_blocks_3_targets_variant_30:
.L_127_30_0:
        jmp .L_127_30_2
.L_127_30_1:
        pushl   $.LC_ret
        calll   puts
        addl    $4, %esp
        movl    $0, %eax
        ret        
        
.L_127_30_2:
        cmpl    $0, conditions+100
        je     .L_127_30_4
        jmp    .L_127_30_5

.L_127_30_3:
        cmpl    $0, conditions+104
        je     .L_127_30_6
        jmp    .L_127_30_7

.L_127_30_4:
        cmpl    $0, conditions+108
        je     .L_127_30_3
        jmp    .L_127_30_6

.L_127_30_5:
        pushl   $.LC_5
        calll   puts
        addl    $4, %esp
        jmp     .L_127_30_1

.L_127_30_6:
        pushl   $.LC_6
        calll   puts
        addl    $4, %esp
        jmp     .L_127_30_1

.L_127_30_7:
        pushl   $.LC_7
        calll   puts
        addl    $4, %esp
        jmp     .L_127_30_1

.L_127_30_FE1:
        .size   test_3_blocks_3_targets_variant_30, .-test_3_blocks_3_targets_variant_30

        .type   test_3_blocks_3_targets_variant_31, @function
test_3_blocks_3_targets_variant_31:
.L_128_31_0:
        jmp .L_128_31_2
.L_128_31_1:
        pushl   $.LC_ret
        calll   puts
        addl    $4, %esp
        movl    $0, %eax
        ret        
        
.L_128_31_2:
        cmpl    $0, conditions+100
        je     .L_128_31_4
        jmp    .L_128_31_5

.L_128_31_3:
        cmpl    $0, conditions+104
        je     .L_128_31_6
        jmp    .L_128_31_7

.L_128_31_4:
        cmpl    $0, conditions+108
        je     .L_128_31_3
        jmp    .L_128_31_7

.L_128_31_5:
        pushl   $.LC_5
        calll   puts
        addl    $4, %esp
        jmp     .L_128_31_1

.L_128_31_6:
        pushl   $.LC_6
        calll   puts
        addl    $4, %esp
        jmp     .L_128_31_1

.L_128_31_7:
        pushl   $.LC_7
        calll   puts
        addl    $4, %esp
        jmp     .L_128_31_1

.L_128_31_FE1:
        .size   test_3_blocks_3_targets_variant_31, .-test_3_blocks_3_targets_variant_31

        .type   test_3_blocks_3_targets_variant_32, @function
test_3_blocks_3_targets_variant_32:
.L_129_32_0:
        jmp .L_129_32_2
.L_129_32_1:
        pushl   $.LC_ret
        calll   puts
        addl    $4, %esp
        movl    $0, %eax
        ret        
        
.L_129_32_2:
        cmpl    $0, conditions+100
        je     .L_129_32_4
        jmp    .L_129_32_6

.L_129_32_3:
        cmpl    $0, conditions+104
        je     .L_129_32_5
        jmp    .L_129_32_6

.L_129_32_4:
        cmpl    $0, conditions+108
        je     .L_129_32_3
        jmp    .L_129_32_7

.L_129_32_5:
        pushl   $.LC_5
        calll   puts
        addl    $4, %esp
        jmp     .L_129_32_1

.L_129_32_6:
        pushl   $.LC_6
        calll   puts
        addl    $4, %esp
        jmp     .L_129_32_1

.L_129_32_7:
        pushl   $.LC_7
        calll   puts
        addl    $4, %esp
        jmp     .L_129_32_1

.L_129_32_FE1:
        .size   test_3_blocks_3_targets_variant_32, .-test_3_blocks_3_targets_variant_32

        .type   test_3_blocks_3_targets_variant_33, @function
test_3_blocks_3_targets_variant_33:
.L_130_33_0:
        jmp .L_130_33_2
.L_130_33_1:
        pushl   $.LC_ret
        calll   puts
        addl    $4, %esp
        movl    $0, %eax
        ret        
        
.L_130_33_2:
        cmpl    $0, conditions+100
        je     .L_130_33_4
        jmp    .L_130_33_6

.L_130_33_3:
        cmpl    $0, conditions+104
        je     .L_130_33_5
        jmp    .L_130_33_7

.L_130_33_4:
        cmpl    $0, conditions+108
        je     .L_130_33_3
        jmp    .L_130_33_5

.L_130_33_5:
        pushl   $.LC_5
        calll   puts
        addl    $4, %esp
        jmp     .L_130_33_1

.L_130_33_6:
        pushl   $.LC_6
        calll   puts
        addl    $4, %esp
        jmp     .L_130_33_1

.L_130_33_7:
        pushl   $.LC_7
        calll   puts
        addl    $4, %esp
        jmp     .L_130_33_1

.L_130_33_FE1:
        .size   test_3_blocks_3_targets_variant_33, .-test_3_blocks_3_targets_variant_33

        .type   test_3_blocks_3_targets_variant_34, @function
test_3_blocks_3_targets_variant_34:
.L_131_34_0:
        jmp .L_131_34_2
.L_131_34_1:
        pushl   $.LC_ret
        calll   puts
        addl    $4, %esp
        movl    $0, %eax
        ret        
        
.L_131_34_2:
        cmpl    $0, conditions+100
        je     .L_131_34_4
        jmp    .L_131_34_6

.L_131_34_3:
        cmpl    $0, conditions+104
        je     .L_131_34_5
        jmp    .L_131_34_7

.L_131_34_4:
        cmpl    $0, conditions+108
        je     .L_131_34_3
        jmp    .L_131_34_6

.L_131_34_5:
        pushl   $.LC_5
        calll   puts
        addl    $4, %esp
        jmp     .L_131_34_1

.L_131_34_6:
        pushl   $.LC_6
        calll   puts
        addl    $4, %esp
        jmp     .L_131_34_1

.L_131_34_7:
        pushl   $.LC_7
        calll   puts
        addl    $4, %esp
        jmp     .L_131_34_1

.L_131_34_FE1:
        .size   test_3_blocks_3_targets_variant_34, .-test_3_blocks_3_targets_variant_34

        .type   test_3_blocks_3_targets_variant_35, @function
test_3_blocks_3_targets_variant_35:
.L_132_35_0:
        jmp .L_132_35_2
.L_132_35_1:
        pushl   $.LC_ret
        calll   puts
        addl    $4, %esp
        movl    $0, %eax
        ret        
        
.L_132_35_2:
        cmpl    $0, conditions+100
        je     .L_132_35_4
        jmp    .L_132_35_6

.L_132_35_3:
        cmpl    $0, conditions+104
        je     .L_132_35_5
        jmp    .L_132_35_7

.L_132_35_4:
        cmpl    $0, conditions+108
        je     .L_132_35_3
        jmp    .L_132_35_7

.L_132_35_5:
        pushl   $.LC_5
        calll   puts
        addl    $4, %esp
        jmp     .L_132_35_1

.L_132_35_6:
        pushl   $.LC_6
        calll   puts
        addl    $4, %esp
        jmp     .L_132_35_1

.L_132_35_7:
        pushl   $.LC_7
        calll   puts
        addl    $4, %esp
        jmp     .L_132_35_1

.L_132_35_FE1:
        .size   test_3_blocks_3_targets_variant_35, .-test_3_blocks_3_targets_variant_35

        .type   test_3_blocks_3_targets_variant_36, @function
test_3_blocks_3_targets_variant_36:
.L_133_36_0:
        jmp .L_133_36_2
.L_133_36_1:
        pushl   $.LC_ret
        calll   puts
        addl    $4, %esp
        movl    $0, %eax
        ret        
        
.L_133_36_2:
        cmpl    $0, conditions+100
        je     .L_133_36_4
        jmp    .L_133_36_6

.L_133_36_3:
        cmpl    $0, conditions+104
        je     .L_133_36_6
        jmp    .L_133_36_7

.L_133_36_4:
        cmpl    $0, conditions+108
        je     .L_133_36_3
        jmp    .L_133_36_5

.L_133_36_5:
        pushl   $.LC_5
        calll   puts
        addl    $4, %esp
        jmp     .L_133_36_1

.L_133_36_6:
        pushl   $.LC_6
        calll   puts
        addl    $4, %esp
        jmp     .L_133_36_1

.L_133_36_7:
        pushl   $.LC_7
        calll   puts
        addl    $4, %esp
        jmp     .L_133_36_1

.L_133_36_FE1:
        .size   test_3_blocks_3_targets_variant_36, .-test_3_blocks_3_targets_variant_36

        .type   test_3_blocks_3_targets_variant_37, @function
test_3_blocks_3_targets_variant_37:
.L_134_37_0:
        jmp .L_134_37_2
.L_134_37_1:
        pushl   $.LC_ret
        calll   puts
        addl    $4, %esp
        movl    $0, %eax
        ret        
        
.L_134_37_2:
        cmpl    $0, conditions+100
        je     .L_134_37_4
        jmp    .L_134_37_7

.L_134_37_3:
        cmpl    $0, conditions+104
        je     .L_134_37_5
        jmp    .L_134_37_6

.L_134_37_4:
        cmpl    $0, conditions+108
        je     .L_134_37_3
        jmp    .L_134_37_5

.L_134_37_5:
        pushl   $.LC_5
        calll   puts
        addl    $4, %esp
        jmp     .L_134_37_1

.L_134_37_6:
        pushl   $.LC_6
        calll   puts
        addl    $4, %esp
        jmp     .L_134_37_1

.L_134_37_7:
        pushl   $.LC_7
        calll   puts
        addl    $4, %esp
        jmp     .L_134_37_1

.L_134_37_FE1:
        .size   test_3_blocks_3_targets_variant_37, .-test_3_blocks_3_targets_variant_37

        .type   test_3_blocks_3_targets_variant_38, @function
test_3_blocks_3_targets_variant_38:
.L_135_38_0:
        jmp .L_135_38_2
.L_135_38_1:
        pushl   $.LC_ret
        calll   puts
        addl    $4, %esp
        movl    $0, %eax
        ret        
        
.L_135_38_2:
        cmpl    $0, conditions+100
        je     .L_135_38_4
        jmp    .L_135_38_7

.L_135_38_3:
        cmpl    $0, conditions+104
        je     .L_135_38_5
        jmp    .L_135_38_6

.L_135_38_4:
        cmpl    $0, conditions+108
        je     .L_135_38_3
        jmp    .L_135_38_6

.L_135_38_5:
        pushl   $.LC_5
        calll   puts
        addl    $4, %esp
        jmp     .L_135_38_1

.L_135_38_6:
        pushl   $.LC_6
        calll   puts
        addl    $4, %esp
        jmp     .L_135_38_1

.L_135_38_7:
        pushl   $.LC_7
        calll   puts
        addl    $4, %esp
        jmp     .L_135_38_1

.L_135_38_FE1:
        .size   test_3_blocks_3_targets_variant_38, .-test_3_blocks_3_targets_variant_38

        .type   test_3_blocks_3_targets_variant_39, @function
test_3_blocks_3_targets_variant_39:
.L_136_39_0:
        jmp .L_136_39_2
.L_136_39_1:
        pushl   $.LC_ret
        calll   puts
        addl    $4, %esp
        movl    $0, %eax
        ret        
        
.L_136_39_2:
        cmpl    $0, conditions+100
        je     .L_136_39_4
        jmp    .L_136_39_7

.L_136_39_3:
        cmpl    $0, conditions+104
        je     .L_136_39_5
        jmp    .L_136_39_6

.L_136_39_4:
        cmpl    $0, conditions+108
        je     .L_136_39_3
        jmp    .L_136_39_7

.L_136_39_5:
        pushl   $.LC_5
        calll   puts
        addl    $4, %esp
        jmp     .L_136_39_1

.L_136_39_6:
        pushl   $.LC_6
        calll   puts
        addl    $4, %esp
        jmp     .L_136_39_1

.L_136_39_7:
        pushl   $.LC_7
        calll   puts
        addl    $4, %esp
        jmp     .L_136_39_1

.L_136_39_FE1:
        .size   test_3_blocks_3_targets_variant_39, .-test_3_blocks_3_targets_variant_39

        .type   test_3_blocks_3_targets_variant_40, @function
test_3_blocks_3_targets_variant_40:
.L_137_40_0:
        jmp .L_137_40_2
.L_137_40_1:
        pushl   $.LC_ret
        calll   puts
        addl    $4, %esp
        movl    $0, %eax
        ret        
        
.L_137_40_2:
        cmpl    $0, conditions+100
        je     .L_137_40_4
        jmp    .L_137_40_7

.L_137_40_3:
        cmpl    $0, conditions+104
        je     .L_137_40_5
        jmp    .L_137_40_7

.L_137_40_4:
        cmpl    $0, conditions+108
        je     .L_137_40_3
        jmp    .L_137_40_6

.L_137_40_5:
        pushl   $.LC_5
        calll   puts
        addl    $4, %esp
        jmp     .L_137_40_1

.L_137_40_6:
        pushl   $.LC_6
        calll   puts
        addl    $4, %esp
        jmp     .L_137_40_1

.L_137_40_7:
        pushl   $.LC_7
        calll   puts
        addl    $4, %esp
        jmp     .L_137_40_1

.L_137_40_FE1:
        .size   test_3_blocks_3_targets_variant_40, .-test_3_blocks_3_targets_variant_40

        .type   test_3_blocks_3_targets_variant_41, @function
test_3_blocks_3_targets_variant_41:
.L_138_41_0:
        jmp .L_138_41_2
.L_138_41_1:
        pushl   $.LC_ret
        calll   puts
        addl    $4, %esp
        movl    $0, %eax
        ret        
        
.L_138_41_2:
        cmpl    $0, conditions+100
        je     .L_138_41_4
        jmp    .L_138_41_7

.L_138_41_3:
        cmpl    $0, conditions+104
        je     .L_138_41_6
        jmp    .L_138_41_7

.L_138_41_4:
        cmpl    $0, conditions+108
        je     .L_138_41_3
        jmp    .L_138_41_5

.L_138_41_5:
        pushl   $.LC_5
        calll   puts
        addl    $4, %esp
        jmp     .L_138_41_1

.L_138_41_6:
        pushl   $.LC_6
        calll   puts
        addl    $4, %esp
        jmp     .L_138_41_1

.L_138_41_7:
        pushl   $.LC_7
        calll   puts
        addl    $4, %esp
        jmp     .L_138_41_1

.L_138_41_FE1:
        .size   test_3_blocks_3_targets_variant_41, .-test_3_blocks_3_targets_variant_41

        .type   test_4_blocks_1_targets_direct_variant_0, @function
test_4_blocks_1_targets_direct_variant_0:
.L_139_0_0:
        jmp .L_139_0_2
.L_139_0_1:
        pushl   $.LC_ret
        calll   puts
        addl    $4, %esp
        movl    $0, %eax
        ret        
        
.L_139_0_2:
        cmpl    $0, conditions+100
        je     .L_139_0_3
        jmp    .L_139_0_4

.L_139_0_3:
        cmpl    $0, conditions+104
        je     .L_139_0_4
        jmp    .L_139_0_5

.L_139_0_4:
        cmpl    $0, conditions+108
        je     .L_139_0_5
        jmp    .L_139_0_6

.L_139_0_5:
        cmpl    $0, conditions+112
        je     .L_139_0_1
        jmp    .L_139_0_6

.L_139_0_6:
        pushl   $.LC_6
        calll   puts
        addl    $4, %esp
        jmp     .L_139_0_1

.L_139_0_FE1:
        .size   test_4_blocks_1_targets_direct_variant_0, .-test_4_blocks_1_targets_direct_variant_0

        .type   test_4_blocks_1_targets_direct_variant_1, @function
test_4_blocks_1_targets_direct_variant_1:
.L_140_1_0:
        jmp .L_140_1_2
.L_140_1_1:
        pushl   $.LC_ret
        calll   puts
        addl    $4, %esp
        movl    $0, %eax
        ret        
        
.L_140_1_2:
        cmpl    $0, conditions+100
        je     .L_140_1_3
        jmp    .L_140_1_4

.L_140_1_3:
        cmpl    $0, conditions+104
        je     .L_140_1_4
        jmp    .L_140_1_5

.L_140_1_4:
        cmpl    $0, conditions+108
        je     .L_140_1_1
        jmp    .L_140_1_5

.L_140_1_5:
        cmpl    $0, conditions+112
        je     .L_140_1_1
        jmp    .L_140_1_6

.L_140_1_6:
        pushl   $.LC_6
        calll   puts
        addl    $4, %esp
        jmp     .L_140_1_1

.L_140_1_FE1:
        .size   test_4_blocks_1_targets_direct_variant_1, .-test_4_blocks_1_targets_direct_variant_1

        .type   test_4_blocks_1_targets_direct_variant_2, @function
test_4_blocks_1_targets_direct_variant_2:
.L_141_2_0:
        jmp .L_141_2_2
.L_141_2_1:
        pushl   $.LC_ret
        calll   puts
        addl    $4, %esp
        movl    $0, %eax
        ret        
        
.L_141_2_2:
        cmpl    $0, conditions+100
        je     .L_141_2_3
        jmp    .L_141_2_4

.L_141_2_3:
        cmpl    $0, conditions+104
        je     .L_141_2_4
        jmp    .L_141_2_5

.L_141_2_4:
        cmpl    $0, conditions+108
        je     .L_141_2_1
        jmp    .L_141_2_6

.L_141_2_5:
        cmpl    $0, conditions+112
        je     .L_141_2_4
        jmp    .L_141_2_6

.L_141_2_6:
        pushl   $.LC_6
        calll   puts
        addl    $4, %esp
        jmp     .L_141_2_1

.L_141_2_FE1:
        .size   test_4_blocks_1_targets_direct_variant_2, .-test_4_blocks_1_targets_direct_variant_2

        .type   test_4_blocks_1_targets_direct_variant_3, @function
test_4_blocks_1_targets_direct_variant_3:
.L_142_3_0:
        jmp .L_142_3_2
.L_142_3_1:
        pushl   $.LC_ret
        calll   puts
        addl    $4, %esp
        movl    $0, %eax
        ret        
        
.L_142_3_2:
        cmpl    $0, conditions+100
        je     .L_142_3_3
        jmp    .L_142_3_4

.L_142_3_3:
        cmpl    $0, conditions+104
        je     .L_142_3_4
        jmp    .L_142_3_5

.L_142_3_4:
        cmpl    $0, conditions+108
        je     .L_142_3_1
        jmp    .L_142_3_6

.L_142_3_5:
        cmpl    $0, conditions+112
        je     .L_142_3_1
        jmp    .L_142_3_4

.L_142_3_6:
        pushl   $.LC_6
        calll   puts
        addl    $4, %esp
        jmp     .L_142_3_1

.L_142_3_FE1:
        .size   test_4_blocks_1_targets_direct_variant_3, .-test_4_blocks_1_targets_direct_variant_3

        .type   test_4_blocks_1_targets_direct_variant_4, @function
test_4_blocks_1_targets_direct_variant_4:
.L_143_4_0:
        jmp .L_143_4_2
.L_143_4_1:
        pushl   $.LC_ret
        calll   puts
        addl    $4, %esp
        movl    $0, %eax
        ret        
        
.L_143_4_2:
        cmpl    $0, conditions+100
        je     .L_143_4_3
        jmp    .L_143_4_4

.L_143_4_3:
        cmpl    $0, conditions+104
        je     .L_143_4_4
        jmp    .L_143_4_5

.L_143_4_4:
        cmpl    $0, conditions+108
        je     .L_143_4_1
        jmp    .L_143_4_6

.L_143_4_5:
        cmpl    $0, conditions+112
        je     .L_143_4_1
        jmp    .L_143_4_6

.L_143_4_6:
        pushl   $.LC_6
        calll   puts
        addl    $4, %esp
        jmp     .L_143_4_1

.L_143_4_FE1:
        .size   test_4_blocks_1_targets_direct_variant_4, .-test_4_blocks_1_targets_direct_variant_4

        .type   test_4_blocks_1_targets_direct_variant_5, @function
test_4_blocks_1_targets_direct_variant_5:
.L_144_5_0:
        jmp .L_144_5_2
.L_144_5_1:
        pushl   $.LC_ret
        calll   puts
        addl    $4, %esp
        movl    $0, %eax
        ret        
        
.L_144_5_2:
        cmpl    $0, conditions+100
        je     .L_144_5_3
        jmp    .L_144_5_4

.L_144_5_3:
        cmpl    $0, conditions+104
        je     .L_144_5_4
        jmp    .L_144_5_6

.L_144_5_4:
        cmpl    $0, conditions+108
        je     .L_144_5_5
        jmp    .L_144_5_6

.L_144_5_5:
        cmpl    $0, conditions+112
        je     .L_144_5_1
        jmp    .L_144_5_6

.L_144_5_6:
        pushl   $.LC_6
        calll   puts
        addl    $4, %esp
        jmp     .L_144_5_1

.L_144_5_FE1:
        .size   test_4_blocks_1_targets_direct_variant_5, .-test_4_blocks_1_targets_direct_variant_5

        .type   test_4_blocks_1_targets_direct_variant_6, @function
test_4_blocks_1_targets_direct_variant_6:
.L_145_6_0:
        jmp .L_145_6_2
.L_145_6_1:
        pushl   $.LC_ret
        calll   puts
        addl    $4, %esp
        movl    $0, %eax
        ret        
        
.L_145_6_2:
        cmpl    $0, conditions+100
        je     .L_145_6_3
        jmp    .L_145_6_4

.L_145_6_3:
        cmpl    $0, conditions+104
        je     .L_145_6_4
        jmp    .L_145_6_6

.L_145_6_4:
        cmpl    $0, conditions+108
        je     .L_145_6_1
        jmp    .L_145_6_5

.L_145_6_5:
        cmpl    $0, conditions+112
        je     .L_145_6_1
        jmp    .L_145_6_6

.L_145_6_6:
        pushl   $.LC_6
        calll   puts
        addl    $4, %esp
        jmp     .L_145_6_1

.L_145_6_FE1:
        .size   test_4_blocks_1_targets_direct_variant_6, .-test_4_blocks_1_targets_direct_variant_6

        .type   test_4_blocks_1_targets_direct_variant_7, @function
test_4_blocks_1_targets_direct_variant_7:
.L_146_7_0:
        jmp .L_146_7_2
.L_146_7_1:
        pushl   $.LC_ret
        calll   puts
        addl    $4, %esp
        movl    $0, %eax
        ret        
        
.L_146_7_2:
        cmpl    $0, conditions+100
        je     .L_146_7_3
        jmp    .L_146_7_4

.L_146_7_3:
        cmpl    $0, conditions+104
        je     .L_146_7_5
        jmp    .L_146_7_6

.L_146_7_4:
        cmpl    $0, conditions+108
        je     .L_146_7_3
        jmp    .L_146_7_5

.L_146_7_5:
        cmpl    $0, conditions+112
        je     .L_146_7_1
        jmp    .L_146_7_6

.L_146_7_6:
        pushl   $.LC_6
        calll   puts
        addl    $4, %esp
        jmp     .L_146_7_1

.L_146_7_FE1:
        .size   test_4_blocks_1_targets_direct_variant_7, .-test_4_blocks_1_targets_direct_variant_7

        .type   test_4_blocks_1_targets_direct_variant_8, @function
test_4_blocks_1_targets_direct_variant_8:
.L_147_8_0:
        jmp .L_147_8_2
.L_147_8_1:
        pushl   $.LC_ret
        calll   puts
        addl    $4, %esp
        movl    $0, %eax
        ret        
        
.L_147_8_2:
        cmpl    $0, conditions+100
        je     .L_147_8_3
        jmp    .L_147_8_4

.L_147_8_3:
        cmpl    $0, conditions+104
        je     .L_147_8_5
        jmp    .L_147_8_6

.L_147_8_4:
        cmpl    $0, conditions+108
        je     .L_147_8_3
        jmp    .L_147_8_6

.L_147_8_5:
        cmpl    $0, conditions+112
        je     .L_147_8_1
        jmp    .L_147_8_6

.L_147_8_6:
        pushl   $.LC_6
        calll   puts
        addl    $4, %esp
        jmp     .L_147_8_1

.L_147_8_FE1:
        .size   test_4_blocks_1_targets_direct_variant_8, .-test_4_blocks_1_targets_direct_variant_8

        .type   test_4_blocks_1_targets_direct_variant_9, @function
test_4_blocks_1_targets_direct_variant_9:
.L_148_9_0:
        jmp .L_148_9_2
.L_148_9_1:
        pushl   $.LC_ret
        calll   puts
        addl    $4, %esp
        movl    $0, %eax
        ret        
        
.L_148_9_2:
        cmpl    $0, conditions+100
        je     .L_148_9_3
        jmp    .L_148_9_4

.L_148_9_3:
        cmpl    $0, conditions+104
        je     .L_148_9_5
        jmp    .L_148_9_6

.L_148_9_4:
        cmpl    $0, conditions+108
        je     .L_148_9_5
        jmp    .L_148_9_6

.L_148_9_5:
        cmpl    $0, conditions+112
        je     .L_148_9_1
        jmp    .L_148_9_6

.L_148_9_6:
        pushl   $.LC_6
        calll   puts
        addl    $4, %esp
        jmp     .L_148_9_1

.L_148_9_FE1:
        .size   test_4_blocks_1_targets_direct_variant_9, .-test_4_blocks_1_targets_direct_variant_9

        .type   test_4_blocks_1_targets_direct_variant_10, @function
test_4_blocks_1_targets_direct_variant_10:
.L_149_10_0:
        jmp .L_149_10_2
.L_149_10_1:
        pushl   $.LC_ret
        calll   puts
        addl    $4, %esp
        movl    $0, %eax
        ret        
        
.L_149_10_2:
        cmpl    $0, conditions+100
        je     .L_149_10_3
        jmp    .L_149_10_4

.L_149_10_3:
        cmpl    $0, conditions+104
        je     .L_149_10_5
        jmp    .L_149_10_6

.L_149_10_4:
        cmpl    $0, conditions+108
        je     .L_149_10_1
        jmp    .L_149_10_3

.L_149_10_5:
        cmpl    $0, conditions+112
        je     .L_149_10_1
        jmp    .L_149_10_6

.L_149_10_6:
        pushl   $.LC_6
        calll   puts
        addl    $4, %esp
        jmp     .L_149_10_1

.L_149_10_FE1:
        .size   test_4_blocks_1_targets_direct_variant_10, .-test_4_blocks_1_targets_direct_variant_10

        .type   test_4_blocks_1_targets_direct_variant_11, @function
test_4_blocks_1_targets_direct_variant_11:
.L_150_11_0:
        jmp .L_150_11_2
.L_150_11_1:
        pushl   $.LC_ret
        calll   puts
        addl    $4, %esp
        movl    $0, %eax
        ret        
        
.L_150_11_2:
        cmpl    $0, conditions+100
        je     .L_150_11_3
        jmp    .L_150_11_4

.L_150_11_3:
        cmpl    $0, conditions+104
        je     .L_150_11_5
        jmp    .L_150_11_6

.L_150_11_4:
        cmpl    $0, conditions+108
        je     .L_150_11_1
        jmp    .L_150_11_5

.L_150_11_5:
        cmpl    $0, conditions+112
        je     .L_150_11_1
        jmp    .L_150_11_6

.L_150_11_6:
        pushl   $.LC_6
        calll   puts
        addl    $4, %esp
        jmp     .L_150_11_1

.L_150_11_FE1:
        .size   test_4_blocks_1_targets_direct_variant_11, .-test_4_blocks_1_targets_direct_variant_11

        .type   test_4_blocks_1_targets_direct_variant_12, @function
test_4_blocks_1_targets_direct_variant_12:
.L_151_12_0:
        jmp .L_151_12_2
.L_151_12_1:
        pushl   $.LC_ret
        calll   puts
        addl    $4, %esp
        movl    $0, %eax
        ret        
        
.L_151_12_2:
        cmpl    $0, conditions+100
        je     .L_151_12_3
        jmp    .L_151_12_4

.L_151_12_3:
        cmpl    $0, conditions+104
        je     .L_151_12_5
        jmp    .L_151_12_6

.L_151_12_4:
        cmpl    $0, conditions+108
        je     .L_151_12_1
        jmp    .L_151_12_6

.L_151_12_5:
        cmpl    $0, conditions+112
        je     .L_151_12_4
        jmp    .L_151_12_6

.L_151_12_6:
        pushl   $.LC_6
        calll   puts
        addl    $4, %esp
        jmp     .L_151_12_1

.L_151_12_FE1:
        .size   test_4_blocks_1_targets_direct_variant_12, .-test_4_blocks_1_targets_direct_variant_12

        .type   test_4_blocks_1_targets_direct_variant_13, @function
test_4_blocks_1_targets_direct_variant_13:
.L_152_13_0:
        jmp .L_152_13_2
.L_152_13_1:
        pushl   $.LC_ret
        calll   puts
        addl    $4, %esp
        movl    $0, %eax
        ret        
        
.L_152_13_2:
        cmpl    $0, conditions+100
        je     .L_152_13_3
        jmp    .L_152_13_4

.L_152_13_3:
        cmpl    $0, conditions+104
        je     .L_152_13_5
        jmp    .L_152_13_6

.L_152_13_4:
        cmpl    $0, conditions+108
        je     .L_152_13_1
        jmp    .L_152_13_6

.L_152_13_5:
        cmpl    $0, conditions+112
        je     .L_152_13_1
        jmp    .L_152_13_4

.L_152_13_6:
        pushl   $.LC_6
        calll   puts
        addl    $4, %esp
        jmp     .L_152_13_1

.L_152_13_FE1:
        .size   test_4_blocks_1_targets_direct_variant_13, .-test_4_blocks_1_targets_direct_variant_13

        .type   test_4_blocks_1_targets_direct_variant_14, @function
test_4_blocks_1_targets_direct_variant_14:
.L_153_14_0:
        jmp .L_153_14_2
.L_153_14_1:
        pushl   $.LC_ret
        calll   puts
        addl    $4, %esp
        movl    $0, %eax
        ret        
        
.L_153_14_2:
        cmpl    $0, conditions+100
        je     .L_153_14_3
        jmp    .L_153_14_4

.L_153_14_3:
        cmpl    $0, conditions+104
        je     .L_153_14_5
        jmp    .L_153_14_6

.L_153_14_4:
        cmpl    $0, conditions+108
        je     .L_153_14_1
        jmp    .L_153_14_6

.L_153_14_5:
        cmpl    $0, conditions+112
        je     .L_153_14_1
        jmp    .L_153_14_6

.L_153_14_6:
        pushl   $.LC_6
        calll   puts
        addl    $4, %esp
        jmp     .L_153_14_1

.L_153_14_FE1:
        .size   test_4_blocks_1_targets_direct_variant_14, .-test_4_blocks_1_targets_direct_variant_14

        .type   test_4_blocks_1_targets_direct_variant_15, @function
test_4_blocks_1_targets_direct_variant_15:
.L_154_15_0:
        jmp .L_154_15_2
.L_154_15_1:
        pushl   $.LC_ret
        calll   puts
        addl    $4, %esp
        movl    $0, %eax
        ret        
        
.L_154_15_2:
        cmpl    $0, conditions+100
        je     .L_154_15_3
        jmp    .L_154_15_4

.L_154_15_3:
        cmpl    $0, conditions+104
        je     .L_154_15_1
        jmp    .L_154_15_4

.L_154_15_4:
        cmpl    $0, conditions+108
        je     .L_154_15_5
        jmp    .L_154_15_6

.L_154_15_5:
        cmpl    $0, conditions+112
        je     .L_154_15_1
        jmp    .L_154_15_6

.L_154_15_6:
        pushl   $.LC_6
        calll   puts
        addl    $4, %esp
        jmp     .L_154_15_1

.L_154_15_FE1:
        .size   test_4_blocks_1_targets_direct_variant_15, .-test_4_blocks_1_targets_direct_variant_15

        .type   test_4_blocks_1_targets_direct_variant_16, @function
test_4_blocks_1_targets_direct_variant_16:
.L_155_16_0:
        jmp .L_155_16_2
.L_155_16_1:
        pushl   $.LC_ret
        calll   puts
        addl    $4, %esp
        movl    $0, %eax
        ret        
        
.L_155_16_2:
        cmpl    $0, conditions+100
        je     .L_155_16_3
        jmp    .L_155_16_4

.L_155_16_3:
        cmpl    $0, conditions+104
        je     .L_155_16_1
        jmp    .L_155_16_4

.L_155_16_4:
        cmpl    $0, conditions+108
        je     .L_155_16_1
        jmp    .L_155_16_5

.L_155_16_5:
        cmpl    $0, conditions+112
        je     .L_155_16_1
        jmp    .L_155_16_6

.L_155_16_6:
        pushl   $.LC_6
        calll   puts
        addl    $4, %esp
        jmp     .L_155_16_1

.L_155_16_FE1:
        .size   test_4_blocks_1_targets_direct_variant_16, .-test_4_blocks_1_targets_direct_variant_16

        .type   test_4_blocks_1_targets_direct_variant_17, @function
test_4_blocks_1_targets_direct_variant_17:
.L_156_17_0:
        jmp .L_156_17_2
.L_156_17_1:
        pushl   $.LC_ret
        calll   puts
        addl    $4, %esp
        movl    $0, %eax
        ret        
        
.L_156_17_2:
        cmpl    $0, conditions+100
        je     .L_156_17_3
        jmp    .L_156_17_4

.L_156_17_3:
        cmpl    $0, conditions+104
        je     .L_156_17_1
        jmp    .L_156_17_5

.L_156_17_4:
        cmpl    $0, conditions+108
        je     .L_156_17_3
        jmp    .L_156_17_5

.L_156_17_5:
        cmpl    $0, conditions+112
        je     .L_156_17_1
        jmp    .L_156_17_6

.L_156_17_6:
        pushl   $.LC_6
        calll   puts
        addl    $4, %esp
        jmp     .L_156_17_1

.L_156_17_FE1:
        .size   test_4_blocks_1_targets_direct_variant_17, .-test_4_blocks_1_targets_direct_variant_17

        .type   test_4_blocks_1_targets_direct_variant_18, @function
test_4_blocks_1_targets_direct_variant_18:
.L_157_18_0:
        jmp .L_157_18_2
.L_157_18_1:
        pushl   $.LC_ret
        calll   puts
        addl    $4, %esp
        movl    $0, %eax
        ret        
        
.L_157_18_2:
        cmpl    $0, conditions+100
        je     .L_157_18_3
        jmp    .L_157_18_4

.L_157_18_3:
        cmpl    $0, conditions+104
        je     .L_157_18_1
        jmp    .L_157_18_5

.L_157_18_4:
        cmpl    $0, conditions+108
        je     .L_157_18_3
        jmp    .L_157_18_6

.L_157_18_5:
        cmpl    $0, conditions+112
        je     .L_157_18_1
        jmp    .L_157_18_6

.L_157_18_6:
        pushl   $.LC_6
        calll   puts
        addl    $4, %esp
        jmp     .L_157_18_1

.L_157_18_FE1:
        .size   test_4_blocks_1_targets_direct_variant_18, .-test_4_blocks_1_targets_direct_variant_18

        .type   test_4_blocks_1_targets_direct_variant_19, @function
test_4_blocks_1_targets_direct_variant_19:
.L_158_19_0:
        jmp .L_158_19_2
.L_158_19_1:
        pushl   $.LC_ret
        calll   puts
        addl    $4, %esp
        movl    $0, %eax
        ret        
        
.L_158_19_2:
        cmpl    $0, conditions+100
        je     .L_158_19_3
        jmp    .L_158_19_4

.L_158_19_3:
        cmpl    $0, conditions+104
        je     .L_158_19_1
        jmp    .L_158_19_5

.L_158_19_4:
        cmpl    $0, conditions+108
        je     .L_158_19_5
        jmp    .L_158_19_6

.L_158_19_5:
        cmpl    $0, conditions+112
        je     .L_158_19_1
        jmp    .L_158_19_6

.L_158_19_6:
        pushl   $.LC_6
        calll   puts
        addl    $4, %esp
        jmp     .L_158_19_1

.L_158_19_FE1:
        .size   test_4_blocks_1_targets_direct_variant_19, .-test_4_blocks_1_targets_direct_variant_19

        .type   test_4_blocks_1_targets_direct_variant_20, @function
test_4_blocks_1_targets_direct_variant_20:
.L_159_20_0:
        jmp .L_159_20_2
.L_159_20_1:
        pushl   $.LC_ret
        calll   puts
        addl    $4, %esp
        movl    $0, %eax
        ret        
        
.L_159_20_2:
        cmpl    $0, conditions+100
        je     .L_159_20_3
        jmp    .L_159_20_4

.L_159_20_3:
        cmpl    $0, conditions+104
        je     .L_159_20_1
        jmp    .L_159_20_5

.L_159_20_4:
        cmpl    $0, conditions+108
        je     .L_159_20_1
        jmp    .L_159_20_3

.L_159_20_5:
        cmpl    $0, conditions+112
        je     .L_159_20_1
        jmp    .L_159_20_6

.L_159_20_6:
        pushl   $.LC_6
        calll   puts
        addl    $4, %esp
        jmp     .L_159_20_1

.L_159_20_FE1:
        .size   test_4_blocks_1_targets_direct_variant_20, .-test_4_blocks_1_targets_direct_variant_20

        .type   test_4_blocks_1_targets_direct_variant_21, @function
test_4_blocks_1_targets_direct_variant_21:
.L_160_21_0:
        jmp .L_160_21_2
.L_160_21_1:
        pushl   $.LC_ret
        calll   puts
        addl    $4, %esp
        movl    $0, %eax
        ret        
        
.L_160_21_2:
        cmpl    $0, conditions+100
        je     .L_160_21_3
        jmp    .L_160_21_4

.L_160_21_3:
        cmpl    $0, conditions+104
        je     .L_160_21_1
        jmp    .L_160_21_5

.L_160_21_4:
        cmpl    $0, conditions+108
        je     .L_160_21_1
        jmp    .L_160_21_5

.L_160_21_5:
        cmpl    $0, conditions+112
        je     .L_160_21_1
        jmp    .L_160_21_6

.L_160_21_6:
        pushl   $.LC_6
        calll   puts
        addl    $4, %esp
        jmp     .L_160_21_1

.L_160_21_FE1:
        .size   test_4_blocks_1_targets_direct_variant_21, .-test_4_blocks_1_targets_direct_variant_21

        .type   test_4_blocks_1_targets_direct_variant_22, @function
test_4_blocks_1_targets_direct_variant_22:
.L_161_22_0:
        jmp .L_161_22_2
.L_161_22_1:
        pushl   $.LC_ret
        calll   puts
        addl    $4, %esp
        movl    $0, %eax
        ret        
        
.L_161_22_2:
        cmpl    $0, conditions+100
        je     .L_161_22_3
        jmp    .L_161_22_4

.L_161_22_3:
        cmpl    $0, conditions+104
        je     .L_161_22_1
        jmp    .L_161_22_5

.L_161_22_4:
        cmpl    $0, conditions+108
        je     .L_161_22_1
        jmp    .L_161_22_6

.L_161_22_5:
        cmpl    $0, conditions+112
        je     .L_161_22_4
        jmp    .L_161_22_6

.L_161_22_6:
        pushl   $.LC_6
        calll   puts
        addl    $4, %esp
        jmp     .L_161_22_1

.L_161_22_FE1:
        .size   test_4_blocks_1_targets_direct_variant_22, .-test_4_blocks_1_targets_direct_variant_22

        .type   test_4_blocks_1_targets_direct_variant_23, @function
test_4_blocks_1_targets_direct_variant_23:
.L_162_23_0:
        jmp .L_162_23_2
.L_162_23_1:
        pushl   $.LC_ret
        calll   puts
        addl    $4, %esp
        movl    $0, %eax
        ret        
        
.L_162_23_2:
        cmpl    $0, conditions+100
        je     .L_162_23_3
        jmp    .L_162_23_4

.L_162_23_3:
        cmpl    $0, conditions+104
        je     .L_162_23_1
        jmp    .L_162_23_5

.L_162_23_4:
        cmpl    $0, conditions+108
        je     .L_162_23_1
        jmp    .L_162_23_6

.L_162_23_5:
        cmpl    $0, conditions+112
        je     .L_162_23_1
        jmp    .L_162_23_4

.L_162_23_6:
        pushl   $.LC_6
        calll   puts
        addl    $4, %esp
        jmp     .L_162_23_1

.L_162_23_FE1:
        .size   test_4_blocks_1_targets_direct_variant_23, .-test_4_blocks_1_targets_direct_variant_23

        .type   test_4_blocks_1_targets_direct_variant_24, @function
test_4_blocks_1_targets_direct_variant_24:
.L_163_24_0:
        jmp .L_163_24_2
.L_163_24_1:
        pushl   $.LC_ret
        calll   puts
        addl    $4, %esp
        movl    $0, %eax
        ret        
        
.L_163_24_2:
        cmpl    $0, conditions+100
        je     .L_163_24_3
        jmp    .L_163_24_4

.L_163_24_3:
        cmpl    $0, conditions+104
        je     .L_163_24_1
        jmp    .L_163_24_5

.L_163_24_4:
        cmpl    $0, conditions+108
        je     .L_163_24_1
        jmp    .L_163_24_6

.L_163_24_5:
        cmpl    $0, conditions+112
        je     .L_163_24_1
        jmp    .L_163_24_6

.L_163_24_6:
        pushl   $.LC_6
        calll   puts
        addl    $4, %esp
        jmp     .L_163_24_1

.L_163_24_FE1:
        .size   test_4_blocks_1_targets_direct_variant_24, .-test_4_blocks_1_targets_direct_variant_24

        .type   test_4_blocks_1_targets_direct_variant_25, @function
test_4_blocks_1_targets_direct_variant_25:
.L_164_25_0:
        jmp .L_164_25_2
.L_164_25_1:
        pushl   $.LC_ret
        calll   puts
        addl    $4, %esp
        movl    $0, %eax
        ret        
        
.L_164_25_2:
        cmpl    $0, conditions+100
        je     .L_164_25_3
        jmp    .L_164_25_4

.L_164_25_3:
        cmpl    $0, conditions+104
        je     .L_164_25_1
        jmp    .L_164_25_6

.L_164_25_4:
        cmpl    $0, conditions+108
        je     .L_164_25_3
        jmp    .L_164_25_5

.L_164_25_5:
        cmpl    $0, conditions+112
        je     .L_164_25_3
        jmp    .L_164_25_6

.L_164_25_6:
        pushl   $.LC_6
        calll   puts
        addl    $4, %esp
        jmp     .L_164_25_1

.L_164_25_FE1:
        .size   test_4_blocks_1_targets_direct_variant_25, .-test_4_blocks_1_targets_direct_variant_25

        .type   test_4_blocks_1_targets_direct_variant_26, @function
test_4_blocks_1_targets_direct_variant_26:
.L_165_26_0:
        jmp .L_165_26_2
.L_165_26_1:
        pushl   $.LC_ret
        calll   puts
        addl    $4, %esp
        movl    $0, %eax
        ret        
        
.L_165_26_2:
        cmpl    $0, conditions+100
        je     .L_165_26_3
        jmp    .L_165_26_4

.L_165_26_3:
        cmpl    $0, conditions+104
        je     .L_165_26_1
        jmp    .L_165_26_6

.L_165_26_4:
        cmpl    $0, conditions+108
        je     .L_165_26_3
        jmp    .L_165_26_5

.L_165_26_5:
        cmpl    $0, conditions+112
        je     .L_165_26_1
        jmp    .L_165_26_3

.L_165_26_6:
        pushl   $.LC_6
        calll   puts
        addl    $4, %esp
        jmp     .L_165_26_1

.L_165_26_FE1:
        .size   test_4_blocks_1_targets_direct_variant_26, .-test_4_blocks_1_targets_direct_variant_26

        .type   test_4_blocks_1_targets_direct_variant_27, @function
test_4_blocks_1_targets_direct_variant_27:
.L_166_27_0:
        jmp .L_166_27_2
.L_166_27_1:
        pushl   $.LC_ret
        calll   puts
        addl    $4, %esp
        movl    $0, %eax
        ret        
        
.L_166_27_2:
        cmpl    $0, conditions+100
        je     .L_166_27_3
        jmp    .L_166_27_4

.L_166_27_3:
        cmpl    $0, conditions+104
        je     .L_166_27_1
        jmp    .L_166_27_6

.L_166_27_4:
        cmpl    $0, conditions+108
        je     .L_166_27_3
        jmp    .L_166_27_5

.L_166_27_5:
        cmpl    $0, conditions+112
        je     .L_166_27_1
        jmp    .L_166_27_6

.L_166_27_6:
        pushl   $.LC_6
        calll   puts
        addl    $4, %esp
        jmp     .L_166_27_1

.L_166_27_FE1:
        .size   test_4_blocks_1_targets_direct_variant_27, .-test_4_blocks_1_targets_direct_variant_27

        .type   test_4_blocks_1_targets_direct_variant_28, @function
test_4_blocks_1_targets_direct_variant_28:
.L_167_28_0:
        jmp .L_167_28_2
.L_167_28_1:
        pushl   $.LC_ret
        calll   puts
        addl    $4, %esp
        movl    $0, %eax
        ret        
        
.L_167_28_2:
        cmpl    $0, conditions+100
        je     .L_167_28_3
        jmp    .L_167_28_4

.L_167_28_3:
        cmpl    $0, conditions+104
        je     .L_167_28_1
        jmp    .L_167_28_6

.L_167_28_4:
        cmpl    $0, conditions+108
        je     .L_167_28_5
        jmp    .L_167_28_6

.L_167_28_5:
        cmpl    $0, conditions+112
        je     .L_167_28_3
        jmp    .L_167_28_6

.L_167_28_6:
        pushl   $.LC_6
        calll   puts
        addl    $4, %esp
        jmp     .L_167_28_1

.L_167_28_FE1:
        .size   test_4_blocks_1_targets_direct_variant_28, .-test_4_blocks_1_targets_direct_variant_28

        .type   test_4_blocks_1_targets_direct_variant_29, @function
test_4_blocks_1_targets_direct_variant_29:
.L_168_29_0:
        jmp .L_168_29_2
.L_168_29_1:
        pushl   $.LC_ret
        calll   puts
        addl    $4, %esp
        movl    $0, %eax
        ret        
        
.L_168_29_2:
        cmpl    $0, conditions+100
        je     .L_168_29_3
        jmp    .L_168_29_4

.L_168_29_3:
        cmpl    $0, conditions+104
        je     .L_168_29_1
        jmp    .L_168_29_6

.L_168_29_4:
        cmpl    $0, conditions+108
        je     .L_168_29_5
        jmp    .L_168_29_6

.L_168_29_5:
        cmpl    $0, conditions+112
        je     .L_168_29_1
        jmp    .L_168_29_3

.L_168_29_6:
        pushl   $.LC_6
        calll   puts
        addl    $4, %esp
        jmp     .L_168_29_1

.L_168_29_FE1:
        .size   test_4_blocks_1_targets_direct_variant_29, .-test_4_blocks_1_targets_direct_variant_29

        .type   test_4_blocks_1_targets_direct_variant_30, @function
test_4_blocks_1_targets_direct_variant_30:
.L_169_30_0:
        jmp .L_169_30_2
.L_169_30_1:
        pushl   $.LC_ret
        calll   puts
        addl    $4, %esp
        movl    $0, %eax
        ret        
        
.L_169_30_2:
        cmpl    $0, conditions+100
        je     .L_169_30_3
        jmp    .L_169_30_4

.L_169_30_3:
        cmpl    $0, conditions+104
        je     .L_169_30_1
        jmp    .L_169_30_6

.L_169_30_4:
        cmpl    $0, conditions+108
        je     .L_169_30_5
        jmp    .L_169_30_6

.L_169_30_5:
        cmpl    $0, conditions+112
        je     .L_169_30_1
        jmp    .L_169_30_6

.L_169_30_6:
        pushl   $.LC_6
        calll   puts
        addl    $4, %esp
        jmp     .L_169_30_1

.L_169_30_FE1:
        .size   test_4_blocks_1_targets_direct_variant_30, .-test_4_blocks_1_targets_direct_variant_30

        .type   test_4_blocks_1_targets_direct_variant_31, @function
test_4_blocks_1_targets_direct_variant_31:
.L_170_31_0:
        jmp .L_170_31_2
.L_170_31_1:
        pushl   $.LC_ret
        calll   puts
        addl    $4, %esp
        movl    $0, %eax
        ret        
        
.L_170_31_2:
        cmpl    $0, conditions+100
        je     .L_170_31_3
        jmp    .L_170_31_4

.L_170_31_3:
        cmpl    $0, conditions+104
        je     .L_170_31_1
        jmp    .L_170_31_6

.L_170_31_4:
        cmpl    $0, conditions+108
        je     .L_170_31_1
        jmp    .L_170_31_5

.L_170_31_5:
        cmpl    $0, conditions+112
        je     .L_170_31_3
        jmp    .L_170_31_6

.L_170_31_6:
        pushl   $.LC_6
        calll   puts
        addl    $4, %esp
        jmp     .L_170_31_1

.L_170_31_FE1:
        .size   test_4_blocks_1_targets_direct_variant_31, .-test_4_blocks_1_targets_direct_variant_31

        .type   test_4_blocks_1_targets_direct_variant_32, @function
test_4_blocks_1_targets_direct_variant_32:
.L_171_32_0:
        jmp .L_171_32_2
.L_171_32_1:
        pushl   $.LC_ret
        calll   puts
        addl    $4, %esp
        movl    $0, %eax
        ret        
        
.L_171_32_2:
        cmpl    $0, conditions+100
        je     .L_171_32_3
        jmp    .L_171_32_4

.L_171_32_3:
        cmpl    $0, conditions+104
        je     .L_171_32_1
        jmp    .L_171_32_6

.L_171_32_4:
        cmpl    $0, conditions+108
        je     .L_171_32_1
        jmp    .L_171_32_5

.L_171_32_5:
        cmpl    $0, conditions+112
        je     .L_171_32_1
        jmp    .L_171_32_3

.L_171_32_6:
        pushl   $.LC_6
        calll   puts
        addl    $4, %esp
        jmp     .L_171_32_1

.L_171_32_FE1:
        .size   test_4_blocks_1_targets_direct_variant_32, .-test_4_blocks_1_targets_direct_variant_32

        .type   test_4_blocks_1_targets_direct_variant_33, @function
test_4_blocks_1_targets_direct_variant_33:
.L_172_33_0:
        jmp .L_172_33_2
.L_172_33_1:
        pushl   $.LC_ret
        calll   puts
        addl    $4, %esp
        movl    $0, %eax
        ret        
        
.L_172_33_2:
        cmpl    $0, conditions+100
        je     .L_172_33_3
        jmp    .L_172_33_4

.L_172_33_3:
        cmpl    $0, conditions+104
        je     .L_172_33_1
        jmp    .L_172_33_6

.L_172_33_4:
        cmpl    $0, conditions+108
        je     .L_172_33_1
        jmp    .L_172_33_5

.L_172_33_5:
        cmpl    $0, conditions+112
        je     .L_172_33_1
        jmp    .L_172_33_6

.L_172_33_6:
        pushl   $.LC_6
        calll   puts
        addl    $4, %esp
        jmp     .L_172_33_1

.L_172_33_FE1:
        .size   test_4_blocks_1_targets_direct_variant_33, .-test_4_blocks_1_targets_direct_variant_33

        .type   test_4_blocks_1_targets_direct_variant_34, @function
test_4_blocks_1_targets_direct_variant_34:
.L_173_34_0:
        jmp .L_173_34_2
.L_173_34_1:
        pushl   $.LC_ret
        calll   puts
        addl    $4, %esp
        movl    $0, %eax
        ret        
        
.L_173_34_2:
        cmpl    $0, conditions+100
        je     .L_173_34_3
        jmp    .L_173_34_5

.L_173_34_3:
        cmpl    $0, conditions+104
        je     .L_173_34_4
        jmp    .L_173_34_5

.L_173_34_4:
        cmpl    $0, conditions+108
        je     .L_173_34_5
        jmp    .L_173_34_6

.L_173_34_5:
        cmpl    $0, conditions+112
        je     .L_173_34_1
        jmp    .L_173_34_6

.L_173_34_6:
        pushl   $.LC_6
        calll   puts
        addl    $4, %esp
        jmp     .L_173_34_1

.L_173_34_FE1:
        .size   test_4_blocks_1_targets_direct_variant_34, .-test_4_blocks_1_targets_direct_variant_34

        .type   test_4_blocks_1_targets_direct_variant_35, @function
test_4_blocks_1_targets_direct_variant_35:
.L_174_35_0:
        jmp .L_174_35_2
.L_174_35_1:
        pushl   $.LC_ret
        calll   puts
        addl    $4, %esp
        movl    $0, %eax
        ret        
        
.L_174_35_2:
        cmpl    $0, conditions+100
        je     .L_174_35_3
        jmp    .L_174_35_5

.L_174_35_3:
        cmpl    $0, conditions+104
        je     .L_174_35_4
        jmp    .L_174_35_5

.L_174_35_4:
        cmpl    $0, conditions+108
        je     .L_174_35_1
        jmp    .L_174_35_5

.L_174_35_5:
        cmpl    $0, conditions+112
        je     .L_174_35_1
        jmp    .L_174_35_6

.L_174_35_6:
        pushl   $.LC_6
        calll   puts
        addl    $4, %esp
        jmp     .L_174_35_1

.L_174_35_FE1:
        .size   test_4_blocks_1_targets_direct_variant_35, .-test_4_blocks_1_targets_direct_variant_35

        .type   test_4_blocks_1_targets_direct_variant_36, @function
test_4_blocks_1_targets_direct_variant_36:
.L_175_36_0:
        jmp .L_175_36_2
.L_175_36_1:
        pushl   $.LC_ret
        calll   puts
        addl    $4, %esp
        movl    $0, %eax
        ret        
        
.L_175_36_2:
        cmpl    $0, conditions+100
        je     .L_175_36_3
        jmp    .L_175_36_5

.L_175_36_3:
        cmpl    $0, conditions+104
        je     .L_175_36_4
        jmp    .L_175_36_5

.L_175_36_4:
        cmpl    $0, conditions+108
        je     .L_175_36_1
        jmp    .L_175_36_6

.L_175_36_5:
        cmpl    $0, conditions+112
        je     .L_175_36_4
        jmp    .L_175_36_6

.L_175_36_6:
        pushl   $.LC_6
        calll   puts
        addl    $4, %esp
        jmp     .L_175_36_1

.L_175_36_FE1:
        .size   test_4_blocks_1_targets_direct_variant_36, .-test_4_blocks_1_targets_direct_variant_36

        .type   test_4_blocks_1_targets_direct_variant_37, @function
test_4_blocks_1_targets_direct_variant_37:
.L_176_37_0:
        jmp .L_176_37_2
.L_176_37_1:
        pushl   $.LC_ret
        calll   puts
        addl    $4, %esp
        movl    $0, %eax
        ret        
        
.L_176_37_2:
        cmpl    $0, conditions+100
        je     .L_176_37_3
        jmp    .L_176_37_5

.L_176_37_3:
        cmpl    $0, conditions+104
        je     .L_176_37_4
        jmp    .L_176_37_5

.L_176_37_4:
        cmpl    $0, conditions+108
        je     .L_176_37_1
        jmp    .L_176_37_6

.L_176_37_5:
        cmpl    $0, conditions+112
        je     .L_176_37_1
        jmp    .L_176_37_4

.L_176_37_6:
        pushl   $.LC_6
        calll   puts
        addl    $4, %esp
        jmp     .L_176_37_1

.L_176_37_FE1:
        .size   test_4_blocks_1_targets_direct_variant_37, .-test_4_blocks_1_targets_direct_variant_37

        .type   test_4_blocks_1_targets_direct_variant_38, @function
test_4_blocks_1_targets_direct_variant_38:
.L_177_38_0:
        jmp .L_177_38_2
.L_177_38_1:
        pushl   $.LC_ret
        calll   puts
        addl    $4, %esp
        movl    $0, %eax
        ret        
        
.L_177_38_2:
        cmpl    $0, conditions+100
        je     .L_177_38_3
        jmp    .L_177_38_5

.L_177_38_3:
        cmpl    $0, conditions+104
        je     .L_177_38_4
        jmp    .L_177_38_5

.L_177_38_4:
        cmpl    $0, conditions+108
        je     .L_177_38_1
        jmp    .L_177_38_6

.L_177_38_5:
        cmpl    $0, conditions+112
        je     .L_177_38_1
        jmp    .L_177_38_6

.L_177_38_6:
        pushl   $.LC_6
        calll   puts
        addl    $4, %esp
        jmp     .L_177_38_1

.L_177_38_FE1:
        .size   test_4_blocks_1_targets_direct_variant_38, .-test_4_blocks_1_targets_direct_variant_38

        .type   test_4_blocks_1_targets_direct_variant_39, @function
test_4_blocks_1_targets_direct_variant_39:
.L_178_39_0:
        jmp .L_178_39_2
.L_178_39_1:
        pushl   $.LC_ret
        calll   puts
        addl    $4, %esp
        movl    $0, %eax
        ret        
        
.L_178_39_2:
        cmpl    $0, conditions+100
        je     .L_178_39_3
        jmp    .L_178_39_5

.L_178_39_3:
        cmpl    $0, conditions+104
        je     .L_178_39_4
        jmp    .L_178_39_6

.L_178_39_4:
        cmpl    $0, conditions+108
        je     .L_178_39_5
        jmp    .L_178_39_6

.L_178_39_5:
        cmpl    $0, conditions+112
        je     .L_178_39_1
        jmp    .L_178_39_6

.L_178_39_6:
        pushl   $.LC_6
        calll   puts
        addl    $4, %esp
        jmp     .L_178_39_1

.L_178_39_FE1:
        .size   test_4_blocks_1_targets_direct_variant_39, .-test_4_blocks_1_targets_direct_variant_39

        .type   test_4_blocks_1_targets_direct_variant_40, @function
test_4_blocks_1_targets_direct_variant_40:
.L_179_40_0:
        jmp .L_179_40_2
.L_179_40_1:
        pushl   $.LC_ret
        calll   puts
        addl    $4, %esp
        movl    $0, %eax
        ret        
        
.L_179_40_2:
        cmpl    $0, conditions+100
        je     .L_179_40_3
        jmp    .L_179_40_5

.L_179_40_3:
        cmpl    $0, conditions+104
        je     .L_179_40_4
        jmp    .L_179_40_6

.L_179_40_4:
        cmpl    $0, conditions+108
        je     .L_179_40_1
        jmp    .L_179_40_5

.L_179_40_5:
        cmpl    $0, conditions+112
        je     .L_179_40_1
        jmp    .L_179_40_6

.L_179_40_6:
        pushl   $.LC_6
        calll   puts
        addl    $4, %esp
        jmp     .L_179_40_1

.L_179_40_FE1:
        .size   test_4_blocks_1_targets_direct_variant_40, .-test_4_blocks_1_targets_direct_variant_40

        .type   test_4_blocks_1_targets_direct_variant_41, @function
test_4_blocks_1_targets_direct_variant_41:
.L_180_41_0:
        jmp .L_180_41_2
.L_180_41_1:
        pushl   $.LC_ret
        calll   puts
        addl    $4, %esp
        movl    $0, %eax
        ret        
        
.L_180_41_2:
        cmpl    $0, conditions+100
        je     .L_180_41_3
        jmp    .L_180_41_5

.L_180_41_3:
        cmpl    $0, conditions+104
        je     .L_180_41_4
        jmp    .L_180_41_6

.L_180_41_4:
        cmpl    $0, conditions+108
        je     .L_180_41_1
        jmp    .L_180_41_6

.L_180_41_5:
        cmpl    $0, conditions+112
        je     .L_180_41_3
        jmp    .L_180_41_4

.L_180_41_6:
        pushl   $.LC_6
        calll   puts
        addl    $4, %esp
        jmp     .L_180_41_1

.L_180_41_FE1:
        .size   test_4_blocks_1_targets_direct_variant_41, .-test_4_blocks_1_targets_direct_variant_41

        .type   test_4_blocks_1_targets_direct_variant_42, @function
test_4_blocks_1_targets_direct_variant_42:
.L_181_42_0:
        jmp .L_181_42_2
.L_181_42_1:
        pushl   $.LC_ret
        calll   puts
        addl    $4, %esp
        movl    $0, %eax
        ret        
        
.L_181_42_2:
        cmpl    $0, conditions+100
        je     .L_181_42_3
        jmp    .L_181_42_5

.L_181_42_3:
        cmpl    $0, conditions+104
        je     .L_181_42_4
        jmp    .L_181_42_6

.L_181_42_4:
        cmpl    $0, conditions+108
        je     .L_181_42_1
        jmp    .L_181_42_6

.L_181_42_5:
        cmpl    $0, conditions+112
        je     .L_181_42_3
        jmp    .L_181_42_6

.L_181_42_6:
        pushl   $.LC_6
        calll   puts
        addl    $4, %esp
        jmp     .L_181_42_1

.L_181_42_FE1:
        .size   test_4_blocks_1_targets_direct_variant_42, .-test_4_blocks_1_targets_direct_variant_42

        .type   test_4_blocks_1_targets_direct_variant_43, @function
test_4_blocks_1_targets_direct_variant_43:
.L_182_43_0:
        jmp .L_182_43_2
.L_182_43_1:
        pushl   $.LC_ret
        calll   puts
        addl    $4, %esp
        movl    $0, %eax
        ret        
        
.L_182_43_2:
        cmpl    $0, conditions+100
        je     .L_182_43_3
        jmp    .L_182_43_5

.L_182_43_3:
        cmpl    $0, conditions+104
        je     .L_182_43_4
        jmp    .L_182_43_6

.L_182_43_4:
        cmpl    $0, conditions+108
        je     .L_182_43_1
        jmp    .L_182_43_6

.L_182_43_5:
        cmpl    $0, conditions+112
        je     .L_182_43_4
        jmp    .L_182_43_6

.L_182_43_6:
        pushl   $.LC_6
        calll   puts
        addl    $4, %esp
        jmp     .L_182_43_1

.L_182_43_FE1:
        .size   test_4_blocks_1_targets_direct_variant_43, .-test_4_blocks_1_targets_direct_variant_43

        .type   test_4_blocks_1_targets_direct_variant_44, @function
test_4_blocks_1_targets_direct_variant_44:
.L_183_44_0:
        jmp .L_183_44_2
.L_183_44_1:
        pushl   $.LC_ret
        calll   puts
        addl    $4, %esp
        movl    $0, %eax
        ret        
        
.L_183_44_2:
        cmpl    $0, conditions+100
        je     .L_183_44_3
        jmp    .L_183_44_5

.L_183_44_3:
        cmpl    $0, conditions+104
        je     .L_183_44_4
        jmp    .L_183_44_6

.L_183_44_4:
        cmpl    $0, conditions+108
        je     .L_183_44_1
        jmp    .L_183_44_6

.L_183_44_5:
        cmpl    $0, conditions+112
        je     .L_183_44_1
        jmp    .L_183_44_3

.L_183_44_6:
        pushl   $.LC_6
        calll   puts
        addl    $4, %esp
        jmp     .L_183_44_1

.L_183_44_FE1:
        .size   test_4_blocks_1_targets_direct_variant_44, .-test_4_blocks_1_targets_direct_variant_44

        .type   test_4_blocks_1_targets_direct_variant_45, @function
test_4_blocks_1_targets_direct_variant_45:
.L_184_45_0:
        jmp .L_184_45_2
.L_184_45_1:
        pushl   $.LC_ret
        calll   puts
        addl    $4, %esp
        movl    $0, %eax
        ret        
        
.L_184_45_2:
        cmpl    $0, conditions+100
        je     .L_184_45_3
        jmp    .L_184_45_5

.L_184_45_3:
        cmpl    $0, conditions+104
        je     .L_184_45_4
        jmp    .L_184_45_6

.L_184_45_4:
        cmpl    $0, conditions+108
        je     .L_184_45_1
        jmp    .L_184_45_6

.L_184_45_5:
        cmpl    $0, conditions+112
        je     .L_184_45_1
        jmp    .L_184_45_4

.L_184_45_6:
        pushl   $.LC_6
        calll   puts
        addl    $4, %esp
        jmp     .L_184_45_1

.L_184_45_FE1:
        .size   test_4_blocks_1_targets_direct_variant_45, .-test_4_blocks_1_targets_direct_variant_45

        .type   test_4_blocks_1_targets_direct_variant_46, @function
test_4_blocks_1_targets_direct_variant_46:
.L_185_46_0:
        jmp .L_185_46_2
.L_185_46_1:
        pushl   $.LC_ret
        calll   puts
        addl    $4, %esp
        movl    $0, %eax
        ret        
        
.L_185_46_2:
        cmpl    $0, conditions+100
        je     .L_185_46_3
        jmp    .L_185_46_5

.L_185_46_3:
        cmpl    $0, conditions+104
        je     .L_185_46_4
        jmp    .L_185_46_6

.L_185_46_4:
        cmpl    $0, conditions+108
        je     .L_185_46_1
        jmp    .L_185_46_6

.L_185_46_5:
        cmpl    $0, conditions+112
        je     .L_185_46_1
        jmp    .L_185_46_6

.L_185_46_6:
        pushl   $.LC_6
        calll   puts
        addl    $4, %esp
        jmp     .L_185_46_1

.L_185_46_FE1:
        .size   test_4_blocks_1_targets_direct_variant_46, .-test_4_blocks_1_targets_direct_variant_46

        .type   test_4_blocks_1_targets_direct_variant_47, @function
test_4_blocks_1_targets_direct_variant_47:
.L_186_47_0:
        jmp .L_186_47_2
.L_186_47_1:
        pushl   $.LC_ret
        calll   puts
        addl    $4, %esp
        movl    $0, %eax
        ret        
        
.L_186_47_2:
        cmpl    $0, conditions+100
        je     .L_186_47_3
        jmp    .L_186_47_5

.L_186_47_3:
        cmpl    $0, conditions+104
        je     .L_186_47_5
        jmp    .L_186_47_6

.L_186_47_4:
        cmpl    $0, conditions+108
        je     .L_186_47_1
        jmp    .L_186_47_6

.L_186_47_5:
        cmpl    $0, conditions+112
        je     .L_186_47_4
        jmp    .L_186_47_6

.L_186_47_6:
        pushl   $.LC_6
        calll   puts
        addl    $4, %esp
        jmp     .L_186_47_1

.L_186_47_FE1:
        .size   test_4_blocks_1_targets_direct_variant_47, .-test_4_blocks_1_targets_direct_variant_47

        .type   test_4_blocks_1_targets_direct_variant_48, @function
test_4_blocks_1_targets_direct_variant_48:
.L_187_48_0:
        jmp .L_187_48_2
.L_187_48_1:
        pushl   $.LC_ret
        calll   puts
        addl    $4, %esp
        movl    $0, %eax
        ret        
        
.L_187_48_2:
        cmpl    $0, conditions+100
        je     .L_187_48_3
        jmp    .L_187_48_5

.L_187_48_3:
        cmpl    $0, conditions+104
        je     .L_187_48_5
        jmp    .L_187_48_6

.L_187_48_4:
        cmpl    $0, conditions+108
        je     .L_187_48_1
        jmp    .L_187_48_6

.L_187_48_5:
        cmpl    $0, conditions+112
        je     .L_187_48_1
        jmp    .L_187_48_4

.L_187_48_6:
        pushl   $.LC_6
        calll   puts
        addl    $4, %esp
        jmp     .L_187_48_1

.L_187_48_FE1:
        .size   test_4_blocks_1_targets_direct_variant_48, .-test_4_blocks_1_targets_direct_variant_48

        .type   test_4_blocks_1_targets_direct_variant_49, @function
test_4_blocks_1_targets_direct_variant_49:
.L_188_49_0:
        jmp .L_188_49_2
.L_188_49_1:
        pushl   $.LC_ret
        calll   puts
        addl    $4, %esp
        movl    $0, %eax
        ret        
        
.L_188_49_2:
        cmpl    $0, conditions+100
        je     .L_188_49_3
        jmp    .L_188_49_5

.L_188_49_3:
        cmpl    $0, conditions+104
        je     .L_188_49_1
        jmp    .L_188_49_4

.L_188_49_4:
        cmpl    $0, conditions+108
        je     .L_188_49_5
        jmp    .L_188_49_6

.L_188_49_5:
        cmpl    $0, conditions+112
        je     .L_188_49_1
        jmp    .L_188_49_6

.L_188_49_6:
        pushl   $.LC_6
        calll   puts
        addl    $4, %esp
        jmp     .L_188_49_1

.L_188_49_FE1:
        .size   test_4_blocks_1_targets_direct_variant_49, .-test_4_blocks_1_targets_direct_variant_49

        .type   test_4_blocks_1_targets_direct_variant_50, @function
test_4_blocks_1_targets_direct_variant_50:
.L_189_50_0:
        jmp .L_189_50_2
.L_189_50_1:
        pushl   $.LC_ret
        calll   puts
        addl    $4, %esp
        movl    $0, %eax
        ret        
        
.L_189_50_2:
        cmpl    $0, conditions+100
        je     .L_189_50_3
        jmp    .L_189_50_5

.L_189_50_3:
        cmpl    $0, conditions+104
        je     .L_189_50_1
        jmp    .L_189_50_4

.L_189_50_4:
        cmpl    $0, conditions+108
        je     .L_189_50_1
        jmp    .L_189_50_5

.L_189_50_5:
        cmpl    $0, conditions+112
        je     .L_189_50_1
        jmp    .L_189_50_6

.L_189_50_6:
        pushl   $.LC_6
        calll   puts
        addl    $4, %esp
        jmp     .L_189_50_1

.L_189_50_FE1:
        .size   test_4_blocks_1_targets_direct_variant_50, .-test_4_blocks_1_targets_direct_variant_50

        .type   test_4_blocks_1_targets_direct_variant_51, @function
test_4_blocks_1_targets_direct_variant_51:
.L_190_51_0:
        jmp .L_190_51_2
.L_190_51_1:
        pushl   $.LC_ret
        calll   puts
        addl    $4, %esp
        movl    $0, %eax
        ret        
        
.L_190_51_2:
        cmpl    $0, conditions+100
        je     .L_190_51_3
        jmp    .L_190_51_5

.L_190_51_3:
        cmpl    $0, conditions+104
        je     .L_190_51_1
        jmp    .L_190_51_4

.L_190_51_4:
        cmpl    $0, conditions+108
        je     .L_190_51_1
        jmp    .L_190_51_6

.L_190_51_5:
        cmpl    $0, conditions+112
        je     .L_190_51_3
        jmp    .L_190_51_4

.L_190_51_6:
        pushl   $.LC_6
        calll   puts
        addl    $4, %esp
        jmp     .L_190_51_1

.L_190_51_FE1:
        .size   test_4_blocks_1_targets_direct_variant_51, .-test_4_blocks_1_targets_direct_variant_51

        .type   test_4_blocks_1_targets_direct_variant_52, @function
test_4_blocks_1_targets_direct_variant_52:
.L_191_52_0:
        jmp .L_191_52_2
.L_191_52_1:
        pushl   $.LC_ret
        calll   puts
        addl    $4, %esp
        movl    $0, %eax
        ret        
        
.L_191_52_2:
        cmpl    $0, conditions+100
        je     .L_191_52_3
        jmp    .L_191_52_5

.L_191_52_3:
        cmpl    $0, conditions+104
        je     .L_191_52_1
        jmp    .L_191_52_4

.L_191_52_4:
        cmpl    $0, conditions+108
        je     .L_191_52_1
        jmp    .L_191_52_6

.L_191_52_5:
        cmpl    $0, conditions+112
        je     .L_191_52_3
        jmp    .L_191_52_6

.L_191_52_6:
        pushl   $.LC_6
        calll   puts
        addl    $4, %esp
        jmp     .L_191_52_1

.L_191_52_FE1:
        .size   test_4_blocks_1_targets_direct_variant_52, .-test_4_blocks_1_targets_direct_variant_52

        .type   test_4_blocks_1_targets_direct_variant_53, @function
test_4_blocks_1_targets_direct_variant_53:
.L_192_53_0:
        jmp .L_192_53_2
.L_192_53_1:
        pushl   $.LC_ret
        calll   puts
        addl    $4, %esp
        movl    $0, %eax
        ret        
        
.L_192_53_2:
        cmpl    $0, conditions+100
        je     .L_192_53_3
        jmp    .L_192_53_5

.L_192_53_3:
        cmpl    $0, conditions+104
        je     .L_192_53_1
        jmp    .L_192_53_4

.L_192_53_4:
        cmpl    $0, conditions+108
        je     .L_192_53_1
        jmp    .L_192_53_6

.L_192_53_5:
        cmpl    $0, conditions+112
        je     .L_192_53_4
        jmp    .L_192_53_6

.L_192_53_6:
        pushl   $.LC_6
        calll   puts
        addl    $4, %esp
        jmp     .L_192_53_1

.L_192_53_FE1:
        .size   test_4_blocks_1_targets_direct_variant_53, .-test_4_blocks_1_targets_direct_variant_53

        .type   test_4_blocks_1_targets_direct_variant_54, @function
test_4_blocks_1_targets_direct_variant_54:
.L_193_54_0:
        jmp .L_193_54_2
.L_193_54_1:
        pushl   $.LC_ret
        calll   puts
        addl    $4, %esp
        movl    $0, %eax
        ret        
        
.L_193_54_2:
        cmpl    $0, conditions+100
        je     .L_193_54_3
        jmp    .L_193_54_5

.L_193_54_3:
        cmpl    $0, conditions+104
        je     .L_193_54_1
        jmp    .L_193_54_4

.L_193_54_4:
        cmpl    $0, conditions+108
        je     .L_193_54_1
        jmp    .L_193_54_6

.L_193_54_5:
        cmpl    $0, conditions+112
        je     .L_193_54_1
        jmp    .L_193_54_3

.L_193_54_6:
        pushl   $.LC_6
        calll   puts
        addl    $4, %esp
        jmp     .L_193_54_1

.L_193_54_FE1:
        .size   test_4_blocks_1_targets_direct_variant_54, .-test_4_blocks_1_targets_direct_variant_54

        .type   test_4_blocks_1_targets_direct_variant_55, @function
test_4_blocks_1_targets_direct_variant_55:
.L_194_55_0:
        jmp .L_194_55_2
.L_194_55_1:
        pushl   $.LC_ret
        calll   puts
        addl    $4, %esp
        movl    $0, %eax
        ret        
        
.L_194_55_2:
        cmpl    $0, conditions+100
        je     .L_194_55_3
        jmp    .L_194_55_5

.L_194_55_3:
        cmpl    $0, conditions+104
        je     .L_194_55_1
        jmp    .L_194_55_4

.L_194_55_4:
        cmpl    $0, conditions+108
        je     .L_194_55_1
        jmp    .L_194_55_6

.L_194_55_5:
        cmpl    $0, conditions+112
        je     .L_194_55_1
        jmp    .L_194_55_4

.L_194_55_6:
        pushl   $.LC_6
        calll   puts
        addl    $4, %esp
        jmp     .L_194_55_1

.L_194_55_FE1:
        .size   test_4_blocks_1_targets_direct_variant_55, .-test_4_blocks_1_targets_direct_variant_55

        .type   test_4_blocks_1_targets_direct_variant_56, @function
test_4_blocks_1_targets_direct_variant_56:
.L_195_56_0:
        jmp .L_195_56_2
.L_195_56_1:
        pushl   $.LC_ret
        calll   puts
        addl    $4, %esp
        movl    $0, %eax
        ret        
        
.L_195_56_2:
        cmpl    $0, conditions+100
        je     .L_195_56_3
        jmp    .L_195_56_5

.L_195_56_3:
        cmpl    $0, conditions+104
        je     .L_195_56_1
        jmp    .L_195_56_4

.L_195_56_4:
        cmpl    $0, conditions+108
        je     .L_195_56_1
        jmp    .L_195_56_6

.L_195_56_5:
        cmpl    $0, conditions+112
        je     .L_195_56_1
        jmp    .L_195_56_6

.L_195_56_6:
        pushl   $.LC_6
        calll   puts
        addl    $4, %esp
        jmp     .L_195_56_1

.L_195_56_FE1:
        .size   test_4_blocks_1_targets_direct_variant_56, .-test_4_blocks_1_targets_direct_variant_56

        .type   test_4_blocks_1_targets_direct_variant_57, @function
test_4_blocks_1_targets_direct_variant_57:
.L_196_57_0:
        jmp .L_196_57_2
.L_196_57_1:
        pushl   $.LC_ret
        calll   puts
        addl    $4, %esp
        movl    $0, %eax
        ret        
        
.L_196_57_2:
        cmpl    $0, conditions+100
        je     .L_196_57_3
        jmp    .L_196_57_5

.L_196_57_3:
        cmpl    $0, conditions+104
        je     .L_196_57_1
        jmp    .L_196_57_5

.L_196_57_4:
        cmpl    $0, conditions+108
        je     .L_196_57_1
        jmp    .L_196_57_6

.L_196_57_5:
        cmpl    $0, conditions+112
        je     .L_196_57_4
        jmp    .L_196_57_6

.L_196_57_6:
        pushl   $.LC_6
        calll   puts
        addl    $4, %esp
        jmp     .L_196_57_1

.L_196_57_FE1:
        .size   test_4_blocks_1_targets_direct_variant_57, .-test_4_blocks_1_targets_direct_variant_57

        .type   test_4_blocks_1_targets_direct_variant_58, @function
test_4_blocks_1_targets_direct_variant_58:
.L_197_58_0:
        jmp .L_197_58_2
.L_197_58_1:
        pushl   $.LC_ret
        calll   puts
        addl    $4, %esp
        movl    $0, %eax
        ret        
        
.L_197_58_2:
        cmpl    $0, conditions+100
        je     .L_197_58_3
        jmp    .L_197_58_5

.L_197_58_3:
        cmpl    $0, conditions+104
        je     .L_197_58_1
        jmp    .L_197_58_5

.L_197_58_4:
        cmpl    $0, conditions+108
        je     .L_197_58_1
        jmp    .L_197_58_6

.L_197_58_5:
        cmpl    $0, conditions+112
        je     .L_197_58_1
        jmp    .L_197_58_4

.L_197_58_6:
        pushl   $.LC_6
        calll   puts
        addl    $4, %esp
        jmp     .L_197_58_1

.L_197_58_FE1:
        .size   test_4_blocks_1_targets_direct_variant_58, .-test_4_blocks_1_targets_direct_variant_58

        .type   test_4_blocks_1_targets_direct_variant_59, @function
test_4_blocks_1_targets_direct_variant_59:
.L_198_59_0:
        jmp .L_198_59_2
.L_198_59_1:
        pushl   $.LC_ret
        calll   puts
        addl    $4, %esp
        movl    $0, %eax
        ret        
        
.L_198_59_2:
        cmpl    $0, conditions+100
        je     .L_198_59_3
        jmp    .L_198_59_5

.L_198_59_3:
        cmpl    $0, conditions+104
        je     .L_198_59_1
        jmp    .L_198_59_6

.L_198_59_4:
        cmpl    $0, conditions+108
        je     .L_198_59_3
        jmp    .L_198_59_6

.L_198_59_5:
        cmpl    $0, conditions+112
        je     .L_198_59_3
        jmp    .L_198_59_4

.L_198_59_6:
        pushl   $.LC_6
        calll   puts
        addl    $4, %esp
        jmp     .L_198_59_1

.L_198_59_FE1:
        .size   test_4_blocks_1_targets_direct_variant_59, .-test_4_blocks_1_targets_direct_variant_59

        .type   test_4_blocks_1_targets_direct_variant_60, @function
test_4_blocks_1_targets_direct_variant_60:
.L_199_60_0:
        jmp .L_199_60_2
.L_199_60_1:
        pushl   $.LC_ret
        calll   puts
        addl    $4, %esp
        movl    $0, %eax
        ret        
        
.L_199_60_2:
        cmpl    $0, conditions+100
        je     .L_199_60_3
        jmp    .L_199_60_5

.L_199_60_3:
        cmpl    $0, conditions+104
        je     .L_199_60_1
        jmp    .L_199_60_6

.L_199_60_4:
        cmpl    $0, conditions+108
        je     .L_199_60_3
        jmp    .L_199_60_6

.L_199_60_5:
        cmpl    $0, conditions+112
        je     .L_199_60_4
        jmp    .L_199_60_6

.L_199_60_6:
        pushl   $.LC_6
        calll   puts
        addl    $4, %esp
        jmp     .L_199_60_1

.L_199_60_FE1:
        .size   test_4_blocks_1_targets_direct_variant_60, .-test_4_blocks_1_targets_direct_variant_60

        .type   test_4_blocks_1_targets_direct_variant_61, @function
test_4_blocks_1_targets_direct_variant_61:
.L_200_61_0:
        jmp .L_200_61_2
.L_200_61_1:
        pushl   $.LC_ret
        calll   puts
        addl    $4, %esp
        movl    $0, %eax
        ret        
        
.L_200_61_2:
        cmpl    $0, conditions+100
        je     .L_200_61_3
        jmp    .L_200_61_5

.L_200_61_3:
        cmpl    $0, conditions+104
        je     .L_200_61_1
        jmp    .L_200_61_6

.L_200_61_4:
        cmpl    $0, conditions+108
        je     .L_200_61_3
        jmp    .L_200_61_6

.L_200_61_5:
        cmpl    $0, conditions+112
        je     .L_200_61_1
        jmp    .L_200_61_4

.L_200_61_6:
        pushl   $.LC_6
        calll   puts
        addl    $4, %esp
        jmp     .L_200_61_1

.L_200_61_FE1:
        .size   test_4_blocks_1_targets_direct_variant_61, .-test_4_blocks_1_targets_direct_variant_61

        .type   test_4_blocks_1_targets_direct_variant_62, @function
test_4_blocks_1_targets_direct_variant_62:
.L_201_62_0:
        jmp .L_201_62_2
.L_201_62_1:
        pushl   $.LC_ret
        calll   puts
        addl    $4, %esp
        movl    $0, %eax
        ret        
        
.L_201_62_2:
        cmpl    $0, conditions+100
        je     .L_201_62_3
        jmp    .L_201_62_5

.L_201_62_3:
        cmpl    $0, conditions+104
        je     .L_201_62_1
        jmp    .L_201_62_6

.L_201_62_4:
        cmpl    $0, conditions+108
        je     .L_201_62_1
        jmp    .L_201_62_3

.L_201_62_5:
        cmpl    $0, conditions+112
        je     .L_201_62_3
        jmp    .L_201_62_4

.L_201_62_6:
        pushl   $.LC_6
        calll   puts
        addl    $4, %esp
        jmp     .L_201_62_1

.L_201_62_FE1:
        .size   test_4_blocks_1_targets_direct_variant_62, .-test_4_blocks_1_targets_direct_variant_62

        .type   test_4_blocks_1_targets_direct_variant_63, @function
test_4_blocks_1_targets_direct_variant_63:
.L_202_63_0:
        jmp .L_202_63_2
.L_202_63_1:
        pushl   $.LC_ret
        calll   puts
        addl    $4, %esp
        movl    $0, %eax
        ret        
        
.L_202_63_2:
        cmpl    $0, conditions+100
        je     .L_202_63_3
        jmp    .L_202_63_5

.L_202_63_3:
        cmpl    $0, conditions+104
        je     .L_202_63_1
        jmp    .L_202_63_6

.L_202_63_4:
        cmpl    $0, conditions+108
        je     .L_202_63_1
        jmp    .L_202_63_3

.L_202_63_5:
        cmpl    $0, conditions+112
        je     .L_202_63_4
        jmp    .L_202_63_6

.L_202_63_6:
        pushl   $.LC_6
        calll   puts
        addl    $4, %esp
        jmp     .L_202_63_1

.L_202_63_FE1:
        .size   test_4_blocks_1_targets_direct_variant_63, .-test_4_blocks_1_targets_direct_variant_63

        .type   test_4_blocks_1_targets_direct_variant_64, @function
test_4_blocks_1_targets_direct_variant_64:
.L_203_64_0:
        jmp .L_203_64_2
.L_203_64_1:
        pushl   $.LC_ret
        calll   puts
        addl    $4, %esp
        movl    $0, %eax
        ret        
        
.L_203_64_2:
        cmpl    $0, conditions+100
        je     .L_203_64_3
        jmp    .L_203_64_5

.L_203_64_3:
        cmpl    $0, conditions+104
        je     .L_203_64_1
        jmp    .L_203_64_6

.L_203_64_4:
        cmpl    $0, conditions+108
        je     .L_203_64_1
        jmp    .L_203_64_3

.L_203_64_5:
        cmpl    $0, conditions+112
        je     .L_203_64_1
        jmp    .L_203_64_4

.L_203_64_6:
        pushl   $.LC_6
        calll   puts
        addl    $4, %esp
        jmp     .L_203_64_1

.L_203_64_FE1:
        .size   test_4_blocks_1_targets_direct_variant_64, .-test_4_blocks_1_targets_direct_variant_64

        .type   test_4_blocks_1_targets_direct_variant_65, @function
test_4_blocks_1_targets_direct_variant_65:
.L_204_65_0:
        jmp .L_204_65_2
.L_204_65_1:
        pushl   $.LC_ret
        calll   puts
        addl    $4, %esp
        movl    $0, %eax
        ret        
        
.L_204_65_2:
        cmpl    $0, conditions+100
        je     .L_204_65_3
        jmp    .L_204_65_5

.L_204_65_3:
        cmpl    $0, conditions+104
        je     .L_204_65_1
        jmp    .L_204_65_6

.L_204_65_4:
        cmpl    $0, conditions+108
        je     .L_204_65_1
        jmp    .L_204_65_6

.L_204_65_5:
        cmpl    $0, conditions+112
        je     .L_204_65_3
        jmp    .L_204_65_4

.L_204_65_6:
        pushl   $.LC_6
        calll   puts
        addl    $4, %esp
        jmp     .L_204_65_1

.L_204_65_FE1:
        .size   test_4_blocks_1_targets_direct_variant_65, .-test_4_blocks_1_targets_direct_variant_65

        .type   test_4_blocks_1_targets_direct_variant_66, @function
test_4_blocks_1_targets_direct_variant_66:
.L_205_66_0:
        jmp .L_205_66_2
.L_205_66_1:
        pushl   $.LC_ret
        calll   puts
        addl    $4, %esp
        movl    $0, %eax
        ret        
        
.L_205_66_2:
        cmpl    $0, conditions+100
        je     .L_205_66_3
        jmp    .L_205_66_5

.L_205_66_3:
        cmpl    $0, conditions+104
        je     .L_205_66_1
        jmp    .L_205_66_6

.L_205_66_4:
        cmpl    $0, conditions+108
        je     .L_205_66_1
        jmp    .L_205_66_6

.L_205_66_5:
        cmpl    $0, conditions+112
        je     .L_205_66_4
        jmp    .L_205_66_6

.L_205_66_6:
        pushl   $.LC_6
        calll   puts
        addl    $4, %esp
        jmp     .L_205_66_1

.L_205_66_FE1:
        .size   test_4_blocks_1_targets_direct_variant_66, .-test_4_blocks_1_targets_direct_variant_66

        .type   test_4_blocks_1_targets_direct_variant_67, @function
test_4_blocks_1_targets_direct_variant_67:
.L_206_67_0:
        jmp .L_206_67_2
.L_206_67_1:
        pushl   $.LC_ret
        calll   puts
        addl    $4, %esp
        movl    $0, %eax
        ret        
        
.L_206_67_2:
        cmpl    $0, conditions+100
        je     .L_206_67_3
        jmp    .L_206_67_5

.L_206_67_3:
        cmpl    $0, conditions+104
        je     .L_206_67_1
        jmp    .L_206_67_6

.L_206_67_4:
        cmpl    $0, conditions+108
        je     .L_206_67_1
        jmp    .L_206_67_6

.L_206_67_5:
        cmpl    $0, conditions+112
        je     .L_206_67_1
        jmp    .L_206_67_4

.L_206_67_6:
        pushl   $.LC_6
        calll   puts
        addl    $4, %esp
        jmp     .L_206_67_1

.L_206_67_FE1:
        .size   test_4_blocks_1_targets_direct_variant_67, .-test_4_blocks_1_targets_direct_variant_67

        .type   test_4_blocks_1_targets_direct_variant_68, @function
test_4_blocks_1_targets_direct_variant_68:
.L_207_68_0:
        jmp .L_207_68_2
.L_207_68_1:
        pushl   $.LC_ret
        calll   puts
        addl    $4, %esp
        movl    $0, %eax
        ret        
        
.L_207_68_2:
        cmpl    $0, conditions+100
        je     .L_207_68_3
        jmp    .L_207_68_6

.L_207_68_3:
        cmpl    $0, conditions+104
        je     .L_207_68_4
        jmp    .L_207_68_5

.L_207_68_4:
        cmpl    $0, conditions+108
        je     .L_207_68_5
        jmp    .L_207_68_6

.L_207_68_5:
        cmpl    $0, conditions+112
        je     .L_207_68_1
        jmp    .L_207_68_6

.L_207_68_6:
        pushl   $.LC_6
        calll   puts
        addl    $4, %esp
        jmp     .L_207_68_1

.L_207_68_FE1:
        .size   test_4_blocks_1_targets_direct_variant_68, .-test_4_blocks_1_targets_direct_variant_68

        .type   test_4_blocks_1_targets_direct_variant_69, @function
test_4_blocks_1_targets_direct_variant_69:
.L_208_69_0:
        jmp .L_208_69_2
.L_208_69_1:
        pushl   $.LC_ret
        calll   puts
        addl    $4, %esp
        movl    $0, %eax
        ret        
        
.L_208_69_2:
        cmpl    $0, conditions+100
        je     .L_208_69_3
        jmp    .L_208_69_6

.L_208_69_3:
        cmpl    $0, conditions+104
        je     .L_208_69_4
        jmp    .L_208_69_5

.L_208_69_4:
        cmpl    $0, conditions+108
        je     .L_208_69_1
        jmp    .L_208_69_5

.L_208_69_5:
        cmpl    $0, conditions+112
        je     .L_208_69_1
        jmp    .L_208_69_6

.L_208_69_6:
        pushl   $.LC_6
        calll   puts
        addl    $4, %esp
        jmp     .L_208_69_1

.L_208_69_FE1:
        .size   test_4_blocks_1_targets_direct_variant_69, .-test_4_blocks_1_targets_direct_variant_69

        .type   test_4_blocks_1_targets_direct_variant_70, @function
test_4_blocks_1_targets_direct_variant_70:
.L_209_70_0:
        jmp .L_209_70_2
.L_209_70_1:
        pushl   $.LC_ret
        calll   puts
        addl    $4, %esp
        movl    $0, %eax
        ret        
        
.L_209_70_2:
        cmpl    $0, conditions+100
        je     .L_209_70_3
        jmp    .L_209_70_6

.L_209_70_3:
        cmpl    $0, conditions+104
        je     .L_209_70_4
        jmp    .L_209_70_5

.L_209_70_4:
        cmpl    $0, conditions+108
        je     .L_209_70_1
        jmp    .L_209_70_6

.L_209_70_5:
        cmpl    $0, conditions+112
        je     .L_209_70_4
        jmp    .L_209_70_6

.L_209_70_6:
        pushl   $.LC_6
        calll   puts
        addl    $4, %esp
        jmp     .L_209_70_1

.L_209_70_FE1:
        .size   test_4_blocks_1_targets_direct_variant_70, .-test_4_blocks_1_targets_direct_variant_70

        .type   test_4_blocks_1_targets_direct_variant_71, @function
test_4_blocks_1_targets_direct_variant_71:
.L_210_71_0:
        jmp .L_210_71_2
.L_210_71_1:
        pushl   $.LC_ret
        calll   puts
        addl    $4, %esp
        movl    $0, %eax
        ret        
        
.L_210_71_2:
        cmpl    $0, conditions+100
        je     .L_210_71_3
        jmp    .L_210_71_6

.L_210_71_3:
        cmpl    $0, conditions+104
        je     .L_210_71_4
        jmp    .L_210_71_5

.L_210_71_4:
        cmpl    $0, conditions+108
        je     .L_210_71_1
        jmp    .L_210_71_6

.L_210_71_5:
        cmpl    $0, conditions+112
        je     .L_210_71_1
        jmp    .L_210_71_4

.L_210_71_6:
        pushl   $.LC_6
        calll   puts
        addl    $4, %esp
        jmp     .L_210_71_1

.L_210_71_FE1:
        .size   test_4_blocks_1_targets_direct_variant_71, .-test_4_blocks_1_targets_direct_variant_71

        .type   test_4_blocks_1_targets_direct_variant_72, @function
test_4_blocks_1_targets_direct_variant_72:
.L_211_72_0:
        jmp .L_211_72_2
.L_211_72_1:
        pushl   $.LC_ret
        calll   puts
        addl    $4, %esp
        movl    $0, %eax
        ret        
        
.L_211_72_2:
        cmpl    $0, conditions+100
        je     .L_211_72_3
        jmp    .L_211_72_6

.L_211_72_3:
        cmpl    $0, conditions+104
        je     .L_211_72_4
        jmp    .L_211_72_5

.L_211_72_4:
        cmpl    $0, conditions+108
        je     .L_211_72_1
        jmp    .L_211_72_6

.L_211_72_5:
        cmpl    $0, conditions+112
        je     .L_211_72_1
        jmp    .L_211_72_6

.L_211_72_6:
        pushl   $.LC_6
        calll   puts
        addl    $4, %esp
        jmp     .L_211_72_1

.L_211_72_FE1:
        .size   test_4_blocks_1_targets_direct_variant_72, .-test_4_blocks_1_targets_direct_variant_72

        .type   test_4_blocks_1_targets_direct_variant_73, @function
test_4_blocks_1_targets_direct_variant_73:
.L_212_73_0:
        jmp .L_212_73_2
.L_212_73_1:
        pushl   $.LC_ret
        calll   puts
        addl    $4, %esp
        movl    $0, %eax
        ret        
        
.L_212_73_2:
        cmpl    $0, conditions+100
        je     .L_212_73_3
        jmp    .L_212_73_6

.L_212_73_3:
        cmpl    $0, conditions+104
        je     .L_212_73_4
        jmp    .L_212_73_6

.L_212_73_4:
        cmpl    $0, conditions+108
        je     .L_212_73_5
        jmp    .L_212_73_6

.L_212_73_5:
        cmpl    $0, conditions+112
        je     .L_212_73_1
        jmp    .L_212_73_6

.L_212_73_6:
        pushl   $.LC_6
        calll   puts
        addl    $4, %esp
        jmp     .L_212_73_1

.L_212_73_FE1:
        .size   test_4_blocks_1_targets_direct_variant_73, .-test_4_blocks_1_targets_direct_variant_73

        .type   test_4_blocks_1_targets_direct_variant_74, @function
test_4_blocks_1_targets_direct_variant_74:
.L_213_74_0:
        jmp .L_213_74_2
.L_213_74_1:
        pushl   $.LC_ret
        calll   puts
        addl    $4, %esp
        movl    $0, %eax
        ret        
        
.L_213_74_2:
        cmpl    $0, conditions+100
        je     .L_213_74_3
        jmp    .L_213_74_6

.L_213_74_3:
        cmpl    $0, conditions+104
        je     .L_213_74_4
        jmp    .L_213_74_6

.L_213_74_4:
        cmpl    $0, conditions+108
        je     .L_213_74_1
        jmp    .L_213_74_5

.L_213_74_5:
        cmpl    $0, conditions+112
        je     .L_213_74_1
        jmp    .L_213_74_6

.L_213_74_6:
        pushl   $.LC_6
        calll   puts
        addl    $4, %esp
        jmp     .L_213_74_1

.L_213_74_FE1:
        .size   test_4_blocks_1_targets_direct_variant_74, .-test_4_blocks_1_targets_direct_variant_74

        .type   test_4_blocks_1_targets_direct_variant_75, @function
test_4_blocks_1_targets_direct_variant_75:
.L_214_75_0:
        jmp .L_214_75_2
.L_214_75_1:
        pushl   $.LC_ret
        calll   puts
        addl    $4, %esp
        movl    $0, %eax
        ret        
        
.L_214_75_2:
        cmpl    $0, conditions+100
        je     .L_214_75_3
        jmp    .L_214_75_6

.L_214_75_3:
        cmpl    $0, conditions+104
        je     .L_214_75_5
        jmp    .L_214_75_6

.L_214_75_4:
        cmpl    $0, conditions+108
        je     .L_214_75_1
        jmp    .L_214_75_6

.L_214_75_5:
        cmpl    $0, conditions+112
        je     .L_214_75_4
        jmp    .L_214_75_6

.L_214_75_6:
        pushl   $.LC_6
        calll   puts
        addl    $4, %esp
        jmp     .L_214_75_1

.L_214_75_FE1:
        .size   test_4_blocks_1_targets_direct_variant_75, .-test_4_blocks_1_targets_direct_variant_75

        .type   test_4_blocks_1_targets_direct_variant_76, @function
test_4_blocks_1_targets_direct_variant_76:
.L_215_76_0:
        jmp .L_215_76_2
.L_215_76_1:
        pushl   $.LC_ret
        calll   puts
        addl    $4, %esp
        movl    $0, %eax
        ret        
        
.L_215_76_2:
        cmpl    $0, conditions+100
        je     .L_215_76_3
        jmp    .L_215_76_6

.L_215_76_3:
        cmpl    $0, conditions+104
        je     .L_215_76_5
        jmp    .L_215_76_6

.L_215_76_4:
        cmpl    $0, conditions+108
        je     .L_215_76_1
        jmp    .L_215_76_6

.L_215_76_5:
        cmpl    $0, conditions+112
        je     .L_215_76_1
        jmp    .L_215_76_4

.L_215_76_6:
        pushl   $.LC_6
        calll   puts
        addl    $4, %esp
        jmp     .L_215_76_1

.L_215_76_FE1:
        .size   test_4_blocks_1_targets_direct_variant_76, .-test_4_blocks_1_targets_direct_variant_76

        .type   test_4_blocks_1_targets_direct_variant_77, @function
test_4_blocks_1_targets_direct_variant_77:
.L_216_77_0:
        jmp .L_216_77_2
.L_216_77_1:
        pushl   $.LC_ret
        calll   puts
        addl    $4, %esp
        movl    $0, %eax
        ret        
        
.L_216_77_2:
        cmpl    $0, conditions+100
        je     .L_216_77_3
        jmp    .L_216_77_6

.L_216_77_3:
        cmpl    $0, conditions+104
        je     .L_216_77_1
        jmp    .L_216_77_4

.L_216_77_4:
        cmpl    $0, conditions+108
        je     .L_216_77_5
        jmp    .L_216_77_6

.L_216_77_5:
        cmpl    $0, conditions+112
        je     .L_216_77_1
        jmp    .L_216_77_6

.L_216_77_6:
        pushl   $.LC_6
        calll   puts
        addl    $4, %esp
        jmp     .L_216_77_1

.L_216_77_FE1:
        .size   test_4_blocks_1_targets_direct_variant_77, .-test_4_blocks_1_targets_direct_variant_77

        .type   test_4_blocks_1_targets_direct_variant_78, @function
test_4_blocks_1_targets_direct_variant_78:
.L_217_78_0:
        jmp .L_217_78_2
.L_217_78_1:
        pushl   $.LC_ret
        calll   puts
        addl    $4, %esp
        movl    $0, %eax
        ret        
        
.L_217_78_2:
        cmpl    $0, conditions+100
        je     .L_217_78_3
        jmp    .L_217_78_6

.L_217_78_3:
        cmpl    $0, conditions+104
        je     .L_217_78_1
        jmp    .L_217_78_4

.L_217_78_4:
        cmpl    $0, conditions+108
        je     .L_217_78_1
        jmp    .L_217_78_5

.L_217_78_5:
        cmpl    $0, conditions+112
        je     .L_217_78_1
        jmp    .L_217_78_6

.L_217_78_6:
        pushl   $.LC_6
        calll   puts
        addl    $4, %esp
        jmp     .L_217_78_1

.L_217_78_FE1:
        .size   test_4_blocks_1_targets_direct_variant_78, .-test_4_blocks_1_targets_direct_variant_78

        .type   test_4_blocks_1_targets_direct_variant_79, @function
test_4_blocks_1_targets_direct_variant_79:
.L_218_79_0:
        jmp .L_218_79_2
.L_218_79_1:
        pushl   $.LC_ret
        calll   puts
        addl    $4, %esp
        movl    $0, %eax
        ret        
        
.L_218_79_2:
        cmpl    $0, conditions+100
        je     .L_218_79_3
        jmp    .L_218_79_6

.L_218_79_3:
        cmpl    $0, conditions+104
        je     .L_218_79_1
        jmp    .L_218_79_5

.L_218_79_4:
        cmpl    $0, conditions+108
        je     .L_218_79_1
        jmp    .L_218_79_6

.L_218_79_5:
        cmpl    $0, conditions+112
        je     .L_218_79_4
        jmp    .L_218_79_6

.L_218_79_6:
        pushl   $.LC_6
        calll   puts
        addl    $4, %esp
        jmp     .L_218_79_1

.L_218_79_FE1:
        .size   test_4_blocks_1_targets_direct_variant_79, .-test_4_blocks_1_targets_direct_variant_79

        .type   test_4_blocks_1_targets_direct_variant_80, @function
test_4_blocks_1_targets_direct_variant_80:
.L_219_80_0:
        jmp .L_219_80_2
.L_219_80_1:
        pushl   $.LC_ret
        calll   puts
        addl    $4, %esp
        movl    $0, %eax
        ret        
        
.L_219_80_2:
        cmpl    $0, conditions+100
        je     .L_219_80_3
        jmp    .L_219_80_6

.L_219_80_3:
        cmpl    $0, conditions+104
        je     .L_219_80_1
        jmp    .L_219_80_5

.L_219_80_4:
        cmpl    $0, conditions+108
        je     .L_219_80_1
        jmp    .L_219_80_6

.L_219_80_5:
        cmpl    $0, conditions+112
        je     .L_219_80_1
        jmp    .L_219_80_4

.L_219_80_6:
        pushl   $.LC_6
        calll   puts
        addl    $4, %esp
        jmp     .L_219_80_1

.L_219_80_FE1:
        .size   test_4_blocks_1_targets_direct_variant_80, .-test_4_blocks_1_targets_direct_variant_80

        .type   test_4_blocks_1_targets_direct_variant_81, @function
test_4_blocks_1_targets_direct_variant_81:
.L_220_81_0:
        jmp .L_220_81_2
.L_220_81_1:
        pushl   $.LC_ret
        calll   puts
        addl    $4, %esp
        movl    $0, %eax
        ret        
        
.L_220_81_2:
        cmpl    $0, conditions+100
        je     .L_220_81_4
        jmp    .L_220_81_5

.L_220_81_3:
        cmpl    $0, conditions+104
        je     .L_220_81_4
        jmp    .L_220_81_6

.L_220_81_4:
        cmpl    $0, conditions+108
        je     .L_220_81_1
        jmp    .L_220_81_6

.L_220_81_5:
        cmpl    $0, conditions+112
        je     .L_220_81_3
        jmp    .L_220_81_4

.L_220_81_6:
        pushl   $.LC_6
        calll   puts
        addl    $4, %esp
        jmp     .L_220_81_1

.L_220_81_FE1:
        .size   test_4_blocks_1_targets_direct_variant_81, .-test_4_blocks_1_targets_direct_variant_81

        .type   test_4_blocks_1_targets_direct_variant_82, @function
test_4_blocks_1_targets_direct_variant_82:
.L_221_82_0:
        jmp .L_221_82_2
.L_221_82_1:
        pushl   $.LC_ret
        calll   puts
        addl    $4, %esp
        movl    $0, %eax
        ret        
        
.L_221_82_2:
        cmpl    $0, conditions+100
        je     .L_221_82_4
        jmp    .L_221_82_5

.L_221_82_3:
        cmpl    $0, conditions+104
        je     .L_221_82_4
        jmp    .L_221_82_6

.L_221_82_4:
        cmpl    $0, conditions+108
        je     .L_221_82_1
        jmp    .L_221_82_6

.L_221_82_5:
        cmpl    $0, conditions+112
        je     .L_221_82_3
        jmp    .L_221_82_6

.L_221_82_6:
        pushl   $.LC_6
        calll   puts
        addl    $4, %esp
        jmp     .L_221_82_1

.L_221_82_FE1:
        .size   test_4_blocks_1_targets_direct_variant_82, .-test_4_blocks_1_targets_direct_variant_82

        .type   test_4_blocks_1_targets_direct_variant_83, @function
test_4_blocks_1_targets_direct_variant_83:
.L_222_83_0:
        jmp .L_222_83_2
.L_222_83_1:
        pushl   $.LC_ret
        calll   puts
        addl    $4, %esp
        movl    $0, %eax
        ret        
        
.L_222_83_2:
        cmpl    $0, conditions+100
        je     .L_222_83_4
        jmp    .L_222_83_5

.L_222_83_3:
        cmpl    $0, conditions+104
        je     .L_222_83_4
        jmp    .L_222_83_6

.L_222_83_4:
        cmpl    $0, conditions+108
        je     .L_222_83_1
        jmp    .L_222_83_6

.L_222_83_5:
        cmpl    $0, conditions+112
        je     .L_222_83_1
        jmp    .L_222_83_3

.L_222_83_6:
        pushl   $.LC_6
        calll   puts
        addl    $4, %esp
        jmp     .L_222_83_1

.L_222_83_FE1:
        .size   test_4_blocks_1_targets_direct_variant_83, .-test_4_blocks_1_targets_direct_variant_83

        .type   test_4_blocks_1_targets_direct_variant_84, @function
test_4_blocks_1_targets_direct_variant_84:
.L_223_84_0:
        jmp .L_223_84_2
.L_223_84_1:
        pushl   $.LC_ret
        calll   puts
        addl    $4, %esp
        movl    $0, %eax
        ret        
        
.L_223_84_2:
        cmpl    $0, conditions+100
        je     .L_223_84_4
        jmp    .L_223_84_5

.L_223_84_3:
        cmpl    $0, conditions+104
        je     .L_223_84_5
        jmp    .L_223_84_6

.L_223_84_4:
        cmpl    $0, conditions+108
        je     .L_223_84_3
        jmp    .L_223_84_5

.L_223_84_5:
        cmpl    $0, conditions+112
        je     .L_223_84_1
        jmp    .L_223_84_6

.L_223_84_6:
        pushl   $.LC_6
        calll   puts
        addl    $4, %esp
        jmp     .L_223_84_1

.L_223_84_FE1:
        .size   test_4_blocks_1_targets_direct_variant_84, .-test_4_blocks_1_targets_direct_variant_84

        .type   test_4_blocks_1_targets_direct_variant_85, @function
test_4_blocks_1_targets_direct_variant_85:
.L_224_85_0:
        jmp .L_224_85_2
.L_224_85_1:
        pushl   $.LC_ret
        calll   puts
        addl    $4, %esp
        movl    $0, %eax
        ret        
        
.L_224_85_2:
        cmpl    $0, conditions+100
        je     .L_224_85_4
        jmp    .L_224_85_5

.L_224_85_3:
        cmpl    $0, conditions+104
        je     .L_224_85_5
        jmp    .L_224_85_6

.L_224_85_4:
        cmpl    $0, conditions+108
        je     .L_224_85_3
        jmp    .L_224_85_6

.L_224_85_5:
        cmpl    $0, conditions+112
        je     .L_224_85_1
        jmp    .L_224_85_6

.L_224_85_6:
        pushl   $.LC_6
        calll   puts
        addl    $4, %esp
        jmp     .L_224_85_1

.L_224_85_FE1:
        .size   test_4_blocks_1_targets_direct_variant_85, .-test_4_blocks_1_targets_direct_variant_85

        .type   test_4_blocks_1_targets_direct_variant_86, @function
test_4_blocks_1_targets_direct_variant_86:
.L_225_86_0:
        jmp .L_225_86_2
.L_225_86_1:
        pushl   $.LC_ret
        calll   puts
        addl    $4, %esp
        movl    $0, %eax
        ret        
        
.L_225_86_2:
        cmpl    $0, conditions+100
        je     .L_225_86_4
        jmp    .L_225_86_5

.L_225_86_3:
        cmpl    $0, conditions+104
        je     .L_225_86_5
        jmp    .L_225_86_6

.L_225_86_4:
        cmpl    $0, conditions+108
        je     .L_225_86_1
        jmp    .L_225_86_3

.L_225_86_5:
        cmpl    $0, conditions+112
        je     .L_225_86_1
        jmp    .L_225_86_6

.L_225_86_6:
        pushl   $.LC_6
        calll   puts
        addl    $4, %esp
        jmp     .L_225_86_1

.L_225_86_FE1:
        .size   test_4_blocks_1_targets_direct_variant_86, .-test_4_blocks_1_targets_direct_variant_86

        .type   test_4_blocks_1_targets_direct_variant_87, @function
test_4_blocks_1_targets_direct_variant_87:
.L_226_87_0:
        jmp .L_226_87_2
.L_226_87_1:
        pushl   $.LC_ret
        calll   puts
        addl    $4, %esp
        movl    $0, %eax
        ret        
        
.L_226_87_2:
        cmpl    $0, conditions+100
        je     .L_226_87_4
        jmp    .L_226_87_5

.L_226_87_3:
        cmpl    $0, conditions+104
        je     .L_226_87_1
        jmp    .L_226_87_4

.L_226_87_4:
        cmpl    $0, conditions+108
        je     .L_226_87_1
        jmp    .L_226_87_6

.L_226_87_5:
        cmpl    $0, conditions+112
        je     .L_226_87_3
        jmp    .L_226_87_4

.L_226_87_6:
        pushl   $.LC_6
        calll   puts
        addl    $4, %esp
        jmp     .L_226_87_1

.L_226_87_FE1:
        .size   test_4_blocks_1_targets_direct_variant_87, .-test_4_blocks_1_targets_direct_variant_87

        .type   test_4_blocks_1_targets_direct_variant_88, @function
test_4_blocks_1_targets_direct_variant_88:
.L_227_88_0:
        jmp .L_227_88_2
.L_227_88_1:
        pushl   $.LC_ret
        calll   puts
        addl    $4, %esp
        movl    $0, %eax
        ret        
        
.L_227_88_2:
        cmpl    $0, conditions+100
        je     .L_227_88_4
        jmp    .L_227_88_5

.L_227_88_3:
        cmpl    $0, conditions+104
        je     .L_227_88_1
        jmp    .L_227_88_4

.L_227_88_4:
        cmpl    $0, conditions+108
        je     .L_227_88_1
        jmp    .L_227_88_6

.L_227_88_5:
        cmpl    $0, conditions+112
        je     .L_227_88_3
        jmp    .L_227_88_6

.L_227_88_6:
        pushl   $.LC_6
        calll   puts
        addl    $4, %esp
        jmp     .L_227_88_1

.L_227_88_FE1:
        .size   test_4_blocks_1_targets_direct_variant_88, .-test_4_blocks_1_targets_direct_variant_88

        .type   test_4_blocks_1_targets_direct_variant_89, @function
test_4_blocks_1_targets_direct_variant_89:
.L_228_89_0:
        jmp .L_228_89_2
.L_228_89_1:
        pushl   $.LC_ret
        calll   puts
        addl    $4, %esp
        movl    $0, %eax
        ret        
        
.L_228_89_2:
        cmpl    $0, conditions+100
        je     .L_228_89_4
        jmp    .L_228_89_5

.L_228_89_3:
        cmpl    $0, conditions+104
        je     .L_228_89_1
        jmp    .L_228_89_4

.L_228_89_4:
        cmpl    $0, conditions+108
        je     .L_228_89_1
        jmp    .L_228_89_6

.L_228_89_5:
        cmpl    $0, conditions+112
        je     .L_228_89_1
        jmp    .L_228_89_3

.L_228_89_6:
        pushl   $.LC_6
        calll   puts
        addl    $4, %esp
        jmp     .L_228_89_1

.L_228_89_FE1:
        .size   test_4_blocks_1_targets_direct_variant_89, .-test_4_blocks_1_targets_direct_variant_89

        .type   test_4_blocks_1_targets_direct_variant_90, @function
test_4_blocks_1_targets_direct_variant_90:
.L_229_90_0:
        jmp .L_229_90_2
.L_229_90_1:
        pushl   $.LC_ret
        calll   puts
        addl    $4, %esp
        movl    $0, %eax
        ret        
        
.L_229_90_2:
        cmpl    $0, conditions+100
        je     .L_229_90_4
        jmp    .L_229_90_5

.L_229_90_3:
        cmpl    $0, conditions+104
        je     .L_229_90_1
        jmp    .L_229_90_5

.L_229_90_4:
        cmpl    $0, conditions+108
        je     .L_229_90_3
        jmp    .L_229_90_5

.L_229_90_5:
        cmpl    $0, conditions+112
        je     .L_229_90_1
        jmp    .L_229_90_6

.L_229_90_6:
        pushl   $.LC_6
        calll   puts
        addl    $4, %esp
        jmp     .L_229_90_1

.L_229_90_FE1:
        .size   test_4_blocks_1_targets_direct_variant_90, .-test_4_blocks_1_targets_direct_variant_90

        .type   test_4_blocks_1_targets_direct_variant_91, @function
test_4_blocks_1_targets_direct_variant_91:
.L_230_91_0:
        jmp .L_230_91_2
.L_230_91_1:
        pushl   $.LC_ret
        calll   puts
        addl    $4, %esp
        movl    $0, %eax
        ret        
        
.L_230_91_2:
        cmpl    $0, conditions+100
        je     .L_230_91_4
        jmp    .L_230_91_5

.L_230_91_3:
        cmpl    $0, conditions+104
        je     .L_230_91_1
        jmp    .L_230_91_5

.L_230_91_4:
        cmpl    $0, conditions+108
        je     .L_230_91_3
        jmp    .L_230_91_6

.L_230_91_5:
        cmpl    $0, conditions+112
        je     .L_230_91_1
        jmp    .L_230_91_6

.L_230_91_6:
        pushl   $.LC_6
        calll   puts
        addl    $4, %esp
        jmp     .L_230_91_1

.L_230_91_FE1:
        .size   test_4_blocks_1_targets_direct_variant_91, .-test_4_blocks_1_targets_direct_variant_91

        .type   test_4_blocks_1_targets_direct_variant_92, @function
test_4_blocks_1_targets_direct_variant_92:
.L_231_92_0:
        jmp .L_231_92_2
.L_231_92_1:
        pushl   $.LC_ret
        calll   puts
        addl    $4, %esp
        movl    $0, %eax
        ret        
        
.L_231_92_2:
        cmpl    $0, conditions+100
        je     .L_231_92_4
        jmp    .L_231_92_5

.L_231_92_3:
        cmpl    $0, conditions+104
        je     .L_231_92_1
        jmp    .L_231_92_5

.L_231_92_4:
        cmpl    $0, conditions+108
        je     .L_231_92_1
        jmp    .L_231_92_3

.L_231_92_5:
        cmpl    $0, conditions+112
        je     .L_231_92_1
        jmp    .L_231_92_6

.L_231_92_6:
        pushl   $.LC_6
        calll   puts
        addl    $4, %esp
        jmp     .L_231_92_1

.L_231_92_FE1:
        .size   test_4_blocks_1_targets_direct_variant_92, .-test_4_blocks_1_targets_direct_variant_92

        .type   test_4_blocks_1_targets_direct_variant_93, @function
test_4_blocks_1_targets_direct_variant_93:
.L_232_93_0:
        jmp .L_232_93_2
.L_232_93_1:
        pushl   $.LC_ret
        calll   puts
        addl    $4, %esp
        movl    $0, %eax
        ret        
        
.L_232_93_2:
        cmpl    $0, conditions+100
        je     .L_232_93_4
        jmp    .L_232_93_5

.L_232_93_3:
        cmpl    $0, conditions+104
        je     .L_232_93_1
        jmp    .L_232_93_6

.L_232_93_4:
        cmpl    $0, conditions+108
        je     .L_232_93_3
        jmp    .L_232_93_5

.L_232_93_5:
        cmpl    $0, conditions+112
        je     .L_232_93_3
        jmp    .L_232_93_6

.L_232_93_6:
        pushl   $.LC_6
        calll   puts
        addl    $4, %esp
        jmp     .L_232_93_1

.L_232_93_FE1:
        .size   test_4_blocks_1_targets_direct_variant_93, .-test_4_blocks_1_targets_direct_variant_93

        .type   test_4_blocks_1_targets_direct_variant_94, @function
test_4_blocks_1_targets_direct_variant_94:
.L_233_94_0:
        jmp .L_233_94_2
.L_233_94_1:
        pushl   $.LC_ret
        calll   puts
        addl    $4, %esp
        movl    $0, %eax
        ret        
        
.L_233_94_2:
        cmpl    $0, conditions+100
        je     .L_233_94_4
        jmp    .L_233_94_5

.L_233_94_3:
        cmpl    $0, conditions+104
        je     .L_233_94_1
        jmp    .L_233_94_6

.L_233_94_4:
        cmpl    $0, conditions+108
        je     .L_233_94_3
        jmp    .L_233_94_5

.L_233_94_5:
        cmpl    $0, conditions+112
        je     .L_233_94_1
        jmp    .L_233_94_3

.L_233_94_6:
        pushl   $.LC_6
        calll   puts
        addl    $4, %esp
        jmp     .L_233_94_1

.L_233_94_FE1:
        .size   test_4_blocks_1_targets_direct_variant_94, .-test_4_blocks_1_targets_direct_variant_94

        .type   test_4_blocks_1_targets_direct_variant_95, @function
test_4_blocks_1_targets_direct_variant_95:
.L_234_95_0:
        jmp .L_234_95_2
.L_234_95_1:
        pushl   $.LC_ret
        calll   puts
        addl    $4, %esp
        movl    $0, %eax
        ret        
        
.L_234_95_2:
        cmpl    $0, conditions+100
        je     .L_234_95_4
        jmp    .L_234_95_5

.L_234_95_3:
        cmpl    $0, conditions+104
        je     .L_234_95_1
        jmp    .L_234_95_6

.L_234_95_4:
        cmpl    $0, conditions+108
        je     .L_234_95_3
        jmp    .L_234_95_5

.L_234_95_5:
        cmpl    $0, conditions+112
        je     .L_234_95_1
        jmp    .L_234_95_6

.L_234_95_6:
        pushl   $.LC_6
        calll   puts
        addl    $4, %esp
        jmp     .L_234_95_1

.L_234_95_FE1:
        .size   test_4_blocks_1_targets_direct_variant_95, .-test_4_blocks_1_targets_direct_variant_95

        .type   test_4_blocks_1_targets_direct_variant_96, @function
test_4_blocks_1_targets_direct_variant_96:
.L_235_96_0:
        jmp .L_235_96_2
.L_235_96_1:
        pushl   $.LC_ret
        calll   puts
        addl    $4, %esp
        movl    $0, %eax
        ret        
        
.L_235_96_2:
        cmpl    $0, conditions+100
        je     .L_235_96_4
        jmp    .L_235_96_5

.L_235_96_3:
        cmpl    $0, conditions+104
        je     .L_235_96_1
        jmp    .L_235_96_6

.L_235_96_4:
        cmpl    $0, conditions+108
        je     .L_235_96_3
        jmp    .L_235_96_6

.L_235_96_5:
        cmpl    $0, conditions+112
        je     .L_235_96_3
        jmp    .L_235_96_4

.L_235_96_6:
        pushl   $.LC_6
        calll   puts
        addl    $4, %esp
        jmp     .L_235_96_1

.L_235_96_FE1:
        .size   test_4_blocks_1_targets_direct_variant_96, .-test_4_blocks_1_targets_direct_variant_96

        .type   test_4_blocks_1_targets_direct_variant_97, @function
test_4_blocks_1_targets_direct_variant_97:
.L_236_97_0:
        jmp .L_236_97_2
.L_236_97_1:
        pushl   $.LC_ret
        calll   puts
        addl    $4, %esp
        movl    $0, %eax
        ret        
        
.L_236_97_2:
        cmpl    $0, conditions+100
        je     .L_236_97_4
        jmp    .L_236_97_5

.L_236_97_3:
        cmpl    $0, conditions+104
        je     .L_236_97_1
        jmp    .L_236_97_6

.L_236_97_4:
        cmpl    $0, conditions+108
        je     .L_236_97_3
        jmp    .L_236_97_6

.L_236_97_5:
        cmpl    $0, conditions+112
        je     .L_236_97_3
        jmp    .L_236_97_6

.L_236_97_6:
        pushl   $.LC_6
        calll   puts
        addl    $4, %esp
        jmp     .L_236_97_1

.L_236_97_FE1:
        .size   test_4_blocks_1_targets_direct_variant_97, .-test_4_blocks_1_targets_direct_variant_97

        .type   test_4_blocks_1_targets_direct_variant_98, @function
test_4_blocks_1_targets_direct_variant_98:
.L_237_98_0:
        jmp .L_237_98_2
.L_237_98_1:
        pushl   $.LC_ret
        calll   puts
        addl    $4, %esp
        movl    $0, %eax
        ret        
        
.L_237_98_2:
        cmpl    $0, conditions+100
        je     .L_237_98_4
        jmp    .L_237_98_5

.L_237_98_3:
        cmpl    $0, conditions+104
        je     .L_237_98_1
        jmp    .L_237_98_6

.L_237_98_4:
        cmpl    $0, conditions+108
        je     .L_237_98_3
        jmp    .L_237_98_6

.L_237_98_5:
        cmpl    $0, conditions+112
        je     .L_237_98_4
        jmp    .L_237_98_6

.L_237_98_6:
        pushl   $.LC_6
        calll   puts
        addl    $4, %esp
        jmp     .L_237_98_1

.L_237_98_FE1:
        .size   test_4_blocks_1_targets_direct_variant_98, .-test_4_blocks_1_targets_direct_variant_98

        .type   test_4_blocks_1_targets_direct_variant_99, @function
test_4_blocks_1_targets_direct_variant_99:
.L_238_99_0:
        jmp .L_238_99_2
.L_238_99_1:
        pushl   $.LC_ret
        calll   puts
        addl    $4, %esp
        movl    $0, %eax
        ret        
        
.L_238_99_2:
        cmpl    $0, conditions+100
        je     .L_238_99_4
        jmp    .L_238_99_5

.L_238_99_3:
        cmpl    $0, conditions+104
        je     .L_238_99_1
        jmp    .L_238_99_6

.L_238_99_4:
        cmpl    $0, conditions+108
        je     .L_238_99_3
        jmp    .L_238_99_6

.L_238_99_5:
        cmpl    $0, conditions+112
        je     .L_238_99_1
        jmp    .L_238_99_3

.L_238_99_6:
        pushl   $.LC_6
        calll   puts
        addl    $4, %esp
        jmp     .L_238_99_1

.L_238_99_FE1:
        .size   test_4_blocks_1_targets_direct_variant_99, .-test_4_blocks_1_targets_direct_variant_99

        .type   test_4_blocks_1_targets_direct_variant_100, @function
test_4_blocks_1_targets_direct_variant_100:
.L_239_100_0:
        jmp .L_239_100_2
.L_239_100_1:
        pushl   $.LC_ret
        calll   puts
        addl    $4, %esp
        movl    $0, %eax
        ret        
        
.L_239_100_2:
        cmpl    $0, conditions+100
        je     .L_239_100_4
        jmp    .L_239_100_5

.L_239_100_3:
        cmpl    $0, conditions+104
        je     .L_239_100_1
        jmp    .L_239_100_6

.L_239_100_4:
        cmpl    $0, conditions+108
        je     .L_239_100_3
        jmp    .L_239_100_6

.L_239_100_5:
        cmpl    $0, conditions+112
        je     .L_239_100_1
        jmp    .L_239_100_4

.L_239_100_6:
        pushl   $.LC_6
        calll   puts
        addl    $4, %esp
        jmp     .L_239_100_1

.L_239_100_FE1:
        .size   test_4_blocks_1_targets_direct_variant_100, .-test_4_blocks_1_targets_direct_variant_100

        .type   test_4_blocks_1_targets_direct_variant_101, @function
test_4_blocks_1_targets_direct_variant_101:
.L_240_101_0:
        jmp .L_240_101_2
.L_240_101_1:
        pushl   $.LC_ret
        calll   puts
        addl    $4, %esp
        movl    $0, %eax
        ret        
        
.L_240_101_2:
        cmpl    $0, conditions+100
        je     .L_240_101_4
        jmp    .L_240_101_5

.L_240_101_3:
        cmpl    $0, conditions+104
        je     .L_240_101_1
        jmp    .L_240_101_6

.L_240_101_4:
        cmpl    $0, conditions+108
        je     .L_240_101_3
        jmp    .L_240_101_6

.L_240_101_5:
        cmpl    $0, conditions+112
        je     .L_240_101_1
        jmp    .L_240_101_6

.L_240_101_6:
        pushl   $.LC_6
        calll   puts
        addl    $4, %esp
        jmp     .L_240_101_1

.L_240_101_FE1:
        .size   test_4_blocks_1_targets_direct_variant_101, .-test_4_blocks_1_targets_direct_variant_101

        .type   test_4_blocks_1_targets_direct_variant_102, @function
test_4_blocks_1_targets_direct_variant_102:
.L_241_102_0:
        jmp .L_241_102_2
.L_241_102_1:
        pushl   $.LC_ret
        calll   puts
        addl    $4, %esp
        movl    $0, %eax
        ret        
        
.L_241_102_2:
        cmpl    $0, conditions+100
        je     .L_241_102_4
        jmp    .L_241_102_5

.L_241_102_3:
        cmpl    $0, conditions+104
        je     .L_241_102_1
        jmp    .L_241_102_6

.L_241_102_4:
        cmpl    $0, conditions+108
        je     .L_241_102_5
        jmp    .L_241_102_6

.L_241_102_5:
        cmpl    $0, conditions+112
        je     .L_241_102_3
        jmp    .L_241_102_6

.L_241_102_6:
        pushl   $.LC_6
        calll   puts
        addl    $4, %esp
        jmp     .L_241_102_1

.L_241_102_FE1:
        .size   test_4_blocks_1_targets_direct_variant_102, .-test_4_blocks_1_targets_direct_variant_102

        .type   test_4_blocks_1_targets_direct_variant_103, @function
test_4_blocks_1_targets_direct_variant_103:
.L_242_103_0:
        jmp .L_242_103_2
.L_242_103_1:
        pushl   $.LC_ret
        calll   puts
        addl    $4, %esp
        movl    $0, %eax
        ret        
        
.L_242_103_2:
        cmpl    $0, conditions+100
        je     .L_242_103_4
        jmp    .L_242_103_5

.L_242_103_3:
        cmpl    $0, conditions+104
        je     .L_242_103_1
        jmp    .L_242_103_6

.L_242_103_4:
        cmpl    $0, conditions+108
        je     .L_242_103_5
        jmp    .L_242_103_6

.L_242_103_5:
        cmpl    $0, conditions+112
        je     .L_242_103_1
        jmp    .L_242_103_3

.L_242_103_6:
        pushl   $.LC_6
        calll   puts
        addl    $4, %esp
        jmp     .L_242_103_1

.L_242_103_FE1:
        .size   test_4_blocks_1_targets_direct_variant_103, .-test_4_blocks_1_targets_direct_variant_103

        .type   test_4_blocks_1_targets_direct_variant_104, @function
test_4_blocks_1_targets_direct_variant_104:
.L_243_104_0:
        jmp .L_243_104_2
.L_243_104_1:
        pushl   $.LC_ret
        calll   puts
        addl    $4, %esp
        movl    $0, %eax
        ret        
        
.L_243_104_2:
        cmpl    $0, conditions+100
        je     .L_243_104_4
        jmp    .L_243_104_5

.L_243_104_3:
        cmpl    $0, conditions+104
        je     .L_243_104_1
        jmp    .L_243_104_6

.L_243_104_4:
        cmpl    $0, conditions+108
        je     .L_243_104_1
        jmp    .L_243_104_3

.L_243_104_5:
        cmpl    $0, conditions+112
        je     .L_243_104_3
        jmp    .L_243_104_4

.L_243_104_6:
        pushl   $.LC_6
        calll   puts
        addl    $4, %esp
        jmp     .L_243_104_1

.L_243_104_FE1:
        .size   test_4_blocks_1_targets_direct_variant_104, .-test_4_blocks_1_targets_direct_variant_104

        .type   test_4_blocks_1_targets_direct_variant_105, @function
test_4_blocks_1_targets_direct_variant_105:
.L_244_105_0:
        jmp .L_244_105_2
.L_244_105_1:
        pushl   $.LC_ret
        calll   puts
        addl    $4, %esp
        movl    $0, %eax
        ret        
        
.L_244_105_2:
        cmpl    $0, conditions+100
        je     .L_244_105_4
        jmp    .L_244_105_5

.L_244_105_3:
        cmpl    $0, conditions+104
        je     .L_244_105_1
        jmp    .L_244_105_6

.L_244_105_4:
        cmpl    $0, conditions+108
        je     .L_244_105_1
        jmp    .L_244_105_3

.L_244_105_5:
        cmpl    $0, conditions+112
        je     .L_244_105_3
        jmp    .L_244_105_6

.L_244_105_6:
        pushl   $.LC_6
        calll   puts
        addl    $4, %esp
        jmp     .L_244_105_1

.L_244_105_FE1:
        .size   test_4_blocks_1_targets_direct_variant_105, .-test_4_blocks_1_targets_direct_variant_105

        .type   test_4_blocks_1_targets_direct_variant_106, @function
test_4_blocks_1_targets_direct_variant_106:
.L_245_106_0:
        jmp .L_245_106_2
.L_245_106_1:
        pushl   $.LC_ret
        calll   puts
        addl    $4, %esp
        movl    $0, %eax
        ret        
        
.L_245_106_2:
        cmpl    $0, conditions+100
        je     .L_245_106_4
        jmp    .L_245_106_5

.L_245_106_3:
        cmpl    $0, conditions+104
        je     .L_245_106_1
        jmp    .L_245_106_6

.L_245_106_4:
        cmpl    $0, conditions+108
        je     .L_245_106_1
        jmp    .L_245_106_3

.L_245_106_5:
        cmpl    $0, conditions+112
        je     .L_245_106_4
        jmp    .L_245_106_6

.L_245_106_6:
        pushl   $.LC_6
        calll   puts
        addl    $4, %esp
        jmp     .L_245_106_1

.L_245_106_FE1:
        .size   test_4_blocks_1_targets_direct_variant_106, .-test_4_blocks_1_targets_direct_variant_106

        .type   test_4_blocks_1_targets_direct_variant_107, @function
test_4_blocks_1_targets_direct_variant_107:
.L_246_107_0:
        jmp .L_246_107_2
.L_246_107_1:
        pushl   $.LC_ret
        calll   puts
        addl    $4, %esp
        movl    $0, %eax
        ret        
        
.L_246_107_2:
        cmpl    $0, conditions+100
        je     .L_246_107_4
        jmp    .L_246_107_5

.L_246_107_3:
        cmpl    $0, conditions+104
        je     .L_246_107_1
        jmp    .L_246_107_6

.L_246_107_4:
        cmpl    $0, conditions+108
        je     .L_246_107_1
        jmp    .L_246_107_3

.L_246_107_5:
        cmpl    $0, conditions+112
        je     .L_246_107_1
        jmp    .L_246_107_3

.L_246_107_6:
        pushl   $.LC_6
        calll   puts
        addl    $4, %esp
        jmp     .L_246_107_1

.L_246_107_FE1:
        .size   test_4_blocks_1_targets_direct_variant_107, .-test_4_blocks_1_targets_direct_variant_107

        .type   test_4_blocks_1_targets_direct_variant_108, @function
test_4_blocks_1_targets_direct_variant_108:
.L_247_108_0:
        jmp .L_247_108_2
.L_247_108_1:
        pushl   $.LC_ret
        calll   puts
        addl    $4, %esp
        movl    $0, %eax
        ret        
        
.L_247_108_2:
        cmpl    $0, conditions+100
        je     .L_247_108_4
        jmp    .L_247_108_5

.L_247_108_3:
        cmpl    $0, conditions+104
        je     .L_247_108_1
        jmp    .L_247_108_6

.L_247_108_4:
        cmpl    $0, conditions+108
        je     .L_247_108_1
        jmp    .L_247_108_3

.L_247_108_5:
        cmpl    $0, conditions+112
        je     .L_247_108_1
        jmp    .L_247_108_4

.L_247_108_6:
        pushl   $.LC_6
        calll   puts
        addl    $4, %esp
        jmp     .L_247_108_1

.L_247_108_FE1:
        .size   test_4_blocks_1_targets_direct_variant_108, .-test_4_blocks_1_targets_direct_variant_108

        .type   test_4_blocks_1_targets_direct_variant_109, @function
test_4_blocks_1_targets_direct_variant_109:
.L_248_109_0:
        jmp .L_248_109_2
.L_248_109_1:
        pushl   $.LC_ret
        calll   puts
        addl    $4, %esp
        movl    $0, %eax
        ret        
        
.L_248_109_2:
        cmpl    $0, conditions+100
        je     .L_248_109_4
        jmp    .L_248_109_5

.L_248_109_3:
        cmpl    $0, conditions+104
        je     .L_248_109_1
        jmp    .L_248_109_6

.L_248_109_4:
        cmpl    $0, conditions+108
        je     .L_248_109_1
        jmp    .L_248_109_3

.L_248_109_5:
        cmpl    $0, conditions+112
        je     .L_248_109_1
        jmp    .L_248_109_6

.L_248_109_6:
        pushl   $.LC_6
        calll   puts
        addl    $4, %esp
        jmp     .L_248_109_1

.L_248_109_FE1:
        .size   test_4_blocks_1_targets_direct_variant_109, .-test_4_blocks_1_targets_direct_variant_109

        .type   test_4_blocks_1_targets_direct_variant_110, @function
test_4_blocks_1_targets_direct_variant_110:
.L_249_110_0:
        jmp .L_249_110_2
.L_249_110_1:
        pushl   $.LC_ret
        calll   puts
        addl    $4, %esp
        movl    $0, %eax
        ret        
        
.L_249_110_2:
        cmpl    $0, conditions+100
        je     .L_249_110_4
        jmp    .L_249_110_5

.L_249_110_3:
        cmpl    $0, conditions+104
        je     .L_249_110_1
        jmp    .L_249_110_6

.L_249_110_4:
        cmpl    $0, conditions+108
        je     .L_249_110_1
        jmp    .L_249_110_5

.L_249_110_5:
        cmpl    $0, conditions+112
        je     .L_249_110_3
        jmp    .L_249_110_6

.L_249_110_6:
        pushl   $.LC_6
        calll   puts
        addl    $4, %esp
        jmp     .L_249_110_1

.L_249_110_FE1:
        .size   test_4_blocks_1_targets_direct_variant_110, .-test_4_blocks_1_targets_direct_variant_110

        .type   test_4_blocks_1_targets_direct_variant_111, @function
test_4_blocks_1_targets_direct_variant_111:
.L_250_111_0:
        jmp .L_250_111_2
.L_250_111_1:
        pushl   $.LC_ret
        calll   puts
        addl    $4, %esp
        movl    $0, %eax
        ret        
        
.L_250_111_2:
        cmpl    $0, conditions+100
        je     .L_250_111_4
        jmp    .L_250_111_5

.L_250_111_3:
        cmpl    $0, conditions+104
        je     .L_250_111_1
        jmp    .L_250_111_6

.L_250_111_4:
        cmpl    $0, conditions+108
        je     .L_250_111_1
        jmp    .L_250_111_5

.L_250_111_5:
        cmpl    $0, conditions+112
        je     .L_250_111_1
        jmp    .L_250_111_3

.L_250_111_6:
        pushl   $.LC_6
        calll   puts
        addl    $4, %esp
        jmp     .L_250_111_1

.L_250_111_FE1:
        .size   test_4_blocks_1_targets_direct_variant_111, .-test_4_blocks_1_targets_direct_variant_111

        .type   test_4_blocks_1_targets_direct_variant_112, @function
test_4_blocks_1_targets_direct_variant_112:
.L_251_112_0:
        jmp .L_251_112_2
.L_251_112_1:
        pushl   $.LC_ret
        calll   puts
        addl    $4, %esp
        movl    $0, %eax
        ret        
        
.L_251_112_2:
        cmpl    $0, conditions+100
        je     .L_251_112_4
        jmp    .L_251_112_5

.L_251_112_3:
        cmpl    $0, conditions+104
        je     .L_251_112_1
        jmp    .L_251_112_6

.L_251_112_4:
        cmpl    $0, conditions+108
        je     .L_251_112_1
        jmp    .L_251_112_6

.L_251_112_5:
        cmpl    $0, conditions+112
        je     .L_251_112_3
        jmp    .L_251_112_4

.L_251_112_6:
        pushl   $.LC_6
        calll   puts
        addl    $4, %esp
        jmp     .L_251_112_1

.L_251_112_FE1:
        .size   test_4_blocks_1_targets_direct_variant_112, .-test_4_blocks_1_targets_direct_variant_112

        .type   test_4_blocks_1_targets_direct_variant_113, @function
test_4_blocks_1_targets_direct_variant_113:
.L_252_113_0:
        jmp .L_252_113_2
.L_252_113_1:
        pushl   $.LC_ret
        calll   puts
        addl    $4, %esp
        movl    $0, %eax
        ret        
        
.L_252_113_2:
        cmpl    $0, conditions+100
        je     .L_252_113_4
        jmp    .L_252_113_5

.L_252_113_3:
        cmpl    $0, conditions+104
        je     .L_252_113_1
        jmp    .L_252_113_6

.L_252_113_4:
        cmpl    $0, conditions+108
        je     .L_252_113_1
        jmp    .L_252_113_6

.L_252_113_5:
        cmpl    $0, conditions+112
        je     .L_252_113_3
        jmp    .L_252_113_6

.L_252_113_6:
        pushl   $.LC_6
        calll   puts
        addl    $4, %esp
        jmp     .L_252_113_1

.L_252_113_FE1:
        .size   test_4_blocks_1_targets_direct_variant_113, .-test_4_blocks_1_targets_direct_variant_113

        .type   test_4_blocks_1_targets_direct_variant_114, @function
test_4_blocks_1_targets_direct_variant_114:
.L_253_114_0:
        jmp .L_253_114_2
.L_253_114_1:
        pushl   $.LC_ret
        calll   puts
        addl    $4, %esp
        movl    $0, %eax
        ret        
        
.L_253_114_2:
        cmpl    $0, conditions+100
        je     .L_253_114_4
        jmp    .L_253_114_5

.L_253_114_3:
        cmpl    $0, conditions+104
        je     .L_253_114_1
        jmp    .L_253_114_6

.L_253_114_4:
        cmpl    $0, conditions+108
        je     .L_253_114_1
        jmp    .L_253_114_6

.L_253_114_5:
        cmpl    $0, conditions+112
        je     .L_253_114_1
        jmp    .L_253_114_3

.L_253_114_6:
        pushl   $.LC_6
        calll   puts
        addl    $4, %esp
        jmp     .L_253_114_1

.L_253_114_FE1:
        .size   test_4_blocks_1_targets_direct_variant_114, .-test_4_blocks_1_targets_direct_variant_114

        .type   test_4_blocks_1_targets_direct_variant_115, @function
test_4_blocks_1_targets_direct_variant_115:
.L_254_115_0:
        jmp .L_254_115_2
.L_254_115_1:
        pushl   $.LC_ret
        calll   puts
        addl    $4, %esp
        movl    $0, %eax
        ret        
        
.L_254_115_2:
        cmpl    $0, conditions+100
        je     .L_254_115_4
        jmp    .L_254_115_6

.L_254_115_3:
        cmpl    $0, conditions+104
        je     .L_254_115_5
        jmp    .L_254_115_6

.L_254_115_4:
        cmpl    $0, conditions+108
        je     .L_254_115_3
        jmp    .L_254_115_5

.L_254_115_5:
        cmpl    $0, conditions+112
        je     .L_254_115_1
        jmp    .L_254_115_6

.L_254_115_6:
        pushl   $.LC_6
        calll   puts
        addl    $4, %esp
        jmp     .L_254_115_1

.L_254_115_FE1:
        .size   test_4_blocks_1_targets_direct_variant_115, .-test_4_blocks_1_targets_direct_variant_115

        .type   test_4_blocks_1_targets_direct_variant_116, @function
test_4_blocks_1_targets_direct_variant_116:
.L_255_116_0:
        jmp .L_255_116_2
.L_255_116_1:
        pushl   $.LC_ret
        calll   puts
        addl    $4, %esp
        movl    $0, %eax
        ret        
        
.L_255_116_2:
        cmpl    $0, conditions+100
        je     .L_255_116_4
        jmp    .L_255_116_6

.L_255_116_3:
        cmpl    $0, conditions+104
        je     .L_255_116_5
        jmp    .L_255_116_6

.L_255_116_4:
        cmpl    $0, conditions+108
        je     .L_255_116_3
        jmp    .L_255_116_6

.L_255_116_5:
        cmpl    $0, conditions+112
        je     .L_255_116_1
        jmp    .L_255_116_6

.L_255_116_6:
        pushl   $.LC_6
        calll   puts
        addl    $4, %esp
        jmp     .L_255_116_1

.L_255_116_FE1:
        .size   test_4_blocks_1_targets_direct_variant_116, .-test_4_blocks_1_targets_direct_variant_116

        .type   test_4_blocks_1_targets_direct_variant_117, @function
test_4_blocks_1_targets_direct_variant_117:
.L_256_117_0:
        jmp .L_256_117_2
.L_256_117_1:
        pushl   $.LC_ret
        calll   puts
        addl    $4, %esp
        movl    $0, %eax
        ret        
        
.L_256_117_2:
        cmpl    $0, conditions+100
        je     .L_256_117_4
        jmp    .L_256_117_6

.L_256_117_3:
        cmpl    $0, conditions+104
        je     .L_256_117_5
        jmp    .L_256_117_6

.L_256_117_4:
        cmpl    $0, conditions+108
        je     .L_256_117_1
        jmp    .L_256_117_3

.L_256_117_5:
        cmpl    $0, conditions+112
        je     .L_256_117_1
        jmp    .L_256_117_6

.L_256_117_6:
        pushl   $.LC_6
        calll   puts
        addl    $4, %esp
        jmp     .L_256_117_1

.L_256_117_FE1:
        .size   test_4_blocks_1_targets_direct_variant_117, .-test_4_blocks_1_targets_direct_variant_117

        .type   test_4_blocks_1_targets_direct_variant_118, @function
test_4_blocks_1_targets_direct_variant_118:
.L_257_118_0:
        jmp .L_257_118_2
.L_257_118_1:
        pushl   $.LC_ret
        calll   puts
        addl    $4, %esp
        movl    $0, %eax
        ret        
        
.L_257_118_2:
        cmpl    $0, conditions+100
        je     .L_257_118_4
        jmp    .L_257_118_6

.L_257_118_3:
        cmpl    $0, conditions+104
        je     .L_257_118_1
        jmp    .L_257_118_5

.L_257_118_4:
        cmpl    $0, conditions+108
        je     .L_257_118_3
        jmp    .L_257_118_5

.L_257_118_5:
        cmpl    $0, conditions+112
        je     .L_257_118_1
        jmp    .L_257_118_6

.L_257_118_6:
        pushl   $.LC_6
        calll   puts
        addl    $4, %esp
        jmp     .L_257_118_1

.L_257_118_FE1:
        .size   test_4_blocks_1_targets_direct_variant_118, .-test_4_blocks_1_targets_direct_variant_118

        .type   test_4_blocks_1_targets_direct_variant_119, @function
test_4_blocks_1_targets_direct_variant_119:
.L_258_119_0:
        jmp .L_258_119_2
.L_258_119_1:
        pushl   $.LC_ret
        calll   puts
        addl    $4, %esp
        movl    $0, %eax
        ret        
        
.L_258_119_2:
        cmpl    $0, conditions+100
        je     .L_258_119_4
        jmp    .L_258_119_6

.L_258_119_3:
        cmpl    $0, conditions+104
        je     .L_258_119_1
        jmp    .L_258_119_5

.L_258_119_4:
        cmpl    $0, conditions+108
        je     .L_258_119_3
        jmp    .L_258_119_6

.L_258_119_5:
        cmpl    $0, conditions+112
        je     .L_258_119_1
        jmp    .L_258_119_6

.L_258_119_6:
        pushl   $.LC_6
        calll   puts
        addl    $4, %esp
        jmp     .L_258_119_1

.L_258_119_FE1:
        .size   test_4_blocks_1_targets_direct_variant_119, .-test_4_blocks_1_targets_direct_variant_119

        .type   test_4_blocks_1_targets_direct_variant_120, @function
test_4_blocks_1_targets_direct_variant_120:
.L_259_120_0:
        jmp .L_259_120_2
.L_259_120_1:
        pushl   $.LC_ret
        calll   puts
        addl    $4, %esp
        movl    $0, %eax
        ret        
        
.L_259_120_2:
        cmpl    $0, conditions+100
        je     .L_259_120_4
        jmp    .L_259_120_6

.L_259_120_3:
        cmpl    $0, conditions+104
        je     .L_259_120_1
        jmp    .L_259_120_5

.L_259_120_4:
        cmpl    $0, conditions+108
        je     .L_259_120_1
        jmp    .L_259_120_3

.L_259_120_5:
        cmpl    $0, conditions+112
        je     .L_259_120_1
        jmp    .L_259_120_6

.L_259_120_6:
        pushl   $.LC_6
        calll   puts
        addl    $4, %esp
        jmp     .L_259_120_1

.L_259_120_FE1:
        .size   test_4_blocks_1_targets_direct_variant_120, .-test_4_blocks_1_targets_direct_variant_120

        .type   test_4_blocks_1_targets_direct_variant_121, @function
test_4_blocks_1_targets_direct_variant_121:
.L_260_121_0:
        jmp .L_260_121_2
.L_260_121_1:
        pushl   $.LC_ret
        calll   puts
        addl    $4, %esp
        movl    $0, %eax
        ret        
        
.L_260_121_2:
        cmpl    $0, conditions+100
        je     .L_260_121_4
        jmp    .L_260_121_6

.L_260_121_3:
        cmpl    $0, conditions+104
        je     .L_260_121_1
        jmp    .L_260_121_6

.L_260_121_4:
        cmpl    $0, conditions+108
        je     .L_260_121_3
        jmp    .L_260_121_5

.L_260_121_5:
        cmpl    $0, conditions+112
        je     .L_260_121_3
        jmp    .L_260_121_6

.L_260_121_6:
        pushl   $.LC_6
        calll   puts
        addl    $4, %esp
        jmp     .L_260_121_1

.L_260_121_FE1:
        .size   test_4_blocks_1_targets_direct_variant_121, .-test_4_blocks_1_targets_direct_variant_121

        .type   test_4_blocks_1_targets_direct_variant_122, @function
test_4_blocks_1_targets_direct_variant_122:
.L_261_122_0:
        jmp .L_261_122_2
.L_261_122_1:
        pushl   $.LC_ret
        calll   puts
        addl    $4, %esp
        movl    $0, %eax
        ret        
        
.L_261_122_2:
        cmpl    $0, conditions+100
        je     .L_261_122_4
        jmp    .L_261_122_6

.L_261_122_3:
        cmpl    $0, conditions+104
        je     .L_261_122_1
        jmp    .L_261_122_6

.L_261_122_4:
        cmpl    $0, conditions+108
        je     .L_261_122_3
        jmp    .L_261_122_5

.L_261_122_5:
        cmpl    $0, conditions+112
        je     .L_261_122_1
        jmp    .L_261_122_3

.L_261_122_6:
        pushl   $.LC_6
        calll   puts
        addl    $4, %esp
        jmp     .L_261_122_1

.L_261_122_FE1:
        .size   test_4_blocks_1_targets_direct_variant_122, .-test_4_blocks_1_targets_direct_variant_122

        .type   test_4_blocks_1_targets_direct_variant_123, @function
test_4_blocks_1_targets_direct_variant_123:
.L_262_123_0:
        jmp .L_262_123_2
.L_262_123_1:
        pushl   $.LC_ret
        calll   puts
        addl    $4, %esp
        movl    $0, %eax
        ret        
        
.L_262_123_2:
        cmpl    $0, conditions+100
        je     .L_262_123_4
        jmp    .L_262_123_6

.L_262_123_3:
        cmpl    $0, conditions+104
        je     .L_262_123_1
        jmp    .L_262_123_6

.L_262_123_4:
        cmpl    $0, conditions+108
        je     .L_262_123_3
        jmp    .L_262_123_5

.L_262_123_5:
        cmpl    $0, conditions+112
        je     .L_262_123_1
        jmp    .L_262_123_6

.L_262_123_6:
        pushl   $.LC_6
        calll   puts
        addl    $4, %esp
        jmp     .L_262_123_1

.L_262_123_FE1:
        .size   test_4_blocks_1_targets_direct_variant_123, .-test_4_blocks_1_targets_direct_variant_123

        .type   test_4_blocks_1_targets_direct_variant_124, @function
test_4_blocks_1_targets_direct_variant_124:
.L_263_124_0:
        jmp .L_263_124_2
.L_263_124_1:
        pushl   $.LC_ret
        calll   puts
        addl    $4, %esp
        movl    $0, %eax
        ret        
        
.L_263_124_2:
        cmpl    $0, conditions+100
        je     .L_263_124_4
        jmp    .L_263_124_6

.L_263_124_3:
        cmpl    $0, conditions+104
        je     .L_263_124_1
        jmp    .L_263_124_6

.L_263_124_4:
        cmpl    $0, conditions+108
        je     .L_263_124_5
        jmp    .L_263_124_6

.L_263_124_5:
        cmpl    $0, conditions+112
        je     .L_263_124_3
        jmp    .L_263_124_6

.L_263_124_6:
        pushl   $.LC_6
        calll   puts
        addl    $4, %esp
        jmp     .L_263_124_1

.L_263_124_FE1:
        .size   test_4_blocks_1_targets_direct_variant_124, .-test_4_blocks_1_targets_direct_variant_124

        .type   test_4_blocks_1_targets_direct_variant_125, @function
test_4_blocks_1_targets_direct_variant_125:
.L_264_125_0:
        jmp .L_264_125_2
.L_264_125_1:
        pushl   $.LC_ret
        calll   puts
        addl    $4, %esp
        movl    $0, %eax
        ret        
        
.L_264_125_2:
        cmpl    $0, conditions+100
        je     .L_264_125_4
        jmp    .L_264_125_6

.L_264_125_3:
        cmpl    $0, conditions+104
        je     .L_264_125_1
        jmp    .L_264_125_6

.L_264_125_4:
        cmpl    $0, conditions+108
        je     .L_264_125_5
        jmp    .L_264_125_6

.L_264_125_5:
        cmpl    $0, conditions+112
        je     .L_264_125_1
        jmp    .L_264_125_3

.L_264_125_6:
        pushl   $.LC_6
        calll   puts
        addl    $4, %esp
        jmp     .L_264_125_1

.L_264_125_FE1:
        .size   test_4_blocks_1_targets_direct_variant_125, .-test_4_blocks_1_targets_direct_variant_125

        .type   test_4_blocks_1_targets_direct_variant_126, @function
test_4_blocks_1_targets_direct_variant_126:
.L_265_126_0:
        jmp .L_265_126_2
.L_265_126_1:
        pushl   $.LC_ret
        calll   puts
        addl    $4, %esp
        movl    $0, %eax
        ret        
        
.L_265_126_2:
        cmpl    $0, conditions+100
        je     .L_265_126_4
        jmp    .L_265_126_6

.L_265_126_3:
        cmpl    $0, conditions+104
        je     .L_265_126_1
        jmp    .L_265_126_6

.L_265_126_4:
        cmpl    $0, conditions+108
        je     .L_265_126_1
        jmp    .L_265_126_5

.L_265_126_5:
        cmpl    $0, conditions+112
        je     .L_265_126_3
        jmp    .L_265_126_6

.L_265_126_6:
        pushl   $.LC_6
        calll   puts
        addl    $4, %esp
        jmp     .L_265_126_1

.L_265_126_FE1:
        .size   test_4_blocks_1_targets_direct_variant_126, .-test_4_blocks_1_targets_direct_variant_126

        .type   test_4_blocks_1_targets_direct_variant_127, @function
test_4_blocks_1_targets_direct_variant_127:
.L_266_127_0:
        jmp .L_266_127_2
.L_266_127_1:
        pushl   $.LC_ret
        calll   puts
        addl    $4, %esp
        movl    $0, %eax
        ret        
        
.L_266_127_2:
        cmpl    $0, conditions+100
        je     .L_266_127_4
        jmp    .L_266_127_6

.L_266_127_3:
        cmpl    $0, conditions+104
        je     .L_266_127_1
        jmp    .L_266_127_6

.L_266_127_4:
        cmpl    $0, conditions+108
        je     .L_266_127_1
        jmp    .L_266_127_5

.L_266_127_5:
        cmpl    $0, conditions+112
        je     .L_266_127_1
        jmp    .L_266_127_3

.L_266_127_6:
        pushl   $.LC_6
        calll   puts
        addl    $4, %esp
        jmp     .L_266_127_1

.L_266_127_FE1:
        .size   test_4_blocks_1_targets_direct_variant_127, .-test_4_blocks_1_targets_direct_variant_127

        .type   test_4_blocks_1_targets_direct_variant_128, @function
test_4_blocks_1_targets_direct_variant_128:
.L_267_128_0:
        jmp .L_267_128_2
.L_267_128_1:
        pushl   $.LC_ret
        calll   puts
        addl    $4, %esp
        movl    $0, %eax
        ret        
        
.L_267_128_2:
        cmpl    $0, conditions+100
        je     .L_267_128_5
        jmp    .L_267_128_6

.L_267_128_3:
        cmpl    $0, conditions+104
        je     .L_267_128_4
        jmp    .L_267_128_6

.L_267_128_4:
        cmpl    $0, conditions+108
        je     .L_267_128_1
        jmp    .L_267_128_6

.L_267_128_5:
        cmpl    $0, conditions+112
        je     .L_267_128_3
        jmp    .L_267_128_4

.L_267_128_6:
        pushl   $.LC_6
        calll   puts
        addl    $4, %esp
        jmp     .L_267_128_1

.L_267_128_FE1:
        .size   test_4_blocks_1_targets_direct_variant_128, .-test_4_blocks_1_targets_direct_variant_128

        .type   test_4_blocks_1_targets_direct_variant_129, @function
test_4_blocks_1_targets_direct_variant_129:
.L_268_129_0:
        jmp .L_268_129_2
.L_268_129_1:
        pushl   $.LC_ret
        calll   puts
        addl    $4, %esp
        movl    $0, %eax
        ret        
        
.L_268_129_2:
        cmpl    $0, conditions+100
        je     .L_268_129_5
        jmp    .L_268_129_6

.L_268_129_3:
        cmpl    $0, conditions+104
        je     .L_268_129_4
        jmp    .L_268_129_6

.L_268_129_4:
        cmpl    $0, conditions+108
        je     .L_268_129_1
        jmp    .L_268_129_6

.L_268_129_5:
        cmpl    $0, conditions+112
        je     .L_268_129_3
        jmp    .L_268_129_6

.L_268_129_6:
        pushl   $.LC_6
        calll   puts
        addl    $4, %esp
        jmp     .L_268_129_1

.L_268_129_FE1:
        .size   test_4_blocks_1_targets_direct_variant_129, .-test_4_blocks_1_targets_direct_variant_129

        .type   test_4_blocks_1_targets_direct_variant_130, @function
test_4_blocks_1_targets_direct_variant_130:
.L_269_130_0:
        jmp .L_269_130_2
.L_269_130_1:
        pushl   $.LC_ret
        calll   puts
        addl    $4, %esp
        movl    $0, %eax
        ret        
        
.L_269_130_2:
        cmpl    $0, conditions+100
        je     .L_269_130_5
        jmp    .L_269_130_6

.L_269_130_3:
        cmpl    $0, conditions+104
        je     .L_269_130_4
        jmp    .L_269_130_6

.L_269_130_4:
        cmpl    $0, conditions+108
        je     .L_269_130_1
        jmp    .L_269_130_6

.L_269_130_5:
        cmpl    $0, conditions+112
        je     .L_269_130_1
        jmp    .L_269_130_3

.L_269_130_6:
        pushl   $.LC_6
