// _init
// Return size: 0
void _init()
_init_entry:
_init_exit:


// _start
// Return size: 0
void _start()
_start_entry:
_start_exit:


// call_weak_fn
// Return size: 0
void call_weak_fn()
call_weak_fn_entry:
call_weak_fn_exit:


// deregister_tm_clones
// Return size: 0
void deregister_tm_clones()
deregister_tm_clones_entry:
deregister_tm_clones_exit:


// register_tm_clones
// Return size: 0
void register_tm_clones()
register_tm_clones_entry:
register_tm_clones_exit:


// __do_global_dtors_aux
// Return size: 0
void __do_global_dtors_aux()
__do_global_dtors_aux_entry:
__do_global_dtors_aux_exit:


// frame_dummy
// Return size: 0
void frame_dummy()
frame_dummy_entry:
frame_dummy_exit:


// _Z1fRSt6vectorIiSaIiEERKS1_
// Return size: 0
void _Z1fRSt6vectorIiSaIiEERKS1_()
_Z1fRSt6vectorIiSaIiEERKS1__entry:
_Z1fRSt6vectorIiSaIiEERKS1__exit:


// main
// Return size: 0
void main()
main_entry:
main_exit:


// _ZnwjPv
// Return size: 0
void _ZnwjPv()
_ZnwjPv_entry:
_ZnwjPv_exit:


// _ZNSt6vectorIiSaIiEE3endEv
// Return size: 0
void _ZNSt6vectorIiSaIiEE3endEv()
_ZNSt6vectorIiSaIiEE3endEv_entry:
_ZNSt6vectorIiSaIiEE3endEv_exit:


// _ZNKSt6vectorIiSaIiEE5beginEv
// Return size: 0
void _ZNKSt6vectorIiSaIiEE5beginEv()
_ZNKSt6vectorIiSaIiEE5beginEv_entry:
_ZNKSt6vectorIiSaIiEE5beginEv_exit:


// _ZNKSt6vectorIiSaIiEE3endEv
// Return size: 0
void _ZNKSt6vectorIiSaIiEE3endEv()
_ZNKSt6vectorIiSaIiEE3endEv_entry:
_ZNKSt6vectorIiSaIiEE3endEv_exit:


// _ZN9__gnu_cxx17__normal_iteratorIPKiSt6vectorIiSaIiEEEC1IPiEERKNS0_IT_NS_11__enable_ifIXsrSt10__are_sameIS9_S8_E7__valueES5_E6__typeEEE
// Return size: 0
void _ZN9__gnu_cxx17__normal_iteratorIPKiSt6vectorIiSaIiEEEC1IPiEERKNS0_IT_NS_11__enable_ifIXsrSt10__are_sameIS9_S8_E7__valueES5_E6__typeEEE()
_ZN9__gnu_cxx17__normal_iteratorIPKiSt6vectorIiSaIiEEEC1IPiEERKNS0_IT_NS_11__enable_ifIXsrSt10__are_sameIS9_S8_E7__valueES5_E6__typeEEE_entry:
_ZN9__gnu_cxx17__normal_iteratorIPKiSt6vectorIiSaIiEEEC1IPiEERKNS0_IT_NS_11__enable_ifIXsrSt10__are_sameIS9_S8_E7__valueES5_E6__typeEEE_exit:


// _ZNSt6vectorIiSaIiEE6insertIN9__gnu_cxx17__normal_iteratorIPKiS1_EEvEENS4_IPiS1_EES7_T_SA_
// Return size: 0
void _ZNSt6vectorIiSaIiEE6insertIN9__gnu_cxx17__normal_iteratorIPKiS1_EEvEENS4_IPiS1_EES7_T_SA_()
_ZNSt6vectorIiSaIiEE6insertIN9__gnu_cxx17__normal_iteratorIPKiS1_EEvEENS4_IPiS1_EES7_T_SA__entry:
_ZNSt6vectorIiSaIiEE6insertIN9__gnu_cxx17__normal_iteratorIPKiS1_EEvEENS4_IPiS1_EES7_T_SA__exit:


// _ZN9__gnu_cxx17__normal_iteratorIPiSt6vectorIiSaIiEEEC2ERKS1_
// Return size: 0
void _ZN9__gnu_cxx17__normal_iteratorIPiSt6vectorIiSaIiEEEC2ERKS1_()
_ZN9__gnu_cxx17__normal_iteratorIPiSt6vectorIiSaIiEEEC2ERKS1__entry:
_ZN9__gnu_cxx17__normal_iteratorIPiSt6vectorIiSaIiEEEC2ERKS1__exit:


// _ZN9__gnu_cxx17__normal_iteratorIPKiSt6vectorIiSaIiEEEC1ERKS2_
// Return size: 0
void _ZN9__gnu_cxx17__normal_iteratorIPKiSt6vectorIiSaIiEEEC1ERKS2_()
_ZN9__gnu_cxx17__normal_iteratorIPKiSt6vectorIiSaIiEEEC1ERKS2__entry:
_ZN9__gnu_cxx17__normal_iteratorIPKiSt6vectorIiSaIiEEEC1ERKS2__exit:


// _ZNK9__gnu_cxx17__normal_iteratorIPiSt6vectorIiSaIiEEE4baseEv
// Return size: 0
void _ZNK9__gnu_cxx17__normal_iteratorIPiSt6vectorIiSaIiEEE4baseEv()
_ZNK9__gnu_cxx17__normal_iteratorIPiSt6vectorIiSaIiEEE4baseEv_entry:
_ZNK9__gnu_cxx17__normal_iteratorIPiSt6vectorIiSaIiEEE4baseEv_exit:


// _ZNKSt6vectorIiSaIiEE6cbeginEv
// Return size: 0
void _ZNKSt6vectorIiSaIiEE6cbeginEv()
_ZNKSt6vectorIiSaIiEE6cbeginEv_entry:
_ZNKSt6vectorIiSaIiEE6cbeginEv_exit:


// _ZN9__gnu_cxxmiIPKiSt6vectorIiSaIiEEEENS_17__normal_iteratorIT_T0_E15difference_typeERKS9_SC_
// Return size: 0
void _ZN9__gnu_cxxmiIPKiSt6vectorIiSaIiEEEENS_17__normal_iteratorIT_T0_E15difference_typeERKS9_SC_()
_ZN9__gnu_cxxmiIPKiSt6vectorIiSaIiEEEENS_17__normal_iteratorIT_T0_E15difference_typeERKS9_SC__entry:
_ZN9__gnu_cxxmiIPKiSt6vectorIiSaIiEEEENS_17__normal_iteratorIT_T0_E15difference_typeERKS9_SC__exit:


// _ZNSt6vectorIiSaIiEE5beginEv
// Return size: 0
void _ZNSt6vectorIiSaIiEE5beginEv()
_ZNSt6vectorIiSaIiEE5beginEv_entry:
_ZNSt6vectorIiSaIiEE5beginEv_exit:


// _ZNK9__gnu_cxx17__normal_iteratorIPiSt6vectorIiSaIiEEEplEi
// Return size: 0
void _ZNK9__gnu_cxx17__normal_iteratorIPiSt6vectorIiSaIiEEEplEi()
_ZNK9__gnu_cxx17__normal_iteratorIPiSt6vectorIiSaIiEEEplEi_entry:
_ZNK9__gnu_cxx17__normal_iteratorIPiSt6vectorIiSaIiEEEplEi_exit:


// _ZNSt6vectorIiSaIiEE18_M_insert_dispatchIN9__gnu_cxx17__normal_iteratorIPKiS1_EEEEvNS4_IPiS1_EET_SA_St12__false_type
// Return size: 0
void _ZNSt6vectorIiSaIiEE18_M_insert_dispatchIN9__gnu_cxx17__normal_iteratorIPKiS1_EEEEvNS4_IPiS1_EET_SA_St12__false_type()
_ZNSt6vectorIiSaIiEE18_M_insert_dispatchIN9__gnu_cxx17__normal_iteratorIPKiS1_EEEEvNS4_IPiS1_EET_SA_St12__false_type_entry:
_ZNSt6vectorIiSaIiEE18_M_insert_dispatchIN9__gnu_cxx17__normal_iteratorIPKiS1_EEEEvNS4_IPiS1_EET_SA_St12__false_type_exit:


// _ZNK9__gnu_cxx17__normal_iteratorIPKiSt6vectorIiSaIiEEE4baseEv
// Return size: 0
void _ZNK9__gnu_cxx17__normal_iteratorIPKiSt6vectorIiSaIiEEE4baseEv()
_ZNK9__gnu_cxx17__normal_iteratorIPKiSt6vectorIiSaIiEEE4baseEv_entry:
_ZNK9__gnu_cxx17__normal_iteratorIPKiSt6vectorIiSaIiEEE4baseEv_exit:


// _ZNSt6vectorIiSaIiEE15_M_range_insertIN9__gnu_cxx17__normal_iteratorIPKiS1_EEEEvNS4_IPiS1_EET_SA_St20forward_iterator_tag
// Return size: 0
void _ZNSt6vectorIiSaIiEE15_M_range_insertIN9__gnu_cxx17__normal_iteratorIPKiS1_EEEEvNS4_IPiS1_EET_SA_St20forward_iterator_tag()
_ZNSt6vectorIiSaIiEE15_M_range_insertIN9__gnu_cxx17__normal_iteratorIPKiS1_EEEEvNS4_IPiS1_EET_SA_St20forward_iterator_tag_entry:
_ZNSt6vectorIiSaIiEE15_M_range_insertIN9__gnu_cxx17__normal_iteratorIPKiS1_EEEEvNS4_IPiS1_EET_SA_St20forward_iterator_tag_exit:


// _ZN9__gnu_cxxneIPKiSt6vectorIiSaIiEEEEbRKNS_17__normal_iteratorIT_T0_EESB_
// Return size: 0
void _ZN9__gnu_cxxneIPKiSt6vectorIiSaIiEEEEbRKNS_17__normal_iteratorIT_T0_EESB_()
_ZN9__gnu_cxxneIPKiSt6vectorIiSaIiEEEEbRKNS_17__normal_iteratorIT_T0_EESB__entry:
_ZN9__gnu_cxxneIPKiSt6vectorIiSaIiEEEEbRKNS_17__normal_iteratorIT_T0_EESB__exit:


// _ZSt8distanceIN9__gnu_cxx17__normal_iteratorIPKiSt6vectorIiSaIiEEEEENSt15iterator_traitsIT_E15difference_typeES9_S9_
// Return size: 0
void _ZSt8distanceIN9__gnu_cxx17__normal_iteratorIPKiSt6vectorIiSaIiEEEEENSt15iterator_traitsIT_E15difference_typeES9_S9_()
_ZSt8distanceIN9__gnu_cxx17__normal_iteratorIPKiSt6vectorIiSaIiEEEEENSt15iterator_traitsIT_E15difference_typeES9_S9__entry:
_ZSt8distanceIN9__gnu_cxx17__normal_iteratorIPKiSt6vectorIiSaIiEEEEENSt15iterator_traitsIT_E15difference_typeES9_S9__exit:


// _ZN9__gnu_cxxmiIPiSt6vectorIiSaIiEEEENS_17__normal_iteratorIT_T0_E15difference_typeERKS8_SB_
// Return size: 0
void _ZN9__gnu_cxxmiIPiSt6vectorIiSaIiEEEENS_17__normal_iteratorIT_T0_E15difference_typeERKS8_SB_()
_ZN9__gnu_cxxmiIPiSt6vectorIiSaIiEEEENS_17__normal_iteratorIT_T0_E15difference_typeERKS8_SB__entry:
_ZN9__gnu_cxxmiIPiSt6vectorIiSaIiEEEENS_17__normal_iteratorIT_T0_E15difference_typeERKS8_SB__exit:


// _ZNSt12_Vector_baseIiSaIiEE19_M_get_Tp_allocatorEv
// Return size: 0
void _ZNSt12_Vector_baseIiSaIiEE19_M_get_Tp_allocatorEv()
_ZNSt12_Vector_baseIiSaIiEE19_M_get_Tp_allocatorEv_entry:
_ZNSt12_Vector_baseIiSaIiEE19_M_get_Tp_allocatorEv_exit:


// _ZSt22__uninitialized_move_aIPiS0_SaIiEET0_T_S3_S2_RT1_
// Return size: 0
void _ZSt22__uninitialized_move_aIPiS0_SaIiEET0_T_S3_S2_RT1_()
_ZSt22__uninitialized_move_aIPiS0_SaIiEET0_T_S3_S2_RT1__entry:
_ZSt22__uninitialized_move_aIPiS0_SaIiEET0_T_S3_S2_RT1__exit:


// _ZSt13move_backwardIPiS0_ET0_T_S2_S1_
// Return size: 0
void _ZSt13move_backwardIPiS0_ET0_T_S2_S1_()
_ZSt13move_backwardIPiS0_ET0_T_S2_S1__entry:
_ZSt13move_backwardIPiS0_ET0_T_S2_S1__exit:


// _ZSt4copyIN9__gnu_cxx17__normal_iteratorIPKiSt6vectorIiSaIiEEEENS1_IPiS6_EEET0_T_SB_SA_
// Return size: 0
void _ZSt4copyIN9__gnu_cxx17__normal_iteratorIPKiSt6vectorIiSaIiEEEENS1_IPiS6_EEET0_T_SB_SA_()
_ZSt4copyIN9__gnu_cxx17__normal_iteratorIPKiSt6vectorIiSaIiEEEENS1_IPiS6_EEET0_T_SB_SA__entry:
_ZSt4copyIN9__gnu_cxx17__normal_iteratorIPKiSt6vectorIiSaIiEEEENS1_IPiS6_EEET0_T_SB_SA__exit:


// _ZSt7advanceIN9__gnu_cxx17__normal_iteratorIPKiSt6vectorIiSaIiEEEEjEvRT_T0_
// Return size: 0
void _ZSt7advanceIN9__gnu_cxx17__normal_iteratorIPKiSt6vectorIiSaIiEEEEjEvRT_T0_()
_ZSt7advanceIN9__gnu_cxx17__normal_iteratorIPKiSt6vectorIiSaIiEEEEjEvRT_T0__entry:
_ZSt7advanceIN9__gnu_cxx17__normal_iteratorIPKiSt6vectorIiSaIiEEEEjEvRT_T0__exit:


// _ZSt22__uninitialized_copy_aIN9__gnu_cxx17__normal_iteratorIPKiSt6vectorIiSaIiEEEEPiiET0_T_SA_S9_RSaIT1_E
// Return size: 0
void _ZSt22__uninitialized_copy_aIN9__gnu_cxx17__normal_iteratorIPKiSt6vectorIiSaIiEEEEPiiET0_T_SA_S9_RSaIT1_E()
_ZSt22__uninitialized_copy_aIN9__gnu_cxx17__normal_iteratorIPKiSt6vectorIiSaIiEEEEPiiET0_T_SA_S9_RSaIT1_E_entry:
_ZSt22__uninitialized_copy_aIN9__gnu_cxx17__normal_iteratorIPKiSt6vectorIiSaIiEEEEPiiET0_T_SA_S9_RSaIT1_E_exit:


// _ZNKSt6vectorIiSaIiEE12_M_check_lenEjPKc
// Return size: 0
void _ZNKSt6vectorIiSaIiEE12_M_check_lenEjPKc()
_ZNKSt6vectorIiSaIiEE12_M_check_lenEjPKc_entry:
_ZNKSt6vectorIiSaIiEE12_M_check_lenEjPKc_exit:


// _ZNSt12_Vector_baseIiSaIiEE11_M_allocateEj
// Return size: 0
void _ZNSt12_Vector_baseIiSaIiEE11_M_allocateEj()
_ZNSt12_Vector_baseIiSaIiEE11_M_allocateEj_entry:
_ZNSt12_Vector_baseIiSaIiEE11_M_allocateEj_exit:


// _ZSt34__uninitialized_move_if_noexcept_aIPiS0_SaIiEET0_T_S3_S2_RT1_
// Return size: 0
void _ZSt34__uninitialized_move_if_noexcept_aIPiS0_SaIiEET0_T_S3_S2_RT1_()
_ZSt34__uninitialized_move_if_noexcept_aIPiS0_SaIiEET0_T_S3_S2_RT1__entry:
_ZSt34__uninitialized_move_if_noexcept_aIPiS0_SaIiEET0_T_S3_S2_RT1__exit:


// _ZSt8_DestroyIPiiEvT_S1_RSaIT0_E
// Return size: 0
void _ZSt8_DestroyIPiiEvT_S1_RSaIT0_E()
_ZSt8_DestroyIPiiEvT_S1_RSaIT0_E_entry:
_ZSt8_DestroyIPiiEvT_S1_RSaIT0_E_exit:


// _ZNSt12_Vector_baseIiSaIiEE13_M_deallocateEPij
// Return size: 0
void _ZNSt12_Vector_baseIiSaIiEE13_M_deallocateEPij()
_ZNSt12_Vector_baseIiSaIiEE13_M_deallocateEPij_entry:
_ZNSt12_Vector_baseIiSaIiEE13_M_deallocateEPij_exit:


// _ZSt19__iterator_categoryIN9__gnu_cxx17__normal_iteratorIPKiSt6vectorIiSaIiEEEEENSt15iterator_traitsIT_E17iterator_categoryERKS9_
// Return size: 0
void _ZSt19__iterator_categoryIN9__gnu_cxx17__normal_iteratorIPKiSt6vectorIiSaIiEEEEENSt15iterator_traitsIT_E17iterator_categoryERKS9_()
_ZSt19__iterator_categoryIN9__gnu_cxx17__normal_iteratorIPKiSt6vectorIiSaIiEEEEENSt15iterator_traitsIT_E17iterator_categoryERKS9__entry:
_ZSt19__iterator_categoryIN9__gnu_cxx17__normal_iteratorIPKiSt6vectorIiSaIiEEEEENSt15iterator_traitsIT_E17iterator_categoryERKS9__exit:


// _ZSt10__distanceIN9__gnu_cxx17__normal_iteratorIPKiSt6vectorIiSaIiEEEEENSt15iterator_traitsIT_E15difference_typeES9_S9_St26random_access_iterator_tag
// Return size: 0
void _ZSt10__distanceIN9__gnu_cxx17__normal_iteratorIPKiSt6vectorIiSaIiEEEEENSt15iterator_traitsIT_E15difference_typeES9_S9_St26random_access_iterator_tag()
_ZSt10__distanceIN9__gnu_cxx17__normal_iteratorIPKiSt6vectorIiSaIiEEEEENSt15iterator_traitsIT_E15difference_typeES9_S9_St26random_access_iterator_tag_entry:
_ZSt10__distanceIN9__gnu_cxx17__normal_iteratorIPKiSt6vectorIiSaIiEEEEENSt15iterator_traitsIT_E15difference_typeES9_S9_St26random_access_iterator_tag_exit:


// _ZSt18make_move_iteratorIPiESt13move_iteratorIT_ES2_
// Return size: 0
void _ZSt18make_move_iteratorIPiESt13move_iteratorIT_ES2_()
_ZSt18make_move_iteratorIPiESt13move_iteratorIT_ES2__entry:
_ZSt18make_move_iteratorIPiESt13move_iteratorIT_ES2__exit:


// _ZSt22__uninitialized_copy_aISt13move_iteratorIPiES1_iET0_T_S4_S3_RSaIT1_E
// Return size: 0
void _ZSt22__uninitialized_copy_aISt13move_iteratorIPiES1_iET0_T_S4_S3_RSaIT1_E()
_ZSt22__uninitialized_copy_aISt13move_iteratorIPiES1_iET0_T_S4_S3_RSaIT1_E_entry:
_ZSt22__uninitialized_copy_aISt13move_iteratorIPiES1_iET0_T_S4_S3_RSaIT1_E_exit:


// _ZSt12__miter_baseIPiENSt11_Miter_baseIT_E13iterator_typeES2_
// Return size: 0
void _ZSt12__miter_baseIPiENSt11_Miter_baseIT_E13iterator_typeES2_()
_ZSt12__miter_baseIPiENSt11_Miter_baseIT_E13iterator_typeES2__entry:
_ZSt12__miter_baseIPiENSt11_Miter_baseIT_E13iterator_typeES2__exit:


// _ZSt23__copy_move_backward_a2ILb1EPiS0_ET1_T0_S2_S1_
// Return size: 0
void _ZSt23__copy_move_backward_a2ILb1EPiS0_ET1_T0_S2_S1_()
_ZSt23__copy_move_backward_a2ILb1EPiS0_ET1_T0_S2_S1__entry:
_ZSt23__copy_move_backward_a2ILb1EPiS0_ET1_T0_S2_S1__exit:


// _ZSt12__miter_baseIN9__gnu_cxx17__normal_iteratorIPKiSt6vectorIiSaIiEEEEENSt11_Miter_baseIT_E13iterator_typeES9_
// Return size: 0
void _ZSt12__miter_baseIN9__gnu_cxx17__normal_iteratorIPKiSt6vectorIiSaIiEEEEENSt11_Miter_baseIT_E13iterator_typeES9_()
_ZSt12__miter_baseIN9__gnu_cxx17__normal_iteratorIPKiSt6vectorIiSaIiEEEEENSt11_Miter_baseIT_E13iterator_typeES9__entry:
_ZSt12__miter_baseIN9__gnu_cxx17__normal_iteratorIPKiSt6vectorIiSaIiEEEEENSt11_Miter_baseIT_E13iterator_typeES9__exit:


// _ZSt14__copy_move_a2ILb0EN9__gnu_cxx17__normal_iteratorIPKiSt6vectorIiSaIiEEEENS1_IPiS6_EEET1_T0_SB_SA_
// Return size: 0
void _ZSt14__copy_move_a2ILb0EN9__gnu_cxx17__normal_iteratorIPKiSt6vectorIiSaIiEEEENS1_IPiS6_EEET1_T0_SB_SA_()
_ZSt14__copy_move_a2ILb0EN9__gnu_cxx17__normal_iteratorIPKiSt6vectorIiSaIiEEEENS1_IPiS6_EEET1_T0_SB_SA__entry:
_ZSt14__copy_move_a2ILb0EN9__gnu_cxx17__normal_iteratorIPKiSt6vectorIiSaIiEEEENS1_IPiS6_EEET1_T0_SB_SA__exit:


// _ZSt9__advanceIN9__gnu_cxx17__normal_iteratorIPKiSt6vectorIiSaIiEEEEiEvRT_T0_St26random_access_iterator_tag
// Return size: 0
void _ZSt9__advanceIN9__gnu_cxx17__normal_iteratorIPKiSt6vectorIiSaIiEEEEiEvRT_T0_St26random_access_iterator_tag()
_ZSt9__advanceIN9__gnu_cxx17__normal_iteratorIPKiSt6vectorIiSaIiEEEEiEvRT_T0_St26random_access_iterator_tag_entry:
_ZSt9__advanceIN9__gnu_cxx17__normal_iteratorIPKiSt6vectorIiSaIiEEEEiEvRT_T0_St26random_access_iterator_tag_exit:


// _ZSt18uninitialized_copyIN9__gnu_cxx17__normal_iteratorIPKiSt6vectorIiSaIiEEEEPiET0_T_SA_S9_
// Return size: 0
void _ZSt18uninitialized_copyIN9__gnu_cxx17__normal_iteratorIPKiSt6vectorIiSaIiEEEEPiET0_T_SA_S9_()
_ZSt18uninitialized_copyIN9__gnu_cxx17__normal_iteratorIPKiSt6vectorIiSaIiEEEEPiET0_T_SA_S9__entry:
_ZSt18uninitialized_copyIN9__gnu_cxx17__normal_iteratorIPKiSt6vectorIiSaIiEEEEPiET0_T_SA_S9__exit:


// _ZNKSt6vectorIiSaIiEE4sizeEv
// Return size: 0
void _ZNKSt6vectorIiSaIiEE4sizeEv()
_ZNKSt6vectorIiSaIiEE4sizeEv_entry:
_ZNKSt6vectorIiSaIiEE4sizeEv_exit:


// _ZNKSt6vectorIiSaIiEE8max_sizeEv
// Return size: 0
void _ZNKSt6vectorIiSaIiEE8max_sizeEv()
_ZNKSt6vectorIiSaIiEE8max_sizeEv_entry:
_ZNKSt6vectorIiSaIiEE8max_sizeEv_exit:


// _ZSt3maxIjERKT_S2_S2_
// Return size: 0
void _ZSt3maxIjERKT_S2_S2_()
_ZSt3maxIjERKT_S2_S2__entry:
_ZSt3maxIjERKT_S2_S2__exit:


// _ZNSt16allocator_traitsISaIiEE8allocateERS0_j
// Return size: 0
void _ZNSt16allocator_traitsISaIiEE8allocateERS0_j()
_ZNSt16allocator_traitsISaIiEE8allocateERS0_j_entry:
_ZNSt16allocator_traitsISaIiEE8allocateERS0_j_exit:


// _ZSt32__make_move_if_noexcept_iteratorIPiSt13move_iteratorIS0_EET0_T_
// Return size: 0
void _ZSt32__make_move_if_noexcept_iteratorIPiSt13move_iteratorIS0_EET0_T_()
_ZSt32__make_move_if_noexcept_iteratorIPiSt13move_iteratorIS0_EET0_T__entry:
_ZSt32__make_move_if_noexcept_iteratorIPiSt13move_iteratorIS0_EET0_T__exit:


// _ZSt8_DestroyIPiEvT_S1_
// Return size: 0
void _ZSt8_DestroyIPiEvT_S1_()
_ZSt8_DestroyIPiEvT_S1__entry:
_ZSt8_DestroyIPiEvT_S1__exit:


// _ZNSt16allocator_traitsISaIiEE10deallocateERS0_Pij
// Return size: 0
void _ZNSt16allocator_traitsISaIiEE10deallocateERS0_Pij()
_ZNSt16allocator_traitsISaIiEE10deallocateERS0_Pij_entry:
_ZNSt16allocator_traitsISaIiEE10deallocateERS0_Pij_exit:


// _ZNSt13move_iteratorIPiEC1ES0_
// Return size: 0
void _ZNSt13move_iteratorIPiEC1ES0_()
_ZNSt13move_iteratorIPiEC1ES0__entry:
_ZNSt13move_iteratorIPiEC1ES0__exit:


// _ZSt18uninitialized_copyISt13move_iteratorIPiES1_ET0_T_S4_S3_
// Return size: 0
void _ZSt18uninitialized_copyISt13move_iteratorIPiES1_ET0_T_S4_S3_()
_ZSt18uninitialized_copyISt13move_iteratorIPiES1_ET0_T_S4_S3__entry:
_ZSt18uninitialized_copyISt13move_iteratorIPiES1_ET0_T_S4_S3__exit:


// _ZNSt10_Iter_baseIPiLb0EE7_S_baseES0_
// Return size: 0
void _ZNSt10_Iter_baseIPiLb0EE7_S_baseES0_()
_ZNSt10_Iter_baseIPiLb0EE7_S_baseES0__entry:
_ZNSt10_Iter_baseIPiLb0EE7_S_baseES0__exit:


// _ZSt12__niter_baseIPiENSt11_Niter_baseIT_E13iterator_typeES2_
// Return size: 0
void _ZSt12__niter_baseIPiENSt11_Niter_baseIT_E13iterator_typeES2_()
_ZSt12__niter_baseIPiENSt11_Niter_baseIT_E13iterator_typeES2__entry:
_ZSt12__niter_baseIPiENSt11_Niter_baseIT_E13iterator_typeES2__exit:


// _ZSt22__copy_move_backward_aILb1EPiS0_ET1_T0_S2_S1_
// Return size: 0
void _ZSt22__copy_move_backward_aILb1EPiS0_ET1_T0_S2_S1_()
_ZSt22__copy_move_backward_aILb1EPiS0_ET1_T0_S2_S1__entry:
_ZSt22__copy_move_backward_aILb1EPiS0_ET1_T0_S2_S1__exit:


// _ZNSt10_Iter_baseIN9__gnu_cxx17__normal_iteratorIPKiSt6vectorIiSaIiEEEELb0EE7_S_baseES7_
// Return size: 0
void _ZNSt10_Iter_baseIN9__gnu_cxx17__normal_iteratorIPKiSt6vectorIiSaIiEEEELb0EE7_S_baseES7_()
_ZNSt10_Iter_baseIN9__gnu_cxx17__normal_iteratorIPKiSt6vectorIiSaIiEEEELb0EE7_S_baseES7__entry:
_ZNSt10_Iter_baseIN9__gnu_cxx17__normal_iteratorIPKiSt6vectorIiSaIiEEEELb0EE7_S_baseES7__exit:


// _ZSt12__niter_baseIN9__gnu_cxx17__normal_iteratorIPKiSt6vectorIiSaIiEEEEENSt11_Niter_baseIT_E13iterator_typeES9_
// Return size: 0
void _ZSt12__niter_baseIN9__gnu_cxx17__normal_iteratorIPKiSt6vectorIiSaIiEEEEENSt11_Niter_baseIT_E13iterator_typeES9_()
_ZSt12__niter_baseIN9__gnu_cxx17__normal_iteratorIPKiSt6vectorIiSaIiEEEEENSt11_Niter_baseIT_E13iterator_typeES9__entry:
_ZSt12__niter_baseIN9__gnu_cxx17__normal_iteratorIPKiSt6vectorIiSaIiEEEEENSt11_Niter_baseIT_E13iterator_typeES9__exit:


// _ZSt12__niter_baseIN9__gnu_cxx17__normal_iteratorIPiSt6vectorIiSaIiEEEEENSt11_Niter_baseIT_E13iterator_typeES8_
// Return size: 0
void _ZSt12__niter_baseIN9__gnu_cxx17__normal_iteratorIPiSt6vectorIiSaIiEEEEENSt11_Niter_baseIT_E13iterator_typeES8_()
_ZSt12__niter_baseIN9__gnu_cxx17__normal_iteratorIPiSt6vectorIiSaIiEEEEENSt11_Niter_baseIT_E13iterator_typeES8__entry:
_ZSt12__niter_baseIN9__gnu_cxx17__normal_iteratorIPiSt6vectorIiSaIiEEEEENSt11_Niter_baseIT_E13iterator_typeES8__exit:


// _ZSt13__copy_move_aILb0EPKiPiET1_T0_S4_S3_
// Return size: 0
void _ZSt13__copy_move_aILb0EPKiPiET1_T0_S4_S3_()
_ZSt13__copy_move_aILb0EPKiPiET1_T0_S4_S3__entry:
_ZSt13__copy_move_aILb0EPKiPiET1_T0_S4_S3__exit:


// _ZN9__gnu_cxx17__normal_iteratorIPKiSt6vectorIiSaIiEEEpLEi
// Return size: 0
void _ZN9__gnu_cxx17__normal_iteratorIPKiSt6vectorIiSaIiEEEpLEi()
_ZN9__gnu_cxx17__normal_iteratorIPKiSt6vectorIiSaIiEEEpLEi_entry:
_ZN9__gnu_cxx17__normal_iteratorIPKiSt6vectorIiSaIiEEEpLEi_exit:


// _ZNSt20__uninitialized_copyILb0EE13__uninit_copyIN9__gnu_cxx17__normal_iteratorIPKiSt6vectorIiSaIiEEEEPiEET0_T_SC_SB_
// Return size: 0
void _ZNSt20__uninitialized_copyILb0EE13__uninit_copyIN9__gnu_cxx17__normal_iteratorIPKiSt6vectorIiSaIiEEEEPiEET0_T_SC_SB_()
_ZNSt20__uninitialized_copyILb0EE13__uninit_copyIN9__gnu_cxx17__normal_iteratorIPKiSt6vectorIiSaIiEEEEPiEET0_T_SC_SB__entry:
_ZNSt20__uninitialized_copyILb0EE13__uninit_copyIN9__gnu_cxx17__normal_iteratorIPKiSt6vectorIiSaIiEEEEPiEET0_T_SC_SB__exit:


// _ZNSt16allocator_traitsISaIiEE8max_sizeERKS0_
// Return size: 0
void _ZNSt16allocator_traitsISaIiEE8max_sizeERKS0_()
_ZNSt16allocator_traitsISaIiEE8max_sizeERKS0__entry:
_ZNSt16allocator_traitsISaIiEE8max_sizeERKS0__exit:


// _ZNKSt12_Vector_baseIiSaIiEE19_M_get_Tp_allocatorEv
// Return size: 0
void _ZNKSt12_Vector_baseIiSaIiEE19_M_get_Tp_allocatorEv()
_ZNKSt12_Vector_baseIiSaIiEE19_M_get_Tp_allocatorEv_entry:
_ZNKSt12_Vector_baseIiSaIiEE19_M_get_Tp_allocatorEv_exit:


// _ZN9__gnu_cxx13new_allocatorIiE8allocateEjPKv
// Return size: 0
void _ZN9__gnu_cxx13new_allocatorIiE8allocateEjPKv()
_ZN9__gnu_cxx13new_allocatorIiE8allocateEjPKv_entry:
_ZN9__gnu_cxx13new_allocatorIiE8allocateEjPKv_exit:


// _ZNSt12_Destroy_auxILb1EE9__destroyIPiEEvT_S3_
// Return size: 0
void _ZNSt12_Destroy_auxILb1EE9__destroyIPiEEvT_S3_()
_ZNSt12_Destroy_auxILb1EE9__destroyIPiEEvT_S3__entry:
_ZNSt12_Destroy_auxILb1EE9__destroyIPiEEvT_S3__exit:


// new_allocator<prim(SignedInt,4)>::deallocate
// Return size: 0
void new_allocator<prim(SignedInt,4)>::deallocate(word32 r0, word32 r1)
_ZN9__gnu_cxx13new_allocatorIiE10deallocateEPij_entry:
_ZN9__gnu_cxx13new_allocatorIiE10deallocateEPij_exit:


// _ZNSt20__uninitialized_copyILb0EE13__uninit_copyISt13move_iteratorIPiES3_EET0_T_S6_S5_
// Return size: 0
void _ZNSt20__uninitialized_copyILb0EE13__uninit_copyISt13move_iteratorIPiES3_EET0_T_S6_S5_()
_ZNSt20__uninitialized_copyILb0EE13__uninit_copyISt13move_iteratorIPiES3_EET0_T_S6_S5__entry:
_ZNSt20__uninitialized_copyILb0EE13__uninit_copyISt13move_iteratorIPiES3_EET0_T_S6_S5__exit:


// _ZNSt20__copy_move_backwardILb1ELb1ESt26random_access_iterator_tagE13__copy_move_bIiEEPT_PKS3_S6_S4_
// Return size: 0
void _ZNSt20__copy_move_backwardILb1ELb1ESt26random_access_iterator_tagE13__copy_move_bIiEEPT_PKS3_S6_S4_()
_ZNSt20__copy_move_backwardILb1ELb1ESt26random_access_iterator_tagE13__copy_move_bIiEEPT_PKS3_S6_S4__entry:
_ZNSt20__copy_move_backwardILb1ELb1ESt26random_access_iterator_tagE13__copy_move_bIiEEPT_PKS3_S6_S4__exit:


// _ZNSt10_Iter_baseIN9__gnu_cxx17__normal_iteratorIPKiSt6vectorIiSaIiEEEELb1EE7_S_baseES7_
// Return size: 0
void _ZNSt10_Iter_baseIN9__gnu_cxx17__normal_iteratorIPKiSt6vectorIiSaIiEEEELb1EE7_S_baseES7_()
_ZNSt10_Iter_baseIN9__gnu_cxx17__normal_iteratorIPKiSt6vectorIiSaIiEEEELb1EE7_S_baseES7__entry:
_ZNSt10_Iter_baseIN9__gnu_cxx17__normal_iteratorIPKiSt6vectorIiSaIiEEEELb1EE7_S_baseES7__exit:


// _ZNSt10_Iter_baseIN9__gnu_cxx17__normal_iteratorIPiSt6vectorIiSaIiEEEELb1EE7_S_baseES6_
// Return size: 0
void _ZNSt10_Iter_baseIN9__gnu_cxx17__normal_iteratorIPiSt6vectorIiSaIiEEEELb1EE7_S_baseES6_()
_ZNSt10_Iter_baseIN9__gnu_cxx17__normal_iteratorIPiSt6vectorIiSaIiEEEELb1EE7_S_baseES6__entry:
_ZNSt10_Iter_baseIN9__gnu_cxx17__normal_iteratorIPiSt6vectorIiSaIiEEEELb1EE7_S_baseES6__exit:


// _ZNSt11__copy_moveILb0ELb1ESt26random_access_iterator_tagE8__copy_mIiEEPT_PKS3_S6_S4_
// Return size: 0
void _ZNSt11__copy_moveILb0ELb1ESt26random_access_iterator_tagE8__copy_mIiEEPT_PKS3_S6_S4_()
_ZNSt11__copy_moveILb0ELb1ESt26random_access_iterator_tagE8__copy_mIiEEPT_PKS3_S6_S4__entry:
_ZNSt11__copy_moveILb0ELb1ESt26random_access_iterator_tagE8__copy_mIiEEPT_PKS3_S6_S4__exit:


// _ZN9__gnu_cxx17__normal_iteratorIPKiSt6vectorIiSaIiEEEppEv
// Return size: 0
void _ZN9__gnu_cxx17__normal_iteratorIPKiSt6vectorIiSaIiEEEppEv()
_ZN9__gnu_cxx17__normal_iteratorIPKiSt6vectorIiSaIiEEEppEv_entry:
_ZN9__gnu_cxx17__normal_iteratorIPKiSt6vectorIiSaIiEEEppEv_exit:


// _ZSt11__addressofIiEPT_RS0_
// Return size: 0
void _ZSt11__addressofIiEPT_RS0_()
_ZSt11__addressofIiEPT_RS0__entry:
_ZSt11__addressofIiEPT_RS0__exit:


// _ZNK9__gnu_cxx17__normal_iteratorIPKiSt6vectorIiSaIiEEEdeEv
// Return size: 0
void _ZNK9__gnu_cxx17__normal_iteratorIPKiSt6vectorIiSaIiEEEdeEv()
_ZNK9__gnu_cxx17__normal_iteratorIPKiSt6vectorIiSaIiEEEdeEv_entry:
_ZNK9__gnu_cxx17__normal_iteratorIPKiSt6vectorIiSaIiEEEdeEv_exit:


// _ZSt7forwardIRKiEOT_RNSt16remove_referenceIS2_E4typeE
// Return size: 0
void _ZSt7forwardIRKiEOT_RNSt16remove_referenceIS2_E4typeE()
_ZSt7forwardIRKiEOT_RNSt16remove_referenceIS2_E4typeE_entry:
_ZSt7forwardIRKiEOT_RNSt16remove_referenceIS2_E4typeE_exit:


// _ZSt10_ConstructIiJRKiEEvPT_DpOT0_
// Return size: 0
void _ZSt10_ConstructIiJRKiEEvPT_DpOT0_()
_ZSt10_ConstructIiJRKiEEvPT_DpOT0__entry:
_ZSt10_ConstructIiJRKiEEvPT_DpOT0__exit:


// _ZNSt16allocator_traitsISaIiEE11_S_max_sizeIKS0_vEEjRT_i
// Return size: 0
void _ZNSt16allocator_traitsISaIiEE11_S_max_sizeIKS0_vEEjRT_i()
_ZNSt16allocator_traitsISaIiEE11_S_max_sizeIKS0_vEEjRT_i_entry:
_ZNSt16allocator_traitsISaIiEE11_S_max_sizeIKS0_vEEjRT_i_exit:


// new_allocator<prim(SignedInt,4)>::max_size
// Return size: 0
void new_allocator<prim(SignedInt,4)>::max_size()
_ZNK9__gnu_cxx13new_allocatorIiE8max_sizeEv_entry:
_ZNK9__gnu_cxx13new_allocatorIiE8max_sizeEv_exit:


// _ZStneIPiEbRKSt13move_iteratorIT_ES5_
// Return size: 0
void _ZStneIPiEbRKSt13move_iteratorIT_ES5_()
_ZStneIPiEbRKSt13move_iteratorIT_ES5__entry:
_ZStneIPiEbRKSt13move_iteratorIT_ES5__exit:


// _ZNSt13move_iteratorIPiEppEv
// Return size: 0
void _ZNSt13move_iteratorIPiEppEv()
_ZNSt13move_iteratorIPiEppEv_entry:
_ZNSt13move_iteratorIPiEppEv_exit:


// _ZSt4moveIRiEONSt16remove_referenceIT_E4typeEOS2_
// Return size: 0
void _ZSt4moveIRiEONSt16remove_referenceIT_E4typeEOS2_()
_ZSt4moveIRiEONSt16remove_referenceIT_E4typeEOS2__entry:
_ZSt4moveIRiEONSt16remove_referenceIT_E4typeEOS2__exit:


// _ZNKSt13move_iteratorIPiEdeEv
// Return size: 0
void _ZNKSt13move_iteratorIPiEdeEv()
_ZNKSt13move_iteratorIPiEdeEv_entry:
_ZNKSt13move_iteratorIPiEdeEv_exit:


// _ZSt7forwardIiEOT_RNSt16remove_referenceIS0_E4typeE
// Return size: 0
void _ZSt7forwardIiEOT_RNSt16remove_referenceIS0_E4typeE()
_ZSt7forwardIiEOT_RNSt16remove_referenceIS0_E4typeE_entry:
_ZSt7forwardIiEOT_RNSt16remove_referenceIS0_E4typeE_exit:


// _ZSt10_ConstructIiJiEEvPT_DpOT0_
// Return size: 0
void _ZSt10_ConstructIiJiEEvPT_DpOT0_()
_ZSt10_ConstructIiJiEEvPT_DpOT0__entry:
_ZSt10_ConstructIiJiEEvPT_DpOT0__exit:


// _ZSteqIPiEbRKSt13move_iteratorIT_ES5_
// Return size: 0
void _ZSteqIPiEbRKSt13move_iteratorIT_ES5_()
_ZSteqIPiEbRKSt13move_iteratorIT_ES5__entry:
_ZSteqIPiEbRKSt13move_iteratorIT_ES5__exit:


// _ZNKSt13move_iteratorIPiE4baseEv
// Return size: 0
void _ZNKSt13move_iteratorIPiE4baseEv()
_ZNKSt13move_iteratorIPiE4baseEv_entry:
_ZNKSt13move_iteratorIPiE4baseEv_exit:


// __libc_csu_init
// Return size: 0
void __libc_csu_init()
__libc_csu_init_entry:
__libc_csu_init_exit:


// __libc_csu_fini
// Return size: 0
void __libc_csu_fini()
__libc_csu_fini_entry:
__libc_csu_fini_exit:


// _fini
// Return size: 0
void _fini()
_fini_entry:
_fini_exit:


