00400000 00 00 00 00 00 00 00 00 00 00 00 00 00 00 00 00 ................
00400010 00 00 00 00 00 00 00 00 00 00 00 00 00 00 00 00 ................
00400020 00 00 00 00 00 00 00 00 00 00 00 00 00 00 00 00 ................
00400030 00 00 00 00 00 00 00 00 00 00 00 00 00 00 00 00 ................
00400040 00 00 00 00 00 00 00 00 00 00 00 00 00 00 00 00 ................
00400050 00 00 00 00 00 00 00 00 00 00 00 00 00 00 00 00 ................
00400060 00 00 00 00 00 00 00 00 00 00 00 00 00 00 00 00 ................
00400070 00 00 00 00 00 00 00 00 00 00 00 00 00 00 00 00 ................
00400080 00 00 00 00 00 00 00 00 00 00 00 00 00 00 00 00 ................
00400090 00 00 00 00 00 00 00 00 00 00 00 00 00 00 00 00 ................
004000A0 00 00 00 00 00 00 00 00 00 00 00 00 00 00 00 00 ................
004000B0 00 00 00 00 00 00 00 00 00 00 00 00 00 00 00 00 ................
004000C0 00 00 00 00 00 00 00 00 00 00 00 00 00 00 00 00 ................
004000D0 00 00 00 00 00 00 00 00 00 00 00 00 00 00 00 00 ................
004000E0 00 00 00 00 00 00 00 00 00 00 00 00 00 00 00 00 ................
004000F0 00 00 00 00 00 00 00 00 00 00 00 00 00 00 00 00 ................
00400100 00 00 00 00 00 00 00 00 00 00 00 00 00 00 00 00 ................
00400110 00 00 00 00 00 00 00 00 00 00 00 00 00 00 00 00 ................
00400120 00 00 00 00 00 00 00 00 00 00 00 00 00 00 00 00 ................
00400130 00 00 00 00 00 00 00 00 00 00 00 00 00 00 00 00 ................
00400140 00 00 00 00 00 00 00 00 00 00 00 00 00 00 00 00 ................
00400150 00 00 00 00 00 00 00 00 00 00 00 00 00 00 00 00 ................
00400160 00 00 00 00 00 00 00 00 00 00 00 00 00 00 00 00 ................
00400170 00 00 00 00 00 00 00 00 00 00 00 00 00 00 00 00 ................
00400180 00 00 00 00 00 00 00 00 00 00 00 00 00 00 00 00 ................
00400190 00 00 00 00 00 00 00 00 00 00 00 00 00 00 00 00 ................
004001A0 00 00 00 00 00 00 00 00 00 00 00 00 00 00 00 00 ................
004001B0 00 00 00 00 00 00 00 00 00 00 00 00 00 00 00 00 ................
004001C0 00 00 00 00 00 00 00 00 00 00 00 00 00 00 00 00 ................
004001D0 00 00 00 00 00 00 00 00 00 00 00 00 00 00 00 00 ................
004001E0 00 00 00 00 00 00 00 00 00 00 00 00 00 00 00 00 ................
004001F0 00 00 00 00 00 00 00 00 00 00 00 00 00 00 00 00 ................
00400200 00 00 00 00 00 00 00 00 00 00 00 00 00 00 00 00 ................
00400210 00 00 00 00 00 00 00 00 00 00 00 00 00 00 00 00 ................
00400220 00 00 00 00 00 00 00 00 00 00 00 00 00 00 00 00 ................
00400230 00 00 00 00 00 00 00 00 00 00 00 00 00 00 00 00 ................
00400240 00 00 00 00 00 00 00 00 00 00 00 00 00 00 00 00 ................
00400250 00 00 00 00 00 00 00 00 00 00 00 00 00 00 00 00 ................
00400260 00 00 00 00 00 00 00 00 00 00 00 00 00 00 00 00 ................
00400270 00 00 00 00 00 00 00 00 00 00 00 00 00 00 00 00 ................
00400280 00 00 00 00 00 00 00 00 00 00 00 00 00 00 00 00 ................
00400290 00 00 00 00 00 00 00 00 00 00 00 00 00 00 00 00 ................
004002A0 00 00 00 00 00 00 00 00 00 00 00 00 00 00 00 00 ................
004002B0 00 00 00 00 00 00 00 00 00 00 00 00 00 00 00 00 ................
004002C0 00 00 00 00 00 00 00 00 00 00 00 00 00 00 00 00 ................
004002D0 00 00 00 00 00 00 00 00 00 00 00 00 00 00 00 00 ................
004002E0 00 00 00 00 00 00 00 00 00 00 00 00 00 00 00 00 ................
004002F0 00 00 00 00 00 00 00 00 00 00 00 00 00 00 00 00 ................
00400300 00 00 00 00 00 00 00 00 00 00 00 00 00 00 00 00 ................
00400310 00 00 00 00 00 00 00 00 00 00 00 00 00 00 00 00 ................
00400320 00 00 00 00 00 00 00 00 00 00 00 00 00 00 00 00 ................
00400330 00 00 00 00 00 00 00 00 00 00 00 00 00 00 00 00 ................
00400340 00 00 00 00 00 00 00 00 00 00 00 00 00 00 00 00 ................
00400350 00 00 00 00 00 00 00 00 00 00 00 00 00 00 00 00 ................
00400360 00 00 00 00 00 00 00 00 00 00 00 00 00 00 00 00 ................
00400370 00 00 00 00 00 00 00 00 00 00 00 00 00 00 00 00 ................
00400380 00 00 00 00 00 00 00 00 00 00 00 00 00 00 00 00 ................
00400390 00 00 00 00 00 00 00 00 00 00 00 00 00 00 00 00 ................
004003A0 00 00 00 00 00 00 00 00 00 00 00 00 00 00 00 00 ................
004003B0 00 00 00 00 00 00 00 00 00 00 00 00 00 00 00 00 ................
004003C0 00 00 00 00 00 00 00 00 00 00 00 00 00 00 00 00 ................
004003D0 00 00 00 00 00 00 00 00 00 00 00 00 00 00 00 00 ................
004003E0 00 00 00 00 00 00 00 00 00 00 00 00 00 00 00 00 ................
004003F0 00 00 00 00 00 00 00 00 00 00 00 00 00 00 00 00 ................
00400400 00 00 00 00 00 00 00 00 00 00 00 00 00 00 00 00 ................
00400410 00 00 00 00 00 00 00 00 00 00 00 00 00 00 00 00 ................
00400420 00 00 00 00 00 00 00 00 00 00 00 00 00 00 00 00 ................
00400430 00 00 00 00 00 00 00 00 00 00 00 00 00 00 00 00 ................
00400440 00 00 00 00 00 00 00 00 00 00 00 00 00 00 00 00 ................
00400450 00 00 00 00 00 00 00 00 00 00 00 00 00 00 00 00 ................
00400460 00 00 00 00 00 00 00 00 00 00 00 00 00 00 00 00 ................
00400470 00 00 00 00 00 00 00 00 00 00 00 00 00 00 00 00 ................
00400480 00 00 00 00 00 00 00 00 00 00 00 00 00 00 00 00 ................
00400490 00 00 00 00 00 00 00 00 00 00 00 00 00 00 00 00 ................
004004A0 00 00 00 00 00 00 00 00 00 00 00 00 00 00 00 00 ................
004004B0 00 00 00 00 00 00 00 00 00 00 00 00 00 00 00 00 ................
004004C0 00 00 00 00 00 00 00 00 00 00 00 00 00 00 00 00 ................
004004D0 00 00 00 00 00 00 00 00 00 00 00 00 00 00 00 00 ................
004004E0 00 00 00 00 00 00 00 00 00 00 00 00 00 00 00 00 ................
004004F0 00 00 00 00 00 00 00 00 00 00 00 00 00 00 00 00 ................
00400500 00 00 00 00 00 00 00 00 00 00 00 00 00 00 00 00 ................
00400510 00 00 00 00 00 00 00 00 00 00 00 00 00 00 00 00 ................
00400520 00 00 00 00 00 00 00 00 00 00 00 00 00 00 00 00 ................
00400530 00 00 00 00 00 00 00 00 00 00 00 00 00 00 00 00 ................
00400540 00 00 00 00 00 00 00 00 00 00 00 00 00 00 00 00 ................
00400550 00 00 00 00 00 00 00 00 00 00 00 00 00 00 00 00 ................
00400560 00 00 00 00 00 00 00 00 00 00 00 00 00 00 00 00 ................
00400570 00 00 00 00 00 00 00 00 00 00 00 00 00 00 00 00 ................
00400580 00 00 00 00 00 00 00 00 00 00 00 00 00 00 00 00 ................
00400590 00 00 00 00 00 00 00 00 00 00 00 00 00 00 00 00 ................
004005A0 00 00 00 00 00 00 00 00 00 00 00 00 00 00 00 00 ................
004005B0 00 00 00 00 00 00 00 00 00 00 00 00 00 00 00 00 ................
004005C0 00 00 00 00 00 00 00 00 00 00 00 00 00 00 00 00 ................
004005D0 00 00 00 00 00 00 00 00 00 00 00 00 00 00 00 00 ................
004005E0 00 00 00 00 00 00 00 00 00 00 00 00 00 00 00 00 ................
004005F0 00 00 00 00 00 00 00 00 00 00 00 00 00 00 00 00 ................
00400600 00 00 00 00 00 00 00 00 00 00 00 00 00 00 00 00 ................
00400610 00 00 00 00 00 00 00 00 00 00 00 00 00 00 00 00 ................
00400620 00 00 00 00 00 00 00 00 00 00 00 00 00 00 00 00 ................
00400630 00 00 00 00 00 00 00 00 00 00 00 00 00 00 00 00 ................
00400640 00 00 00 00 00 00 00 00 00 00 00 00 00 00 00 00 ................
00400650 00 00 00 00 00 00 00 00 00 00 00 00 00 00 00 00 ................
00400660 00 00 00 00 00 00 00 00 00 00 00 00 00 00 00 00 ................
00400670 00 00 00 00 00 00 00 00 00 00 00 00 00 00 00 00 ................
00400680 00 00 00 00 00 00 00 00 00 00 00 00 00 00 00 00 ................
00400690 00 00 00 00 00 00 00 00 00 00 00 00 00 00 00 00 ................
004006A0 00 00 00 00 00 00 00 00 00 00 00 00 00 00 00 00 ................
004006B0 00 00 00 00 00 00 00 00 00 00 00 00 00 00 00 00 ................
004006C0 00 00 00 00 00 00 00 00 00 00 00 00 00 00 00 00 ................
004006D0 00 00 00 00 00 00 00 00 00 00 00 00 00 00 00 00 ................
004006E0 00 00 00 00 00 00 00 00 00 00 00 00 00 00 00 00 ................
004006F0 00 00 00 00 00 00 00 00 00 00 00 00 00 00 00 00 ................
00400700 00 00 00 00 00 00 00 00 00 00 00 00 00 00 00 00 ................
00400710 00 00 00 00 00 00 00 00 00 00 00 00 00 00 00 00 ................
00400720 00 00 00 00 00 00 00 00 00 00 00 00 00 00 00 00 ................
00400730 00 00 00 00 00 00 00 00 00 00 00 00 00 00 00 00 ................
00400740 00 00 00 00 00 00 00 00 00 00 00 00 00 00 00 00 ................
00400750 00 00 00 00 00 00 00 00 00 00 00 00 00 00 00 00 ................
00400760 00 00 00 00 00 00 00 00 00 00 00 00 00 00 00 00 ................
00400770 00 00 00 00 00 00 00 00 00 00 00 00 00 00 00 00 ................
00400780 00 00 00 00 00 00 00 00 00 00 00 00 00 00 00 00 ................
00400790 00 00 00 00 00 00 00 00 00 00 00 00 00 00 00 00 ................
004007A0 00 00 00 00 00 00 00 00 00 00 00 00 00 00 00 00 ................
004007B0 00 00 00 00 00 00 00 00 00 00 00 00 00 00 00 00 ................
004007C0 00 00 00 00 00 00 00 00 00 00 00 00 00 00 00 00 ................
004007D0 00 00 00 00 00 00 00 00 00 00 00 00 00 00 00 00 ................
004007E0 00 00 00 00 00 00 00 00 00 00 00 00 00 00 00 00 ................
004007F0 00 00 00 00 00 00 00 00 00 00 00 00 00 00 00 00 ................
00400800 00 00 00 00 00 00 00 00 00 00 00 00 00 00 00 00 ................
00400810 00 00 00 00 00 00 00 00 00 00 00 00 00 00 00 00 ................
00400820 00 00 00 00 00 00 00 00 00 00 00 00 00 00 00 00 ................
00400830 00 00 00 00 00 00 00 00 00 00 00 00 00 00 00 00 ................
00400840 00 00 00 00 00 00 00 00 00 00 00 00 00 00 00 00 ................
00400850 00 00 00 00 00 00 00 00 00 00 00 00 00 00 00 00 ................
00400860 00 00 00 00 00 00 00 00 00 00 00 00 00 00 00 00 ................
00400870 00 00 00 00 00 00 00 00 00 00 00 00 00 00 00 00 ................
00400880 00 00 00 00 00 00 00 00 00 00 00 00 00 00 00 00 ................
00400890 00 00 00 00 00 00 00 00 00 00 00 00 00 00 00 00 ................
004008A0 00 00 00 00 00 00 00 00 00 00 00 00 00 00 00 00 ................
004008B0 00 00 00 00 00 00 00 00 00 00 00 00 00 00 00 00 ................
004008C0 00 00 00 00 00 00 00 00 00 00 00 00 00 00 00 00 ................
004008D0 00 00 00 00 00 00 00 00 00 00 00 00 00 00 00 00 ................
004008E0 00 00 00 00 00 00 00 00 00 00 00 00 00 00 00 00 ................
004008F0 00 00 00 00 00 00 00 00 00 00 00 00 00 00 00 00 ................
00400900 00 00 00 00 00 00 00 00 00 00 00 00 00 00 00 00 ................
00400910 00 00 00 00 00 00 00 00 00 00 00 00 00 00 00 00 ................
00400920 00 00 00 00 00 00 00 00 00 00 00 00 00 00 00 00 ................
00400930 00 00 00 00 00 00 00 00 00 00 00 00 00 00 00 00 ................
00400940 00 00 00 00 00 00 00 00 00 00 00 00 00 00 00 00 ................
00400950 00 00 00 00 00 00 00 00 00 00 00 00 00 00 00 00 ................
00400960 00 00 00 00 00 00 00 00 00 00 00 00 00 00 00 00 ................
00400970 00 00 00 00 00 00 00 00 00 00 00 00 00 00 00 00 ................
00400980 00 00 00 00 00 00 00 00 00 00 00 00 00 00 00 00 ................
00400990 00 00 00 00 00 00 00 00 00 00 00 00 00 00 00 00 ................
004009A0 00 00 00 00 00 00 00 00 00 00 00 00 00 00 00 00 ................
004009B0 00 00 00 00 00 00 00 00 00 00 00 00 00 00 00 00 ................
004009C0 00 00 00 00 00 00 00 00 00 00 00 00 00 00 00 00 ................
004009D0 00 00 00 00 00 00 00 00 00 00 00 00 00 00 00 00 ................
004009E0 00 00 00 00 00 00 00 00 00 00 00 00 00 00 00 00 ................
004009F0 00 00 00 00 00 00 00 00 00 00 00 00 00 00 00 00 ................
00400A00 00 00 00 00 00 00 00 00 00 00 00 00 00 00 00 00 ................
00400A10 00 00 00 00 00 00 00 00 00 00 00 00 00 00 00 00 ................
00400A20 00 00 00 00 00 00 00 00 00 00 00 00 00 00 00 00 ................
00400A30 00 00 00 00 00 00 00 00 00 00 00 00 00 00 00 00 ................
00400A40 00 00 00 00 00 00 00 00 00 00 00 00 00 00 00 00 ................
00400A50 00 00 00 00 00 00 00 00 00 00 00 00 00 00 00 00 ................
00400A60 00 00 00 00 00 00 00 00 00 00 00 00 00 00 00 00 ................
00400A70 00 00 00 00 00 00 00 00 00 00 00 00 00 00 00 00 ................
00400A80 00 00 00 00 00 00 00 00 00 00 00 00 00 00 00 00 ................
00400A90 00 00 00 00 00 00 00 00 00 00 00 00 00 00 00 00 ................
00400AA0 00 00 00 00 00 00 00 00 00 00 00 00 00 00 00 00 ................
00400AB0 00 00 00 00 00 00 00 00 00 00 00 00 00 00 00 00 ................
00400AC0 00 00 00 00 00 00 00 00 00 00 00 00 00 00 00 00 ................
00400AD0 00 00 00 00 00 00 00 00 00 00 00 00 00 00 00 00 ................
00400AE0 00 00 00 00 00 00 00 00 00 00 00 00 00 00 00 00 ................
00400AF0 00 00 00 00 00 00 00 00 00 00 00 00 00 00 00 00 ................
00400B00 00 00 00 00 00 00 00 00 00 00 00 00 00 00 00 00 ................
00400B10 00 00 00 00 00 00 00 00 00 00 00 00 00 00 00 00 ................
00400B20 00 00 00 00 00 00 00 00 00 00 00 00 00 00 00 00 ................
00400B30 00 00 00 00 00 00 00 00 00 00 00 00 00 00 00 00 ................
00400B40 00 00 00 00 00 00 00 00 00 00 00 00 00 00 00 00 ................
00400B50 00 00 00 00 00 00 00 00 00 00 00 00 00 00 00 00 ................
00400B60 00 00 00 00 00 00 00 00 00 00 00 00 00 00 00 00 ................
00400B70 00 00 00 00 00 00 00 00 00 00 00 00 00 00 00 00 ................
00400B80 00 00 00 00 00 00 00 00 00 00 00 00 00 00 00 00 ................
00400B90 00 00 00 00 00 00 00 00 00 00 00 00 00 00 00 00 ................
00400BA0 00 00 00 00 00 00 00 00 00 00 00 00 00 00 00 00 ................
00400BB0 00 00 00 00 00 00 00 00 00 00 00 00 00 00 00 00 ................
00400BC0 00 00 00 00 00 00 00 00 00 00 00 00 00 00 00 00 ................
00400BD0 00 00 00 00 00 00 00 00 00 00 00 00 00 00 00 00 ................
00400BE0 00 00 00 00 00 00 00 00 00 00 00 00 00 00 00 00 ................
00400BF0 00 00 00 00 00 00 00 00 00 00 00 00 00 00 00 00 ................
00400C00 00 00 00 00 00 00 00 00 00 00 00 00 00 00 00 00 ................
00400C10 00 00 00 00 00 00 00 00 00 00 00 00 00 00 00 00 ................
00400C20 00 00 00 00 00 00 00 00 00 00 00 00 00 00 00 00 ................
00400C30 00 00 00 00 00 00 00 00 00 00 00 00 00 00 00 00 ................
00400C40 00 00 00 00 00 00 00 00 00 00 00 00 00 00 00 00 ................
00400C50 00 00 00 00 00 00 00 00 00 00 00 00 00 00 00 00 ................
00400C60 00 00 00 00 00 00 00 00 00 00 00 00 00 00 00 00 ................
00400C70 00 00 00 00 00 00 00 00 00 00 00 00 00 00 00 00 ................
00400C80 00 00 00 00 00 00 00 00 00 00 00 00 00 00 00 00 ................
00400C90 00 00 00 00 00 00 00 00 00 00 00 00 00 00 00 00 ................
00400CA0 00 00 00 00 00 00 00 00 00 00 00 00 00 00 00 00 ................
00400CB0 00 00 00 00 00 00 00 00 00 00 00 00 00 00 00 00 ................
00400CC0 00 00 00 00 00 00 00 00 00 00 00 00 00 00 00 00 ................
00400CD0 00 00 00 00 00 00 00 00 00 00 00 00 00 00 00 00 ................
00400CE0 00 00 00 00 00 00 00 00 00 00 00 00 00 00 00 00 ................
00400CF0 00 00 00 00 00 00 00 00 00 00 00 00 00 00 00 00 ................
00400D00 00 00 00 00 00 00 00 00 00 00 00 00 00 00 00 00 ................
00400D10 00 00 00 00 00 00 00 00 00 00 00 00 00 00 00 00 ................
00400D20 00 00 00 00 00 00 00 00 00 00 00 00 00 00 00 00 ................
00400D30 00 00 00 00 00 00 00 00 00 00 00 00 00 00 00 00 ................
00400D40 00 00 00 00 00 00 00 00 00 00 00 00 00 00 00 00 ................
00400D50 00 00 00 00 00 00 00 00 00 00 00 00 00 00 00 00 ................
00400D60 00 00 00 00 00 00 00 00 00 00 00 00 00 00 00 00 ................
00400D70 00 00 00 00 00 00 00 00 00 00 00 00 00 00 00 00 ................
00400D80 00 00 00 00 00 00 00 00 00 00 00 00 00 00 00 00 ................
00400D90 00 00 00 00 00 00 00 00 00 00 00 00 00 00 00 00 ................
00400DA0 00 00 00 00 00 00 00 00 00 00 00 00 00 00 00 00 ................
00400DB0 00 00 00 00 00 00 00 00 00 00 00 00 00 00 00 00 ................
00400DC0 00 00 00 00 00 00 00 00 00 00 00 00 00 00 00 00 ................
00400DD0 00 00 00 00 00 00 00 00 00 00 00 00 00 00 00 00 ................
00400DE0 00 00 00 00 00 00 00 00 00 00 00 00 00 00 00 00 ................
00400DF0 00 00 00 00 00 00 00 00 00 00 00 00 00 00 00 00 ................
00400E00 00 00 00 00 00 00 00 00 00 00 00 00 00 00 00 00 ................
00400E10 00 00 00 00 00 00 00 00 00 00 00 00 00 00 00 00 ................
00400E20 00 00 00 00 00 00 00 00 00 00 00 00 00 00 00 00 ................
00400E30 00 00 00 00 00 00 00 00 00 00 00 00 00 00 00 00 ................
00400E40 00 00 00 00 00 00 00 00 00 00 00 00 00 00 00 00 ................
00400E50 00 00 00 00 00 00 00 00 00 00 00 00 00 00 00 00 ................
00400E60 00 00 00 00 00 00 00 00 00 00 00 00 00 00 00 00 ................
00400E70 00 00 00 00 00 00 00 00 00 00 00 00 00 00 00 00 ................
00400E80 00 00 00 00 00 00 00 00 00 00 00 00 00 00 00 00 ................
00400E90 00 00 00 00 00 00 00 00 00 00 00 00 00 00 00 00 ................
00400EA0 00 00 00 00 00 00 00 00 00 00 00 00 00 00 00 00 ................
00400EB0 00 00 00 00 00 00 00 00 00 00 00 00 00 00 00 00 ................
00400EC0 00 00 00 00 00 00 00 00 00 00 00 00 00 00 00 00 ................
00400ED0 00 00 00 00 00 00 00 00 00 00 00 00 00 00 00 00 ................
00400EE0 00 00 00 00 00 00 00 00 00 00 00 00 00 00 00 00 ................
00400EF0 00 00 00 00 00 00 00 00 00 00 00 00 00 00 00 00 ................
00400F00 00 00 00 00 00 00 00 00 00 00 00 00 00 00 00 00 ................
00400F10 00 00 00 00 00 00 00 00 00 00 00 00 00 00 00 00 ................
00400F20 00 00 00 00 00 00 00 00 00 00 00 00 00 00 00 00 ................
00400F30 00 00 00 00 00 00 00 00 00 00 00 00 00 00 00 00 ................
00400F40 00 00 00 00 00 00 00 00 00 00 00 00 00 00 00 00 ................
00400F50 00 00 00 00 00 00 00 00 00 00 00 00 00 00 00 00 ................
00400F60 00 00 00 00 00 00 00 00 00 00 00 00 00 00 00 00 ................
00400F70 00 00 00 00 00 00 00 00 00 00 00 00 00 00 00 00 ................
00400F80 00 00 00 00 00 00 00 00 00 00 00 00 00 00 00 00 ................
00400F90 00 00 00 00 00 00 00 00 00 00 00 00 00 00 00 00 ................
00400FA0 00 00 00 00 00 00 00 00 00 00 00 00 00 00 00 00 ................
00400FB0 00 00 00 00 00 00 00 00 00 00 00 00 00 00 00 00 ................
00400FC0 00 00 00 00 00 00 00 00 00 00 00 00 00 00 00 00 ................
00400FD0 00 00 00 00 00 00 00 00 00 00 00 00 00 00 00 00 ................
00400FE0 00 00 00 00 00 00 00 00 00 00 00 00 00 00 00 00 ................
00400FF0 00 00 00 00 00 00 00 00 00 00 00 00 00 00 00 00 ................
00401000 E6 C3 7A 01 2F 9E 5A 48                         ..z./.ZH       

fn00401008()
	mov	[esp],ebx
	xchg	bh,bh
	jmp	00401013
00401012       DA                                          .            

l00401013:
	pop	ebx
	dec	esi
	or	ebx,edx
	mov	eax,fs:[00000030]
	sub	edi,esi
	mov	ebx,esi
	dec	edx
	add	edi,eax
	call	004010FF
	push	edi
	les	esi,[eax+eax*8+49]
	mov	dh,88

fn00401030()
	pop	dword ptr [esp-34]
	sub	ecx,eax
	xor	ecx,ebx
	add	edi,esi
	sub	ecx,esi
	or	eax,edx
	jmp	004013DE

fn00401043()
	lea	esp,[esp+04]
	sub	edi,ecx
	or	ebx,ecx
	mov	eax,edx
	add	ebx,edi
	inc	esi
	jbe	0040126A

l00401056:
	rep	
	repne	
	ja	0040126A
	movsd	
	adc	al,BB
	jnz	00400FE3
	mov	eax,E824448F

fn00401064()
	pop	dword ptr [esp-18]
	sub	edi,ebx
	add	edx,eax
	inc	ebx
	add	esi,edi
	inc	edi
	inc	edx
	mov	ecx,ebx
	dec	ecx
	sub	esi,ecx
	jl	00401377

l0040107C:
	xchg	dl,dl
	jge	00401377

l00401084:
	and	[ebx],esi
	scasb	

fn00401088()
	inc	esi
	inc	ebx
	mov	edi,edx
	xor	edi,ecx
	xor	edi,edx
	add	edi,edx
	sub	esi,edx
	jl	004012A2

l0040109A:
	xchg	eax,eax
	jmp	004010A1

l004010A1:
	jge	004012A2

l004010A7:
	xor	[ecx-4A],cl
	xchg	es:[esp],ecx

fn004010AB()
	xchg	[esp],ecx

fn004010AE()
	xchg	ebx,ebx
	pop	ecx
	dec	edi
	dec	esi
	sub	eax,EEEEEEEE
	inc	edx
	add	ecx,esi
	sub	edi,esi
	jmp	0040123D
004010C2       85 63 34 D0 C2                              .c4..        

fn004010C7()
	lea	esp,[esp+04]
	mov	edi,edx
	or	ecx,esi
	or	edx,eax
	sub	ecx,edx
	add	ecx,edx
	dec	esi
	inc	ecx
	dec	edi
	add	ecx,eax
	call	004010AB
	pop	dword ptr [edx+01]
	xor	al,1A
	inc	edi

fn004010E5()
	pop	dword ptr [esp-1C]
	dec	edi
	dec	esi
	mov	eax,[eax]
	xor	esi,eax
	mov	edi,eax
	inc	ebx
	add	esi,eax
	call	00401064
	out	dx,ax
	fld	tword ptr [ebx+ecx*4+14879DB0]

fn004010FF()
	xchg	[esp],edx
	xchg	bh,bh
	pop	edx
	add	ebx,ecx
	inc	ecx
	or	ebx,eax
	dec	esi
	add	edi,ebx
	dec	ecx
	jc	004013A0

l00401114:
	jmp	00401119

l00401119:
	jnc	004013A0

l0040111F:
	mov	ecx,[eax-56]
	xor	al,[edi+8B470F16]

fn00401126()
	inc	edi
	mov	edi,ecx

fn00401128()
	stc	
	add	esi,ecx
	or	ecx,eax
	mov	ebx,esi
	add	ecx,edi
	sub	edx,ebx
	mov	edi,eax
	inc	edx
	inc	edx
	call	00401008

l0040113C:
	push	eax
	ret	
0040113E                                           24 02               $.
00401140 25 E3 C1 80                                     %...           

fn00401144()
	pop	dword ptr [esp-24]
	adc	bh,EE
	dec	ch
	add	bl,ch
	adc	dh,8F
	dec	dh
	jl	004013C1

l0040115A:
	xchg	si,si
	rep	
	jge	004013C1
	insb	
	pop	esi
	jpo	004010F2

fn00401168()
	mov	[esp],eax
	mov	cx,cx
	pop	eax
	mov	ecx,ebx
	inc	ebx
	or	ebx,ecx
	call	004012B6
	aam	35
	adc	eax,C5DEC6F0

fn00401180()
	push	ebp
	mov	ebp,esp
	inc	edx
	or	edi,ecx
	inc	edi
	add	edx,esi
	add	edi,ecx
	js	00401088

l00401191:
	jmp	00401197
00401196                   5D                                  ]        

l00401197:
	lea	eax,[eax]
	jns	00401088

l0040119F:
	or	eax,F87444ED
	xchg	eax,ebx

fn004011A5()
	inc	edx
	add	ebx,edi
	sub	ebx,esi
	inc	edx
	xor	edx,edi
	dec	ebx
	call	004012F9

fn004011B3()
	or	[edi-2B],dh
	mov	cl,F1

fn004011B8()
	jz	004011BB

l004011BA:
	ret	

l004011BB:
	sub	esi,edx
	mov	ecx,edx
	or	ecx,esi
	dec	edx
	add	ecx,eax
	or	edx,ecx
	inc	esi
	jmp	00401285
004011CC                                     14 00 EC E7             ....
004011D0 8C 92                                           ..             

l004011D2:
	dec	ebx
	mov	eax,[eax+00000090]
	add	ecx,eax
	inc	ebx
	mov	esi,edx
	or	edx,eax
	mov	edi,ebx
	sub	ebx,eax
	call	00401168
	inc	ebp
	sub	al,[ecx]
	ret	

fn004011ED()
	add	ch,0D
	or	bh,dl
	mov	edx,esi
	or	dl,ah
	or	ebx,edi
	sub	dl,bh
	call	00401144
	mov	ch,EA
	les	ebx,[esi+78]
	and	ebx,[edx+0424648D]

fn00401206()
	lea	esp,[esp+04]

fn0040120A()
	sub	edx,esi
	and	eax,EEEEEEEE
	add	ecx,edx
	sub	edi,edx
	sub	ecx,edi
	mov	ecx,edi
	inc	esi
	mov	ecx,esi
	call	004010C7

fn00401221()
	out	FA,al
	illegal	
	shl	ebx,cl
	push	ebp
	xchg	eax,ebp

fn00401228()
	xor	ecx,eax
	inc	esi
	xor	edi,ebx
	inc	esi
	dec	esi
	xor	edx,ecx
	or	eax,eax
	jmp	004011B8
00401235                10 B3 6F 20 48 CB C3 F1               ..o H...  

fn0040123D()
	xor	esi,edi
	or	edx,eax
	inc	ebx
	or	ebx,edi

fn00401244()
	xor	ebx,edx
	mov	edx,ecx
	xor	edi,edx
	jmp	00401228
0040124C                                     B9 15 01 F9             ....

fn00401250()
	sub	ebx,ecx
	inc	edx
	xor	bh,dh
	inc	ch
	xor	cl,dl
	add	bh,cl
	add	cl,96
	call	00401330
	stc	
	enter	76C0,CC
	mov	ebx,8BD703D0

l0040126A:
	add	edx,edi

fn0040126C()
	mov	edi,edx

fn0040126D()
	cli	

fn0040126E()
	dec	ecx
	mov	ecx,edx
	inc	esi
	or	esi,edi
	mov	ebx,edi
	add	eax,esi
	xor	esi,eax
	or	esi,edx
	call	00401030

fn00401281()
	mov	edi,8B505225

l00401285:
	mov	esi,ebx

l00401286:
	rep	
	inc	edx
	or	edx,eax
	dec	ebx
	leave	
	add	eax,edx
	xor	ebx,edi
	xor	eax,ebx
	mov	ecx,edi
	xor	ecx,ebx
	jl	00401314

l00401298:
	jo	0040129A

l0040129A:
	mov	bh,bh
	jge	00401314

l0040129E:
	xlat	
	sub	al,4D
	jc	004012A6

l004012A2:
	add	edi,ebx

fn004012A3()
	sti	

fn004012A4()
	add	ecx,esi

fn004012A6()
	xor	edx,eax
	or	edx,ebx
	dec	esi
	mov	ebx,eax
	call	004012D3
	jc	0040126C

l004012B4:
	loope	00401244

fn004012B6()
	lea	esp,[esp+04]

fn004012B7()
	and	al,04
	or	ebx,esi
	sub	ebx,esi
	add	edi,edx
	mov	esi,eax
	mov	edi,ebx
	or	edx,edi
	sub	ebx,edx
	call	004010E5
	or	dword ptr [ebp+15],9F
	xchg	eax,esp
	or	eax,0424648D

fn004012D3()
	lea	esp,[esp+04]

fn004012D7()
	dec	ecx
	sub	edx,edi
	inc	esi
	dec	esi
	xor	edx,esi
	mov	edi,ecx
	or	ebx,esi
	add	esi,ecx
	js	00401250

fn004012EA()
	repne	
	lea	ecx,[ecx]
	jns	00401250
	mov	eax,729DD666
	push	cs

fn004012F9()
	lea	esp,[esp+04]
	or	ebx,ecx
	or	edi,esi
	dec	esi
	or	edi,ecx
	inc	ecx
	add	esi,ebx
	call	00401206
	mov	ch,54
	dec	byte ptr [ebp+3EF53354]

fn00401314()
	inc	edi
	or	ecx,ebx
	or	ecx,edx
	xor	eax,edx
	or	edx,esi
	add	edx,eax
	xor	edx,esi
	sub	ebx,edx
	dec	ecx
	or	esi,edi
	call	00401043
	pop	edx
	in	eax,dx
	nop	
	cli	
	call	far 8A24:3489

fn00401330()
	mov	[esp],esi
	mov	bl,bl
	mov	al,al
	pop	esi
	or	edx,edi
	inc	ch
	inc	bl
	mov	bl,1D
	neg	bl
	add	dl,07
	jle	004011ED

l0040134B:
	jmp	00401351
00401350 26                                              &              

l00401351:
	lea	cx,[ecx]
	jg	004011ED

l0040135A:
	int	03
	add	ch,cs:[edx+33D90BED]

fn0040135F()
	or	ebx,ecx
	xor	edx,ebx

fn00401362()
	rol	[eax+FE8B21D5],cl
	sub	esi,eax
	add	esi,edi

fn0040136C()
	add	edx,ebx
	jmp	00401126
00401373          EC A2 A3 07                               ....        

l00401377:
	inc	esi
	or	edi,esi
	inc	ecx
	xor	edi,ebx
	mov	eax,[eax+08]
	dec	esi
	xor	edi,ebx
	mov	esi,edx
	or	ecx,ebx
	mov	edi,ebx
	jpe	004011A5

l0040138F:
	lea	bx,[ebx]
	mov	cl,cl
	jpo	004011A5

l0040139A:
	mov	ch,12
	mov	byte ptr [esi],E1
	push	eax

fn004013A0()
	sub	ecx,ebx
	add	esi,eax
	inc	edx
	add	ecx,edx
	sub	ecx,edx
	mov	edi,edx
	inc	ebx
	jz	004011D2

l004013B2:
	mov	edi,edi
	jnz	004011D2

l004013BA:
	dec	ebp
	fstp	double ptr [esi+7B]

l004013BD:
	jpo	004013C3
	push	edx
	shl	[esi+0A16B69F],cl

fn004013C1()
	mov	dh,9F
	mov	dh,16
	or	dl,al
	sub	bh,cl
	add	cl,ah
	sbb	ch,38
	sub	dh,ch
	jc	0040135F

fn004013D2()
	jnz	004013D4

l004013D4:
	jnc	0040135F

l004013D6:
	push	cs
	jo	004013BD

l004013D9:
	les	eax,[ebp-48]
	mov	al,32

fn004013DE()
	call	00402700
	mov	byte ptr [eax+2C4A267C],7B
	jo	0040136C

l004013EC:
	lahf	
	push	E785F068
	popf	
	daa	
	fdiv	dword ptr [eax+30]
	nop	
	push	1B586968
	sar	[eax-28],cl
	jg	004013C1

l00401402:
	sahf	
	push	1AA64268
	fild	word ptr [edx+68957D70]
	push	92DD2199
	pop	ss
	push	ebp
	pusha	
	push	877F6868
	xchg	eax,ecx
	push	D51DC768
	test	[ebp+DD1D44D3],dl
	pushf	
	xchg	eax,ebp
	illegal	
	jg	00401494
	push	62536868
	jbe	0040144A
	in	al,dx
	push	EC
	mov	edi,689C565F
	ret	
	sbb	eax,90E3697C
	illegal	
	lock	
	adc	cl,cl
	enter	7048,2F
	nop	
	push	91EB7F68
	push	35520668
	jpe	004013ED
	cmp	ch,dh
	fdiv	dword ptr [eax-2A]
	nop	
	push	1B586968
	shl	[eax+ebx*8-10],cl
	adc	cl,cl
	enter	7048,01
	nop	
	push	96007F68
	push	5E682568
	lea	ecx,esp
	inc	eax
	xchg	eax,esi
	cmpsb	
	xchg	eax,edi
	adc	eax,15F29657
	scasd	
	push	96A11399
	push	6E16A368
	fcomp	st(0),st(5)
	lodsd	
	rcl	[eax+93261399],cl
	push	80D61D68
	jg	004014C0
	xchg	eax,ebx
	push	93357F68
	push	F4A5D268
	dec	bh
	sti	
	mov	eax,697717CA
	push	97FE6868
	jg	00401471
	sahf	
	push	584F0D68
	dec	ebp
	xchg	eax,esp
	mov	ah,4D
	xchg	eax,esp
	mov	ah,4A
	push	edi
	dec	ebp
	xchg	eax,esp
	mov	ah,7F
	pushf	
	sahf	
	push	06490068
	xchg	eax,edi
	mov	ebp,D31F84D3
	pushf	
	pop	ds
	shl	[eax-18],cl
	jmp	00401476
	push	94381499
	push	D3229968
	cwde	
	pop	ds
	shr	[edi+edi*2+57],cl
	xchg	eax,ebx
	push	81E04E68
	illegal	
	mov	eax,69FAD251
	jcxz	00401540
	jo	00401501
	xchg	eax,edi
	push	699C7D68
	jcxz	0040157A
	fsubr	dword ptr [ecx-1D]
	inc	esp
	jo	00401589
	xchg	eax,esi
	push	6CD36168
	cwde	
	push	A27F6868
	nop	
	push	99FE1B68
	sub	ebx,98E569F2
	fadd	st(0),st(7)
	jo	00401581
	xchg	eax,esi
	push	9CD51D68
	xchg	eax,ebp
	ror	[eax+69],cl
	in	eax,B4
	jg	004015A6
	xchg	eax,ebx
	push	1A82C868
	or	al,BF
	xor	[ebx+70],ah
	adc	al,95
	push	A5ECE568
	sub	[eax-13],dh
	xchg	eax,ebp
	push	11159968
	xchg	eax,esi
	push	D7962568
	jge	0040151E
	mov	cl,[esi-38]
	cld	
	cdq	
	adc	ecx,[ebx+9568689F]
	int	94
	adc	eax,999094ED
	adc	[edx-61],ebx
	push	CDCAC968
	pop	edi
	push	esi
	nop	
	push	6891B27F
	push	CD946657
	out	91,al
	shl	ecx,01
	pop	ds
	xlat	
	nop	
	imul	esp,ebx,48E3694C
	jo	00401600
	xchg	eax,ecx
	push	44CB1D68
	xchg	eax,ebp
	int	AC
	imul	esp,ebp,44E369C4
	imul	esp,ebx,6AF47F48
	imul	ebp,[ecx-7C],F6B9A0D7
	scasb	
	cmp	[eax+68958270],bl
	push	61E52886
	cdq	
	adc	edi,[ebx+edx*4+7F3E6868]
	cmp	[edi+06706868],bl
	xchg	eax,edx
	push	7F5DBD68
	insb	
	xchg	eax,edi
	push	28D22868
	imul	edi,esi,87
	popa	
	xchg	eax,ebp
	inc	eax
	xchg	eax,ebp
	dec	edi
	xchg	eax,ebp
	dec	esi
	sbb	eax,9534655E
	jcxz	00401650
	adc	eax,4E619E7E
	sbb	eax,940C7F5E
	push	BD901D68
	adc	al,40
	mov	eax,A4F86911
	lds	esi,[eax-44]
	sahf	
	push	682FCD68
	cwde	
	push	40C31D68
	sbb	eax,1D5F5CD3
	jg	004015BF
	nop	
	push	3737E368
	test	al,30
	cli	
	imul	ebx,[eax+1D],565F90D3
	nop	
	push	F07C1DC3
	push	7F6868E8
	jmp	far 8768:6897
	mov	bl,C9
	mul	dh
	mov	ebp,AA15DD09
	push	93BA1399
	push	84551568
	adc	eax,99689CED
	adc	ecx,eax
	xchg	eax,ebp
	push	467FC968
	lahf	
	push	7A362C68
	dec	ecx
	pop	esi
	jns	004016C5
	enter	C1C2,1D
	retf	
	nop	
	xchg	eax,ebp
	int	AC
	sbb	ecx,[686868E8]
	sbb	eax,E44D9D8D
	dec	edx
	xchg	eax,ebp
	retf	
	nop	
	jg	0040161C
	xchg	eax,ebp
	push	D9114968
	or	eax,65F71099
	xor	al,1D
	push	ecx
	leave	
	retf	565F
	pushf	
	push	68927D7F
	push	2167BAE0
	pop	edi
	push	esi
	pushf	
	push	C87C1DC3
	sbb	eax,527F9CE3
	nop	
	push	AB1A6E68
	push	edx
	sbb	eax,4E1D9CC6
	adc	eax,C61D9C55
	pushf	
	sbb	eax,95017F86
	push	B8DE1D68
	movsd	
	sub	[edi+29],bh
	imul	ebp,[ecx+69],57
	sub	[ecx+696B267F],dl
	imul	ecx,[edx],A2E7A086
	xor	bl,[1DC1C27C]
	jcxz	00401667
	sbb	eax,9CDB1D6A
	sbb	eax,3E7F98C3
	xchg	eax,edi
	push	6B7F3C68
	xchg	eax,ebx
	push	E5E50E68
	test	[esi+FE58697F],dl
	xchg	eax,edi
	sbb	edx,ebx
	pusha	
	fcomp	dword ptr [ebx]
	shl	[eax+ebx*8-10],cl
	adc	cl,cl
	enter	7F48,74
	insb	
	imul	ebp,[ecx+17],BF87E13E
	xchg	eax,ecx
	mov	al,dh
	push	edi
	mov	edx,70D86740
	push	ds
	xchg	eax,ebx
	push	1D586968
	sar	[eax+5F],cl
	push	esi
	xchg	eax,esp
	push	6897AD7F
	push	CAA5A5AF
	mov	dword ptr [esi+D31DA10E],6943A398
	xchg	[ebx+BB875057],ah
	out	77,al
	add	al,[edi+ebx+46A598D3]
	popa	
	jcxz	004016E2
	push	ds
	aam	8F
	imul	ebx,[esi],107F8EB4
	xchg	eax,esi
	push	2FDCC968
	call	far F66F:81B5
	sbb	eax,9CC3BD45
	xchg	eax,ebp
	int	AC
	sbb	ecx,[68686808]
	sbb	eax,90DB1D8D
	jg	00401794
	xchg	eax,ecx
	push	97891768
	mov	[eax+1D],cl
	jl	0040178F
	push	esp
	pusha	
	lds	eax,edx
	rcr	dword ptr [DD7F9CD3],6B
	imul	ebp,[ecx+77],8F2425E4
	or	dh,[ebx-10]
	cmp	eax,D86495F0
	jo	00401735
	xchg	eax,ebx
	push	5F586968
	push	esi
	nop	
	push	7F7C1DC3
	sub	edx,[eax+7AC56868]
	sahf	
	inc	ecx
	in	al,D4
	sub	al,1B
	rcr	[eax+ebx*8+D890D31B],cl
	illegal	
	lock	
	adc	cl,cl
	enter	7048,D3
	xchg	eax,ebx
	push	115E7D68
	popa	
	cmp	dh,dl
	jnz	00401757
	dec	edi
	cdq	
	adc	ebx,[ebx+68]
	push	94167068
	push	959E7F68
	push	70473C68
	cdq	
	adc	al,FB
	xchg	eax,ebp
	push	7F5F8568
	cmp	ch,[eax+68]
	push	0B14E6FB
	pushf	
	xor	al,FA
	cmpsd	
	jo	00401833
	xchg	eax,esp
	push	C355D868
	sbb	eax,1DC1C27C
	fistp	dword ptr [eax+1D9CE31D]
	jmp	00401798
	jg	004017F0
	push	69
	imul	ebp,esi,0A05F885
	xchg	eax,ebp
	test	al,AC
	sbb	eax,5795B0A8
	pop	ds
	rcr	[eax+69],cl
	jcxz	00401890
	illegal	
	jo	00401849
	xchg	eax,ebx
	push	44D31F68
	jg	004017B2
	nop	
	push	57CE7568
	insb	
	push	esi
	xchg	[ebp+edx+54],dh
	js	004018A3
	jcxz	004017CC
	sbb	edx,ebx
	pusha	
	fdiv	st(0),st(0)
	adc	cl,cl
	enter	7048,2B
	xchg	eax,esp
	push	54CAF068
	popa	
	jpe	00401828
	jo	0040182D
	xchg	eax,esp
	push	6A027F68
	imul	ebp,[ecx-17],7AD3294D
	cmc	
	in	eax,dx
	ret	
	sbb	eax,6454157C
	sbb	edx,ebx
	insb	
	fcom	dword ptr [edi]
	jmp	0040180A
	imul	ebp,[ecx+68],2F119968
	push	E3696868
	pushf	
	jg	004018BB
	push	42406868
	illegal	
	mov	dl,8E
	iret	
	xchg	eax,ebp
	inc	edi
	push	edi
	push	esi
	xchg	eax,ebp
	fistp	word ptr [ebp+95377F5F]
	push	8111E068
	fdivr	double ptr [edi-2C]
	xchg	eax,esi
	push	57D00768
	dec	eax
	nop	
	cmp	al,70
	cmp	[ebp+68AB6868],edx
	jmp	00401915
	push	96BA1599
	push	96897F68
	push	BCF01568
	loop	004018DB
	popa	
	mov	ebp,CA346578
	jg	00401904
	xchg	eax,edx
	push	99469668
	adc	edx,[edx]
	xchg	eax,ebp
	push	D2821E68
	xchg	[esi+7F],al
	in	al,dx
	xchg	eax,ebp
	push	315B1868
	jge	004018D0
	pop	esp
	pop	esp
	pop	esp
	pop	esp
	sbb	ebx,edx
	js	004018D8
	push	196868A2
	shl	[eax-10],cl
	push	196868A2
	shl	[eax+esi*8-60],cl
	mov	al,[D319F9FB]
	jl	0040191D
	ror	[eax+7F],cl
	adc	edx,[esi+49DA6868]
	stosb	
	cwde	
	sti	
	inc	edx
	fcomp	double ptr [ebx]
	int	80
	imul	esp,ebp,4CD319A0
	imul	esp,ebp,8CE569A0
	imul	esp,ebp,97AC7FA0
	push	A587A768
	hlt	
	out	dx,al
	illegal	
	jg	00401970
	xchg	eax,edi
	push	1B68FE68
	shl	[eax+ebx*8+69],cl
	jcxz	004018D6
	fdiv	st(0),st(0)
	adc	cl,cl
	enter	7F48,38
	xchg	eax,edi
	push	1A336168
	stc	
	jo	00401923
	xchg	eax,ebx
	push	6CD36168
	nop	
	push	14996868
	mov	[ebp+E3696868],dl
	js	004019C8
	jcxz	004019C5
	imul	esp,ebx,959F7F74
	push	C7629468
	out	dx,ax
	jcxz	00401900
	xchg	eax,ebp
	lodsd	
	xchg	eax,ebp
	jmp	00401904
	xchg	eax,edi
	adc	dword ptr [7F159652],7F5F9D96
	dec	esi
	insd	
	imul	ebp,[ecx+7F],E1EEAF89
	xor	eax,EB150AA9
	pushf	
	push	97BD1399
	push	60D31D68
	leave	
	retf	5FCD
	push	esi
	cwde	
	push	68946E7F
	push	7ACE585A
	mov	al,[696C027F]
	imul	ebx,[D3959CD5],B170D890
	xchg	eax,esi
	push	6CD31F68
	adc	eax,149968AD
	add	[edi+A51D6868],dl
	jg	004019CE
	xchg	eax,edi
	push	971C7F68
	push	19E42668
	add	al,80
	inc	edx
	mov	cl,10
	hlt	
	pop	dword ptr [ecx+10]
	xchg	eax,esp
	mov	ds,di
	popf	
	pop	edi
	cdq	
	adc	edx,esp
	imul	ebp,[ecx+69],CD
	pop	edi
	push	esi
	pushf	
	push	6C4D7FC3
	imul	ebp,[ecx+50],F2D2CB48
	movsd	
	nop	
	jo	00401990
	xchg	eax,ebp
	push	9C2CF068
	push	edx
	in	eax,D8
	jo	00401A0B
	xchg	eax,esi
	push	1D586968
	shr	[edi+edi*2-4A],cl
	outsb	
	imul	ebp,[ecx+6D],C8943E6B
	cdq	
	adc	edi,[edi]
	xchg	eax,esi
	push	48D31F68
	insb	
	lock	
	push	19686868
	shr	[eax+esi*8-32],cl
	into	
	enter	19B6,D3
	pusha	
	lock	
	pop	esp
	pop	esp
	pop	esp
	pop	esp
	sbb	ebx,edx
	jg	00401A4A
	push	69
	imul	eax,[edi],FEE6F939
	push	es
	push	861D947D
	movsd	
	sub	[ebp+F7139945],ch
	insb	
	imul	ebp,[ecx-33],6895EF7F
	push	0E6DA954
	imul	esp,ebp,8CE5698C
	jo	00401AC1
	outsd	
	imul	ebp,[ecx+70],69696D26
	jo	00401A67
	xchg	eax,ebp
	push	48D31F68
	hlt	
	sbb	eax,6868B89B
	push	696E697F
	imul	eax,[ebx+8898EF1F],346516FB
	jge	00401A2E
	sbb	eax,34659CDB
	jg	00401B04
	push	69
	imul	ebx,[D3BF6CD3],9E281560
	mov	edi,487F9CD3
	push	69
	imul	eax,[ecx+EDC5724A],E31DB900
	nop	
	sbb	eax,CB22996A
	xchg	[edi+5D],edi
	push	69
	imul	edx,[E69E9CEB],A5551D5E
	inc	esi
	das	
	sahf	
	push	977F6868
	insd	
	imul	ebp,[ecx+61],E86D8726
	insb	
	xchg	eax,ebx
	in	eax,92
	adc	eax,96E1E960
	xlat	
	xlat	
	add	ebx,[C2972553]
	jg	00401B46
	imul	ebp,[ecx+69],E3
	les	esi,fs:[ecx+edx*2]
	mov	ch,70
	wait	
	xchg	eax,esi
	push	54CAF068
	popa	
	jpe	00401AD8
	jo	00401B0D
	xchg	eax,edi
	push	69586968
	jcxz	00401A9A
	lock	
	adc	cl,cl
	enter	7048,65
	xchg	eax,edi
	push	95087F68
	push	08C9DB68
	illegal	
	div	dh
	sbb	dword ptr [edi+69],E5
	nop	
	fdiv	dword ptr [eax-1D]
	insb	
	imul	ebp,[ecx-31],DFB05515
	popf	
	pop	edi
	cdq	
	adc	esi,[ecx+60]
	imul	ebp,[ecx+69],E36970E3
	inc	esp
	jg	00401B99
	push	DAE16868
	sub	eax,024A559A
	cdq	
	push	ss
	popf	
	xchg	eax,edi
	push	ECBD5568
	mov	ah,B0
	pop	ds
	in	al,dx
	mov	ah,8C
	neg	dword ptr [edi+56]
	nop	
	push	9598E51D
	jcxz	00401AF4
	sbb	eax,EB9598ED
	nop	
	jg	00401BCB
	outsb	
	imul	ebp,[ecx+3B],6868683F
	call	95213012
	push	6868A368
	push	F67FD8E8
	xchg	eax,esp
	push	18DD0A68
	imul	eax,[ebx+ACA895D0],1D
	rcr	al,01
	pop	ds
	illegal	
	illegal	
	imul	esp,ebx,48E3694C
	jo	00401C0A
	insd	
	imul	ebp,[ecx+1D],501D48D3
	jg	00401B9B
	insb	
	imul	ebp,[ecx+7A],5D3C841C
	test	[565FC93E],edi
	nop	
	push	C57C1DC3
	ret	1DC1
	jmp	00401B5F
	jg	00401B86
	xchg	eax,edi
	push	E6FD7D68
	outsd	
	or	eax,F00FCBBD
	jnz	00401B90
	adc	al,43
	fdiv	dword ptr [eax+51]
	push	58696868
	pop	edi
	push	esi
	xchg	eax,esp
	push	7F7C1DC3
	fld	tword ptr [ecx+ebp*2+69]
	wait	
	outsb	
	mov	byte ptr [esi+esi*8+3A],79
	push	eax
	illegal	
	fdiv	st(0),st(0)
	adc	cl,cl
	enter	7048,9F
	xchg	eax,edi
	push	F03DF068
	xchg	eax,ebp
	fdivr	dword ptr fs:[edi+7E]
	insd	
	imul	ebp,[ecx-13],92628356
	aas	
	out	70,al
	call	far 1D69:696E
	illegal	
	sbb	eax,D41DACD7
	xchg	eax,edi
	mov	al,95
	push	edi
	pop	ds
	rcr	[ebp+ebx-35],cl
	dec	eax
	imul	esp,ebx,58E3695C
	jg	00401C77
	xchg	eax,edi
	push	4F7F8168
	inc	esp
	cdq	
	adc	esi,[eax]
	outsb	
	imul	ebp,[ecx+1D],DB1D90D3
	pushf	
	sbb	eax,90A798C3
	cmpsd	
	cwde	
	leave	
	retf	D67F
	outsb	
	imul	ebp,[ecx-27],4584F9BE
	ror	dword ptr [ecx+55],A5
	pop	edi
	xlat	
	jo	00401C5C
	insb	
	imul	ebp,[ecx-7B],6CF6705F
	imul	ebp,[ecx+7F],69696A4A
	in	eax,dx
	retf	
	illegal	
	add	eax,70C57EFE
	ret	
	xchg	eax,esi
	push	74D31F68
	imul	esp,ebx,74E36960
	lds	esi,[eax-10]
	imul	ebp,[ecx+69],61
	shr	[esp+edx*4+68],cl
	push	F9149968
	pusha	
	imul	ebp,[ecx-28],6960C97F
	imul	ebx,[A555E9FF+edx*8],1DC324F2
	jl	00401CBB
	push	esp
	insb	
	lds	eax,edx
	rcr	dword ptr [A89590D3],AC
	sbb	eax,D17F90C3
	xchg	eax,esi
	push	48FEC768
	iret	
	jno	00401C76
	illegal	
	pop	ds
	rol	[eax+1D],cl
	sar	[ebp+edi*2-6A],cl
	jge	00401C62
	rcl	byte ptr [edi+70],01
	cdq	
	push	edi
	dec	eax
	cdq	
	cdq	
	and	[eax+CEDB7F17],edx
	push	7F5F9D68
	scasb	
	imul	ebp,[ecx+69],42
	xor	eax,4744C777
	mov	dword ptr [esi],8567E85E
	xchg	eax,esi
	pop	edx
	inc	esi
	sub	[esi],bl
	pop	esi
	inc	esi
	push	eax
	jg	00401D13
	insd	
	imul	ebp,[ecx-74],1F0D06F4
	xchg	eax,ecx
	fmulp	st(5),st(0)
	pop	edi
	push	esi
	nop	
	push	C57C1DC3
	hlt	
	sbb	eax,6868B883
	push	696F197F
	imul	edx,[ecx+674D024A],F4B58805
	sbb	eax,6868B88B
	push	1D9CCD1D
	lds	ebx,[ebp+ebx+937D9CE5]
	jg	00401DA7
	xchg	eax,esi
	push	8CD21D68
	lodsd	
	push	ecx
	cdq	
	adc	eax,[ecx-6A]
	push	90E36968
	jg	00401D9A
	xchg	eax,esi
	push	4CB43B68
	cld	
	inc	ecx
	xlat	
	fcom	dword ptr [ecx+ebx*4+6960B814]
	imul	ebp,[ecx-1D],624B7048
	imul	ebp,[ecx+69],E3694CE3
	dec	eax
	jo	00401D96
	pusha	
	imul	ebp,[ecx+1D],CD9544CB
	lodsb	
	jg	00401D81
	insd	
	imul	ebp,[ecx-2B],C38ABEF4
	sbb	eax,28A5C17C
	sbb	eax,EB1D9CDB
	nop	
	jg	00401D46
	push	69
	imul	eax,[edx+74],FB191198
	xchg	eax,edi
	fdivr	st(0),st(6)
	imul	esi,eax,48C8C910
	jo	00401D9A
	imul	ebp,[ecx+69],96C5F2F0
	illegal	
	fdiv	dword ptr [eax+6F]
	push	69
	imul	edi,[edi-04],97696960
	xchg	eax,esp
	sbb	[esi+ebx*8],esi
	sub	[ecx+D09C2199],bh
	sbb	eax,56958CD1
	sbb	eax,56951094
	jg	00401E0B
	xchg	eax,esi
	push	96297F68
	push	96207F68
	push	880ACA68
	mov	dword ptr [edi+56],1DC36894
	jl	00401DDC
	test	al,F0
	push	1B6868B8
	rcr	[eax+ebx*8+D31B68FE],cl
	nop	
	jge	00401E25
	fsubr	double ptr gs:[esi+06]
	js	00401D9C
	mov	dword ptr [A55E959A],57927D28
	sub	[ecx+E8D797A6],dl
	scasd	
	push	AC7F63E3
	xchg	eax,edi
	push	EF6A7E68
	inc	ch
	jo	00401E4B
	imul	ebp,[ecx+69],C5
	jo	00401E3D
	xchg	eax,edi
	push	95551D68
	test	al,AC
	jg	00401E7E
	popa	
	imul	ebp,[ecx+7A],00F02DD2
	ficomp	dword ptr [ebx]
	shl	[eax+ebx*8-02],cl
	push	10F068FE
	leave	
	enter	7048,51
	push	69
	imul	esi,eax,A5B46922
	jg	00401DDF
	bound	ebp,[ecx+69]
	dec	ecx
	insd	
	ret	159A
	push	edx
	cwde	
	lock	
	push	1F6868A8
	fdiv	double ptr [eax+ebp+28B4DC1B]
	mov	dword ptr [edi],1B28B4C4
	les	esi,[eax+ebp+6B147FC6]
	imul	ebp,[ecx-6C],837349E0
	mov	dword ptr [651D907F],7F905215
	insb	
	outsb	
	imul	ebp,[ecx-67],21999221
	pusha	
	repne	
	pop	ss
	jno	00401EF3
	cdq	
	repne	
	push	edi
	jo	00401E2B
	adc	eax,427F9560
	outsb	
	imul	ebp,[ecx+24],E2DA6ED5
	mov	al,4C
	ret	
	sbb	eax,DB1DC57C
	pushf	
	sbb	eax,A37F90CB
	insd	
	imul	ebp,[ecx+7F],696960EC
	mov	[EA9C1897],al
	push	edi
	ja	00401EAA
	popa	
	inc	esi
	cld	
	out	dx,ax
	fdiv	dword ptr [eax+4A]
	imul	ebp,[ecx+69],69
	pop	eax
	sbb	eax,565F6CD3
	nop	
	push	60347FC3
	imul	ebp,[ecx+3D],E1586652
	mov	al,[457D995B]
	dec	edx
	push	edi
	dec	ebp
	xchg	eax,esp
	mov	ah,4A
	push	edi
	cdq	
	jge	00401F3E
	sbb	ebx,edi
	xchg	eax,edi
	pop	ss
	outsd	
	test	[edx],bh
	rcl	dword ptr [edi+63531399],01
	imul	ebp,[ecx+7F],6868681A
	xor	dh,A4
	imul	edx,[ebp+ebx-58],E0
	xchg	eax,ebp
	push	esi
	sbb	eax,88F81D60
	xchg	eax,ebp
	sbb	ax,80D0
	pop	ds
	fld	tword ptr [ebp+ebx-35]
	pushf	
	movsd	
	pop	edi
	jg	00401EFC
	xchg	eax,edi
	push	6A447F68
	imul	ebp,[ecx+09],9D00B3B4
	dec	ebp
	cdq	
	adc	al,D5
	bound	ebp,[ecx+69]
	lodsd	
	fistp	dword ptr [ecx+ebx*4+6962AE14]
	imul	edx,[ebp+B07F90CB],1D696962
	fst	double ptr [edi+edi*2+696969BB]
	clc	
	aaa	
	pushf	
	or	esp,[ebx+DDD86E16]
	lodsd	
	push	ebp
	cdq	
	adc	esp,[ebp+1D686897]
	shl	dword ptr [ebp+edx*4+C57FCF56],01
	push	69
	imul	esi,[ecx],774CC776
	scasb	
	sbb	eax,266C90EB
	call	25746D17
	xchg	eax,esi
	jo	00401F3C
	outsd	
	imul	ebp,[ecx-1B],7F5FA562
	sub	[ebx+69],esp
	imul	edx,[ebp+A57272F4],C0CBCC5A
	dec	ebp
	test	[eax+eax*8+68689520],dh
	push	1AF246A5
	jo	00401F8B
	sbb	al,70
	inc	edi
	push	eax
	out	6F,al
	sbb	eax,8F7F60D3
	imul	ebp,[ecx+69],78
	ret	2FAD
	add	[ebx+157C1DC3],ecx
	push	esp
	pop	esp
	lds	edi,esi
	push	501DA799
	jg	00402035
	imul	ebp,fs:[ecx+42],A9DA9863
	and	al,0F
	dec	edi
	cdq	
	adc	edi,edi
	imul	ebp,[ecx+69],C9
	retf	5FCD
	push	esi
	pushf	
	push	157C1DC3
	push	esp
	insb	
	lds	edi,[edi-14]
	bound	ebp,[ecx+69]
	wait	
	rcr	eax,01
	pushf	
	sar	byte ptr [edi+E3692C5B],01
	insb	
	jo	00401FD4
	pusha	
	imul	ebp,[ecx+7D],90D39599
	sbb	ebp,[eax+E369D896]
	insb	
	jo	00401FC6
	pusha	
	imul	ebp,[ecx+3D],6962A77F
	imul	eax,[edi+795BE14C],80D21925
	imul	esp,ebx,8CD21998
	jge	0040203B
	sbb	eax,7D66ADA2
	aas	
	std	
	fidivr	dword ptr [eax+00]
	cdq	
	and	al,03
	retf	5FCD
	push	esi
	xchg	eax,esp
	push	C57C1DC3
	ret	1DC1
	retf	
	nop	
	jg	00401FBF
	popa	
	imul	ebp,[ecx+41],A7BBABE2
	lock	
	lock	
	sbb	eax,CD9548CB
	lodsb	
	pop	ss
	push	ebp
	mov	[edi+CD1D6868],dl
	pushf	
	xchg	eax,ebp
	retf	
	dec	eax
	imul	esp,ebx,74E3697C
	lds	edi,[edi+7E]
	pusha	
	imul	ebp,[ecx-1B],677D0678
	adc	eax,D31B6C54
	insb	
	fsubr	dword ptr [ecx-1D]
	cwde	
	sbb	edx,ebx
	pushf	
	fcomp	dword ptr [ebx]
	rcl	[eax+F069FED8],cl
	adc	cl,cl
	enter	7F48,EE
	outsd	
	imul	ebp,[ecx+21],35E1548F
	lahf	
	int	03
	les	esp,[ebp+5215CF28]
	xchg	eax,esp
	xlat	
	lodsd	
	fld	tword ptr [ecx+ebx*4+16]
	int	6B
	imul	ebp,[ecx-37],6CF77FCA
	imul	ebp,[ecx-6D],0FBDFA4F
	mov	dh,62
	call	dword ptr [eax-76]

fn004020AA()
	mov	bl,ah
	add	bh,dl
	mov	bl,96
	add	eax,08
	or	bl,bh
	add	bl,al
	add	ebx,edi
	call	0040290D
	cli	
	lodsd	
	mov	eax,[0AD92EF3]

fn004020C4()
	or	al,bl

fn004020C5()
	ret	
004020C6                   FE C8 F6 D8 4A 2A FB 0A EC E9       ....J*....
004020D0 0D 0A 00 00                                     ....           
004020D4             68 ED 71 47 EC                          h.qG.      

fn004020D9()
	add	ecx,eax
	inc	dl
	xor	ch,bh
	add	dh,FC
	dec	cl
	call	eax
	js	0040231B

l004020EC:
	xchg	bl,bl
	jns	0040231B

l004020F4:
	adc	eax,0C1AA1F7
	rol	[esp+esi*8+EC24448F],cl

fn004020FC()
	pop	dword ptr [esp-14]
	sub	ebx,edx
	xor	dh,ch
	xor	ah,dl
	pop	edi
	xor	bh,al
	add	ah,dh
	jbe	0040215F

fn0040210D()
	mov	dl,dl
	repne	
	ja	0040215F
	popa	
	add	edi,esi
	jno	00402097

fn00402116()
	adc	bh,13
	not	bl
	adc	bh,3C
	sub	bl,dh
	sbb	bl,CC
	dec	bh
	neg	bh
	sub	ebx,edi
	jo	004023E7

l0040212F:
	mov	edi,edi
	jno	004023E7

l00402137:
	or	eax,esi
	outsd	
	ret	
0040213B                                  46 53 18 FA               FS..

fn0040213F()
	lea	esp,[esp+04]
	add	dl,ah
	mov	al,bl
	mov	cl,52
	add	al,42
	not	dl
	mov	bl,37
	neg	bl
	inc	ecx
	dec	ebx
	jmp	0040292A
00402159                            05 D2 70 4A 4F 58             ..pJOX

fn0040215F()
	xor	edx,ebx
	inc	esi
	inc	eax
	neg	dl
	or	dh,al
	mov	dh,D3
	sub	ebx,edx
	js	00402DEA

l00402171:
	lea	bx,[ebx]
	jns	00402DEA

l0040217A:
	pop	edx
	xor	al,94
	mov	esp,[ebx-5D]

fn00402180()
	pop	dword ptr [esp-30]
	neg	ch
	add	edx,00000024
	adc	cl,23
	neg	cl
	add	bh,cl
	xor	ch,cl
	inc	edi
	sub	ecx,esi
	dec	cl
	jc	004025A2

l004021A0:
	jno	004021A2

l004021A2:
	jnc	004025A2

l004021A8:
	call	far 9DE0:79BA
	xor	edi,edx
	or	bh,ch
	sub	edi,eax
	inc	bl
	or	bh,cl
	or	edi,ebx
	add	bl,72
	jmp	00402604
	xchg	eax,edx
	jc	00402204
	xor	al,22
	daa	
	mov	dh,80

fn004021C8()
	sbb	dl,25
	sub	dl,ch
	add	ebx,edi
	or	dl,bl
	movzx	edx,al
	not	bl
	sub	bl,dh
	call	00402AF9
	or	esi,[edi]
	xchg	eax,edi
	dec	bl

l004021E1:
	dec	bl

fn004021E3()
	xor	bh,dh
	or	bh,bl
	or	bl,cl
	sbb	bh,2C
	dec	edx
	adc	bh,F7
	inc	edx
	call	00402CF7

fn004021F6()
	imul	edi,[edi+A149F95F],DB80FB02

fn004021FC()
	add	bh,bl

fn004021FE()
	sbb	bl,2D

fn00402200()
	sub	eax,C8FED633
	or	dh,al
	mov	ebx,54AB543F
	inc	al
	jpe	00402486

fn00402214()
	jge	00402216

l00402216:
	jmp	0040221C
0040221B                                  03                        .   

l0040221C:
	jpo	00402486

l00402222:
	int	0F
	jmp	8FA0C370

fn00402228()
	pop	dword ptr [esp-34]
	sbb	dl,00
	mov	edx,ebx
	dec	esi
	mov	esi,ebx
	add	esi,edi
	call	00402541
	mov	dl,59
	xchg	eax,ebp
	push	eax

fn00402240()
	or	dh,cl
	dec	edx
	not	dh
	inc	edx
	add	edx,esi
	dec	edx
	sub	esi,edx
	add	esi,eax
	not	dl
	dec	esi
	jmp	004029BE
00402255                16 87 78 29 7B                        ..x){     

fn0040225A()
	lea	esp,[esp+04]
	inc	ah
	add	edx,ebx
	neg	dl
	dec	ah
	sub	al,dl
	dec	dh
	jbe	0040285E

l00402270:
	mov	al,al
	ja	0040285E

l00402278:
	inc	ecx
	xchg	eax,esp
	out	2F,al
	jns	004021FE

fn0040227D()
	adc	ah,A4

l0040227E:
	aam	A4

l00402280:
	mov	al,73
	not	al
	inc	ch
	dec	edx
	sub	dl,dh
	xor	ebx,esi
	or	bl,ch
	ret	
0040228E                                           0F 82               ..
00402290 49 0C 00 00 F3 0F 83 42 0C 00 00 66 FC 07 DA 32 I......B...f...2
004022A0 18 D5                                           ..             

fn004022A2()
	lea	esp,[esp+04]
	neg	cl
	xor	eax,edx
	sub	esi,edi
	neg	dl
	sub	edx,ecx
	mov	edi,esi
	inc	bh
	xor	edi,ebx
	inc	ch
	jmp	0040287C
004022BD                                        8E 5F B1              ._.
004022C0 EA 2E D8 F6 D3 32 D9 80 DE B2 03 D1 32 C3 FF 31 .....2......2..1
004022D0 E9 7E 03 00 00 06 8C 9B 1E 66 9A 14 B6          .~.......f...  

fn004022DD()
	mov	[esp],ecx
	mov	di,di
	pop	ecx
	adc	dl,4B
	inc	ebx
	add	edi,esi
	or	ecx,eax
	add	bh,cl
	push	00003000
	sub	eax,edi
	jmp	00402AC7
004022FA                               09 53 DC 3A DB 0A           .S.:..
00402300 C3 7D                                           .}             

fn00402302()
	pop	dword ptr [esp-34]
	inc	edx
	or	esi,eax
	mov	al,C9
	or	ah,bh
	add	al,4D
	jmp	00402D73
00402315                AB 7B 80 BF 57 33                     .{..W3    

l0040231B:
	mov	ch,65
	or	cl,dh
	add	esi,edi
	sub	dl,bl
	inc	dh
	add	bh,83
	mov	ebx,ecx
	adc	dl,E0
	inc	edi
	or	bl,ah
	jmp	00402985
00402335                01 3E 81 31 04 0E D3 F0               .>.1....  

fn0040233D()
	mov	[esp],edx
	xchg	dx,dx

fn00402342()
	rcr	[edx-3F],cl
	call	F373725A
	sub	esi,eax
	mov	esi,ecx
	call	004029D8
	iret	
	insd	
	mov	ebx,ebx

fn00402357()
	sub	esi,ebx
	add	esi,edi
	inc	ecx
	adc	dl,61
	dec	edx
	xor	edx,edi
	call	0040277D
	add	dword ptr [ebx+50EDE1DB],03D2F6EC

l0040236F:
	not	dl
	add	edi,esi

l00402372:
	illegal	
	ror	byte ptr [edx],01
	retf	
	sub	ebx,edi
	inc	eax
	call	0040243E
	pusha	
	mov	eax,E72F98DF
	sub	eax,EC24448F

fn00402386()
	pop	dword ptr [esp-14]
	dec	eax
	mov	ah,dl
	mov	ah,bh
	mov	esi,eax
	xor	ebx,54AB58FD
	call	0040225A
	loopne	00402342

l0040239E:
	int	03
	arpl	[esi],bx

fn004023A1()
	dec	bh
	or	esi,edx
	neg	dl
	neg	dh
	or	edx,ecx
	sbb	bh,18
	jpe	00402A80

fn004023B4()
	jmp	004023BA
004023B9                            9E                            .     

l004023BA:
	lea	edx,[edx]
	jpo	00402A80

l004023C2:
	test	al,A3
	cmpsd	
	test	byte ptr [edx],DF

l004023C6:
	add	bl,bh

fn004023C8()
	neg	bl
	inc	bl
	adc	bl,3A
	add	bh,F2
	inc	esi
	sub	edi,esi
	dec	bl
	add	bl,7B
	jmp	004024E0
004023DF                                              34                4
004023E0 54 BE F5 63 65 37 9E                            T..ce7.        

l004023E7:
	add	bh,C0
	mov	eax,ecx
	sub	bh,dl
	dec	edi
	sub	bh,bl
	xor	edi,esi
	or	edi,eax
	dec	bh
	call	00402E61
	pop	ebx
	sbb	al,9C
	outsd	

fn00402400()
	pop	dword ptr [esp-14]
	xor	edi,edx
	sub	bh,bl
	xor	bl,bh
	not	bh
	inc	edi
	not	bl
	mov	bh,ch
	jc	00402820
	jl	00402419
	jnc	00402820
	pop	ebx
	cmp	eax,52E456B7
	das	
	xor	bh,dh

fn00402427()
	dec	dl
	sbb	dl,58
	xor	ebx,esi
	dec	esi
	or	bl,dl
	neg	dl
	call	00402302
	rcl	dl,E0
	sub	byte ptr [ebp+24448F88],D4
	mov	ch,dl
	mov	edi,edx
	dec	ebx
	adc	dl,83
	sbb	bh,D6
	adc	dl,AD
	call	0040213F
	ficom	word ptr [edx+esi*4-2E]
	mov	ds,[edx-73]
	inc	eax

fn0040245D()
	mov	[esp],eax
	jle	00402462

l00402462:
	jmp	00402468
00402467                      15                                .       

l00402468:
	pop	eax
	or	esi,ecx
	cmp	edx,EE97D64D
	jnz	0040286F

l00402477:
	mov	bl,A2
	jmp	0040236F
0040247E                                           4B 34               K4
00402480 15 D9 A9 9D 52 2E                               ....R.         

fn00402486()
	dec	esi
	sbb	al,64
	mov	al,E0
	add	al,dh
	dec	eax
	add	edx,ecx
	or	ah,dl
	inc	al
	adc	al,D4
	jmp	00402E4A
0040249D                                        CE F6 6C              ..l
004024A0 28 2F                                           (/             

l004024A2:
	xor	esi,edi
	sbb	dh,B7
	adc	dh,25
	or	dh,dl
	dec	dh
	sub	dh,ah
	dec	ebx
	call	004024BC
	sub	esp,[ecx+0DC9CC38]

fn004024BC()
	lea	esp,[esp+04]
	neg	dh
	not	dh
	mov	dh,dl
	xor	dh,ah
	neg	dl
	add	dl,bl
	jz	00402E2B

l004024D2:
	xchg	ah,ah
	mov	edi,edi
	jnz	00402E2B

l004024DC:
	adc	[ebx+FB32ABF7],dl

fn004024E0()
	xor	bh,bl

fn004024E2()
	adc	bl,9D
	or	edi,esi
	push	dword ptr [eax+10]
	add	esi,ecx
	xor	bl,ah
	sbb	bh,9A
	adc	bl,2C
	call	00402E80

fn004024F9()
	scasb	
	dec	edi
	and	esi,esi
	in	al,dx
	push	edx
	mov	es,[eax+CBFEB3C6]

l00402500:
	add	dh,B3
	dec	bl

fn00402505()
	inc	esi
	add	ebx,edx
	adc	dl,FE
	xor	ah,bh
	mov	dl,1D
	shr	ecx,0F
	adc	dh,28
	neg	al
	jmp	00402A3E
0040251C                                     C9 01 2B B1             ..+.
00402520 54 3C                                           T<             

l00402522:
	xor	eax,ebx
	sbb	dl,9F
	add	dh,0D
	sbb	al,1B
	or	dh,ch
	sub	edx,ebx
	sub	esi,edx
	neg	ah
	or	edx,ebx
	dec	edx
	jmp	00402500
0040253A                               7C E9 21 37 EF 28           |.!7.(
00402540 DC                                              .              

fn00402541()
	lea	esp,[esp+04]
	or	esi,ecx
	xor	esi,ebx
	dec	esi
	inc	esi
	sub	esi,ebx
	sub	edx,116829B3
	mov	esi,eax
	mov	esi,edi
	call	0040245D
	or	dword ptr [esi+FE3D1789],24148705

fn00402563()
	xchg	[esp],edx

fn00402566()
	jmp	0040256C
0040256B                                  85                        .   

fn0040256C()
	xchg	dx,dx
	pop	edx
	sub	dl,cl
	add	dh,bl
	sub	esi,eax
	jmp	00402240
0040257B                                  92 18 63 50 EB            ..cP.
00402580 48 CB 23                                        H.#            

fn00402583()
	pop	dword ptr [esp-18]
	dec	bh
	xor	bl,ah
	sub	ebx,ecx
	xor	ebx,esi
	not	eax
	adc	bh,49
	dec	edi
	xor	ebx,eax
	call	00402AA7
	inc	esp
	illegal	
	lodsd	
	pop	edi
	cdq	
	xor	dh,D3

l004025A2:
	not	bl
	add	bl,bh
	or	bh,al
	mov	eax,[edx]
	inc	edi
	xor	edi,eax
	call	00402747
	mov	al,[6A5DC853]

fn004025B6()
	push	00

fn004025B7()
	add	dh,dh
	xlat	
	sub	dh,bl
	sub	ch,cl
	dec	bl
	inc	bl
	not	dh
	jmp	004020D9
004025C9                            6D 7D 5A 12 6A                m}Z.j 

l004025CE:
	dec	ebx
	xor	ebx,esi
	sbb	bh,36
	mov	bl,CC
	inc	esi
	mov	bl,0A
	jmp	00402116
004025DE                                           D1 BD               ..
004025E0 17 3F 78 6B 2F                                  .?xk/          

l004025E5:
	sub	edi,esi
	add	dl,29
	add	dh,ch
	dec	ebx
	mov	eax,ecx
	call	004025F4

fn004025F4()
	xor	edi,ecx
	dec	ch
	jmp	004020C4
004025FD                                        9D 9A 1F              ...
00402600 93 B5 2D 86 03 DE 2B FB 02 FB FE C7 0A DD FE C3 ..-...+.........
00402610 E9 4A 03 00 00 35 05 88 2B                      .J...5..+      

fn00402619()
	lea	esp,[esp+04]
	inc	edi
	not	cl
	pop	ecx
	or	dl,ah
	xor	edx,edi
	not	bl
	mov	esi,ebx
	neg	bl
	jmp	004021E1
00402630 5F 3C E5 2E 8D                                  _<...          

l00402635:
	adc	bh,2B
	mov	esi,ecx

fn0040263A()
	xor	edi,ecx
	dec	esi
	inc	esi
	dec	esi
	mov	bh,23
	inc	bl
	adc	bh,15
	jmp	00402CAC
0040264B                                  A6 37 E2 A6 08            .7...
00402650 39 A8 65 2B DA FE C6 F6 D3 4F 02 F7 4E 80 C6 37 9.e+.....O..N..7
00402660 F6 DB 0B C1 2A DC E8 39 03 00 00 50 13 7A 68 68 ....*..9...P.zhh
00402670 88 91                                           ..             

l00402672:
	xor	cl,bl
	mov	ch,36
	neg	ch
	sub	ch,bh
	not	bh
	inc	ch
	or	bl,dl
	sbb	ch,5D
	xor	ebx,ecx
	call	00402180
	dec	ecx
	sbb	[ebp-33],ebp
	out	dx,al
	mov	[ecx-76],ebp

fn00402692()
	inc	dl
	inc	eax
	mov	dh,bh
	adc	bh,BA
	adc	dl,A6
	dec	dl
	dec	ebx
	call	00402B18
	test	[edx],esi
	aam	57
	jmp	0040263A

fn004026AA()
	pop	dword ptr [esp-0C]
004026AB                                  44 24 F4 FE CB            D$...
004026B0 02 EE 0A FB FE C2 FE CF 2B D0 E9 87 01 00 00    ........+......
004026BF                                              FC                .
004026C0 45 39 83 7B 8A                                  E9.{.          

fn004026C5()
	mov	[esp],ebx
	jmp	004026CD

l004026CD:
	mov	bh,bh
	pop	ebx
	or	esi,ecx
	inc	dl
	add	esi,ebx
	inc	esi
	jmp	004028EE
004026DC                                     62 68 11 39             bh.9
004026E0 CB 38 EE 75                                     .8.u           

fn004026E4()
	mov	[esp],eax
	push	eax
	pop	eax
	pop	eax
	add	esi,ebx
	mov	bl,ch
	pop	edx
	inc	bh
	not	bh
	call	004027AF
	add	bh,[esi]
	sahf	
	xor	eax,[eax+4109B7A3]

fn00402700()
	inc	ecx

fn00402701()
	add	ecx,eax
	inc	bl
	dec	bh
	inc	edi
	sub	ah,cl
	sub	ebx,ecx
	or	bl,al
	xor	cl,bl
	mov	cl,F5
	call	004022A2

fn00402717()
	xchg	eax,edi
	mov	dword ptr [bx+si],074772DC

fn0040271F()
	xor	edx,eax
	adc	dl,BB
	sub	dl,ch
	add	dh,16
	mov	dl,FF
	dec	esi
	not	dl
	jpe	00402357

l00402734:
	xchg	al,al
	lea	cx,[ecx]
	jpo	00402357

l0040273F:
	std	
	in	eax,33
	or	al,49
	fsub	double ptr [ecx+72]

fn00402747()
	lea	esp,[esp+04]
	add	dl,bl
	adc	cl,6C
	add	edi,eax
	or	ebx,esi
	mov	ecx,ebx
	jmp	00402DBC
0040275B                                  D8 05 3E E2 64            ..>.d
00402760 F3 8F 81                                        ...            

fn00402763()
	mov	ebx,eax
	adc	bh,B4
	lea	eax,[eax+78]
	or	bh,ah
	mov	bh,9A
	adc	bh,4C
	jmp	00402E9D
00402777                      89 5A 89 46 71 FA                 .Z.Fq.  

fn0040277D()
	pop	dword ptr [esp-20]
	dec	dl
	not	dh
	or	dl,bh
	dec	dl
	dec	dl
	or	esi,eax
	mov	dh,CA
	mov	dh,46
	add	dh,AA
	jle	004024A2

l0040279A:
	jmp	004027A0
0040279F                                              7C                |

l004027A0:
	push	esi
	pop	esi
	jg	004024A2

l004027A8:
	add	ebp,es:[ecx+36AB175C]

fn004027AF()
	xchg	[esp],ebx
	lea	cx,[ecx]
	pop	ebx
	sub	ebx,edx
	or	ebx,ecx
	dec	bh
	sub	esi,edi
	adc	bh,1C
	adc	bl,20
	jl	00402BFD

l004027CA:
	xchg	dl,dl
	jge	00402BFD

l004027D2:
	nop	
	push	edi
	stc	
	mov	cl,C7

fn004027D7()
	add	bl,CC
	sub	bh,dh
	inc	bh
	xor	ebx,ecx
	dec	edi
	dec	ebx
	lea	edx,[eax+000000F8]
	neg	bh
	sub	esi,edx
	jo	00402C93

l004027F2:
	rep	
	jno	00402C93
	sti	
	mov	ch,8D
	jle	004027F4

fn004027FD()
	neg	bl
	inc	ebx
	neg	bh
	add	eax,ecx
	dec	bh
	dec	esi
	or	esi,eax
	jc	004023C6

l0040280F:
	mov	eax,eax
	rep	
	jnc	004023C6
	jmp	far A6DA:BE8A
	fist	word ptr [edi+8BF8039F]

fn00402820()
	add	edi,eax
	mov	esi,ebx
	xor	bl,al
	mov	eax,[eax]
	add	bh,77
	dec	bh
	jbe	00402BBB

l00402833:
	jmp	00402838

l00402838:
	ja	00402BBB

l0040283E:
	rep	
	inc	ecx
	in	eax,F9
	xchg	eax,ecx
	mov	edi,D7330B6D

fn00402846()
	xor	edx,edi
	adc	ch,75
	neg	bh
	neg	dl
	dec	ebx
	dec	esi
	add	dl,2E
	jmp	00402E0F
00402859                            94 09 54 AE 58                ..T.X 

l0040285E:
	add	al,5E
	add	al,CC
	xor	edx,ecx
	dec	dl
	dec	al
	dec	al
	add	dh,A0

fn0040286F()
	xor	eax,edi
	call	004026C5
	push	ss
	out	dx,al
	out	dx,ax
	push	CC
	xchg	eax,esi

fn0040287C()
	push	40
	xor	dh,cl
	mov	edi,eax
	sub	al,bh
	inc	al
	inc	ah
	neg	dh
	jmp	00402BA0
0040288F                                              CF                .
00402890 42 82 DB 20                                     B..            

l00402894:
	xor	edx,ebx
	add	al,45
	neg	al
	or	eax,ebx
	xor	bh,bl
	sub	ecx,00000BCA
	add	al,ah
	sbb	bh,4B
	sub	ah,bh
	jl	00402EB8

l004028B2:
	xchg	dl,dl
	jge	00402EB8

l004028BA:
	sub	[edx-72],cl
	pop	esp
	neg	ch
	or	cl,ah
	sub	edx,ecx
	inc	edx
	inc	edi
	or	ecx,esi
	mov	edx,edi
	dec	cl
	call	00402C86
	adc	edi,[esi+840E5D1D]
	pop	edi

fn004028D8()
	inc	dl
	add	esi,edx
	neg	dl
	xor	esi,ecx
	add	dl,bh
	inc	edx
	jmp	00402D3A

fn004028E6()
	add	[eax],al
004028E8                         81 A4 13 CA 1F 8A               ...... 

l004028EE:
	sbb	ah,14
	xor	dh,cl

fn004028F3()
	mov	esi,ecx
	or	eax,ecx
	mov	al,ch
	mov	esi,edx
	mov	edx,ebx
	add	al,5A
	mov	al,[edi]
	sub	dh,al
	call	00402563
	aas	
	cld	
	adc	dword ptr [edx+50243C89],58

fn0040290D()
	mov	[esp],edi
	push	eax
	pop	eax
	pop	edi
	neg	bl
	or	bh,al
	neg	bh
	sub	edi,ecx
	xor	esi,eax
	call	00402400
	aam	AA
	lahf	
	push	esp
	jz	004028E6

l00402929:
	cmp	[ebx],esi

fn0040292A()
	xor	edi,eax

fn0040292B()
	clc	
	dec	dh
	or	ecx,eax
	mov	dl,47
	neg	ch
	inc	ah
	jmp	0040227D
0040293B                                  2B 2D CE C6 F2            +-...
00402940 AA                                              .              

fn00402941()
	sub	edx,ecx
	or	edx,ebx
	or	dh,dl
	add	dh,F1
	mov	esi,ecx
	dec	dl
	mov	dh,1C
	neg	dl
	mov	edx,ebx
	sub	esi,edx
	call	00402C31
	das	
	inc	esi
	sar	dword ptr [eax+850FC00B],9D
	add	eax,[eax]
	add	[esi-80],al
	xlat	
	clc	
	or	bl,bh
	mov	bl,ah
	adc	bl,CA
	jz	004025CE

l00402978:
	mov	bl,bl
	jnz	004025CE

l00402980:
	inc	esi
	and	al,5C
	adc	[ebx],dh

fn00402985()
	adc	dl,F6
	sub	ebx,esi
	add	dl,bh
	mov	[esp-08],eax
	or	bl,dl
	neg	dh
	dec	ch
	adc	cl,E2
	sub	dh,bh
	call	004026AA
	adc	[ebx+5C],ebp
	or	dword ptr [ecx+D2862404],58
	sbb	dl,3A
	pop	eax
	xor	dl,dh
	inc	esi
	xor	dh,bl
	call	00402B83
	jz	004029D2

l004029BA:
	lock	
	mov	al,[D50211F1]

fn004029BE()
	add	dl,ch

fn004029C0()
	sub	dl,dh
	or	edx,eax
	or	esi,edx
	mov	dh,bh
	inc	edx
	ror	al,00
	or	dh,dl
	jmp	00402941

fn004029D2()
	call	dword ptr [ebx+edx*2]
004029D3          1C 53 6D 54 61                            .SmTa       

fn004029D8()
	lea	esp,[esp+04]
	add	eax,edx
	mov	edi,ecx
	dec	esi
	xor	edi,edx
	sub	edi,esi
	mov	esi,ecx
	add	eax,ebx
	not	bh
	jz	00402635

l004029F1:
	rep	
	jnz	00402635
	sub	ebx,ebp
	ficom	word ptr [esi-58]
	push	esi

l004029FF:
	xor	dh,cl
	neg	dl
	add	dh,04
	neg	dl
	inc	esi
	add	edx,ebx
	or	dh,ah
	call	00402A5C
	xchg	[ebp+737BEBF7],bl
	repne	
	and	eax,[edx]

fn00402A1A()
	add	bh,ah
	adc	ch,23
	add	cl,EF
	dec	ebx
	sub	edi,ebx
	mov	cl,dl
	xor	ch,bh
	js	00402672

l00402A2F:
	mov	edx,edx
	jpe	00402A33

l00402A33:
	jns	00402672

l00402A39:
	lds	eax,[ebx-67]
	rol	ah,01

fn00402A3E()
	xor	esi,edx
	add	dl,7E
	inc	edi
	add	eax,edi
	dec	ebx
	mov	eax,edx
	add	dl,bl
	or	edi,eax
	neg	dh
	sub	esi,edx
	jmp	00402D23
	mov	ebp,061F99C8
	jmp	F26466E9

fn00402A5C()
	mov	[esp],edi
	repne	
	repne	
	pop	edi
	xor	edx,eax
	sub	dh,al
	dec	edx
	adc	dl,1B
	inc	edi
	jo	00402B58
	mov	dh,dh
	jno	00402B58
	sub	eax,2A65F1DB
	or	dword ptr [edx+ecx*4+0AC233D4],F8

fn00402A80()
	mov	dl,ah
	xor	eax,edx
	or	bh,al
	add	dh,F0
	adc	bh,E8
	add	eax,edi
	jbe	00402B39

l00402A94:
	jmp	00402A99

l00402A99:
	lea	eax,[eax]
	ja	00402B39
	or	eax,6E053119
	mov	cl,[ecx+5FF3243C]

fn00402AA7()
	mov	[esp],edi
	rep	
	pop	edi
	sbb	bh,FA
	dec	bl
	inc	edi
	add	esi,ecx
	jc	004021AD
	lea	esi,[esi]
	jnc	004021AD
	pop	ss
	out	93,al
	push	ss
	loop	00402AFB

l00402AC7:
	xor	ebx,eax
	neg	dl
	dec	al
	add	ebx,edi
	mov	eax,edx
	sub	esi,edx
	xor	bh,ch
	sub	dl,ah
	call	00402C18
	hlt	
	loopne	00402B54
	jle	00402B22

fn00402AE1()
	adc	ch,28
	mov	ah,cl
	xor	cl,ch
	add	ebx,edx
	xor	dh,al
	add	dl,8E
	call	00402619
	or	al,34
	xchg	eax,esp
	leave	
	test	[ebp+80042464],ecx

fn00402AF9()
	lea	esp,[esp+04]
	adc	bh,26

fn00402AFE()
	xlat	
	dec	bh
	neg	bl
	xor	ebx,edx
	inc	edi
	inc	bh
	xor	edi,eax
	sub	ebx,eax
	add	bl,ah
	jmp	00402C6F
00402B14             48 47 AC 60                             HG.`       

fn00402B18()
	pop	dword ptr [esp-24]
	sub	dh,dl
	mov	dl,7B
	add	dl,ah
	dec	edx
	not	dh
	neg	bh
	dec	al
	add	bh,D7
	call	00402D56
	adc	eax,7E89AA4E
	mov	ebx,E60AE5E1

l00402B39:
	or	ah,dh

fn00402B3B()
	not	al
	push	ecx
	adc	bl,E2
	mov	al,bl
	add	bl,dh
	inc	eax
	adc	bh,E4
	mov	al,cl
	sub	bl,al
	call	00402F45
	jl	00402BA3

l00402B54:
	fmul	st(0),st(3)
	arpl	[edx+ebp+80DEF6F3],bx
	mov	byte ptr [ebx-0A],D6
	add	esi,edi
	dec	dl
	mov	dh,61
	dec	esi
	inc	dl
	adc	dl,63
	jc	0040271F

l00402B73:
	repne	
	repne	
	jnc	0040271F

fn00402B76()
	and	dword ptr [ebx+edi*8+2B97FFFF],82
	cmp	dword ptr [esi-67],448FE38B

fn00402B83()
	pop	dword ptr [esp-10]
	mov	edx,esi
	add	bh,9E
	mov	bh,FF
	add	ebx,edi
	xor	edx,ebx
	mov	dl,E4
	jmp	004021C8

fn00402B99()
	int	03
	jl	00402B76

l00402B9C:
	sbb	al,BC
	mov	byte ptr [ebx],32

l00402BA0:
	xor	bl,dl

fn00402BA1()
	fiadd	dword ptr [ebx]

fn00402BA3()
	xlat	
	dec	esi
	or	ecx,esi
	not	ah
	mov	ah,FE
	mov	al,dl
	xor	dh,bl
	call	004022DD

fn00402BB4()
	push	edi
	mov	[esi],gs
	test	eax,8046F2AC

fn00402BBB()
	inc	esi
	add	bh,B8

fn00402BBD()
	mov	dword ptr [eax+FE2AD3F6],2B28DF80
	fldl2t	
	xor	ah,bh
	illegal	
00402BCD                                        5F 72 95              _r.
00402BD0 57 E5 AF 28                                     W..(           

fn00402BD4()
	mov	[esp],edx
	jnz	00402BD9

l00402BD9:
	mov	bl,bl
	pop	edx
	neg	dl
	mov	dh,ch
	add	dl,bl
	not	dl
	jl	00402EF7

l00402BEA:
	jmp	00402BF0
00402BEF                                              7A                z

l00402BF0:
	mov	al,al
	jge	00402EF7

l00402BF8:
	sahf	
	push	CE
	jnc	00402B99

fn00402BFD()
	inc	esi
	add	bh,bl
	adc	bh,DE
	sub	edi,esi
	not	bh
	add	bh,bl
	add	edi,ecx
	add	edx,ecx
	xor	bl,dl
	jmp	00402A1A
00402C14             F2 CA AB 89                             ....       

fn00402C18()
	lea	esp,[esp+04]
	neg	bh
	dec	edx
	mov	bl,26
	xor	dh,al
	mov	eax,edi
	or	dh,ah
	jmp	004025E5
00402C2C                                     41 E4 81 E1             A...
00402C30 24                                              $              

fn00402C31()
	lea	esp,[esp+04]
	xor	edx,esi
	or	dl,ah
	xor	al,68
	or	dh,bh
	xor	dh,bh
	xor	edx,edi
	add	dl,cl
	jmp	004028D8
00402C49                            E3 BB 24 64 19 2D 69          ..$d.-i
00402C50 9B                                              .              

l00402C51:
	add	esi,eax
	sub	ebx,eax
	add	esi,edi
	push	dword ptr [edx+08]
	adc	bl,FB
	neg	bh
	mov	bl,cl
	sbb	bl,F3
	mov	bl,cl
	jmp	00402CCF
00402C68                         4D B7 0C 06 5D D9 51            M...].Q

fn00402C6F()
	sub	ebx,eax
	sbb	bh,88
	add	bl,al
	mov	ebx,esi
	movzx	ebx,ah
	add	esi,eax
	call	0040233D
	mul	eax
	arpl	ax,bx

fn00402C86()
	xchg	[esp],esi
	mov	edx,edx
	repne	
	pop	esi
	add	ecx,esi
	or	eax,edi
	dec	cl

l00402C93:
	xor	bh,cl
	mov	esi,ebx
	mov	ebx,ecx
	or	edi,esi
	mov	bl,al
	inc	esi
	not	bl
	or	ebx,ecx
	dec	bh
	jmp	00402C51
00402CA6                   A9 03 D4 FA 11 04                   ......   

fn00402CAC()
	mov	bl,9E
	xor	eax,FFFFFEC8
	adc	bh,0C
	sbb	bl,65
	inc	esi
	add	bh,cl
	sub	bh,ch
	not	bl
	add	bh,al
	call	00402583
	shl	[ebp+ebx*8+4E56E84C],cl
	mov	edx,DA0BDA33

l00402CCF:
	xor	ebx,edx
	or	ebx,edx

fn00402CD3()
	not	bl
	dec	bl
	inc	ebx
	add	bh,8D
	xor	bh,cl
	adc	bh,E7
	jz	00402763

fn00402CE6()
	push	bx
	pop	bx
	repne	
	jnz	00402763
	test	[eax+ebx*8],edx
	sbb	[eax+15],bh

fn00402CF7()
	lea	esp,[esp+04]
	sub	dl,al
	dec	ah
	mov	bl,F0
	inc	edx
	not	dl
	dec	ecx
	dec	ebx
	mov	bl,dl
	jpe	00402522

l00402D0E:
	mov	eax,eax
	jmp	00402D16
00402D15                E5                                    .         

l00402D16:
	jpo	00402522

l00402D1C:
	jmp	00402D97
00402D1E                                           B8 1A               ..
00402D20 29 94 E1 42 F6 DF FE CF 02 D8 B4 0A 0B DE E9 E5 )..B............
00402D30 01 00 00 D5 AD 4A 01 CB EC 63                   .....J...c     

l00402D3A:
	dec	dl
	neg	al
	mov	edx,esi
	adc	dh,E8
	not	dh
	adc	dl,D3
	dec	edx
	mov	dh,11
	dec	edx
	call	00402BD4
	insd	
	lodsd	
	out	dx,al
	in	al,78

fn00402D56()
	lea	esp,[esp+04]
	inc	dh
	add	ebx,ecx
	mov	bl,9D
	mov	bl,A2
	neg	dh
	or	al,bh
	add	al,B5
	jmp	004021FC
00402D6E                                           80 4F               .O
00402D70 2C C0 9D                                        ,..            

l00402D73:
	inc	bl
	add	ecx,00000BCA
	xor	edx,eax
	add	edx,ecx
	inc	dh
	xor	eax,ecx
	adc	dl,2A
	sub	esi,eax
	jbe	004023A1

l00402D8E:
	xchg	dl,dl
	xchg	bh,bh
	ja	004023A1

l00402D97:
	dec	dword ptr [ebx+CDE66CF7]

fn00402D98()
	mov	esi,edi
	insb	
	out	CD,al
	sub	al,FE

fn00402D9E()
	inc	bh

fn00402D9F()
	mov	dword ptr [ebx+DA8A46F9],4003F703
	cmp	al,F6
	xlat	
	add	bl,41
	mov	bh,A5
	neg	bh
	jmp	004027D7
00402DB8                         DB A7 98 0C                     ....   

l00402DBC:
	neg	dl
	adc	dh,9C
	dec	esi
	adc	dl,69
	add	esi,edi
	neg	cl
	neg	cl
	sub	dh,bl
	xor	edx,ecx
	add	bh,63
	jle	004025B6

l00402DD8:
	jmp	00402DDE
00402DDD                                        AC                    . 

l00402DDE:
	mov	bh,bh
	jg	004025B6

l00402DE6:
	call	far F6E3:3C6D

fn00402DEA()
	not	ah
	or	edx,esi
	mov	eax,ecx
	inc	esi
	dec	ah
	sub	bh,dl
	sub	dl,cl
	js	00402427

l00402DFD:
	xchg	esi,esi
	jbe	00402E01

l00402E01:
	jns	00402427

l00402E07:
	fidiv	dword ptr [edx-3C]
	pop	es
	mov	bl,7F
	mov	cl,90

fn00402E0F()
	mov	ecx,eax
	or	bl,dl
	mov	bh,dl
	adc	al,20
	xor	ebx,ecx
	add	ah,bl
	inc	dh
	add	dl,ah
	call	004020FC
	les	ecx,[ecx]
	test	bl,35
	xchg	[eax+F00B52D6],eax

fn00402E2B()
	adc	dh,52
	or	esi,eax
	neg	dl
	dec	dh
	dec	dh
	adc	dl,12
	xor	dl,bh
	add	dh,C0
	call	00402228

fn00402E43()
	xor	bl,[ebx]
	mov	byte ptr [ecx-4C],F4
	xchg	eax,ecx

fn00402E4A()
	xor	dh,bh
	not	dh
	add	al,bl
	xor	ah,ch
	sub	eax,ecx
	mov	esi,ebx
	call	00402386
	xor	al,96
	call	8FEBE9B3

fn00402E61()
	pop	dword ptr [esp-18]
	add	bh,52
	or	esi,eax
	xor	bh,dl
	sub	bh,ch
	neg	bl
	sub	esi,ecx
	neg	bh
	add	esi,eax
	jmp	00402D9E
00402E7B                                  DD CC D7 AF 4A            ....J

fn00402E80()
	xchg	[esp],ebx
	push	edx
	pop	edx
	mov	edi,edi
	pop	ebx
	add	bh,71
	sub	edi,ecx
	not	bh
	inc	edi
	add	bh,ah
	call	004026E4
	in	ax,dx
	mov	esp,D902532B

l00402E9D:
	add	bl,cl

fn00402E9F()
	xor	ebx,esi
	sub	ebx,eax
	dec	bl
	mov	bh,ch
	inc	edi
	inc	edi
	xor	bl,ch
	dec	esi
	jmp	004020AA
00402EB1    14 A8 66 97 AA 39 77                          ..f..9w       

l00402EB8:
	add	dh,5D
	sbb	bl,5A
	inc	ebx
	mov	eax,ecx
	dec	bl
	mov	dl,5C
	dec	ebx
	inc	ah
	jc	00402692

l00402ECE:
	xchg	bh,bh
	jnc	00402692

l00402ED6:
	call	DEF61210
	mov	al,[39D38089]
	neg	cl
	sub	edx,esi
	neg	al
	mov	bh,2F
	neg	ah
	dec	ah
	not	cl
	jmp	004028BE
	add	ebx,ebp
	int	03
	mov	edx,C6FED02B

l00402EF7:
	sub	edx,eax
	inc	dh
	xor	esi,ebx
	mov	esi,edx
	add	dh,A5
	add	dh,bh
	add	edx,eax
	xor	esi,eax
	or	edx,ecx
	sub	edx,eax
	call	00402F67
	ret	0F99
00402F14             72 F6 8A 80 C1 E1 0F 80 D7 00 03 D1     r...........
00402F20 4F 4A 32 C1 F6 D0 80 D8 BB 0A FE 80 D4 28 0F 84 OJ2..........(..
00402F30 8F F3 FF FF 8B D2 66 56 66 5E 0F 85 83 F3 FF FF ......fVf^......
00402F40 3A D1 4A 52 60                                  :.JR`          

fn00402F45()
	pop	dword ptr [esp-24]
	dec	ebx
	mov	bl,dh
	sub	ebx,edx
	mov	bl,bh
	or	bl,ah
	mov	al,bh
	add	eax,ecx
	jc	00402894

l00402F5C:
	repne	
	jnc	00402894
	scasb	
	dec	esp
	popa	
	dec	ebx

fn00402F67()
	pop	dword ptr [esp-0C]
	mov	[ecx],al
	inc	dl
	neg	dh
	xor	dl,ah
	neg	dh
	sbb	dl,AF
	inc	edx
	xor	dh,cl
	js	004029FF

l00402F81:
	xchg	bl,bl
	jns	004029FF

l00402F89:
	fdivr	double ptr [edi+C3088E6A]
	add	[eax],al
	add	[eax],al
	add	[eax],al
	add	[eax],al
	add	[eax],al
	add	[eax],al
	add	[eax],al
	add	[eax],al
	add	[eax],al
	add	[eax],al
	add	[eax],al
	add	[eax],al
	add	[eax],al
	add	[eax],al
	add	[eax],al
	add	[eax],al
	add	[eax],al
	add	[eax],al
	add	[eax],al
	add	[eax],al
	add	[eax],al
	add	[eax],al
	add	[eax],al
	add	[eax],al
	add	[eax],al
	add	[eax],al
	add	[eax],al
	add	[eax],al
	add	[eax],al
	add	[eax],al
	add	[eax],al
	add	[eax],al
	add	[eax],al
	add	[eax],al
	add	[eax],al
	add	[eax],al
	add	[eax],al
	add	[eax],al
	add	[eax],al
	add	[eax],al
	add	[eax],al
	add	[eax],al
	add	[eax],al
	add	[eax],al
	add	[eax],al
	add	[eax],al
	add	[eax],al
	add	[eax],al
	add	[eax],al
	add	[eax],al
	add	[eax],al
	add	[eax],al
	add	[eax],al
	add	[eax],al
	add	[eax],al
	add	[eax],al
	add	bl,bh
00403000 FB DB F7 8E 91 54 51 00 03 9F F7 08 00 81 71 62 .....TQ.......qb
00403010 77 91 69 FF 44 8C 6C 2F 06 F9 E4 E4 00 3E 8C 50 w.i.D.l/.....>.P
00403020 4F 1E C1 F0 1C 20 00 87 2A CC 78 3C F0 7F 86 66 O.... ..*.x<...f
00403030 54 49 49 49 86 94 F3 FF 98 40 06 8F F5 95 4E BF TIII.....@....N.
00403040 00 E3 C5 12 BA 00 DC 00 10 00 3C 29 12 D8 30 C6 ..........<)..0.
00403050 7C F4 00 CD B4 00 C1 EF C0 C5 75 B9 FF D9 A7 2E |.........u.....
00403060 00 EE 8A FF A0 D0 ED 29 7C FF 74 58 35 97 5C 7B .......)|.tX5.\{
00403070 FF D3 00 D9 90 49 FF 00 00 00 D0 78 5B 00 D9 00 .....I.....x[...
00403080 A9 97 5C 10 00 FA 03 7A B3 20 1F 8E F1 00 00 C1 ..\....z. ......
00403090 28 00 10 28 8A 84 52 00 AB 3C 3E 39 0B 9D C5 0F (..(..R..<>9....
004030A0 59 43 03 11 FF AF 22 EF 6B 2F 00 00 FF 1D 7D 83 YC....".k/....}.
004030B0 B9 16 69 92 00 02 7B 70 10 D3 C6 8B E1 1C ED E0 ..i...{p........
004030C0 BF 40 A1 17 44 80 00 73 20 A9 00 08 38 99 00 8C .@..D..s ...8...
004030D0 3E EE 51 22 E1 1D EF 33 B5 9F 08 82 92 80 EA 38 >.Q"...3.......8
004030E0 30 A4 2A 8D 39 74 80 21 FF C1 00 34 00 62 68 C9 0.*.9t.!...4.bh.
004030F0 00 7B 08 00 2E BF 00 12 74 39 9F F3 AC F3 00 45 .{......t9.....E
00403100 4F 2A 46 32 02 00 A6 D4 30 CB 14 92 17 A0 00 F6 O*F2....0.......
00403110 18 00 99 54 06 00 A1 16 83 F9 88 23 24 11 3B 9C ...T.......#$.;.
00403120 D9 89 13 D0 87 B8 B3 1F C6 06 43 94 37 00 96 00 ..........C.7...
00403130 DE 13 E0 08 DA 00 BA 00 17 6F 31 99 E2 C6 A9 5A .........o1....Z
00403140 60 EC AD E5 5C D5 EA D7 9D 0A 2D 8C DC 50 DE D3 `...\.....-..P..
00403150 1E 17 04 11 38 2C A1 00 FF AF 1F 73 2C BF C1 DF ....8,.....s,...
00403160 00 7E 23 29 C9 FF CC CD 54 1C 00 C5 06 3C FE BE .~#)....T....<..
00403170 04 87 09 63 CC 9B 00 DA 0C 3C 25 7B EA BC 30 0F ...c.....<%{..0.
00403180 79 18 B7 27 B0 3D DB 6B 41 D8 4B 38 05 22 54 34 y..'.=.kA.K8."T4
00403190 91 F6 AC E7 BB 30 A8 1C 33 0D 00 C3 1B 06 3B EB .....0..3.....;.
004031A0 34 EF 7C 00 9A 80 59 AF 12 61 4A 3B 3D EE B5 1C 4.|...Y..aJ;=...
004031B0 EB AF 87 00 6E 30 F0 A2 4C 00 4E DC 7D 71 53 F2 ....n0..L.N.}qS.
004031C0 9C 64 E0 99 D0 57 F6 FF 1B 37 B6 84 40 F2 2C 38 .d...W...7..@.,8
004031D0 1B 1F D4 99 7F D4 58 EB EE FF 85 C0 7E FF FF FB ......X.....~...
004031E0 27 0A C2 9F 3B AF 72 76 F5 DD 00 2E 4B 47 3F 84 '...;.rv....KG?.
004031F0 9B 09 00 A3 B4 7D 13 96 2E 60 09 00 CC 00 00 FF .....}...`......
00403200 A3 9B FE C1 F1 3A C9 68 07 25 8F FD FE 79 EF F4 .....:.h.%...y..
00403210 00 8B D3 97 91 2D 97 00 00 A2 46 62 01 01 FA 95 .....-....Fb....
00403220 9F 5F 76 F4 80 FF DD B7 00 04 B7 87 00 7E 64 8A ._v..........~d.
00403230 35 18 DC 8F 46 3D 62 97 94 C4 02 FF BD 00 C3 12 5...F=b.........
00403240 95 A4 BE FF DF 57 FF 00 C5 40 8D C6 CE A9 DB 94 .....W...@......
00403250 24 B0 FA FF DA 29 81 9C 9E 1F 9D 3A 17 00 93 04 $....).....:....
00403260 42 03 00 17 C1 7E 60 41 1C 52 00 6F AE CD 60 2D B....~`A.R.o..`-
00403270 18 86 18 2D 1A FF 9D C7 0A E8 0A 66 E7 7C 41 00 ...-.......f.|A.
00403280 E8 25 91 1C 00 E0 AB CD 13 7F 00 58 B3 00 7F D8 .%.........X....
00403290 69 72 01 E5 9C 0F 00 00 1C C7 44 D5 68 C9 36 F2 ir........D.h.6.
004032A0 91 56 98 AF 98 70 4F 8D E2 0A FE 08 E4 FF FF E1 .V...pO.........
004032B0 03 76 09 34 FF 2B 16 98 39 31 D2 E5 6E 0F 3F 61 .v.4.+..91..n.?a
004032C0 DC 04 D9 0A 6D 16 00 00 FA DA D6 85 8A 0F BF FF ....m...........
004032D0 95 00 C9 00 EA 92 C6 00 20 00 42 D9 29 C8 66 00 ........ .B.).f.
004032E0 00 00 97 E2 00 D5 14 CC FF 32 C4 00 FF F2 EF 1C .........2......
004032F0 64 28 AD 43 DF 86 68 63 EE 40 00 FF 4A 8A FB C1 d(.C..hc.@..J...
00403300 45 5C 57 06 64 00 E9 57 E5 FB 72 E3 AC 00 00 19 E\W.d..W..r.....
00403310 36 E8 80 37 36 4A 40 00 AF 00 31 82 3D E0 8A B9 6..76J@...1.=...
00403320 C1 63 FF 00 BA F1 00 26 80 DF 00 B3 87 61 01 C2 .c.....&.....a..
00403330 84 BD FD 00 02 00 FA 00 5B FE B1 7F 54 A0 0D C4 ........[...T...
00403340 D3 C8 F8 87 F8 FF D7 00 1B 15 43 4A 70 76 06 FF ..........CJpv..
00403350 98 5B D5 6D 91 45 5D 44 81 74 F0 6E 76 A4 3C AF .[.m.E]D.t.nv.<.
00403360 E7 DD B8 4D D1 89 A1 52 99 A7 DD 36 14 F5 B7 C0 ...M...R...6....
00403370 39 7A 00 18 65 D9 DD 00 32 58 0E 87 5E A7 4D 00 9z..e...2X..^.M.
00403380 B3 3D EB 00 FD 1B AA 83 BD 00 02 AF 4D 00 6E 7F .=..........M.n.
00403390 93 E2 36 E4 A6 8A F0 B9 3B 41 39 02 B8 8A 06 00 ..6.....;A9.....
004033A0 00 08 37 FF 59 2A 49 75 41 00 BD 0C BF CE CD 89 ..7.Y*IuA.......
004033B0 6F DD D0 22 47 18 9E 20 FD 8D 00 DC 0C 46 DE C7 o.."G.. .....F..
004033C0 72 FF EA FF 08 58 04 F5 EF C4 FF EF 6A 00 69 00 r....X......j.i.
004033D0 AE 3B 85 28 28 B6 8B B1 0F 9D 00 66 FF 98 00 00 .;.((......f....
004033E0 1E 0B F0 91 80 6C CD 00 68 77 6E 43 E3 81 20 84 .....l..hwnC.. .
004033F0 42 EC FF 00 06 F7 40 80 60 9F 69 55 0E 26 FF F0 B.....@.`.iU.&..
00403400 E5 C1 3C DC 27 C8 7B E2 00 01 C7 66 FE AB 0B 92 ..<.'.{....f....
00403410 E3 74 C4 A9 51 00 8D 4F EA 08 6F EF D4 62 48 EA .t..Q..O..o..bH.
00403420 FE A4 AC 14 92 2F 5C D7 F1 6E 0E 8A 3D 68 9D 8B ...../\..n..=h..
00403430 73 4E 8B 4F 55 CA F2 F3 1B 26 00 1A FF 8A 73 10 sN.OU....&....s.
00403440 FF 79 EF F2 28 B5 00 DC 00 78 00 FF 1A 00 C4 81 .y..(....x......
00403450 12 34 38 1C FF 06 F8 BC D3 A7 F9 5A D7 EB 3C 97 .48........Z..<.
00403460 18 8B A2 B9 27 33 8D 0B 8A BD F7 E2 B4 FF F5 A6 ....'3..........
00403470 F1 E5 5A 9A 53 40 A5 6D 00 45 07 B7 04 00 2C 93 ..Z.S@.m.E....,.
00403480 C0 0F E2 14 F0 D0 00 F1 FF C3 EC D0 88 9F D3 20 ............... 
00403490 24 CD 71 C6 EE 45 B2 B7 E5 89 00 C3 40 17 44 23 $.q..E......@.D#
004034A0 33 46 76 DD 28 3B 6C FD 74 53 B0 33 24 FF 6E 8E 3Fv.(;l.tS.3$.n.
004034B0 05 F9 2A 00 3F 6C F8 99 5F 6C 1D 31 5C 37 00 5D ..*.?l.._l.1\7.]
004034C0 FF 22 00 FF C2 05 A4 64 00 5A 29 D8 95 84 00 66 .".....d.Z)....f
004034D0 0A C5 D1 5B D7 F1 9C D7 FF 8E 34 E1 49 F7 0C 30 ...[......4.I..0
004034E0 BD 64 60 04 50 2E 00 CD 81 EB B7 27 54 89 CD ED .d`.P......'T...
004034F0 FF 9B 96 00 66 00 B6 00 00 D0 C0 3B 00 08 4E 16 ....f......;..N.
00403500 F4 00 00 E3 1C 00 00 78 EF 00 48 FD 00 EB EE 63 .......x..H....c
00403510 D4 40 CC C0 00 DE 3F 55 F4 A9 31 07 23 46 EF 00 .@....?U..1.#F..
00403520 77 DB 77 00 52 A8 37 27 AD 44 D0 F0 B6 12 D9 00 w.w.R.7'.D......
00403530 C1 4B 85 5B 10 4B 76 00 12 08 A1 9E 60 68 11 6D .K.[.Kv.....`h.m
00403540 5F 7C 62 27 7F 8F 63 75 81 58 70 3F F9 F4 7F 61 _|b'..cu.Xp?...a
00403550 C0 CF 4B 20 33 86 E3 B5 46 41 34 6A 57 BC B1 00 ..K 3...FA4jW...
00403560 C3 38 74 BF 76 B1 05 B7 E1 9A 00 63 71 00 73 48 .8t.v......cq.sH
00403570 00 BC C2 4A F6 1B E2 00 5C 60 0D AB 30 43 77 91 ...J....\`..0Cw.
00403580 30 BF 30 4B 39 81 BF 6C 1E 78 C0 57 43 E8 A0 16 0.0K9..l.x.WC...
00403590 20 8A D8 5D 79 9F 6A A5 49 00 14 3E 00 FF 00 35  ..]y.j.I..>...5
004035A0 10 00 2F 4E 6B FE 42 1A 07 00 FE 61 00 D0 34 00 ../Nk.B....a..4.
004035B0 CF 2B 2E 00 8F CC 30 D0 7F D8 3E 6A 00 00 74 8F .+....0...>j..t.
004035C0 F3 00 83 00 D9 24 0D 06 5C 62 20 61 6C 20 C4 B1 .....$..\b al ..
004035D0 30 99 88 71 1A 00 49 08 F2 00 32 7B 2C BC 6D 2F 0..q..I...2{,.m/
004035E0 91 90 BE 88 A0 00 BF 67 23 36 87 BA B7 00 BE 20 .......g#6..... 
004035F0 FB CD 26 F0 73 E2 0D 56 1E 7F 41 E7 6C D6 57 BC ..&.s..V..A.l.W.
00403600 87 38 27 15 66 91 77 33 00 00 F3 26 00 FF EB 47 .8'.f.w3...&...G
00403610 81 00 99 5D 7D E4 46 1D F6 B9 F8 00 00 7A 00 30 ...]}.F......z.0
00403620 7C EF 00 15 00 C1 00 18 D3 00 B1 3A 80 83 70 98 |..........:..p.
00403630 17 87 24 00 18 00 DD 16 86 D7 B3 2A 16 20 3F 8E ..$........*. ?.
00403640 EF 01 FF 3E 00 01 DE 02 DE FF 30 C3 4F 45 69 9C ...>......0.OEi.
00403650 71 00 E0 00 82 D2 EA E3 00 A4 6B FB F1 44 99 47 q.........k..D.G
00403660 00 34 4A 45 00 78 04 99 E9 4C 00 4E E7 56 86 DE .4JE.x...L.N.V..
00403670 20 32 00 20 6C 00 1D 62 17 C8 E8 00 DF 11 9C FF  2. l..b........
00403680 66 00 C3 0D B0 38 00 31 D4 EA 10 30 84 0F 95 0D f....8.1...0....
00403690 91 00 EB 00 FB FF BD 54 60 FF D3 01 D0 0F EB C9 .......T`.......
004036A0 FF D4 88 D1 9D EE F5 93 3D C4 2A E6 41 85 00 F8 ........=.*.A...
004036B0 B7 B7 07 E4 63 00 5A 5C FF 5B 72 C4 CF 0E 00 FA ....c.Z\.[r.....
004036C0 00 70 A7 B7 C6 01 47 BC FF 0D 00 A5 8E 68 F9 A4 .p....G......h..
004036D0 5A 91 B8 72 00 87 B0 B3 83 DC D1 46 E0 60 11 85 Z..r.......F.`..
004036E0 93 C7 40 FA 88 00 00 B6 4B 49 AB 1B 13 FF 8E E8 ..@.....KI......
004036F0 CA CB FD 20 E5 A8 DF EC 00 75 12 68 C7 80 25 B9 ... .....u.h..%.
00403700 00 52 F9 16 61 B9 4C 5C 6C F5 25 B9 80 5F A7 AD .R..a.L\l.%.._..
00403710 00 C1 54 06 AD A9 D1 BF 12 CF 7E 00 58 04 CB 24 ..T.......~.X..$
00403720 E2 87 BD 60 47 C0 92 F5 B9 34 C3 C7 30 E9 FE 5C ...`G....4..0..\
00403730 86 DB 80 57 4B CA 50 F8 EA 0F 0E A1 02 4E 5E FF ...WK.P......N^.
00403740 B6 02 B4 90 61 FF C8 59 7A F2 03 82 C8 EC 62 3F ....a..Yz.....b?
00403750 8E 03 A5 3E A4 F5 F6 18 62 D3 1C 00 13 3E C9 36 ...>....b....>.6
00403760 AD FF FF E1 43 E5 C5 F5 E4 03 C2 27 BE CD D8 2C ....C......'...,
00403770 00 5B 03 00 CF DF 0B 1F 2C 0F 4A 39 C8 E3 07 B4 .[......,.J9....
00403780 87 6A FC 00 00 00 FF 09 FF 05 44 08 3A 54 00 FB .j........D.:T..
00403790 F6 D5 59 09 30 74 AF 33 21 00 07 F5 FF 00 50 1C ..Y.0t.3!.....P.
004037A0 0C 00 A3 92 08 02 07 91 A9 02 22 64 A5 14 FF A6 .........."d....
004037B0 8D 31 D4 72 9F 88 EC 00 29 0A 0C 00 57 2D 24 00 .1.r....)...W-$.
004037C0 C0 F7 00 28 A3 FF 5E 3E 0E 74 DE FB 1B B1 E3 05 ...(..^>.t......
004037D0 00 24 80 93 43 00 6D CC C0 A5 AE CF 6D BB 0E 07 .$..C.m.....m...
004037E0 36 07 69 56 07 00 5D 90 32 4B 28 B8 99 80 47 52 6.iV..].2K(...GR
004037F0 24 63 5A A3 48 27 C7 00 FF 3F 7B 81 3E 0F A1 98 $cZ.H'...?{.>...
00403800 90 FE 7E 3E D9 F7 D7 6A 81 E3 00 08 D6 C4 00 7C ..~>...j.......|
00403810 95 C5 A8 62 88 1C 67 73 69 77 E4 E8 A4 B3 84 CB ...b..gsiw......
00403820 FF 00 00 DA CB F0 BF D2 1D 1D 47 9D C0 1E 0E A9 ..........G.....
00403830 80 3B B0 01 01 C4 68 00 71 81 F3 E6 B6 19 40 EA .;....h.q.....@.
00403840 E6 C3 86 D4 3D D4 40 DE 6E 90 83 72 AE 48 B7 B4 ....=.@.n..r.H..
00403850 00 44 01 DF B7 AE 9E 00 1C 5A 43 3A 86 1A BA 4B .D.......ZC:...K
00403860 AD A2 A8 5B A9 94 8A AB F2 00 AD FF C5 FF 91 64 ...[...........d
00403870 32 9B 21 B3 9A C4 8E B6 13 00 10 F0 17 46 2A 6F 2.!..........F*o
00403880 40 2D 08 50 CF 90 23 88 0F BD 30 A1 00 FE 7E CB @-.P..#...0...~.
00403890 74 27 08 00 B7 2A 02 41 0A 15 33 FD 5B 00 F0 8E t'...*.A..3.[...
004038A0 05 8B C6 0E B8 02 FF F0 93 A8 44 FF 00 B3 E8 8B ..........D.....
004038B0 84 EC AD 3B A0 C4 8E B7 0F 00 21 52 FF C0 3D 07 ...;......!R..=.
004038C0 F5 B1 FF 0C 00 AD 4A E9 01 35 00 29 87 C8 C1 0F ......J..5.)....
004038D0 EF 6B CD E0 F4 2E 45 95 00 00 14 00 06 FF 78 0E .k....E.......x.
004038E0 00 D8 C2 A6 2E 31 82 EF 1E A9 09 D9 5B 0E A5 5E .....1......[..^
004038F0 2A 46 08 7B 02 00 21 67 32 30 C4 A7 98 01 14 00 *F.{..!g20......
00403900 7A 0F FB D6 DF 00 46 A3 77 00 40 D8 F0 70 F7 6A z.....F.w.@..p.j
00403910 22 1B 11 62 09 26 5C E8 40 ED 2F E7 00 28 66 1D "..b.&\.@./..(f.
00403920 3F 9B E9 F9 FF 7B EF 26 18 E0 80 74 00 F0 BD 00 ?....{.&...t....
00403930 68 00 22 FE F6 D1 30 61 85 13 30 DA 0E 54 1C 53 h."...0a..0..T.S
00403940 EE A1 5A 60 03 5A C2 B5 47 DE 00 03 D3 C1 1E A3 ..Z`.Z..G.......
00403950 58 00 77 81 DC C0 00 8C 96 00 74 D6 60 47 AA 8F X.w.......t.`G..
00403960 89 00 A1 14 34 00 D2 E6 17 48 11 FA 7F AC FF 9D ....4....H......
00403970 CC E5 80 B3 BD 23 28 58 E8 49 6C 7B 60 FF 39 06 .....#(X.Il{`.9.
00403980 00 6D 14 3F BF 0B B1 FF DF 9F 18 5E 39 07 AB 10 .m.?.......^9...
00403990 12 DF 7F E2 FF FC 43 4C F7 AE 70 48 E8 00 37 C9 ......CL..pH..7.
004039A0 A3 BB 4E 1A 53 CE 98 20 28 8F 92 F7 80 74 F4 0B ..N.S.. (....t..
004039B0 9E 27 39 03 E0 27 9C 72 47 00 90 FF EE 2F 6B E7 .'9..'.rG..../k.
004039C0 EE 69 42 BE 1D 86 F6 A2 61 24 90 00 42 39 F2 0D .iB.....a$..B9..
004039D0 43 9A 00 B8 00 02 D5 09 E0 FC BE 84 73 38 92 75 C...........s8.u
004039E0 20 00 FF 2F FC 08 C0 FF E6 E4 F1 00 97 B6 62 00  ../..........b.
004039F0 99 3A 43 B8 E5 53 F1 AC 03 80 00 7C 79 89 0A CA .:C..S.....|y...
00403A00 D7 30 81 B6 BE 38 5C FF AE 10 00 D3 14 8D C9 A2 .0...8\.........
00403A10 8F 70 00 9C D2 2C 8E 87 E2 B9 C3 00 57 00 5C 47 .p...,......W.\G
00403A20 9D 68 E5 1B 10 78 FF 82 FD 37 00 60 3A 03 C3 BF .h...x...7.`:...
00403A30 D2 79 06 79 33 FF 08 B2 A5 6E 20 00 0B D5 01 0E .y.y3....n .....
00403A40 2A 9A C8 BA 0C 5F 58 8F 41 6A 00 FF 02 F6 E1 67 *...._X.Aj.....g
00403A50 FF 2A 13 4A 42 DA 88 3C 23 A5 D8 1D D6 00 A2 1A .*.JB..<#.......
00403A60 CC 39 F6 EC CB 0C 2C E1 0A 2A 1D 00 FB C0 5B 52 .9....,..*....[R
00403A70 5A 04 ED 04 68 A6 00 67 FE 00 4E 28 83 CF 00 47 Z...h..g..N(...G
00403A80 42 FD 82 00 CE 1B D1 BE 09 1F 00 19 00 32 F3 92 B............2..
00403A90 00 32 37 1D 00 CE 5D FF 00 6D 85 85 FF 28 06 D1 .27...]..m...(..
00403AA0 39 DA 00 36 19 EE A5 18 A0 62 CF B0 AA FD 43 21 9..6.....b....C!
00403AB0 EE AA 00 1D 8E D7 BD BC C7 1C 8D 73 BA 99 33 3A ...........s..3:
00403AC0 B5 57 BE 16 E4 FC 96 00 EF CC 3A 00 D8 4B F6 AF .W........:..K..
00403AD0 0D 59 72 5F 15 2E 1D 2F 91 E2 A1 5C 00 EC 86 69 .Yr_.../...\...i
00403AE0 8F 5F 6B 70 5E 00 C5 24 58 F9 00 09 12 00 33 44 ._kp^..$X.....3D
00403AF0 18 96 00 8D 06 17 20 73 3F C1 C3 10 E6 40 EB 67 ...... s?....@.g
00403B00 66 9B 1C A0 13 78 9F DE 7F 19 78 83 1F DA 80 99 f....x....x.....
00403B10 89 AB 04 23 BA C6 00 00 49 01 54 14 28 FF 06 6D ...#....I.T.(..m
00403B20 58 20 D2 0B E4 E0 90 86 F6 53 82 00 D1 D3 7A 3A X .......S....z:
00403B30 95 C4 86 FF AE 15 94 91 89 03 91 DF 13 DB E5 63 ...............c
00403B40 15 B9 BC B2 7C 00 22 25 58 5B 00 90 C2 94 06 61 ....|."%X[.....a
00403B50 00 00 FF 20 FF E4 00 37 FB 45 BD 0E 3B 00 01 00 ... ...7.E..;...
00403B60 39 B5 28 00 4B D1 F5 B3 06 A7 16 6A FF 3E 99 50 9.(.K......j.>.P
00403B70 62 70 4E 3A 40 09 1D 8B FA DD 8B 00 69 39 DE 46 bpN:@.......i9.F
00403B80 00 1E 73 F0 20 1A 37 07 FF D1 54 D3 00 20 FB BF ..s. .7...T.. ..
00403B90 00 5D 18 BB DD 00 44 D1 0F 35 BB B6 13 88 71 E4 .]....D..5....q.
00403BA0 A7 98 00 DE 79 37 B4 64 37 EF 48 39 47 ED 52 A4 ....y7.d7.H9G.R.
00403BB0 4C 68 25 29 46 4F F0 28 38 E2 1B 08 B1 0B 17 04 Lh%)FO.(8.......
00403BC0 18 00 74 8C 5C 00 FF E7 84 BE 95 9F 00 46 8D 93 ..t.\........F..
00403BD0 33 73 6F 3F 60 DB D0 73 00 32 A1 23 00 75 00 FF 3so?`..s.2.#.u..
00403BE0 22 D9 C8 2D A3 65 E1 2C 07 B9 0E 9A BD 3D 21 00 "..-.e.,.....=!.
00403BF0 52 D7 00 00 34 23 57 33 06 D7 7C 64 F6 5B 00 FF R...4#W3..|d.[..
00403C00 AE DD 6D 36 41 1D C4 6D 96 00 E6 CF 34 44 59 1F ..m6A..m....4DY.
00403C10 86 9E 00 99 00 C7 FC 52 63 AE AD E1 6D 47 FE D8 .......Rc...mG..
00403C20 23 47 40 00 4D E4 05 08 3B C9 20 9F 7F FF 7D D4 #G@.M...;. ...}.
00403C30 5C C2 00 93 46 FB 00 0E 64 D6 92 06 B9 CF 7A 09 \...F...d.....z.
00403C40 C0 CF 07 82 7C 00 71 01 C9 AA E7 FF 46 F1 00 40 ....|.q.....F..@
00403C50 58 80 52 00 0E BD 0C B3 9D B8 A6 00 0C D8 F6 00 X.R.............
00403C60 84 05 F6 32 40 BD A8 9C 00 89 40 E0 F5 0C FF 65 ...2@.....@....e
00403C70 91 C6 C2 D0 70 36 47 43 00 37 52 0C BD 57 AF F8 ....p6GC.7R..W..
00403C80 77 00 CE 5D B8 5C E5 18 C5 00 FF 75 FF 17 F8 E6 w..].\.....u....
00403C90 16 BC 08 FF 00 01 F8 6E 90 FF D0 E0 B6 C1 DD 00 .......n........
00403CA0 D6 3F 26 5E FC 15 00 63 E0 1B DE 14 22 6A 24 9C .?&^...c...."j$.
00403CB0 00 78 00 A7 30 00 2B 00 89 89 3E BC CE FF 92 71 .x..0.+...>....q
00403CC0 9B 9A 5D 3A 00 24 FF F3 71 FF E3 45 35 3A 07 91 ..]:.$..q..E5:..
00403CD0 7E C7 C9 6B 6C A1 BE 4D BD 50 FF 00 62 BD C5 00 ~..kl..M.P..b...
00403CE0 D2 B8 09 00 64 E0 AB 19 0E 7E 20 00 3E 19 12 D1 ....d....~ .>...
00403CF0 84 E7 06 3B E3 3F BE C7 00 3D 8D 4A 95 AF 0F A2 ...;.?...=.J....
00403D00 D6 9B E0 BD C1 D7 2B 7F 94 E9 D2 CC 88 84 D2 00 ......+.........
00403D10 E9 ED 5E 00 FF 97 F6 30 09 F8 44 FB 48 B1 03 73 ..^....0..D.H..s
00403D20 F4 2D BC 8C 61 C0 0B 23 97 00 65 39 AA 70 87 74 .-..a..#..e9.p.t
00403D30 A8 00 B0 26 BF E6 8A 2C 80 00 F7 00 00 00 F1 8D ...&...,........
00403D40 7A 75 FF 0A ED D1 53 78 00 15 63 0E 39 20 02 30 zu....Sx..c.9 .0
00403D50 26 6E 9E 64 0B FF 2A C0 16 73 40 9A EF 92 20 50 &n.d..*..s@... P
00403D60 04 EF 3D 00 80 66 10 FF EA 83 E2 08 82 18 20 A4 ..=..f........ .
00403D70 F0 66 E0 65 C5 EF FB 37 80 00 DD EC EC 37 08 72 .f.e...7.....7.r
00403D80 20 62 32 CE 00 00 2E 21 73 98 00 6E A6 AE 54 C4  b2....!s..n..T.
00403D90 FF 89 DA 6C ED 61 90 86 A7 C3 8F 00 C7 E0 6F 82 ...l.a........o.
00403DA0 43 56 00 0C 6B 3E DC 2E 8B 00 98 FF 28 71 22 40 CV..k>......(q"@
00403DB0 C8 2C 56 8F 9E 41 D2 00 00 0F E8 81 98 8E 9A F6 .,V..A..........
00403DC0 F7 01 0C 98 07 FE 80 E1 E4 83 42 AF E9 47 66 A3 ..........B..Gf.
00403DD0 2D 9D 05 00 EA C4 A2 C3 00 D0 FE DE FF 33 42 A8 -............3B.
00403DE0 6C A7 C1 75 B3 00 4B C3 05 D6 00 D1 3B C6 43 47 l..u..K.....;.CG
00403DF0 DE C3 3A 0D 9A 5F FF B0 1C 10 E3 DF 53 C4 71 49 ..:.._......S.qI
00403E00 B0 89 83 F8 E3 4A C5 80 16 53 14 28 02 7D 00 00 .....J...S.(.}..
00403E10 90 65 A8 00 1C 00 0E 12 D8 F9 19 D2 48 3F C4 FF .e..........H?..
00403E20 D0 D7 08 10 FF B0 8E 00 11 73 E4 19 61 F0 00 11 .........s..a...
00403E30 79 FE 30 79 C4 7C A9 BB 7A 50 00 0F 9F FF 1D 7B y.0y.|..zP.....{
00403E40 FF BB 2D 10 C3 0F 22 7C 63 96 6F 00 99 F5 E2 F2 ..-..."|c.o.....
00403E50 66 74 00 D8 62 BF 1D F0 E5 38 FF 74 50 06 2E FF ft..b....8.tP...
00403E60 15 1D A0 03 B6 0B 64 9C E4 F3 A4 00 40 00 A8 BE ......d.....@...
00403E70 00 CF FF 00 46 B8 37 E6 38 E5 91 07 10 F1 F7 FF ....F.7.8.......
00403E80 9E 6D F9 8B E9 E3 87 C3 50 00 B9 00 10 00 F4 A4 .m......P.......
00403E90 55 E4 29 42 B0 A1 78 64 68 AC EE 71 F6 6F 00 50 U.)B..xdh..q.o.P
00403EA0 48 B7 0F 6C 2C E5 85 61 EB 7D 00 7F 5A F1 00 61 H..l,..a.}..Z..a
00403EB0 00 FF B5 47 01 93 00 F7 DE 34 66 8A F6 1D 9F 55 ...G.....4f....U
00403EC0 05 52 00 3D 2B 2C C0 FE 22 C7 A8 E7 E0 C1 C3 E0 .R.=+,..".......
00403ED0 B1 9B CE FF BF A2 00 02 C7 7A 00 00 59 00 08 0D .........z..Y...
00403EE0 82 00 34 7B B3 95 95 00 00 7D A2 FC B3 0F 00 00 ..4{.....}......
00403EF0 61 50 C1 30 00 B2 76 A7 FF 47 22 58 7C C3 48 A1 aP.0..v..G"X|.H.
00403F00 FF 85 A5 19 78 42 00 C8 A9 00 00 00 00 70 66 82 ....xB.......pf.
00403F10 FF 87 C0 CB CA A0 B5 E5 85 28 95 FF AA 16 E0 28 .........(.....(
00403F20 7A 8C 46 D5 4B 00 FF 4C 89 F1 00 9F 72 CE 24 86 z.F.K..L....r.$.
00403F30 7C 20 48 72 00 45 E4 E9 82 FF 9B BC 7A 14 80 00 | Hr.E......z...
00403F40 FE BA 99 49 F7 A8 6D B5 58 64 B5 E8 49 4E 62 00 ...I..m.Xd..INb.
00403F50 98 66 C4 12 00 DE 00 C1 71 A3 85 17 15 91 00 C4 .f......q.......
00403F60 36 EE 46 00 F0 22 60 8E A9 FF 8D 17 45 02 FF 39 6.F.."`.....E..9
00403F70 75 B6 EB 07 85 00 BF 65 BE B3 B0 93 C5 CC 8A 00 u......e........
00403F80 6E 0B E8 9D 00 25 FD 46 7A 91 54 98 7F FC 34 63 n....%.Fz.T...4c
00403F90 A8 87 CE BC 4C 00 1B E4 8F 81 65 11 BE A2 BE 5C ....L.....e....\
00403FA0 30 6E 4A 5D BC 00 1D C2 C1 2A DD D7 A6 63 93 5A 0nJ].....*...c.Z
00403FB0 2A 38 5A 9F 11 55 C9 3E 65 C2 FF B8 8B 0B F3 E9 *8Z..U.>e.......
00403FC0 00 4E 86 FE 49 DD 46 52 BE 01 5C EF 0A FF 88 BF .N..I.FR..\.....
00403FD0 00 E5 28 42 AB 1A FC FF F0 9B F5 FF E6 9A 33 00 ..(B..........3.
00403FE0 F3 EC 08 19 34 47 40 C5 AA 2B 12 E7 E0 35 C6 83 ....4G@..+...5..
00403FF0 DA 01 00 B1 16 8B 15 4A 00 00 3F 41 72 FE C1 DF .......J..?Ar...
00404000 07 D1 6A DE 5A 85 F3 7B EC FA 59 4A C2 85 73 00 ..j.Z..{..YJ..s.
00404010 D8 00 47 AB 11 FB A5 EA 00 63 6A 99 FF F7 65 A5 ..G......cj...e.
00404020 D3 5C 00 00 F7 49 8F 53 2B B2 46 00 B2 8F 20 38 .\...I.S+.F... 8
00404030 18 5A 00 43 EF 4B F1 FB 6C FF 00 81 6C 00 40 0F .Z.C.K..l...l.@.
00404040 6E 95 F3 77 F3 63 63 69 FF 7C 77 58 00 2A A7 00 n..w.cci.|wX.*..
00404050 DB 9C B4 BD 00 46 F5 9F 7D 53 1A 00 00 48 83 DE .....F..}S...H..
00404060 3F 00 15 00 91 8F 3D 70 20 4D 33 1C 62 60 CA 7C ?.....=p M3.b`.|
00404070 00 C3 50 00 71 1F 03 00 8E 19 01 B0 0D 91 FF 00 ..P.q...........
00404080 8B 71 75 1A BD 41 FF FF FE 28 3A 37 C5 BF 9B 94 .qu..A...(:7....
00404090 DF B7 1C 48 BD 5A 02 00 00 5A 84 CD 00 FC 0F 34 ...H.Z...Z.....4
004040A0 5C D7 5C 06 99 0C 54 89 46 96 31 B1 76 7B 48 D3 \.\...T.F.1.v{H.
004040B0 82 69 60 11 37 03 18 90 4B CD 05 5E 2F 1F 4D E0 .i`.7...K..^/.M.
004040C0 76 B8 FF 18 FF 63 E3 D2 B2 40 C3 00 DE EF 48 7C v....c...@....H|
004040D0 E2 00 DF FA 02 54 0B BB 9E 10 00 DA BF 8D 1D 00 .....T..........
004040E0 92 81 E0 F9 B0 FF DF 08 00 93 1F 3D 65 CC 00 44 ...........=e..D
004040F0 80 11 10 00 09 90 C7 7C F1 06 6B 25 07 07 FE 54 .......|..k%...T
00404100 54 E9 41 DC 00 DC B6 D0 9C 21 FF 00 77 D3 83 A9 T.A......!..w...
00404110 90 92 29 97 56 8F 24 5E BF 73 00 42 34 00 2E 4C ..).V.$^.s.B4..L
00404120 5A 6F BB 8F 97 3E 23 4D 4F AE 76 00 F6 91 21 DF Zo...>#MO.v...!.
00404130 9B FE A0 06 B6 91 09 2A 00 5F 19 00 AC 72 FB D2 .......*._...r..
00404140 DE F1 54 3E 16 8F 00 F3 E5 A1 6C 87 E1 BE F8 D8 ..T>......l.....
00404150 BD 00 BE 00 CE 7C A3 E8 09 0B B7 00 AE C9 5A 71 .....|........Zq
00404160 77 6D 00 00 50 88 00 FF D4 DF 7D 00 B5 79 8B C3 wm..P.....}..y..
00404170 2A 32 AC ED FF DF 0C BB 69 B3 F6 E1 DC 7A 6E AF *2......i....zn.
00404180 B8 8B 11 7B 4C C4 D1 C0 00 F3 F6 B1 00 FB 10 03 ...{L...........
00404190 7B C9 D0 43 00 7B E4 12 0B 35 90 9F D6 32 A2 BF {..C.{...5...2..
004041A0 00 F9 00 5E D2 B4 DE 45 25 CD 0B AA 93 3B 00 4C ...^...E%....;.L
004041B0 27 FE 9B 30 3B 5E 98 00 00 C5 17 05 1C D8 93 18 '..0;^..........
004041C0 EA 95 19 00 80 40 CF F5 8A 3B 82 00 D6 00 9B 00 .....@...;......
004041D0 B3 00 00 00 00 D9 98 DF C5 07 81 36 70 7A 4A 92 ...........6pzJ.
004041E0 60 13 34 44 1B 99 6B C4 78 F9 7C 00 3C 54 00 A4 `.4D..k.x.|.<T..
004041F0 59 00 00 79 B7 9E B0 98 8B C7 0D FF 00 77 70 FB Y..y.........wp.
00404200 C2 36 D8 40 24 13 49 76 E4 D1 FE 3C 01 66 CA 2D .6.@$.Iv...<.f.-
00404210 91 00 81 CE 6A 79 49 71 74 7F FF 9F 02 06 D0 12 ....jyIqt.......
00404220 9A FF 02 8B D7 00 FF 02 00 88 00 09 A8 DB 00 9C ................
00404230 9F 01 3A EC 98 B2 C6 5A F9 FF FF FB 3B 00 CB FF ..:....Z....;...
00404240 CD D7 C3 06 01 19 FF 00 26 00 2E 00 06 CE 90 FF ........&.......
00404250 FB E4 FD 24 40 00 E5 78 E4 67 FF 04 E4 63 1A BA ...$@..x.g...c..
00404260 BE 6C 1A 37 C7 25 84 6E 02 51 0B BD F9 00 A7 35 .l.7.%.n.Q.....5
00404270 00 00 08 B1 3E 2E 88 00 95 F0 B6 39 00 FB 0F EC ....>......9....
00404280 10 1D 57 03 94 53 DB B6 43 C1 CC 00 AD 8A 82 DB ..W..S..C.......
00404290 70 58 57 CC C6 5C 74 FC 00 91 AD 93 2E 6C C3 00 pXW..\t......l..
004042A0 F6 FB 00 F9 5C EF 00 00 5A 10 00 6F E6 D6 F3 E2 ....\...Z..o....
004042B0 80 63 4B F1 1A BA 80 DE 44 FF 28 00 00 27 E7 E8 .cK.....D.(..'..
004042C0 C2 00 7C 2A 88 C1 7B 7E 07 32 FF 71 00 00 A2 00 ..|*..{~.2.q....
004042D0 00 FF 08 76 80 FF FF 40 03 3B BD BA CD B9 24 36 ...v...@.;....$6
004042E0 38 8F 00 3A 05 FF 63 59 21 00 80 00 08 01 19 BC 8..:..cY!.......
004042F0 FF 00 00 B4 00 49 A7 C0 00 C7 9F 00 DB 9A 27 12 .....I........'.
00404300 4E 98 00 91 BF DC 6E 00 00 18 34 E8 00 0C 85 92 N.....n...4.....
00404310 D3 25 7D 70 00 61 2B 39 60 B6 BD 0C 9C 5A DF 9C .%}p.a+9`....Z..
00404320 EF 3F 18 00 00 00 96 4F 8C 2D 12 1E F1 5A E0 2E .?.....O.-...Z..
00404330 24 7E 29 00 D3 24 FB AF 33 DE 1C F6 9D BF FF EE $~)..$..3.......
00404340 1E 81 B3 6E 6E A6 0C 30 7D 23 74 00 FA 83 86 B4 ...nn..0}#t.....
00404350 00 9D B9 80 2E 8F CF B8 D7 EB 08 3C FF 03 5E 69 ...........<..^i
00404360 E3 41 83 00 DB B7 9E 39 9B 2F DA 9F C1 21 37 A0 .A.....9./...!7.
00404370 FF A0 41 C1 D4 54 8B 14 A8 C3 63 BE 09 F6 B0 0C ..A..T....c.....
00404380 5D 34 5D 2C 66 5F 00 1C D2 C0 AA 21 21 71 C1 02 ]4],f_.....!!q..
00404390 00 E0 83 1E 57 9A FE FF 28 1B 08 BF 71 D5 1F AA ....W...(...q...
004043A0 FF 00 CA 16 0C 00 99 38 60 FE FE 7B FE 2B EB B8 .......8`..{.+..
004043B0 7B 21 7D EF 6D 00 3E 79 99 10 5B EC 3D 00 45 92 {!}.m.>y..[.=.E.
004043C0 00 ED 17 88 63 60 25 D9 00 01 A4 29 03 00 F1 4B ....c`%....)...K
004043D0 A5 ED 00 B8 8C 84 D1 E1 B1 E1 31 4C 00 DF B1 F6 ..........1L....
004043E0 A3 3C 7D AD 08 53 FF E2 98 D0 CC C6 BE 2D 1F 4E .<}..S.......-.N
004043F0 64 00 00 83 00 A1 FF 65 B1 C7 46 5E 80 00 3E EE d......e..F^..>.
00404400 DF 23 E6 C0 22 C9 B7 FF A1 FF 1B 31 FC DA 73 F2 .#.."......1..s.
00404410 39 F7 04 E8 40 3E 86 78 F3 3D FF 9B F1 8B E9 31 9...@>.x.=.....1
00404420 E8 21 B0 9A EE 03 55 B1 83 BD 00 C4 00 00 C9 FE .!....U.........
00404430 5A 00 F0 B7 CE 00 07 C6 24 FF 00 FF 00 DA 02 C7 Z.......$.......
00404440 EE C2 FF 08 00 98 70 BF 75 DC 20 37 7A BF 87 C3 ......p.u. 7z...
00404450 A1 71 00 48 E3 2F 00 19 94 72 21 1C 22 FF 40 E9 .q.H./...r!.".@.
00404460 08 0A 46 9D C3 D3 89 96 00 D8 D4 59 8A 81 52 0F ..F........Y..R.
00404470 00 F4 A1 49 F5 13 61 6A 67 74 04 00 00 13 4E 05 ...I..ajgt....N.
00404480 0E 4C 54 CF 52 A1 38 43 FF 00 AC 88 FC CB EB 60 .LT.R.8C.......`
00404490 F5 03 5C 87 8D A4 F4 A6 68 21 A1 73 52 7B 00 64 ..\.....h!.sR{.d
004044A0 03 F9 38 00 97 C8 E6 0B A1 FF 0C 14 BC 18 00 16 ..8.............
004044B0 FF 00 19 03 04 56 18 00 29 0F AB A5 B3 54 F9 C4 .....V..)....T..
004044C0 7B 6D A4 00 4D 44 EA 7E 00 FF 21 63 37 9C 54 7E {m..MD.~..!c7.T~
004044D0 1C 27 00 00 23 03 BD 84 E7 10 E4 09 00 87 E4 6A .'..#..........j
004044E0 C3 AA F1 C7 CC C9 57 68 F8 67 AC 7F DA C5 E7 33 ......Wh.g.....3
004044F0 0C CA 00 20 E6 97 FF 73 00 27 EA 00 D2 00 FF 00 ... ...s.'......
00404500 57 07 1B 94 B1 F9 31 A4 F7 FF 1B 03 1C 49 90 74 W.....1......I.t
00404510 EC 0A BD 37 D8 7C C7 CA 20 00 FF 36 C3 F1 53 EE ...7.|.. ..6..S.
00404520 57 B7 BD C1 DF 32 82 F2 3C 1D 16 79 2A B8 FF 7A W....2..<..y*..z
00404530 B1 AA 77 67 EA 7A 3A 66 ED 59 5A 00 42 AC 2A BF ..wg.z:f.YZ.B.*.
00404540 FF 20 59 00 D3 1C 3F 63 FF 00 F0 FF 6C F9 D2 B2 . Y...?c....l...
00404550 D8 ED 49 FD DB 00 00 A8 00 52 D1 F7 04 79 4C C8 ..I......R...yL.
00404560 FE BF 69 38 CD 40 9A 94 88 EA 34 00 F0 26 FF 87 ..i8.@....4..&..
00404570 24 FD 00 C3 ED A3 22 15 E3 30 36 00 00 0A D2 FF $....."..06.....
00404580 00 07 91 F4 8A 02 A6 63 80 5D 25 FF 12 8D F1 02 .......c.]%.....
00404590 43 00 8D 17 B7 06 BC CE FF 00 41 00 2B 34 CE 10 C.........A.+4..
004045A0 89 FF 3B 8F 68 43 01 2C BD 09 A5 C9 28 B0 B5 00 ..;.hC.,....(...
004045B0 00 B0 6F B2 21 65 00 83 CC DF CC 91 90 C9 9D 29 ..o.!e.........)
004045C0 61 74 10 BF 00 C3 81 D4 BD 1E 00 00 80 F5 90 68 at.............h
004045D0 2A 00 0F 00 22 7A 5E E6 80 57 8A 41 C2 00 6E 00 *..."z^..W.A..n.
004045E0 47 00 02 FF F3 00 BD A6 97 89 FB 19 D0 D0 00 FF G...............
004045F0 D4 A0 04 00 5E 67 D8 75 18 8A 15 AA 48 00 7A 00 ....^g.u....H.z.
00404600 64 DE BA 01 C6 D3 B5 25 91 EE C7 F9 69 6A 94 24 d......%....ij.$
00404610 D1 6C 14 00 FF FD 00 F6 4C EC 87 50 FA CF 39 1C .l......L..P..9.
00404620 D2 12 FF 5B 25 C9 50 E1 29 E3 FF 9F 12 E8 00 EA ...[%.P.).......
00404630 9E 31 91 E9 ED 5C AC 9C 00 0A 00 F2 3F E4 30 01 .1...\......?.0.
00404640 00 00 C0 10 71 00 00 B9 CE 0C 07 74 7C 1B 23 C3 ....q......t|.#.
00404650 F6 66 26 02 84 00 F7 64 69 52 7A 03 CA 80 00 2D .f&....diRz....-
00404660 06 04 FB 76 00 E1 00 00 F8 79 D0 BC 1B 3A FB B0 ...v.....y...:..
00404670 CE 00 F4 DA CB 00 36 EB FF A4 8B 52 2C FF FF FF ......6....R,...
00404680 DF C2 E9 00 49 F9 DB 2C EF EF 86 83 BA 8F 40 9B ....I..,......@.
00404690 98 17 7C 56 D4 32 FA 3E E2 B9 A1 F8 FF 00 E0 47 ..|V.2.>.......G
004046A0 00 8C D6 04 F0 45 00 00 90 28 C0 4E 00 2C F0 A2 .....E...(.N.,..
004046B0 F3 ED FF 71 D0 AA 39 19 54 8F 9F F7 B3 70 00 C1 ...q..9.T....p..
004046C0 FF 37 00 61 CE D4 86 EF 00 7F 8C 00 29 70 1F 37 .7.a........)p.7
004046D0 03 23 67 A9 F7 3E A8 C1 91 BB A0 E7 FF 55 31 BA .#g..>.......U1.
004046E0 38 C1 00 8A 7E 00 FF 24 4C FF FE 29 A5 28 91 50 8...~..$L..).(.P
004046F0 9A 36 CA 23 83 A3 A4 37 42 FF 00 27 00 4F A3 8F .6.#...7B..'.O..
00404700 BF F6 3F 34 68 01 87 04 41 EF 71 56 DB C1 00 FF ..?4h...A.qV....
00404710 8C E3 9E A4 46 41 E8 CA 7F 30 00 9F 81 CE 1F 39 ....FA...0.....9
00404720 3D 96 65 3B 34 37 59 73 8F FF E7 5E A6 03 30 BD =.e;47Ys...^..0.
00404730 10 08 6B 29 3F FB 64 D6 00 18 99 BA 08 E4 44 E0 ..k)?.d.......D.
00404740 C2 5D BB 31 E8 8D 00 B0 51 25 9B 5C 64 00 68 CC .].1....Q%.\d.h.
00404750 00 23 1C 00 84 00 90 81 E2 0C F9 48 FF 00 9B 70 .#.........H...p
00404760 F1 00 F7 9A 72 E3 F6 0C 09 F9 28 08 2C FF CA 0B ....r.....(.,...
00404770 F9 7E C3 32 3B F4 A0 00 67 00 95 28 09 10 00 1E .~.2;...g..(....
00404780 93 F5 BD 00 59 0C AA F7 97 40 31 B0 3B 0C 57 E1 ....Y....@1.;.W.
00404790 3A 74 00 70 E8 14 04 58 F6 97 ED C8 C8 8E CB 1C :t.p...X........
004047A0 C1 A3 AA B4 AB 3C FF 1C 00 C3 D4 F3 28 31 72 8A .....<......(1r.
004047B0 B5 66 51 C2 3B 0D B7 BE 63 6C 74 10 AD 9F D5 24 .fQ.;...clt....$
004047C0 F0 50 73 10 A7 74 62 34 31 ED C0 DD 0E 26 00 DB .Ps..tb41....&..
004047D0 2F 54 FF FB 51 1A 00 E7 34 1B 9B DD 08 FF 5C 98 /T..Q...4.....\.
004047E0 00 B0 01 AF FF 63 73 68 0D 2C 00 78 FF F5 F7 88 .....csh.,.x....
004047F0 8E FF 24 00 69 4C C7 A0 80 00 6E B2 77 00 EE E0 ..$.iL....n.w...
00404800 65 62 58 89 42 41 13 F2 38 00 02 C5 D4 00 00 1E ebX.BA..8.......
00404810 B5 E5 0B E1 E7 B8 27 B3 67 A8 D1 4C FF 9C 0B 0E ......'.g..L....
00404820 06 95 00 FF C8 00 93 58 99 6C EF 64 33 DB 00 FE .......X.l.d3...
00404830 22 FA 00 00 75 13 00 FF D7 DD 00 34 19 84 62 CF "...u......4..b.
00404840 67 11 42 5C 9E 00 18 00 78 81 2E BF A4 B3 BC 40 g.B\....x......@
00404850 25 78 00 FD B1 D0 FF 68 40 FF 36 22 F7 08 34 F0 %x.....h@.6"..4.
00404860 C3 00 6F CE FF 3D 82 00 84 CB C0 29 F0 34 07 CD ..o..=.....).4..
00404870 42 CF 9E A1 97 00 8E 19 11 EF 00 00 AB FF 51 DD B.............Q.
00404880 DA FF 9E 06 20 95 4C B0 05 FD 76 99 00 50 00 00 .... .L...v..P..
00404890 FA FE DC 8C 00 00 D1 AE D7 24 5F 02 5A FD 44 C3 .........$_.Z.D.
004048A0 00 00 0C 8A 46 FB 65 E3 3F 38 82 A1 00 B4 3E FB ....F.e.?8....>.
004048B0 B0 F7 4F FE 00 81 7C 09 FF DE 43 A3 00 39 4C D9 ..O...|...C..9L.
004048C0 FC B4 00 31 40 82 77 00 B8 A6 89 8D B0 1A E2 CB ...1@.w.........
004048D0 00 0B 00 90 3A ED 8F 2A E9 30 00 5E FF 8F 96 97 ....:..*.0.^....
004048E0 C0 3E 68 BF F8 61 0E 00 23 7D 8E 70 B3 72 79 0A .>h..a..#}.p.ry.
004048F0 8B 06 C4 10 65 20 00 10 30 EA 19 3E 87 5F 68 CF ....e ..0..>._h.
00404900 87 FF 02 FF CE 00 92 45 00 0A 71 05 08 86 EF DC .......E..q.....
00404910 6B F7 00 43 4A 57 86 40 EF 88 A3 26 C9 34 E1 63 k..CJW.@...&.4.c
00404920 19 0A 07 A3 7C 63 61 33 40 82 13 41 BE 77 E8 61 ....|ca3@..A.w.a
00404930 14 A2 38 A1 9C ED C2 24 79 47 2E FF 35 31 0C A9 ..8....$yG..51..
00404940 93 89 56 00 2A 70 11 C9 F8 C2 00 57 41 B7 7B 02 ..V.*p.....WA.{.
00404950 00 80 F0 80 10 C1 C0 A7 A3 ED C0 DD 9E A6 09 63 ...............c
00404960 30 54 26 D2 0D E3 DF 00 84 B5 60 00 EB 00 C1 FF 0T&.......`.....
00404970 47 0C 3A A8 00 05 6D 84 42 DB 84 25 02 06 BB 7C G.:...m.B..%...|
00404980 1E 92 00 CA 00 E9 6D 6F E9 02 B6 20 4E F3 0B 90 ......mo... N...
00404990 CF B3 6D 3A D9 97 F4 8A FF BC 00 97 F7 F4 00 77 ..m:...........w
004049A0 C9 F5 FF A9 FB 46 BD 23 03 5C 5B 25 73 30 9F 47 .....F.#.\[%s0.G
004049B0 97 7C 0E F4 4C 1F 5E C4 00 40 FB 9F 3D 89 9C 22 .|..L.^..@..=.."
004049C0 37 69 B3 88 1E 55 E6 E9 50 FF 01 DA C1 00 BF 24 7i...U..P......$
004049D0 00 D8 38 03 00 F9 88 62 C5 D3 70 4A A8 C6 F6 A6 ..8....b..pJ....
004049E0 23 70 8D 00 04 D5 00 FC FF 00 81 A0 51 35 08 A4 #p..........Q5..
004049F0 86 3C 74 74 00 BF 22 5C C0 E3 00 67 00 CE 40 F1 .<tt.."\...g..@.
00404A00 00 27 FF E9 44 66 00 08 99 34 B1 34 0C 00 00 8C .'..Df...4.4....
00404A10 D9 9D 00 46 D3 00 5C 22 71 00 50 3B 00 FF 00 5E ...F..\"q.P;...^
00404A20 F0 52 A0 20 E1 FB 61 63 32 96 74 00 A2 00 B4 16 .R. ..ac2.t.....
00404A30 1D CB 77 BD 00 12 1F 03 22 45 00 02 1E BD AE 0F ..w....."E......
00404A40 94 C8 79 13 B0 7B 4E 9A 7D D8 F3 0A 40 BE 00 ED ..y..{N.}...@...
00404A50 03 00 AB 00 C6 7E E7 61 9B 2C B1 E6 2E DF 04 00 .....~.a.,......
00404A60 01 FF 6A 05 76 D0 58 18 00 87 99 93 2A 1E C5 FF ..j.v.X.....*...
00404A70 18 FD 30 83 CC 48 F5 81 65 08 36 00 FF 54 1E C2 ..0..H..e.6..T..
00404A80 22 CF EC 72 41 F6 00 58 60 28 15 38 77 88 AE FF "..rA..X`(.8w...
00404A90 72 B6 00 FF 72 95 86 AD 34 6D FF A8 00 59 C1 80 r...r...4m...Y..
00404AA0 11 00 F9 C9 87 7F CA C7 54 00 89 59 FA 0A 83 84 ........T..Y....
00404AB0 00 16 A8 11 00 54 50 06 DF 04 02 00 00 CB 2D 95 .....TP.......-.
00404AC0 8B 00 D8 F1 CD C9 85 12 00 1B 02 AB 9C 11 8D A0 ................
00404AD0 03 8D FF AF 53 F4 00 00 BC BA 0B 83 7C BD 97 E8 ....S.......|...
00404AE0 1E 8D 01 9C 70 5E BD 63 43 7F 17 10 0A 89 03 10 ....p^.cC.......
00404AF0 41 0B 00 91 26 D7 11 CC 00 40 B1 FE 56 4D 76 00 A...&....@..VMv.
00404B00 80 AF 44 00 60 AE FA 79 82 9D 75 5A 83 00 D1 8B ..D.`..y..uZ....
00404B10 D7 03 CE A6 A6 FF 00 50 D0 1C F7 3B 07 5D 00 00 .......P...;.]..
00404B20 00 15 07 D4 EE ED 00 E8 02 BB FF 38 BB FB 2F 62 ...........8../b
00404B30 00 60 F1 21 00 00 BE 6E 68 00 9C 27 F6 46 00 BF .`.!...nh..'.F..
00404B40 F4 46 84 60 09 F1 00 00 D3 1C 00 36 41 8E DB 3B .F.`.......6A..;
00404B50 D2 00 EF C3 69 77 FF 12 31 17 35 04 00 00 00 00 ....iw..1.5.....
00404B60 EA 6F D8 A0 5C 83 2F 16 FF 10 3A D5 F5 30 00 1C .o..\./...:..0..
00404B70 4A 42 65 68 85 58 8C FF C7 C2 75 E8 8D 31 A3 D3 JBeh.X....u..1..
00404B80 D6 1E C7 3A 08 4C E6 6A 00 8F B9 2C 8C B1 F4 00 ...:.L.j...,....
00404B90 92 80 FF 91 FD FF 83 67 1B 96 00 38 00 DF 00 7E .......g...8...~
00404BA0 CE 61 FF 00 1D E2 F6 00 00 00 00 B6 C4 5F A2 D8 .a..........._..
00404BB0 D5 FB 5E 25 4F ED 84 2A 2C 00 0C 00 8E 26 D3 E3 ..^%O..*,....&..
00404BC0 00 6A 52 E1 2D 80 7D E3 52 00 EE FF 88 3E FF DF .jR.-.}.R....>..
00404BD0 14 0C 00 3C 77 00 3E 49 15 33 6B D0 00 5E 93 7F ...<w.>I.3k..^..
00404BE0 64 F7 00 B4 60 00 00 E6 5D 8E 19 FC 4E 7E FF B5 d...`...]...N~..
00404BF0 00 2C 51 18 A0 3F C1 4E 38 00 D2 95 27 81 4B 87 .,Q..?.N8...'.K.
00404C00 00 F2 FF 00 C0 19 AF 1E 55 C1 AA 1B E7 7B 00 4A ........U....{.J
00404C10 9E B8 70 B3 B2 00 43 C6 ED 87 83 FF 67 F4 D5 A6 ..p...C.....g...
00404C20 E5 97 66 07 16 A4 FF F7 74 F7 46 9E 41 03 61 65 ..f.....t.F.A.ae
00404C30 01 2C 76 F0 FF FF F9 43 FE 9A CB 43 85 BB 00 00 .,v....C...C....
00404C40 99 05 81 FF B7 26 A5 9E A2 F8 82 6C B9 F6 3A B4 .....&.....l..:.
00404C50 00 F5 05 AC 72 10 00 88 75 E2 9D FD 1F 6B 68 C8 ....r...u....kh.
00404C60 78 00 38 6E 2D 21 6A 79 6E 6B 1A 00 B8 69 46 19 x.8n-!jynk...iF.
00404C70 89 74 8B 46 63 CB 2E 0E 78 8B 47 7F 44 B1 38 F0 .t.Fc...x.G.D.8.
00404C80 84 8E 00 00 86 FD 8C 44 F9 D1 21 BD BA CE 87 1F .......D..!.....
00404C90 00 47 A5 F9 B0 5A 95 B6 EF 20 1E 56 07 7B ED 2D .G...Z... .V.{.-
00404CA0 FF 00 D8 00 AE A7 F9 E9 00 DF 01 FF 03 32 26 FF .............2&.
00404CB0 BA 20 DE 1B DD E9 5C 1D A5 49 00 7F A2 20 E0 53 . ....\..I... .S
00404CC0 00 81 00 FF 7F 00 FF 9E 54 42 E9 C0 4F FD 00 08 ........TB..O...
00404CD0 08 00 9F A9 FF 00 00 77 22 10 D0 81 3F D0 8E 00 .......w"...?...
00404CE0 8C C9 B1 D7 4F FE 38 FD AA 00 7C 08 A3 6E 4A 0B ....O.8...|..nJ.
00404CF0 D2 12 7A DD 52 EB C2 D4 23 32 27 FE 96 DF 1C 22 ..z.R...#2'...."
00404D00 9F 22 F1 83 00 1B 3D 83 D9 F5 00 C7 00 B2 4C 04 ."....=.......L.
00404D10 EA 00 D6 B4 FF 00 14 E5 59 43 9E E2 00 18 A4 EA ........YC......
00404D20 67 78 39 00 E7 0D 37 12 41 67 19 00 A6 00 F9 DC gx9...7.Ag......
00404D30 F2 F7 4C 08 FA 06 80 89 27 B1 B8 2D DF C4 BB 28 ..L.....'..-...(
00404D40 B3 87 40 65 4F 88 04 18 5E 66 5D 11 04 84 00 C8 ..@eO...^f].....
00404D50 7E 00 00 00 9C 8F 95 0C 46 E8 B9 0F 5C 64 47 C9 ~.......F...\dG.
00404D60 D8 0A 00 8A FF 5C F9 03 03 E6 56 70 E3 F0 16 0A .....\....Vp....
00404D70 1D FF 8E 00 DB FF 00 5E A0 FF 00 57 FF 00 8A D0 .......^...W....
00404D80 5C FF 00 41 04 00 07 EA FF 61 CD D2 A3 E1 19 CF \..A.....a......
00404D90 24 0C 00 F9 9A 82 66 89 CD 5C 07 26 5B E9 E6 DB $.....f..\.&[...
00404DA0 CC F8 57 6C 00 00 35 32 00 88 91 2C 3B 00 86 A2 ..Wl..52...,;...
00404DB0 00 4D 62 00 57 9A FF 13 00 F2 F8 F0 00 CF 28 00 .Mb.W.........(.
00404DC0 C3 53 51 EB E7 AC 6B 7C 79 00 60 00 08 04 D8 67 .SQ...k|y.`....g
00404DD0 A3 71 14 87 18 20 81 00 DB 3C 08 36 0E A8 26 04 .q... ...<.6..&.
00404DE0 68 3A 68 19 E6 00 C2 17 D8 D4 F3 46 85 D4 00 CB h:h........F....
00404DF0 00 AD 98 F4 8C 60 4D 1B 2B 41 FF 9C D2 E0 45 40 .....`M.+A....E@
00404E00 C8 00 03 E8 4A F6 00 0F 01 4F 97 A0 50 84 B6 D1 ....J....O..P...
00404E10 01 00 5F D0 CF B0 FC 02 36 27 00 01 98 FF 40 1C .._.....6'....@.
00404E20 1E F6 CE F3 00 47 00 7E FB 00 44 F5 16 87 9A 18 .....G.~..D.....
00404E30 7C C5 F8 99 00 2D E0 83 42 AE 47 09 06 82 A7 2F |....-..B.G..../
00404E40 B0 D2 38 1D D6 D8 AB 0B 87 86 00 BA 91 BA 00 DE ..8.............
00404E50 35 1F 83 48 AD 6C 00 24 05 FF AB 65 10 0C 61 82 5..H.l.$...e..a.
00404E60 8E 00 40 48 5B 1B F5 00 42 5C 0F FF 1F 89 1A CA ..@H[...B\......
00404E70 CE 5A 6E 28 E7 E8 F3 00 C4 C3 7D 01 8C 2E 00 AE .Zn(......}.....
00404E80 34 26 04 3A 00 4D 3E 00 44 00 CB DD 7D A9 FB 4B 4&.:.M>.D...}..K
00404E90 8D 18 AA B0 00 A2 05 B7 DF D0 8D FD B5 36 6B FF .............6k.
00404EA0 60 7C 20 B4 40 5F 9E C0 8F A9 DF 00 41 57 CB 9B `| .@_......AW..
00404EB0 0C 82 78 81 93 FF BC 65 00 1D 35 01 80 FF 1B 88 ..x....e..5.....
00404EC0 8B A3 00 00 FF FF 54 C9 00 66 02 1E E0 37 CB 70 ......T..f...7.p
00404ED0 49 A8 6F 00 39 89 4C BE FF 48 8B 62 07 7F 59 DB I.o.9.L..H.b..Y.
00404EE0 A0 38 D2 00 38 88 AA 70 E7 1B 00 E0 E8 B1 B0 FC .8..8..p........
00404EF0 EB 78 A4 00 7C BD 45 50 0C D2 AF FF 4F 4B B9 15 .x..|.EP....OK..
00404F00 23 05 00 68 88 84 7C 57 B9 83 00 02 17 CA D8 70 #..h..|W.......p
00404F10 21 0D 29 08 4B 8D 80 4F E0 D6 50 A9 84 B8 21 38 !.).K..O..P...!8
00404F20 13 E5 FF 2E FD 7C 23 68 FF DE E1 5A 00 03 F8 70 .....|#h...Z...p
00404F30 B0 00 6B 00 E1 00 91 00 D5 00 2B 02 01 7F 0A B1 ..k.......+.....
00404F40 05 16 15 88 C1 30 E8 FF 4C 0F 40 61 0E 00 66 C6 .....0..L.@a..f.
00404F50 3A 1A 86 F3 08 0A 39 00 D0 49 21 94 3E 9E 94 2E :.....9..I!.>...
00404F60 00 7E 6D F0 1F CE E6 64 0F 2D 84 70 C0 00 4F 47 .~m....d.-.p..OG
00404F70 C0 18 2F E8 00 0E 15 58 00 BD 60 BD 44 55 EC E9 ../....X..`.DU..
00404F80 B8 1C 04 04 71 57 82 E9 F1 FA 8D 66 00 E7 03 E1 ....qW.....f....
00404F90 13 51 5C 31 22 48 F8 00 16 D6 00 28 27 54 5F 95 .Q\1"H.....('T_.
00404FA0 00 47 00 F1 A7 4F 51 00 04 10 36 8F 12 5B C3 B7 .G...OQ...6..[..
00404FB0 65 B0 61 81 2F 04 40 8B 32 C6 35 37 38 88 00 B4 e.a./.@.2.578...
00404FC0 AF 00 F0 FF F3 8D EC 7B 45 72 40 6C 0C C5 E0 F3 .......{Er@l....
00404FD0 6F C7 3A 83 CB 03 F4 20 3F 10 E0 63 31 92 D2 1C o.:.... ?..c1...
00404FE0 C2 EA 70 6A CD DC E9 9F EB FF 08 05 17 3D A6 00 ..pj.........=..
00404FF0 66 04 6E 14 51 35 07 9D C7 00 DC 60 89 57 B1 25 f.n.Q5.....`.W.%
00405000 9C C1 B5 3E C5 C6 FF EE FF 45 AE 00 07 DB 00 1B ...>.....E......
00405010 00 A2 00 96 12 43 B3 A8 AB D3 00 B1 66 03 6B 1B .....C......f.k.
00405020 9C FF AA 08 2B FF A6 0F 78 97 97 04 5A C0 36 0C ....+...x...Z.6.
00405030 F3 D3 D2 00 80 99 32 00 00 7C 45 81 BA 8D 03 14 ......2..|E.....
00405040 0F DD 34 4B 00 79 6A 11 8A F0 BF EF 35 64 62 39 ..4K.yj.....5db9
00405050 28 B3 4D 00 67 91 98 00 00 7E 00 B7 00 D8 96 FF (.M.g....~......
00405060 E0 FF BA FF BE 0C C0 24 00 D3 00 69 00 0A D4 90 .......$...i....
00405070 A7 5A 02 80 53 45 C3 FF E3 FF 82 A6 53 8C 23 5C .Z..SE......S.#\
00405080 FF B1 1C 59 8B D4 4F 77 8E 6F 00 00 EE 3C 00 CB ...Y..Ow.o...<..
00405090 66 7C 41 7E 15 8E 9D 9E 24 6E 8D 00 19 49 03 04 f|A~....$n...I..
004050A0 5D 53 B8 FF 6A A4 02 B3 19 9F A1 0D 32 51 80 7A ]S..j.......2Q.z
004050B0 18 43 57 00 AC 08 DC 44 00 84 00 A5 A6 61 76 E5 .CW....D.....av.
004050C0 93 00 CD AE 2B 21 00 2B 9D D0 E6 85 E0 5A 82 7F ....+!.+.....Z..
004050D0 B5 31 4C 18 62 D8 70 CE FA 15 EF 37 00 01 00 2F .1L.b.p....7.../
004050E0 E5 00 3E FC AE 5F 11 7C 3D E8 BC 7B 12 36 FA 70 ..>.._.|=..{.6.p
004050F0 BC 7A 26 59 9A 9C 00 53 17 41 53 00 3A 8E 00 29 .z&Y...S.AS.:..)
00405100 DB 00 76 00 00 3C 00 32 8C CC 00 3E FF 23 12 8E ..v..<.2...>.#..
00405110 00 05 4E 04 D3 FF 1E 30 00 00 B0 F4 AD B5 72 5D ..N....0......r]
00405120 3C C9 00 00 00 DF D1 63 AC 7F FE 93 00 41 F3 FF <......c.....A..
00405130 B1 08 9B E7 04 D3 4D 00 71 55 1B 93 05 52 FA E1 ......M.qU...R..
00405140 B2 00 34 07 0B FF 32 00 3C 2C 5F AA 00 60 01 6D ..4...2.<,_..`.m
00405150 45 B0 96 50 00 75 E1 A5 DA 37 8B 00 E5 A0 11 FF E..P.u...7......
00405160 BB 03 20 6E C5 E7 7C 9D 00 0B 00 E0 00 DD E0 DF .. n..|.........
00405170 AE F0 1C F9 99 3C FF 52 1F 6D FD F0 00 11 00 00 .....<.R.m......
00405180 02 DB C5 FF 00 BF 50 DB DF 0B 80 6D B4 EA 62 4A ......P....m..bJ
00405190 20 FD 00 1F 2D 71 F1 0C 13 F7 AF A4 88 87 92 AD  ...-q..........
004051A0 17 34 11 71 E9 E3 5B FD 48 31 00 37 2F 3A 81 32 .4.q..[.H1.7/:.2
004051B0 F7 26 00 EC 24 A8 00 61 2A 21 4E 92 DC 44 16 00 .&..$..a*!N..D..
004051C0 52 70 0A 04 00 00 3A 4D 35 70 CD EA 51 00 F2 0C Rp....:M5p..Q...
004051D0 61 B0 72 48 00 37 EB 43 FA 53 93 14 72 30 C3 54 a.rH.7.C.S..r0.T
004051E0 21 60 83 42 00 00 D9 A0 BA 0B 41 FF 00 F1 41 CD !`.B......A...A.
004051F0 98 00 BE 97 74 36 87 00 3F 7C F6 B6 E0 3D 69 ED ....t6..?|...=i.
00405200 C7 D1 26 00 87 C2 85 68 1D 30 4E E5 00 3E C0 A5 ..&....h.0N..>..
00405210 2A 46 43 08 51 F7 C6 AB F1 9E 8F 99 00 08 FF 27 *FC.Q..........'
00405220 4A 3D A1 2F 20 9C 7E 7F 48 FF 00 74 64 BD 2E FF J=./ .~.H..td...
00405230 5E D3 31 1B E8 21 E5 78 AB C5 00 70 62 37 6D D4 ^.1..!.x...pb7m.
00405240 53 2E 00 86 FF C1 C7 64 5D 62 C8 27 87 00 42 A7 S......d]b.'..B.
00405250 8F 00 40 EC B2 D8 13 8D 00 50 36 FF F8 5E FF 7C ..@......P6..^.|
00405260 4D 00 00 C3 07 FC A6 7C 88 00 A1 DF ED 14 61 E2 M......|......a.
00405270 F0 00 B1 00 5C E7 00 52 72 4E 58 75 F2 B8 6A 97 ....\..RrNXu..j.
00405280 00 44 00 25 00 83 61 9D 0B C1 BC 00 4F B8 73 B5 .D.%..a.....O.s.
00405290 2A 96 BB FF 62 12 00 E4 69 B3 C9 DE E6 6B FF AB *...b...i....k..
004052A0 3D 1D 76 B0 25 52 C7 FE 59 4E 10 2D 94 63 36 49 =.v.%R..YN.-.c6I
004052B0 00 00 47 12 BF 00 00 44 53 99 09 00 01 00 48 FF ..G....DS.....H.
004052C0 43 00 7C 6C 00 06 5F FF 60 52 FE 08 A3 89 D1 20 C.|l.._.`R..... 
004052D0 00 8D 8C A2 17 00 4D B2 00 79 56 64 7C F2 E3 FC ......M..yVd|...
004052E0 00 00 00 98 FF 0A 80 85 A7 57 66 00 00 00 40 A0 .........Wf...@.
004052F0 13 11 FF E4 16 EE 90 32 98 38 F5 00 6B 72 00 1C .......2.8..kr..
00405300 49 17 00 07 63 00 58 A1 39 FF 0A C1 CC CB 32 33 I...c.X.9.....23
00405310 75 B0 C8 B0 CB E2 16 00 3D 6E 00 00 E0 2B FF B8 u.......=n...+..
00405320 6D 60 D6 FC 32 ED 0C FA 00 A7 00 52 46 13 B7 F9 m`..2......RF...
00405330 DB 02 FF F9 F0 91 46 53 21 AA B7 29 DB FF D7 B0 ......FS!..)....
00405340 0B 15 D8 FF 05 69 70 4A FF 0E 00 08 CB 22 16 91 .....ipJ....."..
00405350 AB 00 7F 05 00 26 AF E9 73 35 CA CC AC D5 9D B1 .....&..s5......
00405360 00 98 3B DF 84 02 C9 39 B4 44 3E 63 BB D1 BD 1B ..;....9.D>c....
00405370 00 6E 30 2D CD 05 18 00 08 C7 00 CE E1 B8 8E 7B .n0-...........{
00405380 B7 A9 61 67 05 00 D6 00 B9 1E 95 60 2E 00 48 C5 ..ag.......`..H.
00405390 CA AA 0B 00 6D B1 1C FF 58 00 92 FF 10 83 C0 3E ....m...X......>
004053A0 99 E0 A7 E2 C7 93 89 A4 E8 5F 03 8C E2 FF 00 00 ........._......
004053B0 5E 48 91 C0 84 9E A1 D4 E0 C7 80 F5 0B FC BE 19 ^H..............
004053C0 F7 78 52 49 FF FB 2A EC 5E FF 3C 13 00 63 2B 2E .xRI..*.^.<..c+.
004053D0 D0 8E CA 35 F7 00 C2 C0 FD C5 3F 5E 00 1B F1 7C ...5......?^...|
004053E0 24 48 89 A2 89 D2 57 01 00 AF ED 8D EE 01 37 E4 $H....W.......7.
004053F0 09 DB 95 C7 CB CE 9D EF 25 76 00 DC 00 36 AE 9B ........%v...6..
00405400 00 BB 9B 70 A8 00 AB 00 3D 94 8C CC 00 ED 2D B1 ...p....=.....-.
00405410 8E DF 1F 3E D0 00 43 FF 71 F8 00 00 62 00 B0 21 ...>..C.q...b..!
00405420 C5 F3 2A A3 FF 00 AD FB C8 FA DF 06 00 BE 00 30 ..*............0
00405430 39 10 00 33 52 B5 A7 28 A9 1E 87 49 1A 42 BB FF 9..3R..(...I.B..
00405440 27 B0 84 A0 00 8D 87 28 AD 1F 0B FF F9 B0 DC 00 '......(........
00405450 85 19 A6 01 E0 20 55 01 95 24 58 10 FC 7F 83 5A ..... U..$X....Z
00405460 8C 6B 04 BF 05 12 D8 4A FF C8 67 00 CC 48 B9 FF .k.....J..g..H..
00405470 00 D0 58 D7 1E 16 00 66 E0 00 FF 95 3F 0C F8 FF ..X....f....?...
00405480 D9 00 00 C6 7C 21 50 FB BA 00 37 00 C3 FE D2 E4 ....|!P...7.....
00405490 C4 68 CC CA 68 00 C9 BE B7 FA 36 0C BF DE A0 A4 .h..h.....6.....
004054A0 5C F9 44 79 87 00 3C E3 3A 9F 00 6E 0C 9D 96 90 \.Dy..<.:..n....
004054B0 83 B2 C9 83 26 12 83 8B 29 15 5D 0C 31 5D FF A7 ....&...).].1]..
004054C0 00 47 91 D1 28 38 5C 66 56 7B 05 01 49 FF 3B 00 .G..(8\fV{..I.;.
004054D0 2F 16 F4 E1 D8 67 44 47 99 BF 40 28 26 B0 69 A4 /....gDG..@(&.i.
004054E0 A3 00 02 FF F6 B9 AF E4 E7 98 8E 28 57 08 81 DC ...........(W...
004054F0 00 08 00 5B 61 00 2F F4 0E B9 03 D1 D7 5F 9C 92 ...[a./......_..
00405500 43 00 DE E6 3B D9 FE E6 58 09 18 FF BF 8C D0 D2 C...;...X.......
00405510 57 56 48 E7 31 FD D5 0D FF 4C 24 00 00 48 5C 6C WVH.1....L$..H\l
00405520 00 41 00 26 FF 96 C0 85 16 E7 39 F3 0D 07 1C CE .A.&......9.....
00405530 58 0E 54 A0 E5 C4 E2 17 8F 04 80 27 7A 53 0A 63 X.T........'zS.c
00405540 AE 36 ED 00 FF 88 85 A8 2B 27 04 00 48 40 10 09 .6......+'..H@..
00405550 00 1D 78 72 B6 00 0F 06 CD 1B F7 8E 08 A2 00 F1 ..xr............
00405560 F6 C4 FB FF 00 FF 99 00 81 D4 12 7D D4 46 21 A6 ...........}.F!.
00405570 2C E8 91 87 B9 41 EB F5 C8 B9 1E 36 41 6E BC F1 ,....A.....6An..
00405580 B7 FE 72 37 C2 FF EE 33 4B FF 04 04 C2 5E 38 56 ..r7...3K....^8V
00405590 27 ED 5D BE C5 00 66 B9 00 08 07 7F 91 D1 F3 A0 '.]...f.........
004055A0 00 60 BC 8B 2C 00 00 00 C3 53 76 54 D5 00 BC A3 .`..,....SvT....
004055B0 62 9A D0 FF 50 91 5F 65 2A 3D 90 CE FF C5 07 8E b...P._e*=......
004055C0 00 B1 F0 12 41 97 DC 25 FF 03 EC 93 B8 D7 F7 7C ....A..%.......|
004055D0 CA AF 66 00 10 DF 4F C4 A0 E7 C2 00 69 6B 00 C2 ..f...O.....ik..
004055E0 FE 30 13 C9 12 B3 00 82 8B 6D FF FF 2D 13 42 69 .0.......m..-.Bi
004055F0 00 EB 27 BC 1A DF D4 48 00 6A 6C 56 C2 AD 00 59 ..'....H.jlV...Y
00405600 48 08 D9 05 31 87 30 0D 3B D3 E3 1A 8C C9 FC 00 H...1.0.;.......
00405610 16 6C 03 00 7B 20 8E 50 C5 F7 A5 A1 FF 6E 5C E9 .l..{ .P.....n\.
00405620 97 3E 57 E4 20 7B 00 06 2F 52 9E FC FF 8B D9 FF .>W. {../R......
00405630 ED FF 60 33 D5 0C 7E CA 63 FF AE E8 E9 17 21 24 ..`3..~.c.....!$
00405640 50 38 00 7F B4 EF C7 00 6B 9B 71 A5 10 FD A7 36 P8......k.q....6
00405650 BD 4B 4C 69 64 4D AA 6C A0 00 F4 5C 37 10 67 F6 .KLidM.l...\7.g.
00405660 7A 6A 01 00 21 DD C3 DF 00 DF 4A F1 9B 6F 5B 00 zj..!.....J..o[.
00405670 FE CD A1 6C BB 50 FF DA 09 C6 C0 AD E8 75 BE 31 ...l.P.......u.1
00405680 EF FC 62 F0 12 4E EF E0 97 DF 4E 93 E2 31 EC 83 ..b..N....N..1..
00405690 8B FF A3 85 CF 08 FF FF EB 11 CF E9 EE 52 6D 00 .............Rm.
004056A0 4A 70 9F 80 02 B6 0A 55 C4 8D 61 76 00 39 45 F0 Jp.....U..av.9E.
004056B0 62 00 EF 00 A1 FF 00 24 58 FE 73 46 C1 43 00 FF b......$X.sF.C..
004056C0 D9 10 DC 2C 34 FF 00 86 DD 00 A1 1A DE FD 7F 8D ...,4...........
004056D0 53 26 40 28 00 39 79 A1 F0 8F A6 47 AB BE 2A 00 S&@(.9y....G..*.
004056E0 30 7F B4 8A CC 44 72 81 8A 00 37 24 0A 00 9F 02 0....Dr...7$....
004056F0 BE 00 BD 53 8E 13 20 72 22 70 9B B8 BF 81 EB 88 ...S.. r"p......
00405700 00 98 9E 81 E8 55 89 69 0F CE 6E 78 B1 D0 38 DB .....U.i..nx..8.
00405710 00 39 1D DF 2E AF 16 1C F0 CD 8E E4 09 B5 D2 15 .9..............
00405720 8C 4B 78 F1 98 FA C4 90 B4 00 D3 00 FF 00 A9 BA .Kx.............
00405730 98 83 84 00 12 50 0C DF B5 E9 00 6A 94 00 8D 46 .....P.....j...F
00405740 00 90 76 FF DE 00 05 06 C2 0F 6F 01 81 1E 2F E4 ..v.......o.../.
00405750 4F 83 FF DE 7A 00 5B 00 BB 78 00 62 FF 13 8E C9 O...z.[..x.b....
00405760 F4 28 CA 13 F4 4F 7F 66 00 88 29 EB 7D 00 99 D3 .(...O.f..).}...
00405770 07 AC 00 00 D1 39 36 D7 FF 5B D2 FF 00 60 48 6C .....96..[...`Hl
00405780 D7 08 D9 FF 00 93 6D 76 5A 87 06 EB FA 2D E8 8C ......mvZ....-..
00405790 5F 6D FF 61 1F 50 43 73 D0 00 00 3C 29 00 E6 00 _m.a.PCs...<)...
004057A0 FF 68 A9 CD 00 E0 5E 00 00 F9 B0 C1 3E 04 FD 3B .h....^.....>..;
004057B0 0B 1C 00 45 7D 00 00 DD 00 CC 3F 2C 4A F2 4F BA ...E}.....?,J.O.
004057C0 78 7E 58 00 99 00 6E BB 00 00 71 9D 91 96 3D 3A x~X...n...q...=:
004057D0 FD CC 00 50 B0 A8 CB B3 1F D9 7E 4F 8F 00 D5 50 ...P......~O...P
004057E0 17 E2 53 98 15 38 04 00 3F D4 17 C4 4B F0 FF 9E ..S..8..?...K...
004057F0 50 1E 09 00 A2 B6 71 AE 00 CF 00 C1 0C 9B 98 5B P.....q........[
00405800 FA 00 00 6F 30 86 3C 00 43 00 2B 83 DB FF E3 31 ...o0.<.C.+....1
00405810 00 2B 69 D1 F7 DF 93 CA 1E 5B 28 31 42 86 24 7C .+i......[(1B.$|
00405820 E6 00 72 BE F3 0F FF 00 0E AD F7 D9 2C C0 15 4E ..r.........,..N
00405830 DA A6 72 3F B0 00 52 00 00 F9 F2 23 24 BC 82 14 ..r?..R....#$...
00405840 FF F9 00 1C 06 7C BF C8 00 08 36 00 F3 67 2C 4B .....|....6..g,K
00405850 17 00 E4 00 FD FF B0 0E 07 5A C4 66 73 00 00 77 .........Z.fs..w
00405860 28 00 89 FF 8A 79 E7 0A F0 5B 00 00 9F 5B E4 AA (....y...[...[..
00405870 1B 06 18 D5 00 63 DC 2A 00 00 FF 8A E6 00 BB 62 .....c.*.......b
00405880 C4 00 D8 51 3E DF 04 CA AB 8F F4 56 B1 4C 1C 3E ...Q>......V.L.>
00405890 58 ED AF 87 01 8B DF 81 00 13 00 55 1D 4E 00 3B X..........U.N.;
004058A0 05 78 A4 1A 13 00 80 00 E7 2C 96 00 1E 70 A6 26 .x.......,...p.&
004058B0 95 61 0D 00 FC 4B 50 05 32 4B 2C E1 41 63 00 41 .a...KP.2K,.Ac.A
004058C0 1B 00 4D C6 5E BB FA 1F 8E 05 B4 30 EA A3 05 CC ..M.^......0....
004058D0 8B C7 A9 66 40 31 35 66 F5 84 6A 00 61 00 4D 00 ...f@15f..j.a.M.
004058E0 3E A0 BB A4 00 BF F6 5A 18 FB 81 22 2D 00 1E 00 >......Z..."-...
004058F0 4E 5E ED 01 73 00 00 03 94 00 AD 38 78 6C E5 F7 N^..s......8xl..
00405900 FF FF 31 00 1E 08 B9 B5 A0 0A 1C 00 00 36 A6 B3 ..1..........6..
00405910 4F 97 B3 D8 00 C1 00 00 FF 83 65 FF DF C6 1B E3 O.........e.....
00405920 A9 C0 21 01 00 34 C9 FF 00 C2 7E 01 68 FF FF 7B ..!..4....~.h..{
00405930 6F 00 C7 C5 4C 00 00 F0 00 95 E7 00 2E A7 78 F1 o...L.........x.
00405940 FF FF 5A 00 4D FF 21 FF 2A 6B 96 A3 FB 97 FF 70 ..Z.M.!.*k.....p
00405950 24 85 82 6E 1F 97 0A F2 D4 75 2E 46 BF C9 32 00 $..n.....u.F..2.
00405960 30 15 DF EA FE 5F 46 6D FB 46 60 73 34 41 CA 8B 0...._Fm.F`s4A..
00405970 46 B2 FF 27 2F 80 37 FF E5 03 6F 25 21 00 00 7E F..'/.7...o%!..~
00405980 A9 B4 3F DE 96 EB 00 32 7D F2 00 94 12 F4 FD 6A ..?....2}......j
00405990 00 73 34 CD 00 9B 9F 74 E0 B6 E2 2F FF 50 80 17 .s4....t.../.P..
004059A0 71 00 00 00 14 95 00 00 B1 34 0C F2 57 ED 17 CC q........4..W...
004059B0 17 F3 3E EB 41 00 6D F8 BD B4 FF 00 2B 0C FF 55 ..>.A.m.....+..U
004059C0 00 4A F0 00 94 5C 23 FF 00 FF 3C 7D 72 00 E8 EF .J...\#...<}r...
004059D0 07 F3 89 CF E2 00 5A 68 E7 E3 CB 13 00 CE 50 35 ......Zh......P5
004059E0 FF 66 FF 59 E0 3A C3 15 00 60 44 BD A1 C9 30 B2 .f.Y.:...`D...0.
004059F0 10 49 F7 0D FF ED E5 EF 70 FF 0A FF CF 27 16 15 .I......p....'..
00405A00 10 45 8E 00 00 00 0D 7B 26 73 00 31 C8 99 58 55 .E.....{&s.1..XU
00405A10 7B 87 FF 77 36 ED 3C 13 83 3E 00 93 FF 30 00 0D {..w6.<..>...0..
00405A20 C2 0F 9F F2 93 C3 08 06 E0 E8 79 E1 2F 3B 1E EF ..........y./;..
00405A30 E4 C4 34 A9 E7 C0 53 69 C9 02 55 5B 76 DD 07 0D ..4...Si..U[v...
00405A40 D8 1F 0D 02 A9 8B AB 4E 1F A3 E0 FC BA B8 8D 3B .......N.......;
00405A50 00 77 09 FF 84 F1 AF 03 FF C7 99 73 26 1B 44 E9 .w.........s&.D.
00405A60 74 1F F9 4C A6 8B 00 15 00 A1 E5 48 97 C4 B0 00 t..L.......H....
00405A70 F0 4E 07 F7 F2 B1 D2 00 86 03 F2 3F 00 84 69 FF .N.........?..i.
00405A80 FA 78 10 00 00 FF A8 36 11 C1 C1 09 4A 83 00 00 .x.....6....J...
00405A90 A5 00 7F E1 23 76 57 81 05 FF 2E 11 41 18 A2 1F ....#vW.....A...
00405AA0 82 EE 1E 29 00 FB 41 DD C7 8C 9F B8 04 61 A1 7A ...)..A......a.z
00405AB0 34 00 38 28 45 C0 DE 16 20 72 9E AB C5 00 20 DB 4.8(E... r.... .
00405AC0 C7 4D 00 0C 00 FF 8F 8B 34 EA F9 81 1F 71 C9 39 .M......4....q.9
00405AD0 FF 83 6C 09 E7 41 B5 05 BD 1C 00 04 F3 13 B6 E4 ..l..A..........
00405AE0 28 11 81 BF DA 5C 96 CF 1C AA D9 C7 8D 18 00 8D (....\..........
00405AF0 EC E3 A9 B3 1D 05 E3 00 10 B8 43 3E 56 7A CD CB ..........C>Vz..
00405B00 59 F0 90 12 2C 00 50 F4 E5 EA 31 B3 9C 00 80 0E Y...,.P...1.....
00405B10 7C 33 00 0C 27 5C 2E FF 91 B4 25 05 CD 00 53 19 |3..'\....%...S.
00405B20 6A B5 44 ED 18 56 EC 26 17 43 3D 05 82 62 D2 33 j.D..V.&.C=..b.3
00405B30 7E B3 F7 E5 FD C3 00 A6 58 04 20 9D 00 88 00 E6 ~.......X. .....
00405B40 FA FF EA 76 93 3D 29 00 11 CE 00 A6 E8 3C 30 86 ...v.=)......<0.
00405B50 40 82 01 B7 80 A1 0A E8 05 E9 00 00 08 E9 C5 29 @..............)
00405B60 00 C4 FF F2 82 7F 1A C1 8E 90 00 83 FE C6 FF 77 ...............w
00405B70 F0 40 FB 83 B2 E0 26 FF 7D B2 31 17 F6 7B 34 DF .@....&.}.1..{4.
00405B80 2F EC B8 96 67 00 38 36 23 AB 1D 7F F0 CD 57 B3 /...g.86#.....W.
00405B90 10 15 00 B9 59 D5 9C FF A1 66 EE 10 BA 64 04 F8 ....Y....f...d..
00405BA0 2C 44 00 AF CA 6C 00 83 D9 4D F6 ED 72 F6 00 45 ,D...l...M..r..E
00405BB0 FF 00 F8 8F C0 3C 00 09 F4 00 90 04 00 FE B7 00 .....<..........
00405BC0 2A 9F 37 91 72 69 5D 02 F9 42 76 64 48 05 00 82 *.7.ri]..BvdH...
00405BD0 00 68 1D D7 CE D7 3E E9 98 C1 8C 00 FF 84 FF B3 .h....>.........
00405BE0 7C 22 E0 ED 6A 00 EA 94 FC 6C 02 94 00 45 72 96 |"..j....l...Er.
00405BF0 00 44 05 BF 41 61 B2 A0 00 10 7C DD 00 00 26 7C .D..Aa....|...&|
00405C00 1F 00 00 06 83 BE 4C 11 EB F8 78 10 0F 41 8C 00 ......L...x..A..
00405C10 74 10 EF E9 D7 00 00 76 2F B0 93 7B 3F 0F AC 58 t......v/..{?..X
00405C20 94 00 43 A1 E0 84 00 D0 20 00 A3 D7 56 00 48 4B ..C..... ...V.HK
00405C30 C3 89 A3 2F 46 2D EA 14 44 9F 1E EC FF 82 33 5B .../F-..D.....3[
00405C40 BC FF 0D 33 3B 05 6B E3 31 50 2D 88 4C 8E 62 A3 ...3;.k.1P-.L.b.
00405C50 D5 1E 07 FD 4C EA 98 00 04 9C 57 00 29 81 FF B2 ....L.....W.)...
00405C60 B3 00 2A 21 C4 00 2F 20 B2 FF B0 AB 7F DF BD 0C ..*!../ ........
00405C70 26 FF 2B A8 A9 00 FF 5E 87 A0 7C 81 6F FC 78 92 &.+....^..|.o.x.
00405C80 F6 72 7B 00 00 CA 00 8A B9 73 40 BA BE F6 3A B1 .r{......s@...:.
00405C90 4E E1 2C 84 FC F6 91 80 00 14 33 22 02 58 67 05 N.,.......3".Xg.
00405CA0 52 67 AF 2B 98 84 95 4C 16 BE 00 52 00 4F B5 44 Rg.+...L...R.O.D
00405CB0 9E 00 00 72 3F 75 A0 AC 2C 73 E3 E9 77 91 D3 DC ...r?u..,s..w...
00405CC0 00 FF FF B6 E1 3F 42 EB 00 FF BB 21 AF 73 A7 7C .....?B....!.s.|
00405CD0 11 00 3D D2 14 E4 6B 7F 0D 00 59 D5 00 00 35 98 ..=...k...Y...5.
00405CE0 99 9B 81 00 F7 6E D3 E8 1A 00 00 28 28 47 FF 37 .....n.....((G.7
00405CF0 AF 10 27 FE 00 69 D1 B1 C0 C9 CF FF A3 81 34 97 ..'..i........4.
00405D00 9A A5 69 81 83 27 00 AB 46 35 83 7C 00 42 3F 13 ..i..'..F5.|.B?.
00405D10 D8 BD 44 07 EE 3F 30 43 4E FF D8 45 CD FF 18 00 ..D..?0CN..E....
00405D20 D7 00 2B EB BB F1 89 11 F1 B8 DA FF 1C C9 E2 00 ..+.............
00405D30 81 0E 27 3B 17 22 A4 74 C8 CC DD 00 00 00 DD 3F ..';.".t.......?
00405D40 61 6C 04 D5 C1 FF 00 56 C5 EC 1E 9A 76 95 00 84 al.....V....v...
00405D50 8E 68 A1 D2 2E 93 AF FE FF 31 1B FF 55 F7 19 00 .h.......1..U...
00405D60 00 61 D1 00 30 AE F8 8A EF FF 29 78 1C 70 82 00 .a..0.....)x.p..
00405D70 0C 20 EF F7 16 43 0D 7D 48 30 A5 30 04 6C 9C CF . ...C.}H0.0.l..
00405D80 BD 09 DF 00 89 CB 22 0F 00 00 00 51 44 B0 09 00 ......"....QD...
00405D90 63 3E F8 11 3A 8C 7B 7C E6 9C 27 3E AA 00 39 D3 c>..:.{|..'>..9.
00405DA0 86 71 E4 2D 74 E2 02 B7 48 B9 BE 55 98 C0 9C DB .q.-t...H..U....
00405DB0 00 01 C9 B2 77 7F 53 00 54 CF 12 C2 08 28 39 47 ....w.S.T....(9G
00405DC0 5D 30 00 46 00 30 1D F9 66 00 21 00 13 4E 5B 6E ]0.F.0..f.!..N[n
00405DD0 7C DD 00 0F 65 F2 00 63 2A 00 DC 38 59 55 26 41 |...e..c*..8YU&A
00405DE0 B3 FC 73 06 9A 72 00 D3 6B 64 1F F7 0E D9 10 63 ..s..r..kd.....c
00405DF0 5E FF 67 9C 83 C8 8E FF 00 8A 1F C8 11 C0 20 6B ^.g........... k
00405E00 00 16 03 AD F3 8D 00 D4 86 FF F7 00 C5 A4 11 3B ...............;
00405E10 00 00 00 D5 00 14 E1 C1 F0 B0 00 A0 86 FF 0E 16 ................
00405E20 6E 6D 63 28 81 7E 12 12 00 05 D0 9B 40 59 8D 93 nmc(.~......@Y..
00405E30 83 28 2A 30 00 4D 83 0E 00 45 35 1B DB 60 FF B2 .(*0.M...E5..`..
00405E40 B3 8E 00 C5 C8 B3 FF D5 00 00 1A 7F 15 E0 00 5E ...............^
00405E50 FA FB 00 D1 30 0C F8 AF A6 8F C6 00 E9 00 00 82 ....0...........
00405E60 35 9E 3C 31 91 FF 84 43 59 00 DE E6 79 47 A4 D6 5.<1...CY...yG..
00405E70 CB A9 00 63 00 82 00 24 00 3B 9A 60 42 8A 00 20 ...c...$.;.`B.. 
00405E80 78 01 E0 CE E5 00 28 00 00 FD 87 36 AF F2 E6 02 x.....(....6....
00405E90 FE D2 F3 07 EA 00 10 96 E2 D1 57 56 27 45 89 00 ..........WV'E..
00405EA0 08 6D BB 4B BB 61 BF 86 13 9A A5 DB 00 A0 00 10 .m.K.a..........
00405EB0 B3 5B 3B 00 08 25 CA 80 F8 FF E8 6A 18 CF 00 00 .[;..%.....j....
00405EC0 CF 7A 27 54 E0 C1 20 00 11 2C 0B 00 8F 01 37 20 .z'T.. ..,....7 
00405ED0 7C 9C 42 68 FC BE 63 0B 64 9F 00 03 00 89 0F 16 |.Bh..c.d.......
00405EE0 18 8A 7B 40 BE 00 CA F8 9F 00 A5 4B FA FF 00 78 ..{@.......K...x
00405EF0 64 74 00 41 08 FF BF 59 8C CF CD EB 02 8E F6 77 dt.A...Y.......w
00405F00 1C 4E 5C 1C 74 6D 22 31 80 7D 00 3C BD 62 27 D8 .N\.tm"1.}.<.b'.
00405F10 47 51 00 15 00 2D 1F AB AC 84 CC 7C D6 6D FE 17 GQ...-.....|.m..
00405F20 E8 77 52 00 00 A0 72 00 7F 50 12 9D C9 84 07 58 .wR...r..P.....X
00405F30 00 00 E5 22 C1 60 4D 08 31 02 A8 FF F1 03 50 EB ...".`M.1.....P.
00405F40 00 86 23 FA 40 15 B8 E1 1C 0C 25 00 B0 9B 7D 0C ..#.@.....%...}.
00405F50 46 87 35 00 00 FB 61 40 1D FD 06 00 C6 70 B4 FD F.5...a@.....p..
00405F60 B7 BF 85 FF 39 3C 78 DB 3B E0 C3 82 FF 8E 62 08 ....9<x.;.....b.
00405F70 1E C6 17 0A 00 02 09 B4 48 07 00 00 E6 00 5F 1B ........H....._.
00405F80 2D 35 84 8E 1B 07 00 65 EC 00 00 30 FF D1 7C 92 -5.....e...0..|.
00405F90 C8 7E DD 54 7E DD D2 49 3E 00 FB 62 00 03 10 D9 .~.T~..I>..b....
00405FA0 20 D4 22 D7 2C CF 15 A7 8B 9A B4 00 00 67 DB FF  .".,........g..
00405FB0 26 B1 67 00 99 79 00 C5 B7 35 BD FF 60 B5 1F 17 &.g..y...5..`...
00405FC0 03 4A AA E6 00 D1 60 7E 57 00 05 98 22 7B 8F 2E .J....`~W..."{..
00405FD0 E8 36 16 72 EB E1 83 32 06 B0 00 8B D0 E4 34 9E .6.r...2......4.
00405FE0 00 11 EE D2 E0 A7 7E EF 00 D5 09 64 79 C7 E0 3C ......~....dy..<
00405FF0 7C 42 4B 13 9A 57 BD 29 AF 1B 31 D6 F1 00 B6 D2 |BK..W.)..1.....
00406000 00 0D 05 90 62 1D D9 00 F0 CA 1C 00 1D 2E 86 00 ....b...........
00406010 0B 3B 33 5A 26 D9 14 B1 B0 76 00 7C 40 13 54 DB .;3Z&....v.|@.T.
00406020 70 4C 28 00 F7 92 E6 6A F7 8E 84 61 C2 00 F3 F9 pL(....j...a....
00406030 5C 99 2A 17 00 91 58 E2 EA BE 42 36 00 C9 18 14 \.*...X...B6....
00406040 0B 35 16 BC 38 23 21 C5 66 91 14 5A 91 63 AE 00 .5..8#!.f..Z.c..
00406050 00 FF CA 36 FF 69 1C 0C ED 91 00 52 52 0C A2 B7 ...6.i.....RR...
00406060 D3 02 00 16 E1 00 41 00 00 F0 00 C4 7A 98 8F 00 ......A.....z...
00406070 03 E8 27 E9 4D 00 6E 4A B5 11 00 3E DE D8 45 B0 ..'.M.nJ...>..E.
00406080 69 06 C5 D7 58 78 45 F4 2E 63 B2 00 53 9B 00 92 i...XxE..c..S...
00406090 31 C7 3F 61 50 D2 B5 63 00 00 7E 1C 80 6F 1C 09 1.?aP..c..~..o..
004060A0 36 42 00 00 F4 0A FF 7B 50 FF 2F 7B C4 0F AC FB 6B.....{P./{....
004060B0 3C 0C C4 00 5A 2E 4A 49 40 00 32 38 C0 58 05 EF <...Z.JI@.28.X..
004060C0 A2 C6 FF E8 00 66 9B 00 E2 00 4A 30 00 F7 C9 9A .....f....J0....
004060D0 81 22 BE A5 00 5E 7C 00 E0 FF D2 C4 E8 00 FF FA ."...^|.........
004060E0 77 D6 A0 52 2B E5 39 F2 25 26 00 31 FE 2E B7 C9 w..R+.9.%&.1....
004060F0 EE FF 8D 0C 11 66 00 FF C9 8B 5E FF 2D A0 31 C7 .....f....^.-.1.
00406100 89 FF 00 F4 FF 26 00 B8 28 AC 18 E1 7C 31 00 A8 .....&..(...|1..
00406110 3C 38 82 61 1D 5C 18 FB E5 06 7C 24 86 30 79 36 <8.a.\....|$.0y6
00406120 36 27 83 FF 85 00 49 FC 08 27 90 3E 1F 5C 22 38 6'....I..'.>.\"8
00406130 ED 80 9A 00 C2 72 2D 80 D9 4B 05 85 C3 BA 8D 7E .....r-..K.....~
00406140 83 00 50 C0 00 3F BF 67 00 58 80 60 00 FF 87 2C ..P..?.g.X.`...,
00406150 1E 07 A7 7F 17 24 76 0C 50 98 9B FF 3B D3 00 00 .....$v.P...;...
00406160 77 00 00 61 FD 82 E0 6C 2B EB BF 66 0C A0 C1 10 w..a...l+..f....
00406170 08 64 00 00 00 C6 00 FC 00 95 46 10 13 8C 61 33 .d........F...a3
00406180 11 CC 00 AF 8B 00 F9 2D 5A FF 87 3E 39 FB 9B A1 .......-Z..>9...
00406190 00 CE 00 68 00 28 0B 80 A0 62 ED 88 D6 74 7A 06 ...h.(...b...tz.
004061A0 C9 75 77 DE 00 00 D3 53 19 00 02 00 13 81 5D 00 .uw....S......].
004061B0 FC BF 5A 07 02 76 FF 93 00 1B 01 01 F8 5A C1 5E ..Z..v.......Z.^
004061C0 DB F7 C7 FA 75 AB 40 13 46 C5 6B AE 64 16 00 22 ....u.@.F.k.d.."
004061D0 7C 91 45 F0 07 43 32 C0 26 4B 5F 65 15 66 EC 93 |.E..C2.&K_e.f..
004061E0 9F 24 81 B8 FF F6 CD 3D 80 AC 01 3D 0A 00 00 A3 .$.....=...=....
004061F0 57 77 00 93 D8 40 6A 00 FE 30 B9 17 FF 00 7F 00 Ww...@j..0......
00406200 E4 25 54 AC B2 D4 2B 94 B4 28 00 B7 EB F0 F6 65 .%T...+..(.....e
00406210 09 6C 05 C4 00 C5 00 56 63 E9 00 91 FF 00 9F 2A .l.....Vc......*
00406220 0F F3 00 00 EB 51 5A 00 E2 FF A6 AE D3 FF 1F 74 .....QZ........t
00406230 73 97 3D 00 CC 05 C8 36 C8 C4 00 00 FF 13 C7 B0 s.=....6........
00406240 EE 10 15 1C 00 BF 1F 81 00 00 7D F3 69 38 1A AC ..........}.i8..
00406250 75 FA 45 6F 00 63 10 D1 C1 47 FF 00 CE 9D 00 F7 u.Eo.c...G......
00406260 98 14 07 22 FF 6E 9E 00 E5 4C 24 5F 08 14 00 BB ...".n...L$_....
00406270 1E B9 01 FF EF 5C 9F B4 8A 62 BB 8F 80 FF D3 17 .....\...b......
00406280 FF 8F 00 3D E3 4E FF 30 00 47 21 00 04 CC FF 68 ...=.N.0.G!....h
00406290 11 00 00 7B E9 34 00 55 FF 68 30 00 C1 84 E7 38 ...{.4.U.h0....8
004062A0 19 6E 19 32 9F 9C C8 D8 10 00 CE 00 E6 A6 E7 00 .n.2............
004062B0 65 E7 12 C3 08 86 A8 FD 20 40 95 1B 00 F1 56 00 e....... @....V.
004062C0 FF 00 2C 30 00 C1 2D 00 3C 17 20 8C FF 8A 4D 69 ..,0..-.<. ...Mi
004062D0 86 8D EB 62 F0 31 9F 86 BF 00 21 65 5A B6 00 F8 ...b.1....!eZ...
004062E0 6C 38 26 45 CA 03 93 13 B7 99 8A 44 16 97 10 93 l8&E.......D....
004062F0 0F 24 2C FA 00 B8 16 EA D5 87 B4 7F BB 00 00 01 .$,.............
00406300 27 AB 6B 29 A5 52 50 AA 6E 00 95 25 E8 91 50 FF '.k).RP.n..%..P.
00406310 00 04 B0 A7 B3 F3 70 00 00 00 F0 B7 7A 76 00 49 ......p.....zv.I
00406320 20 5C D3 96 42 D9 E6 57 53 9D 08 C0 65 00 47 FF  \..B..WS...e.G.
00406330 AB BB A4 00 00 99 FF 4F 4D D2 35 6B 0B 0C 9F C2 .......OM.5k....
00406340 9B 22 24 73 39 41 E4 66 90 54 9B 2C FF 34 4F 00 ."$s9A.f.T.,.4O.
00406350 E6 7A E7 59 8A 46 78 FF 00 F0 54 C1 1A 00 3D DB .z.Y.Fx...T...=.
00406360 11 00 00 E3 80 03 A8 49 D1 5E 72 27 13 25 DF 0D .......I.^r'.%..
00406370 F6 EC 6F CB 08 2D 00 00 C9 6A 32 00 34 D5 00 FF ..o..-...j2.4...
00406380 C1 08 16 B0 3F 00 77 00 DE 91 88 0B A1 79 68 94 ....?.w......yh.
00406390 11 A5 8F A5 2D BE BF F1 D7 23 0C 47 00 1F 33 EA ....-....#.G..3.
004063A0 C6 B8 7A F9 1F E3 88 32 B9 30 00 7F 75 5E F2 67 ..z....2.0..u^.g
004063B0 DB 16 8C D3 C7 74 84 54 58 D5 5D CC F6 9E 9D 00 .....t.TX.].....
004063C0 FF 8D 00 B1 E3 87 C5 C3 EA 39 1C 00 11 56 95 5A .........9...V.Z
004063D0 80 D5 1E A4 00 01 BF 7A FB 1E 59 FF 00 20 7E FF .......z..Y.. ~.
004063E0 F4 00 36 67 03 15 89 87 0A 32 4D 46 00 F1 04 AE ..6g.....2MF....
004063F0 FF 00 00 A9 40 F4 72 81 00 4E DE E1 0F 00 00 FF ....@.r..N......
00406400 19 00 D0 00 C6 A3 B9 DF 88 42 F6 10 AC F9 C6 09 .........B......
00406410 00 A8 00 FF E3 CC 0F 9D 8F 25 34 F1 35 20 2A 00 .........%4.5 *.
00406420 00 CF 6F A6 27 00 00 A5 CE F5 C8 58 6B 00 89 00 ..o.'......Xk...
00406430 84 AB 27 00 0B F2 F3 E6 00 EB 40 00 41 FF 00 24 ..'.......@.A..$
00406440 3A 8E D5 D1 C0 1B 00 33 1B 2B A5 C6 F2 36 34 0B :......3.+...64.
00406450 9D 42 67 7E F4 03 FF FF 00 4B B5 F6 A8 9F A4 B7 .Bg~.....K......
00406460 00 CD 4C 8E 03 50 FF 00 E5 8F 2B 00 DF E7 DB 50 ..L..P....+....P
00406470 FF AA 9C 31 00 00 EC FF AA F1 E2 65 E1 43 00 97 ...1.......e.C..
00406480 D5 D7 44 00 89 FF 00 1E 58 82 02 7A C2 E7 FF 04 ..D.....X..z....
00406490 2C 52 B1 66 52 87 BE 06 19 F7 25 64 10 28 39 42 ,R.fR.....%d.(9B
004064A0 7A 02 FF 00 01 AC 00 69 FF 5B 50 23 D3 1D A0 DB z......i.[P#....
004064B0 3C 00 E1 61 2D 00 9F 13 7A 1C 57 E0 00 76 F5 AE <..a-...z.W..v..
004064C0 74 D9 94 C5 00 93 A3 D0 89 00 70 80 48 0F 03 27 t.........p.H..'
004064D0 BB 18 00 02 00 6E C4 C6 41 B2 47 53 38 03 66 98 .....n..A.GS8.f.
004064E0 00 78 64 D1 D3 B8 A1 78 41 95 F3 DC 30 FE 45 68 .xd....xA...0.Eh
004064F0 EB E6 6A A8 57 E1 26 9F FC 7C 7B 3B 4B A8 79 80 ..j.W.&..|{;K.y.
00406500 82 00 51 CE F1 43 A7 09 FF E6 00 08 3E F9 7F 54 ..Q..C......>..T
00406510 75 2B 0B D7 0F 22 FB 1D 72 AB 8B CD BC 3C 30 D6 u+..."..r....<0.
00406520 F4 99 38 5C 03 89 AF 4F 92 A1 D7 45 FD 9F E8 6C ..8\...O...E...l
00406530 80 CF 00 00 00 B9 11 17 F2 DF B9 78 C0 FF D2 49 ...........x...I
00406540 9F 13 00 E7 46 00 44 06 C5 E9 00 CD F4 E4 00 69 ....F.D........i
00406550 4E E3 9B 13 E2 43 ED A4 50 F4 FF 5C 23 51 13 6C N....C..P..\#Q.l
00406560 73 00 8C 52 8A FF 5C 38 FF 98 C2 FF CB 7A F6 6A s..R..\8.....z.j
00406570 D9 8C 4E 77 80 DE 71 AE 72 3D 2E 83 06 82 4B 01 ..Nw..q.r=....K.
00406580 D1 49 BD D8 14 D0 0D 70 5F FF 74 17 63 AA 6D E0 .I.....p_.t.c.m.
00406590 3F FF 00 30 BF 9F 49 3E 3C 9F 00 00 D3 CE A5 00 ?..0..I><.......
004065A0 CD 2E 28 00 00 29 03 D2 7E 15 87 F8 53 FF 21 FF ..(..)..~...S.!.
004065B0 6F C1 0E 03 17 00 69 3F 08 E1 7C 00 39 E2 EB 14 o.....i?..|.9...
004065C0 71 D1 BD FF 00 0A 12 5D 2F 37 07 64 FB 4E B3 E7 q......]/7.d.N..
004065D0 00 5B 19 DA 39 8D B0 2C 3B 6B 0C 3F FF F8 D8 7A .[..9..,;k.?...z
004065E0 D8 C0 1D 45 C7 A9 ED DA 01 08 5C 0C 4E 00 DD 7B ...E......\.N..{
004065F0 61 9C 79 DE F7 00 31 00 FA FF FE FF D8 00 CB E5 a.y...1.........
00406600 00 00 00 00 00 00 00 00 00 00 00 00 00 00 00 00 ................
00406610 00 00 00 00 00 00 00 00 00 00 00 00 00 00 00 00 ................
00406620 00 00 00 00 00 00 00 00 00 00 00 00 00 00 00 00 ................
00406630 00 00 00 00 00 00 00 00 00 00 00 00 00 00 00 00 ................
00406640 00 00 00 00 00 00 00 00 00 00 00 00 00 00 00 00 ................
00406650 00 00 00 00 00 00 00 00 00 00 00 00 00 00 00 00 ................
00406660 00 00 00 00 00 00 00 00 00 00 00 00 00 00 00 00 ................
00406670 00 00 00 00 00 00 00 00 00 00 00 00 00 00 00 00 ................
00406680 00 00 00 00 00 00 00 00 00 00 00 00 00 00 00 00 ................
00406690 00 00 00 00 00 00 00 00 00 00 00 00 00 00 00 00 ................
004066A0 00 00 00 00 00 00 00 00 00 00 00 00 00 00 00 00 ................
004066B0 00 00 00 00 00 00 00 00 00 00 00 00 00 00 00 00 ................
004066C0 00 00 00 00 00 00 00 00 00 00 00 00 00 00 00 00 ................
004066D0 00 00 00 00 00 00 00 00 00 00 00 00 00 00 00 00 ................
004066E0 00 00 00 00 00 00 00 00 00 00 00 00 00 00 00 00 ................
004066F0 00 00 00 00 00 00 00 00 00 00 00 00 00 00 00 00 ................
00406700 00 00 00 00 00 00 00 00 00 00 00 00 00 00 00 00 ................
00406710 00 00 00 00 00 00 00 00 00 00 00 00 00 00 00 00 ................
00406720 00 00 00 00 00 00 00 00 00 00 00 00 00 00 00 00 ................
00406730 00 00 00 00 00 00 00 00 00 00 00 00 00 00 00 00 ................
00406740 00 00 00 00 00 00 00 00 00 00 00 00 00 00 00 00 ................
00406750 00 00 00 00 00 00 00 00 00 00 00 00 00 00 00 00 ................
00406760 00 00 00 00 00 00 00 00 00 00 00 00 00 00 00 00 ................
00406770 00 00 00 00 00 00 00 00 00 00 00 00 00 00 00 00 ................
00406780 00 00 00 00 00 00 00 00 00 00 00 00 00 00 00 00 ................
00406790 00 00 00 00 00 00 00 00 00 00 00 00 00 00 00 00 ................
004067A0 00 00 00 00 00 00 00 00 00 00 00 00 00 00 00 00 ................
004067B0 00 00 00 00 00 00 00 00 00 00 00 00 00 00 00 00 ................
004067C0 00 00 00 00 00 00 00 00 00 00 00 00 00 00 00 00 ................
004067D0 00 00 00 00 00 00 00 00 00 00 00 00 00 00 00 00 ................
004067E0 00 00 00 00 00 00 00 00 00 00 00 00 00 00 00 00 ................
004067F0 00 00 00 00 00 00 00 00 00 00 00 00 00 00 00 00 ................
00406800 00 00 00 00 00 00 00 00 00 00 00 00 00 00 00 00 ................
00406810 00 00 00 00 00 00 00 00 00 00 00 00 00 00 00 00 ................
00406820 00 00 00 00 00 00 00 00 00 00 00 00 00 00 00 00 ................
00406830 00 00 00 00 00 00 00 00 00 00 00 00 00 00 00 00 ................
00406840 00 00 00 00 00 00 00 00 00 00 00 00 00 00 00 00 ................
00406850 00 00 00 00 00 00 00 00 00 00 00 00 00 00 00 00 ................
00406860 00 00 00 00 00 00 00 00 00 00 00 00 00 00 00 00 ................
00406870 00 00 00 00 00 00 00 00 00 00 00 00 00 00 00 00 ................
00406880 00 00 00 00 00 00 00 00 00 00 00 00 00 00 00 00 ................
00406890 00 00 00 00 00 00 00 00 00 00 00 00 00 00 00 00 ................
004068A0 00 00 00 00 00 00 00 00 00 00 00 00 00 00 00 00 ................
004068B0 00 00 00 00 00 00 00 00 00 00 00 00 00 00 00 00 ................
004068C0 00 00 00 00 00 00 00 00 00 00 00 00 00 00 00 00 ................
004068D0 00 00 00 00 00 00 00 00 00 00 00 00 00 00 00 00 ................
004068E0 00 00 00 00 00 00 00 00 00 00 00 00 00 00 00 00 ................
004068F0 00 00 00 00 00 00 00 00 00 00 00 00 00 00 00 00 ................
00406900 00 00 00 00 00 00 00 00 00 00 00 00 00 00 00 00 ................
00406910 00 00 00 00 00 00 00 00 00 00 00 00 00 00 00 00 ................
00406920 00 00 00 00 00 00 00 00 00 00 00 00 00 00 00 00 ................
00406930 00 00 00 00 00 00 00 00 00 00 00 00 00 00 00 00 ................
00406940 00 00 00 00 00 00 00 00 00 00 00 00 00 00 00 00 ................
00406950 00 00 00 00 00 00 00 00 00 00 00 00 00 00 00 00 ................
00406960 00 00 00 00 00 00 00 00 00 00 00 00 00 00 00 00 ................
00406970 00 00 00 00 00 00 00 00 00 00 00 00 00 00 00 00 ................
00406980 00 00 00 00 00 00 00 00 00 00 00 00 00 00 00 00 ................
00406990 00 00 00 00 00 00 00 00 00 00 00 00 00 00 00 00 ................
004069A0 00 00 00 00 00 00 00 00 00 00 00 00 00 00 00 00 ................
004069B0 00 00 00 00 00 00 00 00 00 00 00 00 00 00 00 00 ................
004069C0 00 00 00 00 00 00 00 00 00 00 00 00 00 00 00 00 ................
004069D0 00 00 00 00 00 00 00 00 00 00 00 00 00 00 00 00 ................
004069E0 00 00 00 00 00 00 00 00 00 00 00 00 00 00 00 00 ................
004069F0 00 00 00 00 00 00 00 00 00 00 00 00 00 00 00 00 ................
00406A00 00 00 00 00 00 00 00 00 00 00 00 00 00 00 00 00 ................
00406A10 00 00 00 00 00 00 00 00 00 00 00 00 00 00 00 00 ................
00406A20 00 00 00 00 00 00 00 00 00 00 00 00 00 00 00 00 ................
00406A30 00 00 00 00 00 00 00 00 00 00 00 00 00 00 00 00 ................
00406A40 00 00 00 00 00 00 00 00 00 00 00 00 00 00 00 00 ................
00406A50 00 00 00 00 00 00 00 00 00 00 00 00 00 00 00 00 ................
00406A60 00 00 00 00 00 00 00 00 00 00 00 00 00 00 00 00 ................
00406A70 00 00 00 00 00 00 00 00 00 00 00 00 00 00 00 00 ................
00406A80 00 00 00 00 00 00 00 00 00 00 00 00 00 00 00 00 ................
00406A90 00 00 00 00 00 00 00 00 00 00 00 00 00 00 00 00 ................
00406AA0 00 00 00 00 00 00 00 00 00 00 00 00 00 00 00 00 ................
00406AB0 00 00 00 00 00 00 00 00 00 00 00 00 00 00 00 00 ................
00406AC0 00 00 00 00 00 00 00 00 00 00 00 00 00 00 00 00 ................
00406AD0 00 00 00 00 00 00 00 00 00 00 00 00 00 00 00 00 ................
00406AE0 00 00 00 00 00 00 00 00 00 00 00 00 00 00 00 00 ................
00406AF0 00 00 00 00 00 00 00 00 00 00 00 00 00 00 00 00 ................
00406B00 00 00 00 00 00 00 00 00 00 00 00 00 00 00 00 00 ................
00406B10 00 00 00 00 00 00 00 00 00 00 00 00 00 00 00 00 ................
00406B20 00 00 00 00 00 00 00 00 00 00 00 00 00 00 00 00 ................
00406B30 00 00 00 00 00 00 00 00 00 00 00 00 00 00 00 00 ................
00406B40 00 00 00 00 00 00 00 00 00 00 00 00 00 00 00 00 ................
00406B50 00 00 00 00 00 00 00 00 00 00 00 00 00 00 00 00 ................
00406B60 00 00 00 00 00 00 00 00 00 00 00 00 00 00 00 00 ................
00406B70 00 00 00 00 00 00 00 00 00 00 00 00 00 00 00 00 ................
00406B80 00 00 00 00 00 00 00 00 00 00 00 00 00 00 00 00 ................
00406B90 00 00 00 00 00 00 00 00 00 00 00 00 00 00 00 00 ................
00406BA0 00 00 00 00 00 00 00 00 00 00 00 00 00 00 00 00 ................
00406BB0 00 00 00 00 00 00 00 00 00 00 00 00 00 00 00 00 ................
00406BC0 00 00 00 00 00 00 00 00 00 00 00 00 00 00 00 00 ................
00406BD0 00 00 00 00 00 00 00 00 00 00 00 00 00 00 00 00 ................
00406BE0 00 00 00 00 00 00 00 00 00 00 00 00 00 00 00 00 ................
00406BF0 00 00 00 00 00 00 00 00 00 00 00 00 00 00 00 00 ................
00406C00 00 00 00 00 00 00 00 00 00 00 00 00 00 00 00 00 ................
00406C10 00 00 00 00 00 00 00 00 00 00 00 00 00 00 00 00 ................
00406C20 00 00 00 00 00 00 00 00 00 00 00 00 00 00 00 00 ................
00406C30 00 00 00 00 00 00 00 00 00 00 00 00 00 00 00 00 ................
00406C40 00 00 00 00 00 00 00 00 00 00 00 00 00 00 00 00 ................
00406C50 00 00 00 00 00 00 00 00 00 00 00 00 00 00 00 00 ................
00406C60 00 00 00 00 00 00 00 00 00 00 00 00 00 00 00 00 ................
00406C70 00 00 00 00 00 00 00 00 00 00 00 00 00 00 00 00 ................
00406C80 00 00 00 00 00 00 00 00 00 00 00 00 00 00 00 00 ................
00406C90 00 00 00 00 00 00 00 00 00 00 00 00 00 00 00 00 ................
00406CA0 00 00 00 00 00 00 00 00 00 00 00 00 00 00 00 00 ................
00406CB0 00 00 00 00 00 00 00 00 00 00 00 00 00 00 00 00 ................
00406CC0 00 00 00 00 00 00 00 00 00 00 00 00 00 00 00 00 ................
00406CD0 00 00 00 00 00 00 00 00 00 00 00 00 00 00 00 00 ................
00406CE0 00 00 00 00 00 00 00 00 00 00 00 00 00 00 00 00 ................
00406CF0 00 00 00 00 00 00 00 00 00 00 00 00 00 00 00 00 ................
00406D00 00 00 00 00 00 00 00 00 00 00 00 00 00 00 00 00 ................
00406D10 00 00 00 00 00 00 00 00 00 00 00 00 00 00 00 00 ................
00406D20 00 00 00 00 00 00 00 00 00 00 00 00 00 00 00 00 ................
00406D30 00 00 00 00 00 00 00 00 00 00 00 00 00 00 00 00 ................
00406D40 00 00 00 00 00 00 00 00 00 00 00 00 00 00 00 00 ................
00406D50 00 00 00 00 00 00 00 00 00 00 00 00 00 00 00 00 ................
00406D60 00 00 00 00 00 00 00 00 00 00 00 00 00 00 00 00 ................
00406D70 00 00 00 00 00 00 00 00 00 00 00 00 00 00 00 00 ................
00406D80 00 00 00 00 00 00 00 00 00 00 00 00 00 00 00 00 ................
00406D90 00 00 00 00 00 00 00 00 00 00 00 00 00 00 00 00 ................
00406DA0 00 00 00 00 00 00 00 00 00 00 00 00 00 00 00 00 ................
00406DB0 00 00 00 00 00 00 00 00 00 00 00 00 00 00 00 00 ................
00406DC0 00 00 00 00 00 00 00 00 00 00 00 00 00 00 00 00 ................
00406DD0 00 00 00 00 00 00 00 00 00 00 00 00 00 00 00 00 ................
00406DE0 00 00 00 00 00 00 00 00 00 00 00 00 00 00 00 00 ................
00406DF0 00 00 00 00 00 00 00 00 00 00 00 00 00 00 00 00 ................
00406E00 00 00 00 00 00 00 00 00 00 00 00 00 00 00 00 00 ................
00406E10 00 00 00 00 00 00 00 00 00 00 00 00 00 00 00 00 ................
00406E20 00 00 00 00 00 00 00 00 00 00 00 00 00 00 00 00 ................
00406E30 00 00 00 00 00 00 00 00 00 00 00 00 00 00 00 00 ................
00406E40 00 00 00 00 00 00 00 00 00 00 00 00 00 00 00 00 ................
00406E50 00 00 00 00 00 00 00 00 00 00 00 00 00 00 00 00 ................
00406E60 00 00 00 00 00 00 00 00 00 00 00 00 00 00 00 00 ................
00406E70 00 00 00 00 00 00 00 00 00 00 00 00 00 00 00 00 ................
00406E80 00 00 00 00 00 00 00 00 00 00 00 00 00 00 00 00 ................
00406E90 00 00 00 00 00 00 00 00 00 00 00 00 00 00 00 00 ................
00406EA0 00 00 00 00 00 00 00 00 00 00 00 00 00 00 00 00 ................
00406EB0 00 00 00 00 00 00 00 00 00 00 00 00 00 00 00 00 ................
00406EC0 00 00 00 00 00 00 00 00 00 00 00 00 00 00 00 00 ................
00406ED0 00 00 00 00 00 00 00 00 00 00 00 00 00 00 00 00 ................
00406EE0 00 00 00 00 00 00 00 00 00 00 00 00 00 00 00 00 ................
00406EF0 00 00 00 00 00 00 00 00 00 00 00 00 00 00 00 00 ................
00406F00 00 00 00 00 00 00 00 00 00 00 00 00 00 00 00 00 ................
00406F10 00 00 00 00 00 00 00 00 00 00 00 00 00 00 00 00 ................
00406F20 00 00 00 00 00 00 00 00 00 00 00 00 00 00 00 00 ................
00406F30 00 00 00 00 00 00 00 00 00 00 00 00 00 00 00 00 ................
00406F40 00 00 00 00 00 00 00 00 00 00 00 00 00 00 00 00 ................
00406F50 00 00 00 00 00 00 00 00 00 00 00 00 00 00 00 00 ................
00406F60 00 00 00 00 00 00 00 00 00 00 00 00 00 00 00 00 ................
00406F70 00 00 00 00 00 00 00 00 00 00 00 00 00 00 00 00 ................
00406F80 00 00 00 00 00 00 00 00 00 00 00 00 00 00 00 00 ................
00406F90 00 00 00 00 00 00 00 00 00 00 00 00 00 00 00 00 ................
00406FA0 00 00 00 00 00 00 00 00 00 00 00 00 00 00 00 00 ................
00406FB0 00 00 00 00 00 00 00 00 00 00 00 00 00 00 00 00 ................
00406FC0 00 00 00 00 00 00 00 00 00 00 00 00 00 00 00 00 ................
00406FD0 00 00 00 00 00 00 00 00 00 00 00 00 00 00 00 00 ................
00406FE0 00 00 00 00 00 00 00 00 00 00 00 00 00 00 00 00 ................
00406FF0 00 00 00 00 00 00 00 00 00 00 00 00 00 00 00 00 ................
00407000 00 00 00 00 00 00 00 00 00 00 00 00 00 00 00 00 ................
00407010 00 00 00 00 00 00 00 00 00 00 00 00 00 00 00 00 ................
00407020 00 00 00 00 00 00 00 00 00 00 00 00 00 00 00 00 ................
00407030 00 00 00 00 00 00 00 00 00 00 00 00 00 00 00 00 ................
00407040 00 00 00 00 00 00 00 00 00 00 00 00 00 00 00 00 ................
00407050 00 00 00 00 00 00 00 00 00 00 00 00 00 00 00 00 ................
00407060 00 00 00 00 00 00 00 00 00 00 00 00 00 00 00 00 ................
00407070 00 00 00 00 00 00 00 00 00 00 00 00 00 00 00 00 ................
00407080 00 00 00 00 00 00 00 00 00 00 00 00 00 00 00 00 ................
00407090 00 00 00 00 00 00 00 00 00 00 00 00 00 00 00 00 ................
004070A0 00 00 00 00 00 00 00 00 00 00 00 00 00 00 00 00 ................
004070B0 00 00 00 00 00 00 00 00 00 00 00 00 00 00 00 00 ................
004070C0 00 00 00 00 00 00 00 00 00 00 00 00 00 00 00 00 ................
004070D0 00 00 00 00 00 00 00 00 00 00 00 00 00 00 00 00 ................
004070E0 00 00 00 00 00 00 00 00 00 00 00 00 00 00 00 00 ................
004070F0 00 00 00 00 00 00 00 00 00 00 00 00 00 00 00 00 ................
00407100 00 00 00 00 00 00 00 00 00 00 00 00 00 00 00 00 ................
00407110 00 00 00 00 00 00 00 00 00 00 00 00 00 00 00 00 ................
00407120 00 00 00 00 00 00 00 00 00 00 00 00 00 00 00 00 ................
00407130 00 00 00 00 00 00 00 00 00 00 00 00 00 00 00 00 ................
00407140 00 00 00 00 00 00 00 00 00 00 00 00 00 00 00 00 ................
00407150 00 00 00 00 00 00 00 00 00 00 00 00 00 00 00 00 ................
00407160 00 00 00 00 00 00 00 00 00 00 00 00 00 00 00 00 ................
00407170 00 00 00 00 00 00 00 00 00 00 00 00 00 00 00 00 ................
00407180 00 00 00 00 00 00 00 00 00 00 00 00 00 00 00 00 ................
00407190 00 00 00 00 00 00 00 00 00 00 00 00 00 00 00 00 ................
004071A0 00 00 00 00 00 00 00 00 00 00 00 00 00 00 00 00 ................
004071B0 00 00 00 00 00 00 00 00 00 00 00 00 00 00 00 00 ................
004071C0 00 00 00 00 00 00 00 00 00 00 00 00 00 00 00 00 ................
004071D0 00 00 00 00 00 00 00 00 00 00 00 00 00 00 00 00 ................
004071E0 00 00 00 00 00 00 00 00 00 00 00 00 00 00 00 00 ................
004071F0 00 00 00 00 00 00 00 00 00 00 00 00 00 00 00 00 ................
00407200 00 00 00 00 00 00 00 00 00 00 00 00 00 00 00 00 ................
00407210 00 00 00 00 00 00 00 00 00 00 00 00 00 00 00 00 ................
00407220 00 00 00 00 00 00 00 00 00 00 00 00 00 00 00 00 ................
00407230 00 00 00 00 00 00 00 00 00 00 00 00 00 00 00 00 ................
00407240 00 00 00 00 00 00 00 00 00 00 00 00 00 00 00 00 ................
00407250 00 00 00 00 00 00 00 00 00 00 00 00 00 00 00 00 ................
00407260 00 00 00 00 00 00 00 00 00 00 00 00 00 00 00 00 ................
00407270 00 00 00 00 00 00 00 00 00 00 00 00 00 00 00 00 ................
00407280 00 00 00 00 00 00 00 00 00 00 00 00 00 00 00 00 ................
00407290 00 00 00 00 00 00 00 00 00 00 00 00 00 00 00 00 ................
004072A0 00 00 00 00 00 00 00 00 00 00 00 00 00 00 00 00 ................
004072B0 00 00 00 00 00 00 00 00 00 00 00 00 00 00 00 00 ................
004072C0 00 00 00 00 00 00 00 00 00 00 00 00 00 00 00 00 ................
004072D0 00 00 00 00 00 00 00 00 00 00 00 00 00 00 00 00 ................
004072E0 00 00 00 00 00 00 00 00 00 00 00 00 00 00 00 00 ................
004072F0 00 00 00 00 00 00 00 00 00 00 00 00 00 00 00 00 ................
00407300 00 00 00 00 00 00 00 00 00 00 00 00 00 00 00 00 ................
00407310 00 00 00 00 00 00 00 00 00 00 00 00 00 00 00 00 ................
00407320 00 00 00 00 00 00 00 00 00 00 00 00 00 00 00 00 ................
00407330 00 00 00 00 00 00 00 00 00 00 00 00 00 00 00 00 ................
00407340 00 00 00 00 00 00 00 00 00 00 00 00 00 00 00 00 ................
00407350 00 00 00 00 00 00 00 00 00 00 00 00 00 00 00 00 ................
00407360 00 00 00 00 00 00 00 00 00 00 00 00 00 00 00 00 ................
00407370 00 00 00 00 00 00 00 00 00 00 00 00 00 00 00 00 ................
00407380 00 00 00 00 00 00 00 00 00 00 00 00 00 00 00 00 ................
00407390 00 00 00 00 00 00 00 00 00 00 00 00 00 00 00 00 ................
004073A0 00 00 00 00 00 00 00 00 00 00 00 00 00 00 00 00 ................
004073B0 00 00 00 00 00 00 00 00 00 00 00 00 00 00 00 00 ................
004073C0 00 00 00 00 00 00 00 00 00 00 00 00 00 00 00 00 ................
004073D0 00 00 00 00 00 00 00 00 00 00 00 00 00 00 00 00 ................
004073E0 00 00 00 00 00 00 00 00 00 00 00 00 00 00 00 00 ................
004073F0 00 00 00 00 00 00 00 00 00 00 00 00 00 00 00 00 ................
00407400 00 00 00 00 00 00 00 00 00 00 00 00 00 00 00 00 ................
00407410 00 00 00 00 00 00 00 00 00 00 00 00 00 00 00 00 ................
00407420 00 00 00 00 00 00 00 00 00 00 00 00 00 00 00 00 ................
00407430 00 00 00 00 00 00 00 00 00 00 00 00 00 00 00 00 ................
00407440 00 00 00 00 00 00 00 00 00 00 00 00 00 00 00 00 ................
00407450 00 00 00 00 00 00 00 00 00 00 00 00 00 00 00 00 ................
00407460 00 00 00 00 00 00 00 00 00 00 00 00 00 00 00 00 ................
00407470 00 00 00 00 00 00 00 00 00 00 00 00 00 00 00 00 ................
00407480 00 00 00 00 00 00 00 00 00 00 00 00 00 00 00 00 ................
00407490 00 00 00 00 00 00 00 00 00 00 00 00 00 00 00 00 ................
004074A0 00 00 00 00 00 00 00 00 00 00 00 00 00 00 00 00 ................
004074B0 00 00 00 00 00 00 00 00 00 00 00 00 00 00 00 00 ................
004074C0 00 00 00 00 00 00 00 00 00 00 00 00 00 00 00 00 ................
004074D0 00 00 00 00 00 00 00 00 00 00 00 00 00 00 00 00 ................
004074E0 00 00 00 00 00 00 00 00 00 00 00 00 00 00 00 00 ................
004074F0 00 00 00 00 00 00 00 00 00 00 00 00 00 00 00 00 ................
00407500 00 00 00 00 00 00 00 00 00 00 00 00 00 00 00 00 ................
00407510 00 00 00 00 00 00 00 00 00 00 00 00 00 00 00 00 ................
00407520 00 00 00 00 00 00 00 00 00 00 00 00 00 00 00 00 ................
00407530 00 00 00 00 00 00 00 00 00 00 00 00 00 00 00 00 ................
00407540 00 00 00 00 00 00 00 00 00 00 00 00 00 00 00 00 ................
00407550 00 00 00 00 00 00 00 00 00 00 00 00 00 00 00 00 ................
00407560 00 00 00 00 00 00 00 00 00 00 00 00 00 00 00 00 ................
00407570 00 00 00 00 00 00 00 00 00 00 00 00 00 00 00 00 ................
00407580 00 00 00 00 00 00 00 00 00 00 00 00 00 00 00 00 ................
00407590 00 00 00 00 00 00 00 00 00 00 00 00 00 00 00 00 ................
004075A0 00 00 00 00 00 00 00 00 00 00 00 00 00 00 00 00 ................
004075B0 00 00 00 00 00 00 00 00 00 00 00 00 00 00 00 00 ................
004075C0 00 00 00 00 00 00 00 00 00 00 00 00 00 00 00 00 ................
004075D0 00 00 00 00 00 00 00 00 00 00 00 00 00 00 00 00 ................
004075E0 00 00 00 00 00 00 00 00 00 00 00 00 00 00 00 00 ................
004075F0 00 00 00 00 00 00 00 00 00 00 00 00 00 00 00 00 ................
00407600 00 00 00 00 00 00 00 00 00 00 00 00 00 00 00 00 ................
00407610 00 00 00 00 00 00 00 00 00 00 00 00 00 00 00 00 ................
00407620 00 00 00 00 00 00 00 00 00 00 00 00 00 00 00 00 ................
00407630 00 00 00 00 00 00 00 00 00 00 00 00 00 00 00 00 ................
00407640 00 00 00 00 00 00 00 00 00 00 00 00 00 00 00 00 ................
00407650 00 00 00 00 00 00 00 00 00 00 00 00 00 00 00 00 ................
00407660 00 00 00 00 00 00 00 00 00 00 00 00 00 00 00 00 ................
00407670 00 00 00 00 00 00 00 00 00 00 00 00 00 00 00 00 ................
00407680 00 00 00 00 00 00 00 00 00 00 00 00 00 00 00 00 ................
00407690 00 00 00 00 00 00 00 00 00 00 00 00 00 00 00 00 ................
004076A0 00 00 00 00 00 00 00 00 00 00 00 00 00 00 00 00 ................
004076B0 00 00 00 00 00 00 00 00 00 00 00 00 00 00 00 00 ................
004076C0 00 00 00 00 00 00 00 00 00 00 00 00 00 00 00 00 ................
004076D0 00 00 00 00 00 00 00 00 00 00 00 00 00 00 00 00 ................
004076E0 00 00 00 00 00 00 00 00 00 00 00 00 00 00 00 00 ................
004076F0 00 00 00 00 00 00 00 00 00 00 00 00 00 00 00 00 ................
00407700 00 00 00 00 00 00 00 00 00 00 00 00 00 00 00 00 ................
00407710 00 00 00 00 00 00 00 00 00 00 00 00 00 00 00 00 ................
00407720 00 00 00 00 00 00 00 00 00 00 00 00 00 00 00 00 ................
00407730 00 00 00 00 00 00 00 00 00 00 00 00 00 00 00 00 ................
00407740 00 00 00 00 00 00 00 00 00 00 00 00 00 00 00 00 ................
00407750 00 00 00 00 00 00 00 00 00 00 00 00 00 00 00 00 ................
00407760 00 00 00 00 00 00 00 00 00 00 00 00 00 00 00 00 ................
00407770 00 00 00 00 00 00 00 00 00 00 00 00 00 00 00 00 ................
00407780 00 00 00 00 00 00 00 00 00 00 00 00 00 00 00 00 ................
00407790 00 00 00 00 00 00 00 00 00 00 00 00 00 00 00 00 ................
004077A0 00 00 00 00 00 00 00 00 00 00 00 00 00 00 00 00 ................
004077B0 00 00 00 00 00 00 00 00 00 00 00 00 00 00 00 00 ................
004077C0 00 00 00 00 00 00 00 00 00 00 00 00 00 00 00 00 ................
004077D0 00 00 00 00 00 00 00 00 00 00 00 00 00 00 00 00 ................
004077E0 00 00 00 00 00 00 00 00 00 00 00 00 00 00 00 00 ................
004077F0 00 00 00 00 00 00 00 00 00 00 00 00 00 00 00 00 ................
00407800 00 00 00 00 00 00 00 00 00 00 00 00 00 00 00 00 ................
00407810 00 00 00 00 00 00 00 00 00 00 00 00 00 00 00 00 ................
00407820 00 00 00 00 00 00 00 00 00 00 00 00 00 00 00 00 ................
00407830 00 00 00 00 00 00 00 00 00 00 00 00 00 00 00 00 ................
00407840 00 00 00 00 00 00 00 00 00 00 00 00 00 00 00 00 ................
00407850 00 00 00 00 00 00 00 00 00 00 00 00 00 00 00 00 ................
00407860 00 00 00 00 00 00 00 00 00 00 00 00 00 00 00 00 ................
00407870 00 00 00 00 00 00 00 00 00 00 00 00 00 00 00 00 ................
00407880 00 00 00 00 00 00 00 00 00 00 00 00 00 00 00 00 ................
00407890 00 00 00 00 00 00 00 00 00 00 00 00 00 00 00 00 ................
004078A0 00 00 00 00 00 00 00 00 00 00 00 00 00 00 00 00 ................
004078B0 00 00 00 00 00 00 00 00 00 00 00 00 00 00 00 00 ................
004078C0 00 00 00 00 00 00 00 00 00 00 00 00 00 00 00 00 ................
004078D0 00 00 00 00 00 00 00 00 00 00 00 00 00 00 00 00 ................
004078E0 00 00 00 00 00 00 00 00 00 00 00 00 00 00 00 00 ................
004078F0 00 00 00 00 00 00 00 00 00 00 00 00 00 00 00 00 ................
00407900 00 00 00 00 00 00 00 00 00 00 00 00 00 00 00 00 ................
00407910 00 00 00 00 00 00 00 00 00 00 00 00 00 00 00 00 ................
00407920 00 00 00 00 00 00 00 00 00 00 00 00 00 00 00 00 ................
00407930 00 00 00 00 00 00 00 00 00 00 00 00 00 00 00 00 ................
00407940 00 00 00 00 00 00 00 00 00 00 00 00 00 00 00 00 ................
00407950 00 00 00 00 00 00 00 00 00 00 00 00 00 00 00 00 ................
00407960 00 00 00 00 00 00 00 00 00 00 00 00 00 00 00 00 ................
00407970 00 00 00 00 00 00 00 00 00 00 00 00 00 00 00 00 ................
00407980 00 00 00 00 00 00 00 00 00 00 00 00 00 00 00 00 ................
00407990 00 00 00 00 00 00 00 00 00 00 00 00 00 00 00 00 ................
004079A0 00 00 00 00 00 00 00 00 00 00 00 00 00 00 00 00 ................
004079B0 00 00 00 00 00 00 00 00 00 00 00 00 00 00 00 00 ................
004079C0 00 00 00 00 00 00 00 00 00 00 00 00 00 00 00 00 ................
004079D0 00 00 00 00 00 00 00 00 00 00 00 00 00 00 00 00 ................
004079E0 00 00 00 00 00 00 00 00 00 00 00 00 00 00 00 00 ................
004079F0 00 00 00 00 00 00 00 00 00 00 00 00 00 00 00 00 ................
00407A00 00 00 00 00 00 00 00 00 00 00 00 00 00 00 00 00 ................
00407A10 00 00 00 00 00 00 00 00 00 00 00 00 00 00 00 00 ................
00407A20 00 00 00 00 00 00 00 00 00 00 00 00 00 00 00 00 ................
00407A30 00 00 00 00 00 00 00 00 00 00 00 00 00 00 00 00 ................
00407A40 00 00 00 00 00 00 00 00 00 00 00 00 00 00 00 00 ................
00407A50 00 00 00 00 00 00 00 00 00 00 00 00 00 00 00 00 ................
00407A60 00 00 00 00 00 00 00 00 00 00 00 00 00 00 00 00 ................
00407A70 00 00 00 00 00 00 00 00 00 00 00 00 00 00 00 00 ................
00407A80 00 00 00 00 00 00 00 00 00 00 00 00 00 00 00 00 ................
00407A90 00 00 00 00 00 00 00 00 00 00 00 00 00 00 00 00 ................
00407AA0 00 00 00 00 00 00 00 00 00 00 00 00 00 00 00 00 ................
00407AB0 00 00 00 00 00 00 00 00 00 00 00 00 00 00 00 00 ................
00407AC0 00 00 00 00 00 00 00 00 00 00 00 00 00 00 00 00 ................
00407AD0 00 00 00 00 00 00 00 00 00 00 00 00 00 00 00 00 ................
00407AE0 00 00 00 00 00 00 00 00 00 00 00 00 00 00 00 00 ................
00407AF0 00 00 00 00 00 00 00 00 00 00 00 00 00 00 00 00 ................
00407B00 00 00 00 00 00 00 00 00 00 00 00 00 00 00 00 00 ................
00407B10 00 00 00 00 00 00 00 00 00 00 00 00 00 00 00 00 ................
00407B20 00 00 00 00 00 00 00 00 00 00 00 00 00 00 00 00 ................
00407B30 00 00 00 00 00 00 00 00 00 00 00 00 00 00 00 00 ................
00407B40 00 00 00 00 00 00 00 00 00 00 00 00 00 00 00 00 ................
00407B50 00 00 00 00 00 00 00 00 00 00 00 00 00 00 00 00 ................
00407B60 00 00 00 00 00 00 00 00 00 00 00 00 00 00 00 00 ................
00407B70 00 00 00 00 00 00 00 00 00 00 00 00 00 00 00 00 ................
00407B80 00 00 00 00 00 00 00 00 00 00 00 00 00 00 00 00 ................
00407B90 00 00 00 00 00 00 00 00 00 00 00 00 00 00 00 00 ................
00407BA0 00 00 00 00 00 00 00 00 00 00 00 00 00 00 00 00 ................
00407BB0 00 00 00 00 00 00 00 00 00 00 00 00 00 00 00 00 ................
00407BC0 00 00 00 00 00 00 00 00 00 00 00 00 00 00 00 00 ................
00407BD0 00 00 00 00 00 00 00 00 00 00 00 00 00 00 00 00 ................
00407BE0 00 00 00 00 00 00 00 00 00 00 00 00 00 00 00 00 ................
00407BF0 00 00 00 00 00 00 00 00 00 00 00 00 00 00 00 00 ................
00407C00 00 00 00 00 00 00 00 00 00 00 00 00 00 00 00 00 ................
00407C10 00 00 00 00 00 00 00 00 00 00 00 00 00 00 00 00 ................
00407C20 00 00 00 00 00 00 00 00 00 00 00 00 00 00 00 00 ................
00407C30 00 00 00 00 00 00 00 00 00 00 00 00 00 00 00 00 ................
00407C40 00 00 00 00 00 00 00 00 00 00 00 00 00 00 00 00 ................
00407C50 00 00 00 00 00 00 00 00 00 00 00 00 00 00 00 00 ................
00407C60 00 00 00 00 00 00 00 00 00 00 00 00 00 00 00 00 ................
00407C70 00 00 00 00 00 00 00 00 00 00 00 00 00 00 00 00 ................
00407C80 00 00 00 00 00 00 00 00 00 00 00 00 00 00 00 00 ................
00407C90 00 00 00 00 00 00 00 00 00 00 00 00 00 00 00 00 ................
00407CA0 00 00 00 00 00 00 00 00 00 00 00 00 00 00 00 00 ................
00407CB0 00 00 00 00 00 00 00 00 00 00 00 00 00 00 00 00 ................
00407CC0 00 00 00 00 00 00 00 00 00 00 00 00 00 00 00 00 ................
00407CD0 00 00 00 00 00 00 00 00 00 00 00 00 00 00 00 00 ................
00407CE0 00 00 00 00 00 00 00 00 00 00 00 00 00 00 00 00 ................
00407CF0 00 00 00 00 00 00 00 00 00 00 00 00 00 00 00 00 ................
00407D00 00 00 00 00 00 00 00 00 00 00 00 00 00 00 00 00 ................
00407D10 00 00 00 00 00 00 00 00 00 00 00 00 00 00 00 00 ................
00407D20 00 00 00 00 00 00 00 00 00 00 00 00 00 00 00 00 ................
00407D30 00 00 00 00 00 00 00 00 00 00 00 00 00 00 00 00 ................
00407D40 00 00 00 00 00 00 00 00 00 00 00 00 00 00 00 00 ................
00407D50 00 00 00 00 00 00 00 00 00 00 00 00 00 00 00 00 ................
00407D60 00 00 00 00 00 00 00 00 00 00 00 00 00 00 00 00 ................
00407D70 00 00 00 00 00 00 00 00 00 00 00 00 00 00 00 00 ................
00407D80 00 00 00 00 00 00 00 00 00 00 00 00 00 00 00 00 ................
00407D90 00 00 00 00 00 00 00 00 00 00 00 00 00 00 00 00 ................
00407DA0 00 00 00 00 00 00 00 00 00 00 00 00 00 00 00 00 ................
00407DB0 00 00 00 00 00 00 00 00 00 00 00 00 00 00 00 00 ................
00407DC0 00 00 00 00 00 00 00 00 00 00 00 00 00 00 00 00 ................
00407DD0 00 00 00 00 00 00 00 00 00 00 00 00 00 00 00 00 ................
00407DE0 00 00 00 00 00 00 00 00 00 00 00 00 00 00 00 00 ................
00407DF0 00 00 00 00 00 00 00 00 00 00 00 00 00 00 00 00 ................
00407E00 00 00 00 00 00 00 00 00 00 00 00 00 00 00 00 00 ................
00407E10 00 00 00 00 00 00 00 00 00 00 00 00 00 00 00 00 ................
00407E20 00 00 00 00 00 00 00 00 00 00 00 00 00 00 00 00 ................
00407E30 00 00 00 00 00 00 00 00 00 00 00 00 00 00 00 00 ................
00407E40 00 00 00 00 00 00 00 00 00 00 00 00 00 00 00 00 ................
00407E50 00 00 00 00 00 00 00 00 00 00 00 00 00 00 00 00 ................
00407E60 00 00 00 00 00 00 00 00 00 00 00 00 00 00 00 00 ................
00407E70 00 00 00 00 00 00 00 00 00 00 00 00 00 00 00 00 ................
00407E80 00 00 00 00 00 00 00 00 00 00 00 00 00 00 00 00 ................
00407E90 00 00 00 00 00 00 00 00 00 00 00 00 00 00 00 00 ................
00407EA0 00 00 00 00 00 00 00 00 00 00 00 00 00 00 00 00 ................
00407EB0 00 00 00 00 00 00 00 00 00 00 00 00 00 00 00 00 ................
00407EC0 00 00 00 00 00 00 00 00 00 00 00 00 00 00 00 00 ................
00407ED0 00 00 00 00 00 00 00 00 00 00 00 00 00 00 00 00 ................
00407EE0 00 00 00 00 00 00 00 00 00 00 00 00 00 00 00 00 ................
00407EF0 00 00 00 00 00 00 00 00 00 00 00 00 00 00 00 00 ................
00407F00 00 00 00 00 00 00 00 00 00 00 00 00 00 00 00 00 ................
00407F10 00 00 00 00 00 00 00 00 00 00 00 00 00 00 00 00 ................
00407F20 00 00 00 00 00 00 00 00 00 00 00 00 00 00 00 00 ................
00407F30 00 00 00 00 00 00 00 00 00 00 00 00 00 00 00 00 ................
00407F40 00 00 00 00 00 00 00 00 00 00 00 00 00 00 00 00 ................
00407F50 00 00 00 00 00 00 00 00 00 00 00 00 00 00 00 00 ................
00407F60 00 00 00 00 00 00 00 00 00 00 00 00 00 00 00 00 ................
00407F70 00 00 00 00 00 00 00 00 00 00 00 00 00 00 00 00 ................
00407F80 00 00 00 00 00 00 00 00 00 00 00 00 00 00 00 00 ................
00407F90 00 00 00 00 00 00 00 00 00 00 00 00 00 00 00 00 ................
00407FA0 00 00 00 00 00 00 00 00 00 00 00 00 00 00 00 00 ................
00407FB0 00 00 00 00 00 00 00 00 00 00 00 00 00 00 00 00 ................
00407FC0 00 00 00 00 00 00 00 00 00 00 00 00 00 00 00 00 ................
00407FD0 00 00 00 00 00 00 00 00 00 00 00 00 00 00 00 00 ................
00407FE0 00 00 00 00 00 00 00 00 00 00 00 00 00 00 00 00 ................
00407FF0 00 00 00 00 00 00 00 00 00 00 00 00 00 00 00 00 ................
00408000 00 00 00 00 00 00 00 00 00 00 00 00 00 00 00 00 ................
00408010 00 00 00 00 00 00 00 00 00 00 00 00 00 00 00 00 ................
00408020 00 00 00 00 00 00 00 00 00 00 00 00 00 00 00 00 ................
00408030 00 00 00 00 00 00 00 00 00 00 00 00 00 00 00 00 ................
00408040 00 00 00 00 00 00 00 00 00 00 00 00 00 00 00 00 ................
00408050 00 00 00 00 00 00 00 00 00 00 00 00 00 00 00 00 ................
00408060 00 00 00 00 00 00 00 00 00 00 00 00 00 00 00 00 ................
00408070 00 00 00 00 00 00 00 00 00 00 00 00 00 00 00 00 ................
00408080 00 00 00 00 00 00 00 00 00 00 00 00 00 00 00 00 ................
00408090 00 00 00 00 00 00 00 00 00 00 00 00 00 00 00 00 ................
004080A0 00 00 00 00 00 00 00 00 00 00 00 00 00 00 00 00 ................
004080B0 00 00 00 00 00 00 00 00 00 00 00 00 00 00 00 00 ................
004080C0 00 00 00 00 00 00 00 00 00 00 00 00 00 00 00 00 ................
004080D0 00 00 00 00 00 00 00 00 00 00 00 00 00 00 00 00 ................
004080E0 00 00 00 00 00 00 00 00 00 00 00 00 00 00 00 00 ................
004080F0 00 00 00 00 00 00 00 00 00 00 00 00 00 00 00 00 ................
00408100 00 00 00 00 00 00 00 00 00 00 00 00 00 00 00 00 ................
00408110 00 00 00 00 00 00 00 00 00 00 00 00 00 00 00 00 ................
00408120 00 00 00 00 00 00 00 00 00 00 00 00 00 00 00 00 ................
00408130 00 00 00 00 00 00 00 00 00 00 00 00 00 00 00 00 ................
00408140 00 00 00 00 00 00 00 00 00 00 00 00 00 00 00 00 ................
00408150 00 00 00 00 00 00 00 00 00 00 00 00 00 00 00 00 ................
00408160 00 00 00 00 00 00 00 00 00 00 00 00 00 00 00 00 ................
00408170 00 00 00 00 00 00 00 00 00 00 00 00 00 00 00 00 ................
00408180 00 00 00 00 00 00 00 00 00 00 00 00 00 00 00 00 ................
00408190 00 00 00 00 00 00 00 00 00 00 00 00 00 00 00 00 ................
004081A0 00 00 00 00 00 00 00 00 00 00 00 00 00 00 00 00 ................
004081B0 00 00 00 00 00 00 00 00 00 00 00 00 00 00 00 00 ................
004081C0 00 00 00 00 00 00 00 00 00 00 00 00 00 00 00 00 ................
004081D0 00 00 00 00 00 00 00 00 00 00 00 00 00 00 00 00 ................
004081E0 00 00 00 00 00 00 00 00 00 00 00 00 00 00 00 00 ................
004081F0 00 00 00 00 00 00 00 00 00 00 00 00 00 00 00 00 ................
00408200 00 00 00 00 00 00 00 00 00 00 00 00 00 00 00 00 ................
00408210 00 00 00 00 00 00 00 00 00 00 00 00 00 00 00 00 ................
00408220 00 00 00 00 00 00 00 00 00 00 00 00 00 00 00 00 ................
00408230 00 00 00 00 00 00 00 00 00 00 00 00 00 00 00 00 ................
00408240 00 00 00 00 00 00 00 00 00 00 00 00 00 00 00 00 ................
00408250 00 00 00 00 00 00 00 00 00 00 00 00 00 00 00 00 ................
00408260 00 00 00 00 00 00 00 00 00 00 00 00 00 00 00 00 ................
00408270 00 00 00 00 00 00 00 00 00 00 00 00 00 00 00 00 ................
00408280 00 00 00 00 00 00 00 00 00 00 00 00 00 00 00 00 ................
00408290 00 00 00 00 00 00 00 00 00 00 00 00 00 00 00 00 ................
004082A0 00 00 00 00 00 00 00 00 00 00 00 00 00 00 00 00 ................
004082B0 00 00 00 00 00 00 00 00 00 00 00 00 00 00 00 00 ................
004082C0 00 00 00 00 00 00 00 00 00 00 00 00 00 00 00 00 ................
004082D0 00 00 00 00 00 00 00 00 00 00 00 00 00 00 00 00 ................
004082E0 00 00 00 00 00 00 00 00 00 00 00 00 00 00 00 00 ................
004082F0 00 00 00 00 00 00 00 00 00 00 00 00 00 00 00 00 ................
00408300 00 00 00 00 00 00 00 00 00 00 00 00 00 00 00 00 ................
00408310 00 00 00 00 00 00 00 00 00 00 00 00 00 00 00 00 ................
00408320 00 00 00 00 00 00 00 00 00 00 00 00 00 00 00 00 ................
00408330 00 00 00 00 00 00 00 00 00 00 00 00 00 00 00 00 ................
00408340 00 00 00 00 00 00 00 00 00 00 00 00 00 00 00 00 ................
00408350 00 00 00 00 00 00 00 00 00 00 00 00 00 00 00 00 ................
00408360 00 00 00 00 00 00 00 00 00 00 00 00 00 00 00 00 ................
00408370 00 00 00 00 00 00 00 00 00 00 00 00 00 00 00 00 ................
00408380 00 00 00 00 00 00 00 00 00 00 00 00 00 00 00 00 ................
00408390 00 00 00 00 00 00 00 00 00 00 00 00 00 00 00 00 ................
004083A0 00 00 00 00 00 00 00 00 00 00 00 00 00 00 00 00 ................
004083B0 00 00 00 00 00 00 00 00 00 00 00 00 00 00 00 00 ................
004083C0 00 00 00 00 00 00 00 00 00 00 00 00 00 00 00 00 ................
004083D0 00 00 00 00 00 00 00 00 00 00 00 00 00 00 00 00 ................
004083E0 00 00 00 00 00 00 00 00 00 00 00 00 00 00 00 00 ................
004083F0 00 00 00 00 00 00 00 00 00 00 00 00 00 00 00 00 ................
00408400 00 00 00 00 00 00 00 00 00 00 00 00 00 00 00 00 ................
00408410 00 00 00 00 00 00 00 00 00 00 00 00 00 00 00 00 ................
00408420 00 00 00 00 00 00 00 00 00 00 00 00 00 00 00 00 ................
00408430 00 00 00 00 00 00 00 00 00 00 00 00 00 00 00 00 ................
00408440 00 00 00 00 00 00 00 00 00 00 00 00 00 00 00 00 ................
00408450 00 00 00 00 00 00 00 00 00 00 00 00 00 00 00 00 ................
00408460 00 00 00 00 00 00 00 00 00 00 00 00 00 00 00 00 ................
00408470 00 00 00 00 00 00 00 00 00 00 00 00 00 00 00 00 ................
00408480 00 00 00 00 00 00 00 00 00 00 00 00 00 00 00 00 ................
00408490 00 00 00 00 00 00 00 00 00 00 00 00 00 00 00 00 ................
004084A0 00 00 00 00 00 00 00 00 00 00 00 00 00 00 00 00 ................
004084B0 00 00 00 00 00 00 00 00 00 00 00 00 00 00 00 00 ................
004084C0 00 00 00 00 00 00 00 00 00 00 00 00 00 00 00 00 ................
004084D0 00 00 00 00 00 00 00 00 00 00 00 00 00 00 00 00 ................
004084E0 00 00 00 00 00 00 00 00 00 00 00 00 00 00 00 00 ................
004084F0 00 00 00 00 00 00 00 00 00 00 00 00 00 00 00 00 ................
00408500 00 00 00 00 00 00 00 00 00 00 00 00 00 00 00 00 ................
00408510 00 00 00 00 00 00 00 00 00 00 00 00 00 00 00 00 ................
00408520 00 00 00 00 00 00 00 00 00 00 00 00 00 00 00 00 ................
00408530 00 00 00 00 00 00 00 00 00 00 00 00 00 00 00 00 ................
00408540 00 00 00 00 00 00 00 00 00 00 00 00 00 00 00 00 ................
00408550 00 00 00 00 00 00 00 00 00 00 00 00 00 00 00 00 ................
00408560 00 00 00 00 00 00 00 00 00 00 00 00 00 00 00 00 ................
00408570 00 00 00 00 00 00 00 00 00 00 00 00 00 00 00 00 ................
00408580 00 00 00 00 00 00 00 00 00 00 00 00 00 00 00 00 ................
00408590 00 00 00 00 00 00 00 00 00 00 00 00 00 00 00 00 ................
004085A0 00 00 00 00 00 00 00 00 00 00 00 00 00 00 00 00 ................
004085B0 00 00 00 00 00 00 00 00 00 00 00 00 00 00 00 00 ................
004085C0 00 00 00 00 00 00 00 00 00 00 00 00 00 00 00 00 ................
004085D0 00 00 00 00 00 00 00 00 00 00 00 00 00 00 00 00 ................
004085E0 00 00 00 00 00 00 00 00 00 00 00 00 00 00 00 00 ................
004085F0 00 00 00 00 00 00 00 00 00 00 00 00 00 00 00 00 ................
00408600 00 00 00 00 00 00 00 00 00 00 00 00 00 00 00 00 ................
00408610 00 00 00 00 00 00 00 00 00 00 00 00 00 00 00 00 ................
00408620 00 00 00 00 00 00 00 00 00 00 00 00 00 00 00 00 ................
00408630 00 00 00 00 00 00 00 00 00 00 00 00 00 00 00 00 ................
00408640 00 00 00 00 00 00 00 00 00 00 00 00 00 00 00 00 ................
00408650 00 00 00 00 00 00 00 00 00 00 00 00 00 00 00 00 ................
00408660 00 00 00 00 00 00 00 00 00 00 00 00 00 00 00 00 ................
00408670 00 00 00 00 00 00 00 00 00 00 00 00 00 00 00 00 ................
00408680 00 00 00 00 00 00 00 00 00 00 00 00 00 00 00 00 ................
00408690 00 00 00 00 00 00 00 00 00 00 00 00 00 00 00 00 ................
004086A0 00 00 00 00 00 00 00 00 00 00 00 00 00 00 00 00 ................
004086B0 00 00 00 00 00 00 00 00 00 00 00 00 00 00 00 00 ................
004086C0 00 00 00 00 00 00 00 00 00 00 00 00 00 00 00 00 ................
004086D0 00 00 00 00 00 00 00 00 00 00 00 00 00 00 00 00 ................
004086E0 00 00 00 00 00 00 00 00 00 00 00 00 00 00 00 00 ................
004086F0 00 00 00 00 00 00 00 00 00 00 00 00 00 00 00 00 ................
00408700 00 00 00 00 00 00 00 00 00 00 00 00 00 00 00 00 ................
00408710 00 00 00 00 00 00 00 00 00 00 00 00 00 00 00 00 ................
00408720 00 00 00 00 00 00 00 00 00 00 00 00 00 00 00 00 ................
00408730 00 00 00 00 00 00 00 00 00 00 00 00 00 00 00 00 ................
00408740 00 00 00 00 00 00 00 00 00 00 00 00 00 00 00 00 ................
00408750 00 00 00 00 00 00 00 00 00 00 00 00 00 00 00 00 ................
00408760 00 00 00 00 00 00 00 00 00 00 00 00 00 00 00 00 ................
00408770 00 00 00 00 00 00 00 00 00 00 00 00 00 00 00 00 ................
00408780 00 00 00 00 00 00 00 00 00 00 00 00 00 00 00 00 ................
00408790 00 00 00 00 00 00 00 00 00 00 00 00 00 00 00 00 ................
004087A0 00 00 00 00 00 00 00 00 00 00 00 00 00 00 00 00 ................
004087B0 00 00 00 00 00 00 00 00 00 00 00 00 00 00 00 00 ................
004087C0 00 00 00 00 00 00 00 00 00 00 00 00 00 00 00 00 ................
004087D0 00 00 00 00 00 00 00 00 00 00 00 00 00 00 00 00 ................
004087E0 00 00 00 00 00 00 00 00 00 00 00 00 00 00 00 00 ................
004087F0 00 00 00 00 00 00 00 00 00 00 00 00 00 00 00 00 ................
00408800 00 00 00 00 00 00 00 00 00 00 00 00 00 00 00 00 ................
00408810 00 00 00 00 00 00 00 00 00 00 00 00 00 00 00 00 ................
00408820 00 00 00 00 00 00 00 00 00 00 00 00 00 00 00 00 ................
00408830 00 00 00 00 00 00 00 00 00 00 00 00 00 00 00 00 ................
00408840 00 00 00 00 00 00 00 00 00 00 00 00 00 00 00 00 ................
00408850 00 00 00 00 00 00 00 00 00 00 00 00 00 00 00 00 ................
00408860 00 00 00 00 00 00 00 00 00 00 00 00 00 00 00 00 ................
00408870 00 00 00 00 00 00 00 00 00 00 00 00 00 00 00 00 ................
00408880 00 00 00 00 00 00 00 00 00 00 00 00 00 00 00 00 ................
00408890 00 00 00 00 00 00 00 00 00 00 00 00 00 00 00 00 ................
004088A0 00 00 00 00 00 00 00 00 00 00 00 00 00 00 00 00 ................
004088B0 00 00 00 00 00 00 00 00 00 00 00 00 00 00 00 00 ................
004088C0 00 00 00 00 00 00 00 00 00 00 00 00 00 00 00 00 ................
004088D0 00 00 00 00 00 00 00 00 00 00 00 00 00 00 00 00 ................
004088E0 00 00 00 00 00 00 00 00 00 00 00 00 00 00 00 00 ................
004088F0 00 00 00 00 00 00 00 00 00 00 00 00 00 00 00 00 ................
00408900 00 00 00 00 00 00 00 00 00 00 00 00 00 00 00 00 ................
00408910 00 00 00 00 00 00 00 00 00 00 00 00 00 00 00 00 ................
00408920 00 00 00 00 00 00 00 00 00 00 00 00 00 00 00 00 ................
00408930 00 00 00 00 00 00 00 00 00 00 00 00 00 00 00 00 ................
00408940 00 00 00 00 00 00 00 00 00 00 00 00 00 00 00 00 ................
00408950 00 00 00 00 00 00 00 00 00 00 00 00 00 00 00 00 ................
00408960 00 00 00 00 00 00 00 00 00 00 00 00 00 00 00 00 ................
00408970 00 00 00 00 00 00 00 00 00 00 00 00 00 00 00 00 ................
00408980 00 00 00 00 00 00 00 00 00 00 00 00 00 00 00 00 ................
00408990 00 00 00 00 00 00 00 00 00 00 00 00 00 00 00 00 ................
004089A0 00 00 00 00 00 00 00 00 00 00 00 00 00 00 00 00 ................
004089B0 00 00 00 00 00 00 00 00 00 00 00 00 00 00 00 00 ................
004089C0 00 00 00 00 00 00 00 00 00 00 00 00 00 00 00 00 ................
004089D0 00 00 00 00 00 00 00 00 00 00 00 00 00 00 00 00 ................
004089E0 00 00 00 00 00 00 00 00 00 00 00 00 00 00 00 00 ................
004089F0 00 00 00 00 00 00 00 00 00 00 00 00 00 00 00 00 ................
00408A00 00 00 00 00 00 00 00 00 00 00 00 00 00 00 00 00 ................
00408A10 00 00 00 00 00 00 00 00 00 00 00 00 00 00 00 00 ................
00408A20 00 00 00 00 00 00 00 00 00 00 00 00 00 00 00 00 ................
00408A30 00 00 00 00 00 00 00 00 00 00 00 00 00 00 00 00 ................
00408A40 00 00 00 00 00 00 00 00 00 00 00 00 00 00 00 00 ................
00408A50 00 00 00 00 00 00 00 00 00 00 00 00 00 00 00 00 ................
00408A60 00 00 00 00 00 00 00 00 00 00 00 00 00 00 00 00 ................
00408A70 00 00 00 00 00 00 00 00 00 00 00 00 00 00 00 00 ................
00408A80 00 00 00 00 00 00 00 00 00 00 00 00 00 00 00 00 ................
00408A90 00 00 00 00 00 00 00 00 00 00 00 00 00 00 00 00 ................
00408AA0 00 00 00 00 00 00 00 00 00 00 00 00 00 00 00 00 ................
00408AB0 00 00 00 00 00 00 00 00 00 00 00 00 00 00 00 00 ................
00408AC0 00 00 00 00 00 00 00 00 00 00 00 00 00 00 00 00 ................
00408AD0 00 00 00 00 00 00 00 00 00 00 00 00 00 00 00 00 ................
00408AE0 00 00 00 00 00 00 00 00 00 00 00 00 00 00 00 00 ................
00408AF0 00 00 00 00 00 00 00 00 00 00 00 00 00 00 00 00 ................
00408B00 00 00 00 00 00 00 00 00 00 00 00 00 00 00 00 00 ................
00408B10 00 00 00 00 00 00 00 00 00 00 00 00 00 00 00 00 ................
00408B20 00 00 00 00 00 00 00 00 00 00 00 00 00 00 00 00 ................
00408B30 00 00 00 00 00 00 00 00 00 00 00 00 00 00 00 00 ................
00408B40 00 00 00 00 00 00 00 00 00 00 00 00 00 00 00 00 ................
00408B50 00 00 00 00 00 00 00 00 00 00 00 00 00 00 00 00 ................
00408B60 00 00 00 00 00 00 00 00 00 00 00 00 00 00 00 00 ................
00408B70 00 00 00 00 00 00 00 00 00 00 00 00 00 00 00 00 ................
00408B80 00 00 00 00 00 00 00 00 00 00 00 00 00 00 00 00 ................
00408B90 00 00 00 00 00 00 00 00 00 00 00 00 00 00 00 00 ................
00408BA0 00 00 00 00 00 00 00 00 00 00 00 00 00 00 00 00 ................
00408BB0 00 00 00 00 00 00 00 00 00 00 00 00 00 00 00 00 ................
00408BC0 00 00 00 00 00 00 00 00 00 00 00 00 00 00 00 00 ................
00408BD0 00 00 00 00 00 00 00 00 00 00 00 00 00 00 00 00 ................
00408BE0 00 00 00 00 00 00 00 00 00 00 00 00 00 00 00 00 ................
00408BF0 00 00 00 00 00 00 00 00 00 00 00 00 00 00 00 00 ................
00408C00 00 00 00 00 00 00 00 00 00 00 00 00 00 00 00 00 ................
00408C10 00 00 00 00 00 00 00 00 00 00 00 00 00 00 00 00 ................
00408C20 00 00 00 00 00 00 00 00 00 00 00 00 00 00 00 00 ................
00408C30 00 00 00 00 00 00 00 00 00 00 00 00 00 00 00 00 ................
00408C40 00 00 00 00 00 00 00 00 00 00 00 00 00 00 00 00 ................
00408C50 00 00 00 00 00 00 00 00 00 00 00 00 00 00 00 00 ................
00408C60 00 00 00 00 00 00 00 00 00 00 00 00 00 00 00 00 ................
00408C70 00 00 00 00 00 00 00 00 00 00 00 00 00 00 00 00 ................
00408C80 00 00 00 00 00 00 00 00 00 00 00 00 00 00 00 00 ................
00408C90 00 00 00 00 00 00 00 00 00 00 00 00 00 00 00 00 ................
00408CA0 00 00 00 00 00 00 00 00 00 00 00 00 00 00 00 00 ................
00408CB0 00 00 00 00 00 00 00 00 00 00 00 00 00 00 00 00 ................
00408CC0 00 00 00 00 00 00 00 00 00 00 00 00 00 00 00 00 ................
00408CD0 00 00 00 00 00 00 00 00 00 00 00 00 00 00 00 00 ................
00408CE0 00 00 00 00 00 00 00 00 00 00 00 00 00 00 00 00 ................
00408CF0 00 00 00 00 00 00 00 00 00 00 00 00 00 00 00 00 ................
00408D00 00 00 00 00 00 00 00 00 00 00 00 00 00 00 00 00 ................
00408D10 00 00 00 00 00 00 00 00 00 00 00 00 00 00 00 00 ................
00408D20 00 00 00 00 00 00 00 00 00 00 00 00 00 00 00 00 ................
00408D30 00 00 00 00 00 00 00 00 00 00 00 00 00 00 00 00 ................
00408D40 00 00 00 00 00 00 00 00 00 00 00 00 00 00 00 00 ................
00408D50 00 00 00 00 00 00 00 00 00 00 00 00 00 00 00 00 ................
00408D60 00 00 00 00 00 00 00 00 00 00 00 00 00 00 00 00 ................
00408D70 00 00 00 00 00 00 00 00 00 00 00 00 00 00 00 00 ................
00408D80 00 00 00 00 00 00 00 00 00 00 00 00 00 00 00 00 ................
00408D90 00 00 00 00 00 00 00 00 00 00 00 00 00 00 00 00 ................
00408DA0 00 00 00 00 00 00 00 00 00 00 00 00 00 00 00 00 ................
00408DB0 00 00 00 00 00 00 00 00 00 00 00 00 00 00 00 00 ................
00408DC0 00 00 00 00 00 00 00 00 00 00 00 00 00 00 00 00 ................
00408DD0 00 00 00 00 00 00 00 00 00 00 00 00 00 00 00 00 ................
00408DE0 00 00 00 00 00 00 00 00 00 00 00 00 00 00 00 00 ................
00408DF0 00 00 00 00 00 00 00 00 00 00 00 00 00 00 00 00 ................
00408E00 00 00 00 00 00 00 00 00 00 00 00 00 00 00 00 00 ................
00408E10 00 00 00 00 00 00 00 00 00 00 00 00 00 00 00 00 ................
00408E20 00 00 00 00 00 00 00 00 00 00 00 00 00 00 00 00 ................
00408E30 00 00 00 00 00 00 00 00 00 00 00 00 00 00 00 00 ................
00408E40 00 00 00 00 00 00 00 00 00 00 00 00 00 00 00 00 ................
00408E50 00 00 00 00 00 00 00 00 00 00 00 00 00 00 00 00 ................
00408E60 00 00 00 00 00 00 00 00 00 00 00 00 00 00 00 00 ................
00408E70 00 00 00 00 00 00 00 00 00 00 00 00 00 00 00 00 ................
00408E80 00 00 00 00 00 00 00 00 00 00 00 00 00 00 00 00 ................
00408E90 00 00 00 00 00 00 00 00 00 00 00 00 00 00 00 00 ................
00408EA0 00 00 00 00 00 00 00 00 00 00 00 00 00 00 00 00 ................
00408EB0 00 00 00 00 00 00 00 00 00 00 00 00 00 00 00 00 ................
00408EC0 00 00 00 00 00 00 00 00 00 00 00 00 00 00 00 00 ................
00408ED0 00 00 00 00 00 00 00 00 00 00 00 00 00 00 00 00 ................
00408EE0 00 00 00 00 00 00 00 00 00 00 00 00 00 00 00 00 ................
00408EF0 00 00 00 00 00 00 00 00 00 00 00 00 00 00 00 00 ................
00408F00 00 00 00 00 00 00 00 00 00 00 00 00 00 00 00 00 ................
00408F10 00 00 00 00 00 00 00 00 00 00 00 00 00 00 00 00 ................
00408F20 00 00 00 00 00 00 00 00 00 00 00 00 00 00 00 00 ................
00408F30 00 00 00 00 00 00 00 00 00 00 00 00 00 00 00 00 ................
00408F40 00 00 00 00 00 00 00 00 00 00 00 00 00 00 00 00 ................
00408F50 00 00 00 00 00 00 00 00 00 00 00 00 00 00 00 00 ................
00408F60 00 00 00 00 00 00 00 00 00 00 00 00 00 00 00 00 ................
00408F70 00 00 00 00 00 00 00 00 00 00 00 00 00 00 00 00 ................
00408F80 00 00 00 00 00 00 00 00 00 00 00 00 00 00 00 00 ................
00408F90 00 00 00 00 00 00 00 00 00 00 00 00 00 00 00 00 ................
00408FA0 00 00 00 00 00 00 00 00 00 00 00 00 00 00 00 00 ................
00408FB0 00 00 00 00 00 00 00 00 00 00 00 00 00 00 00 00 ................
00408FC0 00 00 00 00 00 00 00 00 00 00 00 00 00 00 00 00 ................
00408FD0 00 00 00 00 00 00 00 00 00 00 00 00 00 00 00 00 ................
00408FE0 00 00 00 00 00 00 00 00 00 00 00 00 00 00 00 00 ................
00408FF0 00 00 00 00 00 00 00 00 00 00 00 00 00 00 00 00 ................
00409000 00 00 00 00 00 00 00 00 00 00 00 00 00 00 00 00 ................
00409010 00 00 00 00 00 00 00 00 00 00 00 00 00 00 00 00 ................
00409020 00 00 00 00 00 00 00 00 00 00 00 00 00 00 00 00 ................
00409030 00 00 00 00 00 00 00 00 00 00 00 00 00 00 00 00 ................
00409040 00 00 00 00 00 00 00 00 00 00 00 00 00 00 00 00 ................
00409050 00 00 00 00 00 00 00 00 00 00 00 00 00 00 00 00 ................
00409060 00 00 00 00 00 00 00 00 00 00 00 00 00 00 00 00 ................
00409070 00 00 00 00 00 00 00 00 00 00 00 00 00 00 00 00 ................
00409080 00 00 00 00 00 00 00 00 00 00 00 00 00 00 00 00 ................
00409090 00 00 00 00 00 00 00 00 00 00 00 00 00 00 00 00 ................
004090A0 00 00 00 00 00 00 00 00 00 00 00 00 00 00 00 00 ................
004090B0 00 00 00 00 00 00 00 00 00 00 00 00 00 00 00 00 ................
004090C0 00 00 00 00 00 00 00 00 00 00 00 00 00 00 00 00 ................
004090D0 00 00 00 00 00 00 00 00 00 00 00 00 00 00 00 00 ................
004090E0 00 00 00 00 00 00 00 00 00 00 00 00 00 00 00 00 ................
004090F0 00 00 00 00 00 00 00 00 00 00 00 00 00 00 00 00 ................
00409100 00 00 00 00 00 00 00 00 00 00 00 00 00 00 00 00 ................
00409110 00 00 00 00 00 00 00 00 00 00 00 00 00 00 00 00 ................
00409120 00 00 00 00 00 00 00 00 00 00 00 00 00 00 00 00 ................
00409130 00 00 00 00 00 00 00 00 00 00 00 00 00 00 00 00 ................
00409140 00 00 00 00 00 00 00 00 00 00 00 00 00 00 00 00 ................
00409150 00 00 00 00 00 00 00 00 00 00 00 00 00 00 00 00 ................
00409160 00 00 00 00 00 00 00 00 00 00 00 00 00 00 00 00 ................
00409170 00 00 00 00 00 00 00 00 00 00 00 00 00 00 00 00 ................
00409180 00 00 00 00 00 00 00 00 00 00 00 00 00 00 00 00 ................
00409190 00 00 00 00 00 00 00 00 00 00 00 00 00 00 00 00 ................
004091A0 00 00 00 00 00 00 00 00 00 00 00 00 00 00 00 00 ................
004091B0 00 00 00 00 00 00 00 00 00 00 00 00 00 00 00 00 ................
004091C0 00 00 00 00 00 00 00 00 00 00 00 00 00 00 00 00 ................
004091D0 00 00 00 00 00 00 00 00 00 00 00 00 00 00 00 00 ................
004091E0 00 00 00 00 00 00 00 00 00 00 00 00 00 00 00 00 ................
004091F0 00 00 00 00 00 00 00 00 00 00 00 00 00 00 00 00 ................
00409200 00 00 00 00 00 00 00 00 00 00 00 00 00 00 00 00 ................
00409210 00 00 00 00 00 00 00 00 00 00 00 00 00 00 00 00 ................
00409220 00 00 00 00 00 00 00 00 00 00 00 00 00 00 00 00 ................
00409230 00 00 00 00 00 00 00 00 00 00 00 00 00 00 00 00 ................
00409240 00 00 00 00 00 00 00 00 00 00 00 00 00 00 00 00 ................
00409250 00 00 00 00 00 00 00 00 00 00 00 00 00 00 00 00 ................
00409260 00 00 00 00 00 00 00 00 00 00 00 00 00 00 00 00 ................
00409270 00 00 00 00 00 00 00 00 00 00 00 00 00 00 00 00 ................
00409280 00 00 00 00 00 00 00 00 00 00 00 00 00 00 00 00 ................
00409290 00 00 00 00 00 00 00 00 00 00 00 00 00 00 00 00 ................
004092A0 00 00 00 00 00 00 00 00 00 00 00 00 00 00 00 00 ................
004092B0 00 00 00 00 00 00 00 00 00 00 00 00 00 00 00 00 ................
004092C0 00 00 00 00 00 00 00 00 00 00 00 00 00 00 00 00 ................
004092D0 00 00 00 00 00 00 00 00 00 00 00 00 00 00 00 00 ................
004092E0 00 00 00 00 00 00 00 00 00 00 00 00 00 00 00 00 ................
004092F0 00 00 00 00 00 00 00 00 00 00 00 00 00 00 00 00 ................
00409300 00 00 00 00 00 00 00 00 00 00 00 00 00 00 00 00 ................
00409310 00 00 00 00 00 00 00 00 00 00 00 00 00 00 00 00 ................
00409320 00 00 00 00 00 00 00 00 00 00 00 00 00 00 00 00 ................
00409330 00 00 00 00 00 00 00 00 00 00 00 00 00 00 00 00 ................
00409340 00 00 00 00 00 00 00 00 00 00 00 00 00 00 00 00 ................
00409350 00 00 00 00 00 00 00 00 00 00 00 00 00 00 00 00 ................
00409360 00 00 00 00 00 00 00 00 00 00 00 00 00 00 00 00 ................
00409370 00 00 00 00 00 00 00 00 00 00 00 00 00 00 00 00 ................
00409380 00 00 00 00 00 00 00 00 00 00 00 00 00 00 00 00 ................
00409390 00 00 00 00 00 00 00 00 00 00 00 00 00 00 00 00 ................
004093A0 00 00 00 00 00 00 00 00 00 00 00 00 00 00 00 00 ................
004093B0 00 00 00 00 00 00 00 00 00 00 00 00 00 00 00 00 ................
004093C0 00 00 00 00 00 00 00 00 00 00 00 00 00 00 00 00 ................
004093D0 00 00 00 00 00 00 00 00 00 00 00 00 00 00 00 00 ................
004093E0 00 00 00 00 00 00 00 00 00 00 00 00 00 00 00 00 ................
004093F0 00 00 00 00 00 00 00 00 00 00 00 00 00 00 00 00 ................
00409400 00 00 00 00 00 00 00 00 00 00 00 00 00 00 00 00 ................
00409410 00 00 00 00 00 00 00 00 00 00 00 00 00 00 00 00 ................
00409420 00 00 00 00 00 00 00 00 00 00 00 00 00 00 00 00 ................
00409430 00 00 00 00 00 00 00 00 00 00 00 00 00 00 00 00 ................
00409440 00 00 00 00 00 00 00 00 00 00 00 00 00 00 00 00 ................
00409450 00 00 00 00 00 00 00 00 00 00 00 00 00 00 00 00 ................
00409460 00 00 00 00 00 00 00 00 00 00 00 00 00 00 00 00 ................
00409470 00 00 00 00 00 00 00 00 00 00 00 00 00 00 00 00 ................
00409480 00 00 00 00 00 00 00 00 00 00 00 00 00 00 00 00 ................
00409490 00 00 00 00 00 00 00 00 00 00 00 00 00 00 00 00 ................
004094A0 00 00 00 00 00 00 00 00 00 00 00 00 00 00 00 00 ................
004094B0 00 00 00 00 00 00 00 00 00 00 00 00 00 00 00 00 ................
004094C0 00 00 00 00 00 00 00 00 00 00 00 00 00 00 00 00 ................
004094D0 00 00 00 00 00 00 00 00 00 00 00 00 00 00 00 00 ................
004094E0 00 00 00 00 00 00 00 00 00 00 00 00 00 00 00 00 ................
004094F0 00 00 00 00 00 00 00 00 00 00 00 00 00 00 00 00 ................
00409500 00 00 00 00 00 00 00 00 00 00 00 00 00 00 00 00 ................
00409510 00 00 00 00 00 00 00 00 00 00 00 00 00 00 00 00 ................
00409520 00 00 00 00 00 00 00 00 00 00 00 00 00 00 00 00 ................
00409530 00 00 00 00 00 00 00 00 00 00 00 00 00 00 00 00 ................
00409540 00 00 00 00 00 00 00 00 00 00 00 00 00 00 00 00 ................
00409550 00 00 00 00 00 00 00 00 00 00 00 00 00 00 00 00 ................
00409560 00 00 00 00 00 00 00 00 00 00 00 00 00 00 00 00 ................
00409570 00 00 00 00 00 00 00 00 00 00 00 00 00 00 00 00 ................
00409580 00 00 00 00 00 00 00 00 00 00 00 00 00 00 00 00 ................
00409590 00 00 00 00 00 00 00 00 00 00 00 00 00 00 00 00 ................
004095A0 00 00 00 00 00 00 00 00 00 00 00 00 00 00 00 00 ................
004095B0 00 00 00 00 00 00 00 00 00 00 00 00 00 00 00 00 ................
004095C0 00 00 00 00 00 00 00 00 00 00 00 00 00 00 00 00 ................
004095D0 00 00 00 00 00 00 00 00 00 00 00 00 00 00 00 00 ................
004095E0 00 00 00 00 00 00 00 00 00 00 00 00 00 00 00 00 ................
004095F0 00 00 00 00 00 00 00 00 00 00 00 00 00 00 00 00 ................
00409600 00 00 00 00 00 00 00 00 00 00 00 00 00 00 00 00 ................
00409610 00 00 00 00 00 00 00 00 00 00 00 00 00 00 00 00 ................
00409620 00 00 00 00 00 00 00 00 00 00 00 00 00 00 00 00 ................
00409630 00 00 00 00 00 00 00 00 00 00 00 00 00 00 00 00 ................
00409640 00 00 00 00 00 00 00 00 00 00 00 00 00 00 00 00 ................
00409650 00 00 00 00 00 00 00 00 00 00 00 00 00 00 00 00 ................
00409660 00 00 00 00 00 00 00 00 00 00 00 00 00 00 00 00 ................
00409670 00 00 00 00 00 00 00 00 00 00 00 00 00 00 00 00 ................
00409680 00 00 00 00 00 00 00 00 00 00 00 00 00 00 00 00 ................
00409690 00 00 00 00 00 00 00 00 00 00 00 00 00 00 00 00 ................
004096A0 00 00 00 00 00 00 00 00 00 00 00 00 00 00 00 00 ................
004096B0 00 00 00 00 00 00 00 00 00 00 00 00 00 00 00 00 ................
004096C0 00 00 00 00 00 00 00 00 00 00 00 00 00 00 00 00 ................
004096D0 00 00 00 00 00 00 00 00 00 00 00 00 00 00 00 00 ................
004096E0 00 00 00 00 00 00 00 00 00 00 00 00 00 00 00 00 ................
004096F0 00 00 00 00 00 00 00 00 00 00 00 00 00 00 00 00 ................
00409700 00 00 00 00 00 00 00 00 00 00 00 00 00 00 00 00 ................
00409710 00 00 00 00 00 00 00 00 00 00 00 00 00 00 00 00 ................
00409720 00 00 00 00 00 00 00 00 00 00 00 00 00 00 00 00 ................
00409730 00 00 00 00 00 00 00 00 00 00 00 00 00 00 00 00 ................
00409740 00 00 00 00 00 00 00 00 00 00 00 00 00 00 00 00 ................
00409750 00 00 00 00 00 00 00 00 00 00 00 00 00 00 00 00 ................
00409760 00 00 00 00 00 00 00 00 00 00 00 00 00 00 00 00 ................
00409770 00 00 00 00 00 00 00 00 00 00 00 00 00 00 00 00 ................
00409780 00 00 00 00 00 00 00 00 00 00 00 00 00 00 00 00 ................
00409790 00 00 00 00 00 00 00 00 00 00 00 00 00 00 00 00 ................
004097A0 00 00 00 00 00 00 00 00 00 00 00 00 00 00 00 00 ................
004097B0 00 00 00 00 00 00 00 00 00 00 00 00 00 00 00 00 ................
004097C0 00 00 00 00 00 00 00 00 00 00 00 00 00 00 00 00 ................
004097D0 00 00 00 00 00 00 00 00 00 00 00 00 00 00 00 00 ................
004097E0 00 00 00 00 00 00 00 00 00 00 00 00 00 00 00 00 ................
004097F0 00 00 00 00 00 00 00 00 00 00 00 00 00 00 00 00 ................
00409800 00 00 00 00 00 00 00 00 00 00 00 00 00 00 00 00 ................
00409810 00 00 00 00 00 00 00 00 00 00 00 00 00 00 00 00 ................
00409820 00 00 00 00 00 00 00 00 00 00 00 00 00 00 00 00 ................
00409830 00 00 00 00 00 00 00 00 00 00 00 00 00 00 00 00 ................
00409840 00 00 00 00 00 00 00 00 00 00 00 00 00 00 00 00 ................
00409850 00 00 00 00 00 00 00 00 00 00 00 00 00 00 00 00 ................
00409860 00 00 00 00 00 00 00 00 00 00 00 00 00 00 00 00 ................
00409870 00 00 00 00 00 00 00 00 00 00 00 00 00 00 00 00 ................
00409880 00 00 00 00 00 00 00 00 00 00 00 00 00 00 00 00 ................
00409890 00 00 00 00 00 00 00 00 00 00 00 00 00 00 00 00 ................
004098A0 00 00 00 00 00 00 00 00 00 00 00 00 00 00 00 00 ................
004098B0 00 00 00 00 00 00 00 00 00 00 00 00 00 00 00 00 ................
004098C0 00 00 00 00 00 00 00 00 00 00 00 00 00 00 00 00 ................
004098D0 00 00 00 00 00 00 00 00 00 00 00 00 00 00 00 00 ................
004098E0 00 00 00 00 00 00 00 00 00 00 00 00 00 00 00 00 ................
004098F0 00 00 00 00 00 00 00 00 00 00 00 00 00 00 00 00 ................
00409900 00 00 00 00 00 00 00 00 00 00 00 00 00 00 00 00 ................
00409910 00 00 00 00 00 00 00 00 00 00 00 00 00 00 00 00 ................
00409920 00 00 00 00 00 00 00 00 00 00 00 00 00 00 00 00 ................
00409930 00 00 00 00 00 00 00 00 00 00 00 00 00 00 00 00 ................
00409940 00 00 00 00 00 00 00 00 00 00 00 00 00 00 00 00 ................
00409950 00 00 00 00 00 00 00 00 00 00 00 00 00 00 00 00 ................
00409960 00 00 00 00 00 00 00 00 00 00 00 00 00 00 00 00 ................
00409970 00 00 00 00 00 00 00 00 00 00 00 00 00 00 00 00 ................
00409980 00 00 00 00 00 00 00 00 00 00 00 00 00 00 00 00 ................
00409990 00 00 00 00 00 00 00 00 00 00 00 00 00 00 00 00 ................
004099A0 00 00 00 00 00 00 00 00 00 00 00 00 00 00 00 00 ................
004099B0 00 00 00 00 00 00 00 00 00 00 00 00 00 00 00 00 ................
004099C0 00 00 00 00 00 00 00 00 00 00 00 00 00 00 00 00 ................
004099D0 00 00 00 00 00 00 00 00 00 00 00 00 00 00 00 00 ................
004099E0 00 00 00 00 00 00 00 00 00 00 00 00 00 00 00 00 ................
004099F0 00 00 00 00 00 00 00 00 00 00 00 00 00 00 00 00 ................
00409A00 00 00 00 00 00 00 00 00 00 00 00 00 00 00 00 00 ................
00409A10 00 00 00 00 00 00 00 00 00 00 00 00 00 00 00 00 ................
00409A20 00 00 00 00 00 00 00 00 00 00 00 00 00 00 00 00 ................
00409A30 00 00 00 00 00 00 00 00 00 00 00 00 00 00 00 00 ................
00409A40 00 00 00 00 00 00 00 00 00 00 00 00 00 00 00 00 ................
00409A50 00 00 00 00 00 00 00 00 00 00 00 00 00 00 00 00 ................
00409A60 00 00 00 00 00 00 00 00 00 00 00 00 00 00 00 00 ................
00409A70 00 00 00 00 00 00 00 00 00 00 00 00 00 00 00 00 ................
00409A80 00 00 00 00 00 00 00 00 00 00 00 00 00 00 00 00 ................
00409A90 00 00 00 00 00 00 00 00 00 00 00 00 00 00 00 00 ................
00409AA0 00 00 00 00 00 00 00 00 00 00 00 00 00 00 00 00 ................
00409AB0 00 00 00 00 00 00 00 00 00 00 00 00 00 00 00 00 ................
00409AC0 00 00 00 00 00 00 00 00 00 00 00 00 00 00 00 00 ................
00409AD0 00 00 00 00 00 00 00 00 00 00 00 00 00 00 00 00 ................
00409AE0 00 00 00 00 00 00 00 00 00 00 00 00 00 00 00 00 ................
00409AF0 00 00 00 00 00 00 00 00 00 00 00 00 00 00 00 00 ................
00409B00 00 00 00 00 00 00 00 00 00 00 00 00 00 00 00 00 ................
00409B10 00 00 00 00 00 00 00 00 00 00 00 00 00 00 00 00 ................
00409B20 00 00 00 00 00 00 00 00 00 00 00 00 00 00 00 00 ................
00409B30 00 00 00 00 00 00 00 00 00 00 00 00 00 00 00 00 ................
00409B40 00 00 00 00 00 00 00 00 00 00 00 00 00 00 00 00 ................
00409B50 00 00 00 00 00 00 00 00 00 00 00 00 00 00 00 00 ................
00409B60 00 00 00 00 00 00 00 00 00 00 00 00 00 00 00 00 ................
00409B70 00 00 00 00 00 00 00 00 00 00 00 00 00 00 00 00 ................
00409B80 00 00 00 00 00 00 00 00 00 00 00 00 00 00 00 00 ................
00409B90 00 00 00 00 00 00 00 00 00 00 00 00 00 00 00 00 ................
00409BA0 00 00 00 00 00 00 00 00 00 00 00 00 00 00 00 00 ................
00409BB0 00 00 00 00 00 00 00 00 00 00 00 00 00 00 00 00 ................
00409BC0 00 00 00 00 00 00 00 00 00 00 00 00 00 00 00 00 ................
00409BD0 00 00 00 00 00 00 00 00 00 00 00 00 00 00 00 00 ................
00409BE0 00 00 00 00 00 00 00 00 00 00 00 00 00 00 00 00 ................
00409BF0 00 00 00 00 00 00 00 00 00 00 00 00 00 00 00 00 ................
00409C00 00 00 00 00 00 00 00 00 00 00 00 00 00 00 00 00 ................
00409C10 00 00 00 00 00 00 00 00 00 00 00 00 00 00 00 00 ................
00409C20 00 00 00 00 00 00 00 00 00 00 00 00 00 00 00 00 ................
00409C30 00 00 00 00 00 00 00 00 00 00 00 00 00 00 00 00 ................
00409C40 00 00 00 00 00 00 00 00 00 00 00 00 00 00 00 00 ................
00409C50 00 00 00 00 00 00 00 00 00 00 00 00 00 00 00 00 ................
00409C60 00 00 00 00 00 00 00 00 00 00 00 00 00 00 00 00 ................
00409C70 00 00 00 00 00 00 00 00 00 00 00 00 00 00 00 00 ................
00409C80 00 00 00 00 00 00 00 00 00 00 00 00 00 00 00 00 ................
00409C90 00 00 00 00 00 00 00 00 00 00 00 00 00 00 00 00 ................
00409CA0 00 00 00 00 00 00 00 00 00 00 00 00 00 00 00 00 ................
00409CB0 00 00 00 00 00 00 00 00 00 00 00 00 00 00 00 00 ................
00409CC0 00 00 00 00 00 00 00 00 00 00 00 00 00 00 00 00 ................
00409CD0 00 00 00 00 00 00 00 00 00 00 00 00 00 00 00 00 ................
00409CE0 00 00 00 00 00 00 00 00 00 00 00 00 00 00 00 00 ................
00409CF0 00 00 00 00 00 00 00 00 00 00 00 00 00 00 00 00 ................
00409D00 00 00 00 00 00 00 00 00 00 00 00 00 00 00 00 00 ................
00409D10 00 00 00 00 00 00 00 00 00 00 00 00 00 00 00 00 ................
00409D20 00 00 00 00 00 00 00 00 00 00 00 00 00 00 00 00 ................
00409D30 00 00 00 00 00 00 00 00 00 00 00 00 00 00 00 00 ................
00409D40 00 00 00 00 00 00 00 00 00 00 00 00 00 00 00 00 ................
00409D50 00 00 00 00 00 00 00 00 00 00 00 00 00 00 00 00 ................
00409D60 00 00 00 00 00 00 00 00 00 00 00 00 00 00 00 00 ................
00409D70 00 00 00 00 00 00 00 00 00 00 00 00 00 00 00 00 ................
00409D80 00 00 00 00 00 00 00 00 00 00 00 00 00 00 00 00 ................
00409D90 00 00 00 00 00 00 00 00 00 00 00 00 00 00 00 00 ................
00409DA0 00 00 00 00 00 00 00 00 00 00 00 00 00 00 00 00 ................
00409DB0 00 00 00 00 00 00 00 00 00 00 00 00 00 00 00 00 ................
00409DC0 00 00 00 00 00 00 00 00 00 00 00 00 00 00 00 00 ................
00409DD0 00 00 00 00 00 00 00 00 00 00 00 00 00 00 00 00 ................
00409DE0 00 00 00 00 00 00 00 00 00 00 00 00 00 00 00 00 ................
00409DF0 00 00 00 00 00 00 00 00 00 00 00 00 00 00 00 00 ................
00409E00 00 00 00 00 00 00 00 00 00 00 00 00 00 00 00 00 ................
00409E10 00 00 00 00 00 00 00 00 00 00 00 00 00 00 00 00 ................
00409E20 00 00 00 00 00 00 00 00 00 00 00 00 00 00 00 00 ................
00409E30 00 00 00 00 00 00 00 00 00 00 00 00 00 00 00 00 ................
00409E40 00 00 00 00 00 00 00 00 00 00 00 00 00 00 00 00 ................
00409E50 00 00 00 00 00 00 00 00 00 00 00 00 00 00 00 00 ................
00409E60 00 00 00 00 00 00 00 00 00 00 00 00 00 00 00 00 ................
00409E70 00 00 00 00 00 00 00 00 00 00 00 00 00 00 00 00 ................
00409E80 00 00 00 00 00 00 00 00 00 00 00 00 00 00 00 00 ................
00409E90 00 00 00 00 00 00 00 00 00 00 00 00 00 00 00 00 ................
00409EA0 00 00 00 00 00 00 00 00 00 00 00 00 00 00 00 00 ................
00409EB0 00 00 00 00 00 00 00 00 00 00 00 00 00 00 00 00 ................
00409EC0 00 00 00 00 00 00 00 00 00 00 00 00 00 00 00 00 ................
00409ED0 00 00 00 00 00 00 00 00 00 00 00 00 00 00 00 00 ................
00409EE0 00 00 00 00 00 00 00 00 00 00 00 00 00 00 00 00 ................
00409EF0 00 00 00 00 00 00 00 00 00 00 00 00 00 00 00 00 ................
00409F00 00 00 00 00 00 00 00 00 00 00 00 00 00 00 00 00 ................
00409F10 00 00 00 00 00 00 00 00 00 00 00 00 00 00 00 00 ................
00409F20 00 00 00 00 00 00 00 00 00 00 00 00 00 00 00 00 ................
00409F30 00 00 00 00 00 00 00 00 00 00 00 00 00 00 00 00 ................
00409F40 00 00 00 00 00 00 00 00 00 00 00 00 00 00 00 00 ................
00409F50 00 00 00 00 00 00 00 00 00 00 00 00 00 00 00 00 ................
00409F60 00 00 00 00 00 00 00 00 00 00 00 00 00 00 00 00 ................
00409F70 00 00 00 00 00 00 00 00 00 00 00 00 00 00 00 00 ................
00409F80 00 00 00 00 00 00 00 00 00 00 00 00 00 00 00 00 ................
00409F90 00 00 00 00 00 00 00 00 00 00 00 00 00 00 00 00 ................
00409FA0 00 00 00 00 00 00 00 00 00 00 00 00 00 00 00 00 ................
00409FB0 00 00 00 00 00 00 00 00 00 00 00 00 00 00 00 00 ................
00409FC0 00 00 00 00 00 00 00 00 00 00 00 00 00 00 00 00 ................
00409FD0 00 00 00 00 00 00 00 00 00 00 00 00 00 00 00 00 ................
00409FE0 00 00 00 00 00 00 00 00 00 00 00 00 00 00 00 00 ................
00409FF0 00 00 00 00 00 00 00 00 00 00 00 00 00 00 00 00 ................
0040A000 00 00 00 00 00 00 00 00 00 00 00 00 00 00 00 00 ................
0040A010 00 00 00 00 00 00 00 00 00 00 00 00 00 00 00 00 ................
0040A020 00 00 00 00 00 00 00 00 00 00 00 00 00 00 00 00 ................
0040A030 00 00 00 00 00 00 00 00 00 00 00 00 00 00 00 00 ................
0040A040 00 00 00 00 00 00 00 00 00 00 00 00 00 00 00 00 ................
0040A050 00 00 00 00 00 00 00 00 00 00 00 00 00 00 00 00 ................
0040A060 00 00 00 00 00 00 00 00 00 00 00 00 00 00 00 00 ................
0040A070 00 00 00 00 00 00 00 00 00 00 00 00 00 00 00 00 ................
0040A080 00 00 00 00 00 00 00 00 00 00 00 00 00 00 00 00 ................
0040A090 00 00 00 00 00 00 00 00 00 00 00 00 00 00 00 00 ................
0040A0A0 00 00 00 00 00 00 00 00 00 00 00 00 00 00 00 00 ................
0040A0B0 00 00 00 00 00 00 00 00 00 00 00 00 00 00 00 00 ................
0040A0C0 00 00 00 00 00 00 00 00 00 00 00 00 00 00 00 00 ................
0040A0D0 00 00 00 00 00 00 00 00 00 00 00 00 00 00 00 00 ................
0040A0E0 00 00 00 00 00 00 00 00 00 00 00 00 00 00 00 00 ................
0040A0F0 00 00 00 00 00 00 00 00 00 00 00 00 00 00 00 00 ................
0040A100 00 00 00 00 00 00 00 00 00 00 00 00 00 00 00 00 ................
0040A110 00 00 00 00 00 00 00 00 00 00 00 00 00 00 00 00 ................
0040A120 00 00 00 00 00 00 00 00 00 00 00 00 00 00 00 00 ................
0040A130 00 00 00 00 00 00 00 00 00 00 00 00 00 00 00 00 ................
0040A140 00 00 00 00 00 00 00 00 00 00 00 00 00 00 00 00 ................
0040A150 00 00 00 00 00 00 00 00 00 00 00 00 00 00 00 00 ................
0040A160 00 00 00 00 00 00 00 00 00 00 00 00 00 00 00 00 ................
0040A170 00 00 00 00 00 00 00 00 00 00 00 00 00 00 00 00 ................
0040A180 00 00 00 00 00 00 00 00 00 00 00 00 00 00 00 00 ................
0040A190 00 00 00 00 00 00 00 00 00 00 00 00 00 00 00 00 ................
0040A1A0 00 00 00 00 00 00 00 00 00 00 00 00 00 00 00 00 ................
0040A1B0 00 00 00 00 00 00 00 00 00 00 00 00 00 00 00 00 ................
0040A1C0 00 00 00 00 00 00 00 00 00 00 00 00 00 00 00 00 ................
0040A1D0 00 00 00 00 00 00 00 00 00 00 00 00 00 00 00 00 ................
0040A1E0 00 00 00 00 00 00 00 00 00 00 00 00 00 00 00 00 ................
0040A1F0 00 00 00 00 00 00 00 00 00 00 00 00 00 00 00 00 ................
0040A200 00 00 00 00 00 00 00 00 00 00 00 00 00 00 00 00 ................
0040A210 00 00 00 00 00 00 00 00 00 00 00 00 00 00 00 00 ................
0040A220 00 00 00 00 00 00 00 00 00 00 00 00 00 00 00 00 ................
0040A230 00 00 00 00 00 00 00 00 00 00 00 00 00 00 00 00 ................
0040A240 00 00 00 00 00 00 00 00 00 00 00 00 00 00 00 00 ................
0040A250 00 00 00 00 00 00 00 00 00 00 00 00 00 00 00 00 ................
0040A260 00 00 00 00 00 00 00 00 00 00 00 00 00 00 00 00 ................
0040A270 00 00 00 00 00 00 00 00 00 00 00 00 00 00 00 00 ................
0040A280 00 00 00 00 00 00 00 00 00 00 00 00 00 00 00 00 ................
0040A290 00 00 00 00 00 00 00 00 00 00 00 00 00 00 00 00 ................
0040A2A0 00 00 00 00 00 00 00 00 00 00 00 00 00 00 00 00 ................
0040A2B0 00 00 00 00 00 00 00 00 00 00 00 00 00 00 00 00 ................
0040A2C0 00 00 00 00 00 00 00 00 00 00 00 00 00 00 00 00 ................
0040A2D0 00 00 00 00 00 00 00 00 00 00 00 00 00 00 00 00 ................
0040A2E0 00 00 00 00 00 00 00 00 00 00 00 00 00 00 00 00 ................
0040A2F0 00 00 00 00 00 00 00 00 00 00 00 00 00 00 00 00 ................
0040A300 00 00 00 00 00 00 00 00 00 00 00 00 00 00 00 00 ................
0040A310 00 00 00 00 00 00 00 00 00 00 00 00 00 00 00 00 ................
0040A320 00 00 00 00 00 00 00 00 00 00 00 00 00 00 00 00 ................
0040A330 00 00 00 00 00 00 00 00 00 00 00 00 00 00 00 00 ................
0040A340 00 00 00 00 00 00 00 00 00 00 00 00 00 00 00 00 ................
0040A350 00 00 00 00 00 00 00 00 00 00 00 00 00 00 00 00 ................
0040A360 00 00 00 00 00 00 00 00 00 00 00 00 00 00 00 00 ................
0040A370 00 00 00 00 00 00 00 00 00 00 00 00 00 00 00 00 ................
0040A380 00 00 00 00 00 00 00 00 00 00 00 00 00 00 00 00 ................
0040A390 00 00 00 00 00 00 00 00 00 00 00 00 00 00 00 00 ................
0040A3A0 00 00 00 00 00 00 00 00 00 00 00 00 00 00 00 00 ................
0040A3B0 00 00 00 00 00 00 00 00 00 00 00 00 00 00 00 00 ................
0040A3C0 00 00 00 00 00 00 00 00 00 00 00 00 00 00 00 00 ................
0040A3D0 00 00 00 00 00 00 00 00 00 00 00 00 00 00 00 00 ................
0040A3E0 00 00 00 00 00 00 00 00 00 00 00 00 00 00 00 00 ................
0040A3F0 00 00 00 00 00 00 00 00 00 00 00 00 00 00 00 00 ................
0040A400 00 00 00 00 00 00 00 00 00 00 00 00 00 00 00 00 ................
0040A410 00 00 00 00 00 00 00 00 00 00 00 00 00 00 00 00 ................
0040A420 00 00 00 00 00 00 00 00 00 00 00 00 00 00 00 00 ................
0040A430 00 00 00 00 00 00 00 00 00 00 00 00 00 00 00 00 ................
0040A440 00 00 00 00 00 00 00 00 00 00 00 00 00 00 00 00 ................
0040A450 00 00 00 00 00 00 00 00 00 00 00 00 00 00 00 00 ................
0040A460 00 00 00 00 00 00 00 00 00 00 00 00 00 00 00 00 ................
0040A470 00 00 00 00 00 00 00 00 00 00 00 00 00 00 00 00 ................
0040A480 00 00 00 00 00 00 00 00 00 00 00 00 00 00 00 00 ................
0040A490 00 00 00 00 00 00 00 00 00 00 00 00 00 00 00 00 ................
0040A4A0 00 00 00 00 00 00 00 00 00 00 00 00 00 00 00 00 ................
0040A4B0 00 00 00 00 00 00 00 00 00 00 00 00 00 00 00 00 ................
0040A4C0 00 00 00 00 00 00 00 00 00 00 00 00 00 00 00 00 ................
0040A4D0 00 00 00 00 00 00 00 00 00 00 00 00 00 00 00 00 ................
0040A4E0 00 00 00 00 00 00 00 00 00 00 00 00 00 00 00 00 ................
0040A4F0 00 00 00 00 00 00 00 00 00 00 00 00 00 00 00 00 ................
0040A500 00 00 00 00 00 00 00 00 00 00 00 00 00 00 00 00 ................
0040A510 00 00 00 00 00 00 00 00 00 00 00 00 00 00 00 00 ................
0040A520 00 00 00 00 00 00 00 00 00 00 00 00 00 00 00 00 ................
0040A530 00 00 00 00 00 00 00 00 00 00 00 00 00 00 00 00 ................
0040A540 00 00 00 00 00 00 00 00 00 00 00 00 00 00 00 00 ................
0040A550 00 00 00 00 00 00 00 00 00 00 00 00 00 00 00 00 ................
0040A560 00 00 00 00 00 00 00 00 00 00 00 00 00 00 00 00 ................
0040A570 00 00 00 00 00 00 00 00 00 00 00 00 00 00 00 00 ................
0040A580 00 00 00 00 00 00 00 00 00 00 00 00 00 00 00 00 ................
0040A590 00 00 00 00 00 00 00 00 00 00 00 00 00 00 00 00 ................
0040A5A0 00 00 00 00 00 00 00 00 00 00 00 00 00 00 00 00 ................
0040A5B0 00 00 00 00 00 00 00 00 00 00 00 00 00 00 00 00 ................
0040A5C0 00 00 00 00 00 00 00 00 00 00 00 00 00 00 00 00 ................
0040A5D0 00 00 00 00 00 00 00 00 00 00 00 00 00 00 00 00 ................
0040A5E0 00 00 00 00 00 00 00 00 00 00 00 00 00 00 00 00 ................
0040A5F0 00 00 00 00 00 00 00 00 00 00 00 00 00 00 00 00 ................
0040A600 00 00 00 00 00 00 00 00 00 00 00 00 00 00 00 00 ................
0040A610 00 00 00 00 00 00 00 00 00 00 00 00 00 00 00 00 ................
0040A620 00 00 00 00 00 00 00 00 00 00 00 00 00 00 00 00 ................
0040A630 00 00 00 00 00 00 00 00 00 00 00 00 00 00 00 00 ................
0040A640 00 00 00 00 00 00 00 00 00 00 00 00 00 00 00 00 ................
0040A650 00 00 00 00 00 00 00 00 00 00 00 00 00 00 00 00 ................
0040A660 00 00 00 00 00 00 00 00 00 00 00 00 00 00 00 00 ................
0040A670 00 00 00 00 00 00 00 00 00 00 00 00 00 00 00 00 ................
0040A680 00 00 00 00 00 00 00 00 00 00 00 00 00 00 00 00 ................
0040A690 00 00 00 00 00 00 00 00 00 00 00 00 00 00 00 00 ................
0040A6A0 00 00 00 00 00 00 00 00 00 00 00 00 00 00 00 00 ................
0040A6B0 00 00 00 00 00 00 00 00 00 00 00 00 00 00 00 00 ................
0040A6C0 00 00 00 00 00 00 00 00 00 00 00 00 00 00 00 00 ................
0040A6D0 00 00 00 00 00 00 00 00 00 00 00 00 00 00 00 00 ................
0040A6E0 00 00 00 00 00 00 00 00 00 00 00 00 00 00 00 00 ................
0040A6F0 00 00 00 00 00 00 00 00 00 00 00 00 00 00 00 00 ................
0040A700 00 00 00 00 00 00 00 00 00 00 00 00 00 00 00 00 ................
0040A710 00 00 00 00 00 00 00 00 00 00 00 00 00 00 00 00 ................
0040A720 00 00 00 00 00 00 00 00 00 00 00 00 00 00 00 00 ................
0040A730 00 00 00 00 00 00 00 00 00 00 00 00 00 00 00 00 ................
0040A740 00 00 00 00 00 00 00 00 00 00 00 00 00 00 00 00 ................
0040A750 00 00 00 00 00 00 00 00 00 00 00 00 00 00 00 00 ................
0040A760 00 00 00 00 00 00 00 00 00 00 00 00 00 00 00 00 ................
0040A770 00 00 00 00 00 00 00 00 00 00 00 00 00 00 00 00 ................
0040A780 00 00 00 00 00 00 00 00 00 00 00 00 00 00 00 00 ................
0040A790 00 00 00 00 00 00 00 00 00 00 00 00 00 00 00 00 ................
0040A7A0 00 00 00 00 00 00 00 00 00 00 00 00 00 00 00 00 ................
0040A7B0 00 00 00 00 00 00 00 00 00 00 00 00 00 00 00 00 ................
0040A7C0 00 00 00 00 00 00 00 00 00 00 00 00 00 00 00 00 ................
0040A7D0 00 00 00 00 00 00 00 00 00 00 00 00 00 00 00 00 ................
0040A7E0 00 00 00 00 00 00 00 00 00 00 00 00 00 00 00 00 ................
0040A7F0 00 00 00 00 00 00 00 00 00 00 00 00 00 00 00 00 ................
0040A800 00 00 00 00 00 00 00 00 00 00 00 00 00 00 00 00 ................
0040A810 00 00 00 00 00 00 00 00 00 00 00 00 00 00 00 00 ................
0040A820 00 00 00 00 00 00 00 00 00 00 00 00 00 00 00 00 ................
0040A830 00 00 00 00 00 00 00 00 00 00 00 00 00 00 00 00 ................
0040A840 00 00 00 00 00 00 00 00 00 00 00 00 00 00 00 00 ................
0040A850 00 00 00 00 00 00 00 00 00 00 00 00 00 00 00 00 ................
0040A860 00 00 00 00 00 00 00 00 00 00 00 00 00 00 00 00 ................
0040A870 00 00 00 00 00 00 00 00 00 00 00 00 00 00 00 00 ................
0040A880 00 00 00 00 00 00 00 00 00 00 00 00 00 00 00 00 ................
0040A890 00 00 00 00 00 00 00 00 00 00 00 00 00 00 00 00 ................
0040A8A0 00 00 00 00 00 00 00 00 00 00 00 00 00 00 00 00 ................
0040A8B0 00 00 00 00 00 00 00 00 00 00 00 00 00 00 00 00 ................
0040A8C0 00 00 00 00 00 00 00 00 00 00 00 00 00 00 00 00 ................
0040A8D0 00 00 00 00 00 00 00 00 00 00 00 00 00 00 00 00 ................
0040A8E0 00 00 00 00 00 00 00 00 00 00 00 00 00 00 00 00 ................
0040A8F0 00 00 00 00 00 00 00 00 00 00 00 00 00 00 00 00 ................
0040A900 00 00 00 00 00 00 00 00 00 00 00 00 00 00 00 00 ................
0040A910 00 00 00 00 00 00 00 00 00 00 00 00 00 00 00 00 ................
0040A920 00 00 00 00 00 00 00 00 00 00 00 00 00 00 00 00 ................
0040A930 00 00 00 00 00 00 00 00 00 00 00 00 00 00 00 00 ................
0040A940 00 00 00 00 00 00 00 00 00 00 00 00 00 00 00 00 ................
0040A950 00 00 00 00 00 00 00 00 00 00 00 00 00 00 00 00 ................
0040A960 00 00 00 00 00 00 00 00 00 00 00 00 00 00 00 00 ................
0040A970 00 00 00 00 00 00 00 00 00 00 00 00 00 00 00 00 ................
0040A980 00 00 00 00 00 00 00 00 00 00 00 00 00 00 00 00 ................
0040A990 00 00 00 00 00 00 00 00 00 00 00 00 00 00 00 00 ................
0040A9A0 00 00 00 00 00 00 00 00 00 00 00 00 00 00 00 00 ................
0040A9B0 00 00 00 00 00 00 00 00 00 00 00 00 00 00 00 00 ................
0040A9C0 00 00 00 00 00 00 00 00 00 00 00 00 00 00 00 00 ................
0040A9D0 00 00 00 00 00 00 00 00 00 00 00 00 00 00 00 00 ................
0040A9E0 00 00 00 00 00 00 00 00 00 00 00 00 00 00 00 00 ................
0040A9F0 00 00 00 00 00 00 00 00 00 00 00 00 00 00 00 00 ................
0040AA00 00 00 00 00 00 00 00 00 00 00 00 00 00 00 00 00 ................
0040AA10 00 00 00 00 00 00 00 00 00 00 00 00 00 00 00 00 ................
0040AA20 00 00 00 00 00 00 00 00 00 00 00 00 00 00 00 00 ................
0040AA30 00 00 00 00 00 00 00 00 00 00 00 00 00 00 00 00 ................
0040AA40 00 00 00 00 00 00 00 00 00 00 00 00 00 00 00 00 ................
0040AA50 00 00 00 00 00 00 00 00 00 00 00 00 00 00 00 00 ................
0040AA60 00 00 00 00 00 00 00 00 00 00 00 00 00 00 00 00 ................
0040AA70 00 00 00 00 00 00 00 00 00 00 00 00 00 00 00 00 ................
0040AA80 00 00 00 00 00 00 00 00 00 00 00 00 00 00 00 00 ................
0040AA90 00 00 00 00 00 00 00 00 00 00 00 00 00 00 00 00 ................
0040AAA0 00 00 00 00 00 00 00 00 00 00 00 00 00 00 00 00 ................
0040AAB0 00 00 00 00 00 00 00 00 00 00 00 00 00 00 00 00 ................
0040AAC0 00 00 00 00 00 00 00 00 00 00 00 00 00 00 00 00 ................
0040AAD0 00 00 00 00 00 00 00 00 00 00 00 00 00 00 00 00 ................
0040AAE0 00 00 00 00 00 00 00 00 00 00 00 00 00 00 00 00 ................
0040AAF0 00 00 00 00 00 00 00 00 00 00 00 00 00 00 00 00 ................
0040AB00 00 00 00 00 00 00 00 00 00 00 00 00 00 00 00 00 ................
0040AB10 00 00 00 00 00 00 00 00 00 00 00 00 00 00 00 00 ................
0040AB20 00 00 00 00 00 00 00 00 00 00 00 00 00 00 00 00 ................
0040AB30 00 00 00 00 00 00 00 00 00 00 00 00 00 00 00 00 ................
0040AB40 00 00 00 00 00 00 00 00 00 00 00 00 00 00 00 00 ................
0040AB50 00 00 00 00 00 00 00 00 00 00 00 00 00 00 00 00 ................
0040AB60 00 00 00 00 00 00 00 00 00 00 00 00 00 00 00 00 ................
0040AB70 00 00 00 00 00 00 00 00 00 00 00 00 00 00 00 00 ................
0040AB80 00 00 00 00 00 00 00 00 00 00 00 00 00 00 00 00 ................
0040AB90 00 00 00 00 00 00 00 00 00 00 00 00 00 00 00 00 ................
0040ABA0 00 00 00 00 00 00 00 00 00 00 00 00 00 00 00 00 ................
0040ABB0 00 00 00 00 00 00 00 00 00 00 00 00 00 00 00 00 ................
0040ABC0 00 00 00 00 00 00 00 00 00 00 00 00 00 00 00 00 ................
0040ABD0 00 00 00 00 00 00 00 00 00 00 00 00 00 00 00 00 ................
0040ABE0 00 00 00 00 00 00 00 00 00 00 00 00 00 00 00 00 ................
0040ABF0 00 00 00 00 00 00 00 00 00 00 00 00 00 00 00 00 ................
0040AC00 00 00 00 00 00 00 00 00 00 00 00 00 00 00 00 00 ................
0040AC10 00 00 00 00 00 00 00 00 00 00 00 00 00 00 00 00 ................
0040AC20 00 00 00 00 00 00 00 00 00 00 00 00 00 00 00 00 ................
0040AC30 00 00 00 00 00 00 00 00 00 00 00 00 00 00 00 00 ................
0040AC40 00 00 00 00 00 00 00 00 00 00 00 00 00 00 00 00 ................
0040AC50 00 00 00 00 00 00 00 00 00 00 00 00 00 00 00 00 ................
0040AC60 00 00 00 00 00 00 00 00 00 00 00 00 00 00 00 00 ................
0040AC70 00 00 00 00 00 00 00 00 00 00 00 00 00 00 00 00 ................
0040AC80 00 00 00 00 00 00 00 00 00 00 00 00 00 00 00 00 ................
0040AC90 00 00 00 00 00 00 00 00 00 00 00 00 00 00 00 00 ................
0040ACA0 00 00 00 00 00 00 00 00 00 00 00 00 00 00 00 00 ................
0040ACB0 00 00 00 00 00 00 00 00 00 00 00 00 00 00 00 00 ................
0040ACC0 00 00 00 00 00 00 00 00 00 00 00 00 00 00 00 00 ................
0040ACD0 00 00 00 00 00 00 00 00 00 00 00 00 00 00 00 00 ................
0040ACE0 00 00 00 00 00 00 00 00 00 00 00 00 00 00 00 00 ................
0040ACF0 00 00 00 00 00 00 00 00 00 00 00 00 00 00 00 00 ................
0040AD00 00 00 00 00 00 00 00 00 00 00 00 00 00 00 00 00 ................
0040AD10 00 00 00 00 00 00 00 00 00 00 00 00 00 00 00 00 ................
0040AD20 00 00 00 00 00 00 00 00 00 00 00 00 00 00 00 00 ................
0040AD30 00 00 00 00 00 00 00 00 00 00 00 00 00 00 00 00 ................
0040AD40 00 00 00 00 00 00 00 00 00 00 00 00 00 00 00 00 ................
0040AD50 00 00 00 00 00 00 00 00 00 00 00 00 00 00 00 00 ................
0040AD60 00 00 00 00 00 00 00 00 00 00 00 00 00 00 00 00 ................
0040AD70 00 00 00 00 00 00 00 00 00 00 00 00 00 00 00 00 ................
0040AD80 00 00 00 00 00 00 00 00 00 00 00 00 00 00 00 00 ................
0040AD90 00 00 00 00 00 00 00 00 00 00 00 00 00 00 00 00 ................
0040ADA0 00 00 00 00 00 00 00 00 00 00 00 00 00 00 00 00 ................
0040ADB0 00 00 00 00 00 00 00 00 00 00 00 00 00 00 00 00 ................
0040ADC0 00 00 00 00 00 00 00 00 00 00 00 00 00 00 00 00 ................
0040ADD0 00 00 00 00 00 00 00 00 00 00 00 00 00 00 00 00 ................
0040ADE0 00 00 00 00 00 00 00 00 00 00 00 00 00 00 00 00 ................
0040ADF0 00 00 00 00 00 00 00 00 00 00 00 00 00 00 00 00 ................
0040AE00 00 00 00 00 00 00 00 00 00 00 00 00 00 00 00 00 ................
0040AE10 00 00 00 00 00 00 00 00 00 00 00 00 00 00 00 00 ................
0040AE20 00 00 00 00 00 00 00 00 00 00 00 00 00 00 00 00 ................
0040AE30 00 00 00 00 00 00 00 00 00 00 00 00 00 00 00 00 ................
0040AE40 00 00 00 00 00 00 00 00 00 00 00 00 00 00 00 00 ................
0040AE50 00 00 00 00 00 00 00 00 00 00 00 00 00 00 00 00 ................
0040AE60 00 00 00 00 00 00 00 00 00 00 00 00 00 00 00 00 ................
0040AE70 00 00 00 00 00 00 00 00 00 00 00 00 00 00 00 00 ................
0040AE80 00 00 00 00 00 00 00 00 00 00 00 00 00 00 00 00 ................
0040AE90 00 00 00 00 00 00 00 00 00 00 00 00 00 00 00 00 ................
0040AEA0 00 00 00 00 00 00 00 00 00 00 00 00 00 00 00 00 ................
0040AEB0 00 00 00 00 00 00 00 00 00 00 00 00 00 00 00 00 ................
0040AEC0 00 00 00 00 00 00 00 00 00 00 00 00 00 00 00 00 ................
0040AED0 00 00 00 00 00 00 00 00 00 00 00 00 00 00 00 00 ................
0040AEE0 00 00 00 00 00 00 00 00 00 00 00 00 00 00 00 00 ................
0040AEF0 00 00 00 00 00 00 00 00 00 00 00 00 00 00 00 00 ................
0040AF00 00 00 00 00 00 00 00 00 00 00 00 00 00 00 00 00 ................
0040AF10 00 00 00 00 00 00 00 00 00 00 00 00 00 00 00 00 ................
0040AF20 00 00 00 00 00 00 00 00 00 00 00 00 00 00 00 00 ................
0040AF30 00 00 00 00 00 00 00 00 00 00 00 00 00 00 00 00 ................
0040AF40 00 00 00 00 00 00 00 00 00 00 00 00 00 00 00 00 ................
0040AF50 00 00 00 00 00 00 00 00 00 00 00 00 00 00 00 00 ................
0040AF60 00 00 00 00 00 00 00 00 00 00 00 00 00 00 00 00 ................
0040AF70 00 00 00 00 00 00 00 00 00 00 00 00 00 00 00 00 ................
0040AF80 00 00 00 00 00 00 00 00 00 00 00 00 00 00 00 00 ................
0040AF90 00 00 00 00 00 00 00 00 00 00 00 00 00 00 00 00 ................
0040AFA0 00 00 00 00 00 00 00 00 00 00 00 00 00 00 00 00 ................
0040AFB0 00 00 00 00 00 00 00 00 00 00 00 00 00 00 00 00 ................
0040AFC0 00 00 00 00 00 00 00 00 00 00 00 00 00 00 00 00 ................
0040AFD0 00 00 00 00 00 00 00 00 00 00 00 00 00 00 00 00 ................
0040AFE0 00 00 00 00 00 00 00 00 00 00 00 00 00 00 00 00 ................
0040AFF0 00 00 00 00 00 00 00 00 00 00 00 00 00 00 00 00 ................
0040B000 00 00 00 00 00 00 00 00 00 00 00 00 00 00 00 00 ................
0040B010 00 00 00 00 00 00 00 00 00 00 00 00 00 00 00 00 ................
0040B020 00 00 00 00 00 00 00 00 00 00 00 00 00 00 00 00 ................
0040B030 00 00 00 00 00 00 00 00 00 00 00 00 00 00 00 00 ................
0040B040 00 00 00 00 00 00 00 00 00 00 00 00 00 00 00 00 ................
0040B050 00 00 00 00 00 00 00 00 00 00 00 00 00 00 00 00 ................
0040B060 00 00 00 00 00 00 00 00 00 00 00 00 00 00 00 00 ................
0040B070 00 00 00 00 00 00 00 00 00 00 00 00 00 00 00 00 ................
0040B080 00 00 00 00 00 00 00 00 00 00 00 00 00 00 00 00 ................
0040B090 00 00 00 00 00 00 00 00 00 00 00 00 00 00 00 00 ................
0040B0A0 00 00 00 00 00 00 00 00 00 00 00 00 00 00 00 00 ................
0040B0B0 00 00 00 00 00 00 00 00 00 00 00 00 00 00 00 00 ................
0040B0C0 00 00 00 00 00 00 00 00 00 00 00 00 00 00 00 00 ................
0040B0D0 00 00 00 00 00 00 00 00 00 00 00 00 00 00 00 00 ................
0040B0E0 00 00 00 00 00 00 00 00 00 00 00 00 00 00 00 00 ................
0040B0F0 00 00 00 00 00 00 00 00 00 00 00 00 00 00 00 00 ................
0040B100 00 00 00 00 00 00 00 00 00 00 00 00 00 00 00 00 ................
0040B110 00 00 00 00 00 00 00 00 00 00 00 00 00 00 00 00 ................
0040B120 00 00 00 00 00 00 00 00 00 00 00 00 00 00 00 00 ................
0040B130 00 00 00 00 00 00 00 00 00 00 00 00 00 00 00 00 ................
0040B140 00 00 00 00 00 00 00 00 00 00 00 00 00 00 00 00 ................
0040B150 00 00 00 00 00 00 00 00 00 00 00 00 00 00 00 00 ................
0040B160 00 00 00 00 00 00 00 00 00 00 00 00 00 00 00 00 ................
0040B170 00 00 00 00 00 00 00 00 00 00 00 00 00 00 00 00 ................
0040B180 00 00 00 00 00 00 00 00 00 00 00 00 00 00 00 00 ................
0040B190 00 00 00 00 00 00 00 00 00 00 00 00 00 00 00 00 ................
0040B1A0 00 00 00 00 00 00 00 00 00 00 00 00 00 00 00 00 ................
0040B1B0 00 00 00 00 00 00 00 00 00 00 00 00 00 00 00 00 ................
0040B1C0 00 00 00 00 00 00 00 00 00 00 00 00 00 00 00 00 ................
0040B1D0 00 00 00 00 00 00 00 00 00 00 00 00 00 00 00 00 ................
0040B1E0 00 00 00 00 00 00 00 00 00 00 00 00 00 00 00 00 ................
0040B1F0 00 00 00 00 00 00 00 00 00 00 00 00 00 00 00 00 ................
0040B200 00 00 00 00 00 00 00 00 00 00 00 00 00 00 00 00 ................
0040B210 00 00 00 00 00 00 00 00 00 00 00 00 00 00 00 00 ................
0040B220 00 00 00 00 00 00 00 00 00 00 00 00 00 00 00 00 ................
0040B230 00 00 00 00 00 00 00 00 00 00 00 00 00 00 00 00 ................
0040B240 00 00 00 00 00 00 00 00 00 00 00 00 00 00 00 00 ................
0040B250 00 00 00 00 00 00 00 00 00 00 00 00 00 00 00 00 ................
0040B260 00 00 00 00 00 00 00 00 00 00 00 00 00 00 00 00 ................
0040B270 00 00 00 00 00 00 00 00 00 00 00 00 00 00 00 00 ................
0040B280 00 00 00 00 00 00 00 00 00 00 00 00 00 00 00 00 ................
0040B290 00 00 00 00 00 00 00 00 00 00 00 00 00 00 00 00 ................
0040B2A0 00 00 00 00 00 00 00 00 00 00 00 00 00 00 00 00 ................
0040B2B0 00 00 00 00 00 00 00 00 00 00 00 00 00 00 00 00 ................
0040B2C0 00 00 00 00 00 00 00 00 00 00 00 00 00 00 00 00 ................
0040B2D0 00 00 00 00 00 00 00 00 00 00 00 00 00 00 00 00 ................
0040B2E0 00 00 00 00 00 00 00 00 00 00 00 00 00 00 00 00 ................
0040B2F0 00 00 00 00 00 00 00 00 00 00 00 00 00 00 00 00 ................
0040B300 00 00 00 00 00 00 00 00 00 00 00 00 00 00 00 00 ................
0040B310 00 00 00 00 00 00 00 00 00 00 00 00 00 00 00 00 ................
0040B320 00 00 00 00 00 00 00 00 00 00 00 00 00 00 00 00 ................
0040B330 00 00 00 00 00 00 00 00 00 00 00 00 00 00 00 00 ................
0040B340 00 00 00 00 00 00 00 00 00 00 00 00 00 00 00 00 ................
0040B350 00 00 00 00 00 00 00 00 00 00 00 00 00 00 00 00 ................
0040B360 00 00 00 00 00 00 00 00 00 00 00 00 00 00 00 00 ................
0040B370 00 00 00 00 00 00 00 00 00 00 00 00 00 00 00 00 ................
0040B380 00 00 00 00 00 00 00 00 00 00 00 00 00 00 00 00 ................
0040B390 00 00 00 00 00 00 00 00 00 00 00 00 00 00 00 00 ................
0040B3A0 00 00 00 00 00 00 00 00 00 00 00 00 00 00 00 00 ................
0040B3B0 00 00 00 00 00 00 00 00 00 00 00 00 00 00 00 00 ................
0040B3C0 00 00 00 00 00 00 00 00 00 00 00 00 00 00 00 00 ................
0040B3D0 00 00 00 00 00 00 00 00 00 00 00 00 00 00 00 00 ................
0040B3E0 00 00 00 00 00 00 00 00 00 00 00 00 00 00 00 00 ................
0040B3F0 00 00 00 00 00 00 00 00 00 00 00 00 00 00 00 00 ................
0040B400 00 00 00 00 00 00 00 00 00 00 00 00 00 00 00 00 ................
0040B410 00 00 00 00 00 00 00 00 00 00 00 00 00 00 00 00 ................
0040B420 00 00 00 00 00 00 00 00 00 00 00 00 00 00 00 00 ................
0040B430 00 00 00 00 00 00 00 00 00 00 00 00 00 00 00 00 ................
0040B440 00 00 00 00 00 00 00 00 00 00 00 00 00 00 00 00 ................
0040B450 00 00 00 00 00 00 00 00 00 00 00 00 00 00 00 00 ................
0040B460 00 00 00 00 00 00 00 00 00 00 00 00 00 00 00 00 ................
0040B470 00 00 00 00 00 00 00 00 00 00 00 00 00 00 00 00 ................
0040B480 00 00 00 00 00 00 00 00 00 00 00 00 00 00 00 00 ................
0040B490 00 00 00 00 00 00 00 00 00 00 00 00 00 00 00 00 ................
0040B4A0 00 00 00 00 00 00 00 00 00 00 00 00 00 00 00 00 ................
0040B4B0 00 00 00 00 00 00 00 00 00 00 00 00 00 00 00 00 ................
0040B4C0 00 00 00 00 00 00 00 00 00 00 00 00 00 00 00 00 ................
0040B4D0 00 00 00 00 00 00 00 00 00 00 00 00 00 00 00 00 ................
0040B4E0 00 00 00 00 00 00 00 00 00 00 00 00 00 00 00 00 ................
0040B4F0 00 00 00 00 00 00 00 00 00 00 00 00 00 00 00 00 ................
0040B500 00 00 00 00 00 00 00 00 00 00 00 00 00 00 00 00 ................
0040B510 00 00 00 00 00 00 00 00 00 00 00 00 00 00 00 00 ................
0040B520 00 00 00 00 00 00 00 00 00 00 00 00 00 00 00 00 ................
0040B530 00 00 00 00 00 00 00 00 00 00 00 00 00 00 00 00 ................
0040B540 00 00 00 00 00 00 00 00 00 00 00 00 00 00 00 00 ................
0040B550 00 00 00 00 00 00 00 00 00 00 00 00 00 00 00 00 ................
0040B560 00 00 00 00 00 00 00 00 00 00 00 00 00 00 00 00 ................
0040B570 00 00 00 00 00 00 00 00 00 00 00 00 00 00 00 00 ................
0040B580 00 00 00 00 00 00 00 00 00 00 00 00 00 00 00 00 ................
0040B590 00 00 00 00 00 00 00 00 00 00 00 00 00 00 00 00 ................
0040B5A0 00 00 00 00 00 00 00 00 00 00 00 00 00 00 00 00 ................
0040B5B0 00 00 00 00 00 00 00 00 00 00 00 00 00 00 00 00 ................
0040B5C0 00 00 00 00 00 00 00 00 00 00 00 00 00 00 00 00 ................
0040B5D0 00 00 00 00 00 00 00 00 00 00 00 00 00 00 00 00 ................
0040B5E0 00 00 00 00 00 00 00 00 00 00 00 00 00 00 00 00 ................
0040B5F0 00 00 00 00 00 00 00 00 00 00 00 00 00 00 00 00 ................
0040B600 00 00 00 00 00 00 00 00 00 00 00 00 00 00 00 00 ................
0040B610 00 00 00 00 00 00 00 00 00 00 00 00 00 00 00 00 ................
0040B620 00 00 00 00 00 00 00 00 00 00 00 00 00 00 00 00 ................
0040B630 00 00 00 00 00 00 00 00 00 00 00 00 00 00 00 00 ................
0040B640 00 00 00 00 00 00 00 00 00 00 00 00 00 00 00 00 ................
0040B650 00 00 00 00 00 00 00 00 00 00 00 00 00 00 00 00 ................
0040B660 00 00 00 00 00 00 00 00 00 00 00 00 00 00 00 00 ................
0040B670 00 00 00 00 00 00 00 00 00 00 00 00 00 00 00 00 ................
0040B680 00 00 00 00 00 00 00 00 00 00 00 00 00 00 00 00 ................
0040B690 00 00 00 00 00 00 00 00 00 00 00 00 00 00 00 00 ................
0040B6A0 00 00 00 00 00 00 00 00 00 00 00 00 00 00 00 00 ................
0040B6B0 00 00 00 00 00 00 00 00 00 00 00 00 00 00 00 00 ................
0040B6C0 00 00 00 00 00 00 00 00 00 00 00 00 00 00 00 00 ................
0040B6D0 00 00 00 00 00 00 00 00 00 00 00 00 00 00 00 00 ................
0040B6E0 00 00 00 00 00 00 00 00 00 00 00 00 00 00 00 00 ................
0040B6F0 00 00 00 00 00 00 00 00 00 00 00 00 00 00 00 00 ................
0040B700 00 00 00 00 00 00 00 00 00 00 00 00 00 00 00 00 ................
0040B710 00 00 00 00 00 00 00 00 00 00 00 00 00 00 00 00 ................
0040B720 00 00 00 00 00 00 00 00 00 00 00 00 00 00 00 00 ................
0040B730 00 00 00 00 00 00 00 00 00 00 00 00 00 00 00 00 ................
0040B740 00 00 00 00 00 00 00 00 00 00 00 00 00 00 00 00 ................
0040B750 00 00 00 00 00 00 00 00 00 00 00 00 00 00 00 00 ................
0040B760 00 00 00 00 00 00 00 00 00 00 00 00 00 00 00 00 ................
0040B770 00 00 00 00 00 00 00 00 00 00 00 00 00 00 00 00 ................
0040B780 00 00 00 00 00 00 00 00 00 00 00 00 00 00 00 00 ................
0040B790 00 00 00 00 00 00 00 00 00 00 00 00 00 00 00 00 ................
0040B7A0 00 00 00 00 00 00 00 00 00 00 00 00 00 00 00 00 ................
0040B7B0 00 00 00 00 00 00 00 00 00 00 00 00 00 00 00 00 ................
0040B7C0 00 00 00 00 00 00 00 00 00 00 00 00 00 00 00 00 ................
0040B7D0 00 00 00 00 00 00 00 00 00 00 00 00 00 00 00 00 ................
0040B7E0 00 00 00 00 00 00 00 00 00 00 00 00 00 00 00 00 ................
0040B7F0 00 00 00 00 00 00 00 00 00 00 00 00 00 00 00 00 ................
0040B800 00 00 00 00 00 00 00 00 00 00 00 00 00 00 00 00 ................
0040B810 00 00 00 00 00 00 00 00 00 00 00 00 00 00 00 00 ................
0040B820 00 00 00 00 00 00 00 00 00 00 00 00 00 00 00 00 ................
0040B830 00 00 00 00 00 00 00 00 00 00 00 00 00 00 00 00 ................
0040B840 00 00 00 00 00 00 00 00 00 00 00 00 00 00 00 00 ................
0040B850 00 00 00 00 00 00 00 00 00 00 00 00 00 00 00 00 ................
0040B860 00 00 00 00 00 00 00 00 00 00 00 00 00 00 00 00 ................
0040B870 00 00 00 00 00 00 00 00 00 00 00 00 00 00 00 00 ................
0040B880 00 00 00 00 00 00 00 00 00 00 00 00 00 00 00 00 ................
0040B890 00 00 00 00 00 00 00 00 00 00 00 00 00 00 00 00 ................
0040B8A0 00 00 00 00 00 00 00 00 00 00 00 00 00 00 00 00 ................
0040B8B0 00 00 00 00 00 00 00 00 00 00 00 00 00 00 00 00 ................
0040B8C0 00 00 00 00 00 00 00 00 00 00 00 00 00 00 00 00 ................
0040B8D0 00 00 00 00 00 00 00 00 00 00 00 00 00 00 00 00 ................
0040B8E0 00 00 00 00 00 00 00 00 00 00 00 00 00 00 00 00 ................
0040B8F0 00 00 00 00 00 00 00 00 00 00 00 00 00 00 00 00 ................
0040B900 00 00 00 00 00 00 00 00 00 00 00 00 00 00 00 00 ................
0040B910 00 00 00 00 00 00 00 00 00 00 00 00 00 00 00 00 ................
0040B920 00 00 00 00 00 00 00 00 00 00 00 00 00 00 00 00 ................
0040B930 00 00 00 00 00 00 00 00 00 00 00 00 00 00 00 00 ................
0040B940 00 00 00 00 00 00 00 00 00 00 00 00 00 00 00 00 ................
0040B950 00 00 00 00 00 00 00 00 00 00 00 00 00 00 00 00 ................
0040B960 00 00 00 00 00 00 00 00 00 00 00 00 00 00 00 00 ................
0040B970 00 00 00 00 00 00 00 00 00 00 00 00 00 00 00 00 ................
0040B980 00 00 00 00 00 00 00 00 00 00 00 00 00 00 00 00 ................
0040B990 00 00 00 00 00 00 00 00 00 00 00 00 00 00 00 00 ................
0040B9A0 00 00 00 00 00 00 00 00 00 00 00 00 00 00 00 00 ................
0040B9B0 00 00 00 00 00 00 00 00 00 00 00 00 00 00 00 00 ................
0040B9C0 00 00 00 00 00 00 00 00 00 00 00 00 00 00 00 00 ................
0040B9D0 00 00 00 00 00 00 00 00 00 00 00 00 00 00 00 00 ................
0040B9E0 00 00 00 00 00 00 00 00 00 00 00 00 00 00 00 00 ................
0040B9F0 00 00 00 00 00 00 00 00 00 00 00 00 00 00 00 00 ................
0040BA00 00 00 00 00 00 00 00 00 00 00 00 00 00 00 00 00 ................
0040BA10 00 00 00 00 00 00 00 00 00 00 00 00 00 00 00 00 ................
0040BA20 00 00 00 00 00 00 00 00 00 00 00 00 00 00 00 00 ................
0040BA30 00 00 00 00 00 00 00 00 00 00 00 00 00 00 00 00 ................
0040BA40 00 00 00 00 00 00 00 00 00 00 00 00 00 00 00 00 ................
0040BA50 00 00 00 00 00 00 00 00 00 00 00 00 00 00 00 00 ................
0040BA60 00 00 00 00 00 00 00 00 00 00 00 00 00 00 00 00 ................
0040BA70 00 00 00 00 00 00 00 00 00 00 00 00 00 00 00 00 ................
0040BA80 00 00 00 00 00 00 00 00 00 00 00 00 00 00 00 00 ................
0040BA90 00 00 00 00 00 00 00 00 00 00 00 00 00 00 00 00 ................
0040BAA0 00 00 00 00 00 00 00 00 00 00 00 00 00 00 00 00 ................
0040BAB0 00 00 00 00 00 00 00 00 00 00 00 00 00 00 00 00 ................
0040BAC0 00 00 00 00 00 00 00 00 00 00 00 00 00 00 00 00 ................
0040BAD0 00 00 00 00 00 00 00 00 00 00 00 00 00 00 00 00 ................
0040BAE0 00 00 00 00 00 00 00 00 00 00 00 00 00 00 00 00 ................
0040BAF0 00 00 00 00 00 00 00 00 00 00 00 00 00 00 00 00 ................
0040BB00 00 00 00 00 00 00 00 00 00 00 00 00 00 00 00 00 ................
0040BB10 00 00 00 00 00 00 00 00 00 00 00 00 00 00 00 00 ................
0040BB20 00 00 00 00 00 00 00 00 00 00 00 00 00 00 00 00 ................
0040BB30 00 00 00 00 00 00 00 00 00 00 00 00 00 00 00 00 ................
0040BB40 00 00 00 00 00 00 00 00 00 00 00 00 00 00 00 00 ................
0040BB50 00 00 00 00 00 00 00 00 00 00 00 00 00 00 00 00 ................
0040BB60 00 00 00 00 00 00 00 00 00 00 00 00 00 00 00 00 ................
0040BB70 00 00 00 00 00 00 00 00 00 00 00 00 00 00 00 00 ................
0040BB80 00 00 00 00 00 00 00 00 00 00 00 00 00 00 00 00 ................
0040BB90 00 00 00 00 00 00 00 00 00 00 00 00 00 00 00 00 ................
0040BBA0 00 00 00 00 00 00 00 00 00 00 00 00 00 00 00 00 ................
0040BBB0 00 00 00 00 00 00 00 00 00 00 00 00 00 00 00 00 ................
0040BBC0 00 00 00 00 00 00 00 00 00 00 00 00 00 00 00 00 ................
0040BBD0 00 00 00 00 00 00 00 00 00 00 00 00 00 00 00 00 ................
0040BBE0 00 00 00 00 00 00 00 00 00 00 00 00 00 00 00 00 ................
0040BBF0 00 00 00 00 00 00 00 00 00 00 00 00 00 00 00 00 ................
0040BC00 00 00 00 00 00 00 00 00 00 00 00 00 00 00 00 00 ................
0040BC10 00 00 00 00 00 00 00 00 00 00 00 00 00 00 00 00 ................
0040BC20 00 00 00 00 00 00 00 00 00 00 00 00 00 00 00 00 ................
0040BC30 00 00 00 00 00 00 00 00 00 00 00 00 00 00 00 00 ................
0040BC40 00 00 00 00 00 00 00 00 00 00 00 00 00 00 00 00 ................
0040BC50 00 00 00 00 00 00 00 00 00 00 00 00 00 00 00 00 ................
0040BC60 00 00 00 00 00 00 00 00 00 00 00 00 00 00 00 00 ................
0040BC70 00 00 00 00 00 00 00 00 00 00 00 00 00 00 00 00 ................
0040BC80 00 00 00 00 00 00 00 00 00 00 00 00 00 00 00 00 ................
0040BC90 00 00 00 00 00 00 00 00 00 00 00 00 00 00 00 00 ................
0040BCA0 00 00 00 00 00 00 00 00 00 00 00 00 00 00 00 00 ................
0040BCB0 00 00 00 00 00 00 00 00 00 00 00 00 00 00 00 00 ................
0040BCC0 00 00 00 00 00 00 00 00 00 00 00 00 00 00 00 00 ................
0040BCD0 00 00 00 00 00 00 00 00 00 00 00 00 00 00 00 00 ................
0040BCE0 00 00 00 00 00 00 00 00 00 00 00 00 00 00 00 00 ................
0040BCF0 00 00 00 00 00 00 00 00 00 00 00 00 00 00 00 00 ................
0040BD00 00 00 00 00 00 00 00 00 00 00 00 00 00 00 00 00 ................
0040BD10 00 00 00 00 00 00 00 00 00 00 00 00 00 00 00 00 ................
0040BD20 00 00 00 00 00 00 00 00 00 00 00 00 00 00 00 00 ................
0040BD30 00 00 00 00 00 00 00 00 00 00 00 00 00 00 00 00 ................
0040BD40 00 00 00 00 00 00 00 00 00 00 00 00 00 00 00 00 ................
0040BD50 00 00 00 00 00 00 00 00 00 00 00 00 00 00 00 00 ................
0040BD60 00 00 00 00 00 00 00 00 00 00 00 00 00 00 00 00 ................
0040BD70 00 00 00 00 00 00 00 00 00 00 00 00 00 00 00 00 ................
0040BD80 00 00 00 00 00 00 00 00 00 00 00 00 00 00 00 00 ................
0040BD90 00 00 00 00 00 00 00 00 00 00 00 00 00 00 00 00 ................
0040BDA0 00 00 00 00 00 00 00 00 00 00 00 00 00 00 00 00 ................
0040BDB0 00 00 00 00 00 00 00 00 00 00 00 00 00 00 00 00 ................
0040BDC0 00 00 00 00 00 00 00 00 00 00 00 00 00 00 00 00 ................
0040BDD0 00 00 00 00 00 00 00 00 00 00 00 00 00 00 00 00 ................
0040BDE0 00 00 00 00 00 00 00 00 00 00 00 00 00 00 00 00 ................
0040BDF0 00 00 00 00 00 00 00 00 00 00 00 00 00 00 00 00 ................
0040BE00 00 00 00 00 00 00 00 00 00 00 00 00 00 00 00 00 ................
0040BE10 00 00 00 00 00 00 00 00 00 00 00 00 00 00 00 00 ................
0040BE20 00 00 00 00 00 00 00 00 00 00 00 00 00 00 00 00 ................
0040BE30 00 00 00 00 00 00 00 00 00 00 00 00 00 00 00 00 ................
0040BE40 00 00 00 00 00 00 00 00 00 00 00 00 00 00 00 00 ................
0040BE50 00 00 00 00 00 00 00 00 00 00 00 00 00 00 00 00 ................
0040BE60 00 00 00 00 00 00 00 00 00 00 00 00 00 00 00 00 ................
0040BE70 00 00 00 00 00 00 00 00 00 00 00 00 00 00 00 00 ................
0040BE80 00 00 00 00 00 00 00 00 00 00 00 00 00 00 00 00 ................
0040BE90 00 00 00 00 00 00 00 00 00 00 00 00 00 00 00 00 ................
0040BEA0 00 00 00 00 00 00 00 00 00 00 00 00 00 00 00 00 ................
0040BEB0 00 00 00 00 00 00 00 00 00 00 00 00 00 00 00 00 ................
0040BEC0 00 00 00 00 00 00 00 00 00 00 00 00 00 00 00 00 ................
0040BED0 00 00 00 00 00 00 00 00 00 00 00 00 00 00 00 00 ................
0040BEE0 00 00 00 00 00 00 00 00 00 00 00 00 00 00 00 00 ................
0040BEF0 00 00 00 00 00 00 00 00 00 00 00 00 00 00 00 00 ................
0040BF00 00 00 00 00 00 00 00 00 00 00 00 00 00 00 00 00 ................
0040BF10 00 00 00 00 00 00 00 00 00 00 00 00 00 00 00 00 ................
0040BF20 00 00 00 00 00 00 00 00 00 00 00 00 00 00 00 00 ................
0040BF30 00 00 00 00 00 00 00 00 00 00 00 00 00 00 00 00 ................
0040BF40 00 00 00 00 00 00 00 00 00 00 00 00 00 00 00 00 ................
0040BF50 00 00 00 00 00 00 00 00 00 00 00 00 00 00 00 00 ................
0040BF60 00 00 00 00 00 00 00 00 00 00 00 00 00 00 00 00 ................
0040BF70 00 00 00 00 00 00 00 00 00 00 00 00 00 00 00 00 ................
0040BF80 00 00 00 00 00 00 00 00 00 00 00 00 00 00 00 00 ................
0040BF90 00 00 00 00 00 00 00 00 00 00 00 00 00 00 00 00 ................
0040BFA0 00 00 00 00 00 00 00 00 00 00 00 00 00 00 00 00 ................
0040BFB0 00 00 00 00 00 00 00 00 00 00 00 00 00 00 00 00 ................
0040BFC0 00 00 00 00 00 00 00 00 00 00 00 00 00 00 00 00 ................
0040BFD0 00 00 00 00 00 00 00 00 00 00 00 00 00 00 00 00 ................
0040BFE0 00 00 00 00 00 00 00 00 00 00 00 00 00 00 00 00 ................
0040BFF0 00 00 00 00 00 00 00 00 00 00 00 00 00 00 00 00 ................
0040C000 00 00 00 00 00 00 00 00 00 00 00 00 00 00 00 00 ................
0040C010 00 00 00 00 00 00 00 00 00 00 00 00 00 00 00 00 ................
0040C020 00 00 00 00 00 00 00 00 00 00 00 00 00 00 00 00 ................
0040C030 00 00 00 00 00 00 00 00 00 00 00 00 00 00 00 00 ................
0040C040 00 00 00 00 00 00 00 00 00 00 00 00 00 00 00 00 ................
0040C050 00 00 00 00 00 00 00 00 00 00 00 00 00 00 00 00 ................
0040C060 00 00 00 00 00 00 00 00 00 00 00 00 00 00 00 00 ................
0040C070 00 00 00 00 00 00 00 00 00 00 00 00 00 00 00 00 ................
0040C080 00 00 00 00 00 00 00 00 00 00 00 00 00 00 00 00 ................
0040C090 00 00 00 00 00 00 00 00 00 00 00 00 00 00 00 00 ................
0040C0A0 00 00 00 00 00 00 00 00 00 00 00 00 00 00 00 00 ................
0040C0B0 00 00 00 00 00 00 00 00 00 00 00 00 00 00 00 00 ................
0040C0C0 00 00 00 00 00 00 00 00 00 00 00 00 00 00 00 00 ................
0040C0D0 00 00 00 00 00 00 00 00 00 00 00 00 00 00 00 00 ................
0040C0E0 00 00 00 00 00 00 00 00 00 00 00 00 00 00 00 00 ................
0040C0F0 00 00 00 00 00 00 00 00 00 00 00 00 00 00 00 00 ................
0040C100 00 00 00 00 00 00 00 00 00 00 00 00 00 00 00 00 ................
0040C110 00 00 00 00 00 00 00 00 00 00 00 00 00 00 00 00 ................
0040C120 00 00 00 00 00 00 00 00 00 00 00 00 00 00 00 00 ................
0040C130 00 00 00 00 00 00 00 00 00 00 00 00 00 00 00 00 ................
0040C140 00 00 00 00 00 00 00 00 00 00 00 00 00 00 00 00 ................
0040C150 00 00 00 00 00 00 00 00 00 00 00 00 00 00 00 00 ................
0040C160 00 00 00 00 00 00 00 00 00 00 00 00 00 00 00 00 ................
0040C170 00 00 00 00 00 00 00 00 00 00 00 00 00 00 00 00 ................
0040C180 00 00 00 00 00 00 00 00 00 00 00 00 00 00 00 00 ................
0040C190 00 00 00 00 00 00 00 00 00 00 00 00 00 00 00 00 ................
0040C1A0 00 00 00 00 00 00 00 00 00 00 00 00 00 00 00 00 ................
0040C1B0 00 00 00 00 00 00 00 00 00 00 00 00 00 00 00 00 ................
0040C1C0 00 00 00 00 00 00 00 00 00 00 00 00 00 00 00 00 ................
0040C1D0 00 00 00 00 00 00 00 00 00 00 00 00 00 00 00 00 ................
0040C1E0 00 00 00 00 00 00 00 00 00 00 00 00 00 00 00 00 ................
0040C1F0 00 00 00 00 00 00 00 00 00 00 00 00 00 00 00 00 ................
0040C200 00 00 00 00 00 00 00 00 00 00 00 00 00 00 00 00 ................
0040C210 00 00 00 00 00 00 00 00 00 00 00 00 00 00 00 00 ................
0040C220 00 00 00 00 00 00 00 00 00 00 00 00 00 00 00 00 ................
0040C230 00 00 00 00 00 00 00 00 00 00 00 00 00 00 00 00 ................
0040C240 00 00 00 00 00 00 00 00 00 00 00 00 00 00 00 00 ................
0040C250 00 00 00 00 00 00 00 00 00 00 00 00 00 00 00 00 ................
0040C260 00 00 00 00 00 00 00 00 00 00 00 00 00 00 00 00 ................
0040C270 00 00 00 00 00 00 00 00 00 00 00 00 00 00 00 00 ................
0040C280 00 00 00 00 00 00 00 00 00 00 00 00 00 00 00 00 ................
0040C290 00 00 00 00 00 00 00 00 00 00 00 00 00 00 00 00 ................
0040C2A0 00 00 00 00 00 00 00 00 00 00 00 00 00 00 00 00 ................
0040C2B0 00 00 00 00 00 00 00 00 00 00 00 00 00 00 00 00 ................
0040C2C0 00 00 00 00 00 00 00 00 00 00 00 00 00 00 00 00 ................
0040C2D0 00 00 00 00 00 00 00 00 00 00 00 00 00 00 00 00 ................
0040C2E0 00 00 00 00 00 00 00 00 00 00 00 00 00 00 00 00 ................
0040C2F0 00 00 00 00 00 00 00 00 00 00 00 00 00 00 00 00 ................
0040C300 00 00 00 00 00 00 00 00 00 00 00 00 00 00 00 00 ................
0040C310 00 00 00 00 00 00 00 00 00 00 00 00 00 00 00 00 ................
0040C320 00 00 00 00 00 00 00 00 00 00 00 00 00 00 00 00 ................
0040C330 00 00 00 00 00 00 00 00 00 00 00 00 00 00 00 00 ................
0040C340 00 00 00 00 00 00 00 00 00 00 00 00 00 00 00 00 ................
0040C350 00 00 00 00 00 00 00 00 00 00 00 00 00 00 00 00 ................
0040C360 00 00 00 00 00 00 00 00 00 00 00 00 00 00 00 00 ................
0040C370 00 00 00 00 00 00 00 00 00 00 00 00 00 00 00 00 ................
0040C380 00 00 00 00 00 00 00 00 00 00 00 00 00 00 00 00 ................
0040C390 00 00 00 00 00 00 00 00 00 00 00 00 00 00 00 00 ................
0040C3A0 00 00 00 00 00 00 00 00 00 00 00 00 00 00 00 00 ................
0040C3B0 00 00 00 00 00 00 00 00 00 00 00 00 00 00 00 00 ................
0040C3C0 00 00 00 00 00 00 00 00 00 00 00 00 00 00 00 00 ................
0040C3D0 00 00 00 00 00 00 00 00 00 00 00 00 00 00 00 00 ................
0040C3E0 00 00 00 00 00 00 00 00 00 00 00 00 00 00 00 00 ................
0040C3F0 00 00 00 00 00 00 00 00 00 00 00 00 00 00 00 00 ................
0040C400 00 00 00 00 00 00 00 00 00 00 00 00 00 00 00 00 ................
0040C410 00 00 00 00 00 00 00 00 00 00 00 00 00 00 00 00 ................
0040C420 00 00 00 00 00 00 00 00 00 00 00 00 00 00 00 00 ................
0040C430 00 00 00 00 00 00 00 00 00 00 00 00 00 00 00 00 ................
0040C440 00 00 00 00 00 00 00 00 00 00 00 00 00 00 00 00 ................
0040C450 00 00 00 00 00 00 00 00 00 00 00 00 00 00 00 00 ................
0040C460 00 00 00 00 00 00 00 00 00 00 00 00 00 00 00 00 ................
0040C470 00 00 00 00 00 00 00 00 00 00 00 00 00 00 00 00 ................
0040C480 00 00 00 00 00 00 00 00 00 00 00 00 00 00 00 00 ................
0040C490 00 00 00 00 00 00 00 00 00 00 00 00 00 00 00 00 ................
0040C4A0 00 00 00 00 00 00 00 00 00 00 00 00 00 00 00 00 ................
0040C4B0 00 00 00 00 00 00 00 00 00 00 00 00 00 00 00 00 ................
0040C4C0 00 00 00 00 00 00 00 00 00 00 00 00 00 00 00 00 ................
0040C4D0 00 00 00 00 00 00 00 00 00 00 00 00 00 00 00 00 ................
0040C4E0 00 00 00 00 00 00 00 00 00 00 00 00 00 00 00 00 ................
0040C4F0 00 00 00 00 00 00 00 00 00 00 00 00 00 00 00 00 ................
0040C500 00 00 00 00 00 00 00 00 00 00 00 00 00 00 00 00 ................
0040C510 00 00 00 00 00 00 00 00 00 00 00 00 00 00 00 00 ................
0040C520 00 00 00 00 00 00 00 00 00 00 00 00 00 00 00 00 ................
0040C530 00 00 00 00 00 00 00 00 00 00 00 00 00 00 00 00 ................
0040C540 00 00 00 00 00 00 00 00 00 00 00 00 00 00 00 00 ................
0040C550 00 00 00 00 00 00 00 00 00 00 00 00 00 00 00 00 ................
0040C560 00 00 00 00 00 00 00 00 00 00 00 00 00 00 00 00 ................
0040C570 00 00 00 00 00 00 00 00 00 00 00 00 00 00 00 00 ................
0040C580 00 00 00 00 00 00 00 00 00 00 00 00 00 00 00 00 ................
0040C590 00 00 00 00 00 00 00 00 00 00 00 00 00 00 00 00 ................
0040C5A0 00 00 00 00 00 00 00 00 00 00 00 00 00 00 00 00 ................
0040C5B0 00 00 00 00 00 00 00 00 00 00 00 00 00 00 00 00 ................
0040C5C0 00 00 00 00 00 00 00 00 00 00 00 00 00 00 00 00 ................
0040C5D0 00 00 00 00 00 00 00 00 00 00 00 00 00 00 00 00 ................
0040C5E0 00 00 00 00 00 00 00 00 00 00 00 00 00 00 00 00 ................
0040C5F0 00 00 00 00 00 00 00 00 00 00 00 00 00 00 00 00 ................
0040C600 00 00 00 00 00 00 00 00 00 00 00 00 00 00 00 00 ................
0040C610 00 00 00 00 00 00 00 00 00 00 00 00 00 00 00 00 ................
0040C620 00 00 00 00 00 00 00 00 00 00 00 00 00 00 00 00 ................
0040C630 00 00 00 00 00 00 00 00 00 00 00 00 00 00 00 00 ................
0040C640 00 00 00 00 00 00 00 00 00 00 00 00 00 00 00 00 ................
0040C650 00 00 00 00 00 00 00 00 00 00 00 00 00 00 00 00 ................
0040C660 00 00 00 00 00 00 00 00 00 00 00 00 00 00 00 00 ................
0040C670 00 00 00 00 00 00 00 00 00 00 00 00 00 00 00 00 ................
0040C680 00 00 00 00 00 00 00 00 00 00 00 00 00 00 00 00 ................
0040C690 00 00 00 00 00 00 00 00 00 00 00 00 00 00 00 00 ................
0040C6A0 00 00 00 00 00 00 00 00 00 00 00 00 00 00 00 00 ................
0040C6B0 00 00 00 00 00 00 00 00 00 00 00 00 00 00 00 00 ................
0040C6C0 00 00 00 00 00 00 00 00 00 00 00 00 00 00 00 00 ................
0040C6D0 00 00 00 00 00 00 00 00 00 00 00 00 00 00 00 00 ................
0040C6E0 00 00 00 00 00 00 00 00 00 00 00 00 00 00 00 00 ................
0040C6F0 00 00 00 00 00 00 00 00 00 00 00 00 00 00 00 00 ................
0040C700 00 00 00 00 00 00 00 00 00 00 00 00 00 00 00 00 ................
0040C710 00 00 00 00 00 00 00 00 00 00 00 00 00 00 00 00 ................
0040C720 00 00 00 00 00 00 00 00 00 00 00 00 00 00 00 00 ................
0040C730 00 00 00 00 00 00 00 00 00 00 00 00 00 00 00 00 ................
0040C740 00 00 00 00 00 00 00 00 00 00 00 00 00 00 00 00 ................
0040C750 00 00 00 00 00 00 00 00 00 00 00 00 00 00 00 00 ................
0040C760 00 00 00 00 00 00 00 00 00 00 00 00 00 00 00 00 ................
0040C770 00 00 00 00 00 00 00 00 00 00 00 00 00 00 00 00 ................
0040C780 00 00 00 00 00 00 00 00 00 00 00 00 00 00 00 00 ................
0040C790 00 00 00 00 00 00 00 00 00 00 00 00 00 00 00 00 ................
0040C7A0 00 00 00 00 00 00 00 00 00 00 00 00 00 00 00 00 ................
0040C7B0 00 00 00 00 00 00 00 00 00 00 00 00 00 00 00 00 ................
0040C7C0 00 00 00 00 00 00 00 00 00 00 00 00 00 00 00 00 ................
0040C7D0 00 00 00 00 00 00 00 00 00 00 00 00 00 00 00 00 ................
0040C7E0 00 00 00 00 00 00 00 00 00 00 00 00 00 00 00 00 ................
0040C7F0 00 00 00 00 00 00 00 00 00 00 00 00 00 00 00 00 ................
0040C800 00 00 00 00 00 00 00 00 00 00 00 00 00 00 00 00 ................
0040C810 00 00 00 00 00 00 00 00 00 00 00 00 00 00 00 00 ................
0040C820 00 00 00 00 00 00 00 00 00 00 00 00 00 00 00 00 ................
0040C830 00 00 00 00 00 00 00 00 00 00 00 00 00 00 00 00 ................
0040C840 00 00 00 00 00 00 00 00 00 00 00 00 00 00 00 00 ................
0040C850 00 00 00 00 00 00 00 00 00 00 00 00 00 00 00 00 ................
0040C860 00 00 00 00 00 00 00 00 00 00 00 00 00 00 00 00 ................
0040C870 00 00 00 00 00 00 00 00 00 00 00 00 00 00 00 00 ................
0040C880 00 00 00 00 00 00 00 00 00 00 00 00 00 00 00 00 ................
0040C890 00 00 00 00 00 00 00 00 00 00 00 00 00 00 00 00 ................
0040C8A0 00 00 00 00 00 00 00 00 00 00 00 00 00 00 00 00 ................
0040C8B0 00 00 00 00 00 00 00 00 00 00 00 00 00 00 00 00 ................
0040C8C0 00 00 00 00 00 00 00 00 00 00 00 00 00 00 00 00 ................
0040C8D0 00 00 00 00 00 00 00 00 00 00 00 00 00 00 00 00 ................
0040C8E0 00 00 00 00 00 00 00 00 00 00 00 00 00 00 00 00 ................
0040C8F0 00 00 00 00 00 00 00 00 00 00 00 00 00 00 00 00 ................
0040C900 00 00 00 00 00 00 00 00 00 00 00 00 00 00 00 00 ................
0040C910 00 00 00 00 00 00 00 00 00 00 00 00 00 00 00 00 ................
0040C920 00 00 00 00 00 00 00 00 00 00 00 00 00 00 00 00 ................
0040C930 00 00 00 00 00 00 00 00 00 00 00 00 00 00 00 00 ................
0040C940 00 00 00 00 00 00 00 00 00 00 00 00 00 00 00 00 ................
0040C950 00 00 00 00 00 00 00 00 00 00 00 00 00 00 00 00 ................
0040C960 00 00 00 00 00 00 00 00 00 00 00 00 00 00 00 00 ................
0040C970 00 00 00 00 00 00 00 00 00 00 00 00 00 00 00 00 ................
0040C980 00 00 00 00 00 00 00 00 00 00 00 00 00 00 00 00 ................
0040C990 00 00 00 00 00 00 00 00 00 00 00 00 00 00 00 00 ................
0040C9A0 00 00 00 00 00 00 00 00 00 00 00 00 00 00 00 00 ................
0040C9B0 00 00 00 00 00 00 00 00 00 00 00 00 00 00 00 00 ................
0040C9C0 00 00 00 00 00 00 00 00 00 00 00 00 00 00 00 00 ................
0040C9D0 00 00 00 00 00 00 00 00 00 00 00 00 00 00 00 00 ................
0040C9E0 00 00 00 00 00 00 00 00 00 00 00 00 00 00 00 00 ................
0040C9F0 00 00 00 00 00 00 00 00 00 00 00 00 00 00 00 00 ................
0040CA00 00 00 00 00 00 00 00 00 00 00 00 00 00 00 00 00 ................
0040CA10 00 00 00 00 00 00 00 00 00 00 00 00 00 00 00 00 ................
0040CA20 00 00 00 00 00 00 00 00 00 00 00 00 00 00 00 00 ................
0040CA30 00 00 00 00 00 00 00 00 00 00 00 00 00 00 00 00 ................
0040CA40 00 00 00 00 00 00 00 00 00 00 00 00 00 00 00 00 ................
0040CA50 00 00 00 00 00 00 00 00 00 00 00 00 00 00 00 00 ................
0040CA60 00 00 00 00 00 00 00 00 00 00 00 00 00 00 00 00 ................
0040CA70 00 00 00 00 00 00 00 00 00 00 00 00 00 00 00 00 ................
0040CA80 00 00 00 00 00 00 00 00 00 00 00 00 00 00 00 00 ................
0040CA90 00 00 00 00 00 00 00 00 00 00 00 00 00 00 00 00 ................
0040CAA0 00 00 00 00 00 00 00 00 00 00 00 00 00 00 00 00 ................
0040CAB0 00 00 00 00 00 00 00 00 00 00 00 00 00 00 00 00 ................
0040CAC0 00 00 00 00 00 00 00 00 00 00 00 00 00 00 00 00 ................
0040CAD0 00 00 00 00 00 00 00 00 00 00 00 00 00 00 00 00 ................
0040CAE0 00 00 00 00 00 00 00 00 00 00 00 00 00 00 00 00 ................
0040CAF0 00 00 00 00 00 00 00 00 00 00 00 00 00 00 00 00 ................
0040CB00 00 00 00 00 00 00 00 00 00 00 00 00 00 00 00 00 ................
0040CB10 00 00 00 00 00 00 00 00 00 00 00 00 00 00 00 00 ................
0040CB20 00 00 00 00 00 00 00 00 00 00 00 00 00 00 00 00 ................
0040CB30 00 00 00 00 00 00 00 00 00 00 00 00 00 00 00 00 ................
0040CB40 00 00 00 00 00 00 00 00 00 00 00 00 00 00 00 00 ................
0040CB50 00 00 00 00 00 00 00 00 00 00 00 00 00 00 00 00 ................
0040CB60 00 00 00 00 00 00 00 00 00 00 00 00 00 00 00 00 ................
0040CB70 00 00 00 00 00 00 00 00 00 00 00 00 00 00 00 00 ................
0040CB80 00 00 00 00 00 00 00 00 00 00 00 00 00 00 00 00 ................
0040CB90 00 00 00 00 00 00 00 00 00 00 00 00 00 00 00 00 ................
0040CBA0 00 00 00 00 00 00 00 00 00 00 00 00 00 00 00 00 ................
0040CBB0 00 00 00 00 00 00 00 00 00 00 00 00 00 00 00 00 ................
0040CBC0 00 00 00 00 00 00 00 00 00 00 00 00 00 00 00 00 ................
0040CBD0 00 00 00 00 00 00 00 00 00 00 00 00 00 00 00 00 ................
0040CBE0 00 00 00 00 00 00 00 00 00 00 00 00 00 00 00 00 ................
0040CBF0 00 00 00 00 00 00 00 00 00 00 00 00 00 00 00 00 ................
0040CC00 00 00 00 00 00 00 00 00 00 00 00 00 00 00 00 00 ................
0040CC10 00 00 00 00 00 00 00 00 00 00 00 00 00 00 00 00 ................
0040CC20 00 00 00 00 00 00 00 00 00 00 00 00 00 00 00 00 ................
0040CC30 00 00 00 00 00 00 00 00 00 00 00 00 00 00 00 00 ................
0040CC40 00 00 00 00 00 00 00 00 00 00 00 00 00 00 00 00 ................
0040CC50 00 00 00 00 00 00 00 00 00 00 00 00 00 00 00 00 ................
0040CC60 00 00 00 00 00 00 00 00 00 00 00 00 00 00 00 00 ................
0040CC70 00 00 00 00 00 00 00 00 00 00 00 00 00 00 00 00 ................
0040CC80 00 00 00 00 00 00 00 00 00 00 00 00 00 00 00 00 ................
0040CC90 00 00 00 00 00 00 00 00 00 00 00 00 00 00 00 00 ................
0040CCA0 00 00 00 00 00 00 00 00 00 00 00 00 00 00 00 00 ................
0040CCB0 00 00 00 00 00 00 00 00 00 00 00 00 00 00 00 00 ................
0040CCC0 00 00 00 00 00 00 00 00 00 00 00 00 00 00 00 00 ................
0040CCD0 00 00 00 00 00 00 00 00 00 00 00 00 00 00 00 00 ................
0040CCE0 00 00 00 00 00 00 00 00 00 00 00 00 00 00 00 00 ................
0040CCF0 00 00 00 00 00 00 00 00 00 00 00 00 00 00 00 00 ................
0040CD00 00 00 00 00 00 00 00 00 00 00 00 00 00 00 00 00 ................
0040CD10 00 00 00 00 00 00 00 00 00 00 00 00 00 00 00 00 ................
0040CD20 00 00 00 00 00 00 00 00 00 00 00 00 00 00 00 00 ................
0040CD30 00 00 00 00 00 00 00 00 00 00 00 00 00 00 00 00 ................
0040CD40 00 00 00 00 00 00 00 00 00 00 00 00 00 00 00 00 ................
0040CD50 00 00 00 00 00 00 00 00 00 00 00 00 00 00 00 00 ................
0040CD60 00 00 00 00 00 00 00 00 00 00 00 00 00 00 00 00 ................
0040CD70 00 00 00 00 00 00 00 00 00 00 00 00 00 00 00 00 ................
0040CD80 00 00 00 00 00 00 00 00 00 00 00 00 00 00 00 00 ................
0040CD90 00 00 00 00 00 00 00 00 00 00 00 00 00 00 00 00 ................
0040CDA0 00 00 00 00 00 00 00 00 00 00 00 00 00 00 00 00 ................
0040CDB0 00 00 00 00 00 00 00 00 00 00 00 00 00 00 00 00 ................
0040CDC0 00 00 00 00 00 00 00 00 00 00 00 00 00 00 00 00 ................
0040CDD0 00 00 00 00 00 00 00 00 00 00 00 00 00 00 00 00 ................
0040CDE0 00 00 00 00 00 00 00 00 00 00 00 00 00 00 00 00 ................
0040CDF0 00 00 00 00 00 00 00 00 00 00 00 00 00 00 00 00 ................
0040CE00 00 00 00 00 00 00 00 00 00 00 00 00 00 00 00 00 ................
0040CE10 00 00 00 00 00 00 00 00 00 00 00 00 00 00 00 00 ................
0040CE20 00 00 00 00 00 00 00 00 00 00 00 00 00 00 00 00 ................
0040CE30 00 00 00 00 00 00 00 00 00 00 00 00 00 00 00 00 ................
0040CE40 00 00 00 00 00 00 00 00 00 00 00 00 00 00 00 00 ................
0040CE50 00 00 00 00 00 00 00 00 00 00 00 00 00 00 00 00 ................
0040CE60 00 00 00 00 00 00 00 00 00 00 00 00 00 00 00 00 ................
0040CE70 00 00 00 00 00 00 00 00 00 00 00 00 00 00 00 00 ................
0040CE80 00 00 00 00 00 00 00 00 00 00 00 00 00 00 00 00 ................
0040CE90 00 00 00 00 00 00 00 00 00 00 00 00 00 00 00 00 ................
0040CEA0 00 00 00 00 00 00 00 00 00 00 00 00 00 00 00 00 ................
0040CEB0 00 00 00 00 00 00 00 00 00 00 00 00 00 00 00 00 ................
0040CEC0 00 00 00 00 00 00 00 00 00 00 00 00 00 00 00 00 ................
0040CED0 00 00 00 00 00 00 00 00 00 00 00 00 00 00 00 00 ................
0040CEE0 00 00 00 00 00 00 00 00 00 00 00 00 00 00 00 00 ................
0040CEF0 00 00 00 00 00 00 00 00 00 00 00 00 00 00 00 00 ................
0040CF00 00 00 00 00 00 00 00 00 00 00 00 00 00 00 00 00 ................
0040CF10 00 00 00 00 00 00 00 00 00 00 00 00 00 00 00 00 ................
0040CF20 00 00 00 00 00 00 00 00 00 00 00 00 00 00 00 00 ................
0040CF30 00 00 00 00 00 00 00 00 00 00 00 00 00 00 00 00 ................
0040CF40 00 00 00 00 00 00 00 00 00 00 00 00 00 00 00 00 ................
0040CF50 00 00 00 00 00 00 00 00 00 00 00 00 00 00 00 00 ................
0040CF60 00 00 00 00 00 00 00 00 00 00 00 00 00 00 00 00 ................
0040CF70 00 00 00 00 00 00 00 00 00 00 00 00 00 00 00 00 ................
0040CF80 00 00 00 00 00 00 00 00 00 00 00 00 00 00 00 00 ................
0040CF90 00 00 00 00 00 00 00 00 00 00 00 00 00 00 00 00 ................
0040CFA0 00 00 00 00 00 00 00 00 00 00 00 00 00 00 00 00 ................
0040CFB0 00 00 00 00 00 00 00 00 00 00 00 00 00 00 00 00 ................
0040CFC0 00 00 00 00 00 00 00 00 00 00 00 00 00 00 00 00 ................
0040CFD0 00 00 00 00 00 00 00 00 00 00 00 00 00 00 00 00 ................
0040CFE0 00 00 00 00 00 00 00 00 00 00 00 00 00 00 00 00 ................
0040CFF0 00 00 00 00 00 00 00 00 00 00 00 00 00 00 00 00 ................
0040D000 00 00 00 00 00 00 00 00 00 00 00 00 00 00 00 00 ................
0040D010 00 00 00 00 00 00 00 00 00 00 00 00 00 00 00 00 ................
0040D020 00 00 00 00 00 00 00 00 00 00 00 00 00 00 00 00 ................
0040D030 00 00 00 00 00 00 00 00 00 00 00 00 00 00 00 00 ................
0040D040 00 00 00 00 00 00 00 00 00 00 00 00 00 00 00 00 ................
0040D050 00 00 00 00 00 00 00 00 00 00 00 00 00 00 00 00 ................
0040D060 00 00 00 00 00 00 00 00 00 00 00 00 00 00 00 00 ................
0040D070 00 00 00 00 00 00 00 00 00 00 00 00 00 00 00 00 ................
0040D080 00 00 00 00 00 00 00 00 00 00 00 00 00 00 00 00 ................
0040D090 00 00 00 00 00 00 00 00 00 00 00 00 00 00 00 00 ................
0040D0A0 00 00 00 00 00 00 00 00 00 00 00 00 00 00 00 00 ................
0040D0B0 00 00 00 00 00 00 00 00 00 00 00 00 00 00 00 00 ................
0040D0C0 00 00 00 00 00 00 00 00 00 00 00 00 00 00 00 00 ................
0040D0D0 00 00 00 00 00 00 00 00 00 00 00 00 00 00 00 00 ................
0040D0E0 00 00 00 00 00 00 00 00 00 00 00 00 00 00 00 00 ................
0040D0F0 00 00 00 00 00 00 00 00 00 00 00 00 00 00 00 00 ................
0040D100 00 00 00 00 00 00 00 00 00 00 00 00 00 00 00 00 ................
0040D110 00 00 00 00 00 00 00 00 00 00 00 00 00 00 00 00 ................
0040D120 00 00 00 00 00 00 00 00 00 00 00 00 00 00 00 00 ................
0040D130 00 00 00 00 00 00 00 00 00 00 00 00 00 00 00 00 ................
0040D140 00 00 00 00 00 00 00 00 00 00 00 00 00 00 00 00 ................
0040D150 00 00 00 00 00 00 00 00 00 00 00 00 00 00 00 00 ................
0040D160 00 00 00 00 00 00 00 00 00 00 00 00 00 00 00 00 ................
0040D170 00 00 00 00 00 00 00 00 00 00 00 00 00 00 00 00 ................
0040D180 00 00 00 00 00 00 00 00 00 00 00 00 00 00 00 00 ................
0040D190 00 00 00 00 00 00 00 00 00 00 00 00 00 00 00 00 ................
0040D1A0 00 00 00 00 00 00 00 00 00 00 00 00 00 00 00 00 ................
0040D1B0 00 00 00 00 00 00 00 00 00 00 00 00 00 00 00 00 ................
0040D1C0 00 00 00 00 00 00 00 00 00 00 00 00 00 00 00 00 ................
0040D1D0 00 00 00 00 00 00 00 00 00 00 00 00 00 00 00 00 ................
0040D1E0 00 00 00 00 00 00 00 00 00 00 00 00 00 00 00 00 ................
0040D1F0 00 00 00 00 00 00 00 00 00 00 00 00 00 00 00 00 ................
0040D200 00 00 00 00 00 00 00 00 00 00 00 00 00 00 00 00 ................
0040D210 00 00 00 00 00 00 00 00 00 00 00 00 00 00 00 00 ................
0040D220 00 00 00 00 00 00 00 00 00 00 00 00 00 00 00 00 ................
0040D230 00 00 00 00 00 00 00 00 00 00 00 00 00 00 00 00 ................
0040D240 00 00 00 00 00 00 00 00 00 00 00 00 00 00 00 00 ................
0040D250 00 00 00 00 00 00 00 00 00 00 00 00 00 00 00 00 ................
0040D260 00 00 00 00 00 00 00 00 00 00 00 00 00 00 00 00 ................
0040D270 00 00 00 00 00 00 00 00 00 00 00 00 00 00 00 00 ................
0040D280 00 00 00 00 00 00 00 00 00 00 00 00 00 00 00 00 ................
0040D290 00 00 00 00 00 00 00 00 00 00 00 00 00 00 00 00 ................
0040D2A0 00 00 00 00 00 00 00 00 00 00 00 00 00 00 00 00 ................
0040D2B0 00 00 00 00 00 00 00 00 00 00 00 00 00 00 00 00 ................
0040D2C0 00 00 00 00 00 00 00 00 00 00 00 00 00 00 00 00 ................
0040D2D0 00 00 00 00 00 00 00 00 00 00 00 00 00 00 00 00 ................
0040D2E0 00 00 00 00 00 00 00 00 00 00 00 00 00 00 00 00 ................
0040D2F0 00 00 00 00 00 00 00 00 00 00 00 00 00 00 00 00 ................
0040D300 00 00 00 00 00 00 00 00 00 00 00 00 00 00 00 00 ................
0040D310 00 00 00 00 00 00 00 00 00 00 00 00 00 00 00 00 ................
0040D320 00 00 00 00 00 00 00 00 00 00 00 00 00 00 00 00 ................
0040D330 00 00 00 00 00 00 00 00 00 00 00 00 00 00 00 00 ................
0040D340 00 00 00 00 00 00 00 00 00 00 00 00 00 00 00 00 ................
0040D350 00 00 00 00 00 00 00 00 00 00 00 00 00 00 00 00 ................
0040D360 00 00 00 00 00 00 00 00 00 00 00 00 00 00 00 00 ................
0040D370 00 00 00 00 00 00 00 00 00 00 00 00 00 00 00 00 ................
0040D380 00 00 00 00 00 00 00 00 00 00 00 00 00 00 00 00 ................
0040D390 00 00 00 00 00 00 00 00 00 00 00 00 00 00 00 00 ................
0040D3A0 00 00 00 00 00 00 00 00 00 00 00 00 00 00 00 00 ................
0040D3B0 00 00 00 00 00 00 00 00 00 00 00 00 00 00 00 00 ................
0040D3C0 00 00 00 00 00 00 00 00 00 00 00 00 00 00 00 00 ................
0040D3D0 00 00 00 00 00 00 00 00 00 00 00 00 00 00 00 00 ................
0040D3E0 00 00 00 00 00 00 00 00 00 00 00 00 00 00 00 00 ................
0040D3F0 00 00 00 00 00 00 00 00 00 00 00 00 00 00 00 00 ................
0040D400 00 00 00 00 00 00 00 00 00 00 00 00 00 00 00 00 ................
0040D410 00 00 00 00 00 00 00 00 00 00 00 00 00 00 00 00 ................
0040D420 00 00 00 00 00 00 00 00 00 00 00 00 00 00 00 00 ................
0040D430 00 00 00 00 00 00 00 00 00 00 00 00 00 00 00 00 ................
0040D440 00 00 00 00 00 00 00 00 00 00 00 00 00 00 00 00 ................
0040D450 00 00 00 00 00 00 00 00 00 00 00 00 00 00 00 00 ................
0040D460 00 00 00 00 00 00 00 00 00 00 00 00 00 00 00 00 ................
0040D470 00 00 00 00 00 00 00 00 00 00 00 00 00 00 00 00 ................
0040D480 00 00 00 00 00 00 00 00 00 00 00 00 00 00 00 00 ................
0040D490 00 00 00 00 00 00 00 00 00 00 00 00 00 00 00 00 ................
0040D4A0 00 00 00 00 00 00 00 00 00 00 00 00 00 00 00 00 ................
0040D4B0 00 00 00 00 00 00 00 00 00 00 00 00 00 00 00 00 ................
0040D4C0 00 00 00 00 00 00 00 00 00 00 00 00 00 00 00 00 ................
0040D4D0 00 00 00 00 00 00 00 00 00 00 00 00 00 00 00 00 ................
0040D4E0 00 00 00 00 00 00 00 00 00 00 00 00 00 00 00 00 ................
0040D4F0 00 00 00 00 00 00 00 00 00 00 00 00 00 00 00 00 ................
0040D500 00 00 00 00 00 00 00 00 00 00 00 00 00 00 00 00 ................
0040D510 00 00 00 00 00 00 00 00 00 00 00 00 00 00 00 00 ................
0040D520 00 00 00 00 00 00 00 00 00 00 00 00 00 00 00 00 ................
0040D530 00 00 00 00 00 00 00 00 00 00 00 00 00 00 00 00 ................
0040D540 00 00 00 00 00 00 00 00 00 00 00 00 00 00 00 00 ................
0040D550 00 00 00 00 00 00 00 00 00 00 00 00 00 00 00 00 ................
0040D560 00 00 00 00 00 00 00 00 00 00 00 00 00 00 00 00 ................
0040D570 00 00 00 00 00 00 00 00 00 00 00 00 00 00 00 00 ................
0040D580 00 00 00 00 00 00 00 00 00 00 00 00 00 00 00 00 ................
0040D590 00 00 00 00 00 00 00 00 00 00 00 00 00 00 00 00 ................
0040D5A0 00 00 00 00 00 00 00 00 00 00 00 00 00 00 00 00 ................
0040D5B0 00 00 00 00 00 00 00 00 00 00 00 00 00 00 00 00 ................
0040D5C0 00 00 00 00 00 00 00 00 00 00 00 00 00 00 00 00 ................
0040D5D0 00 00 00 00 00 00 00 00 00 00 00 00 00 00 00 00 ................
0040D5E0 00 00 00 00 00 00 00 00 00 00 00 00 00 00 00 00 ................
0040D5F0 00 00 00 00 00 00 00 00 00 00 00 00 00 00 00 00 ................
0040D600 00 00 00 00 00 00 00 00 00 00 00 00 00 00 00 00 ................
0040D610 00 00 00 00 00 00 00 00 00 00 00 00 00 00 00 00 ................
0040D620 00 00 00 00 00 00 00 00 00 00 00 00 00 00 00 00 ................
0040D630 00 00 00 00 00 00 00 00 00 00 00 00 00 00 00 00 ................
0040D640 00 00 00 00 00 00 00 00 00 00 00 00 00 00 00 00 ................
0040D650 00 00 00 00 00 00 00 00 00 00 00 00 00 00 00 00 ................
0040D660 00 00 00 00 00 00 00 00 00 00 00 00 00 00 00 00 ................
0040D670 00 00 00 00 00 00 00 00 00 00 00 00 00 00 00 00 ................
0040D680 00 00 00 00 00 00 00 00 00 00 00 00 00 00 00 00 ................
0040D690 00 00 00 00 00 00 00 00 00 00 00 00 00 00 00 00 ................
0040D6A0 00 00 00 00 00 00 00 00 00 00 00 00 00 00 00 00 ................
0040D6B0 00 00 00 00 00 00 00 00 00 00 00 00 00 00 00 00 ................
0040D6C0 00 00 00 00 00 00 00 00 00 00 00 00 00 00 00 00 ................
0040D6D0 00 00 00 00 00 00 00 00 00 00 00 00 00 00 00 00 ................
0040D6E0 00 00 00 00 00 00 00 00 00 00 00 00 00 00 00 00 ................
0040D6F0 00 00 00 00 00 00 00 00 00 00 00 00 00 00 00 00 ................
0040D700 00 00 00 00 00 00 00 00 00 00 00 00 00 00 00 00 ................
0040D710 00 00 00 00 00 00 00 00 00 00 00 00 00 00 00 00 ................
0040D720 00 00 00 00 00 00 00 00 00 00 00 00 00 00 00 00 ................
0040D730 00 00 00 00 00 00 00 00 00 00 00 00 00 00 00 00 ................
0040D740 00 00 00 00 00 00 00 00 00 00 00 00 00 00 00 00 ................
0040D750 00 00 00 00 00 00 00 00 00 00 00 00 00 00 00 00 ................
0040D760 00 00 00 00 00 00 00 00 00 00 00 00 00 00 00 00 ................
0040D770 00 00 00 00 00 00 00 00 00 00 00 00 00 00 00 00 ................
0040D780 00 00 00 00 00 00 00 00 00 00 00 00 00 00 00 00 ................
0040D790 00 00 00 00 00 00 00 00 00 00 00 00 00 00 00 00 ................
0040D7A0 00 00 00 00 00 00 00 00 00 00 00 00 00 00 00 00 ................
0040D7B0 00 00 00 00 00 00 00 00 00 00 00 00 00 00 00 00 ................
0040D7C0 00 00 00 00 00 00 00 00 00 00 00 00 00 00 00 00 ................
0040D7D0 00 00 00 00 00 00 00 00 00 00 00 00 00 00 00 00 ................
0040D7E0 00 00 00 00 00 00 00 00 00 00 00 00 00 00 00 00 ................
0040D7F0 00 00 00 00 00 00 00 00 00 00 00 00 00 00 00 00 ................
0040D800 00 00 00 00 00 00 00 00 00 00 00 00 00 00 00 00 ................
0040D810 00 00 00 00 00 00 00 00 00 00 00 00 00 00 00 00 ................
0040D820 00 00 00 00 00 00 00 00 00 00 00 00 00 00 00 00 ................
0040D830 00 00 00 00 00 00 00 00 00 00 00 00 00 00 00 00 ................
0040D840 00 00 00 00 00 00 00 00 00 00 00 00 00 00 00 00 ................
0040D850 00 00 00 00 00 00 00 00 00 00 00 00 00 00 00 00 ................
0040D860 00 00 00 00 00 00 00 00 00 00 00 00 00 00 00 00 ................
0040D870 00 00 00 00 00 00 00 00 00 00 00 00 00 00 00 00 ................
0040D880 00 00 00 00 00 00 00 00 00 00 00 00 00 00 00 00 ................
0040D890 00 00 00 00 00 00 00 00 00 00 00 00 00 00 00 00 ................
0040D8A0 00 00 00 00 00 00 00 00 00 00 00 00 00 00 00 00 ................
0040D8B0 00 00 00 00 00 00 00 00 00 00 00 00 00 00 00 00 ................
0040D8C0 00 00 00 00 00 00 00 00 00 00 00 00 00 00 00 00 ................
0040D8D0 00 00 00 00 00 00 00 00 00 00 00 00 00 00 00 00 ................
0040D8E0 00 00 00 00 00 00 00 00 00 00 00 00 00 00 00 00 ................
0040D8F0 00 00 00 00 00 00 00 00 00 00 00 00 00 00 00 00 ................
0040D900 00 00 00 00 00 00 00 00 00 00 00 00 00 00 00 00 ................
0040D910 00 00 00 00 00 00 00 00 00 00 00 00 00 00 00 00 ................
0040D920 00 00 00 00 00 00 00 00 00 00 00 00 00 00 00 00 ................
0040D930 00 00 00 00 00 00 00 00 00 00 00 00 00 00 00 00 ................
0040D940 00 00 00 00 00 00 00 00 00 00 00 00 00 00 00 00 ................
0040D950 00 00 00 00 00 00 00 00 00 00 00 00 00 00 00 00 ................
0040D960 00 00 00 00 00 00 00 00 00 00 00 00 00 00 00 00 ................
0040D970 00 00 00 00 00 00 00 00 00 00 00 00 00 00 00 00 ................
0040D980 00 00 00 00 00 00 00 00 00 00 00 00 00 00 00 00 ................
0040D990 00 00 00 00 00 00 00 00 00 00 00 00 00 00 00 00 ................
0040D9A0 00 00 00 00 00 00 00 00 00 00 00 00 00 00 00 00 ................
0040D9B0 00 00 00 00 00 00 00 00 00 00 00 00 00 00 00 00 ................
0040D9C0 00 00 00 00 00 00 00 00 00 00 00 00 00 00 00 00 ................
0040D9D0 00 00 00 00 00 00 00 00 00 00 00 00 00 00 00 00 ................
0040D9E0 00 00 00 00 00 00 00 00 00 00 00 00 00 00 00 00 ................
0040D9F0 00 00 00 00 00 00 00 00 00 00 00 00 00 00 00 00 ................
0040DA00 00 00 00 00 00 00 00 00 00 00 00 00 00 00 00 00 ................
0040DA10 00 00 00 00 00 00 00 00 00 00 00 00 00 00 00 00 ................
0040DA20 00 00 00 00 00 00 00 00 00 00 00 00 00 00 00 00 ................
0040DA30 00 00 00 00 00 00 00 00 00 00 00 00 00 00 00 00 ................
0040DA40 00 00 00 00 00 00 00 00 00 00 00 00 00 00 00 00 ................
0040DA50 00 00 00 00 00 00 00 00 00 00 00 00 00 00 00 00 ................
0040DA60 00 00 00 00 00 00 00 00 00 00 00 00 00 00 00 00 ................
0040DA70 00 00 00 00 00 00 00 00 00 00 00 00 00 00 00 00 ................
0040DA80 00 00 00 00 00 00 00 00 00 00 00 00 00 00 00 00 ................
0040DA90 00 00 00 00 00 00 00 00 00 00 00 00 00 00 00 00 ................
0040DAA0 00 00 00 00 00 00 00 00 00 00 00 00 00 00 00 00 ................
0040DAB0 00 00 00 00 00 00 00 00 00 00 00 00 00 00 00 00 ................
0040DAC0 00 00 00 00 00 00 00 00 00 00 00 00 00 00 00 00 ................
0040DAD0 00 00 00 00 00 00 00 00 00 00 00 00 00 00 00 00 ................
0040DAE0 00 00 00 00 00 00 00 00 00 00 00 00 00 00 00 00 ................
0040DAF0 00 00 00 00 00 00 00 00 00 00 00 00 00 00 00 00 ................
0040DB00 00 00 00 00 00 00 00 00 00 00 00 00 00 00 00 00 ................
0040DB10 00 00 00 00 00 00 00 00 00 00 00 00 00 00 00 00 ................
0040DB20 00 00 00 00 00 00 00 00 00 00 00 00 00 00 00 00 ................
0040DB30 00 00 00 00 00 00 00 00 00 00 00 00 00 00 00 00 ................
0040DB40 00 00 00 00 00 00 00 00 00 00 00 00 00 00 00 00 ................
0040DB50 00 00 00 00 00 00 00 00 00 00 00 00 00 00 00 00 ................
0040DB60 00 00 00 00 00 00 00 00 00 00 00 00 00 00 00 00 ................
0040DB70 00 00 00 00 00 00 00 00 00 00 00 00 00 00 00 00 ................
0040DB80 00 00 00 00 00 00 00 00 00 00 00 00 00 00 00 00 ................
0040DB90 00 00 00 00 00 00 00 00 00 00 00 00 00 00 00 00 ................
0040DBA0 00 00 00 00 00 00 00 00 00 00 00 00 00 00 00 00 ................
0040DBB0 00 00 00 00 00 00 00 00 00 00 00 00 00 00 00 00 ................
0040DBC0 00 00 00 00 00 00 00 00 00 00 00 00 00 00 00 00 ................
0040DBD0 00 00 00 00 00 00 00 00 00 00 00 00 00 00 00 00 ................
0040DBE0 00 00 00 00 00 00 00 00 00 00 00 00 00 00 00 00 ................
0040DBF0 00 00 00 00 00 00 00 00 00 00 00 00 00 00 00 00 ................
0040DC00 00 00 00 00 00 00 00 00 00 00 00 00 00 00 00 00 ................
0040DC10 00 00 00 00 00 00 00 00 00 00 00 00 00 00 00 00 ................
0040DC20 00 00 00 00 00 00 00 00 00 00 00 00 00 00 00 00 ................
0040DC30 00 00 00 00 00 00 00 00 00 00 00 00 00 00 00 00 ................
0040DC40 00 00 00 00 00 00 00 00 00 00 00 00 00 00 00 00 ................
0040DC50 00 00 00 00 00 00 00 00 00 00 00 00 00 00 00 00 ................
0040DC60 00 00 00 00 00 00 00 00 00 00 00 00 00 00 00 00 ................
0040DC70 00 00 00 00 00 00 00 00 00 00 00 00 00 00 00 00 ................
0040DC80 00 00 00 00 00 00 00 00 00 00 00 00 00 00 00 00 ................
0040DC90 00 00 00 00 00 00 00 00 00 00 00 00 00 00 00 00 ................
0040DCA0 00 00 00 00 00 00 00 00 00 00 00 00 00 00 00 00 ................
0040DCB0 00 00 00 00 00 00 00 00 00 00 00 00 00 00 00 00 ................
0040DCC0 00 00 00 00 00 00 00 00 00 00 00 00 00 00 00 00 ................
0040DCD0 00 00 00 00 00 00 00 00 00 00 00 00 00 00 00 00 ................
0040DCE0 00 00 00 00 00 00 00 00 00 00 00 00 00 00 00 00 ................
0040DCF0 00 00 00 00 00 00 00 00 00 00 00 00 00 00 00 00 ................
0040DD00 00 00 00 00 00 00 00 00 00 00 00 00 00 00 00 00 ................
0040DD10 00 00 00 00 00 00 00 00 00 00 00 00 00 00 00 00 ................
0040DD20 00 00 00 00 00 00 00 00 00 00 00 00 00 00 00 00 ................
0040DD30 00 00 00 00 00 00 00 00 00 00 00 00 00 00 00 00 ................
0040DD40 00 00 00 00 00 00 00 00 00 00 00 00 00 00 00 00 ................
0040DD50 00 00 00 00 00 00 00 00 00 00 00 00 00 00 00 00 ................
0040DD60 00 00 00 00 00 00 00 00 00 00 00 00 00 00 00 00 ................
0040DD70 00 00 00 00 00 00 00 00 00 00 00 00 00 00 00 00 ................
0040DD80 00 00 00 00 00 00 00 00 00 00 00 00 00 00 00 00 ................
0040DD90 00 00 00 00 00 00 00 00 00 00 00 00 00 00 00 00 ................
0040DDA0 00 00 00 00 00 00 00 00 00 00 00 00 00 00 00 00 ................
0040DDB0 00 00 00 00 00 00 00 00 00 00 00 00 00 00 00 00 ................
0040DDC0 00 00 00 00 00 00 00 00 00 00 00 00 00 00 00 00 ................
0040DDD0 00 00 00 00 00 00 00 00 00 00 00 00 00 00 00 00 ................
0040DDE0 00 00 00 00 00 00 00 00 00 00 00 00 00 00 00 00 ................
0040DDF0 00 00 00 00 00 00 00 00 00 00 00 00 00 00 00 00 ................
0040DE00 00 00 00 00 00 00 00 00 00 00 00 00 00 00 00 00 ................
0040DE10 00 00 00 00 00 00 00 00 00 00 00 00 00 00 00 00 ................
0040DE20 00 00 00 00 00 00 00 00 00 00 00 00 00 00 00 00 ................
0040DE30 00 00 00 00 00 00 00 00 00 00 00 00 00 00 00 00 ................
0040DE40 00 00 00 00 00 00 00 00 00 00 00 00 00 00 00 00 ................
0040DE50 00 00 00 00 00 00 00 00 00 00 00 00 00 00 00 00 ................
0040DE60 00 00 00 00 00 00 00 00 00 00 00 00 00 00 00 00 ................
0040DE70 00 00 00 00 00 00 00 00 00 00 00 00 00 00 00 00 ................
0040DE80 00 00 00 00 00 00 00 00 00 00 00 00 00 00 00 00 ................
0040DE90 00 00 00 00 00 00 00 00 00 00 00 00 00 00 00 00 ................
0040DEA0 00 00 00 00 00 00 00 00 00 00 00 00 00 00 00 00 ................
0040DEB0 00 00 00 00 00 00 00 00 00 00 00 00 00 00 00 00 ................
0040DEC0 00 00 00 00 00 00 00 00 00 00 00 00 00 00 00 00 ................
0040DED0 00 00 00 00 00 00 00 00 00 00 00 00 00 00 00 00 ................
0040DEE0 00 00 00 00 00 00 00 00 00 00 00 00 00 00 00 00 ................
0040DEF0 00 00 00 00 00 00 00 00 00 00 00 00 00 00 00 00 ................
0040DF00 00 00 00 00 00 00 00 00 00 00 00 00 00 00 00 00 ................
0040DF10 00 00 00 00 00 00 00 00 00 00 00 00 00 00 00 00 ................
0040DF20 00 00 00 00 00 00 00 00 00 00 00 00 00 00 00 00 ................
0040DF30 00 00 00 00 00 00 00 00 00 00 00 00 00 00 00 00 ................
0040DF40 00 00 00 00 00 00 00 00 00 00 00 00 00 00 00 00 ................
0040DF50 00 00 00 00 00 00 00 00 00 00 00 00 00 00 00 00 ................
0040DF60 00 00 00 00 00 00 00 00 00 00 00 00 00 00 00 00 ................
0040DF70 00 00 00 00 00 00 00 00 00 00 00 00 00 00 00 00 ................
0040DF80 00 00 00 00 00 00 00 00 00 00 00 00 00 00 00 00 ................
0040DF90 00 00 00 00 00 00 00 00 00 00 00 00 00 00 00 00 ................
0040DFA0 00 00 00 00 00 00 00 00 00 00 00 00 00 00 00 00 ................
0040DFB0 00 00 00 00 00 00 00 00 00 00 00 00 00 00 00 00 ................
0040DFC0 00 00 00 00 00 00 00 00 00 00 00 00 00 00 00 00 ................
0040DFD0 00 00 00 00 00 00 00 00 00 00 00 00 00 00 00 00 ................
0040DFE0 00 00 00 00 00 00 00 00 00 00 00 00 00 00 00 00 ................
0040DFF0 00 00 00 00 00 00 00 00 00 00 00 00 00 00 00 00 ................
0040E000 00 00 00 00 00 00 00 00 00 00 00 00 00 00 00 00 ................
0040E010 00 00 00 00 00 00 00 00 00 00 00 00 00 00 00 00 ................
0040E020 00 00 00 00 00 00 00 00 00 00 00 00 00 00 00 00 ................
0040E030 00 00 00 00 00 00 00 00 00 00 00 00 00 00 00 00 ................
0040E040 00 00 00 00 00 00 00 00 00 00 00 00 00 00 00 00 ................
0040E050 00 00 00 00 00 00 00 00 00 00 00 00 00 00 00 00 ................
0040E060 00 00 00 00 00 00 00 00 00 00 00 00 00 00 00 00 ................
0040E070 00 00 00 00 00 00 00 00 00 00 00 00 00 00 00 00 ................
0040E080 00 00 00 00 00 00 00 00 00 00 00 00 00 00 00 00 ................
0040E090 00 00 00 00 00 00 00 00 00 00 00 00 00 00 00 00 ................
0040E0A0 00 00 00 00 00 00 00 00 00 00 00 00 00 00 00 00 ................
0040E0B0 00 00 00 00 00 00 00 00 00 00 00 00 00 00 00 00 ................
0040E0C0 00 00 00 00 00 00 00 00 00 00 00 00 00 00 00 00 ................
0040E0D0 00 00 00 00 00 00 00 00 00 00 00 00 00 00 00 00 ................
0040E0E0 00 00 00 00 00 00 00 00 00 00 00 00 00 00 00 00 ................
0040E0F0 00 00 00 00 00 00 00 00 00 00 00 00 00 00 00 00 ................
0040E100 00 00 00 00 00 00 00 00 00 00 00 00 00 00 00 00 ................
0040E110 00 00 00 00 00 00 00 00 00 00 00 00 00 00 00 00 ................
0040E120 00 00 00 00 00 00 00 00 00 00 00 00 00 00 00 00 ................
0040E130 00 00 00 00 00 00 00 00 00 00 00 00 00 00 00 00 ................
0040E140 00 00 00 00 00 00 00 00 00 00 00 00 00 00 00 00 ................
0040E150 00 00 00 00 00 00 00 00 00 00 00 00 00 00 00 00 ................
0040E160 00 00 00 00 00 00 00 00 00 00 00 00 00 00 00 00 ................
0040E170 00 00 00 00 00 00 00 00 00 00 00 00 00 00 00 00 ................
0040E180 00 00 00 00 00 00 00 00 00 00 00 00 00 00 00 00 ................
0040E190 00 00 00 00 00 00 00 00 00 00 00 00 00 00 00 00 ................
0040E1A0 00 00 00 00 00 00 00 00 00 00 00 00 00 00 00 00 ................
0040E1B0 00 00 00 00 00 00 00 00 00 00 00 00 00 00 00 00 ................
0040E1C0 00 00 00 00 00 00 00 00 00 00 00 00 00 00 00 00 ................
0040E1D0 00 00 00 00 00 00 00 00 00 00 00 00 00 00 00 00 ................
0040E1E0 00 00 00 00 00 00 00 00 00 00 00 00 00 00 00 00 ................
0040E1F0 00 00 00 00 00 00 00 00 00 00 00 00 00 00 00 00 ................
0040E200 00 00 00 00 00 00 00 00 00 00 00 00 00 00 00 00 ................
0040E210 00 00 00 00 00 00 00 00 00 00 00 00 00 00 00 00 ................
0040E220 00 00 00 00 00 00 00 00 00 00 00 00 00 00 00 00 ................
0040E230 00 00 00 00 00 00 00 00 00 00 00 00 00 00 00 00 ................
0040E240 00 00 00 00 00 00 00 00 00 00 00 00 00 00 00 00 ................
0040E250 00 00 00 00 00 00 00 00 00 00 00 00 00 00 00 00 ................
0040E260 00 00 00 00 00 00 00 00 00 00 00 00 00 00 00 00 ................
0040E270 00 00 00 00 00 00 00 00 00 00 00 00 00 00 00 00 ................
0040E280 00 00 00 00 00 00 00 00 00 00 00 00 00 00 00 00 ................
0040E290 00 00 00 00 00 00 00 00 00 00 00 00 00 00 00 00 ................
0040E2A0 00 00 00 00 00 00 00 00 00 00 00 00 00 00 00 00 ................
0040E2B0 00 00 00 00 00 00 00 00 00 00 00 00 00 00 00 00 ................
0040E2C0 00 00 00 00 00 00 00 00 00 00 00 00 00 00 00 00 ................
0040E2D0 00 00 00 00 00 00 00 00 00 00 00 00 00 00 00 00 ................
0040E2E0 00 00 00 00 00 00 00 00 00 00 00 00 00 00 00 00 ................
0040E2F0 00 00 00 00 00 00 00 00 00 00 00 00 00 00 00 00 ................
0040E300 00 00 00 00 00 00 00 00 00 00 00 00 00 00 00 00 ................
0040E310 00 00 00 00 00 00 00 00 00 00 00 00 00 00 00 00 ................
0040E320 00 00 00 00 00 00 00 00 00 00 00 00 00 00 00 00 ................
0040E330 00 00 00 00 00 00 00 00 00 00 00 00 00 00 00 00 ................
0040E340 00 00 00 00 00 00 00 00 00 00 00 00 00 00 00 00 ................
0040E350 00 00 00 00 00 00 00 00 00 00 00 00 00 00 00 00 ................
0040E360 00 00 00 00 00 00 00 00 00 00 00 00 00 00 00 00 ................
0040E370 00 00 00 00 00 00 00 00 00 00 00 00 00 00 00 00 ................
0040E380 00 00 00 00 00 00 00 00 00 00 00 00 00 00 00 00 ................
0040E390 00 00 00 00 00 00 00 00 00 00 00 00 00 00 00 00 ................
0040E3A0 00 00 00 00 00 00 00 00 00 00 00 00 00 00 00 00 ................
0040E3B0 00 00 00 00 00 00 00 00 00 00 00 00 00 00 00 00 ................
0040E3C0 00 00 00 00 00 00 00 00 00 00 00 00 00 00 00 00 ................
0040E3D0 00 00 00 00 00 00 00 00 00 00 00 00 00 00 00 00 ................
0040E3E0 00 00 00 00 00 00 00 00 00 00 00 00 00 00 00 00 ................
0040E3F0 00 00 00 00 00 00 00 00 00 00 00 00 00 00 00 00 ................
0040E400 00 00 00 00 00 00 00 00 00 00 00 00 00 00 00 00 ................
0040E410 00 00 00 00 00 00 00 00 00 00 00 00 00 00 00 00 ................
0040E420 00 00 00 00 00 00 00 00 00 00 00 00 00 00 00 00 ................
0040E430 00 00 00 00 00 00 00 00 00 00 00 00 00 00 00 00 ................
0040E440 00 00 00 00 00 00 00 00 00 00 00 00 00 00 00 00 ................
0040E450 00 00 00 00 00 00 00 00 00 00 00 00 00 00 00 00 ................
0040E460 00 00 00 00 00 00 00 00 00 00 00 00 00 00 00 00 ................
0040E470 00 00 00 00 00 00 00 00 00 00 00 00 00 00 00 00 ................
0040E480 00 00 00 00 00 00 00 00 00 00 00 00 00 00 00 00 ................
0040E490 00 00 00 00 00 00 00 00 00 00 00 00 00 00 00 00 ................
0040E4A0 00 00 00 00 00 00 00 00 00 00 00 00 00 00 00 00 ................
0040E4B0 00 00 00 00 00 00 00 00 00 00 00 00 00 00 00 00 ................
0040E4C0 00 00 00 00 00 00 00 00 00 00 00 00 00 00 00 00 ................
0040E4D0 00 00 00 00 00 00 00 00 00 00 00 00 00 00 00 00 ................
0040E4E0 00 00 00 00 00 00 00 00 00 00 00 00 00 00 00 00 ................
0040E4F0 00 00 00 00 00 00 00 00 00 00 00 00 00 00 00 00 ................
0040E500 00 00 00 00 00 00 00 00 00 00 00 00 00 00 00 00 ................
0040E510 00 00 00 00 00 00 00 00 00 00 00 00 00 00 00 00 ................
0040E520 00 00 00 00 00 00 00 00 00 00 00 00 00 00 00 00 ................
0040E530 00 00 00 00 00 00 00 00 00 00 00 00 00 00 00 00 ................
0040E540 00 00 00 00 00 00 00 00 00 00 00 00 00 00 00 00 ................
0040E550 00 00 00 00 00 00 00 00 00 00 00 00 00 00 00 00 ................
0040E560 00 00 00 00 00 00 00 00 00 00 00 00 00 00 00 00 ................
0040E570 00 00 00 00 00 00 00 00 00 00 00 00 00 00 00 00 ................
0040E580 00 00 00 00 00 00 00 00 00 00 00 00 00 00 00 00 ................
0040E590 00 00 00 00 00 00 00 00 00 00 00 00 00 00 00 00 ................
0040E5A0 00 00 00 00 00 00 00 00 00 00 00 00 00 00 00 00 ................
0040E5B0 00 00 00 00 00 00 00 00 00 00 00 00 00 00 00 00 ................
0040E5C0 00 00 00 00 00 00 00 00 00 00 00 00 00 00 00 00 ................
0040E5D0 00 00 00 00 00 00 00 00 00 00 00 00 00 00 00 00 ................
0040E5E0 00 00 00 00 00 00 00 00 00 00 00 00 00 00 00 00 ................
0040E5F0 00 00 00 00 00 00 00 00 00 00 00 00 00 00 00 00 ................
0040E600 00 00 00 00 00 00 00 00 00 00 00 00 00 00 00 00 ................
0040E610 00 00 00 00 00 00 00 00 00 00 00 00 00 00 00 00 ................
0040E620 00 00 00 00 00 00 00 00 00 00 00 00 00 00 00 00 ................
0040E630 00 00 00 00 00 00 00 00 00 00 00 00 00 00 00 00 ................
0040E640 00 00 00 00 00 00 00 00 00 00 00 00 00 00 00 00 ................
0040E650 00 00 00 00 00 00 00 00 00 00 00 00 00 00 00 00 ................
0040E660 00 00 00 00 00 00 00 00 00 00 00 00 00 00 00 00 ................
0040E670 00 00 00 00 00 00 00 00 00 00 00 00 00 00 00 00 ................
0040E680 00 00 00 00 00 00 00 00 00 00 00 00 00 00 00 00 ................
0040E690 00 00 00 00 00 00 00 00 00 00 00 00 00 00 00 00 ................
0040E6A0 00 00 00 00 00 00 00 00 00 00 00 00 00 00 00 00 ................
0040E6B0 00 00 00 00 00 00 00 00 00 00 00 00 00 00 00 00 ................
0040E6C0 00 00 00 00 00 00 00 00 00 00 00 00 00 00 00 00 ................
0040E6D0 00 00 00 00 00 00 00 00 00 00 00 00 00 00 00 00 ................
0040E6E0 00 00 00 00 00 00 00 00 00 00 00 00 00 00 00 00 ................
0040E6F0 00 00 00 00 00 00 00 00 00 00 00 00 00 00 00 00 ................
0040E700 00 00 00 00 00 00 00 00 00 00 00 00 00 00 00 00 ................
0040E710 00 00 00 00 00 00 00 00 00 00 00 00 00 00 00 00 ................
0040E720 00 00 00 00 00 00 00 00 00 00 00 00 00 00 00 00 ................
0040E730 00 00 00 00 00 00 00 00 00 00 00 00 00 00 00 00 ................
0040E740 00 00 00 00 00 00 00 00 00 00 00 00 00 00 00 00 ................
0040E750 00 00 00 00 00 00 00 00 00 00 00 00 00 00 00 00 ................
0040E760 00 00 00 00 00 00 00 00 00 00 00 00 00 00 00 00 ................
0040E770 00 00 00 00 00 00 00 00 00 00 00 00 00 00 00 00 ................
0040E780 00 00 00 00 00 00 00 00 00 00 00 00 00 00 00 00 ................
0040E790 00 00 00 00 00 00 00 00 00 00 00 00 00 00 00 00 ................
0040E7A0 00 00 00 00 00 00 00 00 00 00 00 00 00 00 00 00 ................
0040E7B0 00 00 00 00 00 00 00 00 00 00 00 00 00 00 00 00 ................
0040E7C0 00 00 00 00 00 00 00 00 00 00 00 00 00 00 00 00 ................
0040E7D0 00 00 00 00 00 00 00 00 00 00 00 00 00 00 00 00 ................
0040E7E0 00 00 00 00 00 00 00 00 00 00 00 00 00 00 00 00 ................
0040E7F0 00 00 00 00 00 00 00 00 00 00 00 00 00 00 00 00 ................
0040E800 00 00 00 00 00 00 00 00 00 00 00 00 00 00 00 00 ................
0040E810 00 00 00 00 00 00 00 00 00 00 00 00 00 00 00 00 ................
0040E820 00 00 00 00 00 00 00 00 00 00 00 00 00 00 00 00 ................
0040E830 00 00 00 00 00 00 00 00 00 00 00 00 00 00 00 00 ................
0040E840 00 00 00 00 00 00 00 00 00 00 00 00 00 00 00 00 ................
0040E850 00 00 00 00 00 00 00 00 00 00 00 00 00 00 00 00 ................
0040E860 00 00 00 00 00 00 00 00 00 00 00 00 00 00 00 00 ................
0040E870 00 00 00 00 00 00 00 00 00 00 00 00 00 00 00 00 ................
0040E880 00 00 00 00 00 00 00 00 00 00 00 00 00 00 00 00 ................
0040E890 00 00 00 00 00 00 00 00 00 00 00 00 00 00 00 00 ................
0040E8A0 00 00 00 00 00 00 00 00 00 00 00 00 00 00 00 00 ................
0040E8B0 00 00 00 00 00 00 00 00 00 00 00 00 00 00 00 00 ................
0040E8C0 00 00 00 00 00 00 00 00 00 00 00 00 00 00 00 00 ................
0040E8D0 00 00 00 00 00 00 00 00 00 00 00 00 00 00 00 00 ................
0040E8E0 00 00 00 00 00 00 00 00 00 00 00 00 00 00 00 00 ................
0040E8F0 00 00 00 00 00 00 00 00 00 00 00 00 00 00 00 00 ................
0040E900 00 00 00 00 00 00 00 00 00 00 00 00 00 00 00 00 ................
0040E910 00 00 00 00 00 00 00 00 00 00 00 00 00 00 00 00 ................
0040E920 00 00 00 00 00 00 00 00 00 00 00 00 00 00 00 00 ................
0040E930 00 00 00 00 00 00 00 00 00 00 00 00 00 00 00 00 ................
0040E940 00 00 00 00 00 00 00 00 00 00 00 00 00 00 00 00 ................
0040E950 00 00 00 00 00 00 00 00 00 00 00 00 00 00 00 00 ................
0040E960 00 00 00 00 00 00 00 00 00 00 00 00 00 00 00 00 ................
0040E970 00 00 00 00 00 00 00 00 00 00 00 00 00 00 00 00 ................
0040E980 00 00 00 00 00 00 00 00 00 00 00 00 00 00 00 00 ................
0040E990 00 00 00 00 00 00 00 00 00 00 00 00 00 00 00 00 ................
0040E9A0 00 00 00 00 00 00 00 00 00 00 00 00 00 00 00 00 ................
0040E9B0 00 00 00 00 00 00 00 00 00 00 00 00 00 00 00 00 ................
0040E9C0 00 00 00 00 00 00 00 00 00 00 00 00 00 00 00 00 ................
0040E9D0 00 00 00 00 00 00 00 00 00 00 00 00 00 00 00 00 ................
0040E9E0 00 00 00 00 00 00 00 00 00 00 00 00 00 00 00 00 ................
0040E9F0 00 00 00 00 00 00 00 00 00 00 00 00 00 00 00 00 ................
0040EA00 00 00 00 00 00 00 00 00 00 00 00 00 00 00 00 00 ................
0040EA10 00 00 00 00 00 00 00 00 00 00 00 00 00 00 00 00 ................
0040EA20 00 00 00 00 00 00 00 00 00 00 00 00 00 00 00 00 ................
0040EA30 00 00 00 00 00 00 00 00 00 00 00 00 00 00 00 00 ................
0040EA40 00 00 00 00 00 00 00 00 00 00 00 00 00 00 00 00 ................
0040EA50 00 00 00 00 00 00 00 00 00 00 00 00 00 00 00 00 ................
0040EA60 00 00 00 00 00 00 00 00 00 00 00 00 00 00 00 00 ................
0040EA70 00 00 00 00 00 00 00 00 00 00 00 00 00 00 00 00 ................
0040EA80 00 00 00 00 00 00 00 00 00 00 00 00 00 00 00 00 ................
0040EA90 00 00 00 00 00 00 00 00 00 00 00 00 00 00 00 00 ................
0040EAA0 00 00 00 00 00 00 00 00 00 00 00 00 00 00 00 00 ................
0040EAB0 00 00 00 00 00 00 00 00 00 00 00 00 00 00 00 00 ................
0040EAC0 00 00 00 00 00 00 00 00 00 00 00 00 00 00 00 00 ................
0040EAD0 00 00 00 00 00 00 00 00 00 00 00 00 00 00 00 00 ................
0040EAE0 00 00 00 00 00 00 00 00 00 00 00 00 00 00 00 00 ................
0040EAF0 00 00 00 00 00 00 00 00 00 00 00 00 00 00 00 00 ................
0040EB00 00 00 00 00 00 00 00 00 00 00 00 00 00 00 00 00 ................
0040EB10 00 00 00 00 00 00 00 00 00 00 00 00 00 00 00 00 ................
0040EB20 00 00 00 00 00 00 00 00 00 00 00 00 00 00 00 00 ................
0040EB30 00 00 00 00 00 00 00 00 00 00 00 00 00 00 00 00 ................
0040EB40 00 00 00 00 00 00 00 00 00 00 00 00 00 00 00 00 ................
0040EB50 00 00 00 00 00 00 00 00 00 00 00 00 00 00 00 00 ................
0040EB60 00 00 00 00 00 00 00 00 00 00 00 00 00 00 00 00 ................
0040EB70 00 00 00 00 00 00 00 00 00 00 00 00 00 00 00 00 ................
0040EB80 00 00 00 00 00 00 00 00 00 00 00 00 00 00 00 00 ................
0040EB90 00 00 00 00 00 00 00 00 00 00 00 00 00 00 00 00 ................
0040EBA0 00 00 00 00 00 00 00 00 00 00 00 00 00 00 00 00 ................
0040EBB0 00 00 00 00 00 00 00 00 00 00 00 00 00 00 00 00 ................
0040EBC0 00 00 00 00 00 00 00 00 00 00 00 00 00 00 00 00 ................
0040EBD0 00 00 00 00 00 00 00 00 00 00 00 00 00 00 00 00 ................
0040EBE0 00 00 00 00 00 00 00 00 00 00 00 00 00 00 00 00 ................
0040EBF0 00 00 00 00 00 00 00 00 00 00 00 00 00 00 00 00 ................
0040EC00 00 00 00 00 00 00 00 00 00 00 00 00 00 00 00 00 ................
0040EC10 00 00 00 00 00 00 00 00 00 00 00 00 00 00 00 00 ................
0040EC20 00 00 00 00 00 00 00 00 00 00 00 00 00 00 00 00 ................
0040EC30 00 00 00 00 00 00 00 00 00 00 00 00 00 00 00 00 ................
0040EC40 00 00 00 00 00 00 00 00 00 00 00 00 00 00 00 00 ................
0040EC50 00 00 00 00 00 00 00 00 00 00 00 00 00 00 00 00 ................
0040EC60 00 00 00 00 00 00 00 00 00 00 00 00 00 00 00 00 ................
0040EC70 00 00 00 00 00 00 00 00 00 00 00 00 00 00 00 00 ................
0040EC80 00 00 00 00 00 00 00 00 00 00 00 00 00 00 00 00 ................
0040EC90 00 00 00 00 00 00 00 00 00 00 00 00 00 00 00 00 ................
0040ECA0 00 00 00 00 00 00 00 00 00 00 00 00 00 00 00 00 ................
0040ECB0 00 00 00 00 00 00 00 00 00 00 00 00 00 00 00 00 ................
0040ECC0 00 00 00 00 00 00 00 00 00 00 00 00 00 00 00 00 ................
0040ECD0 00 00 00 00 00 00 00 00 00 00 00 00 00 00 00 00 ................
0040ECE0 00 00 00 00 00 00 00 00 00 00 00 00 00 00 00 00 ................
0040ECF0 00 00 00 00 00 00 00 00 00 00 00 00 00 00 00 00 ................
0040ED00 00 00 00 00 00 00 00 00 00 00 00 00 00 00 00 00 ................
0040ED10 00 00 00 00 00 00 00 00 00 00 00 00 00 00 00 00 ................
0040ED20 00 00 00 00 00 00 00 00 00 00 00 00 00 00 00 00 ................
0040ED30 00 00 00 00 00 00 00 00 00 00 00 00 00 00 00 00 ................
0040ED40 00 00 00 00 00 00 00 00 00 00 00 00 00 00 00 00 ................
0040ED50 00 00 00 00 00 00 00 00 00 00 00 00 00 00 00 00 ................
0040ED60 00 00 00 00 00 00 00 00 00 00 00 00 00 00 00 00 ................
0040ED70 00 00 00 00 00 00 00 00 00 00 00 00 00 00 00 00 ................
0040ED80 00 00 00 00 00 00 00 00 00 00 00 00 00 00 00 00 ................
0040ED90 00 00 00 00 00 00 00 00 00 00 00 00 00 00 00 00 ................
0040EDA0 00 00 00 00 00 00 00 00 00 00 00 00 00 00 00 00 ................
0040EDB0 00 00 00 00 00 00 00 00 00 00 00 00 00 00 00 00 ................
0040EDC0 00 00 00 00 00 00 00 00 00 00 00 00 00 00 00 00 ................
0040EDD0 00 00 00 00 00 00 00 00 00 00 00 00 00 00 00 00 ................
0040EDE0 00 00 00 00 00 00 00 00 00 00 00 00 00 00 00 00 ................
0040EDF0 00 00 00 00 00 00 00 00 00 00 00 00 00 00 00 00 ................
0040EE00 00 00 00 00 00 00 00 00 00 00 00 00 00 00 00 00 ................
0040EE10 00 00 00 00 00 00 00 00 00 00 00 00 00 00 00 00 ................
0040EE20 00 00 00 00 00 00 00 00 00 00 00 00 00 00 00 00 ................
0040EE30 00 00 00 00 00 00 00 00 00 00 00 00 00 00 00 00 ................
0040EE40 00 00 00 00 00 00 00 00 00 00 00 00 00 00 00 00 ................
0040EE50 00 00 00 00 00 00 00 00 00 00 00 00 00 00 00 00 ................
0040EE60 00 00 00 00 00 00 00 00 00 00 00 00 00 00 00 00 ................
0040EE70 00 00 00 00 00 00 00 00 00 00 00 00 00 00 00 00 ................
0040EE80 00 00 00 00 00 00 00 00 00 00 00 00 00 00 00 00 ................
0040EE90 00 00 00 00 00 00 00 00 00 00 00 00 00 00 00 00 ................
0040EEA0 00 00 00 00 00 00 00 00 00 00 00 00 00 00 00 00 ................
0040EEB0 00 00 00 00 00 00 00 00 00 00 00 00 00 00 00 00 ................
0040EEC0 00 00 00 00 00 00 00 00 00 00 00 00 00 00 00 00 ................
0040EED0 00 00 00 00 00 00 00 00 00 00 00 00 00 00 00 00 ................
0040EEE0 00 00 00 00 00 00 00 00 00 00 00 00 00 00 00 00 ................
0040EEF0 00 00 00 00 00 00 00 00 00 00 00 00 00 00 00 00 ................
0040EF00 00 00 00 00 00 00 00 00 00 00 00 00 00 00 00 00 ................
0040EF10 00 00 00 00 00 00 00 00 00 00 00 00 00 00 00 00 ................
0040EF20 00 00 00 00 00 00 00 00 00 00 00 00 00 00 00 00 ................
0040EF30 00 00 00 00 00 00 00 00 00 00 00 00 00 00 00 00 ................
0040EF40 00 00 00 00 00 00 00 00 00 00 00 00 00 00 00 00 ................
0040EF50 00 00 00 00 00 00 00 00 00 00 00 00 00 00 00 00 ................
0040EF60 00 00 00 00 00 00 00 00 00 00 00 00 00 00 00 00 ................
0040EF70 00 00 00 00 00 00 00 00 00 00 00 00 00 00 00 00 ................
0040EF80 00 00 00 00 00 00 00 00 00 00 00 00 00 00 00 00 ................
0040EF90 00 00 00 00 00 00 00 00 00 00 00 00 00 00 00 00 ................
0040EFA0 00 00 00 00 00 00 00 00 00 00 00 00 00 00 00 00 ................
0040EFB0 00 00 00 00 00 00 00 00 00 00 00 00 00 00 00 00 ................
0040EFC0 00 00 00 00 00 00 00 00 00 00 00 00 00 00 00 00 ................
0040EFD0 00 00 00 00 00 00 00 00 00 00 00 00 00 00 00 00 ................
0040EFE0 00 00 00 00 00 00 00 00 00 00 00 00 00 00 00 00 ................
0040EFF0 00 00 00 00 00 00 00 00 00 00 00 00 00 00 00 00 ................
0040F000 B8 F2 00 00 C6 F2 00 00 D6 F2 00 00 EC F2 00 00 ................
0040F010 FC F2 00 00 0C F3 00 00 22 F3 00 00 2E F3 00 00 ........".......
0040F020 42 F3 00 00 54 F3 00 00 64 F3 00 00 76 F3 00 00 B...T...d...v...
0040F030 82 F3 00 00 94 F3 00 00 A4 F3 00 00 B2 F3 00 00 ................
0040F040 CA F3 00 00 DA F3 00 00 F4 F3 00 00 02 F4 00 00 ................
0040F050 20 F4 00 00 2C F4 00 00 38 F4 00 00 44 F4 00 00  ...,...8...D...
0040F060 50 F4 00 00 64 F4 00 00 74 F4 00 00 80 F4 00 00 P...d...t.......
0040F070 8A F4 00 00 9A F4 00 00 A8 F4 00 00 B6 F4 00 00 ................
0040F080 C4 F4 00 00 D4 F4 00 00 E2 F4 00 00 EC F4 00 00 ................
0040F090 FE F4 00 00 12 F5 00 00 20 F5 00 00 34 F5 00 00 ........ ...4...
0040F0A0 40 F5 00 00 58 F5 00 00 68 F5 00 00 00 00 00 00 @...X...h.......
0040F0B0 92 F5 00 00 A2 F5 00 00 B8 F5 00 00 C6 F5 00 00 ................
0040F0C0 D4 F5 00 00 E6 F5 00 00 F4 F5 00 00 00 F6 00 00 ................
0040F0D0 08 F6 00 00 16 F6 00 00 26 F6 00 00 32 F6 00 00 ........&...2...
0040F0E0 40 F6 00 00 54 F6 00 00 66 F6 00 00 78 F6 00 00 @...T...f...x...
0040F0F0 88 F6 00 00 96 F6 00 00 A2 F6 00 00 B8 F6 00 00 ................
0040F100 C6 F6 00 00 D4 F6 00 00 E0 F6 00 00 EC F6 00 00 ................
0040F110 02 F7 00 00 14 F7 00 00 20 F7 00 00 2C F7 00 00 ........ ...,...
0040F120 3C F7 00 00 48 F7 00 00 56 F7 00 00 64 F7 00 00 <...H...V...d...
0040F130 70 F7 00 00 84 F7 00 00 00 00 00 00 00 00 00 00 p...............
0040F140 7C F1 00 00 00 00 00 00 00 00 00 00 84 F5 00 00 |...............
0040F150 00 F0 00 00 2C F2 00 00 00 00 00 00 00 00 00 00 ....,...........
0040F160 96 F7 00 00 B0 F0 00 00 00 00 00 00 00 00 00 00 ................
0040F170 00 00 00 00 00 00 00 00 00 00 00 00 B8 F2 00 00 ................
0040F180 C6 F2 00 00 D6 F2 00 00 EC F2 00 00 FC F2 00 00 ................
0040F190 0C F3 00 00 22 F3 00 00 2E F3 00 00 42 F3 00 00 ....".......B...
0040F1A0 54 F3 00 00 64 F3 00 00 76 F3 00 00 82 F3 00 00 T...d...v.......
0040F1B0 94 F3 00 00 A4 F3 00 00 B2 F3 00 00 CA F3 00 00 ................
0040F1C0 DA F3 00 00 F4 F3 00 00 02 F4 00 00 20 F4 00 00 ............ ...
0040F1D0 2C F4 00 00 38 F4 00 00 44 F4 00 00 50 F4 00 00 ,...8...D...P...
0040F1E0 64 F4 00 00 74 F4 00 00 80 F4 00 00 8A F4 00 00 d...t...........
0040F1F0 9A F4 00 00 A8 F4 00 00 B6 F4 00 00 C4 F4 00 00 ................
0040F200 D4 F4 00 00 E2 F4 00 00 EC F4 00 00 FE F4 00 00 ................
0040F210 12 F5 00 00 20 F5 00 00 34 F5 00 00 40 F5 00 00 .... ...4...@...
0040F220 58 F5 00 00 68 F5 00 00 00 00 00 00 92 F5 00 00 X...h...........
0040F230 A2 F5 00 00 B8 F5 00 00 C6 F5 00 00 D4 F5 00 00 ................
0040F240 E6 F5 00 00 F4 F5 00 00 00 F6 00 00 08 F6 00 00 ................
0040F250 16 F6 00 00 26 F6 00 00 32 F6 00 00 40 F6 00 00 ....&...2...@...
0040F260 54 F6 00 00 66 F6 00 00 78 F6 00 00 88 F6 00 00 T...f...x.......
0040F270 96 F6 00 00 A2 F6 00 00 B8 F6 00 00 C6 F6 00 00 ................
0040F280 D4 F6 00 00 E0 F6 00 00 EC F6 00 00 02 F7 00 00 ................
0040F290 14 F7 00 00 20 F7 00 00 2C F7 00 00 3C F7 00 00 .... ...,...<...
0040F2A0 48 F7 00 00 56 F7 00 00 64 F7 00 00 70 F7 00 00 H...V...d...p...
0040F2B0 84 F7 00 00 00 00 00 00 10 00 43 72 65 61 74 65 ..........Create
0040F2C0 46 69 6C 65 57 00 16 00 56 69 72 74 75 61 6C 41 FileW...VirtualA
0040F2D0 6C 6C 6F 63 00 00 1C 00 47 65 74 4D 6F 64 75 6C lloc....GetModul
0040F2E0 65 46 69 6C 65 4E 61 6D 65 41 00 00 1F 00 53 65 eFileNameA....Se
0040F2F0 74 4C 61 73 74 45 72 72 6F 72 00 00 23 00 47 65 tLastError..#.Ge
0040F300 74 4C 61 73 74 45 72 72 6F 72 00 00 29 00 4D 75 tLastError..).Mu
0040F310 6C 74 69 42 79 74 65 54 6F 57 69 64 65 43 68 61 ltiByteToWideCha
0040F320 72 00 2B 00 48 65 61 70 46 72 65 65 00 00 31 00 r.+.HeapFree..1.
0040F330 47 65 74 4D 6F 64 75 6C 65 48 61 6E 64 6C 65 41 GetModuleHandleA
0040F340 00 00 34 00 47 65 74 43 6F 6D 6D 61 6E 64 4C 69 ..4.GetCommandLi
0040F350 6E 65 57 00 3A 00 56 69 72 74 75 61 6C 41 6C 6C neW.:.VirtualAll
0040F360 6F 63 00 00 40 00 47 65 74 43 6F 6D 6D 61 6E 64 oc..@.GetCommand
0040F370 4C 69 6E 65 41 00 45 00 4C 6F 63 61 6C 46 72 65 LineA.E.LocalFre
0040F380 65 00 48 00 47 65 74 43 6F 6D 6D 61 6E 64 4C 69 e.H.GetCommandLi
0040F390 6E 65 41 00 4C 00 53 65 74 4C 61 73 74 45 72 72 neA.L.SetLastErr
0040F3A0 6F 72 00 00 50 00 48 65 61 70 52 65 41 6C 6C 6F or..P.HeapReAllo
0040F3B0 63 00 52 00 45 6E 74 65 72 43 72 69 74 69 63 61 c.R.EnterCritica
0040F3C0 6C 53 65 63 74 69 6F 6E 00 00 57 00 56 69 72 74 lSection..W.Virt
0040F3D0 75 61 6C 41 6C 6C 6F 63 00 00 59 00 47 65 74 53 ualAlloc..Y.GetS
0040F3E0 79 73 74 65 6D 54 69 6D 65 41 73 46 69 6C 65 54 ystemTimeAsFileT
0040F3F0 69 6D 65 00 5A 00 43 72 65 61 74 65 46 69 6C 65 ime.Z.CreateFile
0040F400 57 00 5D 00 53 65 74 55 6E 68 61 6E 64 6C 65 64 W.].SetUnhandled
0040F410 45 78 63 65 70 74 69 6F 6E 46 69 6C 74 65 72 00 ExceptionFilter.
0040F420 63 00 48 65 61 70 41 6C 6C 6F 63 00 64 00 52 65 c.HeapAlloc.d.Re
0040F430 61 64 46 69 6C 65 00 00 65 00 53 65 74 45 76 65 adFile..e.SetEve
0040F440 6E 74 00 00 66 00 6C 73 74 72 63 70 79 57 00 00 nt..f.lstrcpyW..
0040F450 68 00 54 65 72 6D 69 6E 61 74 65 50 72 6F 63 65 h.TerminateProce
0040F460 73 73 00 00 69 00 4C 6F 61 64 4C 69 62 72 61 72 ss..i.LoadLibrar
0040F470 79 57 00 00 6B 00 48 65 61 70 46 72 65 65 00 00 yW..k.HeapFree..
0040F480 71 00 47 65 74 41 43 50 00 00 77 00 53 65 74 4C q.GetACP..w.SetL
0040F490 61 73 74 45 72 72 6F 72 00 00 7D 00 43 6C 6F 73 astError..}.Clos
0040F4A0 65 48 61 6E 64 6C 65 00 82 00 46 72 65 65 4C 69 eHandle...FreeLi
0040F4B0 62 72 61 72 79 00 85 00 43 72 65 61 74 65 46 69 brary...CreateFi
0040F4C0 6C 65 57 00 8B 00 47 65 74 4C 61 73 74 45 72 72 leW...GetLastErr
0040F4D0 6F 72 00 00 8F 00 4C 6F 63 61 6C 41 6C 6C 6F 63 or....LocalAlloc
0040F4E0 00 00 90 00 47 65 74 41 43 50 00 00 96 00 47 65 ....GetACP....Ge
0040F4F0 74 43 6F 6D 6D 61 6E 64 4C 69 6E 65 57 00 98 00 tCommandLineW...
0040F500 47 65 74 4D 6F 64 75 6C 65 48 61 6E 64 6C 65 57 GetModuleHandleW
0040F510 00 00 9D 00 43 72 65 61 74 65 46 69 6C 65 57 00 ....CreateFileW.
0040F520 A2 00 47 65 74 43 75 72 72 65 6E 74 50 72 6F 63 ..GetCurrentProc
0040F530 65 73 73 00 A8 00 4C 6F 63 61 6C 46 72 65 65 00 ess...LocalFree.
0040F540 AB 00 44 65 6C 65 74 65 43 72 69 74 69 63 61 6C ..DeleteCritical
0040F550 53 65 63 74 69 6F 6E 00 AE 00 43 72 65 61 74 65 Section...Create
0040F560 54 68 72 65 61 64 00 00 B4 00 55 6E 68 61 6E 64 Thread....Unhand
0040F570 6C 65 64 45 78 63 65 70 74 69 6F 6E 46 69 6C 74 ledExceptionFilt
0040F580 65 72 00 00 4B 45 52 4E 45 4C 33 32 2E 44 4C 4C er..KERNEL32.DLL
0040F590 00 00 17 00 50 65 65 6B 4D 65 73 73 61 67 65 57 ....PeekMessageW
0040F5A0 00 00 1C 00 53 65 74 46 6F 72 65 67 72 6F 75 6E ....SetForegroun
0040F5B0 64 57 69 6E 64 6F 77 00 1E 00 4F 66 66 73 65 74 dWindow...Offset
0040F5C0 52 65 63 74 00 00 20 00 4C 6F 61 64 43 75 72 73 Rect.. .LoadCurs
0040F5D0 6F 72 57 00 21 00 53 65 74 57 69 6E 64 6F 77 54 orW.!.SetWindowT
0040F5E0 65 78 74 57 00 00 26 00 47 65 74 53 79 73 43 6F extW..&.GetSysCo
0040F5F0 6C 6F 72 00 29 00 46 69 6C 6C 52 65 63 74 00 00 lor.).FillRect..
0040F600 2F 00 47 65 74 44 43 00 34 00 44 65 73 74 72 6F /.GetDC.4.Destro
0040F610 79 4D 65 6E 75 00 3A 00 53 65 74 57 69 6E 64 6F yMenu.:.SetWindo
0040F620 77 50 6F 73 00 00 3D 00 50 74 49 6E 52 65 63 74 wPos..=.PtInRect
0040F630 00 00 40 00 4C 6F 61 64 53 74 72 69 6E 67 41 00 ..@.LoadStringA.
0040F640 44 00 52 65 67 69 73 74 65 72 43 6C 61 73 73 45 D.RegisterClassE
0040F650 78 57 00 00 49 00 52 65 67 69 73 74 65 72 43 6C xW..I.RegisterCl
0040F660 61 73 73 57 00 00 4C 00 52 65 67 69 73 74 65 72 assW..L.Register
0040F670 43 6C 61 73 73 57 00 00 52 00 47 65 74 57 69 6E ClassW..R.GetWin
0040F680 64 6F 77 52 65 63 74 00 58 00 47 65 74 44 6C 67 dowRect.X.GetDlg
0040F690 49 74 65 6D 00 00 5A 00 77 73 70 72 69 6E 74 66 Item..Z.wsprintf
0040F6A0 57 00 60 00 53 65 74 46 6F 72 65 67 72 6F 75 6E W.`.SetForegroun
0040F6B0 64 57 69 6E 64 6F 77 00 64 00 4C 6F 61 64 53 74 dWindow.d.LoadSt
0040F6C0 72 69 6E 67 41 00 6A 00 4D 65 73 73 61 67 65 42 ringA.j.MessageB
0040F6D0 65 65 70 00 6C 00 47 65 74 50 61 72 65 6E 74 00 eep.l.GetParent.
0040F6E0 71 00 50 74 49 6E 52 65 63 74 00 00 74 00 53 65 q.PtInRect..t.Se
0040F6F0 6E 64 44 6C 67 49 74 65 6D 4D 65 73 73 61 67 65 ndDlgItemMessage
0040F700 57 00 78 00 52 65 67 69 73 74 65 72 43 6C 61 73 W.x.RegisterClas
0040F710 73 57 00 00 7C 00 57 69 6E 48 65 6C 70 57 00 00 sW..|.WinHelpW..
0040F720 7E 00 46 69 6C 6C 52 65 63 74 00 00 84 00 55 70 ~.FillRect....Up
0040F730 64 61 74 65 57 69 6E 64 6F 77 00 00 86 00 4C 6F dateWindow....Lo
0040F740 61 64 49 63 6F 6E 57 00 88 00 44 65 73 74 72 6F adIconW...Destro
0040F750 79 49 63 6F 6E 00 8B 00 47 65 74 4D 65 73 73 61 yIcon...GetMessa
0040F760 67 65 57 00 90 00 49 73 57 69 6E 64 6F 77 00 00 geW...IsWindow..
0040F770 94 00 52 65 67 69 73 74 65 72 43 6C 61 73 73 45 ..RegisterClassE
0040F780 78 57 00 00 98 00 47 65 74 57 69 6E 64 6F 77 4C xW....GetWindowL
0040F790 6F 6E 67 57 00 00 55 53 45 52 33 32 2E 44 4C 4C ongW..USER32.DLL
0040F7A0 00 00 00 00 00 00 00 00 00 00 00 00 00 00 00 00 ................
0040F7B0 00 00 00 00 00 00 00 00 00 00 00 00 00 00 00 00 ................
0040F7C0 00 00 00 00 00 00 00 00 00 00 00 00 00 00 00 00 ................
0040F7D0 00 00 00 00 00 00 00 00 00 00 00 00 00 00 00 00 ................
0040F7E0 00 00 00 00 00 00 00 00 00 00 00 00 00 00 00 00 ................
0040F7F0 00 00 00 00 00 00 00 00 00 00 00 00 00 00 00 00 ................
0040F800 00 00 00 00 00 00 00 00 00 00 00 00 00 00 00 00 ................
0040F810 00 00 00 00 00 00 00 00 00 00 00 00 00 00 00 00 ................
0040F820 00 00 00 00 00 00 00 00 00 00 00 00 00 00 00 00 ................
0040F830 00 00 00 00 00 00 00 00 00 00 00 00 00 00 00 00 ................
0040F840 00 00 00 00 00 00 00 00 00 00 00 00 00 00 00 00 ................
0040F850 00 00 00 00 00 00 00 00 00 00 00 00 00 00 00 00 ................
0040F860 00 00 00 00 00 00 00 00 00 00 00 00 00 00 00 00 ................
0040F870 00 00 00 00 00 00 00 00 00 00 00 00 00 00 00 00 ................
0040F880 00 00 00 00 00 00 00 00 00 00 00 00 00 00 00 00 ................
0040F890 00 00 00 00 00 00 00 00 00 00 00 00 00 00 00 00 ................
0040F8A0 00 00 00 00 00 00 00 00 00 00 00 00 00 00 00 00 ................
0040F8B0 00 00 00 00 00 00 00 00 00 00 00 00 00 00 00 00 ................
0040F8C0 00 00 00 00 00 00 00 00 00 00 00 00 00 00 00 00 ................
0040F8D0 00 00 00 00 00 00 00 00 00 00 00 00 00 00 00 00 ................
0040F8E0 00 00 00 00 00 00 00 00 00 00 00 00 00 00 00 00 ................
0040F8F0 00 00 00 00 00 00 00 00 00 00 00 00 00 00 00 00 ................
0040F900 00 00 00 00 00 00 00 00 00 00 00 00 00 00 00 00 ................
0040F910 00 00 00 00 00 00 00 00 00 00 00 00 00 00 00 00 ................
0040F920 00 00 00 00 00 00 00 00 00 00 00 00 00 00 00 00 ................
0040F930 00 00 00 00 00 00 00 00 00 00 00 00 00 00 00 00 ................
0040F940 00 00 00 00 00 00 00 00 00 00 00 00 00 00 00 00 ................
0040F950 00 00 00 00 00 00 00 00 00 00 00 00 00 00 00 00 ................
0040F960 00 00 00 00 00 00 00 00 00 00 00 00 00 00 00 00 ................
0040F970 00 00 00 00 00 00 00 00 00 00 00 00 00 00 00 00 ................
0040F980 00 00 00 00 00 00 00 00 00 00 00 00 00 00 00 00 ................
0040F990 00 00 00 00 00 00 00 00 00 00 00 00 00 00 00 00 ................
0040F9A0 00 00 00 00 00 00 00 00 00 00 00 00 00 00 00 00 ................
0040F9B0 00 00 00 00 00 00 00 00 00 00 00 00 00 00 00 00 ................
0040F9C0 00 00 00 00 00 00 00 00 00 00 00 00 00 00 00 00 ................
0040F9D0 00 00 00 00 00 00 00 00 00 00 00 00 00 00 00 00 ................
0040F9E0 00 00 00 00 00 00 00 00 00 00 00 00 00 00 00 00 ................
0040F9F0 00 00 00 00 00 00 00 00 00 00 00 00 00 00 00 00 ................
0040FA00 00 00 00 00 00 00 00 00 00 00 00 00 00 00 00 00 ................
0040FA10 00 00 00 00 00 00 00 00 00 00 00 00 00 00 00 00 ................
0040FA20 00 00 00 00 00 00 00 00 00 00 00 00 00 00 00 00 ................
0040FA30 00 00 00 00 00 00 00 00 00 00 00 00 00 00 00 00 ................
0040FA40 00 00 00 00 00 00 00 00 00 00 00 00 00 00 00 00 ................
0040FA50 00 00 00 00 00 00 00 00 00 00 00 00 00 00 00 00 ................
0040FA60 00 00 00 00 00 00 00 00 00 00 00 00 00 00 00 00 ................
0040FA70 00 00 00 00 00 00 00 00 00 00 00 00 00 00 00 00 ................
0040FA80 00 00 00 00 00 00 00 00 00 00 00 00 00 00 00 00 ................
0040FA90 00 00 00 00 00 00 00 00 00 00 00 00 00 00 00 00 ................
0040FAA0 00 00 00 00 00 00 00 00 00 00 00 00 00 00 00 00 ................
0040FAB0 00 00 00 00 00 00 00 00 00 00 00 00 00 00 00 00 ................
0040FAC0 00 00 00 00 00 00 00 00 00 00 00 00 00 00 00 00 ................
0040FAD0 00 00 00 00 00 00 00 00 00 00 00 00 00 00 00 00 ................
0040FAE0 00 00 00 00 00 00 00 00 00 00 00 00 00 00 00 00 ................
0040FAF0 00 00 00 00 00 00 00 00 00 00 00 00 00 00 00 00 ................
0040FB00 00 00 00 00 00 00 00 00 00 00 00 00 00 00 00 00 ................
0040FB10 00 00 00 00 00 00 00 00 00 00 00 00 00 00 00 00 ................
0040FB20 00 00 00 00 00 00 00 00 00 00 00 00 00 00 00 00 ................
0040FB30 00 00 00 00 00 00 00 00 00 00 00 00 00 00 00 00 ................
0040FB40 00 00 00 00 00 00 00 00 00 00 00 00 00 00 00 00 ................
0040FB50 00 00 00 00 00 00 00 00 00 00 00 00 00 00 00 00 ................
0040FB60 00 00 00 00 00 00 00 00 00 00 00 00 00 00 00 00 ................
0040FB70 00 00 00 00 00 00 00 00 00 00 00 00 00 00 00 00 ................
0040FB80 00 00 00 00 00 00 00 00 00 00 00 00 00 00 00 00 ................
0040FB90 00 00 00 00 00 00 00 00 00 00 00 00 00 00 00 00 ................
0040FBA0 00 00 00 00 00 00 00 00 00 00 00 00 00 00 00 00 ................
0040FBB0 00 00 00 00 00 00 00 00 00 00 00 00 00 00 00 00 ................
0040FBC0 00 00 00 00 00 00 00 00 00 00 00 00 00 00 00 00 ................
0040FBD0 00 00 00 00 00 00 00 00 00 00 00 00 00 00 00 00 ................
0040FBE0 00 00 00 00 00 00 00 00 00 00 00 00 00 00 00 00 ................
0040FBF0 00 00 00 00 00 00 00 00 00 00 00 00 00 00 00 00 ................
0040FC00 00 00 00 00 00 00 00 00 00 00 00 00 00 00 00 00 ................
0040FC10 00 00 00 00 00 00 00 00 00 00 00 00 00 00 00 00 ................
0040FC20 00 00 00 00 00 00 00 00 00 00 00 00 00 00 00 00 ................
0040FC30 00 00 00 00 00 00 00 00 00 00 00 00 00 00 00 00 ................
0040FC40 00 00 00 00 00 00 00 00 00 00 00 00 00 00 00 00 ................
0040FC50 00 00 00 00 00 00 00 00 00 00 00 00 00 00 00 00 ................
0040FC60 00 00 00 00 00 00 00 00 00 00 00 00 00 00 00 00 ................
0040FC70 00 00 00 00 00 00 00 00 00 00 00 00 00 00 00 00 ................
0040FC80 00 00 00 00 00 00 00 00 00 00 00 00 00 00 00 00 ................
0040FC90 00 00 00 00 00 00 00 00 00 00 00 00 00 00 00 00 ................
0040FCA0 00 00 00 00 00 00 00 00 00 00 00 00 00 00 00 00 ................
0040FCB0 00 00 00 00 00 00 00 00 00 00 00 00 00 00 00 00 ................
0040FCC0 00 00 00 00 00 00 00 00 00 00 00 00 00 00 00 00 ................
0040FCD0 00 00 00 00 00 00 00 00 00 00 00 00 00 00 00 00 ................
0040FCE0 00 00 00 00 00 00 00 00 00 00 00 00 00 00 00 00 ................
0040FCF0 00 00 00 00 00 00 00 00 00 00 00 00 00 00 00 00 ................
0040FD00 00 00 00 00 00 00 00 00 00 00 00 00 00 00 00 00 ................
0040FD10 00 00 00 00 00 00 00 00 00 00 00 00 00 00 00 00 ................
0040FD20 00 00 00 00 00 00 00 00 00 00 00 00 00 00 00 00 ................
0040FD30 00 00 00 00 00 00 00 00 00 00 00 00 00 00 00 00 ................
0040FD40 00 00 00 00 00 00 00 00 00 00 00 00 00 00 00 00 ................
0040FD50 00 00 00 00 00 00 00 00 00 00 00 00 00 00 00 00 ................
0040FD60 00 00 00 00 00 00 00 00 00 00 00 00 00 00 00 00 ................
0040FD70 00 00 00 00 00 00 00 00 00 00 00 00 00 00 00 00 ................
0040FD80 00 00 00 00 00 00 00 00 00 00 00 00 00 00 00 00 ................
0040FD90 00 00 00 00 00 00 00 00 00 00 00 00 00 00 00 00 ................
0040FDA0 00 00 00 00 00 00 00 00 00 00 00 00 00 00 00 00 ................
0040FDB0 00 00 00 00 00 00 00 00 00 00 00 00 00 00 00 00 ................
0040FDC0 00 00 00 00 00 00 00 00 00 00 00 00 00 00 00 00 ................
0040FDD0 00 00 00 00 00 00 00 00 00 00 00 00 00 00 00 00 ................
0040FDE0 00 00 00 00 00 00 00 00 00 00 00 00 00 00 00 00 ................
0040FDF0 00 00 00 00 00 00 00 00 00 00 00 00 00 00 00 00 ................
0040FE00 00 00 00 00 00 00 00 00 00 00 00 00 00 00 00 00 ................
0040FE10 00 00 00 00 00 00 00 00 00 00 00 00 00 00 00 00 ................
0040FE20 00 00 00 00 00 00 00 00 00 00 00 00 00 00 00 00 ................
0040FE30 00 00 00 00 00 00 00 00 00 00 00 00 00 00 00 00 ................
0040FE40 00 00 00 00 00 00 00 00 00 00 00 00 00 00 00 00 ................
0040FE50 00 00 00 00 00 00 00 00 00 00 00 00 00 00 00 00 ................
0040FE60 00 00 00 00 00 00 00 00 00 00 00 00 00 00 00 00 ................
0040FE70 00 00 00 00 00 00 00 00 00 00 00 00 00 00 00 00 ................
0040FE80 00 00 00 00 00 00 00 00 00 00 00 00 00 00 00 00 ................
0040FE90 00 00 00 00 00 00 00 00 00 00 00 00 00 00 00 00 ................
0040FEA0 00 00 00 00 00 00 00 00 00 00 00 00 00 00 00 00 ................
0040FEB0 00 00 00 00 00 00 00 00 00 00 00 00 00 00 00 00 ................
0040FEC0 00 00 00 00 00 00 00 00 00 00 00 00 00 00 00 00 ................
0040FED0 00 00 00 00 00 00 00 00 00 00 00 00 00 00 00 00 ................
0040FEE0 00 00 00 00 00 00 00 00 00 00 00 00 00 00 00 00 ................
0040FEF0 00 00 00 00 00 00 00 00 00 00 00 00 00 00 00 00 ................
0040FF00 00 00 00 00 00 00 00 00 00 00 00 00 00 00 00 00 ................
0040FF10 00 00 00 00 00 00 00 00 00 00 00 00 00 00 00 00 ................
0040FF20 00 00 00 00 00 00 00 00 00 00 00 00 00 00 00 00 ................
0040FF30 00 00 00 00 00 00 00 00 00 00 00 00 00 00 00 00 ................
0040FF40 00 00 00 00 00 00 00 00 00 00 00 00 00 00 00 00 ................
0040FF50 00 00 00 00 00 00 00 00 00 00 00 00 00 00 00 00 ................
0040FF60 00 00 00 00 00 00 00 00 00 00 00 00 00 00 00 00 ................
0040FF70 00 00 00 00 00 00 00 00 00 00 00 00 00 00 00 00 ................
0040FF80 00 00 00 00 00 00 00 00 00 00 00 00 00 00 00 00 ................
0040FF90 00 00 00 00 00 00 00 00 00 00 00 00 00 00 00 00 ................
0040FFA0 00 00 00 00 00 00 00 00 00 00 00 00 00 00 00 00 ................
0040FFB0 00 00 00 00 00 00 00 00 00 00 00 00 00 00 00 00 ................
0040FFC0 00 00 00 00 00 00 00 00 00 00 00 00 00 00 00 00 ................
0040FFD0 00 00 00 00 00 00 00 00 00 00 00 00 00 00 00 00 ................
0040FFE0 00 00 00 00 00 00 00 00 00 00 00 00 00 00 00 00 ................
0040FFF0 00 00 00 00 00 00 00 00 00 00 00 00 00 00 00 00 ................
00410000 00 00 00 00 00 00 00 00 00 00 00 00 00 00 03 00 ................
00410010 03 00 00 00 28 00 00 80 0E 00 00 00 40 00 00 80 ....(.......@...
00410020 10 00 00 00 58 00 00 80 00 00 00 00 00 00 00 00 ....X...........
00410030 00 00 00 00 00 00 01 00 01 00 00 00 70 00 00 80 ............p...
00410040 00 00 00 00 00 00 00 00 00 00 00 00 00 00 01 00 ................
00410050 A3 CA 00 00 88 00 00 80 00 00 00 00 00 00 00 00 ................
00410060 00 00 00 00 00 00 01 00 B1 E9 00 00 A0 00 00 80 ................
00410070 00 00 00 00 00 00 00 00 00 00 00 00 00 00 01 00 ................
00410080 19 04 00 00 B8 00 00 00 00 00 00 00 00 00 00 00 ................
00410090 00 00 00 00 00 00 01 00 19 04 00 00 C8 00 00 00 ................
004100A0 00 00 00 00 00 00 00 00 00 00 00 00 00 00 01 00 ................
004100B0 19 04 00 00 D8 00 00 00 E8 00 01 00 A8 08 00 00 ................
004100C0 00 00 00 00 00 00 00 00 90 09 01 00 14 00 00 00 ................
004100D0 00 00 00 00 00 00 00 00 A4 09 01 00 FC 02 00 00 ................
004100E0 00 00 00 00 00 00 00 00 28 00 00 00 20 00 00 00 ........(... ...
004100F0 40 00 00 00 01 00 08 00 00 00 00 00 00 04 00 00 @...............
00410100 00 00 00 00 00 00 00 00 00 00 00 00 00 00 00 00 ................
00410110 00 00 00 00 00 00 80 00 00 80 00 00 00 80 80 00 ................
00410120 80 00 00 00 80 00 80 00 80 80 00 00 C0 C0 C0 00 ................
00410130 C0 DC C0 00 F0 CA A6 00 00 20 40 00 00 20 60 00 ......... @.. `.
00410140 00 20 80 00 00 20 A0 00 00 20 C0 00 00 20 E0 00 . ... ... ... ..
00410150 00 40 00 00 00 40 20 00 00 40 40 00 00 40 60 00 .@...@ ..@@..@`.
00410160 00 40 80 00 00 40 A0 00 00 40 C0 00 00 40 E0 00 .@...@...@...@..
00410170 00 60 00 00 00 60 20 00 00 60 40 00 00 60 60 00 .`...` ..`@..``.
00410180 00 60 80 00 00 60 A0 00 00 60 C0 00 00 60 E0 00 .`...`...`...`..
00410190 00 80 00 00 00 80 20 00 00 80 40 00 00 80 60 00 ...... ...@...`.
004101A0 00 80 80 00 00 80 A0 00 00 80 C0 00 00 80 E0 00 ................
004101B0 00 A0 00 00 00 A0 20 00 00 A0 40 00 00 A0 60 00 ...... ...@...`.
004101C0 00 A0 80 00 00 A0 A0 00 00 A0 C0 00 00 A0 E0 00 ................
004101D0 00 C0 00 00 00 C0 20 00 00 C0 40 00 00 C0 60 00 ...... ...@...`.
004101E0 00 C0 80 00 00 C0 A0 00 00 C0 C0 00 00 C0 E0 00 ................
004101F0 00 E0 00 00 00 E0 20 00 00 E0 40 00 00 E0 60 00 ...... ...@...`.
00410200 00 E0 80 00 00 E0 A0 00 00 E0 C0 00 00 E0 E0 00 ................
00410210 40 00 00 00 40 00 20 00 40 00 40 00 40 00 60 00 @...@. .@.@.@.`.
00410220 40 00 80 00 40 00 A0 00 40 00 C0 00 40 00 E0 00 @...@...@...@...
00410230 40 20 00 00 40 20 20 00 40 20 40 00 40 20 60 00 @ ..@  .@ @.@ `.
00410240 40 20 80 00 40 20 A0 00 40 20 C0 00 40 20 E0 00 @ ..@ ..@ ..@ ..
00410250 40 40 00 00 40 40 20 00 40 40 40 00 40 40 60 00 @@..@@ .@@@.@@`.
00410260 40 40 80 00 40 40 A0 00 40 40 C0 00 40 40 E0 00 @@..@@..@@..@@..
00410270 40 60 00 00 40 60 20 00 40 60 40 00 40 60 60 00 @`..@` .@`@.@``.
00410280 40 60 80 00 40 60 A0 00 40 60 C0 00 40 60 E0 00 @`..@`..@`..@`..
00410290 40 80 00 00 40 80 20 00 40 80 40 00 40 80 60 00 @...@. .@.@.@.`.
004102A0 40 80 80 00 40 80 A0 00 40 80 C0 00 40 80 E0 00 @...@...@...@...
004102B0 40 A0 00 00 40 A0 20 00 40 A0 40 00 40 A0 60 00 @...@. .@.@.@.`.
004102C0 40 A0 80 00 40 A0 A0 00 40 A0 C0 00 40 A0 E0 00 @...@...@...@...
004102D0 40 C0 00 00 40 C0 20 00 40 C0 40 00 40 C0 60 00 @...@. .@.@.@.`.
004102E0 40 C0 80 00 40 C0 A0 00 40 C0 C0 00 40 C0 E0 00 @...@...@...@...
004102F0 40 E0 00 00 40 E0 20 00 40 E0 40 00 40 E0 60 00 @...@. .@.@.@.`.
00410300 40 E0 80 00 40 E0 A0 00 40 E0 C0 00 40 E0 E0 00 @...@...@...@...
00410310 80 00 00 00 80 00 20 00 80 00 40 00 80 00 60 00 ...... ...@...`.
00410320 80 00 80 00 80 00 A0 00 80 00 C0 00 80 00 E0 00 ................
00410330 80 20 00 00 80 20 20 00 80 20 40 00 80 20 60 00 . ...  .. @.. `.
00410340 80 20 80 00 80 20 A0 00 80 20 C0 00 80 20 E0 00 . ... ... ... ..
00410350 80 40 00 00 80 40 20 00 80 40 40 00 80 40 60 00 .@...@ ..@@..@`.
00410360 80 40 80 00 80 40 A0 00 80 40 C0 00 80 40 E0 00 .@...@...@...@..
00410370 80 60 00 00 80 60 20 00 80 60 40 00 80 60 60 00 .`...` ..`@..``.
00410380 80 60 80 00 80 60 A0 00 80 60 C0 00 80 60 E0 00 .`...`...`...`..
00410390 80 80 00 00 80 80 20 00 80 80 40 00 80 80 60 00 ...... ...@...`.
004103A0 80 80 80 00 80 80 A0 00 80 80 C0 00 80 80 E0 00 ................
004103B0 80 A0 00 00 80 A0 20 00 80 A0 40 00 80 A0 60 00 ...... ...@...`.
004103C0 80 A0 80 00 80 A0 A0 00 80 A0 C0 00 80 A0 E0 00 ................
004103D0 80 C0 00 00 80 C0 20 00 80 C0 40 00 80 C0 60 00 ...... ...@...`.
004103E0 80 C0 80 00 80 C0 A0 00 80 C0 C0 00 80 C0 E0 00 ................
004103F0 80 E0 00 00 80 E0 20 00 80 E0 40 00 80 E0 60 00 ...... ...@...`.
00410400 80 E0 80 00 80 E0 A0 00 80 E0 C0 00 80 E0 E0 00 ................
00410410 C0 00 00 00 C0 00 20 00 C0 00 40 00 C0 00 60 00 ...... ...@...`.
00410420 C0 00 80 00 C0 00 A0 00 C0 00 C0 00 C0 00 E0 00 ................
00410430 C0 20 00 00 C0 20 20 00 C0 20 40 00 C0 20 60 00 . ...  .. @.. `.
00410440 C0 20 80 00 C0 20 A0 00 C0 20 C0 00 C0 20 E0 00 . ... ... ... ..
00410450 C0 40 00 00 C0 40 20 00 C0 40 40 00 C0 40 60 00 .@...@ ..@@..@`.
00410460 C0 40 80 00 C0 40 A0 00 C0 40 C0 00 C0 40 E0 00 .@...@...@...@..
00410470 C0 60 00 00 C0 60 20 00 C0 60 40 00 C0 60 60 00 .`...` ..`@..``.
00410480 C0 60 80 00 C0 60 A0 00 C0 60 C0 00 C0 60 E0 00 .`...`...`...`..
00410490 C0 80 00 00 C0 80 20 00 C0 80 40 00 C0 80 60 00 ...... ...@...`.
004104A0 C0 80 80 00 C0 80 A0 00 C0 80 C0 00 C0 80 E0 00 ................
004104B0 C0 A0 00 00 C0 A0 20 00 C0 A0 40 00 C0 A0 60 00 ...... ...@...`.
004104C0 C0 A0 80 00 C0 A0 A0 00 C0 A0 C0 00 C0 A0 E0 00 ................
004104D0 C0 C0 00 00 C0 C0 20 00 C0 C0 40 00 C0 C0 60 00 ...... ...@...`.
004104E0 C0 C0 80 00 C0 C0 A0 00 F0 FB FF 00 A4 A0 A0 00 ................
004104F0 80 80 80 00 00 00 FF 00 00 FF 00 00 00 FF FF 00 ................
00410500 FF 00 00 00 FF 00 FF 00 FF FF 00 00 FF FF FF 00 ................
00410510 00 00 00 00 00 00 00 00 00 00 00 00 00 00 00 00 ................
00410520 00 00 00 00 00 00 00 00 00 00 00 00 00 00 00 00 ................
00410530 00 00 00 00 00 00 ED A3 9A 9A 92 92 92 92 92 92 ................
00410540 92 92 92 92 92 92 92 92 92 92 92 92 92 92 92 00 ................
00410550 00 00 00 00 00 00 ED F6 07 09 09 09 09 09 09 09 ................
00410560 09 09 EC 09 09 EC EC EC EC EB EB EB EB EB 92 00 ................
00410570 00 00 00 00 00 00 ED F6 F6 F6 F6 F6 F6 F6 F6 F6 ................
00410580 F6 F6 F6 F6 F6 F6 F6 F6 09 09 09 09 09 EB 92 00 ................
00410590 00 00 00 00 00 00 ED F6 F6 F6 F6 F6 F6 F6 F6 F6 ................
004105A0 F6 F6 F6 F6 F6 F6 F6 F6 F6 F6 09 09 09 EB 92 00 ................
004105B0 00 00 00 00 00 00 ED F6 F6 F5 F5 ED ED EC EC EC ................
004105C0 E3 E3 E3 E3 E3 E3 E3 E3 E3 E3 F6 F6 09 EB 92 00 ................
004105D0 00 00 00 00 00 00 ED FF FF F5 FF FF FF F6 EC F6 ................
004105E0 F6 EC FF E3 F6 F6 EC FF E3 F6 F6 F6 F6 EB 92 00 ................
004105F0 00 00 00 00 00 00 ED FF FF F5 FF FF FF FF ED FF ................
00410600 FF EC FF E3 F6 F6 EC FF E3 F6 F6 F6 F6 EC 92 00 ................
00410610 00 00 00 00 00 00 ED FF FF F5 F5 F5 F5 F5 F5 ED ................
00410620 FF EC FF E3 F6 F6 EC FF E3 F6 F6 F6 F6 EC 92 00 ................
00410630 00 00 00 00 00 00 ED FF FF 09 FF FF FF FF F5 FF ................
00410640 FF ED FF E3 EC EC EC FF E3 F6 F6 F6 F6 EC 92 00 ................
00410650 00 00 00 00 00 00 ED FF FF 09 FF FF FF FF F5 FF ................
00410660 FF F5 FF E3 FF FF EC FF E3 F6 F6 F6 F6 EC 92 00 ................
00410670 00 00 00 00 00 00 ED FF FF 09 09 09 09 09 F5 F5 ................
00410680 FF F5 F5 E3 FF FF EC FF E3 F6 F6 F6 F6 EC 92 00 ................
00410690 00 00 00 00 00 00 ED FF FF 09 FF FF FF FF 09 FF ................
004106A0 FF FF FF FF FF FF ED ED E3 F6 F6 F6 F6 09 92 00 ................
004106B0 00 00 00 00 00 00 ED 08 08 ED 07 07 07 ED ED 08 ................
004106C0 FF FF FF F5 FF FF FF FF FF FF F6 F6 F6 09 92 00 ................
004106D0 00 00 00 00 00 00 F7 F7 F5 07 07 08 08 F6 08 ED ................
004106E0 EC 09 F5 F5 F5 F5 F5 F5 ED FF FF F6 F6 EC 92 00 ................
004106F0 00 19 18 AC 08 08 FF FF FF F6 F6 F6 F6 F6 08 07 ................
00410700 F6 FF FF 09 FF FF FF FF F5 FF FF FF F6 09 92 00 ................
00410710 00 19 B5 08 FF FF FF FF F6 F6 B5 1A 1A F6 F6 07 ................
00410720 F6 FF FF 09 FF FF FF FF F5 FF FF FF FF 09 92 00 ................
00410730 00 19 07 AC FF 08 B4 B4 B4 AB 22 1A 6B F6 F6 ED ..........".k...
00410740 F5 09 09 09 09 09 09 F5 F5 FF FF FF FF 09 92 00 ................
00410750 00 19 08 62 FF FF 08 B4 B4 62 1A 6C AB B5 F6 07 ...b.....b.l....
00410760 08 FF FF 09 FF FF FF FF F5 FF FF FF FF 09 92 00 ................
00410770 00 19 08 19 F6 FF FF 08 6B 1A 22 08 FF F6 F6 07 ........k.".....
00410780 08 FF FF 09 FF FF FF FF 09 FF FF FF FF 09 92 00 ................
00410790 00 21 08 19 07 FF FF 08 22 22 6B B4 F5 F6 F6 07 .!......""k.....
004107A0 F5 09 09 09 09 09 09 09 09 FF FF FF FF 09 92 00 ................
004107B0 00 21 08 19 AC FF F6 22 1A B5 F6 B4 B4 B4 F6 08 .!....."........
004107C0 08 FF FF 09 FF FF FF FF 09 FF FF FF FF 09 92 00 ................
004107D0 00 21 08 AC B4 FF 63 62 6C FF FF FF FF FF FF 08 .!....cbl.......
004107E0 08 FF FF 09 FF FF FF FF 07 09 09 09 09 09 92 00 ................
004107F0 00 61 08 B4 B4 FF FF FF FF FF FF FF FF FF FF F6 .a..............
00410800 07 09 09 09 09 09 09 ED A3 A3 9B 9A 9A 9A 92 00 ................
00410810 00 61 08 B5 B4 08 08 08 08 08 08 F5 B5 08 6B FF .a............k.
00410820 FF FF FF FF FF FF FF ED 09 09 09 09 09 92 F6 00 ................
00410830 00 61 B5 F6 B5 B5 B5 B5 B5 B5 B5 B5 B5 F6 61 FF .a............a.
00410840 FF FF FF FF FF FF FF ED F6 F6 09 09 92 F6 F6 00 ................
00410850 00 61 61 08 F6 08 BD BD BD BD BD BD B5 F6 61 F6 .aa...........a.
00410860 09 09 09 FF FF FF FF F5 F6 F6 09 92 F6 F6 00 00 ................
00410870 00 00 61 61 B5 08 F6 F6 F6 F6 F6 F6 F6 F6 61 FF ..aa..........a.
00410880 FF FF FF FF FF FF FF F5 F6 F6 9A F6 F6 00 00 00 ................
00410890 00 00 00 61 61 61 61 61 61 61 61 61 61 61 61 FF ...aaaaaaaaaaaa.
004108A0 FF FF FF FF FF FF FF F5 F6 9B F6 F6 00 00 00 00 ................
004108B0 00 00 00 00 00 00 07 FF FF FF FF FF FF FF FF FF ................
004108C0 FF FF FF FF FF FF FF F5 A4 F6 F6 00 00 00 00 00 ................
004108D0 00 00 00 00 00 00 07 07 07 07 07 F5 F5 F5 F5 F5 ................
004108E0 F5 F5 F5 F5 F5 F5 F5 F5 F6 F6 00 00 00 00 00 00 ................
004108F0 00 00 00 00 00 00 00 00 00 00 00 00 00 00 00 00 ................
00410900 00 00 00 00 00 00 00 00 00 00 00 00 00 00 00 00 ................
00410910 FF FF FF FF FC 00 00 01 FC 00 00 01 FC 00 00 01 ................
00410920 FC 00 00 01 FC 00 00 01 FC 00 00 01 FC 00 00 01 ................
00410930 FC 00 00 01 FC 00 00 01 FC 00 00 01 FC 00 00 01 ................
00410940 FC 00 00 01 C0 00 00 01 C0 00 00 01 80 00 00 01 ................
00410950 80 00 00 01 80 00 00 01 80 00 00 01 80 00 00 01 ................
00410960 80 00 00 01 80 00 00 01 80 00 00 01 80 00 00 01 ................
00410970 80 00 00 01 80 00 00 01 80 00 00 03 C0 00 00 07 ................
00410980 E0 00 00 0F FC 00 00 1F FC 00 00 3F FF FF FF FF ...........?....
00410990 00 00 01 00 01 00 20 20 08 00 00 00 00 00 A8 08 ......  ........
004109A0 00 00 01 00 FC 02 34 00 00 00 56 00 53 00 5F 00 ......4...V.S._.
004109B0 56 00 45 00 52 00 53 00 49 00 4F 00 4E 00 5F 00 V.E.R.S.I.O.N._.
004109C0 49 00 4E 00 46 00 4F 00 00 00 00 00 BD 04 EF FE I.N.F.O.........
004109D0 00 00 01 00 43 02 F6 87 43 02 F6 87 43 02 F6 87 ....C...C...C...
004109E0 43 02 F6 87 43 02 00 00 00 00 00 00 04 00 04 00 C...C...........
004109F0 01 00 00 00 00 00 00 00 00 00 00 00 00 00 00 00 ................
00410A00 5C 02 00 00 00 00 53 00 74 00 72 00 69 00 6E 00 \.....S.t.r.i.n.
00410A10 67 00 46 00 69 00 6C 00 65 00 49 00 6E 00 66 00 g.F.i.l.e.I.n.f.
00410A20 6F 00 00 00 38 02 00 00 00 00 30 00 38 00 30 00 o...8.....0.8.0.
00410A30 30 00 30 00 34 00 42 00 30 00 00 00 40 00 10 00 0.0.4.B.0...@...
00410A40 01 00 43 00 6F 00 6D 00 70 00 61 00 6E 00 79 00 ..C.o.m.p.a.n.y.
00410A50 4E 00 61 00 6D 00 65 00 00 00 00 00 59 00 41 00 N.a.m.e.....Y.A.
00410A60 53 00 68 00 47 00 57 00 76 00 45 00 77 00 61 00 S.h.G.W.v.E.w.a.
00410A70 46 00 42 00 36 00 4B 00 42 00 00 00 48 00 0F 00 F.B.6.K.B...H...
00410A80 01 00 46 00 69 00 6C 00 65 00 44 00 65 00 73 00 ..F.i.l.e.D.e.s.
00410A90 63 00 72 00 69 00 70 00 74 00 69 00 6F 00 6E 00 c.r.i.p.t.i.o.n.
00410AA0 00 00 00 00 65 00 56 00 6A 00 41 00 34 00 42 00 ....e.V.j.A.4.B.
00410AB0 32 00 55 00 69 00 46 00 72 00 36 00 38 00 33 00 2.U.i.F.r.6.8.3.
00410AC0 00 00 00 00 40 00 10 00 01 00 46 00 69 00 6C 00 ....@.....F.i.l.
00410AD0 65 00 56 00 65 00 72 00 73 00 69 00 6F 00 6E 00 e.V.e.r.s.i.o.n.
00410AE0 00 00 00 00 70 00 70 00 70 00 50 00 46 00 47 00 ....p.p.p.P.F.G.
00410AF0 57 00 68 00 47 00 43 00 35 00 6C 00 36 00 69 00 W.h.G.C.5.l.6.i.
00410B00 54 00 00 00 3C 00 0E 00 01 00 49 00 6E 00 74 00 T...<.....I.n.t.
00410B10 65 00 72 00 6E 00 61 00 6C 00 4E 00 61 00 6D 00 e.r.n.a.l.N.a.m.
00410B20 65 00 00 00 73 00 61 00 51 00 54 00 75 00 55 00 e...s.a.Q.T.u.U.
00410B30 50 00 61 00 51 00 52 00 68 00 43 00 49 00 00 00 P.a.Q.R.h.C.I...
00410B40 44 00 10 00 01 00 4C 00 65 00 67 00 61 00 6C 00 D.....L.e.g.a.l.
00410B50 43 00 6F 00 70 00 79 00 72 00 69 00 67 00 68 00 C.o.p.y.r.i.g.h.
00410B60 74 00 00 00 73 00 62 00 68 00 51 00 70 00 37 00 t...s.b.h.Q.p.7.
00410B70 47 00 59 00 57 00 77 00 4A 00 57 00 55 00 37 00 G.Y.W.w.J.W.U.7.
00410B80 4F 00 00 00 50 00 13 00 01 00 4F 00 72 00 69 00 O...P.....O.r.i.
00410B90 67 00 69 00 6E 00 61 00 6C 00 46 00 69 00 6C 00 g.i.n.a.l.F.i.l.
00410BA0 65 00 6E 00 61 00 6D 00 65 00 00 00 4E 00 32 00 e.n.a.m.e...N.2.
00410BB0 54 00 79 00 58 00 66 00 32 00 67 00 4E 00 31 00 T.y.X.f.2.g.N.1.
00410BC0 51 00 31 00 72 00 75 00 6B 00 41 00 77 00 36 00 Q.1.r.u.k.A.w.6.
00410BD0 00 00 00 00 40 00 0F 00 01 00 50 00 72 00 6F 00 ....@.....P.r.o.
00410BE0 64 00 75 00 63 00 74 00 4E 00 61 00 6D 00 65 00 d.u.c.t.N.a.m.e.
00410BF0 00 00 00 00 69 00 51 00 6E 00 75 00 4A 00 42 00 ....i.Q.n.u.J.B.
00410C00 6E 00 4B 00 42 00 59 00 33 00 74 00 6B 00 6A 00 n.K.B.Y.3.t.k.j.
00410C10 00 00 00 00 48 00 12 00 01 00 50 00 72 00 6F 00 ....H.....P.r.o.
00410C20 64 00 75 00 63 00 74 00 56 00 65 00 72 00 73 00 d.u.c.t.V.e.r.s.
00410C30 69 00 6F 00 6E 00 00 00 6E 00 38 00 6E 00 48 00 i.o.n...n.8.n.H.
00410C40 4B 00 55 00 78 00 33 00 59 00 61 00 71 00 4F 00 K.U.x.3.Y.a.q.O.
00410C50 61 00 53 00 4E 00 41 00 47 00 00 00 44 00 00 00 a.S.N.A.G...D...
00410C60 00 00 56 00 61 00 72 00 46 00 69 00 6C 00 65 00 ..V.a.r.F.i.l.e.
00410C70 49 00 6E 00 66 00 6F 00 00 00 00 00 24 00 04 00 I.n.f.o.....$...
00410C80 00 00 54 00 72 00 61 00 6E 00 73 00 6C 00 61 00 ..T.r.a.n.s.l.a.
00410C90 74 00 69 00 6F 00 6E 00 00 00 00 00 00 08 B0 04 t.i.o.n.........
00410CA0 00 00 00 00 00 00 00 00 00 00 00 00 00 00 00 00 ................
00410CB0 00 00 00 00 00 00 00 00 00 00 00 00 00 00 00 00 ................
00410CC0 00 00 00 00 00 00 00 00 00 00 00 00 00 00 00 00 ................
00410CD0 00 00 00 00 00 00 00 00 00 00 00 00 00 00 00 00 ................
00410CE0 00 00 00 00 00 00 00 00 00 00 00 00 00 00 00 00 ................
00410CF0 00 00 00 00 00 00 00 00 00 00 00 00 00 00 00 00 ................
00410D00 00 00 00 00 00 00 00 00 00 00 00 00 00 00 00 00 ................
00410D10 00 00 00 00 00 00 00 00 00 00 00 00 00 00 00 00 ................
00410D20 00 00 00 00 00 00 00 00 00 00 00 00 00 00 00 00 ................
00410D30 00 00 00 00 00 00 00 00 00 00 00 00 00 00 00 00 ................
00410D40 00 00 00 00 00 00 00 00 00 00 00 00 00 00 00 00 ................
00410D50 00 00 00 00 00 00 00 00 00 00 00 00 00 00 00 00 ................
00410D60 00 00 00 00 00 00 00 00 00 00 00 00 00 00 00 00 ................
00410D70 00 00 00 00 00 00 00 00 00 00 00 00 00 00 00 00 ................
00410D80 00 00 00 00 00 00 00 00 00 00 00 00 00 00 00 00 ................
00410D90 00 00 00 00 00 00 00 00 00 00 00 00 00 00 00 00 ................
00410DA0 00 00 00 00 00 00 00 00 00 00 00 00 00 00 00 00 ................
00410DB0 00 00 00 00 00 00 00 00 00 00 00 00 00 00 00 00 ................
00410DC0 00 00 00 00 00 00 00 00 00 00 00 00 00 00 00 00 ................
00410DD0 00 00 00 00 00 00 00 00 00 00 00 00 00 00 00 00 ................
00410DE0 00 00 00 00 00 00 00 00 00 00 00 00 00 00 00 00 ................
00410DF0 00 00 00 00 00 00 00 00 00 00 00 00 00 00 00 00 ................
00410E00 00 00 00 00 00 00 00 00 00 00 00 00 00 00 00 00 ................
00410E10 00 00 00 00 00 00 00 00 00 00 00 00 00 00 00 00 ................
00410E20 00 00 00 00 00 00 00 00 00 00 00 00 00 00 00 00 ................
00410E30 00 00 00 00 00 00 00 00 00 00 00 00 00 00 00 00 ................
00410E40 00 00 00 00 00 00 00 00 00 00 00 00 00 00 00 00 ................
00410E50 00 00 00 00 00 00 00 00 00 00 00 00 00 00 00 00 ................
00410E60 00 00 00 00 00 00 00 00 00 00 00 00 00 00 00 00 ................
00410E70 00 00 00 00 00 00 00 00 00 00 00 00 00 00 00 00 ................
00410E80 00 00 00 00 00 00 00 00 00 00 00 00 00 00 00 00 ................
00410E90 00 00 00 00 00 00 00 00 00 00 00 00 00 00 00 00 ................
00410EA0 00 00 00 00 00 00 00 00 00 00 00 00 00 00 00 00 ................
00410EB0 00 00 00 00 00 00 00 00 00 00 00 00 00 00 00 00 ................
00410EC0 00 00 00 00 00 00 00 00 00 00 00 00 00 00 00 00 ................
00410ED0 00 00 00 00 00 00 00 00 00 00 00 00 00 00 00 00 ................
00410EE0 00 00 00 00 00 00 00 00 00 00 00 00 00 00 00 00 ................
00410EF0 00 00 00 00 00 00 00 00 00 00 00 00 00 00 00 00 ................
00410F00 00 00 00 00 00 00 00 00 00 00 00 00 00 00 00 00 ................
00410F10 00 00 00 00 00 00 00 00 00 00 00 00 00 00 00 00 ................
00410F20 00 00 00 00 00 00 00 00 00 00 00 00 00 00 00 00 ................
00410F30 00 00 00 00 00 00 00 00 00 00 00 00 00 00 00 00 ................
00410F40 00 00 00 00 00 00 00 00 00 00 00 00 00 00 00 00 ................
00410F50 00 00 00 00 00 00 00 00 00 00 00 00 00 00 00 00 ................
00410F60 00 00 00 00 00 00 00 00 00 00 00 00 00 00 00 00 ................
00410F70 00 00 00 00 00 00 00 00 00 00 00 00 00 00 00 00 ................
00410F80 00 00 00 00 00 00 00 00 00 00 00 00 00 00 00 00 ................
00410F90 00 00 00 00 00 00 00 00 00 00 00 00 00 00 00 00 ................
00410FA0 00 00 00 00 00 00 00 00 00 00 00 00 00 00 00 00 ................
00410FB0 00 00 00 00 00 00 00 00 00 00 00 00 00 00 00 00 ................
00410FC0 00 00 00 00 00 00 00 00 00 00 00 00 00 00 00 00 ................
00410FD0 00 00 00 00 00 00 00 00 00 00 00 00 00 00 00 00 ................
00410FE0 00 00 00 00 00 00 00 00 00 00 00 00 00 00 00 00 ................
00410FF0 00 00 00 00 00 00 00 00 00 00 00 00 00 00 00 00 ................
