00400000 00 00 00 00 00 00 00 00 00 00 00 00 00 00 00 00 ................
00400010 00 00 00 00 00 00 00 00 00 00 00 00 00 00 00 00 ................
00400020 00 00 00 00 00 00 00 00 00 00 00 00 00 00 00 00 ................
00400030 00 00 00 00 00 00 00 00 00 00 00 00 00 00 00 00 ................
00400040 00 00 00 00 00 00 00 00 00 00 00 00 00 00 00 00 ................
00400050 00 00 00 00 00 00 00 00 00 00 00 00 00 00 00 00 ................
00400060 00 00 00 00 00 00 00 00 00 00 00 00 00 00 00 00 ................
00400070 00 00 00 00 00 00 00 00 00 00 00 00 00 00 00 00 ................
00400080 00 00 00 00 00 00 00 00 00 00 00 00 00 00 00 00 ................
00400090 00 00 00 00 00 00 00 00 00 00 00 00 00 00 00 00 ................
004000A0 00 00 00 00 00 00 00 00 00 00 00 00 00 00 00 00 ................
004000B0 00 00 00 00 00 00 00 00 00 00 00 00 00 00 00 00 ................
004000C0 00 00 00 00 00 00 00 00 00 00 00 00 00 00 00 00 ................
004000D0 00 00 00 00 00 00 00 00 00 00 00 00 00 00 00 00 ................
004000E0 00 00 00 00 00 00 00 00 00 00 00 00 00 00 00 00 ................
004000F0 00 00 00 00 00 00 00 00 00 00 00 00 00 00 00 00 ................
00400100 00 00 00 00 00 00 00 00 00 00 00 00 00 00 00 00 ................
00400110 00 00 00 00 00 00 00 00 00 00 00 00 00 00 00 00 ................
00400120 00 00 00 00 00 00 00 00 00 00 00 00 00 00 00 00 ................
00400130 00 00 00 00 00 00 00 00 00 00 00 00 00 00 00 00 ................
00400140 00 00 00 00 00 00 00 00 00 00 00 00 00 00 00 00 ................
00400150 00 00 00 00 00 00 00 00 00 00 00 00 00 00 00 00 ................
00400160 00 00 00 00 00 00 00 00 00 00 00 00 00 00 00 00 ................
00400170 00 00 00 00 00 00 00 00 00 00 00 00 00 00 00 00 ................
00400180 00 00 00 00 00 00 00 00 00 00 00 00 00 00 00 00 ................
00400190 00 00 00 00 00 00 00 00 00 00 00 00 00 00 00 00 ................
004001A0 00 00 00 00 00 00 00 00 00 00 00 00 00 00 00 00 ................
004001B0 00 00 00 00 00 00 00 00 00 00 00 00 00 00 00 00 ................
004001C0 00 00 00 00 00 00 00 00 00 00 00 00 00 00 00 00 ................
004001D0 00 00 00 00 00 00 00 00 00 00 00 00 00 00 00 00 ................
004001E0 00 00 00 00 00 00 00 00 00 00 00 00 00 00 00 00 ................
004001F0 00 00 00 00 00 00 00 00 00 00 00 00 00 00 00 00 ................
00400200 00 00 00 00 00 00 00 00 00 00 00 00 00 00 00 00 ................
00400210 00 00 00 00 00 00 00 00 00 00 00 00 00 00 00 00 ................
00400220 00 00 00 00 00 00 00 00 00 00 00 00 00 00 00 00 ................
00400230 00 00 00 00 00 00 00 00 00 00 00 00 00 00 00 00 ................
00400240 00 00 00 00 00 00 00 00 00 00 00 00 00 00 00 00 ................
00400250 00 00 00 00 00 00 00 00 00 00 00 00 00 00 00 00 ................
00400260 00 00 00 00 00 00 00 00 00 00 00 00 00 00 00 00 ................
00400270 00 00 00 00 00 00 00 00 00 00 00 00 00 00 00 00 ................
00400280 00 00 00 00 00 00 00 00 00 00 00 00 00 00 00 00 ................
00400290 00 00 00 00 00 00 00 00 00 00 00 00 00 00 00 00 ................
004002A0 00 00 00 00 00 00 00 00 00 00 00 00 00 00 00 00 ................
004002B0 00 00 00 00 00 00 00 00 00 00 00 00 00 00 00 00 ................
004002C0 00 00 00 00 00 00 00 00 00 00 00 00 00 00 00 00 ................
004002D0 00 00 00 00 00 00 00 00 00 00 00 00 00 00 00 00 ................
004002E0 00 00 00 00 00 00 00 00 00 00 00 00 00 00 00 00 ................
004002F0 00 00 00 00 00 00 00 00 00 00 00 00 00 00 00 00 ................
00400300 00 00 00 00 00 00 00 00 00 00 00 00 00 00 00 00 ................
00400310 00 00 00 00 00 00 00 00 00 00 00 00 00 00 00 00 ................
00400320 00 00 00 00 00 00 00 00 00 00 00 00 00 00 00 00 ................
00400330 00 00 00 00 00 00 00 00 00 00 00 00 00 00 00 00 ................
00400340 00 00 00 00 00 00 00 00 00 00 00 00 00 00 00 00 ................
00400350 00 00 00 00 00 00 00 00 00 00 00 00 00 00 00 00 ................
00400360 00 00 00 00 00 00 00 00 00 00 00 00 00 00 00 00 ................
00400370 00 00 00 00 00 00 00 00 00 00 00 00 00 00 00 00 ................
00400380 00 00 00 00 00 00 00 00 00 00 00 00 00 00 00 00 ................
00400390 00 00 00 00 00 00 00 00 00 00 00 00 00 00 00 00 ................
004003A0 00 00 00 00 00 00 00 00 00 00 00 00 00 00 00 00 ................
004003B0 00 00 00 00 00 00 00 00 00 00 00 00 00 00 00 00 ................
004003C0 00 00 00 00 00 00 00 00 00 00 00 00 00 00 00 00 ................
004003D0 00 00 00 00 00 00 00 00 00 00 00 00 00 00 00 00 ................
004003E0 00 00 00 00 00 00 00 00 00 00 00 00 00 00 00 00 ................
004003F0 00 00 00 00 00 00 00 00 00 00 00 00 00 00 00 00 ................
00400400 00 00 00 00 00 00 00 00 00 00 00 00 00 00 00 00 ................
00400410 00 00 00 00 00 00 00 00 00 00 00 00 00 00 00 00 ................
00400420 00 00 00 00 00 00 00 00 00 00 00 00 00 00 00 00 ................
00400430 00 00 00 00 00 00 00 00 00 00 00 00 00 00 00 00 ................
00400440 00 00 00 00 00 00 00 00 00 00 00 00 00 00 00 00 ................
00400450 00 00 00 00 00 00 00 00 00 00 00 00 00 00 00 00 ................
00400460 00 00 00 00 00 00 00 00 00 00 00 00 00 00 00 00 ................
00400470 00 00 00 00 00 00 00 00 00 00 00 00 00 00 00 00 ................
00400480 00 00 00 00 00 00 00 00 00 00 00 00 00 00 00 00 ................
00400490 00 00 00 00 00 00 00 00 00 00 00 00 00 00 00 00 ................
004004A0 00 00 00 00 00 00 00 00 00 00 00 00 00 00 00 00 ................
004004B0 00 00 00 00 00 00 00 00 00 00 00 00 00 00 00 00 ................
004004C0 00 00 00 00 00 00 00 00 00 00 00 00 00 00 00 00 ................
004004D0 00 00 00 00 00 00 00 00 00 00 00 00 00 00 00 00 ................
004004E0 00 00 00 00 00 00 00 00 00 00 00 00 00 00 00 00 ................
004004F0 00 00 00 00 00 00 00 00 00 00 00 00 00 00 00 00 ................
00400500 00 00 00 00 00 00 00 00 00 00 00 00 00 00 00 00 ................
00400510 00 00 00 00 00 00 00 00 00 00 00 00 00 00 00 00 ................
00400520 00 00 00 00 00 00 00 00 00 00 00 00 00 00 00 00 ................
00400530 00 00 00 00 00 00 00 00 00 00 00 00 00 00 00 00 ................
00400540 00 00 00 00 00 00 00 00 00 00 00 00 00 00 00 00 ................
00400550 00 00 00 00 00 00 00 00 00 00 00 00 00 00 00 00 ................
00400560 00 00 00 00 00 00 00 00 00 00 00 00 00 00 00 00 ................
00400570 00 00 00 00 00 00 00 00 00 00 00 00 00 00 00 00 ................
00400580 00 00 00 00 00 00 00 00 00 00 00 00 00 00 00 00 ................
00400590 00 00 00 00 00 00 00 00 00 00 00 00 00 00 00 00 ................
004005A0 00 00 00 00 00 00 00 00 00 00 00 00 00 00 00 00 ................
004005B0 00 00 00 00 00 00 00 00 00 00 00 00 00 00 00 00 ................
004005C0 00 00 00 00 00 00 00 00 00 00 00 00 00 00 00 00 ................
004005D0 00 00 00 00 00 00 00 00 00 00 00 00 00 00 00 00 ................
004005E0 00 00 00 00 00 00 00 00 00 00 00 00 00 00 00 00 ................
004005F0 00 00 00 00 00 00 00 00 00 00 00 00 00 00 00 00 ................
00400600 00 00 00 00 00 00 00 00 00 00 00 00 00 00 00 00 ................
00400610 00 00 00 00 00 00 00 00 00 00 00 00 00 00 00 00 ................
00400620 00 00 00 00 00 00 00 00 00 00 00 00 00 00 00 00 ................
00400630 00 00 00 00 00 00 00 00 00 00 00 00 00 00 00 00 ................
00400640 00 00 00 00 00 00 00 00 00 00 00 00 00 00 00 00 ................
00400650 00 00 00 00 00 00 00 00 00 00 00 00 00 00 00 00 ................
00400660 00 00 00 00 00 00 00 00 00 00 00 00 00 00 00 00 ................
00400670 00 00 00 00 00 00 00 00 00 00 00 00 00 00 00 00 ................
00400680 00 00 00 00 00 00 00 00 00 00 00 00 00 00 00 00 ................
00400690 00 00 00 00 00 00 00 00 00 00 00 00 00 00 00 00 ................
004006A0 00 00 00 00 00 00 00 00 00 00 00 00 00 00 00 00 ................
004006B0 00 00 00 00 00 00 00 00 00 00 00 00 00 00 00 00 ................
004006C0 00 00 00 00 00 00 00 00 00 00 00 00 00 00 00 00 ................
004006D0 00 00 00 00 00 00 00 00 00 00 00 00 00 00 00 00 ................
004006E0 00 00 00 00 00 00 00 00 00 00 00 00 00 00 00 00 ................
004006F0 00 00 00 00 00 00 00 00 00 00 00 00 00 00 00 00 ................
00400700 00 00 00 00 00 00 00 00 00 00 00 00 00 00 00 00 ................
00400710 00 00 00 00 00 00 00 00 00 00 00 00 00 00 00 00 ................
00400720 00 00 00 00 00 00 00 00 00 00 00 00 00 00 00 00 ................
00400730 00 00 00 00 00 00 00 00 00 00 00 00 00 00 00 00 ................
00400740 00 00 00 00 00 00 00 00 00 00 00 00 00 00 00 00 ................
00400750 00 00 00 00 00 00 00 00 00 00 00 00 00 00 00 00 ................
00400760 00 00 00 00 00 00 00 00 00 00 00 00 00 00 00 00 ................
00400770 00 00 00 00 00 00 00 00 00 00 00 00 00 00 00 00 ................
00400780 00 00 00 00 00 00 00 00 00 00 00 00 00 00 00 00 ................
00400790 00 00 00 00 00 00 00 00 00 00 00 00 00 00 00 00 ................
004007A0 00 00 00 00 00 00 00 00 00 00 00 00 00 00 00 00 ................
004007B0 00 00 00 00 00 00 00 00 00 00 00 00 00 00 00 00 ................
004007C0 00 00 00 00 00 00 00 00 00 00 00 00 00 00 00 00 ................
004007D0 00 00 00 00 00 00 00 00 00 00 00 00 00 00 00 00 ................
004007E0 00 00 00 00 00 00 00 00 00 00 00 00 00 00 00 00 ................
004007F0 00 00 00 00 00 00 00 00 00 00 00 00 00 00 00 00 ................
00400800 00 00 00 00 00 00 00 00 00 00 00 00 00 00 00 00 ................
00400810 00 00 00 00 00 00 00 00 00 00 00 00 00 00 00 00 ................
00400820 00 00 00 00 00 00 00 00 00 00 00 00 00 00 00 00 ................
00400830 00 00 00 00 00 00 00 00 00 00 00 00 00 00 00 00 ................
00400840 00 00 00 00 00 00 00 00 00 00 00 00 00 00 00 00 ................
00400850 00 00 00 00 00 00 00 00 00 00 00 00 00 00 00 00 ................
00400860 00 00 00 00 00 00 00 00 00 00 00 00 00 00 00 00 ................
00400870 00 00 00 00 00 00 00 00 00 00 00 00 00 00 00 00 ................
00400880 00 00 00 00 00 00 00 00 00 00 00 00 00 00 00 00 ................
00400890 00 00 00 00 00 00 00 00 00 00 00 00 00 00 00 00 ................
004008A0 00 00 00 00 00 00 00 00 00 00 00 00 00 00 00 00 ................
004008B0 00 00 00 00 00 00 00 00 00 00 00 00 00 00 00 00 ................
004008C0 00 00 00 00 00 00 00 00 00 00 00 00 00 00 00 00 ................
004008D0 00 00 00 00 00 00 00 00 00 00 00 00 00 00 00 00 ................
004008E0 00 00 00 00 00 00 00 00 00 00 00 00 00 00 00 00 ................
004008F0 00 00 00 00 00 00 00 00 00 00 00 00 00 00 00 00 ................
00400900 00 00 00 00 00 00 00 00 00 00 00 00 00 00 00 00 ................
00400910 00 00 00 00 00 00 00 00 00 00 00 00 00 00 00 00 ................
00400920 00 00 00 00 00 00 00 00 00 00 00 00 00 00 00 00 ................
00400930 00 00 00 00 00 00 00 00 00 00 00 00 00 00 00 00 ................
00400940 00 00 00 00 00 00 00 00 00 00 00 00 00 00 00 00 ................
00400950 00 00 00 00 00 00 00 00 00 00 00 00 00 00 00 00 ................
00400960 00 00 00 00 00 00 00 00 00 00 00 00 00 00 00 00 ................
00400970 00 00 00 00 00 00 00 00 00 00 00 00 00 00 00 00 ................
00400980 00 00 00 00 00 00 00 00 00 00 00 00 00 00 00 00 ................
00400990 00 00 00 00 00 00 00 00 00 00 00 00 00 00 00 00 ................
004009A0 00 00 00 00 00 00 00 00 00 00 00 00 00 00 00 00 ................
004009B0 00 00 00 00 00 00 00 00 00 00 00 00 00 00 00 00 ................
004009C0 00 00 00 00 00 00 00 00 00 00 00 00 00 00 00 00 ................
004009D0 00 00 00 00 00 00 00 00 00 00 00 00 00 00 00 00 ................
004009E0 00 00 00 00 00 00 00 00 00 00 00 00 00 00 00 00 ................
004009F0 00 00 00 00 00 00 00 00 00 00 00 00 00 00 00 00 ................
00400A00 00 00 00 00 00 00 00 00 00 00 00 00 00 00 00 00 ................
00400A10 00 00 00 00 00 00 00 00 00 00 00 00 00 00 00 00 ................
00400A20 00 00 00 00 00 00 00 00 00 00 00 00 00 00 00 00 ................
00400A30 00 00 00 00 00 00 00 00 00 00 00 00 00 00 00 00 ................
00400A40 00 00 00 00 00 00 00 00 00 00 00 00 00 00 00 00 ................
00400A50 00 00 00 00 00 00 00 00 00 00 00 00 00 00 00 00 ................
00400A60 00 00 00 00 00 00 00 00 00 00 00 00 00 00 00 00 ................
00400A70 00 00 00 00 00 00 00 00 00 00 00 00 00 00 00 00 ................
00400A80 00 00 00 00 00 00 00 00 00 00 00 00 00 00 00 00 ................
00400A90 00 00 00 00 00 00 00 00 00 00 00 00 00 00 00 00 ................
00400AA0 00 00 00 00 00 00 00 00 00 00 00 00 00 00 00 00 ................
00400AB0 00 00 00 00 00 00 00 00 00 00 00 00 00 00 00 00 ................
00400AC0 00 00 00 00 00 00 00 00 00 00 00 00 00 00 00 00 ................
00400AD0 00 00 00 00 00 00 00 00 00 00 00 00 00 00 00 00 ................
00400AE0 00 00 00 00 00 00 00 00 00 00 00 00 00 00 00 00 ................
00400AF0 00 00 00 00 00 00 00 00 00 00 00 00 00 00 00 00 ................
00400B00 00 00 00 00 00 00 00 00 00 00 00 00 00 00 00 00 ................
00400B10 00 00 00 00 00 00 00 00 00 00 00 00 00 00 00 00 ................
00400B20 00 00 00 00 00 00 00 00 00 00 00 00 00 00 00 00 ................
00400B30 00 00 00 00 00 00 00 00 00 00 00 00 00 00 00 00 ................
00400B40 00 00 00 00 00 00 00 00 00 00 00 00 00 00 00 00 ................
00400B50 00 00 00 00 00 00 00 00 00 00 00 00 00 00 00 00 ................
00400B60 00 00 00 00 00 00 00 00 00 00 00 00 00 00 00 00 ................
00400B70 00 00 00 00 00 00 00 00 00 00 00 00 00 00 00 00 ................
00400B80 00 00 00 00 00 00 00 00 00 00 00 00 00 00 00 00 ................
00400B90 00 00 00 00 00 00 00 00 00 00 00 00 00 00 00 00 ................
00400BA0 00 00 00 00 00 00 00 00 00 00 00 00 00 00 00 00 ................
00400BB0 00 00 00 00 00 00 00 00 00 00 00 00 00 00 00 00 ................
00400BC0 00 00 00 00 00 00 00 00 00 00 00 00 00 00 00 00 ................
00400BD0 00 00 00 00 00 00 00 00 00 00 00 00 00 00 00 00 ................
00400BE0 00 00 00 00 00 00 00 00 00 00 00 00 00 00 00 00 ................
00400BF0 00 00 00 00 00 00 00 00 00 00 00 00 00 00 00 00 ................
00400C00 00 00 00 00 00 00 00 00 00 00 00 00 00 00 00 00 ................
00400C10 00 00 00 00 00 00 00 00 00 00 00 00 00 00 00 00 ................
00400C20 00 00 00 00 00 00 00 00 00 00 00 00 00 00 00 00 ................
00400C30 00 00 00 00 00 00 00 00 00 00 00 00 00 00 00 00 ................
00400C40 00 00 00 00 00 00 00 00 00 00 00 00 00 00 00 00 ................
00400C50 00 00 00 00 00 00 00 00 00 00 00 00 00 00 00 00 ................
00400C60 00 00 00 00 00 00 00 00 00 00 00 00 00 00 00 00 ................
00400C70 00 00 00 00 00 00 00 00 00 00 00 00 00 00 00 00 ................
00400C80 00 00 00 00 00 00 00 00 00 00 00 00 00 00 00 00 ................
00400C90 00 00 00 00 00 00 00 00 00 00 00 00 00 00 00 00 ................
00400CA0 00 00 00 00 00 00 00 00 00 00 00 00 00 00 00 00 ................
00400CB0 00 00 00 00 00 00 00 00 00 00 00 00 00 00 00 00 ................
00400CC0 00 00 00 00 00 00 00 00 00 00 00 00 00 00 00 00 ................
00400CD0 00 00 00 00 00 00 00 00 00 00 00 00 00 00 00 00 ................
00400CE0 00 00 00 00 00 00 00 00 00 00 00 00 00 00 00 00 ................
00400CF0 00 00 00 00 00 00 00 00 00 00 00 00 00 00 00 00 ................
00400D00 00 00 00 00 00 00 00 00 00 00 00 00 00 00 00 00 ................
00400D10 00 00 00 00 00 00 00 00 00 00 00 00 00 00 00 00 ................
00400D20 00 00 00 00 00 00 00 00 00 00 00 00 00 00 00 00 ................
00400D30 00 00 00 00 00 00 00 00 00 00 00 00 00 00 00 00 ................
00400D40 00 00 00 00 00 00 00 00 00 00 00 00 00 00 00 00 ................
00400D50 00 00 00 00 00 00 00 00 00 00 00 00 00 00 00 00 ................
00400D60 00 00 00 00 00 00 00 00 00 00 00 00 00 00 00 00 ................
00400D70 00 00 00 00 00 00 00 00 00 00 00 00 00 00 00 00 ................
00400D80 00 00 00 00 00 00 00 00 00 00 00 00 00 00 00 00 ................
00400D90 00 00 00 00 00 00 00 00 00 00 00 00 00 00 00 00 ................
00400DA0 00 00 00 00 00 00 00 00 00 00 00 00 00 00 00 00 ................
00400DB0 00 00 00 00 00 00 00 00 00 00 00 00 00 00 00 00 ................
00400DC0 00 00 00 00 00 00 00 00 00 00 00 00 00 00 00 00 ................
00400DD0 00 00 00 00 00 00 00 00 00 00 00 00 00 00 00 00 ................
00400DE0 00 00 00 00 00 00 00 00 00 00 00 00 00 00 00 00 ................
00400DF0 00 00 00 00 00 00 00 00 00 00 00 00 00 00 00 00 ................
00400E00 00 00 00 00 00 00 00 00 00 00 00 00 00 00 00 00 ................
00400E10 00 00 00 00 00 00 00 00 00 00 00 00 00 00 00 00 ................
00400E20 00 00 00 00 00 00 00 00 00 00 00 00 00 00 00 00 ................
00400E30 00 00 00 00 00 00 00 00 00 00 00 00 00 00 00 00 ................
00400E40 00 00 00 00 00 00 00 00 00 00 00 00 00 00 00 00 ................
00400E50 00 00 00 00 00 00 00 00 00 00 00 00 00 00 00 00 ................
00400E60 00 00 00 00 00 00 00 00 00 00 00 00 00 00 00 00 ................
00400E70 00 00 00 00 00 00 00 00 00 00 00 00 00 00 00 00 ................
00400E80 00 00 00 00 00 00 00 00 00 00 00 00 00 00 00 00 ................
00400E90 00 00 00 00 00 00 00 00 00 00 00 00 00 00 00 00 ................
00400EA0 00 00 00 00 00 00 00 00 00 00 00 00 00 00 00 00 ................
00400EB0 00 00 00 00 00 00 00 00 00 00 00 00 00 00 00 00 ................
00400EC0 00 00 00 00 00 00 00 00 00 00 00 00 00 00 00 00 ................
00400ED0 00 00 00 00 00 00 00 00 00 00 00 00 00 00 00 00 ................
00400EE0 00 00 00 00 00 00 00 00 00 00 00 00 00 00 00 00 ................
00400EF0 00 00 00 00 00 00 00 00 00 00 00 00 00 00 00 00 ................
00400F00 00 00 00 00 00 00 00 00 00 00 00 00 00 00 00 00 ................
00400F10 00 00 00 00 00 00 00 00 00 00 00 00 00 00 00 00 ................
00400F20 00 00 00 00 00 00 00 00 00 00 00 00 00 00 00 00 ................
00400F30 00 00 00 00 00 00 00 00 00 00 00 00 00 00 00 00 ................
00400F40 00 00 00 00 00 00 00 00 00 00 00 00 00 00 00 00 ................
00400F50 00 00 00 00 00 00 00 00 00 00 00 00 00 00 00 00 ................
00400F60 00 00 00 00 00 00 00 00 00 00 00 00 00 00 00 00 ................
00400F70 00 00 00 00 00 00 00 00 00 00 00 00 00 00 00 00 ................
00400F80 00 00 00 00 00 00 00 00 00 00 00 00 00 00 00 00 ................
00400F90 00 00 00 00 00 00 00 00 00 00 00 00 00 00 00 00 ................
00400FA0 00 00 00 00 00 00 00 00 00 00 00 00 00 00 00 00 ................
00400FB0 00 00 00 00 00 00 00 00 00 00 00 00 00 00 00 00 ................
00400FC0 00 00 00 00 00 00 00 00 00 00 00 00 00 00 00 00 ................
00400FD0 00 00 00 00 00 00 00 00 00 00 00 00 00 00 00 00 ................
00400FE0 00 00 00 00 00 00 00 00 00 00 00 00 00 00 00 00 ................
00400FF0 00 00 00 00 00 00 00 00 00 00 00 00 00 00 00 00 ................
00401000 14 6D 9E 83 CB FD 4F 02 D0 0B F2 32 F1 2B F9 02 .m....O....2.+..
00401010 D7 0B F8 4A 32 F0 E9 0A 01 00 00 6E 94 B2 EB 15 ...J2......n....
00401020 4B BA A5 02 F5 33 F7 2A F4 2B FE 42 0A F7 2B FB K....3.*.+.B..+.
00401030 4E 03 F2 E9 89 00 00 00 3F 0F 72 72 50 DE 03 F8 N.......?.rrP...
00401040 33 F8 0B D1 2B F0 4F C9 E9 89 00 00 00 C3 ED 78 3...+.O........x
00401050 83 35 8D 64 24 04 0B D0 32 F4 8B F2 02 D0 8B F1 .5.d$...2.......
00401060 32 F0 8A F1 8B F8 74 BB 87 F6 75 B7 DE 35 F0 11 2.....t...u..5..
00401070 D2 13 8D 64 24 04 4E 2B D1 0B F9 8B FA 8B F0 47 ...d$.N+.......G
00401080 7E BC F2 E9 01 00 00 00 F7 7F B3 35 2B 17 51 9A ~..........5+.Q.
00401090 8D 64 24 04 4B 47 43 4B 43 E8 08 00 00 00 98 41 .d$.KGCKC......A
004010A0 BF 12 A4 9C 4D AF 8F 44 24 DC 8B C6 0B DF 03 C7 ....M..D$.......
004010B0 2B C1 03 DA 49 4B 49 43 E8 A0 00 00 00 F1 4D C7 +...IKIC......M.
004010C0 83 8B FA 2B FE 2B D1 33 D1 8B D3 0B D7 E8 A0 FF ...+.+.3........
004010D0 FF FF 1E 34 F5 82 42 8B F8 8B CF 0B D8 8B D9 4E ...4..B........N
004010E0 03 FB 42 E8 A8 FF FF FF 0D 05 E9 2E 41 12 76 0B ..B.........A.v.
004010F0 F9 03 F2 2B F3 2B F9 4F 8B F7 0B D6 4F 0F 88 03 ...+.+.O....O...
00401100 FF FF FF F3 0F 89 FC FE FF FF 37 87 44 41 1C 65 ..........7.DA.e
00401110 B6                                              .              

l00401111:
	add	esi,ecx
	add	edx,eax
	add	esi,ecx
	xor	edx,esi
	sub	edi,edx
	inc	edx
	jbe	0040116E

l0040111E:
	rep	
	ja	0040116E
	int	03
	clc	
	xor	edx,esp
	sub	esi,ecx
	xor	edi,edx
	mov	dh,EB
	mov	edx,ebx
	xor	dl,al
	sub	dl,bl
	call	00401052
	lodsb	
	push	es
	sbb	eax,50E33534
	retf	8B55

fn0040113E()
	push	ebp
	mov	ebp,esp
	mov	edx,esi
	sub	esi,ecx
	xor	esi,ecx
	sub	edi,eax
	dec	edx
	sub	edi,eax
	inc	esi
	or	edx,esi
	sub	edx,eax
	jpe	00401111

l00401153:
	repne	
	jpo	00401111
	mov	dword ptr [edx+373A9963],24448FAA
	aam	03
	repne	
	xor	ebx,esi
	dec	edx
	sub	ecx,esi
	dec	ecx
	add	edi,esi
	inc	ebx
	jmp	00401181

l0040116E:
	or	esi,ebx
	xor	edi,ebx
	inc	edi
	inc	esi
	dec	edx
	inc	esi
	jmp	004010EF
	mov	ah,60
	sbb	[C5E8BEF7],ebp
	sbb	[eax],al
	add	[ecx+620CA30C],ch
	sbb	[edx+0B031390],eax
	mov	cl,[eax+820909A8]
	dec	ebp
	dec	eax
	lodsb	
	rol	dword ptr [edx+ecx*4],01
	pop	dword ptr [eax+0C190909]
	pusha	
	mov	ah,49
	jpe	00401212
	js	004011B4
	or	[esi],ebp
	pusha	
	cli	
	push	39
	adc	al,8A
	lea	ebp,eax
	or	[ecx],ecx
	xor	eax,09093109
	sbb	al,ah
	adc	al,E8
	or	[ecx],ecx
	add	[ecx-48],ecx
	sbb	al,ah
	xchg	eax,esp
	call	8A201AD6
	adc	[edx+45],edi
	call	C9981ADE
	and	eax,F47B5356
	cmc	
	mov	al,al
	call	7D171AEB
	mov	ah,[ecx]
	call	EA211AF2
	fcom	double ptr [esi+41]
	mov	byte ptr [esi+47C64180],7A
	shr	al,01
	or	[ecx],ecx
	mov	edx,D120BE9C
	xchg	eax,esi
	ror	[edx+09098829],cl
	cdq	
	mov	ah,49
	mov	[ecx],cl
	or	[ecx],ecx
	sbb	al,dl
	aaa	
	call	B1591B1B
	or	bl,[ecx]
	mov	cl,C9
	sbb	[ecx+E8A87ACA],esi
	or	[ecx],ecx
	sub	esi,eax
	jle	0040128F
	and	eax,49B11924
	mov	dh,[eax+5E090909]
	loopne	00401254
	or	[eax],ebx
	shl	byte ptr [esi+E0090958],DC
	mov	eax,18094851
	shl	byte ptr [ecx],C8
	or	[ecx],ecx
	adc	edi,[edx+00]
	fmul	dword ptr [ecx]
	or	edx,esi
	mov	dl,68
	jc	00401240
	xchg	cl,bl
	cdq	
	mov	ah,49
	enter	0909,09
	shr	dword ptr [eax],04
	sbb	[ecx+D8828ACB],esi
	or	[ecx],ecx
	jpe	004012C5
	cwde	
	or	[ecx],ecx
	sbb	[ecx+727A04CA],esi
	cwde	
	or	[ecx],ecx
	rcl	bl,EF
	imul	ecx,[edi],8A374E0C
	out	B8,al
	or	[ecx],ecx
	sbb	byte ptr [esi-7E],D8
	leave	
	add	al,8A
	in	eax,dx
	cwde	
	or	[ecx],ecx
	add	al,DC
	mov	bl,60
	dec	edx
	jpe	00401250
	pop	eax
	or	[ecx],ecx
	arpl	[edx+29],bx
	cmp	ch,dl
	jmp	00401316
	push	99090909
	cli	
	fmul	dword ptr [ebx+6BD87BD8]
	pusha	
	insb	
	jpe	00401283
	test	al,09
	or	[ecx+255E7FB5],ebp
	pusha	
	mov	bl,60
	dec	edx
	loopne	00401283
	leave	
	inc	eax
	mov	ah,49
	add	al,F1
	xor	[eax+19],ecx
	sbb	[ecx],ecx
	or	[eax],ebx
	mov	al,[0909D846]
	sbb	[ecx+D8377A48],esi
	or	[ecx],ecx
	or	ch,[8DC8DD6A]
	or	bh,[ebp+edi*2+09]
	or	[ecx],cl
	or	[eax-4D],esp
	mov	esp,[eax-4C]
	dec	esp
	jl	00401346
	leave	
	loopne	00401295
	or	[edx+09090509],al
	add	byte ptr [esi+eax*8+0D],7A
	pop	ebx
	fmul	dword ptr [ecx]
	or	esp,ebx
	pop	ds
	illegal	
	mov	al,[6008E1FA]
	xor	ecx,ebx
	fcom	dword ptr [ebx+45]
	sbb	ecx,edx
	ret	
	sbb	[ecx+0BB119CB],esi
	mov	dl,[ecx+18191919]
	popf	
	push	esp
	test	al,7A
	inc	edx
	fmul	dword ptr [ecx]
	or	[edx],eax
	push	ebp
	ret	
	pop	dword ptr [eax]
	mov	bl,60
	dec	edx
	loopne	004012F2
	dec	esp
	shl	[edx+09],cl
	sbb	dh,dh
	pusha	
	mov	[edx+08],ds
	call	A0C01C3E
	mov	edi,EB222FCD
	pop	edi
	mov	dl,cl
	stc	
	or	[ecx],ecx
	pusha	
	mov	ah,0B
	pusha	
	mov	ax,ds
	add	eax,86056045
	fdivr	st(0),st(5)
	jpe	004012E6
	fmul	dword ptr [ecx]
	or	edi,edx
	jnz	00401322
	pop	ds
	loope	00401354
	scasd	
	mov	dword ptr [eax+EBD508B4],7048B199
	les	esi,[edi+19]
	jo	0040132F
	nop	
	ret	1977
	nop	
	enter	7467,58
	jl	004013EF
	sbb	eax,88090978
	call	far 53D8:392A
	enter	51E0,C8
	mov	[ecx+532313A6],dl
	jl	00401377
	mov	[ecx],cl
	jpe	0040131D
	test	al,09
	or	ebx,ecx
	pop	ebp
	clc	
	inc	edx
	add	eax,5760D0FC
	pusha	
	xor	al,88
	pop	eax
	pop	ebx
	ror	edx,55
	xor	al,48
	rcr	dword ptr [ebx],D8
	xor	ecx,[eax+5460CB5A]
	enter	B37A,78
	or	[ecx],ecx
	mov	dh,C3
	lodsb	
	and	al,00
	xor	byte ptr [edi-16],D2
	adc	ah,[eax]
	mov	ah,89
	or	byte ptr [esp+ecx*2+4C],4C
	and	[ecx+ecx*8+4C4C4C82],dh
	dec	esp
	and	[edx+ecx+09A50982],dh
	or	[eax],esp
	mov	ah,8A
	or	byte ptr [ecx],A5
	or	[ecx],ecx
	jpe	00401413
	cwde	
	or	[ecx],ecx
	and	edx,B119B715
	mov	[eax-4C],al
	mov	[edx+eax*4],eax
	nop	
	adc	eax,[ebx]
	or	ecx,[edx+0909D89E]
	and	byte ptr [ebx],CC
	cdq	
	sub	al,[edx+ecx*4]
	xchg	eax,ebp
	test	al,09
	or	[edx+3B],edi
	cwde	
	or	[ecx],ecx
	mov	byte ptr [edi+B2AC682A],BC
	xchg	eax,ecx
	call	61000A0A
	mov	esp,60A3F9DD
	cdq	
	push	esi
	or	bl,[edx+25]
	and	esi,ebx
	stosd	
	in	eax,dx
	xor	ebx,edx
	mov	bl,[esi-78]
	or	[ecx],ecx
	xor	byte ptr [edx+ecx*8+1989B119],B1
	retf	8AD3
	push	7A090978
	out	29,al
	sbb	[ecx],ebx
	repne	
	retf	EBB5
	add	esp,[eax-4F]
	dec	eax
	pusha	
	xor	[eax+D501ED49],ecx
	pop	ebx
	into	
	illegal	
	jpe	004014B0
	test	al,09
	or	[esi+edi*2],eax
	sub	[esp+ecx*2-54],al
	mov	esi,7A23CED9
	dec	esi
	test	al,09
	or	eax,ebp
	jmp	00401419
	mov	eax,E7A4A770
	jmp	0040144B
	illegal	
	jl	004014EC
	ret	1939
	sbb	ebx,ebx
	inc	byte ptr [eax+4D]
	cmp	dh,bl
	jl	0040146A
	mov	[ecx],cl
	sbb	[edx-25],bl
	sub	edi,ebp
	pop	ebx
	enter	2BC6,FD
	sbb	[edx-03],bl
	inc	eax
	jz	00401489
	illegal	
	jns	004014EA
	mov	cl,ch
	stc	
	sbb	al,al
	int	09
	or	[ecx],ecx
	jpe	0040150C
	enter	0909,5F
	retf	A2CE
	ret	
	aam	26
	mov	al,[eax-48]
	or	[ecx],ecx
	sbb	[esp+edi*2],ecx
	in	al,dx
	mov	[ecx],cl
	mov	bl,60
	dec	edx
	loopne	00401484
	dec	ecx
	inc	eax
	mov	ah,49
	jpe	004014BB
	call	4B9A1DCC
	adc	eax,ebx
	test	[eax-4F],esp
	mov	[eax+29],ah
	pusha	
	xor	al,48
	pusha	
	mov	bl,08
	loopne	004014D0
	push	ecx
	jpe	00401549
	fmul	dword ptr [ecx]
	or	eax,esp
	jpe	0040152D
	dec	esi
	jpe	004014FA
	fmul	dword ptr [ecx]
	or	[edx+7228B66A],ebp
	add	al,82
	nop	
	adc	eax,[ebx]
	or	ecx,[edx+0909E83E]
	cmp	ch,26
	mov	edi,edx
	add	al,8A
	xor	eax,190909B8
	or	al,60
	mov	ah,0A
	jl	004014F0
	enter	7A09,9E
	cmp	[ecx],ebx
	sbb	[ecx+184F7C83],ecx
	shl	byte ptr [ecx-48],01
	or	[ecx],ecx
	sbb	[ebp+B48008B4],ch
	dec	ecx
	pusha	
	mov	cl,88
	pusha	
	sub	[eax],ebx
	lodsd	
	xor	edi,eax
	jpe	0040157A
	mov	eax,31E00909
	dec	eax
	push	C822F018
	or	[ecx],ecx
	pusha	
	fdivr	double ptr [edx+53]
	cmp	[ecx],ebx
	sbb	esi,ecx
	lodsd	
	mov	eax,[1FCFCC12]
	imul	esi,ecx,090919FB
	or	[edx-07],esp
	jpe	00401552
	sbb	[ecx],ebx
	sbb	[edi+7B],ebx
	or	al,5B
	enter	5BC6,C8
	mov	byte ptr [ebx],FD
	pop	ebx
	enter	7AC6,37
	sbb	[ecx],ebx
	sbb	ebx,edi
	clc	
	insd	
	out	60,al
	push	es
	add	[edx+0909F9FC],cl
	ror	[edx+09099877],cl
	pusha	
	fcomp	st(0),st(0)
	add	eax,C5021945
	ror	[edx+09090933],cl
	push	ebx
	jpe	0040158A
	cmp	[ecx],ebx
	sbb	edx,esp
	mov	eax,[18D4929A]
	shl	byte ptr [ebx+D7191949],01
	jl	00401611
	mov	eax,[00191929]
	test	ch,bh
	or	ecx,[eax+49487A4E]
	sbb	[ecx],ebx
	inc	edi
	xor	eax,2313DD04
	jl	0040159A
	dec	eax
	or	[ebx+D5934A60],esi
	or	eax,09B8EB7A
	or	[esi+49DD8F75],ebx
	test	byte ptr [eax+231308F6],7C
	in	al,dx
	dec	eax
	or	[ebx+027A4A60],esi
	sub	[ecx],ebx
	sbb	[edx],ebx
	jno	00401618
	pusha	
	add	[edi],al
	sub	al,83
	and	edx,[ebx+7C]
	in	al,dx
	enter	B309,60
	dec	edx
	sar	[edx-67],cl
	call	91CC1EF4
	cdq	
	sub	esp,[ecx]
	bound	ecx,[ecx]
	jpe	0040162F
	cwde	
	or	[ecx],ecx
	bound	ecx,[ecx]
	inc	eax
	mov	ah,C9
	add	al,19
	mov	cl,48
	jpe	0040159F
	cwde	
	or	[ecx],ecx
	mov	esi,B9A716D2
	fiadd	dword ptr [6045F560]
	les	edi,ecx
	xchg	al,bl
	std	
	xor	byte ptr [esp+ecx*2+190B3360],B1
	dec	esp
	sbb	[ecx+B47AD30C],esi
	sbb	[ecx],ebx
	sbb	[ebx+6622CF43],esp
	fsubr	st(0),st(4)
	pusha	
	mov	[eax+02],esp
	pop	es
	fsubr	st(0),st(1)
	pusha	
	test	[edi+7A493480],al
	lock	
	mov	eax,653D0909
	js	0040169F
	illegal	
	cmc	
	push	cs
	or	[edx+19192977],cl
	out	0D,al
	rcr	dword ptr [ecx+39ECC018],01
	sbb	[ecx],ebx
	outsb	
	jpe	00401616
	enter	0909,7A
	lock	
	test	al,09
	or	[edi+93ECF552],edx
	retf	
	push	cs
	and	[eax+B1190CB4],al
	mov	ah,[edx+09]
	mov	cl,cl
	or	[ecx],ecx
	or	[eax+3360CBB4],eax
	or	edi,[edx-6E]
	cwde	
	or	[ecx],ecx
	push	es
	xor	byte ptr [edi],CC
	jg	0040161C
	adc	ecx,esi
	fmul	double ptr [ecx+7A090909]
	jz	00401659
	or	[ecx],ecx
	hlt	
	pusha	
	aam	C7
	fdiv	dword ptr [ebx+ecx*8+D8485460]
	xor	al,0B
	sbb	ecx,edx
	or	[edx+edi*2],al
	pop	eax
	stc	
	or	[ecx],ecx
	and	[0DE316F7],ebx
	pusha	
	push	edi
	pop	eax
	pop	ebx
	sbb	al,dl
	jo	00401710
	sbb	[ecx],ebx
	fdiv	dword ptr [ebx]
	mov	[edx-7F],bh
	pop	ecx
	sbb	[ecx],ebx
	pusha	
	aam	48
	fdiv	dword ptr [eax+ecx*4+0998A37A]
	or	[edx+2E87B11C],edx
	imul	byte ptr [esi+0DC64440]
	hlt	
	add	bl,C6
	or	eax,0DC6C340
	jcxz	00401744
	sbb	[edx+eax*4],eax
	nop	
	adc	eax,[ebx]
	or	edi,[edx+70]
	pop	ecx
	sbb	[ecx],ebx
	test	al,95
	mov	dh,55
	sbb	ebx,[edi+0909AE8A]
	or	[edx+BBD056DA],eax
	add	al,8A
	movsd	
	fmul	dword ptr [ecx]
	or	[ecx],ebx
	or	al,7C
	in	al,dx
	enter	B309,60
	dec	edx
	loopne	004016DB
	or	bh,[edx-15]
	dec	ecx
	sbb	[ecx],ebx
	mov	cl,7C
	xchg	eax,esp
	aam	04
	mov	al,[ecx]
	or	[ecx],ecx
	or	[edx+E4E8D3A2],eax
	add	al,8A
	or	al,bl
	or	[ecx],ecx
	sbb	[eax],ecx
	mov	ah,88
	jl	0040171D
	mov	[ecx],cl
	mov	bl,60
	dec	edx
	jpe	004016F4
	stc	
	or	[ecx],ecx
	jz	B426C723
	pusha	
	dec	edx
	shl	[ebx+48316093],cl
	ret	3760
	push	es
	or	[ecx],ecx
	or	[eax+53],esp
	dec	eax
	pusha	
	ror	[eax+7A],cl
	or	al,cl
	or	[ecx],ecx
	dec	edx
	aam	8E
	xchg	eax,edx
	int	61
	push	ebp
	illegal	
	adc	dword ptr [ebx+7C],B309C8EC
	pusha	
	dec	edx
	bound	eax,[09060982]
	or	[eax-4C],eax
	dec	eax
	jpe	004017E1
	stc	
	or	[ecx],ecx
	xchg	[edx+EB768D66],eax
	add	al,19
	mov	cl,08
	inc	eax
	mov	ah,48
	add	al,40
	mov	ah,88
	add	al,7A
	mov	[ecx+19],edi
	sbb	[eax+eax*4],ebx
	and	[ecx+53231308],ebx
	jl	00401789
	mov	[ecx],cl
	mov	bl,60
	dec	edx
	rol	edx,cl
	pusha	
	mov	bh,06
	or	[ecx],ecx
	or	[edx+7D],edi
	or	[ecx],ecx
	or	ecx,esp
	pop	es
	inc	ecx
	div	edi
	hlt	
	mov	cl,[ecx+ebp*2]
	sbb	[ecx],ebx
	pusha	
	aam	48
	fdiv	dword ptr [ebx+ecx+19C6D119]
	ror	dword ptr [eax+499A8A04],01
	sbb	[ecx],ebx
	jnc	004017AE
	fadd	double ptr [esi+09D8A87A]
	or	[ebp+F22C2EFD],edx
	pop	ds
	mov	ecx,066460F4
	illegal	
	or	eax,0DFD885A
	cwde	
	in	eax,F9
	loopne	004017E8
	call	09B5F892
	mov	cl,E9
	mov	ch,F0
	imul	eax,[esp+edx*2],09E8337A
	or	[edi+4A],edi
	push	ebx
	in	eax,31
	push	cs
	illegal	
	jpe	00401839
	arpl	[ecx],bx
	or	[eax+7C],ebx
	sbb	al,al
	mov	ch,C8
	or	[ecx],ecx
	xor	byte ptr [ebx+ecx+09098249],09
	or	[eax],esp
	mov	ah,49
	jpe	004017AD
	pop	ecx
	sbb	[ecx],ebx
	adc	cs:[ebx+4752C782],ch
	jg	00401827
	in	al,dx
	fadd	dword ptr [eax+74]
	sbb	eax,esp
	std	
	push	ecx
	loopne	004018AD
	push	ecx
	sbb	al,al
	das	
	dec	ecx
	sbb	[ecx],ebx
	pusha	
	mov	ah,88
	pusha	
	xor	al,48
	pusha	
	mov	bl,08
	jpe	004017D7
	cmp	[ecx],ebx
	sbb	[esi],ecx
	mov	[D5248589],eax
	or	eax,C8ACE073
	cmc	
	push	ebp
	xor	al,49
	sbb	al,dh
	inc	edx
	fmul	dword ptr [ecx]
	or	[edx-4B],edi
	sbb	[ecx],ebx
	sbb	[ebx],esi
	mov	cl,30
	mov	ecx,48E3607B
	pusha	
	imul	esp,eax,DC
	dec	eax
	pusha	
	jcxz	004018BB
	pusha	
	out	7A,al
	call	far 7A19:1929
	and	ebx,[ecx]
	sbb	[ecx],ebx
	mov	ecx,C8377A66
	popf	
	xchg	eax,esp
	add	al,62
	or	[eax-4C],eax
	mov	[edx],al
	sbb	[edx+0B031390],eax
	jpe	00401887
	sub	[ecx],ebx
	sbb	[edi+6C789CFC],esp
	fmul	dword ptr [edi]
	dec	ebx
	mov	bh,[ecx+29]
	sbb	[ecx],ebx
	sub	byte ptr [ebp+04D5C619],8A
	cmp	cl,09
	or	[ecx],ebx
	or	al,40
	mov	ah,C9
	jpe	004018FE
	dec	ecx
	sbb	[ecx],ebx
	jpo	00401902
	jmp	71344E19
	insb	
	add	edx,edi
	xlat	
	call	704E03F8
	insb	
	jmp	0040185B
	jnc	0040193F
	fdivr	st(0),st(4)
	jpe	004018C9
	sbb	[ecx],ebx
	sbb	[ebp-34],ebx
	sbb	cl,ah
	int	03
	xor	eax,93A31B20
	pusha	
	xor	ecx,[eax+B356DB60]
	dec	eax
	fcom	dword ptr [ebx+45]
	inc	eax
	pop	edi
	illegal	
	or	[ecx],ecx
	jpe	004018F4
	imul	ebx,[ecx],D4DC0219
	dec	esi
	xchg	eax,ecx
	sbb	byte ptr [ebx-05],82
	or	[ecx],eax
	or	[ecx],ecx
	inc	eax
	mov	ah,48
	add	al,40
	mov	ah,88
	add	al,62
	sbb	[edx+0B031390],eax
	mov	dh,[eax+82191929]
	pop	esi
	sbb	al,C9
	add	al,7A
	rcr	byte ptr [ecx+19],01
	sbb	[esi+27D064C4],ecx
	fcom	dword ptr [ebp-28]
	xor	[eax+ACE097F9],ecx
	call	59289417
	jl	00401951
	ror	byte ptr [ebx+7A0909D8],65
	imul	ebx,[ecx],71D56819
	cmpsb	
	pop	esp
	sub	esi,[ebx+C6C75B83]
	or	dword ptr [ebp+090909D8],D5
	jmp	004018FA
	xor	[edx+FC8A50A2],cl
	mov	[edx+5C],ds
	call	0779226F
	pop	ebp
	pop	ebx
	test	ebp,esi
	add	[ebp+09],esi
	sbb	al,al
	shr	al,cl
	or	[ecx],ecx
	mov	ch,F0
	imul	eax,[esp+edx*2],C018DC55
	sub	al,29
	sbb	[ecx],ebx
	pusha	
	xchg	eax,esp
	mov	al,EC
	pop	edx
	and	al,2E
	pop	eax
	adc	bh,[ebx]
	cli	
	repne	
	mov	cl,bl
	into	
	fdiv	dword ptr [ecx+686AE049]
	cdq	
	imul	esp,[eax+6C],D9
	into	
	jpe	0040193A
	or	[ecx],ecx
	or	[eax+34],esp
	dec	eax
	fxch	st(0),st(6)
	jpe	00401983
	or	[ecx],ecx
	or	[edx-74],edi
	or	[ecx],ecx
	or	[ebx],ecx
	inc	eax
	xchg	eax,ecx
	retf	1873
	popf	
	dec	eax
	test	[eax-6C],ah
	inc	edi
	fsubr	st(0),st(4)
	pusha	
	enter	D890,EC
	jpe	004019E2
	cmp	[ecx],ebx
	sbb	[edx-10],edi
	sub	[ecx],ebx
	sbb	[edx+51],edi
	sub	[ecx],ebx
	sbb	esp,edi
	xchg	[esp+edx+B1191207],ch
	retf	
	mov	bh,[esi-77]
	sbb	[ecx],ebx
	cdq	
	mov	ah,49
	or	[ecx],cl
	or	[ecx],ecx
	shl	dword ptr [ebp+19],B1
	or	ecx,[edx+0909F98D]
	sbb	[ecx+0BB1194B],esi
	jpe	00401A2D
	call	66612308
	imul	ebp,eax,1996DF85
	rol	dword ptr [edi-76],01
	das	
	stc	
	or	[ecx],ecx
	mov	ah,dh
	cmp	[ecx],ebx
	sbb	[edx+191939C3],ecx
	xor	byte ptr [ebx+ecx+063860C2],09
	or	[ecx],ecx
	xor	ch,88
	sbb	[ecx+0BB1194B],esi
	mov	dh,al
	pop	ecx
	sbb	[ecx],ebx
	jpe	00401A7C
	mov	[ecx],ebx
	sbb	esp,edx
	enter	99F1,B7
	sub	byte ptr [E04A60B3],CC
	dec	ecx
	shl	[ebx+88B46093],cl
	fadd	dword ptr [88B36045]
	pusha	
	add	eax,59AB7A81
	sbb	[ecx],ebx
	mov	edx,2B460FFD
	push	ebp
	mov	ah,88
	mov	cl,38
	pusha	
	in	al,87
	jpe	00401A7C
	dec	ecx
	sbb	[ecx],ebx
	jpe	00401A11
	dec	ecx
	sbb	[ecx],ebx
	pusha	
	out	D5,al
	or	eax,19493A7A
	sbb	[edx+7F],eax
	repne	
	adc	eax,49B4606D
	jbe	00401A32
	mov	eax,esp
	or	eax,48B47668
	loopne	00401AB8
	dec	eax
	or	[eax],ebx
	rcr	byte ptr [edi+69],19
	sbb	[eax-4C],esp
	mov	[ebx],edx
	and	ebx,[edx-5E]
	mov	ah,[ebx+ebp*2+A4204F17]
	xchg	[ecx],ebx
	mov	cl,08
	and	[edi+eax*2+09F92B7A],ah
	or	[eax-5B],esp
	push	ebp
	jmp	0A2CDAC9
	or	[ecx],ecx
	jpe	00401AD1
	stc	
	or	[ecx],ecx
	int	C4
	mov	bl,34
	dec	ebx
	loopne	00401A8B
	dec	ecx
	shl	[ebx+88336093],cl
	fcom	dword ptr [ebx+45]
	inc	eax
	pop	edi
	add	[ecx],ecx
	or	[ecx],ecx
	jpe	00401B2C
	pop	ecx
	sbb	[ecx],ebx
	frstor	word ptr [eax+55]
	pop	es
	fcom	double ptr [edx+7C587450]
	sbb	al,al
	push	ds
	pop	ecx
	sbb	[ecx],ebx
	sbb	[ecx+CBB1198A],esi
	mov	al,ah
	dec	ecx
	sbb	[ecx],ebx
	pusha	
	xor	al,0B
	jpe	00401ACB
	pop	ecx
	sbb	[ecx],ebx
	and	ebx,[edx+53C10411]
	jl	00401AEB
	or	[ecx],cl
	mov	bl,60
	dec	edx
	sar	[edx-21],cl
	stc	
	or	[ecx],ecx
	dec	eax
	insd	
	adc	eax,AAFFC3EA
	mov	dl,[ecx+edi*2]
	sbb	[ecx],ebx
	sbb	al,ah
	in	eax,79
	sbb	[ecx],ebx
	illegal	
	jl	00401AA9
	in	al,79
	sbb	[ecx],ebx
	sbb	al,ah
	insd	
	stc	
	or	[ecx],ecx
	illegal	
	or	eax,1979B58A
	sbb	[eax],ebx
	loopne	00401AFF
	stc	
	or	[ecx],ecx
	jpe	00401AD0
	pop	ecx
	sbb	[ecx],ebx
	lock	
	imul	dword ptr fs:[edi-07]
	and	[edx+ecx*8+3B570682],dh
	jnz	00401B69
	mov	ah,4A
	pusha	
	mov	ah,0B
	fadd	dword ptr [04846045]
	xor	byte ptr [ebx+ecx*2],62
	add	eax,194BB119
	mov	cl,0B
	jpe	00401AFC
	cdq	
	sbb	[ecx],ebx
	push	edx
	hlt	
	int	F9
	pop	esi
	pop	ss
	push	edi
	pusha	
	ror	dword ptr [eax+5A],01
	mov	eax,1919A57A
	sbb	[eax-5C],esp
	inc	edi
	push	ebp
	pushf	
	sbb	al,al
	jbe	00401B97
	sbb	[ecx],ebx
	sbb	[ecx+19D77A88],esi
	sbb	[ecx],ebx
	sbb	dh,[esi+601CBCC3]
	xor	al,48
	pusha	
	xor	[eax+7C136ED9],ecx
	in	al,dx
	mov	[ecx],cl
	jpe	00401B9B
	pop	ecx
	sbb	[ecx],ebx
	sub	al,99
	popf	
	inc	eax
	mov	cl,B1
	mov	dl,7C
	in	al,dx
	dec	eax
	or	[ebx+B1194A60],esi
	mov	[edx+19],ah
	adc	byte ptr [eax+7A0B0313],85
	pop	ecx
	sbb	[ecx],ebx
	popf	
	adc	eax,3360A6C9
	dec	eax
	illegal	
	jl	00401C40
	pusha	
	dec	ecx
	sbb	[ecx],ebx
	hlt	
	pusha	
	sub	al,bl
	insb	
	illegal	
	or	eax,1939CF7A
	sbb	ebp,edi
	or	eax,7AF9E598
	cmp	byte ptr [ecx],19
	sbb	[eax],ebx
	inc	al
	add	al,09
	sbb	[edx],ecx
	stc	
	inc	eax
	mov	ah,89
	add	al,40
	mov	ah,C9
	add	al,82
	nop	
	adc	eax,[ebx]
	or	ecx,[edx+191959CE]
	adc	bh,F2
	pop	eax
	inc	byte ptr [edx+edi*2]
	sub	eax,2D0909F9
	and	[ebx+11],eax
	add	al,9A
	or	eax,49B11922
	mov	cl,[edi-57]
	sbb	[ecx],ebx
	jpe	00401C10
	test	eax,B4D81919
	mov	[eax+05],al
	call	B9799629
	sbb	[ecx],ebx
	mov	ebp,C4CC1763
	pop	ecx
	lock	
	push	ebx
	sbb	al,dh
	mov	dh,39
	sbb	[ecx],ebx
	pusha	
	mov	ah,89
	xor	byte ptr [ebx+ecx*4+5A4AB460],B8
	jpe	00401C1E
	pop	ecx
	sbb	[ecx],ebx
	test	ch,bh
	mov	bl,[eax]
	std	
	or	ebx,[eax]
	sbb	[ebp+592E7A88],bl
	sbb	[ecx],ebx
	cmp	eax,12CB4DCD
	push	esp
	mov	cl,bl
	imul	ebx,[ecx],CB336019
	fcom	dword ptr [ebx+45]
	inc	eax
	push	ebx
	xchg	[ecx],ebx
	rol	dword ptr [ebp+194BB420],01
	rol	dword ptr [ebp+1947D119],01
	rol	dword ptr [ebp+7A47D119],01
	sar	byte ptr [ecx],19
	sbb	ecx,ecx
	enter	9B1A,4F
	adc	al,73
	insb	
	adc	esp,[ebx]
	push	ebx
	jl	00401C78
	dec	eax
	or	[ebx+967A4A60],esi
	sub	[ecx],ebx
	sbb	[ecx],esi
	inc	eax
	jo	00401CC6
	fdivrp	st(1),st(0)
	pusha	
	xor	al,48
	pusha	
	xor	ecx,[eax+19A96C7A]
	sbb	[eax-4C],esp
	or	[ebp+B5E719BB],dh
	std	
	mov	ax,ds
	jpe	00401CE4
	test	eax,6B721919
	mov	eax,692B8AA1
	sbb	[ecx],ebx
	sbb	byte ptr [ecx+047142EB],8A
	and	bh,[ecx]
	sbb	[ecx],ebx
	sbb	[eax],ecx
	mov	ah,49
	jl	00401CBF
	mov	[ecx],cl
	mov	bl,60
	dec	edx
	jpe	00401D49
	or	[ecx],ecx
	or	esp,eax
	pop	ecx
	push	eax
	outsd	
	xchg	eax,ecx
	sbb	al,8A
	jmp	565936B2
	pop	esp
	sbb	al,al
	pop	esi
	mov	[ecx],ebx
	sbb	[edx+19199961],ecx
	jpe	00401D5E
	cdq	
	sbb	[ecx],ebx
	dec	esi
	cld	
	mov	bh,[edx+50]
	mov	[ecx],ebx
	sbb	[ecx-44],esi
	push	10
	and	dh,[ebx+5C]
	loopne	00401D85
	mov	[eax-27],ah
	loopne	00401CBC
	mov	[edx+07],bh
	dec	ecx
	sbb	[ecx],ebx
	sbb	[ebp+899D18A8],bl
	mov	[18199AF1],al
	mov	[E0488AFD],al
	mov	eax,ebx
	sbb	al,al
	call	7A593678
	test	eax,DE191959
	xchg	eax,ebx
	mov	dl,54
	inc	edx
	sbb	al,al
	bound	ebx,[ecx]
	sbb	[ecx],ebx
	push	ebx
	jl	00401D2D
	dec	eax
	or	[ebx+93A34A60],esi
	jpe	00401DBB
	cdq	
	sbb	[ecx],ebx
	dec	ebp
	cmp	ch,[ebx]
	fidivr	word ptr [ecx]
	std	
	sbb	eax,7A8831D8
	cld	
	leave	
	sbb	[ecx],ebx
	jle	00401D68
	or	[ecx],ecx
	add	[eax],ebx
	rcr	ch,01
	sub	[ecx],ebx
	sbb	[ebp+01090909],esi
	add	al,7A
	pop	edi
	sub	[ecx],ebx
	sbb	[ecx],esi
	fsubr	st(0),st(4)
	jcxz	00401D58
	int	03
	mov	ebx,edx
	mov	[48B46093],eax
	push	esi
	mov	ah,C7
	xor	byte ptr [eax+ecx*2+0189B480],31
	or	[ecx],cl
	jpe	00401DC0
	cdq	
	sbb	[ecx],ebx
	lds	ebp,[ecx+E5F41C38]
	xor	eax,908204BA
	adc	eax,[ebx]
	or	ecx,[edx+19197969]
	and	byte ptr [ebx],CC
	cdq	
	sub	al,[edx+ecx*4]
	jo	00401DF7
	sbb	[ecx],ebx
	sbb	[ecx+ebx],ecx
	mov	cl,88
	adc	byte ptr [eax+7A0B0313],39
	sub	[ecx],ebx
	sbb	[ecx+2B8C477E],ecx
	mov	dh,dl
	dec	ecx
	sbb	[ecx],ebx
	sbb	[eax+eax*2],ecx
	mov	ah,0A
	add	al,40
	mov	ah,C9
	add	al,62
	or	[edx+09],esp
	adc	byte ptr [eax+7A0B0313],0D
	imul	ebx,[ecx],7DB40F19
	mov	byte ptr [edx+edi-61],D8
	push	ebx
	inc	ebp
	illegal	
	fadd	double ptr [edi]
	stc	
	or	[ecx],ecx
	pusha	
	push	ebx
	dec	eax
	fdiv	dword ptr [ebx]
	or	ebx,[ecx]
	mov	cl,4A
	sbb	[ecx+D9597ACA],esi
	sbb	[ecx],ebx
	loop	00401E59
	sbb	ah,[esi+346093A3]
	or	[eax-4F],ah
	dec	eax
	pusha	
	xor	[eax+9C60CED9],ecx
	jpe	00401E27
	cdq	
	sbb	[ecx],ebx
	lahf	
	mov	dl,7B
	push	ebx
	cmpsd	
	dec	edx
	out	dx,ax
	or	[edx+ecx*4],al
	jmp	far 8019:1989
	mov	ah,49
	loopne	00401E82
	or	ecx,eax
	enter	D560,5A
	fsub	dword ptr [eax-2F]
	or	al,bl
	mov	cl,88
	pusha	
	push	ecx
	or	[edx-19],bh
	sbb	[ecx],ebx
	sbb	[edx+36016FFA],esp
	add	bl,[ebx+39]
	in	al,dx
	hlt	
	mov	ah,07
	inc	eax
	pop	dword ptr [esp-24]
	or	edx,esi
	sub	dh,bl
	or	esi,ebx
	xor	ah,dh
	add	dh,bl
	add	ecx,eax
	mov	al,ch
	mov	ecx,eax
	mov	edx,7AB40E48
	call	00402C57
	cmp	al,97
	and	esp,ebx
	sub	ah,bh
	mov	[ebx],cl
	sub	eax,edi
	dec	esi
	add	esi,eax
	or	esi,eax
	add	esi,eax
	mov	eax,esi
	xor	eax,edi
	sub	al,cl
	jle	00402747
	mov	al,al
	push	ecx
	pop	ecx
	jg	00402747
	stosb	
	push	eax
	pop	ss
	cmc	
	jle	00401EB7
	add	ch,al
	xor	cl,bl
	mov	al,5B
	dec	eax
	xor	edi,edx
	dec	ecx
	mov	ah,bh
	mov	ch,cl
	jc	00402BAC
	push	ecx
	pop	ecx
	jnc	00402BAC
	illegal	
	push	esp
	mov	edi,74D2BB3C
	cld	
	add	eax,08
	sub	bl,ah
	or	bh,cl
	xor	edi,eax
	dec	edi
	sub	ebx,ecx
	add	bl,dl
	mov	bh,37
	jmp	00402320
	insd	
	or	esi,[ecx]
	cmpsd	
	and	ebp,[ebx]
	lea	esp,[esp+04]
	or	esi,eax
	dec	esi
	add	eax,esi
	inc	esi
	mov	eax,edx
	mov	al,6A
	sub	al,cl
	xor	ah,dl
	js	004027AF
	jpo	00401EF4
	jns	004027AF
	movsd	
	mov	cl,36
	inc	ebp
	mov	al,bh
	add	edx,edi
	mov	al,dl
	xor	edx,esi
	mov	ch,dh
	inc	edx
	jz	004023B0
	jmp	00401F15
	mov	ecx,000001E9
	add	[esi+048F850F],ch
	add	[eax],al
	retf	
	sbb	[ecx+0A],eax
	pop	esi
	fadd	dword ptr [eax-0A]
	fdiv	dword ptr [edx]
	loope	00401F61
	ret	C432
	jmp	0040224F
	mov	byte ptr [eax-12],DE
	and	cl,dl
	illegal	
	xor	bl,bh
	mov	esi,edi
	add	bh,cl
	or	esi,edi
	inc	ebx
	xor	bl,ch
	xor	ebx,eax
	add	esi,ebx
	or	bh,cl
	xor	edi,esi
	jmp	00402585
	illegal	
	ror	ebp,cl
	std	
	add	edi,edx
	cwde	
	jge	00401F92
	mov	byte ptr [esi+2A],C2
	inc	eax
	or	esi,ebx
	xor	ah,bh
	call	004025C2
	cmp	ecx,ebp
	iret	
	imul	dword ptr [edx]
	out	2B,al
	test	dword ptr [esi-0A],4EE78AD1
	mov	al,dh
	jle	00402C12
	xchg	bl,bl
	jg	00402C12
	inc	esi
	and	byte ptr [edi-47],8B
	retf	
	add	ecx,edx
	sub	bh,ch
	mov	eax,[edx]
	sub	edx,ecx
	dec	esi
	add	ch,al
	jbe	00402497
	xchg	bh,bh
	ja	00402497
	cld	
	int	62
	ja	00401F3C
	mov	bh,0D
	add	ebx,edi
	mov	edi,ecx
	mov	bh,ch
	xor	bh,cl
	neg	bh
	inc	edi
	mov	bh,bl
	mov	bh,dh
	lea	eax,[eax+78]
	jl	00402626
	push	ebx
	pop	ebx
	xchg	si,si
	jge	00402626
	adc	[eax-43],ecx
	mov	ss,[edx]
	les	esi,[edx]
	loope	00401FD3
	fmul	dword ptr [edx]
	lds	esi,[edx+edx*8+3CE9F133]
	or	al,[eax]
	add	[eax],ch
	or	ax,419E
	insd	
	push	edi
	xchg	[esp],eax
	mov	di,di
	pop	eax
	sub	edi,eax
	neg	bh
	mov	ah,DD
	jle	00402512
	mov	ax,ax
	repne	
	jg	00402512
	jnc	00402053
	xchg	eax,edx
	iret	
	xchg	[esp],esi
	jz	00402017
	pop	esi
	neg	ch
	or	eax,esi
	or	dl,bh
	or	cl,ch
	xor	eax,ecx
	call	00402836
	pop	ebp
	push	ebp
	mov	esi,89DEE040
	add	al,24
	xchg	ecx,ecx
	pop	eax
	or	ah,bl
	sub	esi,edi
	sub	eax,edi
	xor	cl,dl
	mov	bh,D3
	add	cl,dl
	jbe	004020C0
	xchg	dx,dx
	xchg	al,al
	ja	004020C0
	in	eax,E4
	fimul	word ptr [edi+DC8A5B62]
	mov	esi,edx
	xor	bh,dh
	sub	ebx,eax
	mov	edi,ecx
	xor	esi,edi
	mov	bh,D4
	sub	edi,eax
	push	dword ptr [edx+08]
	xor	bh,cl
	jmp	00401FAF
	cmp	[ecx-23],dh
	std	
	illegal	
	fimul	word ptr [edi+33F02444]
	rep	
	xor	edi,edx
	sub	bh,bl
	xor	bh,dl
	dec	esi
	dec	edi
	xor	eax,edx
	sub	ecx,ebx
	or	bl,bh
	xor	bl,dh
	add	edx,ecx
	or	esi,ebx
	or	ch,dl
	add	ch,cl
	mov	ch,47
	add	edi,ecx
	jz	00402996
	xchg	dh,dh
	jnz	00402996
	fidivr	word ptr [ebp-2A]
	movsd	
	pop	ecx
	mov	[esp],esi
	rep	
	xchg	ebx,ebx
	pop	esi
	add	esi,eax
	neg	bh
	inc	esi
	xor	esi,ebx
	add	eax,[eax+3C]
	call	0040218E
	out	dx,ax
	sbb	[eax-7E],ecx
	lodsb	
	add	esi,esi
	fadd	st(0),st(3)
	sub	ebx,esi
	mov	esi,edi
	dec	edx
	or	edi,ecx
	xor	eax,edi
	or	bh,dh
	sub	eax,ecx
	call	0040206E
	lds	esp,[ecx+4467CE74]
	mov	ah,19
	mov	[esp],ecx
	rep	
	jnz	004020E3
	pop	ecx
	mov	bh,dh
	mov	bl,dh
	mov	bl,77
	dec	edi
	dec	esi
	call	00402900
	fisubr	dword ptr [C25C77A4]
	add	al,2A
	fisubr	dword ptr [ebx]
	rep	
	inc	ebx
	add	edx,edi
	mov	ah,cl
	or	dl,al
	xor	bl,ah
	add	al,bh
	or	al,bl
	shl	ecx,0F
	call	004028B9
	mov	edx,D517402C
	lea	esp,[esp+04]
	neg	ch
	sub	bl,dh
	mov	cl,al
	sub	cl,dh
	mov	ch,bh
	sub	dh,bh
	call	004022CD
	jle	0040217B
	pushf	
	or	dh,[eax-80]
	add	ah,ch
	inc	esi
	or	esi,ebx
	mov	eax,esi
	mov	eax,edx
	or	esi,edi
	inc	esi
	xor	esi,eax
	xor	esi,eax
	mov	esi,ebx
	js	004021DC
	jmp	0040214E
	jns	004021DC
	push	ecx
	mov	ah,81
	inc	edi
	inc	ebx
	xor	al,dh
	xor	ah,cl
	sub	ah,al
	mov	eax,edx
	add	eax,esi
	sub	esi,edi
	mov	ah,dl
	neg	al
	jmp	00402C77
	sub	edx,ecx
	mov	es,[eax]
	xchg	[esi+02],al
	stc	
	mov	dl,cl
	add	ebx,esi
	sub	cl,bl
	neg	ah
	xor	ecx,ebx
	add	ch,dh
	call	0040202D
	xchg	eax,ebp
	sahf	
	sbb	eax,899C41D9
	xor	al,24
	jmp	00402197
	and	eax,000001E9
	add	[edi+2BDF035E],cl
	clc	
	add	bl,cl
	inc	esi
	add	ebx,ecx
	sub	ebx,esi
	mov	bh,al
	jz	00402528
	xchg	ah,ah
	lea	dx,[edx]
	jnz	00402528
	jns	004021A9
	cmc	
	jnz	004021E7
	mov	esp,CE035685
	mov	esi,eax
	add	dl,cl
	or	al,ah
	mov	ah,dh
	mov	al,dl
	sub	edx,eax
	inc	esi
	call	00401E50
	out	dx,ax
	scasd	
	sbb	eax,2BF2033B
	lock	
	mov	esi,eax
	xor	esi,edi
	mov	esi,eax
	sub	eax,A1EA7B75
	inc	esi
	xor	esi,edi
	or	esi,ebx
	inc	esi
	jle	00402B68
	xchg	dl,dl
	jpo	004021FC
	jg	00402B68
	add	eax,3F9FD406
	mov	bl,cl
	sub	bh,bl
	or	bl,ah
	add	cl,dh
	or	esi,eax
	mov	ch,dh
	dec	esi
	add	ebx,esi
	xor	edi,esi
	jz	00401F8F
	xchg	dl,dl
	xchg	si,si
	jnz	00401F8F
	pop	ebx
	or	al,bh
	fsub	dword ptr [edx+E9240C89]
	add	[eax],al
	add	[eax],al
	push	edi
	pop	edi
	pop	ecx
	mov	cl,8D
	xor	dh,cl
	add	al,ch
	xor	ecx,ebx
	inc	eax
	jmp	0040289F
	sbb	bl,ah
	jc	004021EB
	repne	
	mov	esi,33C133D9
	ret	D8F6
	sub	eax,edx
	mov	al,1C
	add	esi,edx
	jbe	0040215A
	rep	
	ja	0040215A
	push	esp
	cmp	[eax],esi
	sar	byte ptr [esi+2C],01
	mov	bl,00
	mov	al,bl
	neg	dh
	xor	dl,cl
	dec	ebx
	xor	ebx,eax
	or	ebx,esi
	add	ah,ch
	mov	bh,dl
	jmp	00402174
	jl	0040220D
	or	bl,[edx+0C87438A]
	and	al,E9
	add	[eax],al
	add	[eax],al
	xchg	al,al
	pop	ecx
	mov	edx,edi
	or	esi,edi
	xor	al,dh
	inc	edi
	mov	bh,17
	jle	00402800
	push	esi
	pop	esi
	jg	00402800
	fadd	dword ptr [edi+FB03E0E1]
	sub	esi,edi
	dec	edi
	add	esi,edi
	or	esi,edi
	inc	edi
	jl	0040277A
	jbe	004022C2
	jge	0040277A
	pop	ecx
	dec	eax
	xchg	[edi+240487E3],dl
	jz	004022D2
	rep	
	pop	eax
	inc	edi
	call	eax
	xor	bl,bh
	or	ebx,eax
	inc	ecx
	call	0040272F
	cmp	[CF8A90E3],ecx
	or	ch,dl
	inc	edx
	or	al,dh
	or	eax,ecx
	mov	cl,0E
	sub	eax,ebx
	dec	ecx
	call	0040222F
	stosd	
	outsd	
	push	ebx
	illegal	
	fimul	word ptr [ebx+0B]
	ret	2A47
	out	2B,al
	mov	dword ptr [edx],0FF902FB
	sbb	byte ptr [edi+66000001],8B
	ror	[edi],cl
	adc	dword ptr [esi+63000001],4D7EFD50
	adc	[ebx],eax
	illegal	
	dec	byte ptr [ebx+2AFC0AF0]
	fimul	dword ptr [ebx+33]
	illegal	
	cli	
	or	esi,edi
	call	004024DC
	mov	edx,1CFFB09A
	mov	cl,dl
	mov	[esp-08],eax
	xor	ebx,edx
	mov	bl,ch
	sub	ebx,eax
	or	ch,dh
	mov	dh,74
	sub	bl,bh
	add	dh,ch
	jmp	00402760
	popa	
	or	eax,03998391
	fiadd	dword ptr [ecx+000030C2]
	add	[ebx],dh
	into	
	add	bl,dh
	or	cl,ah
	add	ch,dl
	add	esi,ecx
	inc	ebx
	jl	00402207
	xchg	ch,ch
	jge	00402207
	push	ecx
	inc	edx
	jcxz	0040233E
	movsd	
	or	al,[esi]
	mov	dword ptr [esi+2B],0AF732F3
	out	49,al
	add	ebx,edi
	call	00401FF1
	in	eax,FA
	imul	ebp,[F10BDA02],42F08A43
	xor	edx,esi
	add	edi,ecx
	sub	esi,edi
	sub	edx,eax
	jle	00402426
	mov	dl,dl
	jg	00402426
	scasd	
	push	F1
	aaa	
	pop	eax
	xor	edx,edi
	or	ah,bl
	neg	dl
	sub	al,dl
	inc	esi
	or	al,dh
	jpe	004021C4
	xchg	al,al
	jpo	004021C4
	dec	esp
	push	esi
	in	al,dx
	sar	dword ptr [edx-04],01
	xchg	eax,ebp
	adc	al,B4
	pop	ebx
	mov	ah,dh
	rol	cl,0C
	add	al,bl
	dec	esi
	sub	esi,eax
	call	00401EDA
	cwde	
	aaa	
	mov	[C332A899],al
	sub	ecx,esi
	dec	eax
	add	esi,ebx
	add	eax,edi
	add	ecx,esi
	sub	eax,ebx
	inc	eax
	xor	ch,al
	add	al,ch
	call	00402684
	pop	ebx
	das	
	add	dh,71
	sti	
	adc	eax,CC0AD9F6
	add	eax,edx
	or	dl,dh
	inc	ecx
	add	ecx,eax
	jl	004022E5
	mov	edx,edx
	mov	bl,bl
	jge	004022E5
	rol	byte ptr [ebp+4B2C0DF1],0B
	ror	dword ptr [ebx],01
	lock	
	inc	esi
	or	dh,bh
	sub	edi,ecx
	movzx	edx,al
	mov	edi,ebx
	xor	ebx,eax
	mov	bl,40
	jz	00402B01
	xchg	bl,bl
	jnz	00402B01
	and	al,bh
	stosb	
	push	eax
	retf	581F
	mov	[esp],edx
	mov	ebx,ebx
	repne	
	pop	edx
	or	esi,ebx
	or	esi,edi
	add	ebx,edi
	mov	bh,12
	mov	bl,40
	js	004026C8
	jl	00402467
	push	eax
	pop	eax
	jns	004026C8
	or	al,71
	cmp	esp,[esi+24048795]
	xchg	si,si
	pop	eax
	neg	ah
	inc	edi
	shr	ecx,0F
	mov	bh,A4
	jc	004020F8
	jpe	0040248B
	jnc	004020F8
	jns	00402492
	pop	edi
	mov	esi,F42A05A6
	sub	edi,eax
	mov	dh,A2
	or	cl,dh
	mov	dl,ah
	add	edx,eax
	add	edi,eax
	call	00402A06
	test	[ebx],edi
	cmp	byte ptr [ebp+D72B961A],4E
	sub	ebx,edi
	pop	eax
	add	dh,bh
	neg	bh
	mov	edi,esi
	jmp	00402395
	mov	edx,8DE7B361
	and	al,04
	neg	al
	mov	ah,ch
	sub	eax,edi
	xor	esi,ecx
	inc	edi
	call	004029AE
	leave	
	or	[edx+448FACC2],cl
	and	al,E4
	or	bh,bl
	xor	ebx,edi
	xor	bl,ch
	mov	eax,[eax]
	sub	bh,dh
	neg	bl
	neg	bh
	xor	esi,ebx
	jmp	004027C8
	add	eax,376A2B8C
	pop	dword ptr [ebp+2A042464]
	jmp	0040250D
	retf	CB8A
	sub	cl,dh
	sub	edx,ebx
	jmp	00402B93
	popa	
	push	ds
	or	eax,E00AF02B
	or	dh,bh
	sub	ebx,edx
	neg	al
	mov	bl,94
	call	00402474
	ficomp	dword ptr [edi-1F]
	mov	esp,03DC0A5E
	illegal	
	add	bh,dl
	dec	ebx
	inc	esi
	add	esi,eax
	mov	edi,esi
	xor	edi,esi
	sub	edi,edx
	mov	bl,3C
	call	004028D5
	movsb	
	mov	bh,8C
	lodsb	
	sub	al,AB
	pop	dword ptr [esp-30]
	add	ah,dl
	mov	ecx,edx
	add	eax,ecx
	dec	eax
	sub	cl,ah
	mov	ebx,eax
	mov	edi,edx
	xor	edx,ebx
	mov	ah,CF
	jmp	004029E9
	xchg	eax,esp
	jle	00402507
	add	eax,4CE0C0A4
	mov	ebx,edi
	sub	bh,ch
	or	esi,edi
	or	ebx,ecx
	mov	bl,dl
	dec	ebx
	sub	ebx,edi
	xor	bl,ch
	add	ebx,ecx
	jmp	004027E7
	cmp	edi,edi
	push	es
	xor	esi,eax
	and	eax,F74F2EE9
	rol	byte ptr [ebx],01
	fmul	dword ptr [edx]
	clc	
	xor	ebx,edx
	add	ebx,edi
	xor	esi,ecx
	add	bl,dh
	jmp	00402567
	pop	esi
	mov	[0A322B78],al
	loopne	004025A9
	dec	byte ptr [edx]
	loope	004025AC
	ror	dword ptr [ebx+02D333F9],01
	ror	dword ptr [edx+E8324AC8],0F
	sub	byte ptr [edx+03],00
	add	[esi+62810FDB],al
	add	eax,[eax]
	add	[ebx+D8DD8A2A],bl
	illegal	
	inc	esp
	and	al,D8
	inc	ebx
	dec	esi
	neg	ah
	xor	eax,edx
	mov	al,dl
	call	0040297E
	loop	004025C6
	sbb	bl,dh
	or	eax,E980D8F6
	illegal	
	xor	ah,ch
	sub	eax,edx
	or	ah,cl
	or	al,cl
	jmp	004026AC
	dec	esp
	xor	[ecx+16],eax
	sbb	[ebp-1A],ebp
	mov	cl,[edi]
	or	eax,esi
	dec	esi
	xor	eax,edi
	sub	al,ch
	or	al,bh
	add	esi,ebx
	mov	esi,eax
	xor	al,dh
	mov	eax,esi
	jmp	004025D8
	dec	ebx
	mov	esi,024670F0
	illegal	
	mov	ebx,eax
	sub	ebx,eax
	mov	ch,05
	dec	edx
	add	esi,edx
	xor	edi,ecx
	sub	ebx,eax
	dec	esi
	jmp	0040233B
	push	edx
	lea	eax,[ebp-28]
	test	[esi+4746DA33],dl
	neg	bl
	neg	bl
	mov	bl,33
	or	bh,cl
	jpe	00402AA8
	xchg	si,si
	jpo	00402AA8
	mov	edx,D6A1221C
	cmp	eax,8BDC8AC0
	fsubr	dword ptr [edx]
	fiadd	word ptr [edx]
	fsubr	dword ptr [ebx]
	illegal	
	mov	edi,ebx
	mov	bh,50
	mov	eax,ecx
	or	bl,dh
	call	00402821
	adc	ebp,edx
	pop	es
	pop	dword ptr [esi+CD0ACE33]
	xor	ch,al
	xor	edx,7AB4028B
	or	esi,edx
	or	ah,dl
	neg	al
	inc	esi
	xor	eax,edi
	jmp	004023E7
	sti	
	wait	
	or	al,[ecx+14897305]
	and	al,86
	leave	
	pop	edx
	or	esi,edx
	mov	ch,dl
	mov	ah,38
	mov	ch,dh
	xor	ah,dh
	mov	cl,D3
	jl	004025F1
	push	cx
	pop	cx
	jge	004025F1
	or	cl,cl
	mov	edi,2BC77F58
	ret	F033
	sub	esi,edx
	add	al,dh
	sub	ah,cl
	neg	ah
	inc	esi
	mov	ah,92
	jmp	00401F71
	cmp	ebp,edi
	sub	[ebx-56],ah
	clc	
	mov	[ebp-49],esp
	pop	ss
	mov	esi,edi
	or	esi,edx
	mov	edi,ebx
	mov	ebx,eax
	xor	bl,ch
	xor	eax,FFFFFEC8
	or	bl,dh
	inc	esi
	dec	esi
	jpe	00401F3E
	push	eax
	pop	eax
	jpo	00401F3E
	mov	ah,4C
	jle	004026FA
	mov	esp,E824448F
	pop	edx
	sub	bh,cl
	sub	edi,eax
	or	esi,ebx
	mov	bh,bl
	neg	bh
	neg	bh
	call	00402C33
	inc	edi
	test	byte ptr [ecx],65
	dec	dword ptr [ecx-27]
	pop	dword ptr [esp-24]
	add	ebx,edx
	mov	ah,bl
	add	ah,bh
	or	dh,ah
	sub	bh,cl
	add	ah,al
	xor	dh,ah
	or	eax,edi
	or	ch,bh
	call	00402545
	lock	
	dec	esp
	clc	
	retf	
	and	ecx,eax
	or	byte ptr [ebp+2A042464],EF
	xor	bh,al
	add	esi,edx
	neg	dh
	sub	dl,dh
	jmp	0040260A
	loopne	004026C8
	jmp	far 0EB0:4701
	sub	ah,al
	sub	esi,ecx
	sub	esi,edx
	neg	ah
	mov	esi,edx
	call	004024C5
	xchg	eax,esp
	dec	ebx
	pop	ss
	or	esp,edi
	aaa	
	push	esi
	xchg	eax,ebp
	neg	bh
	neg	bh
	sub	edx,edi
	xor	dl,al
	or	esi,ebx
	mov	ebx,eax
	sub	dl,ch
	jmp	0040259B
	cld	
	push	ecx
	int	EA
	mov	eax,[FB8B9BD3]
	xor	esi,edx
	add	eax,ebx
	mov	bh,11
	add	esi,ecx
	inc	edi
	call	0040244E
	mov	dl,[eax+03]
	sbb	dword ptr [edi],891DFE46
	sbb	al,24
	js	00402797
	pop	ebx
	or	bl,al
	xor	ebx,esi
	or	bl,dh
	mov	bh,ch
	xor	bl,ch
	call	004020A4
	clc	
	xor	[ebx+51CB4F8B],esp
	test	eax,0348C60B
	mov	byte ptr [eax+E53282C1],8B
	mov	dword ptr [ebx],F764E9F7
	illegal	
	sbb	[esi+ebx],eax
	add	al,8A
	or	al,0A
	fdecstp	st(6),st(0)
	fild	word ptr [ebx]
	fadd	dword ptr [edi+0A]
	clc	
	mov	bl,51
	neg	bl
	mov	bh,E9
	xor	bh,dl
	mov	esi,edi
	call	00402BEC
	stosd	
	lodsd	
	aam	CD
	out	dx,al
	in	al,dx
	dec	di
	or	eax,eax
	jnz	00402389
	inc	ebx
	sub	edi,eax
	xor	bl,ah
	jmp	00402648
	sub	ch,[ebx-34]
	mov	bh,bh
	illegal	
	inc	esi
	sub	bh,bl
	mov	bl,al
	dec	esi
	mov	ah,al
	sub	eax,ecx
	sub	dh,ch
	jo	004029D5
	xchg	dh,dh
	jno	004029D5
	illegal	
	pushf	
	or	esi,[esi-06]
	fmul	double ptr [edi+02F02444]
	fsubr	double ptr [ebx]
	fimul	word ptr [edi+33]
	fmul	dword ptr [esi-18]
	pusha	
	illegal	
	call	esi
	push	edx
	fiadd	word ptr [esi-71]
	inc	esp
	and	al,E0
	inc	ecx
	add	al,ah
	add	edi,edx
	xor	esi,eax
	add	ecx,edi
	mov	bh,F1
	call	00402711
	call	0040270D
	sub	[esi-4F],edi
	jg	004027DF
	rep	
	sub	bh,cl
	or	bl,dl
	add	ebx,edi
	dec	edi
	mov	bl,ah
	jc	0040204E
	rep	
	jmp	0040286A
	jnc	0040204E
	out	dx,ax
	xchg	eax,esp
	jle	00402864
	test	dword ptr [edx],8A241487
	in	eax,dx
	push	cx
	pop	cx
	pop	edx
	inc	esi
	mov	esi,ecx
	mov	ebx,eax
	inc	edi
	mov	cl,bh
	jle	00402359
	jmp	00402893
	jnc	00402895
	jg	00402359
	cld	
	inc	esp
	sbb	edi,[edx+eax+CB2A49F2]
	inc	edx
	neg	cl
	add	ebx,0000019B
	call	004024FB
	les	edx,[ecx]
	jnc	00402836
	imul	ebp,ecx,24348945
	lea	edi,[edi]
	xchg	cl,cl
	pop	esi
	mov	esi,ebx
	or	esi,ecx
	mov	dl,cl
	add	bl,ch
	mov	esi,ebx
	call	0040228A
	jle	00402871
	bound	ecx,[ecx+77]
	lea	esp,[esp+04]
	neg	bh
	xor	esi,edi
	add	edi,ecx
	lea	edx,[eax+000000F8]
	mov	bh,dh
	xor	bl,ah
	add	esi,edi
	sub	esi,ebx
	js	00402853
	jno	004028F5
	jns	00402853
	dec	eax
	push	edx
	shl	dword ptr [ebp-0C],01
	lea	esp,[esp+04]
	inc	esi
	dec	esi
	xor	bh,dh
	dec	esi
	mov	bh,6D
	xor	bh,bl
	xor	bh,cl
	sub	ebx,esi
	call	004026F0
	mov	edi,8A2E8E73
	dec	eax
	cmpsb	
	xor	[ebx],eax
	stc	
	mov	ah,ch
	inc	ecx
	xor	edx,eax
	mov	cl,dl
	pop	edi
	add	edx,ecx
	jle	00402406
	mov	al,al
	mov	ebx,ebx
	jg	00402406
	mov	[793214B1],al
	jnc	004028E4
	neg	bl
	neg	dl
	inc	eax
	or	al,ah
	or	edi,ecx
	neg	bh
	jc	004022FD
	rep	
	jnc	004022FD
	dec	ecx
	rcr	[esp+ecx*2],cl
	sbb	eax,8F71EEDF
	inc	esp
	and	al,DC
	xor	ah,cl
	sub	ah,dh
	sub	eax,ecx
	xor	esi,eax
	sub	esi,ebx
	mov	eax,esi
	jmp	00402A66
	inc	edi
	mov	edi,17207B5D
	bound	edx,[edi-79]
	cmp	al,24
	xchg	bl,bl
	pop	edi
	sub	esi,edi
	xor	al,ah
	add	al,ah
	call	00402961
	push	ss
	and	al,5C
	test	[esi+F18BF78E],bh
	or	ecx,esi
	or	ecx,edx
	sub	bh,ch
	or	bl,bh
	mov	ch,dh
	add	ebx,edi
	call	00402876
	dec	ebx
	sbb	al,03
	mov	[ebx-71],eax
	inc	esp
	and	al,F4
	inc	eax
	mov	al,dl
	sub	esi,ecx
	xor	al,cl
	or	ah,al
	mov	esi,edx
	add	al,dh
	jl	00401F5E
	jmp	004029CA
	jge	00401F5E
	push	edx
	wait	
	popa	
	jcxz	00402A38
	or	dh,ch
	add	esi,edx
	xor	edx,edi
	push	dword ptr [ecx]
	add	bl,ch
	dec	ebx
	jmp	00402941
	push	ebx
	dec	eax
	mov	ah,cl
	mov	bh,F9
	pop	ecx
	add	al,dh
	xor	dh,ah
	mov	ah,bl
	sub	al,dh
	jl	00402AC9
	rep	
	jge	00402AC9
	fidivr	word ptr cs:[ecx]
	pop	ds
	mov	ebp,D424448F
	mov	dl,ah
	push	00
	or	ebx,edi
	sub	edi,eax
	mov	edx,edi
	inc	edx
	neg	cl
	add	ecx,edi
	call	00402116
	loop	00402A47
	out	dx,ax
	and	dword ptr [esp+eax*8],32F12B24
	out	33,al
	mov	byte ptr [ebx+40E68AC7],2B
	repne	
	jl	00402131
	xchg	ah,ah
	jmp	00402A40
	outsd	
	jge	00402131
	or	esp,[edx+0257BFD2]
	fimul	dword ptr [edi-76]
	loope	00402A54
	shl	dword ptr [edx],EF
	sub	eax,ecx
	add	ch,dh
	add	esi,edx
	add	cl,dh
	jmp	00402AE5
	push	eax
	push	02D5A8A0
	mov	dword ptr [edx],46C32BE3
	dec	edx
	xor	eax,ebx
	neg	ah
	sub	al,ch
	jmp	00401FD8
	fld	tword ptr [0CB4FC3D]
	jo	00402A8B
	jmp	far 3348:F203
	imul	dword ptr [edx]
	out	03,al
	shr	dword ptr [ebx],D1
	sub	ebx,0000019B
	dec	edx
	jc	00401EFE
	repne	
	jnc	00401EFE
	sahf	
	cld	
	jl	00402B1A
	cwde	
	adc	eax,32D8327E
	fld	dword ptr [esi+2A]
	cld	
	sub	ebx,edi
	mov	ebx,eax
	xor	esi,ecx
	jc	00401EBF
	xchg	cl,cl
	jnc	00401EBF
	push	esi
	cmp	eax,6BDC52C5
	xor	dh,ah
	dec	esi
	xor	ebx,edx
	inc	eax
	xor	ah,ch
	mov	al,6C
	mov	edx,esi
	xor	ah,dh
	dec	edx
	jmp	00402382
	call	1E92C590
	or	[edi+0BC68BC4],al
	into	
	mov	dh,36
	neg	dh
	push	40
	xor	eax,edx
	xor	eax,edi
	neg	ch
	jmp	00401E9B
	illegal	
	daa	
	cmp	ah,al
	lahf	
	test	[edx+F6F78BF9],cl
	illegal	
	fdecstp	st(6),st(0)
	fbstp	tword ptr [edx]
	illegal	
	clc	
	dec	esi
	jpe	00402B46
	jmp	00402B17
	jpo	00402B46
	lds	ebx,gs:[ecx]
	out	E0,al
	wait	
	lea	esp,ds:[esp+04]
	mov	esi,eax
	xor	edx,ebx
	push	ebx
	xor	esi,edx
	sub	cl,ch
	or	cl,bl
	dec	eax
	add	edx,ecx
	jbe	00402A80
	lea	esi,[esi]
	ja	00402A80
	in	eax,dx
	arpl	cx,bx
	pop	esi
	aam	8F
	movzx	ebx,ah
	add	esi,edi
	inc	edi
	add	edi,eax
	add	edi,ebx
	shr	eax,10
	sub	edi,ecx
	dec	edi
	jl	00402CB5
	push	esi
	pop	esi
	jge	00402CB5
	cmp	eax,8B7643E1
	rep	
	add	esi,edi
	cmp	eax,5E15848B
	jnz	004023F0
	add	edx,ecx
	xor	bh,bl
	sub	dh,ch
	jl	0040226E
	jnc	00402B86
	mov	ah,ah
	jge	0040226E
	jnz	00402BEE
	mov	eax,D3026361
	dec	ecx
	xor	dh,ah
	add	ah,ch
	neg	ch
	add	eax,edx
	sub	al,ch
	call	00402B20
	mov	ch,64
	out	2C,al
	aam	7F
	mov	ch,bh
	push	00003000
	add	ah,bh
	dec	esi
	xor	dh,bh
	mov	dl,A8
	add	esi,edi
	or	ecx,eax
	add	edi,esi
	call	00402012
	inc	ecx
	sub	al,ch
	stosd	
	sub	al,B7
	mov	cl,B3
	mov	ch,0A
	std	
	sub	bh,ch
	mov	bl,dl
	mov	edi,edx
	sub	bl,dl
	sub	ebx,esi
	push	dword ptr [eax+10]
	mov	bh,E3
	call	004020DD
	insd	
	pop	ecx
	test	eax,A3BD93EB
	xor	al,8F
	inc	esp
	and	al,F4
	mov	ebx,edi
	or	bl,ch
	add	eax,ecx
	mov	ebx,edi
	xor	bl,bh
	dec	ebx
	xor	bh,ch
	js	00402C9B
	push	si
	pop	si
	jns	00402C9B
	sub	al,[edi+32CE866F]
	out	8A,al
	out	03,al
	illegal	
	dec	eax
	add	ah,dl
	mov	ah,09
	jle	004023D1
	repne	
	repne	
	jg	004023D1
	pop	es
	pop	ebx
	pop	eax
	cmp	[ecx],bl
	mov	al,[241489E7]
	repne	
	repne	
	pop	edx
	sub	edi,ecx
	or	bh,dl
	add	bl,dl
	sub	esi,eax
	jl	00402080
	push	si
	pop	si
	jge	00402080
	sbb	[esi+AF07BE2A],ebx
	xchg	[esp],ecx
	xchg	ch,ch
	lea	eax,[eax]
	pop	ecx
	or	esi,edi
	mov	cl,bh
	inc	esi
	mov	ah,9E
	add	ecx,edx
	mov	ecx,edi
	or	cl,dl
	jmp	00402664
	outsb	
	loop	00402CD4
	mov	ebp,F70391D7
	xor	al,dh
	or	esi,ebx
	xor	ah,ch
	mov	esi,eax
	neg	al
	dec	eax
	xor	al,bl
	jz	00401E72
	repne	
	jnz	00401E72
	hlt	
	sub	eax,388D224F
	mov	cl,F5
	mov	bh,3C
	sub	bl,bh
	sub	bh,cl
	xor	bh,bl
	inc	ebx
	or	ebx,ecx
	mov	bh,al
	jmp	00402BCA
	mov	ch,dh
	aas	
	test	[edx],ebx
	push	cs
	xchg	[eax+F10BF38B],eax
	or	edi,ecx
	or	edi,edx
	add	esi,ebx
	add	eax,edx
	xor	esi,ecx
	js	004022B0
	lea	dx,[edx]
	repne	
	jns	004022B0
	dec	eax
	illegal	
	xchg	eax,ebx
	jpo	00402D3F
	add	[eax],al
	add	[eax],al
	add	[eax],al
	add	[eax],al
	add	[eax],al
	add	[eax],al
	add	[eax],al
	add	[eax],al
	add	[eax],al
	add	[eax],al
	add	[eax],al
	add	[eax],al
	add	[eax],al
	add	[eax],al
	add	[eax],al
	add	[eax],al
	add	[eax],al
	add	[eax],al
	add	[eax],al
	add	[eax],al
	add	[eax],al
	add	[eax],al
	add	[eax],al
	add	[eax],al
	add	[eax],al
	add	[eax],al
	add	[eax],al
	add	[eax],al
	add	[eax],al
	add	[eax],al
	add	[eax],al
	add	[eax],al
	add	[eax],al
	add	[eax],al
	add	[eax],al
	add	[eax],al
	add	[eax],al
	add	[eax],al
	add	[eax],al
	add	[eax],al
	add	[eax],al
	add	[eax],al
	add	[eax],al
	add	[eax],al
	add	[eax],al
	add	[eax],al
	add	[eax],al
	add	[eax],al
	add	[eax],al
	add	[eax],al
	add	[eax],al
	add	[eax],al
	add	[eax],al
	add	[eax],al
	add	[eax],al
	add	[eax],al
	add	[eax],al
	add	[eax],al
	add	[eax],al
	add	[eax],al
	add	[eax],al
	add	[eax],al
	add	[eax],al
	add	[eax],al
	add	[eax],al
	add	[eax],al
	add	[eax],al
	add	[eax],al
	add	[eax],al
	add	[eax],al
	add	[eax],al
	add	[eax],al
	add	[eax],al
	add	[eax],al
	add	[eax],al
	add	[eax],al
	add	[eax],al
	add	[eax],al
	add	[eax],al
	add	[eax],al
	add	[eax],al
	add	[eax],al
	add	[eax],al
	add	[eax],al
	add	[eax],al
	add	[eax],al
	add	[eax],al
	add	[eax],al
	add	[eax],al
	add	[eax],al
	add	[eax],al
	add	[eax],al
	add	[eax],al
	add	[eax],al
	add	[eax],al
	add	[eax],al
	add	[eax],al
	add	[eax],al
	add	[eax],al
	add	[eax],al
	add	[eax],al
	add	[eax],al
	add	[eax],al
	add	[eax],al
	add	[eax],al
	add	[eax],al
	add	[eax],al
	add	[eax],al
	add	[eax],al
	add	[eax],al
	add	[eax],al
	add	[eax],al
	add	[eax],al
	add	[eax],al
	add	[eax],al
	add	[eax],al
	add	[eax],al
	add	[eax],al
	add	[eax],al
	add	[eax],al
	add	[eax],al
	add	[eax],al
	add	[eax],al
	add	[eax],al
	add	[eax],al
	add	[eax],al
	add	[eax],al
	add	[eax],al
	add	[eax],al
	add	[eax],al
	add	[eax],al
	add	[eax],al
	add	[eax],al
	add	[eax],al
	add	[eax],al
	add	[eax],al
	add	[eax],al
	add	[eax],al
	add	[eax],al
	add	[eax],al
	add	[eax],al
	add	[eax],al
	add	[eax],al
	add	[eax],al
	add	[eax],al
	add	[eax],al
	add	[eax],al
	add	[eax],al
	add	[eax],al
	add	[eax],al
	add	[eax],al
	add	[eax],al
	add	[eax],al
	add	[eax],al
	add	[eax],al
	add	[eax],al
	add	[eax],al
	add	[eax],al
	add	[eax],al
	add	[eax],al
	add	[eax],al
	add	[eax],al
	add	[eax],al
	add	[eax],al
	add	[eax],al
	add	[eax],al
	add	[eax],al
	add	[eax],al
	add	[eax],al
	add	[eax],al
	add	[eax],al
	add	[eax],al
	add	[eax],al
	add	[eax],al
	add	[eax],al
	add	[eax],al
	add	[eax],al
	add	[eax],al
	add	[eax],al
	add	[eax],al
	add	[eax],al
	add	[eax],al
	add	[eax],al
	add	[eax],al
	add	[eax],al
	add	[eax],al
	add	[eax],al
	add	[eax],al
	add	[eax],al
	add	[eax],al
	add	[eax],al
	add	[eax],al
	add	[eax],al
	add	[eax],al
	add	[eax],al
	add	[eax],al
	add	[eax],al
	add	[eax],al
	add	[eax],al
	add	[eax],al
	add	[eax],al
	add	[eax],al
	add	[eax],al
	add	[eax],al
	add	[eax],al
	add	[eax],al
	add	[eax],al
	add	[eax],al
	add	[eax],al
	add	[eax],al
	add	[eax],al
	add	[eax],al
	add	[eax],al
	add	[eax],al
	add	[eax],al
	add	[eax],al
	add	[eax],al
	add	[eax],al
	add	[eax],al
	add	[eax],al
	add	[eax],al
	add	[eax],al
	add	[eax],al
	add	[eax],al
	add	[eax],al
	add	[eax],al
	add	[eax],al
	add	[eax],al
	add	[eax],al
	add	[eax],al
	add	[eax],al
	add	[eax],al
	add	[eax],al
	add	[eax],al
	add	[eax],al
	add	[eax],al
	add	[eax],al
	add	[eax],al
	add	[eax],al
	add	[eax],al
	add	[eax],al
	add	[eax],al
	add	[eax],al
	add	[eax],al
	add	[eax],al
	add	[eax],al
	add	[eax],al
	add	[eax],al
	add	[eax],al
	add	[eax],al
	add	[eax],al
	add	[eax],al
	add	[eax],al
	add	[eax],al
	add	[eax],al
	add	[eax],al
	add	[eax],al
	add	[eax],al
	add	[eax],al
	add	[eax],al
	add	[eax],al
	add	[eax],al
	add	[eax],al
	add	[eax],al
	add	[eax],al
	add	[eax],al
	add	[eax],al
	add	[eax],al
	add	[eax],al
	add	[eax],al
	add	[eax],al
	add	[eax],al
	add	[eax],al
	add	[eax],al
	add	[eax],al
	add	[eax],al
	add	[eax],al
	add	[eax],al
	add	[eax],al
	add	[eax],al
	add	[eax],al
	add	[eax],al
	add	[eax],al
	add	[eax],al
	add	[eax],al
	add	[eax],al
	add	[eax],al
	add	[eax],al
	add	[eax],al
	add	[eax],al
	add	[eax],al
	add	[eax],al
	add	[eax],al
	add	[eax],al
	add	[eax],al
	add	[eax],al
	add	[eax],al
	add	[eax],al
	add	[eax],al
	add	[eax],al
	add	[eax],al
	add	[eax],al
	add	[eax],al
	add	[eax],al
	add	[eax],al
	add	[eax],al
	add	[eax],al
	add	[eax],al
	add	[eax],al
	add	[eax],al
	add	[eax],al
	add	[eax],al
	add	[eax],al
	add	[eax],al
	add	[eax],al
	add	[eax],al
	add	[eax],al
	add	[eax],al
	add	[eax],al
	add	[eax],al
	add	[eax],al
	add	[eax],al
	add	[eax],al
	add	[eax],al
	add	[eax],al
	add	[eax],al
	add	[eax],al
	add	[eax],al
	add	[eax],al
	add	[eax],al
	add	[eax],al
	add	[eax],al
	add	[eax],al
	add	[eax],al
	add	[eax],al
	add	[eax],al
	add	[eax],al
	add	[eax],al
	add	[eax],al
	add	[eax],al
	add	[eax],al
	add	[eax],al
	add	[eax],al
	add	[eax],al
	add	[eax],al
	add	[eax],al
	add	[eax],al
	add	[eax],al
	add	[eax],al
	add	[eax],al
	add	[eax],al
	add	[eax],al
	add	[eax],al
	add	[eax],al
	add	[eax],al
	add	[eax],al
	add	[eax],al
	add	[eax],al
	add	[eax],al
	add	[eax],al
	add	[eax],al
	add	[eax],al
	add	[eax],al
	add	[eax],al
	add	[eax],al
	add	[eax],al
	add	[eax],al
	add	[eax],al
	add	[eax],al
	add	[eax],al
	add	[eax],al
	add	[eax],al
	add	[eax],al
	add	[eax],al
	add	[eax],al
	add	[eax],al
	add	[eax],al
	add	[eax],al
	add	[eax],al
	add	[eax],al
	add	[eax],al
	add	[eax],al
	add	[eax],al
	add	[eax],al
	add	[eax],al
	add	[eax],al
	add	[eax],al
	add	[eax],al
	add	[eax],al
	add	[eax],al
	add	[eax],al
	add	[eax],al
	add	[eax],al
	add	[eax],al
	add	[eax],al
	add	[eax],al
	add	[eax],al
	add	[eax],al
	add	[eax],al
	add	[eax],al
	add	[eax],al
	add	[eax],al
	add	[eax],al
	add	[edx+04B75C7C],cl
00403000 8A 7C 5C B7 04 00 00 E4 C7 58 00 74 CE 53 CE B1 .|\......X.t.S..
00403010 F0 F6 DA D6 F0 D7 9E 4C 3B 08 70 00 2D B7 08 13 .......L;.p.-...
00403020 D8 40 00 00 00 24 E3 01 00 B8 00 8C 00 00 76 02 .@...$........v.
00403030 F0 B8 00 74 00 00 10 6F C5 D2 D7 C8 00 CF B6 01 ...t...o........
00403040 FF 6B 4B FF 25 46 15 00 92 DC 83 CF 00 E5 02 00 .kK.%F..........
00403050 89 CA F2 FE 3E 45 E5 87 6F BF 2D E2 6B 80 00 00 ....>E..o.-.k...
00403060 12 FF AF 26 5B 00 2A 1E 36 33 FF DA D4 9C 15 97 ...&[.*.63......
00403070 0E FF 2E 00 39 E4 C4 2A 0D 90 8C EE 1D 00 30 04 ....9..*......0.
00403080 16 82 89 32 07 00 23 B3 6D 00 00 8B 7C 4A 2A 00 ...2..#.m...|J*.
00403090 44 DE 20 74 D5 E9 00 20 03 DE 5C 00 DE 9F 7F 48 D. t... ..\....H
004030A0 FF FF 00 8D 3C 67 7A 95 04 06 6A A9 C3 2D 4C 3E ....<gz...j..-L>
004030B0 59 FF DE D9 FF 00 FF 14 58 02 F1 CC 00 60 E1 C1 Y.......X....`..
004030C0 FD BE 08 00 FF 00 81 C8 C7 FF E3 00 E0 1F B7 FE ................
004030D0 05 0E 61 9F 80 4F F2 99 00 00 CE B6 30 F6 00 67 ..a..O......0..g
004030E0 A7 DB 0A 9B 00 08 49 C1 14 B6 00 39 D4 C0 6F 14 ......I....9..o.
004030F0 B8 07 FF 00 B3 EB B9 FF 0F 08 11 38 B4 16 00 54 ...........8...T
00403100 BA 80 18 68 00 9E 7A 9D 00 23 58 36 36 1D 76 26 ...h..z..#X66.v&
00403110 75 39 00 0F 61 3D FF 06 38 05 F5 38 0E FE 83 BA u9..a=..8..8....
00403120 00 36 46 ED 46 45 7D 6C 00 2B 4D 00 C1 00 FD 0D .6F.FE}l.+M.....
00403130 00 82 00 FF 9C EB 56 00 D8 6A 00 97 B9 20 00 A3 ......V..j... ..
00403140 00 E6 BE 00 F5 01 53 02 00 FF 78 C7 E6 52 4E D2 ......S...x..RN.
00403150 ED B0 A4 F1 98 E4 B8 00 9A BA A1 FF 00 00 4F C0 ..............O.
00403160 48 18 69 F6 AC 70 96 B7 80 D0 C9 E5 00 EF 00 FF H.i..p..........
00403170 27 62 FF 5B 05 F4 D3 80 F6 00 D1 D1 00 10 C3 FF 'b.[............
00403180 AF 2B 1B 98 00 7A 7F 0C 00 3E D0 14 18 3A D1 DA .+...z...>...:..
00403190 3A 85 E5 00 FB 6A 50 29 5F 4B 52 D9 1B FB C0 F7 :....jP)_KR.....
004031A0 FF 60 00 92 18 5A 35 BE E0 00 2F CE 34 E8 FF 79 .`...Z5.../.4..y
004031B0 14 70 1C C3 3B FC 82 6F D8 AA 53 FF 00 92 64 80 .p..;..o..S...d.
004031C0 00 A3 1C 19 CF 1E 47 51 09 9D AA 41 AB B0 52 14 ......GQ...A..R.
004031D0 82 5C A7 FF 67 03 0B 6A 00 A6 BA 00 80 00 FB 0E .\..g..j........
004031E0 21 90 9A CC 84 78 79 0D 41 17 03 82 08 C0 02 B6 !....xy.A.......
004031F0 FF 8E 9E A0 A6 63 00 00 89 00 1A 36 8B 68 D6 03 .....c.....6.h..
00403200 01 C2 44 43 74 80 E2 B2 72 61 EC 00 A6 0A BE 02 ..DCt...ra......
00403210 6D 82 24 B7 8C 3E BF 14 E0 41 65 88 C5 F3 C3 26 m.$..>...Ae....&
00403220 F0 17 FF 11 02 9C E8 2F FF 7D AB 0C FC 81 00 06 ......./.}......
00403230 D7 63 AD 1A B8 10 55 94 B9 9C 17 56 36 B7 E1 B8 .c....U....V6...
00403240 DE 00 7F 34 A8 68 02 D8 78 3D 00 FF A3 37 23 00 ...4.h..x=...7#.
00403250 0A E0 00 00 00 1E 00 4A 00 FE 00 F7 5C E3 90 92 .......J....\...
00403260 88 AC AE 93 BD 24 93 65 4E 1D 6E F7 89 FD DD 8D .....$.eN.n.....
00403270 00 62 D5 96 77 FF BF F3 B9 00 70 DD 84 1A E3 D7 .b..w.....p.....
00403280 42 00 8E B6 1F 89 00 BD F7 80 E4 16 0A E8 32 BD B.............2.
00403290 00 21 F7 00 ED 30 68 00 00 C7 2C D0 0C 00 F2 00 .!...0h...,.....
004032A0 F0 38 04 0B 4E E2 8F 00 6D 55 C9 2A 8E 3C 19 71 .8..N...mU.*.<.q
004032B0 39 84 CC 54 89 D8 00 82 13 A0 48 31 C4 0E 7B FF 9..T......H1..{.
004032C0 00 63 15 77 00 1D 29 87 37 30 E4 29 64 14 49 0C .c.w..).70.)d.I.
004032D0 BA 2A 36 10 00 4B 12 52 00 4E 94 FF 2C 00 04 E1 .*6..K.R.N..,...
004032E0 7D 00 FF 07 CD 86 00 C8 1C 27 00 2B 23 F8 42 90 }........'.+#.B.
004032F0 3A B0 1B E0 78 1D C0 2A E2 FF D9 D0 FE CF 00 CB :...x..*........
00403300 02 EB F6 A9 03 63 38 1E 2C 16 18 C4 66 00 61 07 .....c8.,...f.a.
00403310 72 B3 61 F5 76 A2 01 F4 C0 20 FF F3 2F 93 F0 F1 r.a.v.... ../...
00403320 00 00 47 72 E2 00 FF 04 2E 8A 05 FF 80 00 00 25 ..Gr...........%
00403330 10 00 BC 00 77 0A A9 36 01 58 00 00 1C AE 3C 29 ....w..6.X....<)
00403340 0E 05 E7 4D B8 C7 F3 E6 25 B2 23 D5 CF 0C 65 CF ...M....%.#...e.
00403350 93 71 2D 33 00 76 2A CE 01 A7 FF B7 60 E2 1D FF .q-3.v*.....`...
00403360 00 00 56 CD D1 70 00 6B 20 D1 32 13 AF CD 90 E0 ..V..p.k .2.....
00403370 BC 41 00 F8 CE B3 E7 20 48 7E 9C 97 00 E1 A5 78 .A..... H~.....x
00403380 8E E3 36 59 41 19 00 3C 29 9F DA 3A BE 8D ED 55 ..6YA..<)..:...U
00403390 FF 94 C6 39 6F EE 00 2A 1F 22 4D 8F 3E D5 37 06 ...9o..*."M.>.7.
004033A0 70 64 9A B1 00 EF 00 42 5D 2E 3B B0 1B 89 C2 D4 pd.....B].;.....
004033B0 71 DF 59 58 11 DD 4E B7 85 00 00 46 C9 E3 E7 EF q.YX..N....F....
004033C0 FF D1 00 17 A5 85 E4 1B BD 5F 32 9E B6 4F 74 A2 ........._2..Ot.
004033D0 24 50 1A 9B 6B 00 0E FD 18 1A 51 00 AB 73 C0 4E $P..k.....Q..s.N
004033E0 E6 12 02 0D 29 B2 86 00 D2 38 82 45 73 00 62 FF ....)....8.Es.b.
004033F0 5B 00 FF A7 5F 00 FF 3D A4 EA 37 00 00 00 6D 23 [..._..=..7...m#
00403400 1F 26 C2 BF B4 00 02 00 07 70 9C D0 EA 00 00 09 .&.......p......
00403410 D8 4A 00 04 E2 01 C2 00 21 8F 08 59 5E 00 0D EF .J......!..Y^...
00403420 1D 70 97 A7 18 00 BA 72 C0 DD DC 8F 27 A0 00 0D .p.....r....'...
00403430 00 FE 70 FF 40 23 C8 F0 A7 85 FB 58 3D DB 00 16 ..p.@#.....X=...
00403440 8C 90 85 00 E2 FF 3F FF BB FE 6A B3 00 20 B8 B4 ......?...j.. ..
00403450 7D A2 1D 69 93 00 00 AB 46 00 20 A5 9F 9B 4E 42 }..i....F. ...NB
00403460 00 9A 00 24 E3 D3 6B F7 FF 2C 85 81 17 4C 71 BF ...$..k..,...Lq.
00403470 18 83 DC 36 21 EC C4 F8 09 13 7D C0 CA 31 25 B4 ...6!.....}..1%.
00403480 CD 9F 0D 35 AE 4F FD C2 90 16 E2 45 04 DA BB 8F ...5.O.....E....
00403490 52 6F B2 1E 11 2B 1F DB 0F 01 10 08 4F 39 08 7B Ro...+......O9.{
004034A0 00 4A 8E C9 B8 CF FD 6B 15 40 FE 39 6A 09 25 91 .J.....k.@.9j.%.
004034B0 68 E1 6B B3 E7 FF AE 22 1A E0 A1 5B 00 E1 D5 18 h.k...."...[....
004034C0 21 C1 47 CA 12 97 8A 1B 71 06 E2 E5 E0 3E 6A 00 !.G.....q....>j.
004034D0 1C 67 8F 17 D9 63 77 7C 75 FF F9 7A 68 A0 D0 5C .g...cw|u..zh..\
004034E0 31 D9 92 61 00 2F 91 58 1B E7 6B 47 C6 00 E6 62 1..a./.X..kG...b
004034F0 0F 70 D7 02 C3 39 00 08 5E 56 32 E5 7F 66 D8 90 .p...9..^V2..f..
00403500 FE 5A 19 D9 EA C9 60 B4 FE A8 78 4C 77 63 18 06 .Z....`...xLwc..
00403510 A9 D2 00 8F EB C5 3E B9 12 F3 08 FF 11 35 00 00 ......>......5..
00403520 37 04 F7 14 00 37 33 76 8F 88 46 C5 00 00 4E CA 7....73v..F...N.
00403530 FF 80 CD 78 F9 0C 78 D4 40 73 80 00 F5 C8 73 E7 ...x..x.@s....s.
00403540 7C 9A 02 D1 4F 0C 81 92 39 E2 6E 7E C7 A9 F5 2A |...O...9.n~...*
00403550 AC 89 00 E3 18 72 DE 70 90 65 53 F0 A6 5F B5 E9 .....r.p.eS.._..
00403560 24 9C E2 61 F8 5C 2F 77 4C 32 57 20 8E 21 13 CF $..a.\/wL2W .!..
00403570 FF A9 CC 5D C3 84 08 62 2E 00 21 C4 3C A6 00 35 ...]...b..!.<..5
00403580 3A F9 55 0F F4 FF 8D EA 00 FF 61 D9 D9 DE 1D 89 :.U.......a.....
00403590 17 00 27 DE 04 F9 C3 29 FE 2C 01 26 9F 93 C2 18 ..'....).,.&....
004035A0 CD 25 C2 00 98 2A C9 5E D2 00 78 89 00 6C 0C 89 .%...*.^..x..l..
004035B0 8E FB 4C 7F 12 2D 39 02 3B 16 F1 79 EB 04 D8 AC ..L..-9.;..y....
004035C0 D7 EC BB D6 12 26 D9 00 4A F9 6D 7C 80 00 A2 0A .....&..J.m|....
004035D0 80 80 0B 34 08 69 06 C7 68 42 73 E8 FF 50 E0 48 ...4.i..hBs..P.H
004035E0 E6 79 28 46 4D DB 05 7E DD F6 D2 73 39 00 D1 B8 .y(FM..~...s9...
004035F0 34 C3 C4 FF D3 70 F0 FF 20 DB 38 1A A6 FB 16 8C 4....p.. .8.....
00403600 B7 FF 6C CE BE 0A 00 00 0E 13 0A EC 03 00 B7 4C ..l............L
00403610 4A 40 45 44 30 20 6A 6B 4E 31 47 32 46 B7 E9 47 J@ED0 jkN1G2F..G
00403620 0D 37 C1 FF 3D 00 C3 03 DF 4C 37 4C E9 20 FA E5 .7..=....L7L. ..
00403630 72 1B C6 61 00 69 34 C2 A5 04 28 23 00 66 A1 F5 r..a.i4...(#.f..
00403640 28 54 8D 91 C8 6F E2 03 EB C3 00 D2 14 9E 9F 00 (T...o..........
00403650 5A E4 D1 FF D3 72 E5 49 21 27 26 C5 FE 56 14 00 Z....r.I!'&..V..
00403660 29 C3 71 01 C7 22 FF FD A4 01 00 20 1E AA 6A 20 ).q.."..... ..j 
00403670 43 44 3D 97 00 9D B1 63 CA C3 C4 06 47 BD 00 5F CD=....c....G.._
00403680 F3 A8 5F CF 8F C2 38 EF FF 9C 6C BB FF 3F 04 0B .._...8...l..?..
00403690 E1 71 D4 BF E2 E6 8F 5E 1C D2 33 00 00 F1 DF B0 .q.....^..3.....
004036A0 00 13 42 48 E3 17 09 E1 1B 00 89 8A E7 57 FF B8 ..BH.........W..
004036B0 09 86 FE 71 98 93 F6 FF 00 2D 08 38 38 EF A6 4A ...q.....-.88..J
004036C0 86 79 26 00 41 95 00 FA 23 00 DB 02 FF 00 55 E8 .y&.A...#.....U.
004036D0 1F C4 91 5B FF 83 4B 57 AC E6 83 F0 0E D8 8F 68 ...[..KW.......h
004036E0 4F FF A8 49 2B DB 79 30 EA 80 8D 00 81 ED AA 58 O..I+.y0.......X
004036F0 FF 83 B4 A2 D4 07 F3 BD B5 00 00 95 85 4F C5 0E .............O..
00403700 D5 31 7D EA CC DB 39 89 00 1F A1 31 31 04 72 D0 .1}...9....11.r.
00403710 F0 00 F3 20 5D 77 0C A1 66 F7 B6 70 04 D3 F2 78 ... ]w..f..p...x
00403720 34 F9 68 5F 46 8C 0E 83 1A 39 00 05 83 94 D6 E2 4.h_F....9......
00403730 F1 A1 11 68 00 26 1D EF 8E 68 78 C5 00 04 1C 20 ...h.&...hx.... 
00403740 BC 10 2E 10 61 FF 57 10 1E 1D B1 04 7F CA 9A 8D ....a.W.........
00403750 30 00 5F C0 CD 50 00 64 C0 77 F5 C7 91 10 ED 04 0._..P.d.w......
00403760 6E 06 7E 57 DC DD 08 01 C9 C7 02 A0 94 B8 83 85 n.~W............
00403770 80 12 00 B3 C5 7D C1 BB 7D 11 79 02 E9 7D E0 00 .....}..}.y..}..
00403780 6F 47 9C 25 F6 EA 67 1C 0C 5B 98 05 B1 01 95 2E oG.%..g..[......
00403790 70 B4 5F 38 39 2F FD 66 28 00 31 40 BC C4 72 00 p._89/.f(.1@..r.
004037A0 E8 28 D6 20 3B BB 52 F8 84 2D 00 00 00 71 07 7A .(. ;.R..-...q.z
004037B0 BA E7 98 C6 00 00 2D FF 4C 2C A1 F5 4A 84 F0 45 ......-.L,..J..E
004037C0 00 7C 5E F0 8E 74 5D E6 FF 69 48 07 D8 F2 F4 B6 .|^..t]..iH.....
004037D0 B1 D7 FF 9C B7 FF 1F 94 00 07 FB E8 69 E3 71 E0 ............i.q.
004037E0 00 80 10 D8 FC FF 6B 05 99 95 00 00 C8 EF 50 45 ......k.......PE
004037F0 03 9D 67 E5 F9 39 BA 19 55 8C DA 6D 12 4D F4 DF ..g..9..U..m.M..
00403800 5F 63 FF 13 AA 86 8A 12 50 3D B4 A1 60 58 47 C0 _c......P=..`XG.
00403810 00 A2 3D FF 42 DF 00 DF 3A 52 0F 00 FF 91 00 19 ..=.B...:R......
00403820 FF 30 FF 3F 40 94 2F 0C FF 44 09 C0 40 F5 FF C5 .0.?@./..D..@...
00403830 0B 3F E8 51 15 53 00 C9 D3 00 64 A0 78 DA 4F FF .?.Q.S....d.x.O.
00403840 08 71 C6 E1 EB 0F D8 78 FF C7 E4 18 80 55 5A 00 .q.....x.....UZ.
00403850 D2 00 AB 16 76 AD 7F 00 7A 9F F6 27 EC 54 00 6E ....v...z..'.T.n
00403860 B5 87 20 5C 5C 72 17 08 E3 1B 70 51 FF E3 C8 8F .. \\r....pQ....
00403870 00 00 0E E0 CF D4 C8 64 30 07 75 00 8C 3B 67 00 .......d0.u..;g.
00403880 AE 00 C8 CF 62 72 DF 5A 01 6A 57 45 95 6C 42 FE ....br.Z.jWE.lB.
00403890 00 7C 14 02 C9 FF 6F CE FB 26 74 28 00 25 B8 00 .|....o..&t(.%..
004038A0 EC 90 53 04 FF FF AE CA A7 00 57 E9 27 B5 97 C1 ..S.......W.'...
004038B0 71 65 A1 CA C5 80 08 40 38 DF 68 E6 71 15 87 AA qe.....@8.h.q...
004038C0 AB 00 00 2F 66 9D CB 30 31 21 FF D4 8D 58 FE 89 .../f..01!...X..
004038D0 C8 E2 B6 26 5D 02 7C FA A4 C0 AC DC 91 F3 00 00 ...&].|.........
004038E0 EB 8B C9 00 79 8D FF 80 D8 00 05 C9 C4 EB 87 E8 ....y...........
004038F0 94 F4 0C B7 0E 00 8F FF E3 12 C8 6C FF 5F 3E 43 ...........l._>C
00403900 58 00 95 1E 8C EC FF 00 2C B7 10 EF BE 10 06 75 X.......,......u
00403910 2E 12 66 D1 AC 82 DF E6 22 00 9F FB 76 00 0A 00 ..f....."...v...
00403920 93 0A EC 17 56 4A D7 FC B1 A7 9F F4 DD 74 2E 45 ....VJ.......t.E
00403930 8E 5F 77 EF 9C AE 50 3C 93 52 B3 A3 D6 00 00 49 ._w...P<.R.....I
00403940 69 65 08 FE B4 00 50 2D 00 7B FF 00 93 89 31 DB ie....P-.{....1.
00403950 D8 B9 FF 33 21 C5 FF BE F2 1D FF 96 07 05 28 CE ...3!.........(.
00403960 5C F5 00 9F 6F 1F 71 FF 63 00 06 64 BF 21 CD 43 \...o.q.c..d.!.C
00403970 20 61 B4 86 35 30 4C 80 4A 84 0A BA 18 44 CB 8D  a..50L.J....D..
00403980 54 B1 BA 49 B1 EB 08 06 00 CB 19 03 4D A0 5E 73 T..I........M.^s
00403990 81 7C 54 05 00 BB 70 83 00 92 A5 E2 12 E1 00 EA .|T...p.........
004039A0 BE 40 C9 40 21 1F 00 4A 02 90 88 68 78 00 D9 DF .@.@!..J...hx...
004039B0 A3 FB 3B 00 84 0A E5 C8 08 E1 5E C0 FF 00 C9 CE ..;.......^.....
004039C0 F4 C7 04 65 FF 9A 38 0A FF 00 EF DF 31 B0 5F 9E ...e..8.....1._.
004039D0 0E 00 E7 00 A3 23 EC 00 7B 2C 44 00 6F E2 18 00 .....#..{,D.o...
004039E0 20 88 5B 4C 43 48 70 FF 09 00 E7 46 0B 03 6C F9  .[LCHp....F..l.
004039F0 D5 B3 6B 11 B8 B7 FC 00 42 8A 7D 00 00 F6 6E 00 ..k.....B.}...n.
00403A00 00 29 C3 F8 62 C1 1D 00 77 58 66 00 FF 00 FF 11 .)..b...wXf.....
00403A10 C5 47 65 5A A1 D4 5D CA BA E9 B2 A5 98 53 0F C2 .GeZ..]......S..
00403A20 8F A8 0C 4F 89 0E F6 C8 FE 9F ED 9E 25 E8 CE FE ...O........%...
00403A30 00 45 97 02 B4 E0 80 72 6B 79 00 A1 1C BD A9 00 .E.....rky......
00403A40 02 14 DF B9 2F 83 C3 66 BD 4C F1 E6 15 E2 64 51 ..../..f.L....dQ
00403A50 1F 0A 88 70 00 64 F0 32 D7 A9 00 34 D4 00 AB 8D ...p.d.2...4....
00403A60 40 5B FE 80 15 E7 BC AD 00 00 42 E5 15 FF 00 C6 @[........B.....
00403A70 FE 9D 00 C4 B0 00 FC 8C C0 12 6A FF FF 35 DF 00 ..........j..5..
00403A80 D2 BC CB E1 B9 E4 42 AA A2 FF 37 BA A7 33 FF 15 ......B...7..3..
00403A90 87 F4 00 CB 38 AE 6A 00 56 67 EF 3C 0E 15 02 42 ....8.j.Vg.<...B
00403AA0 2A FF DF 71 45 6F 01 E9 DC 3C F9 50 E0 66 86 38 *..qEo...<.P.f.8
00403AB0 00 E4 BD 66 00 00 C1 81 33 33 83 15 CB 8A FC ED ...f....33......
00403AC0 00 00 14 E2 E3 DD B6 03 FD D2 B9 30 00 90 69 FF ...........0..i.
00403AD0 FF A4 18 6E 5A 3A 00 7F 1F 00 70 FF 00 00 37 74 ...nZ:....p...7t
00403AE0 A0 2F 19 D9 E7 63 C8 A4 F2 F8 FE 14 96 54 FF 00 ./...c.......T..
00403AF0 C4 8E E9 E9 37 36 69 BF 7F 51 CD ED 86 3A 4E 3C ....76i..Q...:N<
00403B00 00 54 27 DB AB F9 A3 00 1E 4D 00 1E 28 73 59 62 .T'......M..(sYb
00403B10 06 A4 1F DB 0E 6F 07 2D 22 B0 94 00 00 58 2A E7 .....o.-"....X*.
00403B20 FF 00 85 06 9B 66 00 7C F7 55 58 AD 22 94 3A 78 .....f.|.UX.".:x
00403B30 AC A0 42 B9 5D 3E DF F4 0F 26 0C 00 90 00 AA 4F ..B.]>...&.....O
00403B40 0C E8 9D 00 00 0B 9B 02 43 E0 61 69 97 0A 00 C5 ........C.ai....
00403B50 36 86 3D 00 37 39 83 8B 88 15 DF DE 04 52 09 9B 6.=.79.......R..
00403B60 F4 00 AF F5 34 60 6B 49 6F CE 2C 16 24 8F 11 3C ....4`kIo.,.$..<
00403B70 1C DE EE 0C DF 49 25 7D 5F 48 04 89 19 B6 38 80 .....I%}_H....8.
00403B80 1C 9F E7 6B 72 10 FF 1F 62 91 F9 FF 00 DA 08 80 ...kr...b.......
00403B90 00 E5 0D A8 2D EC 00 32 84 00 8C 79 F0 1B CF 31 ....-..2...y...1
00403BA0 CD B0 EB 18 03 FA 6A 20 22 E2 F9 AE 86 60 63 33 ......j "....`c3
00403BB0 36 42 33 04 01 42 31 00 6B 6B 01 E1 95 E5 10 4E 6B3..B1.kk.....N
00403BC0 3E 00 6A E5 8B DF FF 57 5A 19 D3 8F 2A 50 09 08 >.j....WZ...*P..
00403BD0 CC A9 68 5B BB 82 FD 4F 77 9B 9D 1C 88 81 6D 00 ..h[...Ow.....m.
00403BE0 54 77 27 FD BB 63 39 C1 36 67 1D DB B5 AD 81 6F Tw'..c9.6g.....o
00403BF0 73 EC 34 D3 D1 00 17 BE 00 00 FF F4 04 26 48 06 s.4..........&H.
00403C00 BE 88 2B 4F 78 1E 63 00 2E 7D 4C E3 E1 FB A9 BF ..+Ox.c..}L.....
00403C10 00 A0 AA C3 C4 C9 F9 E4 73 E2 F6 0E 73 8E 3C FB ........s...s.<.
00403C20 F0 AF 7D 02 F8 D5 56 B5 30 02 D2 DE 78 77 09 37 ..}...V.0...xw.7
00403C30 E7 1C AA 00 FF 8F 42 1D 10 CC 10 56 9D C6 E4 10 ......B....V....
00403C40 9F 03 00 1C 00 C8 05 F2 6D BD 62 FF 00 20 7B D0 ........m.b.. {.
00403C50 82 06 00 79 64 8F E9 DA 3B 2C FF D5 D8 61 3D B5 ...yd...;,...a=.
00403C60 BD 52 FF 5B 27 3E 5C B3 D0 86 FF 4D 0F 6E FF 2C .R.['>\....M.n.,
00403C70 0E 5A D9 ED AB 79 26 2C C9 DE 8A F4 7A FF 6F F1 .Z...y&,....z.o.
00403C80 00 7D 1B 52 B2 00 22 00 53 1F 2C 9E D9 03 63 1A .}.R..".S.,...c.
00403C90 FD A7 40 1B D8 6E 4D 17 B8 6C 6D 41 E2 07 A9 B1 ..@..nM..lmA....
00403CA0 FB E0 00 10 7A B4 A7 36 CC 00 67 32 64 CA 1F 8F ....z..6..g2d...
00403CB0 0E 37 84 6F E5 19 BC 01 0E A7 00 E0 FC ED A9 BD .7.o............
00403CC0 BF 5D 89 65 8F 00 FF 00 2A 05 D5 20 FB 00 29 42 .].e....*.. ..)B
00403CD0 00 00 FF FB 81 00 22 00 1A 71 1C 9A D5 22 43 1B ......"..q..."C.
00403CE0 C3 3C 00 00 6E 43 F1 EF 4B 51 D9 D2 50 74 3C 60 .<..nC..KQ..Pt<`
00403CF0 4A 2A 8B 7C A8 22 F0 EA B7 DD 02 28 3D E8 7E 00 J*.|.".....(=.~.
00403D00 BA B8 E8 00 C5 0B FF 1D 43 00 F8 BD 5E D2 F7 00 ........C...^...
00403D10 BC E1 D2 00 00 0C 60 00 6B 85 0C B0 50 27 4E C7 ......`.k...P'N.
00403D20 17 FD 00 DC A6 E3 2F 0F 00 34 EC F4 74 A0 CC 15 ....../..4..t...
00403D30 6F 6A 86 8F 6E 41 EB BC 00 D4 C9 77 00 81 E1 00 oj..nA.....w....
00403D40 5D C2 0E FB A1 E9 DB 84 13 36 A1 85 7C 47 ED 55 ]........6..|G.U
00403D50 83 00 CC FE B7 90 88 87 FD 31 0B 00 BE 62 33 28 .........1...b3(
00403D60 26 A5 32 CE 0F 67 8B 82 E0 FF 00 51 ED B9 04 8F &.2..g.....Q....
00403D70 87 C0 51 3A 0C E9 80 00 EB 62 00 00 B9 00 85 3E ..Q:.....b.....>
00403D80 09 88 03 89 00 14 EE FA 7D E4 03 4D E9 DB 89 B8 ........}..M....
00403D90 F7 95 30 00 7D 76 59 75 6F 21 75 E1 AF 00 A1 06 ..0.}vYuo!u.....
00403DA0 65 89 00 28 C5 20 3A 00 E0 E4 5F 95 D8 AA 8F D8 e..(. :..._.....
00403DB0 EA 0E 90 10 1A B3 AF 4E 1E 00 E0 04 28 D9 04 8F .......N....(...
00403DC0 30 00 30 00 11 61 FC E0 97 FE 00 D2 D1 EC F7 C6 0.0..a..........
00403DD0 FE DC E7 1B AC DB 7A 16 EE 21 52 DE 44 51 81 C7 ......z..!R.DQ..
00403DE0 0B 00 A9 33 1C AB E3 00 27 00 98 C1 00 19 3E 7B ...3....'.....>{
00403DF0 3D BD C4 8D 3F FE C9 91 4B 9A B7 13 72 76 23 33 =...?...K...rv#3
00403E00 27 A7 E2 00 10 45 66 00 56 A5 C6 31 DF 3A A0 7F '....Ef.V..1.:..
00403E10 C2 47 08 02 C0 FE 81 82 00 E5 36 F7 B0 00 5E 00 .G........6...^.
00403E20 CA 78 8C 44 92 09 E7 34 FE 4B 00 06 00 00 00 00 .x.D...4.K......
00403E30 00 BA 00 A5 46 BE 02 4F 70 D3 C5 65 B1 B1 20 E4 ....F..Op..e.. .
00403E40 D3 FF 01 DD 96 00 F3 00 A0 C9 1F F9 A8 AD 2C A2 ..............,.
00403E50 9C DE 14 59 C3 54 3F 87 48 20 97 C4 00 7D 1D BF ...Y.T?.H ...}..
00403E60 9F 07 9A 00 FF E4 90 0A 9F FF F3 1B F7 00 04 89 ................
00403E70 AF 77 E0 00 46 24 60 AC B3 5C 02 1C B2 6C 06 C1 .w..F$`..\...l..
00403E80 04 00 0B 20 DF 21 12 49 58 0E FF E6 44 E5 43 00 ... .!.IX...D.C.
00403E90 03 E7 21 A5 29 A8 00 83 61 AE 0C 00 00 B3 19 B9 ..!.)...a.......
00403EA0 10 FF 52 FF E3 38 13 D7 3F 9F 28 13 E1 AD 13 49 ..R..8..?.(....I
00403EB0 45 9C 5E CD B2 9C 9E 1C 00 A2 32 3C 80 06 75 96 E.^.......2<..u.
00403EC0 CE 74 08 DB 1C FF 95 BD 53 9E 28 E3 5E 1A 26 99 .t......S.(.^.&.
00403ED0 00 FF 19 06 00 FC F8 F6 9F E3 78 03 00 BD A0 82 ..........x.....
00403EE0 29 29 30 F9 55 16 FF 9B 04 2B 16 A7 1A B1 EA 0A ))0.U....+......
00403EF0 C1 C0 BB CB 7E 00 2F 83 48 06 87 24 44 FF 04 8D ....~./.H..$D...
00403F00 00 10 30 59 46 E5 CF CA 52 DF 44 52 DF 9C FF CF ..0YF...R.DR....
00403F10 B9 BD D3 28 82 22 72 2E 0D 8D 1A 10 00 00 79 88 ...(."r.......y.
00403F20 1C 8E CF 24 00 D7 10 EB 73 31 C5 18 06 00 0B 66 ...$....s1.....f
00403F30 FB 8C D7 EA C1 64 B0 00 4B C0 14 8F 05 4E 0A 93 .....d..K....N..
00403F40 EB 39 94 A1 81 0A 33 97 F9 00 F8 D0 FF 9F 2A F1 .9....3.......*.
00403F50 FF D7 7C 19 43 13 AE 00 D0 60 BB 1F 25 6D 74 73 ..|.C....`..%mts
00403F60 C4 34 F3 E7 E3 50 FF DD 39 00 A6 00 9B 00 B9 6F .4...P..9......o
00403F70 00 ED 00 00 5F A5 81 73 C0 73 3D 50 1F 00 FF 15 ...._..s.s=P....
00403F80 8F C6 74 82 56 88 E4 0E 00 9B 68 BA 6A C4 FF FB ..t.V.....h.j...
00403F90 1A 6C AB B7 66 80 FA B0 CA 20 63 00 00 20 E8 C7 .l..f.... c.. ..
00403FA0 D9 00 42 52 37 78 88 22 1A 18 55 07 8F 7D 1A E1 ..BR7x."..U..}..
00403FB0 8F 26 10 03 00 00 75 86 79 A5 86 38 33 23 00 9D .&....u.y..83#..
00403FC0 3A 62 67 FF 06 04 17 F6 04 7C 73 1D C3 F1 17 10 :bg......|s.....
00403FD0 31 2A 67 00 4C AF 00 4B 88 E4 00 66 8E F7 C0 08 1*g.L..K...f....
00403FE0 A4 04 00 10 10 DC 72 08 00 7B 67 50 00 4E 49 38 ......r..{gP.NI8
00403FF0 EF 14 0C B4 FF FF 04 14 00 E7 99 C3 3B C0 7E 00 ............;.~.
00404000 FA 51 D1 FE 2C 00 00 2E CD 99 E8 41 C6 B9 6B C3 .Q..,......A..k.
00404010 11 FE 00 78 79 AB 00 1F 23 48 9A 61 F9 4C 00 9C ...xy...#H.a.L..
00404020 00 C2 D1 DD 39 6A FF FF 21 8C 0F 00 0A 6C BB 9A ....9j..!....l..
00404030 00 34 88 62 59 12 57 71 BC 87 00 FF 45 A7 EE B0 .4.bY.Wq....E...
00404040 2E CC 3F 86 B5 26 67 D6 0F 1E C0 A3 C7 74 E8 B6 ..?..&g......t..
00404050 56 12 0A C8 3E 3B 00 00 24 00 05 21 5D 0C 07 1C V...>;..$..!]...
00404060 F8 8F 30 64 0B 8E EF A8 42 00 67 4D 00 F0 1B 9C ..0d....B.gM....
00404070 FF 78 74 40 BD B1 41 4A BE 1C DB CE EE A7 37 83 .xt@..AJ......7.
00404080 4B BA 18 72 1C 38 ED 02 B8 A0 00 F7 03 E7 50 2D K..r.8........P-
00404090 78 53 CC 50 0F 42 2C 9E 74 75 46 33 00 0C 4C C8 xS.P.B,.tuF3..L.
004040A0 41 B7 96 00 ED 00 00 0F 2E 09 40 9A 16 46 4C 9D A.........@..FL.
004040B0 83 4B 00 C7 00 B9 68 84 0D 2A 86 AA 4D DD BF FF .K....h..*..M...
004040C0 53 93 1B 77 6B 00 87 00 95 88 0C 71 8A 34 FF FF S..wk......q.4..
004040D0 B0 00 00 B4 DF 85 A2 28 C0 6A 71 FF F1 B8 ED 0E .......(.jq.....
004040E0 9A 5A 00 DC 51 EA 63 FF D1 C2 E1 80 CD 00 54 00 .Z..Q.c.......T.
004040F0 A4 00 7D 5B 00 8D BF 3D EB 54 FF 45 92 81 C9 46 ..}[...=.T.E...F
00404100 00 99 F6 0F 8F 1E C0 DF BC B0 53 6A 2C 94 AF 51 ..........Sj,..Q
00404110 E6 00 CE 4D D2 00 50 D6 CE FF 74 DC 72 00 DA 92 ...M..P...t.r...
00404120 E5 BA 74 53 BB FD FB 5C 2F 7E 65 F2 60 73 00 00 ..tS...\/~e.`s..
00404130 00 A0 D2 00 7B BE 00 7C A7 69 55 C5 16 80 94 DF ....{..|.iU.....
00404140 41 C4 BB 0A EC 68 70 78 34 00 00 35 CB CC FD D2 A....hpx4..5....
00404150 00 C3 07 43 5C 9F F3 6F 74 8F 43 F2 36 41 1F 88 ...C\..ot.C.6A..
00404160 A7 35 BD 41 8C 2C 4B 00 C1 F4 F2 55 36 CB 5C 00 .5.A.,K....U6.\.
00404170 FD 11 72 DB B8 00 04 94 2B 3F 51 C1 84 47 02 F2 ..r.....+?Q..G..
00404180 E2 2C A2 13 0A 00 4E 50 39 C5 FF 47 9B CF 21 DF .,....NP9..G..!.
00404190 75 08 3F 91 EA E4 31 04 7C CD E9 9F 60 23 F6 B3 u.?...1.|...`#..
004041A0 6E E4 10 00 F7 0B A5 1F 78 30 1A B8 A4 1D 00 CA n.......x0......
004041B0 66 88 1F F6 8E 00 A7 E7 64 2B FF 58 3A FF F8 F0 f.......d+.X:...
004041C0 4B 7A 47 59 D1 29 BB C1 B8 F8 80 BF B6 07 0B A3 KzGY.)..........
004041D0 F0 CC 00 03 51 00 81 25 5F 00 00 00 B3 36 64 FF ....Q..%_....6d.
004041E0 00 E6 79 FF 00 00 BF 3D 1A FD 67 FF 23 01 A0 31 ..y....=..g.#..1
004041F0 86 00 A3 94 37 23 DD 38 D3 00 A9 1C FF F4 FF D7 ....7#.8........
00404200 EA FC 95 1C 1E 64 FF D1 84 CC 7D 8D C9 2D 93 B1 .....d....}..-..
00404210 00 60 00 00 34 66 69 10 C9 00 13 FB 03 00 2B 93 .`..4fi.......+.
00404220 F4 97 26 7F FE 11 8F 6D 00 00 A3 00 74 44 00 39 ..&....m....tD.9
00404230 B8 00 FF 00 5A 00 56 5C 54 80 5A 3A 0E 83 2C 7F ....Z.V\T.Z:..,.
00404240 DB 4E 10 0B 03 BE 02 E2 B8 82 0E 63 D3 21 C4 79 .N.........c.!.y
00404250 22 3B 00 00 14 01 0C 43 00 DF CF 49 B1 0A 6D 9B ";.....C...I..m.
00404260 8B 91 6C DB F7 0E 00 71 A1 B2 5B 8B 00 60 3D FF ..l....q..[..`=.
00404270 C8 98 AA 6F D1 06 D5 00 F7 FF FC 00 5E 00 24 FE ...o........^.$.
00404280 08 D4 D6 28 89 31 DF C3 C0 60 55 AD 77 00 64 1C ...(.1...`U.w.d.
00404290 ED C4 60 7E 47 19 00 2D D2 40 21 FF 43 A9 00 A7 ..`~G..-.@!.C...
004042A0 0D C6 41 AC 00 00 FB 00 41 35 2C 00 00 3C FE BE ..A.....A5,..<..
004042B0 1F 6A FF C4 7F 85 75 FF A4 FB 93 86 5F 62 09 1C .j....u....._b..
004042C0 77 B4 98 A6 22 F0 38 50 F2 D4 69 A7 E8 95 5D 71 w...".8P..i...]q
004042D0 1B 24 61 0B 14 66 00 00 00 1D 7A D5 64 95 CA 07 .$a..f....z.d...
004042E0 F3 80 1F 16 00 CB 92 FE 66 1F 2A 0D 32 FF 00 1E ........f.*.2...
004042F0 0C DD 0F 86 F2 1C B2 DD FB 31 39 FF 16 E9 00 B2 .........19.....
00404300 29 C9 E0 0E D5 54 CE C1 A5 27 D2 00 9E 00 A1 00 )....T...'......
00404310 00 57 26 03 E7 AB FF 09 C7 88 00 00 0E 00 16 EE .W&.............
00404320 20 AA 6E 00 00 49 9B A1 19 82 62 6C DE 16 FA FF  .n..I....bl....
00404330 00 F5 85 40 AC EF 62 29 00 22 33 C6 B7 12 10 5B ...@..b)."3....[
00404340 DB 00 00 4A 47 1E DF 48 FF D5 00 66 3A F3 35 D8 ...JG..H...f:.5.
00404350 8A D5 00 29 AF 58 88 00 DB 00 FF 59 FF F5 00 C6 ...).X.....Y....
00404360 CF 00 00 7B 36 05 00 39 21 F2 20 00 00 59 48 9A ...{6..9!. ..YH.
00404370 00 66 00 FF 9F E2 00 FC 09 00 6B E3 B1 C3 00 45 .f........k....E
00404380 F5 E1 90 7E AC DB 00 D0 00 0F 4A 4E 93 D8 C6 05 ...~......JN....
00404390 4A 84 FF 6E 63 1B FF 16 00 83 A0 00 FF 00 7C FF J..nc.........|.
004043A0 00 E4 AD 36 A9 53 64 00 FA 9B 00 F9 FF 58 99 AB ...6.Sd......X..
004043B0 00 D4 03 FC 6E B3 23 FF DF 8C 5B 09 E2 20 70 EE ....n.#...[.. p.
004043C0 4E C3 FF BE E5 ED EE 00 0A 11 67 10 E1 00 B8 00 N.........g.....
004043D0 7E E0 31 51 90 6A F4 0E 79 00 BC D5 1D BA 00 7F ~.1Q.j..y.......
004043E0 92 B9 0D 7F A0 B8 F8 BC FF EC 0E C0 00 06 19 00 ................
004043F0 C2 F4 50 CD 7A 90 07 00 00 16 D1 10 E0 96 22 8C ..P.z.........".
00404400 3E 00 E4 8B 25 01 00 00 FF 04 39 64 FF 70 BF 4F >...%.....9d.p.O
00404410 24 58 2A 42 C7 FF 18 47 A5 57 36 FD 86 00 03 E2 $X*B...G.W6.....
00404420 FF 71 97 C2 30 20 A7 69 FD C8 00 00 37 72 E3 FF .q..0 .i....7r..
00404430 41 A0 5C C6 39 82 E6 00 EF FB 06 FF 91 B3 00 EA A.\.9...........
00404440 95 20 6F EF 50 58 00 09 03 36 CE 18 09 14 8C 5E . o.PX...6.....^
00404450 D1 91 FF F2 00 4F 18 C2 BA A2 C0 18 E6 A1 2D 10 .....O........-.
00404460 07 61 8D 91 00 9A D7 58 AB 42 BB 00 21 EC 2E 5B .a.....X.B..!..[
00404470 F5 61 F9 37 FE E5 00 7B 1A 64 18 28 97 B6 8B DA .a.7...{.d.(....
00404480 21 3E 32 85 01 14 30 F6 47 AD 3A 80 FF 18 00 00 !>2...0.G.:.....
00404490 00 30 2C 3B D1 00 A9 FF 6F F1 AC 2F CE F0 6E F9 .0,;....o../..n.
004044A0 FF D0 E6 FF FF 18 FC 82 10 55 00 5A A7 42 C1 91 .........U.Z.B..
004044B0 E4 B2 15 66 6C C0 C2 08 3D 00 D3 90 78 B4 92 06 ...fl...=...x...
004044C0 C4 4F 10 A5 11 86 A5 D8 71 0A 00 66 00 08 A1 20 .O......q..f... 
004044D0 BE 74 78 70 1B 2C 00 04 0A B7 57 01 DA 33 CB 3D .txp.,....W..3.=
004044E0 4F 44 8E A6 A8 5A 00 C7 A6 EE B2 BC 6E 11 74 5A OD...Z......n.tZ
004044F0 00 EF B8 27 30 97 EA B4 65 00 53 CF F1 E5 01 21 ...'0...e.S....!
00404500 C7 9F FF 00 70 69 B1 18 FD 30 66 9D 17 48 00 CA ....pi...0f..H..
00404510 39 AC F7 00 1E 9F D2 09 4F 3E 13 2F 65 B4 3A 73 9.......O>./e.:s
00404520 0A 51 03 86 22 08 BF 00 00 A1 10 BB 96 0A 50 E8 .Q..".........P.
00404530 56 A3 40 5F F1 27 D7 22 78 01 00 8E 71 59 A5 FB V.@_.'."x...qY..
00404540 FE 88 16 FF EC 68 97 8C 4F 1C 00 00 5C 31 C2 10 .....h..O...\1..
00404550 A7 FC FF 5E 00 00 AD EA A6 00 F9 3B DE 35 1E 86 ...^.......;.5..
00404560 8B 62 6C 15 00 00 82 A1 99 30 56 8D 87 00 23 F1 .bl......0V...#.
00404570 00 00 00 7F 2F 5C C4 27 7C 03 00 30 80 88 22 17 ..../\.'|..0..".
00404580 AC CE 72 D1 00 1A 00 7C 93 58 DC 3E D0 09 E8 DB ..r....|.X.>....
00404590 6D 00 0D 8B 04 D5 0B F7 46 00 C3 B2 52 AB 90 2A m.......F...R..*
004045A0 C2 00 81 5F 8B A0 D9 00 A6 00 63 4D 02 00 FF ED ..._......cM....
004045B0 A1 C8 87 FF 00 D9 CD 78 89 A4 B8 22 F8 7F 0B 3E .......x..."...>
004045C0 38 EF 59 55 F5 F6 E2 1E E4 8A 71 58 46 FF C0 E8 8.YU......qXF...
004045D0 BA 47 AB 00 86 66 A2 1C 03 BD FC 8C 54 D5 A4 1A .G...f......T...
004045E0 B6 C2 FE 00 20 F5 7D C6 7F 5F 6E 00 00 D4 5D 24 .... .}.._n...]$
004045F0 00 09 A4 48 89 00 00 FF 00 9C 34 01 99 5B 1A FF ...H......4..[..
00404600 FF 00 00 FF 42 4D 1A F4 25 8C 80 B9 70 46 8D 00 ....BM..%...pF..
00404610 00 B3 DD FF F4 FF 0B 11 3B D9 11 F4 CA 00 52 63 ........;.....Rc
00404620 30 AF A8 1C 67 33 68 9E EB CF B4 6A 08 FF BE 26 0...g3h....j...&
00404630 16 E6 F4 60 1A 00 CB F4 24 00 00 48 43 38 00 26 ...`....$..HC8.&
00404640 CF 9E 21 63 42 40 FF 85 8E 1F 1E EF F4 B7 00 FF ..!cB@..........
00404650 08 00 80 00 00 8F 3C 3A 95 5F 44 FB 0C B1 08 FF ......<:._D.....
00404660 25 84 D8 FE 00 FF DF 7F 00 0F 71 91 E2 E1 B9 1F %.........q.....
00404670 97 18 5B A0 03 5A C1 0B 89 80 A5 89 9F 00 DB E6 ..[..Z..........
00404680 00 EB E2 98 03 15 F2 D3 97 62 4B 65 3B 18 00 8C .........bKe;...
00404690 B3 5C F8 3F 09 C0 AB C8 FF A3 55 AE 26 31 D5 F9 .\.?......U.&1..
004046A0 92 E8 88 0A 00 00 00 E3 F2 00 A1 96 B2 E0 1F 25 ...............%
004046B0 7E 8C 59 38 C6 44 FD E0 FF F5 90 0C 82 71 B0 00 ~.Y8.D.......q..
004046C0 DC 00 BB C9 82 4B 99 EE F1 10 63 21 FF 26 CB 39 .....K....c!.&.9
004046D0 C2 C6 E1 FF 38 CC 27 00 34 67 E3 1B 38 44 A4 62 ....8.'.4g..8D.b
004046E0 B7 E4 00 8E 93 2F FF 63 83 79 AA 21 48 7F FB F6 ...../.c.y.!H...
004046F0 E2 03 9F 00 89 00 71 D2 40 AB 37 AD FF 00 22 16 ......q.@.7...".
00404700 22 FF FF 8F FF 76 7C C1 BA FF 5E FF 00 47 0C 59 "....v|...^..G.Y
00404710 FD 33 91 05 48 40 21 B0 F9 07 D9 E2 00 57 FD 00 .3..H@!......W..
00404720 10 DB 31 00 00 00 E2 6A 00 AC D7 FF BF F7 15 7A ..1....j.......z
00404730 82 4C 28 00 A1 6F CD 39 85 26 AD 00 9B 00 C6 3B .L(..o.9.&.....;
00404740 00 87 F3 00 54 FF 89 F7 09 00 FF 14 65 7C DB FF ....T.......e|..
00404750 11 12 09 32 FF 6D 00 78 BD BA 18 92 00 A0 83 01 ...2.m.x........
00404760 5A E1 AD BC 00 56 18 24 45 36 00 28 00 4F 13 9A Z....V.$E6.(.O..
00404770 2B 6F 8D F7 80 F8 D7 FF 60 E3 9B 00 78 FF CD 01 +o......`...x...
00404780 63 D3 B7 B9 37 CD 00 FF DB FF 1C 1F 00 08 90 6D c...7..........m
00404790 00 9A 1A CF FF 26 47 B8 3E F8 EC CC 98 4A D9 90 .....&G.>....J..
004047A0 15 63 DB 0A 62 C0 3D F8 5D 64 94 53 92 95 00 03 .c..b.=.]d.S....
004047B0 A0 00 3A 8A 0F 00 76 F9 F0 2F 43 18 00 8B 7F C2 ..:...v../C.....
004047C0 A9 AB B4 3E CF FF 00 87 4D 02 76 DD DE FF 79 6D ...>....M.v...ym
004047D0 A1 09 ED 53 82 29 F1 AF A2 E0 C8 50 34 3B F9 22 ...S.).....P4;."
004047E0 FF FF A3 BB 61 0A 92 D2 89 5A F8 CF BA 8B 00 23 ....a....Z.....#
004047F0 1A FF A3 C6 30 D5 00 E9 1F 52 D3 9B 0A 2A 59 75 ....0....R...*Yu
00404800 8A B6 47 90 FF 00 60 03 74 7D C1 00 0F CF 59 41 ..G...`.t}....YA
00404810 C6 85 09 EC 38 3A 00 76 88 A5 F0 F7 C3 02 CD C9 ....8:.v........
00404820 A5 82 13 00 19 1C 00 CB 68 00 2E 96 00 00 F4 D7 ........h.......
00404830 FF 22 1C BB 41 75 3B DC F0 FF 6B FF D6 26 E1 E7 ."..Au;...k..&..
00404840 E1 50 1C 77 39 E1 00 11 00 65 58 6F A1 B6 43 04 .P.w9....eXo..C.
00404850 C2 00 EE A9 A1 8F 08 CF 9D 00 DF 8A 91 00 4D 49 ..............MI
00404860 CD 3A 01 ED A3 35 C1 1F 00 50 78 18 FF 1A CD 5F .:...5...Px...._
00404870 D1 66 42 DC 5D 02 89 F7 24 86 FB 66 00 70 FF FF .fB.]...$..f.p..
00404880 B4 00 63 00 F1 66 0D E3 9E 1B 00 97 FF 86 F8 70 ..c..f.........p
00404890 15 5C 00 EC 3A 00 03 B5 29 34 0A A3 00 3D 45 CB .\..:...)4...=E.
004048A0 DF E3 00 3A BF 36 C7 03 00 0C A9 00 EF CA 13 95 ...:.6..........
004048B0 E4 AC 10 84 63 F6 40 6E 9A EB A0 58 32 D9 F8 FB ....c.@n...X2...
004048C0 23 00 04 81 FF 5B 99 B8 01 DB 06 43 00 83 3C 00 #....[.....C..<.
004048D0 30 00 FF 93 1A 91 00 3E 78 51 00 7D 43 35 05 00 0......>xQ.}C5..
004048E0 1F C3 64 2D D3 B9 25 50 11 C7 90 08 7C 14 95 11 ..d-..%P....|...
004048F0 00 A4 EE 00 3E 3A B0 00 10 36 C6 2B C6 E4 00 00 ....>:...6.+....
00404900 00 00 61 FF 37 4B BD 38 D2 74 00 00 00 05 D7 90 ..a.7K.8.t......
00404910 B4 0C 40 F3 18 32 00 40 94 47 5F 80 FF 0C F6 0A ..@..2.@.G_.....
00404920 BD CC 11 00 00 1D 5F CF 5E 08 B1 62 D6 14 11 2A ......_.^..b...*
00404930 43 93 32 87 00 38 53 C0 00 00 00 00 31 70 65 61 C.2..8S.....1pea
00404940 81 FB 38 DE 8D FF FF 01 20 00 7B 74 C6 E0 60 65 ..8..... .{t..`e
00404950 D4 DE CE EB 2E A4 FF F0 41 FF 1E 8E CF 8D 1B 8A ........A.......
00404960 1E 12 C4 FF 95 27 02 4F 80 02 00 19 50 6C 63 00 .....'.O....Plc.
00404970 C7 B7 1F 38 0E 00 7B 81 1D EE 8E D8 52 07 89 FD ...8..{.....R...
00404980 D3 5E 15 DD 90 00 6E 03 00 76 4E 41 00 A6 7F DE .^....n..vNA....
00404990 C5 4D 00 8C 56 FE 32 03 C2 58 30 E9 B2 D1 5D 00 .M..V.2..X0...].
004049A0 85 ED 2F EC 85 42 00 00 A3 7B 00 FF 08 E6 00 00 ../..B...{......
004049B0 FD D3 F1 87 E5 CB 1A 00 B0 00 60 3F 7C D1 00 1D ..........`?|...
004049C0 51 E2 00 31 CE FF 00 00 1C 3A E2 D0 C9 C1 B8 9E Q..1.....:......
004049D0 E8 47 47 48 16 CA 85 B4 00 9E 00 04 00 00 4C D2 .GGH..........L.
004049E0 61 D1 28 FC D7 FF 9A BF 03 FF 38 05 77 63 00 EA a.(.......8.wc..
004049F0 78 70 44 24 BF AE BD 27 C6 00 D2 22 9D BD A0 9D xpD$...'..."....
00404A00 AC 93 66 6F 0E 21 00 B1 0D 00 00 A3 9E EF FF 8D ..fo.!..........
00404A10 06 40 4E BD A2 61 E9 14 66 9A 91 C7 19 E4 DF 83 .@N..a..f.......
00404A20 D9 00 00 D4 8C 93 9B E7 00 C4 99 00 06 80 0A 91 ................
00404A30 97 CD 08 EF B5 00 B9 F6 05 8C E3 60 7F 08 B9 18 ...........`....
00404A40 B2 A8 8E E0 5D 51 5E 2D E3 C0 61 58 60 60 55 F7 ....]Q^-..aX``U.
00404A50 0E EF DD 0F 98 5E 00 0A 03 81 F5 E2 39 00 00 8C .....^......9...
00404A60 C4 45 05 EB 13 F0 D7 53 0B 1D DE 1E D2 B1 9B 7D .E.....S.......}
00404A70 11 62 C3 9A 08 D5 00 D1 F9 70 F4 00 B1 DE 6C 36 .b.......p....l6
00404A80 A2 3A 6A 62 FF 42 24 C9 20 00 ED 1B 03 66 C6 D8 .:jb.B$. ....f..
00404A90 C0 64 A9 DD 90 BE 94 BE 64 FA 0B 00 A3 0D 88 F0 .d......d.......
00404AA0 2F 00 00 EC 60 7C 00 01 C6 3F 9F F8 20 EB 2A 5F /...`|...?.. .*_
00404AB0 BC AA E1 85 35 47 01 CF 94 AF CA 54 03 00 28 C4 ....5G.....T..(.
00404AC0 00 AC 63 CE FF 13 25 1A B8 6C 75 21 30 9A E9 DF ..c...%..lu!0...
00404AD0 4C 84 D1 C7 85 FA FE 00 10 65 FD 07 B9 1B 6C FE L........e....l.
00404AE0 87 FF 00 2E 23 16 BB 81 C4 00 00 40 FE 5E 88 FE ....#......@.^..
00404AF0 E9 69 00 2C 00 1A C0 F1 26 00 8F 59 39 10 15 68 .i.,....&..Y9..h
00404B00 00 56 FA 40 08 F9 2F 15 03 E2 00 9F 09 9A A4 DA .V.@../.........
00404B10 63 4B 3A 9B CF 9B 6F 81 DC E7 FF 40 DB EF 1D 00 cK:...o....@....
00404B20 15 E8 00 8A BB 04 81 00 80 B5 00 D8 06 45 CD 07 .............E..
00404B30 2A D8 37 CD 65 D3 10 47 C0 6A 51 5A 00 B4 97 F4 *.7.e..G.jQZ....
00404B40 EA 00 93 23 51 66 A6 97 28 00 CF 9F 57 00 93 8E ...#Qf..(...W...
00404B50 75 C5 00 FC 00 F7 23 8E FF DE B7 99 81 00 18 64 u.....#........d
00404B60 6D CE A5 00 8E FF 00 13 BE 19 DF 16 A5 89 1A A4 m...............
00404B70 00 ED 61 00 00 C7 EC A6 CD 2C 4B 5C 2C 3E DE 4F ..a......,K\,>.O
00404B80 07 6F 29 97 F2 26 00 77 00 54 60 27 09 98 33 00 .o)..&.w.T`'..3.
00404B90 36 39 86 FD A5 B7 E0 29 93 6E CE 0E AF 87 96 01 69.....).n......
00404BA0 B7 C0 C2 8D E0 29 0B D0 99 7A 95 8C 74 28 00 57 .....)...z..t(.W
00404BB0 80 A6 FF 3C 44 B0 15 27 03 0C 35 C0 BF 60 00 00 ...<D..'..5..`..
00404BC0 00 F0 E2 C3 D2 66 EE 4A A3 F4 7D 6D 41 00 F3 28 .....f.J..}mA..(
00404BD0 41 F2 13 E9 E2 41 4C 9D 45 8E 49 2E 01 00 E1 FF A....AL.E.I.....
00404BE0 3F 07 B6 FF 17 FA C1 E8 34 A8 06 1E 00 27 F7 26 ?.......4....'.&
00404BF0 30 59 B7 00 F6 CE F7 44 8F FF 71 36 40 79 44 11 0Y.....D..q6@yD.
00404C00 3E A3 E1 56 45 AF 39 51 31 2F 04 9E 35 07 77 FF >..VE.9Q1/..5.w.
00404C10 C3 0F 00 50 7E 94 8F D3 E8 48 DF BD C0 8F 00 C6 ...P~....H......
00404C20 BC 91 79 ED 00 1D 2E 1C 29 F0 FA E0 00 29 2E ED ..y.....)....)..
00404C30 06 8F DB 8E 3E 66 8C 65 76 00 02 84 46 00 79 9C ....>f.ev...F.y.
00404C40 23 1D E4 DD 10 E0 87 A5 FF 16 58 BD 17 84 BA 47 #.........X....G
00404C50 00 40 B0 45 85 00 00 00 ED B3 F0 F0 80 6B 12 FF .@.E.........k..
00404C60 EF ED 07 03 FF 22 E9 00 C7 C5 7F 18 24 3F DC FC ....."......$?..
00404C70 FF 6B 80 FA C6 66 9F 23 3B 71 44 08 94 5A 92 00 .k...f.#;qD..Z..
00404C80 C4 B0 34 E4 A1 34 00 48 00 93 30 1C B2 B1 CD E0 ..4..4.H..0.....
00404C90 E8 8A 1B 00 C9 FF 13 EE CC 99 48 B9 73 03 D7 AA ..........H.s...
00404CA0 5E FF 04 00 DD 00 EE 6C 70 3E BF FC 5A 2D C8 61 ^......lp>..Z-.a
00404CB0 C9 C3 2D A8 FA A8 FC 9A FF 3D 0F C0 90 A5 F7 40 ..-......=.....@
00404CC0 8F 38 82 99 0D 67 47 98 38 0E 07 60 09 B4 26 69 .8...gG.8..`..&i
00404CD0 62 F3 01 52 47 4E BA 0D FC 00 C0 23 00 3A 00 00 b..RGN.....#.:..
00404CE0 D0 52 AE 63 06 12 A7 54 5B CC 58 5D 68 FF 9B 00 .R.c...T[.X]h...
00404CF0 C5 F8 6E FF 5E 58 B8 00 03 59 0C 78 58 C9 50 94 ..n.^X...Y.xX.P.
00404D00 B7 5F C4 E1 19 3C DE E4 00 AE 72 DD 7B F1 00 6A ._...<....r.{..j
00404D10 42 4F BA 16 87 FF FF 11 EE 20 43 FF D9 1A DC 77 BO....... C....w
00404D20 FF 00 4F 0A 85 36 3E A7 00 C4 3F FF 00 61 F8 95 ..O..6>...?..a..
00404D30 07 69 4F 7F 17 E6 39 58 00 80 00 00 F7 62 C1 D8 .iO...9X.....b..
00404D40 8B FF CB 32 10 0A 1B 22 90 F4 E3 DB 04 F3 6C 0E ...2..."......l.
00404D50 86 FF 00 5C 00 CD 00 3A FF 18 00 43 00 30 5A F7 ...\...:...C.0Z.
00404D60 31 46 D9 C4 00 43 B7 BF F2 A3 82 FF 99 FA EC 00 1F...C..........
00404D70 E3 8A BF D1 05 87 00 FF 37 0E 06 95 E3 4C 77 C6 ........7....Lw.
00404D80 AE 24 64 34 12 70 89 20 04 9F D4 A8 CA 3B 48 B5 .$d4.p. .....;H.
00404D90 35 4B 89 64 51 38 2E 2C 00 EC F9 F9 F3 FF 00 A1 5K.dQ8.,........
00404DA0 7F 63 54 6F 75 63 6E 3A 47 5B 00 00 93 B1 00 BB .cToucn:G[......
00404DB0 03 7B 90 98 9C A8 ED 87 07 00 AA FF D7 89 FA 84 .{..............
00404DC0 AD 92 FF D1 64 B6 AD 4F 45 E4 F6 45 C3 F2 7F 00 ....d..OE..E....
00404DD0 4D 5E 7D 96 1B A5 FF 5F 00 D3 FC D1 00 4D 8E 6C M^}...._.....M.l
00404DE0 19 00 76 00 E4 6E 08 00 39 FF EA 8D A6 D4 C3 E6 ..v..n..9.......
00404DF0 04 83 DB 3E 10 8C BD F4 80 FF 17 DE 42 90 00 ED ...>........B...
00404E00 0D E2 5E B7 EE 52 B1 00 1F 38 52 72 E3 17 04 29 ..^..R...8Rr...)
00404E10 00 E1 98 89 E2 3C AE 10 93 04 00 FF 62 24 42 83 .....<......b$B.
00404E20 0B 00 20 ED AB 4A 5A 80 70 1F 29 F6 AD CD 2D 68 .. ..JZ.p.)...-h
00404E30 52 7E 71 CA 37 53 B9 0D 3E 00 81 3F 23 84 0D 87 R~q.7S..>..?#...
00404E40 18 22 00 EF 41 23 F5 70 FF 47 82 D4 44 7B B6 BB ."..A#.p.G..D{..
00404E50 37 E0 1A 4C 16 C6 33 9B 9C 1F 54 E4 3D DC 00 58 7..L..3...T.=..X
00404E60 00 00 2F 99 FF FF 85 4A 00 E9 9E B1 79 0F 31 C8 ../....J....y.1.
00404E70 DB F0 B2 70 3D D4 91 8F E8 1C C7 F7 00 E2 00 C8 ...p=...........
00404E80 CD 5C CC 14 31 2C 86 58 36 00 28 B7 5A 01 6B 2F .\..1,.X6.(.Z.k/
00404E90 CB FF A7 1C 78 7D 16 5C 0D D1 C0 00 FD 00 00 BD ....x}.\........
00404EA0 E3 F7 91 22 1D F8 C8 54 00 1E AD E1 AA 00 56 4E ..."...T......VN
00404EB0 62 C6 81 FF 0A 2E E0 66 B2 1B 5D 58 54 7D C6 81 b......f..]XT}..
00404EC0 5B 91 00 34 BB B5 71 D9 0E EC 00 6A FF A9 EF 1C [..4..q....j....
00404ED0 00 F4 3E A0 00 00 CB 3F C6 3F E6 9A 00 00 E6 36 ..>....?.?.....6
00404EE0 52 E4 EC 02 20 B1 47 6D 08 80 DE FF 7A 86 36 48 R... .Gm....z.6H
00404EF0 64 FF 0B 00 70 44 09 0D 37 0C B9 BE 25 00 05 CC d...pD..7...%...
00404F00 9D A0 00 70 0A 3B 77 5E CE 00 37 A2 48 D3 88 15 ...p.;w^..7.H...
00404F10 23 9E 3E 00 79 BD 83 B0 E5 62 D5 FB C3 FF C4 60 #.>.y....b.....`
00404F20 20 FF 3D 01 FA 1E 2C F5 BA FF 53 F1 72 5C 32 DE  .=...,...S.r\2.
00404F30 4E DF B4 3E 00 00 E3 0B A4 46 37 A5 C8 91 0F 00 N..>.....F7.....
00404F40 5B 38 3C 87 97 E1 9B 00 20 5A D2 00 8C 4C F1 53 [8<..... Z...L.S
00404F50 73 F0 F6 24 32 C3 94 00 88 FF A3 1E 97 F9 F3 B1 s..$2...........
00404F60 0A DE 72 DE 1E 32 00 06 F3 E0 00 67 00 06 B9 03 ..r..2.....g....
00404F70 00 FA 29 00 5A 24 A6 F9 FF 00 B6 FE 22 00 E8 20 ..).Z$......".. 
00404F80 5E 3D 96 00 6C 18 14 9C 72 DE 58 72 E0 FD 92 D7 ^=..l...r.Xr....
00404F90 CA 4C F8 00 00 C8 36 40 00 92 89 3D E2 06 E0 9A .L....6@...=....
00404FA0 AE 42 98 BC 98 1C D7 31 8B 00 33 00 EB 34 66 48 .B.....1..3..4fH
00404FB0 69 A1 9D 4D 00 30 59 64 9E 00 4D 3D C3 33 16 00 i..M.0Yd..M=.3..
00404FC0 46 6F FF 00 4B 81 20 9E 00 1F 04 22 F2 16 0D 48 Fo..K. ...."...H
00404FD0 3D B0 4F F3 8D 54 C4 B7 3A 1B 51 50 FF F3 00 99 =.O..T..:.QP....
00404FE0 89 A4 00 D4 83 E1 FF 7D DC A6 00 00 FF 51 00 00 .......}.....Q..
00404FF0 00 43 BA 00 20 B8 BB CB FF 00 67 74 6C 00 60 55 .C.. .....gtl.`U
00405000 00 FB 58 41 38 93 00 E6 AA 8F C0 FF 18 32 5C FF ..XA8........2\.
00405010 49 A7 0C 8F 00 08 0C 00 FF 9E A0 E5 E3 57 0F C5 I............W..
00405020 39 3E 00 00 98 92 DD 05 F8 08 00 14 11 FF FC DE 9>..............
00405030 73 7E F9 0A B1 83 DF 62 C4 C8 99 CD 05 06 FF 35 s~.....b.......5
00405040 84 B0 38 5D 00 45 A0 21 00 C6 0E 00 9F CF 7C 7F ..8].E.!......|.
00405050 00 64 31 0B A8 00 06 0B 12 01 E6 00 28 76 CF 8F .d1.........(v..
00405060 A2 00 16 40 FD E6 DA 00 36 32 00 C4 00 C2 4E 71 ...@....62....Nq
00405070 77 A5 D9 B1 FF 58 00 00 6E FB FF E1 0B 00 A5 3C w....X..n......<
00405080 0F 44 0C 83 DB 2E 7D 0F A9 6A FF E4 00 15 00 C8 .D....}..j......
00405090 C4 3F 37 19 00 5D 62 D0 C6 E2 07 69 2A 72 3F D4 .?7..]b....i*r?.
004050A0 E3 DE 00 D2 40 C5 08 00 00 3A 3A 8F EF 3F EE 07 ....@....::..?..
004050B0 75 A2 CC DA C5 F4 C1 16 90 6F 1A 16 9F 5B DC F4 u........o...[..
004050C0 6C 9B 9B 58 82 92 6E 00 03 3A 83 F7 FF 87 64 DD l..X..n..:....d.
004050D0 B8 F6 00 3A C2 5E F8 38 B4 21 20 32 41 C9 4E FF ...:.^.8.! 2A.N.
004050E0 00 8B DC 34 99 00 00 FF D0 A5 05 0F 77 5D 00 3B ...4........w].;
004050F0 83 22 AD 4F A3 FD 54 1F 40 34 48 63 A9 2C 72 2B .".O..T.@4Hc.,r+
00405100 67 AB 2D 76 84 60 E2 CB A6 E1 C7 0C 43 27 83 E0 g.-v.`......C'..
00405110 80 11 88 63 7D 30 FF F7 40 41 80 FF B5 BE B5 9C ...c}0..@A......
00405120 02 62 76 9E 00 F4 C6 7C 36 F6 CA 00 76 0F A0 C4 .bv....|6...v...
00405130 D6 64 C9 02 7D 24 F3 FF 85 DF 1A 57 0E D6 A3 A2 .d..}$.....W....
00405140 FF A8 E9 F4 D9 00 EF 3E B8 F1 07 25 3F 3C D8 3C .......>...%?<.<
00405150 1D 48 77 31 2F 00 95 DF 30 00 3B 36 80 46 D1 00 .Hw1/...0.;6.F..
00405160 FF 1D CE 80 18 0E A9 FF B1 CB EF 5E 00 84 33 FC ...........^..3.
00405170 05 34 37 88 00 00 C6 EF C7 00 EC D4 EF C7 FF B6 .47.............
00405180 52 00 71 32 FF 3D C3 56 52 EF B9 00 D8 52 CE C0 R.q2.=.VR....R..
00405190 2A F5 B7 41 19 B6 F7 E1 01 03 B7 3B BE 00 1A 00 *..A.......;....
004051A0 CC F4 B8 49 C8 BF A6 3A 70 0F 5F 2A FF 12 D2 06 ...I...:p._*....
004051B0 FF 8B E1 79 52 82 F1 0C 79 93 14 76 A9 44 40 BC ...yR...y..v.D@.
004051C0 54 92 86 9C 07 85 D7 11 CA A3 E3 FE E1 40 00 BD T............@..
004051D0 FF 6F 93 08 7B 00 73 77 00 00 D3 FF C9 00 A8 3E .o..{.sw.......>
004051E0 C4 00 8B 00 F2 3E B8 FF C2 0B 5B 82 4A 43 3D 2A .....>....[.JC=*
004051F0 5D 00 00 00 04 B5 00 A5 16 9D FB A4 99 5B 05 40 ]............[.@
00405200 58 9C 42 50 81 9B B6 2A FF AB B7 54 5F 1C 00 BF X.BP...*...T_...
00405210 23 00 00 3F 54 15 00 DD 36 10 2A 52 7F 99 E8 4C #..?T...6.*R...L
00405220 D0 3F 9C 0A 03 AA 50 D1 80 47 00 A4 C7 DD A5 00 .?....P..G......
00405230 58 75 08 9C E9 00 5D 32 3A BC 97 F2 82 47 15 8D Xu....]2:....G..
00405240 67 06 A4 0F B8 00 DD 91 C0 7A F5 EB 59 C7 5D 11 g........z..Y.].
00405250 02 63 99 C9 58 3A 32 00 00 FF C3 FA 00 47 C9 BE .c..X:2......G..
00405260 4F 05 00 9C B9 A3 37 49 86 00 53 2A 00 C6 F2 95 O.....7I..S*....
00405270 C6 B6 1B D1 91 C8 DE 80 F0 00 B7 64 FF EA FF 7F ...........d....
00405280 F4 57 A8 1C 63 04 C9 14 C3 02 00 9E BF 3E 00 5F .W..c........>._
00405290 3A 26 91 63 61 FF B8 00 FA 69 00 51 8E 00 20 9F :&.ca....i.Q.. .
004052A0 DE 6A 06 21 75 58 EF 6B 06 00 53 51 B1 FF 48 C4 .j.!uX.k..SQ..H.
004052B0 CC 22 C6 00 FF 00 8D 00 32 CA 2D 1B 20 AD 38 10 ."......2.-. .8.
004052C0 92 55 E0 01 FF FF 00 3B 5A D3 07 FF 4C 89 00 00 .U.....;Z...L...
004052D0 37 52 47 08 00 FB A9 D2 00 86 1E C1 FF 2A 7A 80 7RG..........*z.
004052E0 5A 95 CD 58 94 2D 00 D5 0A DE 80 55 FF BA 29 5A Z..X.-.....U..)Z
004052F0 CB A8 FF A9 A1 66 68 AF FF F3 0A C2 00 C7 47 40 .....fh.......G@
00405300 31 07 DC 0B 0A 34 36 0B 89 04 12 E9 68 9B 5D EE 1....46.....h.].
00405310 F5 19 41 A8 01 A5 1C F7 00 00 60 82 B8 C9 32 DB ..A.......`...2.
00405320 00 10 D8 96 3C 11 EA 3A 2E B9 01 A0 EF 99 06 CB ....<..:........
00405330 9D 11 22 88 32 00 9B 19 00 AF 69 B2 0E 9B 99 0E ..".2.....i.....
00405340 E8 F4 37 EC 30 36 B7 55 00 65 73 97 71 85 D5 95 ..7.06.U.es.q...
00405350 EF F1 7B E9 4C 50 F7 E9 63 7F A1 7F 14 0C 00 8F ..{.LP..c.......
00405360 87 C1 CC 83 C5 BB 05 5C A7 03 8A 8D 00 19 30 BF .......\......0.
00405370 0F CC 32 86 13 DF EF FF C9 9C 35 09 09 EA 32 DE ..2.......5...2.
00405380 8F 91 B1 6B A0 9D C2 67 CB 0B 8D 4A 7A AB 32 E3 ...k...g...Jz.2.
00405390 00 30 0B 7A FA 00 51 00 0A 00 CD 82 63 83 80 B8 .0.z..Q.....c...
004053A0 FF A6 65 23 DC E1 91 FF C9 64 05 D7 B9 08 D8 89 ..e#.....d......
004053B0 C3 90 69 89 F0 00 BE 0A C2 EE 00 22 23 A1 F1 00 ..i........"#...
004053C0 17 83 40 5A C8 1E 00 BD 26 00 9E 9B 28 DE 0C 54 ..@Z....&...(..T
004053D0 7B 0D C0 CE 00 0D FF 1C 00 25 9C 36 55 FA 28 A2 {........%.6U.(.
004053E0 D8 DE FF FD 1D A4 93 00 1B A8 11 CB FF 20 EC 84 ............. ..
004053F0 8E E7 8F 22 56 9E 90 96 E3 7E D9 20 FD 7B C9 00 ..."V....~. .{..
00405400 0A 36 20 BD 9F C3 38 E8 00 A1 6E 1F 97 54 3F 7D .6 ...8...n..T?}
00405410 4B FE DA E5 5C 3C 00 41 44 3C FC C5 FF 51 A2 64 K...\<.AD<...Q.d
00405420 5C 02 A5 D0 1E D7 D0 56 E9 77 C5 AE 1E 85 FF 04 \......V.w......
00405430 06 70 00 05 4F F0 E0 1E 07 80 B7 00 80 B0 05 41 .p..O..........A
00405440 48 00 34 FF 86 DF 28 F1 12 84 CE 00 00 34 7C 2D H.4...(......4|-
00405450 00 8A DF 00 37 74 FF F9 82 7D 82 FF C9 D9 63 FD ....7t...}....c.
00405460 FC 80 86 81 5A 00 BE 9D EE 00 FA 4F C3 7B 70 69 ....Z......O.{pi
00405470 80 3A 00 06 00 B5 A0 0B 4D C0 FF 00 D1 6C 00 D4 .:......M....l..
00405480 0C 0C C8 00 D4 7C 58 F6 B4 4E 93 8D 54 72 00 1B .....|X..N..Tr..
00405490 00 4D EE 98 96 0C 28 00 A0 DE BF F7 FF 5B 8E 5C .M....(......[.\
004054A0 61 BF 6C A9 CF C1 E1 00 23 B7 C1 30 EC 3E 31 94 a.l.....#..0.>1.
004054B0 19 6B 00 00 38 09 75 84 FF 8F 58 33 FF 0F BA 1F .k..8.u...X3....
004054C0 09 13 5F 72 00 F8 74 13 82 FF DE 1C D3 FC FF 42 .._r..t........B
004054D0 36 00 FF 00 62 00 EF CB E0 C2 9C 38 00 50 91 F9 6...b......8.P..
004054E0 00 26 3C 27 7B B1 00 92 7F EE 14 02 0C C0 FF 68 .&<'{..........h
004054F0 FF F6 E0 35 49 00 B3 02 00 03 00 00 C9 60 21 00 ...5I........`!.
00405500 74 D0 7C BD 11 00 B4 09 61 57 50 FF A3 D4 23 D5 t.|.....aWP...#.
00405510 00 00 D7 BD 35 FA E2 FE 06 6D ED E4 38 B3 6E 00 ....5....m..8.n.
00405520 38 0F 00 F5 00 00 28 CE BB 6A 48 FF B4 D7 4C 00 8.....(..jH...L.
00405530 05 0C D2 68 00 1E 0F 10 00 DC 00 BC FF E3 74 8B ...h..........t.
00405540 8F 7E 10 06 00 6E 12 23 BE 00 58 A4 6B 6E E3 B6 .~...n.#..X.kn..
00405550 93 61 B6 44 5A B0 FA 13 72 E2 00 00 EC F9 FA 8B .a.DZ...r.......
00405560 DE C4 55 62 A1 00 50 F7 37 A8 49 73 CE 7E E6 4A ..Ub..P.7.Is.~.J
00405570 FF 29 1F C5 70 00 83 F9 11 7A 00 D8 7D 62 4B 30 .)..p....z..}bK0
00405580 96 9A FD 00 9B 89 EB 8B 55 06 00 36 B2 00 D9 4E ........U..6...N
00405590 1A 7F F4 9F B8 98 1A 67 FF F9 4E AE 37 EE 8D 00 .......g..N.7...
004055A0 00 00 63 D6 92 42 77 00 74 00 00 62 EC 0A 63 41 ..c..Bw.t..b..cA
004055B0 2C ED 56 98 FF A2 DF 13 00 36 00 29 14 69 3E 09 ,.V......6.).i>.
004055C0 B3 59 3C 61 87 F7 5E 89 00 36 E3 00 B2 C8 F7 62 .Y<a..^..6.....b
004055D0 C8 00 7F AE FC 3F FF EF 65 9D 98 FF 67 50 00 5C .....?..e...gP.\
004055E0 3F A6 98 FD 7A 35 A3 54 B4 12 66 CF 85 60 03 2B ?...z5.T..f..`.+
004055F0 07 D8 E4 55 EA 3F 47 FF 05 CF 4E 80 4B 62 F3 52 ...U.?G...N.Kb.R
00405600 FF FF 40 04 CD A9 4B BC 31 58 FE 64 90 81 66 91 ..@...K.1X.d..f.
00405610 2A 38 79 BC 6B C3 E7 0D FC 82 FF FD D8 00 62 39 *8y.k.........b9
00405620 D9 C8 01 53 22 16 83 00 01 AD E0 C9 79 DE 21 B3 ...S".......y.!.
00405630 AD E6 F1 89 3C 83 D1 59 E8 80 8C A4 14 01 81 DF ....<..Y........
00405640 9D A1 63 03 FF D5 00 5B 00 13 94 00 B5 E6 9E 2D ..c....[.......-
00405650 00 8D 80 87 32 ED 16 06 10 00 5D 1B F3 56 FC 9A ....2.....]..V..
00405660 AC 00 00 FB 99 00 66 00 00 00 33 24 2E 66 8E 6C ......f...3$.f.l
00405670 F7 86 3B FF 06 E8 D9 7E 8D 02 60 54 80 C2 C9 20 ..;....~..`T... 
00405680 CB FF 13 03 96 AA B3 03 82 00 35 2E 78 54 22 36 ..........5.xT"6
00405690 17 A3 52 0D E5 00 93 00 9C 1F 3E D3 9E 0B 16 08 ..R.......>.....
004056A0 E4 3C F7 C0 84 B7 C6 72 01 93 9F 09 78 00 00 61 .<.....r....x..a
004056B0 1B 1F 00 FF E8 83 A2 0F 2F 4E 7C 81 7E 80 00 C1 ......../N|.~...
004056C0 F0 00 D5 7F DA 98 FF F3 E6 1E 9C 45 07 C6 44 FB ...........E..D.
004056D0 D2 AF 00 20 32 EF 01 B1 15 00 5F 4A 00 E4 D5 92 ... 2....._J....
004056E0 F7 C7 DA 7A FF FF 75 F3 EB CE 88 AF 1F F8 DB AF ...z..u.........
004056F0 EF 07 28 17 FF 7E 57 FF 3F 34 00 00 68 2B 25 FB ..(..~W.?4..h+%.
00405700 3F 7E 01 61 A4 E4 D9 00 04 FF 00 BF 00 38 00 B9 ?~.a.........8..
00405710 70 F0 E6 A6 CB F4 67 89 61 89 EA 00 00 80 CC 7B p.....g.a......{
00405720 0E 02 F5 B5 54 0A 6A 00 DE D6 9F CC 3C 01 17 47 ....T.j.....<..G
00405730 FF EF 84 0E AF 12 C7 17 A6 01 12 E4 DC 3A 55 D3 .............:U.
00405740 72 D2 0D E5 A7 6F 0C 1D C6 36 E0 62 39 A0 55 22 r....o...6.b9.U"
00405750 9F 12 D1 C0 B6 43 04 88 D5 CB 99 00 2B 1A 0A 00 .....C......+...
00405760 2A 09 84 79 DA 00 00 9D 3E 41 8D DE FF 9F 81 AE *..y....>A......
00405770 5F 00 13 D0 E9 C8 86 F3 73 8A 9A 00 FF E6 95 1E _.......s.......
00405780 8A EC 32 00 52 B6 CE 62 BB 8E C5 00 39 00 2E 28 ..2.R..b....9..(
00405790 04 DC AF D2 2B 43 92 49 CB FA 31 FF 73 DF FF 79 ....+C.I..1.s..y
004057A0 C4 72 27 EB A8 00 71 45 00 21 49 E8 6D 61 8E EC .r'...qE.!I.ma..
004057B0 34 FF 14 BD EE 43 B4 83 46 00 00 8B 5F 64 30 0F 4....C..F..._d0.
004057C0 C1 05 5C DF 00 1B E1 00 C1 2D 00 EF 12 AE CF 11 ..\......-......
004057D0 A3 55 A9 00 2E AE C1 E2 30 02 00 5A 83 F3 C1 8E .U......0..Z....
004057E0 2D 05 00 38 58 63 F9 C6 A4 00 50 04 88 EF AF 90 -..8Xc....P.....
004057F0 9A CC EF EF F4 E7 0B 79 E3 CE EE 42 30 14 7F 00 .......y...B0...
00405800 DA 25 ED C1 00 4E 84 04 BD E5 6B 40 E9 00 F1 C6 .%...N....k@....
00405810 FF 8F 00 60 03 0B 04 0D FE 97 C3 17 00 32 51 D5 ...`.........2Q.
00405820 FF 4A 78 00 CF C5 05 00 E3 F5 C5 88 8A 6A 00 15 .Jx..........j..
00405830 94 A2 00 D9 10 00 65 A8 30 27 00 45 F7 CE 4F AB ......e.0'.E..O.
00405840 66 96 00 F8 E7 62 6E 57 3F 0E 3D 65 0D 22 97 13 f....bnW?.=e."..
00405850 00 00 34 B3 2C CB D4 00 20 00 FF B3 25 D3 41 AE ..4.,... ...%.A.
00405860 C6 26 C1 E8 67 8F AD 8D 32 00 FE E1 27 D1 2D E7 .&..g...2...'.-.
00405870 6A FA 00 C7 38 0C 6D FE 00 6A 3C E7 C2 39 07 E8 j...8.m..j<..9..
00405880 FF 4F 1D FF 3D 4E 6B 89 00 00 00 F1 5C 00 00 62 .O..=Nk.....\..b
00405890 62 80 FA 50 02 B1 00 00 00 03 00 E5 E3 FF F9 06 b..P............
004058A0 93 14 93 96 00 13 99 97 FB 25 1D 3F D9 00 EE 0B .........%.?....
004058B0 A5 19 F1 B7 BA FF 00 00 C9 50 9C 00 8E 57 00 BC .........P...W..
004058C0 00 36 1C ED 79 82 0A 35 40 93 E7 E9 F8 B9 F6 00 .6..y..5@.......
004058D0 7B 17 8A C3 27 B0 DB 85 CE AD 00 5B 75 42 3A 76 {...'......[uB:v
004058E0 26 90 24 B3 78 30 41 00 60 68 B6 EC 40 02 C3 DF &.$.x0A.`h..@...
004058F0 A7 F6 BA 3C FE FF 59 3D 00 BA 60 7F 81 A4 00 B8 ...<..Y=..`.....
00405900 EC 8D 1E 00 EA 7A 48 06 0F 4F 1C B8 B4 00 C0 FD .....zH..O......
00405910 23 9D C2 82 AC 8C BE 78 4B CC 0D C0 14 BA 9E 72 #......xK......r
00405920 E5 FF 00 13 00 50 00 9F 00 1E 13 FF FF EA 08 F1 .....P..........
00405930 52 74 91 8C 69 00 00 29 30 A5 C9 00 79 FF 66 00 Rt..i..)0...y.f.
00405940 64 03 00 00 99 AD BC D2 E1 A3 72 AE FC 51 00 00 d.........r..Q..
00405950 FF FE 60 08 00 B8 00 33 53 5A 3D EA DA 32 76 CE ..`....3SZ=..2v.
00405960 93 FB 5A EA EF 77 A7 48 FF BD 33 00 09 EF D8 40 ..Z..w.H..3....@
00405970 00 81 00 AF CA 00 DB 6E 00 0D 86 7C 63 00 A9 A3 .......n...|c...
00405980 A2 AF F2 80 51 AD 43 1C FF F3 FF 39 72 00 DE C3 ....Q.C....9r...
00405990 FF 09 4D 7C 48 2B F7 A4 BE C2 85 78 04 00 1E 31 ..M|H+.....x...1
004059A0 46 97 10 00 A1 47 32 00 8D EF B7 22 DE 09 01 E6 F....G2...."....
004059B0 DE FF 56 00 B8 56 9C 00 83 00 00 0B 01 49 96 00 ..V..V.......I..
004059C0 00 D1 F7 1C 3C C8 0B 00 7A 2C 00 00 00 5A E9 B1 ....<...z,...Z..
004059D0 AD FB 33 FF FF DC 91 1F 61 3E 71 A1 D1 F1 00 37 ..3.....a>q....7
004059E0 B3 E6 D4 00 00 31 18 43 C2 00 00 C9 39 00 D4 26 .....1.C....9..&
004059F0 AB 02 B0 7E BD 4E 2F FE E7 0D 0C 19 4B F9 00 00 ...~.N/.....K...
00405A00 E4 FF 33 12 44 1B D1 E5 00 7E F2 B3 A6 A8 0B DC ..3.D....~......
00405A10 30 2E 00 4B EF 1D 91 00 00 BE 6A 77 1D 17 B9 10 0..K......jw....
00405A20 00 26 00 78 88 00 3B 40 9F 63 0F F3 F3 72 A0 14 .&.x..;@.c...r..
00405A30 84 18 7C AE 25 B4 56 28 79 56 40 31 9C F3 00 E0 ..|.%.V(yV@1....
00405A40 83 00 32 21 91 05 00 EB EF 6D 0E BC 78 7F 00 7F ..2!.....m..x...
00405A50 CC 8B 90 00 75 FF 00 18 00 48 FE F6 96 00 05 FF ....u....H......
00405A60 CE 52 86 FC 00 4A 8D 0B 00 20 00 2B E1 8A C4 0C .R...J... .+....
00405A70 84 E8 4E FF 1E 0C 48 18 00 BD 76 00 07 FC 34 AC ..N...H...v...4.
00405A80 B7 9B EB 00 59 FA BC 00 E2 6B FB 4F 15 4C E7 2D ....Y....k.O.L.-
00405A90 13 B3 F0 E4 3A ED FA 57 DF 8D 28 FF 02 00 BB D7 ....:..W..(.....
00405AA0 57 41 E5 3E 00 6A 2E 0B 8A 85 75 0E FD 9F 00 A0 WA.>.j....u.....
00405AB0 00 E8 3D E3 3B 96 C4 4B C2 23 8C 55 80 30 00 11 ..=.;..K.#.U.0..
00405AC0 00 D8 BF 71 01 74 C4 44 68 00 FE FF EE 00 1A 61 ...q.t.Dh......a
00405AD0 FF 11 03 6F 1D 88 F7 3C DB 85 6E 1F 3C B6 EF 61 ...o...<..n.<..a
00405AE0 71 CD 00 E6 33 D3 00 6D B2 E1 18 20 FF 76 E7 FD q...3..m... .v..
00405AF0 17 00 C2 00 AE 00 FF 73 66 31 9B 23 7C 02 FF 3F .......sf1.#|..?
00405B00 F7 07 38 00 48 33 00 C5 28 17 BC F3 9B 28 9C 78 ..8.H3..(....(.x
00405B10 01 7F C0 22 CF 6E 00 70 49 EA C7 D9 FF 18 FF FF ...".n.pI.......
00405B20 AD 1F 00 DB B5 83 8E 61 DF 42 53 90 A0 A5 09 5C .......a.BS....\
00405B30 B3 36 72 80 CF 08 9A 5E 92 68 57 D9 00 BC 00 00 .6r....^.hW.....
00405B40 64 4E C9 BE 69 16 2C 13 D2 00 95 2B 28 76 83 4D dN..i.,....+(v.M
00405B50 E4 30 45 0B 9E 20 00 98 70 C1 AF AC 51 E9 00 D4 .0E.. ..p...Q...
00405B60 37 80 38 81 69 0D 00 8D FF 6C 82 79 79 EA FF B4 7.8.i....l.yy...
00405B70 32 61 00 83 3A 0D C8 0E 00 83 F7 30 1E 29 79 C6 2a..:......0.)y.
00405B80 0E 57 48 0E EB B9 21 D6 85 00 CC 41 36 00 C7 FF .WH...!....A6...
00405B90 92 3B 01 86 6D 85 AB 43 9C 01 BB B8 26 25 00 FB .;..m..C....&%..
00405BA0 20 27 0B FF 6E CF 82 6B C8 73 42 88 8F 51 30 F9  '..n..k.sB..Q0.
00405BB0 F3 D8 1C 00 DA 02 00 00 FF E2 99 B8 44 02 00 81 ............D...
00405BC0 09 00 A7 7F DF BD 95 00 7A 00 3C FF 00 B3 EE 05 ........z.<.....
00405BD0 5B F5 0C 00 CE 75 B0 F4 72 00 24 8F 76 72 64 00 [....u..r.$.vrd.
00405BE0 02 00 4C 85 8C FB 83 F2 40 6C DB 9D D3 3F 08 08 ..L.....@l...?..
00405BF0 15 47 00 EF D9 24 15 3C 7F 10 E0 D2 13 66 3B 40 .G...$.<.....f;@
00405C00 58 D2 96 4B 0A E2 9E C0 D4 47 00 76 FF 22 84 A4 X..K.....G.v."..
00405C10 98 C7 08 11 66 D8 1A 9C FF 3A 00 00 05 4C AD 6E ....f....:...L.n
00405C20 85 94 E3 86 DD 95 F3 08 C0 E2 70 A5 00 FF 20 F4 ..........p... .
00405C30 FC 00 0D 77 1A F6 00 37 2D 22 EF 00 16 F0 63 A7 ...w...7-"....c.
00405C40 A5 05 D2 40 94 00 D3 69 7B E7 1F E1 33 52 3F BB ...@...i{...3R?.
00405C50 F9 00 2C AB ED 64 6E 2E 0C 95 08 10 6C 66 EE 5A ..,..dn.....lf.Z
00405C60 A4 68 E2 59 8A FF 66 FF 06 5D B9 DE 14 39 79 94 .h.Y..f..]...9y.
00405C70 8F 10 B7 18 D7 00 08 75 10 E4 C2 04 15 5B CE 00 .......u.....[..
00405C80 A8 98 DE C9 83 E0 00 42 40 B8 78 2D D6 6E 61 2B .......B@.x-.na+
00405C90 23 7F A5 A1 F4 2F 15 00 28 29 41 20 00 91 9D 82 #..../..()A ....
00405CA0 03 78 33 A8 C4 38 5C 2E 4C A3 13 27 E4 8C 02 00 .x3..8\.L..'....
00405CB0 5D 28 00 92 B2 FF 40 E1 00 00 6C E1 71 77 87 F0 ](....@...l.qw..
00405CC0 F0 A6 A2 5A 6E 02 EF 23 20 00 00 8F B9 0C 05 A7 ...Zn..# .......
00405CD0 D4 0B 5B B1 0E 5D 28 BE 00 09 B7 58 FF 00 7B 78 ..[..](....X..{x
00405CE0 00 FF 27 3A 9D 00 D8 5E 90 0C A9 F5 59 00 FF E7 ..':...^....Y...
00405CF0 7C 85 7B C7 E6 A8 4A 63 FC 12 00 BE 22 78 90 BA |.{...Jc...."x..
00405D00 40 00 38 7A CD EA 00 02 58 FA 7F 00 FF 21 39 85 @.8z....X....!9.
00405D10 9B 80 FF 97 64 92 F3 C2 12 07 44 50 C3 10 FF 00 ....d.....DP....
00405D20 1F D7 22 42 00 E4 FF 7D 00 9F 22 D6 D9 03 56 C7 .."B...}.."...V.
00405D30 FF 00 81 48 83 A2 96 F0 00 AE 81 94 41 56 86 A6 ...H........AV..
00405D40 41 59 18 AD 0F 00 B0 6E F4 BB 48 48 FF 3B 00 30 AY.....n..HH.;.0
00405D50 C0 86 33 FB 00 EF 44 99 95 00 DF 4D 13 C2 C9 C5 ..3...D....M....
00405D60 E0 A2 2F 00 38 D8 07 25 8E 84 EC 00 99 03 F8 48 ../.8..%.......H
00405D70 3B 75 09 89 E1 99 90 7F 03 9F 01 D0 B4 FF ED 00 ;u..............
00405D80 90 10 79 F0 ED B5 20 5C 00 5A 3E 9A 1C 75 C0 00 ..y... \.Z>..u..
00405D90 00 C0 0A BF 0E 00 00 00 38 E6 F0 63 9B 3C 17 64 ........8..c.<.d
00405DA0 FE 3B E9 4D 0F 0D 1D 68 99 34 AE BD EA AC 59 15 .;.M...h.4....Y.
00405DB0 05 7F 1A 69 07 74 F0 47 1F FB A3 86 F4 07 06 00 ...i.t.G........
00405DC0 00 E9 92 03 49 D9 0C B7 4D 9D 20 00 53 C5 C5 2B ....I...M. .S..+
00405DD0 24 F6 5F 50 21 58 00 51 EA A7 60 F9 C8 08 05 14 $._P!X.Q..`.....
00405DE0 FA 00 D0 00 C7 E0 00 56 0D 3B 00 97 A6 00 00 1E .......V.;......
00405DF0 C0 D1 FE AD CE E1 E8 00 65 87 DF C5 30 A7 E0 FF ........e...0...
00405E00 00 B8 C5 EA FF 00 33 1C E8 78 23 FB 07 F8 08 FB ......3..x#.....
00405E10 9E 9B E5 90 15 A3 C2 95 A0 89 A6 01 1E 9B 2B D4 ..............+.
00405E20 98 FF 00 77 30 84 61 00 3C 7E 00 EA 2D 00 21 79 ...w0.a.<~..-.!y
00405E30 F8 7F C7 97 40 FF CF 14 00 38 3F FF D0 08 00 36 ....@....8?....6
00405E40 18 F2 E8 CD 31 1B FF 09 DC F9 1A 00 4D 11 41 0D ....1.......M.A.
00405E50 95 C7 8C 26 93 AD FE 37 00 01 37 FD 30 00 00 18 ...&...7..7.0...
00405E60 98 73 2F CB F6 0D F4 80 8A 00 D1 F9 1E 07 6D 5B .s/...........m[
00405E70 E5 00 4E 00 3C DE C1 01 A1 F8 5B 87 00 19 94 56 ..N.<.....[....V
00405E80 71 BE 2C FA 1F 10 9E 46 E9 DD 00 C9 81 17 86 3B q.,....F.......;
00405E90 00 8F 4C CC 64 9B 82 BD E9 B2 FB 21 40 5F FA 25 ..L.d......!@_.%
00405EA0 9B 8C 10 A8 87 F5 FF 40 E4 00 FA 00 40 5F A0 14 .......@....@_..
00405EB0 67 D9 82 00 1D 5A AE 8E 95 72 C0 FF D9 38 36 8B g....Z...r...86.
00405EC0 25 C6 A5 D3 B3 0F 08 06 C0 73 00 FC AF 00 F1 08 %........s......
00405ED0 39 AE B3 00 3C 61 C3 00 00 FF 77 9D 0B 6D 67 84 9...<a....w..mg.
00405EE0 17 9A D6 9F 1E 25 F7 3E 46 C6 E0 51 38 FD 6C 9B .....%.>F..Q8.l.
00405EF0 00 E7 7B 28 00 DB 00 00 85 1F 49 00 C7 00 00 C1 ..{(......I.....
00405F00 CB D8 00 52 DC FD D5 40 74 7F 5A 4C 72 E2 00 86 ...R...@t.ZLr...
00405F10 00 81 E3 41 CE 5C 04 15 FE 13 E0 00 61 75 9F 9B ...A.\......au..
00405F20 95 E9 B2 F0 83 1C 5F 05 C4 BF 00 A8 F5 47 B9 57 ......_......G.W
00405F30 E2 DD 00 83 BF 22 0C E1 92 AE DF F8 81 FF A4 7B .....".........{
00405F40 00 CA E4 82 73 8C 0C 6B 0F AC FF D0 5A 88 DB 94 ....s..k....Z...
00405F50 00 17 F1 07 70 8A 39 00 E2 64 00 05 00 CB 20 00 ....p.9..d.... .
00405F60 61 00 C8 EC FF C3 30 D8 30 82 3A B2 A5 C5 0E F0 a.....0.0.:.....
00405F70 3B FF 26 D1 64 9B 4C 47 FF FF 91 FD 02 72 B1 D3 ;.&.d.LG.....r..
00405F80 C5 67 05 FF 37 00 40 A0 12 00 42 76 B8 5C DD 8C .g..7.@...Bv.\..
00405F90 27 59 7A 56 00 F2 E9 DF 00 A9 00 C0 89 00 CF 72 'YzV...........r
00405FA0 00 00 63 1C FF 41 16 DA 4D 1A A3 9F 92 BC 42 84 ..c..A..M.....B.
00405FB0 00 3C 26 78 00 A1 C7 34 12 79 70 00 3D 86 A7 F7 .<&x...4.yp.=...
00405FC0 FF F2 CD CF 18 4F 74 2C 59 A4 20 EE 1A 9B 43 9C .....Ot,Y. ...C.
00405FD0 C1 89 08 0D A7 F7 4C 00 2C 42 38 00 00 00 83 00 ......L.,B8.....
00405FE0 6B 00 C7 98 E8 1F 8B 71 43 91 0D 98 45 00 D7 FC k......qC...E...
00405FF0 37 00 F0 8C FF 00 20 4E 40 00 00 B5 00 00 FF 00 7..... N@.......
00406000 16 00 A9 9E 0E 42 E0 A3 00 00 00 10 84 96 99 4B .....B.........K
00406010 B9 00 00 22 46 00 C5 95 78 FE B1 5B 29 0A 43 FF ..."F...x..[).C.
00406020 FD 0B ED E7 B4 FF 00 5C FF 8C D8 7C 00 00 DE 6F .......\...|...o
00406030 69 55 B0 90 DE 30 00 A0 B3 D8 C5 00 03 32 18 A9 iU...0.......2..
00406040 71 0D CD 37 3A E4 6A 0C FF F7 D8 40 EC 8F 00 65 q..7:.j....@...e
00406050 8A 58 00 00 28 96 CF 1B 00 AB 60 FF 4E A3 2D 4B .X..(.....`.N.-K
00406060 F1 0E EA CF CE E7 1F 42 6E 45 03 8D B7 7B 50 8D .......BnE...{P.
00406070 34 70 84 A8 05 00 EB C3 61 87 50 46 0F 54 FC FF 4p......a.PF.T..
00406080 EA B5 30 EC 3E A2 FF 49 F1 18 87 44 B9 8A D4 FC ..0.>..I...D....
00406090 B5 11 00 1C 00 F7 B8 92 19 00 31 F6 EF 00 43 4E ..........1...CN
004060A0 A6 AE 58 04 6C C4 AD 5B 7C 25 00 18 03 C9 30 00 ..X.l..[|%....0.
004060B0 00 38 10 00 45 00 9A 00 7F 72 69 72 14 00 00 00 .8..E....rir....
004060C0 1A 75 69 60 59 BE 00 03 7F 44 FE FF A5 0D 1B E9 .ui`Y....D......
004060D0 09 C0 AB 84 35 F6 FA C0 63 5C 98 00 10 FB 0D 9C ....5...c\......
004060E0 00 B0 86 43 6D FF F9 1D DB E0 40 00 4C 00 00 25 ...Cm.....@.L..%
004060F0 6A 1B 57 00 47 8C 42 65 E7 A9 C4 FC 00 54 0E 43 j.W.G.Be.....T.C
00406100 44 A1 BE FF DB B3 CC FE 6C 44 21 4C F3 A5 00 18 D.......lD!L....
00406110 78 00 78 D6 74 FF 45 DD 3F 52 00 61 B7 10 58 44 x.x.t.E.?R.a..XD
00406120 E1 FF FD B8 DD A1 20 A5 E7 4C A1 8B BB 00 35 33 ...... ..L....53
00406130 99 00 A3 4C EB 2D 00 8A 28 00 75 EC 1B EE 2E AF ...L.-..(.u.....
00406140 F3 B9 09 F4 96 B7 0C 00 31 21 7D A5 00 2E 18 7B ........1!}....{
00406150 A5 5A D1 F2 C8 1C 34 9B EE 13 20 CE 90 44 FF AA .Z....4... ..D..
00406160 0A C0 C7 1E 07 0E 0E 48 9D CF FF A2 44 00 CF E0 .......H....D...
00406170 FF A4 00 69 00 40 89 D7 02 38 C0 3D 16 00 74 00 ...i.@...8.=..t.
00406180 FE 8F 8B 1B 66 9B 03 4D F3 14 C3 64 56 80 52 9D ....f..M...dV.R.
00406190 48 51 8B 74 30 7C 1C 6D 7C 1C 00 C0 8D 57 0C 8D HQ.t0|.m|....W..
004061A0 6F F0 00 ED 00 78 50 67 D8 E6 2F 00 78 FD 1C 3F o....xPg../.x..?
004061B0 00 05 E7 00 B9 9C 58 00 53 05 51 F7 82 62 89 91 ......X.S.Q..b..
004061C0 0D 82 E4 9B 23 1D B8 FD FF 7B 59 FE 98 8F A2 79 ....#....{Y....y
004061D0 F8 C9 C9 8D CD FA F9 DC 2F 00 B7 00 9D C3 08 8B ......../.......
004061E0 C4 D7 20 1A 99 E7 00 09 00 00 BA 00 29 4C FF 9A .. .........)L..
004061F0 00 2C 22 01 D8 FF 38 25 BD FC BB D5 00 8D 07 78 .,"...8%.......x
00406200 EA 34 F3 27 36 EB A2 00 48 2E 04 97 00 00 5B B2 .4.'6...H.....[.
00406210 02 47 C2 00 AE E2 EC 8C BF B6 54 0C 26 00 00 F8 .G........T.&...
00406220 4C FF D0 E1 00 00 B4 61 E7 10 2D BA 32 27 3A 30 L......a..-.2':0
00406230 4F A1 96 87 00 D9 F8 3C 70 B7 ED 46 84 63 CB 88 O......<p..F.c..
00406240 CF 87 30 5C EC CC 2D 73 81 0F 85 F6 00 00 00 4D ..0\..-s.......M
00406250 FF B8 78 00 E0 DC B5 62 26 00 00 4C EF 00 F8 35 ..x....b&..L...5
00406260 BD DF C1 13 FA 8E FF 5F 1B 06 00 6B 09 26 42 27 ......._...k.&B'
00406270 0A CC 8A A6 00 2D 5A 83 35 96 ED 00 00 CC 87 8C .....-Z.5.......
00406280 00 35 9F 00 5B 8B 73 71 1B 0B 3C 3E FF C1 02 D0 .5..[.sq..<>....
00406290 25 90 4D 00 48 E0 0B CE 39 FF 41 BB 81 00 00 00 %.M.H...9.A.....
004062A0 D5 00 C3 98 FF 1D 3D 9F 49 B2 60 15 CD C5 CC AD ......=.I.`.....
004062B0 FF 0E 42 03 91 F7 7E F1 68 B7 99 C2 8F 73 6A 24 ..B...~.h....sj$
004062C0 A8 CF FC 86 34 F6 38 CE 00 4B 9F 00 8C 4C 2B 00 ....4.8..K...L+.
004062D0 00 00 00 66 00 E2 60 4B FD 3F 74 B9 E2 00 62 FF ...f..`K.?t...b.
004062E0 CF 96 00 AA 3F 8B FD EE FF FE 6A 23 95 04 F7 6B ....?.....j#...k
004062F0 06 F2 08 D2 90 8D 4F 71 80 5B 8C 42 F8 F8 DF 40 ......Oq.[.B...@
00406300 A8 AF FB 33 85 A1 72 00 9C 00 F7 6E 05 32 0D 66 ...3..r....n.2.f
00406310 E1 29 89 5D F9 00 08 1A 8E 01 F1 48 C7 09 58 CC .).].......H..X.
00406320 B4 A7 F8 00 79 FD 74 00 FA 97 07 64 43 FF EF EF ....y.t....dC...
00406330 7B 63 9D 00 7B CF 00 DB 97 00 D6 00 91 1D 11 41 {c..{..........A
00406340 0D 22 02 28 B5 CD F1 7D FF F5 E4 74 27 EC B2 14 .".(...}...t'...
00406350 00 E7 FF C4 AD FF 0D 19 A9 78 31 85 CB 9E FC 22 .........x1...."
00406360 A7 F2 E4 17 E4 94 32 31 FC FF FB E1 11 CD EF FF ......21........
00406370 5F 6C 5D 5C 38 00 42 0C 13 33 FF 79 C4 EE E4 7C _l]\8.B..3.y...|
00406380 51 8B E2 40 FF 54 C7 88 00 68 2A 00 00 97 00 FF Q..@.T...h*.....
00406390 00 BB 47 82 FF 66 41 CB B3 B4 5D F5 96 2E BD BC ..G..fA...].....
004063A0 EF 63 00 40 2F 4B 6C C1 D0 5A 8E 85 08 F3 32 FF .c.@/Kl..Z....2.
004063B0 01 00 FF A7 48 2C F1 1E C7 AF F3 81 49 21 00 8B ....H,......I!..
004063C0 E1 21 85 00 FF BD A8 ED 8F 00 AB D6 7E 98 94 00 .!..........~...
004063D0 D4 00 0C 14 0E 00 C5 26 FF 9E FF 33 D4 60 EF 5B .......&...3.`.[
004063E0 00 FF 00 CB 4C FF 80 2F AE 38 01 BF 00 5B F5 47 ....L../.8...[.G
004063F0 00 00 66 11 75 FE CB 58 46 E7 00 B7 EC BC 3C 00 ..f.u..XF.....<.
00406400 64 00 FF E5 E6 11 68 9F 61 45 08 00 00 00 0D 87 d.....h.aE......
00406410 00 E0 A5 8E 6C 80 CB E9 B5 30 3A 30 00 4A 00 02 ....l....0:0.J..
00406420 1A 00 00 CE F1 52 68 2E BE 93 08 A0 00 6E FF FA .....Rh......n..
00406430 93 D1 52 3F 2E 23 2E AF 00 61 7C 6E 00 BC 8B 5E ..R?.#...a|n...^
00406440 2A 5A 00 00 79 FF B1 7C D0 03 23 11 4D 75 50 FF *Z..y..|..#.MuP.
00406450 00 86 5D FF 00 00 F7 8B 7C 85 51 70 E2 46 4B 00 ..].....|.Qp.FK.
00406460 2E 00 50 00 C2 4B 8E 9C 00 C4 BC E0 FF 0B 50 00 ..P..K........P.
00406470 00 7F 87 E2 10 81 6C D9 CB 74 20 FF 38 E5 B4 00 ......l..t .8...
00406480 AC ED 91 24 02 00 B5 06 92 A7 C3 ED A1 FF 2E C1 ...$............
00406490 65 06 8E FF 71 00 C5 11 5C 74 DB 76 DA 17 77 00 e...q...\t.v..w.
004064A0 FB 70 CE 0C C4 D6 71 D4 35 09 FF EB 21 E0 92 00 .p....q.5...!...
004064B0 37 00 93 DB 92 04 8E 83 01 0B 74 4D 18 71 FC CD 7.........tM.q..
004064C0 6E 00 23 6B 46 00 16 A0 00 0E 4E FF 68 C4 00 01 n.#kF.....N.h...
004064D0 5D 54 10 19 5C 6D 04 C7 D6 1D 3C B4 EC FF 1C 61 ]T..\m....<....a
004064E0 D1 92 00 8B 36 D7 08 15 1B 8D 00 82 80 8F 14 01 ....6...........
004064F0 60 00 11 AB 46 00 DF EA CA 0E 00 12 B6 A2 ED 69 `...F..........i
00406500 00 0A C1 FF E4 56 40 A1 AC 00 83 B1 4F 00 0A 20 .....V@.....O.. 
00406510 18 D0 EB 0E 73 1B 61 C7 00 62 FF 00 A2 85 DF 29 ....s.a..b.....)
00406520 0C E4 EB C8 54 28 84 CE 92 FA 3D F4 E5 25 04 15 ....T(....=..%..
00406530 CF 53 ED 6C 00 D2 D9 11 16 00 8D 80 00 C7 C8 26 .S.l...........&
00406540 C7 C0 6D 82 E0 00 27 EE 00 99 ED 24 00 21 00 16 ..m...'....$.!..
00406550 36 4C 25 BA C0 40 C0 00 81 FD 08 BE 87 C4 F6 18 6L%..@..........
00406560 D7 F5 BF DF CC 95 7A 1B FB E4 00 F3 88 0B ED 2E ......z.........
00406570 52 4D 1B 04 44 A8 21 A8 BA 40 CA DB E3 00 EC D1 RM..D.!..@......
00406580 CC 9E 19 0F F5 08 95 FC 1D 3B 94 62 FF 46 0F A8 .........;.b.F..
00406590 1E 00 A9 29 17 7A 56 3D 10 B9 06 89 F7 F6 00 00 ...).zV=........
004065A0 59 70 61 C1 52 78 72 8E 00 45 64 3B D9 BD 7C C2 Ypa.Rxr..Ed;..|.
004065B0 BA 00 40 00 B0 86 42 D4 D2 F0 7B BF 50 C1 FC 32 ..@...B...{.P..2
004065C0 98 3F FC C9 39 30 BA FF C1 10 C6 3C 30 D6 85 ED .?..90.....<0...
004065D0 0A 49 2D 75 6F 52 8E 94 31 F2 7A 08 6D C6 4F 46 .I-uoR..1.z.m.OF
004065E0 A7 AA EC 5B 72 FD 78 C7 28 C7 F1 30 DA 5C 99 10 ...[r.x.(..0.\..
004065F0 AA 00 4D C7 00 00 1B DD 00 67 EF F4 00 11 91 45 ..M......g.....E
00406600 00 00 00 00 00 00 00 00 00 00 00 00 00 00 00 00 ................
00406610 00 00 00 00 00 00 00 00 00 00 00 00 00 00 00 00 ................
00406620 00 00 00 00 00 00 00 00 00 00 00 00 00 00 00 00 ................
00406630 00 00 00 00 00 00 00 00 00 00 00 00 00 00 00 00 ................
00406640 00 00 00 00 00 00 00 00 00 00 00 00 00 00 00 00 ................
00406650 00 00 00 00 00 00 00 00 00 00 00 00 00 00 00 00 ................
00406660 00 00 00 00 00 00 00 00 00 00 00 00 00 00 00 00 ................
00406670 00 00 00 00 00 00 00 00 00 00 00 00 00 00 00 00 ................
00406680 00 00 00 00 00 00 00 00 00 00 00 00 00 00 00 00 ................
00406690 00 00 00 00 00 00 00 00 00 00 00 00 00 00 00 00 ................
004066A0 00 00 00 00 00 00 00 00 00 00 00 00 00 00 00 00 ................
004066B0 00 00 00 00 00 00 00 00 00 00 00 00 00 00 00 00 ................
004066C0 00 00 00 00 00 00 00 00 00 00 00 00 00 00 00 00 ................
004066D0 00 00 00 00 00 00 00 00 00 00 00 00 00 00 00 00 ................
004066E0 00 00 00 00 00 00 00 00 00 00 00 00 00 00 00 00 ................
004066F0 00 00 00 00 00 00 00 00 00 00 00 00 00 00 00 00 ................
00406700 00 00 00 00 00 00 00 00 00 00 00 00 00 00 00 00 ................
00406710 00 00 00 00 00 00 00 00 00 00 00 00 00 00 00 00 ................
00406720 00 00 00 00 00 00 00 00 00 00 00 00 00 00 00 00 ................
00406730 00 00 00 00 00 00 00 00 00 00 00 00 00 00 00 00 ................
00406740 00 00 00 00 00 00 00 00 00 00 00 00 00 00 00 00 ................
00406750 00 00 00 00 00 00 00 00 00 00 00 00 00 00 00 00 ................
00406760 00 00 00 00 00 00 00 00 00 00 00 00 00 00 00 00 ................
00406770 00 00 00 00 00 00 00 00 00 00 00 00 00 00 00 00 ................
00406780 00 00 00 00 00 00 00 00 00 00 00 00 00 00 00 00 ................
00406790 00 00 00 00 00 00 00 00 00 00 00 00 00 00 00 00 ................
004067A0 00 00 00 00 00 00 00 00 00 00 00 00 00 00 00 00 ................
004067B0 00 00 00 00 00 00 00 00 00 00 00 00 00 00 00 00 ................
004067C0 00 00 00 00 00 00 00 00 00 00 00 00 00 00 00 00 ................
004067D0 00 00 00 00 00 00 00 00 00 00 00 00 00 00 00 00 ................
004067E0 00 00 00 00 00 00 00 00 00 00 00 00 00 00 00 00 ................
004067F0 00 00 00 00 00 00 00 00 00 00 00 00 00 00 00 00 ................
00406800 00 00 00 00 00 00 00 00 00 00 00 00 00 00 00 00 ................
00406810 00 00 00 00 00 00 00 00 00 00 00 00 00 00 00 00 ................
00406820 00 00 00 00 00 00 00 00 00 00 00 00 00 00 00 00 ................
00406830 00 00 00 00 00 00 00 00 00 00 00 00 00 00 00 00 ................
00406840 00 00 00 00 00 00 00 00 00 00 00 00 00 00 00 00 ................
00406850 00 00 00 00 00 00 00 00 00 00 00 00 00 00 00 00 ................
00406860 00 00 00 00 00 00 00 00 00 00 00 00 00 00 00 00 ................
00406870 00 00 00 00 00 00 00 00 00 00 00 00 00 00 00 00 ................
00406880 00 00 00 00 00 00 00 00 00 00 00 00 00 00 00 00 ................
00406890 00 00 00 00 00 00 00 00 00 00 00 00 00 00 00 00 ................
004068A0 00 00 00 00 00 00 00 00 00 00 00 00 00 00 00 00 ................
004068B0 00 00 00 00 00 00 00 00 00 00 00 00 00 00 00 00 ................
004068C0 00 00 00 00 00 00 00 00 00 00 00 00 00 00 00 00 ................
004068D0 00 00 00 00 00 00 00 00 00 00 00 00 00 00 00 00 ................
004068E0 00 00 00 00 00 00 00 00 00 00 00 00 00 00 00 00 ................
004068F0 00 00 00 00 00 00 00 00 00 00 00 00 00 00 00 00 ................
00406900 00 00 00 00 00 00 00 00 00 00 00 00 00 00 00 00 ................
00406910 00 00 00 00 00 00 00 00 00 00 00 00 00 00 00 00 ................
00406920 00 00 00 00 00 00 00 00 00 00 00 00 00 00 00 00 ................
00406930 00 00 00 00 00 00 00 00 00 00 00 00 00 00 00 00 ................
00406940 00 00 00 00 00 00 00 00 00 00 00 00 00 00 00 00 ................
00406950 00 00 00 00 00 00 00 00 00 00 00 00 00 00 00 00 ................
00406960 00 00 00 00 00 00 00 00 00 00 00 00 00 00 00 00 ................
00406970 00 00 00 00 00 00 00 00 00 00 00 00 00 00 00 00 ................
00406980 00 00 00 00 00 00 00 00 00 00 00 00 00 00 00 00 ................
00406990 00 00 00 00 00 00 00 00 00 00 00 00 00 00 00 00 ................
004069A0 00 00 00 00 00 00 00 00 00 00 00 00 00 00 00 00 ................
004069B0 00 00 00 00 00 00 00 00 00 00 00 00 00 00 00 00 ................
004069C0 00 00 00 00 00 00 00 00 00 00 00 00 00 00 00 00 ................
004069D0 00 00 00 00 00 00 00 00 00 00 00 00 00 00 00 00 ................
004069E0 00 00 00 00 00 00 00 00 00 00 00 00 00 00 00 00 ................
004069F0 00 00 00 00 00 00 00 00 00 00 00 00 00 00 00 00 ................
00406A00 00 00 00 00 00 00 00 00 00 00 00 00 00 00 00 00 ................
00406A10 00 00 00 00 00 00 00 00 00 00 00 00 00 00 00 00 ................
00406A20 00 00 00 00 00 00 00 00 00 00 00 00 00 00 00 00 ................
00406A30 00 00 00 00 00 00 00 00 00 00 00 00 00 00 00 00 ................
00406A40 00 00 00 00 00 00 00 00 00 00 00 00 00 00 00 00 ................
00406A50 00 00 00 00 00 00 00 00 00 00 00 00 00 00 00 00 ................
00406A60 00 00 00 00 00 00 00 00 00 00 00 00 00 00 00 00 ................
00406A70 00 00 00 00 00 00 00 00 00 00 00 00 00 00 00 00 ................
00406A80 00 00 00 00 00 00 00 00 00 00 00 00 00 00 00 00 ................
00406A90 00 00 00 00 00 00 00 00 00 00 00 00 00 00 00 00 ................
00406AA0 00 00 00 00 00 00 00 00 00 00 00 00 00 00 00 00 ................
00406AB0 00 00 00 00 00 00 00 00 00 00 00 00 00 00 00 00 ................
00406AC0 00 00 00 00 00 00 00 00 00 00 00 00 00 00 00 00 ................
00406AD0 00 00 00 00 00 00 00 00 00 00 00 00 00 00 00 00 ................
00406AE0 00 00 00 00 00 00 00 00 00 00 00 00 00 00 00 00 ................
00406AF0 00 00 00 00 00 00 00 00 00 00 00 00 00 00 00 00 ................
00406B00 00 00 00 00 00 00 00 00 00 00 00 00 00 00 00 00 ................
00406B10 00 00 00 00 00 00 00 00 00 00 00 00 00 00 00 00 ................
00406B20 00 00 00 00 00 00 00 00 00 00 00 00 00 00 00 00 ................
00406B30 00 00 00 00 00 00 00 00 00 00 00 00 00 00 00 00 ................
00406B40 00 00 00 00 00 00 00 00 00 00 00 00 00 00 00 00 ................
00406B50 00 00 00 00 00 00 00 00 00 00 00 00 00 00 00 00 ................
00406B60 00 00 00 00 00 00 00 00 00 00 00 00 00 00 00 00 ................
00406B70 00 00 00 00 00 00 00 00 00 00 00 00 00 00 00 00 ................
00406B80 00 00 00 00 00 00 00 00 00 00 00 00 00 00 00 00 ................
00406B90 00 00 00 00 00 00 00 00 00 00 00 00 00 00 00 00 ................
00406BA0 00 00 00 00 00 00 00 00 00 00 00 00 00 00 00 00 ................
00406BB0 00 00 00 00 00 00 00 00 00 00 00 00 00 00 00 00 ................
00406BC0 00 00 00 00 00 00 00 00 00 00 00 00 00 00 00 00 ................
00406BD0 00 00 00 00 00 00 00 00 00 00 00 00 00 00 00 00 ................
00406BE0 00 00 00 00 00 00 00 00 00 00 00 00 00 00 00 00 ................
00406BF0 00 00 00 00 00 00 00 00 00 00 00 00 00 00 00 00 ................
00406C00 00 00 00 00 00 00 00 00 00 00 00 00 00 00 00 00 ................
00406C10 00 00 00 00 00 00 00 00 00 00 00 00 00 00 00 00 ................
00406C20 00 00 00 00 00 00 00 00 00 00 00 00 00 00 00 00 ................
00406C30 00 00 00 00 00 00 00 00 00 00 00 00 00 00 00 00 ................
00406C40 00 00 00 00 00 00 00 00 00 00 00 00 00 00 00 00 ................
00406C50 00 00 00 00 00 00 00 00 00 00 00 00 00 00 00 00 ................
00406C60 00 00 00 00 00 00 00 00 00 00 00 00 00 00 00 00 ................
00406C70 00 00 00 00 00 00 00 00 00 00 00 00 00 00 00 00 ................
00406C80 00 00 00 00 00 00 00 00 00 00 00 00 00 00 00 00 ................
00406C90 00 00 00 00 00 00 00 00 00 00 00 00 00 00 00 00 ................
00406CA0 00 00 00 00 00 00 00 00 00 00 00 00 00 00 00 00 ................
00406CB0 00 00 00 00 00 00 00 00 00 00 00 00 00 00 00 00 ................
00406CC0 00 00 00 00 00 00 00 00 00 00 00 00 00 00 00 00 ................
00406CD0 00 00 00 00 00 00 00 00 00 00 00 00 00 00 00 00 ................
00406CE0 00 00 00 00 00 00 00 00 00 00 00 00 00 00 00 00 ................
00406CF0 00 00 00 00 00 00 00 00 00 00 00 00 00 00 00 00 ................
00406D00 00 00 00 00 00 00 00 00 00 00 00 00 00 00 00 00 ................
00406D10 00 00 00 00 00 00 00 00 00 00 00 00 00 00 00 00 ................
00406D20 00 00 00 00 00 00 00 00 00 00 00 00 00 00 00 00 ................
00406D30 00 00 00 00 00 00 00 00 00 00 00 00 00 00 00 00 ................
00406D40 00 00 00 00 00 00 00 00 00 00 00 00 00 00 00 00 ................
00406D50 00 00 00 00 00 00 00 00 00 00 00 00 00 00 00 00 ................
00406D60 00 00 00 00 00 00 00 00 00 00 00 00 00 00 00 00 ................
00406D70 00 00 00 00 00 00 00 00 00 00 00 00 00 00 00 00 ................
00406D80 00 00 00 00 00 00 00 00 00 00 00 00 00 00 00 00 ................
00406D90 00 00 00 00 00 00 00 00 00 00 00 00 00 00 00 00 ................
00406DA0 00 00 00 00 00 00 00 00 00 00 00 00 00 00 00 00 ................
00406DB0 00 00 00 00 00 00 00 00 00 00 00 00 00 00 00 00 ................
00406DC0 00 00 00 00 00 00 00 00 00 00 00 00 00 00 00 00 ................
00406DD0 00 00 00 00 00 00 00 00 00 00 00 00 00 00 00 00 ................
00406DE0 00 00 00 00 00 00 00 00 00 00 00 00 00 00 00 00 ................
00406DF0 00 00 00 00 00 00 00 00 00 00 00 00 00 00 00 00 ................
00406E00 00 00 00 00 00 00 00 00 00 00 00 00 00 00 00 00 ................
00406E10 00 00 00 00 00 00 00 00 00 00 00 00 00 00 00 00 ................
00406E20 00 00 00 00 00 00 00 00 00 00 00 00 00 00 00 00 ................
00406E30 00 00 00 00 00 00 00 00 00 00 00 00 00 00 00 00 ................
00406E40 00 00 00 00 00 00 00 00 00 00 00 00 00 00 00 00 ................
00406E50 00 00 00 00 00 00 00 00 00 00 00 00 00 00 00 00 ................
00406E60 00 00 00 00 00 00 00 00 00 00 00 00 00 00 00 00 ................
00406E70 00 00 00 00 00 00 00 00 00 00 00 00 00 00 00 00 ................
00406E80 00 00 00 00 00 00 00 00 00 00 00 00 00 00 00 00 ................
00406E90 00 00 00 00 00 00 00 00 00 00 00 00 00 00 00 00 ................
00406EA0 00 00 00 00 00 00 00 00 00 00 00 00 00 00 00 00 ................
00406EB0 00 00 00 00 00 00 00 00 00 00 00 00 00 00 00 00 ................
00406EC0 00 00 00 00 00 00 00 00 00 00 00 00 00 00 00 00 ................
00406ED0 00 00 00 00 00 00 00 00 00 00 00 00 00 00 00 00 ................
00406EE0 00 00 00 00 00 00 00 00 00 00 00 00 00 00 00 00 ................
00406EF0 00 00 00 00 00 00 00 00 00 00 00 00 00 00 00 00 ................
00406F00 00 00 00 00 00 00 00 00 00 00 00 00 00 00 00 00 ................
00406F10 00 00 00 00 00 00 00 00 00 00 00 00 00 00 00 00 ................
00406F20 00 00 00 00 00 00 00 00 00 00 00 00 00 00 00 00 ................
00406F30 00 00 00 00 00 00 00 00 00 00 00 00 00 00 00 00 ................
00406F40 00 00 00 00 00 00 00 00 00 00 00 00 00 00 00 00 ................
00406F50 00 00 00 00 00 00 00 00 00 00 00 00 00 00 00 00 ................
00406F60 00 00 00 00 00 00 00 00 00 00 00 00 00 00 00 00 ................
00406F70 00 00 00 00 00 00 00 00 00 00 00 00 00 00 00 00 ................
00406F80 00 00 00 00 00 00 00 00 00 00 00 00 00 00 00 00 ................
00406F90 00 00 00 00 00 00 00 00 00 00 00 00 00 00 00 00 ................
00406FA0 00 00 00 00 00 00 00 00 00 00 00 00 00 00 00 00 ................
00406FB0 00 00 00 00 00 00 00 00 00 00 00 00 00 00 00 00 ................
00406FC0 00 00 00 00 00 00 00 00 00 00 00 00 00 00 00 00 ................
00406FD0 00 00 00 00 00 00 00 00 00 00 00 00 00 00 00 00 ................
00406FE0 00 00 00 00 00 00 00 00 00 00 00 00 00 00 00 00 ................
00406FF0 00 00 00 00 00 00 00 00 00 00 00 00 00 00 00 00 ................
00407000 00 00 00 00 00 00 00 00 00 00 00 00 00 00 00 00 ................
00407010 00 00 00 00 00 00 00 00 00 00 00 00 00 00 00 00 ................
00407020 00 00 00 00 00 00 00 00 00 00 00 00 00 00 00 00 ................
00407030 00 00 00 00 00 00 00 00 00 00 00 00 00 00 00 00 ................
00407040 00 00 00 00 00 00 00 00 00 00 00 00 00 00 00 00 ................
00407050 00 00 00 00 00 00 00 00 00 00 00 00 00 00 00 00 ................
00407060 00 00 00 00 00 00 00 00 00 00 00 00 00 00 00 00 ................
00407070 00 00 00 00 00 00 00 00 00 00 00 00 00 00 00 00 ................
00407080 00 00 00 00 00 00 00 00 00 00 00 00 00 00 00 00 ................
00407090 00 00 00 00 00 00 00 00 00 00 00 00 00 00 00 00 ................
004070A0 00 00 00 00 00 00 00 00 00 00 00 00 00 00 00 00 ................
004070B0 00 00 00 00 00 00 00 00 00 00 00 00 00 00 00 00 ................
004070C0 00 00 00 00 00 00 00 00 00 00 00 00 00 00 00 00 ................
004070D0 00 00 00 00 00 00 00 00 00 00 00 00 00 00 00 00 ................
004070E0 00 00 00 00 00 00 00 00 00 00 00 00 00 00 00 00 ................
004070F0 00 00 00 00 00 00 00 00 00 00 00 00 00 00 00 00 ................
00407100 00 00 00 00 00 00 00 00 00 00 00 00 00 00 00 00 ................
00407110 00 00 00 00 00 00 00 00 00 00 00 00 00 00 00 00 ................
00407120 00 00 00 00 00 00 00 00 00 00 00 00 00 00 00 00 ................
00407130 00 00 00 00 00 00 00 00 00 00 00 00 00 00 00 00 ................
00407140 00 00 00 00 00 00 00 00 00 00 00 00 00 00 00 00 ................
00407150 00 00 00 00 00 00 00 00 00 00 00 00 00 00 00 00 ................
00407160 00 00 00 00 00 00 00 00 00 00 00 00 00 00 00 00 ................
00407170 00 00 00 00 00 00 00 00 00 00 00 00 00 00 00 00 ................
00407180 00 00 00 00 00 00 00 00 00 00 00 00 00 00 00 00 ................
00407190 00 00 00 00 00 00 00 00 00 00 00 00 00 00 00 00 ................
004071A0 00 00 00 00 00 00 00 00 00 00 00 00 00 00 00 00 ................
004071B0 00 00 00 00 00 00 00 00 00 00 00 00 00 00 00 00 ................
004071C0 00 00 00 00 00 00 00 00 00 00 00 00 00 00 00 00 ................
004071D0 00 00 00 00 00 00 00 00 00 00 00 00 00 00 00 00 ................
004071E0 00 00 00 00 00 00 00 00 00 00 00 00 00 00 00 00 ................
004071F0 00 00 00 00 00 00 00 00 00 00 00 00 00 00 00 00 ................
00407200 00 00 00 00 00 00 00 00 00 00 00 00 00 00 00 00 ................
00407210 00 00 00 00 00 00 00 00 00 00 00 00 00 00 00 00 ................
00407220 00 00 00 00 00 00 00 00 00 00 00 00 00 00 00 00 ................
00407230 00 00 00 00 00 00 00 00 00 00 00 00 00 00 00 00 ................
00407240 00 00 00 00 00 00 00 00 00 00 00 00 00 00 00 00 ................
00407250 00 00 00 00 00 00 00 00 00 00 00 00 00 00 00 00 ................
00407260 00 00 00 00 00 00 00 00 00 00 00 00 00 00 00 00 ................
00407270 00 00 00 00 00 00 00 00 00 00 00 00 00 00 00 00 ................
00407280 00 00 00 00 00 00 00 00 00 00 00 00 00 00 00 00 ................
00407290 00 00 00 00 00 00 00 00 00 00 00 00 00 00 00 00 ................
004072A0 00 00 00 00 00 00 00 00 00 00 00 00 00 00 00 00 ................
004072B0 00 00 00 00 00 00 00 00 00 00 00 00 00 00 00 00 ................
004072C0 00 00 00 00 00 00 00 00 00 00 00 00 00 00 00 00 ................
004072D0 00 00 00 00 00 00 00 00 00 00 00 00 00 00 00 00 ................
004072E0 00 00 00 00 00 00 00 00 00 00 00 00 00 00 00 00 ................
004072F0 00 00 00 00 00 00 00 00 00 00 00 00 00 00 00 00 ................
00407300 00 00 00 00 00 00 00 00 00 00 00 00 00 00 00 00 ................
00407310 00 00 00 00 00 00 00 00 00 00 00 00 00 00 00 00 ................
00407320 00 00 00 00 00 00 00 00 00 00 00 00 00 00 00 00 ................
00407330 00 00 00 00 00 00 00 00 00 00 00 00 00 00 00 00 ................
00407340 00 00 00 00 00 00 00 00 00 00 00 00 00 00 00 00 ................
00407350 00 00 00 00 00 00 00 00 00 00 00 00 00 00 00 00 ................
00407360 00 00 00 00 00 00 00 00 00 00 00 00 00 00 00 00 ................
00407370 00 00 00 00 00 00 00 00 00 00 00 00 00 00 00 00 ................
00407380 00 00 00 00 00 00 00 00 00 00 00 00 00 00 00 00 ................
00407390 00 00 00 00 00 00 00 00 00 00 00 00 00 00 00 00 ................
004073A0 00 00 00 00 00 00 00 00 00 00 00 00 00 00 00 00 ................
004073B0 00 00 00 00 00 00 00 00 00 00 00 00 00 00 00 00 ................
004073C0 00 00 00 00 00 00 00 00 00 00 00 00 00 00 00 00 ................
004073D0 00 00 00 00 00 00 00 00 00 00 00 00 00 00 00 00 ................
004073E0 00 00 00 00 00 00 00 00 00 00 00 00 00 00 00 00 ................
004073F0 00 00 00 00 00 00 00 00 00 00 00 00 00 00 00 00 ................
00407400 00 00 00 00 00 00 00 00 00 00 00 00 00 00 00 00 ................
00407410 00 00 00 00 00 00 00 00 00 00 00 00 00 00 00 00 ................
00407420 00 00 00 00 00 00 00 00 00 00 00 00 00 00 00 00 ................
00407430 00 00 00 00 00 00 00 00 00 00 00 00 00 00 00 00 ................
00407440 00 00 00 00 00 00 00 00 00 00 00 00 00 00 00 00 ................
00407450 00 00 00 00 00 00 00 00 00 00 00 00 00 00 00 00 ................
00407460 00 00 00 00 00 00 00 00 00 00 00 00 00 00 00 00 ................
00407470 00 00 00 00 00 00 00 00 00 00 00 00 00 00 00 00 ................
00407480 00 00 00 00 00 00 00 00 00 00 00 00 00 00 00 00 ................
00407490 00 00 00 00 00 00 00 00 00 00 00 00 00 00 00 00 ................
004074A0 00 00 00 00 00 00 00 00 00 00 00 00 00 00 00 00 ................
004074B0 00 00 00 00 00 00 00 00 00 00 00 00 00 00 00 00 ................
004074C0 00 00 00 00 00 00 00 00 00 00 00 00 00 00 00 00 ................
004074D0 00 00 00 00 00 00 00 00 00 00 00 00 00 00 00 00 ................
004074E0 00 00 00 00 00 00 00 00 00 00 00 00 00 00 00 00 ................
004074F0 00 00 00 00 00 00 00 00 00 00 00 00 00 00 00 00 ................
00407500 00 00 00 00 00 00 00 00 00 00 00 00 00 00 00 00 ................
00407510 00 00 00 00 00 00 00 00 00 00 00 00 00 00 00 00 ................
00407520 00 00 00 00 00 00 00 00 00 00 00 00 00 00 00 00 ................
00407530 00 00 00 00 00 00 00 00 00 00 00 00 00 00 00 00 ................
00407540 00 00 00 00 00 00 00 00 00 00 00 00 00 00 00 00 ................
00407550 00 00 00 00 00 00 00 00 00 00 00 00 00 00 00 00 ................
00407560 00 00 00 00 00 00 00 00 00 00 00 00 00 00 00 00 ................
00407570 00 00 00 00 00 00 00 00 00 00 00 00 00 00 00 00 ................
00407580 00 00 00 00 00 00 00 00 00 00 00 00 00 00 00 00 ................
00407590 00 00 00 00 00 00 00 00 00 00 00 00 00 00 00 00 ................
004075A0 00 00 00 00 00 00 00 00 00 00 00 00 00 00 00 00 ................
004075B0 00 00 00 00 00 00 00 00 00 00 00 00 00 00 00 00 ................
004075C0 00 00 00 00 00 00 00 00 00 00 00 00 00 00 00 00 ................
004075D0 00 00 00 00 00 00 00 00 00 00 00 00 00 00 00 00 ................
004075E0 00 00 00 00 00 00 00 00 00 00 00 00 00 00 00 00 ................
004075F0 00 00 00 00 00 00 00 00 00 00 00 00 00 00 00 00 ................
00407600 00 00 00 00 00 00 00 00 00 00 00 00 00 00 00 00 ................
00407610 00 00 00 00 00 00 00 00 00 00 00 00 00 00 00 00 ................
00407620 00 00 00 00 00 00 00 00 00 00 00 00 00 00 00 00 ................
00407630 00 00 00 00 00 00 00 00 00 00 00 00 00 00 00 00 ................
00407640 00 00 00 00 00 00 00 00 00 00 00 00 00 00 00 00 ................
00407650 00 00 00 00 00 00 00 00 00 00 00 00 00 00 00 00 ................
00407660 00 00 00 00 00 00 00 00 00 00 00 00 00 00 00 00 ................
00407670 00 00 00 00 00 00 00 00 00 00 00 00 00 00 00 00 ................
00407680 00 00 00 00 00 00 00 00 00 00 00 00 00 00 00 00 ................
00407690 00 00 00 00 00 00 00 00 00 00 00 00 00 00 00 00 ................
004076A0 00 00 00 00 00 00 00 00 00 00 00 00 00 00 00 00 ................
004076B0 00 00 00 00 00 00 00 00 00 00 00 00 00 00 00 00 ................
004076C0 00 00 00 00 00 00 00 00 00 00 00 00 00 00 00 00 ................
004076D0 00 00 00 00 00 00 00 00 00 00 00 00 00 00 00 00 ................
004076E0 00 00 00 00 00 00 00 00 00 00 00 00 00 00 00 00 ................
004076F0 00 00 00 00 00 00 00 00 00 00 00 00 00 00 00 00 ................
00407700 00 00 00 00 00 00 00 00 00 00 00 00 00 00 00 00 ................
00407710 00 00 00 00 00 00 00 00 00 00 00 00 00 00 00 00 ................
00407720 00 00 00 00 00 00 00 00 00 00 00 00 00 00 00 00 ................
00407730 00 00 00 00 00 00 00 00 00 00 00 00 00 00 00 00 ................
00407740 00 00 00 00 00 00 00 00 00 00 00 00 00 00 00 00 ................
00407750 00 00 00 00 00 00 00 00 00 00 00 00 00 00 00 00 ................
00407760 00 00 00 00 00 00 00 00 00 00 00 00 00 00 00 00 ................
00407770 00 00 00 00 00 00 00 00 00 00 00 00 00 00 00 00 ................
00407780 00 00 00 00 00 00 00 00 00 00 00 00 00 00 00 00 ................
00407790 00 00 00 00 00 00 00 00 00 00 00 00 00 00 00 00 ................
004077A0 00 00 00 00 00 00 00 00 00 00 00 00 00 00 00 00 ................
004077B0 00 00 00 00 00 00 00 00 00 00 00 00 00 00 00 00 ................
004077C0 00 00 00 00 00 00 00 00 00 00 00 00 00 00 00 00 ................
004077D0 00 00 00 00 00 00 00 00 00 00 00 00 00 00 00 00 ................
004077E0 00 00 00 00 00 00 00 00 00 00 00 00 00 00 00 00 ................
004077F0 00 00 00 00 00 00 00 00 00 00 00 00 00 00 00 00 ................
00407800 00 00 00 00 00 00 00 00 00 00 00 00 00 00 00 00 ................
00407810 00 00 00 00 00 00 00 00 00 00 00 00 00 00 00 00 ................
00407820 00 00 00 00 00 00 00 00 00 00 00 00 00 00 00 00 ................
00407830 00 00 00 00 00 00 00 00 00 00 00 00 00 00 00 00 ................
00407840 00 00 00 00 00 00 00 00 00 00 00 00 00 00 00 00 ................
00407850 00 00 00 00 00 00 00 00 00 00 00 00 00 00 00 00 ................
00407860 00 00 00 00 00 00 00 00 00 00 00 00 00 00 00 00 ................
00407870 00 00 00 00 00 00 00 00 00 00 00 00 00 00 00 00 ................
00407880 00 00 00 00 00 00 00 00 00 00 00 00 00 00 00 00 ................
00407890 00 00 00 00 00 00 00 00 00 00 00 00 00 00 00 00 ................
004078A0 00 00 00 00 00 00 00 00 00 00 00 00 00 00 00 00 ................
004078B0 00 00 00 00 00 00 00 00 00 00 00 00 00 00 00 00 ................
004078C0 00 00 00 00 00 00 00 00 00 00 00 00 00 00 00 00 ................
004078D0 00 00 00 00 00 00 00 00 00 00 00 00 00 00 00 00 ................
004078E0 00 00 00 00 00 00 00 00 00 00 00 00 00 00 00 00 ................
004078F0 00 00 00 00 00 00 00 00 00 00 00 00 00 00 00 00 ................
00407900 00 00 00 00 00 00 00 00 00 00 00 00 00 00 00 00 ................
00407910 00 00 00 00 00 00 00 00 00 00 00 00 00 00 00 00 ................
00407920 00 00 00 00 00 00 00 00 00 00 00 00 00 00 00 00 ................
00407930 00 00 00 00 00 00 00 00 00 00 00 00 00 00 00 00 ................
00407940 00 00 00 00 00 00 00 00 00 00 00 00 00 00 00 00 ................
00407950 00 00 00 00 00 00 00 00 00 00 00 00 00 00 00 00 ................
00407960 00 00 00 00 00 00 00 00 00 00 00 00 00 00 00 00 ................
00407970 00 00 00 00 00 00 00 00 00 00 00 00 00 00 00 00 ................
00407980 00 00 00 00 00 00 00 00 00 00 00 00 00 00 00 00 ................
00407990 00 00 00 00 00 00 00 00 00 00 00 00 00 00 00 00 ................
004079A0 00 00 00 00 00 00 00 00 00 00 00 00 00 00 00 00 ................
004079B0 00 00 00 00 00 00 00 00 00 00 00 00 00 00 00 00 ................
004079C0 00 00 00 00 00 00 00 00 00 00 00 00 00 00 00 00 ................
004079D0 00 00 00 00 00 00 00 00 00 00 00 00 00 00 00 00 ................
004079E0 00 00 00 00 00 00 00 00 00 00 00 00 00 00 00 00 ................
004079F0 00 00 00 00 00 00 00 00 00 00 00 00 00 00 00 00 ................
00407A00 00 00 00 00 00 00 00 00 00 00 00 00 00 00 00 00 ................
00407A10 00 00 00 00 00 00 00 00 00 00 00 00 00 00 00 00 ................
00407A20 00 00 00 00 00 00 00 00 00 00 00 00 00 00 00 00 ................
00407A30 00 00 00 00 00 00 00 00 00 00 00 00 00 00 00 00 ................
00407A40 00 00 00 00 00 00 00 00 00 00 00 00 00 00 00 00 ................
00407A50 00 00 00 00 00 00 00 00 00 00 00 00 00 00 00 00 ................
00407A60 00 00 00 00 00 00 00 00 00 00 00 00 00 00 00 00 ................
00407A70 00 00 00 00 00 00 00 00 00 00 00 00 00 00 00 00 ................
00407A80 00 00 00 00 00 00 00 00 00 00 00 00 00 00 00 00 ................
00407A90 00 00 00 00 00 00 00 00 00 00 00 00 00 00 00 00 ................
00407AA0 00 00 00 00 00 00 00 00 00 00 00 00 00 00 00 00 ................
00407AB0 00 00 00 00 00 00 00 00 00 00 00 00 00 00 00 00 ................
00407AC0 00 00 00 00 00 00 00 00 00 00 00 00 00 00 00 00 ................
00407AD0 00 00 00 00 00 00 00 00 00 00 00 00 00 00 00 00 ................
00407AE0 00 00 00 00 00 00 00 00 00 00 00 00 00 00 00 00 ................
00407AF0 00 00 00 00 00 00 00 00 00 00 00 00 00 00 00 00 ................
00407B00 00 00 00 00 00 00 00 00 00 00 00 00 00 00 00 00 ................
00407B10 00 00 00 00 00 00 00 00 00 00 00 00 00 00 00 00 ................
00407B20 00 00 00 00 00 00 00 00 00 00 00 00 00 00 00 00 ................
00407B30 00 00 00 00 00 00 00 00 00 00 00 00 00 00 00 00 ................
00407B40 00 00 00 00 00 00 00 00 00 00 00 00 00 00 00 00 ................
00407B50 00 00 00 00 00 00 00 00 00 00 00 00 00 00 00 00 ................
00407B60 00 00 00 00 00 00 00 00 00 00 00 00 00 00 00 00 ................
00407B70 00 00 00 00 00 00 00 00 00 00 00 00 00 00 00 00 ................
00407B80 00 00 00 00 00 00 00 00 00 00 00 00 00 00 00 00 ................
00407B90 00 00 00 00 00 00 00 00 00 00 00 00 00 00 00 00 ................
00407BA0 00 00 00 00 00 00 00 00 00 00 00 00 00 00 00 00 ................
00407BB0 00 00 00 00 00 00 00 00 00 00 00 00 00 00 00 00 ................
00407BC0 00 00 00 00 00 00 00 00 00 00 00 00 00 00 00 00 ................
00407BD0 00 00 00 00 00 00 00 00 00 00 00 00 00 00 00 00 ................
00407BE0 00 00 00 00 00 00 00 00 00 00 00 00 00 00 00 00 ................
00407BF0 00 00 00 00 00 00 00 00 00 00 00 00 00 00 00 00 ................
00407C00 00 00 00 00 00 00 00 00 00 00 00 00 00 00 00 00 ................
00407C10 00 00 00 00 00 00 00 00 00 00 00 00 00 00 00 00 ................
00407C20 00 00 00 00 00 00 00 00 00 00 00 00 00 00 00 00 ................
00407C30 00 00 00 00 00 00 00 00 00 00 00 00 00 00 00 00 ................
00407C40 00 00 00 00 00 00 00 00 00 00 00 00 00 00 00 00 ................
00407C50 00 00 00 00 00 00 00 00 00 00 00 00 00 00 00 00 ................
00407C60 00 00 00 00 00 00 00 00 00 00 00 00 00 00 00 00 ................
00407C70 00 00 00 00 00 00 00 00 00 00 00 00 00 00 00 00 ................
00407C80 00 00 00 00 00 00 00 00 00 00 00 00 00 00 00 00 ................
00407C90 00 00 00 00 00 00 00 00 00 00 00 00 00 00 00 00 ................
00407CA0 00 00 00 00 00 00 00 00 00 00 00 00 00 00 00 00 ................
00407CB0 00 00 00 00 00 00 00 00 00 00 00 00 00 00 00 00 ................
00407CC0 00 00 00 00 00 00 00 00 00 00 00 00 00 00 00 00 ................
00407CD0 00 00 00 00 00 00 00 00 00 00 00 00 00 00 00 00 ................
00407CE0 00 00 00 00 00 00 00 00 00 00 00 00 00 00 00 00 ................
00407CF0 00 00 00 00 00 00 00 00 00 00 00 00 00 00 00 00 ................
00407D00 00 00 00 00 00 00 00 00 00 00 00 00 00 00 00 00 ................
00407D10 00 00 00 00 00 00 00 00 00 00 00 00 00 00 00 00 ................
00407D20 00 00 00 00 00 00 00 00 00 00 00 00 00 00 00 00 ................
00407D30 00 00 00 00 00 00 00 00 00 00 00 00 00 00 00 00 ................
00407D40 00 00 00 00 00 00 00 00 00 00 00 00 00 00 00 00 ................
00407D50 00 00 00 00 00 00 00 00 00 00 00 00 00 00 00 00 ................
00407D60 00 00 00 00 00 00 00 00 00 00 00 00 00 00 00 00 ................
00407D70 00 00 00 00 00 00 00 00 00 00 00 00 00 00 00 00 ................
00407D80 00 00 00 00 00 00 00 00 00 00 00 00 00 00 00 00 ................
00407D90 00 00 00 00 00 00 00 00 00 00 00 00 00 00 00 00 ................
00407DA0 00 00 00 00 00 00 00 00 00 00 00 00 00 00 00 00 ................
00407DB0 00 00 00 00 00 00 00 00 00 00 00 00 00 00 00 00 ................
00407DC0 00 00 00 00 00 00 00 00 00 00 00 00 00 00 00 00 ................
00407DD0 00 00 00 00 00 00 00 00 00 00 00 00 00 00 00 00 ................
00407DE0 00 00 00 00 00 00 00 00 00 00 00 00 00 00 00 00 ................
00407DF0 00 00 00 00 00 00 00 00 00 00 00 00 00 00 00 00 ................
00407E00 00 00 00 00 00 00 00 00 00 00 00 00 00 00 00 00 ................
00407E10 00 00 00 00 00 00 00 00 00 00 00 00 00 00 00 00 ................
00407E20 00 00 00 00 00 00 00 00 00 00 00 00 00 00 00 00 ................
00407E30 00 00 00 00 00 00 00 00 00 00 00 00 00 00 00 00 ................
00407E40 00 00 00 00 00 00 00 00 00 00 00 00 00 00 00 00 ................
00407E50 00 00 00 00 00 00 00 00 00 00 00 00 00 00 00 00 ................
00407E60 00 00 00 00 00 00 00 00 00 00 00 00 00 00 00 00 ................
00407E70 00 00 00 00 00 00 00 00 00 00 00 00 00 00 00 00 ................
00407E80 00 00 00 00 00 00 00 00 00 00 00 00 00 00 00 00 ................
00407E90 00 00 00 00 00 00 00 00 00 00 00 00 00 00 00 00 ................
00407EA0 00 00 00 00 00 00 00 00 00 00 00 00 00 00 00 00 ................
00407EB0 00 00 00 00 00 00 00 00 00 00 00 00 00 00 00 00 ................
00407EC0 00 00 00 00 00 00 00 00 00 00 00 00 00 00 00 00 ................
00407ED0 00 00 00 00 00 00 00 00 00 00 00 00 00 00 00 00 ................
00407EE0 00 00 00 00 00 00 00 00 00 00 00 00 00 00 00 00 ................
00407EF0 00 00 00 00 00 00 00 00 00 00 00 00 00 00 00 00 ................
00407F00 00 00 00 00 00 00 00 00 00 00 00 00 00 00 00 00 ................
00407F10 00 00 00 00 00 00 00 00 00 00 00 00 00 00 00 00 ................
00407F20 00 00 00 00 00 00 00 00 00 00 00 00 00 00 00 00 ................
00407F30 00 00 00 00 00 00 00 00 00 00 00 00 00 00 00 00 ................
00407F40 00 00 00 00 00 00 00 00 00 00 00 00 00 00 00 00 ................
00407F50 00 00 00 00 00 00 00 00 00 00 00 00 00 00 00 00 ................
00407F60 00 00 00 00 00 00 00 00 00 00 00 00 00 00 00 00 ................
00407F70 00 00 00 00 00 00 00 00 00 00 00 00 00 00 00 00 ................
00407F80 00 00 00 00 00 00 00 00 00 00 00 00 00 00 00 00 ................
00407F90 00 00 00 00 00 00 00 00 00 00 00 00 00 00 00 00 ................
00407FA0 00 00 00 00 00 00 00 00 00 00 00 00 00 00 00 00 ................
00407FB0 00 00 00 00 00 00 00 00 00 00 00 00 00 00 00 00 ................
00407FC0 00 00 00 00 00 00 00 00 00 00 00 00 00 00 00 00 ................
00407FD0 00 00 00 00 00 00 00 00 00 00 00 00 00 00 00 00 ................
00407FE0 00 00 00 00 00 00 00 00 00 00 00 00 00 00 00 00 ................
00407FF0 00 00 00 00 00 00 00 00 00 00 00 00 00 00 00 00 ................
00408000 00 00 00 00 00 00 00 00 00 00 00 00 00 00 00 00 ................
00408010 00 00 00 00 00 00 00 00 00 00 00 00 00 00 00 00 ................
00408020 00 00 00 00 00 00 00 00 00 00 00 00 00 00 00 00 ................
00408030 00 00 00 00 00 00 00 00 00 00 00 00 00 00 00 00 ................
00408040 00 00 00 00 00 00 00 00 00 00 00 00 00 00 00 00 ................
00408050 00 00 00 00 00 00 00 00 00 00 00 00 00 00 00 00 ................
00408060 00 00 00 00 00 00 00 00 00 00 00 00 00 00 00 00 ................
00408070 00 00 00 00 00 00 00 00 00 00 00 00 00 00 00 00 ................
00408080 00 00 00 00 00 00 00 00 00 00 00 00 00 00 00 00 ................
00408090 00 00 00 00 00 00 00 00 00 00 00 00 00 00 00 00 ................
004080A0 00 00 00 00 00 00 00 00 00 00 00 00 00 00 00 00 ................
004080B0 00 00 00 00 00 00 00 00 00 00 00 00 00 00 00 00 ................
004080C0 00 00 00 00 00 00 00 00 00 00 00 00 00 00 00 00 ................
004080D0 00 00 00 00 00 00 00 00 00 00 00 00 00 00 00 00 ................
004080E0 00 00 00 00 00 00 00 00 00 00 00 00 00 00 00 00 ................
004080F0 00 00 00 00 00 00 00 00 00 00 00 00 00 00 00 00 ................
00408100 00 00 00 00 00 00 00 00 00 00 00 00 00 00 00 00 ................
00408110 00 00 00 00 00 00 00 00 00 00 00 00 00 00 00 00 ................
00408120 00 00 00 00 00 00 00 00 00 00 00 00 00 00 00 00 ................
00408130 00 00 00 00 00 00 00 00 00 00 00 00 00 00 00 00 ................
00408140 00 00 00 00 00 00 00 00 00 00 00 00 00 00 00 00 ................
00408150 00 00 00 00 00 00 00 00 00 00 00 00 00 00 00 00 ................
00408160 00 00 00 00 00 00 00 00 00 00 00 00 00 00 00 00 ................
00408170 00 00 00 00 00 00 00 00 00 00 00 00 00 00 00 00 ................
00408180 00 00 00 00 00 00 00 00 00 00 00 00 00 00 00 00 ................
00408190 00 00 00 00 00 00 00 00 00 00 00 00 00 00 00 00 ................
004081A0 00 00 00 00 00 00 00 00 00 00 00 00 00 00 00 00 ................
004081B0 00 00 00 00 00 00 00 00 00 00 00 00 00 00 00 00 ................
004081C0 00 00 00 00 00 00 00 00 00 00 00 00 00 00 00 00 ................
004081D0 00 00 00 00 00 00 00 00 00 00 00 00 00 00 00 00 ................
004081E0 00 00 00 00 00 00 00 00 00 00 00 00 00 00 00 00 ................
004081F0 00 00 00 00 00 00 00 00 00 00 00 00 00 00 00 00 ................
00408200 00 00 00 00 00 00 00 00 00 00 00 00 00 00 00 00 ................
00408210 00 00 00 00 00 00 00 00 00 00 00 00 00 00 00 00 ................
00408220 00 00 00 00 00 00 00 00 00 00 00 00 00 00 00 00 ................
00408230 00 00 00 00 00 00 00 00 00 00 00 00 00 00 00 00 ................
00408240 00 00 00 00 00 00 00 00 00 00 00 00 00 00 00 00 ................
00408250 00 00 00 00 00 00 00 00 00 00 00 00 00 00 00 00 ................
00408260 00 00 00 00 00 00 00 00 00 00 00 00 00 00 00 00 ................
00408270 00 00 00 00 00 00 00 00 00 00 00 00 00 00 00 00 ................
00408280 00 00 00 00 00 00 00 00 00 00 00 00 00 00 00 00 ................
00408290 00 00 00 00 00 00 00 00 00 00 00 00 00 00 00 00 ................
004082A0 00 00 00 00 00 00 00 00 00 00 00 00 00 00 00 00 ................
004082B0 00 00 00 00 00 00 00 00 00 00 00 00 00 00 00 00 ................
004082C0 00 00 00 00 00 00 00 00 00 00 00 00 00 00 00 00 ................
004082D0 00 00 00 00 00 00 00 00 00 00 00 00 00 00 00 00 ................
004082E0 00 00 00 00 00 00 00 00 00 00 00 00 00 00 00 00 ................
004082F0 00 00 00 00 00 00 00 00 00 00 00 00 00 00 00 00 ................
00408300 00 00 00 00 00 00 00 00 00 00 00 00 00 00 00 00 ................
00408310 00 00 00 00 00 00 00 00 00 00 00 00 00 00 00 00 ................
00408320 00 00 00 00 00 00 00 00 00 00 00 00 00 00 00 00 ................
00408330 00 00 00 00 00 00 00 00 00 00 00 00 00 00 00 00 ................
00408340 00 00 00 00 00 00 00 00 00 00 00 00 00 00 00 00 ................
00408350 00 00 00 00 00 00 00 00 00 00 00 00 00 00 00 00 ................
00408360 00 00 00 00 00 00 00 00 00 00 00 00 00 00 00 00 ................
00408370 00 00 00 00 00 00 00 00 00 00 00 00 00 00 00 00 ................
00408380 00 00 00 00 00 00 00 00 00 00 00 00 00 00 00 00 ................
00408390 00 00 00 00 00 00 00 00 00 00 00 00 00 00 00 00 ................
004083A0 00 00 00 00 00 00 00 00 00 00 00 00 00 00 00 00 ................
004083B0 00 00 00 00 00 00 00 00 00 00 00 00 00 00 00 00 ................
004083C0 00 00 00 00 00 00 00 00 00 00 00 00 00 00 00 00 ................
004083D0 00 00 00 00 00 00 00 00 00 00 00 00 00 00 00 00 ................
004083E0 00 00 00 00 00 00 00 00 00 00 00 00 00 00 00 00 ................
004083F0 00 00 00 00 00 00 00 00 00 00 00 00 00 00 00 00 ................
00408400 00 00 00 00 00 00 00 00 00 00 00 00 00 00 00 00 ................
00408410 00 00 00 00 00 00 00 00 00 00 00 00 00 00 00 00 ................
00408420 00 00 00 00 00 00 00 00 00 00 00 00 00 00 00 00 ................
00408430 00 00 00 00 00 00 00 00 00 00 00 00 00 00 00 00 ................
00408440 00 00 00 00 00 00 00 00 00 00 00 00 00 00 00 00 ................
00408450 00 00 00 00 00 00 00 00 00 00 00 00 00 00 00 00 ................
00408460 00 00 00 00 00 00 00 00 00 00 00 00 00 00 00 00 ................
00408470 00 00 00 00 00 00 00 00 00 00 00 00 00 00 00 00 ................
00408480 00 00 00 00 00 00 00 00 00 00 00 00 00 00 00 00 ................
00408490 00 00 00 00 00 00 00 00 00 00 00 00 00 00 00 00 ................
004084A0 00 00 00 00 00 00 00 00 00 00 00 00 00 00 00 00 ................
004084B0 00 00 00 00 00 00 00 00 00 00 00 00 00 00 00 00 ................
004084C0 00 00 00 00 00 00 00 00 00 00 00 00 00 00 00 00 ................
004084D0 00 00 00 00 00 00 00 00 00 00 00 00 00 00 00 00 ................
004084E0 00 00 00 00 00 00 00 00 00 00 00 00 00 00 00 00 ................
004084F0 00 00 00 00 00 00 00 00 00 00 00 00 00 00 00 00 ................
00408500 00 00 00 00 00 00 00 00 00 00 00 00 00 00 00 00 ................
00408510 00 00 00 00 00 00 00 00 00 00 00 00 00 00 00 00 ................
00408520 00 00 00 00 00 00 00 00 00 00 00 00 00 00 00 00 ................
00408530 00 00 00 00 00 00 00 00 00 00 00 00 00 00 00 00 ................
00408540 00 00 00 00 00 00 00 00 00 00 00 00 00 00 00 00 ................
00408550 00 00 00 00 00 00 00 00 00 00 00 00 00 00 00 00 ................
00408560 00 00 00 00 00 00 00 00 00 00 00 00 00 00 00 00 ................
00408570 00 00 00 00 00 00 00 00 00 00 00 00 00 00 00 00 ................
00408580 00 00 00 00 00 00 00 00 00 00 00 00 00 00 00 00 ................
00408590 00 00 00 00 00 00 00 00 00 00 00 00 00 00 00 00 ................
004085A0 00 00 00 00 00 00 00 00 00 00 00 00 00 00 00 00 ................
004085B0 00 00 00 00 00 00 00 00 00 00 00 00 00 00 00 00 ................
004085C0 00 00 00 00 00 00 00 00 00 00 00 00 00 00 00 00 ................
004085D0 00 00 00 00 00 00 00 00 00 00 00 00 00 00 00 00 ................
004085E0 00 00 00 00 00 00 00 00 00 00 00 00 00 00 00 00 ................
004085F0 00 00 00 00 00 00 00 00 00 00 00 00 00 00 00 00 ................
00408600 00 00 00 00 00 00 00 00 00 00 00 00 00 00 00 00 ................
00408610 00 00 00 00 00 00 00 00 00 00 00 00 00 00 00 00 ................
00408620 00 00 00 00 00 00 00 00 00 00 00 00 00 00 00 00 ................
00408630 00 00 00 00 00 00 00 00 00 00 00 00 00 00 00 00 ................
00408640 00 00 00 00 00 00 00 00 00 00 00 00 00 00 00 00 ................
00408650 00 00 00 00 00 00 00 00 00 00 00 00 00 00 00 00 ................
00408660 00 00 00 00 00 00 00 00 00 00 00 00 00 00 00 00 ................
00408670 00 00 00 00 00 00 00 00 00 00 00 00 00 00 00 00 ................
00408680 00 00 00 00 00 00 00 00 00 00 00 00 00 00 00 00 ................
00408690 00 00 00 00 00 00 00 00 00 00 00 00 00 00 00 00 ................
004086A0 00 00 00 00 00 00 00 00 00 00 00 00 00 00 00 00 ................
004086B0 00 00 00 00 00 00 00 00 00 00 00 00 00 00 00 00 ................
004086C0 00 00 00 00 00 00 00 00 00 00 00 00 00 00 00 00 ................
004086D0 00 00 00 00 00 00 00 00 00 00 00 00 00 00 00 00 ................
004086E0 00 00 00 00 00 00 00 00 00 00 00 00 00 00 00 00 ................
004086F0 00 00 00 00 00 00 00 00 00 00 00 00 00 00 00 00 ................
00408700 00 00 00 00 00 00 00 00 00 00 00 00 00 00 00 00 ................
00408710 00 00 00 00 00 00 00 00 00 00 00 00 00 00 00 00 ................
00408720 00 00 00 00 00 00 00 00 00 00 00 00 00 00 00 00 ................
00408730 00 00 00 00 00 00 00 00 00 00 00 00 00 00 00 00 ................
00408740 00 00 00 00 00 00 00 00 00 00 00 00 00 00 00 00 ................
00408750 00 00 00 00 00 00 00 00 00 00 00 00 00 00 00 00 ................
00408760 00 00 00 00 00 00 00 00 00 00 00 00 00 00 00 00 ................
00408770 00 00 00 00 00 00 00 00 00 00 00 00 00 00 00 00 ................
00408780 00 00 00 00 00 00 00 00 00 00 00 00 00 00 00 00 ................
00408790 00 00 00 00 00 00 00 00 00 00 00 00 00 00 00 00 ................
004087A0 00 00 00 00 00 00 00 00 00 00 00 00 00 00 00 00 ................
004087B0 00 00 00 00 00 00 00 00 00 00 00 00 00 00 00 00 ................
004087C0 00 00 00 00 00 00 00 00 00 00 00 00 00 00 00 00 ................
004087D0 00 00 00 00 00 00 00 00 00 00 00 00 00 00 00 00 ................
004087E0 00 00 00 00 00 00 00 00 00 00 00 00 00 00 00 00 ................
004087F0 00 00 00 00 00 00 00 00 00 00 00 00 00 00 00 00 ................
00408800 00 00 00 00 00 00 00 00 00 00 00 00 00 00 00 00 ................
00408810 00 00 00 00 00 00 00 00 00 00 00 00 00 00 00 00 ................
00408820 00 00 00 00 00 00 00 00 00 00 00 00 00 00 00 00 ................
00408830 00 00 00 00 00 00 00 00 00 00 00 00 00 00 00 00 ................
00408840 00 00 00 00 00 00 00 00 00 00 00 00 00 00 00 00 ................
00408850 00 00 00 00 00 00 00 00 00 00 00 00 00 00 00 00 ................
00408860 00 00 00 00 00 00 00 00 00 00 00 00 00 00 00 00 ................
00408870 00 00 00 00 00 00 00 00 00 00 00 00 00 00 00 00 ................
00408880 00 00 00 00 00 00 00 00 00 00 00 00 00 00 00 00 ................
00408890 00 00 00 00 00 00 00 00 00 00 00 00 00 00 00 00 ................
004088A0 00 00 00 00 00 00 00 00 00 00 00 00 00 00 00 00 ................
004088B0 00 00 00 00 00 00 00 00 00 00 00 00 00 00 00 00 ................
004088C0 00 00 00 00 00 00 00 00 00 00 00 00 00 00 00 00 ................
004088D0 00 00 00 00 00 00 00 00 00 00 00 00 00 00 00 00 ................
004088E0 00 00 00 00 00 00 00 00 00 00 00 00 00 00 00 00 ................
004088F0 00 00 00 00 00 00 00 00 00 00 00 00 00 00 00 00 ................
00408900 00 00 00 00 00 00 00 00 00 00 00 00 00 00 00 00 ................
00408910 00 00 00 00 00 00 00 00 00 00 00 00 00 00 00 00 ................
00408920 00 00 00 00 00 00 00 00 00 00 00 00 00 00 00 00 ................
00408930 00 00 00 00 00 00 00 00 00 00 00 00 00 00 00 00 ................
00408940 00 00 00 00 00 00 00 00 00 00 00 00 00 00 00 00 ................
00408950 00 00 00 00 00 00 00 00 00 00 00 00 00 00 00 00 ................
00408960 00 00 00 00 00 00 00 00 00 00 00 00 00 00 00 00 ................
00408970 00 00 00 00 00 00 00 00 00 00 00 00 00 00 00 00 ................
00408980 00 00 00 00 00 00 00 00 00 00 00 00 00 00 00 00 ................
00408990 00 00 00 00 00 00 00 00 00 00 00 00 00 00 00 00 ................
004089A0 00 00 00 00 00 00 00 00 00 00 00 00 00 00 00 00 ................
004089B0 00 00 00 00 00 00 00 00 00 00 00 00 00 00 00 00 ................
004089C0 00 00 00 00 00 00 00 00 00 00 00 00 00 00 00 00 ................
004089D0 00 00 00 00 00 00 00 00 00 00 00 00 00 00 00 00 ................
004089E0 00 00 00 00 00 00 00 00 00 00 00 00 00 00 00 00 ................
004089F0 00 00 00 00 00 00 00 00 00 00 00 00 00 00 00 00 ................
00408A00 00 00 00 00 00 00 00 00 00 00 00 00 00 00 00 00 ................
00408A10 00 00 00 00 00 00 00 00 00 00 00 00 00 00 00 00 ................
00408A20 00 00 00 00 00 00 00 00 00 00 00 00 00 00 00 00 ................
00408A30 00 00 00 00 00 00 00 00 00 00 00 00 00 00 00 00 ................
00408A40 00 00 00 00 00 00 00 00 00 00 00 00 00 00 00 00 ................
00408A50 00 00 00 00 00 00 00 00 00 00 00 00 00 00 00 00 ................
00408A60 00 00 00 00 00 00 00 00 00 00 00 00 00 00 00 00 ................
00408A70 00 00 00 00 00 00 00 00 00 00 00 00 00 00 00 00 ................
00408A80 00 00 00 00 00 00 00 00 00 00 00 00 00 00 00 00 ................
00408A90 00 00 00 00 00 00 00 00 00 00 00 00 00 00 00 00 ................
00408AA0 00 00 00 00 00 00 00 00 00 00 00 00 00 00 00 00 ................
00408AB0 00 00 00 00 00 00 00 00 00 00 00 00 00 00 00 00 ................
00408AC0 00 00 00 00 00 00 00 00 00 00 00 00 00 00 00 00 ................
00408AD0 00 00 00 00 00 00 00 00 00 00 00 00 00 00 00 00 ................
00408AE0 00 00 00 00 00 00 00 00 00 00 00 00 00 00 00 00 ................
00408AF0 00 00 00 00 00 00 00 00 00 00 00 00 00 00 00 00 ................
00408B00 00 00 00 00 00 00 00 00 00 00 00 00 00 00 00 00 ................
00408B10 00 00 00 00 00 00 00 00 00 00 00 00 00 00 00 00 ................
00408B20 00 00 00 00 00 00 00 00 00 00 00 00 00 00 00 00 ................
00408B30 00 00 00 00 00 00 00 00 00 00 00 00 00 00 00 00 ................
00408B40 00 00 00 00 00 00 00 00 00 00 00 00 00 00 00 00 ................
00408B50 00 00 00 00 00 00 00 00 00 00 00 00 00 00 00 00 ................
00408B60 00 00 00 00 00 00 00 00 00 00 00 00 00 00 00 00 ................
00408B70 00 00 00 00 00 00 00 00 00 00 00 00 00 00 00 00 ................
00408B80 00 00 00 00 00 00 00 00 00 00 00 00 00 00 00 00 ................
00408B90 00 00 00 00 00 00 00 00 00 00 00 00 00 00 00 00 ................
00408BA0 00 00 00 00 00 00 00 00 00 00 00 00 00 00 00 00 ................
00408BB0 00 00 00 00 00 00 00 00 00 00 00 00 00 00 00 00 ................
00408BC0 00 00 00 00 00 00 00 00 00 00 00 00 00 00 00 00 ................
00408BD0 00 00 00 00 00 00 00 00 00 00 00 00 00 00 00 00 ................
00408BE0 00 00 00 00 00 00 00 00 00 00 00 00 00 00 00 00 ................
00408BF0 00 00 00 00 00 00 00 00 00 00 00 00 00 00 00 00 ................
00408C00 00 00 00 00 00 00 00 00 00 00 00 00 00 00 00 00 ................
00408C10 00 00 00 00 00 00 00 00 00 00 00 00 00 00 00 00 ................
00408C20 00 00 00 00 00 00 00 00 00 00 00 00 00 00 00 00 ................
00408C30 00 00 00 00 00 00 00 00 00 00 00 00 00 00 00 00 ................
00408C40 00 00 00 00 00 00 00 00 00 00 00 00 00 00 00 00 ................
00408C50 00 00 00 00 00 00 00 00 00 00 00 00 00 00 00 00 ................
00408C60 00 00 00 00 00 00 00 00 00 00 00 00 00 00 00 00 ................
00408C70 00 00 00 00 00 00 00 00 00 00 00 00 00 00 00 00 ................
00408C80 00 00 00 00 00 00 00 00 00 00 00 00 00 00 00 00 ................
00408C90 00 00 00 00 00 00 00 00 00 00 00 00 00 00 00 00 ................
00408CA0 00 00 00 00 00 00 00 00 00 00 00 00 00 00 00 00 ................
00408CB0 00 00 00 00 00 00 00 00 00 00 00 00 00 00 00 00 ................
00408CC0 00 00 00 00 00 00 00 00 00 00 00 00 00 00 00 00 ................
00408CD0 00 00 00 00 00 00 00 00 00 00 00 00 00 00 00 00 ................
00408CE0 00 00 00 00 00 00 00 00 00 00 00 00 00 00 00 00 ................
00408CF0 00 00 00 00 00 00 00 00 00 00 00 00 00 00 00 00 ................
00408D00 00 00 00 00 00 00 00 00 00 00 00 00 00 00 00 00 ................
00408D10 00 00 00 00 00 00 00 00 00 00 00 00 00 00 00 00 ................
00408D20 00 00 00 00 00 00 00 00 00 00 00 00 00 00 00 00 ................
00408D30 00 00 00 00 00 00 00 00 00 00 00 00 00 00 00 00 ................
00408D40 00 00 00 00 00 00 00 00 00 00 00 00 00 00 00 00 ................
00408D50 00 00 00 00 00 00 00 00 00 00 00 00 00 00 00 00 ................
00408D60 00 00 00 00 00 00 00 00 00 00 00 00 00 00 00 00 ................
00408D70 00 00 00 00 00 00 00 00 00 00 00 00 00 00 00 00 ................
00408D80 00 00 00 00 00 00 00 00 00 00 00 00 00 00 00 00 ................
00408D90 00 00 00 00 00 00 00 00 00 00 00 00 00 00 00 00 ................
00408DA0 00 00 00 00 00 00 00 00 00 00 00 00 00 00 00 00 ................
00408DB0 00 00 00 00 00 00 00 00 00 00 00 00 00 00 00 00 ................
00408DC0 00 00 00 00 00 00 00 00 00 00 00 00 00 00 00 00 ................
00408DD0 00 00 00 00 00 00 00 00 00 00 00 00 00 00 00 00 ................
00408DE0 00 00 00 00 00 00 00 00 00 00 00 00 00 00 00 00 ................
00408DF0 00 00 00 00 00 00 00 00 00 00 00 00 00 00 00 00 ................
00408E00 00 00 00 00 00 00 00 00 00 00 00 00 00 00 00 00 ................
00408E10 00 00 00 00 00 00 00 00 00 00 00 00 00 00 00 00 ................
00408E20 00 00 00 00 00 00 00 00 00 00 00 00 00 00 00 00 ................
00408E30 00 00 00 00 00 00 00 00 00 00 00 00 00 00 00 00 ................
00408E40 00 00 00 00 00 00 00 00 00 00 00 00 00 00 00 00 ................
00408E50 00 00 00 00 00 00 00 00 00 00 00 00 00 00 00 00 ................
00408E60 00 00 00 00 00 00 00 00 00 00 00 00 00 00 00 00 ................
00408E70 00 00 00 00 00 00 00 00 00 00 00 00 00 00 00 00 ................
00408E80 00 00 00 00 00 00 00 00 00 00 00 00 00 00 00 00 ................
00408E90 00 00 00 00 00 00 00 00 00 00 00 00 00 00 00 00 ................
00408EA0 00 00 00 00 00 00 00 00 00 00 00 00 00 00 00 00 ................
00408EB0 00 00 00 00 00 00 00 00 00 00 00 00 00 00 00 00 ................
00408EC0 00 00 00 00 00 00 00 00 00 00 00 00 00 00 00 00 ................
00408ED0 00 00 00 00 00 00 00 00 00 00 00 00 00 00 00 00 ................
00408EE0 00 00 00 00 00 00 00 00 00 00 00 00 00 00 00 00 ................
00408EF0 00 00 00 00 00 00 00 00 00 00 00 00 00 00 00 00 ................
00408F00 00 00 00 00 00 00 00 00 00 00 00 00 00 00 00 00 ................
00408F10 00 00 00 00 00 00 00 00 00 00 00 00 00 00 00 00 ................
00408F20 00 00 00 00 00 00 00 00 00 00 00 00 00 00 00 00 ................
00408F30 00 00 00 00 00 00 00 00 00 00 00 00 00 00 00 00 ................
00408F40 00 00 00 00 00 00 00 00 00 00 00 00 00 00 00 00 ................
00408F50 00 00 00 00 00 00 00 00 00 00 00 00 00 00 00 00 ................
00408F60 00 00 00 00 00 00 00 00 00 00 00 00 00 00 00 00 ................
00408F70 00 00 00 00 00 00 00 00 00 00 00 00 00 00 00 00 ................
00408F80 00 00 00 00 00 00 00 00 00 00 00 00 00 00 00 00 ................
00408F90 00 00 00 00 00 00 00 00 00 00 00 00 00 00 00 00 ................
00408FA0 00 00 00 00 00 00 00 00 00 00 00 00 00 00 00 00 ................
00408FB0 00 00 00 00 00 00 00 00 00 00 00 00 00 00 00 00 ................
00408FC0 00 00 00 00 00 00 00 00 00 00 00 00 00 00 00 00 ................
00408FD0 00 00 00 00 00 00 00 00 00 00 00 00 00 00 00 00 ................
00408FE0 00 00 00 00 00 00 00 00 00 00 00 00 00 00 00 00 ................
00408FF0 00 00 00 00 00 00 00 00 00 00 00 00 00 00 00 00 ................
00409000 00 00 00 00 00 00 00 00 00 00 00 00 00 00 00 00 ................
00409010 00 00 00 00 00 00 00 00 00 00 00 00 00 00 00 00 ................
00409020 00 00 00 00 00 00 00 00 00 00 00 00 00 00 00 00 ................
00409030 00 00 00 00 00 00 00 00 00 00 00 00 00 00 00 00 ................
00409040 00 00 00 00 00 00 00 00 00 00 00 00 00 00 00 00 ................
00409050 00 00 00 00 00 00 00 00 00 00 00 00 00 00 00 00 ................
00409060 00 00 00 00 00 00 00 00 00 00 00 00 00 00 00 00 ................
00409070 00 00 00 00 00 00 00 00 00 00 00 00 00 00 00 00 ................
00409080 00 00 00 00 00 00 00 00 00 00 00 00 00 00 00 00 ................
00409090 00 00 00 00 00 00 00 00 00 00 00 00 00 00 00 00 ................
004090A0 00 00 00 00 00 00 00 00 00 00 00 00 00 00 00 00 ................
004090B0 00 00 00 00 00 00 00 00 00 00 00 00 00 00 00 00 ................
004090C0 00 00 00 00 00 00 00 00 00 00 00 00 00 00 00 00 ................
004090D0 00 00 00 00 00 00 00 00 00 00 00 00 00 00 00 00 ................
004090E0 00 00 00 00 00 00 00 00 00 00 00 00 00 00 00 00 ................
004090F0 00 00 00 00 00 00 00 00 00 00 00 00 00 00 00 00 ................
00409100 00 00 00 00 00 00 00 00 00 00 00 00 00 00 00 00 ................
00409110 00 00 00 00 00 00 00 00 00 00 00 00 00 00 00 00 ................
00409120 00 00 00 00 00 00 00 00 00 00 00 00 00 00 00 00 ................
00409130 00 00 00 00 00 00 00 00 00 00 00 00 00 00 00 00 ................
00409140 00 00 00 00 00 00 00 00 00 00 00 00 00 00 00 00 ................
00409150 00 00 00 00 00 00 00 00 00 00 00 00 00 00 00 00 ................
00409160 00 00 00 00 00 00 00 00 00 00 00 00 00 00 00 00 ................
00409170 00 00 00 00 00 00 00 00 00 00 00 00 00 00 00 00 ................
00409180 00 00 00 00 00 00 00 00 00 00 00 00 00 00 00 00 ................
00409190 00 00 00 00 00 00 00 00 00 00 00 00 00 00 00 00 ................
004091A0 00 00 00 00 00 00 00 00 00 00 00 00 00 00 00 00 ................
004091B0 00 00 00 00 00 00 00 00 00 00 00 00 00 00 00 00 ................
004091C0 00 00 00 00 00 00 00 00 00 00 00 00 00 00 00 00 ................
004091D0 00 00 00 00 00 00 00 00 00 00 00 00 00 00 00 00 ................
004091E0 00 00 00 00 00 00 00 00 00 00 00 00 00 00 00 00 ................
004091F0 00 00 00 00 00 00 00 00 00 00 00 00 00 00 00 00 ................
00409200 00 00 00 00 00 00 00 00 00 00 00 00 00 00 00 00 ................
00409210 00 00 00 00 00 00 00 00 00 00 00 00 00 00 00 00 ................
00409220 00 00 00 00 00 00 00 00 00 00 00 00 00 00 00 00 ................
00409230 00 00 00 00 00 00 00 00 00 00 00 00 00 00 00 00 ................
00409240 00 00 00 00 00 00 00 00 00 00 00 00 00 00 00 00 ................
00409250 00 00 00 00 00 00 00 00 00 00 00 00 00 00 00 00 ................
00409260 00 00 00 00 00 00 00 00 00 00 00 00 00 00 00 00 ................
00409270 00 00 00 00 00 00 00 00 00 00 00 00 00 00 00 00 ................
00409280 00 00 00 00 00 00 00 00 00 00 00 00 00 00 00 00 ................
00409290 00 00 00 00 00 00 00 00 00 00 00 00 00 00 00 00 ................
004092A0 00 00 00 00 00 00 00 00 00 00 00 00 00 00 00 00 ................
004092B0 00 00 00 00 00 00 00 00 00 00 00 00 00 00 00 00 ................
004092C0 00 00 00 00 00 00 00 00 00 00 00 00 00 00 00 00 ................
004092D0 00 00 00 00 00 00 00 00 00 00 00 00 00 00 00 00 ................
004092E0 00 00 00 00 00 00 00 00 00 00 00 00 00 00 00 00 ................
004092F0 00 00 00 00 00 00 00 00 00 00 00 00 00 00 00 00 ................
00409300 00 00 00 00 00 00 00 00 00 00 00 00 00 00 00 00 ................
00409310 00 00 00 00 00 00 00 00 00 00 00 00 00 00 00 00 ................
00409320 00 00 00 00 00 00 00 00 00 00 00 00 00 00 00 00 ................
00409330 00 00 00 00 00 00 00 00 00 00 00 00 00 00 00 00 ................
00409340 00 00 00 00 00 00 00 00 00 00 00 00 00 00 00 00 ................
00409350 00 00 00 00 00 00 00 00 00 00 00 00 00 00 00 00 ................
00409360 00 00 00 00 00 00 00 00 00 00 00 00 00 00 00 00 ................
00409370 00 00 00 00 00 00 00 00 00 00 00 00 00 00 00 00 ................
00409380 00 00 00 00 00 00 00 00 00 00 00 00 00 00 00 00 ................
00409390 00 00 00 00 00 00 00 00 00 00 00 00 00 00 00 00 ................
004093A0 00 00 00 00 00 00 00 00 00 00 00 00 00 00 00 00 ................
004093B0 00 00 00 00 00 00 00 00 00 00 00 00 00 00 00 00 ................
004093C0 00 00 00 00 00 00 00 00 00 00 00 00 00 00 00 00 ................
004093D0 00 00 00 00 00 00 00 00 00 00 00 00 00 00 00 00 ................
004093E0 00 00 00 00 00 00 00 00 00 00 00 00 00 00 00 00 ................
004093F0 00 00 00 00 00 00 00 00 00 00 00 00 00 00 00 00 ................
00409400 00 00 00 00 00 00 00 00 00 00 00 00 00 00 00 00 ................
00409410 00 00 00 00 00 00 00 00 00 00 00 00 00 00 00 00 ................
00409420 00 00 00 00 00 00 00 00 00 00 00 00 00 00 00 00 ................
00409430 00 00 00 00 00 00 00 00 00 00 00 00 00 00 00 00 ................
00409440 00 00 00 00 00 00 00 00 00 00 00 00 00 00 00 00 ................
00409450 00 00 00 00 00 00 00 00 00 00 00 00 00 00 00 00 ................
00409460 00 00 00 00 00 00 00 00 00 00 00 00 00 00 00 00 ................
00409470 00 00 00 00 00 00 00 00 00 00 00 00 00 00 00 00 ................
00409480 00 00 00 00 00 00 00 00 00 00 00 00 00 00 00 00 ................
00409490 00 00 00 00 00 00 00 00 00 00 00 00 00 00 00 00 ................
004094A0 00 00 00 00 00 00 00 00 00 00 00 00 00 00 00 00 ................
004094B0 00 00 00 00 00 00 00 00 00 00 00 00 00 00 00 00 ................
004094C0 00 00 00 00 00 00 00 00 00 00 00 00 00 00 00 00 ................
004094D0 00 00 00 00 00 00 00 00 00 00 00 00 00 00 00 00 ................
004094E0 00 00 00 00 00 00 00 00 00 00 00 00 00 00 00 00 ................
004094F0 00 00 00 00 00 00 00 00 00 00 00 00 00 00 00 00 ................
00409500 00 00 00 00 00 00 00 00 00 00 00 00 00 00 00 00 ................
00409510 00 00 00 00 00 00 00 00 00 00 00 00 00 00 00 00 ................
00409520 00 00 00 00 00 00 00 00 00 00 00 00 00 00 00 00 ................
00409530 00 00 00 00 00 00 00 00 00 00 00 00 00 00 00 00 ................
00409540 00 00 00 00 00 00 00 00 00 00 00 00 00 00 00 00 ................
00409550 00 00 00 00 00 00 00 00 00 00 00 00 00 00 00 00 ................
00409560 00 00 00 00 00 00 00 00 00 00 00 00 00 00 00 00 ................
00409570 00 00 00 00 00 00 00 00 00 00 00 00 00 00 00 00 ................
00409580 00 00 00 00 00 00 00 00 00 00 00 00 00 00 00 00 ................
00409590 00 00 00 00 00 00 00 00 00 00 00 00 00 00 00 00 ................
004095A0 00 00 00 00 00 00 00 00 00 00 00 00 00 00 00 00 ................
004095B0 00 00 00 00 00 00 00 00 00 00 00 00 00 00 00 00 ................
004095C0 00 00 00 00 00 00 00 00 00 00 00 00 00 00 00 00 ................
004095D0 00 00 00 00 00 00 00 00 00 00 00 00 00 00 00 00 ................
004095E0 00 00 00 00 00 00 00 00 00 00 00 00 00 00 00 00 ................
004095F0 00 00 00 00 00 00 00 00 00 00 00 00 00 00 00 00 ................
00409600 00 00 00 00 00 00 00 00 00 00 00 00 00 00 00 00 ................
00409610 00 00 00 00 00 00 00 00 00 00 00 00 00 00 00 00 ................
00409620 00 00 00 00 00 00 00 00 00 00 00 00 00 00 00 00 ................
00409630 00 00 00 00 00 00 00 00 00 00 00 00 00 00 00 00 ................
00409640 00 00 00 00 00 00 00 00 00 00 00 00 00 00 00 00 ................
00409650 00 00 00 00 00 00 00 00 00 00 00 00 00 00 00 00 ................
00409660 00 00 00 00 00 00 00 00 00 00 00 00 00 00 00 00 ................
00409670 00 00 00 00 00 00 00 00 00 00 00 00 00 00 00 00 ................
00409680 00 00 00 00 00 00 00 00 00 00 00 00 00 00 00 00 ................
00409690 00 00 00 00 00 00 00 00 00 00 00 00 00 00 00 00 ................
004096A0 00 00 00 00 00 00 00 00 00 00 00 00 00 00 00 00 ................
004096B0 00 00 00 00 00 00 00 00 00 00 00 00 00 00 00 00 ................
004096C0 00 00 00 00 00 00 00 00 00 00 00 00 00 00 00 00 ................
004096D0 00 00 00 00 00 00 00 00 00 00 00 00 00 00 00 00 ................
004096E0 00 00 00 00 00 00 00 00 00 00 00 00 00 00 00 00 ................
004096F0 00 00 00 00 00 00 00 00 00 00 00 00 00 00 00 00 ................
00409700 00 00 00 00 00 00 00 00 00 00 00 00 00 00 00 00 ................
00409710 00 00 00 00 00 00 00 00 00 00 00 00 00 00 00 00 ................
00409720 00 00 00 00 00 00 00 00 00 00 00 00 00 00 00 00 ................
00409730 00 00 00 00 00 00 00 00 00 00 00 00 00 00 00 00 ................
00409740 00 00 00 00 00 00 00 00 00 00 00 00 00 00 00 00 ................
00409750 00 00 00 00 00 00 00 00 00 00 00 00 00 00 00 00 ................
00409760 00 00 00 00 00 00 00 00 00 00 00 00 00 00 00 00 ................
00409770 00 00 00 00 00 00 00 00 00 00 00 00 00 00 00 00 ................
00409780 00 00 00 00 00 00 00 00 00 00 00 00 00 00 00 00 ................
00409790 00 00 00 00 00 00 00 00 00 00 00 00 00 00 00 00 ................
004097A0 00 00 00 00 00 00 00 00 00 00 00 00 00 00 00 00 ................
004097B0 00 00 00 00 00 00 00 00 00 00 00 00 00 00 00 00 ................
004097C0 00 00 00 00 00 00 00 00 00 00 00 00 00 00 00 00 ................
004097D0 00 00 00 00 00 00 00 00 00 00 00 00 00 00 00 00 ................
004097E0 00 00 00 00 00 00 00 00 00 00 00 00 00 00 00 00 ................
004097F0 00 00 00 00 00 00 00 00 00 00 00 00 00 00 00 00 ................
00409800 00 00 00 00 00 00 00 00 00 00 00 00 00 00 00 00 ................
00409810 00 00 00 00 00 00 00 00 00 00 00 00 00 00 00 00 ................
00409820 00 00 00 00 00 00 00 00 00 00 00 00 00 00 00 00 ................
00409830 00 00 00 00 00 00 00 00 00 00 00 00 00 00 00 00 ................
00409840 00 00 00 00 00 00 00 00 00 00 00 00 00 00 00 00 ................
00409850 00 00 00 00 00 00 00 00 00 00 00 00 00 00 00 00 ................
00409860 00 00 00 00 00 00 00 00 00 00 00 00 00 00 00 00 ................
00409870 00 00 00 00 00 00 00 00 00 00 00 00 00 00 00 00 ................
00409880 00 00 00 00 00 00 00 00 00 00 00 00 00 00 00 00 ................
00409890 00 00 00 00 00 00 00 00 00 00 00 00 00 00 00 00 ................
004098A0 00 00 00 00 00 00 00 00 00 00 00 00 00 00 00 00 ................
004098B0 00 00 00 00 00 00 00 00 00 00 00 00 00 00 00 00 ................
004098C0 00 00 00 00 00 00 00 00 00 00 00 00 00 00 00 00 ................
004098D0 00 00 00 00 00 00 00 00 00 00 00 00 00 00 00 00 ................
004098E0 00 00 00 00 00 00 00 00 00 00 00 00 00 00 00 00 ................
004098F0 00 00 00 00 00 00 00 00 00 00 00 00 00 00 00 00 ................
00409900 00 00 00 00 00 00 00 00 00 00 00 00 00 00 00 00 ................
00409910 00 00 00 00 00 00 00 00 00 00 00 00 00 00 00 00 ................
00409920 00 00 00 00 00 00 00 00 00 00 00 00 00 00 00 00 ................
00409930 00 00 00 00 00 00 00 00 00 00 00 00 00 00 00 00 ................
00409940 00 00 00 00 00 00 00 00 00 00 00 00 00 00 00 00 ................
00409950 00 00 00 00 00 00 00 00 00 00 00 00 00 00 00 00 ................
00409960 00 00 00 00 00 00 00 00 00 00 00 00 00 00 00 00 ................
00409970 00 00 00 00 00 00 00 00 00 00 00 00 00 00 00 00 ................
00409980 00 00 00 00 00 00 00 00 00 00 00 00 00 00 00 00 ................
00409990 00 00 00 00 00 00 00 00 00 00 00 00 00 00 00 00 ................
004099A0 00 00 00 00 00 00 00 00 00 00 00 00 00 00 00 00 ................
004099B0 00 00 00 00 00 00 00 00 00 00 00 00 00 00 00 00 ................
004099C0 00 00 00 00 00 00 00 00 00 00 00 00 00 00 00 00 ................
004099D0 00 00 00 00 00 00 00 00 00 00 00 00 00 00 00 00 ................
004099E0 00 00 00 00 00 00 00 00 00 00 00 00 00 00 00 00 ................
004099F0 00 00 00 00 00 00 00 00 00 00 00 00 00 00 00 00 ................
00409A00 00 00 00 00 00 00 00 00 00 00 00 00 00 00 00 00 ................
00409A10 00 00 00 00 00 00 00 00 00 00 00 00 00 00 00 00 ................
00409A20 00 00 00 00 00 00 00 00 00 00 00 00 00 00 00 00 ................
00409A30 00 00 00 00 00 00 00 00 00 00 00 00 00 00 00 00 ................
00409A40 00 00 00 00 00 00 00 00 00 00 00 00 00 00 00 00 ................
00409A50 00 00 00 00 00 00 00 00 00 00 00 00 00 00 00 00 ................
00409A60 00 00 00 00 00 00 00 00 00 00 00 00 00 00 00 00 ................
00409A70 00 00 00 00 00 00 00 00 00 00 00 00 00 00 00 00 ................
00409A80 00 00 00 00 00 00 00 00 00 00 00 00 00 00 00 00 ................
00409A90 00 00 00 00 00 00 00 00 00 00 00 00 00 00 00 00 ................
00409AA0 00 00 00 00 00 00 00 00 00 00 00 00 00 00 00 00 ................
00409AB0 00 00 00 00 00 00 00 00 00 00 00 00 00 00 00 00 ................
00409AC0 00 00 00 00 00 00 00 00 00 00 00 00 00 00 00 00 ................
00409AD0 00 00 00 00 00 00 00 00 00 00 00 00 00 00 00 00 ................
00409AE0 00 00 00 00 00 00 00 00 00 00 00 00 00 00 00 00 ................
00409AF0 00 00 00 00 00 00 00 00 00 00 00 00 00 00 00 00 ................
00409B00 00 00 00 00 00 00 00 00 00 00 00 00 00 00 00 00 ................
00409B10 00 00 00 00 00 00 00 00 00 00 00 00 00 00 00 00 ................
00409B20 00 00 00 00 00 00 00 00 00 00 00 00 00 00 00 00 ................
00409B30 00 00 00 00 00 00 00 00 00 00 00 00 00 00 00 00 ................
00409B40 00 00 00 00 00 00 00 00 00 00 00 00 00 00 00 00 ................
00409B50 00 00 00 00 00 00 00 00 00 00 00 00 00 00 00 00 ................
00409B60 00 00 00 00 00 00 00 00 00 00 00 00 00 00 00 00 ................
00409B70 00 00 00 00 00 00 00 00 00 00 00 00 00 00 00 00 ................
00409B80 00 00 00 00 00 00 00 00 00 00 00 00 00 00 00 00 ................
00409B90 00 00 00 00 00 00 00 00 00 00 00 00 00 00 00 00 ................
00409BA0 00 00 00 00 00 00 00 00 00 00 00 00 00 00 00 00 ................
00409BB0 00 00 00 00 00 00 00 00 00 00 00 00 00 00 00 00 ................
00409BC0 00 00 00 00 00 00 00 00 00 00 00 00 00 00 00 00 ................
00409BD0 00 00 00 00 00 00 00 00 00 00 00 00 00 00 00 00 ................
00409BE0 00 00 00 00 00 00 00 00 00 00 00 00 00 00 00 00 ................
00409BF0 00 00 00 00 00 00 00 00 00 00 00 00 00 00 00 00 ................
00409C00 00 00 00 00 00 00 00 00 00 00 00 00 00 00 00 00 ................
00409C10 00 00 00 00 00 00 00 00 00 00 00 00 00 00 00 00 ................
00409C20 00 00 00 00 00 00 00 00 00 00 00 00 00 00 00 00 ................
00409C30 00 00 00 00 00 00 00 00 00 00 00 00 00 00 00 00 ................
00409C40 00 00 00 00 00 00 00 00 00 00 00 00 00 00 00 00 ................
00409C50 00 00 00 00 00 00 00 00 00 00 00 00 00 00 00 00 ................
00409C60 00 00 00 00 00 00 00 00 00 00 00 00 00 00 00 00 ................
00409C70 00 00 00 00 00 00 00 00 00 00 00 00 00 00 00 00 ................
00409C80 00 00 00 00 00 00 00 00 00 00 00 00 00 00 00 00 ................
00409C90 00 00 00 00 00 00 00 00 00 00 00 00 00 00 00 00 ................
00409CA0 00 00 00 00 00 00 00 00 00 00 00 00 00 00 00 00 ................
00409CB0 00 00 00 00 00 00 00 00 00 00 00 00 00 00 00 00 ................
00409CC0 00 00 00 00 00 00 00 00 00 00 00 00 00 00 00 00 ................
00409CD0 00 00 00 00 00 00 00 00 00 00 00 00 00 00 00 00 ................
00409CE0 00 00 00 00 00 00 00 00 00 00 00 00 00 00 00 00 ................
00409CF0 00 00 00 00 00 00 00 00 00 00 00 00 00 00 00 00 ................
00409D00 00 00 00 00 00 00 00 00 00 00 00 00 00 00 00 00 ................
00409D10 00 00 00 00 00 00 00 00 00 00 00 00 00 00 00 00 ................
00409D20 00 00 00 00 00 00 00 00 00 00 00 00 00 00 00 00 ................
00409D30 00 00 00 00 00 00 00 00 00 00 00 00 00 00 00 00 ................
00409D40 00 00 00 00 00 00 00 00 00 00 00 00 00 00 00 00 ................
00409D50 00 00 00 00 00 00 00 00 00 00 00 00 00 00 00 00 ................
00409D60 00 00 00 00 00 00 00 00 00 00 00 00 00 00 00 00 ................
00409D70 00 00 00 00 00 00 00 00 00 00 00 00 00 00 00 00 ................
00409D80 00 00 00 00 00 00 00 00 00 00 00 00 00 00 00 00 ................
00409D90 00 00 00 00 00 00 00 00 00 00 00 00 00 00 00 00 ................
00409DA0 00 00 00 00 00 00 00 00 00 00 00 00 00 00 00 00 ................
00409DB0 00 00 00 00 00 00 00 00 00 00 00 00 00 00 00 00 ................
00409DC0 00 00 00 00 00 00 00 00 00 00 00 00 00 00 00 00 ................
00409DD0 00 00 00 00 00 00 00 00 00 00 00 00 00 00 00 00 ................
00409DE0 00 00 00 00 00 00 00 00 00 00 00 00 00 00 00 00 ................
00409DF0 00 00 00 00 00 00 00 00 00 00 00 00 00 00 00 00 ................
00409E00 00 00 00 00 00 00 00 00 00 00 00 00 00 00 00 00 ................
00409E10 00 00 00 00 00 00 00 00 00 00 00 00 00 00 00 00 ................
00409E20 00 00 00 00 00 00 00 00 00 00 00 00 00 00 00 00 ................
00409E30 00 00 00 00 00 00 00 00 00 00 00 00 00 00 00 00 ................
00409E40 00 00 00 00 00 00 00 00 00 00 00 00 00 00 00 00 ................
00409E50 00 00 00 00 00 00 00 00 00 00 00 00 00 00 00 00 ................
00409E60 00 00 00 00 00 00 00 00 00 00 00 00 00 00 00 00 ................
00409E70 00 00 00 00 00 00 00 00 00 00 00 00 00 00 00 00 ................
00409E80 00 00 00 00 00 00 00 00 00 00 00 00 00 00 00 00 ................
00409E90 00 00 00 00 00 00 00 00 00 00 00 00 00 00 00 00 ................
00409EA0 00 00 00 00 00 00 00 00 00 00 00 00 00 00 00 00 ................
00409EB0 00 00 00 00 00 00 00 00 00 00 00 00 00 00 00 00 ................
00409EC0 00 00 00 00 00 00 00 00 00 00 00 00 00 00 00 00 ................
00409ED0 00 00 00 00 00 00 00 00 00 00 00 00 00 00 00 00 ................
00409EE0 00 00 00 00 00 00 00 00 00 00 00 00 00 00 00 00 ................
00409EF0 00 00 00 00 00 00 00 00 00 00 00 00 00 00 00 00 ................
00409F00 00 00 00 00 00 00 00 00 00 00 00 00 00 00 00 00 ................
00409F10 00 00 00 00 00 00 00 00 00 00 00 00 00 00 00 00 ................
00409F20 00 00 00 00 00 00 00 00 00 00 00 00 00 00 00 00 ................
00409F30 00 00 00 00 00 00 00 00 00 00 00 00 00 00 00 00 ................
00409F40 00 00 00 00 00 00 00 00 00 00 00 00 00 00 00 00 ................
00409F50 00 00 00 00 00 00 00 00 00 00 00 00 00 00 00 00 ................
00409F60 00 00 00 00 00 00 00 00 00 00 00 00 00 00 00 00 ................
00409F70 00 00 00 00 00 00 00 00 00 00 00 00 00 00 00 00 ................
00409F80 00 00 00 00 00 00 00 00 00 00 00 00 00 00 00 00 ................
00409F90 00 00 00 00 00 00 00 00 00 00 00 00 00 00 00 00 ................
00409FA0 00 00 00 00 00 00 00 00 00 00 00 00 00 00 00 00 ................
00409FB0 00 00 00 00 00 00 00 00 00 00 00 00 00 00 00 00 ................
00409FC0 00 00 00 00 00 00 00 00 00 00 00 00 00 00 00 00 ................
00409FD0 00 00 00 00 00 00 00 00 00 00 00 00 00 00 00 00 ................
00409FE0 00 00 00 00 00 00 00 00 00 00 00 00 00 00 00 00 ................
00409FF0 00 00 00 00 00 00 00 00 00 00 00 00 00 00 00 00 ................
0040A000 00 00 00 00 00 00 00 00 00 00 00 00 00 00 00 00 ................
0040A010 00 00 00 00 00 00 00 00 00 00 00 00 00 00 00 00 ................
0040A020 00 00 00 00 00 00 00 00 00 00 00 00 00 00 00 00 ................
0040A030 00 00 00 00 00 00 00 00 00 00 00 00 00 00 00 00 ................
0040A040 00 00 00 00 00 00 00 00 00 00 00 00 00 00 00 00 ................
0040A050 00 00 00 00 00 00 00 00 00 00 00 00 00 00 00 00 ................
0040A060 00 00 00 00 00 00 00 00 00 00 00 00 00 00 00 00 ................
0040A070 00 00 00 00 00 00 00 00 00 00 00 00 00 00 00 00 ................
0040A080 00 00 00 00 00 00 00 00 00 00 00 00 00 00 00 00 ................
0040A090 00 00 00 00 00 00 00 00 00 00 00 00 00 00 00 00 ................
0040A0A0 00 00 00 00 00 00 00 00 00 00 00 00 00 00 00 00 ................
0040A0B0 00 00 00 00 00 00 00 00 00 00 00 00 00 00 00 00 ................
0040A0C0 00 00 00 00 00 00 00 00 00 00 00 00 00 00 00 00 ................
0040A0D0 00 00 00 00 00 00 00 00 00 00 00 00 00 00 00 00 ................
0040A0E0 00 00 00 00 00 00 00 00 00 00 00 00 00 00 00 00 ................
0040A0F0 00 00 00 00 00 00 00 00 00 00 00 00 00 00 00 00 ................
0040A100 00 00 00 00 00 00 00 00 00 00 00 00 00 00 00 00 ................
0040A110 00 00 00 00 00 00 00 00 00 00 00 00 00 00 00 00 ................
0040A120 00 00 00 00 00 00 00 00 00 00 00 00 00 00 00 00 ................
0040A130 00 00 00 00 00 00 00 00 00 00 00 00 00 00 00 00 ................
0040A140 00 00 00 00 00 00 00 00 00 00 00 00 00 00 00 00 ................
0040A150 00 00 00 00 00 00 00 00 00 00 00 00 00 00 00 00 ................
0040A160 00 00 00 00 00 00 00 00 00 00 00 00 00 00 00 00 ................
0040A170 00 00 00 00 00 00 00 00 00 00 00 00 00 00 00 00 ................
0040A180 00 00 00 00 00 00 00 00 00 00 00 00 00 00 00 00 ................
0040A190 00 00 00 00 00 00 00 00 00 00 00 00 00 00 00 00 ................
0040A1A0 00 00 00 00 00 00 00 00 00 00 00 00 00 00 00 00 ................
0040A1B0 00 00 00 00 00 00 00 00 00 00 00 00 00 00 00 00 ................
0040A1C0 00 00 00 00 00 00 00 00 00 00 00 00 00 00 00 00 ................
0040A1D0 00 00 00 00 00 00 00 00 00 00 00 00 00 00 00 00 ................
0040A1E0 00 00 00 00 00 00 00 00 00 00 00 00 00 00 00 00 ................
0040A1F0 00 00 00 00 00 00 00 00 00 00 00 00 00 00 00 00 ................
0040A200 00 00 00 00 00 00 00 00 00 00 00 00 00 00 00 00 ................
0040A210 00 00 00 00 00 00 00 00 00 00 00 00 00 00 00 00 ................
0040A220 00 00 00 00 00 00 00 00 00 00 00 00 00 00 00 00 ................
0040A230 00 00 00 00 00 00 00 00 00 00 00 00 00 00 00 00 ................
0040A240 00 00 00 00 00 00 00 00 00 00 00 00 00 00 00 00 ................
0040A250 00 00 00 00 00 00 00 00 00 00 00 00 00 00 00 00 ................
0040A260 00 00 00 00 00 00 00 00 00 00 00 00 00 00 00 00 ................
0040A270 00 00 00 00 00 00 00 00 00 00 00 00 00 00 00 00 ................
0040A280 00 00 00 00 00 00 00 00 00 00 00 00 00 00 00 00 ................
0040A290 00 00 00 00 00 00 00 00 00 00 00 00 00 00 00 00 ................
0040A2A0 00 00 00 00 00 00 00 00 00 00 00 00 00 00 00 00 ................
0040A2B0 00 00 00 00 00 00 00 00 00 00 00 00 00 00 00 00 ................
0040A2C0 00 00 00 00 00 00 00 00 00 00 00 00 00 00 00 00 ................
0040A2D0 00 00 00 00 00 00 00 00 00 00 00 00 00 00 00 00 ................
0040A2E0 00 00 00 00 00 00 00 00 00 00 00 00 00 00 00 00 ................
0040A2F0 00 00 00 00 00 00 00 00 00 00 00 00 00 00 00 00 ................
0040A300 00 00 00 00 00 00 00 00 00 00 00 00 00 00 00 00 ................
0040A310 00 00 00 00 00 00 00 00 00 00 00 00 00 00 00 00 ................
0040A320 00 00 00 00 00 00 00 00 00 00 00 00 00 00 00 00 ................
0040A330 00 00 00 00 00 00 00 00 00 00 00 00 00 00 00 00 ................
0040A340 00 00 00 00 00 00 00 00 00 00 00 00 00 00 00 00 ................
0040A350 00 00 00 00 00 00 00 00 00 00 00 00 00 00 00 00 ................
0040A360 00 00 00 00 00 00 00 00 00 00 00 00 00 00 00 00 ................
0040A370 00 00 00 00 00 00 00 00 00 00 00 00 00 00 00 00 ................
0040A380 00 00 00 00 00 00 00 00 00 00 00 00 00 00 00 00 ................
0040A390 00 00 00 00 00 00 00 00 00 00 00 00 00 00 00 00 ................
0040A3A0 00 00 00 00 00 00 00 00 00 00 00 00 00 00 00 00 ................
0040A3B0 00 00 00 00 00 00 00 00 00 00 00 00 00 00 00 00 ................
0040A3C0 00 00 00 00 00 00 00 00 00 00 00 00 00 00 00 00 ................
0040A3D0 00 00 00 00 00 00 00 00 00 00 00 00 00 00 00 00 ................
0040A3E0 00 00 00 00 00 00 00 00 00 00 00 00 00 00 00 00 ................
0040A3F0 00 00 00 00 00 00 00 00 00 00 00 00 00 00 00 00 ................
0040A400 00 00 00 00 00 00 00 00 00 00 00 00 00 00 00 00 ................
0040A410 00 00 00 00 00 00 00 00 00 00 00 00 00 00 00 00 ................
0040A420 00 00 00 00 00 00 00 00 00 00 00 00 00 00 00 00 ................
0040A430 00 00 00 00 00 00 00 00 00 00 00 00 00 00 00 00 ................
0040A440 00 00 00 00 00 00 00 00 00 00 00 00 00 00 00 00 ................
0040A450 00 00 00 00 00 00 00 00 00 00 00 00 00 00 00 00 ................
0040A460 00 00 00 00 00 00 00 00 00 00 00 00 00 00 00 00 ................
0040A470 00 00 00 00 00 00 00 00 00 00 00 00 00 00 00 00 ................
0040A480 00 00 00 00 00 00 00 00 00 00 00 00 00 00 00 00 ................
0040A490 00 00 00 00 00 00 00 00 00 00 00 00 00 00 00 00 ................
0040A4A0 00 00 00 00 00 00 00 00 00 00 00 00 00 00 00 00 ................
0040A4B0 00 00 00 00 00 00 00 00 00 00 00 00 00 00 00 00 ................
0040A4C0 00 00 00 00 00 00 00 00 00 00 00 00 00 00 00 00 ................
0040A4D0 00 00 00 00 00 00 00 00 00 00 00 00 00 00 00 00 ................
0040A4E0 00 00 00 00 00 00 00 00 00 00 00 00 00 00 00 00 ................
0040A4F0 00 00 00 00 00 00 00 00 00 00 00 00 00 00 00 00 ................
0040A500 00 00 00 00 00 00 00 00 00 00 00 00 00 00 00 00 ................
0040A510 00 00 00 00 00 00 00 00 00 00 00 00 00 00 00 00 ................
0040A520 00 00 00 00 00 00 00 00 00 00 00 00 00 00 00 00 ................
0040A530 00 00 00 00 00 00 00 00 00 00 00 00 00 00 00 00 ................
0040A540 00 00 00 00 00 00 00 00 00 00 00 00 00 00 00 00 ................
0040A550 00 00 00 00 00 00 00 00 00 00 00 00 00 00 00 00 ................
0040A560 00 00 00 00 00 00 00 00 00 00 00 00 00 00 00 00 ................
0040A570 00 00 00 00 00 00 00 00 00 00 00 00 00 00 00 00 ................
0040A580 00 00 00 00 00 00 00 00 00 00 00 00 00 00 00 00 ................
0040A590 00 00 00 00 00 00 00 00 00 00 00 00 00 00 00 00 ................
0040A5A0 00 00 00 00 00 00 00 00 00 00 00 00 00 00 00 00 ................
0040A5B0 00 00 00 00 00 00 00 00 00 00 00 00 00 00 00 00 ................
0040A5C0 00 00 00 00 00 00 00 00 00 00 00 00 00 00 00 00 ................
0040A5D0 00 00 00 00 00 00 00 00 00 00 00 00 00 00 00 00 ................
0040A5E0 00 00 00 00 00 00 00 00 00 00 00 00 00 00 00 00 ................
0040A5F0 00 00 00 00 00 00 00 00 00 00 00 00 00 00 00 00 ................
0040A600 00 00 00 00 00 00 00 00 00 00 00 00 00 00 00 00 ................
0040A610 00 00 00 00 00 00 00 00 00 00 00 00 00 00 00 00 ................
0040A620 00 00 00 00 00 00 00 00 00 00 00 00 00 00 00 00 ................
0040A630 00 00 00 00 00 00 00 00 00 00 00 00 00 00 00 00 ................
0040A640 00 00 00 00 00 00 00 00 00 00 00 00 00 00 00 00 ................
0040A650 00 00 00 00 00 00 00 00 00 00 00 00 00 00 00 00 ................
0040A660 00 00 00 00 00 00 00 00 00 00 00 00 00 00 00 00 ................
0040A670 00 00 00 00 00 00 00 00 00 00 00 00 00 00 00 00 ................
0040A680 00 00 00 00 00 00 00 00 00 00 00 00 00 00 00 00 ................
0040A690 00 00 00 00 00 00 00 00 00 00 00 00 00 00 00 00 ................
0040A6A0 00 00 00 00 00 00 00 00 00 00 00 00 00 00 00 00 ................
0040A6B0 00 00 00 00 00 00 00 00 00 00 00 00 00 00 00 00 ................
0040A6C0 00 00 00 00 00 00 00 00 00 00 00 00 00 00 00 00 ................
0040A6D0 00 00 00 00 00 00 00 00 00 00 00 00 00 00 00 00 ................
0040A6E0 00 00 00 00 00 00 00 00 00 00 00 00 00 00 00 00 ................
0040A6F0 00 00 00 00 00 00 00 00 00 00 00 00 00 00 00 00 ................
0040A700 00 00 00 00 00 00 00 00 00 00 00 00 00 00 00 00 ................
0040A710 00 00 00 00 00 00 00 00 00 00 00 00 00 00 00 00 ................
0040A720 00 00 00 00 00 00 00 00 00 00 00 00 00 00 00 00 ................
0040A730 00 00 00 00 00 00 00 00 00 00 00 00 00 00 00 00 ................
0040A740 00 00 00 00 00 00 00 00 00 00 00 00 00 00 00 00 ................
0040A750 00 00 00 00 00 00 00 00 00 00 00 00 00 00 00 00 ................
0040A760 00 00 00 00 00 00 00 00 00 00 00 00 00 00 00 00 ................
0040A770 00 00 00 00 00 00 00 00 00 00 00 00 00 00 00 00 ................
0040A780 00 00 00 00 00 00 00 00 00 00 00 00 00 00 00 00 ................
0040A790 00 00 00 00 00 00 00 00 00 00 00 00 00 00 00 00 ................
0040A7A0 00 00 00 00 00 00 00 00 00 00 00 00 00 00 00 00 ................
0040A7B0 00 00 00 00 00 00 00 00 00 00 00 00 00 00 00 00 ................
0040A7C0 00 00 00 00 00 00 00 00 00 00 00 00 00 00 00 00 ................
0040A7D0 00 00 00 00 00 00 00 00 00 00 00 00 00 00 00 00 ................
0040A7E0 00 00 00 00 00 00 00 00 00 00 00 00 00 00 00 00 ................
0040A7F0 00 00 00 00 00 00 00 00 00 00 00 00 00 00 00 00 ................
0040A800 00 00 00 00 00 00 00 00 00 00 00 00 00 00 00 00 ................
0040A810 00 00 00 00 00 00 00 00 00 00 00 00 00 00 00 00 ................
0040A820 00 00 00 00 00 00 00 00 00 00 00 00 00 00 00 00 ................
0040A830 00 00 00 00 00 00 00 00 00 00 00 00 00 00 00 00 ................
0040A840 00 00 00 00 00 00 00 00 00 00 00 00 00 00 00 00 ................
0040A850 00 00 00 00 00 00 00 00 00 00 00 00 00 00 00 00 ................
0040A860 00 00 00 00 00 00 00 00 00 00 00 00 00 00 00 00 ................
0040A870 00 00 00 00 00 00 00 00 00 00 00 00 00 00 00 00 ................
0040A880 00 00 00 00 00 00 00 00 00 00 00 00 00 00 00 00 ................
0040A890 00 00 00 00 00 00 00 00 00 00 00 00 00 00 00 00 ................
0040A8A0 00 00 00 00 00 00 00 00 00 00 00 00 00 00 00 00 ................
0040A8B0 00 00 00 00 00 00 00 00 00 00 00 00 00 00 00 00 ................
0040A8C0 00 00 00 00 00 00 00 00 00 00 00 00 00 00 00 00 ................
0040A8D0 00 00 00 00 00 00 00 00 00 00 00 00 00 00 00 00 ................
0040A8E0 00 00 00 00 00 00 00 00 00 00 00 00 00 00 00 00 ................
0040A8F0 00 00 00 00 00 00 00 00 00 00 00 00 00 00 00 00 ................
0040A900 00 00 00 00 00 00 00 00 00 00 00 00 00 00 00 00 ................
0040A910 00 00 00 00 00 00 00 00 00 00 00 00 00 00 00 00 ................
0040A920 00 00 00 00 00 00 00 00 00 00 00 00 00 00 00 00 ................
0040A930 00 00 00 00 00 00 00 00 00 00 00 00 00 00 00 00 ................
0040A940 00 00 00 00 00 00 00 00 00 00 00 00 00 00 00 00 ................
0040A950 00 00 00 00 00 00 00 00 00 00 00 00 00 00 00 00 ................
0040A960 00 00 00 00 00 00 00 00 00 00 00 00 00 00 00 00 ................
0040A970 00 00 00 00 00 00 00 00 00 00 00 00 00 00 00 00 ................
0040A980 00 00 00 00 00 00 00 00 00 00 00 00 00 00 00 00 ................
0040A990 00 00 00 00 00 00 00 00 00 00 00 00 00 00 00 00 ................
0040A9A0 00 00 00 00 00 00 00 00 00 00 00 00 00 00 00 00 ................
0040A9B0 00 00 00 00 00 00 00 00 00 00 00 00 00 00 00 00 ................
0040A9C0 00 00 00 00 00 00 00 00 00 00 00 00 00 00 00 00 ................
0040A9D0 00 00 00 00 00 00 00 00 00 00 00 00 00 00 00 00 ................
0040A9E0 00 00 00 00 00 00 00 00 00 00 00 00 00 00 00 00 ................
0040A9F0 00 00 00 00 00 00 00 00 00 00 00 00 00 00 00 00 ................
0040AA00 00 00 00 00 00 00 00 00 00 00 00 00 00 00 00 00 ................
0040AA10 00 00 00 00 00 00 00 00 00 00 00 00 00 00 00 00 ................
0040AA20 00 00 00 00 00 00 00 00 00 00 00 00 00 00 00 00 ................
0040AA30 00 00 00 00 00 00 00 00 00 00 00 00 00 00 00 00 ................
0040AA40 00 00 00 00 00 00 00 00 00 00 00 00 00 00 00 00 ................
0040AA50 00 00 00 00 00 00 00 00 00 00 00 00 00 00 00 00 ................
0040AA60 00 00 00 00 00 00 00 00 00 00 00 00 00 00 00 00 ................
0040AA70 00 00 00 00 00 00 00 00 00 00 00 00 00 00 00 00 ................
0040AA80 00 00 00 00 00 00 00 00 00 00 00 00 00 00 00 00 ................
0040AA90 00 00 00 00 00 00 00 00 00 00 00 00 00 00 00 00 ................
0040AAA0 00 00 00 00 00 00 00 00 00 00 00 00 00 00 00 00 ................
0040AAB0 00 00 00 00 00 00 00 00 00 00 00 00 00 00 00 00 ................
0040AAC0 00 00 00 00 00 00 00 00 00 00 00 00 00 00 00 00 ................
0040AAD0 00 00 00 00 00 00 00 00 00 00 00 00 00 00 00 00 ................
0040AAE0 00 00 00 00 00 00 00 00 00 00 00 00 00 00 00 00 ................
0040AAF0 00 00 00 00 00 00 00 00 00 00 00 00 00 00 00 00 ................
0040AB00 00 00 00 00 00 00 00 00 00 00 00 00 00 00 00 00 ................
0040AB10 00 00 00 00 00 00 00 00 00 00 00 00 00 00 00 00 ................
0040AB20 00 00 00 00 00 00 00 00 00 00 00 00 00 00 00 00 ................
0040AB30 00 00 00 00 00 00 00 00 00 00 00 00 00 00 00 00 ................
0040AB40 00 00 00 00 00 00 00 00 00 00 00 00 00 00 00 00 ................
0040AB50 00 00 00 00 00 00 00 00 00 00 00 00 00 00 00 00 ................
0040AB60 00 00 00 00 00 00 00 00 00 00 00 00 00 00 00 00 ................
0040AB70 00 00 00 00 00 00 00 00 00 00 00 00 00 00 00 00 ................
0040AB80 00 00 00 00 00 00 00 00 00 00 00 00 00 00 00 00 ................
0040AB90 00 00 00 00 00 00 00 00 00 00 00 00 00 00 00 00 ................
0040ABA0 00 00 00 00 00 00 00 00 00 00 00 00 00 00 00 00 ................
0040ABB0 00 00 00 00 00 00 00 00 00 00 00 00 00 00 00 00 ................
0040ABC0 00 00 00 00 00 00 00 00 00 00 00 00 00 00 00 00 ................
0040ABD0 00 00 00 00 00 00 00 00 00 00 00 00 00 00 00 00 ................
0040ABE0 00 00 00 00 00 00 00 00 00 00 00 00 00 00 00 00 ................
0040ABF0 00 00 00 00 00 00 00 00 00 00 00 00 00 00 00 00 ................
0040AC00 00 00 00 00 00 00 00 00 00 00 00 00 00 00 00 00 ................
0040AC10 00 00 00 00 00 00 00 00 00 00 00 00 00 00 00 00 ................
0040AC20 00 00 00 00 00 00 00 00 00 00 00 00 00 00 00 00 ................
0040AC30 00 00 00 00 00 00 00 00 00 00 00 00 00 00 00 00 ................
0040AC40 00 00 00 00 00 00 00 00 00 00 00 00 00 00 00 00 ................
0040AC50 00 00 00 00 00 00 00 00 00 00 00 00 00 00 00 00 ................
0040AC60 00 00 00 00 00 00 00 00 00 00 00 00 00 00 00 00 ................
0040AC70 00 00 00 00 00 00 00 00 00 00 00 00 00 00 00 00 ................
0040AC80 00 00 00 00 00 00 00 00 00 00 00 00 00 00 00 00 ................
0040AC90 00 00 00 00 00 00 00 00 00 00 00 00 00 00 00 00 ................
0040ACA0 00 00 00 00 00 00 00 00 00 00 00 00 00 00 00 00 ................
0040ACB0 00 00 00 00 00 00 00 00 00 00 00 00 00 00 00 00 ................
0040ACC0 00 00 00 00 00 00 00 00 00 00 00 00 00 00 00 00 ................
0040ACD0 00 00 00 00 00 00 00 00 00 00 00 00 00 00 00 00 ................
0040ACE0 00 00 00 00 00 00 00 00 00 00 00 00 00 00 00 00 ................
0040ACF0 00 00 00 00 00 00 00 00 00 00 00 00 00 00 00 00 ................
0040AD00 00 00 00 00 00 00 00 00 00 00 00 00 00 00 00 00 ................
0040AD10 00 00 00 00 00 00 00 00 00 00 00 00 00 00 00 00 ................
0040AD20 00 00 00 00 00 00 00 00 00 00 00 00 00 00 00 00 ................
0040AD30 00 00 00 00 00 00 00 00 00 00 00 00 00 00 00 00 ................
0040AD40 00 00 00 00 00 00 00 00 00 00 00 00 00 00 00 00 ................
0040AD50 00 00 00 00 00 00 00 00 00 00 00 00 00 00 00 00 ................
0040AD60 00 00 00 00 00 00 00 00 00 00 00 00 00 00 00 00 ................
0040AD70 00 00 00 00 00 00 00 00 00 00 00 00 00 00 00 00 ................
0040AD80 00 00 00 00 00 00 00 00 00 00 00 00 00 00 00 00 ................
0040AD90 00 00 00 00 00 00 00 00 00 00 00 00 00 00 00 00 ................
0040ADA0 00 00 00 00 00 00 00 00 00 00 00 00 00 00 00 00 ................
0040ADB0 00 00 00 00 00 00 00 00 00 00 00 00 00 00 00 00 ................
0040ADC0 00 00 00 00 00 00 00 00 00 00 00 00 00 00 00 00 ................
0040ADD0 00 00 00 00 00 00 00 00 00 00 00 00 00 00 00 00 ................
0040ADE0 00 00 00 00 00 00 00 00 00 00 00 00 00 00 00 00 ................
0040ADF0 00 00 00 00 00 00 00 00 00 00 00 00 00 00 00 00 ................
0040AE00 00 00 00 00 00 00 00 00 00 00 00 00 00 00 00 00 ................
0040AE10 00 00 00 00 00 00 00 00 00 00 00 00 00 00 00 00 ................
0040AE20 00 00 00 00 00 00 00 00 00 00 00 00 00 00 00 00 ................
0040AE30 00 00 00 00 00 00 00 00 00 00 00 00 00 00 00 00 ................
0040AE40 00 00 00 00 00 00 00 00 00 00 00 00 00 00 00 00 ................
0040AE50 00 00 00 00 00 00 00 00 00 00 00 00 00 00 00 00 ................
0040AE60 00 00 00 00 00 00 00 00 00 00 00 00 00 00 00 00 ................
0040AE70 00 00 00 00 00 00 00 00 00 00 00 00 00 00 00 00 ................
0040AE80 00 00 00 00 00 00 00 00 00 00 00 00 00 00 00 00 ................
0040AE90 00 00 00 00 00 00 00 00 00 00 00 00 00 00 00 00 ................
0040AEA0 00 00 00 00 00 00 00 00 00 00 00 00 00 00 00 00 ................
0040AEB0 00 00 00 00 00 00 00 00 00 00 00 00 00 00 00 00 ................
0040AEC0 00 00 00 00 00 00 00 00 00 00 00 00 00 00 00 00 ................
0040AED0 00 00 00 00 00 00 00 00 00 00 00 00 00 00 00 00 ................
0040AEE0 00 00 00 00 00 00 00 00 00 00 00 00 00 00 00 00 ................
0040AEF0 00 00 00 00 00 00 00 00 00 00 00 00 00 00 00 00 ................
0040AF00 00 00 00 00 00 00 00 00 00 00 00 00 00 00 00 00 ................
0040AF10 00 00 00 00 00 00 00 00 00 00 00 00 00 00 00 00 ................
0040AF20 00 00 00 00 00 00 00 00 00 00 00 00 00 00 00 00 ................
0040AF30 00 00 00 00 00 00 00 00 00 00 00 00 00 00 00 00 ................
0040AF40 00 00 00 00 00 00 00 00 00 00 00 00 00 00 00 00 ................
0040AF50 00 00 00 00 00 00 00 00 00 00 00 00 00 00 00 00 ................
0040AF60 00 00 00 00 00 00 00 00 00 00 00 00 00 00 00 00 ................
0040AF70 00 00 00 00 00 00 00 00 00 00 00 00 00 00 00 00 ................
0040AF80 00 00 00 00 00 00 00 00 00 00 00 00 00 00 00 00 ................
0040AF90 00 00 00 00 00 00 00 00 00 00 00 00 00 00 00 00 ................
0040AFA0 00 00 00 00 00 00 00 00 00 00 00 00 00 00 00 00 ................
0040AFB0 00 00 00 00 00 00 00 00 00 00 00 00 00 00 00 00 ................
0040AFC0 00 00 00 00 00 00 00 00 00 00 00 00 00 00 00 00 ................
0040AFD0 00 00 00 00 00 00 00 00 00 00 00 00 00 00 00 00 ................
0040AFE0 00 00 00 00 00 00 00 00 00 00 00 00 00 00 00 00 ................
0040AFF0 00 00 00 00 00 00 00 00 00 00 00 00 00 00 00 00 ................
0040B000 00 00 00 00 00 00 00 00 00 00 00 00 00 00 00 00 ................
0040B010 00 00 00 00 00 00 00 00 00 00 00 00 00 00 00 00 ................
0040B020 00 00 00 00 00 00 00 00 00 00 00 00 00 00 00 00 ................
0040B030 00 00 00 00 00 00 00 00 00 00 00 00 00 00 00 00 ................
0040B040 00 00 00 00 00 00 00 00 00 00 00 00 00 00 00 00 ................
0040B050 00 00 00 00 00 00 00 00 00 00 00 00 00 00 00 00 ................
0040B060 00 00 00 00 00 00 00 00 00 00 00 00 00 00 00 00 ................
0040B070 00 00 00 00 00 00 00 00 00 00 00 00 00 00 00 00 ................
0040B080 00 00 00 00 00 00 00 00 00 00 00 00 00 00 00 00 ................
0040B090 00 00 00 00 00 00 00 00 00 00 00 00 00 00 00 00 ................
0040B0A0 00 00 00 00 00 00 00 00 00 00 00 00 00 00 00 00 ................
0040B0B0 00 00 00 00 00 00 00 00 00 00 00 00 00 00 00 00 ................
0040B0C0 00 00 00 00 00 00 00 00 00 00 00 00 00 00 00 00 ................
0040B0D0 00 00 00 00 00 00 00 00 00 00 00 00 00 00 00 00 ................
0040B0E0 00 00 00 00 00 00 00 00 00 00 00 00 00 00 00 00 ................
0040B0F0 00 00 00 00 00 00 00 00 00 00 00 00 00 00 00 00 ................
0040B100 00 00 00 00 00 00 00 00 00 00 00 00 00 00 00 00 ................
0040B110 00 00 00 00 00 00 00 00 00 00 00 00 00 00 00 00 ................
0040B120 00 00 00 00 00 00 00 00 00 00 00 00 00 00 00 00 ................
0040B130 00 00 00 00 00 00 00 00 00 00 00 00 00 00 00 00 ................
0040B140 00 00 00 00 00 00 00 00 00 00 00 00 00 00 00 00 ................
0040B150 00 00 00 00 00 00 00 00 00 00 00 00 00 00 00 00 ................
0040B160 00 00 00 00 00 00 00 00 00 00 00 00 00 00 00 00 ................
0040B170 00 00 00 00 00 00 00 00 00 00 00 00 00 00 00 00 ................
0040B180 00 00 00 00 00 00 00 00 00 00 00 00 00 00 00 00 ................
0040B190 00 00 00 00 00 00 00 00 00 00 00 00 00 00 00 00 ................
0040B1A0 00 00 00 00 00 00 00 00 00 00 00 00 00 00 00 00 ................
0040B1B0 00 00 00 00 00 00 00 00 00 00 00 00 00 00 00 00 ................
0040B1C0 00 00 00 00 00 00 00 00 00 00 00 00 00 00 00 00 ................
0040B1D0 00 00 00 00 00 00 00 00 00 00 00 00 00 00 00 00 ................
0040B1E0 00 00 00 00 00 00 00 00 00 00 00 00 00 00 00 00 ................
0040B1F0 00 00 00 00 00 00 00 00 00 00 00 00 00 00 00 00 ................
0040B200 00 00 00 00 00 00 00 00 00 00 00 00 00 00 00 00 ................
0040B210 00 00 00 00 00 00 00 00 00 00 00 00 00 00 00 00 ................
0040B220 00 00 00 00 00 00 00 00 00 00 00 00 00 00 00 00 ................
0040B230 00 00 00 00 00 00 00 00 00 00 00 00 00 00 00 00 ................
0040B240 00 00 00 00 00 00 00 00 00 00 00 00 00 00 00 00 ................
0040B250 00 00 00 00 00 00 00 00 00 00 00 00 00 00 00 00 ................
0040B260 00 00 00 00 00 00 00 00 00 00 00 00 00 00 00 00 ................
0040B270 00 00 00 00 00 00 00 00 00 00 00 00 00 00 00 00 ................
0040B280 00 00 00 00 00 00 00 00 00 00 00 00 00 00 00 00 ................
0040B290 00 00 00 00 00 00 00 00 00 00 00 00 00 00 00 00 ................
0040B2A0 00 00 00 00 00 00 00 00 00 00 00 00 00 00 00 00 ................
0040B2B0 00 00 00 00 00 00 00 00 00 00 00 00 00 00 00 00 ................
0040B2C0 00 00 00 00 00 00 00 00 00 00 00 00 00 00 00 00 ................
0040B2D0 00 00 00 00 00 00 00 00 00 00 00 00 00 00 00 00 ................
0040B2E0 00 00 00 00 00 00 00 00 00 00 00 00 00 00 00 00 ................
0040B2F0 00 00 00 00 00 00 00 00 00 00 00 00 00 00 00 00 ................
0040B300 00 00 00 00 00 00 00 00 00 00 00 00 00 00 00 00 ................
0040B310 00 00 00 00 00 00 00 00 00 00 00 00 00 00 00 00 ................
0040B320 00 00 00 00 00 00 00 00 00 00 00 00 00 00 00 00 ................
0040B330 00 00 00 00 00 00 00 00 00 00 00 00 00 00 00 00 ................
0040B340 00 00 00 00 00 00 00 00 00 00 00 00 00 00 00 00 ................
0040B350 00 00 00 00 00 00 00 00 00 00 00 00 00 00 00 00 ................
0040B360 00 00 00 00 00 00 00 00 00 00 00 00 00 00 00 00 ................
0040B370 00 00 00 00 00 00 00 00 00 00 00 00 00 00 00 00 ................
0040B380 00 00 00 00 00 00 00 00 00 00 00 00 00 00 00 00 ................
0040B390 00 00 00 00 00 00 00 00 00 00 00 00 00 00 00 00 ................
0040B3A0 00 00 00 00 00 00 00 00 00 00 00 00 00 00 00 00 ................
0040B3B0 00 00 00 00 00 00 00 00 00 00 00 00 00 00 00 00 ................
0040B3C0 00 00 00 00 00 00 00 00 00 00 00 00 00 00 00 00 ................
0040B3D0 00 00 00 00 00 00 00 00 00 00 00 00 00 00 00 00 ................
0040B3E0 00 00 00 00 00 00 00 00 00 00 00 00 00 00 00 00 ................
0040B3F0 00 00 00 00 00 00 00 00 00 00 00 00 00 00 00 00 ................
0040B400 00 00 00 00 00 00 00 00 00 00 00 00 00 00 00 00 ................
0040B410 00 00 00 00 00 00 00 00 00 00 00 00 00 00 00 00 ................
0040B420 00 00 00 00 00 00 00 00 00 00 00 00 00 00 00 00 ................
0040B430 00 00 00 00 00 00 00 00 00 00 00 00 00 00 00 00 ................
0040B440 00 00 00 00 00 00 00 00 00 00 00 00 00 00 00 00 ................
0040B450 00 00 00 00 00 00 00 00 00 00 00 00 00 00 00 00 ................
0040B460 00 00 00 00 00 00 00 00 00 00 00 00 00 00 00 00 ................
0040B470 00 00 00 00 00 00 00 00 00 00 00 00 00 00 00 00 ................
0040B480 00 00 00 00 00 00 00 00 00 00 00 00 00 00 00 00 ................
0040B490 00 00 00 00 00 00 00 00 00 00 00 00 00 00 00 00 ................
0040B4A0 00 00 00 00 00 00 00 00 00 00 00 00 00 00 00 00 ................
0040B4B0 00 00 00 00 00 00 00 00 00 00 00 00 00 00 00 00 ................
0040B4C0 00 00 00 00 00 00 00 00 00 00 00 00 00 00 00 00 ................
0040B4D0 00 00 00 00 00 00 00 00 00 00 00 00 00 00 00 00 ................
0040B4E0 00 00 00 00 00 00 00 00 00 00 00 00 00 00 00 00 ................
0040B4F0 00 00 00 00 00 00 00 00 00 00 00 00 00 00 00 00 ................
0040B500 00 00 00 00 00 00 00 00 00 00 00 00 00 00 00 00 ................
0040B510 00 00 00 00 00 00 00 00 00 00 00 00 00 00 00 00 ................
0040B520 00 00 00 00 00 00 00 00 00 00 00 00 00 00 00 00 ................
0040B530 00 00 00 00 00 00 00 00 00 00 00 00 00 00 00 00 ................
0040B540 00 00 00 00 00 00 00 00 00 00 00 00 00 00 00 00 ................
0040B550 00 00 00 00 00 00 00 00 00 00 00 00 00 00 00 00 ................
0040B560 00 00 00 00 00 00 00 00 00 00 00 00 00 00 00 00 ................
0040B570 00 00 00 00 00 00 00 00 00 00 00 00 00 00 00 00 ................
0040B580 00 00 00 00 00 00 00 00 00 00 00 00 00 00 00 00 ................
0040B590 00 00 00 00 00 00 00 00 00 00 00 00 00 00 00 00 ................
0040B5A0 00 00 00 00 00 00 00 00 00 00 00 00 00 00 00 00 ................
0040B5B0 00 00 00 00 00 00 00 00 00 00 00 00 00 00 00 00 ................
0040B5C0 00 00 00 00 00 00 00 00 00 00 00 00 00 00 00 00 ................
0040B5D0 00 00 00 00 00 00 00 00 00 00 00 00 00 00 00 00 ................
0040B5E0 00 00 00 00 00 00 00 00 00 00 00 00 00 00 00 00 ................
0040B5F0 00 00 00 00 00 00 00 00 00 00 00 00 00 00 00 00 ................
0040B600 00 00 00 00 00 00 00 00 00 00 00 00 00 00 00 00 ................
0040B610 00 00 00 00 00 00 00 00 00 00 00 00 00 00 00 00 ................
0040B620 00 00 00 00 00 00 00 00 00 00 00 00 00 00 00 00 ................
0040B630 00 00 00 00 00 00 00 00 00 00 00 00 00 00 00 00 ................
0040B640 00 00 00 00 00 00 00 00 00 00 00 00 00 00 00 00 ................
0040B650 00 00 00 00 00 00 00 00 00 00 00 00 00 00 00 00 ................
0040B660 00 00 00 00 00 00 00 00 00 00 00 00 00 00 00 00 ................
0040B670 00 00 00 00 00 00 00 00 00 00 00 00 00 00 00 00 ................
0040B680 00 00 00 00 00 00 00 00 00 00 00 00 00 00 00 00 ................
0040B690 00 00 00 00 00 00 00 00 00 00 00 00 00 00 00 00 ................
0040B6A0 00 00 00 00 00 00 00 00 00 00 00 00 00 00 00 00 ................
0040B6B0 00 00 00 00 00 00 00 00 00 00 00 00 00 00 00 00 ................
0040B6C0 00 00 00 00 00 00 00 00 00 00 00 00 00 00 00 00 ................
0040B6D0 00 00 00 00 00 00 00 00 00 00 00 00 00 00 00 00 ................
0040B6E0 00 00 00 00 00 00 00 00 00 00 00 00 00 00 00 00 ................
0040B6F0 00 00 00 00 00 00 00 00 00 00 00 00 00 00 00 00 ................
0040B700 00 00 00 00 00 00 00 00 00 00 00 00 00 00 00 00 ................
0040B710 00 00 00 00 00 00 00 00 00 00 00 00 00 00 00 00 ................
0040B720 00 00 00 00 00 00 00 00 00 00 00 00 00 00 00 00 ................
0040B730 00 00 00 00 00 00 00 00 00 00 00 00 00 00 00 00 ................
0040B740 00 00 00 00 00 00 00 00 00 00 00 00 00 00 00 00 ................
0040B750 00 00 00 00 00 00 00 00 00 00 00 00 00 00 00 00 ................
0040B760 00 00 00 00 00 00 00 00 00 00 00 00 00 00 00 00 ................
0040B770 00 00 00 00 00 00 00 00 00 00 00 00 00 00 00 00 ................
0040B780 00 00 00 00 00 00 00 00 00 00 00 00 00 00 00 00 ................
0040B790 00 00 00 00 00 00 00 00 00 00 00 00 00 00 00 00 ................
0040B7A0 00 00 00 00 00 00 00 00 00 00 00 00 00 00 00 00 ................
0040B7B0 00 00 00 00 00 00 00 00 00 00 00 00 00 00 00 00 ................
0040B7C0 00 00 00 00 00 00 00 00 00 00 00 00 00 00 00 00 ................
0040B7D0 00 00 00 00 00 00 00 00 00 00 00 00 00 00 00 00 ................
0040B7E0 00 00 00 00 00 00 00 00 00 00 00 00 00 00 00 00 ................
0040B7F0 00 00 00 00 00 00 00 00 00 00 00 00 00 00 00 00 ................
0040B800 00 00 00 00 00 00 00 00 00 00 00 00 00 00 00 00 ................
0040B810 00 00 00 00 00 00 00 00 00 00 00 00 00 00 00 00 ................
0040B820 00 00 00 00 00 00 00 00 00 00 00 00 00 00 00 00 ................
0040B830 00 00 00 00 00 00 00 00 00 00 00 00 00 00 00 00 ................
0040B840 00 00 00 00 00 00 00 00 00 00 00 00 00 00 00 00 ................
0040B850 00 00 00 00 00 00 00 00 00 00 00 00 00 00 00 00 ................
0040B860 00 00 00 00 00 00 00 00 00 00 00 00 00 00 00 00 ................
0040B870 00 00 00 00 00 00 00 00 00 00 00 00 00 00 00 00 ................
0040B880 00 00 00 00 00 00 00 00 00 00 00 00 00 00 00 00 ................
0040B890 00 00 00 00 00 00 00 00 00 00 00 00 00 00 00 00 ................
0040B8A0 00 00 00 00 00 00 00 00 00 00 00 00 00 00 00 00 ................
0040B8B0 00 00 00 00 00 00 00 00 00 00 00 00 00 00 00 00 ................
0040B8C0 00 00 00 00 00 00 00 00 00 00 00 00 00 00 00 00 ................
0040B8D0 00 00 00 00 00 00 00 00 00 00 00 00 00 00 00 00 ................
0040B8E0 00 00 00 00 00 00 00 00 00 00 00 00 00 00 00 00 ................
0040B8F0 00 00 00 00 00 00 00 00 00 00 00 00 00 00 00 00 ................
0040B900 00 00 00 00 00 00 00 00 00 00 00 00 00 00 00 00 ................
0040B910 00 00 00 00 00 00 00 00 00 00 00 00 00 00 00 00 ................
0040B920 00 00 00 00 00 00 00 00 00 00 00 00 00 00 00 00 ................
0040B930 00 00 00 00 00 00 00 00 00 00 00 00 00 00 00 00 ................
0040B940 00 00 00 00 00 00 00 00 00 00 00 00 00 00 00 00 ................
0040B950 00 00 00 00 00 00 00 00 00 00 00 00 00 00 00 00 ................
0040B960 00 00 00 00 00 00 00 00 00 00 00 00 00 00 00 00 ................
0040B970 00 00 00 00 00 00 00 00 00 00 00 00 00 00 00 00 ................
0040B980 00 00 00 00 00 00 00 00 00 00 00 00 00 00 00 00 ................
0040B990 00 00 00 00 00 00 00 00 00 00 00 00 00 00 00 00 ................
0040B9A0 00 00 00 00 00 00 00 00 00 00 00 00 00 00 00 00 ................
0040B9B0 00 00 00 00 00 00 00 00 00 00 00 00 00 00 00 00 ................
0040B9C0 00 00 00 00 00 00 00 00 00 00 00 00 00 00 00 00 ................
0040B9D0 00 00 00 00 00 00 00 00 00 00 00 00 00 00 00 00 ................
0040B9E0 00 00 00 00 00 00 00 00 00 00 00 00 00 00 00 00 ................
0040B9F0 00 00 00 00 00 00 00 00 00 00 00 00 00 00 00 00 ................
0040BA00 00 00 00 00 00 00 00 00 00 00 00 00 00 00 00 00 ................
0040BA10 00 00 00 00 00 00 00 00 00 00 00 00 00 00 00 00 ................
0040BA20 00 00 00 00 00 00 00 00 00 00 00 00 00 00 00 00 ................
0040BA30 00 00 00 00 00 00 00 00 00 00 00 00 00 00 00 00 ................
0040BA40 00 00 00 00 00 00 00 00 00 00 00 00 00 00 00 00 ................
0040BA50 00 00 00 00 00 00 00 00 00 00 00 00 00 00 00 00 ................
0040BA60 00 00 00 00 00 00 00 00 00 00 00 00 00 00 00 00 ................
0040BA70 00 00 00 00 00 00 00 00 00 00 00 00 00 00 00 00 ................
0040BA80 00 00 00 00 00 00 00 00 00 00 00 00 00 00 00 00 ................
0040BA90 00 00 00 00 00 00 00 00 00 00 00 00 00 00 00 00 ................
0040BAA0 00 00 00 00 00 00 00 00 00 00 00 00 00 00 00 00 ................
0040BAB0 00 00 00 00 00 00 00 00 00 00 00 00 00 00 00 00 ................
0040BAC0 00 00 00 00 00 00 00 00 00 00 00 00 00 00 00 00 ................
0040BAD0 00 00 00 00 00 00 00 00 00 00 00 00 00 00 00 00 ................
0040BAE0 00 00 00 00 00 00 00 00 00 00 00 00 00 00 00 00 ................
0040BAF0 00 00 00 00 00 00 00 00 00 00 00 00 00 00 00 00 ................
0040BB00 00 00 00 00 00 00 00 00 00 00 00 00 00 00 00 00 ................
0040BB10 00 00 00 00 00 00 00 00 00 00 00 00 00 00 00 00 ................
0040BB20 00 00 00 00 00 00 00 00 00 00 00 00 00 00 00 00 ................
0040BB30 00 00 00 00 00 00 00 00 00 00 00 00 00 00 00 00 ................
0040BB40 00 00 00 00 00 00 00 00 00 00 00 00 00 00 00 00 ................
0040BB50 00 00 00 00 00 00 00 00 00 00 00 00 00 00 00 00 ................
0040BB60 00 00 00 00 00 00 00 00 00 00 00 00 00 00 00 00 ................
0040BB70 00 00 00 00 00 00 00 00 00 00 00 00 00 00 00 00 ................
0040BB80 00 00 00 00 00 00 00 00 00 00 00 00 00 00 00 00 ................
0040BB90 00 00 00 00 00 00 00 00 00 00 00 00 00 00 00 00 ................
0040BBA0 00 00 00 00 00 00 00 00 00 00 00 00 00 00 00 00 ................
0040BBB0 00 00 00 00 00 00 00 00 00 00 00 00 00 00 00 00 ................
0040BBC0 00 00 00 00 00 00 00 00 00 00 00 00 00 00 00 00 ................
0040BBD0 00 00 00 00 00 00 00 00 00 00 00 00 00 00 00 00 ................
0040BBE0 00 00 00 00 00 00 00 00 00 00 00 00 00 00 00 00 ................
0040BBF0 00 00 00 00 00 00 00 00 00 00 00 00 00 00 00 00 ................
0040BC00 00 00 00 00 00 00 00 00 00 00 00 00 00 00 00 00 ................
0040BC10 00 00 00 00 00 00 00 00 00 00 00 00 00 00 00 00 ................
0040BC20 00 00 00 00 00 00 00 00 00 00 00 00 00 00 00 00 ................
0040BC30 00 00 00 00 00 00 00 00 00 00 00 00 00 00 00 00 ................
0040BC40 00 00 00 00 00 00 00 00 00 00 00 00 00 00 00 00 ................
0040BC50 00 00 00 00 00 00 00 00 00 00 00 00 00 00 00 00 ................
0040BC60 00 00 00 00 00 00 00 00 00 00 00 00 00 00 00 00 ................
0040BC70 00 00 00 00 00 00 00 00 00 00 00 00 00 00 00 00 ................
0040BC80 00 00 00 00 00 00 00 00 00 00 00 00 00 00 00 00 ................
0040BC90 00 00 00 00 00 00 00 00 00 00 00 00 00 00 00 00 ................
0040BCA0 00 00 00 00 00 00 00 00 00 00 00 00 00 00 00 00 ................
0040BCB0 00 00 00 00 00 00 00 00 00 00 00 00 00 00 00 00 ................
0040BCC0 00 00 00 00 00 00 00 00 00 00 00 00 00 00 00 00 ................
0040BCD0 00 00 00 00 00 00 00 00 00 00 00 00 00 00 00 00 ................
0040BCE0 00 00 00 00 00 00 00 00 00 00 00 00 00 00 00 00 ................
0040BCF0 00 00 00 00 00 00 00 00 00 00 00 00 00 00 00 00 ................
0040BD00 00 00 00 00 00 00 00 00 00 00 00 00 00 00 00 00 ................
0040BD10 00 00 00 00 00 00 00 00 00 00 00 00 00 00 00 00 ................
0040BD20 00 00 00 00 00 00 00 00 00 00 00 00 00 00 00 00 ................
0040BD30 00 00 00 00 00 00 00 00 00 00 00 00 00 00 00 00 ................
0040BD40 00 00 00 00 00 00 00 00 00 00 00 00 00 00 00 00 ................
0040BD50 00 00 00 00 00 00 00 00 00 00 00 00 00 00 00 00 ................
0040BD60 00 00 00 00 00 00 00 00 00 00 00 00 00 00 00 00 ................
0040BD70 00 00 00 00 00 00 00 00 00 00 00 00 00 00 00 00 ................
0040BD80 00 00 00 00 00 00 00 00 00 00 00 00 00 00 00 00 ................
0040BD90 00 00 00 00 00 00 00 00 00 00 00 00 00 00 00 00 ................
0040BDA0 00 00 00 00 00 00 00 00 00 00 00 00 00 00 00 00 ................
0040BDB0 00 00 00 00 00 00 00 00 00 00 00 00 00 00 00 00 ................
0040BDC0 00 00 00 00 00 00 00 00 00 00 00 00 00 00 00 00 ................
0040BDD0 00 00 00 00 00 00 00 00 00 00 00 00 00 00 00 00 ................
0040BDE0 00 00 00 00 00 00 00 00 00 00 00 00 00 00 00 00 ................
0040BDF0 00 00 00 00 00 00 00 00 00 00 00 00 00 00 00 00 ................
0040BE00 00 00 00 00 00 00 00 00 00 00 00 00 00 00 00 00 ................
0040BE10 00 00 00 00 00 00 00 00 00 00 00 00 00 00 00 00 ................
0040BE20 00 00 00 00 00 00 00 00 00 00 00 00 00 00 00 00 ................
0040BE30 00 00 00 00 00 00 00 00 00 00 00 00 00 00 00 00 ................
0040BE40 00 00 00 00 00 00 00 00 00 00 00 00 00 00 00 00 ................
0040BE50 00 00 00 00 00 00 00 00 00 00 00 00 00 00 00 00 ................
0040BE60 00 00 00 00 00 00 00 00 00 00 00 00 00 00 00 00 ................
0040BE70 00 00 00 00 00 00 00 00 00 00 00 00 00 00 00 00 ................
0040BE80 00 00 00 00 00 00 00 00 00 00 00 00 00 00 00 00 ................
0040BE90 00 00 00 00 00 00 00 00 00 00 00 00 00 00 00 00 ................
0040BEA0 00 00 00 00 00 00 00 00 00 00 00 00 00 00 00 00 ................
0040BEB0 00 00 00 00 00 00 00 00 00 00 00 00 00 00 00 00 ................
0040BEC0 00 00 00 00 00 00 00 00 00 00 00 00 00 00 00 00 ................
0040BED0 00 00 00 00 00 00 00 00 00 00 00 00 00 00 00 00 ................
0040BEE0 00 00 00 00 00 00 00 00 00 00 00 00 00 00 00 00 ................
0040BEF0 00 00 00 00 00 00 00 00 00 00 00 00 00 00 00 00 ................
0040BF00 00 00 00 00 00 00 00 00 00 00 00 00 00 00 00 00 ................
0040BF10 00 00 00 00 00 00 00 00 00 00 00 00 00 00 00 00 ................
0040BF20 00 00 00 00 00 00 00 00 00 00 00 00 00 00 00 00 ................
0040BF30 00 00 00 00 00 00 00 00 00 00 00 00 00 00 00 00 ................
0040BF40 00 00 00 00 00 00 00 00 00 00 00 00 00 00 00 00 ................
0040BF50 00 00 00 00 00 00 00 00 00 00 00 00 00 00 00 00 ................
0040BF60 00 00 00 00 00 00 00 00 00 00 00 00 00 00 00 00 ................
0040BF70 00 00 00 00 00 00 00 00 00 00 00 00 00 00 00 00 ................
0040BF80 00 00 00 00 00 00 00 00 00 00 00 00 00 00 00 00 ................
0040BF90 00 00 00 00 00 00 00 00 00 00 00 00 00 00 00 00 ................
0040BFA0 00 00 00 00 00 00 00 00 00 00 00 00 00 00 00 00 ................
0040BFB0 00 00 00 00 00 00 00 00 00 00 00 00 00 00 00 00 ................
0040BFC0 00 00 00 00 00 00 00 00 00 00 00 00 00 00 00 00 ................
0040BFD0 00 00 00 00 00 00 00 00 00 00 00 00 00 00 00 00 ................
0040BFE0 00 00 00 00 00 00 00 00 00 00 00 00 00 00 00 00 ................
0040BFF0 00 00 00 00 00 00 00 00 00 00 00 00 00 00 00 00 ................
0040C000 00 00 00 00 00 00 00 00 00 00 00 00 00 00 00 00 ................
0040C010 00 00 00 00 00 00 00 00 00 00 00 00 00 00 00 00 ................
0040C020 00 00 00 00 00 00 00 00 00 00 00 00 00 00 00 00 ................
0040C030 00 00 00 00 00 00 00 00 00 00 00 00 00 00 00 00 ................
0040C040 00 00 00 00 00 00 00 00 00 00 00 00 00 00 00 00 ................
0040C050 00 00 00 00 00 00 00 00 00 00 00 00 00 00 00 00 ................
0040C060 00 00 00 00 00 00 00 00 00 00 00 00 00 00 00 00 ................
0040C070 00 00 00 00 00 00 00 00 00 00 00 00 00 00 00 00 ................
0040C080 00 00 00 00 00 00 00 00 00 00 00 00 00 00 00 00 ................
0040C090 00 00 00 00 00 00 00 00 00 00 00 00 00 00 00 00 ................
0040C0A0 00 00 00 00 00 00 00 00 00 00 00 00 00 00 00 00 ................
0040C0B0 00 00 00 00 00 00 00 00 00 00 00 00 00 00 00 00 ................
0040C0C0 00 00 00 00 00 00 00 00 00 00 00 00 00 00 00 00 ................
0040C0D0 00 00 00 00 00 00 00 00 00 00 00 00 00 00 00 00 ................
0040C0E0 00 00 00 00 00 00 00 00 00 00 00 00 00 00 00 00 ................
0040C0F0 00 00 00 00 00 00 00 00 00 00 00 00 00 00 00 00 ................
0040C100 00 00 00 00 00 00 00 00 00 00 00 00 00 00 00 00 ................
0040C110 00 00 00 00 00 00 00 00 00 00 00 00 00 00 00 00 ................
0040C120 00 00 00 00 00 00 00 00 00 00 00 00 00 00 00 00 ................
0040C130 00 00 00 00 00 00 00 00 00 00 00 00 00 00 00 00 ................
0040C140 00 00 00 00 00 00 00 00 00 00 00 00 00 00 00 00 ................
0040C150 00 00 00 00 00 00 00 00 00 00 00 00 00 00 00 00 ................
0040C160 00 00 00 00 00 00 00 00 00 00 00 00 00 00 00 00 ................
0040C170 00 00 00 00 00 00 00 00 00 00 00 00 00 00 00 00 ................
0040C180 00 00 00 00 00 00 00 00 00 00 00 00 00 00 00 00 ................
0040C190 00 00 00 00 00 00 00 00 00 00 00 00 00 00 00 00 ................
0040C1A0 00 00 00 00 00 00 00 00 00 00 00 00 00 00 00 00 ................
0040C1B0 00 00 00 00 00 00 00 00 00 00 00 00 00 00 00 00 ................
0040C1C0 00 00 00 00 00 00 00 00 00 00 00 00 00 00 00 00 ................
0040C1D0 00 00 00 00 00 00 00 00 00 00 00 00 00 00 00 00 ................
0040C1E0 00 00 00 00 00 00 00 00 00 00 00 00 00 00 00 00 ................
0040C1F0 00 00 00 00 00 00 00 00 00 00 00 00 00 00 00 00 ................
0040C200 00 00 00 00 00 00 00 00 00 00 00 00 00 00 00 00 ................
0040C210 00 00 00 00 00 00 00 00 00 00 00 00 00 00 00 00 ................
0040C220 00 00 00 00 00 00 00 00 00 00 00 00 00 00 00 00 ................
0040C230 00 00 00 00 00 00 00 00 00 00 00 00 00 00 00 00 ................
0040C240 00 00 00 00 00 00 00 00 00 00 00 00 00 00 00 00 ................
0040C250 00 00 00 00 00 00 00 00 00 00 00 00 00 00 00 00 ................
0040C260 00 00 00 00 00 00 00 00 00 00 00 00 00 00 00 00 ................
0040C270 00 00 00 00 00 00 00 00 00 00 00 00 00 00 00 00 ................
0040C280 00 00 00 00 00 00 00 00 00 00 00 00 00 00 00 00 ................
0040C290 00 00 00 00 00 00 00 00 00 00 00 00 00 00 00 00 ................
0040C2A0 00 00 00 00 00 00 00 00 00 00 00 00 00 00 00 00 ................
0040C2B0 00 00 00 00 00 00 00 00 00 00 00 00 00 00 00 00 ................
0040C2C0 00 00 00 00 00 00 00 00 00 00 00 00 00 00 00 00 ................
0040C2D0 00 00 00 00 00 00 00 00 00 00 00 00 00 00 00 00 ................
0040C2E0 00 00 00 00 00 00 00 00 00 00 00 00 00 00 00 00 ................
0040C2F0 00 00 00 00 00 00 00 00 00 00 00 00 00 00 00 00 ................
0040C300 00 00 00 00 00 00 00 00 00 00 00 00 00 00 00 00 ................
0040C310 00 00 00 00 00 00 00 00 00 00 00 00 00 00 00 00 ................
0040C320 00 00 00 00 00 00 00 00 00 00 00 00 00 00 00 00 ................
0040C330 00 00 00 00 00 00 00 00 00 00 00 00 00 00 00 00 ................
0040C340 00 00 00 00 00 00 00 00 00 00 00 00 00 00 00 00 ................
0040C350 00 00 00 00 00 00 00 00 00 00 00 00 00 00 00 00 ................
0040C360 00 00 00 00 00 00 00 00 00 00 00 00 00 00 00 00 ................
0040C370 00 00 00 00 00 00 00 00 00 00 00 00 00 00 00 00 ................
0040C380 00 00 00 00 00 00 00 00 00 00 00 00 00 00 00 00 ................
0040C390 00 00 00 00 00 00 00 00 00 00 00 00 00 00 00 00 ................
0040C3A0 00 00 00 00 00 00 00 00 00 00 00 00 00 00 00 00 ................
0040C3B0 00 00 00 00 00 00 00 00 00 00 00 00 00 00 00 00 ................
0040C3C0 00 00 00 00 00 00 00 00 00 00 00 00 00 00 00 00 ................
0040C3D0 00 00 00 00 00 00 00 00 00 00 00 00 00 00 00 00 ................
0040C3E0 00 00 00 00 00 00 00 00 00 00 00 00 00 00 00 00 ................
0040C3F0 00 00 00 00 00 00 00 00 00 00 00 00 00 00 00 00 ................
0040C400 00 00 00 00 00 00 00 00 00 00 00 00 00 00 00 00 ................
0040C410 00 00 00 00 00 00 00 00 00 00 00 00 00 00 00 00 ................
0040C420 00 00 00 00 00 00 00 00 00 00 00 00 00 00 00 00 ................
0040C430 00 00 00 00 00 00 00 00 00 00 00 00 00 00 00 00 ................
0040C440 00 00 00 00 00 00 00 00 00 00 00 00 00 00 00 00 ................
0040C450 00 00 00 00 00 00 00 00 00 00 00 00 00 00 00 00 ................
0040C460 00 00 00 00 00 00 00 00 00 00 00 00 00 00 00 00 ................
0040C470 00 00 00 00 00 00 00 00 00 00 00 00 00 00 00 00 ................
0040C480 00 00 00 00 00 00 00 00 00 00 00 00 00 00 00 00 ................
0040C490 00 00 00 00 00 00 00 00 00 00 00 00 00 00 00 00 ................
0040C4A0 00 00 00 00 00 00 00 00 00 00 00 00 00 00 00 00 ................
0040C4B0 00 00 00 00 00 00 00 00 00 00 00 00 00 00 00 00 ................
0040C4C0 00 00 00 00 00 00 00 00 00 00 00 00 00 00 00 00 ................
0040C4D0 00 00 00 00 00 00 00 00 00 00 00 00 00 00 00 00 ................
0040C4E0 00 00 00 00 00 00 00 00 00 00 00 00 00 00 00 00 ................
0040C4F0 00 00 00 00 00 00 00 00 00 00 00 00 00 00 00 00 ................
0040C500 00 00 00 00 00 00 00 00 00 00 00 00 00 00 00 00 ................
0040C510 00 00 00 00 00 00 00 00 00 00 00 00 00 00 00 00 ................
0040C520 00 00 00 00 00 00 00 00 00 00 00 00 00 00 00 00 ................
0040C530 00 00 00 00 00 00 00 00 00 00 00 00 00 00 00 00 ................
0040C540 00 00 00 00 00 00 00 00 00 00 00 00 00 00 00 00 ................
0040C550 00 00 00 00 00 00 00 00 00 00 00 00 00 00 00 00 ................
0040C560 00 00 00 00 00 00 00 00 00 00 00 00 00 00 00 00 ................
0040C570 00 00 00 00 00 00 00 00 00 00 00 00 00 00 00 00 ................
0040C580 00 00 00 00 00 00 00 00 00 00 00 00 00 00 00 00 ................
0040C590 00 00 00 00 00 00 00 00 00 00 00 00 00 00 00 00 ................
0040C5A0 00 00 00 00 00 00 00 00 00 00 00 00 00 00 00 00 ................
0040C5B0 00 00 00 00 00 00 00 00 00 00 00 00 00 00 00 00 ................
0040C5C0 00 00 00 00 00 00 00 00 00 00 00 00 00 00 00 00 ................
0040C5D0 00 00 00 00 00 00 00 00 00 00 00 00 00 00 00 00 ................
0040C5E0 00 00 00 00 00 00 00 00 00 00 00 00 00 00 00 00 ................
0040C5F0 00 00 00 00 00 00 00 00 00 00 00 00 00 00 00 00 ................
0040C600 00 00 00 00 00 00 00 00 00 00 00 00 00 00 00 00 ................
0040C610 00 00 00 00 00 00 00 00 00 00 00 00 00 00 00 00 ................
0040C620 00 00 00 00 00 00 00 00 00 00 00 00 00 00 00 00 ................
0040C630 00 00 00 00 00 00 00 00 00 00 00 00 00 00 00 00 ................
0040C640 00 00 00 00 00 00 00 00 00 00 00 00 00 00 00 00 ................
0040C650 00 00 00 00 00 00 00 00 00 00 00 00 00 00 00 00 ................
0040C660 00 00 00 00 00 00 00 00 00 00 00 00 00 00 00 00 ................
0040C670 00 00 00 00 00 00 00 00 00 00 00 00 00 00 00 00 ................
0040C680 00 00 00 00 00 00 00 00 00 00 00 00 00 00 00 00 ................
0040C690 00 00 00 00 00 00 00 00 00 00 00 00 00 00 00 00 ................
0040C6A0 00 00 00 00 00 00 00 00 00 00 00 00 00 00 00 00 ................
0040C6B0 00 00 00 00 00 00 00 00 00 00 00 00 00 00 00 00 ................
0040C6C0 00 00 00 00 00 00 00 00 00 00 00 00 00 00 00 00 ................
0040C6D0 00 00 00 00 00 00 00 00 00 00 00 00 00 00 00 00 ................
0040C6E0 00 00 00 00 00 00 00 00 00 00 00 00 00 00 00 00 ................
0040C6F0 00 00 00 00 00 00 00 00 00 00 00 00 00 00 00 00 ................
0040C700 00 00 00 00 00 00 00 00 00 00 00 00 00 00 00 00 ................
0040C710 00 00 00 00 00 00 00 00 00 00 00 00 00 00 00 00 ................
0040C720 00 00 00 00 00 00 00 00 00 00 00 00 00 00 00 00 ................
0040C730 00 00 00 00 00 00 00 00 00 00 00 00 00 00 00 00 ................
0040C740 00 00 00 00 00 00 00 00 00 00 00 00 00 00 00 00 ................
0040C750 00 00 00 00 00 00 00 00 00 00 00 00 00 00 00 00 ................
0040C760 00 00 00 00 00 00 00 00 00 00 00 00 00 00 00 00 ................
0040C770 00 00 00 00 00 00 00 00 00 00 00 00 00 00 00 00 ................
0040C780 00 00 00 00 00 00 00 00 00 00 00 00 00 00 00 00 ................
0040C790 00 00 00 00 00 00 00 00 00 00 00 00 00 00 00 00 ................
0040C7A0 00 00 00 00 00 00 00 00 00 00 00 00 00 00 00 00 ................
0040C7B0 00 00 00 00 00 00 00 00 00 00 00 00 00 00 00 00 ................
0040C7C0 00 00 00 00 00 00 00 00 00 00 00 00 00 00 00 00 ................
0040C7D0 00 00 00 00 00 00 00 00 00 00 00 00 00 00 00 00 ................
0040C7E0 00 00 00 00 00 00 00 00 00 00 00 00 00 00 00 00 ................
0040C7F0 00 00 00 00 00 00 00 00 00 00 00 00 00 00 00 00 ................
0040C800 00 00 00 00 00 00 00 00 00 00 00 00 00 00 00 00 ................
0040C810 00 00 00 00 00 00 00 00 00 00 00 00 00 00 00 00 ................
0040C820 00 00 00 00 00 00 00 00 00 00 00 00 00 00 00 00 ................
0040C830 00 00 00 00 00 00 00 00 00 00 00 00 00 00 00 00 ................
0040C840 00 00 00 00 00 00 00 00 00 00 00 00 00 00 00 00 ................
0040C850 00 00 00 00 00 00 00 00 00 00 00 00 00 00 00 00 ................
0040C860 00 00 00 00 00 00 00 00 00 00 00 00 00 00 00 00 ................
0040C870 00 00 00 00 00 00 00 00 00 00 00 00 00 00 00 00 ................
0040C880 00 00 00 00 00 00 00 00 00 00 00 00 00 00 00 00 ................
0040C890 00 00 00 00 00 00 00 00 00 00 00 00 00 00 00 00 ................
0040C8A0 00 00 00 00 00 00 00 00 00 00 00 00 00 00 00 00 ................
0040C8B0 00 00 00 00 00 00 00 00 00 00 00 00 00 00 00 00 ................
0040C8C0 00 00 00 00 00 00 00 00 00 00 00 00 00 00 00 00 ................
0040C8D0 00 00 00 00 00 00 00 00 00 00 00 00 00 00 00 00 ................
0040C8E0 00 00 00 00 00 00 00 00 00 00 00 00 00 00 00 00 ................
0040C8F0 00 00 00 00 00 00 00 00 00 00 00 00 00 00 00 00 ................
0040C900 00 00 00 00 00 00 00 00 00 00 00 00 00 00 00 00 ................
0040C910 00 00 00 00 00 00 00 00 00 00 00 00 00 00 00 00 ................
0040C920 00 00 00 00 00 00 00 00 00 00 00 00 00 00 00 00 ................
0040C930 00 00 00 00 00 00 00 00 00 00 00 00 00 00 00 00 ................
0040C940 00 00 00 00 00 00 00 00 00 00 00 00 00 00 00 00 ................
0040C950 00 00 00 00 00 00 00 00 00 00 00 00 00 00 00 00 ................
0040C960 00 00 00 00 00 00 00 00 00 00 00 00 00 00 00 00 ................
0040C970 00 00 00 00 00 00 00 00 00 00 00 00 00 00 00 00 ................
0040C980 00 00 00 00 00 00 00 00 00 00 00 00 00 00 00 00 ................
0040C990 00 00 00 00 00 00 00 00 00 00 00 00 00 00 00 00 ................
0040C9A0 00 00 00 00 00 00 00 00 00 00 00 00 00 00 00 00 ................
0040C9B0 00 00 00 00 00 00 00 00 00 00 00 00 00 00 00 00 ................
0040C9C0 00 00 00 00 00 00 00 00 00 00 00 00 00 00 00 00 ................
0040C9D0 00 00 00 00 00 00 00 00 00 00 00 00 00 00 00 00 ................
0040C9E0 00 00 00 00 00 00 00 00 00 00 00 00 00 00 00 00 ................
0040C9F0 00 00 00 00 00 00 00 00 00 00 00 00 00 00 00 00 ................
0040CA00 00 00 00 00 00 00 00 00 00 00 00 00 00 00 00 00 ................
0040CA10 00 00 00 00 00 00 00 00 00 00 00 00 00 00 00 00 ................
0040CA20 00 00 00 00 00 00 00 00 00 00 00 00 00 00 00 00 ................
0040CA30 00 00 00 00 00 00 00 00 00 00 00 00 00 00 00 00 ................
0040CA40 00 00 00 00 00 00 00 00 00 00 00 00 00 00 00 00 ................
0040CA50 00 00 00 00 00 00 00 00 00 00 00 00 00 00 00 00 ................
0040CA60 00 00 00 00 00 00 00 00 00 00 00 00 00 00 00 00 ................
0040CA70 00 00 00 00 00 00 00 00 00 00 00 00 00 00 00 00 ................
0040CA80 00 00 00 00 00 00 00 00 00 00 00 00 00 00 00 00 ................
0040CA90 00 00 00 00 00 00 00 00 00 00 00 00 00 00 00 00 ................
0040CAA0 00 00 00 00 00 00 00 00 00 00 00 00 00 00 00 00 ................
0040CAB0 00 00 00 00 00 00 00 00 00 00 00 00 00 00 00 00 ................
0040CAC0 00 00 00 00 00 00 00 00 00 00 00 00 00 00 00 00 ................
0040CAD0 00 00 00 00 00 00 00 00 00 00 00 00 00 00 00 00 ................
0040CAE0 00 00 00 00 00 00 00 00 00 00 00 00 00 00 00 00 ................
0040CAF0 00 00 00 00 00 00 00 00 00 00 00 00 00 00 00 00 ................
0040CB00 00 00 00 00 00 00 00 00 00 00 00 00 00 00 00 00 ................
0040CB10 00 00 00 00 00 00 00 00 00 00 00 00 00 00 00 00 ................
0040CB20 00 00 00 00 00 00 00 00 00 00 00 00 00 00 00 00 ................
0040CB30 00 00 00 00 00 00 00 00 00 00 00 00 00 00 00 00 ................
0040CB40 00 00 00 00 00 00 00 00 00 00 00 00 00 00 00 00 ................
0040CB50 00 00 00 00 00 00 00 00 00 00 00 00 00 00 00 00 ................
0040CB60 00 00 00 00 00 00 00 00 00 00 00 00 00 00 00 00 ................
0040CB70 00 00 00 00 00 00 00 00 00 00 00 00 00 00 00 00 ................
0040CB80 00 00 00 00 00 00 00 00 00 00 00 00 00 00 00 00 ................
0040CB90 00 00 00 00 00 00 00 00 00 00 00 00 00 00 00 00 ................
0040CBA0 00 00 00 00 00 00 00 00 00 00 00 00 00 00 00 00 ................
0040CBB0 00 00 00 00 00 00 00 00 00 00 00 00 00 00 00 00 ................
0040CBC0 00 00 00 00 00 00 00 00 00 00 00 00 00 00 00 00 ................
0040CBD0 00 00 00 00 00 00 00 00 00 00 00 00 00 00 00 00 ................
0040CBE0 00 00 00 00 00 00 00 00 00 00 00 00 00 00 00 00 ................
0040CBF0 00 00 00 00 00 00 00 00 00 00 00 00 00 00 00 00 ................
0040CC00 00 00 00 00 00 00 00 00 00 00 00 00 00 00 00 00 ................
0040CC10 00 00 00 00 00 00 00 00 00 00 00 00 00 00 00 00 ................
0040CC20 00 00 00 00 00 00 00 00 00 00 00 00 00 00 00 00 ................
0040CC30 00 00 00 00 00 00 00 00 00 00 00 00 00 00 00 00 ................
0040CC40 00 00 00 00 00 00 00 00 00 00 00 00 00 00 00 00 ................
0040CC50 00 00 00 00 00 00 00 00 00 00 00 00 00 00 00 00 ................
0040CC60 00 00 00 00 00 00 00 00 00 00 00 00 00 00 00 00 ................
0040CC70 00 00 00 00 00 00 00 00 00 00 00 00 00 00 00 00 ................
0040CC80 00 00 00 00 00 00 00 00 00 00 00 00 00 00 00 00 ................
0040CC90 00 00 00 00 00 00 00 00 00 00 00 00 00 00 00 00 ................
0040CCA0 00 00 00 00 00 00 00 00 00 00 00 00 00 00 00 00 ................
0040CCB0 00 00 00 00 00 00 00 00 00 00 00 00 00 00 00 00 ................
0040CCC0 00 00 00 00 00 00 00 00 00 00 00 00 00 00 00 00 ................
0040CCD0 00 00 00 00 00 00 00 00 00 00 00 00 00 00 00 00 ................
0040CCE0 00 00 00 00 00 00 00 00 00 00 00 00 00 00 00 00 ................
0040CCF0 00 00 00 00 00 00 00 00 00 00 00 00 00 00 00 00 ................
0040CD00 00 00 00 00 00 00 00 00 00 00 00 00 00 00 00 00 ................
0040CD10 00 00 00 00 00 00 00 00 00 00 00 00 00 00 00 00 ................
0040CD20 00 00 00 00 00 00 00 00 00 00 00 00 00 00 00 00 ................
0040CD30 00 00 00 00 00 00 00 00 00 00 00 00 00 00 00 00 ................
0040CD40 00 00 00 00 00 00 00 00 00 00 00 00 00 00 00 00 ................
0040CD50 00 00 00 00 00 00 00 00 00 00 00 00 00 00 00 00 ................
0040CD60 00 00 00 00 00 00 00 00 00 00 00 00 00 00 00 00 ................
0040CD70 00 00 00 00 00 00 00 00 00 00 00 00 00 00 00 00 ................
0040CD80 00 00 00 00 00 00 00 00 00 00 00 00 00 00 00 00 ................
0040CD90 00 00 00 00 00 00 00 00 00 00 00 00 00 00 00 00 ................
0040CDA0 00 00 00 00 00 00 00 00 00 00 00 00 00 00 00 00 ................
0040CDB0 00 00 00 00 00 00 00 00 00 00 00 00 00 00 00 00 ................
0040CDC0 00 00 00 00 00 00 00 00 00 00 00 00 00 00 00 00 ................
0040CDD0 00 00 00 00 00 00 00 00 00 00 00 00 00 00 00 00 ................
0040CDE0 00 00 00 00 00 00 00 00 00 00 00 00 00 00 00 00 ................
0040CDF0 00 00 00 00 00 00 00 00 00 00 00 00 00 00 00 00 ................
0040CE00 00 00 00 00 00 00 00 00 00 00 00 00 00 00 00 00 ................
0040CE10 00 00 00 00 00 00 00 00 00 00 00 00 00 00 00 00 ................
0040CE20 00 00 00 00 00 00 00 00 00 00 00 00 00 00 00 00 ................
0040CE30 00 00 00 00 00 00 00 00 00 00 00 00 00 00 00 00 ................
0040CE40 00 00 00 00 00 00 00 00 00 00 00 00 00 00 00 00 ................
0040CE50 00 00 00 00 00 00 00 00 00 00 00 00 00 00 00 00 ................
0040CE60 00 00 00 00 00 00 00 00 00 00 00 00 00 00 00 00 ................
0040CE70 00 00 00 00 00 00 00 00 00 00 00 00 00 00 00 00 ................
0040CE80 00 00 00 00 00 00 00 00 00 00 00 00 00 00 00 00 ................
0040CE90 00 00 00 00 00 00 00 00 00 00 00 00 00 00 00 00 ................
0040CEA0 00 00 00 00 00 00 00 00 00 00 00 00 00 00 00 00 ................
0040CEB0 00 00 00 00 00 00 00 00 00 00 00 00 00 00 00 00 ................
0040CEC0 00 00 00 00 00 00 00 00 00 00 00 00 00 00 00 00 ................
0040CED0 00 00 00 00 00 00 00 00 00 00 00 00 00 00 00 00 ................
0040CEE0 00 00 00 00 00 00 00 00 00 00 00 00 00 00 00 00 ................
0040CEF0 00 00 00 00 00 00 00 00 00 00 00 00 00 00 00 00 ................
0040CF00 00 00 00 00 00 00 00 00 00 00 00 00 00 00 00 00 ................
0040CF10 00 00 00 00 00 00 00 00 00 00 00 00 00 00 00 00 ................
0040CF20 00 00 00 00 00 00 00 00 00 00 00 00 00 00 00 00 ................
0040CF30 00 00 00 00 00 00 00 00 00 00 00 00 00 00 00 00 ................
0040CF40 00 00 00 00 00 00 00 00 00 00 00 00 00 00 00 00 ................
0040CF50 00 00 00 00 00 00 00 00 00 00 00 00 00 00 00 00 ................
0040CF60 00 00 00 00 00 00 00 00 00 00 00 00 00 00 00 00 ................
0040CF70 00 00 00 00 00 00 00 00 00 00 00 00 00 00 00 00 ................
0040CF80 00 00 00 00 00 00 00 00 00 00 00 00 00 00 00 00 ................
0040CF90 00 00 00 00 00 00 00 00 00 00 00 00 00 00 00 00 ................
0040CFA0 00 00 00 00 00 00 00 00 00 00 00 00 00 00 00 00 ................
0040CFB0 00 00 00 00 00 00 00 00 00 00 00 00 00 00 00 00 ................
0040CFC0 00 00 00 00 00 00 00 00 00 00 00 00 00 00 00 00 ................
0040CFD0 00 00 00 00 00 00 00 00 00 00 00 00 00 00 00 00 ................
0040CFE0 00 00 00 00 00 00 00 00 00 00 00 00 00 00 00 00 ................
0040CFF0 00 00 00 00 00 00 00 00 00 00 00 00 00 00 00 00 ................
0040D000 00 00 00 00 00 00 00 00 00 00 00 00 00 00 00 00 ................
0040D010 00 00 00 00 00 00 00 00 00 00 00 00 00 00 00 00 ................
0040D020 00 00 00 00 00 00 00 00 00 00 00 00 00 00 00 00 ................
0040D030 00 00 00 00 00 00 00 00 00 00 00 00 00 00 00 00 ................
0040D040 00 00 00 00 00 00 00 00 00 00 00 00 00 00 00 00 ................
0040D050 00 00 00 00 00 00 00 00 00 00 00 00 00 00 00 00 ................
0040D060 00 00 00 00 00 00 00 00 00 00 00 00 00 00 00 00 ................
0040D070 00 00 00 00 00 00 00 00 00 00 00 00 00 00 00 00 ................
0040D080 00 00 00 00 00 00 00 00 00 00 00 00 00 00 00 00 ................
0040D090 00 00 00 00 00 00 00 00 00 00 00 00 00 00 00 00 ................
0040D0A0 00 00 00 00 00 00 00 00 00 00 00 00 00 00 00 00 ................
0040D0B0 00 00 00 00 00 00 00 00 00 00 00 00 00 00 00 00 ................
0040D0C0 00 00 00 00 00 00 00 00 00 00 00 00 00 00 00 00 ................
0040D0D0 00 00 00 00 00 00 00 00 00 00 00 00 00 00 00 00 ................
0040D0E0 00 00 00 00 00 00 00 00 00 00 00 00 00 00 00 00 ................
0040D0F0 00 00 00 00 00 00 00 00 00 00 00 00 00 00 00 00 ................
0040D100 00 00 00 00 00 00 00 00 00 00 00 00 00 00 00 00 ................
0040D110 00 00 00 00 00 00 00 00 00 00 00 00 00 00 00 00 ................
0040D120 00 00 00 00 00 00 00 00 00 00 00 00 00 00 00 00 ................
0040D130 00 00 00 00 00 00 00 00 00 00 00 00 00 00 00 00 ................
0040D140 00 00 00 00 00 00 00 00 00 00 00 00 00 00 00 00 ................
0040D150 00 00 00 00 00 00 00 00 00 00 00 00 00 00 00 00 ................
0040D160 00 00 00 00 00 00 00 00 00 00 00 00 00 00 00 00 ................
0040D170 00 00 00 00 00 00 00 00 00 00 00 00 00 00 00 00 ................
0040D180 00 00 00 00 00 00 00 00 00 00 00 00 00 00 00 00 ................
0040D190 00 00 00 00 00 00 00 00 00 00 00 00 00 00 00 00 ................
0040D1A0 00 00 00 00 00 00 00 00 00 00 00 00 00 00 00 00 ................
0040D1B0 00 00 00 00 00 00 00 00 00 00 00 00 00 00 00 00 ................
0040D1C0 00 00 00 00 00 00 00 00 00 00 00 00 00 00 00 00 ................
0040D1D0 00 00 00 00 00 00 00 00 00 00 00 00 00 00 00 00 ................
0040D1E0 00 00 00 00 00 00 00 00 00 00 00 00 00 00 00 00 ................
0040D1F0 00 00 00 00 00 00 00 00 00 00 00 00 00 00 00 00 ................
0040D200 00 00 00 00 00 00 00 00 00 00 00 00 00 00 00 00 ................
0040D210 00 00 00 00 00 00 00 00 00 00 00 00 00 00 00 00 ................
0040D220 00 00 00 00 00 00 00 00 00 00 00 00 00 00 00 00 ................
0040D230 00 00 00 00 00 00 00 00 00 00 00 00 00 00 00 00 ................
0040D240 00 00 00 00 00 00 00 00 00 00 00 00 00 00 00 00 ................
0040D250 00 00 00 00 00 00 00 00 00 00 00 00 00 00 00 00 ................
0040D260 00 00 00 00 00 00 00 00 00 00 00 00 00 00 00 00 ................
0040D270 00 00 00 00 00 00 00 00 00 00 00 00 00 00 00 00 ................
0040D280 00 00 00 00 00 00 00 00 00 00 00 00 00 00 00 00 ................
0040D290 00 00 00 00 00 00 00 00 00 00 00 00 00 00 00 00 ................
0040D2A0 00 00 00 00 00 00 00 00 00 00 00 00 00 00 00 00 ................
0040D2B0 00 00 00 00 00 00 00 00 00 00 00 00 00 00 00 00 ................
0040D2C0 00 00 00 00 00 00 00 00 00 00 00 00 00 00 00 00 ................
0040D2D0 00 00 00 00 00 00 00 00 00 00 00 00 00 00 00 00 ................
0040D2E0 00 00 00 00 00 00 00 00 00 00 00 00 00 00 00 00 ................
0040D2F0 00 00 00 00 00 00 00 00 00 00 00 00 00 00 00 00 ................
0040D300 00 00 00 00 00 00 00 00 00 00 00 00 00 00 00 00 ................
0040D310 00 00 00 00 00 00 00 00 00 00 00 00 00 00 00 00 ................
0040D320 00 00 00 00 00 00 00 00 00 00 00 00 00 00 00 00 ................
0040D330 00 00 00 00 00 00 00 00 00 00 00 00 00 00 00 00 ................
0040D340 00 00 00 00 00 00 00 00 00 00 00 00 00 00 00 00 ................
0040D350 00 00 00 00 00 00 00 00 00 00 00 00 00 00 00 00 ................
0040D360 00 00 00 00 00 00 00 00 00 00 00 00 00 00 00 00 ................
0040D370 00 00 00 00 00 00 00 00 00 00 00 00 00 00 00 00 ................
0040D380 00 00 00 00 00 00 00 00 00 00 00 00 00 00 00 00 ................
0040D390 00 00 00 00 00 00 00 00 00 00 00 00 00 00 00 00 ................
0040D3A0 00 00 00 00 00 00 00 00 00 00 00 00 00 00 00 00 ................
0040D3B0 00 00 00 00 00 00 00 00 00 00 00 00 00 00 00 00 ................
0040D3C0 00 00 00 00 00 00 00 00 00 00 00 00 00 00 00 00 ................
0040D3D0 00 00 00 00 00 00 00 00 00 00 00 00 00 00 00 00 ................
0040D3E0 00 00 00 00 00 00 00 00 00 00 00 00 00 00 00 00 ................
0040D3F0 00 00 00 00 00 00 00 00 00 00 00 00 00 00 00 00 ................
0040D400 00 00 00 00 00 00 00 00 00 00 00 00 00 00 00 00 ................
0040D410 00 00 00 00 00 00 00 00 00 00 00 00 00 00 00 00 ................
0040D420 00 00 00 00 00 00 00 00 00 00 00 00 00 00 00 00 ................
0040D430 00 00 00 00 00 00 00 00 00 00 00 00 00 00 00 00 ................
0040D440 00 00 00 00 00 00 00 00 00 00 00 00 00 00 00 00 ................
0040D450 00 00 00 00 00 00 00 00 00 00 00 00 00 00 00 00 ................
0040D460 00 00 00 00 00 00 00 00 00 00 00 00 00 00 00 00 ................
0040D470 00 00 00 00 00 00 00 00 00 00 00 00 00 00 00 00 ................
0040D480 00 00 00 00 00 00 00 00 00 00 00 00 00 00 00 00 ................
0040D490 00 00 00 00 00 00 00 00 00 00 00 00 00 00 00 00 ................
0040D4A0 00 00 00 00 00 00 00 00 00 00 00 00 00 00 00 00 ................
0040D4B0 00 00 00 00 00 00 00 00 00 00 00 00 00 00 00 00 ................
0040D4C0 00 00 00 00 00 00 00 00 00 00 00 00 00 00 00 00 ................
0040D4D0 00 00 00 00 00 00 00 00 00 00 00 00 00 00 00 00 ................
0040D4E0 00 00 00 00 00 00 00 00 00 00 00 00 00 00 00 00 ................
0040D4F0 00 00 00 00 00 00 00 00 00 00 00 00 00 00 00 00 ................
0040D500 00 00 00 00 00 00 00 00 00 00 00 00 00 00 00 00 ................
0040D510 00 00 00 00 00 00 00 00 00 00 00 00 00 00 00 00 ................
0040D520 00 00 00 00 00 00 00 00 00 00 00 00 00 00 00 00 ................
0040D530 00 00 00 00 00 00 00 00 00 00 00 00 00 00 00 00 ................
0040D540 00 00 00 00 00 00 00 00 00 00 00 00 00 00 00 00 ................
0040D550 00 00 00 00 00 00 00 00 00 00 00 00 00 00 00 00 ................
0040D560 00 00 00 00 00 00 00 00 00 00 00 00 00 00 00 00 ................
0040D570 00 00 00 00 00 00 00 00 00 00 00 00 00 00 00 00 ................
0040D580 00 00 00 00 00 00 00 00 00 00 00 00 00 00 00 00 ................
0040D590 00 00 00 00 00 00 00 00 00 00 00 00 00 00 00 00 ................
0040D5A0 00 00 00 00 00 00 00 00 00 00 00 00 00 00 00 00 ................
0040D5B0 00 00 00 00 00 00 00 00 00 00 00 00 00 00 00 00 ................
0040D5C0 00 00 00 00 00 00 00 00 00 00 00 00 00 00 00 00 ................
0040D5D0 00 00 00 00 00 00 00 00 00 00 00 00 00 00 00 00 ................
0040D5E0 00 00 00 00 00 00 00 00 00 00 00 00 00 00 00 00 ................
0040D5F0 00 00 00 00 00 00 00 00 00 00 00 00 00 00 00 00 ................
0040D600 00 00 00 00 00 00 00 00 00 00 00 00 00 00 00 00 ................
0040D610 00 00 00 00 00 00 00 00 00 00 00 00 00 00 00 00 ................
0040D620 00 00 00 00 00 00 00 00 00 00 00 00 00 00 00 00 ................
0040D630 00 00 00 00 00 00 00 00 00 00 00 00 00 00 00 00 ................
0040D640 00 00 00 00 00 00 00 00 00 00 00 00 00 00 00 00 ................
0040D650 00 00 00 00 00 00 00 00 00 00 00 00 00 00 00 00 ................
0040D660 00 00 00 00 00 00 00 00 00 00 00 00 00 00 00 00 ................
0040D670 00 00 00 00 00 00 00 00 00 00 00 00 00 00 00 00 ................
0040D680 00 00 00 00 00 00 00 00 00 00 00 00 00 00 00 00 ................
0040D690 00 00 00 00 00 00 00 00 00 00 00 00 00 00 00 00 ................
0040D6A0 00 00 00 00 00 00 00 00 00 00 00 00 00 00 00 00 ................
0040D6B0 00 00 00 00 00 00 00 00 00 00 00 00 00 00 00 00 ................
0040D6C0 00 00 00 00 00 00 00 00 00 00 00 00 00 00 00 00 ................
0040D6D0 00 00 00 00 00 00 00 00 00 00 00 00 00 00 00 00 ................
0040D6E0 00 00 00 00 00 00 00 00 00 00 00 00 00 00 00 00 ................
0040D6F0 00 00 00 00 00 00 00 00 00 00 00 00 00 00 00 00 ................
0040D700 00 00 00 00 00 00 00 00 00 00 00 00 00 00 00 00 ................
0040D710 00 00 00 00 00 00 00 00 00 00 00 00 00 00 00 00 ................
0040D720 00 00 00 00 00 00 00 00 00 00 00 00 00 00 00 00 ................
0040D730 00 00 00 00 00 00 00 00 00 00 00 00 00 00 00 00 ................
0040D740 00 00 00 00 00 00 00 00 00 00 00 00 00 00 00 00 ................
0040D750 00 00 00 00 00 00 00 00 00 00 00 00 00 00 00 00 ................
0040D760 00 00 00 00 00 00 00 00 00 00 00 00 00 00 00 00 ................
0040D770 00 00 00 00 00 00 00 00 00 00 00 00 00 00 00 00 ................
0040D780 00 00 00 00 00 00 00 00 00 00 00 00 00 00 00 00 ................
0040D790 00 00 00 00 00 00 00 00 00 00 00 00 00 00 00 00 ................
0040D7A0 00 00 00 00 00 00 00 00 00 00 00 00 00 00 00 00 ................
0040D7B0 00 00 00 00 00 00 00 00 00 00 00 00 00 00 00 00 ................
0040D7C0 00 00 00 00 00 00 00 00 00 00 00 00 00 00 00 00 ................
0040D7D0 00 00 00 00 00 00 00 00 00 00 00 00 00 00 00 00 ................
0040D7E0 00 00 00 00 00 00 00 00 00 00 00 00 00 00 00 00 ................
0040D7F0 00 00 00 00 00 00 00 00 00 00 00 00 00 00 00 00 ................
0040D800 00 00 00 00 00 00 00 00 00 00 00 00 00 00 00 00 ................
0040D810 00 00 00 00 00 00 00 00 00 00 00 00 00 00 00 00 ................
0040D820 00 00 00 00 00 00 00 00 00 00 00 00 00 00 00 00 ................
0040D830 00 00 00 00 00 00 00 00 00 00 00 00 00 00 00 00 ................
0040D840 00 00 00 00 00 00 00 00 00 00 00 00 00 00 00 00 ................
0040D850 00 00 00 00 00 00 00 00 00 00 00 00 00 00 00 00 ................
0040D860 00 00 00 00 00 00 00 00 00 00 00 00 00 00 00 00 ................
0040D870 00 00 00 00 00 00 00 00 00 00 00 00 00 00 00 00 ................
0040D880 00 00 00 00 00 00 00 00 00 00 00 00 00 00 00 00 ................
0040D890 00 00 00 00 00 00 00 00 00 00 00 00 00 00 00 00 ................
0040D8A0 00 00 00 00 00 00 00 00 00 00 00 00 00 00 00 00 ................
0040D8B0 00 00 00 00 00 00 00 00 00 00 00 00 00 00 00 00 ................
0040D8C0 00 00 00 00 00 00 00 00 00 00 00 00 00 00 00 00 ................
0040D8D0 00 00 00 00 00 00 00 00 00 00 00 00 00 00 00 00 ................
0040D8E0 00 00 00 00 00 00 00 00 00 00 00 00 00 00 00 00 ................
0040D8F0 00 00 00 00 00 00 00 00 00 00 00 00 00 00 00 00 ................
0040D900 00 00 00 00 00 00 00 00 00 00 00 00 00 00 00 00 ................
0040D910 00 00 00 00 00 00 00 00 00 00 00 00 00 00 00 00 ................
0040D920 00 00 00 00 00 00 00 00 00 00 00 00 00 00 00 00 ................
0040D930 00 00 00 00 00 00 00 00 00 00 00 00 00 00 00 00 ................
0040D940 00 00 00 00 00 00 00 00 00 00 00 00 00 00 00 00 ................
0040D950 00 00 00 00 00 00 00 00 00 00 00 00 00 00 00 00 ................
0040D960 00 00 00 00 00 00 00 00 00 00 00 00 00 00 00 00 ................
0040D970 00 00 00 00 00 00 00 00 00 00 00 00 00 00 00 00 ................
0040D980 00 00 00 00 00 00 00 00 00 00 00 00 00 00 00 00 ................
0040D990 00 00 00 00 00 00 00 00 00 00 00 00 00 00 00 00 ................
0040D9A0 00 00 00 00 00 00 00 00 00 00 00 00 00 00 00 00 ................
0040D9B0 00 00 00 00 00 00 00 00 00 00 00 00 00 00 00 00 ................
0040D9C0 00 00 00 00 00 00 00 00 00 00 00 00 00 00 00 00 ................
0040D9D0 00 00 00 00 00 00 00 00 00 00 00 00 00 00 00 00 ................
0040D9E0 00 00 00 00 00 00 00 00 00 00 00 00 00 00 00 00 ................
0040D9F0 00 00 00 00 00 00 00 00 00 00 00 00 00 00 00 00 ................
0040DA00 00 00 00 00 00 00 00 00 00 00 00 00 00 00 00 00 ................
0040DA10 00 00 00 00 00 00 00 00 00 00 00 00 00 00 00 00 ................
0040DA20 00 00 00 00 00 00 00 00 00 00 00 00 00 00 00 00 ................
0040DA30 00 00 00 00 00 00 00 00 00 00 00 00 00 00 00 00 ................
0040DA40 00 00 00 00 00 00 00 00 00 00 00 00 00 00 00 00 ................
0040DA50 00 00 00 00 00 00 00 00 00 00 00 00 00 00 00 00 ................
0040DA60 00 00 00 00 00 00 00 00 00 00 00 00 00 00 00 00 ................
0040DA70 00 00 00 00 00 00 00 00 00 00 00 00 00 00 00 00 ................
0040DA80 00 00 00 00 00 00 00 00 00 00 00 00 00 00 00 00 ................
0040DA90 00 00 00 00 00 00 00 00 00 00 00 00 00 00 00 00 ................
0040DAA0 00 00 00 00 00 00 00 00 00 00 00 00 00 00 00 00 ................
0040DAB0 00 00 00 00 00 00 00 00 00 00 00 00 00 00 00 00 ................
0040DAC0 00 00 00 00 00 00 00 00 00 00 00 00 00 00 00 00 ................
0040DAD0 00 00 00 00 00 00 00 00 00 00 00 00 00 00 00 00 ................
0040DAE0 00 00 00 00 00 00 00 00 00 00 00 00 00 00 00 00 ................
0040DAF0 00 00 00 00 00 00 00 00 00 00 00 00 00 00 00 00 ................
0040DB00 00 00 00 00 00 00 00 00 00 00 00 00 00 00 00 00 ................
0040DB10 00 00 00 00 00 00 00 00 00 00 00 00 00 00 00 00 ................
0040DB20 00 00 00 00 00 00 00 00 00 00 00 00 00 00 00 00 ................
0040DB30 00 00 00 00 00 00 00 00 00 00 00 00 00 00 00 00 ................
0040DB40 00 00 00 00 00 00 00 00 00 00 00 00 00 00 00 00 ................
0040DB50 00 00 00 00 00 00 00 00 00 00 00 00 00 00 00 00 ................
0040DB60 00 00 00 00 00 00 00 00 00 00 00 00 00 00 00 00 ................
0040DB70 00 00 00 00 00 00 00 00 00 00 00 00 00 00 00 00 ................
0040DB80 00 00 00 00 00 00 00 00 00 00 00 00 00 00 00 00 ................
0040DB90 00 00 00 00 00 00 00 00 00 00 00 00 00 00 00 00 ................
0040DBA0 00 00 00 00 00 00 00 00 00 00 00 00 00 00 00 00 ................
0040DBB0 00 00 00 00 00 00 00 00 00 00 00 00 00 00 00 00 ................
0040DBC0 00 00 00 00 00 00 00 00 00 00 00 00 00 00 00 00 ................
0040DBD0 00 00 00 00 00 00 00 00 00 00 00 00 00 00 00 00 ................
0040DBE0 00 00 00 00 00 00 00 00 00 00 00 00 00 00 00 00 ................
0040DBF0 00 00 00 00 00 00 00 00 00 00 00 00 00 00 00 00 ................
0040DC00 00 00 00 00 00 00 00 00 00 00 00 00 00 00 00 00 ................
0040DC10 00 00 00 00 00 00 00 00 00 00 00 00 00 00 00 00 ................
0040DC20 00 00 00 00 00 00 00 00 00 00 00 00 00 00 00 00 ................
0040DC30 00 00 00 00 00 00 00 00 00 00 00 00 00 00 00 00 ................
0040DC40 00 00 00 00 00 00 00 00 00 00 00 00 00 00 00 00 ................
0040DC50 00 00 00 00 00 00 00 00 00 00 00 00 00 00 00 00 ................
0040DC60 00 00 00 00 00 00 00 00 00 00 00 00 00 00 00 00 ................
0040DC70 00 00 00 00 00 00 00 00 00 00 00 00 00 00 00 00 ................
0040DC80 00 00 00 00 00 00 00 00 00 00 00 00 00 00 00 00 ................
0040DC90 00 00 00 00 00 00 00 00 00 00 00 00 00 00 00 00 ................
0040DCA0 00 00 00 00 00 00 00 00 00 00 00 00 00 00 00 00 ................
0040DCB0 00 00 00 00 00 00 00 00 00 00 00 00 00 00 00 00 ................
0040DCC0 00 00 00 00 00 00 00 00 00 00 00 00 00 00 00 00 ................
0040DCD0 00 00 00 00 00 00 00 00 00 00 00 00 00 00 00 00 ................
0040DCE0 00 00 00 00 00 00 00 00 00 00 00 00 00 00 00 00 ................
0040DCF0 00 00 00 00 00 00 00 00 00 00 00 00 00 00 00 00 ................
0040DD00 00 00 00 00 00 00 00 00 00 00 00 00 00 00 00 00 ................
0040DD10 00 00 00 00 00 00 00 00 00 00 00 00 00 00 00 00 ................
0040DD20 00 00 00 00 00 00 00 00 00 00 00 00 00 00 00 00 ................
0040DD30 00 00 00 00 00 00 00 00 00 00 00 00 00 00 00 00 ................
0040DD40 00 00 00 00 00 00 00 00 00 00 00 00 00 00 00 00 ................
0040DD50 00 00 00 00 00 00 00 00 00 00 00 00 00 00 00 00 ................
0040DD60 00 00 00 00 00 00 00 00 00 00 00 00 00 00 00 00 ................
0040DD70 00 00 00 00 00 00 00 00 00 00 00 00 00 00 00 00 ................
0040DD80 00 00 00 00 00 00 00 00 00 00 00 00 00 00 00 00 ................
0040DD90 00 00 00 00 00 00 00 00 00 00 00 00 00 00 00 00 ................
0040DDA0 00 00 00 00 00 00 00 00 00 00 00 00 00 00 00 00 ................
0040DDB0 00 00 00 00 00 00 00 00 00 00 00 00 00 00 00 00 ................
0040DDC0 00 00 00 00 00 00 00 00 00 00 00 00 00 00 00 00 ................
0040DDD0 00 00 00 00 00 00 00 00 00 00 00 00 00 00 00 00 ................
0040DDE0 00 00 00 00 00 00 00 00 00 00 00 00 00 00 00 00 ................
0040DDF0 00 00 00 00 00 00 00 00 00 00 00 00 00 00 00 00 ................
0040DE00 00 00 00 00 00 00 00 00 00 00 00 00 00 00 00 00 ................
0040DE10 00 00 00 00 00 00 00 00 00 00 00 00 00 00 00 00 ................
0040DE20 00 00 00 00 00 00 00 00 00 00 00 00 00 00 00 00 ................
0040DE30 00 00 00 00 00 00 00 00 00 00 00 00 00 00 00 00 ................
0040DE40 00 00 00 00 00 00 00 00 00 00 00 00 00 00 00 00 ................
0040DE50 00 00 00 00 00 00 00 00 00 00 00 00 00 00 00 00 ................
0040DE60 00 00 00 00 00 00 00 00 00 00 00 00 00 00 00 00 ................
0040DE70 00 00 00 00 00 00 00 00 00 00 00 00 00 00 00 00 ................
0040DE80 00 00 00 00 00 00 00 00 00 00 00 00 00 00 00 00 ................
0040DE90 00 00 00 00 00 00 00 00 00 00 00 00 00 00 00 00 ................
0040DEA0 00 00 00 00 00 00 00 00 00 00 00 00 00 00 00 00 ................
0040DEB0 00 00 00 00 00 00 00 00 00 00 00 00 00 00 00 00 ................
0040DEC0 00 00 00 00 00 00 00 00 00 00 00 00 00 00 00 00 ................
0040DED0 00 00 00 00 00 00 00 00 00 00 00 00 00 00 00 00 ................
0040DEE0 00 00 00 00 00 00 00 00 00 00 00 00 00 00 00 00 ................
0040DEF0 00 00 00 00 00 00 00 00 00 00 00 00 00 00 00 00 ................
0040DF00 00 00 00 00 00 00 00 00 00 00 00 00 00 00 00 00 ................
0040DF10 00 00 00 00 00 00 00 00 00 00 00 00 00 00 00 00 ................
0040DF20 00 00 00 00 00 00 00 00 00 00 00 00 00 00 00 00 ................
0040DF30 00 00 00 00 00 00 00 00 00 00 00 00 00 00 00 00 ................
0040DF40 00 00 00 00 00 00 00 00 00 00 00 00 00 00 00 00 ................
0040DF50 00 00 00 00 00 00 00 00 00 00 00 00 00 00 00 00 ................
0040DF60 00 00 00 00 00 00 00 00 00 00 00 00 00 00 00 00 ................
0040DF70 00 00 00 00 00 00 00 00 00 00 00 00 00 00 00 00 ................
0040DF80 00 00 00 00 00 00 00 00 00 00 00 00 00 00 00 00 ................
0040DF90 00 00 00 00 00 00 00 00 00 00 00 00 00 00 00 00 ................
0040DFA0 00 00 00 00 00 00 00 00 00 00 00 00 00 00 00 00 ................
0040DFB0 00 00 00 00 00 00 00 00 00 00 00 00 00 00 00 00 ................
0040DFC0 00 00 00 00 00 00 00 00 00 00 00 00 00 00 00 00 ................
0040DFD0 00 00 00 00 00 00 00 00 00 00 00 00 00 00 00 00 ................
0040DFE0 00 00 00 00 00 00 00 00 00 00 00 00 00 00 00 00 ................
0040DFF0 00 00 00 00 00 00 00 00 00 00 00 00 00 00 00 00 ................
0040E000 00 00 00 00 00 00 00 00 00 00 00 00 00 00 00 00 ................
0040E010 00 00 00 00 00 00 00 00 00 00 00 00 00 00 00 00 ................
0040E020 00 00 00 00 00 00 00 00 00 00 00 00 00 00 00 00 ................
0040E030 00 00 00 00 00 00 00 00 00 00 00 00 00 00 00 00 ................
0040E040 00 00 00 00 00 00 00 00 00 00 00 00 00 00 00 00 ................
0040E050 00 00 00 00 00 00 00 00 00 00 00 00 00 00 00 00 ................
0040E060 00 00 00 00 00 00 00 00 00 00 00 00 00 00 00 00 ................
0040E070 00 00 00 00 00 00 00 00 00 00 00 00 00 00 00 00 ................
0040E080 00 00 00 00 00 00 00 00 00 00 00 00 00 00 00 00 ................
0040E090 00 00 00 00 00 00 00 00 00 00 00 00 00 00 00 00 ................
0040E0A0 00 00 00 00 00 00 00 00 00 00 00 00 00 00 00 00 ................
0040E0B0 00 00 00 00 00 00 00 00 00 00 00 00 00 00 00 00 ................
0040E0C0 00 00 00 00 00 00 00 00 00 00 00 00 00 00 00 00 ................
0040E0D0 00 00 00 00 00 00 00 00 00 00 00 00 00 00 00 00 ................
0040E0E0 00 00 00 00 00 00 00 00 00 00 00 00 00 00 00 00 ................
0040E0F0 00 00 00 00 00 00 00 00 00 00 00 00 00 00 00 00 ................
0040E100 00 00 00 00 00 00 00 00 00 00 00 00 00 00 00 00 ................
0040E110 00 00 00 00 00 00 00 00 00 00 00 00 00 00 00 00 ................
0040E120 00 00 00 00 00 00 00 00 00 00 00 00 00 00 00 00 ................
0040E130 00 00 00 00 00 00 00 00 00 00 00 00 00 00 00 00 ................
0040E140 00 00 00 00 00 00 00 00 00 00 00 00 00 00 00 00 ................
0040E150 00 00 00 00 00 00 00 00 00 00 00 00 00 00 00 00 ................
0040E160 00 00 00 00 00 00 00 00 00 00 00 00 00 00 00 00 ................
0040E170 00 00 00 00 00 00 00 00 00 00 00 00 00 00 00 00 ................
0040E180 00 00 00 00 00 00 00 00 00 00 00 00 00 00 00 00 ................
0040E190 00 00 00 00 00 00 00 00 00 00 00 00 00 00 00 00 ................
0040E1A0 00 00 00 00 00 00 00 00 00 00 00 00 00 00 00 00 ................
0040E1B0 00 00 00 00 00 00 00 00 00 00 00 00 00 00 00 00 ................
0040E1C0 00 00 00 00 00 00 00 00 00 00 00 00 00 00 00 00 ................
0040E1D0 00 00 00 00 00 00 00 00 00 00 00 00 00 00 00 00 ................
0040E1E0 00 00 00 00 00 00 00 00 00 00 00 00 00 00 00 00 ................
0040E1F0 00 00 00 00 00 00 00 00 00 00 00 00 00 00 00 00 ................
0040E200 00 00 00 00 00 00 00 00 00 00 00 00 00 00 00 00 ................
0040E210 00 00 00 00 00 00 00 00 00 00 00 00 00 00 00 00 ................
0040E220 00 00 00 00 00 00 00 00 00 00 00 00 00 00 00 00 ................
0040E230 00 00 00 00 00 00 00 00 00 00 00 00 00 00 00 00 ................
0040E240 00 00 00 00 00 00 00 00 00 00 00 00 00 00 00 00 ................
0040E250 00 00 00 00 00 00 00 00 00 00 00 00 00 00 00 00 ................
0040E260 00 00 00 00 00 00 00 00 00 00 00 00 00 00 00 00 ................
0040E270 00 00 00 00 00 00 00 00 00 00 00 00 00 00 00 00 ................
0040E280 00 00 00 00 00 00 00 00 00 00 00 00 00 00 00 00 ................
0040E290 00 00 00 00 00 00 00 00 00 00 00 00 00 00 00 00 ................
0040E2A0 00 00 00 00 00 00 00 00 00 00 00 00 00 00 00 00 ................
0040E2B0 00 00 00 00 00 00 00 00 00 00 00 00 00 00 00 00 ................
0040E2C0 00 00 00 00 00 00 00 00 00 00 00 00 00 00 00 00 ................
0040E2D0 00 00 00 00 00 00 00 00 00 00 00 00 00 00 00 00 ................
0040E2E0 00 00 00 00 00 00 00 00 00 00 00 00 00 00 00 00 ................
0040E2F0 00 00 00 00 00 00 00 00 00 00 00 00 00 00 00 00 ................
0040E300 00 00 00 00 00 00 00 00 00 00 00 00 00 00 00 00 ................
0040E310 00 00 00 00 00 00 00 00 00 00 00 00 00 00 00 00 ................
0040E320 00 00 00 00 00 00 00 00 00 00 00 00 00 00 00 00 ................
0040E330 00 00 00 00 00 00 00 00 00 00 00 00 00 00 00 00 ................
0040E340 00 00 00 00 00 00 00 00 00 00 00 00 00 00 00 00 ................
0040E350 00 00 00 00 00 00 00 00 00 00 00 00 00 00 00 00 ................
0040E360 00 00 00 00 00 00 00 00 00 00 00 00 00 00 00 00 ................
0040E370 00 00 00 00 00 00 00 00 00 00 00 00 00 00 00 00 ................
0040E380 00 00 00 00 00 00 00 00 00 00 00 00 00 00 00 00 ................
0040E390 00 00 00 00 00 00 00 00 00 00 00 00 00 00 00 00 ................
0040E3A0 00 00 00 00 00 00 00 00 00 00 00 00 00 00 00 00 ................
0040E3B0 00 00 00 00 00 00 00 00 00 00 00 00 00 00 00 00 ................
0040E3C0 00 00 00 00 00 00 00 00 00 00 00 00 00 00 00 00 ................
0040E3D0 00 00 00 00 00 00 00 00 00 00 00 00 00 00 00 00 ................
0040E3E0 00 00 00 00 00 00 00 00 00 00 00 00 00 00 00 00 ................
0040E3F0 00 00 00 00 00 00 00 00 00 00 00 00 00 00 00 00 ................
0040E400 00 00 00 00 00 00 00 00 00 00 00 00 00 00 00 00 ................
0040E410 00 00 00 00 00 00 00 00 00 00 00 00 00 00 00 00 ................
0040E420 00 00 00 00 00 00 00 00 00 00 00 00 00 00 00 00 ................
0040E430 00 00 00 00 00 00 00 00 00 00 00 00 00 00 00 00 ................
0040E440 00 00 00 00 00 00 00 00 00 00 00 00 00 00 00 00 ................
0040E450 00 00 00 00 00 00 00 00 00 00 00 00 00 00 00 00 ................
0040E460 00 00 00 00 00 00 00 00 00 00 00 00 00 00 00 00 ................
0040E470 00 00 00 00 00 00 00 00 00 00 00 00 00 00 00 00 ................
0040E480 00 00 00 00 00 00 00 00 00 00 00 00 00 00 00 00 ................
0040E490 00 00 00 00 00 00 00 00 00 00 00 00 00 00 00 00 ................
0040E4A0 00 00 00 00 00 00 00 00 00 00 00 00 00 00 00 00 ................
0040E4B0 00 00 00 00 00 00 00 00 00 00 00 00 00 00 00 00 ................
0040E4C0 00 00 00 00 00 00 00 00 00 00 00 00 00 00 00 00 ................
0040E4D0 00 00 00 00 00 00 00 00 00 00 00 00 00 00 00 00 ................
0040E4E0 00 00 00 00 00 00 00 00 00 00 00 00 00 00 00 00 ................
0040E4F0 00 00 00 00 00 00 00 00 00 00 00 00 00 00 00 00 ................
0040E500 00 00 00 00 00 00 00 00 00 00 00 00 00 00 00 00 ................
0040E510 00 00 00 00 00 00 00 00 00 00 00 00 00 00 00 00 ................
0040E520 00 00 00 00 00 00 00 00 00 00 00 00 00 00 00 00 ................
0040E530 00 00 00 00 00 00 00 00 00 00 00 00 00 00 00 00 ................
0040E540 00 00 00 00 00 00 00 00 00 00 00 00 00 00 00 00 ................
0040E550 00 00 00 00 00 00 00 00 00 00 00 00 00 00 00 00 ................
0040E560 00 00 00 00 00 00 00 00 00 00 00 00 00 00 00 00 ................
0040E570 00 00 00 00 00 00 00 00 00 00 00 00 00 00 00 00 ................
0040E580 00 00 00 00 00 00 00 00 00 00 00 00 00 00 00 00 ................
0040E590 00 00 00 00 00 00 00 00 00 00 00 00 00 00 00 00 ................
0040E5A0 00 00 00 00 00 00 00 00 00 00 00 00 00 00 00 00 ................
0040E5B0 00 00 00 00 00 00 00 00 00 00 00 00 00 00 00 00 ................
0040E5C0 00 00 00 00 00 00 00 00 00 00 00 00 00 00 00 00 ................
0040E5D0 00 00 00 00 00 00 00 00 00 00 00 00 00 00 00 00 ................
0040E5E0 00 00 00 00 00 00 00 00 00 00 00 00 00 00 00 00 ................
0040E5F0 00 00 00 00 00 00 00 00 00 00 00 00 00 00 00 00 ................
0040E600 00 00 00 00 00 00 00 00 00 00 00 00 00 00 00 00 ................
0040E610 00 00 00 00 00 00 00 00 00 00 00 00 00 00 00 00 ................
0040E620 00 00 00 00 00 00 00 00 00 00 00 00 00 00 00 00 ................
0040E630 00 00 00 00 00 00 00 00 00 00 00 00 00 00 00 00 ................
0040E640 00 00 00 00 00 00 00 00 00 00 00 00 00 00 00 00 ................
0040E650 00 00 00 00 00 00 00 00 00 00 00 00 00 00 00 00 ................
0040E660 00 00 00 00 00 00 00 00 00 00 00 00 00 00 00 00 ................
0040E670 00 00 00 00 00 00 00 00 00 00 00 00 00 00 00 00 ................
0040E680 00 00 00 00 00 00 00 00 00 00 00 00 00 00 00 00 ................
0040E690 00 00 00 00 00 00 00 00 00 00 00 00 00 00 00 00 ................
0040E6A0 00 00 00 00 00 00 00 00 00 00 00 00 00 00 00 00 ................
0040E6B0 00 00 00 00 00 00 00 00 00 00 00 00 00 00 00 00 ................
0040E6C0 00 00 00 00 00 00 00 00 00 00 00 00 00 00 00 00 ................
0040E6D0 00 00 00 00 00 00 00 00 00 00 00 00 00 00 00 00 ................
0040E6E0 00 00 00 00 00 00 00 00 00 00 00 00 00 00 00 00 ................
0040E6F0 00 00 00 00 00 00 00 00 00 00 00 00 00 00 00 00 ................
0040E700 00 00 00 00 00 00 00 00 00 00 00 00 00 00 00 00 ................
0040E710 00 00 00 00 00 00 00 00 00 00 00 00 00 00 00 00 ................
0040E720 00 00 00 00 00 00 00 00 00 00 00 00 00 00 00 00 ................
0040E730 00 00 00 00 00 00 00 00 00 00 00 00 00 00 00 00 ................
0040E740 00 00 00 00 00 00 00 00 00 00 00 00 00 00 00 00 ................
0040E750 00 00 00 00 00 00 00 00 00 00 00 00 00 00 00 00 ................
0040E760 00 00 00 00 00 00 00 00 00 00 00 00 00 00 00 00 ................
0040E770 00 00 00 00 00 00 00 00 00 00 00 00 00 00 00 00 ................
0040E780 00 00 00 00 00 00 00 00 00 00 00 00 00 00 00 00 ................
0040E790 00 00 00 00 00 00 00 00 00 00 00 00 00 00 00 00 ................
0040E7A0 00 00 00 00 00 00 00 00 00 00 00 00 00 00 00 00 ................
0040E7B0 00 00 00 00 00 00 00 00 00 00 00 00 00 00 00 00 ................
0040E7C0 00 00 00 00 00 00 00 00 00 00 00 00 00 00 00 00 ................
0040E7D0 00 00 00 00 00 00 00 00 00 00 00 00 00 00 00 00 ................
0040E7E0 00 00 00 00 00 00 00 00 00 00 00 00 00 00 00 00 ................
0040E7F0 00 00 00 00 00 00 00 00 00 00 00 00 00 00 00 00 ................
0040E800 00 00 00 00 00 00 00 00 00 00 00 00 00 00 00 00 ................
0040E810 00 00 00 00 00 00 00 00 00 00 00 00 00 00 00 00 ................
0040E820 00 00 00 00 00 00 00 00 00 00 00 00 00 00 00 00 ................
0040E830 00 00 00 00 00 00 00 00 00 00 00 00 00 00 00 00 ................
0040E840 00 00 00 00 00 00 00 00 00 00 00 00 00 00 00 00 ................
0040E850 00 00 00 00 00 00 00 00 00 00 00 00 00 00 00 00 ................
0040E860 00 00 00 00 00 00 00 00 00 00 00 00 00 00 00 00 ................
0040E870 00 00 00 00 00 00 00 00 00 00 00 00 00 00 00 00 ................
0040E880 00 00 00 00 00 00 00 00 00 00 00 00 00 00 00 00 ................
0040E890 00 00 00 00 00 00 00 00 00 00 00 00 00 00 00 00 ................
0040E8A0 00 00 00 00 00 00 00 00 00 00 00 00 00 00 00 00 ................
0040E8B0 00 00 00 00 00 00 00 00 00 00 00 00 00 00 00 00 ................
0040E8C0 00 00 00 00 00 00 00 00 00 00 00 00 00 00 00 00 ................
0040E8D0 00 00 00 00 00 00 00 00 00 00 00 00 00 00 00 00 ................
0040E8E0 00 00 00 00 00 00 00 00 00 00 00 00 00 00 00 00 ................
0040E8F0 00 00 00 00 00 00 00 00 00 00 00 00 00 00 00 00 ................
0040E900 00 00 00 00 00 00 00 00 00 00 00 00 00 00 00 00 ................
0040E910 00 00 00 00 00 00 00 00 00 00 00 00 00 00 00 00 ................
0040E920 00 00 00 00 00 00 00 00 00 00 00 00 00 00 00 00 ................
0040E930 00 00 00 00 00 00 00 00 00 00 00 00 00 00 00 00 ................
0040E940 00 00 00 00 00 00 00 00 00 00 00 00 00 00 00 00 ................
0040E950 00 00 00 00 00 00 00 00 00 00 00 00 00 00 00 00 ................
0040E960 00 00 00 00 00 00 00 00 00 00 00 00 00 00 00 00 ................
0040E970 00 00 00 00 00 00 00 00 00 00 00 00 00 00 00 00 ................
0040E980 00 00 00 00 00 00 00 00 00 00 00 00 00 00 00 00 ................
0040E990 00 00 00 00 00 00 00 00 00 00 00 00 00 00 00 00 ................
0040E9A0 00 00 00 00 00 00 00 00 00 00 00 00 00 00 00 00 ................
0040E9B0 00 00 00 00 00 00 00 00 00 00 00 00 00 00 00 00 ................
0040E9C0 00 00 00 00 00 00 00 00 00 00 00 00 00 00 00 00 ................
0040E9D0 00 00 00 00 00 00 00 00 00 00 00 00 00 00 00 00 ................
0040E9E0 00 00 00 00 00 00 00 00 00 00 00 00 00 00 00 00 ................
0040E9F0 00 00 00 00 00 00 00 00 00 00 00 00 00 00 00 00 ................
0040EA00 00 00 00 00 00 00 00 00 00 00 00 00 00 00 00 00 ................
0040EA10 00 00 00 00 00 00 00 00 00 00 00 00 00 00 00 00 ................
0040EA20 00 00 00 00 00 00 00 00 00 00 00 00 00 00 00 00 ................
0040EA30 00 00 00 00 00 00 00 00 00 00 00 00 00 00 00 00 ................
0040EA40 00 00 00 00 00 00 00 00 00 00 00 00 00 00 00 00 ................
0040EA50 00 00 00 00 00 00 00 00 00 00 00 00 00 00 00 00 ................
0040EA60 00 00 00 00 00 00 00 00 00 00 00 00 00 00 00 00 ................
0040EA70 00 00 00 00 00 00 00 00 00 00 00 00 00 00 00 00 ................
0040EA80 00 00 00 00 00 00 00 00 00 00 00 00 00 00 00 00 ................
0040EA90 00 00 00 00 00 00 00 00 00 00 00 00 00 00 00 00 ................
0040EAA0 00 00 00 00 00 00 00 00 00 00 00 00 00 00 00 00 ................
0040EAB0 00 00 00 00 00 00 00 00 00 00 00 00 00 00 00 00 ................
0040EAC0 00 00 00 00 00 00 00 00 00 00 00 00 00 00 00 00 ................
0040EAD0 00 00 00 00 00 00 00 00 00 00 00 00 00 00 00 00 ................
0040EAE0 00 00 00 00 00 00 00 00 00 00 00 00 00 00 00 00 ................
0040EAF0 00 00 00 00 00 00 00 00 00 00 00 00 00 00 00 00 ................
0040EB00 00 00 00 00 00 00 00 00 00 00 00 00 00 00 00 00 ................
0040EB10 00 00 00 00 00 00 00 00 00 00 00 00 00 00 00 00 ................
0040EB20 00 00 00 00 00 00 00 00 00 00 00 00 00 00 00 00 ................
0040EB30 00 00 00 00 00 00 00 00 00 00 00 00 00 00 00 00 ................
0040EB40 00 00 00 00 00 00 00 00 00 00 00 00 00 00 00 00 ................
0040EB50 00 00 00 00 00 00 00 00 00 00 00 00 00 00 00 00 ................
0040EB60 00 00 00 00 00 00 00 00 00 00 00 00 00 00 00 00 ................
0040EB70 00 00 00 00 00 00 00 00 00 00 00 00 00 00 00 00 ................
0040EB80 00 00 00 00 00 00 00 00 00 00 00 00 00 00 00 00 ................
0040EB90 00 00 00 00 00 00 00 00 00 00 00 00 00 00 00 00 ................
0040EBA0 00 00 00 00 00 00 00 00 00 00 00 00 00 00 00 00 ................
0040EBB0 00 00 00 00 00 00 00 00 00 00 00 00 00 00 00 00 ................
0040EBC0 00 00 00 00 00 00 00 00 00 00 00 00 00 00 00 00 ................
0040EBD0 00 00 00 00 00 00 00 00 00 00 00 00 00 00 00 00 ................
0040EBE0 00 00 00 00 00 00 00 00 00 00 00 00 00 00 00 00 ................
0040EBF0 00 00 00 00 00 00 00 00 00 00 00 00 00 00 00 00 ................
0040EC00 00 00 00 00 00 00 00 00 00 00 00 00 00 00 00 00 ................
0040EC10 00 00 00 00 00 00 00 00 00 00 00 00 00 00 00 00 ................
0040EC20 00 00 00 00 00 00 00 00 00 00 00 00 00 00 00 00 ................
0040EC30 00 00 00 00 00 00 00 00 00 00 00 00 00 00 00 00 ................
0040EC40 00 00 00 00 00 00 00 00 00 00 00 00 00 00 00 00 ................
0040EC50 00 00 00 00 00 00 00 00 00 00 00 00 00 00 00 00 ................
0040EC60 00 00 00 00 00 00 00 00 00 00 00 00 00 00 00 00 ................
0040EC70 00 00 00 00 00 00 00 00 00 00 00 00 00 00 00 00 ................
0040EC80 00 00 00 00 00 00 00 00 00 00 00 00 00 00 00 00 ................
0040EC90 00 00 00 00 00 00 00 00 00 00 00 00 00 00 00 00 ................
0040ECA0 00 00 00 00 00 00 00 00 00 00 00 00 00 00 00 00 ................
0040ECB0 00 00 00 00 00 00 00 00 00 00 00 00 00 00 00 00 ................
0040ECC0 00 00 00 00 00 00 00 00 00 00 00 00 00 00 00 00 ................
0040ECD0 00 00 00 00 00 00 00 00 00 00 00 00 00 00 00 00 ................
0040ECE0 00 00 00 00 00 00 00 00 00 00 00 00 00 00 00 00 ................
0040ECF0 00 00 00 00 00 00 00 00 00 00 00 00 00 00 00 00 ................
0040ED00 00 00 00 00 00 00 00 00 00 00 00 00 00 00 00 00 ................
0040ED10 00 00 00 00 00 00 00 00 00 00 00 00 00 00 00 00 ................
0040ED20 00 00 00 00 00 00 00 00 00 00 00 00 00 00 00 00 ................
0040ED30 00 00 00 00 00 00 00 00 00 00 00 00 00 00 00 00 ................
0040ED40 00 00 00 00 00 00 00 00 00 00 00 00 00 00 00 00 ................
0040ED50 00 00 00 00 00 00 00 00 00 00 00 00 00 00 00 00 ................
0040ED60 00 00 00 00 00 00 00 00 00 00 00 00 00 00 00 00 ................
0040ED70 00 00 00 00 00 00 00 00 00 00 00 00 00 00 00 00 ................
0040ED80 00 00 00 00 00 00 00 00 00 00 00 00 00 00 00 00 ................
0040ED90 00 00 00 00 00 00 00 00 00 00 00 00 00 00 00 00 ................
0040EDA0 00 00 00 00 00 00 00 00 00 00 00 00 00 00 00 00 ................
0040EDB0 00 00 00 00 00 00 00 00 00 00 00 00 00 00 00 00 ................
0040EDC0 00 00 00 00 00 00 00 00 00 00 00 00 00 00 00 00 ................
0040EDD0 00 00 00 00 00 00 00 00 00 00 00 00 00 00 00 00 ................
0040EDE0 00 00 00 00 00 00 00 00 00 00 00 00 00 00 00 00 ................
0040EDF0 00 00 00 00 00 00 00 00 00 00 00 00 00 00 00 00 ................
0040EE00 00 00 00 00 00 00 00 00 00 00 00 00 00 00 00 00 ................
0040EE10 00 00 00 00 00 00 00 00 00 00 00 00 00 00 00 00 ................
0040EE20 00 00 00 00 00 00 00 00 00 00 00 00 00 00 00 00 ................
0040EE30 00 00 00 00 00 00 00 00 00 00 00 00 00 00 00 00 ................
0040EE40 00 00 00 00 00 00 00 00 00 00 00 00 00 00 00 00 ................
0040EE50 00 00 00 00 00 00 00 00 00 00 00 00 00 00 00 00 ................
0040EE60 00 00 00 00 00 00 00 00 00 00 00 00 00 00 00 00 ................
0040EE70 00 00 00 00 00 00 00 00 00 00 00 00 00 00 00 00 ................
0040EE80 00 00 00 00 00 00 00 00 00 00 00 00 00 00 00 00 ................
0040EE90 00 00 00 00 00 00 00 00 00 00 00 00 00 00 00 00 ................
0040EEA0 00 00 00 00 00 00 00 00 00 00 00 00 00 00 00 00 ................
0040EEB0 00 00 00 00 00 00 00 00 00 00 00 00 00 00 00 00 ................
0040EEC0 00 00 00 00 00 00 00 00 00 00 00 00 00 00 00 00 ................
0040EED0 00 00 00 00 00 00 00 00 00 00 00 00 00 00 00 00 ................
0040EEE0 00 00 00 00 00 00 00 00 00 00 00 00 00 00 00 00 ................
0040EEF0 00 00 00 00 00 00 00 00 00 00 00 00 00 00 00 00 ................
0040EF00 00 00 00 00 00 00 00 00 00 00 00 00 00 00 00 00 ................
0040EF10 00 00 00 00 00 00 00 00 00 00 00 00 00 00 00 00 ................
0040EF20 00 00 00 00 00 00 00 00 00 00 00 00 00 00 00 00 ................
0040EF30 00 00 00 00 00 00 00 00 00 00 00 00 00 00 00 00 ................
0040EF40 00 00 00 00 00 00 00 00 00 00 00 00 00 00 00 00 ................
0040EF50 00 00 00 00 00 00 00 00 00 00 00 00 00 00 00 00 ................
0040EF60 00 00 00 00 00 00 00 00 00 00 00 00 00 00 00 00 ................
0040EF70 00 00 00 00 00 00 00 00 00 00 00 00 00 00 00 00 ................
0040EF80 00 00 00 00 00 00 00 00 00 00 00 00 00 00 00 00 ................
0040EF90 00 00 00 00 00 00 00 00 00 00 00 00 00 00 00 00 ................
0040EFA0 00 00 00 00 00 00 00 00 00 00 00 00 00 00 00 00 ................
0040EFB0 00 00 00 00 00 00 00 00 00 00 00 00 00 00 00 00 ................
0040EFC0 00 00 00 00 00 00 00 00 00 00 00 00 00 00 00 00 ................
0040EFD0 00 00 00 00 00 00 00 00 00 00 00 00 00 00 00 00 ................
0040EFE0 00 00 00 00 00 00 00 00 00 00 00 00 00 00 00 00 ................
0040EFF0 00 00 00 00 00 00 00 00 00 00 00 00 00 00 00 00 ................
0040F000 60 F2 00 00 70 F2 00 00 7C F2 00 00 88 F2 00 00 `...p...|.......
0040F010 94 F2 00 00 A4 F2 00 00 C0 F2 00 00 D6 F2 00 00 ................
0040F020 E6 F2 00 00 F6 F2 00 00 0E F3 00 00 26 F3 00 00 ............&...
0040F030 34 F3 00 00 44 F3 00 00 50 F3 00 00 66 F3 00 00 4...D...P...f...
0040F040 72 F3 00 00 80 F3 00 00 8A F3 00 00 9C F3 00 00 r...............
0040F050 AA F3 00 00 BA F3 00 00 C8 F3 00 00 D2 F3 00 00 ................
0040F060 DE F3 00 00 EE F3 00 00 FE F3 00 00 16 F4 00 00 ................
0040F070 2A F4 00 00 3C F4 00 00 48 F4 00 00 5E F4 00 00 *...<...H...^...
0040F080 6A F4 00 00 7A F4 00 00 98 F4 00 00 AE F4 00 00 j...z...........
0040F090 00 00 00 00 CE F4 00 00 DA F4 00 00 E6 F4 00 00 ................
0040F0A0 F6 F4 00 00 06 F5 00 00 12 F5 00 00 22 F5 00 00 ............"...
0040F0B0 30 F5 00 00 3E F5 00 00 50 F5 00 00 62 F5 00 00 0...>...P...b...
0040F0C0 74 F5 00 00 88 F5 00 00 96 F5 00 00 A8 F5 00 00 t...............
0040F0D0 BA F5 00 00 CC F5 00 00 DE F5 00 00 F4 F5 00 00 ................
0040F0E0 02 F6 00 00 10 F6 00 00 22 F6 00 00 34 F6 00 00 ........"...4...
0040F0F0 48 F6 00 00 5C F6 00 00 68 F6 00 00 76 F6 00 00 H...\...h...v...
0040F100 84 F6 00 00 9A F6 00 00 B0 F6 00 00 00 00 00 00 ................
0040F110 00 00 00 00 50 F1 00 00 00 00 00 00 00 00 00 00 ....P...........
0040F120 C0 F4 00 00 00 F0 00 00 E4 F1 00 00 00 00 00 00 ................
0040F130 00 00 00 00 BE F6 00 00 94 F0 00 00 00 00 00 00 ................
0040F140 00 00 00 00 00 00 00 00 00 00 00 00 00 00 00 00 ................
0040F150 60 F2 00 00 70 F2 00 00 7C F2 00 00 88 F2 00 00 `...p...|.......
0040F160 94 F2 00 00 A4 F2 00 00 C0 F2 00 00 D6 F2 00 00 ................
0040F170 E6 F2 00 00 F6 F2 00 00 0E F3 00 00 26 F3 00 00 ............&...
0040F180 34 F3 00 00 44 F3 00 00 50 F3 00 00 66 F3 00 00 4...D...P...f...
0040F190 72 F3 00 00 80 F3 00 00 8A F3 00 00 9C F3 00 00 r...............
0040F1A0 AA F3 00 00 BA F3 00 00 C8 F3 00 00 D2 F3 00 00 ................
0040F1B0 DE F3 00 00 EE F3 00 00 FE F3 00 00 16 F4 00 00 ................
0040F1C0 2A F4 00 00 3C F4 00 00 48 F4 00 00 5E F4 00 00 *...<...H...^...
0040F1D0 6A F4 00 00 7A F4 00 00 98 F4 00 00 AE F4 00 00 j...z...........
0040F1E0 00 00 00 00 CE F4 00 00 DA F4 00 00 E6 F4 00 00 ................
0040F1F0 F6 F4 00 00 06 F5 00 00 12 F5 00 00 22 F5 00 00 ............"...
0040F200 30 F5 00 00 3E F5 00 00 50 F5 00 00 62 F5 00 00 0...>...P...b...
0040F210 74 F5 00 00 88 F5 00 00 96 F5 00 00 A8 F5 00 00 t...............
0040F220 BA F5 00 00 CC F5 00 00 DE F5 00 00 F4 F5 00 00 ................
0040F230 02 F6 00 00 10 F6 00 00 22 F6 00 00 34 F6 00 00 ........"...4...
0040F240 48 F6 00 00 5C F6 00 00 68 F6 00 00 76 F6 00 00 H...\...h...v...
0040F250 84 F6 00 00 9A F6 00 00 B0 F6 00 00 00 00 00 00 ................
0040F260 11 00 56 69 72 74 75 61 6C 41 6C 6C 6F 63 00 00 ..VirtualAlloc..
0040F270 16 00 52 65 61 64 46 69 6C 65 00 00 19 00 52 65 ..ReadFile....Re
0040F280 61 64 46 69 6C 65 00 00 1B 00 57 72 69 74 65 46 adFile....WriteF
0040F290 69 6C 65 00 21 00 4C 6F 61 64 4C 69 62 72 61 72 ile.!.LoadLibrar
0040F2A0 79 41 00 00 24 00 55 6E 68 61 6E 64 6C 65 64 45 yA..$.UnhandledE
0040F2B0 78 63 65 70 74 69 6F 6E 46 69 6C 74 65 72 00 00 xceptionFilter..
0040F2C0 28 00 47 65 74 43 75 72 72 65 6E 74 50 72 6F 63 (.GetCurrentProc
0040F2D0 65 73 73 49 64 00 2A 00 47 65 74 54 69 63 6B 43 essId.*.GetTickC
0040F2E0 6F 75 6E 74 00 00 2D 00 56 69 72 74 75 61 6C 41 ount..-.VirtualA
0040F2F0 6C 6C 6F 63 00 00 2E 00 49 6E 74 65 72 6C 6F 63 lloc....Interloc
0040F300 6B 65 64 44 65 63 72 65 6D 65 6E 74 00 00 33 00 kedDecrement..3.
0040F310 45 6E 74 65 72 43 72 69 74 69 63 61 6C 53 65 63 EnterCriticalSec
0040F320 74 69 6F 6E 00 00 35 00 45 78 69 74 50 72 6F 63 tion..5.ExitProc
0040F330 65 73 73 00 37 00 56 69 72 74 75 61 6C 41 6C 6C ess.7.VirtualAll
0040F340 6F 63 00 00 38 00 6C 73 74 72 63 70 79 57 00 00 oc..8.lstrcpyW..
0040F350 3C 00 47 65 74 4D 6F 64 75 6C 65 46 69 6C 65 4E <.GetModuleFileN
0040F360 61 6D 65 41 00 00 3F 00 53 65 74 45 76 65 6E 74 ameA..?.SetEvent
0040F370 00 00 43 00 45 78 69 74 50 72 6F 63 65 73 73 00 ..C.ExitProcess.
0040F380 45 00 47 65 74 41 43 50 00 00 46 00 47 65 74 53 E.GetACP..F.GetS
0040F390 74 61 72 74 75 70 49 6E 66 6F 57 00 4B 00 48 65 tartupInfoW.K.He
0040F3A0 61 70 44 65 73 74 72 6F 79 00 50 00 43 72 65 61 apDestroy.P.Crea
0040F3B0 74 65 54 68 72 65 61 64 00 00 55 00 48 65 61 70 teThread..U.Heap
0040F3C0 52 65 41 6C 6C 6F 63 00 59 00 47 65 74 41 43 50 ReAlloc.Y.GetACP
0040F3D0 00 00 5D 00 6C 73 74 72 63 70 79 57 00 00 5F 00 ..].lstrcpyW.._.
0040F3E0 56 69 72 74 75 61 6C 41 6C 6C 6F 63 00 00 64 00 VirtualAlloc..d.
0040F3F0 4C 6F 61 64 4C 69 62 72 61 72 79 41 00 00 68 00 LoadLibraryA..h.
0040F400 44 65 6C 65 74 65 43 72 69 74 69 63 61 6C 53 65 DeleteCriticalSe
0040F410 63 74 69 6F 6E 00 69 00 47 65 74 4D 6F 64 75 6C ction.i.GetModul
0040F420 65 48 61 6E 64 6C 65 57 00 00 6F 00 47 65 74 50 eHandleW..o.GetP
0040F430 72 6F 63 41 64 64 72 65 73 73 00 00 73 00 57 72 rocAddress..s.Wr
0040F440 69 74 65 46 69 6C 65 00 77 00 47 65 74 4D 6F 64 iteFile.w.GetMod
0040F450 75 6C 65 46 69 6C 65 4E 61 6D 65 41 00 00 7B 00 uleFileNameA..{.
0040F460 48 65 61 70 46 72 65 65 00 00 80 00 56 69 72 74 HeapFree....Virt
0040F470 75 61 6C 41 6C 6C 6F 63 00 00 84 00 53 65 74 55 ualAlloc....SetU
0040F480 6E 68 61 6E 64 6C 65 64 45 78 63 65 70 74 69 6F nhandledExceptio
0040F490 6E 46 69 6C 74 65 72 00 8A 00 57 61 69 74 46 6F nFilter...WaitFo
0040F4A0 72 53 69 6E 67 6C 65 4F 62 6A 65 63 74 00 8D 00 rSingleObject...
0040F4B0 47 65 74 50 72 6F 63 41 64 64 72 65 73 73 00 00 GetProcAddress..
0040F4C0 4B 45 52 4E 45 4C 33 32 2E 44 4C 4C 00 00 14 00 KERNEL32.DLL....
0040F4D0 53 65 74 54 69 6D 65 72 00 00 1A 00 77 73 70 72 SetTimer....wspr
0040F4E0 69 6E 74 66 57 00 20 00 53 65 6E 64 4D 65 73 73 intfW. .SendMess
0040F4F0 61 67 65 41 00 00 26 00 53 65 6E 64 4D 65 73 73 ageA..&.SendMess
0040F500 61 67 65 57 00 00 2A 00 50 74 49 6E 52 65 63 74 ageW..*.PtInRect
0040F510 00 00 2D 00 47 65 74 44 6C 67 43 74 72 6C 49 44 ..-.GetDlgCtrlID
0040F520 00 00 2E 00 4C 6F 61 64 49 6D 61 67 65 57 00 00 ....LoadImageW..
0040F530 31 00 4D 65 73 73 61 67 65 42 6F 78 57 00 36 00 1.MessageBoxW.6.
0040F540 47 65 74 57 69 6E 64 6F 77 54 65 78 74 57 00 00 GetWindowTextW..
0040F550 39 00 53 65 74 57 69 6E 64 6F 77 4C 6F 6E 67 57 9.SetWindowLongW
0040F560 00 00 3D 00 53 63 72 65 65 6E 54 6F 43 6C 69 65 ..=.ScreenToClie
0040F570 6E 74 00 00 43 00 44 69 73 70 61 74 63 68 4D 65 nt..C.DispatchMe
0040F580 73 73 61 67 65 57 00 00 44 00 47 65 74 53 79 73 ssageW..D.GetSys
0040F590 43 6F 6C 6F 72 00 48 00 45 6E 61 62 6C 65 4D 65 Color.H.EnableMe
0040F5A0 6E 75 49 74 65 6D 00 00 4A 00 44 69 61 6C 6F 67 nuItem..J.Dialog
0040F5B0 42 6F 78 50 61 72 61 6D 57 00 4C 00 47 65 74 57 BoxParamW.L.GetW
0040F5C0 69 6E 64 6F 77 4C 6F 6E 67 57 00 00 52 00 52 65 indowLongW..R.Re
0040F5D0 6C 65 61 73 65 43 61 70 74 75 72 65 00 00 56 00 leaseCapture..V.
0040F5E0 53 65 74 46 6F 72 65 67 72 6F 75 6E 64 57 69 6E SetForegroundWin
0040F5F0 64 6F 77 00 58 00 53 65 74 43 61 70 74 75 72 65 dow.X.SetCapture
0040F600 00 00 5D 00 47 65 74 53 75 62 4D 65 6E 75 00 00 ..].GetSubMenu..
0040F610 63 00 50 6F 73 74 51 75 69 74 4D 65 73 73 61 67 c.PostQuitMessag
0040F620 65 00 66 00 49 73 57 69 6E 64 6F 77 56 69 73 69 e.f.IsWindowVisi
0040F630 62 6C 65 00 68 00 44 69 73 70 61 74 63 68 4D 65 ble.h.DispatchMe
0040F640 73 73 61 67 65 57 00 00 6B 00 47 65 74 44 65 73 ssageW..k.GetDes
0040F650 6B 74 6F 70 57 69 6E 64 6F 77 00 00 6C 00 43 68 ktopWindow..l.Ch
0040F660 61 72 4E 65 78 74 57 00 6F 00 4F 66 66 73 65 74 arNextW.o.Offset
0040F670 52 65 63 74 00 00 74 00 4C 6F 61 64 49 6D 61 67 Rect..t.LoadImag
0040F680 65 57 00 00 78 00 53 65 6E 64 44 6C 67 49 74 65 eW..x.SendDlgIte
0040F690 6D 4D 65 73 73 61 67 65 57 00 7C 00 53 65 74 46 mMessageW.|.SetF
0040F6A0 6F 72 65 67 72 6F 75 6E 64 57 69 6E 64 6F 77 00 oregroundWindow.
0040F6B0 82 00 4D 65 73 73 61 67 65 42 6F 78 41 00 55 53 ..MessageBoxA.US
0040F6C0 45 52 33 32 2E 44 4C 4C 00 00 00 00 00 00 00 00 ER32.DLL........
0040F6D0 00 00 00 00 00 00 00 00 00 00 00 00 00 00 00 00 ................
0040F6E0 00 00 00 00 00 00 00 00 00 00 00 00 00 00 00 00 ................
0040F6F0 00 00 00 00 00 00 00 00 00 00 00 00 00 00 00 00 ................
0040F700 00 00 00 00 00 00 00 00 00 00 00 00 00 00 00 00 ................
0040F710 00 00 00 00 00 00 00 00 00 00 00 00 00 00 00 00 ................
0040F720 00 00 00 00 00 00 00 00 00 00 00 00 00 00 00 00 ................
0040F730 00 00 00 00 00 00 00 00 00 00 00 00 00 00 00 00 ................
0040F740 00 00 00 00 00 00 00 00 00 00 00 00 00 00 00 00 ................
0040F750 00 00 00 00 00 00 00 00 00 00 00 00 00 00 00 00 ................
0040F760 00 00 00 00 00 00 00 00 00 00 00 00 00 00 00 00 ................
0040F770 00 00 00 00 00 00 00 00 00 00 00 00 00 00 00 00 ................
0040F780 00 00 00 00 00 00 00 00 00 00 00 00 00 00 00 00 ................
0040F790 00 00 00 00 00 00 00 00 00 00 00 00 00 00 00 00 ................
0040F7A0 00 00 00 00 00 00 00 00 00 00 00 00 00 00 00 00 ................
0040F7B0 00 00 00 00 00 00 00 00 00 00 00 00 00 00 00 00 ................
0040F7C0 00 00 00 00 00 00 00 00 00 00 00 00 00 00 00 00 ................
0040F7D0 00 00 00 00 00 00 00 00 00 00 00 00 00 00 00 00 ................
0040F7E0 00 00 00 00 00 00 00 00 00 00 00 00 00 00 00 00 ................
0040F7F0 00 00 00 00 00 00 00 00 00 00 00 00 00 00 00 00 ................
0040F800 00 00 00 00 00 00 00 00 00 00 00 00 00 00 00 00 ................
0040F810 00 00 00 00 00 00 00 00 00 00 00 00 00 00 00 00 ................
0040F820 00 00 00 00 00 00 00 00 00 00 00 00 00 00 00 00 ................
0040F830 00 00 00 00 00 00 00 00 00 00 00 00 00 00 00 00 ................
0040F840 00 00 00 00 00 00 00 00 00 00 00 00 00 00 00 00 ................
0040F850 00 00 00 00 00 00 00 00 00 00 00 00 00 00 00 00 ................
0040F860 00 00 00 00 00 00 00 00 00 00 00 00 00 00 00 00 ................
0040F870 00 00 00 00 00 00 00 00 00 00 00 00 00 00 00 00 ................
0040F880 00 00 00 00 00 00 00 00 00 00 00 00 00 00 00 00 ................
0040F890 00 00 00 00 00 00 00 00 00 00 00 00 00 00 00 00 ................
0040F8A0 00 00 00 00 00 00 00 00 00 00 00 00 00 00 00 00 ................
0040F8B0 00 00 00 00 00 00 00 00 00 00 00 00 00 00 00 00 ................
0040F8C0 00 00 00 00 00 00 00 00 00 00 00 00 00 00 00 00 ................
0040F8D0 00 00 00 00 00 00 00 00 00 00 00 00 00 00 00 00 ................
0040F8E0 00 00 00 00 00 00 00 00 00 00 00 00 00 00 00 00 ................
0040F8F0 00 00 00 00 00 00 00 00 00 00 00 00 00 00 00 00 ................
0040F900 00 00 00 00 00 00 00 00 00 00 00 00 00 00 00 00 ................
0040F910 00 00 00 00 00 00 00 00 00 00 00 00 00 00 00 00 ................
0040F920 00 00 00 00 00 00 00 00 00 00 00 00 00 00 00 00 ................
0040F930 00 00 00 00 00 00 00 00 00 00 00 00 00 00 00 00 ................
0040F940 00 00 00 00 00 00 00 00 00 00 00 00 00 00 00 00 ................
0040F950 00 00 00 00 00 00 00 00 00 00 00 00 00 00 00 00 ................
0040F960 00 00 00 00 00 00 00 00 00 00 00 00 00 00 00 00 ................
0040F970 00 00 00 00 00 00 00 00 00 00 00 00 00 00 00 00 ................
0040F980 00 00 00 00 00 00 00 00 00 00 00 00 00 00 00 00 ................
0040F990 00 00 00 00 00 00 00 00 00 00 00 00 00 00 00 00 ................
0040F9A0 00 00 00 00 00 00 00 00 00 00 00 00 00 00 00 00 ................
0040F9B0 00 00 00 00 00 00 00 00 00 00 00 00 00 00 00 00 ................
0040F9C0 00 00 00 00 00 00 00 00 00 00 00 00 00 00 00 00 ................
0040F9D0 00 00 00 00 00 00 00 00 00 00 00 00 00 00 00 00 ................
0040F9E0 00 00 00 00 00 00 00 00 00 00 00 00 00 00 00 00 ................
0040F9F0 00 00 00 00 00 00 00 00 00 00 00 00 00 00 00 00 ................
0040FA00 00 00 00 00 00 00 00 00 00 00 00 00 00 00 00 00 ................
0040FA10 00 00 00 00 00 00 00 00 00 00 00 00 00 00 00 00 ................
0040FA20 00 00 00 00 00 00 00 00 00 00 00 00 00 00 00 00 ................
0040FA30 00 00 00 00 00 00 00 00 00 00 00 00 00 00 00 00 ................
0040FA40 00 00 00 00 00 00 00 00 00 00 00 00 00 00 00 00 ................
0040FA50 00 00 00 00 00 00 00 00 00 00 00 00 00 00 00 00 ................
0040FA60 00 00 00 00 00 00 00 00 00 00 00 00 00 00 00 00 ................
0040FA70 00 00 00 00 00 00 00 00 00 00 00 00 00 00 00 00 ................
0040FA80 00 00 00 00 00 00 00 00 00 00 00 00 00 00 00 00 ................
0040FA90 00 00 00 00 00 00 00 00 00 00 00 00 00 00 00 00 ................
0040FAA0 00 00 00 00 00 00 00 00 00 00 00 00 00 00 00 00 ................
0040FAB0 00 00 00 00 00 00 00 00 00 00 00 00 00 00 00 00 ................
0040FAC0 00 00 00 00 00 00 00 00 00 00 00 00 00 00 00 00 ................
0040FAD0 00 00 00 00 00 00 00 00 00 00 00 00 00 00 00 00 ................
0040FAE0 00 00 00 00 00 00 00 00 00 00 00 00 00 00 00 00 ................
0040FAF0 00 00 00 00 00 00 00 00 00 00 00 00 00 00 00 00 ................
0040FB00 00 00 00 00 00 00 00 00 00 00 00 00 00 00 00 00 ................
0040FB10 00 00 00 00 00 00 00 00 00 00 00 00 00 00 00 00 ................
0040FB20 00 00 00 00 00 00 00 00 00 00 00 00 00 00 00 00 ................
0040FB30 00 00 00 00 00 00 00 00 00 00 00 00 00 00 00 00 ................
0040FB40 00 00 00 00 00 00 00 00 00 00 00 00 00 00 00 00 ................
0040FB50 00 00 00 00 00 00 00 00 00 00 00 00 00 00 00 00 ................
0040FB60 00 00 00 00 00 00 00 00 00 00 00 00 00 00 00 00 ................
0040FB70 00 00 00 00 00 00 00 00 00 00 00 00 00 00 00 00 ................
0040FB80 00 00 00 00 00 00 00 00 00 00 00 00 00 00 00 00 ................
0040FB90 00 00 00 00 00 00 00 00 00 00 00 00 00 00 00 00 ................
0040FBA0 00 00 00 00 00 00 00 00 00 00 00 00 00 00 00 00 ................
0040FBB0 00 00 00 00 00 00 00 00 00 00 00 00 00 00 00 00 ................
0040FBC0 00 00 00 00 00 00 00 00 00 00 00 00 00 00 00 00 ................
0040FBD0 00 00 00 00 00 00 00 00 00 00 00 00 00 00 00 00 ................
0040FBE0 00 00 00 00 00 00 00 00 00 00 00 00 00 00 00 00 ................
0040FBF0 00 00 00 00 00 00 00 00 00 00 00 00 00 00 00 00 ................
0040FC00 00 00 00 00 00 00 00 00 00 00 00 00 00 00 00 00 ................
0040FC10 00 00 00 00 00 00 00 00 00 00 00 00 00 00 00 00 ................
0040FC20 00 00 00 00 00 00 00 00 00 00 00 00 00 00 00 00 ................
0040FC30 00 00 00 00 00 00 00 00 00 00 00 00 00 00 00 00 ................
0040FC40 00 00 00 00 00 00 00 00 00 00 00 00 00 00 00 00 ................
0040FC50 00 00 00 00 00 00 00 00 00 00 00 00 00 00 00 00 ................
0040FC60 00 00 00 00 00 00 00 00 00 00 00 00 00 00 00 00 ................
0040FC70 00 00 00 00 00 00 00 00 00 00 00 00 00 00 00 00 ................
0040FC80 00 00 00 00 00 00 00 00 00 00 00 00 00 00 00 00 ................
0040FC90 00 00 00 00 00 00 00 00 00 00 00 00 00 00 00 00 ................
0040FCA0 00 00 00 00 00 00 00 00 00 00 00 00 00 00 00 00 ................
0040FCB0 00 00 00 00 00 00 00 00 00 00 00 00 00 00 00 00 ................
0040FCC0 00 00 00 00 00 00 00 00 00 00 00 00 00 00 00 00 ................
0040FCD0 00 00 00 00 00 00 00 00 00 00 00 00 00 00 00 00 ................
0040FCE0 00 00 00 00 00 00 00 00 00 00 00 00 00 00 00 00 ................
0040FCF0 00 00 00 00 00 00 00 00 00 00 00 00 00 00 00 00 ................
0040FD00 00 00 00 00 00 00 00 00 00 00 00 00 00 00 00 00 ................
0040FD10 00 00 00 00 00 00 00 00 00 00 00 00 00 00 00 00 ................
0040FD20 00 00 00 00 00 00 00 00 00 00 00 00 00 00 00 00 ................
0040FD30 00 00 00 00 00 00 00 00 00 00 00 00 00 00 00 00 ................
0040FD40 00 00 00 00 00 00 00 00 00 00 00 00 00 00 00 00 ................
0040FD50 00 00 00 00 00 00 00 00 00 00 00 00 00 00 00 00 ................
0040FD60 00 00 00 00 00 00 00 00 00 00 00 00 00 00 00 00 ................
0040FD70 00 00 00 00 00 00 00 00 00 00 00 00 00 00 00 00 ................
0040FD80 00 00 00 00 00 00 00 00 00 00 00 00 00 00 00 00 ................
0040FD90 00 00 00 00 00 00 00 00 00 00 00 00 00 00 00 00 ................
0040FDA0 00 00 00 00 00 00 00 00 00 00 00 00 00 00 00 00 ................
0040FDB0 00 00 00 00 00 00 00 00 00 00 00 00 00 00 00 00 ................
0040FDC0 00 00 00 00 00 00 00 00 00 00 00 00 00 00 00 00 ................
0040FDD0 00 00 00 00 00 00 00 00 00 00 00 00 00 00 00 00 ................
0040FDE0 00 00 00 00 00 00 00 00 00 00 00 00 00 00 00 00 ................
0040FDF0 00 00 00 00 00 00 00 00 00 00 00 00 00 00 00 00 ................
0040FE00 00 00 00 00 00 00 00 00 00 00 00 00 00 00 00 00 ................
0040FE10 00 00 00 00 00 00 00 00 00 00 00 00 00 00 00 00 ................
0040FE20 00 00 00 00 00 00 00 00 00 00 00 00 00 00 00 00 ................
0040FE30 00 00 00 00 00 00 00 00 00 00 00 00 00 00 00 00 ................
0040FE40 00 00 00 00 00 00 00 00 00 00 00 00 00 00 00 00 ................
0040FE50 00 00 00 00 00 00 00 00 00 00 00 00 00 00 00 00 ................
0040FE60 00 00 00 00 00 00 00 00 00 00 00 00 00 00 00 00 ................
0040FE70 00 00 00 00 00 00 00 00 00 00 00 00 00 00 00 00 ................
0040FE80 00 00 00 00 00 00 00 00 00 00 00 00 00 00 00 00 ................
0040FE90 00 00 00 00 00 00 00 00 00 00 00 00 00 00 00 00 ................
0040FEA0 00 00 00 00 00 00 00 00 00 00 00 00 00 00 00 00 ................
0040FEB0 00 00 00 00 00 00 00 00 00 00 00 00 00 00 00 00 ................
0040FEC0 00 00 00 00 00 00 00 00 00 00 00 00 00 00 00 00 ................
0040FED0 00 00 00 00 00 00 00 00 00 00 00 00 00 00 00 00 ................
0040FEE0 00 00 00 00 00 00 00 00 00 00 00 00 00 00 00 00 ................
0040FEF0 00 00 00 00 00 00 00 00 00 00 00 00 00 00 00 00 ................
0040FF00 00 00 00 00 00 00 00 00 00 00 00 00 00 00 00 00 ................
0040FF10 00 00 00 00 00 00 00 00 00 00 00 00 00 00 00 00 ................
0040FF20 00 00 00 00 00 00 00 00 00 00 00 00 00 00 00 00 ................
0040FF30 00 00 00 00 00 00 00 00 00 00 00 00 00 00 00 00 ................
0040FF40 00 00 00 00 00 00 00 00 00 00 00 00 00 00 00 00 ................
0040FF50 00 00 00 00 00 00 00 00 00 00 00 00 00 00 00 00 ................
0040FF60 00 00 00 00 00 00 00 00 00 00 00 00 00 00 00 00 ................
0040FF70 00 00 00 00 00 00 00 00 00 00 00 00 00 00 00 00 ................
0040FF80 00 00 00 00 00 00 00 00 00 00 00 00 00 00 00 00 ................
0040FF90 00 00 00 00 00 00 00 00 00 00 00 00 00 00 00 00 ................
0040FFA0 00 00 00 00 00 00 00 00 00 00 00 00 00 00 00 00 ................
0040FFB0 00 00 00 00 00 00 00 00 00 00 00 00 00 00 00 00 ................
0040FFC0 00 00 00 00 00 00 00 00 00 00 00 00 00 00 00 00 ................
0040FFD0 00 00 00 00 00 00 00 00 00 00 00 00 00 00 00 00 ................
0040FFE0 00 00 00 00 00 00 00 00 00 00 00 00 00 00 00 00 ................
0040FFF0 00 00 00 00 00 00 00 00 00 00 00 00 00 00 00 00 ................
00410000 00 00 00 00 00 00 00 00 00 00 00 00 00 00 03 00 ................
00410010 03 00 00 00 28 00 00 80 0E 00 00 00 40 00 00 80 ....(.......@...
00410020 10 00 00 00 58 00 00 80 00 00 00 00 00 00 00 00 ....X...........
00410030 00 00 00 00 00 00 01 00 01 00 00 00 70 00 00 80 ............p...
00410040 00 00 00 00 00 00 00 00 00 00 00 00 00 00 01 00 ................
00410050 FF 64 00 00 88 00 00 80 00 00 00 00 00 00 00 00 .d..............
00410060 00 00 00 00 00 00 01 00 CB 64 00 00 A0 00 00 80 .........d......
00410070 00 00 00 00 00 00 00 00 00 00 00 00 00 00 01 00 ................
00410080 19 04 00 00 B8 00 00 00 00 00 00 00 00 00 00 00 ................
00410090 00 00 00 00 00 00 01 00 19 04 00 00 C8 00 00 00 ................
004100A0 00 00 00 00 00 00 00 00 00 00 00 00 00 00 01 00 ................
004100B0 19 04 00 00 D8 00 00 00 E8 00 01 00 A8 08 00 00 ................
004100C0 00 00 00 00 00 00 00 00 90 09 01 00 14 00 00 00 ................
004100D0 00 00 00 00 00 00 00 00 A4 09 01 00 FC 02 00 00 ................
004100E0 00 00 00 00 00 00 00 00 28 00 00 00 20 00 00 00 ........(... ...
004100F0 40 00 00 00 01 00 08 00 00 00 00 00 00 04 00 00 @...............
00410100 00 00 00 00 00 00 00 00 00 00 00 00 00 00 00 00 ................
00410110 00 00 00 00 00 00 80 00 00 80 00 00 00 80 80 00 ................
00410120 80 00 00 00 80 00 80 00 80 80 00 00 C0 C0 C0 00 ................
00410130 C0 DC C0 00 F0 CA A6 00 00 20 40 00 00 20 60 00 ......... @.. `.
00410140 00 20 80 00 00 20 A0 00 00 20 C0 00 00 20 E0 00 . ... ... ... ..
00410150 00 40 00 00 00 40 20 00 00 40 40 00 00 40 60 00 .@...@ ..@@..@`.
00410160 00 40 80 00 00 40 A0 00 00 40 C0 00 00 40 E0 00 .@...@...@...@..
00410170 00 60 00 00 00 60 20 00 00 60 40 00 00 60 60 00 .`...` ..`@..``.
00410180 00 60 80 00 00 60 A0 00 00 60 C0 00 00 60 E0 00 .`...`...`...`..
00410190 00 80 00 00 00 80 20 00 00 80 40 00 00 80 60 00 ...... ...@...`.
004101A0 00 80 80 00 00 80 A0 00 00 80 C0 00 00 80 E0 00 ................
004101B0 00 A0 00 00 00 A0 20 00 00 A0 40 00 00 A0 60 00 ...... ...@...`.
004101C0 00 A0 80 00 00 A0 A0 00 00 A0 C0 00 00 A0 E0 00 ................
004101D0 00 C0 00 00 00 C0 20 00 00 C0 40 00 00 C0 60 00 ...... ...@...`.
004101E0 00 C0 80 00 00 C0 A0 00 00 C0 C0 00 00 C0 E0 00 ................
004101F0 00 E0 00 00 00 E0 20 00 00 E0 40 00 00 E0 60 00 ...... ...@...`.
00410200 00 E0 80 00 00 E0 A0 00 00 E0 C0 00 00 E0 E0 00 ................
00410210 40 00 00 00 40 00 20 00 40 00 40 00 40 00 60 00 @...@. .@.@.@.`.
00410220 40 00 80 00 40 00 A0 00 40 00 C0 00 40 00 E0 00 @...@...@...@...
00410230 40 20 00 00 40 20 20 00 40 20 40 00 40 20 60 00 @ ..@  .@ @.@ `.
00410240 40 20 80 00 40 20 A0 00 40 20 C0 00 40 20 E0 00 @ ..@ ..@ ..@ ..
00410250 40 40 00 00 40 40 20 00 40 40 40 00 40 40 60 00 @@..@@ .@@@.@@`.
00410260 40 40 80 00 40 40 A0 00 40 40 C0 00 40 40 E0 00 @@..@@..@@..@@..
00410270 40 60 00 00 40 60 20 00 40 60 40 00 40 60 60 00 @`..@` .@`@.@``.
00410280 40 60 80 00 40 60 A0 00 40 60 C0 00 40 60 E0 00 @`..@`..@`..@`..
00410290 40 80 00 00 40 80 20 00 40 80 40 00 40 80 60 00 @...@. .@.@.@.`.
004102A0 40 80 80 00 40 80 A0 00 40 80 C0 00 40 80 E0 00 @...@...@...@...
004102B0 40 A0 00 00 40 A0 20 00 40 A0 40 00 40 A0 60 00 @...@. .@.@.@.`.
004102C0 40 A0 80 00 40 A0 A0 00 40 A0 C0 00 40 A0 E0 00 @...@...@...@...
004102D0 40 C0 00 00 40 C0 20 00 40 C0 40 00 40 C0 60 00 @...@. .@.@.@.`.
004102E0 40 C0 80 00 40 C0 A0 00 40 C0 C0 00 40 C0 E0 00 @...@...@...@...
004102F0 40 E0 00 00 40 E0 20 00 40 E0 40 00 40 E0 60 00 @...@. .@.@.@.`.
00410300 40 E0 80 00 40 E0 A0 00 40 E0 C0 00 40 E0 E0 00 @...@...@...@...
00410310 80 00 00 00 80 00 20 00 80 00 40 00 80 00 60 00 ...... ...@...`.
00410320 80 00 80 00 80 00 A0 00 80 00 C0 00 80 00 E0 00 ................
00410330 80 20 00 00 80 20 20 00 80 20 40 00 80 20 60 00 . ...  .. @.. `.
00410340 80 20 80 00 80 20 A0 00 80 20 C0 00 80 20 E0 00 . ... ... ... ..
00410350 80 40 00 00 80 40 20 00 80 40 40 00 80 40 60 00 .@...@ ..@@..@`.
00410360 80 40 80 00 80 40 A0 00 80 40 C0 00 80 40 E0 00 .@...@...@...@..
00410370 80 60 00 00 80 60 20 00 80 60 40 00 80 60 60 00 .`...` ..`@..``.
00410380 80 60 80 00 80 60 A0 00 80 60 C0 00 80 60 E0 00 .`...`...`...`..
00410390 80 80 00 00 80 80 20 00 80 80 40 00 80 80 60 00 ...... ...@...`.
004103A0 80 80 80 00 80 80 A0 00 80 80 C0 00 80 80 E0 00 ................
004103B0 80 A0 00 00 80 A0 20 00 80 A0 40 00 80 A0 60 00 ...... ...@...`.
004103C0 80 A0 80 00 80 A0 A0 00 80 A0 C0 00 80 A0 E0 00 ................
004103D0 80 C0 00 00 80 C0 20 00 80 C0 40 00 80 C0 60 00 ...... ...@...`.
004103E0 80 C0 80 00 80 C0 A0 00 80 C0 C0 00 80 C0 E0 00 ................
004103F0 80 E0 00 00 80 E0 20 00 80 E0 40 00 80 E0 60 00 ...... ...@...`.
00410400 80 E0 80 00 80 E0 A0 00 80 E0 C0 00 80 E0 E0 00 ................
00410410 C0 00 00 00 C0 00 20 00 C0 00 40 00 C0 00 60 00 ...... ...@...`.
00410420 C0 00 80 00 C0 00 A0 00 C0 00 C0 00 C0 00 E0 00 ................
00410430 C0 20 00 00 C0 20 20 00 C0 20 40 00 C0 20 60 00 . ...  .. @.. `.
00410440 C0 20 80 00 C0 20 A0 00 C0 20 C0 00 C0 20 E0 00 . ... ... ... ..
00410450 C0 40 00 00 C0 40 20 00 C0 40 40 00 C0 40 60 00 .@...@ ..@@..@`.
00410460 C0 40 80 00 C0 40 A0 00 C0 40 C0 00 C0 40 E0 00 .@...@...@...@..
00410470 C0 60 00 00 C0 60 20 00 C0 60 40 00 C0 60 60 00 .`...` ..`@..``.
00410480 C0 60 80 00 C0 60 A0 00 C0 60 C0 00 C0 60 E0 00 .`...`...`...`..
00410490 C0 80 00 00 C0 80 20 00 C0 80 40 00 C0 80 60 00 ...... ...@...`.
004104A0 C0 80 80 00 C0 80 A0 00 C0 80 C0 00 C0 80 E0 00 ................
004104B0 C0 A0 00 00 C0 A0 20 00 C0 A0 40 00 C0 A0 60 00 ...... ...@...`.
004104C0 C0 A0 80 00 C0 A0 A0 00 C0 A0 C0 00 C0 A0 E0 00 ................
004104D0 C0 C0 00 00 C0 C0 20 00 C0 C0 40 00 C0 C0 60 00 ...... ...@...`.
004104E0 C0 C0 80 00 C0 C0 A0 00 F0 FB FF 00 A4 A0 A0 00 ................
004104F0 80 80 80 00 00 00 FF 00 00 FF 00 00 00 FF FF 00 ................
00410500 FF 00 00 00 FF 00 FF 00 FF FF 00 00 FF FF FF 00 ................
00410510 00 00 00 00 00 00 00 00 00 00 00 00 00 00 00 00 ................
00410520 00 00 00 00 00 00 00 00 00 00 00 00 00 00 00 00 ................
00410530 00 00 00 00 00 00 ED A3 9A 9A 92 92 92 92 92 92 ................
00410540 92 92 92 92 92 92 92 92 92 92 92 92 92 92 92 00 ................
00410550 00 00 00 00 00 00 ED F6 07 09 09 09 09 09 09 09 ................
00410560 09 09 EC 09 09 EC EC EC EC EB EB EB EB EB 92 00 ................
00410570 00 00 00 00 00 00 ED F6 F6 F6 F6 F6 F6 F6 F6 F6 ................
00410580 F6 F6 F6 F6 F6 F6 F6 F6 09 09 09 09 09 EB 92 00 ................
00410590 00 00 00 00 00 00 ED F6 F6 F6 F6 F6 F6 F6 F6 F6 ................
004105A0 F6 F6 F6 F6 F6 F6 F6 F6 F6 F6 09 09 09 EB 92 00 ................
004105B0 00 00 00 00 00 00 ED F6 F6 F5 F5 ED ED EC EC EC ................
004105C0 E3 E3 E3 E3 E3 E3 E3 E3 E3 E3 F6 F6 09 EB 92 00 ................
004105D0 00 00 00 00 00 00 ED FF FF F5 FF FF FF F6 EC F6 ................
004105E0 F6 EC FF E3 F6 F6 EC FF E3 F6 F6 F6 F6 EB 92 00 ................
004105F0 00 00 00 00 00 00 ED FF FF F5 FF FF FF FF ED FF ................
00410600 FF EC FF E3 F6 F6 EC FF E3 F6 F6 F6 F6 EC 92 00 ................
00410610 00 00 00 00 00 00 ED FF FF F5 F5 F5 F5 F5 F5 ED ................
00410620 FF EC FF E3 F6 F6 EC FF E3 F6 F6 F6 F6 EC 92 00 ................
00410630 00 00 00 00 00 00 ED FF FF 09 FF FF FF FF F5 FF ................
00410640 FF ED FF E3 EC EC EC FF E3 F6 F6 F6 F6 EC 92 00 ................
00410650 00 00 00 00 00 00 ED FF FF 09 FF FF FF FF F5 FF ................
00410660 FF F5 FF E3 FF FF EC FF E3 F6 F6 F6 F6 EC 92 00 ................
00410670 00 00 00 00 00 00 ED FF FF 09 09 09 09 09 F5 F5 ................
00410680 FF F5 F5 E3 FF FF EC FF E3 F6 F6 F6 F6 EC 92 00 ................
00410690 00 00 00 00 00 00 ED FF FF 09 FF FF FF FF 09 FF ................
004106A0 FF FF FF FF FF FF ED ED E3 F6 F6 F6 F6 09 92 00 ................
004106B0 00 00 00 00 00 00 ED 08 08 ED 07 07 07 ED ED 08 ................
004106C0 FF FF FF F5 FF FF FF FF FF FF F6 F6 F6 09 92 00 ................
004106D0 00 00 00 00 00 00 F7 F7 F5 07 07 08 08 F6 08 ED ................
004106E0 EC 09 F5 F5 F5 F5 F5 F5 ED FF FF F6 F6 EC 92 00 ................
004106F0 00 19 18 AC 08 08 FF FF FF F6 F6 F6 F6 F6 08 07 ................
00410700 F6 FF FF 09 FF FF FF FF F5 FF FF FF F6 09 92 00 ................
00410710 00 19 B5 08 FF FF FF FF F6 F6 B5 1A 1A F6 F6 07 ................
00410720 F6 FF FF 09 FF FF FF FF F5 FF FF FF FF 09 92 00 ................
00410730 00 19 07 AC FF 08 B4 B4 B4 AB 22 1A 6B F6 F6 ED ..........".k...
00410740 F5 09 09 09 09 09 09 F5 F5 FF FF FF FF 09 92 00 ................
00410750 00 19 08 62 FF FF 08 B4 B4 62 1A 6C AB B5 F6 07 ...b.....b.l....
00410760 08 FF FF 09 FF FF FF FF F5 FF FF FF FF 09 92 00 ................
00410770 00 19 08 19 F6 FF FF 08 6B 1A 22 08 FF F6 F6 07 ........k.".....
00410780 08 FF FF 09 FF FF FF FF 09 FF FF FF FF 09 92 00 ................
00410790 00 21 08 19 07 FF FF 08 22 22 6B B4 F5 F6 F6 07 .!......""k.....
004107A0 F5 09 09 09 09 09 09 09 09 FF FF FF FF 09 92 00 ................
004107B0 00 21 08 19 AC FF F6 22 1A B5 F6 B4 B4 B4 F6 08 .!....."........
004107C0 08 FF FF 09 FF FF FF FF 09 FF FF FF FF 09 92 00 ................
004107D0 00 21 08 AC B4 FF 63 62 6C FF FF FF FF FF FF 08 .!....cbl.......
004107E0 08 FF FF 09 FF FF FF FF 07 09 09 09 09 09 92 00 ................
004107F0 00 61 08 B4 B4 FF FF FF FF FF FF FF FF FF FF F6 .a..............
00410800 07 09 09 09 09 09 09 ED A3 A3 9B 9A 9A 9A 92 00 ................
00410810 00 61 08 B5 B4 08 08 08 08 08 08 F5 B5 08 6B FF .a............k.
00410820 FF FF FF FF FF FF FF ED 09 09 09 09 09 92 F6 00 ................
00410830 00 61 B5 F6 B5 B5 B5 B5 B5 B5 B5 B5 B5 F6 61 FF .a............a.
00410840 FF FF FF FF FF FF FF ED F6 F6 09 09 92 F6 F6 00 ................
00410850 00 61 61 08 F6 08 BD BD BD BD BD BD B5 F6 61 F6 .aa...........a.
00410860 09 09 09 FF FF FF FF F5 F6 F6 09 92 F6 F6 00 00 ................
00410870 00 00 61 61 B5 08 F6 F6 F6 F6 F6 F6 F6 F6 61 FF ..aa..........a.
00410880 FF FF FF FF FF FF FF F5 F6 F6 9A F6 F6 00 00 00 ................
00410890 00 00 00 61 61 61 61 61 61 61 61 61 61 61 61 FF ...aaaaaaaaaaaa.
004108A0 FF FF FF FF FF FF FF F5 F6 9B F6 F6 00 00 00 00 ................
004108B0 00 00 00 00 00 00 07 FF FF FF FF FF FF FF FF FF ................
004108C0 FF FF FF FF FF FF FF F5 A4 F6 F6 00 00 00 00 00 ................
004108D0 00 00 00 00 00 00 07 07 07 07 07 F5 F5 F5 F5 F5 ................
004108E0 F5 F5 F5 F5 F5 F5 F5 F5 F6 F6 00 00 00 00 00 00 ................
004108F0 00 00 00 00 00 00 00 00 00 00 00 00 00 00 00 00 ................
00410900 00 00 00 00 00 00 00 00 00 00 00 00 00 00 00 00 ................
00410910 FF FF FF FF FC 00 00 01 FC 00 00 01 FC 00 00 01 ................
00410920 FC 00 00 01 FC 00 00 01 FC 00 00 01 FC 00 00 01 ................
00410930 FC 00 00 01 FC 00 00 01 FC 00 00 01 FC 00 00 01 ................
00410940 FC 00 00 01 C0 00 00 01 C0 00 00 01 80 00 00 01 ................
00410950 80 00 00 01 80 00 00 01 80 00 00 01 80 00 00 01 ................
00410960 80 00 00 01 80 00 00 01 80 00 00 01 80 00 00 01 ................
00410970 80 00 00 01 80 00 00 01 80 00 00 03 C0 00 00 07 ................
00410980 E0 00 00 0F FC 00 00 1F FC 00 00 3F FF FF FF FF ...........?....
00410990 00 00 01 00 01 00 20 20 08 00 00 00 00 00 A8 08 ......  ........
004109A0 00 00 01 00 FC 02 34 00 00 00 56 00 53 00 5F 00 ......4...V.S._.
004109B0 56 00 45 00 52 00 53 00 49 00 4F 00 4E 00 5F 00 V.E.R.S.I.O.N._.
004109C0 49 00 4E 00 46 00 4F 00 00 00 00 00 BD 04 EF FE I.N.F.O.........
004109D0 00 00 01 00 DC 5B 95 AD DC 5B 95 AD DC 5B 95 AD .....[...[...[..
004109E0 DC 5B 95 AD DC 5B 00 00 00 00 00 00 04 00 04 00 .[...[..........
004109F0 01 00 00 00 00 00 00 00 00 00 00 00 00 00 00 00 ................
00410A00 5C 02 00 00 00 00 53 00 74 00 72 00 69 00 6E 00 \.....S.t.r.i.n.
00410A10 67 00 46 00 69 00 6C 00 65 00 49 00 6E 00 66 00 g.F.i.l.e.I.n.f.
00410A20 6F 00 00 00 38 02 00 00 00 00 30 00 38 00 30 00 o...8.....0.8.0.
00410A30 30 00 30 00 34 00 42 00 30 00 00 00 40 00 0F 00 0.0.4.B.0...@...
00410A40 01 00 43 00 6F 00 6D 00 70 00 61 00 6E 00 79 00 ..C.o.m.p.a.n.y.
00410A50 4E 00 61 00 6D 00 65 00 00 00 00 00 4E 00 6D 00 N.a.m.e.....N.m.
00410A60 48 00 70 00 6D 00 6A 00 37 00 52 00 6F 00 31 00 H.p.m.j.7.R.o.1.
00410A70 78 00 6A 00 72 00 72 00 00 00 00 00 4C 00 12 00 x.j.r.r.....L...
00410A80 01 00 46 00 69 00 6C 00 65 00 44 00 65 00 73 00 ..F.i.l.e.D.e.s.
00410A90 63 00 72 00 69 00 70 00 74 00 69 00 6F 00 6E 00 c.r.i.p.t.i.o.n.
00410AA0 00 00 00 00 50 00 56 00 4A 00 49 00 32 00 61 00 ....P.V.J.I.2.a.
00410AB0 57 00 37 00 77 00 6F 00 6E 00 50 00 65 00 68 00 W.7.w.o.n.P.e.h.
00410AC0 43 00 4C 00 45 00 00 00 40 00 0F 00 01 00 46 00 C.L.E...@.....F.
00410AD0 69 00 6C 00 65 00 56 00 65 00 72 00 73 00 69 00 i.l.e.V.e.r.s.i.
00410AE0 6F 00 6E 00 00 00 00 00 51 00 69 00 45 00 4E 00 o.n.....Q.i.E.N.
00410AF0 53 00 75 00 65 00 41 00 42 00 37 00 36 00 55 00 S.u.e.A.B.7.6.U.
00410B00 49 00 41 00 00 00 00 00 3C 00 0E 00 01 00 49 00 I.A.....<.....I.
00410B10 6E 00 74 00 65 00 72 00 6E 00 61 00 6C 00 4E 00 n.t.e.r.n.a.l.N.
00410B20 61 00 6D 00 65 00 00 00 34 00 79 00 4B 00 71 00 a.m.e...4.y.K.q.
00410B30 51 00 52 00 56 00 38 00 76 00 62 00 70 00 73 00 Q.R.V.8.v.b.p.s.
00410B40 32 00 00 00 40 00 0E 00 01 00 4C 00 65 00 67 00 2...@.....L.e.g.
00410B50 61 00 6C 00 43 00 6F 00 70 00 79 00 72 00 69 00 a.l.C.o.p.y.r.i.
00410B60 67 00 68 00 74 00 00 00 73 00 70 00 6F 00 6C 00 g.h.t...s.p.o.l.
00410B70 58 00 62 00 6E 00 57 00 66 00 63 00 32 00 65 00 X.b.n.W.f.c.2.e.
00410B80 4D 00 00 00 44 00 0D 00 01 00 4F 00 72 00 69 00 M...D.....O.r.i.
00410B90 67 00 69 00 6E 00 61 00 6C 00 46 00 69 00 6C 00 g.i.n.a.l.F.i.l.
00410BA0 65 00 6E 00 61 00 6D 00 65 00 00 00 4C 00 66 00 e.n.a.m.e...L.f.
00410BB0 36 00 4D 00 57 00 69 00 6E 00 67 00 4B 00 44 00 6.M.W.i.n.g.K.D.
00410BC0 59 00 58 00 00 00 00 00 48 00 13 00 01 00 50 00 Y.X.....H.....P.
00410BD0 72 00 6F 00 64 00 75 00 63 00 74 00 4E 00 61 00 r.o.d.u.c.t.N.a.
00410BE0 6D 00 65 00 00 00 00 00 74 00 41 00 62 00 59 00 m.e.....t.A.b.Y.
00410BF0 51 00 31 00 70 00 74 00 49 00 49 00 57 00 37 00 Q.1.p.t.I.I.W.7.
00410C00 78 00 71 00 38 00 63 00 35 00 46 00 00 00 00 00 x.q.8.c.5.F.....
00410C10 4C 00 13 00 01 00 50 00 72 00 6F 00 64 00 75 00 L.....P.r.o.d.u.
00410C20 63 00 74 00 56 00 65 00 72 00 73 00 69 00 6F 00 c.t.V.e.r.s.i.o.
00410C30 6E 00 00 00 54 00 76 00 42 00 6C 00 42 00 76 00 n...T.v.B.l.B.v.
00410C40 77 00 6B 00 75 00 73 00 6C 00 4D 00 37 00 78 00 w.k.u.s.l.M.7.x.
00410C50 46 00 32 00 48 00 67 00 00 00 00 00 44 00 00 00 F.2.H.g.....D...
00410C60 00 00 56 00 61 00 72 00 46 00 69 00 6C 00 65 00 ..V.a.r.F.i.l.e.
00410C70 49 00 6E 00 66 00 6F 00 00 00 00 00 24 00 04 00 I.n.f.o.....$...
00410C80 00 00 54 00 72 00 61 00 6E 00 73 00 6C 00 61 00 ..T.r.a.n.s.l.a.
00410C90 74 00 69 00 6F 00 6E 00 00 00 00 00 00 08 B0 04 t.i.o.n.........
00410CA0 00 00 00 00 00 00 00 00 00 00 00 00 00 00 00 00 ................
00410CB0 00 00 00 00 00 00 00 00 00 00 00 00 00 00 00 00 ................
00410CC0 00 00 00 00 00 00 00 00 00 00 00 00 00 00 00 00 ................
00410CD0 00 00 00 00 00 00 00 00 00 00 00 00 00 00 00 00 ................
00410CE0 00 00 00 00 00 00 00 00 00 00 00 00 00 00 00 00 ................
00410CF0 00 00 00 00 00 00 00 00 00 00 00 00 00 00 00 00 ................
00410D00 00 00 00 00 00 00 00 00 00 00 00 00 00 00 00 00 ................
00410D10 00 00 00 00 00 00 00 00 00 00 00 00 00 00 00 00 ................
00410D20 00 00 00 00 00 00 00 00 00 00 00 00 00 00 00 00 ................
00410D30 00 00 00 00 00 00 00 00 00 00 00 00 00 00 00 00 ................
00410D40 00 00 00 00 00 00 00 00 00 00 00 00 00 00 00 00 ................
00410D50 00 00 00 00 00 00 00 00 00 00 00 00 00 00 00 00 ................
00410D60 00 00 00 00 00 00 00 00 00 00 00 00 00 00 00 00 ................
00410D70 00 00 00 00 00 00 00 00 00 00 00 00 00 00 00 00 ................
00410D80 00 00 00 00 00 00 00 00 00 00 00 00 00 00 00 00 ................
00410D90 00 00 00 00 00 00 00 00 00 00 00 00 00 00 00 00 ................
00410DA0 00 00 00 00 00 00 00 00 00 00 00 00 00 00 00 00 ................
00410DB0 00 00 00 00 00 00 00 00 00 00 00 00 00 00 00 00 ................
00410DC0 00 00 00 00 00 00 00 00 00 00 00 00 00 00 00 00 ................
00410DD0 00 00 00 00 00 00 00 00 00 00 00 00 00 00 00 00 ................
00410DE0 00 00 00 00 00 00 00 00 00 00 00 00 00 00 00 00 ................
00410DF0 00 00 00 00 00 00 00 00 00 00 00 00 00 00 00 00 ................
00410E00 00 00 00 00 00 00 00 00 00 00 00 00 00 00 00 00 ................
00410E10 00 00 00 00 00 00 00 00 00 00 00 00 00 00 00 00 ................
00410E20 00 00 00 00 00 00 00 00 00 00 00 00 00 00 00 00 ................
00410E30 00 00 00 00 00 00 00 00 00 00 00 00 00 00 00 00 ................
00410E40 00 00 00 00 00 00 00 00 00 00 00 00 00 00 00 00 ................
00410E50 00 00 00 00 00 00 00 00 00 00 00 00 00 00 00 00 ................
00410E60 00 00 00 00 00 00 00 00 00 00 00 00 00 00 00 00 ................
00410E70 00 00 00 00 00 00 00 00 00 00 00 00 00 00 00 00 ................
00410E80 00 00 00 00 00 00 00 00 00 00 00 00 00 00 00 00 ................
00410E90 00 00 00 00 00 00 00 00 00 00 00 00 00 00 00 00 ................
00410EA0 00 00 00 00 00 00 00 00 00 00 00 00 00 00 00 00 ................
00410EB0 00 00 00 00 00 00 00 00 00 00 00 00 00 00 00 00 ................
00410EC0 00 00 00 00 00 00 00 00 00 00 00 00 00 00 00 00 ................
00410ED0 00 00 00 00 00 00 00 00 00 00 00 00 00 00 00 00 ................
00410EE0 00 00 00 00 00 00 00 00 00 00 00 00 00 00 00 00 ................
00410EF0 00 00 00 00 00 00 00 00 00 00 00 00 00 00 00 00 ................
00410F00 00 00 00 00 00 00 00 00 00 00 00 00 00 00 00 00 ................
00410F10 00 00 00 00 00 00 00 00 00 00 00 00 00 00 00 00 ................
00410F20 00 00 00 00 00 00 00 00 00 00 00 00 00 00 00 00 ................
00410F30 00 00 00 00 00 00 00 00 00 00 00 00 00 00 00 00 ................
00410F40 00 00 00 00 00 00 00 00 00 00 00 00 00 00 00 00 ................
00410F50 00 00 00 00 00 00 00 00 00 00 00 00 00 00 00 00 ................
00410F60 00 00 00 00 00 00 00 00 00 00 00 00 00 00 00 00 ................
00410F70 00 00 00 00 00 00 00 00 00 00 00 00 00 00 00 00 ................
00410F80 00 00 00 00 00 00 00 00 00 00 00 00 00 00 00 00 ................
00410F90 00 00 00 00 00 00 00 00 00 00 00 00 00 00 00 00 ................
00410FA0 00 00 00 00 00 00 00 00 00 00 00 00 00 00 00 00 ................
00410FB0 00 00 00 00 00 00 00 00 00 00 00 00 00 00 00 00 ................
00410FC0 00 00 00 00 00 00 00 00 00 00 00 00 00 00 00 00 ................
00410FD0 00 00 00 00 00 00 00 00 00 00 00 00 00 00 00 00 ................
00410FE0 00 00 00 00 00 00 00 00 00 00 00 00 00 00 00 00 ................
00410FF0 00 00 00 00 00 00 00 00 00 00 00 00 00 00 00 00 ................
