00400000 00 00 00 00 00 00 00 00 00 00 00 00 00 00 00 00 ................
00400010 00 00 00 00 00 00 00 00 00 00 00 00 00 00 00 00 ................
00400020 00 00 00 00 00 00 00 00 00 00 00 00 00 00 00 00 ................
00400030 00 00 00 00 00 00 00 00 00 00 00 00 00 00 00 00 ................
00400040 00 00 00 00 00 00 00 00 00 00 00 00 00 00 00 00 ................
00400050 00 00 00 00 00 00 00 00 00 00 00 00 00 00 00 00 ................
00400060 00 00 00 00 00 00 00 00 00 00 00 00 00 00 00 00 ................
00400070 00 00 00 00 00 00 00 00 00 00 00 00 00 00 00 00 ................
00400080 00 00 00 00 00 00 00 00 00 00 00 00 00 00 00 00 ................
00400090 00 00 00 00 00 00 00 00 00 00 00 00 00 00 00 00 ................
004000A0 00 00 00 00 00 00 00 00 00 00 00 00 00 00 00 00 ................
004000B0 00 00 00 00 00 00 00 00 00 00 00 00 00 00 00 00 ................
004000C0 00 00 00 00 00 00 00 00 00 00 00 00 00 00 00 00 ................
004000D0 00 00 00 00 00 00 00 00 00 00 00 00 00 00 00 00 ................
004000E0 00 00 00 00 00 00 00 00 00 00 00 00 00 00 00 00 ................
004000F0 00 00 00 00 00 00 00 00 00 00 00 00 00 00 00 00 ................
00400100 00 00 00 00 00 00 00 00 00 00 00 00 00 00 00 00 ................
00400110 00 00 00 00 00 00 00 00 00 00 00 00 00 00 00 00 ................
00400120 00 00 00 00 00 00 00 00 00 00 00 00 00 00 00 00 ................
00400130 00 00 00 00 00 00 00 00 00 00 00 00 00 00 00 00 ................
00400140 00 00 00 00 00 00 00 00 00 00 00 00 00 00 00 00 ................
00400150 00 00 00 00 00 00 00 00 00 00 00 00 00 00 00 00 ................
00400160 00 00 00 00 00 00 00 00 00 00 00 00 00 00 00 00 ................
00400170 00 00 00 00 00 00 00 00 00 00 00 00 00 00 00 00 ................
00400180 00 00 00 00 00 00 00 00 00 00 00 00 00 00 00 00 ................
00400190 00 00 00 00 00 00 00 00 00 00 00 00 00 00 00 00 ................
004001A0 00 00 00 00 00 00 00 00 00 00 00 00 00 00 00 00 ................
004001B0 00 00 00 00 00 00 00 00 00 00 00 00 00 00 00 00 ................
004001C0 00 00 00 00 00 00 00 00 00 00 00 00 00 00 00 00 ................
004001D0 00 00 00 00 00 00 00 00 00 00 00 00 00 00 00 00 ................
004001E0 00 00 00 00 00 00 00 00 00 00 00 00 00 00 00 00 ................
004001F0 00 00 00 00 00 00 00 00 00 00 00 00 00 00 00 00 ................
00400200 00 00 00 00 00 00 00 00 00 00 00 00 00 00 00 00 ................
00400210 00 00 00 00 00 00 00 00 00 00 00 00 00 00 00 00 ................
00400220 00 00 00 00 00 00 00 00 00 00 00 00 00 00 00 00 ................
00400230 00 00 00 00 00 00 00 00 00 00 00 00 00 00 00 00 ................
00400240 00 00 00 00 00 00 00 00 00 00 00 00 00 00 00 00 ................
00400250 00 00 00 00 00 00 00 00 00 00 00 00 00 00 00 00 ................
00400260 00 00 00 00 00 00 00 00 00 00 00 00 00 00 00 00 ................
00400270 00 00 00 00 00 00 00 00 00 00 00 00 00 00 00 00 ................
00400280 00 00 00 00 00 00 00 00 00 00 00 00 00 00 00 00 ................
00400290 00 00 00 00 00 00 00 00 00 00 00 00 00 00 00 00 ................
004002A0 00 00 00 00 00 00 00 00 00 00 00 00 00 00 00 00 ................
004002B0 00 00 00 00 00 00 00 00 00 00 00 00 00 00 00 00 ................
004002C0 00 00 00 00 00 00 00 00 00 00 00 00 00 00 00 00 ................
004002D0 00 00 00 00 00 00 00 00 00 00 00 00 00 00 00 00 ................
004002E0 00 00 00 00 00 00 00 00 00 00 00 00 00 00 00 00 ................
004002F0 00 00 00 00 00 00 00 00 00 00 00 00 00 00 00 00 ................
00400300 00 00 00 00 00 00 00 00 00 00 00 00 00 00 00 00 ................
00400310 00 00 00 00 00 00 00 00 00 00 00 00 00 00 00 00 ................
00400320 00 00 00 00 00 00 00 00 00 00 00 00 00 00 00 00 ................
00400330 00 00 00 00 00 00 00 00 00 00 00 00 00 00 00 00 ................
00400340 00 00 00 00 00 00 00 00 00 00 00 00 00 00 00 00 ................
00400350 00 00 00 00 00 00 00 00 00 00 00 00 00 00 00 00 ................
00400360 00 00 00 00 00 00 00 00 00 00 00 00 00 00 00 00 ................
00400370 00 00 00 00 00 00 00 00 00 00 00 00 00 00 00 00 ................
00400380 00 00 00 00 00 00 00 00 00 00 00 00 00 00 00 00 ................
00400390 00 00 00 00 00 00 00 00 00 00 00 00 00 00 00 00 ................
004003A0 00 00 00 00 00 00 00 00 00 00 00 00 00 00 00 00 ................
004003B0 00 00 00 00 00 00 00 00 00 00 00 00 00 00 00 00 ................
004003C0 00 00 00 00 00 00 00 00 00 00 00 00 00 00 00 00 ................
004003D0 00 00 00 00 00 00 00 00 00 00 00 00 00 00 00 00 ................
004003E0 00 00 00 00 00 00 00 00 00 00 00 00 00 00 00 00 ................
004003F0 00 00 00 00 00 00 00 00 00 00 00 00 00 00 00 00 ................
00400400 00 00 00 00 00 00 00 00 00 00 00 00 00 00 00 00 ................
00400410 00 00 00 00 00 00 00 00 00 00 00 00 00 00 00 00 ................
00400420 00 00 00 00 00 00 00 00 00 00 00 00 00 00 00 00 ................
00400430 00 00 00 00 00 00 00 00 00 00 00 00 00 00 00 00 ................
00400440 00 00 00 00 00 00 00 00 00 00 00 00 00 00 00 00 ................
00400450 00 00 00 00 00 00 00 00 00 00 00 00 00 00 00 00 ................
00400460 00 00 00 00 00 00 00 00 00 00 00 00 00 00 00 00 ................
00400470 00 00 00 00 00 00 00 00 00 00 00 00 00 00 00 00 ................
00400480 00 00 00 00 00 00 00 00 00 00 00 00 00 00 00 00 ................
00400490 00 00 00 00 00 00 00 00 00 00 00 00 00 00 00 00 ................
004004A0 00 00 00 00 00 00 00 00 00 00 00 00 00 00 00 00 ................
004004B0 00 00 00 00 00 00 00 00 00 00 00 00 00 00 00 00 ................
004004C0 00 00 00 00 00 00 00 00 00 00 00 00 00 00 00 00 ................
004004D0 00 00 00 00 00 00 00 00 00 00 00 00 00 00 00 00 ................
004004E0 00 00 00 00 00 00 00 00 00 00 00 00 00 00 00 00 ................
004004F0 00 00 00 00 00 00 00 00 00 00 00 00 00 00 00 00 ................
00400500 00 00 00 00 00 00 00 00 00 00 00 00 00 00 00 00 ................
00400510 00 00 00 00 00 00 00 00 00 00 00 00 00 00 00 00 ................
00400520 00 00 00 00 00 00 00 00 00 00 00 00 00 00 00 00 ................
00400530 00 00 00 00 00 00 00 00 00 00 00 00 00 00 00 00 ................
00400540 00 00 00 00 00 00 00 00 00 00 00 00 00 00 00 00 ................
00400550 00 00 00 00 00 00 00 00 00 00 00 00 00 00 00 00 ................
00400560 00 00 00 00 00 00 00 00 00 00 00 00 00 00 00 00 ................
00400570 00 00 00 00 00 00 00 00 00 00 00 00 00 00 00 00 ................
00400580 00 00 00 00 00 00 00 00 00 00 00 00 00 00 00 00 ................
00400590 00 00 00 00 00 00 00 00 00 00 00 00 00 00 00 00 ................
004005A0 00 00 00 00 00 00 00 00 00 00 00 00 00 00 00 00 ................
004005B0 00 00 00 00 00 00 00 00 00 00 00 00 00 00 00 00 ................
004005C0 00 00 00 00 00 00 00 00 00 00 00 00 00 00 00 00 ................
004005D0 00 00 00 00 00 00 00 00 00 00 00 00 00 00 00 00 ................
004005E0 00 00 00 00 00 00 00 00 00 00 00 00 00 00 00 00 ................
004005F0 00 00 00 00 00 00 00 00 00 00 00 00 00 00 00 00 ................
00400600 00 00 00 00 00 00 00 00 00 00 00 00 00 00 00 00 ................
00400610 00 00 00 00 00 00 00 00 00 00 00 00 00 00 00 00 ................
00400620 00 00 00 00 00 00 00 00 00 00 00 00 00 00 00 00 ................
00400630 00 00 00 00 00 00 00 00 00 00 00 00 00 00 00 00 ................
00400640 00 00 00 00 00 00 00 00 00 00 00 00 00 00 00 00 ................
00400650 00 00 00 00 00 00 00 00 00 00 00 00 00 00 00 00 ................
00400660 00 00 00 00 00 00 00 00 00 00 00 00 00 00 00 00 ................
00400670 00 00 00 00 00 00 00 00 00 00 00 00 00 00 00 00 ................
00400680 00 00 00 00 00 00 00 00 00 00 00 00 00 00 00 00 ................
00400690 00 00 00 00 00 00 00 00 00 00 00 00 00 00 00 00 ................
004006A0 00 00 00 00 00 00 00 00 00 00 00 00 00 00 00 00 ................
004006B0 00 00 00 00 00 00 00 00 00 00 00 00 00 00 00 00 ................
004006C0 00 00 00 00 00 00 00 00 00 00 00 00 00 00 00 00 ................
004006D0 00 00 00 00 00 00 00 00 00 00 00 00 00 00 00 00 ................
004006E0 00 00 00 00 00 00 00 00 00 00 00 00 00 00 00 00 ................
004006F0 00 00 00 00 00 00 00 00 00 00 00 00 00 00 00 00 ................
00400700 00 00 00 00 00 00 00 00 00 00 00 00 00 00 00 00 ................
00400710 00 00 00 00 00 00 00 00 00 00 00 00 00 00 00 00 ................
00400720 00 00 00 00 00 00 00 00 00 00 00 00 00 00 00 00 ................
00400730 00 00 00 00 00 00 00 00 00 00 00 00 00 00 00 00 ................
00400740 00 00 00 00 00 00 00 00 00 00 00 00 00 00 00 00 ................
00400750 00 00 00 00 00 00 00 00 00 00 00 00 00 00 00 00 ................
00400760 00 00 00 00 00 00 00 00 00 00 00 00 00 00 00 00 ................
00400770 00 00 00 00 00 00 00 00 00 00 00 00 00 00 00 00 ................
00400780 00 00 00 00 00 00 00 00 00 00 00 00 00 00 00 00 ................
00400790 00 00 00 00 00 00 00 00 00 00 00 00 00 00 00 00 ................
004007A0 00 00 00 00 00 00 00 00 00 00 00 00 00 00 00 00 ................
004007B0 00 00 00 00 00 00 00 00 00 00 00 00 00 00 00 00 ................
004007C0 00 00 00 00 00 00 00 00 00 00 00 00 00 00 00 00 ................
004007D0 00 00 00 00 00 00 00 00 00 00 00 00 00 00 00 00 ................
004007E0 00 00 00 00 00 00 00 00 00 00 00 00 00 00 00 00 ................
004007F0 00 00 00 00 00 00 00 00 00 00 00 00 00 00 00 00 ................
00400800 00 00 00 00 00 00 00 00 00 00 00 00 00 00 00 00 ................
00400810 00 00 00 00 00 00 00 00 00 00 00 00 00 00 00 00 ................
00400820 00 00 00 00 00 00 00 00 00 00 00 00 00 00 00 00 ................
00400830 00 00 00 00 00 00 00 00 00 00 00 00 00 00 00 00 ................
00400840 00 00 00 00 00 00 00 00 00 00 00 00 00 00 00 00 ................
00400850 00 00 00 00 00 00 00 00 00 00 00 00 00 00 00 00 ................
00400860 00 00 00 00 00 00 00 00 00 00 00 00 00 00 00 00 ................
00400870 00 00 00 00 00 00 00 00 00 00 00 00 00 00 00 00 ................
00400880 00 00 00 00 00 00 00 00 00 00 00 00 00 00 00 00 ................
00400890 00 00 00 00 00 00 00 00 00 00 00 00 00 00 00 00 ................
004008A0 00 00 00 00 00 00 00 00 00 00 00 00 00 00 00 00 ................
004008B0 00 00 00 00 00 00 00 00 00 00 00 00 00 00 00 00 ................
004008C0 00 00 00 00 00 00 00 00 00 00 00 00 00 00 00 00 ................
004008D0 00 00 00 00 00 00 00 00 00 00 00 00 00 00 00 00 ................
004008E0 00 00 00 00 00 00 00 00 00 00 00 00 00 00 00 00 ................
004008F0 00 00 00 00 00 00 00 00 00 00 00 00 00 00 00 00 ................
00400900 00 00 00 00 00 00 00 00 00 00 00 00 00 00 00 00 ................
00400910 00 00 00 00 00 00 00 00 00 00 00 00 00 00 00 00 ................
00400920 00 00 00 00 00 00 00 00 00 00 00 00 00 00 00 00 ................
00400930 00 00 00 00 00 00 00 00 00 00 00 00 00 00 00 00 ................
00400940 00 00 00 00 00 00 00 00 00 00 00 00 00 00 00 00 ................
00400950 00 00 00 00 00 00 00 00 00 00 00 00 00 00 00 00 ................
00400960 00 00 00 00 00 00 00 00 00 00 00 00 00 00 00 00 ................
00400970 00 00 00 00 00 00 00 00 00 00 00 00 00 00 00 00 ................
00400980 00 00 00 00 00 00 00 00 00 00 00 00 00 00 00 00 ................
00400990 00 00 00 00 00 00 00 00 00 00 00 00 00 00 00 00 ................
004009A0 00 00 00 00 00 00 00 00 00 00 00 00 00 00 00 00 ................
004009B0 00 00 00 00 00 00 00 00 00 00 00 00 00 00 00 00 ................
004009C0 00 00 00 00 00 00 00 00 00 00 00 00 00 00 00 00 ................
004009D0 00 00 00 00 00 00 00 00 00 00 00 00 00 00 00 00 ................
004009E0 00 00 00 00 00 00 00 00 00 00 00 00 00 00 00 00 ................
004009F0 00 00 00 00 00 00 00 00 00 00 00 00 00 00 00 00 ................
00400A00 00 00 00 00 00 00 00 00 00 00 00 00 00 00 00 00 ................
00400A10 00 00 00 00 00 00 00 00 00 00 00 00 00 00 00 00 ................
00400A20 00 00 00 00 00 00 00 00 00 00 00 00 00 00 00 00 ................
00400A30 00 00 00 00 00 00 00 00 00 00 00 00 00 00 00 00 ................
00400A40 00 00 00 00 00 00 00 00 00 00 00 00 00 00 00 00 ................
00400A50 00 00 00 00 00 00 00 00 00 00 00 00 00 00 00 00 ................
00400A60 00 00 00 00 00 00 00 00 00 00 00 00 00 00 00 00 ................
00400A70 00 00 00 00 00 00 00 00 00 00 00 00 00 00 00 00 ................
00400A80 00 00 00 00 00 00 00 00 00 00 00 00 00 00 00 00 ................
00400A90 00 00 00 00 00 00 00 00 00 00 00 00 00 00 00 00 ................
00400AA0 00 00 00 00 00 00 00 00 00 00 00 00 00 00 00 00 ................
00400AB0 00 00 00 00 00 00 00 00 00 00 00 00 00 00 00 00 ................
00400AC0 00 00 00 00 00 00 00 00 00 00 00 00 00 00 00 00 ................
00400AD0 00 00 00 00 00 00 00 00 00 00 00 00 00 00 00 00 ................
00400AE0 00 00 00 00 00 00 00 00 00 00 00 00 00 00 00 00 ................
00400AF0 00 00 00 00 00 00 00 00 00 00 00 00 00 00 00 00 ................
00400B00 00 00 00 00 00 00 00 00 00 00 00 00 00 00 00 00 ................
00400B10 00 00 00 00 00 00 00 00 00 00 00 00 00 00 00 00 ................
00400B20 00 00 00 00 00 00 00 00 00 00 00 00 00 00 00 00 ................
00400B30 00 00 00 00 00 00 00 00 00 00 00 00 00 00 00 00 ................
00400B40 00 00 00 00 00 00 00 00 00 00 00 00 00 00 00 00 ................
00400B50 00 00 00 00 00 00 00 00 00 00 00 00 00 00 00 00 ................
00400B60 00 00 00 00 00 00 00 00 00 00 00 00 00 00 00 00 ................
00400B70 00 00 00 00 00 00 00 00 00 00 00 00 00 00 00 00 ................
00400B80 00 00 00 00 00 00 00 00 00 00 00 00 00 00 00 00 ................
00400B90 00 00 00 00 00 00 00 00 00 00 00 00 00 00 00 00 ................
00400BA0 00 00 00 00 00 00 00 00 00 00 00 00 00 00 00 00 ................
00400BB0 00 00 00 00 00 00 00 00 00 00 00 00 00 00 00 00 ................
00400BC0 00 00 00 00 00 00 00 00 00 00 00 00 00 00 00 00 ................
00400BD0 00 00 00 00 00 00 00 00 00 00 00 00 00 00 00 00 ................
00400BE0 00 00 00 00 00 00 00 00 00 00 00 00 00 00 00 00 ................
00400BF0 00 00 00 00 00 00 00 00 00 00 00 00 00 00 00 00 ................
00400C00 00 00 00 00 00 00 00 00 00 00 00 00 00 00 00 00 ................
00400C10 00 00 00 00 00 00 00 00 00 00 00 00 00 00 00 00 ................
00400C20 00 00 00 00 00 00 00 00 00 00 00 00 00 00 00 00 ................
00400C30 00 00 00 00 00 00 00 00 00 00 00 00 00 00 00 00 ................
00400C40 00 00 00 00 00 00 00 00 00 00 00 00 00 00 00 00 ................
00400C50 00 00 00 00 00 00 00 00 00 00 00 00 00 00 00 00 ................
00400C60 00 00 00 00 00 00 00 00 00 00 00 00 00 00 00 00 ................
00400C70 00 00 00 00 00 00 00 00 00 00 00 00 00 00 00 00 ................
00400C80 00 00 00 00 00 00 00 00 00 00 00 00 00 00 00 00 ................
00400C90 00 00 00 00 00 00 00 00 00 00 00 00 00 00 00 00 ................
00400CA0 00 00 00 00 00 00 00 00 00 00 00 00 00 00 00 00 ................
00400CB0 00 00 00 00 00 00 00 00 00 00 00 00 00 00 00 00 ................
00400CC0 00 00 00 00 00 00 00 00 00 00 00 00 00 00 00 00 ................
00400CD0 00 00 00 00 00 00 00 00 00 00 00 00 00 00 00 00 ................
00400CE0 00 00 00 00 00 00 00 00 00 00 00 00 00 00 00 00 ................
00400CF0 00 00 00 00 00 00 00 00 00 00 00 00 00 00 00 00 ................
00400D00 00 00 00 00 00 00 00 00 00 00 00 00 00 00 00 00 ................
00400D10 00 00 00 00 00 00 00 00 00 00 00 00 00 00 00 00 ................
00400D20 00 00 00 00 00 00 00 00 00 00 00 00 00 00 00 00 ................
00400D30 00 00 00 00 00 00 00 00 00 00 00 00 00 00 00 00 ................
00400D40 00 00 00 00 00 00 00 00 00 00 00 00 00 00 00 00 ................
00400D50 00 00 00 00 00 00 00 00 00 00 00 00 00 00 00 00 ................
00400D60 00 00 00 00 00 00 00 00 00 00 00 00 00 00 00 00 ................
00400D70 00 00 00 00 00 00 00 00 00 00 00 00 00 00 00 00 ................
00400D80 00 00 00 00 00 00 00 00 00 00 00 00 00 00 00 00 ................
00400D90 00 00 00 00 00 00 00 00 00 00 00 00 00 00 00 00 ................
00400DA0 00 00 00 00 00 00 00 00 00 00 00 00 00 00 00 00 ................
00400DB0 00 00 00 00 00 00 00 00 00 00 00 00 00 00 00 00 ................
00400DC0 00 00 00 00 00 00 00 00 00 00 00 00 00 00 00 00 ................
00400DD0 00 00 00 00 00 00 00 00 00 00 00 00 00 00 00 00 ................
00400DE0 00 00 00 00 00 00 00 00 00 00 00 00 00 00 00 00 ................
00400DF0 00 00 00 00 00 00 00 00 00 00 00 00 00 00 00 00 ................
00400E00 00 00 00 00 00 00 00 00 00 00 00 00 00 00 00 00 ................
00400E10 00 00 00 00 00 00 00 00 00 00 00 00 00 00 00 00 ................
00400E20 00 00 00 00 00 00 00 00 00 00 00 00 00 00 00 00 ................
00400E30 00 00 00 00 00 00 00 00 00 00 00 00 00 00 00 00 ................
00400E40 00 00 00 00 00 00 00 00 00 00 00 00 00 00 00 00 ................
00400E50 00 00 00 00 00 00 00 00 00 00 00 00 00 00 00 00 ................
00400E60 00 00 00 00 00 00 00 00 00 00 00 00 00 00 00 00 ................
00400E70 00 00 00 00 00 00 00 00 00 00 00 00 00 00 00 00 ................
00400E80 00 00 00 00 00 00 00 00 00 00 00 00 00 00 00 00 ................
00400E90 00 00 00 00 00 00 00 00 00 00 00 00 00 00 00 00 ................
00400EA0 00 00 00 00 00 00 00 00 00 00 00 00 00 00 00 00 ................
00400EB0 00 00 00 00 00 00 00 00 00 00 00 00 00 00 00 00 ................
00400EC0 00 00 00 00 00 00 00 00 00 00 00 00 00 00 00 00 ................
00400ED0 00 00 00 00 00 00 00 00 00 00 00 00 00 00 00 00 ................
00400EE0 00 00 00 00 00 00 00 00 00 00 00 00 00 00 00 00 ................
00400EF0 00 00 00 00 00 00 00 00 00 00 00 00 00 00 00 00 ................
00400F00 00 00 00 00 00 00 00 00 00 00 00 00 00 00 00 00 ................
00400F10 00 00 00 00 00 00 00 00 00 00 00 00 00 00 00 00 ................
00400F20 00 00 00 00 00 00 00 00 00 00 00 00 00 00 00 00 ................
00400F30 00 00 00 00 00 00 00 00 00 00 00 00 00 00 00 00 ................
00400F40 00 00 00 00 00 00 00 00 00 00 00 00 00 00 00 00 ................
00400F50 00 00 00 00 00 00 00 00 00 00 00 00 00 00 00 00 ................
00400F60 00 00 00 00 00 00 00 00 00 00 00 00 00 00 00 00 ................
00400F70 00 00 00 00 00 00 00 00 00 00 00 00 00 00 00 00 ................
00400F80 00 00 00 00 00 00 00 00 00 00 00 00 00 00 00 00 ................
00400F90 00 00 00 00 00 00 00 00 00 00 00 00 00 00 00 00 ................
00400FA0 00 00 00 00 00 00 00 00 00 00 00 00 00 00 00 00 ................
00400FB0 00 00 00 00 00 00 00 00 00 00 00 00 00 00 00 00 ................
00400FC0 00 00 00 00 00 00 00 00 00 00                   ..........     

fn00400FCA()
	add	[eax],al
	add	[eax],al
	add	[eax],al
	add	[eax],al
	add	[eax],al
	add	[eax],al
	add	[eax],al
	add	[eax],al
	add	[eax],al
	add	[eax],al
	add	[eax],al
	add	[eax],al
	add	[eax],al
	add	[eax],al
	add	[eax],al
	add	[eax],al
	add	[eax],al
	add	[eax],al
	add	[eax],al
	add	[eax],al
	add	[eax],al
	add	[eax],al
	add	[eax],al
	add	[eax],al
	add	[eax],al
	add	[eax],al
	add	[eax],al
00401000 A9 5C 3D 45 52 78                               .\=ERx         

fn00401006()
	or	edi,eax

fn00401007()
	clc	
	sub	edx,ecx
	or	edi,ecx
	sub	edi,esi
	dec	edi
	dec	esi
	mov	eax,[eax+08]

fn00401012()
	or	[ebx+42D803CF],cl

fn00401013()
	mov	ecx,edi
	add	ebx,eax
	inc	edx
	call	0040114C
	jc	00400FCA

fn0040101F()
	push	eax
	mov	eax,D82B469A
	jmp	00401375

fn0040102A()
	pop	dword ptr [esp-20]
	add	cl,36
	dec	cl
	sbb	dh,F9
	adc	dl,55
	mov	ch,CB
	xor	esi,ecx
	or	esi,eax
	sub	ecx,eax
	inc	edi
	jmp	00401244
00401047                      9E 1C DD 9E 3F                    ....?   

fn0040104C()
	pop	dword ptr [esp-28]
	mov	ecx,eax
	add	ebx,eax
	sub	ebx,eax
	sub	ecx,edx
	xor	ecx,edx
	mov	edi,eax
	sub	eax,EEEEEEEE
	add	edx,ecx
	jpe	00401228

l00401069:
	mov	ah,ah
	jpo	00401228

l00401071:
	add	[eax+5DD8B20C],ebp

fn00401077()
	xor	dl,ch
	not	ch
	dec	edi
	xor	bh,cl
	or	ebx,esi
	sub	bl,cl
	inc	bh
	jz	00401280

fn0040108A()
	lea	edx,[edx]
	mov	bx,bx
	jnz	00401280

l00401095:
	push	eax
	pop	ds
	jmp	dword ptr [esp+eax+2BF30B3E]

fn0040109B()
	or	esi,ebx
	sub	edx,edi
0040109E                                           D7 8B               ..
004010A0 F2 03 CB 2B F7 33 D7 33 DF 8B D9 E9 B5 00 00 00 ...+.3.3........
004010B0 73 68 8A E1 8A 47 CA 99                         sh...G..       

l004010B8:
	dec	edi
	inc	ecx
	inc	ecx
	add	ecx,edi
	dec	ecx
	dec	ecx
	mov	esi,edx
	dec	ecx
	inc	ecx
	jbe	004010F2

l004010C5:
	repne	
	jmp	004010CB
	ja	004010F2
	or	bh,[ebp+8F124F07]

fn004010D2()
	pop	dword ptr [esp-0C]
	add	edx,edi
	add	edi,eax
	xor	ebx,edx
	mov	edx,esi
	or	eax,eax
	jz	004010E3

l004010E2:
	ret	

l004010E3:
	xor	edi,ecx
	call	004012B1
	push	cs
	mov	al,[DF045657]
	push	ecx
	jc	004010FE

l004010F2:
	or	edx,esi

l004010F3:
	illegal	
	or	edi,ebx
	or	edx,esi
	xor	ecx,ebx
	inc	bl
	add	bl,dl

fn004010FE()
	dec	ch
	jmp	00401077
00401105                E6 0B 82 42 62 71 C2 02               ...Bbq..  

fn0040110D()
	lea	esp,[esp+04]
	xor	esi,ecx
	sub	ebx,edx
	mov	ecx,esi
	mov	eax,[eax+00000090]
	xor	ecx,edi
	xor	ebx,edi
	dec	edx
	sub	edx,edi
	jmp	0040109B

l00401126:
	illegal	
	jmp	edi
00401129                            EF 6A E5 79 E1 73 BE          .j.y.s.

l00401130:
	xor	esi,eax
	leave	
	or	ebx,edx

l00401134:
	fidiv	dword ptr [ebx]
	illegal	
	or	esi,ebx
	mov	eax,ebx
	dec	eax
	inc	edx
	add	edi,ebx
	call	00401264
	jnc	00401134

l00401146:
	movsd	
	jge	00401126
	pop	ds
	pop	edx
	jz	004010DC

fn0040114C()
	pop	dword ptr [esp-18]
	or	edx,edi
	add	edi,eax
	inc	ebx
	add	edx,edi
	inc	esi
	sub	edi,edx
	mov	ecx,esi
	call	0040134A
	sbb	al,0F
	cmpsd	
	mov	[esi+4E],al

fn00401165()
	inc	esi
	dec	esi
	add	ecx,edi
	add	edx,ebx
	mov	eax,[eax]
	mov	esi,ebx
	sub	edx,ecx
	add	edi,ebx
	jmp	004012C7
00401178                         DE 71 56 FD 8C BF AF 60         .qV....`
00401180 8D 64 24 04 03 DE 0B C3 0B F3 2B F8 49 33 CB 33 .d$.......+.I3.3
00401190 F7 33 D8 E9 8A FE FF FF 68 03 C0 49 70 53 72    .3......h..IpSr

fn0040119F()
	mov	edi,eax
	dec	esi
	dec	esi
	mov	edi,ebx
	add	ebx,esi
	dec	ecx
	sub	ecx,esi
	add	ebx,edx
	xor	ecx,ebx
	jmp	00401314
004011B3          C1 3D FF 75 E5 03 7D B4                   .=.u..}.    

fn004011BB()
	xchg	[esp],esi
	jmp	004011C3

l004011C3:
	repne	
	pop	esi
	mov	ecx,eax
	or	edi,ecx
	sub	edi,ebx
	or	edx,ebx
	mov	esi,edi
	call	00401180
	xchg	eax,ebp
	pop	ss
	mov	ah,DC
	imul	esi,[edi+7D],FECEFEA0

fn004011DC()
	dec	dh
	inc	dh
	inc	ebx
	or	edi,eax
	or	esi,edi
	add	ch,dh
	xor	edi,esi
	mov	esi,eax
	add	bh,81
	call	0040102A
	cwde	
	mov	bl,4B
	adc	al,81

fn004011F8()
	pop	dword ptr [esp-10]
	dec	ebx
	dec	edi
	add	edx,eax
	xor	ebx,eax
	dec	ebx
	call	004010D2
	and	cl,ah
	mov	dl,82
	adc	[edx+03EC8B55],ecx

fn0040120E()
	push	ebp
	mov	ebp,esp
	add	esi,ecx

l00401212:
	illegal	
	mov	edx,esi
	dec	edi
	add	esi,eax
	sub	edi,ecx
	mov	edx,esi
	sub	ebx,edi
	inc	ecx
	jmp	00401296
00401221    3B 79 77 50 CE A3 D6                          ;ywP...       

l00401228:
	sub	ecx,edi
	mov	edx,esi
	add	esi,edx
	xor	esi,ebx
	mov	ebx,esi
	or	esi,eax
	mov	edi,edx
	mov	ecx,edi
	call	004011F8
	inc	eax
	or	[ebx],esp
	fstp	dword ptr [ecx]
	das	
	lodsb	

fn00401244()
	mov	ecx,ebx
	dec	ebx
	mov	esi,edi
	mov	edx,edi
	or	esi,eax
	sub	ecx,eax
	add	ecx,edx
	mov	eax,fs:[00000030]
	add	edi,ecx
	or	edi,esi
	jmp	0040119F
00401260 DC D3 23 29                                     ..#)           

fn00401264()
	lea	esp,[esp+04]
	dec	eax
	inc	edx
	mov	ebx,ecx
	dec	ebx
	or	esi,eax
	mov	edx,esi
	sub	edi,eax
	call	004011BB
	jpo	00401234
	dec	ecx
	js	00401214
	dec	ecx
	loop	004012A6

fn00401280()
	dec	ebx
	dec	bh
	sub	bl,ch
	add	edx,esi
	adc	dh,FE
	inc	ebx
	xor	edx,edi
	call	004012F5
	mov	ah,94
	mov	[edi],fs

fn00401296()
	dec	edi
	xor	edx,ecx
	inc	edi
	add	edx,ebx
	inc	esi
	or	edx,edi
	jle	004010B8

l004012A5:
	mov	edi,edi
	jg	004010B8

l004012AD:
	das	
	mov	ebp,448F0A7E

fn004012B1()
	pop	dword ptr [esp-20]
	sub	edi,edx
	inc	edi
	add	edx,edi
	dec	ecx
	mov	edi,edx
	call	0040132D
	mov	[ebx+2A],edi
	pop	ds
	pop	edx

fn004012C7()
	sub	ecx,edx
	inc	edx
	sub	ebx,edi
	add	edi,esi
	xor	edx,eax
	or	esi,edi
	mov	edi,edx
	jmp	00401006
004012D9                            90 0F D3 9F                   ....  

l004012DD:
	or	edx,esi
	inc	edx
	xor	ecx,edx
	xor	edi,eax
	add	edi,ebx
	inc	esi
	dec	edi
	add	ebx,edi
	sub	edx,edi
	call	0040104C
	jmp	8FB5C628

fn004012F5()
	pop	dword ptr [esp-2C]
004012F6                   44 24 D4 0A EA F6 DF 03 FA F6       D$........
00401300 DB 8B D0 FE C7 03 DA E9 D0 FE FF FF             ............   
0040130C                                     00 F8 AD 84             ....
00401310 5E BA B0 5D                                     ^..]           

fn00401314()
	or	ebx,eax
	mov	edx,esi
	add	edx,ecx
	xor	ecx,ebx
	or	ebx,esi
	or	edi,ebx
	call	0040110D
	jnc	0040139D

l00401327:
	out	70,al
	cmp	ah,[0C87D50A]

fn0040132D()
	xchg	[esp],ecx

fn0040132F()
	and	al,F3
	pop	ecx
	dec	esi
	add	ebx,eax
	or	ebx,esi
	xor	edi,edx
	add	ebx,ecx
	xor	edi,ecx
	jmp	00401130
00401342       18 81 AE 0E B4 3C 77 8B                     .....<w.     

fn0040134A()
	xchg	[esp],edi
	mov	ah,ah
	pop	edi
	xor	edx,ebx
	and	eax,EEEEEEEE
	dec	edi
	dec	esi
	add	esi,ecx
	mov	esi,edx
	sub	ebx,edi
	jo	004012DD

l00401365:
	lea	ebx,[ebx]
	push	dx
	pop	dx
	jno	004012DD

l00401371:
	adc	[edx],eax
	sub	al,7A

fn00401375()
	call	00402A9C
	illegal	
	cmp	al,E7
	xchg	dl,ch
	stosd	
	pop	esp
	stosd	
	stosd	
	xadd	esi,eax
	jmp	far 591B:1602
	xadd	[esi],eax
	out	dx,ax
	shl	dword ptr [esi+EF8CA9B3],E9
	sub	esi,ebx
	jnz	00401355
	stosd	
	stosd	
	push	87BD2F6B

fn0040139D()
	imul	ebp,[edi],BD
	xchg	[esp+eax*4],eax
	retf	
004013A4             EA 05 05 05 05 0F C1 46 EA 05 05 05     .......F....
004013B0 05 0F C1 26 EA AB 5C AB AB 0F C1 E6 EE A5 40 04 ...&..\.......@.
004013C0 B1 3B EF 96 13 58 81 23 DE C8 AB AB AB AF 82 0B .;...X.#........
004013D0 FB 13 B7 E9 FB AB AB EF AD 34 35 60 FB AB AB AB .........45`....
004013E0 4E 1E DE 9C A3 AB AB 36 65 9B 1F 2E E6 7D F3 AB N......6e....}..
004013F0 AB 8E 25 EF C1 26 DD B5 CB AB 41 EF 06 AF C5 46 ..%..&....A....F
00401400 FF C1 86 29 DE 85 D3 AB AB E5 31 F2 FC E0 B3 71 ...)......1....q
00401410 8C 9F AD AC A3 AB AB EF 71 0B B3 81 A6 8E 42 06 ........q.....B.
00401420 8E 42 C6 31 E6 EF C3 AB AB 4E C1 86 EB AB AB AB .B.1.....N......
00401430 DE E0 CB AB AB 7D CD 51 68 ED 3A 6F 2E 8E 32 8B .....}.Qh.:o..2.
00401440 E6 41 F3 AB AB E6 ED B3 AB AB E6 7C F3 AB AB DF .A.........|....
00401450 C1 A6 CA EF 03 2C AB AB AB DE BF EB AB AB 91 D7 .....,..........
00401460 4B 87 5D 0C EC EF C1 86 E4 C1 66 AF A5 FB E4 C1 K.].......f.....
00401470 0B AF 82 0B AB 13 BF 39 8E 8E 8E EF C1 66 91 99 .......9.....f..
00401480 71 DE FC C3 AB AB 28 BF 1D 22 E5 F0 AF 9C AB 13 q.....(.."......
00401490 BF 34 D3 AB AB AF AD 4B AF 72 0B AB 13 BF 71 FB .4.....K.r....q.
004014A0 AB AB 91 99 71 DD DE 2E B3 AB AB 7E 41 04 D5 DD ....q......~A...
004014B0 5F 53 29 FF C1 46 29 FA AB FA AB EA E7 91 AA A6 _S)..F).........
004014C0 E6 68 D3 AB AB EA 58 8E CC 34 29 DE 98 C3 AB AB .h....X..4).....
004014D0 C7 5F B9 98 F3 2C A2 13 BF E5 E3 AB AB 44 B7 76 ._...,.......D.v
004014E0 29 F1 74 C1 EB 13 BF FF FB AB AB EF B9 6B DE 1F ).t..........k..
004014F0 FB AB AB DE 9A FB AB AB D3 8E DD 66 EF 2D F4 41 ...........f.-.A
00401500 0B B3 71 8C FF 6F A8 AB AB AB EF 73 EF 01 EB F3 ..q..o.....s....
00401510 6D 13 C7 FB D3 AB AB 74 01 0B DE 2E A3 AB AB 65 m......t.......e
00401520 54 3C 76 25 31 B3 65 B3 5D B3 75 EF F5 2E C8 B3 T<v%1.e.].u.....
00401530 42 86 DE 75 EB AB AB 35 69 4F BC 34 5F 0C EF C1 B..u...5iO.4_...
00401540 EB B3 A9 8C EF 41 EB EF A9 6A B3 B5 EF 66 EF 2A .....A...j...f.*
00401550 AC B3 36 EE 49 A1 F5 65 92 F2 17 17 8A 34 35 DA ..6.I..e.....45.
00401560 17 E6 DA 07 E6 1D E5 3A 5E EF C1 66 DF C1 65 EF .......:^..f..e.
00401570 C1 06 DE 13 BB AB AB DE C3 BB AB AB 7B 50 A1 E2 ............{P..
00401580 B7 CA 2D D0 3B A5 13 AF 17 CB AB AB 13 BF 99 CB ..-.;...........
00401590 AB AB F8 DE C7 AB AB AB E6 9C CB AB AB F4 ED DE ................
004015A0 28 EB AB AB 5C 04 DB 55 F4 EF E9 6B DF 01 86 EF (...\..U...k....
004015B0 81 0B 34 DD DE F0 DB AB AB 21 EF 1B DE 87 E3 AB ..4......!......
004015C0 AB D1 36 D0 FB 01 EF 71 0B EF 31 0B EF 32 0B EE ..6....q..1..2..
004015D0 C3 DE 55 DB AB AB EF D9 8B DE 50 DB AB AB DC 7F ..U.......P.....
004015E0 72 E2 FB BC 22 E8 F3 DD 13 BF 67 A3 AB AB DF C1 r...".....g.....
004015F0 A6 86 EA AB AB AB AB 0F C1 86 EA 57 FE D9 D7 0F ...........W....
00401600 C1 66 DE 7F 7E 8E 8E DD 37 29 5C ED 92 AA EF 42 .f..~...7)\....B
00401610 0B EF 82 EB 86 38 A7 34 6D C8 30 BB E6 99 D3 AB .....8.4m.0.....
00401620 AB 32 56 DE 2D B3 AB AB ED E5 9F 77 96 42 FF C1 .2V.-......w.B..
00401630 EB 29 FA 8E EA E7 91 AA A6 E6 94 DB AB AB EA 88 .)..............
00401640 0B D5 32 29 E6 BF E3 AB AB DE B1 E3 AB AB 6F C5 ..2)..........o.
00401650 46 F4 B3 01 A6 8E 32 2B 29 21 E6 2E CB AB AB EF F.....2+)!......
00401660 B1 0B B3 C1 A6 8E 32 CC 8E 32 EB DE 78 DB AB AB ......2..2..x...
00401670 9F 6A 67 38 79 29 DF 01 85 FA A9 8E 42 85 8E 42 .jg8y)......B..B
00401680 A6 E6 C5 C3 AB AB EF C1 A6 EF E5 B3 A9 8C EF A9 ................
00401690 EC B3 9D EE 91 34 66 17 FA F7 C9 63 8E F7 CC 7B .....4f....c...{
004016A0 E7 CA 63 8E E7 CB 7B E1 F3 DD DE 92 A3 AB AB A8 ..c...{.........
004016B0 0B AC 92 65 A9 54 DE 38 C3 AB AB EE BB 34 A5 61 ...e.T.8.....4.a
004016C0 AF D5 CB A1 DE 6F C3 AB AB 6A FA 65 CA FA A3 DE .....o...j.e....
004016D0 9D DB AB AB 6F 5D 25 6D CB CC 6D CB CC 95 9D 6D ....o]%m..m....m
004016E0 CB CC 13 EE 2D 95 9D DE 97 DB AB AB 1F 4B 60 C6 ....-........K`.
004016F0 B7 22 5D 50 DF C1 25 8E 42 E6 FA AB E6 E7 EB AB ."]P..%.B.......
00401700 AB DF C1 45 EF 81 A6 DE BB 7E 8E 8E 31 13 7A 35 ...E.....~..1.z5
00401710 B8 E1 13 C7 E3 C3 AB AB B3 81 EB DE 4E CB AB AB ............N...
00401720 EF F1 CB AF DE EB EF 2E AF D5 EB DE 85 CB AB AB ................
00401730 13 50 DB DE 92 A3 AB AB B4 53 BF 87 DB 9C 07 AF .P.......S......
00401740 8E 42 45 E6 FD AB AB AB EF 01 A6 EF A1 8C EF C9 .BE.............
00401750 A3 EC B3 9D DF C1 05 EF 81 A6 8E 42 05 DE 93 BB ...........B....
00401760 AB AB FE FB F0 53 EF 01 0B EF 41 2B DE B4 CB AB .....S....A+....
00401770 AB 08 21 F7 F5 A7 1E 33 DE 9A DB AB AB 8A 48 81 ..!....3......H.
00401780 56 DE AA 96 8E 8E E9 9D E6 13 9D A6 13 13 50 EB V.............P.
00401790 9F DE 01 79 AB AB DE F1 96 8E 8E 54 D2 72 39 48 ...y.......T.r9H
004017A0 8E 2A 4C 31 E6 66 AB AB AB 71 60 AB 2B AB AB EF .*L1.f...q`.+...
004017B0 41 65 EF C1 05 DD EF 46 AF D5 2B DE EF C3 AB AB Ae.....F..+.....
004017C0 70 27 1A EC B2 7B 0E EF 06 AF C5 26 8E 42 EB FF p'...{.....&.B..
004017D0 C1 66 29 EA E7 91 AA A6 DE 86 C3 AB AB 8B 87 6F .f)............o
004017E0 E7 5B 29 EA E7 91 AA A6 E6 27 CB AB AB EA 99 C5 .[)......'......
004017F0 4E 16 29 E6 55 D3 AB AB 8E 25 8E 42 EB EA E7 91 N.).U....%.B....
00401800 AA A6 E6 5A CB AB AB EE C9 03 E7 76 6C 13 EF C1 ...Z.......vl...
00401810 EB DD B5 EB AB 41 EF 06 EA AB A7 AB AB FF C1 0B .....A..........
00401820 29 FF C1 EB 29 DE 57 CB AB AB 8F 0D 6B 5C 13 BF )...).W.....k\..
00401830 0F A3 AB AB 71 DD B5 0B AB 41 EF 06 59 51 EF 42 ....q....A..YQ.B
00401840 EB EF 96 DE 9B 8E 8E 8E B8 51 1C 01 A6 EA 4E 35 .........Q....N5
00401850 0A 62 29 E6 5A D3 AB AB 8E 25 EF C1 86 DD DE 39 .b).Z....%.....9
00401860 D3 AB AB 16 A8 1E A9 66 2C 4D 97 E9 9D A6 EB 08 .......f,M......
00401870 E6 CA A3 AB AB 84 AB 82 AB AB 13 AF E2 A3 AB AB ................
00401880 A7 86 C3 13 AF A2 A3 AB AB AF 66 92 13 CF 61 A3 ..........f...a.
00401890 AB AB DE 39 A3 AB AB B1 EF 96 C7 2F 9A 3D B5 CB ...9......./.=..
004018A0 AB 41 EF 06 31 59 51 EF 81 EB DE 01 86 8E 8E 8D .A..1YQ.........
004018B0 ED A5 19 E0 A3 60 35 13 50 66 DA 9F CE 8E 13 DA .....`5.Pf......
004018C0 9D E6 0B AF 66 B3 42 D3 B3 74 B3 82 EB A3 53 AF ....f.B..t....S.
004018D0 D5 BB AF DE BB DE 3C B3 AB AB 77 FB C0 4F 4A 8B ......<...w..OJ.
004018E0 8E 42 26 8E 42 46 8E 42 C6 31 E6 DD DB AB AB EE .B&.BF.B.1......
004018F0 EB C0 E2 13 34 D2 15 E9 1C DF C1 C6 8E 42 66 8E ....4........Bf.
00401900 42 C6 31 E6 24 8E 8E 8E 4E C1 86 CB AB AB AB 13 B.1.$...N.......
00401910 C7 D8 A3 AB AB 29 8E 42 45 DE 57 A3 AB AB 6B 56 .....).BE.W...kV
00401920 2E B3 27 E3 EF 75 AF AD 0B EF 39 0B EF 3B DE E1 ..'..u....9..;..
00401930 DB AB AB EF F9 2C DE DA C3 AB AB 87 DE 41 B1 E6 .....,.......A..
00401940 74 CB AB AB 33 DD E6 4C CB AB AB 3A 36 AD F4 8A t...3..L...:6...
00401950 CC EC DF 8A CC 8B A2 DD B5 EB AB 29 8E 42 86 E6 ...........).B..
00401960 57 76 8E 8E DE BC 6E 8E 8E B3 C1 EB FF A9 BB 29 Wv....n........)
00401970 8E 42 86 E6 B7 76 8E 8E DE 1B 6E 8E 8E 0E B1 02 .B...v....n.....
00401980 BD 8E 42 25 31 E6 8C C3 AB AB 31 E6 65 A3 AB AB ..B%1.....1.e...
00401990 EF AD B3 A9 8C DE DB 96 8E 8E 76 17 AE 4D 91 99 ..........v..M..
004019A0 DD B5 0B AB 41 EF 06 DE A2 86 8E 8E C2 ED E8 4B ....A..........K
004019B0 DD B5 2B AB 41 EF 06 31 EF 01 0B EF 81 EB DE BE ..+.A..1........
004019C0 86 8E 8E EF C1 2B DE E3 C3 AB AB 7C 3A 94 6F 6C .....+.....|:.ol
004019D0 18 42 C3 F7 5B D9 3B 35 AD 34 DD A1 DE 99 8E 8E .B..[.;5.4......
004019E0 8E 16 6B 82 21 6A 5C 18 0D A1 A1 3F EF BD 30 A3 ..k.!j\....?..0.
004019F0 59 DE 82 B3 AB AB 35 82 D4 B4 71 34 DD E6 82 B3 Y.....5...q4....
00401A00 AB AB 13 AF 27 6E 8E 8E 34 A5 E6 2A B3 AB AB 13 ....'n..4..*....
00401A10 AF F1 CB AB AB 30 BB A1 28 2B E6 AA B3 AB AB DE .....0..(+......
00401A20 AA 6E 8E 8E 2B 18 E4 CF C2 CC EF C1 0B F4 C1 4B .n..+..........K
00401A30 DF C1 0B DF C1 66 A7 82 2B AB 13 C7 74 76 8E 8E .....f..+...tv..
00401A40 13 58 C1 2B DF C1 86 EF 42 EB DE 32 5E 8E 8E 08 .X.+....B..2^...
00401A50 D2 40 3F 36 F1 A6 EF 01 2B EF 42 0B EF 82 EB 2E .@?6....+.B.....
00401A60 C8 EF CD 91 DE A8 AB AB AB 25 E2 58 89 A1 2D 63 .........%.X..-c
00401A70 BB 8E 42 85 8E 42 A6 E6 5F 7E 8E 8E EF 81 45 B3 ..B..B.._~....E.
00401A80 71 8C FF 71 6B DE F0 B3 AB AB E2 E1 5C 9A E6 74 q..qk.......\..t
00401A90 C3 AB AB 8E 25 FF C1 46 29 EA E7 91 AA A6 E6 75 ....%..F)......u
00401AA0 A3 AB AB EA 9D 1C 65 1E 29 DE 9C 5E 8E 8E CE A0 ......e.)..^....
00401AB0 D0 E7 8F 4B E6 EE 96 8E 8E EE 0B 8E 42 C6 29 8E ...K........B.).
00401AC0 42 45 E6 EF AB AB AB 4E C1 86 2B AB AB AB 13 C7 BE.....N..+.....
00401AD0 3B BB AB AB 8E 42 A6 E6 98 CB AB AB EE 2F 2A 49 ;....B......./*I
00401AE0 20 46 12 FA 8E EA E7 91 AA A6 E6 17 A3 AB AB EA  F..............
00401AF0 DA 31 BB B9 29 E6 45 CB AB AB 8E 25 DE 03 7E 8E .1..).E....%..~.
00401B00 8E 23 AD C2 05 46 7F 66 1D 99 DD B5 0B AB 41 EF .#...F.f......A.
00401B10 06 51 34 A5 EF 01 0B DE A8 B3 AB AB F4 0B 89 66 .Q4............f
00401B20 1F 7A 9F EA AE F4 C7 3D 29 E6 A8 CB AB AB 8E 25 .z.....=)......%
00401B30 DD B5 CB AB 41 DE FF 86 8E 8E ED 42 F2 8D 54 83 ....A......B..T.
00401B40 E6 6C A3 AB AB EA F0 EA B3 46 29 E6 9A CB AB AB .l.......F).....
00401B50 29 AD 41 EF 06 59 51 DE 76 96 8E 8E 46 08 78 F6 ).A..YQ.v...F.x.
00401B60 FA 91 99 71 DD B5 0B AB 41 EF 06 AF C5 86 31 DE ...q....A.....1.
00401B70 47 A3 AB AB FC 16 5E F5 61 13 50 0B E9 EF D1 8B G.....^.a.P.....
00401B80 B3 B5 EF CB E7 B3 B5 DE FC 6E 8E 8E 61 68 8C 97 .........n..ah..
00401B90 9D B5 B3 E1 F3 DD 13 BF 3D 6E 8E 8E EF C1 EB EF ........=n......
00401BA0 01 0B EF 41 2B 24 EB 24 2B DE 26 7E 8E 8E 02 1C ...A+$.$+.&~....
00401BB0 0E 93 D4 38 27 EE B3 EF 32 2B B3 42 EB EF 72 2B ...8'...2+.B..r+
00401BC0 B3 82 EB DE C5 66 8E 8E 00 E0 AB AB AB A7 13 C7 .....f..........
00401BD0 3F 7E 8E 8E 44 AB AB AB A7 DE 82 7E 8E 8E B9 7E ?~..D......~...~
00401BE0 C3 FA FF F6 9B 9F 82 0B 8E 8E AB AB 52 FB 8E 42 ............R..B
00401BF0 0B FA AB DE BB 86 8E 8E FA AB FF C1 46 29 8E 42 ............F).B
00401C00 0B DE 85 6E 8E 8E B4 E5 E7 D2 92 7F F3 DD 13 BF ...n............
00401C10 8B 6E 8E 8E B3 71 CB AF 72 CB EB 13 CF 8E 76 8E .n...q..r.....v.
00401C20 8E 91 99 71 DD DE A0 B3 AB AB 67 95 1F 26 EF 06 ...q......g..&..
00401C30 31 59 51 EF 82 0B CA EF 83 2C AB AB AB DE C7 5E 1YQ......,.....^
00401C40 8E 8E D0 EF 40 40 DD B5 EB AB 41 EF 06 AF C5 86 ....@@....A.....
00401C50 FF C1 86 29 8E 42 2B FF C1 0B 29 DE 15 5E 8E 8E ...).B+...)..^..
00401C60 02 16 87 CE 74 01 86 13 B7 09 5E 8E 8E 91 99 71 ....t.....^....q
00401C70 DD EE D3 85 0E 7C 75 43 E8 8F B5 EB AB 41 EF 06 .....|uC.....A..
00401C80 31 CA EF 43 2C AB AB AB EF 39 0B DE 47 86 8E 8E 1..C,....9..G...
00401C90 4D 42 F8 B8 3B 74 CD 42 23 8E 42 EB 0F D9 6B 8E MB..;t.B#.B...k.
00401CA0 42 2B 0F D9 8B DE 50 96 8E 8E EF 5C 74 36 13 BF B+....P....\t6..
00401CB0 BC 5E 8E 8E DE E8 96 8E 8E F1 3B CA 51 9B 32 D8 .^........;.Q.2.
00401CC0 FA 8E EA E7 91 AA A6 E6 20 8E 8E 8E EA F0 EA B3 ........ .......
00401CD0 46 29 E6 4E BB AB AB 8E 25 DE EA 8E 8E 8E FA C7 F).N....%.......
00401CE0 E2 2B 6C DF A1 EB 8E 42 85 8E 42 A6 E6 83 96 8E .+l....B..B.....
00401CF0 8E EF 81 45 B3 71 8C 8E 32 49 8E 42 45 DE A6 BB ...E.q..2I.BE...
00401D00 AB AB 43 19 40 72 5B 09 59 51 EF 81 EB B3 71 8C ..C.@r[.YQ....q.
00401D10 FF 6F A7 AB AB AB EF 73 F3 6D 13 C7 B7 4E 8E 8E .o.....s.m...N..
00401D20 DE 25 A3 AB AB 9B EA 83 EE AD 29 E6 7B 8E 8E 8E .%........).{...
00401D30 61 AF AD EC E1 F3 DD 13 BF 88 BB AB AB 8E 42 E6 a.............B.
00401D40 DE 6E 5E 8E 8E 96 08 A5 ED 49 68 EA AB A9 AB AB .n^......Ih.....
00401D50 DF 09 CC A5 FF 09 CC A5 21 DF 49 CC A5 FF 49 CC ........!.I...I.
00401D60 A5 39 FA 8E 29 EA E7 91 AA A6 DE 1D 7E 8E 8E 0E .9..).......~...
00401D70 0E 49 0A EF 4E F4 26 2E C8 99 DE 7F 66 8E 8E BB .I..N.&.....f...
00401D80 35 DE F1 86 8E 8E EC 4C 0B F0 6D CB CC 95 9D 13 5......L..m.....
00401D90 EE 9D FF E1 A3 9F 5E 4B 18 D1 A3 13 BF 34 5E 8E ......^K.....4^.
00401DA0 8E 69 6D 4B CC 69 68 B3 AB AB AB DE 00 4E 8E 8E .imK.ih......N..
00401DB0 47 F8 41 18 EA E7 91 AA A6 E6 90 96 8E 8E EA 33 G.A............3
00401DC0 22 F3 20 29 E6 C3 BB AB AB 8E 25 FF C1 26 DE 8D ". )......%..&..
00401DD0 56 8E 8E 04 D5 81 FE 50 8D E6 8F 96 8E 8E EA 99 V......P........
00401DE0 C5 4E 16 29 E6 BE A3 AB AB 8E 25 FA A3 FF C1 66 .N.)......%....f
00401DF0 29 FF C1 46 29 EE 80 C2 07 9D F9 BB 15 35 A5 F7 )..F)........5..
00401E00 F5 35 E5 61 F8 B3 1D DE C7 7E 8E 8E 77 31 3D B3 .5.a.....~..w1=.
00401E10 4C AF F6 FB 4E 75 EF F5 2E C8 DE D9 56 8E 8E EF L...Nu......V...
00401E20 01 0B 2E C8 DE 39 56 8E 8E DE 54 56 8E 8E 63 E4 .....9V...TV..c.
00401E30 93 AE B2 91 CE 8E 32 6C 0F C1 85 8E 32 6C 8E 32 ......2l....2l.2
00401E40 8B 8E 32 6C 8E 32 8B DE 1E 3E 8E 8E 7C 9C 43 BB ..2l.2...>..|.C.
00401E50 F0 C2 2A 5C 42 7B E6 9A 6E 8E 8E DE 07 6E 8E 8E ..*\B{..n....n..
00401E60 08 1D E6 13 C7 BE 76 8E 8E 33 DD DE 62 6E 8E 8E ......v..3..bn..
00401E70 1F DE 3E 5E 8E 8E 77 9D EB F1 F5 11 37 1D 13 BF ..>^..w.....7...
00401E80 8D AB AB AB 44 B7 76 29 F1 74 AD 13 BF 0C 66 8E ....D.v).t....f.
00401E90 8E EF D1 CC B3 B5 DE 7D 86 8E 8E AE 24 61 5B 61 .......}....$a[a
00401EA0 4B 34 A5 EE EB 9D A5 D3 3C A3 AF 9D BB DA AF 64 K4......<......d
00401EB0 AB DE A4 56 8E 8E F6 7C 42 66 0D 71 EF 82 EB 2E ...V...|Bf.q....
00401EC0 F8 91 DD B5 EB AB 41 DE BA 7E 8E 8E 2B 2D 31 39 ......A..~..+-19
00401ED0 5D A1 F6 37 44 3D 8E 3B 44 9D E5 23 04 3A 9E 57 ]..7D=.;D..#.:.W
00401EE0 4B DF C1 2B 34 35 4E 42 0B DE F0 4E 8E 8E C0 FC K..+45NB...N....
00401EF0 80 B4 97 78 80 B3 81 EB DE 6F 3E 8E 8E EF B1 0B ...x.....o>.....
00401F00 B3 C1 EB 29 E6 F4 86 8E 8E DF C1 86 AF 74 AB 13 ...).........t..
00401F10 C7 B8 86 8E 8E EF 34 DE 5F 86 8E 8E 8F 3B 58 01 ......4._....;X.
00401F20 81 EF 06 FA A9 EA AB 2C AB AB FF C1 0B 29 FA AB .......,.....)..
00401F30 FF C1 EB 29 DE F8 6E 8E 8E 38 EB BC FA 41 EF 06 ...)..n..8...A..
00401F40 AF C5 05 31 FA AB 13 24 EF E5 9F 9E 8E AB AB AB ...1...$........
00401F50 DE 6A 4E 8E 8E 1E A6 B8 B0 D0 D2 7B B2 B3 F5 34 .jN........{...4
00401F60 A5 EE DB 9D A5 D3 3C A3 A1 A7 64 AB DE 03 8E 8E ......<...d.....
00401F70 8E 65 57 77 43 D4 EE CB EF 3B 34 A5 74 2D 13 BF .eWwC....;4.t-..
00401F80 10 5E 8E 8E 71 DD B5 CB AB 41 EE 3F 1B F9 D7 8F .^..q....A.?....
00401F90 6D 8E 25 EF C1 86 DD B5 0B AB 41 EF 06 8E 42 EB m.%.......A...B.
00401FA0 FA 8E EA E7 91 AA A6 E6 1D 86 8E 8E DE 3A 6E 8E .............:n.
00401FB0 8E BB 04 A4 28 B5 EB AB 41 EF 06 AF C5 66 31 59 ....(...A....f1Y
00401FC0 51 DE CA 76 8E 8E A4 32 F2 BC FB B5 EB AB 41 EF Q..v...2......A.
00401FD0 06 AF C5 86 31 59 51 DE BA 3E 8E 8E A1 B8 A0 F3 ....1YQ..>......
00401FE0 7E 85 8E 42 A6 E6 EA 6E 8E 8E 13 50 F1 DB 9F AD ~..B...n...P....
00401FF0 66 AB AB AB DE 8C 7E 8E 8E 21 EF B1 4B B3 C1 45 f.....~..!..K..E
00402000 EF F1 0B DE F9 56 8E 8E 6F 6D 6B 52 81 66 40 72 .....V..omkR.f@r
00402010 18 8D 64 24 04 FE CA FE C4 2B D6 40 F6 D2 F6 DA ..d$.....+.@....
00402020 8A F3 80 C0 28 EB 06 FA F7 A5 F0 E6 9D 8A DF 33 ....(..........3
00402030 C6 2B D6 80 DA 23 0A E6 42 0A E2 42 80 C2 0A 0F .+...#..B..B....
00402040 82 6E 04 00 00 66 8B FF E9 00 00 00 00 0F 83 60 .n...f.........`
00402050 04 00 00 93 5F A6 39 B5 11 6F 23                ...._.9..o#    

fn0040205B()
	adc	al,27
	inc	dl
	sub	dh,cl
	sub	ah,cl
	inc	ah
	add	dh,34
	call	0040223A
	lds	ecx,[EB3548CC]

fn00402074()
	not	bh
	inc	esi
	sbb	bl,0D
	neg	bl
	add	esi,edi
	dec	ebx
	xor	bh,ch
	jmp	00402936
00402086                   C2 49 CC 58 3C                      .I.X<    

fn0040208B()
	sub	eax,ebx
	inc	edx
	sub	ebx,esi
	adc	ah,E5
	inc	esi
	mov	ebx,eax
	or	ah,bh
	call	004027E0
	call	FE895A02
	fimul	word ptr [ecx+DB862434]

fn004020A3()
	mov	[esp],esi
	xchg	bl,bl
	pop	esi
	add	edi,esi
	adc	bh,B9
	mov	bh,bl
	xor	edi,ebx
	sub	bl,cl
	call	00402B5A
	mov	edx,86559340
	push	eax
	lahf	
	and	dh,dh

fn004020C1()
	not	al

fn004020C2()
	shr	byte ptr [ebx],01
	ror	dword ptr [eax+4A],01
	dec	al
	xor	edx,esi
	mov	ah,ch
	add	dh,bl
	xor	dl,bh
	jmp	00402807
004020D6                   0C F8 00 B6 80 D2 2C 03 CE 03       ......,...
004020E0 D0 2B CE 8B CF 2A F4 80 D9 DB 80 DA D6 80 DB 21 .+...*.........!
004020F0 80 C6 24 0F 82 5A 02 00 00 66 87 C9 66 8D 09 0F ..$..Z...f..f...
00402100 83 4E 02 00 00 51 AF 69 71 BC FB 8B             .N...Q.iq...   

l0040210C:
	add	bl,dl
	adc	bh,0C
	add	ebx,edx
	add	bh,7B
	add	bh,cl
	dec	bh
	jmp	00402AD2
0040211F                                              11                .
00402120 39 DB CA E7 1A                                  9....          

fn00402125()
	jnz	00402509

l0040212B:
	add	esi,edx
	or	bl,al
	dec	esi
	inc	bh
	sub	edi,edx
	call	004028E2
	popa	
	pop	ecx
	sti	
	and	ebx,[esi-34]
	add	bh,52

fn00402140()
	add	bh,52
	dec	bl
	xor	ebx,edi
	mov	dl,bh
	mov	bh,dh
	sub	ah,bh
	mov	al,dl
	sbb	ah,6B
	xor	edi,E1D2C968
	dec	eax
	call	0040246D
	add	ah,[edi]
	or	eax,9D17B07F
	cmp	eax,03DFDF80

fn00402166()
	sbb	bh,DF
	add	edi,edx

fn0040216A()
	cli	
	inc	bh
	add	edi,esi
	sub	bl,ah
	inc	bh
	sub	bl,cl
	add	bl,al
	not	bh
	jz	00402616

fn0040217F()
	jz	00402181

l00402181:
	lea	esi,[esi]
	jnz	00402616

l00402189:
	mov	ebp,80652AD7

fn0040218D()
	adc	dh,8F

l0040218E:
	illegal	
	pop	dword ptr [edx+46E632E1]
	or	edi,ecx
	xor	ebx,edi
	push	dword ptr [ecx]
	sub	dl,dh
	sub	bl,bh
	jpe	004029D4

fn004021A0()
	mov	ch,[edi]
	or	[eax],al
	add	dl,dh

l004021A5:
	repne	

fn004021A6()
	jpo	004029D4

l004021AC:
	inc	ecx
	push	edi
	jge	0040222D

l004021B0:
	sbb	cl,[ebx]
	jle	004021B7

fn004021B3()
	add	esi,ebx

l004021B4:
	rep	
	sub	bl,bh

fn004021B7()
	sub	edi,ecx
	adc	bh,22
	add	bh,dl
	dec	bh
	lea	edx,[eax+000000F8]
	xor	edi,edx
	add	esi,ebx
	call	004020A3
	jge	004021A0

fn004021D1()
	scasb	
	mov	byte ptr [ebp+FE042464],C7

fn004021D3()
	lea	esp,[esp+04]
	inc	bh

fn004021D9()
	dec	ebx
	mov	bh,D0
	not	bl
	inc	bl
	dec	ebx
	or	dl,bh
	inc	bl
	mov	eax,ebx
	jbe	00402140

fn004021ED()
	xchg	al,al
	ja	00402140

l004021F5:
	or	dh,[ecx-4F]
	mov	[D980CFFE],eax

fn004021F9()
	dec	bh
	sbb	cl,58

fn004021FD()
	pop	eax
	not	al
	mov	dh,02
	adc	cl,FE
	inc	dl
	xor	edx,eax
	jz	00402C3B

fn0040220F()
	mov	bx,bx
	jnz	00402C3B

l00402218:
	in	eax,18
	rcr	dword ptr [esi+56],01
	rol	dword ptr [edi+03],01

fn0040221F()
	add	ebx,esi
	add	esi,edx
	or	ebx,edx
	dec	bl
	mov	edi,eax
	sub	bh,ah
	sbb	bh,99

fn0040222D()
	cdq	
	add	edx,ecx
	dec	ecx
	call	00402798
	or	al,93
	push	eax
	xchg	cs:[esp],eax

fn0040223A()
	xchg	[esp],eax
	lea	ebx,[ebx]
	pop	eax
	or	dh,dl

l00402241:
	repne	
	mov	ah,A0
	or	eax,edx
	jmp	0040256A
0040224B                                  B9 61 FD 29 8F            .a.).
00402250 44 24 D8 FE C4 80 C4 FA 33 C3 81 FA 8C BC BD A1 D$......3.......
00402260 0F 85 B4 0B 00 00 F6 D4 E9 1D 03 00 00 FB 8B 1F ................
00402270 76 FB 07 8C AD                                  v....          

l00402275:
	neg	cl
	add	ch,ah
	sbb	ah,19
	inc	al
	or	cl,ah
	call	00402285

fn00402285()
	or	ebx,edx
	add	ebx,edx
	jc	00402373

l0040228F:
	xchg	ah,ah
	jmp	00402296

l00402296:
	jnc	00402373

l0040229C:
	loope	00402241
	out	dx,al
	and	eax,24648DF9

fn004022A1()
	lea	esp,[esp+04]
	mov	bh,70
	not	eax
	not	bl
	not	bl
	xor	esi,eax
	dec	ebx
	add	bl,dh
	adc	bl,26
	neg	bh
	call	00402828
	mov	ss,ax
	int	03

fn004022C0()
	dec	al
	add	al,dl
	sbb	dl,9D
	add	eax,edx
	or	al,ah
	xor	dh,bl
	sub	edx,esi
	xor	bh,8E
	inc	edx
	inc	dl
	jmp	004020C1
004022DA                               D4 CB 7E 85 79 48           ..~.yH
004022E0 F6 D8 32 E6 FE CC 0A E0 8B C6 33 C6 E8 5E FF FF ..2.......3..^..
004022F0 FF 3F 8B 63 31 41 BA                            .?.c1A.        

l004022F7:
	inc	dh
	dec	dl
	add	dh,ch
	dec	edx
	neg	bh
	xor	eax,edx
	sub	al,ch
	jmp	00402534
00402309                            D0 F4 07 D0 BF                ..... 

fn0040230E()
	or	dh,ch
	not	bh
	add	dl,al
	neg	ah
	mov	dl,E1
	add	edx,ebx
	mov	eax,ecx
	dec	al
	sbb	al,31

l00402320:
	xor	[edi],ecx
	mov	ch,[edi+08]
	add	[eax],al

l00402327:
	xchg	ecx,ecx
	push	ax
	pop	ax
	jpo	00402B96

l00402333:
	pop	ebp
	jmp	00402320
00402336                   E4                                  .        

l00402337:
	dec	bl
	mov	edi,edx
	sub	bl,ch
	add	bh,bl
	sbb	bl,26
	sub	ebx,esi
	xor	bl,dh
	dec	bl
	jmp	004026CD
0040234D                                        8D 41 C8              .A.
00402350 98 8A 34 FE CA FF D0 B6 F4 B1 1A 2A F9 80 D5 04 ..4........*....
00402360 0B D7 80 C7 E1 03 CF E9 A1 06 00 00 3D 0C C7 66 ............=..f
00402370 6B EE 7E                                        k.~            

l00402373:
	mov	edi,ebx
	mov	esi,eax
	or	ch,cl
	dec	edi
	add	dl,7E
	sub	cl,ah
	inc	edi
	jo	004028C4

l00402386:
	lea	eax,[eax]
	lea	edx,[edx]
	jno	004028C4

l00402390:
	call	far 4C65:CDF1
	dec	al
	add	eax,esi
	dec	eax
	sbb	al,6F
	or	al,cl
	sbb	al,E9
	jle	004022DF
	rep	
	jg	004022DF
	int	11
	in	al,dx
	and	[ebx+807C7819],ch

l004023B7:
	add	bl,BE
	or	edi,esi
	xor	bh,dl
	inc	dh
	movzx	edx,al
	sub	bh,dl
	jmp	00402C23
004023CA                               A5 42 C8 E3 6D 8D           .B..m.
004023D0 64 24 04 03 D1 33 FB 8B CE 0A F8 B1 7F 03 C3 8A d$...3..........
004023E0 C5 0A C1 03 F0 0F 8A 08 08 00 00 7B 00 0F 8B 00 ...........{....
004023F0 08 00 00 FB 30 93 87 BF E2 A2                   ....0.....     

l004023FA:
	mov	bl,al
	sub	dh,bh
	xor	al,ah
	push	ecx
	add	ah,bh
	dec	dl
	add	dh,B0
	jbe	00402874

l0040240E:
	repne	
	xchg	dl,dl
	ja	00402874
	in	eax,B4
	adc	[eax+esi+3E],edx
	push	esi
	push	edx

fn0040241F()
	or	eax,edx
	or	ah,ch
	mov	dh,dl
	add	ebx,esi
	sub	esi,edi
	xor	esi,edx
	not	dh
	jc	00402507

l00402433:
	mov	bl,bl
	jnc	00402507

l0040243B:
	sbb	[eax+ecx+67],ah

fn0040243F()
	mov	ebp,F6D98A47
	aam	5E
	dec	edi
	dec	bl
	jmp	004027B8
0040244E                                           C6 A9               ..
00402450 82 C5 6B                                        ..k            

fn00402453()
	inc	dl
	adc	dl,BC
	neg	dh
	xor	al,ah
	sub	edx,ebx
	mov	dh,bh
	sub	eax,ebx
	call	00402BB8
	mov	bl,B1
	wait	
	xchg	eax,ebx
	mov	bl,E1

fn0040246D()
	lea	esp,[esp+04]
	sub	bl,dl
	sbb	bh,E4
	not	dl
	mov	edx,ebx
	dec	ebx
	add	ebx,edi
	sub	ebx,edx
	add	bl,87
	mov	dl,dh
	call	00402E0A
	lock	
	jbe	0040243F

l0040248C:
	daa	
	sahf	
	fimul	dword ptr [edi+02EC2444]

fn0040248F()
	pop	dword ptr [esp-14]
	add	bl,cl

fn00402494()
	fld	dword ptr [eax+D98BA2DB]
	dec	bl
	mov	dh,cl
	mov	edi,edx
	jl	00402674

fn004024A6()
	xchg	ch,ch
	jge	00402674

l004024AE:
	xor	al,75
	xchg	[edi+D8F64A2B],ch
	sub	edx,edi
	add	edx,edi
	add	eax,edi
	mov	[ecx],bl
	adc	dl,77
	sbb	ah,6B
	dec	eax
	jbe	00402D17

l004024CB:
	rep	
	ja	00402D17
	ja	0040248A
	illegal	
	push	ds
	or	[esi-0A],edx
	fbstp	tword ptr [edx]
	enter	FE02,80
	illegal	
	add	[edx+81E846DC],ecx
	add	al,00
	add	[esi+50],cl
	or	dword ptr [esi+DD8AF802],2B

fn004024EE()
	add	bh,al
	mov	bl,ch
	sub	esi,edx
	mov	ebx,edx
	inc	ebx
	mov	eax,ecx
	or	esi,eax
	jmp	0040210C
00402500 29 A3 1F EA 7E 29 28                            )...~)(        

l00402507:
	dec	bl

fn00402509()
	dec	ecx
	mov	dh,71
	add	ah,5B
	sub	ebx,eax
	inc	eax
	mov	bl,DB
	or	edx,eax
	js	0040208B

l0040251C:
	jmp	00402522
00402521    FF                                            .             

l00402522:
	jmp	00402527

l00402527:
	jns	0040208B

l0040252D:
	push	ADAFC94B
	mov	[80C0FE3B],eax

fn00402534()
	inc	al
	add	ah,86

fn00402537()
	les	eax,[esi+C202C60B]
	inc	edx
	sub	al,cl
	or	eax,edi
	inc	eax
	dec	dh
	or	al,dl
	jmp	0040230E
0040254C                                     86 D7 2A 1E             ..*.
00402550 58                                              X              

l00402551:
	inc	bl
	add	bl,bh
	dec	bh
	or	ebx,edi
	add	edi,ebx
	mov	edi,edx
	sub	ebx,edx
	call	00402C7C
	cmp	bh,[eax+6B2C1800]

fn0040256A()
	sub	edx,eax
	add	al,bh
	mov	al,61
	add	ah,E9
	sub	eax,ebx
	sub	eax,esi
	jle	00402E2A

l0040257D:
	js	0040257F

l0040257F:
	jg	00402E2A

l00402585:
	shr	[eax],cl
	dec	edi
	illegal	
	adc	bl,32
	dec	bh
	not	al
	dec	cl
	dec	edx
	inc	eax
	jl	00402951
	push	si
	pop	si
	jge	00402951
	pop	ss
	fsub	st(0),st(2)
	lodsd	
	jpo	004025DE

fn004025AA()
	xor	ebx,ecx
	mov	edx,eax
	add	ah,ch
	sub	edi,ecx
	add	dl,bh
	dec	edi
	add	bl,dh
	xor	edi,edx
	mov	edi,E1D2C5FA
	call	004021D3
	adc	[eax+0B],esi
	inc	eax
	lahf	

fn004025C8()
	pop	dword ptr [esp-14]
	mov	bh,2D
	lea	eax,[eax+78]
	inc	bl
	dec	edi
	adc	bh,36
	adc	bl,D3
	dec	edi
	jmp	00402074
004025E0 CE B9 7F F9 A1 03 CD EC 87 0C 24 73 00 F3 59 8A ..........$s..Y.
004025F0 FE FE C7 03 DE 43 32 FE F6 DB 81 C2 30 00 00 00 .....C2.....0...
00402600 0F 80 23 04 00 00 7C 00 8A FF 0F 81 19 04 00 00 ..#...|.........
00402610 89 8D 65 A6 23 88                               ..e.#.         

fn00402616()
	neg	bh
	pop	edx
	dec	edi
	inc	edi
	adc	bh,10
	sbb	bh,D6
	dec	bh
	neg	bh
	or	bl,dh
	inc	bh
	jbe	0040221F

l0040262F:
	jle	00402631

l00402631:
	mov	dh,dh
	ja	0040221F

l00402639:
	dec	esi
	lodsb	
	jpe	00402692

l0040263D:
	push	edi
	aas	
	and	eax,F6FB2A75

fn00402641()
	sub	bh,bl
	neg	bl
	not	bh
	add	bh,cl
	dec	edi
	mov	bh,68
	sub	ebx,ecx
	add	bh,bl
	call	00402CFB
	jmp	far 487F:62D7

fn00402659()
	dec	eax
0040265A                               F6 DB 03 DF 32 E5           ....2.
00402660 F6 D0 2A E6 2B F8 32 D9 E9 EB 00 00 00          ..*.+.2......  
0040266D                                        B1 14                 ..

fn0040266F()
	cwde	
	push	es
	add	[edx+2BF50228],ecx

fn00402674()
	add	dh,ch
	sub	edi,edx

fn00402677()
	cli	
	sbb	dl,BB
	xor	dh,dl
	xor	edi,esi
	mov	dl,EF
	or	bh,al
	call	00402B74

fn00402688()
	mov	bh,63
	fldenv	word ptr [ebx]
	and	al,9E
	loope	0040266B

fn00402690()
	inc	cl

fn00402692()
	dec	cl
	inc	ch
	push	40
	sub	ecx,eax
	add	ebx,esi
	adc	al,3B
	adc	ch,D2
	mov	al,6A
	call	004029B3

fn004026A9()
	loope	0040266F

fn004026AB()
	sub	al,BC

fn004026AD()
	or	bl,cl
	xor	edi,eax
	or	bl,dl
	sub	ebx,eax
	xor	edi,ebx
	mov	eax,[eax]
	sub	ebx,ecx
	jl	00402551

l004026C1:
	mov	cl,cl
	jge	00402551

l004026C9:
	enter	EAB4,73

fn004026CD()
	movzx	ebx,ah
	dec	edi
	mov	edi,ebx
	inc	esi
	dec	esi
	inc	edi
	sub	esi,eax
	jmp	00402846
004026DD                                        37 E8 9B              7..
004026E0 3E 98 D6 F7 3A                                  >...:          

l004026E5:
	neg	bh
	push	dword ptr [eax+10]
	mov	bl,bh
	xor	bl,dh
	or	bl,bh
	sub	bl,al
	add	ebx,ecx
	jmp	00402166
004026F9                            5A 86 F4 CF 13 CD DF          Z......

fn00402700()
	mov	[esp],edx
	mov	ax,ax
	repne	
	pop	edx
	neg	al
	neg	al
	mov	ah,dh
	xor	al,ch
	xor	al,ah
	inc	eax
	call	00402DE8
	jl	0040276A
	cmp	al,0B
	jmp	far DFF6:4752

fn0040271E()
	inc	edi
	neg	bh
	xor	ebx,edx
	neg	bl
	not	bl
	mov	ebx,edi
	adc	bh,1D
	add	bh,B9
	add	edi,eax
	jmp	004026E5
00402733          3E F9 26 3D 89 1C 24 66 8B C9 50 58 5B    >.&=..$f..PX[
00402740 FE C5 33 FB B3 BF 49 8B 02 80 C3 8C E8 82 04 00 ..3...I.........
00402750 00 37 6E 30 91 41 32 4A                         .7n0.A2J       

fn00402758()
	sub	eax,edx
	add	al,E7

fn0040275C()
	out	2B,al

fn0040275D()
	sub	edx,edi
	neg	ah
	sbb	al,59
	inc	ah
	sub	edi,ebx
	sub	bh,ch
	or	edi,edx
	jmp	00402E7B
00402771    0A E5 A6 E7 A1 76 50                          .....vP       

fn00402778()
	xchg	[esp],eax
	jmp	00402780

l00402780:
	repne	
	pop	eax
	add	dh,2E
	ror	bh,0B
	adc	al,2C
	dec	al
	inc	dh
	jmp	00402AB9
	not	dword ptr [eax]
	cdq	
	lds	ecx,[ecx+F2F22404]

fn00402798()
	mov	[esp],eax
	repne	
	repne	
	pop	eax
	or	ecx,esi
	add	bl,E8
	add	ch,al
	neg	cl
	dec	cl
	sub	ch,dh
	call	004025E8
	push	esi
	aaa	

fn004027B2()
	js	0040275C

l004027B4:
	out	dx,al
	idiv	dword ptr [esi+23]

fn004027B8()
	inc	bh
	xor	edi,ebx
	xor	ebx,esi
	sub	edx,ecx
	sbb	dh,5F
	adc	dl,68
	jle	00402659

l004027CC:
	jmp	004027D1

l004027D1:
	jno	004027D3

l004027D3:
	jg	00402659

l004027D9:
	shl	bl,01
	mov	al,[332C5F0A]

fn004027E0()
	pop	dword ptr [esp-10]
	sbb	bh,2A
	shr	ecx,0F
	xor	dl,al
	or	bl,bh
	xor	eax,ecx
	inc	bl
	neg	al
	neg	bh
	jc	00402C01

fn004027FC()
	rep	
	jnc	00402C01
	pushf	
	loopne	004027B4

fn00402807()
	mov	dh,dl
	dec	edx
	adc	ah,61
	add	dl,bh
	xor	al,cl
	rol	bh,10
	sub	eax,edx
	neg	dh
	add	ah,3C
	or	dl,dh
	call	00402CE0
	sub	eax,BA33AB64
	jns	004027B2

fn00402828()
	mov	[esp],edx

fn00402829()
	adc	al,24
	push	di
	pop	di
	pop	edx
	xor	bh,dh
	or	esi,eax
	xor	esi,edi
	adc	bl,09
	sub	esi,eax
	or	eax,eax
	jmp	00402125
00402842       B2 4A 8F B0                                 .J..         

fn00402846()
	shr	eax,10
	sub	edi,ecx
	sub	esi,edx
	dec	esi
	dec	esi
	add	eax,edx
	jmp	00402A63
00402856                   F6 20 02 BB                         . ..     

fn0040285A()
	lea	esp,[esp+04]
	inc	edi
	not	bh
	mov	edi,edx
	add	bh,51
	mov	ebx,esi
	jmp	004021B3
0040286D                                        5A 54 77              ZTw
00402870 0B 7B DC DC                                     .{..           

fn00402874()
	not	dl
	inc	eax
	or	al,ah
	dec	bl
	inc	bl
	not	dh
	js	00402C9A

l00402885:
	rep	
	jns	00402C9A
	jmp	6DFD2C78
	aaa	
	push	ds
	sbb	eax,[ecx+000BC3C1]

fn00402894()
	add	ecx,00000BC3
	xor	edi,edx
	sub	eax,ebx
	xor	edx,ecx
	inc	bl
	dec	ebx
	add	ah,bh
	add	dl,9E
	neg	bh
	add	eax,edi
	jle	004023FA

l004028B2:
	repne	
	xchg	bx,bx
	jg	004023FA
	cwde	
	jbe	0040293B
	lahf	
	mov	ch,A5
	call	dword ptr [ebx]

fn004028C4()
	not	bh
	not	al
	or	dh,cl
	sbb	ch,C6
	not	dh
	dec	ecx
	neg	bh
	pop	ecx
	sbb	dl,E2
	inc	dl
	jmp	0040241F
004028DD                                        55 BD 13              U..
004028E0 60 D3                                           `.             

fn004028E2()
	mov	[esp],eax
	jmp	004028EB
004028EA                               AE                          .    

l004028EB:
	pop	eax
	add	bl,dl
	mov	ebx,eax
	or	bh,ch
	add	edi,edx
	dec	bl
	js	004024EE

l004028FC:
	rep	
	jns	004024EE
	jmp	0040293F
	xor	ebp,esi
	or	eax,2BDF8BD2
	fdivr	st(0),st(6)
	int	80
	lds	esi,[edi+D40AF50A]
	inc	bl
	xor	eax,edi
	mov	cl,2A
	inc	dh
	jc	00402B3C
	xchg	ax,ax
	repne	
	jnc	00402B3C
	cwde	
	mov	al,58
	leave	
	wait	
	sub	byte ptr [ebp+08C08325],33

fn00402936()
	add	eax,08
	xor	edi,esi
	add	esi,eax
	mov	bh,ch
	dec	bh
	add	bl,0F
	sub	bl,dl
	jmp	004026AD
0040294B                                  F1 97 EB 35 47            ...5G
00402950 21 2A C4 0A E2 2B F1 0B D9 B3 00 F6 DC 8B F2 0A !*...+..........
00402960 EA 46 EB A5 9F 89 DB EC DD 78 8D 8D 64 24 04 4B .F.......x..d$.K
00402970 80 D5 40 49 FE CD 8B DE 03 D9 B3 22 32 D8 F6 DA ..@I......."2...
00402980 0F 88 C1 00 00 00 66 57 66 5F 0F 89 B7 00 00 00 ......fWf_......
00402990 CF 8E 96 5E C5 ED                               ...^..         

fn00402996()
	xor	ebx,ecx
	adc	bl,23
	neg	dl
	add	dh,ch
	inc	dh
	or	esi,edi
	inc	edi
	or	bh,cl
	mov	bl,bh
	jmp	004023B7
004029AD                                        DE C6 0C              ...
004029B0 3F 85 36                                        ?.6            

fn004029B3()
	lea	esp,[esp+04]
	adc	al,17
	neg	ch
	dec	al
	sub	bl,bh
	xor	al,dl
	or	ch,dh
	push	00003000
	dec	edx
	jmp	004021F9
004029CF                                              DF                .
004029D0 86 8F 05 96                                     ....           

fn004029D4()
	adc	bl,65
	mov	bh,ah
	sub	bl,cl
	inc	bh
	inc	eax
	add	bh,dh
	jle	00402DD0

l004029E6:
	rep	
	jz	004029E9
	jg	00402DD0
	pop	dword ptr [edx+C70B48D1]

l004029F3:
	or	eax,edi
	sbb	al,0A
	mov	edx,eax
	dec	ah
	mov	eax,esi
	inc	ah
	mov	dh,AD
	jmp	004022F7
00402A07                      00 54 AD 16 64 0D 0B CF 8B        .T..d....
00402A10 F7 0B C8 FE C9 80 C2 DB 47 2A F0 FE C7 E9 97 02 ........G*......
00402A20 00 00 2D 4F B8 2F E2 4C 0A 03 FB 80 C7 92 2A EA ..-O./.L......*.
00402A30 B7 F8 0B FA 03 D9 2A DC 32 CE 2B D8 E8 F6 FC FF ......*.2.+.....
00402A40 FF DC CF 18 37 38 78 F6 DE 8A F7 8B C8 03 DE 2A ....78x........*
00402A50 C3 80 D3 9B F6 D7 B3 87 0A FA E9 37 04 00 00 EF ...........7....
00402A60 36 03 DC                                        6..            

l00402A63:
	dec	esi
	add	esi,ecx
	or	edi,ecx
	add	esi,edx
	add	eax,ebx
	xor	esi,eax
	call	00402EAD
	xchg	eax,ebx
	mov	edx,F18A9CF5

fn00402A77()
	mov	dh,cl
	add	al,B2
	add	eax,ecx
	xor	dl,cl
	neg	dh
	inc	esi
	mov	ah,09
	jpe	0040205B

fn00402A8B()
	mov	ebx,ebx
	repne	
	jpo	0040205B
	sub	ecx,[esi-6A]
	mul	byte ptr [eax]
	xchg	eax,ecx
	cmp	ch,[edx]

fn00402A9C()
	dec	edi
	inc	dl
	inc	ecx
	add	edi,ecx
	mov	ch,56
	add	dh,al
	neg	dh
	xor	edx,ecx
	inc	eax
	inc	ebx
	jmp	00402690
00402AB1    65 DC 0A DC A0 C4 A4 AA 0B D7 B6 23 FE C6 8B  e..........#...
00402AC0 C2 F6 DE 8A F5 33 C2 F6 D0 E8 43 F5 FF FF B8 68 .....3....C....h
00402AD0 92 B6                                           ..             

l00402AD2:
	sub	ebx,edx
	dec	bh
	xor	edi,edx
	sub	bl,ch
	xor	edi,ecx
	inc	bh
	sbb	bl,F8
	xor	bh,ch
	add	eax,[eax+3C]
	neg	bl
	call	0040285A
	push	ebp
	retf	
00402AEF                                              A5                .
00402AF0 7D 32                                           }2             

fn00402AF2()
	xchg	[esp],ecx
	mov	bx,bx
	mov	eax,eax
	pop	ecx
	mov	dh,cl
	dec	bl
	neg	bl
	jz	00402996

l00402B07:
	jmp	00402B0D
00402B0C                                     A5                      .  

l00402B0D:
	mov	si,si
	jnz	00402996

l00402B16:
	add	[ebp+6D570968],dh
	jmp	far DBF6:F90A

fn00402B1D()
	or	bh,cl
	neg	bl
00402B21    B7 82 FE C7 4F 32 FD 80 C7 2E 4E 8A FE 02 FB  ....O2....N....
00402B30 E8 5A 02 00 00 3D AB C0 5A 1B FD 10 2A CF       .Z...=..Z...*. 
00402B3E                                           B0 C7               ..
00402B40 80 D2 06 FE C1 80 C0 B5 80 C1 AF 8A C5 C3 80 DB ................
00402B50 A9 E8 79 F8 FF FF 6F 33 6A B0                   ..y...o3j.     

fn00402B5A()
	lea	esp,[esp+04]
	add	bl,bh
	not	bl
	add	edi,ebx
	or	bh,ah
	mov	bh,ah
	sub	bh,cl
	push	dword ptr [edx+08]
	jmp	00402B1D
00402B6F                                              38                8
00402B70 45 A5 70 9A                                     E.p.           

fn00402B74()
	lea	esp,[esp+04]
	or	al,bh
	xor	al,ah
	mov	ebx,edi
	mov	bl,43
	add	ebx,ecx
	add	ah,D1
	xor	eax,edx
	sub	bl,dl
	jmp	004025AA
00402B8E                                           3D 6C               =l
00402B90 C0 20 FF ED 2C E7                               . ..,.         

l00402B96:
	adc	dl,1B
	sub	edx,eax
	inc	dl
	adc	ah,48
	or	eax,esi
	xor	dh,ah
	add	eax,esi
	dec	edx
	add	edx,esi
	sbb	ah,31
	jmp	00402C5D
00402BB1    8B 6C 10 86 C7 57 98                          .l...W.       

fn00402BB8()
	pop	dword ptr [esp-20]
	mov	edx,edi
	or	eax,esi
	xor	eax,esi
	add	ah,dh
	mov	al,6F
	or	eax,ecx
	call	00402700
	jmp	far 3927:1074
00402BD2       4B 8F 44 24 DC 8A CD 0A F7 8A CE 02 CC F6   K.D$..........
00402BE0 DB 80 D5 14 8A EE 0B DE FE C2 E9 E1 02 00 00 FA ................
00402BF0 6C 30 24 2B F0 FE CD 49 47 41 0A D3 4B 0B DF 03 l0$+...IGA..K...
00402C00 F8                                              .              

fn00402C01()
	add	bh,ch
	add	al,6C
	add	dh,07
	add	ah,cl
	shl	ecx,0F
	adc	bl,6F
	xor	ebx,esi
	xor	dh,ah
	adc	ah,D7
	call	00402D36
	loope	00402C99

l00402C1F:
	adc	ebx,[ecx]
	shl	bl,01

fn00402C23()
	sbb	bl,F7
	sub	bh,bl
	dec	bl
	mov	bl,al
	add	bl,al
	dec	ebx
	jmp	00402337
00402C34             DB BE 97 E9 D4 6F 6A                    .....oj    

fn00402C3B()
	adc	dh,21
	sub	eax,edx
	mov	dl,ch
	not	ch
	mov	dl,bh
	dec	ecx
	jo	00402275

l00402C4D:
	mov	ah,ah
	xchg	dx,dx
	jno	00402275

l00402C58:
	imul	ebp,[803915A2],57B01CEF

fn00402C5D()
	sub	bh,1C
	mov	al,57
	inc	eax
	adc	al,18
	or	edx,esi
	dec	al
	add	dh,cl
	sbb	al,8F
	jmp	004022C0
00402C74             AC 19 DE 4C 44 9C 31 DE                 ...LD.1.   

fn00402C7C()
	pop	dword ptr [esp-34]
	neg	bl
	xor	esi,edx
	add	ebx,eax
	not	bl
	add	eax,ecx
	inc	esi
	sub	bl,dh
	jmp	0040271E
00402C92       10 3E EA 5B CD 7E 93                        .>.[.~.      

l00402C99:
	sub	esi,esi

l00402C9A:
	neg	bl

l00402C9B:
	fld	tword ptr [edx]
	out	80,al
	ficomp	word ptr [ebx+ebp]
	cli	
	sub	ebx,edi
	inc	dl
	not	dl
	sub	ecx,00000BC3
	call	0040248F
	arpl	[ecx+ebx*4+62],bx
	bound	esi,esi
	ror	[edx+0BD18BCA],cl
	enter	D3F6,89
	inc	esp
	and	al,F8
	sbb	cl,76
	dec	cl
	jbe	004024D9
	mov	edi,edi
	ja	004024D9
	or	al,35
	js	00402C67
	pop	edi
	jmp	00402C6E

fn00402CE0()
	lea	esp,[esp+04]
	inc	edx
	add	ah,BC
	inc	ah
	sub	eax,edi
	neg	al
	jmp	00402D76
00402CF3          BE 7F A2 A4 99 81 F0 DF                   ........    

fn00402CFB()
	xchg	[esp],edx
	mov	bl,bl
	pop	edx
	add	bh,al
	sub	edi,esi
	xor	eax,FFFFFEC8
	sub	bh,dl
	dec	esi
	call	00402DAE
	mov	bl,CF
	call	far C38A:738F

l00402D17:
	mov	al,bl
	dec	eax
	sbb	al,0E
	neg	dh
	xor	dl,bl
	dec	dh
	dec	eax
	add	dh,A4
	adc	dl,5A
	add	al,bh
	jmp	00402A77
00402D31    45 E3 62 F4 46                                E.b.F         

fn00402D36()
	pop	dword ptr [esp-24]
	dec	al
	or	dh,cl
	add	ah,90
	mov	bl,dl
	inc	bl
	mov	bl,bh
	dec	bl
	add	bh,ah
	mov	bl,al
	jmp	0040218D
00402D52       84 2B 1E 87 27                              .+..'        

fn00402D57()
	sub	ah,dl
	mov	edx,ebx
	dec	ah
	neg	al
	neg	ah
	sbb	al,C9
	dec	edi
	not	dh
	add	edx,ecx
	sbb	dh,1C
	jmp	00402453
00402D71    3C 47 81 5E C5                                <G.^.         

l00402D76:
	mov	al,8F
	mov	eax,ebx
	inc	eax
	add	al,dh
	inc	edx
	neg	al
	xor	eax,ecx
	or	ah,dl
	call	00402778
	sub	esp,[esi+1C]
	sbb	eax,448FFDA7

fn00402D8F()
	pop	dword ptr [esp-14]
	sbb	bh,33
	add	bl,dh
	dec	bh
	dec	ebx
	mov	bh,dh
	add	bh,ah
	inc	bh
	call	004025C8
	lock	
	adc	esp,ebx
	test	edi,ebp
	sbb	eax,648D6F98

fn00402DAE()
	lea	esp,[esp+04]

fn00402DB0()
	and	al,04
	add	bl,ch
	mov	bl,41
	add	bl,C4
	xor	esi,ebx
	adc	bh,71
	sub	bl,al
	xor	bl,ch
	xor	edi,ebx
	dec	edi
	call	004022A1

fn00402DCA()
	adc	eax,6795012D
	xor	[edx],ecx

fn00402DD0()
	or	bl,dl

fn00402DD1()
	fimul	dword ptr [edx+B6D303C6]
	add	bl,[eax+03]
	sar	esi,cl
	ret	F92A
00402DDF                                              E8                .
00402DE0 0E FD FF FF E9 CE 9C 4D 8F 44 24 D8 FE C4 B0 59 .......M.D$....Y
00402DF0 80 D4 98 48 81 EA 74 43 42 5E B0 AF 02 E1 02 C5 ...H..tCB^......
00402E00 E9 90 F5 FF FF D9 41 32 3B 67                   ......A2;g     

fn00402E0A()
	lea	esp,[esp+04]
	neg	bl
	adc	ah,47
	sub	eax,ebx
	mov	al,cl
	adc	dh,E8

l00402E18:
	illegal	
	call	E8FEF09E
	and	[eax],eax
	add	[eax],al
	jnc	00402E5D

l00402E24:
	push	ds
	xor	cl,[ebx-6B]
	push	esp
	lodsb	

fn00402E2A()
	xor	dh,al
	inc	ecx
	mov	ah,70
	mov	ah,B1
	dec	al
	sub	edx,ebx
	mov	dl,ch
	jmp	00402D57
00402E3C                                     04 4B 4F 1D             .KO.
00402E40 D5 1B 79                                        ..y            

fn00402E43()
	pop	dword ptr [esp-18]
	sub	al,bl
	sbb	dh,5A
	mov	eax,esi
	xor	ebx,edx
	dec	bh
	mov	dl,7C
	sbb	dl,E5
	jmp	00402E60
00402E59                            F9 F5 E9 D6                   ....  

l00402E5D:
	jbe	00402E89

l00402E5F:
	jnc	00402E18

l00402E60:
	mov	bh,B5

fn00402E61()
	mov	ch,80
	illegal	
	imul	edi,esi,CB
	sub	ah,al
	mov	bh,[esi]
	inc	dl
	add	al,bl
	jmp	004029F3
00402E74             0F 0B A2 52 67 E2 AA                    ...Rg..    

fn00402E7B()
	sub	dh,bl
	or	dl,bl
	dec	ebx
	neg	bl
	xor	edi,ecx
	mov	ebx,edx
	xor	ah,dh
	add	edi,edx

fn00402E89()
	cli	
	jmp	00402894
00402E8F                                              7F                .
00402E90 03 F6 B6 27 5B 5C 48 80 DE BB 2B FA FE C0 F6 DC ...'[\H...+.....
00402EA0 F6 D6 E9 99 F5 FF FF A2 DC 6B 2B CC 74          .........k+.t  

fn00402EAD()
	xchg	[esp],eax
	lea	di,[edi]
	mov	cl,cl
	pop	eax
	sbb	bh,CB
	add	ebx,edi
	xor	bh,dl
	add	edi,ecx
	adc	bh,0A
	mov	bh,dl
	jmp	00402641
00402EC9                            AE F5 52 C3 A6 DF 23          ..R...#
00402ED0 80 D5 36 02 FB 80 D7 2E F6 DF 33 DF 80 D3 B1 6A ..6.......3....j
00402EE0 00 E9 F4 F1 FF FF 93 8A 6E D0 00 00 00 00 00 00 ........n.......
00402EF0 00 00 00 00 00 00 00 00 00 00 00 00 00 00 00 00 ................
00402F00 00 00 00 00 00 00 00 00 00 00 00 00 00 00 00 00 ................
00402F10 00 00 00 00 00 00 00 00 00 00 00 00 00 00 00 00 ................
00402F20 00 00 00 00 00 00 00 00 00 00 00 00 00 00 00 00 ................
00402F30 00 00 00 00 00 00 00 00 00 00 00 00 00 00 00 00 ................
00402F40 00 00 00 00 00 00 00 00 00 00 00 00 00 00 00 00 ................
00402F50 00 00 00 00 00 00 00 00 00 00 00 00 00 00 00 00 ................
00402F60 00 00 00 00 00 00 00 00 00 00 00 00 00 00 00 00 ................
00402F70 00 00 00 00 00 00 00 00 00 00 00 00 00 00 00 00 ................
00402F80 00 00 00 00 00 00 00 00 00 00 00 00 00 00 00 00 ................
00402F90 00 00 00 00 00 00 00 00 00 00 00 00 00 00 00 00 ................
00402FA0 00 00 00 00 00 00 00 00 00 00 00 00 00 00 00 00 ................
00402FB0 00 00 00 00 00 00 00 00 00 00 00 00 00 00 00 00 ................
00402FC0 00 00 00 00 00 00 00 00 00 00 00 00 00 00 00 00 ................
00402FD0 00 00 00 00 00 00 00 00 00 00 00 00 00 00 00 00 ................
00402FE0 00 00 00 00 00 00 00 00 00 00 00 00 00 00 00 00 ................
00402FF0 00 00 00 00 00 00 00 00 00 00 00 00 00 00 00 00 ................
00403000 61 FF E9 52 00 68 CE C0 72 48 FF 00 CC 06 FF B4 a..R.h..rH......
00403010 00 1C AD 97 FA 6B 9D 47 76 00 00 88 9C 79 38 93 .....k.Gv....y8.
00403020 0E AB FF ED EA BC 3A 28 FF AB 19 7A B8 9A C0 E0 ......:(...z....
00403030 00 A0 31 00 F0 35 96 00 C0 FE 39 08 00 98 B9 0F ..1..5....9.....
00403040 5C EC 10 5F E0 CD 38 7D 00 40 B8 23 C2 9C F0 60 \.._..8}.@.#...`
00403050 00 00 9C 1B 1D 62 69 D3 83 04 36 35 CB AD 32 08 .....bi...65..2.
00403060 F7 2C 3A 00 70 BE 00 C1 DB 8A F7 5A 76 8A 7F 64 .,:.p......Zv..d
00403070 C0 00 87 16 92 FF 23 22 FF 00 D9 D1 88 22 40 EC ......#"....."@.
00403080 00 B2 7A 00 68 00 DB 44 16 0E 00 67 00 04 4C 7A ..z.h..D...g..Lz
00403090 3C F9 B2 F8 2C 98 3F FB 08 39 44 AC 18 CA CF 20 <...,.?..9D.... 
004030A0 82 3D 04 3C FE 5E 3E FF FF 06 39 D3 00 91 C2 B1 .=.<.^>...9.....
004030B0 FF F8 1E D1 1B 7A 72 B3 71 3C C2 22 3D FF B4 DA .....zr.q<."=...
004030C0 57 F8 98 00 3E 38 3D 9A 70 1E 00 00 74 FC 32 5D W...>8=.p...t.2]
004030D0 00 63 25 D5 E2 4D 3E B1 D0 8F 20 27 EF 47 47 FB .c%..M>... '.GG.
004030E0 32 3B 9F C9 00 12 CC 58 E9 46 AB 00 F3 31 00 02 2;.....X.F...1..
004030F0 11 FF 61 14 6C 5B A9 B8 FF EC F4 60 F8 B1 BE 00 ..a.l[.....`....
00403100 5B 8F 74 EF CE 37 63 43 CA 2C 2A 43 00 29 D7 0C [.t..7cC.,*C.)..
00403110 E0 C0 00 78 39 A8 E2 53 6F 09 00 4E E0 A3 88 A3 ...x9..So..N....
00403120 00 61 7C 11 00 86 D7 EF FF B1 00 AC CD CB AC B7 .a|.............
00403130 40 04 4F 9C F3 10 D3 FF F9 35 FD 59 00 EC 2B 00 @.O......5.Y..+.
00403140 8B D7 FE D9 00 75 82 00 BA 80 E2 F2 EB EF F1 CB .....u..........
00403150 C8 5E 07 0E 10 00 88 A9 5A D2 BF 6D B1 8A DE C7 .^......Z..m....
00403160 00 00 26 2B D9 49 1F 34 F4 0C E3 D3 FE 05 CE CC ..&+.I.4........
00403170 26 47 7A 6C CF 3D 00 19 D1 4F A7 00 2C 00 00 06 &Gzl.=...O..,...
00403180 17 4B DB C0 30 00 FE 3F 0F D0 5C FD 00 39 18 02 .K..0..?..\..9..
00403190 5D FC C6 21 FF 1B 3C 16 02 E4 DA 53 2E C7 39 03 ]..!..<....S..9.
004031A0 30 00 4B 8C 04 50 FF 00 4E 31 5C 00 C0 C3 8C 90 0.K..P..N1\.....
004031B0 4F B7 08 FF 23 90 4E 24 45 2E 34 20 1C 78 20 FF O...#.N$E.4 .x .
004031C0 48 33 00 00 81 31 E9 60 AA 42 E9 CB 8B D0 D8 94 H3...1.`.B......
004031D0 DB 3D 85 EA FF FF 05 75 02 ED 3A 20 D9 FD C7 ED .=.....u..: ....
004031E0 C0 5A F3 6F 94 00 A0 D3 C3 71 A4 26 13 2D 4F B4 .Z.o.....q.&.-O.
004031F0 2A 07 98 A6 E3 E0 AE 12 0D 9F 63 F7 2A 90 ED 3C *.........c.*..<
00403200 93 26 F1 00 05 93 18 D5 BC BB 31 16 A3 65 8A 11 .&........1..e..
00403210 00 92 7F 00 13 B7 FF 89 33 41 4C 4B B0 E9 57 00 ........3ALK..W.
00403220 A0 12 C5 33 FB 28 A1 9F 00 00 32 8D 2D 8F 0D 46 ...3.(....2.-..F
00403230 15 E5 00 C6 94 00 02 0E 1D 8A F7 EB ED 02 20 00 .............. .
00403240 A6 3B 8A 00 24 00 00 20 DB 79 46 FD D0 97 00 13 .;..$.. .yF.....
00403250 D5 00 00 00 15 00 10 60 2B 2F 5B 8F F6 00 A7 FF .......`+/[.....
00403260 00 E5 1C 00 2F F6 FF 20 FF 33 00 22 6E 3F 05 D5 ..../.. .3."n?..
00403270 FE 40 17 0D CD 24 08 9E FF 97 ED C3 01 F1 1E FF .@...$..........
00403280 00 27 03 FE 00 EE 59 82 EA 5A C0 03 00 C3 C1 E6 .'....Y..Z......
00403290 09 71 26 6B 00 28 8F FF F2 00 24 F8 00 00 0D 6D .q&k.(....$....m
004032A0 8D 05 07 19 D9 96 BF 95 CC 23 10 FF C7 41 1E 7B .........#...A.{
004032B0 F2 3C 80 FB 9F B4 D6 A6 F0 27 C5 30 C9 54 22 A1 .<.......'.0.T".
004032C0 00 68 63 7C 5B 41 FC 7D 61 10 24 00 00 C8 4E 3C .hc|[A.}a.$...N<
004032D0 57 07 80 C0 FE 00 9F 3C A7 22 00 00 E1 42 10 FF W......<."...B..
004032E0 FF 04 00 00 3A E3 AE A0 EB 62 74 80 4A 21 C4 45 ....:....bt.J!.E
004032F0 EA D2 C0 FF F0 86 79 47 02 90 C9 8B AD FC F2 8A ......yG........
00403300 FD 8F 0F 81 72 9A 81 C9 15 1C 08 45 56 00 45 06 ....r......EV.E.
00403310 17 E8 A9 95 A3 13 F7 53 9D A2 E5 CC 00 32 00 FF .......S.....2..
00403320 D9 00 E0 FF BD 0D 28 D6 68 18 67 15 D8 8C 1E 00 ......(.h.g.....
00403330 47 D5 E5 72 3E 30 70 64 F6 81 4F 04 9D 9E 2E 0C G..r>0pd..O.....
00403340 00 68 FF 7E 77 20 BE 5A A9 80 1D 93 1B DB 8D DB .h.~w .Z........
00403350 0C 8F 7D 49 E5 30 2E 7C 1E 1C 00 A3 32 C3 6B F0 ..}I.0.|....2.k.
00403360 78 AF 96 81 FF 81 00 8E 70 16 88 65 E3 2D 89 F6 x.......p..e.-..
00403370 20 24 96 12 00 47 14 00 00 39 52 0E 17 FF 0B CE  $...G...9R.....
00403380 3B 83 5E D7 93 F1 CD F0 00 25 E5 37 1E DE 49 B1 ;.^......%.7..I.
00403390 2C 91 00 03 52 00 00 A6 09 7E DE F5 59 B0 FF 67 ,...R....~..Y..g
004033A0 C4 17 C6 1A C5 10 DE DF A3 AA 26 00 49 9C D9 CE ..........&.I...
004033B0 D3 6F 1A 81 82 00 00 B2 DF 00 79 71 5D D5 B3 57 .o........yq]..W
004033C0 43 03 FF 00 5B 81 FF CD EA 61 5B 75 00 FF DC 71 C...[....a[u...q
004033D0 78 68 D1 37 B9 9C 21 69 FD E0 67 EB 01 F5 62 48 xh.7..!i..g...bH
004033E0 18 B1 9A D3 05 FF FF 00 16 5F E7 00 EE 38 80 4F ........._...8.O
004033F0 FF 5F 00 40 8E 00 B0 4C 81 04 16 41 DE 00 FF 3D ._.@...L...A...=
00403400 CC 0C 0C 61 40 98 E1 4C B3 85 FF B8 1A E0 24 AD ...a@..L......$.
00403410 9F 6B CD 20 0C 8C 74 70 88 84 00 6A FF A8 1C FC .k. ..tp...j....
00403420 00 1A 2F 3B 02 DA 74 C7 8A A4 FB 7E 7C C1 AC 23 ../;..t....~|..#
00403430 1C 03 73 00 D4 28 DE A2 47 00 33 A2 AF 03 17 9F ..s..(..G.3.....
00403440 2D 18 D1 7D 47 40 60 00 B6 87 98 00 1E 1E 25 26 -..}G@`.......%&
00403450 0C 9E C4 00 88 74 10 8D FE B1 87 00 41 00 2E 16 .....t......A...
00403460 C1 00 D3 E4 00 0C 00 24 CE 81 1C 36 75 B0 FF E8 .......$...6u...
00403470 1C 00 00 54 49 E2 00 65 ED 20 D0 00 8B 40 D0 C9 ...TI..e. ...@..
00403480 84 00 FF EF DC F6 14 CB D4 FF C9 55 7E 2C 27 96 ...........U~,'.
00403490 10 60 00 61 82 83 F0 00 34 00 44 C3 D6 77 4C C4 .`.a....4.D..wL.
004034A0 DD 20 00 00 49 87 EA 00 00 16 35 81 11 04 4D 00 . ..I.....5...M.
004034B0 42 2B 72 0E 71 A5 BC D5 00 15 FF A1 05 28 02 38 B+r.q........(.8
004034C0 83 9F 00 10 00 AA 10 44 B3 B1 D0 AB 3D 04 82 5F .......D....=.._
004034D0 B6 02 AD 60 41 A8 E0 21 EE 00 9A C1 7C C9 FD 3D ...`A..!....|..=
004034E0 96 BB 51 10 1D C1 FF 80 1A 86 C9 8A 3A 40 72 AE ..Q.........:@r.
004034F0 FF A6 BA 89 5E 6E 04 25 BD 00 BE 18 29 15 79 00 ....^n.%....).y.
00403500 28 1C 64 E6 B7 FF 4F C1 00 AD 5C 7A 0A E3 9C D1 (.d...O...\z....
00403510 15 F1 01 23 50 D3 8C F8 10 E0 30 2D EF DE D0 DA ...#P.....0-....
00403520 B1 48 B3 20 26 00 00 B7 B1 F1 8E 61 00 00 69 35 .H. &......a..i5
00403530 2E 10 7F 2D F7 66 0F B7 35 FF 67 FF 4C EB 16 98 ...-.f..5.g.L...
00403540 E0 45 C2 30 F1 00 CA 85 00 14 58 28 A2 F4 12 04 .E.0......X(....
00403550 5A 83 80 38 30 23 29 87 29 00 FF 3F DA 1E 6C 88 Z..80#).)..?..l.
00403560 40 05 3C FB 5A 00 4C 2F FF FB E4 77 7D FF 08 C0 @.<.Z.L/...w}...
00403570 3A 35 C0 00 00 1D 13 00 CA 30 26 F4 1C 0A 8B 8D :5.......0&.....
00403580 90 6A 69 36 28 FF 64 59 03 9C BE 98 FD AF 70 00 .ji6(.dY......p.
00403590 23 54 00 7F C1 CF EF 28 2B 6D 00 AB FF CF 38 8B #T.....(+m....8.
004035A0 00 53 D2 68 80 46 22 1E 7F 02 DE EC FB 08 00 FD .S.h.F".........
004035B0 B7 DF A3 3E 8D 25 AD 2E 31 DC 1C 5C 47 67 00 48 ...>.%..1..\Gg.H
004035C0 00 A3 04 3B 9A 00 80 D9 EC E8 42 FF 97 B3 CC 32 ...;......B....2
004035D0 44 C7 63 D6 99 29 EF 73 E4 44 DF 6F 27 C3 50 5F D.c..).s.D.o'.P_
004035E0 4D 7A 94 83 4A D0 31 7B E6 8C 0E 07 72 B9 DB A7 Mz..J.1{....r...
004035F0 8A 19 89 67 BC C2 79 B7 F7 77 62 89 DA 71 C4 A0 ...g..y..wb..q..
00403600 47 00 8E 00 15 23 81 02 10 4C FF FF FF 00 00 13 G....#...L......
00403610 9F 64 6E 07 07 02 9B 00 96 00 C5 D5 56 00 BA AB .dn.........V...
00403620 90 9A 0C 54 CE 6C 00 07 A9 A0 50 96 C5 00 1E E1 ...T.l....P.....
00403630 3B 3C 3E 44 B1 6A 68 DE 46 37 5B 00 0A 88 28 A6 ;<>D.jh.F7[...(.
00403640 6D C8 A8 38 36 9B 00 5D 8D A0 9B 31 0D 04 6C D9 m..86..]...1..l.
00403650 61 C5 9C C8 C0 A5 FF CE 07 00 3C 88 9E FF 80 DC a.........<.....
00403660 01 06 38 31 F1 09 71 D9 A8 DE 00 95 4A 00 9D 03 ..81..q.....J...
00403670 92 C1 8E 31 FB 86 5A 09 00 74 3B 8F 05 35 17 18 ...1..Z..t;..5..
00403680 F6 EC 00 66 00 88 46 73 E6 31 9F F7 DA 42 69 4A ...f..Fs.1...BiJ
00403690 89 0F 00 AA DA 8D 0C 73 FF 01 72 01 E4 E1 FD 00 .......s..r.....
004036A0 00 00 4B 92 B1 63 2F FB 16 1F 0F 8E 1C 00 18 00 ..K..c/.........
004036B0 B6 FF E9 00 10 FE 0C 7B 08 03 C2 00 FB E7 18 00 .......{........
004036C0 67 28 21 AC 6F B1 0C 40 FF 5C F5 53 55 35 61 0F g(!.o..@.\.SU5a.
004036D0 E6 97 F1 7F C3 77 93 AB 26 0A B4 4E 74 80 00 9C .....w..&..Nt...
004036E0 E8 58 51 C2 04 36 6F 35 49 CF 14 07 A2 24 EE 00 .XQ..6o5I....$..
004036F0 00 F1 FF A8 7D B0 E5 8A 00 D1 15 F0 23 6B 60 BF ....}.......#k`.
00403700 05 00 A6 63 FF 89 9E 5E 4E 7F B1 3B 1E 1C 1A C0 ...c...^N..;....
00403710 F4 04 BB FC 62 CB 02 6A EE A0 7C 3E 22 1E FF A3 ....b..j..|>"...
00403720 FD 18 00 F6 57 00 68 65 DF F8 DF 68 58 9C 69 9C ....W.he...hX.i.
00403730 0C 86 1F 00 2C DB C7 4D FD 89 6C F0 00 00 79 48 ....,..M..l...yH
00403740 C9 FF 39 7F 00 06 64 C9 9A EF FE 5C 00 FF 63 52 ..9...d....\..cR
00403750 BB 00 FC 60 00 00 01 3C C8 B4 41 55 C2 00 FF 4E ...`...<..AU...N
00403760 24 12 25 00 14 00 1E 0E F7 A1 81 F4 72 24 49 45 $.%.........r$IE
00403770 0F B7 B8 DA 97 05 B2 0C AD 98 DE 08 8C D3 92 5F ..............._
00403780 99 43 19 F6 B3 00 65 00 DD C4 00 57 24 4B C2 CD .C....e....W$K..
00403790 E8 FF 35 00 22 63 9C 00 CB 56 E6 D1 9E DB E4 8A ..5."c...V......
004037A0 EC D2 E9 27 00 4B E8 37 27 00 00 00 6E E7 26 17 ...'.K.7'...n.&.
004037B0 18 30 3B 00 A6 4B 1C FD 4E E7 00 12 30 DB 18 91 .0;..K..N...0...
004037C0 68 D2 24 20 07 40 B9 BD 31 00 FC 1A 91 27 49 04 h.$ .@..1....'I.
004037D0 E9 AB 00 FF D1 C7 D1 E5 AB FE BE CD 00 BD 57 FF ..............W.
004037E0 D4 B8 BF DD 35 D7 2C 63 1B 56 91 00 30 4A 00 55 ....5.,c.V..0J.U
004037F0 71 92 D2 A6 60 C1 C2 D0 48 0F 88 A3 EB 00 EC F6 q...`...H.......
00403800 3F DC FF D6 23 13 EF 00 E2 44 31 FF 55 8D 60 FF ?...#....D1.U.`.
00403810 00 90 D5 C0 47 00 51 00 A2 F6 FF 72 E6 2C 18 FF ....G.Q....r.,..
00403820 0D 54 70 00 C2 DE 13 48 A3 00 00 89 00 B1 6D FD .Tp....H......m.
00403830 61 7B C9 85 FF FC C5 00 37 78 C6 20 19 E8 08 59 a{......7x. ...Y
00403840 36 FF C4 00 5E 45 C6 00 12 FE B1 4C 31 00 00 80 6...^E.....L1...
00403850 00 C5 F1 85 71 1E 30 A3 64 BF 8C 03 41 FA FF F0 ....q.0.d...A...
00403860 F8 EF DF 90 1B FF 66 80 44 64 BF 52 B0 BB FF 30 ......f.Dd.R...0
00403870 FF 2B 89 8F 3F 8C 5F B5 56 FF B9 27 00 F8 6B 30 .+..?._.V..'..k0
00403880 E5 3F 1E 00 40 89 84 85 50 00 F5 5A 93 35 4D C9 .?..@...P..Z.5M.
00403890 B9 0D C5 7D 91 10 2D 50 A8 00 42 25 FF 63 64 74 ...}..-P..B%.cdt
004038A0 24 00 50 3F 04 B0 C7 F4 74 7D 0D D8 95 63 00 28 $.P?....t}...c.(
004038B0 E8 12 EC 9D 27 41 10 00 C4 00 FF 96 64 00 07 87 ....'A......d...
004038C0 92 00 37 CC 37 F1 30 50 00 76 00 00 DD F7 00 00 ..7.7.0P.v......
004038D0 38 FF 61 75 A4 54 16 86 E2 00 1C 72 8A 9C 14 00 8.au.T.....r....
004038E0 68 41 25 48 00 CF C2 51 B3 89 4C 00 2A 01 CD D9 hA%H...Q..L.*...
004038F0 8E 00 3D 86 38 F6 04 D6 31 10 BF 16 80 03 59 00 ..=.8...1.....Y.
00403900 6C C0 A0 7E C1 21 C7 E3 FD C2 39 B5 47 D7 D7 E1 l..~.!....9.G...
00403910 50 BE FE 18 3B 53 13 BB B2 22 00 2C D0 F4 73 27 P...;S...".,..s'
00403920 1E 00 7E CC 23 00 8F A1 F9 2C BA F4 22 D6 B6 DB ..~.#....,.."...
00403930 07 CF 08 78 49 DC E5 60 86 C9 20 F7 8D C9 99 00 ...xI..`.. .....
00403940 12 06 7F 7A 88 11 A3 FF 20 80 7D 88 00 44 91 10 ...z.... .}..D..
00403950 28 00 7F 47 00 04 00 D2 00 71 00 14 D8 4E 30 F7 (..G.....q...N0.
00403960 B1 68 8D 09 DE D1 2E 1D FF 00 96 89 6D C4 22 F8 .h..........m.".
00403970 37 02 74 42 36 DA 50 C1 95 18 09 B7 EF 29 1E 3E 7.tB6.P......).>
00403980 5D 99 D4 A0 FE 86 2F F9 4F 71 64 D6 1F E1 23 14 ]...../.Oqd...#.
00403990 69 AF F3 69 70 FF 31 B6 4D 32 00 5A 36 81 F6 90 i..ip.1.M2.Z6...
004039A0 00 F9 6F FF AB 6E BD DB 38 20 08 6F 64 4B 20 FF ..o..n..8 .odK .
004039B0 C7 6B C6 00 2F FF 99 FC D1 7F 73 00 97 1A 88 9E .k../.....s.....
004039C0 15 69 00 03 C9 CD DE FF 21 FF 00 00 EE 00 2F 96 .i......!...../.
004039D0 81 3D 87 C9 00 97 4E 30 54 E2 93 76 E7 4C E0 04 .=....N0T..v.L..
004039E0 0C 07 71 03 E6 00 96 62 06 43 26 8E FD CF 2C 45 ..q....b.C&...,E
004039F0 49 4E 86 38 1B 3D B1 0D 6E 94 31 CE 21 00 95 84 IN.8.=..n.1.!...
00403A00 19 B7 F8 00 87 0B 89 26 CC 96 AA F2 CA 8F FE 46 .......&.......F
00403A10 19 0E FF F8 D7 21 EA 26 F5 BF E2 4C FF DD 38 50 .....!.&...L..8P
00403A20 C6 83 67 C7 2E 31 AC 0A CD 88 94 8F FE C1 AE D4 ..g..1..........
00403A30 5E 36 D8 53 27 78 FF 2E 1E FF F2 FC 5B 87 ED F0 ^6.S'x......[...
00403A40 D6 ED 14 09 E4 FE 94 97 BF F4 EF D7 1C FD 00 25 ...............%
00403A50 0B 1F AE 9E 20 04 00 18 FB 87 B2 00 00 90 AD E7 .... ...........
00403A60 01 70 FF 05 D4 D0 27 60 F1 00 ED 05 C2 EB 7F 00 .p....'`........
00403A70 00 BA A3 C1 52 68 42 C2 04 B0 D4 1D 4C F8 4C E3 ....RhB.....L.L.
00403A80 05 B9 EA 99 13 40 A7 21 59 E9 00 D6 93 B4 BE 4C .....@.!Y......L
00403A90 18 A9 08 C7 5C 8F BC 1E 35 31 24 F8 0C A3 09 BE ....\...51$.....
00403AA0 A4 44 48 37 19 F1 00 FA 10 23 00 33 FE F3 A2 43 .DH7.....#.3...C
00403AB0 00 DA 00 EB CD 1B D7 00 05 B1 14 D1 00 53 F9 59 .............S.Y
00403AC0 29 30 4F 51 F1 F7 41 00 00 00 A7 F7 C1 57 08 E0 )0OQ..A......W..
00403AD0 BF 3B C0 00 E3 C7 65 00 00 18 2B DE 00 00 42 16 .;....e...+...B.
00403AE0 C2 E4 D5 66 7B C6 26 F6 2C 9D 94 00 F9 FD F3 01 ...f{.&.,.......
00403AF0 FF B8 61 E9 00 23 F8 66 D2 7A 45 00 97 1F C0 1E ..a..#.f.zE.....
00403B00 D5 C5 3A 00 94 FF 3F 46 01 48 C8 00 BD 00 00 EE ..:...?F.H......
00403B10 B1 E9 77 6B 8B 17 21 DD 44 DF 84 76 FF 4E DE 54 ..wk..!.D..v.N.T
00403B20 1D 0F 00 4A 8D BA 2A 00 51 F0 FB 42 96 76 5F D1 ...J..*.Q..B.v_.
00403B30 00 47 00 81 80 D4 8D 34 70 00 6C EF 84 70 81 DE .G.....4p.l..p..
00403B40 E0 F7 00 7F 00 00 6D 32 00 4F D9 2B D8 46 4B 33 ......m2.O.+.FK3
00403B50 E2 6E FB 5F C6 DF 60 33 36 99 73 06 6A 89 00 F2 .n._..`36.s.j...
00403B60 FD 00 7D 58 00 B1 00 B4 00 99 9D 33 46 A9 91 13 ..}X.......3F...
00403B70 FF 00 31 98 50 6E F2 1C E6 76 0B 54 50 D9 53 42 ..1.Pn...v.TP.SB
00403B80 08 08 E8 BD 8C C9 04 19 61 70 5A 32 57 7F E0 00 ........apZ2W...
00403B90 9A 49 26 CD 73 B4 98 36 27 8A 06 31 0D 0A 4E 00 .I&.s..6'..1..N.
00403BA0 00 14 D7 E4 DF D7 C2 E3 AE A7 94 30 A6 00 82 EA ...........0....
00403BB0 A1 0A 06 4E 61 35 DF 00 4A 34 8F C9 32 47 30 9D ...Na5..J4..2G0.
00403BC0 00 81 6D 89 E9 F4 07 9C 4D FC FD 10 94 B8 4B 20 ..m.....M.....K 
00403BD0 65 F4 87 00 40 15 8C E5 45 51 99 04 04 B8 8F 00 e...@...EQ......
00403BE0 70 84 A6 FC 00 FF 00 08 C4 8A 00 FF 00 5B 6C F9 p............[l.
00403BF0 00 38 9E BC 00 44 00 0E 03 B1 00 80 00 89 24 6B .8...D........$k
00403C00 AD 15 07 1C B0 27 80 64 07 8A 5F 00 5C C0 1F F7 .....'.d.._.\...
00403C10 33 FB FE 11 D8 E3 D4 F1 5B B4 4F 80 EC 00 79 D4 3.......[.O...y.
00403C20 00 16 80 2A 80 5A 1A 29 73 34 FC 00 DB 47 36 CA ...*.Z.)s4...G6.
00403C30 3E 24 00 8E 60 88 B0 78 E7 3C 70 89 5B 5F 6B A5 >$..`..x.<p.[_k.
00403C40 7E 68 BF 58 F5 FF F8 08 07 A1 00 00 5C E9 CB 68 ~h.X........\..h
00403C50 B0 08 4E 5D 38 DA 45 75 D7 23 FF 85 83 03 41 A5 ..N]8.Eu.#....A.
00403C60 7D F2 00 BB 35 04 FE 00 01 FC FF 58 FF C1 FD 28 }...5......X...(
00403C70 C3 20 69 1A 60 99 6A 55 1A 60 84 19 BD 2B 82 00 . i.`.jU.`...+..
00403C80 6A B8 F9 E7 00 C3 AF 8E 0A AC 72 BB 80 21 57 CF j.........r..!W.
00403C90 36 31 17 A0 E9 78 CC 00 C1 FF 83 00 00 1A 06 7E 61...x.........~
00403CA0 CC 0E 00 98 76 05 40 FF F7 02 55 E7 73 10 51 99 ....v.@...U.s.Q.
00403CB0 1A ED FF 8B A0 F1 C2 13 27 91 45 00 E4 D8 1E 15 ........'.E.....
00403CC0 76 BC 60 7E 5C EE B1 95 2C B9 00 00 D6 1B B1 57 v.`~\...,......W
00403CD0 94 0C F8 5E 20 11 C8 42 E0 83 B5 28 1C 00 2E A2 ...^ ..B...(....
00403CE0 1E BE CF 8C 04 A3 D9 00 D4 87 16 EC 19 00 BF 00 ................
00403CF0 DD FF 00 00 E3 57 D1 10 C6 00 32 B3 17 91 31 68 .....W....2...1h
00403D00 7D FF 72 C2 FF AB 49 68 14 19 00 87 63 00 EF FF }.r...Ih....c...
00403D10 99 FF 83 72 A2 1B 09 18 DD E0 17 62 09 34 83 00 ...r.......b.4..
00403D20 70 D0 46 42 E1 DA 5C FF 05 71 D8 BD BF 00 CC 1E p.FB..\..q......
00403D30 FF 41 00 0A E9 0F 8B C0 3E 56 B6 61 6A 7D B7 57 .A......>V.aj}.W
00403D40 91 60 06 00 59 59 6C DC 00 BD 00 7E 4C FF 65 7E .`..YYl....~L.e~
00403D50 C1 81 FF A7 DC 14 B5 FF 63 65 99 03 7C FF 6E 5C ........ce..|.n\
00403D60 6F C5 CB 03 D1 B8 56 EF D1 B7 A9 DE 00 4A 00 B3 o.....V......J..
00403D70 2A 1C 8B 73 CD 00 07 CD 65 7E A8 FF 8E 21 17 2A *..s....e~...!.*
00403D80 91 1B 77 53 8E 8F D9 93 8F 2A FF 31 00 3B AF 00 ..wS.....*.1.;..
00403D90 86 66 B5 6C D3 13 F3 2D CA 20 10 35 54 83 84 25 .f.l...-. .5T..%
00403DA0 D5 0E 5F B0 00 00 00 35 FB 81 FF 00 71 F8 80 81 .._....5....q...
00403DB0 00 FA CE 43 7C 16 B7 6F 20 6E FB A1 00 AF 26 45 ...C|..o n....&E
00403DC0 2A CC AE 3F A5 5C 52 46 3E 00 37 BA 8C EB A5 20 *..?.\RF>.7.... 
00403DD0 00 FE 36 7E 00 00 F3 5C 78 B5 F9 16 AE 00 F3 1F ..6~...\x.......
00403DE0 54 00 C5 C6 38 34 FF 59 48 00 FA CA 74 5E 27 21 T...84.YH...t^'!
00403DF0 0E 5B 78 9F 00 19 7B 4B 30 C1 25 01 FF C4 AB C4 .[x...{K0.%.....
00403E00 C2 F3 12 4F AA C9 5D 00 54 37 DF 00 3B 4D 00 1A ...O..].T7..;M..
00403E10 D7 A4 23 0F DB 85 CA 33 D2 5C 00 5F B0 43 B8 0C ..#....3.\._.C..
00403E20 C6 92 CA 83 A5 D1 C0 E0 75 99 CD 00 81 11 AC D7 ........u.......
00403E30 7E 75 65 32 EB 3B D9 00 88 75 39 4A 03 38 F5 9E ~ue2.;...u9J.8..
00403E40 75 52 27 85 48 B4 4F 00 4C 21 19 20 AB 5C F5 6C uR'.H.O.L!. .\.l
00403E50 FC 54 E2 F8 00 A3 B1 05 4A BF DE 98 FF 59 54 FF .T......J....YT.
00403E60 40 D1 F1 00 B0 3D 00 EF CA 96 E1 75 00 47 10 F0 @....=.....u.G..
00403E70 A0 13 32 4C FF D2 B4 16 F0 00 C6 5E 91 00 68 F4 ..2L.......^..h.
00403E80 4D 18 A7 B5 D1 8F 6D 00 00 A8 20 EE 16 B3 FC 39 M.....m... ....9
00403E90 C8 2B F6 39 52 B1 98 A5 EC 1E 39 33 FF 3C F3 DF .+.9R.....93.<..
00403EA0 C7 00 EF CA F1 67 71 EE 59 B0 00 1F 00 85 FF EF .....gq.Y.......
00403EB0 37 FB 63 00 17 51 FC A9 84 FF FF 2E A7 E2 12 AD 7.c..Q..........
00403EC0 7A 0F 01 6D A2 17 BE 77 BE E0 ED 96 FB B2 FF 92 z..m...w........
00403ED0 0B 28 02 00 00 86 E1 47 22 93 EB DD CC 7A 5D C0 .(.....G"....z].
00403EE0 A1 00 1F 26 BC F8 50 CC 6C E2 07 6D 38 02 4C CE ...&..P.l..m8.L.
00403EF0 05 33 00 51 1E 90 9C 23 FF 48 80 96 99 24 00 30 .3.Q...#.H...$.0
00403F00 50 38 00 00 89 73 58 54 C8 9D E0 97 86 60 7F 50 P8...sXT.....`.P
00403F10 F4 66 D2 2C 00 F0 8B 5A F7 83 A6 FF CF 27 7D C1 .f.,...Z.....'}.
00403F20 00 9D 20 67 46 A4 58 F7 31 50 4C 82 FE FF 00 F1 .. gF.X.1PL.....
00403F30 0F FF C7 7C 80 73 4A 72 7D 79 66 8D 48 00 AE F0 ...|.sJr}yf.H...
00403F40 A1 77 A1 01 00 E8 D0 00 00 A1 93 25 A5 A2 D5 7C .w.........%...|
00403F50 FF A0 46 00 7D D5 3B C5 70 3B 10 C8 37 61 00 5C ..F.}.;.p;..7a.\
00403F60 24 01 00 FF 88 FF 41 E4 F4 75 CD 28 9D 12 21 E3 $.....A..u.(..!.
00403F70 85 A5 37 C6 28 FC 19 FF 1B 00 42 41 83 FF 00 87 ..7.(.....BA....
00403F80 B1 00 08 48 00 76 78 74 91 58 F6 00 C6 F9 F0 FF ...H.vxt.X......
00403F90 2C B0 19 D4 A1 09 34 98 0B 8D 4B D7 A1 D4 50 00 ,.....4...K...P.
00403FA0 8C 00 C5 B4 53 D1 39 90 CE 15 91 6D 10 0F FC 61 ....S.9....m...a
00403FB0 FE FA 00 0B E8 C5 A5 DB 8F 3C 84 A4 1F 00 6C 23 .........<....l#
00403FC0 24 00 00 2E D7 C7 DE 00 75 7E 10 3B EE 32 04 E0 $.......u~.;.2..
00403FD0 C7 D8 37 4B 10 CC FF 00 CC B0 6D 7F C7 00 E0 E8 ..7K......m.....
00403FE0 00 1F C5 FF 7F B5 0C 00 36 19 6A 85 BE F6 A7 61 ........6.j....a
00403FF0 00 20 42 F4 9C 7B 40 77 CB 15 E0 00 6C 32 B0 47 . B..{@w....l2.G
00404000 93 C9 DA D9 C0 63 E4 A5 73 39 00 9E CB 20 5D 3D .....c..s9... ]=
00404010 5E D4 00 B6 80 96 7B CC 09 6B 00 30 40 20 45 76 ^.....{..k.0@ Ev
00404020 00 F3 84 9F A7 2D C1 AB 00 BB A1 4E 08 8E 8F D8 .....-.....N....
00404030 10 DF 4D 5D FF 4E 1E FD C5 61 00 D0 60 00 35 92 ..M].N...a..`.5.
00404040 AB 6C 14 F7 10 E0 CC 11 69 CE 04 FB 00 E2 9E 80 .l......i.......
00404050 05 C8 75 A1 F4 48 60 79 FF 4B 5F 3E 60 BE 57 B6 ..u..H`y.K_>`.W.
00404060 65 1A 91 0D 3E 08 3C 73 2F BF E7 C9 A0 71 84 21 e...>.<s/....q.!
00404070 5B 10 90 91 89 84 4F 06 AF 0A 10 C1 1C 2A 90 FC [.....O......*..
00404080 F6 D9 DF 32 3E 06 4E CC 22 61 85 51 F5 97 D9 00 ...2>.N."a.Q....
00404090 4F 41 77 00 00 00 6F 69 C6 44 7A 8F 5C 21 FF BF OAw...oi.Dz.\!..
004040A0 00 B0 00 55 24 C5 3B 00 13 0F 45 00 34 A2 FA 9B ...U$.;...E.4...
004040B0 34 7A B4 00 D4 38 98 22 CB 00 C0 53 88 B9 4C 00 4z...8."...S..L.
004040C0 77 40 DC B4 D3 33 5F 7D 4F 72 FF 25 79 37 B8 36 w@...3_}Or.%y7.6
004040D0 FD 1C 4B FF DF ED DB BE 26 FE 25 00 E8 F2 00 3B ..K.....&.%....;
004040E0 41 AA 97 51 6C C2 56 00 7E 97 E6 FF 80 99 A3 A9 A..Ql.V.~.......
004040F0 0E 26 CF D3 00 66 98 97 14 9B D1 B8 05 77 65 02 .&...f.......we.
00404100 93 54 E5 5F F8 67 65 F4 46 7A 78 04 9F 00 C3 00 .T._.ge.Fzx.....
00404110 DE 4A 1D 00 87 71 22 8E 80 C8 58 D9 00 1E 5B AD .J...q"...X...[.
00404120 AF 47 35 C1 8F 79 AA 85 9E 9A 00 81 E6 FF 79 00 .G5..y........y.
00404130 01 7B F2 B5 1D E4 00 4A 0C 46 2E DB C3 FF 32 2C .{.....J.F....2,
00404140 05 F9 13 F0 67 A6 B8 CF CD 6B BF 21 1A 94 54 95 ....g....k.!..T.
00404150 00 00 2F 02 E4 03 E1 B7 5D 4A 11 00 FF FF 78 64 ../.....]J....xd
00404160 D1 10 70 F5 03 0D 02 A0 0E 17 BC 77 BB 03 00 94 ..p........w....
00404170 CE DA 21 AF 38 5C 40 F6 A3 73 8D 3E 00 FF E9 00 ..!.8\@..s.>....
00404180 5A 41 54 48 F2 A7 38 08 2F 07 C8 7F E8 00 76 D4 ZATH..8./.....v.
00404190 A4 00 53 72 1E FF 1C A1 87 37 78 2B 93 A0 E1 7D ..Sr.....7x+...}
004041A0 1F F0 04 00 5A A0 FE D4 CB 20 E2 C2 35 AC 93 00 ....Z.... ..5...
004041B0 42 EC 6F 85 F0 DE 00 93 69 27 05 BA EE 45 9E 24 B.o.....i'...E.$
004041C0 9E D2 D7 6F 6C F9 00 B5 A2 64 AC 81 00 83 58 76 ...ol....d....Xv
004041D0 4E E4 B0 C7 EA BD 5E 9F 00 FD BA 71 D3 3B BC 98 N.....^....q.;..
004041E0 E7 18 A1 19 EA FD 1C D7 F1 CE 00 7B 9F 4F 00 A1 ...........{.O..
004041F0 04 87 16 F7 FF FA 46 64 2D 99 78 74 18 44 FF 02 ......Fd-.xt.D..
00404200 DE 32 BB C8 9A FF 7C 97 F7 2D F0 FE 49 B7 8D FB .2....|..-..I...
00404210 DC B2 3E 00 3A 93 68 40 DF 42 00 E6 11 14 78 FA ..>.:.h@.B....x.
00404220 BB 00 15 A2 6F 2F 2B FF 83 A6 00 14 11 D1 A9 90 ....o/+.........
00404230 12 FF 2D C8 DA FD ED 8D 02 05 A2 57 00 5F 00 E3 ..-........W._..
00404240 DD FF 49 0F 4B 00 50 24 18 3C 00 AD 3A 01 3A 21 ..I.K.P$.<..:.:!
00404250 52 80 C9 DB 29 20 FF 0D 91 E6 D4 48 32 2F 1B 02 R...) .....H2/..
00404260 4A 40 1C F5 B0 0C FF 61 00 00 DE 3D 64 6D 21 2E J@.....a...=dm!.
00404270 F0 62 1B 8B 00 3B 04 80 97 3C C3 7C 00 FC 73 73 .b...;...<.|..ss
00404280 B7 2D C6 06 2E DB 5A 59 33 00 69 00 FF 82 2D F6 .-....ZY3.i...-.
00404290 F7 18 D5 77 E4 00 25 A6 B0 E8 B2 64 D9 CF 00 00 ...w..%....d....
004042A0 00 09 85 EC 01 05 58 B4 C2 EA 00 3A DE 7B DB EE ......X....:.{..
004042B0 00 33 73 9D 00 FF 33 1E 94 12 F8 2D D0 53 7C 03 .3s...3....-.S|.
004042C0 10 48 DE 3F 65 77 BC 4F A0 33 00 3C 00 71 00 AE .H.?ew.O.3.<.q..
004042D0 15 00 15 16 24 22 1A 1B 52 AF 5F 00 AD 03 59 93 ....$"..R._...Y.
004042E0 DF 00 EB BF 00 5A 6F 00 30 68 59 87 00 4E 40 F4 .....Zo.0hY..N@.
004042F0 6C 40 FA 03 02 9F 8C 00 5E 4A 00 3C 14 84 FB 83 l@......^J.<....
00404300 FF 7F E5 00 FF E8 91 00 00 8C D3 E3 9C 68 F7 84 .............h..
00404310 EB 5A 10 00 10 33 00 57 C5 4E 93 22 12 34 00 F9 .Z...3.W.N.".4..
00404320 1F 7F AB C1 E8 9A 34 2F 62 F6 6B 00 8B 33 FF B6 ......4/b.k..3..
00404330 BB 55 6B 00 17 55 BC 2B D9 47 0E 60 8A FF EA 5C .Uk..U.+.G.`...\
00404340 18 7D 00 05 B6 45 0B ED ED 40 14 85 E3 FF 86 31 .}...E...@.....1
00404350 5A B1 0D D2 62 8B 41 00 8F 00 7B 16 A0 61 3D 40 Z...b.A...{..a=@
00404360 3D F9 81 7C B6 80 DF 13 65 1A 06 81 8D BF CA 00 =..|....e.......
00404370 27 F8 00 CF 0D 3F FF 1F 6C 6C 72 67 1B 66 3A 0D '....?..llrg.f:.
00404380 0C 79 22 E6 25 C2 C8 D0 46 9D FE 03 C0 00 2C 40 .y".%...F.....,@
00404390 3D DB 58 FF DB 15 30 8E FF 62 A9 6F 18 A2 1F C5 =.X...0..b.o....
004043A0 27 22 E5 8F 40 50 47 3E 28 02 81 12 98 EE 00 00 '"..@PG>(.......
004043B0 3D 8E B8 02 5B 6F B0 C9 03 00 9F 00 00 00 4D 02 =...[o........M.
004043C0 A0 06 0C C6 37 45 3D 00 C6 E0 00 00 05 65 07 5A ....7E=......e.Z
004043D0 9F 00 00 BD D9 04 C0 AA 2F 30 35 11 FE AF BA A6 ......../05.....
004043E0 00 29 1C E1 ED C9 82 FD 5E 4C D9 00 00 E9 00 C4 .)......^L......
004043F0 39 71 F4 76 9B 07 28 AC 22 93 00 FF C8 99 5D 5C 9q.v..(.".....]\
00404400 DB 00 FF 00 D3 78 9B 1E D1 F0 85 AF 3A C8 49 AC .....x......:.I.
00404410 A3 36 00 96 0D 7E 6B C7 81 F8 38 D1 98 0E 69 C3 .6...~k...8...i.
00404420 8D 6C 44 20 99 92 22 75 04 BB 41 A1 F4 85 92 3C .lD .."u..A....<
00404430 FF 02 E6 20 88 82 88 00 DE 8F C2 84 AC FC 34 70 ... ..........4p
00404440 FF 25 80 05 FB 00 2B 29 47 FE 3B 21 46 86 82 AB .%....+)G.;!F...
00404450 6A A4 7B FF 4B 0A 3C B9 61 8A 0C FF 08 1D 4F 15 j.{.K.<.a.....O.
00404460 60 06 E4 7B 00 00 B8 02 FF 47 2F 9D 3D 39 23 95 `..{.....G/.=9#.
00404470 D2 6F BA 14 E5 1D E5 FD 2D 38 BD ED CC 5B FF C9 .o......-8...[..
00404480 25 98 00 8E 7A 6C 00 4B A1 41 DD AB CA 6B 00 36 %...zl.K.A...k.6
00404490 83 91 46 C8 55 28 20 B9 22 12 B9 F2 FF 5C FF C7 ..F.U( ."....\..
004044A0 00 FC FA 00 34 B0 E7 46 FF 74 04 EC 6E 74 90 89 ....4..F.t..nt..
004044B0 FE EE 00 FF DE EB BF 94 8D 59 D2 EE 8F 0B 6A A8 .........Y....j.
004044C0 C1 00 FF 3B 3E 27 FE 0F 3D CF E4 F0 A6 8F C7 00 ...;>'..=.......
004044D0 22 5C 00 7B 08 21 8E E5 00 89 11 4A 00 71 00 07 "\.{.!.....J.q..
004044E0 1A 32 B8 7E E7 C3 23 5F 85 7E 00 30 92 20 A6 71 .2.~..#_.~.0. .q
004044F0 00 00 AC 6D A7 FF F0 72 40 FC E5 E5 5E 2A D6 F6 ...m...r@...^*..
00404500 7F 44 0C C8 40 B9 00 33 7E D8 F3 41 0C FF 00 CE .D..@..3~..A....
00404510 5D 00 F8 F1 49 A9 00 00 FF 4D 7D 74 8B FF 17 E1 ]...I....M}t....
00404520 45 D9 BC 05 DA D7 E2 CD 00 C7 EC D3 38 F5 23 53 E...........8.#S
00404530 26 AF EF CD B5 00 29 00 38 6D 8C 4C F3 54 00 00 &.....).8m.L.T..
00404540 00 02 FF FF 00 74 EA BC AD 00 F3 0C 3A D7 F6 04 .....t......:...
00404550 56 82 B1 92 85 00 B9 28 E6 C9 B7 77 52 49 6B DC V......(...wRIk.
00404560 9D 12 3F 54 87 8B 00 F6 EF 6E 3B 7E 00 B7 00 00 ..?T.....n;~....
00404570 DB 27 D3 4B 9F BE 8E 45 9D 05 8D 82 ED 63 27 45 .'.K...E.....c'E
00404580 3A 73 FB 86 0E CB 18 9C FE 2D C4 E8 63 1B 49 44 :s.......-..c.ID
00404590 AE 64 24 1F 77 78 F4 FF 00 BE 09 0E A8 25 5E 63 .d$.wx.......%^c
004045A0 10 D4 16 88 7D 2D E2 1E BE 76 C2 3A 00 4C 0F 3F ....}-...v.:.L.?
004045B0 5F 56 02 40 CC 00 56 C1 26 4E B4 5B C0 00 FF 40 _V.@..V.&N.[...@
004045C0 FB A1 00 00 51 74 F7 CC 00 D2 00 53 78 72 3A 90 ....Qt.....Sxr:.
004045D0 2D 2C 1E 26 FF D1 FF E9 2B C4 8A FD 2E DF 71 31 -,.&....+.....q1
004045E0 82 A0 68 C0 71 C1 B8 00 B8 83 76 4C 91 DE 75 8E ..h.q.....vL..u.
004045F0 5F 61 82 98 83 03 4C E7 89 27 78 FF E6 1A FF 84 _a....L..'x.....
00404600 00 1B DD 17 0D B3 4E 00 96 C2 DE F8 00 74 6F 87 ......N......to.
00404610 80 34 1F 00 00 E1 00 53 90 74 5F BF 2A 14 CF 00 .4.....S.t_.*...
00404620 85 00 48 85 AE 00 69 86 6B CC 92 00 5D 89 3D 90 ..H...i.k...].=.
00404630 66 3A 00 73 5F FF AC 00 F4 67 91 7C 98 85 27 FF f:.s_....g.|..'.
00404640 2A C6 E1 41 41 BD CE DC 7B 75 FF 00 A3 83 79 96 *..AA...{u....y.
00404650 A4 00 83 E5 5E 44 00 F6 73 01 73 3E 63 04 47 8D ....^D..s.s>c.G.
00404660 40 3A 91 74 7A F4 7C 99 91 76 0C 3A DF 00 40 0F @:.tz.|..v.:..@.
00404670 00 AE FA 8C 00 2C 06 16 69 81 42 DB DE 68 C7 87 .....,..i.B..h..
00404680 70 65 00 FF 02 BF 86 6A FF CB 00 63 D0 F6 00 D7 pe.....j...c....
00404690 28 2B 1B 40 AC FF 06 02 C3 AE 03 F0 FD DC 04 00 (+.@............
004046A0 00 25 93 36 B3 E7 1F 7C 9F 56 1D DF CB F0 F3 98 .%.6...|.V......
004046B0 DA 72 D7 7E C8 79 BB 00 03 74 01 80 5D 41 00 71 .r.~.y...t..]A.q
004046C0 48 5F C1 B5 17 2D 7D 4B 43 A5 B0 0F 84 A7 41 8D H_...-}KC.....A.
004046D0 CD 5F B0 00 E1 8D 00 B3 F3 BE 28 62 18 AC BA 20 ._........(b... 
004046E0 1C C0 97 9A 09 45 CE 30 B9 3B 7B 68 56 62 62 D4 .....E.0.;{hVbb.
004046F0 CD 00 0E FD 00 F2 5F DF B2 00 09 4D C6 8A F7 00 ......_....M....
00404700 D6 49 50 00 63 91 00 9F D1 10 1F CA FF 20 C1 A5 .IP.c........ ..
00404710 EF F2 11 9A 6C 00 00 FF 03 40 73 4C 13 0E 09 E4 ....l....@sL....
00404720 88 00 55 82 D8 DD BB 84 0B 00 01 21 D7 E1 37 88 ..U........!..7.
00404730 FF 42 87 00 7F 82 FC 8D 8D C6 03 BC F9 AB C3 46 .B.............F
00404740 B1 C4 00 57 12 2B 5C D5 0F FF A5 7D 7E 42 FF B8 ...W.+\....}~B..
00404750 FF C3 90 C5 0B 00 A9 BC 21 BA 5F 5D 00 9A EF E1 ........!._]....
00404760 E1 CB D1 C7 00 5C 0B BB F1 FF 89 FE 20 FF FD C2 .....\...... ...
00404770 79 6D C5 00 FE 81 0A 01 00 FE FF 00 A1 B7 66 B5 ym............f.
00404780 FF 38 B8 AC 18 E5 EA E0 A0 E3 6D A4 BC B1 22 7C .8........m..."|
00404790 56 AB 5C 90 32 FF 7F A0 00 0F D8 2A 00 C1 6A 03 V.\.2......*..j.
004047A0 63 80 63 FF 93 47 0C 88 40 01 76 1D 00 73 88 E7 c.c..G..@.v..s..
004047B0 72 D7 EF 6F A1 E3 9B 30 00 71 A7 5D 48 A9 1A 1B r..o...0.q.]H...
004047C0 A4 F8 84 F6 75 0E 00 24 4D EF 7C C6 43 F3 A1 FC ....u..$M.|.C...
004047D0 08 50 90 00 D7 C9 FF 72 9B A0 00 F9 C9 14 80 16 .P.....r........
004047E0 4A 0E 50 A2 07 5F 00 29 00 FA 77 28 59 CB 00 83 J.P.._.)..w(Y...
004047F0 46 03 F0 1D 1A 44 9F 8B 01 06 03 1E 64 E4 ED 59 F....D......d..Y
00404800 0E FC 00 9A 00 3E 3F 00 68 00 27 41 FF FF D1 73 .....>?.h.'A...s
00404810 06 00 02 F7 08 8A 00 B9 93 00 6C 00 10 00 45 32 ..........l...E2
00404820 4B 55 BF 36 3E 40 E1 95 3A 1B FF 4C 0B 95 51 AD KU.6>@..:..L..Q.
00404830 A4 42 FF 52 93 85 FF 0E 00 BC BD 74 1C 00 DF 48 .B.R.......t...H
00404840 0F E8 00 E9 DB 63 88 03 DA 88 F4 68 D0 20 FF 00 .....c.....h. ..
00404850 E8 21 23 77 20 FB F9 D6 1D 8D 0A 2A D7 82 00 A7 .!#w ......*....
00404860 00 00 00 58 FF EE 3D CF 00 FF A4 00 BF 33 6F 00 ...X..=......3o.
00404870 90 00 AC DF 00 FF CB 5F 41 0D CD 00 CE A6 E3 0C ......._A.......
00404880 62 00 00 CC C4 00 CC 23 CE A0 00 11 9E 80 B4 E7 b......#........
00404890 87 FD 16 A9 9A 44 DC C3 02 BF 2F 75 00 7A 00 00 .....D..../u.z..
004048A0 00 D3 7C C2 EF FF 2B 80 EC 46 73 D3 CE 7A 00 7E ..|...+..Fs..z.~
004048B0 D2 00 60 81 11 00 CE 8D 88 4C 8A 5C 8B 6C 95 D7 ..`......L.\.l..
004048C0 E2 06 04 50 26 5F FF E3 E6 FF 00 AA F9 BF 83 00 ...P&_..........
004048D0 51 E7 18 36 30 D3 15 E5 ED D1 63 37 00 05 7D 26 Q..60.....c7..}&
004048E0 AC 3C B5 DF 31 00 71 68 28 0B EB E6 76 0B A4 93 .<..1.qh(...v...
004048F0 B3 F6 00 8A AF 6F 7B FF 00 81 20 FC 86 B5 28 FF .....o{... ...(.
00404900 25 FC DE 4E FF C5 37 47 00 F9 15 FF 00 7B A1 E3 %..N..7G.....{..
00404910 E4 F8 00 E1 83 8C 3E 43 93 CE 3C 08 31 5D AC 50 ......>C..<.1].P
00404920 88 00 EF 3E 3D B5 00 14 87 80 37 7C DE 00 00 00 ...>=.....7|....
00404930 D7 00 46 36 8A 6C 80 67 00 A4 D7 12 5E 1D 00 98 ..F6.l.g....^...
00404940 62 49 68 00 00 40 8B E3 52 12 B7 03 71 A8 60 4C bIh..@..R...q.`L
00404950 94 00 5A D4 37 95 7B D3 BE 05 FF 2C 8E 6A 81 D9 ..Z.7.{....,.j..
00404960 31 ED 24 13 00 99 9D 00 00 DD FF BD A8 D8 00 43 1.$............C
00404970 00 27 56 00 E2 76 90 2E 07 6F 3B 2F F0 00 F9 3A .'V..v...o;/...:
00404980 66 1D F7 8C D9 70 FF 06 4C A8 88 E7 6B E6 FF A1 f....p..L...k...
00404990 5A DC A3 5D E3 D8 74 00 B7 EE B7 32 00 30 57 3F Z..]..t....2.0W?
004049A0 E3 BE BE 1A 37 EF F8 B6 D4 C1 F8 C7 00 05 F9 00 ....7...........
004049B0 00 0E 03 00 2D A3 58 00 7E E3 C4 C9 4F 03 88 0D ....-.X.~...O...
004049C0 96 16 52 15 F3 6E FF 28 39 05 FF 81 B9 00 BD EE ..R..n.(9.......
004049D0 CC 52 A4 F1 07 D3 F3 0F 4F E0 00 00 AE 32 B0 FF .R......O....2..
004049E0 0C 3A 6E 83 28 FF EB 27 5F D9 E3 AF 00 B1 02 FF .:n.(..'_.......
004049F0 00 FF 60 78 AB 9D FE 76 2B 0D 7C 84 F2 83 66 76 ..`x...v+.|...fv
00404A00 3F 6C 45 00 46 91 89 C9 2D F8 85 B2 46 D4 E4 77 ?lE.F...-...F..w
00404A10 07 01 A7 5A 66 B3 93 5D DE 8F 99 00 C7 98 45 5C ...Zf..]......E\
00404A20 12 5C 07 07 D3 71 06 9F C7 9B FF 16 91 C0 6C 00 .\...q........l.
00404A30 50 F7 B9 00 30 FF 24 00 BB 70 A1 FF 00 00 FF 43 P...0.$..p.....C
00404A40 87 00 00 68 D2 81 00 00 00 AD 63 A1 8D B8 00 50 ...h......c....P
00404A50 F6 5C CD 76 00 35 33 02 88 00 3B B1 83 26 00 7F .\.v.53...;..&..
00404A60 5C E8 A1 06 45 21 20 22 46 A6 0A D8 ED 8C 41 B9 \...E! "F.....A.
00404A70 87 4A C6 8A F7 70 04 00 B7 00 40 C4 00 E7 B8 14 .J...p....@.....
00404A80 23 4E 10 04 00 00 3E C1 DC 9D F3 1C 6F 6E 00 6D #N....>.....on.m
00404A90 FF E6 00 09 49 9E 5D 56 70 EC 3C 22 69 00 83 C0 ....I.]Vp.<"i...
00404AA0 6D 56 48 AA 72 50 83 DB 7C 1F C6 9B 95 E4 FF BB mVH.rP..|.......
00404AB0 3F F8 1B 4F 00 00 30 DC 28 9C 00 35 02 05 0D 8E ?..O..0.(..5....
00404AC0 28 81 47 0B 6F 06 7E 3F 9B 35 FB 00 CF 00 00 0D (.G.o.~?.5......
00404AD0 7C 9E 8F ED 00 BF 2C 13 AE FE 17 F3 00 A0 64 56 |.....,.......dV
00404AE0 0E 05 1D 00 81 FE 90 33 21 B2 EA 16 0C 30 87 CF .......3!....0..
00404AF0 00 B9 0D 00 75 00 FD C9 E4 88 78 7D A2 1B 14 16 ....u.....x}....
00404B00 22 DF 87 00 39 6D 5D BE AE 00 E5 F7 86 F7 44 97 "...9m].......D.
00404B10 68 B4 44 26 B3 FF 00 8A 96 D7 AE 25 13 D9 00 0F h.D&.......%....
00404B20 A5 A2 08 DF 89 2D 88 F0 CA FF 74 3E 68 24 FF 0D .....-....t>h$..
00404B30 BF 72 FB 2A FF 49 3C 9A 42 61 3A 00 E3 00 79 02 .r.*.I<.Ba:...y.
00404B40 06 1A 28 91 00 1A 03 B7 FF 6F AF 00 00 00 1D F9 ..(......o......
00404B50 A5 C1 E5 B8 9F 34 00 00 FC C4 38 EC C8 30 02 58 .....4....8..0.X
00404B60 FF E1 4D 19 D1 D2 D5 4E 39 A5 F3 11 00 38 9E FF ..M....N9....8..
00404B70 00 00 77 63 A3 00 FF 9A C3 FD 00 38 09 00 D1 46 ..wc.......8...F
00404B80 FF AA 97 C1 6E FE DF AD DA 49 E3 D5 BD 85 EF 01 ....n....I......
00404B90 71 81 A9 EC 04 00 D3 93 20 3C F8 97 43 07 00 2D q....... <..C..-
00404BA0 FF FF 90 C9 ED FF 00 2C D4 63 07 DC 08 83 8D 84 .......,.c......
00404BB0 FB 00 42 50 D1 C8 B0 F0 CD EE 00 1E C0 A5 E1 0F ..BP............
00404BC0 F1 0C 76 0B 28 08 C1 A5 48 0C 00 37 88 FF DE 21 ..v.(...H..7...!
00404BD0 FF B8 0C 0F 86 7C FF 03 15 C8 00 14 09 00 FF 10 .....|..........
00404BE0 9A 00 70 FC F6 65 FF 1D 00 80 FA 00 8F CD 00 26 ..p..e.........&
00404BF0 B5 00 43 1F 08 32 A1 AD 40 DB E9 BF 51 AA 92 D2 ..C..2..@...Q...
00404C00 FF 67 88 0D F6 29 A4 00 B2 7C 68 63 36 A1 5F 00 .g...)...|hc6._.
00404C10 EA D2 10 61 00 7B 21 B1 34 00 B9 E8 29 A0 7A B5 ...a.{!.4...).z.
00404C20 FF 00 F2 50 C7 4C 99 A8 24 FD 00 60 3F 63 4C 43 ...P.L..$..`?cLC
00404C30 BB DA 03 9F 9E CF 00 26 06 F6 00 20 BD BB 2E B9 .......&... ....
00404C40 76 00 00 07 FF 54 0F 24 85 FB 00 45 10 76 FF B6 v....T.$...E.v..
00404C50 6E 0C 00 2F BF 17 11 5E 0B 4B 0B 87 08 A5 53 1F n../...^.K....S.
00404C60 FE 02 C3 6F 11 BB 6F 68 ED 99 01 53 E8 00 C5 56 ...o..oh...S...V
00404C70 FF E2 F2 A2 00 8F 1A EA 4A 46 89 C4 9B A5 A1 54 ........JF.....T
00404C80 F1 06 E4 FF A3 20 89 FF 43 D0 00 38 D3 F9 ED 38 ..... ..C..8...8
00404C90 32 00 55 40 FF 8D 00 32 00 D3 36 84 11 53 00 2B 2.U@...2..6..S.+
00404CA0 B0 B8 00 16 CE 27 3E 70 C0 B5 77 2D E1 60 00 00 .....'>p..w-.`..
00404CB0 B8 17 C8 00 DE 01 8D 68 FF B1 48 02 9C 18 E7 49 .......h..H....I
00404CC0 22 FF FB 2A D0 B4 E0 92 6D FF 87 77 34 00 71 6F "..*....m..w4.qo
00404CD0 5D FF 34 1C 00 91 D3 FF 10 EF 2B 85 70 91 DF 9D ].4.......+.p...
00404CE0 00 57 7F 51 6E 8E 68 58 AC 3F 17 EC 6F 86 09 5B .W.Qn.hX.?..o..[
00404CF0 21 2B C4 7E BC FD 7B 20 12 07 E6 47 FF 8F 30 59 !+.~..{ ...G..0Y
00404D00 55 34 F2 05 0E 5C 00 FF 97 52 DB B1 10 84 DB 5C U4...\...R.....\
00404D10 24 84 4F D3 46 ED 83 7A 00 88 24 F0 0E 96 65 01 $.O.F..z..$...e.
00404D20 76 79 D3 E1 3E EA 9A 93 C3 EA 00 63 7E 2B 8E 7F vy..>......c~+..
00404D30 A6 23 07 8B 00 00 FB BF 0C 00 2F 1B 3B B3 9C C1 .#......../.;...
00404D40 31 FF E9 B1 00 ED A0 C0 05 BE A0 EB 61 0D EF B5 1...........a...
00404D50 70 40 7A 40 00 52 7A 77 00 4E F5 72 14 B1 12 9F p@z@.Rzw.N.r....
00404D60 94 BF 8B 6D 28 83 FF 40 FC 21 5A 48 9A B2 D6 82 ...m(..@.!ZH....
00404D70 59 96 A2 48 D2 19 E6 24 33 89 00 00 61 10 07 AA Y..H...$3...a...
00404D80 18 00 6C 7D 00 E5 7A 00 FF 6C 00 6B 28 33 B7 C2 ..l}..z..l.k(3..
00404D90 23 21 61 35 84 2E 6C FF 83 F6 79 92 BF 00 DD C4 #!a5..l...y.....
00404DA0 00 00 63 C4 45 16 F8 12 63 FF BF D8 6B 14 00 73 ..c.E...c...k..s
00404DB0 FF 5E 00 DB 2D 59 3B 92 6B 05 28 71 E3 BA 5E B0 .^..-Y;.k.(q..^.
00404DC0 11 22 00 6C 35 FF 1B 27 C4 81 2F 95 F1 C4 C0 70 .".l5..'../....p
00404DD0 06 CD 35 A9 00 50 3C 64 76 7F 4B 5D 55 21 0E 47 ..5..P<dv.K]U!.G
00404DE0 1D 81 9E 88 81 00 00 04 17 C5 00 E7 E2 CA 9B E4 ................
00404DF0 C7 9D C9 A0 D1 19 0F F8 00 00 00 00 00 60 8A E8 .............`..
00404E00 FE 78 CB CD A1 38 30 FF 66 5F 68 00 30 00 68 6B .x...80.f_h.0.hk
00404E10 00 40 A3 69 40 90 8F 5C 62 EF 1E 72 DF 00 3A 4A .@.i@..\b..r..:J
00404E20 00 BF 3E CF CF C2 5E 00 8F C5 79 E1 CB 33 C8 60 ..>...^...y..3.`
00404E30 48 AF 0B 00 00 10 00 ED 73 5A 16 42 89 B4 04 76 H.......sZ.B...v
00404E40 33 8D FF F3 00 5B 00 F0 6A B4 54 7C A0 D3 64 A5 3....[..j.T|..d.
00404E50 A3 22 4D F7 DB E6 FF 2A 3B 33 C7 43 00 11 26 20 ."M....*;3.C..& 
00404E60 B2 90 16 E7 00 E7 AD AC A0 38 A4 0E 6B 00 38 C0 .........8..k.8.
00404E70 F0 00 83 E3 CE D9 8D FF FF EC 2C FB 1E 52 0D 34 ..........,..R.4
00404E80 08 4E CD 37 72 01 62 78 06 0A 9A 00 4E 00 00 00 .N.7r.bx....N...
00404E90 2F 00 25 07 B3 00 72 06 99 E2 5A D4 F7 56 5D 10 /.%...r...Z..V].
00404EA0 10 ED 00 7B 67 0A 11 AF FF AE 00 B4 EF C6 40 70 ...{g.........@p
00404EB0 1D 32 48 7B E7 4E 2C ED 00 06 F7 46 95 BC 72 9A .2H{.N,....F..r.
00404EC0 00 C1 FC 7D 00 FF 00 F8 15 FB C8 E1 01 01 E3 0E ...}............
00404ED0 FC DF 00 6C DE 4B 00 B6 12 D1 00 FF FA 86 FF B6 ...l.K..........
00404EE0 16 B8 F5 8C 1C 18 00 47 9E 1F 31 10 00 34 68 68 .......G..1..4hh
00404EF0 00 39 20 A0 8E 73 14 50 A5 C9 CC 00 A1 1F 08 00 .9 ..s.P........
00404F00 04 FF 29 FB 00 01 B1 03 5F 1B 40 FF 34 00 46 49 ..)....._.@.4.FI
00404F10 FF 00 14 93 75 3C F9 A5 00 DD F2 00 6C 5E 15 18 ....u<......l^..
00404F20 A9 D9 E3 F2 9E 00 A7 3C 13 28 00 1F DC 40 10 2A .......<.(...@.*
00404F30 E0 78 1C 21 DD 0E 94 00 09 00 96 42 18 00 2D 00 .x.!.......B..-.
00404F40 B7 00 80 FF 8C A9 B0 A3 00 0F 6D 14 00 A4 08 AF ..........m.....
00404F50 E2 2A 55 7E 03 00 35 7E 16 00 2A A3 6D 0D 7D CF .*U~..5~..*.m.}.
00404F60 BE 37 B7 66 40 77 F6 13 75 7A EC 00 B7 4C 10 78 .7.f@w..uz...L.x
00404F70 22 1B 9C E3 7A 00 15 35 73 5E 3D FF FF 3A 82 9A "...z..5s^=..:..
00404F80 6A 00 06 A8 AB 98 AD 32 7E E2 00 07 B9 98 10 6C j......2~......l
00404F90 80 41 DB 00 13 58 96 39 D7 94 1B C9 70 07 10 00 .A...X.9....p...
00404FA0 DC E9 91 C8 AA 00 00 62 03 8F C0 DD 0C 00 C4 FD .......b........
00404FB0 F9 B3 7A 60 B3 00 34 FF 58 93 00 BD 00 E6 4A 54 ..z`..4.X.....JT
00404FC0 64 00 00 98 BF 00 33 34 20 0E 3D 80 9F FF FF FF d.....34 .=.....
00404FD0 57 63 5A FF 7D 78 70 FF 76 C9 3E BC BF 59 07 00 WcZ.}xp.v.>..Y..
00404FE0 C0 2E 81 C2 87 FF 3F 96 63 E0 1D 00 00 DF E6 FF ......?.c.......
00404FF0 40 04 A4 00 09 4C 40 FF FC 6C B7 8C FC 00 8E 38 @....L@..l.....8
00405000 54 B3 FF 00 90 00 FE A2 00 00 DE AC 00 76 76 CA T............vv.
00405010 00 8A 47 62 08 AA 9B 00 0C E2 01 F1 86 00 EA CF ..Gb............
00405020 02 DE 10 3C D9 B0 4F 42 4B 99 6F AA F1 EE D6 00 ...<..OBK.o.....
00405030 00 B1 C8 87 03 A0 6D 11 BA F2 FE 10 19 E3 9F 09 ......m.........
00405040 80 0D 91 0A E3 00 00 00 14 E3 1C 16 CF 00 8E 0E ................
00405050 00 F8 B8 3E 18 00 F3 08 A2 00 E2 10 FD 59 3C 0C ...>.........Y<.
00405060 C5 A1 CC E5 C6 A2 22 C9 E1 2F 1B 80 00 74 B9 87 ......"../...t..
00405070 9F 8D E3 4D 72 C7 DF E1 49 42 6E 37 FF 7C D2 FF ...Mr...IBn7.|..
00405080 DE BF 2F FF 90 A2 C6 CE A3 54 E8 05 21 00 00 EC ../......T..!...
00405090 22 36 C9 0A 07 BD 92 F7 4D 00 C7 FF 6D 3D C5 1A "6......M...m=..
004050A0 98 0E E1 1B 60 81 FA 22 FA 02 60 85 10 7F 59 FF ....`.."..`...Y.
004050B0 DB D7 08 C0 9E 04 89 6F 00 69 61 B1 A3 44 28 00 .......o.ia..D(.
004050C0 5A 28 07 E0 89 DE 00 FF 05 C3 C6 98 39 C2 0F 70 Z(..........9..p
004050D0 F0 8F 7B 11 34 56 04 B7 58 0B 30 4C 5D 3F 58 22 ..{.4V..X.0L]?X"
004050E0 00 B6 55 3D 3F 52 D5 DD 03 C0 5F 00 8C 3E 40 E9 ..U=?R...._..>@.
004050F0 49 53 71 30 90 52 67 E4 9E 00 91 11 FF ED 74 34 ISq0.Rg.......t4
00405100 FF 00 15 04 55 30 A0 B1 00 1A 9F CE 50 01 97 FA ....U0......P...
00405110 EC 7D D0 C4 34 A3 03 78 2D FF 8B 36 B1 F3 F7 47 .}..4..x-..6...G
00405120 8F BA F9 E1 40 FF 20 10 DB 6B 87 8E 45 00 FC 38 ....@. ..k..E..8
00405130 49 00 CC 00 E7 A4 39 E8 E9 6C 4C 89 83 08 0F 9F I.....9..lL.....
00405140 07 23 E5 00 F6 B1 38 FF 9B FF 44 0C 5E 00 19 66 .#....8...D.^..f
00405150 4D 02 00 D8 75 95 20 BD 36 93 71 00 2C FF 11 AF M...u. .6.q.,...
00405160 78 B9 D8 E3 E8 F8 0C C1 05 03 C3 00 CA 8E CC 0A x...............
00405170 67 9B 10 4F 30 56 FF A4 9B 2F 83 D9 02 00 5E 00 g..O0V.../....^.
00405180 DF 26 D5 36 0C 5A 3A 68 CE FF 9F D6 EA 9D B0 BE .&.6.Z:h........
00405190 FA F9 FF 82 AC 42 00 80 14 D9 85 87 1B 6A 6B 00 .....B.......jk.
004051A0 E4 6F FF 40 E3 32 15 93 8E 31 07 3E 6F 94 78 0C .o.@.2...1.>o.x.
004051B0 70 23 00 00 90 88 51 25 B8 2B 87 72 00 7D B9 00 p#....Q%.+.r.}..
004051C0 00 8E 0D 04 AE E0 74 71 00 29 D8 45 0C 0B 6B 01 ......tq.).E..k.
004051D0 05 00 FC 40 FF A5 4D 14 EF 71 F0 B5 24 FF 5D E8 ...@..M..q..$.].
004051E0 FF CC BD 29 D2 35 B2 FA 23 00 2F 6B 00 00 24 86 ...).5..#./k..$.
004051F0 69 D3 E6 67 30 99 5E 34 6E 00 E1 F9 63 CD 00 F1 i..g0.^4n...c...
00405200 0A 24 47 0C 00 82 89 00 68 3D 17 00 68 FF 00 4D .$G.....h=..h..M
00405210 EF 43 BD B4 44 1A 2F 0C 0A 28 8A AF 78 83 5D 3F .C..D./..(..x.]?
00405220 00 C1 98 92 DB C2 FE 9C 6F 73 AD 8A 80 00 39 74 ........os....9t
00405230 FF 3F 00 00 52 5A 98 89 00 18 F3 00 DB FA 2C CE .?..RZ........,.
00405240 E8 4F 20 F8 E4 6E 01 7A 3A CE CA A4 0C 33 80 C2 .O ..n.z:....3..
00405250 5E 38 6A 00 34 08 10 13 18 40 00 35 14 8B 26 D6 ^8j.4....@.5..&.
00405260 FF 0E E2 E9 27 FB 63 7E 00 3A 00 45 5A 00 55 D1 ....'.c~.:.EZ.U.
00405270 00 07 F3 7C 4E 00 09 F5 88 DC A6 00 08 46 50 19 ...|N........FP.
00405280 B7 87 43 C6 00 FF 74 EA 53 0C D8 9A E0 00 89 C4 ..C...t.S.......
00405290 F6 67 FF FE 22 C7 FF B1 4C 79 D2 F8 E9 00 00 61 .g.."...Ly.....a
004052A0 85 02 0D 0A C9 25 4B AA FF 8E CB 05 0D 4F 00 D7 .....%K......O..
004052B0 97 EF 0B A9 38 FF 11 00 81 18 70 8D 0B 17 2C 1F ....8.....p...,.
004052C0 FF E8 00 E3 34 BF 1A C1 B5 2C FE 0D 3E 7B 28 AF ....4....,..>{(.
004052D0 D8 50 4E 93 E0 6E 9E 3A 00 FF 85 B8 F1 42 31 68 .PN..n.:.....B1h
004052E0 3C 38 B3 DA FF 1C F8 4F CD C8 00 1B 55 FA D4 4B <8.....O....U..K
004052F0 22 E6 52 26 FF F6 AD 86 FF 7A D5 86 76 CC 97 51 ".R&.....z..v..Q
00405300 DC 00 D9 49 6A 62 80 E7 81 8E B6 72 7F 00 00 AD ...Ijb.....r....
00405310 78 7C 98 76 ED 00 00 00 83 2D 79 ED 71 B0 69 3D x|.v.....-y.q.i=
00405320 F5 C4 32 00 C0 A0 B3 1A 34 00 36 02 1F 7D 32 55 ..2.....4.6..}2U
00405330 00 C7 61 DC F3 D1 45 FF D3 14 0F 1D B0 C0 80 AB ..a...E.........
00405340 00 27 63 FF 60 E3 74 00 1D 90 00 57 DB 00 C7 73 .'c.`.t....W...s
00405350 6B 44 C4 74 00 00 FF 17 04 00 A6 BF C4 A2 B7 A9 kD.t............
00405360 24 00 13 A0 FF 99 6D 98 C1 08 EB F6 DC 6F FF 7B $.....m......o.{
00405370 1C 00 FF 3F 2C 51 0C 8D E4 51 F7 94 00 2E 00 63 ...?,Q...Q.....c
00405380 47 1B A9 74 0B 37 A5 26 88 00 4D 12 38 8C 61 01 G..t.7.&..M.8.a.
00405390 73 45 F3 84 36 CD DB F8 62 3A 00 CB 71 00 04 EF sE..6...b:..q...
004053A0 00 B8 12 0D 97 03 1E B3 DF 2A E2 00 89 8B BC 02 .........*......
004053B0 A1 C6 5B B6 A2 82 00 C2 56 00 C7 B0 63 6C F3 E4 ..[.....V...cl..
004053C0 8B 03 4E 00 E8 E2 04 D6 48 79 3D 02 81 CE A1 C4 ..N.....Hy=.....
004053D0 F8 00 44 00 D2 00 36 6D 4D 7F FF 5B 0F DB 40 87 ..D...6mM..[..@.
004053E0 68 0A 00 2A 04 00 00 47 B0 D7 EC 00 1D 53 87 C6 h..*...G.....S..
004053F0 00 C1 07 E5 AB 00 7F 18 00 71 32 45 FF 8B CF DE .........q2E....
00405400 7C E8 21 85 61 20 F3 A6 FF 4E F5 E9 E8 B8 00 6B |.!.a ...N.....k
00405410 C7 F2 31 00 A9 FD 00 00 76 87 85 01 06 E4 3A B9 ..1.....v.....:.
00405420 3F FE DF 50 FF F8 00 00 90 E6 FF 64 F9 00 57 2C ?..P.......d..W,
00405430 34 13 00 56 81 B8 C0 63 27 04 00 05 1D F4 6D 0D 4..V...c'.....m.
00405440 D5 56 CD BE 44 A2 7E B2 DD 6A F1 5A CF BF A2 00 .V..D.~..j.Z....
00405450 08 00 FA 0D F4 B6 C0 38 00 00 B9 FF 00 00 90 92 .......8........
00405460 00 74 00 82 17 3D 40 00 E2 DE 9A 57 F5 00 63 B6 .t...=@....W..c.
00405470 3C E5 97 0E CC 0E 1B 78 5F 00 5B D2 E9 00 60 C6 <......x_.[...`.
00405480 C7 FF E6 3C B9 DD DE BB 63 83 FE FF E8 0C 04 00 ...<....c.......
00405490 9D D9 80 0C DD 1F FC 49 F9 00 EE 6D 00 A7 01 70 .......I...m...p
004054A0 39 81 C9 00 4A AC 12 0E 64 3C D8 C5 00 8A BA 20 9...J...d<..... 
004054B0 64 AE CC 54 01 01 97 85 13 7F 1B CD 12 86 9E BB d..T............
004054C0 DF 80 00 29 4A 00 3A 02 3F 25 40 3D 00 69 84 F0 ...)J.:.?%@=.i..
004054D0 FF 00 00 A0 F3 84 00 00 00 C0 46 5E C4 A3 92 00 ..........F^....
004054E0 77 CE 4B 28 20 52 55 EB 00 23 4A FC FD 20 00 FF w.K( RU..#J.. ..
004054F0 68 C2 01 75 5F 00 4F 17 06 C7 D6 49 FF 7F B7 3F h..u_.O....I...?
00405500 97 86 8B 0B 78 00 E0 EB 50 0F 86 20 19 AC 70 0D ....x...P.. ..p.
00405510 00 DB 11 A1 FF 9F 00 ED 90 4D FE 16 68 2D 00 00 .........M..h-..
00405520 08 FA 11 DD 3F 2C FF 8F 97 7C 8F 00 26 D1 DF 87 ....?,...|..&...
00405530 93 BD 81 39 26 31 69 34 00 CD 9D A0 84 02 48 2C ...9&1i4......H,
00405540 B9 D9 00 D7 51 1E CD A0 00 A4 77 8E 70 FF 1D 9A ....Q.....w.p...
00405550 1D 11 1E 35 73 8C 75 00 18 00 00 1C 00 0A 00 57 ...5s.u........W
00405560 1B 93 00 F6 AF 2B A8 72 00 30 55 00 94 A7 D2 D4 .....+.r.0U.....
00405570 00 75 A6 D7 00 FF C4 52 BC 48 83 1F 95 FF 0A DF .u.....R.H......
00405580 F0 25 20 FC ED F0 71 87 00 C7 00 A3 B5 56 3D 47 .% ...q......V=G
00405590 33 30 EF 2B C2 3E F2 00 E3 00 0A 42 98 3C 9C 23 30.+.>.....B.<.#
004055A0 FF 21 00 C8 76 C8 DC 50 D7 F4 CF FF 0C 2D FF 84 .!..v..P.....-..
004055B0 2E F4 2B 05 B0 00 05 7E FF 19 D3 96 3C 62 44 B1 ..+....~....<bD.
004055C0 12 C7 B7 00 3F 00 B9 90 96 43 26 35 C8 12 40 E1 ....?....C&5..@.
004055D0 00 69 43 00 31 50 7D D1 DE 87 DD 63 C8 3F 07 C7 .iC.1P}....c.?..
004055E0 2D DB 14 00 AC 00 05 D4 EF 56 AF 63 DF 0A AD 4A -........V.c...J
004055F0 00 0D FF FD 28 7E AB 8B 17 0C C1 D1 05 EE A3 D6 ....(~..........
00405600 89 CF 35 80 E7 C2 3E 20 FF 00 DC 81 00 00 B8 00 ..5...> ........
00405610 B5 FF FA 00 0F 62 9B 49 C1 0B 00 3D DE 66 00 55 .....b.I...=.f.U
00405620 CA 6D 87 50 BD 65 F9 00 E0 FF 00 2A FF 1F 3F A0 .m.P.e.....*..?.
00405630 5C B0 48 00 76 99 25 D4 98 93 1A 3B 0F D3 D3 4A \.H.v.%....;...J
00405640 23 25 AE B6 FB 67 11 F0 75 00 51 53 3A AD 89 04 #%...g..u.QS:...
00405650 CB 03 84 15 2F 68 00 00 00 BE 00 D6 04 8D 00 74 ..../h.........t
00405660 E4 36 D6 9F 00 00 61 E5 5B 31 4B E5 6E BD FF 48 .6....a.[1K.n..H
00405670 FB FF 99 07 9F FF A6 00 59 91 80 5C C6 03 64 00 ........Y..\..d.
00405680 14 00 78 00 28 5F 82 16 00 47 5A 38 19 78 FB CF ..x.(_...GZ8.x..
00405690 68 66 E9 A0 6E E8 E2 B5 36 D9 34 16 37 85 00 21 hf..n...6.4.7..!
004056A0 F0 63 EF E7 00 DC A8 D8 D3 48 FF A7 00 2E 09 70 .c.......H.....p
004056B0 F5 05 9D 3E 2E C1 00 01 00 8E 64 E3 C0 24 29 91 ...>......d..$).
004056C0 3F 49 47 C7 36 38 02 2F 00 25 C0 00 19 1D 91 EC ?IG.68./.%......
004056D0 00 AE C1 00 C1 58 A6 2E BE 6B 31 2F 05 00 98 C9 .....X...k1/....
004056E0 F2 94 58 2C 62 FF 00 00 75 FF B9 00 90 3B 75 0B ..X,b...u....;u.
004056F0 B4 9F C1 6A 8C FF A1 C4 38 E5 00 EE 15 FF 7B F0 ...j....8.....{.
00405700 22 DB 98 2B BD 23 8F 1F AE 00 E8 03 00 D0 31 7D "..+.#........1}
00405710 E4 11 98 00 E9 39 66 3C 0E 19 D2 7D 1C DF 1B 58 .....9f<...}...X
00405720 81 2F 4D 32 1C 41 46 C7 5D 91 C9 8B FF 93 C6 8A ./M2.AF.].......
00405730 B0 CF 21 90 A8 B1 3E C4 DD B4 F7 4E 29 D6 E2 00 ..!...>....N)...
00405740 16 30 16 E9 28 00 24 38 F7 97 81 63 98 C9 1F 58 .0..(.$8...c...X
00405750 00 98 27 30 04 2A 00 F0 E4 CC 08 3A 59 A0 00 74 ..'0.*.....:Y..t
00405760 C5 76 05 A8 08 5C 7B 28 C1 0F 07 09 FF 7E 86 DF .v...\{(.....~..
00405770 40 00 FE 78 72 1A 4B 5B C5 EC 31 11 80 72 E9 05 @..xr.K[..1..r..
00405780 CA 37 19 4D 66 1F 8F 84 CE 81 6A B7 D4 C9 09 1F .7.Mf.....j.....
00405790 00 7C 56 00 B8 1E 20 A7 1A E0 C7 41 E8 EF 50 E1 .|V... ....A..P.
004057A0 FE 77 69 74 00 E2 FF 81 F5 04 BA 2E 27 84 2C 24 .wit........'.,$
004057B0 88 13 2F 00 00 7B 00 18 60 F3 ED F6 3A 08 08 00 ../..{..`...:...
004057C0 00 82 A5 C9 00 FF B8 9B 89 E7 80 23 D1 54 68 9D ...........#.Th.
004057D0 D5 FF F6 E9 00 35 7F A3 E1 F5 34 04 7A 48 2C 01 .....5....4.zH,.
004057E0 30 71 FB 80 C0 05 29 9E 00 AA 7F BF E7 27 82 00 0q....)......'..
004057F0 29 93 8C F8 06 7C 57 00 B3 E4 0C 00 A1 3C 00 36 )....|W......<.6
00405800 08 48 6B 0C 08 0D 46 C2 D3 90 E3 C0 91 B4 9A 90 .Hk...F.........
00405810 46 CB F0 E5 00 EE 0E C1 8D 3C 00 07 8C 7F 60 A9 F........<....`.
00405820 7F 25 2C 46 B1 D8 FF 43 DE FF 9F 71 2D E3 E8 4A .%,F...C...q-..J
00405830 8A 00 2F E8 75 B4 F4 87 45 22 44 AA 8E 74 00 8B ../.u...E"D..t..
00405840 7F 1E 41 EF 00 8A 56 00 E8 FF 5C 04 AF 20 81 00 ..A...V...\.. ..
00405850 3C AE 38 4D D2 FE 30 CD F8 80 D5 EC 00 D7 1B A4 <.8M..0.........
00405860 F1 FF FF FF 00 CE A7 FF 44 4B E8 53 4D 70 81 05 ........DK.SMp..
00405870 18 0E 52 00 2E 00 00 4E 64 9E 8A FF 4E E2 03 FF ..R....Nd...N...
00405880 32 27 CF 64 D2 07 02 EF 6E 6A FB D5 09 00 99 00 2'.d....nj......
00405890 1B AA CA 94 BC 06 FD 00 1D 00 CA 00 54 F7 DD ED ............T...
004058A0 E6 E0 1C 39 35 17 00 D0 C1 5C 96 8D 3C 72 85 F8 ...95....\..<r..
004058B0 0F D5 5E DF 04 8B 61 95 12 4A 00 F2 CC 00 53 24 ..^...a..J....S$
004058C0 AE 5D 92 47 65 17 D8 00 46 C1 00 AB 7E 01 69 03 .].Ge...F...~.i.
004058D0 89 60 DA F6 1B D2 5C 0A 32 93 E5 F2 68 0E 49 FF .`....\.2...h.I.
004058E0 3C 00 BF 30 A7 57 2A DE 7E 30 E4 F0 EA 00 C3 1F <..0.W*.~0......
004058F0 93 A3 01 F7 FA 04 18 60 5F 1C 04 FC FD F7 A5 F7 .......`_.......
00405900 E2 00 8E 61 11 91 31 00 50 CB 97 E2 00 51 70 28 ...a..1.P....Qp(
00405910 07 8F FF 4B 1C 00 CD 12 FF 00 00 00 A2 98 74 2D ...K..........t-
00405920 8E 60 7A 06 18 70 7B B3 EF 24 94 0C 2C C5 95 00 .`z..p{..$..,...
00405930 30 BA D2 28 7F 00 48 54 FF 8A F3 E2 FF B0 00 00 0..(..HT........
00405940 BB 7A 76 13 00 80 05 15 0C E3 F7 2F FF EC C2 FF .zv......../....
00405950 0A FF 18 A1 00 00 15 35 00 AE C0 B1 00 FF F5 72 .......5.......r
00405960 00 2F 00 82 AB F1 B2 E6 B5 F5 4F 99 CF 22 32 CF ./........O.."2.
00405970 B5 B3 94 00 16 20 06 62 B1 AE 9F 7D 66 D7 29 9D ..... .b...}f.).
00405980 00 C4 FF 39 E9 8D 50 A4 C3 0D DF DF 2A 6C F2 D2 ...9..P.....*l..
00405990 86 00 00 A4 B0 B0 2E 54 56 4C DD 40 58 9E 15 7E .......TVL.@X..~
004059A0 6B 61 52 8F A2 6B C4 73 EC 95 A5 ED 05 6F 82 01 kaR..k.s.....o..
004059B0 F4 94 CC 91 6E 00 31 E1 4F 91 10 A6 1D DA 16 00 ....n.1.O.......
004059C0 00 2F 30 73 83 80 A7 C4 00 CC 62 00 25 00 E6 9C ./0s......b.%...
004059D0 40 00 EE 00 33 0B 83 F9 6C 31 00 00 00 06 64 33 @...3...l1....d3
004059E0 70 00 03 8C 11 9B 99 74 C0 31 39 0A E4 E6 07 D1 p......t.19.....
004059F0 89 0C 8C 78 E6 EC AD FF 6F 94 A6 00 F9 15 52 00 ...x....o.....R.
00405A00 E8 9A 71 21 66 90 00 25 FB 73 37 5F C6 DC 86 FF ..q!f..%.s7_....
00405A10 67 7A 00 7A 17 82 48 07 00 33 DB 01 00 00 48 00 gz.z..H..3....H.
00405A20 70 74 37 07 E2 58 CD 6A DC 06 2C 60 A0 AC C3 10 pt7..X.j..,`....
00405A30 C3 7C 18 00 00 9D 47 CE 92 FF 84 CF FB A5 1E 73 .|....G........s
00405A40 C4 92 8B 98 26 00 00 05 B1 00 9C 4E 03 36 7B 38 ....&......N.6{8
00405A50 72 AC 83 00 B0 38 F6 CB 00 3D 59 14 50 FA 75 4D r....8...=Y.P.uM
00405A60 81 55 00 E9 2C 00 24 9B EC 14 F4 14 C1 00 31 65 .U..,.$.......1e
00405A70 00 AD A4 40 1E 37 7B 10 F3 48 58 53 E9 E1 00 00 ...@.7{..HXS....
00405A80 7D 35 12 51 A3 10 E6 66 F7 E4 CA 82 C5 18 9C 55 }5.Q...f.......U
00405A90 90 08 79 1F 58 34 EE C3 E1 D0 5B 70 00 AD 48 F9 ..y.X4....[p..H.
00405AA0 EC 00 D1 E9 F3 75 01 31 E2 B0 16 00 D8 6F 17 00 .....u.1.....o..
00405AB0 02 E3 1F 20 4A 50 00 3E 0D 89 2D C4 A6 02 61 23 ... JP.>..-...a#
00405AC0 E9 F1 47 64 82 D0 00 77 BF 00 EE 6C 1C C0 B4 0A ..Gd...w...l....
00405AD0 00 41 72 73 00 00 FF CC 7F 58 DF FF 00 8B D5 64 .Ars.....X.....d
00405AE0 C1 00 D9 27 62 AE 1B 54 3B B5 2A 00 84 7B BE 2D ...'b..T;.*..{.-
00405AF0 00 00 22 12 75 95 91 71 A1 FF 32 B2 9C FC E5 69 ..".u..q..2....i
00405B00 F6 8E 2D 56 E5 55 74 3B CF 01 4F 82 79 FE E5 89 ..-V.Ut;..O.y...
00405B10 13 41 00 03 B3 D9 00 38 00 02 73 2E 53 0C B5 20 .A.....8..s.S.. 
00405B20 00 5D D7 DE E3 FF 2A FF 37 FF 8E C7 19 7E 22 E2 .]....*.7....~".
00405B30 00 36 FF 00 4B C1 CE 6E 00 00 30 AE B7 EA 6A F0 .6..K..n..0...j.
00405B40 BA 12 5C 0F 96 AE 75 38 22 F8 70 10 00 F4 68 87 ..\...u8".p...h.
00405B50 3F FF A3 BA F1 CF 08 E2 00 13 5E 00 43 F7 FE 4B ?.........^.C..K
00405B60 FF 6F 00 8F 44 81 40 3E 91 3F 72 26 D9 BD 05 62 .o..D.@>.?r&...b
00405B70 36 7E BF E9 F1 CE E2 1F 31 E5 CC E6 CA A6 6E 34 6~......1.....n4
00405B80 7C E1 FD 60 70 00 77 00 F1 FF 80 82 D1 00 2E 95 |..`p.w.........
00405B90 00 CB 57 2A BF 4A 8E 64 BC 7F F1 F7 19 B9 70 FF ..W*.J.d......p.
00405BA0 9A 7F 24 72 36 08 FF 1C 98 00 46 A5 D0 19 86 00 ..$r6.....F.....
00405BB0 17 FF FF 17 E5 08 C3 27 00 E7 5D 22 D0 27 0E 4F .......'..]".'.O
00405BC0 BD A3 ED 00 45 C8 1D 20 4E 81 B0 1E 0B 00 31 36 ....E.. N.....16
00405BD0 F1 F4 C3 14 A7 6E A0 03 E5 E2 EB 00 B9 00 2B E0 .....n........+.
00405BE0 16 5F 10 19 8B CA 8A 77 46 00 3D 00 E2 33 93 5F ._.....wF.=..3._
00405BF0 10 7D 02 0D 00 F5 C7 0A 5E 69 30 FF EC FF 8F 80 .}......^i0.....
00405C00 C0 00 00 48 CE 00 CC 55 0A E1 3E 00 C8 7C 00 7B ...H...U..>..|.{
00405C10 04 00 50 38 12 00 C3 E6 96 63 00 19 5C 52 7C B7 ..P8.....c..\R|.
00405C20 FA 00 B5 FB FC 81 BF AD 9D FF ED 2E FF BA 4B 0C ..............K.
00405C30 FF D8 1E C4 AB 00 DF AF D2 E3 3C B4 54 00 76 00 ..........<.T.v.
00405C40 00 91 DC 00 7E D8 15 B6 A8 00 BA 41 5F CF 5C D6 ....~......A_.\.
00405C50 FF A8 77 00 93 5D F3 2A AE 2A 89 00 D7 DF A5 00 ..w..].*.*......
00405C60 44 07 DB D5 06 E2 6A B7 FF 7A AE 2F A9 E5 CF 1C D.....j..z./....
00405C70 F5 20 82 4D 77 86 00 86 F1 4A F8 48 05 3A E8 00 . .Mw....J.H.:..
00405C80 BE 33 E6 20 83 24 40 FF 1A 5A 06 00 6F CB F8 AE .3. .$@..Z..o...
00405C90 00 DB 01 DA F4 BD 1B 25 80 98 65 AA 95 66 F0 00 .......%..e..f..
00405CA0 77 17 C9 38 7A 31 B9 61 A0 60 D9 3D 5A 68 B7 00 w..8z1.a.`.=Zh..
00405CB0 67 F1 00 DE 10 C8 B8 00 A4 D4 B0 FF D6 00 49 9C g.............I.
00405CC0 EF 00 27 D8 6B 46 00 00 00 DE 14 3C 01 D8 B1 56 ..'.kF.....<...V
00405CD0 D0 F9 75 E1 00 4A 01 07 A8 89 07 00 37 C9 1B 1F ..u..J......7...
00405CE0 02 00 F5 D7 0D 2C 27 DA 08 C4 F9 B7 E0 00 00 D7 .....,'.........
00405CF0 C2 85 62 49 14 74 D3 93 56 39 13 0F 87 0D 50 17 ..bI.t..V9....P.
00405D00 FA AE E0 03 2A 83 10 93 00 7D B5 2C 72 00 9F 00 ....*....}.,r...
00405D10 F7 00 DD 8F 4F 00 38 FF 24 35 32 5A 26 B4 15 98 ....O.8.$52Z&...
00405D20 77 42 00 2E 1F 02 00 70 FF 0B 00 9F D5 DF 5F 7F wB.....p......_.
00405D30 12 8D 2D 00 55 19 F2 F1 00 20 22 99 87 78 52 00 ..-.U.... "..xR.
00405D40 62 00 16 A2 50 62 3A EF 48 20 6C 00 EE 92 5C FB b...Pb:.H l...\.
00405D50 C8 F8 32 CB 60 00 7C 00 00 00 46 19 07 00 00 84 ..2.`.|...F.....
00405D60 84 6E 93 30 42 C5 7C 85 DC 69 00 E0 EE FB 58 B0 .n.0B.|..i....X.
00405D70 65 D3 FC 67 1B AF 1E 51 7D 17 E7 6C 00 88 7F 78 e..g...Q}..l...x
00405D80 ED 84 40 00 00 70 66 F2 6E 33 F2 19 47 00 3D C8 ..@..pf.n3..G.=.
00405D90 2C 31 8B 29 E7 1A 0B E1 00 00 C9 E2 E3 21 FD 60 ,1.).........!.`
00405DA0 55 96 00 E1 D8 FF EF B5 BB E4 14 C3 51 E6 EC FF U...........Q...
00405DB0 00 FF 68 E2 E4 60 4C 7C B0 D3 BD FF 00 60 00 44 ..h..`L|.....`.D
00405DC0 77 89 1C 41 D2 85 89 96 7F 00 FC 6C 04 C9 24 70 w..A.......l..$p
00405DD0 97 31 FF A5 00 7B 4E 66 00 93 67 00 00 00 BF 09 .1...{Nf..g.....
00405DE0 FC CB 4B 87 8A 00 B6 74 0A 0B FD 81 7E 16 00 16 ..K....t....~...
00405DF0 43 FF 82 70 FE 93 9F B7 7F 73 00 00 A9 CC 34 74 C..p.....s....4t
00405E00 00 9C B3 00 87 15 C5 93 1A 0B BD 21 73 FC 16 2B ...........!s..+
00405E10 35 00 DE 00 9B 4A FE 00 45 FF 79 16 2F 2C 01 8A 5....J..E.y./,..
00405E20 1F 00 FF E4 03 21 00 60 DC 03 3E A1 E0 10 62 00 .....!.`..>...b.
00405E30 00 96 2D 25 6F E1 1A 12 00 7F 6C B4 00 EF 60 F0 ..-%o.....l...`.
00405E40 27 EB 00 C6 22 DA 8C 6A D0 01 00 FF 58 D5 A0 8F '..."..j....X...
00405E50 D8 73 AC 76 69 B5 F0 72 FF 34 17 E2 29 F9 06 D1 .s.vi..r.4..)...
00405E60 00 B4 9A D5 99 CE AF EC FF EF 02 2F 91 BA 05 35 .........../...5
00405E70 FF 5F 22 7E 89 F1 B4 00 FF 23 87 00 FF 00 24 67 ._"~.....#....$g
00405E80 C5 70 1C 33 37 00 77 46 9A 01 E5 CF 00 00 87 68 .p.37.wF.......h
00405E90 C8 00 00 5C 00 83 00 00 41 E1 36 16 A7 14 00 93 ...\....A.6.....
00405EA0 00 97 61 00 B0 00 00 75 BC 3C 47 00 F0 B1 88 B6 ..a....u.<G.....
00405EB0 23 00 6A FF 62 44 AC C7 83 37 ED C6 03 00 00 18 #.j.bD...7......
00405EC0 70 60 9B EA C4 B6 3F AF 00 A2 00 84 2A 99 43 9A p`....?.....*.C.
00405ED0 DF 00 F3 B3 70 F8 EC 2C 80 00 00 14 1E 49 20 FF ....p..,.....I .
00405EE0 6F FF 5C 18 93 0B 71 73 D3 6D 8F 10 FE 94 00 D1 o.\...qs.m......
00405EF0 87 38 4B F4 00 32 A1 07 59 C9 67 8D 79 33 DB 22 .8K..2..Y.g.y3."
00405F00 3C F9 00 07 86 6D 2A 5D E0 4E 00 00 00 22 00 5F <....m*].N..."._
00405F10 00 DD CE 08 3C 50 60 7D 71 1A 12 56 9B BE 60 38 ....<P`}q..V..`8
00405F20 81 F9 56 60 82 FF E4 E8 A2 F7 AE 6C 3E C3 F0 3A ..V`.......l>..:
00405F30 00 E1 CF 08 60 C3 FF 7A 7F FF C4 1C 3A E3 C6 7C ....`..z....:..|
00405F40 C6 96 C0 D5 5C FB D8 57 2F D7 E5 B3 89 58 93 7F ....\..W/....X..
00405F50 5A 0F FD 4F 37 00 02 7D E9 00 09 76 EE 8E AC E6 Z..O7..}...v....
00405F60 00 16 FF AE 6A 00 00 C6 42 7F 68 69 20 5D 40 00 ....j...B.hi ]@.
00405F70 65 BF C5 0A C6 72 F5 CC 09 C7 BF F8 03 E0 8F 6F e....r.........o
00405F80 58 CD 05 32 00 7A 0E 5E B8 32 9C 00 00 7D CD 3D X..2.z.^.2...}.=
00405F90 33 00 51 EC 39 83 5D CA B2 85 C1 ED 9A 00 00 2B 3.Q.9.]........+
00405FA0 DD 00 00 AB 4D 00 0D 66 E8 1C B3 FF 00 EA A6 38 ....M..f.......8
00405FB0 0F CF 59 A4 09 2F 13 7A 20 ED D5 CF 8B 33 4F 41 ..Y../.z ....3OA
00405FC0 6F C0 D0 82 77 50 31 3C FE BF 93 A2 CB 98 71 00 o...wP1<......q.
00405FD0 7C A6 FF 49 58 6C B8 06 D2 12 41 94 00 37 E5 00 |..IXl....A..7..
00405FE0 B9 05 11 8F FA FF 57 D5 00 1E 66 CC FF C6 83 2B ......W...f....+
00405FF0 0A 8D 5E 70 CF 38 00 2C E9 00 37 78 E8 E1 84 22 ..^p.8.,..7x..."
00406000 82 5C 72 11 55 3B D5 C2 52 CF 00 E5 E1 C9 5D 61 .\r.U;..R.....]a
00406010 FF 04 03 00 00 00 52 DF 00 0E 55 00 F0 22 46 6E ......R...U.."Fn
00406020 89 CF 43 90 21 8B AE 16 2F 71 1E 26 00 0E 00 BA ..C.!.../q.&....
00406030 F2 8D 6F 12 9B 00 B7 45 1B F1 16 8E D9 85 DD 37 ..o....E.......7
00406040 00 04 00 F2 03 92 00 22 EE 59 39 80 00 AC A4 83 .......".Y9.....
00406050 8E 00 17 00 93 26 E9 F2 1A 62 19 8D 12 00 89 42 .....&...b.....B
00406060 8F D5 00 7F 03 4B 85 FF 00 05 FF CE 38 00 FA 00 .....K......8...
00406070 CF 36 EF 17 00 57 15 3E 2A FF BF 3F 66 B4 FF 00 .6...W.>*..?f...
00406080 00 A1 00 ED 0E 3C 0F B8 E4 CD 28 7F FB 09 FE 80 .....<....(.....
00406090 06 FF 28 CC 0D BA 76 00 E2 00 DD 00 5E 61 B9 FF ..(...v.....^a..
004060A0 00 08 28 CF A2 00 C4 02 1F 80 CE AC C3 F3 12 B9 ..(.............
004060B0 9D 27 9F F5 13 40 DD E2 E3 28 9D 00 00 C5 CF FC .'...@...(......
004060C0 4E 7A 00 45 2A 85 B6 1A 71 04 BC FF 00 00 66 A2 Nz.E*...q.....f.
004060D0 85 D3 16 00 49 00 FF FF 7F 7B 8A CE 00 07 FF 4D ....I....{.....M
004060E0 F7 13 F2 00 CA 1E 68 00 D9 94 E0 0F F8 11 79 27 ......h.......y'
004060F0 F4 FF 03 FF 00 04 D8 31 3C 69 60 00 FD A2 98 9B .......1<i`.....
00406100 27 14 32 2E 85 01 06 A6 7A 00 33 F4 EF 00 CD 60 '.2.....z.3....`
00406110 E3 00 00 6C 71 E9 D6 DC F1 18 B9 F3 02 5C 00 FF ...lq........\..
00406120 00 00 60 24 03 07 42 2C 77 96 E4 89 81 A4 FF 38 ..`$..B,w......8
00406130 00 E7 B3 64 3D D1 00 12 00 46 4B 3A 81 26 00 FA ...d=....FK:.&..
00406140 0D 52 00 0D CC 2E C1 11 06 D8 34 EE 4A E0 0C 00 .R........4.J...
00406150 9A 9E E4 00 12 80 6F FF 38 79 97 FF 2E 7E 46 52 ......o.8y...~FR
00406160 B4 94 FF 10 CA B3 86 C0 52 EA 00 00 00 D0 B4 9A ........R.......
00406170 18 2C 76 4A 6A 56 8C F7 01 00 B6 A6 3C 00 5F 5A .,vJjV......<._Z
00406180 82 3A 00 CD 56 FF FF 74 BD 70 2F 00 7B 2A A5 FF .:..V..t.p/.{*..
00406190 2A 66 00 C5 75 A9 50 F6 54 FF FF DD FF F0 FF 83 *f..u.P.T.......
004061A0 DC DC B9 69 0C 83 28 FF 09 C0 AF 02 C2 A0 A5 75 ...i..(........u
004061B0 FF 00 D4 00 43 3E 3E B9 EF FF A1 FF 33 79 C5 60 ....C>>.....3y.`
004061C0 F3 A3 A2 7B 70 00 FF 0E C2 00 57 DF FF FD 94 66 ...{p.....W....f
004061D0 0C 26 54 84 F8 E4 C9 A2 FA C8 C7 38 E9 F1 0A 18 .&T........8....
004061E0 FF C9 08 C2 93 00 EF 56 A5 9D DB 92 17 E9 98 C2 .......V........
004061F0 CF 68 00 00 A3 FF 00 B3 8E AB CF E0 BB 20 71 A0 .h........... q.
00406200 64 DA 83 FF 00 86 B7 22 49 69 02 D7 9A 18 B6 04 d......"Ii......
00406210 9A 08 66 EF E7 00 92 BF 00 91 00 07 19 9D FF F8 ..f.............
00406220 40 DB AC E6 B7 00 CC 81 C6 F0 44 00 00 3D 28 22 @.........D..=("
00406230 B0 00 52 2A 5D 16 60 94 9F 8B 82 00 28 DA 89 D0 ..R*].`.....(...
00406240 FF 73 84 D2 DC 8E 63 14 0D 83 9C 15 F0 2E 39 41 .s....c.......9A
00406250 26 A8 00 00 28 4F 00 DA 4E B4 98 CC F3 00 3E 90 &...(O..N.....>.
00406260 E5 0E D8 2C 36 70 39 FF 18 37 32 70 BD A8 4C 00 ...,6p9..72p..L.
00406270 FF 8E 7E 6E 8C F5 00 6F 77 D8 00 A8 0C 17 98 FF ..~n...ow.......
00406280 28 00 7E 29 89 4C 67 EB C7 3B 00 88 00 00 1F 6A (.~).Lg..;.....j
00406290 41 46 D3 33 FF F3 38 F9 2A ED 93 2C 8A F0 99 3E AF.3..8.*..,...>
004062A0 01 00 32 83 F5 E6 FD CA 1B 5F 3C 44 00 B7 00 AD ..2......_<D....
004062B0 BF A2 75 D8 00 B2 00 A5 AF 1A 9E 77 52 B3 FF 23 ..u........wR..#
004062C0 9A BA E2 17 08 14 51 00 4C 1F 6D D1 00 B3 FE 18 ......Q.L.m.....
004062D0 2F 15 13 99 95 26 96 44 F9 56 00 1A B2 BA 29 00 /....&.D.V....).
004062E0 40 74 55 11 14 00 14 B4 00 F8 A3 8D 6A 5A ED 0C @tU.........jZ..
004062F0 FE A5 0E 5C E1 46 21 FF 02 32 00 C1 3A 57 49 01 ...\.F!..2..:WI.
00406300 45 DF 00 16 01 81 A1 DC 9F 84 53 85 C4 FE 00 46 E.........S....F
00406310 07 A0 81 11 C1 EF E9 C1 66 80 81 5E 24 00 C3 1B ........f..^$...
00406320 0A 00 E1 B3 83 66 77 31 EC C6 E4 DC 19 7E 6F EF .....fw1.....~o.
00406330 42 8F 4B 7C 22 25 8A FF FF 24 5D 48 28 00 D0 36 B.K|"%...$]H(..6
00406340 7C 47 B2 78 6B CD D8 C0 58 00 98 18 24 00 DC 04 |G.xk...X...$...
00406350 2B 26 FC DD 12 47 00 46 FE 02 00 6F 37 76 00 1E +&...G.F...o7v..
00406360 47 8D 0A B1 0B EC 8A EA D0 00 8E 9D FF D2 FF BC G...............
00406370 9C 6F 66 D2 E4 00 D4 92 10 78 46 CF CB DB F3 3A .of......xF....:
00406380 D8 A0 4C 81 4B DE C6 FC 32 89 00 00 00 E8 36 D0 ..L.K...2.....6.
00406390 2F 3E D9 A7 58 00 F7 3A 88 E6 29 00 B2 36 B4 B1 />..X..:..)..6..
004063A0 17 33 BE 9E 5A 61 1A 96 40 85 00 F7 0C AE 5E 0F .3..Za..@.....^.
004063B0 97 DD 21 E2 20 BF 18 1E 01 2B D2 00 B3 66 00 58 ..!. ....+...f.X
004063C0 FF 00 B9 00 71 64 00 F5 BB 70 43 18 03 00 F5 E4 ....qd...pC.....
004063D0 B6 5D FF 00 00 17 DF BD 1D F8 50 77 00 F2 2C 00 .]........Pw..,.
004063E0 ED 5C 7A 33 D9 FE 65 A8 0C 00 9F E6 38 69 17 1A .\z3..e.....8i..
004063F0 00 E9 83 D1 5F 44 00 07 A7 13 00 30 02 DA 37 19 ...._D.....0..7.
00406400 EE 24 77 77 B2 7A 9B 38 BF 9B AC 40 2E 99 21 1A .$ww.z.8...@..!.
00406410 A9 D5 C5 DB 58 61 C5 C5 3E D1 44 D3 00 32 C1 05 ....Xa..>.D..2..
00406420 00 FF 80 D9 9B 4E FF FF 29 B1 59 F1 00 4D 08 00 .....N..).Y..M..
00406430 71 86 91 92 98 29 08 00 00 1C 00 00 67 36 38 FE q....)......g68.
00406440 00 20 19 E8 4D 81 C1 37 1E 1E 44 DE C3 00 00 4A . ..M..7..D....J
00406450 8B 4C 2D 08 35 90 F2 EB D3 58 34 83 2A 42 00 6D .L-.5....X4.*B.m
00406460 C3 01 68 74 00 C4 00 E1 F6 00 BE E8 00 D4 47 00 ..ht..........G.
00406470 FF 55 26 CE 00 FF DF 18 F2 61 94 83 BF 27 DD 13 .U&......a...'..
00406480 29 00 48 E3 8E 28 8B 00 91 00 29 C6 F3 12 00 93 ).H..(....).....
00406490 6C 24 68 DE 8A 04 FF 4E 00 70 80 F3 39 23 EF 91 l$h....N.p..9#..
004064A0 88 FF 00 71 18 FD 37 F0 93 00 94 01 0D 4A 4E E3 ...q..7......JN.
004064B0 9E 28 FF 3A 2C C0 6C F7 33 58 30 DC 00 2B C6 29 .(.:,.l.3X0..+.)
004064C0 0A 1D 00 00 80 B7 46 E7 CF E6 61 5D FF F1 4B 5F ......F...a]..K_
004064D0 19 91 CB 01 93 5C BB CE CF 4D 40 1E 5D EE 6A FE .....\...M@.].j.
004064E0 FF A8 81 00 00 13 0F A8 00 8D 4F 6E E3 01 F5 35 ..........On...5
004064F0 DD EF 95 00 36 69 B7 CB 00 FF 62 13 96 31 0F 58 ....6i....b..1.X
00406500 81 C6 FE 00 09 00 EC F7 6F 42 79 56 97 00 85 E5 ........oByV....
00406510 D4 00 BB 6B 7A 05 00 FF 3C 45 57 CF 7C 00 F0 00 ...kz...<EW.|...
00406520 5D 00 9C 99 59 12 F9 8E 8F 72 F3 FE EB 87 E3 79 ]...Y....r.....y
00406530 00 00 00 51 00 00 3C E1 10 C8 D7 84 00 00 23 38 ...Q..<.......#8
00406540 DC 00 FF 7D 65 00 86 F1 4D D6 71 6C 04 19 8B BF ...}e...M.ql....
00406550 1C F8 7D 59 E2 38 00 C6 82 EA 10 03 E8 FF B1 D7 ..}Y.8..........
00406560 00 04 E1 FF A9 00 71 10 A3 B5 8E F7 F7 5A 33 00 ......q......Z3.
00406570 5C FF F0 CB 72 BF 5D B5 49 03 EB 00 8D 89 AF 6A \...r.].I......j
00406580 A2 00 61 8C 0E 3E 5F A2 00 80 67 96 5D 92 0A 00 ..a..>_...g.]...
00406590 6E FF 79 FE A1 FD C3 0E 00 FF E6 E8 46 00 F6 AD n.y.........F...
004065A0 0F 01 7A 73 94 00 00 D6 00 00 F4 35 61 B3 C0 00 ..zs.......5a...
004065B0 58 D9 BE 83 27 2D D4 BE BB E2 AC A6 0F FF C1 00 X...'-..........
004065C0 C2 0C A4 9E D8 19 20 64 86 2C 00 41 00 43 27 1E ...... d.,.A.C'.
004065D0 3C 2D 5B 00 9B 00 42 D0 89 00 FA 84 FC 85 01 8A <-[...B.........
004065E0 FF B2 08 EF 00 BE 95 C4 AD 28 00 00 41 B5 5C C8 .........(..A.\.
004065F0 25 F4 43 BD FF D3 32 FF CB 78 42 F1 71 00 73 EF %.C...2..xB.q.s.
00406600 00 00 00 00 00 00 00 00 00 00 00 00 00 00 00 00 ................
00406610 00 00 00 00 00 00 00 00 00 00 00 00 00 00 00 00 ................
00406620 00 00 00 00 00 00 00 00 00 00 00 00 00 00 00 00 ................
00406630 00 00 00 00 00 00 00 00 00 00 00 00 00 00 00 00 ................
00406640 00 00 00 00 00 00 00 00 00 00 00 00 00 00 00 00 ................
00406650 00 00 00 00 00 00 00 00 00 00 00 00 00 00 00 00 ................
00406660 00 00 00 00 00 00 00 00 00 00 00 00 00 00 00 00 ................
00406670 00 00 00 00 00 00 00 00 00 00 00 00 00 00 00 00 ................
00406680 00 00 00 00 00 00 00 00 00 00 00 00 00 00 00 00 ................
00406690 00 00 00 00 00 00 00 00 00 00 00 00 00 00 00 00 ................
004066A0 00 00 00 00 00 00 00 00 00 00 00 00 00 00 00 00 ................
004066B0 00 00 00 00 00 00 00 00 00 00 00 00 00 00 00 00 ................
004066C0 00 00 00 00 00 00 00 00 00 00 00 00 00 00 00 00 ................
004066D0 00 00 00 00 00 00 00 00 00 00 00 00 00 00 00 00 ................
004066E0 00 00 00 00 00 00 00 00 00 00 00 00 00 00 00 00 ................
004066F0 00 00 00 00 00 00 00 00 00 00 00 00 00 00 00 00 ................
00406700 00 00 00 00 00 00 00 00 00 00 00 00 00 00 00 00 ................
00406710 00 00 00 00 00 00 00 00 00 00 00 00 00 00 00 00 ................
00406720 00 00 00 00 00 00 00 00 00 00 00 00 00 00 00 00 ................
00406730 00 00 00 00 00 00 00 00 00 00 00 00 00 00 00 00 ................
00406740 00 00 00 00 00 00 00 00 00 00 00 00 00 00 00 00 ................
00406750 00 00 00 00 00 00 00 00 00 00 00 00 00 00 00 00 ................
00406760 00 00 00 00 00 00 00 00 00 00 00 00 00 00 00 00 ................
00406770 00 00 00 00 00 00 00 00 00 00 00 00 00 00 00 00 ................
00406780 00 00 00 00 00 00 00 00 00 00 00 00 00 00 00 00 ................
00406790 00 00 00 00 00 00 00 00 00 00 00 00 00 00 00 00 ................
004067A0 00 00 00 00 00 00 00 00 00 00 00 00 00 00 00 00 ................
004067B0 00 00 00 00 00 00 00 00 00 00 00 00 00 00 00 00 ................
004067C0 00 00 00 00 00 00 00 00 00 00 00 00 00 00 00 00 ................
004067D0 00 00 00 00 00 00 00 00 00 00 00 00 00 00 00 00 ................
004067E0 00 00 00 00 00 00 00 00 00 00 00 00 00 00 00 00 ................
004067F0 00 00 00 00 00 00 00 00 00 00 00 00 00 00 00 00 ................
00406800 00 00 00 00 00 00 00 00 00 00 00 00 00 00 00 00 ................
00406810 00 00 00 00 00 00 00 00 00 00 00 00 00 00 00 00 ................
00406820 00 00 00 00 00 00 00 00 00 00 00 00 00 00 00 00 ................
00406830 00 00 00 00 00 00 00 00 00 00 00 00 00 00 00 00 ................
00406840 00 00 00 00 00 00 00 00 00 00 00 00 00 00 00 00 ................
00406850 00 00 00 00 00 00 00 00 00 00 00 00 00 00 00 00 ................
00406860 00 00 00 00 00 00 00 00 00 00 00 00 00 00 00 00 ................
00406870 00 00 00 00 00 00 00 00 00 00 00 00 00 00 00 00 ................
00406880 00 00 00 00 00 00 00 00 00 00 00 00 00 00 00 00 ................
00406890 00 00 00 00 00 00 00 00 00 00 00 00 00 00 00 00 ................
004068A0 00 00 00 00 00 00 00 00 00 00 00 00 00 00 00 00 ................
004068B0 00 00 00 00 00 00 00 00 00 00 00 00 00 00 00 00 ................
004068C0 00 00 00 00 00 00 00 00 00 00 00 00 00 00 00 00 ................
004068D0 00 00 00 00 00 00 00 00 00 00 00 00 00 00 00 00 ................
004068E0 00 00 00 00 00 00 00 00 00 00 00 00 00 00 00 00 ................
004068F0 00 00 00 00 00 00 00 00 00 00 00 00 00 00 00 00 ................
00406900 00 00 00 00 00 00 00 00 00 00 00 00 00 00 00 00 ................
00406910 00 00 00 00 00 00 00 00 00 00 00 00 00 00 00 00 ................
00406920 00 00 00 00 00 00 00 00 00 00 00 00 00 00 00 00 ................
00406930 00 00 00 00 00 00 00 00 00 00 00 00 00 00 00 00 ................
00406940 00 00 00 00 00 00 00 00 00 00 00 00 00 00 00 00 ................
00406950 00 00 00 00 00 00 00 00 00 00 00 00 00 00 00 00 ................
00406960 00 00 00 00 00 00 00 00 00 00 00 00 00 00 00 00 ................
00406970 00 00 00 00 00 00 00 00 00 00 00 00 00 00 00 00 ................
00406980 00 00 00 00 00 00 00 00 00 00 00 00 00 00 00 00 ................
00406990 00 00 00 00 00 00 00 00 00 00 00 00 00 00 00 00 ................
004069A0 00 00 00 00 00 00 00 00 00 00 00 00 00 00 00 00 ................
004069B0 00 00 00 00 00 00 00 00 00 00 00 00 00 00 00 00 ................
004069C0 00 00 00 00 00 00 00 00 00 00 00 00 00 00 00 00 ................
004069D0 00 00 00 00 00 00 00 00 00 00 00 00 00 00 00 00 ................
004069E0 00 00 00 00 00 00 00 00 00 00 00 00 00 00 00 00 ................
004069F0 00 00 00 00 00 00 00 00 00 00 00 00 00 00 00 00 ................
00406A00 00 00 00 00 00 00 00 00 00 00 00 00 00 00 00 00 ................
00406A10 00 00 00 00 00 00 00 00 00 00 00 00 00 00 00 00 ................
00406A20 00 00 00 00 00 00 00 00 00 00 00 00 00 00 00 00 ................
00406A30 00 00 00 00 00 00 00 00 00 00 00 00 00 00 00 00 ................
00406A40 00 00 00 00 00 00 00 00 00 00 00 00 00 00 00 00 ................
00406A50 00 00 00 00 00 00 00 00 00 00 00 00 00 00 00 00 ................
00406A60 00 00 00 00 00 00 00 00 00 00 00 00 00 00 00 00 ................
00406A70 00 00 00 00 00 00 00 00 00 00 00 00 00 00 00 00 ................
00406A80 00 00 00 00 00 00 00 00 00 00 00 00 00 00 00 00 ................
00406A90 00 00 00 00 00 00 00 00 00 00 00 00 00 00 00 00 ................
00406AA0 00 00 00 00 00 00 00 00 00 00 00 00 00 00 00 00 ................
00406AB0 00 00 00 00 00 00 00 00 00 00 00 00 00 00 00 00 ................
00406AC0 00 00 00 00 00 00 00 00 00 00 00 00 00 00 00 00 ................
00406AD0 00 00 00 00 00 00 00 00 00 00 00 00 00 00 00 00 ................
00406AE0 00 00 00 00 00 00 00 00 00 00 00 00 00 00 00 00 ................
00406AF0 00 00 00 00 00 00 00 00 00 00 00 00 00 00 00 00 ................
00406B00 00 00 00 00 00 00 00 00 00 00 00 00 00 00 00 00 ................
00406B10 00 00 00 00 00 00 00 00 00 00 00 00 00 00 00 00 ................
00406B20 00 00 00 00 00 00 00 00 00 00 00 00 00 00 00 00 ................
00406B30 00 00 00 00 00 00 00 00 00 00 00 00 00 00 00 00 ................
00406B40 00 00 00 00 00 00 00 00 00 00 00 00 00 00 00 00 ................
00406B50 00 00 00 00 00 00 00 00 00 00 00 00 00 00 00 00 ................
00406B60 00 00 00 00 00 00 00 00 00 00 00 00 00 00 00 00 ................
00406B70 00 00 00 00 00 00 00 00 00 00 00 00 00 00 00 00 ................
00406B80 00 00 00 00 00 00 00 00 00 00 00 00 00 00 00 00 ................
00406B90 00 00 00 00 00 00 00 00 00 00 00 00 00 00 00 00 ................
00406BA0 00 00 00 00 00 00 00 00 00 00 00 00 00 00 00 00 ................
00406BB0 00 00 00 00 00 00 00 00 00 00 00 00 00 00 00 00 ................
00406BC0 00 00 00 00 00 00 00 00 00 00 00 00 00 00 00 00 ................
00406BD0 00 00 00 00 00 00 00 00 00 00 00 00 00 00 00 00 ................
00406BE0 00 00 00 00 00 00 00 00 00 00 00 00 00 00 00 00 ................
00406BF0 00 00 00 00 00 00 00 00 00 00 00 00 00 00 00 00 ................
00406C00 00 00 00 00 00 00 00 00 00 00 00 00 00 00 00 00 ................
00406C10 00 00 00 00 00 00 00 00 00 00 00 00 00 00 00 00 ................
00406C20 00 00 00 00 00 00 00 00 00 00 00 00 00 00 00 00 ................
00406C30 00 00 00 00 00 00 00 00 00 00 00 00 00 00 00 00 ................
00406C40 00 00 00 00 00 00 00 00 00 00 00 00 00 00 00 00 ................
00406C50 00 00 00 00 00 00 00 00 00 00 00 00 00 00 00 00 ................
00406C60 00 00 00 00 00 00 00 00 00 00 00 00 00 00 00 00 ................
00406C70 00 00 00 00 00 00 00 00 00 00 00 00 00 00 00 00 ................
00406C80 00 00 00 00 00 00 00 00 00 00 00 00 00 00 00 00 ................
00406C90 00 00 00 00 00 00 00 00 00 00 00 00 00 00 00 00 ................
00406CA0 00 00 00 00 00 00 00 00 00 00 00 00 00 00 00 00 ................
00406CB0 00 00 00 00 00 00 00 00 00 00 00 00 00 00 00 00 ................
00406CC0 00 00 00 00 00 00 00 00 00 00 00 00 00 00 00 00 ................
00406CD0 00 00 00 00 00 00 00 00 00 00 00 00 00 00 00 00 ................
00406CE0 00 00 00 00 00 00 00 00 00 00 00 00 00 00 00 00 ................
00406CF0 00 00 00 00 00 00 00 00 00 00 00 00 00 00 00 00 ................
00406D00 00 00 00 00 00 00 00 00 00 00 00 00 00 00 00 00 ................
00406D10 00 00 00 00 00 00 00 00 00 00 00 00 00 00 00 00 ................
00406D20 00 00 00 00 00 00 00 00 00 00 00 00 00 00 00 00 ................
00406D30 00 00 00 00 00 00 00 00 00 00 00 00 00 00 00 00 ................
00406D40 00 00 00 00 00 00 00 00 00 00 00 00 00 00 00 00 ................
00406D50 00 00 00 00 00 00 00 00 00 00 00 00 00 00 00 00 ................
00406D60 00 00 00 00 00 00 00 00 00 00 00 00 00 00 00 00 ................
00406D70 00 00 00 00 00 00 00 00 00 00 00 00 00 00 00 00 ................
00406D80 00 00 00 00 00 00 00 00 00 00 00 00 00 00 00 00 ................
00406D90 00 00 00 00 00 00 00 00 00 00 00 00 00 00 00 00 ................
00406DA0 00 00 00 00 00 00 00 00 00 00 00 00 00 00 00 00 ................
00406DB0 00 00 00 00 00 00 00 00 00 00 00 00 00 00 00 00 ................
00406DC0 00 00 00 00 00 00 00 00 00 00 00 00 00 00 00 00 ................
00406DD0 00 00 00 00 00 00 00 00 00 00 00 00 00 00 00 00 ................
00406DE0 00 00 00 00 00 00 00 00 00 00 00 00 00 00 00 00 ................
00406DF0 00 00 00 00 00 00 00 00 00 00 00 00 00 00 00 00 ................
00406E00 00 00 00 00 00 00 00 00 00 00 00 00 00 00 00 00 ................
00406E10 00 00 00 00 00 00 00 00 00 00 00 00 00 00 00 00 ................
00406E20 00 00 00 00 00 00 00 00 00 00 00 00 00 00 00 00 ................
00406E30 00 00 00 00 00 00 00 00 00 00 00 00 00 00 00 00 ................
00406E40 00 00 00 00 00 00 00 00 00 00 00 00 00 00 00 00 ................
00406E50 00 00 00 00 00 00 00 00 00 00 00 00 00 00 00 00 ................
00406E60 00 00 00 00 00 00 00 00 00 00 00 00 00 00 00 00 ................
00406E70 00 00 00 00 00 00 00 00 00 00 00 00 00 00 00 00 ................
00406E80 00 00 00 00 00 00 00 00 00 00 00 00 00 00 00 00 ................
00406E90 00 00 00 00 00 00 00 00 00 00 00 00 00 00 00 00 ................
00406EA0 00 00 00 00 00 00 00 00 00 00 00 00 00 00 00 00 ................
00406EB0 00 00 00 00 00 00 00 00 00 00 00 00 00 00 00 00 ................
00406EC0 00 00 00 00 00 00 00 00 00 00 00 00 00 00 00 00 ................
00406ED0 00 00 00 00 00 00 00 00 00 00 00 00 00 00 00 00 ................
00406EE0 00 00 00 00 00 00 00 00 00 00 00 00 00 00 00 00 ................
00406EF0 00 00 00 00 00 00 00 00 00 00 00 00 00 00 00 00 ................
00406F00 00 00 00 00 00 00 00 00 00 00 00 00 00 00 00 00 ................
00406F10 00 00 00 00 00 00 00 00 00 00 00 00 00 00 00 00 ................
00406F20 00 00 00 00 00 00 00 00 00 00 00 00 00 00 00 00 ................
00406F30 00 00 00 00 00 00 00 00 00 00 00 00 00 00 00 00 ................
00406F40 00 00 00 00 00 00 00 00 00 00 00 00 00 00 00 00 ................
00406F50 00 00 00 00 00 00 00 00 00 00 00 00 00 00 00 00 ................
00406F60 00 00 00 00 00 00 00 00 00 00 00 00 00 00 00 00 ................
00406F70 00 00 00 00 00 00 00 00 00 00 00 00 00 00 00 00 ................
00406F80 00 00 00 00 00 00 00 00 00 00 00 00 00 00 00 00 ................
00406F90 00 00 00 00 00 00 00 00 00 00 00 00 00 00 00 00 ................
00406FA0 00 00 00 00 00 00 00 00 00 00 00 00 00 00 00 00 ................
00406FB0 00 00 00 00 00 00 00 00 00 00 00 00 00 00 00 00 ................
00406FC0 00 00 00 00 00 00 00 00 00 00 00 00 00 00 00 00 ................
00406FD0 00 00 00 00 00 00 00 00 00 00 00 00 00 00 00 00 ................
00406FE0 00 00 00 00 00 00 00 00 00 00 00 00 00 00 00 00 ................
00406FF0 00 00 00 00 00 00 00 00 00 00 00 00 00 00 00 00 ................
00407000 00 00 00 00 00 00 00 00 00 00 00 00 00 00 00 00 ................
00407010 00 00 00 00 00 00 00 00 00 00 00 00 00 00 00 00 ................
00407020 00 00 00 00 00 00 00 00 00 00 00 00 00 00 00 00 ................
00407030 00 00 00 00 00 00 00 00 00 00 00 00 00 00 00 00 ................
00407040 00 00 00 00 00 00 00 00 00 00 00 00 00 00 00 00 ................
00407050 00 00 00 00 00 00 00 00 00 00 00 00 00 00 00 00 ................
00407060 00 00 00 00 00 00 00 00 00 00 00 00 00 00 00 00 ................
00407070 00 00 00 00 00 00 00 00 00 00 00 00 00 00 00 00 ................
00407080 00 00 00 00 00 00 00 00 00 00 00 00 00 00 00 00 ................
00407090 00 00 00 00 00 00 00 00 00 00 00 00 00 00 00 00 ................
004070A0 00 00 00 00 00 00 00 00 00 00 00 00 00 00 00 00 ................
004070B0 00 00 00 00 00 00 00 00 00 00 00 00 00 00 00 00 ................
004070C0 00 00 00 00 00 00 00 00 00 00 00 00 00 00 00 00 ................
004070D0 00 00 00 00 00 00 00 00 00 00 00 00 00 00 00 00 ................
004070E0 00 00 00 00 00 00 00 00 00 00 00 00 00 00 00 00 ................
004070F0 00 00 00 00 00 00 00 00 00 00 00 00 00 00 00 00 ................
00407100 00 00 00 00 00 00 00 00 00 00 00 00 00 00 00 00 ................
00407110 00 00 00 00 00 00 00 00 00 00 00 00 00 00 00 00 ................
00407120 00 00 00 00 00 00 00 00 00 00 00 00 00 00 00 00 ................
00407130 00 00 00 00 00 00 00 00 00 00 00 00 00 00 00 00 ................
00407140 00 00 00 00 00 00 00 00 00 00 00 00 00 00 00 00 ................
00407150 00 00 00 00 00 00 00 00 00 00 00 00 00 00 00 00 ................
00407160 00 00 00 00 00 00 00 00 00 00 00 00 00 00 00 00 ................
00407170 00 00 00 00 00 00 00 00 00 00 00 00 00 00 00 00 ................
00407180 00 00 00 00 00 00 00 00 00 00 00 00 00 00 00 00 ................
00407190 00 00 00 00 00 00 00 00 00 00 00 00 00 00 00 00 ................
004071A0 00 00 00 00 00 00 00 00 00 00 00 00 00 00 00 00 ................
004071B0 00 00 00 00 00 00 00 00 00 00 00 00 00 00 00 00 ................
004071C0 00 00 00 00 00 00 00 00 00 00 00 00 00 00 00 00 ................
004071D0 00 00 00 00 00 00 00 00 00 00 00 00 00 00 00 00 ................
004071E0 00 00 00 00 00 00 00 00 00 00 00 00 00 00 00 00 ................
004071F0 00 00 00 00 00 00 00 00 00 00 00 00 00 00 00 00 ................
00407200 00 00 00 00 00 00 00 00 00 00 00 00 00 00 00 00 ................
00407210 00 00 00 00 00 00 00 00 00 00 00 00 00 00 00 00 ................
00407220 00 00 00 00 00 00 00 00 00 00 00 00 00 00 00 00 ................
00407230 00 00 00 00 00 00 00 00 00 00 00 00 00 00 00 00 ................
00407240 00 00 00 00 00 00 00 00 00 00 00 00 00 00 00 00 ................
00407250 00 00 00 00 00 00 00 00 00 00 00 00 00 00 00 00 ................
00407260 00 00 00 00 00 00 00 00 00 00 00 00 00 00 00 00 ................
00407270 00 00 00 00 00 00 00 00 00 00 00 00 00 00 00 00 ................
00407280 00 00 00 00 00 00 00 00 00 00 00 00 00 00 00 00 ................
00407290 00 00 00 00 00 00 00 00 00 00 00 00 00 00 00 00 ................
004072A0 00 00 00 00 00 00 00 00 00 00 00 00 00 00 00 00 ................
004072B0 00 00 00 00 00 00 00 00 00 00 00 00 00 00 00 00 ................
004072C0 00 00 00 00 00 00 00 00 00 00 00 00 00 00 00 00 ................
004072D0 00 00 00 00 00 00 00 00 00 00 00 00 00 00 00 00 ................
004072E0 00 00 00 00 00 00 00 00 00 00 00 00 00 00 00 00 ................
004072F0 00 00 00 00 00 00 00 00 00 00 00 00 00 00 00 00 ................
00407300 00 00 00 00 00 00 00 00 00 00 00 00 00 00 00 00 ................
00407310 00 00 00 00 00 00 00 00 00 00 00 00 00 00 00 00 ................
00407320 00 00 00 00 00 00 00 00 00 00 00 00 00 00 00 00 ................
00407330 00 00 00 00 00 00 00 00 00 00 00 00 00 00 00 00 ................
00407340 00 00 00 00 00 00 00 00 00 00 00 00 00 00 00 00 ................
00407350 00 00 00 00 00 00 00 00 00 00 00 00 00 00 00 00 ................
00407360 00 00 00 00 00 00 00 00 00 00 00 00 00 00 00 00 ................
00407370 00 00 00 00 00 00 00 00 00 00 00 00 00 00 00 00 ................
00407380 00 00 00 00 00 00 00 00 00 00 00 00 00 00 00 00 ................
00407390 00 00 00 00 00 00 00 00 00 00 00 00 00 00 00 00 ................
004073A0 00 00 00 00 00 00 00 00 00 00 00 00 00 00 00 00 ................
004073B0 00 00 00 00 00 00 00 00 00 00 00 00 00 00 00 00 ................
004073C0 00 00 00 00 00 00 00 00 00 00 00 00 00 00 00 00 ................
004073D0 00 00 00 00 00 00 00 00 00 00 00 00 00 00 00 00 ................
004073E0 00 00 00 00 00 00 00 00 00 00 00 00 00 00 00 00 ................
004073F0 00 00 00 00 00 00 00 00 00 00 00 00 00 00 00 00 ................
00407400 00 00 00 00 00 00 00 00 00 00 00 00 00 00 00 00 ................
00407410 00 00 00 00 00 00 00 00 00 00 00 00 00 00 00 00 ................
00407420 00 00 00 00 00 00 00 00 00 00 00 00 00 00 00 00 ................
00407430 00 00 00 00 00 00 00 00 00 00 00 00 00 00 00 00 ................
00407440 00 00 00 00 00 00 00 00 00 00 00 00 00 00 00 00 ................
00407450 00 00 00 00 00 00 00 00 00 00 00 00 00 00 00 00 ................
00407460 00 00 00 00 00 00 00 00 00 00 00 00 00 00 00 00 ................
00407470 00 00 00 00 00 00 00 00 00 00 00 00 00 00 00 00 ................
00407480 00 00 00 00 00 00 00 00 00 00 00 00 00 00 00 00 ................
00407490 00 00 00 00 00 00 00 00 00 00 00 00 00 00 00 00 ................
004074A0 00 00 00 00 00 00 00 00 00 00 00 00 00 00 00 00 ................
004074B0 00 00 00 00 00 00 00 00 00 00 00 00 00 00 00 00 ................
004074C0 00 00 00 00 00 00 00 00 00 00 00 00 00 00 00 00 ................
004074D0 00 00 00 00 00 00 00 00 00 00 00 00 00 00 00 00 ................
004074E0 00 00 00 00 00 00 00 00 00 00 00 00 00 00 00 00 ................
004074F0 00 00 00 00 00 00 00 00 00 00 00 00 00 00 00 00 ................
00407500 00 00 00 00 00 00 00 00 00 00 00 00 00 00 00 00 ................
00407510 00 00 00 00 00 00 00 00 00 00 00 00 00 00 00 00 ................
00407520 00 00 00 00 00 00 00 00 00 00 00 00 00 00 00 00 ................
00407530 00 00 00 00 00 00 00 00 00 00 00 00 00 00 00 00 ................
00407540 00 00 00 00 00 00 00 00 00 00 00 00 00 00 00 00 ................
00407550 00 00 00 00 00 00 00 00 00 00 00 00 00 00 00 00 ................
00407560 00 00 00 00 00 00 00 00 00 00 00 00 00 00 00 00 ................
00407570 00 00 00 00 00 00 00 00 00 00 00 00 00 00 00 00 ................
00407580 00 00 00 00 00 00 00 00 00 00 00 00 00 00 00 00 ................
00407590 00 00 00 00 00 00 00 00 00 00 00 00 00 00 00 00 ................
004075A0 00 00 00 00 00 00 00 00 00 00 00 00 00 00 00 00 ................
004075B0 00 00 00 00 00 00 00 00 00 00 00 00 00 00 00 00 ................
004075C0 00 00 00 00 00 00 00 00 00 00 00 00 00 00 00 00 ................
004075D0 00 00 00 00 00 00 00 00 00 00 00 00 00 00 00 00 ................
004075E0 00 00 00 00 00 00 00 00 00 00 00 00 00 00 00 00 ................
004075F0 00 00 00 00 00 00 00 00 00 00 00 00 00 00 00 00 ................
00407600 00 00 00 00 00 00 00 00 00 00 00 00 00 00 00 00 ................
00407610 00 00 00 00 00 00 00 00 00 00 00 00 00 00 00 00 ................
00407620 00 00 00 00 00 00 00 00 00 00 00 00 00 00 00 00 ................
00407630 00 00 00 00 00 00 00 00 00 00 00 00 00 00 00 00 ................
00407640 00 00 00 00 00 00 00 00 00 00 00 00 00 00 00 00 ................
00407650 00 00 00 00 00 00 00 00 00 00 00 00 00 00 00 00 ................
00407660 00 00 00 00 00 00 00 00 00 00 00 00 00 00 00 00 ................
00407670 00 00 00 00 00 00 00 00 00 00 00 00 00 00 00 00 ................
00407680 00 00 00 00 00 00 00 00 00 00 00 00 00 00 00 00 ................
00407690 00 00 00 00 00 00 00 00 00 00 00 00 00 00 00 00 ................
004076A0 00 00 00 00 00 00 00 00 00 00 00 00 00 00 00 00 ................
004076B0 00 00 00 00 00 00 00 00 00 00 00 00 00 00 00 00 ................
004076C0 00 00 00 00 00 00 00 00 00 00 00 00 00 00 00 00 ................
004076D0 00 00 00 00 00 00 00 00 00 00 00 00 00 00 00 00 ................
004076E0 00 00 00 00 00 00 00 00 00 00 00 00 00 00 00 00 ................
004076F0 00 00 00 00 00 00 00 00 00 00 00 00 00 00 00 00 ................
00407700 00 00 00 00 00 00 00 00 00 00 00 00 00 00 00 00 ................
00407710 00 00 00 00 00 00 00 00 00 00 00 00 00 00 00 00 ................
00407720 00 00 00 00 00 00 00 00 00 00 00 00 00 00 00 00 ................
00407730 00 00 00 00 00 00 00 00 00 00 00 00 00 00 00 00 ................
00407740 00 00 00 00 00 00 00 00 00 00 00 00 00 00 00 00 ................
00407750 00 00 00 00 00 00 00 00 00 00 00 00 00 00 00 00 ................
00407760 00 00 00 00 00 00 00 00 00 00 00 00 00 00 00 00 ................
00407770 00 00 00 00 00 00 00 00 00 00 00 00 00 00 00 00 ................
00407780 00 00 00 00 00 00 00 00 00 00 00 00 00 00 00 00 ................
00407790 00 00 00 00 00 00 00 00 00 00 00 00 00 00 00 00 ................
004077A0 00 00 00 00 00 00 00 00 00 00 00 00 00 00 00 00 ................
004077B0 00 00 00 00 00 00 00 00 00 00 00 00 00 00 00 00 ................
004077C0 00 00 00 00 00 00 00 00 00 00 00 00 00 00 00 00 ................
004077D0 00 00 00 00 00 00 00 00 00 00 00 00 00 00 00 00 ................
004077E0 00 00 00 00 00 00 00 00 00 00 00 00 00 00 00 00 ................
004077F0 00 00 00 00 00 00 00 00 00 00 00 00 00 00 00 00 ................
00407800 00 00 00 00 00 00 00 00 00 00 00 00 00 00 00 00 ................
00407810 00 00 00 00 00 00 00 00 00 00 00 00 00 00 00 00 ................
00407820 00 00 00 00 00 00 00 00 00 00 00 00 00 00 00 00 ................
00407830 00 00 00 00 00 00 00 00 00 00 00 00 00 00 00 00 ................
00407840 00 00 00 00 00 00 00 00 00 00 00 00 00 00 00 00 ................
00407850 00 00 00 00 00 00 00 00 00 00 00 00 00 00 00 00 ................
00407860 00 00 00 00 00 00 00 00 00 00 00 00 00 00 00 00 ................
00407870 00 00 00 00 00 00 00 00 00 00 00 00 00 00 00 00 ................
00407880 00 00 00 00 00 00 00 00 00 00 00 00 00 00 00 00 ................
00407890 00 00 00 00 00 00 00 00 00 00 00 00 00 00 00 00 ................
004078A0 00 00 00 00 00 00 00 00 00 00 00 00 00 00 00 00 ................
004078B0 00 00 00 00 00 00 00 00 00 00 00 00 00 00 00 00 ................
004078C0 00 00 00 00 00 00 00 00 00 00 00 00 00 00 00 00 ................
004078D0 00 00 00 00 00 00 00 00 00 00 00 00 00 00 00 00 ................
004078E0 00 00 00 00 00 00 00 00 00 00 00 00 00 00 00 00 ................
004078F0 00 00 00 00 00 00 00 00 00 00 00 00 00 00 00 00 ................
00407900 00 00 00 00 00 00 00 00 00 00 00 00 00 00 00 00 ................
00407910 00 00 00 00 00 00 00 00 00 00 00 00 00 00 00 00 ................
00407920 00 00 00 00 00 00 00 00 00 00 00 00 00 00 00 00 ................
00407930 00 00 00 00 00 00 00 00 00 00 00 00 00 00 00 00 ................
00407940 00 00 00 00 00 00 00 00 00 00 00 00 00 00 00 00 ................
00407950 00 00 00 00 00 00 00 00 00 00 00 00 00 00 00 00 ................
00407960 00 00 00 00 00 00 00 00 00 00 00 00 00 00 00 00 ................
00407970 00 00 00 00 00 00 00 00 00 00 00 00 00 00 00 00 ................
00407980 00 00 00 00 00 00 00 00 00 00 00 00 00 00 00 00 ................
00407990 00 00 00 00 00 00 00 00 00 00 00 00 00 00 00 00 ................
004079A0 00 00 00 00 00 00 00 00 00 00 00 00 00 00 00 00 ................
004079B0 00 00 00 00 00 00 00 00 00 00 00 00 00 00 00 00 ................
004079C0 00 00 00 00 00 00 00 00 00 00 00 00 00 00 00 00 ................
004079D0 00 00 00 00 00 00 00 00 00 00 00 00 00 00 00 00 ................
004079E0 00 00 00 00 00 00 00 00 00 00 00 00 00 00 00 00 ................
004079F0 00 00 00 00 00 00 00 00 00 00 00 00 00 00 00 00 ................
00407A00 00 00 00 00 00 00 00 00 00 00 00 00 00 00 00 00 ................
00407A10 00 00 00 00 00 00 00 00 00 00 00 00 00 00 00 00 ................
00407A20 00 00 00 00 00 00 00 00 00 00 00 00 00 00 00 00 ................
00407A30 00 00 00 00 00 00 00 00 00 00 00 00 00 00 00 00 ................
00407A40 00 00 00 00 00 00 00 00 00 00 00 00 00 00 00 00 ................
00407A50 00 00 00 00 00 00 00 00 00 00 00 00 00 00 00 00 ................
00407A60 00 00 00 00 00 00 00 00 00 00 00 00 00 00 00 00 ................
00407A70 00 00 00 00 00 00 00 00 00 00 00 00 00 00 00 00 ................
00407A80 00 00 00 00 00 00 00 00 00 00 00 00 00 00 00 00 ................
00407A90 00 00 00 00 00 00 00 00 00 00 00 00 00 00 00 00 ................
00407AA0 00 00 00 00 00 00 00 00 00 00 00 00 00 00 00 00 ................
00407AB0 00 00 00 00 00 00 00 00 00 00 00 00 00 00 00 00 ................
00407AC0 00 00 00 00 00 00 00 00 00 00 00 00 00 00 00 00 ................
00407AD0 00 00 00 00 00 00 00 00 00 00 00 00 00 00 00 00 ................
00407AE0 00 00 00 00 00 00 00 00 00 00 00 00 00 00 00 00 ................
00407AF0 00 00 00 00 00 00 00 00 00 00 00 00 00 00 00 00 ................
00407B00 00 00 00 00 00 00 00 00 00 00 00 00 00 00 00 00 ................
00407B10 00 00 00 00 00 00 00 00 00 00 00 00 00 00 00 00 ................
00407B20 00 00 00 00 00 00 00 00 00 00 00 00 00 00 00 00 ................
00407B30 00 00 00 00 00 00 00 00 00 00 00 00 00 00 00 00 ................
00407B40 00 00 00 00 00 00 00 00 00 00 00 00 00 00 00 00 ................
00407B50 00 00 00 00 00 00 00 00 00 00 00 00 00 00 00 00 ................
00407B60 00 00 00 00 00 00 00 00 00 00 00 00 00 00 00 00 ................
00407B70 00 00 00 00 00 00 00 00 00 00 00 00 00 00 00 00 ................
00407B80 00 00 00 00 00 00 00 00 00 00 00 00 00 00 00 00 ................
00407B90 00 00 00 00 00 00 00 00 00 00 00 00 00 00 00 00 ................
00407BA0 00 00 00 00 00 00 00 00 00 00 00 00 00 00 00 00 ................
00407BB0 00 00 00 00 00 00 00 00 00 00 00 00 00 00 00 00 ................
00407BC0 00 00 00 00 00 00 00 00 00 00 00 00 00 00 00 00 ................
00407BD0 00 00 00 00 00 00 00 00 00 00 00 00 00 00 00 00 ................
00407BE0 00 00 00 00 00 00 00 00 00 00 00 00 00 00 00 00 ................
00407BF0 00 00 00 00 00 00 00 00 00 00 00 00 00 00 00 00 ................
00407C00 00 00 00 00 00 00 00 00 00 00 00 00 00 00 00 00 ................
00407C10 00 00 00 00 00 00 00 00 00 00 00 00 00 00 00 00 ................
00407C20 00 00 00 00 00 00 00 00 00 00 00 00 00 00 00 00 ................
00407C30 00 00 00 00 00 00 00 00 00 00 00 00 00 00 00 00 ................
00407C40 00 00 00 00 00 00 00 00 00 00 00 00 00 00 00 00 ................
00407C50 00 00 00 00 00 00 00 00 00 00 00 00 00 00 00 00 ................
00407C60 00 00 00 00 00 00 00 00 00 00 00 00 00 00 00 00 ................
00407C70 00 00 00 00 00 00 00 00 00 00 00 00 00 00 00 00 ................
00407C80 00 00 00 00 00 00 00 00 00 00 00 00 00 00 00 00 ................
00407C90 00 00 00 00 00 00 00 00 00 00 00 00 00 00 00 00 ................
00407CA0 00 00 00 00 00 00 00 00 00 00 00 00 00 00 00 00 ................
00407CB0 00 00 00 00 00 00 00 00 00 00 00 00 00 00 00 00 ................
00407CC0 00 00 00 00 00 00 00 00 00 00 00 00 00 00 00 00 ................
00407CD0 00 00 00 00 00 00 00 00 00 00 00 00 00 00 00 00 ................
00407CE0 00 00 00 00 00 00 00 00 00 00 00 00 00 00 00 00 ................
00407CF0 00 00 00 00 00 00 00 00 00 00 00 00 00 00 00 00 ................
00407D00 00 00 00 00 00 00 00 00 00 00 00 00 00 00 00 00 ................
00407D10 00 00 00 00 00 00 00 00 00 00 00 00 00 00 00 00 ................
00407D20 00 00 00 00 00 00 00 00 00 00 00 00 00 00 00 00 ................
00407D30 00 00 00 00 00 00 00 00 00 00 00 00 00 00 00 00 ................
00407D40 00 00 00 00 00 00 00 00 00 00 00 00 00 00 00 00 ................
00407D50 00 00 00 00 00 00 00 00 00 00 00 00 00 00 00 00 ................
00407D60 00 00 00 00 00 00 00 00 00 00 00 00 00 00 00 00 ................
00407D70 00 00 00 00 00 00 00 00 00 00 00 00 00 00 00 00 ................
00407D80 00 00 00 00 00 00 00 00 00 00 00 00 00 00 00 00 ................
00407D90 00 00 00 00 00 00 00 00 00 00 00 00 00 00 00 00 ................
00407DA0 00 00 00 00 00 00 00 00 00 00 00 00 00 00 00 00 ................
00407DB0 00 00 00 00 00 00 00 00 00 00 00 00 00 00 00 00 ................
00407DC0 00 00 00 00 00 00 00 00 00 00 00 00 00 00 00 00 ................
00407DD0 00 00 00 00 00 00 00 00 00 00 00 00 00 00 00 00 ................
00407DE0 00 00 00 00 00 00 00 00 00 00 00 00 00 00 00 00 ................
00407DF0 00 00 00 00 00 00 00 00 00 00 00 00 00 00 00 00 ................
00407E00 00 00 00 00 00 00 00 00 00 00 00 00 00 00 00 00 ................
00407E10 00 00 00 00 00 00 00 00 00 00 00 00 00 00 00 00 ................
00407E20 00 00 00 00 00 00 00 00 00 00 00 00 00 00 00 00 ................
00407E30 00 00 00 00 00 00 00 00 00 00 00 00 00 00 00 00 ................
00407E40 00 00 00 00 00 00 00 00 00 00 00 00 00 00 00 00 ................
00407E50 00 00 00 00 00 00 00 00 00 00 00 00 00 00 00 00 ................
00407E60 00 00 00 00 00 00 00 00 00 00 00 00 00 00 00 00 ................
00407E70 00 00 00 00 00 00 00 00 00 00 00 00 00 00 00 00 ................
00407E80 00 00 00 00 00 00 00 00 00 00 00 00 00 00 00 00 ................
00407E90 00 00 00 00 00 00 00 00 00 00 00 00 00 00 00 00 ................
00407EA0 00 00 00 00 00 00 00 00 00 00 00 00 00 00 00 00 ................
00407EB0 00 00 00 00 00 00 00 00 00 00 00 00 00 00 00 00 ................
00407EC0 00 00 00 00 00 00 00 00 00 00 00 00 00 00 00 00 ................
00407ED0 00 00 00 00 00 00 00 00 00 00 00 00 00 00 00 00 ................
00407EE0 00 00 00 00 00 00 00 00 00 00 00 00 00 00 00 00 ................
00407EF0 00 00 00 00 00 00 00 00 00 00 00 00 00 00 00 00 ................
00407F00 00 00 00 00 00 00 00 00 00 00 00 00 00 00 00 00 ................
00407F10 00 00 00 00 00 00 00 00 00 00 00 00 00 00 00 00 ................
00407F20 00 00 00 00 00 00 00 00 00 00 00 00 00 00 00 00 ................
00407F30 00 00 00 00 00 00 00 00 00 00 00 00 00 00 00 00 ................
00407F40 00 00 00 00 00 00 00 00 00 00 00 00 00 00 00 00 ................
00407F50 00 00 00 00 00 00 00 00 00 00 00 00 00 00 00 00 ................
00407F60 00 00 00 00 00 00 00 00 00 00 00 00 00 00 00 00 ................
00407F70 00 00 00 00 00 00 00 00 00 00 00 00 00 00 00 00 ................
00407F80 00 00 00 00 00 00 00 00 00 00 00 00 00 00 00 00 ................
00407F90 00 00 00 00 00 00 00 00 00 00 00 00 00 00 00 00 ................
00407FA0 00 00 00 00 00 00 00 00 00 00 00 00 00 00 00 00 ................
00407FB0 00 00 00 00 00 00 00 00 00 00 00 00 00 00 00 00 ................
00407FC0 00 00 00 00 00 00 00 00 00 00 00 00 00 00 00 00 ................
00407FD0 00 00 00 00 00 00 00 00 00 00 00 00 00 00 00 00 ................
00407FE0 00 00 00 00 00 00 00 00 00 00 00 00 00 00 00 00 ................
00407FF0 00 00 00 00 00 00 00 00 00 00 00 00 00 00 00 00 ................
00408000 00 00 00 00 00 00 00 00 00 00 00 00 00 00 00 00 ................
00408010 00 00 00 00 00 00 00 00 00 00 00 00 00 00 00 00 ................
00408020 00 00 00 00 00 00 00 00 00 00 00 00 00 00 00 00 ................
00408030 00 00 00 00 00 00 00 00 00 00 00 00 00 00 00 00 ................
00408040 00 00 00 00 00 00 00 00 00 00 00 00 00 00 00 00 ................
00408050 00 00 00 00 00 00 00 00 00 00 00 00 00 00 00 00 ................
00408060 00 00 00 00 00 00 00 00 00 00 00 00 00 00 00 00 ................
00408070 00 00 00 00 00 00 00 00 00 00 00 00 00 00 00 00 ................
00408080 00 00 00 00 00 00 00 00 00 00 00 00 00 00 00 00 ................
00408090 00 00 00 00 00 00 00 00 00 00 00 00 00 00 00 00 ................
004080A0 00 00 00 00 00 00 00 00 00 00 00 00 00 00 00 00 ................
004080B0 00 00 00 00 00 00 00 00 00 00 00 00 00 00 00 00 ................
004080C0 00 00 00 00 00 00 00 00 00 00 00 00 00 00 00 00 ................
004080D0 00 00 00 00 00 00 00 00 00 00 00 00 00 00 00 00 ................
004080E0 00 00 00 00 00 00 00 00 00 00 00 00 00 00 00 00 ................
004080F0 00 00 00 00 00 00 00 00 00 00 00 00 00 00 00 00 ................
00408100 00 00 00 00 00 00 00 00 00 00 00 00 00 00 00 00 ................
00408110 00 00 00 00 00 00 00 00 00 00 00 00 00 00 00 00 ................
00408120 00 00 00 00 00 00 00 00 00 00 00 00 00 00 00 00 ................
00408130 00 00 00 00 00 00 00 00 00 00 00 00 00 00 00 00 ................
00408140 00 00 00 00 00 00 00 00 00 00 00 00 00 00 00 00 ................
00408150 00 00 00 00 00 00 00 00 00 00 00 00 00 00 00 00 ................
00408160 00 00 00 00 00 00 00 00 00 00 00 00 00 00 00 00 ................
00408170 00 00 00 00 00 00 00 00 00 00 00 00 00 00 00 00 ................
00408180 00 00 00 00 00 00 00 00 00 00 00 00 00 00 00 00 ................
00408190 00 00 00 00 00 00 00 00 00 00 00 00 00 00 00 00 ................
004081A0 00 00 00 00 00 00 00 00 00 00 00 00 00 00 00 00 ................
004081B0 00 00 00 00 00 00 00 00 00 00 00 00 00 00 00 00 ................
004081C0 00 00 00 00 00 00 00 00 00 00 00 00 00 00 00 00 ................
004081D0 00 00 00 00 00 00 00 00 00 00 00 00 00 00 00 00 ................
004081E0 00 00 00 00 00 00 00 00 00 00 00 00 00 00 00 00 ................
004081F0 00 00 00 00 00 00 00 00 00 00 00 00 00 00 00 00 ................
00408200 00 00 00 00 00 00 00 00 00 00 00 00 00 00 00 00 ................
00408210 00 00 00 00 00 00 00 00 00 00 00 00 00 00 00 00 ................
00408220 00 00 00 00 00 00 00 00 00 00 00 00 00 00 00 00 ................
00408230 00 00 00 00 00 00 00 00 00 00 00 00 00 00 00 00 ................
00408240 00 00 00 00 00 00 00 00 00 00 00 00 00 00 00 00 ................
00408250 00 00 00 00 00 00 00 00 00 00 00 00 00 00 00 00 ................
00408260 00 00 00 00 00 00 00 00 00 00 00 00 00 00 00 00 ................
00408270 00 00 00 00 00 00 00 00 00 00 00 00 00 00 00 00 ................
00408280 00 00 00 00 00 00 00 00 00 00 00 00 00 00 00 00 ................
00408290 00 00 00 00 00 00 00 00 00 00 00 00 00 00 00 00 ................
004082A0 00 00 00 00 00 00 00 00 00 00 00 00 00 00 00 00 ................
004082B0 00 00 00 00 00 00 00 00 00 00 00 00 00 00 00 00 ................
004082C0 00 00 00 00 00 00 00 00 00 00 00 00 00 00 00 00 ................
004082D0 00 00 00 00 00 00 00 00 00 00 00 00 00 00 00 00 ................
004082E0 00 00 00 00 00 00 00 00 00 00 00 00 00 00 00 00 ................
004082F0 00 00 00 00 00 00 00 00 00 00 00 00 00 00 00 00 ................
00408300 00 00 00 00 00 00 00 00 00 00 00 00 00 00 00 00 ................
00408310 00 00 00 00 00 00 00 00 00 00 00 00 00 00 00 00 ................
00408320 00 00 00 00 00 00 00 00 00 00 00 00 00 00 00 00 ................
00408330 00 00 00 00 00 00 00 00 00 00 00 00 00 00 00 00 ................
00408340 00 00 00 00 00 00 00 00 00 00 00 00 00 00 00 00 ................
00408350 00 00 00 00 00 00 00 00 00 00 00 00 00 00 00 00 ................
00408360 00 00 00 00 00 00 00 00 00 00 00 00 00 00 00 00 ................
00408370 00 00 00 00 00 00 00 00 00 00 00 00 00 00 00 00 ................
00408380 00 00 00 00 00 00 00 00 00 00 00 00 00 00 00 00 ................
00408390 00 00 00 00 00 00 00 00 00 00 00 00 00 00 00 00 ................
004083A0 00 00 00 00 00 00 00 00 00 00 00 00 00 00 00 00 ................
004083B0 00 00 00 00 00 00 00 00 00 00 00 00 00 00 00 00 ................
004083C0 00 00 00 00 00 00 00 00 00 00 00 00 00 00 00 00 ................
004083D0 00 00 00 00 00 00 00 00 00 00 00 00 00 00 00 00 ................
004083E0 00 00 00 00 00 00 00 00 00 00 00 00 00 00 00 00 ................
004083F0 00 00 00 00 00 00 00 00 00 00 00 00 00 00 00 00 ................
00408400 00 00 00 00 00 00 00 00 00 00 00 00 00 00 00 00 ................
00408410 00 00 00 00 00 00 00 00 00 00 00 00 00 00 00 00 ................
00408420 00 00 00 00 00 00 00 00 00 00 00 00 00 00 00 00 ................
00408430 00 00 00 00 00 00 00 00 00 00 00 00 00 00 00 00 ................
00408440 00 00 00 00 00 00 00 00 00 00 00 00 00 00 00 00 ................
00408450 00 00 00 00 00 00 00 00 00 00 00 00 00 00 00 00 ................
00408460 00 00 00 00 00 00 00 00 00 00 00 00 00 00 00 00 ................
00408470 00 00 00 00 00 00 00 00 00 00 00 00 00 00 00 00 ................
00408480 00 00 00 00 00 00 00 00 00 00 00 00 00 00 00 00 ................
00408490 00 00 00 00 00 00 00 00 00 00 00 00 00 00 00 00 ................
004084A0 00 00 00 00 00 00 00 00 00 00 00 00 00 00 00 00 ................
004084B0 00 00 00 00 00 00 00 00 00 00 00 00 00 00 00 00 ................
004084C0 00 00 00 00 00 00 00 00 00 00 00 00 00 00 00 00 ................
004084D0 00 00 00 00 00 00 00 00 00 00 00 00 00 00 00 00 ................
004084E0 00 00 00 00 00 00 00 00 00 00 00 00 00 00 00 00 ................
004084F0 00 00 00 00 00 00 00 00 00 00 00 00 00 00 00 00 ................
00408500 00 00 00 00 00 00 00 00 00 00 00 00 00 00 00 00 ................
00408510 00 00 00 00 00 00 00 00 00 00 00 00 00 00 00 00 ................
00408520 00 00 00 00 00 00 00 00 00 00 00 00 00 00 00 00 ................
00408530 00 00 00 00 00 00 00 00 00 00 00 00 00 00 00 00 ................
00408540 00 00 00 00 00 00 00 00 00 00 00 00 00 00 00 00 ................
00408550 00 00 00 00 00 00 00 00 00 00 00 00 00 00 00 00 ................
00408560 00 00 00 00 00 00 00 00 00 00 00 00 00 00 00 00 ................
00408570 00 00 00 00 00 00 00 00 00 00 00 00 00 00 00 00 ................
00408580 00 00 00 00 00 00 00 00 00 00 00 00 00 00 00 00 ................
00408590 00 00 00 00 00 00 00 00 00 00 00 00 00 00 00 00 ................
004085A0 00 00 00 00 00 00 00 00 00 00 00 00 00 00 00 00 ................
004085B0 00 00 00 00 00 00 00 00 00 00 00 00 00 00 00 00 ................
004085C0 00 00 00 00 00 00 00 00 00 00 00 00 00 00 00 00 ................
004085D0 00 00 00 00 00 00 00 00 00 00 00 00 00 00 00 00 ................
004085E0 00 00 00 00 00 00 00 00 00 00 00 00 00 00 00 00 ................
004085F0 00 00 00 00 00 00 00 00 00 00 00 00 00 00 00 00 ................
00408600 00 00 00 00 00 00 00 00 00 00 00 00 00 00 00 00 ................
00408610 00 00 00 00 00 00 00 00 00 00 00 00 00 00 00 00 ................
00408620 00 00 00 00 00 00 00 00 00 00 00 00 00 00 00 00 ................
00408630 00 00 00 00 00 00 00 00 00 00 00 00 00 00 00 00 ................
00408640 00 00 00 00 00 00 00 00 00 00 00 00 00 00 00 00 ................
00408650 00 00 00 00 00 00 00 00 00 00 00 00 00 00 00 00 ................
00408660 00 00 00 00 00 00 00 00 00 00 00 00 00 00 00 00 ................
00408670 00 00 00 00 00 00 00 00 00 00 00 00 00 00 00 00 ................
00408680 00 00 00 00 00 00 00 00 00 00 00 00 00 00 00 00 ................
00408690 00 00 00 00 00 00 00 00 00 00 00 00 00 00 00 00 ................
004086A0 00 00 00 00 00 00 00 00 00 00 00 00 00 00 00 00 ................
004086B0 00 00 00 00 00 00 00 00 00 00 00 00 00 00 00 00 ................
004086C0 00 00 00 00 00 00 00 00 00 00 00 00 00 00 00 00 ................
004086D0 00 00 00 00 00 00 00 00 00 00 00 00 00 00 00 00 ................
004086E0 00 00 00 00 00 00 00 00 00 00 00 00 00 00 00 00 ................
004086F0 00 00 00 00 00 00 00 00 00 00 00 00 00 00 00 00 ................
00408700 00 00 00 00 00 00 00 00 00 00 00 00 00 00 00 00 ................
00408710 00 00 00 00 00 00 00 00 00 00 00 00 00 00 00 00 ................
00408720 00 00 00 00 00 00 00 00 00 00 00 00 00 00 00 00 ................
00408730 00 00 00 00 00 00 00 00 00 00 00 00 00 00 00 00 ................
00408740 00 00 00 00 00 00 00 00 00 00 00 00 00 00 00 00 ................
00408750 00 00 00 00 00 00 00 00 00 00 00 00 00 00 00 00 ................
00408760 00 00 00 00 00 00 00 00 00 00 00 00 00 00 00 00 ................
00408770 00 00 00 00 00 00 00 00 00 00 00 00 00 00 00 00 ................
00408780 00 00 00 00 00 00 00 00 00 00 00 00 00 00 00 00 ................
00408790 00 00 00 00 00 00 00 00 00 00 00 00 00 00 00 00 ................
004087A0 00 00 00 00 00 00 00 00 00 00 00 00 00 00 00 00 ................
004087B0 00 00 00 00 00 00 00 00 00 00 00 00 00 00 00 00 ................
004087C0 00 00 00 00 00 00 00 00 00 00 00 00 00 00 00 00 ................
004087D0 00 00 00 00 00 00 00 00 00 00 00 00 00 00 00 00 ................
004087E0 00 00 00 00 00 00 00 00 00 00 00 00 00 00 00 00 ................
004087F0 00 00 00 00 00 00 00 00 00 00 00 00 00 00 00 00 ................
00408800 00 00 00 00 00 00 00 00 00 00 00 00 00 00 00 00 ................
00408810 00 00 00 00 00 00 00 00 00 00 00 00 00 00 00 00 ................
00408820 00 00 00 00 00 00 00 00 00 00 00 00 00 00 00 00 ................
00408830 00 00 00 00 00 00 00 00 00 00 00 00 00 00 00 00 ................
00408840 00 00 00 00 00 00 00 00 00 00 00 00 00 00 00 00 ................
00408850 00 00 00 00 00 00 00 00 00 00 00 00 00 00 00 00 ................
00408860 00 00 00 00 00 00 00 00 00 00 00 00 00 00 00 00 ................
00408870 00 00 00 00 00 00 00 00 00 00 00 00 00 00 00 00 ................
00408880 00 00 00 00 00 00 00 00 00 00 00 00 00 00 00 00 ................
00408890 00 00 00 00 00 00 00 00 00 00 00 00 00 00 00 00 ................
004088A0 00 00 00 00 00 00 00 00 00 00 00 00 00 00 00 00 ................
004088B0 00 00 00 00 00 00 00 00 00 00 00 00 00 00 00 00 ................
004088C0 00 00 00 00 00 00 00 00 00 00 00 00 00 00 00 00 ................
004088D0 00 00 00 00 00 00 00 00 00 00 00 00 00 00 00 00 ................
004088E0 00 00 00 00 00 00 00 00 00 00 00 00 00 00 00 00 ................
004088F0 00 00 00 00 00 00 00 00 00 00 00 00 00 00 00 00 ................
00408900 00 00 00 00 00 00 00 00 00 00 00 00 00 00 00 00 ................
00408910 00 00 00 00 00 00 00 00 00 00 00 00 00 00 00 00 ................
00408920 00 00 00 00 00 00 00 00 00 00 00 00 00 00 00 00 ................
00408930 00 00 00 00 00 00 00 00 00 00 00 00 00 00 00 00 ................
00408940 00 00 00 00 00 00 00 00 00 00 00 00 00 00 00 00 ................
00408950 00 00 00 00 00 00 00 00 00 00 00 00 00 00 00 00 ................
00408960 00 00 00 00 00 00 00 00 00 00 00 00 00 00 00 00 ................
00408970 00 00 00 00 00 00 00 00 00 00 00 00 00 00 00 00 ................
00408980 00 00 00 00 00 00 00 00 00 00 00 00 00 00 00 00 ................
00408990 00 00 00 00 00 00 00 00 00 00 00 00 00 00 00 00 ................
004089A0 00 00 00 00 00 00 00 00 00 00 00 00 00 00 00 00 ................
004089B0 00 00 00 00 00 00 00 00 00 00 00 00 00 00 00 00 ................
004089C0 00 00 00 00 00 00 00 00 00 00 00 00 00 00 00 00 ................
004089D0 00 00 00 00 00 00 00 00 00 00 00 00 00 00 00 00 ................
004089E0 00 00 00 00 00 00 00 00 00 00 00 00 00 00 00 00 ................
004089F0 00 00 00 00 00 00 00 00 00 00 00 00 00 00 00 00 ................
00408A00 00 00 00 00 00 00 00 00 00 00 00 00 00 00 00 00 ................
00408A10 00 00 00 00 00 00 00 00 00 00 00 00 00 00 00 00 ................
00408A20 00 00 00 00 00 00 00 00 00 00 00 00 00 00 00 00 ................
00408A30 00 00 00 00 00 00 00 00 00 00 00 00 00 00 00 00 ................
00408A40 00 00 00 00 00 00 00 00 00 00 00 00 00 00 00 00 ................
00408A50 00 00 00 00 00 00 00 00 00 00 00 00 00 00 00 00 ................
00408A60 00 00 00 00 00 00 00 00 00 00 00 00 00 00 00 00 ................
00408A70 00 00 00 00 00 00 00 00 00 00 00 00 00 00 00 00 ................
00408A80 00 00 00 00 00 00 00 00 00 00 00 00 00 00 00 00 ................
00408A90 00 00 00 00 00 00 00 00 00 00 00 00 00 00 00 00 ................
00408AA0 00 00 00 00 00 00 00 00 00 00 00 00 00 00 00 00 ................
00408AB0 00 00 00 00 00 00 00 00 00 00 00 00 00 00 00 00 ................
00408AC0 00 00 00 00 00 00 00 00 00 00 00 00 00 00 00 00 ................
00408AD0 00 00 00 00 00 00 00 00 00 00 00 00 00 00 00 00 ................
00408AE0 00 00 00 00 00 00 00 00 00 00 00 00 00 00 00 00 ................
00408AF0 00 00 00 00 00 00 00 00 00 00 00 00 00 00 00 00 ................
00408B00 00 00 00 00 00 00 00 00 00 00 00 00 00 00 00 00 ................
00408B10 00 00 00 00 00 00 00 00 00 00 00 00 00 00 00 00 ................
00408B20 00 00 00 00 00 00 00 00 00 00 00 00 00 00 00 00 ................
00408B30 00 00 00 00 00 00 00 00 00 00 00 00 00 00 00 00 ................
00408B40 00 00 00 00 00 00 00 00 00 00 00 00 00 00 00 00 ................
00408B50 00 00 00 00 00 00 00 00 00 00 00 00 00 00 00 00 ................
00408B60 00 00 00 00 00 00 00 00 00 00 00 00 00 00 00 00 ................
00408B70 00 00 00 00 00 00 00 00 00 00 00 00 00 00 00 00 ................
00408B80 00 00 00 00 00 00 00 00 00 00 00 00 00 00 00 00 ................
00408B90 00 00 00 00 00 00 00 00 00 00 00 00 00 00 00 00 ................
00408BA0 00 00 00 00 00 00 00 00 00 00 00 00 00 00 00 00 ................
00408BB0 00 00 00 00 00 00 00 00 00 00 00 00 00 00 00 00 ................
00408BC0 00 00 00 00 00 00 00 00 00 00 00 00 00 00 00 00 ................
00408BD0 00 00 00 00 00 00 00 00 00 00 00 00 00 00 00 00 ................
00408BE0 00 00 00 00 00 00 00 00 00 00 00 00 00 00 00 00 ................
00408BF0 00 00 00 00 00 00 00 00 00 00 00 00 00 00 00 00 ................
00408C00 00 00 00 00 00 00 00 00 00 00 00 00 00 00 00 00 ................
00408C10 00 00 00 00 00 00 00 00 00 00 00 00 00 00 00 00 ................
00408C20 00 00 00 00 00 00 00 00 00 00 00 00 00 00 00 00 ................
00408C30 00 00 00 00 00 00 00 00 00 00 00 00 00 00 00 00 ................
00408C40 00 00 00 00 00 00 00 00 00 00 00 00 00 00 00 00 ................
00408C50 00 00 00 00 00 00 00 00 00 00 00 00 00 00 00 00 ................
00408C60 00 00 00 00 00 00 00 00 00 00 00 00 00 00 00 00 ................
00408C70 00 00 00 00 00 00 00 00 00 00 00 00 00 00 00 00 ................
00408C80 00 00 00 00 00 00 00 00 00 00 00 00 00 00 00 00 ................
00408C90 00 00 00 00 00 00 00 00 00 00 00 00 00 00 00 00 ................
00408CA0 00 00 00 00 00 00 00 00 00 00 00 00 00 00 00 00 ................
00408CB0 00 00 00 00 00 00 00 00 00 00 00 00 00 00 00 00 ................
00408CC0 00 00 00 00 00 00 00 00 00 00 00 00 00 00 00 00 ................
00408CD0 00 00 00 00 00 00 00 00 00 00 00 00 00 00 00 00 ................
00408CE0 00 00 00 00 00 00 00 00 00 00 00 00 00 00 00 00 ................
00408CF0 00 00 00 00 00 00 00 00 00 00 00 00 00 00 00 00 ................
00408D00 00 00 00 00 00 00 00 00 00 00 00 00 00 00 00 00 ................
00408D10 00 00 00 00 00 00 00 00 00 00 00 00 00 00 00 00 ................
00408D20 00 00 00 00 00 00 00 00 00 00 00 00 00 00 00 00 ................
00408D30 00 00 00 00 00 00 00 00 00 00 00 00 00 00 00 00 ................
00408D40 00 00 00 00 00 00 00 00 00 00 00 00 00 00 00 00 ................
00408D50 00 00 00 00 00 00 00 00 00 00 00 00 00 00 00 00 ................
00408D60 00 00 00 00 00 00 00 00 00 00 00 00 00 00 00 00 ................
00408D70 00 00 00 00 00 00 00 00 00 00 00 00 00 00 00 00 ................
00408D80 00 00 00 00 00 00 00 00 00 00 00 00 00 00 00 00 ................
00408D90 00 00 00 00 00 00 00 00 00 00 00 00 00 00 00 00 ................
00408DA0 00 00 00 00 00 00 00 00 00 00 00 00 00 00 00 00 ................
00408DB0 00 00 00 00 00 00 00 00 00 00 00 00 00 00 00 00 ................
00408DC0 00 00 00 00 00 00 00 00 00 00 00 00 00 00 00 00 ................
00408DD0 00 00 00 00 00 00 00 00 00 00 00 00 00 00 00 00 ................
00408DE0 00 00 00 00 00 00 00 00 00 00 00 00 00 00 00 00 ................
00408DF0 00 00 00 00 00 00 00 00 00 00 00 00 00 00 00 00 ................
00408E00 00 00 00 00 00 00 00 00 00 00 00 00 00 00 00 00 ................
00408E10 00 00 00 00 00 00 00 00 00 00 00 00 00 00 00 00 ................
00408E20 00 00 00 00 00 00 00 00 00 00 00 00 00 00 00 00 ................
00408E30 00 00 00 00 00 00 00 00 00 00 00 00 00 00 00 00 ................
00408E40 00 00 00 00 00 00 00 00 00 00 00 00 00 00 00 00 ................
00408E50 00 00 00 00 00 00 00 00 00 00 00 00 00 00 00 00 ................
00408E60 00 00 00 00 00 00 00 00 00 00 00 00 00 00 00 00 ................
00408E70 00 00 00 00 00 00 00 00 00 00 00 00 00 00 00 00 ................
00408E80 00 00 00 00 00 00 00 00 00 00 00 00 00 00 00 00 ................
00408E90 00 00 00 00 00 00 00 00 00 00 00 00 00 00 00 00 ................
00408EA0 00 00 00 00 00 00 00 00 00 00 00 00 00 00 00 00 ................
00408EB0 00 00 00 00 00 00 00 00 00 00 00 00 00 00 00 00 ................
00408EC0 00 00 00 00 00 00 00 00 00 00 00 00 00 00 00 00 ................
00408ED0 00 00 00 00 00 00 00 00 00 00 00 00 00 00 00 00 ................
00408EE0 00 00 00 00 00 00 00 00 00 00 00 00 00 00 00 00 ................
00408EF0 00 00 00 00 00 00 00 00 00 00 00 00 00 00 00 00 ................
00408F00 00 00 00 00 00 00 00 00 00 00 00 00 00 00 00 00 ................
00408F10 00 00 00 00 00 00 00 00 00 00 00 00 00 00 00 00 ................
00408F20 00 00 00 00 00 00 00 00 00 00 00 00 00 00 00 00 ................
00408F30 00 00 00 00 00 00 00 00 00 00 00 00 00 00 00 00 ................
00408F40 00 00 00 00 00 00 00 00 00 00 00 00 00 00 00 00 ................
00408F50 00 00 00 00 00 00 00 00 00 00 00 00 00 00 00 00 ................
00408F60 00 00 00 00 00 00 00 00 00 00 00 00 00 00 00 00 ................
00408F70 00 00 00 00 00 00 00 00 00 00 00 00 00 00 00 00 ................
00408F80 00 00 00 00 00 00 00 00 00 00 00 00 00 00 00 00 ................
00408F90 00 00 00 00 00 00 00 00 00 00 00 00 00 00 00 00 ................
00408FA0 00 00 00 00 00 00 00 00 00 00 00 00 00 00 00 00 ................
00408FB0 00 00 00 00 00 00 00 00 00 00 00 00 00 00 00 00 ................
00408FC0 00 00 00 00 00 00 00 00 00 00 00 00 00 00 00 00 ................
00408FD0 00 00 00 00 00 00 00 00 00 00 00 00 00 00 00 00 ................
00408FE0 00 00 00 00 00 00 00 00 00 00 00 00 00 00 00 00 ................
00408FF0 00 00 00 00 00 00 00 00 00 00 00 00 00 00 00 00 ................
00409000 00 00 00 00 00 00 00 00 00 00 00 00 00 00 00 00 ................
00409010 00 00 00 00 00 00 00 00 00 00 00 00 00 00 00 00 ................
00409020 00 00 00 00 00 00 00 00 00 00 00 00 00 00 00 00 ................
00409030 00 00 00 00 00 00 00 00 00 00 00 00 00 00 00 00 ................
00409040 00 00 00 00 00 00 00 00 00 00 00 00 00 00 00 00 ................
00409050 00 00 00 00 00 00 00 00 00 00 00 00 00 00 00 00 ................
00409060 00 00 00 00 00 00 00 00 00 00 00 00 00 00 00 00 ................
00409070 00 00 00 00 00 00 00 00 00 00 00 00 00 00 00 00 ................
00409080 00 00 00 00 00 00 00 00 00 00 00 00 00 00 00 00 ................
00409090 00 00 00 00 00 00 00 00 00 00 00 00 00 00 00 00 ................
004090A0 00 00 00 00 00 00 00 00 00 00 00 00 00 00 00 00 ................
004090B0 00 00 00 00 00 00 00 00 00 00 00 00 00 00 00 00 ................
004090C0 00 00 00 00 00 00 00 00 00 00 00 00 00 00 00 00 ................
004090D0 00 00 00 00 00 00 00 00 00 00 00 00 00 00 00 00 ................
004090E0 00 00 00 00 00 00 00 00 00 00 00 00 00 00 00 00 ................
004090F0 00 00 00 00 00 00 00 00 00 00 00 00 00 00 00 00 ................
00409100 00 00 00 00 00 00 00 00 00 00 00 00 00 00 00 00 ................
00409110 00 00 00 00 00 00 00 00 00 00 00 00 00 00 00 00 ................
00409120 00 00 00 00 00 00 00 00 00 00 00 00 00 00 00 00 ................
00409130 00 00 00 00 00 00 00 00 00 00 00 00 00 00 00 00 ................
00409140 00 00 00 00 00 00 00 00 00 00 00 00 00 00 00 00 ................
00409150 00 00 00 00 00 00 00 00 00 00 00 00 00 00 00 00 ................
00409160 00 00 00 00 00 00 00 00 00 00 00 00 00 00 00 00 ................
00409170 00 00 00 00 00 00 00 00 00 00 00 00 00 00 00 00 ................
00409180 00 00 00 00 00 00 00 00 00 00 00 00 00 00 00 00 ................
00409190 00 00 00 00 00 00 00 00 00 00 00 00 00 00 00 00 ................
004091A0 00 00 00 00 00 00 00 00 00 00 00 00 00 00 00 00 ................
004091B0 00 00 00 00 00 00 00 00 00 00 00 00 00 00 00 00 ................
004091C0 00 00 00 00 00 00 00 00 00 00 00 00 00 00 00 00 ................
004091D0 00 00 00 00 00 00 00 00 00 00 00 00 00 00 00 00 ................
004091E0 00 00 00 00 00 00 00 00 00 00 00 00 00 00 00 00 ................
004091F0 00 00 00 00 00 00 00 00 00 00 00 00 00 00 00 00 ................
00409200 00 00 00 00 00 00 00 00 00 00 00 00 00 00 00 00 ................
00409210 00 00 00 00 00 00 00 00 00 00 00 00 00 00 00 00 ................
00409220 00 00 00 00 00 00 00 00 00 00 00 00 00 00 00 00 ................
00409230 00 00 00 00 00 00 00 00 00 00 00 00 00 00 00 00 ................
00409240 00 00 00 00 00 00 00 00 00 00 00 00 00 00 00 00 ................
00409250 00 00 00 00 00 00 00 00 00 00 00 00 00 00 00 00 ................
00409260 00 00 00 00 00 00 00 00 00 00 00 00 00 00 00 00 ................
00409270 00 00 00 00 00 00 00 00 00 00 00 00 00 00 00 00 ................
00409280 00 00 00 00 00 00 00 00 00 00 00 00 00 00 00 00 ................
00409290 00 00 00 00 00 00 00 00 00 00 00 00 00 00 00 00 ................
004092A0 00 00 00 00 00 00 00 00 00 00 00 00 00 00 00 00 ................
004092B0 00 00 00 00 00 00 00 00 00 00 00 00 00 00 00 00 ................
004092C0 00 00 00 00 00 00 00 00 00 00 00 00 00 00 00 00 ................
004092D0 00 00 00 00 00 00 00 00 00 00 00 00 00 00 00 00 ................
004092E0 00 00 00 00 00 00 00 00 00 00 00 00 00 00 00 00 ................
004092F0 00 00 00 00 00 00 00 00 00 00 00 00 00 00 00 00 ................
00409300 00 00 00 00 00 00 00 00 00 00 00 00 00 00 00 00 ................
00409310 00 00 00 00 00 00 00 00 00 00 00 00 00 00 00 00 ................
00409320 00 00 00 00 00 00 00 00 00 00 00 00 00 00 00 00 ................
00409330 00 00 00 00 00 00 00 00 00 00 00 00 00 00 00 00 ................
00409340 00 00 00 00 00 00 00 00 00 00 00 00 00 00 00 00 ................
00409350 00 00 00 00 00 00 00 00 00 00 00 00 00 00 00 00 ................
00409360 00 00 00 00 00 00 00 00 00 00 00 00 00 00 00 00 ................
00409370 00 00 00 00 00 00 00 00 00 00 00 00 00 00 00 00 ................
00409380 00 00 00 00 00 00 00 00 00 00 00 00 00 00 00 00 ................
00409390 00 00 00 00 00 00 00 00 00 00 00 00 00 00 00 00 ................
004093A0 00 00 00 00 00 00 00 00 00 00 00 00 00 00 00 00 ................
004093B0 00 00 00 00 00 00 00 00 00 00 00 00 00 00 00 00 ................
004093C0 00 00 00 00 00 00 00 00 00 00 00 00 00 00 00 00 ................
004093D0 00 00 00 00 00 00 00 00 00 00 00 00 00 00 00 00 ................
004093E0 00 00 00 00 00 00 00 00 00 00 00 00 00 00 00 00 ................
004093F0 00 00 00 00 00 00 00 00 00 00 00 00 00 00 00 00 ................
00409400 00 00 00 00 00 00 00 00 00 00 00 00 00 00 00 00 ................
00409410 00 00 00 00 00 00 00 00 00 00 00 00 00 00 00 00 ................
00409420 00 00 00 00 00 00 00 00 00 00 00 00 00 00 00 00 ................
00409430 00 00 00 00 00 00 00 00 00 00 00 00 00 00 00 00 ................
00409440 00 00 00 00 00 00 00 00 00 00 00 00 00 00 00 00 ................
00409450 00 00 00 00 00 00 00 00 00 00 00 00 00 00 00 00 ................
00409460 00 00 00 00 00 00 00 00 00 00 00 00 00 00 00 00 ................
00409470 00 00 00 00 00 00 00 00 00 00 00 00 00 00 00 00 ................
00409480 00 00 00 00 00 00 00 00 00 00 00 00 00 00 00 00 ................
00409490 00 00 00 00 00 00 00 00 00 00 00 00 00 00 00 00 ................
004094A0 00 00 00 00 00 00 00 00 00 00 00 00 00 00 00 00 ................
004094B0 00 00 00 00 00 00 00 00 00 00 00 00 00 00 00 00 ................
004094C0 00 00 00 00 00 00 00 00 00 00 00 00 00 00 00 00 ................
004094D0 00 00 00 00 00 00 00 00 00 00 00 00 00 00 00 00 ................
004094E0 00 00 00 00 00 00 00 00 00 00 00 00 00 00 00 00 ................
004094F0 00 00 00 00 00 00 00 00 00 00 00 00 00 00 00 00 ................
00409500 00 00 00 00 00 00 00 00 00 00 00 00 00 00 00 00 ................
00409510 00 00 00 00 00 00 00 00 00 00 00 00 00 00 00 00 ................
00409520 00 00 00 00 00 00 00 00 00 00 00 00 00 00 00 00 ................
00409530 00 00 00 00 00 00 00 00 00 00 00 00 00 00 00 00 ................
00409540 00 00 00 00 00 00 00 00 00 00 00 00 00 00 00 00 ................
00409550 00 00 00 00 00 00 00 00 00 00 00 00 00 00 00 00 ................
00409560 00 00 00 00 00 00 00 00 00 00 00 00 00 00 00 00 ................
00409570 00 00 00 00 00 00 00 00 00 00 00 00 00 00 00 00 ................
00409580 00 00 00 00 00 00 00 00 00 00 00 00 00 00 00 00 ................
00409590 00 00 00 00 00 00 00 00 00 00 00 00 00 00 00 00 ................
004095A0 00 00 00 00 00 00 00 00 00 00 00 00 00 00 00 00 ................
004095B0 00 00 00 00 00 00 00 00 00 00 00 00 00 00 00 00 ................
004095C0 00 00 00 00 00 00 00 00 00 00 00 00 00 00 00 00 ................
004095D0 00 00 00 00 00 00 00 00 00 00 00 00 00 00 00 00 ................
004095E0 00 00 00 00 00 00 00 00 00 00 00 00 00 00 00 00 ................
004095F0 00 00 00 00 00 00 00 00 00 00 00 00 00 00 00 00 ................
00409600 00 00 00 00 00 00 00 00 00 00 00 00 00 00 00 00 ................
00409610 00 00 00 00 00 00 00 00 00 00 00 00 00 00 00 00 ................
00409620 00 00 00 00 00 00 00 00 00 00 00 00 00 00 00 00 ................
00409630 00 00 00 00 00 00 00 00 00 00 00 00 00 00 00 00 ................
00409640 00 00 00 00 00 00 00 00 00 00 00 00 00 00 00 00 ................
00409650 00 00 00 00 00 00 00 00 00 00 00 00 00 00 00 00 ................
00409660 00 00 00 00 00 00 00 00 00 00 00 00 00 00 00 00 ................
00409670 00 00 00 00 00 00 00 00 00 00 00 00 00 00 00 00 ................
00409680 00 00 00 00 00 00 00 00 00 00 00 00 00 00 00 00 ................
00409690 00 00 00 00 00 00 00 00 00 00 00 00 00 00 00 00 ................
004096A0 00 00 00 00 00 00 00 00 00 00 00 00 00 00 00 00 ................
004096B0 00 00 00 00 00 00 00 00 00 00 00 00 00 00 00 00 ................
004096C0 00 00 00 00 00 00 00 00 00 00 00 00 00 00 00 00 ................
004096D0 00 00 00 00 00 00 00 00 00 00 00 00 00 00 00 00 ................
004096E0 00 00 00 00 00 00 00 00 00 00 00 00 00 00 00 00 ................
004096F0 00 00 00 00 00 00 00 00 00 00 00 00 00 00 00 00 ................
00409700 00 00 00 00 00 00 00 00 00 00 00 00 00 00 00 00 ................
00409710 00 00 00 00 00 00 00 00 00 00 00 00 00 00 00 00 ................
00409720 00 00 00 00 00 00 00 00 00 00 00 00 00 00 00 00 ................
00409730 00 00 00 00 00 00 00 00 00 00 00 00 00 00 00 00 ................
00409740 00 00 00 00 00 00 00 00 00 00 00 00 00 00 00 00 ................
00409750 00 00 00 00 00 00 00 00 00 00 00 00 00 00 00 00 ................
00409760 00 00 00 00 00 00 00 00 00 00 00 00 00 00 00 00 ................
00409770 00 00 00 00 00 00 00 00 00 00 00 00 00 00 00 00 ................
00409780 00 00 00 00 00 00 00 00 00 00 00 00 00 00 00 00 ................
00409790 00 00 00 00 00 00 00 00 00 00 00 00 00 00 00 00 ................
004097A0 00 00 00 00 00 00 00 00 00 00 00 00 00 00 00 00 ................
004097B0 00 00 00 00 00 00 00 00 00 00 00 00 00 00 00 00 ................
004097C0 00 00 00 00 00 00 00 00 00 00 00 00 00 00 00 00 ................
004097D0 00 00 00 00 00 00 00 00 00 00 00 00 00 00 00 00 ................
004097E0 00 00 00 00 00 00 00 00 00 00 00 00 00 00 00 00 ................
004097F0 00 00 00 00 00 00 00 00 00 00 00 00 00 00 00 00 ................
00409800 00 00 00 00 00 00 00 00 00 00 00 00 00 00 00 00 ................
00409810 00 00 00 00 00 00 00 00 00 00 00 00 00 00 00 00 ................
00409820 00 00 00 00 00 00 00 00 00 00 00 00 00 00 00 00 ................
00409830 00 00 00 00 00 00 00 00 00 00 00 00 00 00 00 00 ................
00409840 00 00 00 00 00 00 00 00 00 00 00 00 00 00 00 00 ................
00409850 00 00 00 00 00 00 00 00 00 00 00 00 00 00 00 00 ................
00409860 00 00 00 00 00 00 00 00 00 00 00 00 00 00 00 00 ................
00409870 00 00 00 00 00 00 00 00 00 00 00 00 00 00 00 00 ................
00409880 00 00 00 00 00 00 00 00 00 00 00 00 00 00 00 00 ................
00409890 00 00 00 00 00 00 00 00 00 00 00 00 00 00 00 00 ................
004098A0 00 00 00 00 00 00 00 00 00 00 00 00 00 00 00 00 ................
004098B0 00 00 00 00 00 00 00 00 00 00 00 00 00 00 00 00 ................
004098C0 00 00 00 00 00 00 00 00 00 00 00 00 00 00 00 00 ................
004098D0 00 00 00 00 00 00 00 00 00 00 00 00 00 00 00 00 ................
004098E0 00 00 00 00 00 00 00 00 00 00 00 00 00 00 00 00 ................
004098F0 00 00 00 00 00 00 00 00 00 00 00 00 00 00 00 00 ................
00409900 00 00 00 00 00 00 00 00 00 00 00 00 00 00 00 00 ................
00409910 00 00 00 00 00 00 00 00 00 00 00 00 00 00 00 00 ................
00409920 00 00 00 00 00 00 00 00 00 00 00 00 00 00 00 00 ................
00409930 00 00 00 00 00 00 00 00 00 00 00 00 00 00 00 00 ................
00409940 00 00 00 00 00 00 00 00 00 00 00 00 00 00 00 00 ................
00409950 00 00 00 00 00 00 00 00 00 00 00 00 00 00 00 00 ................
00409960 00 00 00 00 00 00 00 00 00 00 00 00 00 00 00 00 ................
00409970 00 00 00 00 00 00 00 00 00 00 00 00 00 00 00 00 ................
00409980 00 00 00 00 00 00 00 00 00 00 00 00 00 00 00 00 ................
00409990 00 00 00 00 00 00 00 00 00 00 00 00 00 00 00 00 ................
004099A0 00 00 00 00 00 00 00 00 00 00 00 00 00 00 00 00 ................
004099B0 00 00 00 00 00 00 00 00 00 00 00 00 00 00 00 00 ................
004099C0 00 00 00 00 00 00 00 00 00 00 00 00 00 00 00 00 ................
004099D0 00 00 00 00 00 00 00 00 00 00 00 00 00 00 00 00 ................
004099E0 00 00 00 00 00 00 00 00 00 00 00 00 00 00 00 00 ................
004099F0 00 00 00 00 00 00 00 00 00 00 00 00 00 00 00 00 ................
00409A00 00 00 00 00 00 00 00 00 00 00 00 00 00 00 00 00 ................
00409A10 00 00 00 00 00 00 00 00 00 00 00 00 00 00 00 00 ................
00409A20 00 00 00 00 00 00 00 00 00 00 00 00 00 00 00 00 ................
00409A30 00 00 00 00 00 00 00 00 00 00 00 00 00 00 00 00 ................
00409A40 00 00 00 00 00 00 00 00 00 00 00 00 00 00 00 00 ................
00409A50 00 00 00 00 00 00 00 00 00 00 00 00 00 00 00 00 ................
00409A60 00 00 00 00 00 00 00 00 00 00 00 00 00 00 00 00 ................
00409A70 00 00 00 00 00 00 00 00 00 00 00 00 00 00 00 00 ................
00409A80 00 00 00 00 00 00 00 00 00 00 00 00 00 00 00 00 ................
00409A90 00 00 00 00 00 00 00 00 00 00 00 00 00 00 00 00 ................
00409AA0 00 00 00 00 00 00 00 00 00 00 00 00 00 00 00 00 ................
00409AB0 00 00 00 00 00 00 00 00 00 00 00 00 00 00 00 00 ................
00409AC0 00 00 00 00 00 00 00 00 00 00 00 00 00 00 00 00 ................
00409AD0 00 00 00 00 00 00 00 00 00 00 00 00 00 00 00 00 ................
00409AE0 00 00 00 00 00 00 00 00 00 00 00 00 00 00 00 00 ................
00409AF0 00 00 00 00 00 00 00 00 00 00 00 00 00 00 00 00 ................
00409B00 00 00 00 00 00 00 00 00 00 00 00 00 00 00 00 00 ................
00409B10 00 00 00 00 00 00 00 00 00 00 00 00 00 00 00 00 ................
00409B20 00 00 00 00 00 00 00 00 00 00 00 00 00 00 00 00 ................
00409B30 00 00 00 00 00 00 00 00 00 00 00 00 00 00 00 00 ................
00409B40 00 00 00 00 00 00 00 00 00 00 00 00 00 00 00 00 ................
00409B50 00 00 00 00 00 00 00 00 00 00 00 00 00 00 00 00 ................
00409B60 00 00 00 00 00 00 00 00 00 00 00 00 00 00 00 00 ................
00409B70 00 00 00 00 00 00 00 00 00 00 00 00 00 00 00 00 ................
00409B80 00 00 00 00 00 00 00 00 00 00 00 00 00 00 00 00 ................
00409B90 00 00 00 00 00 00 00 00 00 00 00 00 00 00 00 00 ................
00409BA0 00 00 00 00 00 00 00 00 00 00 00 00 00 00 00 00 ................
00409BB0 00 00 00 00 00 00 00 00 00 00 00 00 00 00 00 00 ................
00409BC0 00 00 00 00 00 00 00 00 00 00 00 00 00 00 00 00 ................
00409BD0 00 00 00 00 00 00 00 00 00 00 00 00 00 00 00 00 ................
00409BE0 00 00 00 00 00 00 00 00 00 00 00 00 00 00 00 00 ................
00409BF0 00 00 00 00 00 00 00 00 00 00 00 00 00 00 00 00 ................
00409C00 00 00 00 00 00 00 00 00 00 00 00 00 00 00 00 00 ................
00409C10 00 00 00 00 00 00 00 00 00 00 00 00 00 00 00 00 ................
00409C20 00 00 00 00 00 00 00 00 00 00 00 00 00 00 00 00 ................
00409C30 00 00 00 00 00 00 00 00 00 00 00 00 00 00 00 00 ................
00409C40 00 00 00 00 00 00 00 00 00 00 00 00 00 00 00 00 ................
00409C50 00 00 00 00 00 00 00 00 00 00 00 00 00 00 00 00 ................
00409C60 00 00 00 00 00 00 00 00 00 00 00 00 00 00 00 00 ................
00409C70 00 00 00 00 00 00 00 00 00 00 00 00 00 00 00 00 ................
00409C80 00 00 00 00 00 00 00 00 00 00 00 00 00 00 00 00 ................
00409C90 00 00 00 00 00 00 00 00 00 00 00 00 00 00 00 00 ................
00409CA0 00 00 00 00 00 00 00 00 00 00 00 00 00 00 00 00 ................
00409CB0 00 00 00 00 00 00 00 00 00 00 00 00 00 00 00 00 ................
00409CC0 00 00 00 00 00 00 00 00 00 00 00 00 00 00 00 00 ................
00409CD0 00 00 00 00 00 00 00 00 00 00 00 00 00 00 00 00 ................
00409CE0 00 00 00 00 00 00 00 00 00 00 00 00 00 00 00 00 ................
00409CF0 00 00 00 00 00 00 00 00 00 00 00 00 00 00 00 00 ................
00409D00 00 00 00 00 00 00 00 00 00 00 00 00 00 00 00 00 ................
00409D10 00 00 00 00 00 00 00 00 00 00 00 00 00 00 00 00 ................
00409D20 00 00 00 00 00 00 00 00 00 00 00 00 00 00 00 00 ................
00409D30 00 00 00 00 00 00 00 00 00 00 00 00 00 00 00 00 ................
00409D40 00 00 00 00 00 00 00 00 00 00 00 00 00 00 00 00 ................
00409D50 00 00 00 00 00 00 00 00 00 00 00 00 00 00 00 00 ................
00409D60 00 00 00 00 00 00 00 00 00 00 00 00 00 00 00 00 ................
00409D70 00 00 00 00 00 00 00 00 00 00 00 00 00 00 00 00 ................
00409D80 00 00 00 00 00 00 00 00 00 00 00 00 00 00 00 00 ................
00409D90 00 00 00 00 00 00 00 00 00 00 00 00 00 00 00 00 ................
00409DA0 00 00 00 00 00 00 00 00 00 00 00 00 00 00 00 00 ................
00409DB0 00 00 00 00 00 00 00 00 00 00 00 00 00 00 00 00 ................
00409DC0 00 00 00 00 00 00 00 00 00 00 00 00 00 00 00 00 ................
00409DD0 00 00 00 00 00 00 00 00 00 00 00 00 00 00 00 00 ................
00409DE0 00 00 00 00 00 00 00 00 00 00 00 00 00 00 00 00 ................
00409DF0 00 00 00 00 00 00 00 00 00 00 00 00 00 00 00 00 ................
00409E00 00 00 00 00 00 00 00 00 00 00 00 00 00 00 00 00 ................
00409E10 00 00 00 00 00 00 00 00 00 00 00 00 00 00 00 00 ................
00409E20 00 00 00 00 00 00 00 00 00 00 00 00 00 00 00 00 ................
00409E30 00 00 00 00 00 00 00 00 00 00 00 00 00 00 00 00 ................
00409E40 00 00 00 00 00 00 00 00 00 00 00 00 00 00 00 00 ................
00409E50 00 00 00 00 00 00 00 00 00 00 00 00 00 00 00 00 ................
00409E60 00 00 00 00 00 00 00 00 00 00 00 00 00 00 00 00 ................
00409E70 00 00 00 00 00 00 00 00 00 00 00 00 00 00 00 00 ................
00409E80 00 00 00 00 00 00 00 00 00 00 00 00 00 00 00 00 ................
00409E90 00 00 00 00 00 00 00 00 00 00 00 00 00 00 00 00 ................
00409EA0 00 00 00 00 00 00 00 00 00 00 00 00 00 00 00 00 ................
00409EB0 00 00 00 00 00 00 00 00 00 00 00 00 00 00 00 00 ................
00409EC0 00 00 00 00 00 00 00 00 00 00 00 00 00 00 00 00 ................
00409ED0 00 00 00 00 00 00 00 00 00 00 00 00 00 00 00 00 ................
00409EE0 00 00 00 00 00 00 00 00 00 00 00 00 00 00 00 00 ................
00409EF0 00 00 00 00 00 00 00 00 00 00 00 00 00 00 00 00 ................
00409F00 00 00 00 00 00 00 00 00 00 00 00 00 00 00 00 00 ................
00409F10 00 00 00 00 00 00 00 00 00 00 00 00 00 00 00 00 ................
00409F20 00 00 00 00 00 00 00 00 00 00 00 00 00 00 00 00 ................
00409F30 00 00 00 00 00 00 00 00 00 00 00 00 00 00 00 00 ................
00409F40 00 00 00 00 00 00 00 00 00 00 00 00 00 00 00 00 ................
00409F50 00 00 00 00 00 00 00 00 00 00 00 00 00 00 00 00 ................
00409F60 00 00 00 00 00 00 00 00 00 00 00 00 00 00 00 00 ................
00409F70 00 00 00 00 00 00 00 00 00 00 00 00 00 00 00 00 ................
00409F80 00 00 00 00 00 00 00 00 00 00 00 00 00 00 00 00 ................
00409F90 00 00 00 00 00 00 00 00 00 00 00 00 00 00 00 00 ................
00409FA0 00 00 00 00 00 00 00 00 00 00 00 00 00 00 00 00 ................
00409FB0 00 00 00 00 00 00 00 00 00 00 00 00 00 00 00 00 ................
00409FC0 00 00 00 00 00 00 00 00 00 00 00 00 00 00 00 00 ................
00409FD0 00 00 00 00 00 00 00 00 00 00 00 00 00 00 00 00 ................
00409FE0 00 00 00 00 00 00 00 00 00 00 00 00 00 00 00 00 ................
00409FF0 00 00 00 00 00 00 00 00 00 00 00 00 00 00 00 00 ................
0040A000 00 00 00 00 00 00 00 00 00 00 00 00 00 00 00 00 ................
0040A010 00 00 00 00 00 00 00 00 00 00 00 00 00 00 00 00 ................
0040A020 00 00 00 00 00 00 00 00 00 00 00 00 00 00 00 00 ................
0040A030 00 00 00 00 00 00 00 00 00 00 00 00 00 00 00 00 ................
0040A040 00 00 00 00 00 00 00 00 00 00 00 00 00 00 00 00 ................
0040A050 00 00 00 00 00 00 00 00 00 00 00 00 00 00 00 00 ................
0040A060 00 00 00 00 00 00 00 00 00 00 00 00 00 00 00 00 ................
0040A070 00 00 00 00 00 00 00 00 00 00 00 00 00 00 00 00 ................
0040A080 00 00 00 00 00 00 00 00 00 00 00 00 00 00 00 00 ................
0040A090 00 00 00 00 00 00 00 00 00 00 00 00 00 00 00 00 ................
0040A0A0 00 00 00 00 00 00 00 00 00 00 00 00 00 00 00 00 ................
0040A0B0 00 00 00 00 00 00 00 00 00 00 00 00 00 00 00 00 ................
0040A0C0 00 00 00 00 00 00 00 00 00 00 00 00 00 00 00 00 ................
0040A0D0 00 00 00 00 00 00 00 00 00 00 00 00 00 00 00 00 ................
0040A0E0 00 00 00 00 00 00 00 00 00 00 00 00 00 00 00 00 ................
0040A0F0 00 00 00 00 00 00 00 00 00 00 00 00 00 00 00 00 ................
0040A100 00 00 00 00 00 00 00 00 00 00 00 00 00 00 00 00 ................
0040A110 00 00 00 00 00 00 00 00 00 00 00 00 00 00 00 00 ................
0040A120 00 00 00 00 00 00 00 00 00 00 00 00 00 00 00 00 ................
0040A130 00 00 00 00 00 00 00 00 00 00 00 00 00 00 00 00 ................
0040A140 00 00 00 00 00 00 00 00 00 00 00 00 00 00 00 00 ................
0040A150 00 00 00 00 00 00 00 00 00 00 00 00 00 00 00 00 ................
0040A160 00 00 00 00 00 00 00 00 00 00 00 00 00 00 00 00 ................
0040A170 00 00 00 00 00 00 00 00 00 00 00 00 00 00 00 00 ................
0040A180 00 00 00 00 00 00 00 00 00 00 00 00 00 00 00 00 ................
0040A190 00 00 00 00 00 00 00 00 00 00 00 00 00 00 00 00 ................
0040A1A0 00 00 00 00 00 00 00 00 00 00 00 00 00 00 00 00 ................
0040A1B0 00 00 00 00 00 00 00 00 00 00 00 00 00 00 00 00 ................
0040A1C0 00 00 00 00 00 00 00 00 00 00 00 00 00 00 00 00 ................
0040A1D0 00 00 00 00 00 00 00 00 00 00 00 00 00 00 00 00 ................
0040A1E0 00 00 00 00 00 00 00 00 00 00 00 00 00 00 00 00 ................
0040A1F0 00 00 00 00 00 00 00 00 00 00 00 00 00 00 00 00 ................
0040A200 00 00 00 00 00 00 00 00 00 00 00 00 00 00 00 00 ................
0040A210 00 00 00 00 00 00 00 00 00 00 00 00 00 00 00 00 ................
0040A220 00 00 00 00 00 00 00 00 00 00 00 00 00 00 00 00 ................
0040A230 00 00 00 00 00 00 00 00 00 00 00 00 00 00 00 00 ................
0040A240 00 00 00 00 00 00 00 00 00 00 00 00 00 00 00 00 ................
0040A250 00 00 00 00 00 00 00 00 00 00 00 00 00 00 00 00 ................
0040A260 00 00 00 00 00 00 00 00 00 00 00 00 00 00 00 00 ................
0040A270 00 00 00 00 00 00 00 00 00 00 00 00 00 00 00 00 ................
0040A280 00 00 00 00 00 00 00 00 00 00 00 00 00 00 00 00 ................
0040A290 00 00 00 00 00 00 00 00 00 00 00 00 00 00 00 00 ................
0040A2A0 00 00 00 00 00 00 00 00 00 00 00 00 00 00 00 00 ................
0040A2B0 00 00 00 00 00 00 00 00 00 00 00 00 00 00 00 00 ................
0040A2C0 00 00 00 00 00 00 00 00 00 00 00 00 00 00 00 00 ................
0040A2D0 00 00 00 00 00 00 00 00 00 00 00 00 00 00 00 00 ................
0040A2E0 00 00 00 00 00 00 00 00 00 00 00 00 00 00 00 00 ................
0040A2F0 00 00 00 00 00 00 00 00 00 00 00 00 00 00 00 00 ................
0040A300 00 00 00 00 00 00 00 00 00 00 00 00 00 00 00 00 ................
0040A310 00 00 00 00 00 00 00 00 00 00 00 00 00 00 00 00 ................
0040A320 00 00 00 00 00 00 00 00 00 00 00 00 00 00 00 00 ................
0040A330 00 00 00 00 00 00 00 00 00 00 00 00 00 00 00 00 ................
0040A340 00 00 00 00 00 00 00 00 00 00 00 00 00 00 00 00 ................
0040A350 00 00 00 00 00 00 00 00 00 00 00 00 00 00 00 00 ................
0040A360 00 00 00 00 00 00 00 00 00 00 00 00 00 00 00 00 ................
0040A370 00 00 00 00 00 00 00 00 00 00 00 00 00 00 00 00 ................
0040A380 00 00 00 00 00 00 00 00 00 00 00 00 00 00 00 00 ................
0040A390 00 00 00 00 00 00 00 00 00 00 00 00 00 00 00 00 ................
0040A3A0 00 00 00 00 00 00 00 00 00 00 00 00 00 00 00 00 ................
0040A3B0 00 00 00 00 00 00 00 00 00 00 00 00 00 00 00 00 ................
0040A3C0 00 00 00 00 00 00 00 00 00 00 00 00 00 00 00 00 ................
0040A3D0 00 00 00 00 00 00 00 00 00 00 00 00 00 00 00 00 ................
0040A3E0 00 00 00 00 00 00 00 00 00 00 00 00 00 00 00 00 ................
0040A3F0 00 00 00 00 00 00 00 00 00 00 00 00 00 00 00 00 ................
0040A400 00 00 00 00 00 00 00 00 00 00 00 00 00 00 00 00 ................
0040A410 00 00 00 00 00 00 00 00 00 00 00 00 00 00 00 00 ................
0040A420 00 00 00 00 00 00 00 00 00 00 00 00 00 00 00 00 ................
0040A430 00 00 00 00 00 00 00 00 00 00 00 00 00 00 00 00 ................
0040A440 00 00 00 00 00 00 00 00 00 00 00 00 00 00 00 00 ................
0040A450 00 00 00 00 00 00 00 00 00 00 00 00 00 00 00 00 ................
0040A460 00 00 00 00 00 00 00 00 00 00 00 00 00 00 00 00 ................
0040A470 00 00 00 00 00 00 00 00 00 00 00 00 00 00 00 00 ................
0040A480 00 00 00 00 00 00 00 00 00 00 00 00 00 00 00 00 ................
0040A490 00 00 00 00 00 00 00 00 00 00 00 00 00 00 00 00 ................
0040A4A0 00 00 00 00 00 00 00 00 00 00 00 00 00 00 00 00 ................
0040A4B0 00 00 00 00 00 00 00 00 00 00 00 00 00 00 00 00 ................
0040A4C0 00 00 00 00 00 00 00 00 00 00 00 00 00 00 00 00 ................
0040A4D0 00 00 00 00 00 00 00 00 00 00 00 00 00 00 00 00 ................
0040A4E0 00 00 00 00 00 00 00 00 00 00 00 00 00 00 00 00 ................
0040A4F0 00 00 00 00 00 00 00 00 00 00 00 00 00 00 00 00 ................
0040A500 00 00 00 00 00 00 00 00 00 00 00 00 00 00 00 00 ................
0040A510 00 00 00 00 00 00 00 00 00 00 00 00 00 00 00 00 ................
0040A520 00 00 00 00 00 00 00 00 00 00 00 00 00 00 00 00 ................
0040A530 00 00 00 00 00 00 00 00 00 00 00 00 00 00 00 00 ................
0040A540 00 00 00 00 00 00 00 00 00 00 00 00 00 00 00 00 ................
0040A550 00 00 00 00 00 00 00 00 00 00 00 00 00 00 00 00 ................
0040A560 00 00 00 00 00 00 00 00 00 00 00 00 00 00 00 00 ................
0040A570 00 00 00 00 00 00 00 00 00 00 00 00 00 00 00 00 ................
0040A580 00 00 00 00 00 00 00 00 00 00 00 00 00 00 00 00 ................
0040A590 00 00 00 00 00 00 00 00 00 00 00 00 00 00 00 00 ................
0040A5A0 00 00 00 00 00 00 00 00 00 00 00 00 00 00 00 00 ................
0040A5B0 00 00 00 00 00 00 00 00 00 00 00 00 00 00 00 00 ................
0040A5C0 00 00 00 00 00 00 00 00 00 00 00 00 00 00 00 00 ................
0040A5D0 00 00 00 00 00 00 00 00 00 00 00 00 00 00 00 00 ................
0040A5E0 00 00 00 00 00 00 00 00 00 00 00 00 00 00 00 00 ................
0040A5F0 00 00 00 00 00 00 00 00 00 00 00 00 00 00 00 00 ................
0040A600 00 00 00 00 00 00 00 00 00 00 00 00 00 00 00 00 ................
0040A610 00 00 00 00 00 00 00 00 00 00 00 00 00 00 00 00 ................
0040A620 00 00 00 00 00 00 00 00 00 00 00 00 00 00 00 00 ................
0040A630 00 00 00 00 00 00 00 00 00 00 00 00 00 00 00 00 ................
0040A640 00 00 00 00 00 00 00 00 00 00 00 00 00 00 00 00 ................
0040A650 00 00 00 00 00 00 00 00 00 00 00 00 00 00 00 00 ................
0040A660 00 00 00 00 00 00 00 00 00 00 00 00 00 00 00 00 ................
0040A670 00 00 00 00 00 00 00 00 00 00 00 00 00 00 00 00 ................
0040A680 00 00 00 00 00 00 00 00 00 00 00 00 00 00 00 00 ................
0040A690 00 00 00 00 00 00 00 00 00 00 00 00 00 00 00 00 ................
0040A6A0 00 00 00 00 00 00 00 00 00 00 00 00 00 00 00 00 ................
0040A6B0 00 00 00 00 00 00 00 00 00 00 00 00 00 00 00 00 ................
0040A6C0 00 00 00 00 00 00 00 00 00 00 00 00 00 00 00 00 ................
0040A6D0 00 00 00 00 00 00 00 00 00 00 00 00 00 00 00 00 ................
0040A6E0 00 00 00 00 00 00 00 00 00 00 00 00 00 00 00 00 ................
0040A6F0 00 00 00 00 00 00 00 00 00 00 00 00 00 00 00 00 ................
0040A700 00 00 00 00 00 00 00 00 00 00 00 00 00 00 00 00 ................
0040A710 00 00 00 00 00 00 00 00 00 00 00 00 00 00 00 00 ................
0040A720 00 00 00 00 00 00 00 00 00 00 00 00 00 00 00 00 ................
0040A730 00 00 00 00 00 00 00 00 00 00 00 00 00 00 00 00 ................
0040A740 00 00 00 00 00 00 00 00 00 00 00 00 00 00 00 00 ................
0040A750 00 00 00 00 00 00 00 00 00 00 00 00 00 00 00 00 ................
0040A760 00 00 00 00 00 00 00 00 00 00 00 00 00 00 00 00 ................
0040A770 00 00 00 00 00 00 00 00 00 00 00 00 00 00 00 00 ................
0040A780 00 00 00 00 00 00 00 00 00 00 00 00 00 00 00 00 ................
0040A790 00 00 00 00 00 00 00 00 00 00 00 00 00 00 00 00 ................
0040A7A0 00 00 00 00 00 00 00 00 00 00 00 00 00 00 00 00 ................
0040A7B0 00 00 00 00 00 00 00 00 00 00 00 00 00 00 00 00 ................
0040A7C0 00 00 00 00 00 00 00 00 00 00 00 00 00 00 00 00 ................
0040A7D0 00 00 00 00 00 00 00 00 00 00 00 00 00 00 00 00 ................
0040A7E0 00 00 00 00 00 00 00 00 00 00 00 00 00 00 00 00 ................
0040A7F0 00 00 00 00 00 00 00 00 00 00 00 00 00 00 00 00 ................
0040A800 00 00 00 00 00 00 00 00 00 00 00 00 00 00 00 00 ................
0040A810 00 00 00 00 00 00 00 00 00 00 00 00 00 00 00 00 ................
0040A820 00 00 00 00 00 00 00 00 00 00 00 00 00 00 00 00 ................
0040A830 00 00 00 00 00 00 00 00 00 00 00 00 00 00 00 00 ................
0040A840 00 00 00 00 00 00 00 00 00 00 00 00 00 00 00 00 ................
0040A850 00 00 00 00 00 00 00 00 00 00 00 00 00 00 00 00 ................
0040A860 00 00 00 00 00 00 00 00 00 00 00 00 00 00 00 00 ................
0040A870 00 00 00 00 00 00 00 00 00 00 00 00 00 00 00 00 ................
0040A880 00 00 00 00 00 00 00 00 00 00 00 00 00 00 00 00 ................
0040A890 00 00 00 00 00 00 00 00 00 00 00 00 00 00 00 00 ................
0040A8A0 00 00 00 00 00 00 00 00 00 00 00 00 00 00 00 00 ................
0040A8B0 00 00 00 00 00 00 00 00 00 00 00 00 00 00 00 00 ................
0040A8C0 00 00 00 00 00 00 00 00 00 00 00 00 00 00 00 00 ................
0040A8D0 00 00 00 00 00 00 00 00 00 00 00 00 00 00 00 00 ................
0040A8E0 00 00 00 00 00 00 00 00 00 00 00 00 00 00 00 00 ................
0040A8F0 00 00 00 00 00 00 00 00 00 00 00 00 00 00 00 00 ................
0040A900 00 00 00 00 00 00 00 00 00 00 00 00 00 00 00 00 ................
0040A910 00 00 00 00 00 00 00 00 00 00 00 00 00 00 00 00 ................
0040A920 00 00 00 00 00 00 00 00 00 00 00 00 00 00 00 00 ................
0040A930 00 00 00 00 00 00 00 00 00 00 00 00 00 00 00 00 ................
0040A940 00 00 00 00 00 00 00 00 00 00 00 00 00 00 00 00 ................
0040A950 00 00 00 00 00 00 00 00 00 00 00 00 00 00 00 00 ................
0040A960 00 00 00 00 00 00 00 00 00 00 00 00 00 00 00 00 ................
0040A970 00 00 00 00 00 00 00 00 00 00 00 00 00 00 00 00 ................
0040A980 00 00 00 00 00 00 00 00 00 00 00 00 00 00 00 00 ................
0040A990 00 00 00 00 00 00 00 00 00 00 00 00 00 00 00 00 ................
0040A9A0 00 00 00 00 00 00 00 00 00 00 00 00 00 00 00 00 ................
0040A9B0 00 00 00 00 00 00 00 00 00 00 00 00 00 00 00 00 ................
0040A9C0 00 00 00 00 00 00 00 00 00 00 00 00 00 00 00 00 ................
0040A9D0 00 00 00 00 00 00 00 00 00 00 00 00 00 00 00 00 ................
0040A9E0 00 00 00 00 00 00 00 00 00 00 00 00 00 00 00 00 ................
0040A9F0 00 00 00 00 00 00 00 00 00 00 00 00 00 00 00 00 ................
0040AA00 00 00 00 00 00 00 00 00 00 00 00 00 00 00 00 00 ................
0040AA10 00 00 00 00 00 00 00 00 00 00 00 00 00 00 00 00 ................
0040AA20 00 00 00 00 00 00 00 00 00 00 00 00 00 00 00 00 ................
0040AA30 00 00 00 00 00 00 00 00 00 00 00 00 00 00 00 00 ................
0040AA40 00 00 00 00 00 00 00 00 00 00 00 00 00 00 00 00 ................
0040AA50 00 00 00 00 00 00 00 00 00 00 00 00 00 00 00 00 ................
0040AA60 00 00 00 00 00 00 00 00 00 00 00 00 00 00 00 00 ................
0040AA70 00 00 00 00 00 00 00 00 00 00 00 00 00 00 00 00 ................
0040AA80 00 00 00 00 00 00 00 00 00 00 00 00 00 00 00 00 ................
0040AA90 00 00 00 00 00 00 00 00 00 00 00 00 00 00 00 00 ................
0040AAA0 00 00 00 00 00 00 00 00 00 00 00 00 00 00 00 00 ................
0040AAB0 00 00 00 00 00 00 00 00 00 00 00 00 00 00 00 00 ................
0040AAC0 00 00 00 00 00 00 00 00 00 00 00 00 00 00 00 00 ................
0040AAD0 00 00 00 00 00 00 00 00 00 00 00 00 00 00 00 00 ................
0040AAE0 00 00 00 00 00 00 00 00 00 00 00 00 00 00 00 00 ................
0040AAF0 00 00 00 00 00 00 00 00 00 00 00 00 00 00 00 00 ................
0040AB00 00 00 00 00 00 00 00 00 00 00 00 00 00 00 00 00 ................
0040AB10 00 00 00 00 00 00 00 00 00 00 00 00 00 00 00 00 ................
0040AB20 00 00 00 00 00 00 00 00 00 00 00 00 00 00 00 00 ................
0040AB30 00 00 00 00 00 00 00 00 00 00 00 00 00 00 00 00 ................
0040AB40 00 00 00 00 00 00 00 00 00 00 00 00 00 00 00 00 ................
0040AB50 00 00 00 00 00 00 00 00 00 00 00 00 00 00 00 00 ................
0040AB60 00 00 00 00 00 00 00 00 00 00 00 00 00 00 00 00 ................
0040AB70 00 00 00 00 00 00 00 00 00 00 00 00 00 00 00 00 ................
0040AB80 00 00 00 00 00 00 00 00 00 00 00 00 00 00 00 00 ................
0040AB90 00 00 00 00 00 00 00 00 00 00 00 00 00 00 00 00 ................
0040ABA0 00 00 00 00 00 00 00 00 00 00 00 00 00 00 00 00 ................
0040ABB0 00 00 00 00 00 00 00 00 00 00 00 00 00 00 00 00 ................
0040ABC0 00 00 00 00 00 00 00 00 00 00 00 00 00 00 00 00 ................
0040ABD0 00 00 00 00 00 00 00 00 00 00 00 00 00 00 00 00 ................
0040ABE0 00 00 00 00 00 00 00 00 00 00 00 00 00 00 00 00 ................
0040ABF0 00 00 00 00 00 00 00 00 00 00 00 00 00 00 00 00 ................
0040AC00 00 00 00 00 00 00 00 00 00 00 00 00 00 00 00 00 ................
0040AC10 00 00 00 00 00 00 00 00 00 00 00 00 00 00 00 00 ................
0040AC20 00 00 00 00 00 00 00 00 00 00 00 00 00 00 00 00 ................
0040AC30 00 00 00 00 00 00 00 00 00 00 00 00 00 00 00 00 ................
0040AC40 00 00 00 00 00 00 00 00 00 00 00 00 00 00 00 00 ................
0040AC50 00 00 00 00 00 00 00 00 00 00 00 00 00 00 00 00 ................
0040AC60 00 00 00 00 00 00 00 00 00 00 00 00 00 00 00 00 ................
0040AC70 00 00 00 00 00 00 00 00 00 00 00 00 00 00 00 00 ................
0040AC80 00 00 00 00 00 00 00 00 00 00 00 00 00 00 00 00 ................
0040AC90 00 00 00 00 00 00 00 00 00 00 00 00 00 00 00 00 ................
0040ACA0 00 00 00 00 00 00 00 00 00 00 00 00 00 00 00 00 ................
0040ACB0 00 00 00 00 00 00 00 00 00 00 00 00 00 00 00 00 ................
0040ACC0 00 00 00 00 00 00 00 00 00 00 00 00 00 00 00 00 ................
0040ACD0 00 00 00 00 00 00 00 00 00 00 00 00 00 00 00 00 ................
0040ACE0 00 00 00 00 00 00 00 00 00 00 00 00 00 00 00 00 ................
0040ACF0 00 00 00 00 00 00 00 00 00 00 00 00 00 00 00 00 ................
0040AD00 00 00 00 00 00 00 00 00 00 00 00 00 00 00 00 00 ................
0040AD10 00 00 00 00 00 00 00 00 00 00 00 00 00 00 00 00 ................
0040AD20 00 00 00 00 00 00 00 00 00 00 00 00 00 00 00 00 ................
0040AD30 00 00 00 00 00 00 00 00 00 00 00 00 00 00 00 00 ................
0040AD40 00 00 00 00 00 00 00 00 00 00 00 00 00 00 00 00 ................
0040AD50 00 00 00 00 00 00 00 00 00 00 00 00 00 00 00 00 ................
0040AD60 00 00 00 00 00 00 00 00 00 00 00 00 00 00 00 00 ................
0040AD70 00 00 00 00 00 00 00 00 00 00 00 00 00 00 00 00 ................
0040AD80 00 00 00 00 00 00 00 00 00 00 00 00 00 00 00 00 ................
0040AD90 00 00 00 00 00 00 00 00 00 00 00 00 00 00 00 00 ................
0040ADA0 00 00 00 00 00 00 00 00 00 00 00 00 00 00 00 00 ................
0040ADB0 00 00 00 00 00 00 00 00 00 00 00 00 00 00 00 00 ................
0040ADC0 00 00 00 00 00 00 00 00 00 00 00 00 00 00 00 00 ................
0040ADD0 00 00 00 00 00 00 00 00 00 00 00 00 00 00 00 00 ................
0040ADE0 00 00 00 00 00 00 00 00 00 00 00 00 00 00 00 00 ................
0040ADF0 00 00 00 00 00 00 00 00 00 00 00 00 00 00 00 00 ................
0040AE00 00 00 00 00 00 00 00 00 00 00 00 00 00 00 00 00 ................
0040AE10 00 00 00 00 00 00 00 00 00 00 00 00 00 00 00 00 ................
0040AE20 00 00 00 00 00 00 00 00 00 00 00 00 00 00 00 00 ................
0040AE30 00 00 00 00 00 00 00 00 00 00 00 00 00 00 00 00 ................
0040AE40 00 00 00 00 00 00 00 00 00 00 00 00 00 00 00 00 ................
0040AE50 00 00 00 00 00 00 00 00 00 00 00 00 00 00 00 00 ................
0040AE60 00 00 00 00 00 00 00 00 00 00 00 00 00 00 00 00 ................
0040AE70 00 00 00 00 00 00 00 00 00 00 00 00 00 00 00 00 ................
0040AE80 00 00 00 00 00 00 00 00 00 00 00 00 00 00 00 00 ................
0040AE90 00 00 00 00 00 00 00 00 00 00 00 00 00 00 00 00 ................
0040AEA0 00 00 00 00 00 00 00 00 00 00 00 00 00 00 00 00 ................
0040AEB0 00 00 00 00 00 00 00 00 00 00 00 00 00 00 00 00 ................
0040AEC0 00 00 00 00 00 00 00 00 00 00 00 00 00 00 00 00 ................
0040AED0 00 00 00 00 00 00 00 00 00 00 00 00 00 00 00 00 ................
0040AEE0 00 00 00 00 00 00 00 00 00 00 00 00 00 00 00 00 ................
0040AEF0 00 00 00 00 00 00 00 00 00 00 00 00 00 00 00 00 ................
0040AF00 00 00 00 00 00 00 00 00 00 00 00 00 00 00 00 00 ................
0040AF10 00 00 00 00 00 00 00 00 00 00 00 00 00 00 00 00 ................
0040AF20 00 00 00 00 00 00 00 00 00 00 00 00 00 00 00 00 ................
0040AF30 00 00 00 00 00 00 00 00 00 00 00 00 00 00 00 00 ................
0040AF40 00 00 00 00 00 00 00 00 00 00 00 00 00 00 00 00 ................
0040AF50 00 00 00 00 00 00 00 00 00 00 00 00 00 00 00 00 ................
0040AF60 00 00 00 00 00 00 00 00 00 00 00 00 00 00 00 00 ................
0040AF70 00 00 00 00 00 00 00 00 00 00 00 00 00 00 00 00 ................
0040AF80 00 00 00 00 00 00 00 00 00 00 00 00 00 00 00 00 ................
0040AF90 00 00 00 00 00 00 00 00 00 00 00 00 00 00 00 00 ................
0040AFA0 00 00 00 00 00 00 00 00 00 00 00 00 00 00 00 00 ................
0040AFB0 00 00 00 00 00 00 00 00 00 00 00 00 00 00 00 00 ................
0040AFC0 00 00 00 00 00 00 00 00 00 00 00 00 00 00 00 00 ................
0040AFD0 00 00 00 00 00 00 00 00 00 00 00 00 00 00 00 00 ................
0040AFE0 00 00 00 00 00 00 00 00 00 00 00 00 00 00 00 00 ................
0040AFF0 00 00 00 00 00 00 00 00 00 00 00 00 00 00 00 00 ................
0040B000 00 00 00 00 00 00 00 00 00 00 00 00 00 00 00 00 ................
0040B010 00 00 00 00 00 00 00 00 00 00 00 00 00 00 00 00 ................
0040B020 00 00 00 00 00 00 00 00 00 00 00 00 00 00 00 00 ................
0040B030 00 00 00 00 00 00 00 00 00 00 00 00 00 00 00 00 ................
0040B040 00 00 00 00 00 00 00 00 00 00 00 00 00 00 00 00 ................
0040B050 00 00 00 00 00 00 00 00 00 00 00 00 00 00 00 00 ................
0040B060 00 00 00 00 00 00 00 00 00 00 00 00 00 00 00 00 ................
0040B070 00 00 00 00 00 00 00 00 00 00 00 00 00 00 00 00 ................
0040B080 00 00 00 00 00 00 00 00 00 00 00 00 00 00 00 00 ................
0040B090 00 00 00 00 00 00 00 00 00 00 00 00 00 00 00 00 ................
0040B0A0 00 00 00 00 00 00 00 00 00 00 00 00 00 00 00 00 ................
0040B0B0 00 00 00 00 00 00 00 00 00 00 00 00 00 00 00 00 ................
0040B0C0 00 00 00 00 00 00 00 00 00 00 00 00 00 00 00 00 ................
0040B0D0 00 00 00 00 00 00 00 00 00 00 00 00 00 00 00 00 ................
0040B0E0 00 00 00 00 00 00 00 00 00 00 00 00 00 00 00 00 ................
0040B0F0 00 00 00 00 00 00 00 00 00 00 00 00 00 00 00 00 ................
0040B100 00 00 00 00 00 00 00 00 00 00 00 00 00 00 00 00 ................
0040B110 00 00 00 00 00 00 00 00 00 00 00 00 00 00 00 00 ................
0040B120 00 00 00 00 00 00 00 00 00 00 00 00 00 00 00 00 ................
0040B130 00 00 00 00 00 00 00 00 00 00 00 00 00 00 00 00 ................
0040B140 00 00 00 00 00 00 00 00 00 00 00 00 00 00 00 00 ................
0040B150 00 00 00 00 00 00 00 00 00 00 00 00 00 00 00 00 ................
0040B160 00 00 00 00 00 00 00 00 00 00 00 00 00 00 00 00 ................
0040B170 00 00 00 00 00 00 00 00 00 00 00 00 00 00 00 00 ................
0040B180 00 00 00 00 00 00 00 00 00 00 00 00 00 00 00 00 ................
0040B190 00 00 00 00 00 00 00 00 00 00 00 00 00 00 00 00 ................
0040B1A0 00 00 00 00 00 00 00 00 00 00 00 00 00 00 00 00 ................
0040B1B0 00 00 00 00 00 00 00 00 00 00 00 00 00 00 00 00 ................
0040B1C0 00 00 00 00 00 00 00 00 00 00 00 00 00 00 00 00 ................
0040B1D0 00 00 00 00 00 00 00 00 00 00 00 00 00 00 00 00 ................
0040B1E0 00 00 00 00 00 00 00 00 00 00 00 00 00 00 00 00 ................
0040B1F0 00 00 00 00 00 00 00 00 00 00 00 00 00 00 00 00 ................
0040B200 00 00 00 00 00 00 00 00 00 00 00 00 00 00 00 00 ................
0040B210 00 00 00 00 00 00 00 00 00 00 00 00 00 00 00 00 ................
0040B220 00 00 00 00 00 00 00 00 00 00 00 00 00 00 00 00 ................
0040B230 00 00 00 00 00 00 00 00 00 00 00 00 00 00 00 00 ................
0040B240 00 00 00 00 00 00 00 00 00 00 00 00 00 00 00 00 ................
0040B250 00 00 00 00 00 00 00 00 00 00 00 00 00 00 00 00 ................
0040B260 00 00 00 00 00 00 00 00 00 00 00 00 00 00 00 00 ................
0040B270 00 00 00 00 00 00 00 00 00 00 00 00 00 00 00 00 ................
0040B280 00 00 00 00 00 00 00 00 00 00 00 00 00 00 00 00 ................
0040B290 00 00 00 00 00 00 00 00 00 00 00 00 00 00 00 00 ................
0040B2A0 00 00 00 00 00 00 00 00 00 00 00 00 00 00 00 00 ................
0040B2B0 00 00 00 00 00 00 00 00 00 00 00 00 00 00 00 00 ................
0040B2C0 00 00 00 00 00 00 00 00 00 00 00 00 00 00 00 00 ................
0040B2D0 00 00 00 00 00 00 00 00 00 00 00 00 00 00 00 00 ................
0040B2E0 00 00 00 00 00 00 00 00 00 00 00 00 00 00 00 00 ................
0040B2F0 00 00 00 00 00 00 00 00 00 00 00 00 00 00 00 00 ................
0040B300 00 00 00 00 00 00 00 00 00 00 00 00 00 00 00 00 ................
0040B310 00 00 00 00 00 00 00 00 00 00 00 00 00 00 00 00 ................
0040B320 00 00 00 00 00 00 00 00 00 00 00 00 00 00 00 00 ................
0040B330 00 00 00 00 00 00 00 00 00 00 00 00 00 00 00 00 ................
0040B340 00 00 00 00 00 00 00 00 00 00 00 00 00 00 00 00 ................
0040B350 00 00 00 00 00 00 00 00 00 00 00 00 00 00 00 00 ................
0040B360 00 00 00 00 00 00 00 00 00 00 00 00 00 00 00 00 ................
0040B370 00 00 00 00 00 00 00 00 00 00 00 00 00 00 00 00 ................
0040B380 00 00 00 00 00 00 00 00 00 00 00 00 00 00 00 00 ................
0040B390 00 00 00 00 00 00 00 00 00 00 00 00 00 00 00 00 ................
0040B3A0 00 00 00 00 00 00 00 00 00 00 00 00 00 00 00 00 ................
0040B3B0 00 00 00 00 00 00 00 00 00 00 00 00 00 00 00 00 ................
0040B3C0 00 00 00 00 00 00 00 00 00 00 00 00 00 00 00 00 ................
0040B3D0 00 00 00 00 00 00 00 00 00 00 00 00 00 00 00 00 ................
0040B3E0 00 00 00 00 00 00 00 00 00 00 00 00 00 00 00 00 ................
0040B3F0 00 00 00 00 00 00 00 00 00 00 00 00 00 00 00 00 ................
0040B400 00 00 00 00 00 00 00 00 00 00 00 00 00 00 00 00 ................
0040B410 00 00 00 00 00 00 00 00 00 00 00 00 00 00 00 00 ................
0040B420 00 00 00 00 00 00 00 00 00 00 00 00 00 00 00 00 ................
0040B430 00 00 00 00 00 00 00 00 00 00 00 00 00 00 00 00 ................
0040B440 00 00 00 00 00 00 00 00 00 00 00 00 00 00 00 00 ................
0040B450 00 00 00 00 00 00 00 00 00 00 00 00 00 00 00 00 ................
0040B460 00 00 00 00 00 00 00 00 00 00 00 00 00 00 00 00 ................
0040B470 00 00 00 00 00 00 00 00 00 00 00 00 00 00 00 00 ................
0040B480 00 00 00 00 00 00 00 00 00 00 00 00 00 00 00 00 ................
0040B490 00 00 00 00 00 00 00 00 00 00 00 00 00 00 00 00 ................
0040B4A0 00 00 00 00 00 00 00 00 00 00 00 00 00 00 00 00 ................
0040B4B0 00 00 00 00 00 00 00 00 00 00 00 00 00 00 00 00 ................
0040B4C0 00 00 00 00 00 00 00 00 00 00 00 00 00 00 00 00 ................
0040B4D0 00 00 00 00 00 00 00 00 00 00 00 00 00 00 00 00 ................
0040B4E0 00 00 00 00 00 00 00 00 00 00 00 00 00 00 00 00 ................
0040B4F0 00 00 00 00 00 00 00 00 00 00 00 00 00 00 00 00 ................
0040B500 00 00 00 00 00 00 00 00 00 00 00 00 00 00 00 00 ................
0040B510 00 00 00 00 00 00 00 00 00 00 00 00 00 00 00 00 ................
0040B520 00 00 00 00 00 00 00 00 00 00 00 00 00 00 00 00 ................
0040B530 00 00 00 00 00 00 00 00 00 00 00 00 00 00 00 00 ................
0040B540 00 00 00 00 00 00 00 00 00 00 00 00 00 00 00 00 ................
0040B550 00 00 00 00 00 00 00 00 00 00 00 00 00 00 00 00 ................
0040B560 00 00 00 00 00 00 00 00 00 00 00 00 00 00 00 00 ................
0040B570 00 00 00 00 00 00 00 00 00 00 00 00 00 00 00 00 ................
0040B580 00 00 00 00 00 00 00 00 00 00 00 00 00 00 00 00 ................
0040B590 00 00 00 00 00 00 00 00 00 00 00 00 00 00 00 00 ................
0040B5A0 00 00 00 00 00 00 00 00 00 00 00 00 00 00 00 00 ................
0040B5B0 00 00 00 00 00 00 00 00 00 00 00 00 00 00 00 00 ................
0040B5C0 00 00 00 00 00 00 00 00 00 00 00 00 00 00 00 00 ................
0040B5D0 00 00 00 00 00 00 00 00 00 00 00 00 00 00 00 00 ................
0040B5E0 00 00 00 00 00 00 00 00 00 00 00 00 00 00 00 00 ................
0040B5F0 00 00 00 00 00 00 00 00 00 00 00 00 00 00 00 00 ................
0040B600 00 00 00 00 00 00 00 00 00 00 00 00 00 00 00 00 ................
0040B610 00 00 00 00 00 00 00 00 00 00 00 00 00 00 00 00 ................
0040B620 00 00 00 00 00 00 00 00 00 00 00 00 00 00 00 00 ................
0040B630 00 00 00 00 00 00 00 00 00 00 00 00 00 00 00 00 ................
0040B640 00 00 00 00 00 00 00 00 00 00 00 00 00 00 00 00 ................
0040B650 00 00 00 00 00 00 00 00 00 00 00 00 00 00 00 00 ................
0040B660 00 00 00 00 00 00 00 00 00 00 00 00 00 00 00 00 ................
0040B670 00 00 00 00 00 00 00 00 00 00 00 00 00 00 00 00 ................
0040B680 00 00 00 00 00 00 00 00 00 00 00 00 00 00 00 00 ................
0040B690 00 00 00 00 00 00 00 00 00 00 00 00 00 00 00 00 ................
0040B6A0 00 00 00 00 00 00 00 00 00 00 00 00 00 00 00 00 ................
0040B6B0 00 00 00 00 00 00 00 00 00 00 00 00 00 00 00 00 ................
0040B6C0 00 00 00 00 00 00 00 00 00 00 00 00 00 00 00 00 ................
0040B6D0 00 00 00 00 00 00 00 00 00 00 00 00 00 00 00 00 ................
0040B6E0 00 00 00 00 00 00 00 00 00 00 00 00 00 00 00 00 ................
0040B6F0 00 00 00 00 00 00 00 00 00 00 00 00 00 00 00 00 ................
0040B700 00 00 00 00 00 00 00 00 00 00 00 00 00 00 00 00 ................
0040B710 00 00 00 00 00 00 00 00 00 00 00 00 00 00 00 00 ................
0040B720 00 00 00 00 00 00 00 00 00 00 00 00 00 00 00 00 ................
0040B730 00 00 00 00 00 00 00 00 00 00 00 00 00 00 00 00 ................
0040B740 00 00 00 00 00 00 00 00 00 00 00 00 00 00 00 00 ................
0040B750 00 00 00 00 00 00 00 00 00 00 00 00 00 00 00 00 ................
0040B760 00 00 00 00 00 00 00 00 00 00 00 00 00 00 00 00 ................
0040B770 00 00 00 00 00 00 00 00 00 00 00 00 00 00 00 00 ................
0040B780 00 00 00 00 00 00 00 00 00 00 00 00 00 00 00 00 ................
0040B790 00 00 00 00 00 00 00 00 00 00 00 00 00 00 00 00 ................
0040B7A0 00 00 00 00 00 00 00 00 00 00 00 00 00 00 00 00 ................
0040B7B0 00 00 00 00 00 00 00 00 00 00 00 00 00 00 00 00 ................
0040B7C0 00 00 00 00 00 00 00 00 00 00 00 00 00 00 00 00 ................
0040B7D0 00 00 00 00 00 00 00 00 00 00 00 00 00 00 00 00 ................
0040B7E0 00 00 00 00 00 00 00 00 00 00 00 00 00 00 00 00 ................
0040B7F0 00 00 00 00 00 00 00 00 00 00 00 00 00 00 00 00 ................
0040B800 00 00 00 00 00 00 00 00 00 00 00 00 00 00 00 00 ................
0040B810 00 00 00 00 00 00 00 00 00 00 00 00 00 00 00 00 ................
0040B820 00 00 00 00 00 00 00 00 00 00 00 00 00 00 00 00 ................
0040B830 00 00 00 00 00 00 00 00 00 00 00 00 00 00 00 00 ................
0040B840 00 00 00 00 00 00 00 00 00 00 00 00 00 00 00 00 ................
0040B850 00 00 00 00 00 00 00 00 00 00 00 00 00 00 00 00 ................
0040B860 00 00 00 00 00 00 00 00 00 00 00 00 00 00 00 00 ................
0040B870 00 00 00 00 00 00 00 00 00 00 00 00 00 00 00 00 ................
0040B880 00 00 00 00 00 00 00 00 00 00 00 00 00 00 00 00 ................
0040B890 00 00 00 00 00 00 00 00 00 00 00 00 00 00 00 00 ................
0040B8A0 00 00 00 00 00 00 00 00 00 00 00 00 00 00 00 00 ................
0040B8B0 00 00 00 00 00 00 00 00 00 00 00 00 00 00 00 00 ................
0040B8C0 00 00 00 00 00 00 00 00 00 00 00 00 00 00 00 00 ................
0040B8D0 00 00 00 00 00 00 00 00 00 00 00 00 00 00 00 00 ................
0040B8E0 00 00 00 00 00 00 00 00 00 00 00 00 00 00 00 00 ................
0040B8F0 00 00 00 00 00 00 00 00 00 00 00 00 00 00 00 00 ................
0040B900 00 00 00 00 00 00 00 00 00 00 00 00 00 00 00 00 ................
0040B910 00 00 00 00 00 00 00 00 00 00 00 00 00 00 00 00 ................
0040B920 00 00 00 00 00 00 00 00 00 00 00 00 00 00 00 00 ................
0040B930 00 00 00 00 00 00 00 00 00 00 00 00 00 00 00 00 ................
0040B940 00 00 00 00 00 00 00 00 00 00 00 00 00 00 00 00 ................
0040B950 00 00 00 00 00 00 00 00 00 00 00 00 00 00 00 00 ................
0040B960 00 00 00 00 00 00 00 00 00 00 00 00 00 00 00 00 ................
0040B970 00 00 00 00 00 00 00 00 00 00 00 00 00 00 00 00 ................
0040B980 00 00 00 00 00 00 00 00 00 00 00 00 00 00 00 00 ................
0040B990 00 00 00 00 00 00 00 00 00 00 00 00 00 00 00 00 ................
0040B9A0 00 00 00 00 00 00 00 00 00 00 00 00 00 00 00 00 ................
0040B9B0 00 00 00 00 00 00 00 00 00 00 00 00 00 00 00 00 ................
0040B9C0 00 00 00 00 00 00 00 00 00 00 00 00 00 00 00 00 ................
0040B9D0 00 00 00 00 00 00 00 00 00 00 00 00 00 00 00 00 ................
0040B9E0 00 00 00 00 00 00 00 00 00 00 00 00 00 00 00 00 ................
0040B9F0 00 00 00 00 00 00 00 00 00 00 00 00 00 00 00 00 ................
0040BA00 00 00 00 00 00 00 00 00 00 00 00 00 00 00 00 00 ................
0040BA10 00 00 00 00 00 00 00 00 00 00 00 00 00 00 00 00 ................
0040BA20 00 00 00 00 00 00 00 00 00 00 00 00 00 00 00 00 ................
0040BA30 00 00 00 00 00 00 00 00 00 00 00 00 00 00 00 00 ................
0040BA40 00 00 00 00 00 00 00 00 00 00 00 00 00 00 00 00 ................
0040BA50 00 00 00 00 00 00 00 00 00 00 00 00 00 00 00 00 ................
0040BA60 00 00 00 00 00 00 00 00 00 00 00 00 00 00 00 00 ................
0040BA70 00 00 00 00 00 00 00 00 00 00 00 00 00 00 00 00 ................
0040BA80 00 00 00 00 00 00 00 00 00 00 00 00 00 00 00 00 ................
0040BA90 00 00 00 00 00 00 00 00 00 00 00 00 00 00 00 00 ................
0040BAA0 00 00 00 00 00 00 00 00 00 00 00 00 00 00 00 00 ................
0040BAB0 00 00 00 00 00 00 00 00 00 00 00 00 00 00 00 00 ................
0040BAC0 00 00 00 00 00 00 00 00 00 00 00 00 00 00 00 00 ................
0040BAD0 00 00 00 00 00 00 00 00 00 00 00 00 00 00 00 00 ................
0040BAE0 00 00 00 00 00 00 00 00 00 00 00 00 00 00 00 00 ................
0040BAF0 00 00 00 00 00 00 00 00 00 00 00 00 00 00 00 00 ................
0040BB00 00 00 00 00 00 00 00 00 00 00 00 00 00 00 00 00 ................
0040BB10 00 00 00 00 00 00 00 00 00 00 00 00 00 00 00 00 ................
0040BB20 00 00 00 00 00 00 00 00 00 00 00 00 00 00 00 00 ................
0040BB30 00 00 00 00 00 00 00 00 00 00 00 00 00 00 00 00 ................
0040BB40 00 00 00 00 00 00 00 00 00 00 00 00 00 00 00 00 ................
0040BB50 00 00 00 00 00 00 00 00 00 00 00 00 00 00 00 00 ................
0040BB60 00 00 00 00 00 00 00 00 00 00 00 00 00 00 00 00 ................
0040BB70 00 00 00 00 00 00 00 00 00 00 00 00 00 00 00 00 ................
0040BB80 00 00 00 00 00 00 00 00 00 00 00 00 00 00 00 00 ................
0040BB90 00 00 00 00 00 00 00 00 00 00 00 00 00 00 00 00 ................
0040BBA0 00 00 00 00 00 00 00 00 00 00 00 00 00 00 00 00 ................
0040BBB0 00 00 00 00 00 00 00 00 00 00 00 00 00 00 00 00 ................
0040BBC0 00 00 00 00 00 00 00 00 00 00 00 00 00 00 00 00 ................
0040BBD0 00 00 00 00 00 00 00 00 00 00 00 00 00 00 00 00 ................
0040BBE0 00 00 00 00 00 00 00 00 00 00 00 00 00 00 00 00 ................
0040BBF0 00 00 00 00 00 00 00 00 00 00 00 00 00 00 00 00 ................
0040BC00 00 00 00 00 00 00 00 00 00 00 00 00 00 00 00 00 ................
0040BC10 00 00 00 00 00 00 00 00 00 00 00 00 00 00 00 00 ................
0040BC20 00 00 00 00 00 00 00 00 00 00 00 00 00 00 00 00 ................
0040BC30 00 00 00 00 00 00 00 00 00 00 00 00 00 00 00 00 ................
0040BC40 00 00 00 00 00 00 00 00 00 00 00 00 00 00 00 00 ................
0040BC50 00 00 00 00 00 00 00 00 00 00 00 00 00 00 00 00 ................
0040BC60 00 00 00 00 00 00 00 00 00 00 00 00 00 00 00 00 ................
0040BC70 00 00 00 00 00 00 00 00 00 00 00 00 00 00 00 00 ................
0040BC80 00 00 00 00 00 00 00 00 00 00 00 00 00 00 00 00 ................
0040BC90 00 00 00 00 00 00 00 00 00 00 00 00 00 00 00 00 ................
0040BCA0 00 00 00 00 00 00 00 00 00 00 00 00 00 00 00 00 ................
0040BCB0 00 00 00 00 00 00 00 00 00 00 00 00 00 00 00 00 ................
0040BCC0 00 00 00 00 00 00 00 00 00 00 00 00 00 00 00 00 ................
0040BCD0 00 00 00 00 00 00 00 00 00 00 00 00 00 00 00 00 ................
0040BCE0 00 00 00 00 00 00 00 00 00 00 00 00 00 00 00 00 ................
0040BCF0 00 00 00 00 00 00 00 00 00 00 00 00 00 00 00 00 ................
0040BD00 00 00 00 00 00 00 00 00 00 00 00 00 00 00 00 00 ................
0040BD10 00 00 00 00 00 00 00 00 00 00 00 00 00 00 00 00 ................
0040BD20 00 00 00 00 00 00 00 00 00 00 00 00 00 00 00 00 ................
0040BD30 00 00 00 00 00 00 00 00 00 00 00 00 00 00 00 00 ................
0040BD40 00 00 00 00 00 00 00 00 00 00 00 00 00 00 00 00 ................
0040BD50 00 00 00 00 00 00 00 00 00 00 00 00 00 00 00 00 ................
0040BD60 00 00 00 00 00 00 00 00 00 00 00 00 00 00 00 00 ................
0040BD70 00 00 00 00 00 00 00 00 00 00 00 00 00 00 00 00 ................
0040BD80 00 00 00 00 00 00 00 00 00 00 00 00 00 00 00 00 ................
0040BD90 00 00 00 00 00 00 00 00 00 00 00 00 00 00 00 00 ................
0040BDA0 00 00 00 00 00 00 00 00 00 00 00 00 00 00 00 00 ................
0040BDB0 00 00 00 00 00 00 00 00 00 00 00 00 00 00 00 00 ................
0040BDC0 00 00 00 00 00 00 00 00 00 00 00 00 00 00 00 00 ................
0040BDD0 00 00 00 00 00 00 00 00 00 00 00 00 00 00 00 00 ................
0040BDE0 00 00 00 00 00 00 00 00 00 00 00 00 00 00 00 00 ................
0040BDF0 00 00 00 00 00 00 00 00 00 00 00 00 00 00 00 00 ................
0040BE00 00 00 00 00 00 00 00 00 00 00 00 00 00 00 00 00 ................
0040BE10 00 00 00 00 00 00 00 00 00 00 00 00 00 00 00 00 ................
0040BE20 00 00 00 00 00 00 00 00 00 00 00 00 00 00 00 00 ................
0040BE30 00 00 00 00 00 00 00 00 00 00 00 00 00 00 00 00 ................
0040BE40 00 00 00 00 00 00 00 00 00 00 00 00 00 00 00 00 ................
0040BE50 00 00 00 00 00 00 00 00 00 00 00 00 00 00 00 00 ................
0040BE60 00 00 00 00 00 00 00 00 00 00 00 00 00 00 00 00 ................
0040BE70 00 00 00 00 00 00 00 00 00 00 00 00 00 00 00 00 ................
0040BE80 00 00 00 00 00 00 00 00 00 00 00 00 00 00 00 00 ................
0040BE90 00 00 00 00 00 00 00 00 00 00 00 00 00 00 00 00 ................
0040BEA0 00 00 00 00 00 00 00 00 00 00 00 00 00 00 00 00 ................
0040BEB0 00 00 00 00 00 00 00 00 00 00 00 00 00 00 00 00 ................
0040BEC0 00 00 00 00 00 00 00 00 00 00 00 00 00 00 00 00 ................
0040BED0 00 00 00 00 00 00 00 00 00 00 00 00 00 00 00 00 ................
0040BEE0 00 00 00 00 00 00 00 00 00 00 00 00 00 00 00 00 ................
0040BEF0 00 00 00 00 00 00 00 00 00 00 00 00 00 00 00 00 ................
0040BF00 00 00 00 00 00 00 00 00 00 00 00 00 00 00 00 00 ................
0040BF10 00 00 00 00 00 00 00 00 00 00 00 00 00 00 00 00 ................
0040BF20 00 00 00 00 00 00 00 00 00 00 00 00 00 00 00 00 ................
0040BF30 00 00 00 00 00 00 00 00 00 00 00 00 00 00 00 00 ................
0040BF40 00 00 00 00 00 00 00 00 00 00 00 00 00 00 00 00 ................
0040BF50 00 00 00 00 00 00 00 00 00 00 00 00 00 00 00 00 ................
0040BF60 00 00 00 00 00 00 00 00 00 00 00 00 00 00 00 00 ................
0040BF70 00 00 00 00 00 00 00 00 00 00 00 00 00 00 00 00 ................
0040BF80 00 00 00 00 00 00 00 00 00 00 00 00 00 00 00 00 ................
0040BF90 00 00 00 00 00 00 00 00 00 00 00 00 00 00 00 00 ................
0040BFA0 00 00 00 00 00 00 00 00 00 00 00 00 00 00 00 00 ................
0040BFB0 00 00 00 00 00 00 00 00 00 00 00 00 00 00 00 00 ................
0040BFC0 00 00 00 00 00 00 00 00 00 00 00 00 00 00 00 00 ................
0040BFD0 00 00 00 00 00 00 00 00 00 00 00 00 00 00 00 00 ................
0040BFE0 00 00 00 00 00 00 00 00 00 00 00 00 00 00 00 00 ................
0040BFF0 00 00 00 00 00 00 00 00 00 00 00 00 00 00 00 00 ................
0040C000 00 00 00 00 00 00 00 00 00 00 00 00 00 00 00 00 ................
0040C010 00 00 00 00 00 00 00 00 00 00 00 00 00 00 00 00 ................
0040C020 00 00 00 00 00 00 00 00 00 00 00 00 00 00 00 00 ................
0040C030 00 00 00 00 00 00 00 00 00 00 00 00 00 00 00 00 ................
0040C040 00 00 00 00 00 00 00 00 00 00 00 00 00 00 00 00 ................
0040C050 00 00 00 00 00 00 00 00 00 00 00 00 00 00 00 00 ................
0040C060 00 00 00 00 00 00 00 00 00 00 00 00 00 00 00 00 ................
0040C070 00 00 00 00 00 00 00 00 00 00 00 00 00 00 00 00 ................
0040C080 00 00 00 00 00 00 00 00 00 00 00 00 00 00 00 00 ................
0040C090 00 00 00 00 00 00 00 00 00 00 00 00 00 00 00 00 ................
0040C0A0 00 00 00 00 00 00 00 00 00 00 00 00 00 00 00 00 ................
0040C0B0 00 00 00 00 00 00 00 00 00 00 00 00 00 00 00 00 ................
0040C0C0 00 00 00 00 00 00 00 00 00 00 00 00 00 00 00 00 ................
0040C0D0 00 00 00 00 00 00 00 00 00 00 00 00 00 00 00 00 ................
0040C0E0 00 00 00 00 00 00 00 00 00 00 00 00 00 00 00 00 ................
0040C0F0 00 00 00 00 00 00 00 00 00 00 00 00 00 00 00 00 ................
0040C100 00 00 00 00 00 00 00 00 00 00 00 00 00 00 00 00 ................
0040C110 00 00 00 00 00 00 00 00 00 00 00 00 00 00 00 00 ................
0040C120 00 00 00 00 00 00 00 00 00 00 00 00 00 00 00 00 ................
0040C130 00 00 00 00 00 00 00 00 00 00 00 00 00 00 00 00 ................
0040C140 00 00 00 00 00 00 00 00 00 00 00 00 00 00 00 00 ................
0040C150 00 00 00 00 00 00 00 00 00 00 00 00 00 00 00 00 ................
0040C160 00 00 00 00 00 00 00 00 00 00 00 00 00 00 00 00 ................
0040C170 00 00 00 00 00 00 00 00 00 00 00 00 00 00 00 00 ................
0040C180 00 00 00 00 00 00 00 00 00 00 00 00 00 00 00 00 ................
0040C190 00 00 00 00 00 00 00 00 00 00 00 00 00 00 00 00 ................
0040C1A0 00 00 00 00 00 00 00 00 00 00 00 00 00 00 00 00 ................
0040C1B0 00 00 00 00 00 00 00 00 00 00 00 00 00 00 00 00 ................
0040C1C0 00 00 00 00 00 00 00 00 00 00 00 00 00 00 00 00 ................
0040C1D0 00 00 00 00 00 00 00 00 00 00 00 00 00 00 00 00 ................
0040C1E0 00 00 00 00 00 00 00 00 00 00 00 00 00 00 00 00 ................
0040C1F0 00 00 00 00 00 00 00 00 00 00 00 00 00 00 00 00 ................
0040C200 00 00 00 00 00 00 00 00 00 00 00 00 00 00 00 00 ................
0040C210 00 00 00 00 00 00 00 00 00 00 00 00 00 00 00 00 ................
0040C220 00 00 00 00 00 00 00 00 00 00 00 00 00 00 00 00 ................
0040C230 00 00 00 00 00 00 00 00 00 00 00 00 00 00 00 00 ................
0040C240 00 00 00 00 00 00 00 00 00 00 00 00 00 00 00 00 ................
0040C250 00 00 00 00 00 00 00 00 00 00 00 00 00 00 00 00 ................
0040C260 00 00 00 00 00 00 00 00 00 00 00 00 00 00 00 00 ................
0040C270 00 00 00 00 00 00 00 00 00 00 00 00 00 00 00 00 ................
0040C280 00 00 00 00 00 00 00 00 00 00 00 00 00 00 00 00 ................
0040C290 00 00 00 00 00 00 00 00 00 00 00 00 00 00 00 00 ................
0040C2A0 00 00 00 00 00 00 00 00 00 00 00 00 00 00 00 00 ................
0040C2B0 00 00 00 00 00 00 00 00 00 00 00 00 00 00 00 00 ................
0040C2C0 00 00 00 00 00 00 00 00 00 00 00 00 00 00 00 00 ................
0040C2D0 00 00 00 00 00 00 00 00 00 00 00 00 00 00 00 00 ................
0040C2E0 00 00 00 00 00 00 00 00 00 00 00 00 00 00 00 00 ................
0040C2F0 00 00 00 00 00 00 00 00 00 00 00 00 00 00 00 00 ................
0040C300 00 00 00 00 00 00 00 00 00 00 00 00 00 00 00 00 ................
0040C310 00 00 00 00 00 00 00 00 00 00 00 00 00 00 00 00 ................
0040C320 00 00 00 00 00 00 00 00 00 00 00 00 00 00 00 00 ................
0040C330 00 00 00 00 00 00 00 00 00 00 00 00 00 00 00 00 ................
0040C340 00 00 00 00 00 00 00 00 00 00 00 00 00 00 00 00 ................
0040C350 00 00 00 00 00 00 00 00 00 00 00 00 00 00 00 00 ................
0040C360 00 00 00 00 00 00 00 00 00 00 00 00 00 00 00 00 ................
0040C370 00 00 00 00 00 00 00 00 00 00 00 00 00 00 00 00 ................
0040C380 00 00 00 00 00 00 00 00 00 00 00 00 00 00 00 00 ................
0040C390 00 00 00 00 00 00 00 00 00 00 00 00 00 00 00 00 ................
0040C3A0 00 00 00 00 00 00 00 00 00 00 00 00 00 00 00 00 ................
0040C3B0 00 00 00 00 00 00 00 00 00 00 00 00 00 00 00 00 ................
0040C3C0 00 00 00 00 00 00 00 00 00 00 00 00 00 00 00 00 ................
0040C3D0 00 00 00 00 00 00 00 00 00 00 00 00 00 00 00 00 ................
0040C3E0 00 00 00 00 00 00 00 00 00 00 00 00 00 00 00 00 ................
0040C3F0 00 00 00 00 00 00 00 00 00 00 00 00 00 00 00 00 ................
0040C400 00 00 00 00 00 00 00 00 00 00 00 00 00 00 00 00 ................
0040C410 00 00 00 00 00 00 00 00 00 00 00 00 00 00 00 00 ................
0040C420 00 00 00 00 00 00 00 00 00 00 00 00 00 00 00 00 ................
0040C430 00 00 00 00 00 00 00 00 00 00 00 00 00 00 00 00 ................
0040C440 00 00 00 00 00 00 00 00 00 00 00 00 00 00 00 00 ................
0040C450 00 00 00 00 00 00 00 00 00 00 00 00 00 00 00 00 ................
0040C460 00 00 00 00 00 00 00 00 00 00 00 00 00 00 00 00 ................
0040C470 00 00 00 00 00 00 00 00 00 00 00 00 00 00 00 00 ................
0040C480 00 00 00 00 00 00 00 00 00 00 00 00 00 00 00 00 ................
0040C490 00 00 00 00 00 00 00 00 00 00 00 00 00 00 00 00 ................
0040C4A0 00 00 00 00 00 00 00 00 00 00 00 00 00 00 00 00 ................
0040C4B0 00 00 00 00 00 00 00 00 00 00 00 00 00 00 00 00 ................
0040C4C0 00 00 00 00 00 00 00 00 00 00 00 00 00 00 00 00 ................
0040C4D0 00 00 00 00 00 00 00 00 00 00 00 00 00 00 00 00 ................
0040C4E0 00 00 00 00 00 00 00 00 00 00 00 00 00 00 00 00 ................
0040C4F0 00 00 00 00 00 00 00 00 00 00 00 00 00 00 00 00 ................
0040C500 00 00 00 00 00 00 00 00 00 00 00 00 00 00 00 00 ................
0040C510 00 00 00 00 00 00 00 00 00 00 00 00 00 00 00 00 ................
0040C520 00 00 00 00 00 00 00 00 00 00 00 00 00 00 00 00 ................
0040C530 00 00 00 00 00 00 00 00 00 00 00 00 00 00 00 00 ................
0040C540 00 00 00 00 00 00 00 00 00 00 00 00 00 00 00 00 ................
0040C550 00 00 00 00 00 00 00 00 00 00 00 00 00 00 00 00 ................
0040C560 00 00 00 00 00 00 00 00 00 00 00 00 00 00 00 00 ................
0040C570 00 00 00 00 00 00 00 00 00 00 00 00 00 00 00 00 ................
0040C580 00 00 00 00 00 00 00 00 00 00 00 00 00 00 00 00 ................
0040C590 00 00 00 00 00 00 00 00 00 00 00 00 00 00 00 00 ................
0040C5A0 00 00 00 00 00 00 00 00 00 00 00 00 00 00 00 00 ................
0040C5B0 00 00 00 00 00 00 00 00 00 00 00 00 00 00 00 00 ................
0040C5C0 00 00 00 00 00 00 00 00 00 00 00 00 00 00 00 00 ................
0040C5D0 00 00 00 00 00 00 00 00 00 00 00 00 00 00 00 00 ................
0040C5E0 00 00 00 00 00 00 00 00 00 00 00 00 00 00 00 00 ................
0040C5F0 00 00 00 00 00 00 00 00 00 00 00 00 00 00 00 00 ................
0040C600 00 00 00 00 00 00 00 00 00 00 00 00 00 00 00 00 ................
0040C610 00 00 00 00 00 00 00 00 00 00 00 00 00 00 00 00 ................
0040C620 00 00 00 00 00 00 00 00 00 00 00 00 00 00 00 00 ................
0040C630 00 00 00 00 00 00 00 00 00 00 00 00 00 00 00 00 ................
0040C640 00 00 00 00 00 00 00 00 00 00 00 00 00 00 00 00 ................
0040C650 00 00 00 00 00 00 00 00 00 00 00 00 00 00 00 00 ................
0040C660 00 00 00 00 00 00 00 00 00 00 00 00 00 00 00 00 ................
0040C670 00 00 00 00 00 00 00 00 00 00 00 00 00 00 00 00 ................
0040C680 00 00 00 00 00 00 00 00 00 00 00 00 00 00 00 00 ................
0040C690 00 00 00 00 00 00 00 00 00 00 00 00 00 00 00 00 ................
0040C6A0 00 00 00 00 00 00 00 00 00 00 00 00 00 00 00 00 ................
0040C6B0 00 00 00 00 00 00 00 00 00 00 00 00 00 00 00 00 ................
0040C6C0 00 00 00 00 00 00 00 00 00 00 00 00 00 00 00 00 ................
0040C6D0 00 00 00 00 00 00 00 00 00 00 00 00 00 00 00 00 ................
0040C6E0 00 00 00 00 00 00 00 00 00 00 00 00 00 00 00 00 ................
0040C6F0 00 00 00 00 00 00 00 00 00 00 00 00 00 00 00 00 ................
0040C700 00 00 00 00 00 00 00 00 00 00 00 00 00 00 00 00 ................
0040C710 00 00 00 00 00 00 00 00 00 00 00 00 00 00 00 00 ................
0040C720 00 00 00 00 00 00 00 00 00 00 00 00 00 00 00 00 ................
0040C730 00 00 00 00 00 00 00 00 00 00 00 00 00 00 00 00 ................
0040C740 00 00 00 00 00 00 00 00 00 00 00 00 00 00 00 00 ................
0040C750 00 00 00 00 00 00 00 00 00 00 00 00 00 00 00 00 ................
0040C760 00 00 00 00 00 00 00 00 00 00 00 00 00 00 00 00 ................
0040C770 00 00 00 00 00 00 00 00 00 00 00 00 00 00 00 00 ................
0040C780 00 00 00 00 00 00 00 00 00 00 00 00 00 00 00 00 ................
0040C790 00 00 00 00 00 00 00 00 00 00 00 00 00 00 00 00 ................
0040C7A0 00 00 00 00 00 00 00 00 00 00 00 00 00 00 00 00 ................
0040C7B0 00 00 00 00 00 00 00 00 00 00 00 00 00 00 00 00 ................
0040C7C0 00 00 00 00 00 00 00 00 00 00 00 00 00 00 00 00 ................
0040C7D0 00 00 00 00 00 00 00 00 00 00 00 00 00 00 00 00 ................
0040C7E0 00 00 00 00 00 00 00 00 00 00 00 00 00 00 00 00 ................
0040C7F0 00 00 00 00 00 00 00 00 00 00 00 00 00 00 00 00 ................
0040C800 00 00 00 00 00 00 00 00 00 00 00 00 00 00 00 00 ................
0040C810 00 00 00 00 00 00 00 00 00 00 00 00 00 00 00 00 ................
0040C820 00 00 00 00 00 00 00 00 00 00 00 00 00 00 00 00 ................
0040C830 00 00 00 00 00 00 00 00 00 00 00 00 00 00 00 00 ................
0040C840 00 00 00 00 00 00 00 00 00 00 00 00 00 00 00 00 ................
0040C850 00 00 00 00 00 00 00 00 00 00 00 00 00 00 00 00 ................
0040C860 00 00 00 00 00 00 00 00 00 00 00 00 00 00 00 00 ................
0040C870 00 00 00 00 00 00 00 00 00 00 00 00 00 00 00 00 ................
0040C880 00 00 00 00 00 00 00 00 00 00 00 00 00 00 00 00 ................
0040C890 00 00 00 00 00 00 00 00 00 00 00 00 00 00 00 00 ................
0040C8A0 00 00 00 00 00 00 00 00 00 00 00 00 00 00 00 00 ................
0040C8B0 00 00 00 00 00 00 00 00 00 00 00 00 00 00 00 00 ................
0040C8C0 00 00 00 00 00 00 00 00 00 00 00 00 00 00 00 00 ................
0040C8D0 00 00 00 00 00 00 00 00 00 00 00 00 00 00 00 00 ................
0040C8E0 00 00 00 00 00 00 00 00 00 00 00 00 00 00 00 00 ................
0040C8F0 00 00 00 00 00 00 00 00 00 00 00 00 00 00 00 00 ................
0040C900 00 00 00 00 00 00 00 00 00 00 00 00 00 00 00 00 ................
0040C910 00 00 00 00 00 00 00 00 00 00 00 00 00 00 00 00 ................
0040C920 00 00 00 00 00 00 00 00 00 00 00 00 00 00 00 00 ................
0040C930 00 00 00 00 00 00 00 00 00 00 00 00 00 00 00 00 ................
0040C940 00 00 00 00 00 00 00 00 00 00 00 00 00 00 00 00 ................
0040C950 00 00 00 00 00 00 00 00 00 00 00 00 00 00 00 00 ................
0040C960 00 00 00 00 00 00 00 00 00 00 00 00 00 00 00 00 ................
0040C970 00 00 00 00 00 00 00 00 00 00 00 00 00 00 00 00 ................
0040C980 00 00 00 00 00 00 00 00 00 00 00 00 00 00 00 00 ................
0040C990 00 00 00 00 00 00 00 00 00 00 00 00 00 00 00 00 ................
0040C9A0 00 00 00 00 00 00 00 00 00 00 00 00 00 00 00 00 ................
0040C9B0 00 00 00 00 00 00 00 00 00 00 00 00 00 00 00 00 ................
0040C9C0 00 00 00 00 00 00 00 00 00 00 00 00 00 00 00 00 ................
0040C9D0 00 00 00 00 00 00 00 00 00 00 00 00 00 00 00 00 ................
0040C9E0 00 00 00 00 00 00 00 00 00 00 00 00 00 00 00 00 ................
0040C9F0 00 00 00 00 00 00 00 00 00 00 00 00 00 00 00 00 ................
0040CA00 00 00 00 00 00 00 00 00 00 00 00 00 00 00 00 00 ................
0040CA10 00 00 00 00 00 00 00 00 00 00 00 00 00 00 00 00 ................
0040CA20 00 00 00 00 00 00 00 00 00 00 00 00 00 00 00 00 ................
0040CA30 00 00 00 00 00 00 00 00 00 00 00 00 00 00 00 00 ................
0040CA40 00 00 00 00 00 00 00 00 00 00 00 00 00 00 00 00 ................
0040CA50 00 00 00 00 00 00 00 00 00 00 00 00 00 00 00 00 ................
0040CA60 00 00 00 00 00 00 00 00 00 00 00 00 00 00 00 00 ................
0040CA70 00 00 00 00 00 00 00 00 00 00 00 00 00 00 00 00 ................
0040CA80 00 00 00 00 00 00 00 00 00 00 00 00 00 00 00 00 ................
0040CA90 00 00 00 00 00 00 00 00 00 00 00 00 00 00 00 00 ................
0040CAA0 00 00 00 00 00 00 00 00 00 00 00 00 00 00 00 00 ................
0040CAB0 00 00 00 00 00 00 00 00 00 00 00 00 00 00 00 00 ................
0040CAC0 00 00 00 00 00 00 00 00 00 00 00 00 00 00 00 00 ................
0040CAD0 00 00 00 00 00 00 00 00 00 00 00 00 00 00 00 00 ................
0040CAE0 00 00 00 00 00 00 00 00 00 00 00 00 00 00 00 00 ................
0040CAF0 00 00 00 00 00 00 00 00 00 00 00 00 00 00 00 00 ................
0040CB00 00 00 00 00 00 00 00 00 00 00 00 00 00 00 00 00 ................
0040CB10 00 00 00 00 00 00 00 00 00 00 00 00 00 00 00 00 ................
0040CB20 00 00 00 00 00 00 00 00 00 00 00 00 00 00 00 00 ................
0040CB30 00 00 00 00 00 00 00 00 00 00 00 00 00 00 00 00 ................
0040CB40 00 00 00 00 00 00 00 00 00 00 00 00 00 00 00 00 ................
0040CB50 00 00 00 00 00 00 00 00 00 00 00 00 00 00 00 00 ................
0040CB60 00 00 00 00 00 00 00 00 00 00 00 00 00 00 00 00 ................
0040CB70 00 00 00 00 00 00 00 00 00 00 00 00 00 00 00 00 ................
0040CB80 00 00 00 00 00 00 00 00 00 00 00 00 00 00 00 00 ................
0040CB90 00 00 00 00 00 00 00 00 00 00 00 00 00 00 00 00 ................
0040CBA0 00 00 00 00 00 00 00 00 00 00 00 00 00 00 00 00 ................
0040CBB0 00 00 00 00 00 00 00 00 00 00 00 00 00 00 00 00 ................
0040CBC0 00 00 00 00 00 00 00 00 00 00 00 00 00 00 00 00 ................
0040CBD0 00 00 00 00 00 00 00 00 00 00 00 00 00 00 00 00 ................
0040CBE0 00 00 00 00 00 00 00 00 00 00 00 00 00 00 00 00 ................
0040CBF0 00 00 00 00 00 00 00 00 00 00 00 00 00 00 00 00 ................
0040CC00 00 00 00 00 00 00 00 00 00 00 00 00 00 00 00 00 ................
0040CC10 00 00 00 00 00 00 00 00 00 00 00 00 00 00 00 00 ................
0040CC20 00 00 00 00 00 00 00 00 00 00 00 00 00 00 00 00 ................
0040CC30 00 00 00 00 00 00 00 00 00 00 00 00 00 00 00 00 ................
0040CC40 00 00 00 00 00 00 00 00 00 00 00 00 00 00 00 00 ................
0040CC50 00 00 00 00 00 00 00 00 00 00 00 00 00 00 00 00 ................
0040CC60 00 00 00 00 00 00 00 00 00 00 00 00 00 00 00 00 ................
0040CC70 00 00 00 00 00 00 00 00 00 00 00 00 00 00 00 00 ................
0040CC80 00 00 00 00 00 00 00 00 00 00 00 00 00 00 00 00 ................
0040CC90 00 00 00 00 00 00 00 00 00 00 00 00 00 00 00 00 ................
0040CCA0 00 00 00 00 00 00 00 00 00 00 00 00 00 00 00 00 ................
0040CCB0 00 00 00 00 00 00 00 00 00 00 00 00 00 00 00 00 ................
0040CCC0 00 00 00 00 00 00 00 00 00 00 00 00 00 00 00 00 ................
0040CCD0 00 00 00 00 00 00 00 00 00 00 00 00 00 00 00 00 ................
0040CCE0 00 00 00 00 00 00 00 00 00 00 00 00 00 00 00 00 ................
0040CCF0 00 00 00 00 00 00 00 00 00 00 00 00 00 00 00 00 ................
0040CD00 00 00 00 00 00 00 00 00 00 00 00 00 00 00 00 00 ................
0040CD10 00 00 00 00 00 00 00 00 00 00 00 00 00 00 00 00 ................
0040CD20 00 00 00 00 00 00 00 00 00 00 00 00 00 00 00 00 ................
0040CD30 00 00 00 00 00 00 00 00 00 00 00 00 00 00 00 00 ................
0040CD40 00 00 00 00 00 00 00 00 00 00 00 00 00 00 00 00 ................
0040CD50 00 00 00 00 00 00 00 00 00 00 00 00 00 00 00 00 ................
0040CD60 00 00 00 00 00 00 00 00 00 00 00 00 00 00 00 00 ................
0040CD70 00 00 00 00 00 00 00 00 00 00 00 00 00 00 00 00 ................
0040CD80 00 00 00 00 00 00 00 00 00 00 00 00 00 00 00 00 ................
0040CD90 00 00 00 00 00 00 00 00 00 00 00 00 00 00 00 00 ................
0040CDA0 00 00 00 00 00 00 00 00 00 00 00 00 00 00 00 00 ................
0040CDB0 00 00 00 00 00 00 00 00 00 00 00 00 00 00 00 00 ................
0040CDC0 00 00 00 00 00 00 00 00 00 00 00 00 00 00 00 00 ................
0040CDD0 00 00 00 00 00 00 00 00 00 00 00 00 00 00 00 00 ................
0040CDE0 00 00 00 00 00 00 00 00 00 00 00 00 00 00 00 00 ................
0040CDF0 00 00 00 00 00 00 00 00 00 00 00 00 00 00 00 00 ................
0040CE00 00 00 00 00 00 00 00 00 00 00 00 00 00 00 00 00 ................
0040CE10 00 00 00 00 00 00 00 00 00 00 00 00 00 00 00 00 ................
0040CE20 00 00 00 00 00 00 00 00 00 00 00 00 00 00 00 00 ................
0040CE30 00 00 00 00 00 00 00 00 00 00 00 00 00 00 00 00 ................
0040CE40 00 00 00 00 00 00 00 00 00 00 00 00 00 00 00 00 ................
0040CE50 00 00 00 00 00 00 00 00 00 00 00 00 00 00 00 00 ................
0040CE60 00 00 00 00 00 00 00 00 00 00 00 00 00 00 00 00 ................
0040CE70 00 00 00 00 00 00 00 00 00 00 00 00 00 00 00 00 ................
0040CE80 00 00 00 00 00 00 00 00 00 00 00 00 00 00 00 00 ................
0040CE90 00 00 00 00 00 00 00 00 00 00 00 00 00 00 00 00 ................
0040CEA0 00 00 00 00 00 00 00 00 00 00 00 00 00 00 00 00 ................
0040CEB0 00 00 00 00 00 00 00 00 00 00 00 00 00 00 00 00 ................
0040CEC0 00 00 00 00 00 00 00 00 00 00 00 00 00 00 00 00 ................
0040CED0 00 00 00 00 00 00 00 00 00 00 00 00 00 00 00 00 ................
0040CEE0 00 00 00 00 00 00 00 00 00 00 00 00 00 00 00 00 ................
0040CEF0 00 00 00 00 00 00 00 00 00 00 00 00 00 00 00 00 ................
0040CF00 00 00 00 00 00 00 00 00 00 00 00 00 00 00 00 00 ................
0040CF10 00 00 00 00 00 00 00 00 00 00 00 00 00 00 00 00 ................
0040CF20 00 00 00 00 00 00 00 00 00 00 00 00 00 00 00 00 ................
0040CF30 00 00 00 00 00 00 00 00 00 00 00 00 00 00 00 00 ................
0040CF40 00 00 00 00 00 00 00 00 00 00 00 00 00 00 00 00 ................
0040CF50 00 00 00 00 00 00 00 00 00 00 00 00 00 00 00 00 ................
0040CF60 00 00 00 00 00 00 00 00 00 00 00 00 00 00 00 00 ................
0040CF70 00 00 00 00 00 00 00 00 00 00 00 00 00 00 00 00 ................
0040CF80 00 00 00 00 00 00 00 00 00 00 00 00 00 00 00 00 ................
0040CF90 00 00 00 00 00 00 00 00 00 00 00 00 00 00 00 00 ................
0040CFA0 00 00 00 00 00 00 00 00 00 00 00 00 00 00 00 00 ................
0040CFB0 00 00 00 00 00 00 00 00 00 00 00 00 00 00 00 00 ................
0040CFC0 00 00 00 00 00 00 00 00 00 00 00 00 00 00 00 00 ................
0040CFD0 00 00 00 00 00 00 00 00 00 00 00 00 00 00 00 00 ................
0040CFE0 00 00 00 00 00 00 00 00 00 00 00 00 00 00 00 00 ................
0040CFF0 00 00 00 00 00 00 00 00 00 00 00 00 00 00 00 00 ................
0040D000 00 00 00 00 00 00 00 00 00 00 00 00 00 00 00 00 ................
0040D010 00 00 00 00 00 00 00 00 00 00 00 00 00 00 00 00 ................
0040D020 00 00 00 00 00 00 00 00 00 00 00 00 00 00 00 00 ................
0040D030 00 00 00 00 00 00 00 00 00 00 00 00 00 00 00 00 ................
0040D040 00 00 00 00 00 00 00 00 00 00 00 00 00 00 00 00 ................
0040D050 00 00 00 00 00 00 00 00 00 00 00 00 00 00 00 00 ................
0040D060 00 00 00 00 00 00 00 00 00 00 00 00 00 00 00 00 ................
0040D070 00 00 00 00 00 00 00 00 00 00 00 00 00 00 00 00 ................
0040D080 00 00 00 00 00 00 00 00 00 00 00 00 00 00 00 00 ................
0040D090 00 00 00 00 00 00 00 00 00 00 00 00 00 00 00 00 ................
0040D0A0 00 00 00 00 00 00 00 00 00 00 00 00 00 00 00 00 ................
0040D0B0 00 00 00 00 00 00 00 00 00 00 00 00 00 00 00 00 ................
0040D0C0 00 00 00 00 00 00 00 00 00 00 00 00 00 00 00 00 ................
0040D0D0 00 00 00 00 00 00 00 00 00 00 00 00 00 00 00 00 ................
0040D0E0 00 00 00 00 00 00 00 00 00 00 00 00 00 00 00 00 ................
0040D0F0 00 00 00 00 00 00 00 00 00 00 00 00 00 00 00 00 ................
0040D100 00 00 00 00 00 00 00 00 00 00 00 00 00 00 00 00 ................
0040D110 00 00 00 00 00 00 00 00 00 00 00 00 00 00 00 00 ................
0040D120 00 00 00 00 00 00 00 00 00 00 00 00 00 00 00 00 ................
0040D130 00 00 00 00 00 00 00 00 00 00 00 00 00 00 00 00 ................
0040D140 00 00 00 00 00 00 00 00 00 00 00 00 00 00 00 00 ................
0040D150 00 00 00 00 00 00 00 00 00 00 00 00 00 00 00 00 ................
0040D160 00 00 00 00 00 00 00 00 00 00 00 00 00 00 00 00 ................
0040D170 00 00 00 00 00 00 00 00 00 00 00 00 00 00 00 00 ................
0040D180 00 00 00 00 00 00 00 00 00 00 00 00 00 00 00 00 ................
0040D190 00 00 00 00 00 00 00 00 00 00 00 00 00 00 00 00 ................
0040D1A0 00 00 00 00 00 00 00 00 00 00 00 00 00 00 00 00 ................
0040D1B0 00 00 00 00 00 00 00 00 00 00 00 00 00 00 00 00 ................
0040D1C0 00 00 00 00 00 00 00 00 00 00 00 00 00 00 00 00 ................
0040D1D0 00 00 00 00 00 00 00 00 00 00 00 00 00 00 00 00 ................
0040D1E0 00 00 00 00 00 00 00 00 00 00 00 00 00 00 00 00 ................
0040D1F0 00 00 00 00 00 00 00 00 00 00 00 00 00 00 00 00 ................
0040D200 00 00 00 00 00 00 00 00 00 00 00 00 00 00 00 00 ................
0040D210 00 00 00 00 00 00 00 00 00 00 00 00 00 00 00 00 ................
0040D220 00 00 00 00 00 00 00 00 00 00 00 00 00 00 00 00 ................
0040D230 00 00 00 00 00 00 00 00 00 00 00 00 00 00 00 00 ................
0040D240 00 00 00 00 00 00 00 00 00 00 00 00 00 00 00 00 ................
0040D250 00 00 00 00 00 00 00 00 00 00 00 00 00 00 00 00 ................
0040D260 00 00 00 00 00 00 00 00 00 00 00 00 00 00 00 00 ................
0040D270 00 00 00 00 00 00 00 00 00 00 00 00 00 00 00 00 ................
0040D280 00 00 00 00 00 00 00 00 00 00 00 00 00 00 00 00 ................
0040D290 00 00 00 00 00 00 00 00 00 00 00 00 00 00 00 00 ................
0040D2A0 00 00 00 00 00 00 00 00 00 00 00 00 00 00 00 00 ................
0040D2B0 00 00 00 00 00 00 00 00 00 00 00 00 00 00 00 00 ................
0040D2C0 00 00 00 00 00 00 00 00 00 00 00 00 00 00 00 00 ................
0040D2D0 00 00 00 00 00 00 00 00 00 00 00 00 00 00 00 00 ................
0040D2E0 00 00 00 00 00 00 00 00 00 00 00 00 00 00 00 00 ................
0040D2F0 00 00 00 00 00 00 00 00 00 00 00 00 00 00 00 00 ................
0040D300 00 00 00 00 00 00 00 00 00 00 00 00 00 00 00 00 ................
0040D310 00 00 00 00 00 00 00 00 00 00 00 00 00 00 00 00 ................
0040D320 00 00 00 00 00 00 00 00 00 00 00 00 00 00 00 00 ................
0040D330 00 00 00 00 00 00 00 00 00 00 00 00 00 00 00 00 ................
0040D340 00 00 00 00 00 00 00 00 00 00 00 00 00 00 00 00 ................
0040D350 00 00 00 00 00 00 00 00 00 00 00 00 00 00 00 00 ................
0040D360 00 00 00 00 00 00 00 00 00 00 00 00 00 00 00 00 ................
0040D370 00 00 00 00 00 00 00 00 00 00 00 00 00 00 00 00 ................
0040D380 00 00 00 00 00 00 00 00 00 00 00 00 00 00 00 00 ................
0040D390 00 00 00 00 00 00 00 00 00 00 00 00 00 00 00 00 ................
0040D3A0 00 00 00 00 00 00 00 00 00 00 00 00 00 00 00 00 ................
0040D3B0 00 00 00 00 00 00 00 00 00 00 00 00 00 00 00 00 ................
0040D3C0 00 00 00 00 00 00 00 00 00 00 00 00 00 00 00 00 ................
0040D3D0 00 00 00 00 00 00 00 00 00 00 00 00 00 00 00 00 ................
0040D3E0 00 00 00 00 00 00 00 00 00 00 00 00 00 00 00 00 ................
0040D3F0 00 00 00 00 00 00 00 00 00 00 00 00 00 00 00 00 ................
0040D400 00 00 00 00 00 00 00 00 00 00 00 00 00 00 00 00 ................
0040D410 00 00 00 00 00 00 00 00 00 00 00 00 00 00 00 00 ................
0040D420 00 00 00 00 00 00 00 00 00 00 00 00 00 00 00 00 ................
0040D430 00 00 00 00 00 00 00 00 00 00 00 00 00 00 00 00 ................
0040D440 00 00 00 00 00 00 00 00 00 00 00 00 00 00 00 00 ................
0040D450 00 00 00 00 00 00 00 00 00 00 00 00 00 00 00 00 ................
0040D460 00 00 00 00 00 00 00 00 00 00 00 00 00 00 00 00 ................
0040D470 00 00 00 00 00 00 00 00 00 00 00 00 00 00 00 00 ................
0040D480 00 00 00 00 00 00 00 00 00 00 00 00 00 00 00 00 ................
0040D490 00 00 00 00 00 00 00 00 00 00 00 00 00 00 00 00 ................
0040D4A0 00 00 00 00 00 00 00 00 00 00 00 00 00 00 00 00 ................
0040D4B0 00 00 00 00 00 00 00 00 00 00 00 00 00 00 00 00 ................
0040D4C0 00 00 00 00 00 00 00 00 00 00 00 00 00 00 00 00 ................
0040D4D0 00 00 00 00 00 00 00 00 00 00 00 00 00 00 00 00 ................
0040D4E0 00 00 00 00 00 00 00 00 00 00 00 00 00 00 00 00 ................
0040D4F0 00 00 00 00 00 00 00 00 00 00 00 00 00 00 00 00 ................
0040D500 00 00 00 00 00 00 00 00 00 00 00 00 00 00 00 00 ................
0040D510 00 00 00 00 00 00 00 00 00 00 00 00 00 00 00 00 ................
0040D520 00 00 00 00 00 00 00 00 00 00 00 00 00 00 00 00 ................
0040D530 00 00 00 00 00 00 00 00 00 00 00 00 00 00 00 00 ................
0040D540 00 00 00 00 00 00 00 00 00 00 00 00 00 00 00 00 ................
0040D550 00 00 00 00 00 00 00 00 00 00 00 00 00 00 00 00 ................
0040D560 00 00 00 00 00 00 00 00 00 00 00 00 00 00 00 00 ................
0040D570 00 00 00 00 00 00 00 00 00 00 00 00 00 00 00 00 ................
0040D580 00 00 00 00 00 00 00 00 00 00 00 00 00 00 00 00 ................
0040D590 00 00 00 00 00 00 00 00 00 00 00 00 00 00 00 00 ................
0040D5A0 00 00 00 00 00 00 00 00 00 00 00 00 00 00 00 00 ................
0040D5B0 00 00 00 00 00 00 00 00 00 00 00 00 00 00 00 00 ................
0040D5C0 00 00 00 00 00 00 00 00 00 00 00 00 00 00 00 00 ................
0040D5D0 00 00 00 00 00 00 00 00 00 00 00 00 00 00 00 00 ................
0040D5E0 00 00 00 00 00 00 00 00 00 00 00 00 00 00 00 00 ................
0040D5F0 00 00 00 00 00 00 00 00 00 00 00 00 00 00 00 00 ................
0040D600 00 00 00 00 00 00 00 00 00 00 00 00 00 00 00 00 ................
0040D610 00 00 00 00 00 00 00 00 00 00 00 00 00 00 00 00 ................
0040D620 00 00 00 00 00 00 00 00 00 00 00 00 00 00 00 00 ................
0040D630 00 00 00 00 00 00 00 00 00 00 00 00 00 00 00 00 ................
0040D640 00 00 00 00 00 00 00 00 00 00 00 00 00 00 00 00 ................
0040D650 00 00 00 00 00 00 00 00 00 00 00 00 00 00 00 00 ................
0040D660 00 00 00 00 00 00 00 00 00 00 00 00 00 00 00 00 ................
0040D670 00 00 00 00 00 00 00 00 00 00 00 00 00 00 00 00 ................
0040D680 00 00 00 00 00 00 00 00 00 00 00 00 00 00 00 00 ................
0040D690 00 00 00 00 00 00 00 00 00 00 00 00 00 00 00 00 ................
0040D6A0 00 00 00 00 00 00 00 00 00 00 00 00 00 00 00 00 ................
0040D6B0 00 00 00 00 00 00 00 00 00 00 00 00 00 00 00 00 ................
0040D6C0 00 00 00 00 00 00 00 00 00 00 00 00 00 00 00 00 ................
0040D6D0 00 00 00 00 00 00 00 00 00 00 00 00 00 00 00 00 ................
0040D6E0 00 00 00 00 00 00 00 00 00 00 00 00 00 00 00 00 ................
0040D6F0 00 00 00 00 00 00 00 00 00 00 00 00 00 00 00 00 ................
0040D700 00 00 00 00 00 00 00 00 00 00 00 00 00 00 00 00 ................
0040D710 00 00 00 00 00 00 00 00 00 00 00 00 00 00 00 00 ................
0040D720 00 00 00 00 00 00 00 00 00 00 00 00 00 00 00 00 ................
0040D730 00 00 00 00 00 00 00 00 00 00 00 00 00 00 00 00 ................
0040D740 00 00 00 00 00 00 00 00 00 00 00 00 00 00 00 00 ................
0040D750 00 00 00 00 00 00 00 00 00 00 00 00 00 00 00 00 ................
0040D760 00 00 00 00 00 00 00 00 00 00 00 00 00 00 00 00 ................
0040D770 00 00 00 00 00 00 00 00 00 00 00 00 00 00 00 00 ................
0040D780 00 00 00 00 00 00 00 00 00 00 00 00 00 00 00 00 ................
0040D790 00 00 00 00 00 00 00 00 00 00 00 00 00 00 00 00 ................
0040D7A0 00 00 00 00 00 00 00 00 00 00 00 00 00 00 00 00 ................
0040D7B0 00 00 00 00 00 00 00 00 00 00 00 00 00 00 00 00 ................
0040D7C0 00 00 00 00 00 00 00 00 00 00 00 00 00 00 00 00 ................
0040D7D0 00 00 00 00 00 00 00 00 00 00 00 00 00 00 00 00 ................
0040D7E0 00 00 00 00 00 00 00 00 00 00 00 00 00 00 00 00 ................
0040D7F0 00 00 00 00 00 00 00 00 00 00 00 00 00 00 00 00 ................
0040D800 00 00 00 00 00 00 00 00 00 00 00 00 00 00 00 00 ................
0040D810 00 00 00 00 00 00 00 00 00 00 00 00 00 00 00 00 ................
0040D820 00 00 00 00 00 00 00 00 00 00 00 00 00 00 00 00 ................
0040D830 00 00 00 00 00 00 00 00 00 00 00 00 00 00 00 00 ................
0040D840 00 00 00 00 00 00 00 00 00 00 00 00 00 00 00 00 ................
0040D850 00 00 00 00 00 00 00 00 00 00 00 00 00 00 00 00 ................
0040D860 00 00 00 00 00 00 00 00 00 00 00 00 00 00 00 00 ................
0040D870 00 00 00 00 00 00 00 00 00 00 00 00 00 00 00 00 ................
0040D880 00 00 00 00 00 00 00 00 00 00 00 00 00 00 00 00 ................
0040D890 00 00 00 00 00 00 00 00 00 00 00 00 00 00 00 00 ................
0040D8A0 00 00 00 00 00 00 00 00 00 00 00 00 00 00 00 00 ................
0040D8B0 00 00 00 00 00 00 00 00 00 00 00 00 00 00 00 00 ................
0040D8C0 00 00 00 00 00 00 00 00 00 00 00 00 00 00 00 00 ................
0040D8D0 00 00 00 00 00 00 00 00 00 00 00 00 00 00 00 00 ................
0040D8E0 00 00 00 00 00 00 00 00 00 00 00 00 00 00 00 00 ................
0040D8F0 00 00 00 00 00 00 00 00 00 00 00 00 00 00 00 00 ................
0040D900 00 00 00 00 00 00 00 00 00 00 00 00 00 00 00 00 ................
0040D910 00 00 00 00 00 00 00 00 00 00 00 00 00 00 00 00 ................
0040D920 00 00 00 00 00 00 00 00 00 00 00 00 00 00 00 00 ................
0040D930 00 00 00 00 00 00 00 00 00 00 00 00 00 00 00 00 ................
0040D940 00 00 00 00 00 00 00 00 00 00 00 00 00 00 00 00 ................
0040D950 00 00 00 00 00 00 00 00 00 00 00 00 00 00 00 00 ................
0040D960 00 00 00 00 00 00 00 00 00 00 00 00 00 00 00 00 ................
0040D970 00 00 00 00 00 00 00 00 00 00 00 00 00 00 00 00 ................
0040D980 00 00 00 00 00 00 00 00 00 00 00 00 00 00 00 00 ................
0040D990 00 00 00 00 00 00 00 00 00 00 00 00 00 00 00 00 ................
0040D9A0 00 00 00 00 00 00 00 00 00 00 00 00 00 00 00 00 ................
0040D9B0 00 00 00 00 00 00 00 00 00 00 00 00 00 00 00 00 ................
0040D9C0 00 00 00 00 00 00 00 00 00 00 00 00 00 00 00 00 ................
0040D9D0 00 00 00 00 00 00 00 00 00 00 00 00 00 00 00 00 ................
0040D9E0 00 00 00 00 00 00 00 00 00 00 00 00 00 00 00 00 ................
0040D9F0 00 00 00 00 00 00 00 00 00 00 00 00 00 00 00 00 ................
0040DA00 00 00 00 00 00 00 00 00 00 00 00 00 00 00 00 00 ................
0040DA10 00 00 00 00 00 00 00 00 00 00 00 00 00 00 00 00 ................
0040DA20 00 00 00 00 00 00 00 00 00 00 00 00 00 00 00 00 ................
0040DA30 00 00 00 00 00 00 00 00 00 00 00 00 00 00 00 00 ................
0040DA40 00 00 00 00 00 00 00 00 00 00 00 00 00 00 00 00 ................
0040DA50 00 00 00 00 00 00 00 00 00 00 00 00 00 00 00 00 ................
0040DA60 00 00 00 00 00 00 00 00 00 00 00 00 00 00 00 00 ................
0040DA70 00 00 00 00 00 00 00 00 00 00 00 00 00 00 00 00 ................
0040DA80 00 00 00 00 00 00 00 00 00 00 00 00 00 00 00 00 ................
0040DA90 00 00 00 00 00 00 00 00 00 00 00 00 00 00 00 00 ................
0040DAA0 00 00 00 00 00 00 00 00 00 00 00 00 00 00 00 00 ................
0040DAB0 00 00 00 00 00 00 00 00 00 00 00 00 00 00 00 00 ................
0040DAC0 00 00 00 00 00 00 00 00 00 00 00 00 00 00 00 00 ................
0040DAD0 00 00 00 00 00 00 00 00 00 00 00 00 00 00 00 00 ................
0040DAE0 00 00 00 00 00 00 00 00 00 00 00 00 00 00 00 00 ................
0040DAF0 00 00 00 00 00 00 00 00 00 00 00 00 00 00 00 00 ................
0040DB00 00 00 00 00 00 00 00 00 00 00 00 00 00 00 00 00 ................
0040DB10 00 00 00 00 00 00 00 00 00 00 00 00 00 00 00 00 ................
0040DB20 00 00 00 00 00 00 00 00 00 00 00 00 00 00 00 00 ................
0040DB30 00 00 00 00 00 00 00 00 00 00 00 00 00 00 00 00 ................
0040DB40 00 00 00 00 00 00 00 00 00 00 00 00 00 00 00 00 ................
0040DB50 00 00 00 00 00 00 00 00 00 00 00 00 00 00 00 00 ................
0040DB60 00 00 00 00 00 00 00 00 00 00 00 00 00 00 00 00 ................
0040DB70 00 00 00 00 00 00 00 00 00 00 00 00 00 00 00 00 ................
0040DB80 00 00 00 00 00 00 00 00 00 00 00 00 00 00 00 00 ................
0040DB90 00 00 00 00 00 00 00 00 00 00 00 00 00 00 00 00 ................
0040DBA0 00 00 00 00 00 00 00 00 00 00 00 00 00 00 00 00 ................
0040DBB0 00 00 00 00 00 00 00 00 00 00 00 00 00 00 00 00 ................
0040DBC0 00 00 00 00 00 00 00 00 00 00 00 00 00 00 00 00 ................
0040DBD0 00 00 00 00 00 00 00 00 00 00 00 00 00 00 00 00 ................
0040DBE0 00 00 00 00 00 00 00 00 00 00 00 00 00 00 00 00 ................
0040DBF0 00 00 00 00 00 00 00 00 00 00 00 00 00 00 00 00 ................
0040DC00 00 00 00 00 00 00 00 00 00 00 00 00 00 00 00 00 ................
0040DC10 00 00 00 00 00 00 00 00 00 00 00 00 00 00 00 00 ................
0040DC20 00 00 00 00 00 00 00 00 00 00 00 00 00 00 00 00 ................
0040DC30 00 00 00 00 00 00 00 00 00 00 00 00 00 00 00 00 ................
0040DC40 00 00 00 00 00 00 00 00 00 00 00 00 00 00 00 00 ................
0040DC50 00 00 00 00 00 00 00 00 00 00 00 00 00 00 00 00 ................
0040DC60 00 00 00 00 00 00 00 00 00 00 00 00 00 00 00 00 ................
0040DC70 00 00 00 00 00 00 00 00 00 00 00 00 00 00 00 00 ................
0040DC80 00 00 00 00 00 00 00 00 00 00 00 00 00 00 00 00 ................
0040DC90 00 00 00 00 00 00 00 00 00 00 00 00 00 00 00 00 ................
0040DCA0 00 00 00 00 00 00 00 00 00 00 00 00 00 00 00 00 ................
0040DCB0 00 00 00 00 00 00 00 00 00 00 00 00 00 00 00 00 ................
0040DCC0 00 00 00 00 00 00 00 00 00 00 00 00 00 00 00 00 ................
0040DCD0 00 00 00 00 00 00 00 00 00 00 00 00 00 00 00 00 ................
0040DCE0 00 00 00 00 00 00 00 00 00 00 00 00 00 00 00 00 ................
0040DCF0 00 00 00 00 00 00 00 00 00 00 00 00 00 00 00 00 ................
0040DD00 00 00 00 00 00 00 00 00 00 00 00 00 00 00 00 00 ................
0040DD10 00 00 00 00 00 00 00 00 00 00 00 00 00 00 00 00 ................
0040DD20 00 00 00 00 00 00 00 00 00 00 00 00 00 00 00 00 ................
0040DD30 00 00 00 00 00 00 00 00 00 00 00 00 00 00 00 00 ................
0040DD40 00 00 00 00 00 00 00 00 00 00 00 00 00 00 00 00 ................
0040DD50 00 00 00 00 00 00 00 00 00 00 00 00 00 00 00 00 ................
0040DD60 00 00 00 00 00 00 00 00 00 00 00 00 00 00 00 00 ................
0040DD70 00 00 00 00 00 00 00 00 00 00 00 00 00 00 00 00 ................
0040DD80 00 00 00 00 00 00 00 00 00 00 00 00 00 00 00 00 ................
0040DD90 00 00 00 00 00 00 00 00 00 00 00 00 00 00 00 00 ................
0040DDA0 00 00 00 00 00 00 00 00 00 00 00 00 00 00 00 00 ................
0040DDB0 00 00 00 00 00 00 00 00 00 00 00 00 00 00 00 00 ................
0040DDC0 00 00 00 00 00 00 00 00 00 00 00 00 00 00 00 00 ................
0040DDD0 00 00 00 00 00 00 00 00 00 00 00 00 00 00 00 00 ................
0040DDE0 00 00 00 00 00 00 00 00 00 00 00 00 00 00 00 00 ................
0040DDF0 00 00 00 00 00 00 00 00 00 00 00 00 00 00 00 00 ................
0040DE00 00 00 00 00 00 00 00 00 00 00 00 00 00 00 00 00 ................
0040DE10 00 00 00 00 00 00 00 00 00 00 00 00 00 00 00 00 ................
0040DE20 00 00 00 00 00 00 00 00 00 00 00 00 00 00 00 00 ................
0040DE30 00 00 00 00 00 00 00 00 00 00 00 00 00 00 00 00 ................
0040DE40 00 00 00 00 00 00 00 00 00 00 00 00 00 00 00 00 ................
0040DE50 00 00 00 00 00 00 00 00 00 00 00 00 00 00 00 00 ................
0040DE60 00 00 00 00 00 00 00 00 00 00 00 00 00 00 00 00 ................
0040DE70 00 00 00 00 00 00 00 00 00 00 00 00 00 00 00 00 ................
0040DE80 00 00 00 00 00 00 00 00 00 00 00 00 00 00 00 00 ................
0040DE90 00 00 00 00 00 00 00 00 00 00 00 00 00 00 00 00 ................
0040DEA0 00 00 00 00 00 00 00 00 00 00 00 00 00 00 00 00 ................
0040DEB0 00 00 00 00 00 00 00 00 00 00 00 00 00 00 00 00 ................
0040DEC0 00 00 00 00 00 00 00 00 00 00 00 00 00 00 00 00 ................
0040DED0 00 00 00 00 00 00 00 00 00 00 00 00 00 00 00 00 ................
0040DEE0 00 00 00 00 00 00 00 00 00 00 00 00 00 00 00 00 ................
0040DEF0 00 00 00 00 00 00 00 00 00 00 00 00 00 00 00 00 ................
0040DF00 00 00 00 00 00 00 00 00 00 00 00 00 00 00 00 00 ................
0040DF10 00 00 00 00 00 00 00 00 00 00 00 00 00 00 00 00 ................
0040DF20 00 00 00 00 00 00 00 00 00 00 00 00 00 00 00 00 ................
0040DF30 00 00 00 00 00 00 00 00 00 00 00 00 00 00 00 00 ................
0040DF40 00 00 00 00 00 00 00 00 00 00 00 00 00 00 00 00 ................
0040DF50 00 00 00 00 00 00 00 00 00 00 00 00 00 00 00 00 ................
0040DF60 00 00 00 00 00 00 00 00 00 00 00 00 00 00 00 00 ................
0040DF70 00 00 00 00 00 00 00 00 00 00 00 00 00 00 00 00 ................
0040DF80 00 00 00 00 00 00 00 00 00 00 00 00 00 00 00 00 ................
0040DF90 00 00 00 00 00 00 00 00 00 00 00 00 00 00 00 00 ................
0040DFA0 00 00 00 00 00 00 00 00 00 00 00 00 00 00 00 00 ................
0040DFB0 00 00 00 00 00 00 00 00 00 00 00 00 00 00 00 00 ................
0040DFC0 00 00 00 00 00 00 00 00 00 00 00 00 00 00 00 00 ................
0040DFD0 00 00 00 00 00 00 00 00 00 00 00 00 00 00 00 00 ................
0040DFE0 00 00 00 00 00 00 00 00 00 00 00 00 00 00 00 00 ................
0040DFF0 00 00 00 00 00 00 00 00 00 00 00 00 00 00 00 00 ................
0040E000 00 00 00 00 00 00 00 00 00 00 00 00 00 00 00 00 ................
0040E010 00 00 00 00 00 00 00 00 00 00 00 00 00 00 00 00 ................
0040E020 00 00 00 00 00 00 00 00 00 00 00 00 00 00 00 00 ................
0040E030 00 00 00 00 00 00 00 00 00 00 00 00 00 00 00 00 ................
0040E040 00 00 00 00 00 00 00 00 00 00 00 00 00 00 00 00 ................
0040E050 00 00 00 00 00 00 00 00 00 00 00 00 00 00 00 00 ................
0040E060 00 00 00 00 00 00 00 00 00 00 00 00 00 00 00 00 ................
0040E070 00 00 00 00 00 00 00 00 00 00 00 00 00 00 00 00 ................
0040E080 00 00 00 00 00 00 00 00 00 00 00 00 00 00 00 00 ................
0040E090 00 00 00 00 00 00 00 00 00 00 00 00 00 00 00 00 ................
0040E0A0 00 00 00 00 00 00 00 00 00 00 00 00 00 00 00 00 ................
0040E0B0 00 00 00 00 00 00 00 00 00 00 00 00 00 00 00 00 ................
0040E0C0 00 00 00 00 00 00 00 00 00 00 00 00 00 00 00 00 ................
0040E0D0 00 00 00 00 00 00 00 00 00 00 00 00 00 00 00 00 ................
0040E0E0 00 00 00 00 00 00 00 00 00 00 00 00 00 00 00 00 ................
0040E0F0 00 00 00 00 00 00 00 00 00 00 00 00 00 00 00 00 ................
0040E100 00 00 00 00 00 00 00 00 00 00 00 00 00 00 00 00 ................
0040E110 00 00 00 00 00 00 00 00 00 00 00 00 00 00 00 00 ................
0040E120 00 00 00 00 00 00 00 00 00 00 00 00 00 00 00 00 ................
0040E130 00 00 00 00 00 00 00 00 00 00 00 00 00 00 00 00 ................
0040E140 00 00 00 00 00 00 00 00 00 00 00 00 00 00 00 00 ................
0040E150 00 00 00 00 00 00 00 00 00 00 00 00 00 00 00 00 ................
0040E160 00 00 00 00 00 00 00 00 00 00 00 00 00 00 00 00 ................
0040E170 00 00 00 00 00 00 00 00 00 00 00 00 00 00 00 00 ................
0040E180 00 00 00 00 00 00 00 00 00 00 00 00 00 00 00 00 ................
0040E190 00 00 00 00 00 00 00 00 00 00 00 00 00 00 00 00 ................
0040E1A0 00 00 00 00 00 00 00 00 00 00 00 00 00 00 00 00 ................
0040E1B0 00 00 00 00 00 00 00 00 00 00 00 00 00 00 00 00 ................
0040E1C0 00 00 00 00 00 00 00 00 00 00 00 00 00 00 00 00 ................
0040E1D0 00 00 00 00 00 00 00 00 00 00 00 00 00 00 00 00 ................
0040E1E0 00 00 00 00 00 00 00 00 00 00 00 00 00 00 00 00 ................
0040E1F0 00 00 00 00 00 00 00 00 00 00 00 00 00 00 00 00 ................
0040E200 00 00 00 00 00 00 00 00 00 00 00 00 00 00 00 00 ................
0040E210 00 00 00 00 00 00 00 00 00 00 00 00 00 00 00 00 ................
0040E220 00 00 00 00 00 00 00 00 00 00 00 00 00 00 00 00 ................
0040E230 00 00 00 00 00 00 00 00 00 00 00 00 00 00 00 00 ................
0040E240 00 00 00 00 00 00 00 00 00 00 00 00 00 00 00 00 ................
0040E250 00 00 00 00 00 00 00 00 00 00 00 00 00 00 00 00 ................
0040E260 00 00 00 00 00 00 00 00 00 00 00 00 00 00 00 00 ................
0040E270 00 00 00 00 00 00 00 00 00 00 00 00 00 00 00 00 ................
0040E280 00 00 00 00 00 00 00 00 00 00 00 00 00 00 00 00 ................
0040E290 00 00 00 00 00 00 00 00 00 00 00 00 00 00 00 00 ................
0040E2A0 00 00 00 00 00 00 00 00 00 00 00 00 00 00 00 00 ................
0040E2B0 00 00 00 00 00 00 00 00 00 00 00 00 00 00 00 00 ................
0040E2C0 00 00 00 00 00 00 00 00 00 00 00 00 00 00 00 00 ................
0040E2D0 00 00 00 00 00 00 00 00 00 00 00 00 00 00 00 00 ................
0040E2E0 00 00 00 00 00 00 00 00 00 00 00 00 00 00 00 00 ................
0040E2F0 00 00 00 00 00 00 00 00 00 00 00 00 00 00 00 00 ................
0040E300 00 00 00 00 00 00 00 00 00 00 00 00 00 00 00 00 ................
0040E310 00 00 00 00 00 00 00 00 00 00 00 00 00 00 00 00 ................
0040E320 00 00 00 00 00 00 00 00 00 00 00 00 00 00 00 00 ................
0040E330 00 00 00 00 00 00 00 00 00 00 00 00 00 00 00 00 ................
0040E340 00 00 00 00 00 00 00 00 00 00 00 00 00 00 00 00 ................
0040E350 00 00 00 00 00 00 00 00 00 00 00 00 00 00 00 00 ................
0040E360 00 00 00 00 00 00 00 00 00 00 00 00 00 00 00 00 ................
0040E370 00 00 00 00 00 00 00 00 00 00 00 00 00 00 00 00 ................
0040E380 00 00 00 00 00 00 00 00 00 00 00 00 00 00 00 00 ................
0040E390 00 00 00 00 00 00 00 00 00 00 00 00 00 00 00 00 ................
0040E3A0 00 00 00 00 00 00 00 00 00 00 00 00 00 00 00 00 ................
0040E3B0 00 00 00 00 00 00 00 00 00 00 00 00 00 00 00 00 ................
0040E3C0 00 00 00 00 00 00 00 00 00 00 00 00 00 00 00 00 ................
0040E3D0 00 00 00 00 00 00 00 00 00 00 00 00 00 00 00 00 ................
0040E3E0 00 00 00 00 00 00 00 00 00 00 00 00 00 00 00 00 ................
0040E3F0 00 00 00 00 00 00 00 00 00 00 00 00 00 00 00 00 ................
0040E400 00 00 00 00 00 00 00 00 00 00 00 00 00 00 00 00 ................
0040E410 00 00 00 00 00 00 00 00 00 00 00 00 00 00 00 00 ................
0040E420 00 00 00 00 00 00 00 00 00 00 00 00 00 00 00 00 ................
0040E430 00 00 00 00 00 00 00 00 00 00 00 00 00 00 00 00 ................
0040E440 00 00 00 00 00 00 00 00 00 00 00 00 00 00 00 00 ................
0040E450 00 00 00 00 00 00 00 00 00 00 00 00 00 00 00 00 ................
0040E460 00 00 00 00 00 00 00 00 00 00 00 00 00 00 00 00 ................
0040E470 00 00 00 00 00 00 00 00 00 00 00 00 00 00 00 00 ................
0040E480 00 00 00 00 00 00 00 00 00 00 00 00 00 00 00 00 ................
0040E490 00 00 00 00 00 00 00 00 00 00 00 00 00 00 00 00 ................
0040E4A0 00 00 00 00 00 00 00 00 00 00 00 00 00 00 00 00 ................
0040E4B0 00 00 00 00 00 00 00 00 00 00 00 00 00 00 00 00 ................
0040E4C0 00 00 00 00 00 00 00 00 00 00 00 00 00 00 00 00 ................
0040E4D0 00 00 00 00 00 00 00 00 00 00 00 00 00 00 00 00 ................
0040E4E0 00 00 00 00 00 00 00 00 00 00 00 00 00 00 00 00 ................
0040E4F0 00 00 00 00 00 00 00 00 00 00 00 00 00 00 00 00 ................
0040E500 00 00 00 00 00 00 00 00 00 00 00 00 00 00 00 00 ................
0040E510 00 00 00 00 00 00 00 00 00 00 00 00 00 00 00 00 ................
0040E520 00 00 00 00 00 00 00 00 00 00 00 00 00 00 00 00 ................
0040E530 00 00 00 00 00 00 00 00 00 00 00 00 00 00 00 00 ................
0040E540 00 00 00 00 00 00 00 00 00 00 00 00 00 00 00 00 ................
0040E550 00 00 00 00 00 00 00 00 00 00 00 00 00 00 00 00 ................
0040E560 00 00 00 00 00 00 00 00 00 00 00 00 00 00 00 00 ................
0040E570 00 00 00 00 00 00 00 00 00 00 00 00 00 00 00 00 ................
0040E580 00 00 00 00 00 00 00 00 00 00 00 00 00 00 00 00 ................
0040E590 00 00 00 00 00 00 00 00 00 00 00 00 00 00 00 00 ................
0040E5A0 00 00 00 00 00 00 00 00 00 00 00 00 00 00 00 00 ................
0040E5B0 00 00 00 00 00 00 00 00 00 00 00 00 00 00 00 00 ................
0040E5C0 00 00 00 00 00 00 00 00 00 00 00 00 00 00 00 00 ................
0040E5D0 00 00 00 00 00 00 00 00 00 00 00 00 00 00 00 00 ................
0040E5E0 00 00 00 00 00 00 00 00 00 00 00 00 00 00 00 00 ................
0040E5F0 00 00 00 00 00 00 00 00 00 00 00 00 00 00 00 00 ................
0040E600 00 00 00 00 00 00 00 00 00 00 00 00 00 00 00 00 ................
0040E610 00 00 00 00 00 00 00 00 00 00 00 00 00 00 00 00 ................
0040E620 00 00 00 00 00 00 00 00 00 00 00 00 00 00 00 00 ................
0040E630 00 00 00 00 00 00 00 00 00 00 00 00 00 00 00 00 ................
0040E640 00 00 00 00 00 00 00 00 00 00 00 00 00 00 00 00 ................
0040E650 00 00 00 00 00 00 00 00 00 00 00 00 00 00 00 00 ................
0040E660 00 00 00 00 00 00 00 00 00 00 00 00 00 00 00 00 ................
0040E670 00 00 00 00 00 00 00 00 00 00 00 00 00 00 00 00 ................
0040E680 00 00 00 00 00 00 00 00 00 00 00 00 00 00 00 00 ................
0040E690 00 00 00 00 00 00 00 00 00 00 00 00 00 00 00 00 ................
0040E6A0 00 00 00 00 00 00 00 00 00 00 00 00 00 00 00 00 ................
0040E6B0 00 00 00 00 00 00 00 00 00 00 00 00 00 00 00 00 ................
0040E6C0 00 00 00 00 00 00 00 00 00 00 00 00 00 00 00 00 ................
0040E6D0 00 00 00 00 00 00 00 00 00 00 00 00 00 00 00 00 ................
0040E6E0 00 00 00 00 00 00 00 00 00 00 00 00 00 00 00 00 ................
0040E6F0 00 00 00 00 00 00 00 00 00 00 00 00 00 00 00 00 ................
0040E700 00 00 00 00 00 00 00 00 00 00 00 00 00 00 00 00 ................
0040E710 00 00 00 00 00 00 00 00 00 00 00 00 00 00 00 00 ................
0040E720 00 00 00 00 00 00 00 00 00 00 00 00 00 00 00 00 ................
0040E730 00 00 00 00 00 00 00 00 00 00 00 00 00 00 00 00 ................
0040E740 00 00 00 00 00 00 00 00 00 00 00 00 00 00 00 00 ................
0040E750 00 00 00 00 00 00 00 00 00 00 00 00 00 00 00 00 ................
0040E760 00 00 00 00 00 00 00 00 00 00 00 00 00 00 00 00 ................
0040E770 00 00 00 00 00 00 00 00 00 00 00 00 00 00 00 00 ................
0040E780 00 00 00 00 00 00 00 00 00 00 00 00 00 00 00 00 ................
0040E790 00 00 00 00 00 00 00 00 00 00 00 00 00 00 00 00 ................
0040E7A0 00 00 00 00 00 00 00 00 00 00 00 00 00 00 00 00 ................
0040E7B0 00 00 00 00 00 00 00 00 00 00 00 00 00 00 00 00 ................
0040E7C0 00 00 00 00 00 00 00 00 00 00 00 00 00 00 00 00 ................
0040E7D0 00 00 00 00 00 00 00 00 00 00 00 00 00 00 00 00 ................
0040E7E0 00 00 00 00 00 00 00 00 00 00 00 00 00 00 00 00 ................
0040E7F0 00 00 00 00 00 00 00 00 00 00 00 00 00 00 00 00 ................
0040E800 00 00 00 00 00 00 00 00 00 00 00 00 00 00 00 00 ................
0040E810 00 00 00 00 00 00 00 00 00 00 00 00 00 00 00 00 ................
0040E820 00 00 00 00 00 00 00 00 00 00 00 00 00 00 00 00 ................
0040E830 00 00 00 00 00 00 00 00 00 00 00 00 00 00 00 00 ................
0040E840 00 00 00 00 00 00 00 00 00 00 00 00 00 00 00 00 ................
0040E850 00 00 00 00 00 00 00 00 00 00 00 00 00 00 00 00 ................
0040E860 00 00 00 00 00 00 00 00 00 00 00 00 00 00 00 00 ................
0040E870 00 00 00 00 00 00 00 00 00 00 00 00 00 00 00 00 ................
0040E880 00 00 00 00 00 00 00 00 00 00 00 00 00 00 00 00 ................
0040E890 00 00 00 00 00 00 00 00 00 00 00 00 00 00 00 00 ................
0040E8A0 00 00 00 00 00 00 00 00 00 00 00 00 00 00 00 00 ................
0040E8B0 00 00 00 00 00 00 00 00 00 00 00 00 00 00 00 00 ................
0040E8C0 00 00 00 00 00 00 00 00 00 00 00 00 00 00 00 00 ................
0040E8D0 00 00 00 00 00 00 00 00 00 00 00 00 00 00 00 00 ................
0040E8E0 00 00 00 00 00 00 00 00 00 00 00 00 00 00 00 00 ................
0040E8F0 00 00 00 00 00 00 00 00 00 00 00 00 00 00 00 00 ................
0040E900 00 00 00 00 00 00 00 00 00 00 00 00 00 00 00 00 ................
0040E910 00 00 00 00 00 00 00 00 00 00 00 00 00 00 00 00 ................
0040E920 00 00 00 00 00 00 00 00 00 00 00 00 00 00 00 00 ................
0040E930 00 00 00 00 00 00 00 00 00 00 00 00 00 00 00 00 ................
0040E940 00 00 00 00 00 00 00 00 00 00 00 00 00 00 00 00 ................
0040E950 00 00 00 00 00 00 00 00 00 00 00 00 00 00 00 00 ................
0040E960 00 00 00 00 00 00 00 00 00 00 00 00 00 00 00 00 ................
0040E970 00 00 00 00 00 00 00 00 00 00 00 00 00 00 00 00 ................
0040E980 00 00 00 00 00 00 00 00 00 00 00 00 00 00 00 00 ................
0040E990 00 00 00 00 00 00 00 00 00 00 00 00 00 00 00 00 ................
0040E9A0 00 00 00 00 00 00 00 00 00 00 00 00 00 00 00 00 ................
0040E9B0 00 00 00 00 00 00 00 00 00 00 00 00 00 00 00 00 ................
0040E9C0 00 00 00 00 00 00 00 00 00 00 00 00 00 00 00 00 ................
0040E9D0 00 00 00 00 00 00 00 00 00 00 00 00 00 00 00 00 ................
0040E9E0 00 00 00 00 00 00 00 00 00 00 00 00 00 00 00 00 ................
0040E9F0 00 00 00 00 00 00 00 00 00 00 00 00 00 00 00 00 ................
0040EA00 00 00 00 00 00 00 00 00 00 00 00 00 00 00 00 00 ................
0040EA10 00 00 00 00 00 00 00 00 00 00 00 00 00 00 00 00 ................
0040EA20 00 00 00 00 00 00 00 00 00 00 00 00 00 00 00 00 ................
0040EA30 00 00 00 00 00 00 00 00 00 00 00 00 00 00 00 00 ................
0040EA40 00 00 00 00 00 00 00 00 00 00 00 00 00 00 00 00 ................
0040EA50 00 00 00 00 00 00 00 00 00 00 00 00 00 00 00 00 ................
0040EA60 00 00 00 00 00 00 00 00 00 00 00 00 00 00 00 00 ................
0040EA70 00 00 00 00 00 00 00 00 00 00 00 00 00 00 00 00 ................
0040EA80 00 00 00 00 00 00 00 00 00 00 00 00 00 00 00 00 ................
0040EA90 00 00 00 00 00 00 00 00 00 00 00 00 00 00 00 00 ................
0040EAA0 00 00 00 00 00 00 00 00 00 00 00 00 00 00 00 00 ................
0040EAB0 00 00 00 00 00 00 00 00 00 00 00 00 00 00 00 00 ................
0040EAC0 00 00 00 00 00 00 00 00 00 00 00 00 00 00 00 00 ................
0040EAD0 00 00 00 00 00 00 00 00 00 00 00 00 00 00 00 00 ................
0040EAE0 00 00 00 00 00 00 00 00 00 00 00 00 00 00 00 00 ................
0040EAF0 00 00 00 00 00 00 00 00 00 00 00 00 00 00 00 00 ................
0040EB00 00 00 00 00 00 00 00 00 00 00 00 00 00 00 00 00 ................
0040EB10 00 00 00 00 00 00 00 00 00 00 00 00 00 00 00 00 ................
0040EB20 00 00 00 00 00 00 00 00 00 00 00 00 00 00 00 00 ................
0040EB30 00 00 00 00 00 00 00 00 00 00 00 00 00 00 00 00 ................
0040EB40 00 00 00 00 00 00 00 00 00 00 00 00 00 00 00 00 ................
0040EB50 00 00 00 00 00 00 00 00 00 00 00 00 00 00 00 00 ................
0040EB60 00 00 00 00 00 00 00 00 00 00 00 00 00 00 00 00 ................
0040EB70 00 00 00 00 00 00 00 00 00 00 00 00 00 00 00 00 ................
0040EB80 00 00 00 00 00 00 00 00 00 00 00 00 00 00 00 00 ................
0040EB90 00 00 00 00 00 00 00 00 00 00 00 00 00 00 00 00 ................
0040EBA0 00 00 00 00 00 00 00 00 00 00 00 00 00 00 00 00 ................
0040EBB0 00 00 00 00 00 00 00 00 00 00 00 00 00 00 00 00 ................
0040EBC0 00 00 00 00 00 00 00 00 00 00 00 00 00 00 00 00 ................
0040EBD0 00 00 00 00 00 00 00 00 00 00 00 00 00 00 00 00 ................
0040EBE0 00 00 00 00 00 00 00 00 00 00 00 00 00 00 00 00 ................
0040EBF0 00 00 00 00 00 00 00 00 00 00 00 00 00 00 00 00 ................
0040EC00 00 00 00 00 00 00 00 00 00 00 00 00 00 00 00 00 ................
0040EC10 00 00 00 00 00 00 00 00 00 00 00 00 00 00 00 00 ................
0040EC20 00 00 00 00 00 00 00 00 00 00 00 00 00 00 00 00 ................
0040EC30 00 00 00 00 00 00 00 00 00 00 00 00 00 00 00 00 ................
0040EC40 00 00 00 00 00 00 00 00 00 00 00 00 00 00 00 00 ................
0040EC50 00 00 00 00 00 00 00 00 00 00 00 00 00 00 00 00 ................
0040EC60 00 00 00 00 00 00 00 00 00 00 00 00 00 00 00 00 ................
0040EC70 00 00 00 00 00 00 00 00 00 00 00 00 00 00 00 00 ................
0040EC80 00 00 00 00 00 00 00 00 00 00 00 00 00 00 00 00 ................
0040EC90 00 00 00 00 00 00 00 00 00 00 00 00 00 00 00 00 ................
0040ECA0 00 00 00 00 00 00 00 00 00 00 00 00 00 00 00 00 ................
0040ECB0 00 00 00 00 00 00 00 00 00 00 00 00 00 00 00 00 ................
0040ECC0 00 00 00 00 00 00 00 00 00 00 00 00 00 00 00 00 ................
0040ECD0 00 00 00 00 00 00 00 00 00 00 00 00 00 00 00 00 ................
0040ECE0 00 00 00 00 00 00 00 00 00 00 00 00 00 00 00 00 ................
0040ECF0 00 00 00 00 00 00 00 00 00 00 00 00 00 00 00 00 ................
0040ED00 00 00 00 00 00 00 00 00 00 00 00 00 00 00 00 00 ................
0040ED10 00 00 00 00 00 00 00 00 00 00 00 00 00 00 00 00 ................
0040ED20 00 00 00 00 00 00 00 00 00 00 00 00 00 00 00 00 ................
0040ED30 00 00 00 00 00 00 00 00 00 00 00 00 00 00 00 00 ................
0040ED40 00 00 00 00 00 00 00 00 00 00 00 00 00 00 00 00 ................
0040ED50 00 00 00 00 00 00 00 00 00 00 00 00 00 00 00 00 ................
0040ED60 00 00 00 00 00 00 00 00 00 00 00 00 00 00 00 00 ................
0040ED70 00 00 00 00 00 00 00 00 00 00 00 00 00 00 00 00 ................
0040ED80 00 00 00 00 00 00 00 00 00 00 00 00 00 00 00 00 ................
0040ED90 00 00 00 00 00 00 00 00 00 00 00 00 00 00 00 00 ................
0040EDA0 00 00 00 00 00 00 00 00 00 00 00 00 00 00 00 00 ................
0040EDB0 00 00 00 00 00 00 00 00 00 00 00 00 00 00 00 00 ................
0040EDC0 00 00 00 00 00 00 00 00 00 00 00 00 00 00 00 00 ................
0040EDD0 00 00 00 00 00 00 00 00 00 00 00 00 00 00 00 00 ................
0040EDE0 00 00 00 00 00 00 00 00 00 00 00 00 00 00 00 00 ................
0040EDF0 00 00 00 00 00 00 00 00 00 00 00 00 00 00 00 00 ................
0040EE00 00 00 00 00 00 00 00 00 00 00 00 00 00 00 00 00 ................
0040EE10 00 00 00 00 00 00 00 00 00 00 00 00 00 00 00 00 ................
0040EE20 00 00 00 00 00 00 00 00 00 00 00 00 00 00 00 00 ................
0040EE30 00 00 00 00 00 00 00 00 00 00 00 00 00 00 00 00 ................
0040EE40 00 00 00 00 00 00 00 00 00 00 00 00 00 00 00 00 ................
0040EE50 00 00 00 00 00 00 00 00 00 00 00 00 00 00 00 00 ................
0040EE60 00 00 00 00 00 00 00 00 00 00 00 00 00 00 00 00 ................
0040EE70 00 00 00 00 00 00 00 00 00 00 00 00 00 00 00 00 ................
0040EE80 00 00 00 00 00 00 00 00 00 00 00 00 00 00 00 00 ................
0040EE90 00 00 00 00 00 00 00 00 00 00 00 00 00 00 00 00 ................
0040EEA0 00 00 00 00 00 00 00 00 00 00 00 00 00 00 00 00 ................
0040EEB0 00 00 00 00 00 00 00 00 00 00 00 00 00 00 00 00 ................
0040EEC0 00 00 00 00 00 00 00 00 00 00 00 00 00 00 00 00 ................
0040EED0 00 00 00 00 00 00 00 00 00 00 00 00 00 00 00 00 ................
0040EEE0 00 00 00 00 00 00 00 00 00 00 00 00 00 00 00 00 ................
0040EEF0 00 00 00 00 00 00 00 00 00 00 00 00 00 00 00 00 ................
0040EF00 00 00 00 00 00 00 00 00 00 00 00 00 00 00 00 00 ................
0040EF10 00 00 00 00 00 00 00 00 00 00 00 00 00 00 00 00 ................
0040EF20 00 00 00 00 00 00 00 00 00 00 00 00 00 00 00 00 ................
0040EF30 00 00 00 00 00 00 00 00 00 00 00 00 00 00 00 00 ................
0040EF40 00 00 00 00 00 00 00 00 00 00 00 00 00 00 00 00 ................
0040EF50 00 00 00 00 00 00 00 00 00 00 00 00 00 00 00 00 ................
0040EF60 00 00 00 00 00 00 00 00 00 00 00 00 00 00 00 00 ................
0040EF70 00 00 00 00 00 00 00 00 00 00 00 00 00 00 00 00 ................
0040EF80 00 00 00 00 00 00 00 00 00 00 00 00 00 00 00 00 ................
0040EF90 00 00 00 00 00 00 00 00 00 00 00 00 00 00 00 00 ................
0040EFA0 00 00 00 00 00 00 00 00 00 00 00 00 00 00 00 00 ................
0040EFB0 00 00 00 00 00 00 00 00 00 00 00 00 00 00 00 00 ................
0040EFC0 00 00 00 00 00 00 00 00 00 00 00 00 00 00 00 00 ................
0040EFD0 00 00 00 00 00 00 00 00 00 00 00 00 00 00 00 00 ................
0040EFE0 00 00 00 00 00 00 00 00 00 00 00 00 00 00 00 00 ................
0040EFF0 00 00 00 00 00 00 00 00 00 00 00 00 00 00 00 00 ................
0040F000 C8 F2 00 00 DC F2 00 00 F4 F2 00 00 FC F2 00 00 ................
0040F010 0A F3 00 00 1C F3 00 00 2C F3 00 00 38 F3 00 00 ........,...8...
0040F020 4E F3 00 00 58 F3 00 00 66 F3 00 00 7A F3 00 00 N...X...f...z...
0040F030 8C F3 00 00 9C F3 00 00 B0 F3 00 00 BE F3 00 00 ................
0040F040 DC F3 00 00 EC F3 00 00 FA F3 00 00 0A F4 00 00 ................
0040F050 12 F4 00 00 24 F4 00 00 30 F4 00 00 38 F4 00 00 ....$...0...8...
0040F060 48 F4 00 00 58 F4 00 00 68 F4 00 00 84 F4 00 00 H...X...h.......
0040F070 94 F4 00 00 A4 F4 00 00 B2 F4 00 00 C2 F4 00 00 ................
0040F080 D0 F4 00 00 DC F4 00 00 F0 F4 00 00 FE F4 00 00 ................
0040F090 16 F5 00 00 34 F5 00 00 46 F5 00 00 5C F5 00 00 ....4...F...\...
0040F0A0 6C F5 00 00 80 F5 00 00 92 F5 00 00 A2 F5 00 00 l...............
0040F0B0 B0 F5 00 00 BC F5 00 00 CE F5 00 00 00 00 00 00 ................
0040F0C0 E8 F5 00 00 F8 F5 00 00 0A F6 00 00 16 F6 00 00 ................
0040F0D0 28 F6 00 00 3A F6 00 00 46 F6 00 00 52 F6 00 00 (...:...F...R...
0040F0E0 60 F6 00 00 6E F6 00 00 7E F6 00 00 8E F6 00 00 `...n...~.......
0040F0F0 98 F6 00 00 A8 F6 00 00 B8 F6 00 00 CA F6 00 00 ................
0040F100 DC F6 00 00 EC F6 00 00 00 F7 00 00 12 F7 00 00 ................
0040F110 24 F7 00 00 32 F7 00 00 44 F7 00 00 58 F7 00 00 $...2...D...X...
0040F120 64 F7 00 00 76 F7 00 00 8A F7 00 00 9A F7 00 00 d...v...........
0040F130 A8 F7 00 00 BA F7 00 00 CC F7 00 00 E0 F7 00 00 ................
0040F140 00 00 00 00 00 00 00 00 84 F1 00 00 00 00 00 00 ................
0040F150 00 00 00 00 DA F5 00 00 00 F0 00 00 44 F2 00 00 ............D...
0040F160 00 00 00 00 00 00 00 00 F2 F7 00 00 C0 F0 00 00 ................
0040F170 00 00 00 00 00 00 00 00 00 00 00 00 00 00 00 00 ................
0040F180 00 00 00 00 C8 F2 00 00 DC F2 00 00 F4 F2 00 00 ................
0040F190 FC F2 00 00 0A F3 00 00 1C F3 00 00 2C F3 00 00 ............,...
0040F1A0 38 F3 00 00 4E F3 00 00 58 F3 00 00 66 F3 00 00 8...N...X...f...
0040F1B0 7A F3 00 00 8C F3 00 00 9C F3 00 00 B0 F3 00 00 z...............
0040F1C0 BE F3 00 00 DC F3 00 00 EC F3 00 00 FA F3 00 00 ................
0040F1D0 0A F4 00 00 12 F4 00 00 24 F4 00 00 30 F4 00 00 ........$...0...
0040F1E0 38 F4 00 00 48 F4 00 00 58 F4 00 00 68 F4 00 00 8...H...X...h...
0040F1F0 84 F4 00 00 94 F4 00 00 A4 F4 00 00 B2 F4 00 00 ................
0040F200 C2 F4 00 00 D0 F4 00 00 DC F4 00 00 F0 F4 00 00 ................
0040F210 FE F4 00 00 16 F5 00 00 34 F5 00 00 46 F5 00 00 ........4...F...
0040F220 5C F5 00 00 6C F5 00 00 80 F5 00 00 92 F5 00 00 \...l...........
0040F230 A2 F5 00 00 B0 F5 00 00 BC F5 00 00 CE F5 00 00 ................
0040F240 00 00 00 00 E8 F5 00 00 F8 F5 00 00 0A F6 00 00 ................
0040F250 16 F6 00 00 28 F6 00 00 3A F6 00 00 46 F6 00 00 ....(...:...F...
0040F260 52 F6 00 00 60 F6 00 00 6E F6 00 00 7E F6 00 00 R...`...n...~...
0040F270 8E F6 00 00 98 F6 00 00 A8 F6 00 00 B8 F6 00 00 ................
0040F280 CA F6 00 00 DC F6 00 00 EC F6 00 00 00 F7 00 00 ................
0040F290 12 F7 00 00 24 F7 00 00 32 F7 00 00 44 F7 00 00 ....$...2...D...
0040F2A0 58 F7 00 00 64 F7 00 00 76 F7 00 00 8A F7 00 00 X...d...v.......
0040F2B0 9A F7 00 00 A8 F7 00 00 BA F7 00 00 CC F7 00 00 ................
0040F2C0 E0 F7 00 00 00 00 00 00 27 00 47 65 74 43 75 72 ........'.GetCur
0040F2D0 72 65 6E 74 50 72 6F 63 65 73 73 00 2D 00 4C 65 rentProcess.-.Le
0040F2E0 61 76 65 43 72 69 74 69 63 61 6C 53 65 63 74 69 aveCriticalSecti
0040F2F0 6F 6E 00 00 2E 00 53 6C 65 65 70 00 2F 00 48 65 on....Sleep./.He
0040F300 61 70 44 65 73 74 72 6F 79 00 30 00 47 65 74 50 apDestroy.0.GetP
0040F310 72 6F 63 41 64 64 72 65 73 73 00 00 36 00 56 69 rocAddress..6.Vi
0040F320 72 74 75 61 6C 41 6C 6C 6F 63 00 00 3B 00 48 65 rtualAlloc..;.He
0040F330 61 70 46 72 65 65 00 00 3F 00 47 65 74 4D 6F 64 apFree..?.GetMod
0040F340 75 6C 65 46 69 6C 65 4E 61 6D 65 41 00 00 40 00 uleFileNameA..@.
0040F350 47 65 74 41 43 50 00 00 42 00 46 72 65 65 4C 69 GetACP..B.FreeLi
0040F360 62 72 61 72 79 00 46 00 54 65 72 6D 69 6E 61 74 brary.F.Terminat
0040F370 65 50 72 6F 63 65 73 73 00 00 48 00 53 65 74 46 eProcess..H.SetF
0040F380 69 6C 65 50 6F 69 6E 74 65 72 00 00 4E 00 56 69 ilePointer..N.Vi
0040F390 72 74 75 61 6C 41 6C 6C 6F 63 00 00 54 00 47 65 rtualAlloc..T.Ge
0040F3A0 74 4D 6F 64 75 6C 65 48 61 6E 64 6C 65 57 00 00 tModuleHandleW..
0040F3B0 56 00 46 72 65 65 4C 69 62 72 61 72 79 00 57 00 V.FreeLibrary.W.
0040F3C0 53 65 74 55 6E 68 61 6E 64 6C 65 64 45 78 63 65 SetUnhandledExce
0040F3D0 70 74 69 6F 6E 46 69 6C 74 65 72 00 5D 00 4C 6F ptionFilter.].Lo
0040F3E0 61 64 4C 69 62 72 61 72 79 57 00 00 63 00 48 65 adLibraryW..c.He
0040F3F0 61 70 44 65 73 74 72 6F 79 00 67 00 56 69 72 74 apDestroy.g.Virt
0040F400 75 61 6C 41 6C 6C 6F 63 00 00 6A 00 53 6C 65 65 ualAlloc..j.Slee
0040F410 70 00 6E 00 47 65 74 53 74 61 72 74 75 70 49 6E p.n.GetStartupIn
0040F420 66 6F 57 00 73 00 6C 73 74 72 6C 65 6E 57 00 00 foW.s.lstrlenW..
0040F430 75 00 53 6C 65 65 70 00 7A 00 47 65 74 54 69 63 u.Sleep.z.GetTic
0040F440 6B 43 6F 75 6E 74 00 00 7E 00 47 65 74 4C 61 73 kCount..~.GetLas
0040F450 74 45 72 72 6F 72 00 00 84 00 53 65 74 4C 61 73 tError....SetLas
0040F460 74 45 72 72 6F 72 00 00 85 00 49 6E 69 74 69 61 tError....Initia
0040F470 6C 69 7A 65 43 72 69 74 69 63 61 6C 53 65 63 74 lizeCriticalSect
0040F480 69 6F 6E 00 89 00 47 65 74 4C 61 73 74 45 72 72 ion...GetLastErr
0040F490 6F 72 00 00 8A 00 47 65 74 4C 61 73 74 45 72 72 or....GetLastErr
0040F4A0 6F 72 00 00 8F 00 43 72 65 61 74 65 46 69 6C 65 or....CreateFile
0040F4B0 57 00 94 00 56 69 72 74 75 61 6C 41 6C 6C 6F 63 W...VirtualAlloc
0040F4C0 00 00 97 00 43 72 65 61 74 65 46 69 6C 65 57 00 ....CreateFileW.
0040F4D0 9C 00 6C 73 74 72 63 6D 70 69 57 00 9E 00 47 65 ..lstrcmpiW...Ge
0040F4E0 74 4D 6F 64 75 6C 65 48 61 6E 64 6C 65 41 00 00 tModuleHandleA..
0040F4F0 A3 00 43 72 65 61 74 65 46 69 6C 65 57 00 A7 00 ..CreateFileW...
0040F500 4C 65 61 76 65 43 72 69 74 69 63 61 6C 53 65 63 LeaveCriticalSec
0040F510 74 69 6F 6E 00 00 A8 00 53 65 74 55 6E 68 61 6E tion....SetUnhan
0040F520 64 6C 65 64 45 78 63 65 70 74 69 6F 6E 46 69 6C dledExceptionFil
0040F530 74 65 72 00 AC 00 47 65 74 50 72 6F 63 41 64 64 ter...GetProcAdd
0040F540 72 65 73 73 00 00 AE 00 4D 75 6C 74 69 42 79 74 ress....MultiByt
0040F550 65 54 6F 57 69 64 65 43 68 61 72 00 B2 00 47 65 eToWideChar...Ge
0040F560 74 56 65 72 73 69 6F 6E 45 78 41 00 B7 00 47 65 tVersionExA...Ge
0040F570 74 4D 6F 64 75 6C 65 48 61 6E 64 6C 65 41 00 00 tModuleHandleA..
0040F580 BA 00 47 65 74 50 72 6F 63 41 64 64 72 65 73 73 ..GetProcAddress
0040F590 00 00 C0 00 43 72 65 61 74 65 54 68 72 65 61 64 ....CreateThread
0040F5A0 00 00 C3 00 46 72 65 65 4C 69 62 72 61 72 79 00 ....FreeLibrary.
0040F5B0 C6 00 48 65 61 70 41 6C 6C 6F 63 00 C8 00 47 65 ..HeapAlloc...Ge
0040F5C0 74 53 74 61 72 74 75 70 49 6E 66 6F 57 00 CC 00 tStartupInfoW...
0040F5D0 53 65 74 45 76 65 6E 74 00 00 4B 45 52 4E 45 4C SetEvent..KERNEL
0040F5E0 33 32 2E 44 4C 4C 00 00 31 00 45 6E 61 62 6C 65 32.DLL..1.Enable
0040F5F0 57 69 6E 64 6F 77 00 00 32 00 53 63 72 65 65 6E Window..2.Screen
0040F600 54 6F 43 6C 69 65 6E 74 00 00 33 00 43 68 61 72 ToClient..3.Char
0040F610 4E 65 78 74 57 00 38 00 49 6E 76 61 6C 69 64 61 NextW.8.Invalida
0040F620 74 65 52 65 63 74 00 00 3C 00 43 68 65 63 6B 44 teRect..<.CheckD
0040F630 6C 67 42 75 74 74 6F 6E 00 00 3F 00 45 6E 64 44 lgButton..?.EndD
0040F640 69 61 6C 6F 67 00 45 00 77 73 70 72 69 6E 74 66 ialog.E.wsprintf
0040F650 57 00 46 00 53 65 74 43 61 70 74 75 72 65 00 00 W.F.SetCapture..
0040F660 4C 00 4D 65 73 73 61 67 65 42 6F 78 57 00 4D 00 L.MessageBoxW.M.
0040F670 55 70 64 61 74 65 57 69 6E 64 6F 77 00 00 53 00 UpdateWindow..S.
0040F680 53 65 6E 64 4D 65 73 73 61 67 65 57 00 00 59 00 SendMessageW..Y.
0040F690 53 65 74 52 65 63 74 00 5E 00 53 65 6E 64 4D 65 SetRect.^.SendMe
0040F6A0 73 73 61 67 65 57 00 00 61 00 47 65 74 53 79 73 ssageW..a.GetSys
0040F6B0 74 65 6D 4D 65 6E 75 00 62 00 43 68 65 63 6B 44 temMenu.b.CheckD
0040F6C0 6C 67 42 75 74 74 6F 6E 00 00 64 00 4D 61 70 57 lgButton..d.MapW
0040F6D0 69 6E 64 6F 77 50 6F 69 6E 74 73 00 6A 00 44 65 indowPoints.j.De
0040F6E0 73 74 72 6F 79 57 69 6E 64 6F 77 00 70 00 52 65 stroyWindow.p.Re
0040F6F0 67 69 73 74 65 72 43 6C 61 73 73 45 78 57 00 00 gisterClassExW..
0040F700 76 00 47 65 74 57 69 6E 64 6F 77 54 65 78 74 57 v.GetWindowTextW
0040F710 00 00 7A 00 53 65 74 44 6C 67 49 74 65 6D 54 65 ..z.SetDlgItemTe
0040F720 78 74 57 00 7C 00 47 65 74 53 75 62 4D 65 6E 75 xtW.|.GetSubMenu
0040F730 00 00 7E 00 47 65 74 57 69 6E 64 6F 77 54 65 78 ..~.GetWindowTex
0040F740 74 57 00 00 80 00 52 65 67 69 73 74 65 72 43 6C tW....RegisterCl
0040F750 61 73 73 45 78 57 00 00 81 00 47 65 74 46 6F 63 assExW....GetFoc
0040F760 75 73 00 00 86 00 47 65 74 57 69 6E 64 6F 77 54 us....GetWindowT
0040F770 65 78 74 57 00 00 8C 00 49 73 44 69 61 6C 6F 67 extW....IsDialog
0040F780 4D 65 73 73 61 67 65 57 00 00 8D 00 50 6F 73 74 MessageW....Post
0040F790 4D 65 73 73 61 67 65 57 00 00 90 00 4D 65 73 73 MessageW....Mess
0040F7A0 61 67 65 42 65 65 70 00 91 00 47 65 74 44 6C 67 ageBeep...GetDlg
0040F7B0 49 74 65 6D 54 65 78 74 57 00 93 00 44 65 66 57 ItemTextW...DefW
0040F7C0 69 6E 64 6F 77 50 72 6F 63 57 00 00 95 00 52 65 indowProcW....Re
0040F7D0 67 69 73 74 65 72 43 6C 61 73 73 45 78 57 00 00 gisterClassExW..
0040F7E0 98 00 43 72 65 61 74 65 57 69 6E 64 6F 77 45 78 ..CreateWindowEx
0040F7F0 57 00 55 53 45 52 33 32 2E 44 4C 4C 00 00 00 00 W.USER32.DLL....
0040F800 00 00 00 00 00 00 00 00 00 00 00 00 00 00 00 00 ................
0040F810 00 00 00 00 00 00 00 00 00 00 00 00 00 00 00 00 ................
0040F820 00 00 00 00 00 00 00 00 00 00 00 00 00 00 00 00 ................
0040F830 00 00 00 00 00 00 00 00 00 00 00 00 00 00 00 00 ................
0040F840 00 00 00 00 00 00 00 00 00 00 00 00 00 00 00 00 ................
0040F850 00 00 00 00 00 00 00 00 00 00 00 00 00 00 00 00 ................
0040F860 00 00 00 00 00 00 00 00 00 00 00 00 00 00 00 00 ................
0040F870 00 00 00 00 00 00 00 00 00 00 00 00 00 00 00 00 ................
0040F880 00 00 00 00 00 00 00 00 00 00 00 00 00 00 00 00 ................
0040F890 00 00 00 00 00 00 00 00 00 00 00 00 00 00 00 00 ................
0040F8A0 00 00 00 00 00 00 00 00 00 00 00 00 00 00 00 00 ................
0040F8B0 00 00 00 00 00 00 00 00 00 00 00 00 00 00 00 00 ................
0040F8C0 00 00 00 00 00 00 00 00 00 00 00 00 00 00 00 00 ................
0040F8D0 00 00 00 00 00 00 00 00 00 00 00 00 00 00 00 00 ................
0040F8E0 00 00 00 00 00 00 00 00 00 00 00 00 00 00 00 00 ................
0040F8F0 00 00 00 00 00 00 00 00 00 00 00 00 00 00 00 00 ................
0040F900 00 00 00 00 00 00 00 00 00 00 00 00 00 00 00 00 ................
0040F910 00 00 00 00 00 00 00 00 00 00 00 00 00 00 00 00 ................
0040F920 00 00 00 00 00 00 00 00 00 00 00 00 00 00 00 00 ................
0040F930 00 00 00 00 00 00 00 00 00 00 00 00 00 00 00 00 ................
0040F940 00 00 00 00 00 00 00 00 00 00 00 00 00 00 00 00 ................
0040F950 00 00 00 00 00 00 00 00 00 00 00 00 00 00 00 00 ................
0040F960 00 00 00 00 00 00 00 00 00 00 00 00 00 00 00 00 ................
0040F970 00 00 00 00 00 00 00 00 00 00 00 00 00 00 00 00 ................
0040F980 00 00 00 00 00 00 00 00 00 00 00 00 00 00 00 00 ................
0040F990 00 00 00 00 00 00 00 00 00 00 00 00 00 00 00 00 ................
0040F9A0 00 00 00 00 00 00 00 00 00 00 00 00 00 00 00 00 ................
0040F9B0 00 00 00 00 00 00 00 00 00 00 00 00 00 00 00 00 ................
0040F9C0 00 00 00 00 00 00 00 00 00 00 00 00 00 00 00 00 ................
0040F9D0 00 00 00 00 00 00 00 00 00 00 00 00 00 00 00 00 ................
0040F9E0 00 00 00 00 00 00 00 00 00 00 00 00 00 00 00 00 ................
0040F9F0 00 00 00 00 00 00 00 00 00 00 00 00 00 00 00 00 ................
0040FA00 00 00 00 00 00 00 00 00 00 00 00 00 00 00 00 00 ................
0040FA10 00 00 00 00 00 00 00 00 00 00 00 00 00 00 00 00 ................
0040FA20 00 00 00 00 00 00 00 00 00 00 00 00 00 00 00 00 ................
0040FA30 00 00 00 00 00 00 00 00 00 00 00 00 00 00 00 00 ................
0040FA40 00 00 00 00 00 00 00 00 00 00 00 00 00 00 00 00 ................
0040FA50 00 00 00 00 00 00 00 00 00 00 00 00 00 00 00 00 ................
0040FA60 00 00 00 00 00 00 00 00 00 00 00 00 00 00 00 00 ................
0040FA70 00 00 00 00 00 00 00 00 00 00 00 00 00 00 00 00 ................
0040FA80 00 00 00 00 00 00 00 00 00 00 00 00 00 00 00 00 ................
0040FA90 00 00 00 00 00 00 00 00 00 00 00 00 00 00 00 00 ................
0040FAA0 00 00 00 00 00 00 00 00 00 00 00 00 00 00 00 00 ................
0040FAB0 00 00 00 00 00 00 00 00 00 00 00 00 00 00 00 00 ................
0040FAC0 00 00 00 00 00 00 00 00 00 00 00 00 00 00 00 00 ................
0040FAD0 00 00 00 00 00 00 00 00 00 00 00 00 00 00 00 00 ................
0040FAE0 00 00 00 00 00 00 00 00 00 00 00 00 00 00 00 00 ................
0040FAF0 00 00 00 00 00 00 00 00 00 00 00 00 00 00 00 00 ................
0040FB00 00 00 00 00 00 00 00 00 00 00 00 00 00 00 00 00 ................
0040FB10 00 00 00 00 00 00 00 00 00 00 00 00 00 00 00 00 ................
0040FB20 00 00 00 00 00 00 00 00 00 00 00 00 00 00 00 00 ................
0040FB30 00 00 00 00 00 00 00 00 00 00 00 00 00 00 00 00 ................
0040FB40 00 00 00 00 00 00 00 00 00 00 00 00 00 00 00 00 ................
0040FB50 00 00 00 00 00 00 00 00 00 00 00 00 00 00 00 00 ................
0040FB60 00 00 00 00 00 00 00 00 00 00 00 00 00 00 00 00 ................
0040FB70 00 00 00 00 00 00 00 00 00 00 00 00 00 00 00 00 ................
0040FB80 00 00 00 00 00 00 00 00 00 00 00 00 00 00 00 00 ................
0040FB90 00 00 00 00 00 00 00 00 00 00 00 00 00 00 00 00 ................
0040FBA0 00 00 00 00 00 00 00 00 00 00 00 00 00 00 00 00 ................
0040FBB0 00 00 00 00 00 00 00 00 00 00 00 00 00 00 00 00 ................
0040FBC0 00 00 00 00 00 00 00 00 00 00 00 00 00 00 00 00 ................
0040FBD0 00 00 00 00 00 00 00 00 00 00 00 00 00 00 00 00 ................
0040FBE0 00 00 00 00 00 00 00 00 00 00 00 00 00 00 00 00 ................
0040FBF0 00 00 00 00 00 00 00 00 00 00 00 00 00 00 00 00 ................
0040FC00 00 00 00 00 00 00 00 00 00 00 00 00 00 00 00 00 ................
0040FC10 00 00 00 00 00 00 00 00 00 00 00 00 00 00 00 00 ................
0040FC20 00 00 00 00 00 00 00 00 00 00 00 00 00 00 00 00 ................
0040FC30 00 00 00 00 00 00 00 00 00 00 00 00 00 00 00 00 ................
0040FC40 00 00 00 00 00 00 00 00 00 00 00 00 00 00 00 00 ................
0040FC50 00 00 00 00 00 00 00 00 00 00 00 00 00 00 00 00 ................
0040FC60 00 00 00 00 00 00 00 00 00 00 00 00 00 00 00 00 ................
0040FC70 00 00 00 00 00 00 00 00 00 00 00 00 00 00 00 00 ................
0040FC80 00 00 00 00 00 00 00 00 00 00 00 00 00 00 00 00 ................
0040FC90 00 00 00 00 00 00 00 00 00 00 00 00 00 00 00 00 ................
0040FCA0 00 00 00 00 00 00 00 00 00 00 00 00 00 00 00 00 ................
0040FCB0 00 00 00 00 00 00 00 00 00 00 00 00 00 00 00 00 ................
0040FCC0 00 00 00 00 00 00 00 00 00 00 00 00 00 00 00 00 ................
0040FCD0 00 00 00 00 00 00 00 00 00 00 00 00 00 00 00 00 ................
0040FCE0 00 00 00 00 00 00 00 00 00 00 00 00 00 00 00 00 ................
0040FCF0 00 00 00 00 00 00 00 00 00 00 00 00 00 00 00 00 ................
0040FD00 00 00 00 00 00 00 00 00 00 00 00 00 00 00 00 00 ................
0040FD10 00 00 00 00 00 00 00 00 00 00 00 00 00 00 00 00 ................
0040FD20 00 00 00 00 00 00 00 00 00 00 00 00 00 00 00 00 ................
0040FD30 00 00 00 00 00 00 00 00 00 00 00 00 00 00 00 00 ................
0040FD40 00 00 00 00 00 00 00 00 00 00 00 00 00 00 00 00 ................
0040FD50 00 00 00 00 00 00 00 00 00 00 00 00 00 00 00 00 ................
0040FD60 00 00 00 00 00 00 00 00 00 00 00 00 00 00 00 00 ................
0040FD70 00 00 00 00 00 00 00 00 00 00 00 00 00 00 00 00 ................
0040FD80 00 00 00 00 00 00 00 00 00 00 00 00 00 00 00 00 ................
0040FD90 00 00 00 00 00 00 00 00 00 00 00 00 00 00 00 00 ................
0040FDA0 00 00 00 00 00 00 00 00 00 00 00 00 00 00 00 00 ................
0040FDB0 00 00 00 00 00 00 00 00 00 00 00 00 00 00 00 00 ................
0040FDC0 00 00 00 00 00 00 00 00 00 00 00 00 00 00 00 00 ................
0040FDD0 00 00 00 00 00 00 00 00 00 00 00 00 00 00 00 00 ................
0040FDE0 00 00 00 00 00 00 00 00 00 00 00 00 00 00 00 00 ................
0040FDF0 00 00 00 00 00 00 00 00 00 00 00 00 00 00 00 00 ................
0040FE00 00 00 00 00 00 00 00 00 00 00 00 00 00 00 00 00 ................
0040FE10 00 00 00 00 00 00 00 00 00 00 00 00 00 00 00 00 ................
0040FE20 00 00 00 00 00 00 00 00 00 00 00 00 00 00 00 00 ................
0040FE30 00 00 00 00 00 00 00 00 00 00 00 00 00 00 00 00 ................
0040FE40 00 00 00 00 00 00 00 00 00 00 00 00 00 00 00 00 ................
0040FE50 00 00 00 00 00 00 00 00 00 00 00 00 00 00 00 00 ................
0040FE60 00 00 00 00 00 00 00 00 00 00 00 00 00 00 00 00 ................
0040FE70 00 00 00 00 00 00 00 00 00 00 00 00 00 00 00 00 ................
0040FE80 00 00 00 00 00 00 00 00 00 00 00 00 00 00 00 00 ................
0040FE90 00 00 00 00 00 00 00 00 00 00 00 00 00 00 00 00 ................
0040FEA0 00 00 00 00 00 00 00 00 00 00 00 00 00 00 00 00 ................
0040FEB0 00 00 00 00 00 00 00 00 00 00 00 00 00 00 00 00 ................
0040FEC0 00 00 00 00 00 00 00 00 00 00 00 00 00 00 00 00 ................
0040FED0 00 00 00 00 00 00 00 00 00 00 00 00 00 00 00 00 ................
0040FEE0 00 00 00 00 00 00 00 00 00 00 00 00 00 00 00 00 ................
0040FEF0 00 00 00 00 00 00 00 00 00 00 00 00 00 00 00 00 ................
0040FF00 00 00 00 00 00 00 00 00 00 00 00 00 00 00 00 00 ................
0040FF10 00 00 00 00 00 00 00 00 00 00 00 00 00 00 00 00 ................
0040FF20 00 00 00 00 00 00 00 00 00 00 00 00 00 00 00 00 ................
0040FF30 00 00 00 00 00 00 00 00 00 00 00 00 00 00 00 00 ................
0040FF40 00 00 00 00 00 00 00 00 00 00 00 00 00 00 00 00 ................
0040FF50 00 00 00 00 00 00 00 00 00 00 00 00 00 00 00 00 ................
0040FF60 00 00 00 00 00 00 00 00 00 00 00 00 00 00 00 00 ................
0040FF70 00 00 00 00 00 00 00 00 00 00 00 00 00 00 00 00 ................
0040FF80 00 00 00 00 00 00 00 00 00 00 00 00 00 00 00 00 ................
0040FF90 00 00 00 00 00 00 00 00 00 00 00 00 00 00 00 00 ................
0040FFA0 00 00 00 00 00 00 00 00 00 00 00 00 00 00 00 00 ................
0040FFB0 00 00 00 00 00 00 00 00 00 00 00 00 00 00 00 00 ................
0040FFC0 00 00 00 00 00 00 00 00 00 00 00 00 00 00 00 00 ................
0040FFD0 00 00 00 00 00 00 00 00 00 00 00 00 00 00 00 00 ................
0040FFE0 00 00 00 00 00 00 00 00 00 00 00 00 00 00 00 00 ................
0040FFF0 00 00 00 00 00 00 00 00 00 00 00 00 00 00 00 00 ................
00410000 00 00 00 00 00 00 00 00 00 00 00 00 00 00 03 00 ................
00410010 03 00 00 00 28 00 00 80 0E 00 00 00 40 00 00 80 ....(.......@...
00410020 10 00 00 00 58 00 00 80 00 00 00 00 00 00 00 00 ....X...........
00410030 00 00 00 00 00 00 01 00 01 00 00 00 70 00 00 80 ............p...
00410040 00 00 00 00 00 00 00 00 00 00 00 00 00 00 01 00 ................
00410050 08 B4 00 00 88 00 00 80 00 00 00 00 00 00 00 00 ................
00410060 00 00 00 00 00 00 01 00 A2 63 00 00 A0 00 00 80 .........c......
00410070 00 00 00 00 00 00 00 00 00 00 00 00 00 00 01 00 ................
00410080 19 04 00 00 B8 00 00 00 00 00 00 00 00 00 00 00 ................
00410090 00 00 00 00 00 00 01 00 19 04 00 00 C8 00 00 00 ................
004100A0 00 00 00 00 00 00 00 00 00 00 00 00 00 00 01 00 ................
004100B0 19 04 00 00 D8 00 00 00 E8 00 01 00 A8 08 00 00 ................
004100C0 00 00 00 00 00 00 00 00 90 09 01 00 14 00 00 00 ................
004100D0 00 00 00 00 00 00 00 00 A4 09 01 00 0C 03 00 00 ................
004100E0 00 00 00 00 00 00 00 00 28 00 00 00 20 00 00 00 ........(... ...
004100F0 40 00 00 00 01 00 08 00 00 00 00 00 00 04 00 00 @...............
00410100 00 00 00 00 00 00 00 00 00 00 00 00 00 00 00 00 ................
00410110 00 00 00 00 00 00 80 00 00 80 00 00 00 80 80 00 ................
00410120 80 00 00 00 80 00 80 00 80 80 00 00 C0 C0 C0 00 ................
00410130 C0 DC C0 00 F0 CA A6 00 00 20 40 00 00 20 60 00 ......... @.. `.
00410140 00 20 80 00 00 20 A0 00 00 20 C0 00 00 20 E0 00 . ... ... ... ..
00410150 00 40 00 00 00 40 20 00 00 40 40 00 00 40 60 00 .@...@ ..@@..@`.
00410160 00 40 80 00 00 40 A0 00 00 40 C0 00 00 40 E0 00 .@...@...@...@..
00410170 00 60 00 00 00 60 20 00 00 60 40 00 00 60 60 00 .`...` ..`@..``.
00410180 00 60 80 00 00 60 A0 00 00 60 C0 00 00 60 E0 00 .`...`...`...`..
00410190 00 80 00 00 00 80 20 00 00 80 40 00 00 80 60 00 ...... ...@...`.
004101A0 00 80 80 00 00 80 A0 00 00 80 C0 00 00 80 E0 00 ................
004101B0 00 A0 00 00 00 A0 20 00 00 A0 40 00 00 A0 60 00 ...... ...@...`.
004101C0 00 A0 80 00 00 A0 A0 00 00 A0 C0 00 00 A0 E0 00 ................
004101D0 00 C0 00 00 00 C0 20 00 00 C0 40 00 00 C0 60 00 ...... ...@...`.
004101E0 00 C0 80 00 00 C0 A0 00 00 C0 C0 00 00 C0 E0 00 ................
004101F0 00 E0 00 00 00 E0 20 00 00 E0 40 00 00 E0 60 00 ...... ...@...`.
00410200 00 E0 80 00 00 E0 A0 00 00 E0 C0 00 00 E0 E0 00 ................
00410210 40 00 00 00 40 00 20 00 40 00 40 00 40 00 60 00 @...@. .@.@.@.`.
00410220 40 00 80 00 40 00 A0 00 40 00 C0 00 40 00 E0 00 @...@...@...@...
00410230 40 20 00 00 40 20 20 00 40 20 40 00 40 20 60 00 @ ..@  .@ @.@ `.
00410240 40 20 80 00 40 20 A0 00 40 20 C0 00 40 20 E0 00 @ ..@ ..@ ..@ ..
00410250 40 40 00 00 40 40 20 00 40 40 40 00 40 40 60 00 @@..@@ .@@@.@@`.
00410260 40 40 80 00 40 40 A0 00 40 40 C0 00 40 40 E0 00 @@..@@..@@..@@..
00410270 40 60 00 00 40 60 20 00 40 60 40 00 40 60 60 00 @`..@` .@`@.@``.
00410280 40 60 80 00 40 60 A0 00 40 60 C0 00 40 60 E0 00 @`..@`..@`..@`..
00410290 40 80 00 00 40 80 20 00 40 80 40 00 40 80 60 00 @...@. .@.@.@.`.
004102A0 40 80 80 00 40 80 A0 00 40 80 C0 00 40 80 E0 00 @...@...@...@...
004102B0 40 A0 00 00 40 A0 20 00 40 A0 40 00 40 A0 60 00 @...@. .@.@.@.`.
004102C0 40 A0 80 00 40 A0 A0 00 40 A0 C0 00 40 A0 E0 00 @...@...@...@...
004102D0 40 C0 00 00 40 C0 20 00 40 C0 40 00 40 C0 60 00 @...@. .@.@.@.`.
004102E0 40 C0 80 00 40 C0 A0 00 40 C0 C0 00 40 C0 E0 00 @...@...@...@...
004102F0 40 E0 00 00 40 E0 20 00 40 E0 40 00 40 E0 60 00 @...@. .@.@.@.`.
00410300 40 E0 80 00 40 E0 A0 00 40 E0 C0 00 40 E0 E0 00 @...@...@...@...
00410310 80 00 00 00 80 00 20 00 80 00 40 00 80 00 60 00 ...... ...@...`.
00410320 80 00 80 00 80 00 A0 00 80 00 C0 00 80 00 E0 00 ................
00410330 80 20 00 00 80 20 20 00 80 20 40 00 80 20 60 00 . ...  .. @.. `.
00410340 80 20 80 00 80 20 A0 00 80 20 C0 00 80 20 E0 00 . ... ... ... ..
00410350 80 40 00 00 80 40 20 00 80 40 40 00 80 40 60 00 .@...@ ..@@..@`.
00410360 80 40 80 00 80 40 A0 00 80 40 C0 00 80 40 E0 00 .@...@...@...@..
00410370 80 60 00 00 80 60 20 00 80 60 40 00 80 60 60 00 .`...` ..`@..``.
00410380 80 60 80 00 80 60 A0 00 80 60 C0 00 80 60 E0 00 .`...`...`...`..
00410390 80 80 00 00 80 80 20 00 80 80 40 00 80 80 60 00 ...... ...@...`.
004103A0 80 80 80 00 80 80 A0 00 80 80 C0 00 80 80 E0 00 ................
004103B0 80 A0 00 00 80 A0 20 00 80 A0 40 00 80 A0 60 00 ...... ...@...`.
004103C0 80 A0 80 00 80 A0 A0 00 80 A0 C0 00 80 A0 E0 00 ................
004103D0 80 C0 00 00 80 C0 20 00 80 C0 40 00 80 C0 60 00 ...... ...@...`.
004103E0 80 C0 80 00 80 C0 A0 00 80 C0 C0 00 80 C0 E0 00 ................
004103F0 80 E0 00 00 80 E0 20 00 80 E0 40 00 80 E0 60 00 ...... ...@...`.
00410400 80 E0 80 00 80 E0 A0 00 80 E0 C0 00 80 E0 E0 00 ................
00410410 C0 00 00 00 C0 00 20 00 C0 00 40 00 C0 00 60 00 ...... ...@...`.
00410420 C0 00 80 00 C0 00 A0 00 C0 00 C0 00 C0 00 E0 00 ................
00410430 C0 20 00 00 C0 20 20 00 C0 20 40 00 C0 20 60 00 . ...  .. @.. `.
00410440 C0 20 80 00 C0 20 A0 00 C0 20 C0 00 C0 20 E0 00 . ... ... ... ..
00410450 C0 40 00 00 C0 40 20 00 C0 40 40 00 C0 40 60 00 .@...@ ..@@..@`.
00410460 C0 40 80 00 C0 40 A0 00 C0 40 C0 00 C0 40 E0 00 .@...@...@...@..
00410470 C0 60 00 00 C0 60 20 00 C0 60 40 00 C0 60 60 00 .`...` ..`@..``.
00410480 C0 60 80 00 C0 60 A0 00 C0 60 C0 00 C0 60 E0 00 .`...`...`...`..
00410490 C0 80 00 00 C0 80 20 00 C0 80 40 00 C0 80 60 00 ...... ...@...`.
004104A0 C0 80 80 00 C0 80 A0 00 C0 80 C0 00 C0 80 E0 00 ................
004104B0 C0 A0 00 00 C0 A0 20 00 C0 A0 40 00 C0 A0 60 00 ...... ...@...`.
004104C0 C0 A0 80 00 C0 A0 A0 00 C0 A0 C0 00 C0 A0 E0 00 ................
004104D0 C0 C0 00 00 C0 C0 20 00 C0 C0 40 00 C0 C0 60 00 ...... ...@...`.
004104E0 C0 C0 80 00 C0 C0 A0 00 F0 FB FF 00 A4 A0 A0 00 ................
004104F0 80 80 80 00 00 00 FF 00 00 FF 00 00 00 FF FF 00 ................
00410500 FF 00 00 00 FF 00 FF 00 FF FF 00 00 FF FF FF 00 ................
00410510 00 00 00 00 00 00 00 00 00 00 00 00 00 00 00 00 ................
00410520 00 00 00 00 00 00 00 00 00 00 00 00 00 00 00 00 ................
00410530 00 00 00 00 00 00 ED A3 9A 9A 92 92 92 92 92 92 ................
00410540 92 92 92 92 92 92 92 92 92 92 92 92 92 92 92 00 ................
00410550 00 00 00 00 00 00 ED F6 07 09 09 09 09 09 09 09 ................
00410560 09 09 EC 09 09 EC EC EC EC EB EB EB EB EB 92 00 ................
00410570 00 00 00 00 00 00 ED F6 F6 F6 F6 F6 F6 F6 F6 F6 ................
00410580 F6 F6 F6 F6 F6 F6 F6 F6 09 09 09 09 09 EB 92 00 ................
00410590 00 00 00 00 00 00 ED F6 F6 F6 F6 F6 F6 F6 F6 F6 ................
004105A0 F6 F6 F6 F6 F6 F6 F6 F6 F6 F6 09 09 09 EB 92 00 ................
004105B0 00 00 00 00 00 00 ED F6 F6 F5 F5 ED ED EC EC EC ................
004105C0 E3 E3 E3 E3 E3 E3 E3 E3 E3 E3 F6 F6 09 EB 92 00 ................
004105D0 00 00 00 00 00 00 ED FF FF F5 FF FF FF F6 EC F6 ................
004105E0 F6 EC FF E3 F6 F6 EC FF E3 F6 F6 F6 F6 EB 92 00 ................
004105F0 00 00 00 00 00 00 ED FF FF F5 FF FF FF FF ED FF ................
00410600 FF EC FF E3 F6 F6 EC FF E3 F6 F6 F6 F6 EC 92 00 ................
00410610 00 00 00 00 00 00 ED FF FF F5 F5 F5 F5 F5 F5 ED ................
00410620 FF EC FF E3 F6 F6 EC FF E3 F6 F6 F6 F6 EC 92 00 ................
00410630 00 00 00 00 00 00 ED FF FF 09 FF FF FF FF F5 FF ................
00410640 FF ED FF E3 EC EC EC FF E3 F6 F6 F6 F6 EC 92 00 ................
00410650 00 00 00 00 00 00 ED FF FF 09 FF FF FF FF F5 FF ................
00410660 FF F5 FF E3 FF FF EC FF E3 F6 F6 F6 F6 EC 92 00 ................
00410670 00 00 00 00 00 00 ED FF FF 09 09 09 09 09 F5 F5 ................
00410680 FF F5 F5 E3 FF FF EC FF E3 F6 F6 F6 F6 EC 92 00 ................
00410690 00 00 00 00 00 00 ED FF FF 09 FF FF FF FF 09 FF ................
004106A0 FF FF FF FF FF FF ED ED E3 F6 F6 F6 F6 09 92 00 ................
004106B0 00 00 00 00 00 00 ED 08 08 ED 07 07 07 ED ED 08 ................
004106C0 FF FF FF F5 FF FF FF FF FF FF F6 F6 F6 09 92 00 ................
004106D0 00 00 00 00 00 00 F7 F7 F5 07 07 08 08 F6 08 ED ................
004106E0 EC 09 F5 F5 F5 F5 F5 F5 ED FF FF F6 F6 EC 92 00 ................
004106F0 00 19 18 AC 08 08 FF FF FF F6 F6 F6 F6 F6 08 07 ................
00410700 F6 FF FF 09 FF FF FF FF F5 FF FF FF F6 09 92 00 ................
00410710 00 19 B5 08 FF FF FF FF F6 F6 B5 1A 1A F6 F6 07 ................
00410720 F6 FF FF 09 FF FF FF FF F5 FF FF FF FF 09 92 00 ................
00410730 00 19 07 AC FF 08 B4 B4 B4 AB 22 1A 6B F6 F6 ED ..........".k...
00410740 F5 09 09 09 09 09 09 F5 F5 FF FF FF FF 09 92 00 ................
00410750 00 19 08 62 FF FF 08 B4 B4 62 1A 6C AB B5 F6 07 ...b.....b.l....
00410760 08 FF FF 09 FF FF FF FF F5 FF FF FF FF 09 92 00 ................
00410770 00 19 08 19 F6 FF FF 08 6B 1A 22 08 FF F6 F6 07 ........k.".....
00410780 08 FF FF 09 FF FF FF FF 09 FF FF FF FF 09 92 00 ................
00410790 00 21 08 19 07 FF FF 08 22 22 6B B4 F5 F6 F6 07 .!......""k.....
004107A0 F5 09 09 09 09 09 09 09 09 FF FF FF FF 09 92 00 ................
004107B0 00 21 08 19 AC FF F6 22 1A B5 F6 B4 B4 B4 F6 08 .!....."........
004107C0 08 FF FF 09 FF FF FF FF 09 FF FF FF FF 09 92 00 ................
004107D0 00 21 08 AC B4 FF 63 62 6C FF FF FF FF FF FF 08 .!....cbl.......
004107E0 08 FF FF 09 FF FF FF FF 07 09 09 09 09 09 92 00 ................
004107F0 00 61 08 B4 B4 FF FF FF FF FF FF FF FF FF FF F6 .a..............
00410800 07 09 09 09 09 09 09 ED A3 A3 9B 9A 9A 9A 92 00 ................
00410810 00 61 08 B5 B4 08 08 08 08 08 08 F5 B5 08 6B FF .a............k.
00410820 FF FF FF FF FF FF FF ED 09 09 09 09 09 92 F6 00 ................
00410830 00 61 B5 F6 B5 B5 B5 B5 B5 B5 B5 B5 B5 F6 61 FF .a............a.
00410840 FF FF FF FF FF FF FF ED F6 F6 09 09 92 F6 F6 00 ................
00410850 00 61 61 08 F6 08 BD BD BD BD BD BD B5 F6 61 F6 .aa...........a.
00410860 09 09 09 FF FF FF FF F5 F6 F6 09 92 F6 F6 00 00 ................
00410870 00 00 61 61 B5 08 F6 F6 F6 F6 F6 F6 F6 F6 61 FF ..aa..........a.
00410880 FF FF FF FF FF FF FF F5 F6 F6 9A F6 F6 00 00 00 ................
00410890 00 00 00 61 61 61 61 61 61 61 61 61 61 61 61 FF ...aaaaaaaaaaaa.
004108A0 FF FF FF FF FF FF FF F5 F6 9B F6 F6 00 00 00 00 ................
004108B0 00 00 00 00 00 00 07 FF FF FF FF FF FF FF FF FF ................
004108C0 FF FF FF FF FF FF FF F5 A4 F6 F6 00 00 00 00 00 ................
004108D0 00 00 00 00 00 00 07 07 07 07 07 F5 F5 F5 F5 F5 ................
004108E0 F5 F5 F5 F5 F5 F5 F5 F5 F6 F6 00 00 00 00 00 00 ................
004108F0 00 00 00 00 00 00 00 00 00 00 00 00 00 00 00 00 ................
00410900 00 00 00 00 00 00 00 00 00 00 00 00 00 00 00 00 ................
00410910 FF FF FF FF FC 00 00 01 FC 00 00 01 FC 00 00 01 ................
00410920 FC 00 00 01 FC 00 00 01 FC 00 00 01 FC 00 00 01 ................
00410930 FC 00 00 01 FC 00 00 01 FC 00 00 01 FC 00 00 01 ................
00410940 FC 00 00 01 C0 00 00 01 C0 00 00 01 80 00 00 01 ................
00410950 80 00 00 01 80 00 00 01 80 00 00 01 80 00 00 01 ................
00410960 80 00 00 01 80 00 00 01 80 00 00 01 80 00 00 01 ................
00410970 80 00 00 01 80 00 00 01 80 00 00 03 C0 00 00 07 ................
00410980 E0 00 00 0F FC 00 00 1F FC 00 00 3F FF FF FF FF ...........?....
00410990 00 00 01 00 01 00 20 20 08 00 00 00 00 00 A8 08 ......  ........
004109A0 00 00 01 00 0C 03 34 00 00 00 56 00 53 00 5F 00 ......4...V.S._.
004109B0 56 00 45 00 52 00 53 00 49 00 4F 00 4E 00 5F 00 V.E.R.S.I.O.N._.
004109C0 49 00 4E 00 46 00 4F 00 00 00 00 00 BD 04 EF FE I.N.F.O.........
004109D0 00 00 01 00 56 B8 28 A3 56 B8 28 A3 56 B8 28 A3 ....V.(.V.(.V.(.
004109E0 56 B8 28 A3 56 B8 00 00 00 00 00 00 04 00 04 00 V.(.V...........
004109F0 01 00 00 00 00 00 00 00 00 00 00 00 00 00 00 00 ................
00410A00 6C 02 00 00 00 00 53 00 74 00 72 00 69 00 6E 00 l.....S.t.r.i.n.
00410A10 67 00 46 00 69 00 6C 00 65 00 49 00 6E 00 66 00 g.F.i.l.e.I.n.f.
00410A20 6F 00 00 00 48 02 00 00 00 00 30 00 38 00 30 00 o...H.....0.8.0.
00410A30 30 00 30 00 34 00 42 00 30 00 00 00 48 00 14 00 0.0.4.B.0...H...
00410A40 01 00 43 00 6F 00 6D 00 70 00 61 00 6E 00 79 00 ..C.o.m.p.a.n.y.
00410A50 4E 00 61 00 6D 00 65 00 00 00 00 00 42 00 77 00 N.a.m.e.....B.w.
00410A60 79 00 57 00 56 00 4D 00 4C 00 45 00 67 00 70 00 y.W.V.M.L.E.g.p.
00410A70 32 00 74 00 78 00 33 00 70 00 6A 00 46 00 6E 00 2.t.x.3.p.j.F.n.
00410A80 73 00 00 00 4C 00 12 00 01 00 46 00 69 00 6C 00 s...L.....F.i.l.
00410A90 65 00 44 00 65 00 73 00 63 00 72 00 69 00 70 00 e.D.e.s.c.r.i.p.
00410AA0 74 00 69 00 6F 00 6E 00 00 00 00 00 6C 00 48 00 t.i.o.n.....l.H.
00410AB0 68 00 66 00 48 00 54 00 64 00 33 00 55 00 4C 00 h.f.H.T.d.3.U.L.
00410AC0 46 00 47 00 35 00 44 00 79 00 41 00 55 00 00 00 F.G.5.D.y.A.U...
00410AD0 48 00 14 00 01 00 46 00 69 00 6C 00 65 00 56 00 H.....F.i.l.e.V.
00410AE0 65 00 72 00 73 00 69 00 6F 00 6E 00 00 00 00 00 e.r.s.i.o.n.....
00410AF0 54 00 63 00 77 00 4D 00 32 00 47 00 42 00 75 00 T.c.w.M.2.G.B.u.
00410B00 77 00 6B 00 38 00 75 00 31 00 50 00 35 00 66 00 w.k.8.u.1.P.5.f.
00410B10 4E 00 74 00 46 00 00 00 48 00 13 00 01 00 49 00 N.t.F...H.....I.
00410B20 6E 00 74 00 65 00 72 00 6E 00 61 00 6C 00 4E 00 n.t.e.r.n.a.l.N.
00410B30 61 00 6D 00 65 00 00 00 69 00 41 00 6E 00 34 00 a.m.e...i.A.n.4.
00410B40 64 00 54 00 47 00 53 00 4F 00 42 00 63 00 53 00 d.T.G.S.O.B.c.S.
00410B50 59 00 58 00 4C 00 59 00 41 00 62 00 00 00 00 00 Y.X.L.Y.A.b.....
00410B60 44 00 10 00 01 00 4C 00 65 00 67 00 61 00 6C 00 D.....L.e.g.a.l.
00410B70 43 00 6F 00 70 00 79 00 72 00 69 00 67 00 68 00 C.o.p.y.r.i.g.h.
00410B80 74 00 00 00 37 00 47 00 51 00 73 00 77 00 6B 00 t...7.G.Q.s.w.k.
00410B90 64 00 55 00 75 00 4D 00 75 00 6A 00 44 00 62 00 d.U.u.M.u.j.D.b.
00410BA0 64 00 00 00 40 00 0C 00 01 00 4F 00 72 00 69 00 d...@.....O.r.i.
00410BB0 67 00 69 00 6E 00 61 00 6C 00 46 00 69 00 6C 00 g.i.n.a.l.F.i.l.
00410BC0 65 00 6E 00 61 00 6D 00 65 00 00 00 75 00 38 00 e.n.a.m.e...u.8.
00410BD0 38 00 67 00 4C 00 62 00 67 00 52 00 53 00 31 00 8.g.L.b.g.R.S.1.
00410BE0 54 00 00 00 40 00 0F 00 01 00 50 00 72 00 6F 00 T...@.....P.r.o.
00410BF0 64 00 75 00 63 00 74 00 4E 00 61 00 6D 00 65 00 d.u.c.t.N.a.m.e.
00410C00 00 00 00 00 64 00 63 00 50 00 65 00 4E 00 48 00 ....d.c.P.e.N.H.
00410C10 33 00 47 00 64 00 75 00 4E 00 34 00 63 00 69 00 3.G.d.u.N.4.c.i.
00410C20 00 00 00 00 48 00 11 00 01 00 50 00 72 00 6F 00 ....H.....P.r.o.
00410C30 64 00 75 00 63 00 74 00 56 00 65 00 72 00 73 00 d.u.c.t.V.e.r.s.
00410C40 69 00 6F 00 6E 00 00 00 77 00 6B 00 4A 00 37 00 i.o.n...w.k.J.7.
00410C50 6C 00 43 00 4B 00 77 00 6C 00 65 00 41 00 4D 00 l.C.K.w.l.e.A.M.
00410C60 32 00 66 00 4A 00 77 00 00 00 00 00 44 00 00 00 2.f.J.w.....D...
00410C70 00 00 56 00 61 00 72 00 46 00 69 00 6C 00 65 00 ..V.a.r.F.i.l.e.
00410C80 49 00 6E 00 66 00 6F 00 00 00 00 00 24 00 04 00 I.n.f.o.....$...
00410C90 00 00 54 00 72 00 61 00 6E 00 73 00 6C 00 61 00 ..T.r.a.n.s.l.a.
00410CA0 74 00 69 00 6F 00 6E 00 00 00 00 00 00 08 B0 04 t.i.o.n.........
00410CB0 00 00 00 00 00 00 00 00 00 00 00 00 00 00 00 00 ................
00410CC0 00 00 00 00 00 00 00 00 00 00 00 00 00 00 00 00 ................
00410CD0 00 00 00 00 00 00 00 00 00 00 00 00 00 00 00 00 ................
00410CE0 00 00 00 00 00 00 00 00 00 00 00 00 00 00 00 00 ................
00410CF0 00 00 00 00 00 00 00 00 00 00 00 00 00 00 00 00 ................
00410D00 00 00 00 00 00 00 00 00 00 00 00 00 00 00 00 00 ................
00410D10 00 00 00 00 00 00 00 00 00 00 00 00 00 00 00 00 ................
00410D20 00 00 00 00 00 00 00 00 00 00 00 00 00 00 00 00 ................
00410D30 00 00 00 00 00 00 00 00 00 00 00 00 00 00 00 00 ................
00410D40 00 00 00 00 00 00 00 00 00 00 00 00 00 00 00 00 ................
00410D50 00 00 00 00 00 00 00 00 00 00 00 00 00 00 00 00 ................
00410D60 00 00 00 00 00 00 00 00 00 00 00 00 00 00 00 00 ................
00410D70 00 00 00 00 00 00 00 00 00 00 00 00 00 00 00 00 ................
00410D80 00 00 00 00 00 00 00 00 00 00 00 00 00 00 00 00 ................
00410D90 00 00 00 00 00 00 00 00 00 00 00 00 00 00 00 00 ................
00410DA0 00 00 00 00 00 00 00 00 00 00 00 00 00 00 00 00 ................
00410DB0 00 00 00 00 00 00 00 00 00 00 00 00 00 00 00 00 ................
00410DC0 00 00 00 00 00 00 00 00 00 00 00 00 00 00 00 00 ................
00410DD0 00 00 00 00 00 00 00 00 00 00 00 00 00 00 00 00 ................
00410DE0 00 00 00 00 00 00 00 00 00 00 00 00 00 00 00 00 ................
00410DF0 00 00 00 00 00 00 00 00 00 00 00 00 00 00 00 00 ................
00410E00 00 00 00 00 00 00 00 00 00 00 00 00 00 00 00 00 ................
00410E10 00 00 00 00 00 00 00 00 00 00 00 00 00 00 00 00 ................
00410E20 00 00 00 00 00 00 00 00 00 00 00 00 00 00 00 00 ................
00410E30 00 00 00 00 00 00 00 00 00 00 00 00 00 00 00 00 ................
00410E40 00 00 00 00 00 00 00 00 00 00 00 00 00 00 00 00 ................
00410E50 00 00 00 00 00 00 00 00 00 00 00 00 00 00 00 00 ................
00410E60 00 00 00 00 00 00 00 00 00 00 00 00 00 00 00 00 ................
00410E70 00 00 00 00 00 00 00 00 00 00 00 00 00 00 00 00 ................
00410E80 00 00 00 00 00 00 00 00 00 00 00 00 00 00 00 00 ................
00410E90 00 00 00 00 00 00 00 00 00 00 00 00 00 00 00 00 ................
00410EA0 00 00 00 00 00 00 00 00 00 00 00 00 00 00 00 00 ................
00410EB0 00 00 00 00 00 00 00 00 00 00 00 00 00 00 00 00 ................
00410EC0 00 00 00 00 00 00 00 00 00 00 00 00 00 00 00 00 ................
00410ED0 00 00 00 00 00 00 00 00 00 00 00 00 00 00 00 00 ................
00410EE0 00 00 00 00 00 00 00 00 00 00 00 00 00 00 00 00 ................
00410EF0 00 00 00 00 00 00 00 00 00 00 00 00 00 00 00 00 ................
00410F00 00 00 00 00 00 00 00 00 00 00 00 00 00 00 00 00 ................
00410F10 00 00 00 00 00 00 00 00 00 00 00 00 00 00 00 00 ................
00410F20 00 00 00 00 00 00 00 00 00 00 00 00 00 00 00 00 ................
00410F30 00 00 00 00 00 00 00 00 00 00 00 00 00 00 00 00 ................
00410F40 00 00 00 00 00 00 00 00 00 00 00 00 00 00 00 00 ................
00410F50 00 00 00 00 00 00 00 00 00 00 00 00 00 00 00 00 ................
00410F60 00 00 00 00 00 00 00 00 00 00 00 00 00 00 00 00 ................
00410F70 00 00 00 00 00 00 00 00 00 00 00 00 00 00 00 00 ................
00410F80 00 00 00 00 00 00 00 00 00 00 00 00 00 00 00 00 ................
00410F90 00 00 00 00 00 00 00 00 00 00 00 00 00 00 00 00 ................
00410FA0 00 00 00 00 00 00 00 00 00 00 00 00 00 00 00 00 ................
00410FB0 00 00 00 00 00 00 00 00 00 00 00 00 00 00 00 00 ................
00410FC0 00 00 00 00 00 00 00 00 00 00 00 00 00 00 00 00 ................
00410FD0 00 00 00 00 00 00 00 00 00 00 00 00 00 00 00 00 ................
00410FE0 00 00 00 00 00 00 00 00 00 00 00 00 00 00 00 00 ................
00410FF0 00 00 00 00 00 00 00 00 00 00 00 00 00 00 00 00 ................
00411000 
...end of image
