00400000 00 00 00 00 00 00 00 00 00 00 00 00 00 00 00 00 ................
00400010 00 00 00 00 00 00 00 00 00 00 00 00 00 00 00 00 ................
00400020 00 00 00 00 00 00 00 00 00 00 00 00 00 00 00 00 ................
00400030 00 00 00 00 00 00 00 00 00 00 00 00 00 00 00 00 ................
00400040 00 00 00 00 00 00 00 00 00 00 00 00 00 00 00 00 ................
00400050 00 00 00 00 00 00 00 00 00 00 00 00 00 00 00 00 ................
00400060 00 00 00 00 00 00 00 00 00 00 00 00 00 00 00 00 ................
00400070 00 00 00 00 00 00 00 00 00 00 00 00 00 00 00 00 ................
00400080 00 00 00 00 00 00 00 00 00 00 00 00 00 00 00 00 ................
00400090 00 00 00 00 00 00 00 00 00 00 00 00 00 00 00 00 ................
004000A0 00 00 00 00 00 00 00 00 00 00 00 00 00 00 00 00 ................
004000B0 00 00 00 00 00 00 00 00 00 00 00 00 00 00 00 00 ................
004000C0 00 00 00 00 00 00 00 00 00 00 00 00 00 00 00 00 ................
004000D0 00 00 00 00 00 00 00 00 00 00 00 00 00 00 00 00 ................
004000E0 00 00 00 00 00 00 00 00 00 00 00 00 00 00 00 00 ................
004000F0 00 00 00 00 00 00 00 00 00 00 00 00 00 00 00 00 ................
00400100 00 00 00 00 00 00 00 00 00 00 00 00 00 00 00 00 ................
00400110 00 00 00 00 00 00 00 00 00 00 00 00 00 00 00 00 ................
00400120 00 00 00 00 00 00 00 00 00 00 00 00 00 00 00 00 ................
00400130 00 00 00 00 00 00 00 00 00 00 00 00 00 00 00 00 ................
00400140 00 00 00 00 00 00 00 00 00 00 00 00 00 00 00 00 ................
00400150 00 00 00 00 00 00 00 00 00 00 00 00 00 00 00 00 ................
00400160 00 00 00 00 00 00 00 00 00 00 00 00 00 00 00 00 ................
00400170 00 00 00 00 00 00 00 00 00 00 00 00 00 00 00 00 ................
00400180 00 00 00 00 00 00 00 00 00 00 00 00 00 00 00 00 ................
00400190 00 00 00 00 00 00 00 00 00 00 00 00 00 00 00 00 ................
004001A0 00 00 00 00 00 00 00 00 00 00 00 00 00 00 00 00 ................
004001B0 00 00 00 00 00 00 00 00 00 00 00 00 00 00 00 00 ................
004001C0 00 00 00 00 00 00 00 00 00 00 00 00 00 00 00 00 ................
004001D0 00 00 00 00 00 00 00 00 00 00 00 00 00 00 00 00 ................
004001E0 00 00 00 00 00 00 00 00 00 00 00 00 00 00 00 00 ................
004001F0 00 00 00 00 00 00 00 00 00 00 00 00 00 00 00 00 ................
00400200 00 00 00 00 00 00 00 00 00 00 00 00 00 00 00 00 ................
00400210 00 00 00 00 00 00 00 00 00 00 00 00 00 00 00 00 ................
00400220 00 00 00 00 00 00 00 00 00 00 00 00 00 00 00 00 ................
00400230 00 00 00 00 00 00 00 00 00 00 00 00 00 00 00 00 ................
00400240 00 00 00 00 00 00 00 00 00 00 00 00 00 00 00 00 ................
00400250 00 00 00 00 00 00 00 00 00 00 00 00 00 00 00 00 ................
00400260 00 00 00 00 00 00 00 00 00 00 00 00 00 00 00 00 ................
00400270 00 00 00 00 00 00 00 00 00 00 00 00 00 00 00 00 ................
00400280 00 00 00 00 00 00 00 00 00 00 00 00 00 00 00 00 ................
00400290 00 00 00 00 00 00 00 00 00 00 00 00 00 00 00 00 ................
004002A0 00 00 00 00 00 00 00 00 00 00 00 00 00 00 00 00 ................
004002B0 00 00 00 00 00 00 00 00 00 00 00 00 00 00 00 00 ................
004002C0 00 00 00 00 00 00 00 00 00 00 00 00 00 00 00 00 ................
004002D0 00 00 00 00 00 00 00 00 00 00 00 00 00 00 00 00 ................
004002E0 00 00 00 00 00 00 00 00 00 00 00 00 00 00 00 00 ................
004002F0 00 00 00 00 00 00 00 00 00 00 00 00 00 00 00 00 ................
00400300 00 00 00 00 00 00 00 00 00 00 00 00 00 00 00 00 ................
00400310 00 00 00 00 00 00 00 00 00 00 00 00 00 00 00 00 ................
00400320 00 00 00 00 00 00 00 00 00 00 00 00 00 00 00 00 ................
00400330 00 00 00 00 00 00 00 00 00 00 00 00 00 00 00 00 ................
00400340 00 00 00 00 00 00 00 00 00 00 00 00 00 00 00 00 ................
00400350 00 00 00 00 00 00 00 00 00 00 00 00 00 00 00 00 ................
00400360 00 00 00 00 00 00 00 00 00 00 00 00 00 00 00 00 ................
00400370 00 00 00 00 00 00 00 00 00 00 00 00 00 00 00 00 ................
00400380 00 00 00 00 00 00 00 00 00 00 00 00 00 00 00 00 ................
00400390 00 00 00 00 00 00 00 00 00 00 00 00 00 00 00 00 ................
004003A0 00 00 00 00 00 00 00 00 00 00 00 00 00 00 00 00 ................
004003B0 00 00 00 00 00 00 00 00 00 00 00 00 00 00 00 00 ................
004003C0 00 00 00 00 00 00 00 00 00 00 00 00 00 00 00 00 ................
004003D0 00 00 00 00 00 00 00 00 00 00 00 00 00 00 00 00 ................
004003E0 00 00 00 00 00 00 00 00 00 00 00 00 00 00 00 00 ................
004003F0 00 00 00 00 00 00 00 00 00 00 00 00 00 00 00 00 ................
00400400 00 00 00 00 00 00 00 00 00 00 00 00 00 00 00 00 ................
00400410 00 00 00 00 00 00 00 00 00 00 00 00 00 00 00 00 ................
00400420 00 00 00 00 00 00 00 00 00 00 00 00 00 00 00 00 ................
00400430 00 00 00 00 00 00 00 00 00 00 00 00 00 00 00 00 ................
00400440 00 00 00 00 00 00 00 00 00 00 00 00 00 00 00 00 ................
00400450 00 00 00 00 00 00 00 00 00 00 00 00 00 00 00 00 ................
00400460 00 00 00 00 00 00 00 00 00 00 00 00 00 00 00 00 ................
00400470 00 00 00 00 00 00 00 00 00 00 00 00 00 00 00 00 ................
00400480 00 00 00 00 00 00 00 00 00 00 00 00 00 00 00 00 ................
00400490 00 00 00 00 00 00 00 00 00 00 00 00 00 00 00 00 ................
004004A0 00 00 00 00 00 00 00 00 00 00 00 00 00 00 00 00 ................
004004B0 00 00 00 00 00 00 00 00 00 00 00 00 00 00 00 00 ................
004004C0 00 00 00 00 00 00 00 00 00 00 00 00 00 00 00 00 ................
004004D0 00 00 00 00 00 00 00 00 00 00 00 00 00 00 00 00 ................
004004E0 00 00 00 00 00 00 00 00 00 00 00 00 00 00 00 00 ................
004004F0 00 00 00 00 00 00 00 00 00 00 00 00 00 00 00 00 ................
00400500 00 00 00 00 00 00 00 00 00 00 00 00 00 00 00 00 ................
00400510 00 00 00 00 00 00 00 00 00 00 00 00 00 00 00 00 ................
00400520 00 00 00 00 00 00 00 00 00 00 00 00 00 00 00 00 ................
00400530 00 00 00 00 00 00 00 00 00 00 00 00 00 00 00 00 ................
00400540 00 00 00 00 00 00 00 00 00 00 00 00 00 00 00 00 ................
00400550 00 00 00 00 00 00 00 00 00 00 00 00 00 00 00 00 ................
00400560 00 00 00 00 00 00 00 00 00 00 00 00 00 00 00 00 ................
00400570 00 00 00 00 00 00 00 00 00 00 00 00 00 00 00 00 ................
00400580 00 00 00 00 00 00 00 00 00 00 00 00 00 00 00 00 ................
00400590 00 00 00 00 00 00 00 00 00 00 00 00 00 00 00 00 ................
004005A0 00 00 00 00 00 00 00 00 00 00 00 00 00 00 00 00 ................
004005B0 00 00 00 00 00 00 00 00 00 00 00 00 00 00 00 00 ................
004005C0 00 00 00 00 00 00 00 00 00 00 00 00 00 00 00 00 ................
004005D0 00 00 00 00 00 00 00 00 00 00 00 00 00 00 00 00 ................
004005E0 00 00 00 00 00 00 00 00 00 00 00 00 00 00 00 00 ................
004005F0 00 00 00 00 00 00 00 00 00 00 00 00 00 00 00 00 ................
00400600 00 00 00 00 00 00 00 00 00 00 00 00 00 00 00 00 ................
00400610 00 00 00 00 00 00 00 00 00 00 00 00 00 00 00 00 ................
00400620 00 00 00 00 00 00 00 00 00 00 00 00 00 00 00 00 ................
00400630 00 00 00 00 00 00 00 00 00 00 00 00 00 00 00 00 ................
00400640 00 00 00 00 00 00 00 00 00 00 00 00 00 00 00 00 ................
00400650 00 00 00 00 00 00 00 00 00 00 00 00 00 00 00 00 ................
00400660 00 00 00 00 00 00 00 00 00 00 00 00 00 00 00 00 ................
00400670 00 00 00 00 00 00 00 00 00 00 00 00 00 00 00 00 ................
00400680 00 00 00 00 00 00 00 00 00 00 00 00 00 00 00 00 ................
00400690 00 00 00 00 00 00 00 00 00 00 00 00 00 00 00 00 ................
004006A0 00 00 00 00 00 00 00 00 00 00 00 00 00 00 00 00 ................
004006B0 00 00 00 00 00 00 00 00 00 00 00 00 00 00 00 00 ................
004006C0 00 00 00 00 00 00 00 00 00 00 00 00 00 00 00 00 ................
004006D0 00 00 00 00 00 00 00 00 00 00 00 00 00 00 00 00 ................
004006E0 00 00 00 00 00 00 00 00 00 00 00 00 00 00 00 00 ................
004006F0 00 00 00 00 00 00 00 00 00 00 00 00 00 00 00 00 ................
00400700 00 00 00 00 00 00 00 00 00 00 00 00 00 00 00 00 ................
00400710 00 00 00 00 00 00 00 00 00 00 00 00 00 00 00 00 ................
00400720 00 00 00 00 00 00 00 00 00 00 00 00 00 00 00 00 ................
00400730 00 00 00 00 00 00 00 00 00 00 00 00 00 00 00 00 ................
00400740 00 00 00 00 00 00 00 00 00 00 00 00 00 00 00 00 ................
00400750 00 00 00 00 00 00 00 00 00 00 00 00 00 00 00 00 ................
00400760 00 00 00 00 00 00 00 00 00 00 00 00 00 00 00 00 ................
00400770 00 00 00 00 00 00 00 00 00 00 00 00 00 00 00 00 ................
00400780 00 00 00 00 00 00 00 00 00 00 00 00 00 00 00 00 ................
00400790 00 00 00 00 00 00 00 00 00 00 00 00 00 00 00 00 ................
004007A0 00 00 00 00 00 00 00 00 00 00 00 00 00 00 00 00 ................
004007B0 00 00 00 00 00 00 00 00 00 00 00 00 00 00 00 00 ................
004007C0 00 00 00 00 00 00 00 00 00 00 00 00 00 00 00 00 ................
004007D0 00 00 00 00 00 00 00 00 00 00 00 00 00 00 00 00 ................
004007E0 00 00 00 00 00 00 00 00 00 00 00 00 00 00 00 00 ................
004007F0 00 00 00 00 00 00 00 00 00 00 00 00 00 00 00 00 ................
00400800 00 00 00 00 00 00 00 00 00 00 00 00 00 00 00 00 ................
00400810 00 00 00 00 00 00 00 00 00 00 00 00 00 00 00 00 ................
00400820 00 00 00 00 00 00 00 00 00 00 00 00 00 00 00 00 ................
00400830 00 00 00 00 00 00 00 00 00 00 00 00 00 00 00 00 ................
00400840 00 00 00 00 00 00 00 00 00 00 00 00 00 00 00 00 ................
00400850 00 00 00 00 00 00 00 00 00 00 00 00 00 00 00 00 ................
00400860 00 00 00 00 00 00 00 00 00 00 00 00 00 00 00 00 ................
00400870 00 00 00 00 00 00 00 00 00 00 00 00 00 00 00 00 ................
00400880 00 00 00 00 00 00 00 00 00 00 00 00 00 00 00 00 ................
00400890 00 00 00 00 00 00 00 00 00 00 00 00 00 00 00 00 ................
004008A0 00 00 00 00 00 00 00 00 00 00 00 00 00 00 00 00 ................
004008B0 00 00 00 00 00 00 00 00 00 00 00 00 00 00 00 00 ................
004008C0 00 00 00 00 00 00 00 00 00 00 00 00 00 00 00 00 ................
004008D0 00 00 00 00 00 00 00 00 00 00 00 00 00 00 00 00 ................
004008E0 00 00 00 00 00 00 00 00 00 00 00 00 00 00 00 00 ................
004008F0 00 00 00 00 00 00 00 00 00 00 00 00 00 00 00 00 ................
00400900 00 00 00 00 00 00 00 00 00 00 00 00 00 00 00 00 ................
00400910 00 00 00 00 00 00 00 00 00 00 00 00 00 00 00 00 ................
00400920 00 00 00 00 00 00 00 00 00 00 00 00 00 00 00 00 ................
00400930 00 00 00 00 00 00 00 00 00 00 00 00 00 00 00 00 ................
00400940 00 00 00 00 00 00 00 00 00 00 00 00 00 00 00 00 ................
00400950 00 00 00 00 00 00 00 00 00 00 00 00 00 00 00 00 ................
00400960 00 00 00 00 00 00 00 00 00 00 00 00 00 00 00 00 ................
00400970 00 00 00 00 00 00 00 00 00 00 00 00 00 00 00 00 ................
00400980 00 00 00 00 00 00 00 00 00 00 00 00 00 00 00 00 ................
00400990 00 00 00 00 00 00 00 00 00 00 00 00 00 00 00 00 ................
004009A0 00 00 00 00 00 00 00 00 00 00 00 00 00 00 00 00 ................
004009B0 00 00 00 00 00 00 00 00 00 00 00 00 00 00 00 00 ................
004009C0 00 00 00 00 00 00 00 00 00 00 00 00 00 00 00 00 ................
004009D0 00 00 00 00 00 00 00 00 00 00 00 00 00 00 00 00 ................
004009E0 00 00 00 00 00 00 00 00 00 00 00 00 00 00 00 00 ................
004009F0 00 00 00 00 00 00 00 00 00 00 00 00 00 00 00 00 ................
00400A00 00 00 00 00 00 00 00 00 00 00 00 00 00 00 00 00 ................
00400A10 00 00 00 00 00 00 00 00 00 00 00 00 00 00 00 00 ................
00400A20 00 00 00 00 00 00 00 00 00 00 00 00 00 00 00 00 ................
00400A30 00 00 00 00 00 00 00 00 00 00 00 00 00 00 00 00 ................
00400A40 00 00 00 00 00 00 00 00 00 00 00 00 00 00 00 00 ................
00400A50 00 00 00 00 00 00 00 00 00 00 00 00 00 00 00 00 ................
00400A60 00 00 00 00 00 00 00 00 00 00 00 00 00 00 00 00 ................
00400A70 00 00 00 00 00 00 00 00 00 00 00 00 00 00 00 00 ................
00400A80 00 00 00 00 00 00 00 00 00 00 00 00 00 00 00 00 ................
00400A90 00 00 00 00 00 00 00 00 00 00 00 00 00 00 00 00 ................
00400AA0 00 00 00 00 00 00 00 00 00 00 00 00 00 00 00 00 ................
00400AB0 00 00 00 00 00 00 00 00 00 00 00 00 00 00 00 00 ................
00400AC0 00 00 00 00 00 00 00 00 00 00 00 00 00 00 00 00 ................
00400AD0 00 00 00 00 00 00 00 00 00 00 00 00 00 00 00 00 ................
00400AE0 00 00 00 00 00 00 00 00 00 00 00 00 00 00 00 00 ................
00400AF0 00 00 00 00 00 00 00 00 00 00 00 00 00 00 00 00 ................
00400B00 00 00 00 00 00 00 00 00 00 00 00 00 00 00 00 00 ................
00400B10 00 00 00 00 00 00 00 00 00 00 00 00 00 00 00 00 ................
00400B20 00 00 00 00 00 00 00 00 00 00 00 00 00 00 00 00 ................
00400B30 00 00 00 00 00 00 00 00 00 00 00 00 00 00 00 00 ................
00400B40 00 00 00 00 00 00 00 00 00 00 00 00 00 00 00 00 ................
00400B50 00 00 00 00 00 00 00 00 00 00 00 00 00 00 00 00 ................
00400B60 00 00 00 00 00 00 00 00 00 00 00 00 00 00 00 00 ................
00400B70 00 00 00 00 00 00 00 00 00 00 00 00 00 00 00 00 ................
00400B80 00 00 00 00 00 00 00 00 00 00 00 00 00 00 00 00 ................
00400B90 00 00 00 00 00 00 00 00 00 00 00 00 00 00 00 00 ................
00400BA0 00 00 00 00 00 00 00 00 00 00 00 00 00 00 00 00 ................
00400BB0 00 00 00 00 00 00 00 00 00 00 00 00 00 00 00 00 ................
00400BC0 00 00 00 00 00 00 00 00 00 00 00 00 00 00 00 00 ................
00400BD0 00 00 00 00 00 00 00 00 00 00 00 00 00 00 00 00 ................
00400BE0 00 00 00 00 00 00 00 00 00 00 00 00 00 00 00 00 ................
00400BF0 00 00 00 00 00 00 00 00 00 00 00 00 00 00 00 00 ................
00400C00 00 00 00 00 00 00 00 00 00 00 00 00 00 00 00 00 ................
00400C10 00 00 00 00 00 00 00 00 00 00 00 00 00 00 00 00 ................
00400C20 00 00 00 00 00 00 00 00 00 00 00 00 00 00 00 00 ................
00400C30 00 00 00 00 00 00 00 00 00 00 00 00 00 00 00 00 ................
00400C40 00 00 00 00 00 00 00 00 00 00 00 00 00 00 00 00 ................
00400C50 00 00 00 00 00 00 00 00 00 00 00 00 00 00 00 00 ................
00400C60 00 00 00 00 00 00 00 00 00 00 00 00 00 00 00 00 ................
00400C70 00 00 00 00 00 00 00 00 00 00 00 00 00 00 00 00 ................
00400C80 00 00 00 00 00 00 00 00 00 00 00 00 00 00 00 00 ................
00400C90 00 00 00 00 00 00 00 00 00 00 00 00 00 00 00 00 ................
00400CA0 00 00 00 00 00 00 00 00 00 00 00 00 00 00 00 00 ................
00400CB0 00 00 00 00 00 00 00 00 00 00 00 00 00 00 00 00 ................
00400CC0 00 00 00 00 00 00 00 00 00 00 00 00 00 00 00 00 ................
00400CD0 00 00 00 00 00 00 00 00 00 00 00 00 00 00 00 00 ................
00400CE0 00 00 00 00 00 00 00 00 00 00 00 00 00 00 00 00 ................
00400CF0 00 00 00 00 00 00 00 00 00 00 00 00 00 00 00 00 ................
00400D00 00 00 00 00 00 00 00 00 00 00 00 00 00 00 00 00 ................
00400D10 00 00 00 00 00 00 00 00 00 00 00 00 00 00 00 00 ................
00400D20 00 00 00 00 00 00 00 00 00 00 00 00 00 00 00 00 ................
00400D30 00 00 00 00 00 00 00 00 00 00 00 00 00 00 00 00 ................
00400D40 00 00 00 00 00 00 00 00 00 00 00 00 00 00 00 00 ................
00400D50 00 00 00 00 00 00 00 00 00 00 00 00 00 00 00 00 ................
00400D60 00 00 00 00 00 00 00 00 00 00 00 00 00 00 00 00 ................
00400D70 00 00 00 00 00 00 00 00 00 00 00 00 00 00 00 00 ................
00400D80 00 00 00 00 00 00 00 00 00 00 00 00 00 00 00 00 ................
00400D90 00 00 00 00 00 00 00 00 00 00 00 00 00 00 00 00 ................
00400DA0 00 00 00 00 00 00 00 00 00 00 00 00 00 00 00 00 ................
00400DB0 00 00 00 00 00 00 00 00 00 00 00 00 00 00 00 00 ................
00400DC0 00 00 00 00 00 00 00 00 00 00 00 00 00 00 00 00 ................
00400DD0 00 00 00 00 00 00 00 00 00 00 00 00 00 00 00 00 ................
00400DE0 00 00 00 00 00 00 00 00 00 00 00 00 00 00 00 00 ................
00400DF0 00 00 00 00 00 00 00 00 00 00 00 00 00 00 00 00 ................
00400E00 00 00 00 00 00 00 00 00 00 00 00 00 00 00 00 00 ................
00400E10 00 00 00 00 00 00 00 00 00 00 00 00 00 00 00 00 ................
00400E20 00 00 00 00 00 00 00 00 00 00 00 00 00 00 00 00 ................
00400E30 00 00 00 00 00 00 00 00 00 00 00 00 00 00 00 00 ................
00400E40 00 00 00 00 00 00 00 00 00 00 00 00 00 00 00 00 ................
00400E50 00 00 00 00 00 00 00 00 00 00 00 00 00 00 00 00 ................
00400E60 00 00 00 00 00 00 00 00 00 00 00 00 00 00 00 00 ................
00400E70 00 00 00 00 00 00 00 00 00 00 00 00 00 00 00 00 ................
00400E80 00 00 00 00 00 00 00 00 00 00 00 00 00 00 00 00 ................
00400E90 00 00 00 00 00 00 00 00 00 00 00 00 00 00 00 00 ................
00400EA0 00 00 00 00 00 00 00 00 00 00 00 00 00 00 00 00 ................
00400EB0 00 00 00 00 00 00 00 00 00 00 00 00 00 00 00 00 ................
00400EC0 00 00 00 00 00 00 00 00 00 00 00 00 00 00 00 00 ................
00400ED0 00 00 00 00 00 00 00 00 00 00 00 00 00 00 00 00 ................
00400EE0 00 00 00 00 00 00 00 00 00 00 00 00 00 00 00 00 ................
00400EF0 00 00 00 00 00 00 00 00 00 00 00 00 00 00 00 00 ................
00400F00 00 00 00 00 00 00 00 00 00 00 00 00 00 00 00 00 ................
00400F10 00 00 00 00 00 00 00 00 00 00 00 00 00 00 00 00 ................
00400F20 00 00 00 00 00 00 00 00 00 00 00 00 00 00 00 00 ................
00400F30 00 00 00 00 00 00 00 00 00 00 00 00 00 00 00 00 ................
00400F40 00 00 00 00 00 00 00 00 00 00 00 00 00 00 00 00 ................
00400F50 00 00 00 00 00 00 00 00 00 00 00 00 00 00 00 00 ................
00400F60 00 00 00 00 00 00 00 00 00 00 00 00 00 00 00 00 ................
00400F70 00 00 00 00 00 00 00 00 00 00 00 00 00 00 00 00 ................
00400F80 00 00 00 00 00 00 00 00 00 00 00 00 00 00 00 00 ................
00400F90 00 00 00 00 00 00 00 00 00 00 00 00 00 00 00 00 ................
00400FA0 00 00 00 00 00 00 00 00 00 00 00 00 00 00 00 00 ................
00400FB0 00 00 00 00 00 00 00 00 00 00 00 00 00 00 00 00 ................
00400FC0 00 00 00 00 00 00 00 00 00 00 00 00 00 00 00 00 ................
00400FD0 00 00 00 00 00 00 00 00 00 00 00 00 00 00 00 00 ................
00400FE0 00 00 00 00 00 00 00 00 00 00 00 00 00 00 00 00 ................
00400FF0 00 00 00 00 00 00 00 00 00 00 00 00 00 00 00 00 ................
00401000 20 42 E9 EB 7F FE                                B....         

fn00401006()
	lea	esp,[esp+04]
	dec	edi
	dec	edi
	dec	esi
	mov	ebx,esi
	mov	edi,ebx
	xor	ebx,edi
	inc	esi
	jmp	004010B4
00401019                            AC 27 F6 4F                   .'.O  

fn0040101D()
	pop	dword ptr [esp-14]
	mov	ebx,ecx
	xor	ebx,edi
	add	edi,ebx
	sub	esi,eax
	sub	esi,edx
	dec	ebx
	leave	
	xor	ecx,esi
	inc	eax
	jmp	00401139
00401035                1B 69 FA 44                           .i.D      

l00401039:
	mov	edi,edx
	or	ebx,eax
	mov	ebx,edx
	dec	edi
	dec	edi
	mov	ebx,edx
	xor	esi,ebx
	add	ebx,eax
	inc	ebx
	call	00401006
	or	eax,AF870F36
	illegal	

fn00401053()
	xor	edx,ebx
	dec	esi
	inc	esi
	add	ecx,edx
	jmp	0040114D

fn0040105E()
	push	ebp
	mov	ebp,esp
	add	ebx,edi
	add	edi,edx
	or	edi,edx
	sub	ebx,edi
	inc	ebx
	xor	edi,edx
	xor	edi,ebx
	or	esi,edi
	xor	edi,esi
	jmp	00401039
00401074             29 7B FC 20 8B E2 29                    ){. ..)    

fn0040107B()
	lea	esp,[esp+04]
	or	esi,eax
	neg	bl
	add	bh,dl
	sub	bl,cl
	mov	bl,BD
	dec	esi
	add	bh,bl
	mov	esi,edx
	call	00401097
	sbb	esi,eax
	les	ebx,[edi]

fn00401097()
	pop	dword ptr [esp-28]
	dec	ebx
	xor	bl,dl
	sub	bl,al
	mov	bl,dh
	or	ebx,edx
	sub	ebx,edi
	or	bl,cl
	call	0040111F
	pop	ds
	pop	ecx
	cmp	ebx,[edx-7A]
	or	ebp,[edx+ebp+0AF90BD9]

l004010B4:
	sub	bl,cl
	or	edi,ecx
	or	bh,al
	add	edi,ebx
	dec	ebx
	xor	edi,ecx
	call	0040107B
	mov	dword ptr [esi+494C320C],4E4F9B47
	or	ebx,edi
	add	esi,edx
	xor	esi,ebx
	dec	esi
	call	0040101D
	in	eax,71
	xor	ecx,[edi+33D90B43]

fn004010DE()
	inc	ebx
	or	ebx,ecx
	xor	eax,edx

fn004010E2()
	ret	D633
004010E5                47 33 FE EB 05                        G3...     
004010EA                               06 CE 44 A5 5C              ..D.\

l004010EF:
	sub	ebx,edi
	xor	ebx,eax
	dec	ebx
	dec	eax
	dec	edx
	dec	esi
	sub	edx,esi
	inc	esi
	jmp	00401053
004010FF                                              98                .
00401100 62 7C 9C 8D 64 24 04 47 2A DE 8A FB 33 F0 8B D9 b|..d$.G*...3...
00401110 2A DF 8B F1 8A DD EB B4 E7 E0 5C 64 B3 13 8C    *.........\d...

fn0040111F()
	xchg	[esp],ecx
	jmp	00401127

l00401127:
	rep	
	pop	ecx
	add	bh,ah
	or	edi,ecx
	sub	edi,esi
	call	00401103
	add	dword ptr [edx+71],8B4A0954

fn00401139()
	dec	edx
	mov	eax,ebx
	xor	edx,eax
	inc	ecx
	xor	ebx,edi
	or	edx,ebx
	jbe	004010DE

l00401145:
	rep	
	ja	004010DE
	insb	
	push	ebx
	mov	dword ptr [eax+4B],000EBEE8

fn0040114D()
	call	00402010
	push	esi
	xchg	eax,edi
	lds	ecx,esi
	lodsd	
	shl	dword ptr [21D7E235],E2
	pushf	
	movsb	
	js	0040112D
	movsd	
	adc	ebp,esp
	mov	al,[DBDE1D1D]
	and	esp,[edx]
	movsb	
	pop	esi
	frstor	word ptr [ebx]
	sbb	eax,11FEE21D
	cld	
	mov	[4F9A1D1D],al
	xchg	eax,edi
	nop	
	ret	2B36
	inc	ebp
	xchg	eax,ecx
	or	[ecx+851C1D1D],ah
	loop	00401149
	and	[ecx],eax
	jle	004011AF
	sbb	eax,1EA811C7
	sbb	eax,CE68021D
	sbb	ch,bl
	sbb	[esi-6B],edi
	push	ecx
	cmpsb	
	illegal	
	mov	[F79145F5],al
	mov	eax,[851C1D1D]
	jcxz	0040116B
	xchg	eax,ebp
	inc	ebp
	jcxz	0040116F
	xchg	eax,edi
	inc	ebp
	push	edx
	sbb	eax,CA111D52
	mov	al,[B9351D1D]
	sbb	[ecx+611BA37A],al
	push	ecx
	add	dword ptr [ebx+BFE48383],95
	push	ecx
	sbb	eax,E41D1D38
	mov	edi,381D5191
	sbb	eax,8FBFE41D
	push	ecx
	jno	00401234
	stosd	
	out	E4,al
	mov	edi,1EBB1193
	sbb	eax,B7ED1B1D
	mov	ch,91
	int	03
	inc	eax
	mov	byte ptr [eax-38],E2
	mov	edi,3B3D9E21
	loop	004011C1
	and	edx,esp
	cmp	eax,117E9E59
	in	al,dx
	lahf	
	sbb	eax,11E1081D
	jmp	004011C5
	sbb	eax,D61D1DDB
	and	bl,[ebp-65]
	lahf	
	illegal	
	and	dh,bl
	cdq	
	fcomp	st(0),st(0)
	push	ds
	mov	ebp,8A11E7BD
	push	ds
	sbb	eax,521D711D
	arpl	[esi+39D61C82],bx
	sbb	al,D6
	sub	ebx,[esi+edx*8]
	sub	edx,[ecx+1D1DA246]
	xchg	eax,ecx
	inc	edi
	sbb	al,1C
	sbb	al,91
	fistp	word ptr [esi]
	sbb	eax,9DE6111D
	sbb	eax,30ADF61D
	nop	
	lodsd	
	xchg	eax,ebp
	dec	esp
	push	edx
	popf	
	jcxz	0040120F
	cdq	
	inc	ebp
	jcxz	00401213
	xchg	eax,edi
	inc	ebp
	push	ecx
	popa	
	int	03
	dec	ebp
	lea	edx,[ecx+1D1D1F8C]
	adc	[ecx],edi
	sbb	al,1C
	sbb	al,CD
	lodsw	
	mov	[ebx+ebx*2],cl
	pop	edi
	rep	
	mov	dl,5B
	das	
	xor	ecx,esp
	pop	ebx
	das	
	sub	ecx,ebp
	add	[esi+21],edi
	sbb	eax,919BD71C
	jnz	004012A1
	sbb	eax,1F9A111D
	sbb	eax,21BF9E1D
	jcxz	004012C9
	push	ds
	inc	ebp
	sbb	al,D7
	wait	
	xchg	eax,ecx
	imul	esp,[ecx],1D
	sbb	eax,1D1F9011
	sbb	eax,C3A5DB6F
	cmpsb	
	cmp	edi,[ecx+C637551C]
	xchg	eax,ecx
	sub	eax,CA1D1D1D
	stc	
	sbb	eax,E21D1D25
	mov	dword ptr [ecx+1183BFE2],1D1D202B
	enter	10FE,3B
	mov	ebp,4CCCC892
	retf	7E01
	pop	ds
	sbb	eax,A18811C7
	sbb	eax,DBF4C21D
	add	al,21
	push	FE
	mov	dh,01
	mov	ebp,1DA23991
	sbb	eax,B59101A6
	mov	[96561D1D],al
	illegal	
	pop	esp
	sbb	al,1C
	sbb	al,49
	xchg	eax,ebx
	sub	eax,339FFFBF
	jcxz	004012B7
	cdq	
	inc	ebp
	push	ecx
	popa	
	int	03
	dec	ebp
	lea	edx,[ecx+1D1D1F3A]
	push	ecx
	dec	esp
	jg	00401320
	xchg	eax,esp
	inc	ebp
	xchg	eax,ecx
	inc	esp
	and	[11851C1D],ebx
	cmp	[esp+ebx],bl
	sbb	al,63
	mov	dl,93
	cmp	eax,[esp+esi]
	daa	
	mov	byte ptr [ecx+1D1D9E91],18
	mov	edi,1D1D219B
	sbb	eax,9FDC5FA4
	sbb	eax,95D71C1D
	sbb	al,D7
	xchg	eax,edi
	sbb	al,D7
	pop	esi
	xchg	eax,ecx
	cmp	al,9E
	sbb	eax,9F51111D
	sbb	eax,0838561D
	and	al,ch
	push	esi
	bsr	edi,[edx+5EA49BC3]
	clc	
	push	ds
	sbb	eax,CA4CCC1D
	add	[ecx],edx
	mov	ebx,[esi+C9181D1D]
	test	ebx,ecx
	cmpsb	
	add	[ecx],edx
	jnz	00401304
	sbb	al,1C
	in	eax,41
	std	
	lea	esp,[ecx]
	jnc	00401302
	into	
	sbb	al,1C
	sbb	al,11
	in	al,9C
	sbb	al,1C
	imul	ebp,[edx+ebp*8-19],E2308552
	retf	E223
	mov	byte ptr [ebx],E2
	illegal	
	and	edx,[edx]
	lahf	
	adc	[edx+E21D1D9D],ebp
	inc	eax
	sub	edi,[edx+24DFA400]
	popf	
	sbb	eax,21D71C1D
	adc	[edx],ebx
	sbb	eax,BB471D1D
	push	es
	or	[edx+esi*4+93E28C9D],ecx
	push	ecx
	sbb	eax,E31D1D5D
	mov	edi,BFE34523
	and	[ebp+52],eax
	sbb	al,51
	popa	
	int	03
	dec	ebp
	lea	edx,[ecx+1D1D9ED8]
	push	ecx
	repne	
	push	ecx
	sahf	
	xchg	eax,edi
	adc	ecx,ebp
	and	[25F5681D],ebx
	and	bl,ah
	illegal	
	loope	00401399
	lea	ecx,[edi-1E]
	mov	[1D1D1D35],eax
	loope	004013A1
	and	[edi+edx*8],ebx
	mov	ebx,[edi+edx*8]
	lea	edx,[ecx+1D1DA01E]
	loop	004013BD
	xchg	[ecx],edx
	dec	edx
	popf	
	sbb	eax,ECE43E1D
	cmpsd	
	pop	ecx
	shl	dl,01
	retf	
	and	[ecx],edx
	add	[ecx+BFE21D1D],esp
	and	eax,261C07B7
	mov	bh,FD
	and	dword ptr [ebp+680D56B3],25BFE127
	mov	dh,86
	adc	[edi+ebx*4+1D],esp
	sbb	eax,A57E7472
	mov	dl,E2
	mov	edi,3B3D9E8D
	loop	0040146E
	inc	ebp
	loope	004013F3
	mov	edx,[edx+3D]
	sbb	al,D7
	mov	ebx,[edi+edx*8]
	lea	edx,[ecx]
	in	eax,dx
	lahf	
	sbb	eax,82E9341D
	test	al,24
	push	eax
	std	
	xchg	eax,ecx
	and	ebx,esi
	cdq	
	sahf	
	movsb	
	fistp	word ptr [edx+1E]
	sbb	eax,9EBA9E1D
	illegal	
	popf	
	test	al,11
	push	esp
	push	ds
	sbb	eax,81498C1D
	loope	00401421
	mov	edx,esp
	mov	edi,121E1293
	and	eax,A491FD41
	std	
	lea	esp,[esp+11DD21F8]
	ret	
	dec	edx
	sbb	eax,1101A21D
	test	[esi+91591D1D],ebx
	pop	eax
	or	al,E1
	dec	edx
	adc	bh,[eax+26E21F12]
	mov	dh,7D
	mov	edx,36DFA406
	popf	
	sbb	eax,1BB0121D
	dec	edx
	clc	
	jpo	00401473
	cdq	
	in	al,40
	sub	[edi+edx*8],ebx
	and	eax,122B40E4
	and	ah,dl
	cmp	[edx+0BDFA496],bh
	pushf	
	sbb	al,1C
	int	03
	dec	esp
	adc	[eax+851D1D9D],ecx
	mov	eax,CA193B7C
	add	[esi+1F],edi
	sbb	eax,5293E2C7
	cmp	eax,1D9F4C11
	sbb	eax,D77649CB
	mov	[esi+19],gs
	movsb	
	pop	edi
	mov	eax,[1C1C1C1C]
	xlat	
	lea	edx,[ecx+1D1D216F]
	sbb	al,D7
	mov	ebx,[edi+edx*8]
	lea	edx,[ecx+1C1C9B6D]
	adc	[ebx+7C1D1D9F],ecx
	jpe	00401550
	sub	cs:[ebp+FFE2FBC5],esp
	neg	byte ptr [ebp+B218E248]
	xchg	eax,ebp
	push	ss
	outsd	
	adc	[eax],esp
	mov	eax,[E0EB1D1D]
	loopne	004014F8
	jmp	far 1F0A:8509
	das	
	or	bl,[edi]
	das	
	mov	bp,ds
	or	bl,[edi]
	das	
	movsb	
	adc	al,[esi]
	mov	bp,ds
	adc	[eax],ecx
	and	[FA72331D],bl
	enter	C2E2,1F
	ficom	word ptr [ecx]
	and	edx,esp
	push	ss
	fiadd	word ptr [eax+9D671121]
	sbb	eax,20F8A41D
	movsb	
	clc	
	cdq	
	push	eax
	fst	double ptr [eax]
	sbb	al,A4
	adc	[eax],ebx
	pushf	
	sbb	al,1C
	cmp	[ecx+69],edx
	movsb	
	lodsd	
	pop	dword ptr [esi+D61C3BCA]
	inc	edi
	sbb	al,D7
	xchg	[edi+edx*8],ebx
	lea	edx,[ecx+1D1D2054]
	movsb	
	clc	
	ret	1120
	fcomp	dword ptr [esi]
	sbb	eax,493DDE1D
	cmpsb	
	dec	ebx
	fdivp	st(5),st(0)
	ficom	dword ptr [ecx]
	mov	ebp,DE1D1D9F
	adc	edx,ebx
	jnc	00401544
	bound	eax,[edx+1EA6155D]
	test	[esi+1F3B117D],al
	sbb	eax,CAB2D21D
	push	00DD0259
	sahf	
	retf	E33B
	jmp	far 1D1D:1D5D
	loop	0040154A
	mov	[2B5FA40A],al
	sbb	ebx,[esp+ebx]
	sahf	
	retf	
	and	[ecx],edx
	mov	[ebp+96111D1D],ds
	mov	al,[FE491D1D]
	out	64,al
	cmp	eax,FEDE8AE2
	and	esp,edx
	inc	esi
	and	esp,edx
	adc	es:[eax+E21C1C9C],eax
	inc	edx
	xor	eax,45117DB6
	push	ds
	sbb	eax,B630341D
	mov	ch,9B
	out	84,al
	cdq	
	sahf	
	xlat	
	and	edx,esp
	fisub	dword ptr [1121DB9E]
	jmp	F35D3387
	illegal	
	sbb	eax,A45D1D1D
	pop	edi
	wait	
	sbb	al,1C
	mov	bh,1D
	sbb	eax,11455D1D
	pop	edx
	wait	
	sbb	al,1C
	push	ss
	fild	dword ptr [ecx+edx*2+6EF97F00]
	adc	[C51C1C1B],edi
	loop	00401634
	sahf	
	xor	byte ptr [esi+1F59117D],1D
	sbb	eax,36A07DFD
	popf	
	mov	ebp,1D1FD311
	sbb	eax,A9EAF19D
	xor	al,76
	outsb	
	movsb	
	fiadd	word ptr [B61D1D20]
	jge	004015C5
	lea	esp,[eax+2ED61D1D]
	neg	byte ptr [esi]
	mov	ebp,F1112575
	and	[E8745E1D],bl
	fstcw	word ptr [esi+edi*4]
	and	[ebx-5C],ebx
	fild	qword ptr [ecx]
	sbb	ebx,[esp+ebx]
	xchg	eax,ecx
	fstp	double ptr [ebx+6D111C1C]
	pushf	
	sbb	al,1C
	jnc	00401663
	xchg	eax,ecx
	movsb	
	pop	edi
	and	[ebx+19111C1C],ebx
	wait	
	sbb	al,1C
	out	EE,al
	mov	[119145A2],al
	pop	ds
	sbb	eax,E2851C1D
	mov	edi,217E019B
	sbb	eax,DE93E2C7
	jg	0040161C
	mov	byte ptr [ecx],04
	sbb	eax,61881D1D
	std	
	pop	edx
	cmp	[esp+ebx*8],edi
	dec	ebx
	retf	7E01
	and	ebx,[DE93E2C7]
	jg	00401637
	mov	byte ptr [eax-38],E2
	retf	
	and	[ecx],edx
	xchg	eax,esp
	pushf	
	sbb	al,1C
	clc	
	jl	0040166A
	leave	
	shl	[ebp+93E2C7C0],cl
	mov	byte ptr [eax-38],E2
	illegal	
	dec	edi
	loop	00401665
	xor	eax,111D1D1D
	jl	0040165C
	sbb	al,1C
	add	al,ch
	in	al,dx
	jnc	0040171B
	push	ds
	dec	edi
	fiadd	word ptr [eax+1E11DE1E]
	mov	[4FDFA401],al
	pushf	
	sbb	al,1C
	sahf	
	retf	DE1F
	ficomp	dword ptr [edi]
	and	[eax+1C1C9CC0],esp
	adc	[ebx+1F],edx
	sbb	eax,5911E01D
	aaa	
	sbb	al,D6
	and	eax,0991C545
	pop	ds
	sbb	eax,23BEE21D
	sahf	
	mov	edi,9FC1118D
	sbb	eax,3CC7661D
	sti	
	add	[esi+25],edi
	sbb	eax,C693E2C7
	loop	004016D4
	and	edx,[ecx]
	adc	[ebx+5B4B1C1C],bl
	and	edi,[eax+7FDED6B0]
	wait	
	jcxz	004016E1
	wait	
	inc	ebp
	sbb	al,D7
	and	eax,4523BFE3
	jcxz	004016EC
	and	[ebp+52],eax
	sbb	al,11
	inc	esp
	lahf	
	sbb	eax,9F8CEB1D
	bound	esi,eax
	jle	0040175E
	sbb	eax,C693E2C7
	dec	edi
	loop	004016EC
	xor	eax,E21D1D1D
	inc	esi
	and	edx,[ecx]
	rcr	dword ptr [esp+ebx+F29FF31C],01
	pop	ebx
	pop	ebx
	fimul	word ptr [eax-38]
	loop	0040171B
	and	esi,[edx+BFE127BF]
	and	esp,ecx
	mov	edi,25DB5D99
	sbb	eax,9DE65FA4
	sbb	eax,BF78A41D
	and	eax,119BBFE1
	mov	[ecx],ds
	sbb	al,1C
	retf	0F11
	pop	edx
	pop	eax
	repne	
	fidivr	word ptr [9C4CDFA4+ebx]
	sbb	al,1C
	fdivp	st(6),st(0)
	daa	
	illegal	
	and	ebx,[20A4DFA4]
	sbb	eax,1AB0111D
	sbb	al,1C
	cmp	esi,[ebp+ebx*4+60]
	push	ss
	add	bl,[ebp+55E299E2]
	sub	eax,41E2969E
	sub	ecx,esp
	ret	
	wait	
	loop	0040177E
	and	esi,[esi+9CC31101]
	sbb	al,1C
	call	1A003F0A
	scasb	
	cmp	[edx+1D],dl
	adc	[eax],eax
	popf	
	sbb	eax,E31D521D
	mov	edi,D71C4597
	and	eax,[ebp+51]
	popa	
	int	03
	dec	ebp
	lea	edx,[ecx]
	in	eax,dx
	popf	
	sbb	eax,2EAA061D
	adc	[edi-0A],al
	illegal	
	cdq	
	sbb	eax,A6111D1D
	push	ds
	sbb	eax,BEE2C51D
	daa	
	sahf	
	mov	edi,23C2E287
	sahf	
	ret	
	lea	edx,[ecx]
	xchg	eax,esp
	pushf	
	sbb	al,1C
	les	ecx,[eax]
	call	far 5D76:DB72
	mov	dh,0A
	outsd	
	neg	byte ptr [esi]
	xchg	eax,ecx
	mov	al,[D61D1D20]
	cwde	
	mov	dh,01
	xchg	eax,ecx
	pushf	
	lahf	
	sbb	eax,9C23111D
	sbb	al,1C
	add	eax,12D4737F
	and	ebp,edi
	jge	004017C8
	popf	
	fdivp	st(5),st(0)
	push	ds
	push	eax
	fidivr	word ptr [ecx+B796D71D]
	pop	esi
	call	far BFBA:C245
	and	[edi+ebx*8+1C1C9B42],esp
	loop	00401881
	sub	[ecx],edx
	cmp	al,9B
	sbb	al,1C
	jge	00401876
	ror	ch,cl
	dec	esp
	add	[esi+A6DFA467],cl
	wait	
	sbb	al,1C
	loope	00401818
	lea	ebx,[ebx+1D1D1D51]
	sbb	eax,519BBFE4
	cmp	edx,[edx]
	jc	00401889
	in	al,BF
	cdq	
	push	ecx
	add	dword ptr [ebx+BFE48383],97
	adc	edx,eax
	sbb	[esp+ebx],ebx
	or	[ebp+ebx*8+178D3A58],al
	cmovnz	edx,[ecx+61]
	int	03
	dec	ebp
	lea	edx,[ecx+1C1C9CF6]
	push	ecx
	std	
	xor	al,89
	adc	eax,1E009145
	sbb	eax,E2851C1D
	mov	edi,1F7E0195
	sbb	eax,1D1E6411
	sbb	eax,5CBE96AD
	aaa	
	cmovs	ecx,[ecx+D71C8FBF]
	cdq	
	sbb	al,D7
	pop	esi
	xchg	eax,ecx
	lodsd	
	lahf	
	sbb	eax,9BBF181D
	pop	ds
	sbb	eax,5FA41D1D
	jmp	004018E5
	sbb	eax,D71C451D
	xchg	[ecx],edx
	jcxz	004018EE
	sbb	eax,9CDC731D
	adc	al,59
	out	CF,al
	add	edx,esp
	xchg	eax,edi
	fiadd	word ptr [eax+3D1D5125]
	sbb	eax,2F43E11D
	jge	004018CB
	inc	ebx
	das	
	jge	004018FD
	jmp	0040190C
	sbb	eax,2EEAAF1D
	adc	cl,[edi-21]
	mov	cl,BF
	and	ebx,esi
	illegal	
	sbb	eax,99CFDFA4
	sbb	al,1C
	loop	004018C4
	cdq	
	int	03
	dec	esp
	retf	1911
	sbb	ebx,[esp+ebx]
	or	cl,[edx]
	loope	004018CB
	repne	
	jns	00401979
	jbe	00401968
	popa	
	int	03
	dec	ebp
	lea	edx,[ecx+1C1C9C2C]
	push	ecx
	js	0040193F
	das	
	mov	dh,45
	xchg	eax,ecx
	push	ds
	sbb	eax,E3851C1D
	mov	edi,1CC21197
	sbb	al,1C
	dec	ebp
	wait	
	hlt	
	push	ecx
	cmp	bl,[eax+3B]
	loop	00401919
	and	[esi],edx
	outsd	
	loop	00401943
	int	03
	dec	esp
	add	[esi+23],edi
	sbb	eax,1D9D6F11
	sbb	eax,03001917
	xchg	eax,ebp
	push	edx
	sbb	eax,1C1AD291
	sbb	al,E1
	mov	edi,8DCBE287
	sahf	
	retf	DD3B
	illegal	
	popf	
	sbb	eax,23CAE21D
	sahf	
	retf	
	lea	ebx,[edi+edx*8]
	xchg	eax,ebx
	sbb	al,D7
	pop	dword ptr [ecx]
	out	dx,al
	sbb	[esp+ebx],ebx
	call	923A6A8A
	cli	
	sbb	ebx,[esp+ebx]
	push	ecx
	dec	esp
	jg	0040199F
	xchg	eax,esp
	inc	ebp
	xchg	eax,ecx
	add	al,9D
	sbb	eax,1C851C1D
	xlat	
	and	[ecx+61],edx
	int	03
	dec	ebp
	lea	edx,[ecx+1C1C1BED]
	push	ecx
	sbb	[esi+0011D953],al
	wait	
	sbb	al,1C
	int	03
	test	eax,FE8B52AF
	xor	eax,6223D718
	aas	
	test	eax,2A2F621C
	popa	
	dec	edi
	test	eax,2A1F611C
	rcl	dword ptr [ecx],22
	pop	ds
	sbb	eax,B87BBA1D
	push	ds
	bound	eax,[edx+72C98186]
	sahf	
	add	eax,119E7EFD
	mov	ebx,[5DA21D1D]
	rcl	dword ptr [ebx],DE
	cdq	
	xchg	eax,ecx
	push	ds
	sbb	eax,8DBFE21D
	loop	0040196A
	sahf	
	cmp	eax,313DE23B
	sahf	
	std	
	loope	004019B2
	test	[edi+edx*8],ebx
	xchg	eax,ecx
	adc	eax,ecx
	sbb	al,1C
	sbb	al,BF
	illegal	
	sar	dword ptr [edx+DFA401A2],01
	illegal	
	sbb	al,1C
	sbb	al,D7
	xchg	eax,ecx
	sbb	al,D7
	xchg	[ecx+1C1C18DA],edx
	loop	004019D9
	lea	esp,edx
	mov	ebp,9D3FE23B
	xor	[esi+83BFE1FD],ebx
	adc	[edx+141D1D1E],edx
	mov	ebx,[edi+1D51BED5]
	xor	eax,BFE31D1D
	and	eax,[ebp+52]
	sbb	eax,4521BFE3
	push	edx
	sbb	al,51
	popa	
	int	03
	dec	ebp
	lea	edx,[ecx+1C1C9B98]
	push	ecx
	push	eax
	mov	byte ptr [esi],3E
	adc	[eax+ebx],esi
	sbb	al,1C
	lock	
	retf	DC79
	mov	ebx,eax
	and	ah,dl
	shr	byte ptr [ebx],9E
	jle	00401A41
	pop	ds
	popa	
	sahf	
	jle	00401A75
	xchg	eax,esp
	cdq	
	sbb	al,1C
	adc	bl,[esi]
	mov	dh,7D
	leave	
	fiadd	word ptr [eax+9908111F]
	sbb	al,1C
	inc	edi
	push	esi
	mov	al,11
	dec	esp
	loop	00401A43
	and	eax,25B521B5
	int	03
	dec	esp
	add	[ecx],edx
	xor	bl,[ebp+C0F81D1D]
	pop	esi
	push	edi
	and	[ecx+1DB95D63],esp
	movsb	
	illegal	
	sbb	bl,[esp+ebx]
	mov	bh,5E
	call	far FEBA:C245
	xlat	
	add	dl,ah
	shr	byte ptr [edi],9E
	jle	00401A72
	movsb	
	clc	
	and	eax,[ecx+12]
	jc	00401B0E
	jc	00401AB3
	rcr	dword ptr [ecx+4B],01
	jcxz	00401A78
	sbb	al,DE
	std	
	illegal	
	sbb	edx,ebx
	movsb	
	fistp	qword ptr [eax-66]
	sbb	al,1C
	loop	00401A85
	and	edx,esp
	ret	
	and	edx,[edx]
	jz	00401ADC
	sbb	[9E87CBE2+edi*2],bh
	retf	E33B
	retf	1C29
	illegal	
	cmp	esp,esp
	mov	edi,39D61C8B
	sbb	al,D6
	sub	edx,[ecx]
	cmp	al,18
	sbb	al,1C
	push	A9
	ret	
	cmc	
	cmp	eax,C789E646
	loop	00401A88
	enter	7DB6,E2
	ret	
	and	esp,edx
	illegal	
	push	ss
	jc	00401ACD
	add	[esi+21],edi
	sbb	eax,1C1A6F11
	sbb	al,95
	push	eax
	jle	00401B4D
	retf	
	add	esi,[edi+49]
	jns	00401AB2
	sbb	eax,86B61D1D
	push	eax
	xchg	eax,ecx
	push	eax
	arpl	[ecx+19568105],bx
	loop	00401AE4
	cdq	
	adc	[edi+B31C1C19],esi
	pusha	
	or	[esi],bh
	aas	
	sub	ecx,ebp
	mov	edx,977FDE93
	jcxz	00401AF9
	wait	
	inc	ebp
	fstp	st(3)
	and	ebx,[esp+ebx]
	sbb	eax,5DE0A41D
	wait	
	sbb	al,1C
	sbb	al,D7
	and	edx,[ecx]
	illegal	
	wait	
	sbb	al,1C
	illegal	
	adc	esi,edx
	cli	
	int	03
	dec	esp
	retf	7E01
	and	[DE93E2C7],ebx
	jg	00401AFE
	adc	eax,esp
	cwde	
	sbb	al,1C
	lahf	
	ja	00401B94
	push	ecx
	loop	00401B31
	and	[edx+BA0E570A],esp
	ret	
	and	edx,[edi-74]
	sahf	
	retf	
	and	[ecx],edx
	retf	1C1A
	sbb	al,11
	lock	
	sbb	[esp+ebx],ebx
	jmp	far 3517:2E03
	wait	
	mov	[47E1C593],eax
	das	
	jge	00401B76
	inc	edi
	das	
	jge	00401BDD
	push	edx
	sbb	al,45
	push	ecx
	popa	
	int	03
	dec	ebp
	lea	edx,[ecx+1C1C1A6A]
	push	ecx
	repne	
	push	ecx
	sahf	
	xchg	eax,edi
	inc	ebp
	adc	ch,[edx]
	illegal	
	mov	[eax+7E276E8E],eax
	and	ebx,[4D93E2C7]
	loop	00401B93
	and	esp,edx
	illegal	
	wait	
	adc	[ebx+ebx*4+31A01C1C],edi
	illegal	
	xchg	eax,ecx
	sbb	al,1C
	sbb	al,45
	inc	bh
	loop	00401B67
	dec	eax
	enter	C3E2,25
	loop	00401BB2
	and	edx,[ecx]
	retf	1C1B
	sbb	al,3B
	shr	dword ptr [esi-19],01
	jc	00401C2F
	enter	D7E2,21
	loop	00401B89
	loop	00401BB2
	and	esp,edx
	mov	dword ptr [1C195A11],B2E5781C
	sti	
	ret	9EC5
	or	bl,[edi]
	das	
	mov	bp,ds
	movsb	
	adc	bh,ch
	jcxz	00401BCA
	popf	
	fstp	double ptr [ecx]
	stosb	
	xchg	eax,ecx
	ja	00401BAD
	movsb	
	fistp	word ptr [edx+491C1C99]
	or	ah,[edi]
	das	
	adc	[esi+961C1C9C],edx
	insd	
	shl	dword ptr [eax],01
	jle	00401BEC
	push	ecx
	push	cs
	mov	dl,5F
	pop	es
	inc	ebp
	xchg	eax,ecx
	mov	bl,1C
	sbb	al,1C
	sbb	al,85
	add	[esi+1F],edi
	sbb	eax,DE93E2C7
	jg	00401BD1
	sbb	al,D7
	and	[ecx],edx
	jbe	00401BDA
	sbb	al,1C
	cli	
	pop	ds
	add	al,AF
	inc	edx
	or	dl,al
	sub	al,1C
	illegal	
	das	
	sbb	al,D6
	and	[ebp-6F],eax
	sub	al,1D
	sbb	eax,FEDEC91D
	xor	ecx,eax
	adc	esp,ebp
	sbb	ebx,[esp+ebx]
	dec	eax
	das	
	js	00401BFB
	add	al,C0
	inc	esi
	in	eax,45
	xchg	eax,ecx
	adc	ebx,[esp+ebx+01851C1C]
	jle	00401C96
	sbb	eax,1193E2C7
	in	al,dx
	call	far 2D86:1C1C
	xor	dh,dl
	inc	ecx
	dec	eax
	push	ecx
	popa	
	int	03
	dec	ebp
	lea	edx,[ecx+1C1C9A75]
	push	ecx
	jpo	00401CB4
	adc	dh,45
	xchg	eax,ecx
	jg	00401C33
	sbb	al,1C
	sbb	al,85
	adc	[771D1D1D],ecx
	loope	00401CE2
	cwde	
	or	eax,93E2E61E
	mov	byte ptr [eax-38],E2
	retf	
	and	edx,esp
	push	es
	mov	dl,C7
	and	ebx,[esi+EAE33BCA]
	insd	
	sbb	eax,AAE21D1D
	adc	[ecx-64],esi
	sbb	al,1C
	das	
	aam	8F
	sbb	ecx,ebp
	mov	edx,837FDE93
	mov	byte ptr [edx+1D],A4
	mov	ch,E2
	sbb	ebp,1D1D1C0D
	sbb	eax,B0119D52
	sbb	al,1C
	sbb	al,11
	xor	[ecx+4BF41C1C],ebx
	not	esi
	ret	3091
	popf	
	sbb	eax,D67D261D
	sbb	[edi+ebx*8+1C1C991F],ah
	jc	00401D0F
	and	bl,[edx]
	sbb	al,1C
	xchg	eax,ecx
	push	es
	pop	ss
	sbb	al,1C
	mov	dl,02
	adc	[ecx+ebx],edi
	sbb	al,1C
	jmp	far E23C:CA59
	retf	
	lea	ebx,[edi+edx*8]
	sbb	dword ptr [edi+edx*8],85
	mov	byte ptr [ecx+1C1C19E3],C6
	xchg	eax,ecx
	aam	19
	sbb	al,1C
	loop	00401D27
	sahf	
	cmp	eax,17D5113B
	sbb	al,1C
	mov	bh,6D
	inc	ebp
	xchg	eax,ebx
	jno	00401DA2
	wait	
	mov	dh,86
	stc	
	and	bl,[15181D1D]
	sahf	
	mov	[esi+E28A9E09],ebx
	adc	byte ptr [esi],6F
	sahf	
	xlat	
	wait	
	ficom	word ptr [edx+1DE71122]
	sbb	eax,1598E11D
	stosb	
	sbb	dh,[C6913DFA]
	pushf	
	sbb	al,1C
	adc	ah,[ebx]
	sbb	al,D7
	pop	dword ptr [ebp+1C]
	xlat	
	xchg	[ecx+1C1C9C4D],edx
	sbb	[edi+1D1D259B],bh
	sbb	eax,1C18C911
	sbb	al,3A
	xchg	eax,ebp
	call	dword ptr [esi-1E]
	mov	edi,237E019B
	sbb	eax,1C93E2C7
	xlat	
	and	[edx+1C],edx
	push	ecx
	popa	
	int	03
	dec	ebp
	lea	edx,[ecx+1C1C196F]
	adc	[eax-64],esp
	sbb	al,1C
	mov	ecx,9F8971E2
	pop	esi
	out	CE,al
	loop	00401D67
	and	ebx,[esi+914521BF]
	ficomp	word ptr [esp+ebx+9BBFE11C]
	fidivr	word ptr [edx+E2A0571D]
	mov	dh,11
	test	eax,E21C1C99
	illegal	
	and	eax,1C99A511
	sbb	al,EA
	std	
	xor	dh,[ebx+3C]
	mov	[B4DFA401],al
	cwde	
	sbb	al,1C
	retf	7E01
	and	ebx,[1193E2C7]
	push	ds
	pushf	
	sbb	al,1C
	lds	ebp,[ecx]
	repne	
	xchg	eax,edx
	xlat	
	jpe	00401DD8
	sbb	[edx+6F1682E2],cl
	adc	ah,[edx]
	loop	00401DB8
	and	edx,[esi]
	outsd	
	adc	[eax],esp
	sbb	bl,[esp+ebx]
	loop	00401DBE
	wait	
	mov	cl,BF
	cdq	
	fidivr	word ptr [ebp+22]
	adc	[edx],edx
	call	far E267:1C1C
	sbb	ebp,eax
	mov	cs,[edx+esi*8]
	dec	esp
	adc	[edi+1E1C1C19],edx
	xchg	[edi+ebx*8+1C1C97F8],ah
	bound	ebp,[eax]
	inc	eax
	xchg	es:[ecx],dl
	rep	
	xchg	eax,edi
	sbb	al,1C
	cld	
	loope	00401E3D
	inc	edi
	mov	ecx,03A5BDEE
	enter	3638,0B

fn00401E36()
	or	edi,edx
	mov	bh,8D
	dec	ebx
	dec	edi
	sub	ch,cl
	inc	edx
	add	ch,al
	or	cl,bh
	sub	ecx,ebx
	xor	edi,ebx
	jmp	00402950
00401E4C                                     27 FE 94 BF             '...
00401E50 3F 03 71 87                                     ?.q.           

l00401E54:
	ret	
00401E55                2A F5 2B C3 48 03 D7 0B F8 02 C3      *.+.H......
00401E60 33 FE E9 53 03 00 00 FE 69 49 84 2B             3..S....iI.+   

fn00401E6C()
	add	ch,dh
	mov	ebx,esi
	add	esi,ecx
	sub	ebx,eax
	mov	eax,[edx]
	mov	dh,cl
	xor	ch,ah
	sub	bh,al
	jmp	004023F6
00401E81    78 6A F4 4C 9A                                xj.L.         

fn00401E86()
	inc	edi
	dec	esi
	add	edi,edx
	mov	bl,DA
	add	bl,cl
	xor	eax,FFFFFEC8
	jpe	00402A4C

l00401E99:
	push	edx
	pop	edx
	xchg	ebx,ebx
	jpo	00402A4C

l00401EA3:
	scasd	
	call	6F97014E

fn00401EA9()
	dec	ebx
	inc	eax
	or	cl,al
	mov	ebx,edx
	xor	eax,esi
	mov	bl,38
	call	004029DD
	fisubr	dword ptr [edx+44]
	cmpsd	
	illegal	

fn00401EBE()
	pop	dword ptr [esp-18]
	or	ah,ch
	xor	dh,al
	mov	dl,A0
	sub	edx,ecx
	xor	eax,ebx
	jz	004029FF

l00401ED2:
	ja	00401ED4

l00401ED4:
	jnz	004029FF

l00401EDA:
	inc	ebx
	stc	
	push	es
	cld	
	dec	ecx
	mov	bh,[eax+8B240489]

fn00401EE1()
	mov	[esp],eax
	mov	edx,edx

fn00401EE5()
	rol	[esi+D90258F6],cl
	mov	bh,F3
	mov	bl,dl
	mov	bl,dl
	dec	esi
	sub	ebx,esi
	jmp	00401E86
00401EF6                   1C A0 AC 61 8C                      ...a.    

fn00401EFB()
	xchg	[esp],edx
	jmp	00401F04
00401F03          08                                        .           

l00401F04:
	pop	edx
	sub	ebx,esi
	inc	edi
	xor	bl,ch
	add	dl,dh
	xor	edx,edi
	jmp	00402143
00401F13          35 26 39 4A 84 C7 2F                      5&9J../     

l00401F1A:
	inc	esi
	neg	dh
	neg	bh
	sub	edx,ebx
	add	ebx,edx
	xor	ebx,esi
	or	ebx,edx
	mov	dl,al
	or	bh,bl
	neg	dh
	call	00402762
	dec	ebx
	xchg	eax,ebp
	ret	
00401F35                5E                                    ^         

fn00401F36()
	mov	dl,44
	add	dh,bl
	add	dl,cl
	sub	dl,bl
	add	dl,ah
	or	edx,esi
	sub	edx,ebx
	jmp	00402BD8
00401F49                            BB E8 28 1F                   ..(.  

fn00401F4D()
	xchg	[esp],esi
	xchg	bx,bx
	xchg	ch,ch
	pop	esi
	mov	dl,ah
	xor	edx,ecx
	inc	edx
	mov	dh,F3
	sub	ebx,7329E68D
	jmp	00401F36
00401F65                F8 65 EA F8 60 7D 52                  .e..`}R   

fn00401F6C()
	mov	bl,E8
	or	bl,bh
	xor	edi,ecx
	dec	esi
	or	bh,ch
	inc	ebx
	mov	bh,11
	neg	bl
	inc	esi
	sub	esi,edi
	call	00402896
	test	[esi],bh
	xor	[esi-4F],dh

fn00401F87()
	add	eax,08
	mov	esi,edx
	add	bh,al
	xor	edi,esi
	or	ebx,edi
	add	esi,edi
	sub	esi,edi
	add	esi,edx
	jmp	00402748
00401F9D                                        FC C4 6B              ..k
00401FA0 FE 85 B4                                        ...            

fn00401FA3()
	pop	dword ptr [esp-20]
	dec	esi
	mov	dl,ch
	inc	ebx
	mov	edi,ebx
	mov	dh,47
	jl	004027F2

l00401FB5:
	jmp	00401FBA

l00401FB9:
	add	[edi],cl

l00401FBA:
	jge	004027F2

l00401FBB:
	lea	esi,[edx]
	or	[eax],al
	add	[esi-09],dh

l00401FC0:
	jbe	00401FB9

l00401FC2:
	adc	byte ptr [ebp-5F],37

fn00401FC6()
	pop	dword ptr [esp-18]
	neg	bh
	xor	edi,esi
	sub	dh,cl
	xor	esi,ebx
	mov	edx,esi
	jmp	00402827
00401FD9                            20 43 DF 1D A0 9A 8E           C.....

fn00401FE0()
	or	esi,ecx
	xor	ch,cl
	pop	ecx
	xor	bl,ah
	or	al,dh
	mov	esi,eax
	call	004025EE
	push	ds
	xor	[ebx],esi
	mov	edx,DE334B25

fn00401FF5()
	dec	ebx
	xor	ebx,esi

fn00401FF8()
	inc	ebx
	sub	bl,ah
	sub	bh,al
	not	al
	xor	ebx,edx
	xor	ebx,eax
	mov	dh,6C
	dec	ebx
	jmp	00402591
0040200B                                  FA 3C F4 1A F6            .<...

fn00402010()
	add	dh,dl
	or	edx,eax
	mov	ch,9E
	add	cl,dl
	mov	ecx,edi
	inc	ebx
	or	cl,al
	add	edx,eax
	jmp	00402185
00402024             18 C1 F5 27 48 F7                       ...'H.     

fn0040202A()
	xor	ebx,ecx
	xor	edi,eax
	or	eax,eax
	jnz	004021A2

l00402036:
	or	bh,al
	xor	bl,al
	neg	bh
	mov	edi,edx
	or	bh,bl
	jmp	00402A61
00402045                A1 E5 8E 07 7B 08                     ....{.    

fn0040204B()
	mov	bl,4D
	sub	bh,bl
	xor	esi,ebx
	dec	esi
	xor	bl,ch
	mov	bh,7F
	inc	ebx
	or	esi,edx
	sub	bh,ch
	inc	esi
	call	00402781
	cmc	
	sub	al,95
	or	[ebp+78],esp

fn00402067()
	neg	dh
	mov	bl,E8
	mov	dl,06
	mov	ah,al
	or	bl,dh
	xor	dh,ah
	inc	edx
	dec	edx
	jc	00402506

fn0040207B()
	xchg	edi,edi
	jnc	00402506

l00402083:
	add	ah,bh
	illegal	
	arpl	[ecx+D60B97A5],bx

l0040208B:
	or	edx,esi
	neg	bl
	neg	dl
	sub	dh,cl
	add	dh,ah
	sub	dl,ah
	mov	dl,2F
	mov	ebx,ecx
	add	edx,ebx
	jl	0040222B

l004020A3:
	push	di
	pop	di
	push	cx
	pop	cx
	jge	0040222B

l004020B1:
	xchg	eax,edx
	xor	[eax+7435A6C6],ebx
	or	ah,cl
	or	bh,dl
	inc	ebx
	sub	ch,ah

fn004020BF()
	lea	esp,[esp+04]
	or	edi,esi
	inc	esi
	xor	cl,ch
	neg	bh
	neg	bl
	or	esi,ecx
	dec	esi
	jmp	00401E6C
004020D4             81 64 98 A0 DD                          .d...      

l004020D9:
	mov	ah,dh
	xor	edi,ecx
	mov	dl,bl
	mov	ah,32
	xor	ecx,eax
	sub	esi,ebx
	add	esi,edx
	push	00003000
	mov	edx,ebx
	xor	ebx,eax
	jz	00402B82

l004020F6:
	mov	bl,bl
	push	edi
	pop	edi
	jnz	00402B82

l00402100:
	test	al,19
	pushf	
	push	01
	cdq	

fn00402107()
	or	ebx,edi
	sub	ebx,esi
	neg	dh
	neg	dh
	add	dh,bl
	xor	dl,cl
	mov	dl,al
	add	bh,bl
	neg	dl
	inc	ebx
	call	00401EFB

fn0040211F()
	sbb	ecx,[ecx+FB329A34]

fn00402123()
	xor	bh,bl

fn00402125()
	dec	esi
	xor	ebx,edi
	sub	bl,cl
	xor	bl,cl
	neg	bl
	sub	bl,bh
	or	bh,ch
	add	bh,ch
	mov	bh,B9
	jmp	00402559
0040213B                                  96 7A B9 6E 4E            .z.nN
00402140 CF C4 A3                                        ...            

fn00402143()
	dec	edx
	mov	dh,dl
	or	dl,bh
	neg	dh
	or	edx,ecx
	add	bh,ch
	neg	dh
	sub	ebx,eax
	inc	ebx
	jz	00401F1A

l00402159:
	lea	si,[esi]
	jnz	00401F1A

l00402162:
	dec	ebp
	jns	00402192
	mov	byte ptr [ebx+77EE81DA],0B
	add	[eax],al
	add	dh,bh
	xor	dh,bl
	mov	ch,AA
	neg	al
	mov	ah,al
	sub	eax,edi
	jmp	004025AD
	adc	al,[eax+ebx+7D]
	adc	eax,0AD02B56

l00402185:
	sub	edx,eax
	or	al,dl
	add	dh,bl
	or	dl,al
	push	40
	add	bl,dl
	mov	ebx,ecx

l00402192:
	fstenv	word ptr [edx]
	cld	
	jmp	004020D9
0040219A                               A3 30 FC 3D 1C 09           .0.=..
004021A0 4E F6                                           N.             

l004021A2:
	dec	ecx
	neg	ah
	mov	al,ch
	or	ebx,edi
	mov	al,ah
	add	edx,ecx
	dec	edx
	jmp	00402AC8
004021B3          BF 3E 9D 06 7C 76 12 46 8A C4 33 D6 B0    .>..|v.F..3..
004021C0 0E 0B D1 2A C3 0B DF 2A E0 8A C1 E9 E8 FE FF FF ...*...*........
004021D0 7B 4D D0 28 81 81 60                            {M.(..`        

fn004021D7()
	mov	[esp],edx
	xchg	ch,ch
	pop	edx
	dec	ebx
	xor	edx,eax
	xor	bh,dl
	sub	bh,ch
	mov	edx,edi
	mov	al,[edi]
	mov	dh,BA
	js	0040227E
	jmp	004021F5
	jns	0040227E
	pxor	xmm1,xmm7
	xor	bl,ch
	jbe	004021AD

fn00402202()
	mov	dl,D9
	mov	ah,FD
	sub	dh,ch
	add	bh,ch

fn00402209()
	std	
	xor	eax,ebx
	or	al,dl

fn0040220E()
	mov	bl,al
	mov	ah,dh
	xor	ebx,eax
	dec	ebx
	jz	00402A17

fn0040221B()
	rep	
	push	esi
	pop	esi
	jnz	00402A17
	iret	
	lahf	
	sub	al,51
	sbb	ch,dh
	cmpsb	

l0040222B:
	xor	dh,ch
	or	dh,al
	inc	edx
	or	dl,ch
	mov	dh,dl
	xor	edx,ebx
	mov	dh,bl
	or	edx,ebx
	add	edx,edi
	jmp	00402B9B
00402241    D7 F5 F9 66 5C F8 D8                          ...f\..       

fn00402248()
	xor	esi,ebx
	neg	bl
	dec	esi
	or	ebx,esi
	add	bh,ch
	add	eax,[eax+3C]
	mov	ebx,edx
	or	bl,bh
	jmp	00402925

fn00402259()
	enter	0006,00
0040225D                                        0D 48 29              .H)
00402260 E2 CE 97 84                                     ....           

fn00402264()
	inc	ebx
	xor	ebx,esi

fn00402266()
	fimul	word ptr [ebx]
	repne	
	mov	bh,dh
	dec	esi
	neg	ch
	xor	ch,al
	sub	bl,cl
	call	eax
	call	004024E9
	xchg	eax,edi
	jpe	00402259

fn0040227C()
	jpe	00402209

fn0040227E()
	neg	dl
	add	ebx,edi
	mov	ebx,edi
	or	dl,dh
	sub	edx,esi
	add	dl,ah
	mov	dl,86
	dec	edx
	xor	bl,bh
	jo	00401FF5

l00402295:
	jmp	0040229A

l0040229A:
	repne	
	jno	00401FF5
	inc	edx
	cld	
	mov	[D93320BE],al

fn004022A6()
	xor	ebx,ecx
	add	ecx,edi
	sub	ecx,edx
	mov	cl,91
	or	edx,ecx
	or	eax,edi
	neg	al
	xor	ebx,edx
	inc	ebx
	add	dl,bl
	call	004022EA
	push	ds
	imul	dword ptr [edx+ebp*8+35]
	nop	
	mov	al,[33DF8B55]

fn004022C6()
	mov	ebx,edi
	xor	edx,edi
	or	ebx,edi
	mov	ebx,edx
	add	dh,ah
	xor	eax,edi
	add	eax,esi
	js	00402202

fn004022DA()
	lea	dx,[edx]
	xchg	dl,dl
	jns	00402202

l004022E5:
	int	8A
	dec	ebp
	push	edi
	sbb	[edi+5850241C],eax

fn004022EA()
	xchg	[esp],ebx
	push	eax
	pop	eax
	pop	ebx
	add	eax,esi
	sub	ecx,ebx
	xor	ebx,eax
	xor	ecx,edi
	dec	eax
	jmp	0040265C
004022FE                                           EC 0F               ..
00402300 D5 C8 4A C7                                     ..J.           

l00402304:
	sub	edi,ebx
	inc	ebx
	mov	esi,edx
	add	dl,ch
	or	esi,eax
	movzx	edx,al
	inc	esi
	or	bh,cl
	xor	edi,ecx
	sub	bl,al
	jmp	0040293C
0040231C                                     29 AA 2D 7F             ).-.
00402320 C5 FF C5 DD                                     ....           

l00402324:
	add	esi,eax
	movzx	ebx,ah
	add	esi,edi
	mov	edi,esi
	sub	esi,ecx
	dec	esi
	dec	esi
	xor	edi,esi
	sub	esi,ebx
	shr	eax,10
	call	00402520
	inc	esi
	mov	dh,15
	insb	
	in	eax,A4
	mov	cl,8D

fn00402344()
	lea	esp,[esp+04]
	or	dl,ah
	cmp	ebx,8CD61973
	jnz	0040220E

l00402356:
	sub	ch,dl
	add	edx,eax
	jmp	00401EA9
0040235F                                              AF                .
00402360 22 41 D3 02                                     "A..           

l00402364:
	or	edx,esi
	or	ebx,edi
	mov	dh,ah
	dec	ecx
	add	edx,edi
	xor	edx,edi
	dec	ebx
	add	bh,ch
	jle	0040208B

l00402378:
	mov	dh,dh
	jg	0040208B

l00402380:
	outsd	
	fadd	st(0),st(5)
	stosb	
	popa	
	sub	al,ah
	add	ebx,esi
	xor	eax,edi
	sub	dh,bl
	xor	edi,ebx
	add	dh,ah
	add	cl,ah
	jbe	004026B7

l00402399:
	jmp	0040239F
0040239E                                           F7                  .

l0040239F:
	ja	004026B7

l004023A5:
	rcl	dword ptr [ebx+8DF58933],01
	push	esp
	out	32,al
	rol	dword ptr [edx],CA
	inc	eax
	or	ebx,edi
	add	edx,edi
	neg	cl
	call	00402727
	add	[ecx],esp
	mov	cl,fs:[ebx+2A]

fn004023C1()
	dec	ebx
	sub	dl,cl

fn004023C3()
	shl	dword ptr [edx],01
	div	esi
	illegal	
	fimul	word ptr [edx+0A]
	repne	
	call	0040253C
	xchg	eax,edi
	outsb	
	repne	
	dec	ebp
	lea	esp,[esp+04]
	add	dl,cl
	neg	bh
	mov	eax,esi
	add	ebx,ecx
	or	eax,edi
	xor	ebx,edi
	or	dl,bh
	dec	edi
	add	dl,dh
	jmp	0040296E
	pop	edx
	dec	edx
	les	ebx,[ebx+eax*8]
	rep	

fn004023F6()
	sub	ebx,edx
	xor	ch,dh
	add	ch,bh
	mov	ch,bl
	sub	dh,dl
	or	dl,cl
	jmp	0040248A
00402407                      38 6E 63 71                       8ncq    

l0040240B:
	add	eax,edx
	dec	ebx
	sub	bl,dh
	neg	bh
	xor	eax,ebx
	sub	ah,cl
	add	al,cl
	sub	edx,edi
	mov	eax,edi
	jc	004022A6
	rep	
	push	si
	pop	si
	jnc	004022A6
	or	[esp+3C],ebp
	int	33

l00402432:
	xor	esi,edi
	or	ebx,eax
	xor	ch,bh
	neg	bl
	mov	esi,eax
	dec	ebx
	sub	edi,esi
	inc	esi
	mov	[esp-08],eax
	add	edi,eax
	jmp	00401E36
0040244B                                  90 F9 77 96 03            ..w..
00402450 D8 C0 C0 18 B7 40 B2 68 2A D7 03 D3 4A E8 EF 03 .....@.h*...J...
00402460 00 00 C9 06 B1 47 3F 9C                         .....G?.       

l00402468:
	sub	dh,al
	sub	dl,ch
	sub	ch,dh
	xor	eax,edx
	inc	edx
	sub	eax,esi
	sub	ebx,esi
	xor	edx,ebx
	jl	00401E54

l0040247D:
	jz	0040247F

l0040247F:
	jge	00401E54

l00402485:
	insd	
	and	bl,[F08A075A]

l0040248A:
	mov	dh,al

fn0040248C()
	xor	ch,bh
	or	edx,edi
	inc	ecx
	mov	dh,C9
	sub	ebx,edi
	xor	edi,eax

fn00402496()
	clc	
	mov	ecx,edi
	or	bh,dh
	xor	ch,bh
	jl	00402C0B

fn004024A3()
	jl	004024A5

l004024A5:
	jge	00402C0B

l004024AB:
	illegal	
	sbb	ebx,[esi-4F]
	out	D0,al
	dec	ebx

fn004024B3()
	or	bl,ch
	sub	esi,edi
	pop	eax
	sub	dh,cl
	xor	ebx,eax
	xor	edx,ebx
	call	00401FA3
	les	ebp,fs:[edi+0A45AD31]

fn004024C9()
	or	dl,ah
	sub	ah,dl
	or	ebx,ecx

l004024CE:
	fstenv	word ptr [edx]

fn004024CF()
	xor	dl,bl
	sub	edx,ebx
	add	ah,bh
	jz	004028EA

l004024D9:
	add	[eax],al

l004024DB:
	repne	
	rep	
	jnz	004028EA
	pop	esi
	mov	ch,8E
	pop	ebp
	mov	al,0D

fn004024E9()
	pop	dword ptr [esp-0C]
	xor	ch,bh
	mov	ebx,edi
	add	dl,al
	xor	bh,ah
	neg	dh
	add	dh,bl
	sub	edi,eax
	call	00402AED
	jnc	004024A3

l00402502:
	jl	00402496

l00402504:
	add	[eax+23B688B7],ch

fn00402506()
	mov	bh,88
	mov	dh,23

fn0040250A()
	sub	ebx,edi
	mov	ebx,eax
	xor	ebx,eax
	dec	edx
	dec	ebx
	inc	edx
	xor	edx,ebx
	mov	ebx,esi
	call	00402681
	fistp	dword ptr [edx]
	inc	ecx
	mov	[F2243C89],al
	pop	edi
	dec	edi
	add	edi,ecx
	mov	edi,esi
	mov	esi,edi
	add	eax,edx
	or	edi,eax
	jmp	00402BF1
00402535                BA 17 82 FB 51 ED D2                  ....Q..   

fn0040253C()
	xchg	[esp],eax
	jno	00402541

l00402541:
	xchg	bl,bl
	pop	eax
	or	ebx,ecx
	xor	ebx,esi
	xor	bl,bh
	neg	al
	jmp	00402625
00402551    ED 88 CF 36 AF DC 65 65                       ...6..ee      

fn00402559()
	lea	eax,[eax+78]
	or	bl,bh
	xor	bh,cl
	inc	esi
	inc	edi
	xor	bl,dl
	inc	esi
	mov	bh,al
	mov	edi,esi
	call	0040279E
	xchg	eax,ebx
	sahf	
	stc	
	pushf	
	imul	ebx,[edx+ecx-3F],2A

fn00402574()
	or	al,cl
	sub	ah,dh

fn00402577()
	out	8A,al
	int	2B
	ror	byte ptr [edx],01
	illegal	
	illegal	
	illegal	
	fsubp	st(0),st(0)
	out	02,al
	add	[eax],al
	call	A7E165DD
	scasb	
	mov	byte ptr [edi+02],FE

fn00402591()
	add	bh,dh
	mov	bh,4F
	mov	dh,dl
	add	ebx,esi
	mov	dh,dl
	add	bh,dh
	add	ebx,edi
	or	bh,al
	sub	ebx,eax
	jmp	00402987
004025A8                         66 6F B5 41 E0 33 CA B7         fo.A.3..
004025B0 81 32 EF F6 DD 0A DA 33 D0 33 D9 0A FC 8A F1 E9 .2.....3.3......
004025C0 E9 FD FF FF 25 87 9C E7 F3 13 55 BA             ....%.....U.   

fn004025CC()
	mov	[esp],eax
	mov	al,al
	pop	eax
	or	edi,ebx
	lea	edx,[eax+000000F8]
	add	bh,ch
	or	bl,ah
	neg	bh
	or	ebx,esi
	add	ebx,eax
	call	00402B08
	insb	
	imul	ebp,[ebx-50],01

fn004025EE()
	mov	[esp],edi
	repne	
	pop	edi
	dec	edi
	sub	ah,al
	add	bl,bh
	mov	edi,eax
	call	00402C3A
	mov	ebp,B5812D66
	jcxz	00402649

l00402605:
	inc	ebx
	xor	ebx,edx
	sub	edi,ecx
	inc	ebx
	sub	bh,cl
	dec	esi
	sub	bl,cl
	jpe	004029B6

l00402616:
	jns	00402618

l00402618:
	mov	ax,ax
	jpo	004029B6

l00402621:
	test	[edi],bh
	pop	ecx
	insb	

fn00402625()
	mov	edx,ecx
	inc	ebx
	xor	bl,ah
	mov	dl,9D
	dec	ebx
	add	dl,bl
	sub	edx,ecx
	mov	ebx,eax
	call	00402A8C
	int	03
	or	esi,eax
	dec	ebp
	pop	es

fn0040263D()
	pop	dword ptr [esp-20]
	xor	bl,cl
	xor	bh,ah
	add	dh,dl
	xor	dl,bh
	sub	bh,cl
	or	ebx,ecx
	add	esi,edi
	jmp	004024B3
00402654             E2 64 05 40 EE EC E9 37                 .d.@...7   

fn0040265C()
	add	ebx,esi
	or	ebx,edx
	or	cl,bh
	add	esi,00000B77
	or	ecx,ebx
	mov	bh,ah
	mov	dl,ah
	xor	dh,cl
	mov	al,dl
	xor	bh,ch
	jmp	0040299D
00402679                            4E 9A C2 92 77 B7 16          N...w..
00402680 E4                                              .              

fn00402681()
	lea	esp,[esp+04]
	inc	ebx
	dec	ebx
	neg	bl
	mov	ebx,ecx
	xor	bl,bh
	jmp	00402B5B
00402692       E7 D1 40 36 45 00 B9                        ..@6E..      

fn00402699()
	xchg	[esp],ebx
	mov	al,al
	pop	ebx
	mov	ch,cl

l004026A0:
	jmp	818B6FEE
	ret	0024
	add	[eax],al
	dec	esi
	call	004020BF
	popa	
	or	[esi+41],ebp
	push	ss
	cmc	
	jnz	004026A0

l004026B7:
	call	004026BC

fn004026B8()
	add	[eax],al
	add	[eax],al

fn004026BC()
	or	eax,ecx
	xor	ch,dh
	sub	esi,edx
	neg	bh
	neg	ah
	or	ecx,eax
	or	esi,ebx
	add	dl,bh
	jmp	00401FE0
004026D1    65 57 44 25 7F A2 4D E8                       eWD%..M.      

fn004026D9()
	or	edx,ebx
	sub	bh,dl
	add	esi,edx
	add	dl,al
	mov	eax,ebx
	inc	esi
	sub	cl,ah
	or	ah,cl
	jle	00402468

l004026EB:
	std	
	illegal	

l004026EE:
	xchg	ecx,ecx
	mov	ebx,ebx
	jg	00402468

l004026F8:
	jmp	004026EB
004026FA                               67 1C FB D7                 g... 

l004026FE:
	inc	edi
	mov	bh,B3
	mov	eax,ecx
	mov	esi,ebx
	sub	ebx,edx
	neg	bl
	add	bl,dh
	neg	bh
	jl	00402248

l00402713:
	xchg	dl,dl
	jmp	0040271A

l0040271A:
	jge	00402248

l00402720:
	adc	al,A0
	sub	[ebx],cl
	in	eax,dx
	jns	0040272C

fn00402727()
	mov	[esp],esi
	xchg	al,al

l0040272C:
	pop	esi
	mov	ecx,937F0762
	neg	bl
	mov	edx,edi
	or	dl,cl
	add	eax,esi
	or	ebx,edx
	jmp	004024C9
00402741    8A AD 4F 42 BC 30 7A                          ..OB.0z       

fn00402748()
	neg	bh
	sub	bh,ch
	or	esi,ebx
	add	edi,edx
	mov	eax,[eax]
	sub	esi,edx
	inc	edi
	jmp	00401F6C
0040275A                               D7 2B 4A 45 3E 7D           .+JE>}
00402760 39 FD                                           9.             

fn00402762()
	pop	dword ptr [esp-0C]
	sub	bl,al
	sub	bl,ch
	add	edx,ebx
	xor	ebx,eax
	or	bl,cl
	mov	dl,dh
	xor	ebx,eax
	jmp	00402364
00402779                            AB FD F3 A6 44 E0 CB          ....D..
00402780 1C                                              .              

fn00402781()
	lea	esp,[esp+04]
	add	edx,ecx
	sub	ecx,edi
	or	edi,edx
	neg	cl
	or	bl,dl
	neg	ch
	mov	ecx,ebx
	call	00402699
	mov	ebx,7FC1DF1E
	aam	8D

fn0040279E()
	lea	esp,[esp+04]

fn0040279F()
	and	al,04
	dec	esi
	add	esi,ebx
	mov	bl,FC
	neg	bh
	mov	esi,edx
	add	esi,ecx
	mov	bl,ah
	dec	esi
	dec	edi
	jmp	00401F87
004027B6                   55 4C DF 99 86 5B D4 B3             UL...[.. 

l004027BE:
	or	edi,ebx
	or	bl,ch
	mov	edi,esi
	add	bl,dh
	dec	edi
	add	esi,edi
	dec	esi
	mov	ebx,eax
	mov	ebx,esi
	call	00402C85
	call	far 7A08:AC6C
	pop	ds
	out	8D,al

fn004027DA()
	lea	esp,[esp+04]
	sub	ebx,edx
	xor	bh,dh
	mov	bl,A2
	inc	ebx
	neg	bh
	jmp	00402605
004027EC                                     8E EB 66 5E             ..f^
004027F0 50 E8                                           P.             

l004027F2:
	neg	bl
	or	edx,ecx
	mov	esi,ebx
	add	esi,ebx
	add	dh,al
	add	bl,al
	jmp	00402304
00402803          3A A0 9C 60 63 2A FC 2B F1 8B D8 8A F9    :..`c*.+.....
00402810 33 F0 0A F9 0F 88 07 04 00 00 F3 0F 89 00 04 00 3...............
00402820 00 12 B1 D4 BF 00 AE                            .......        

fn00402827()
	add	bl,dh
	inc	ebx
	inc	ebx
	xor	ah,bh
	xor	bh,al
	add	edi,ecx
	neg	bl
	sub	edi,esi
	neg	bh
	mov	dh,F0
	js	00402B42

l0040283F:
	jmp	00402844

l00402844:
	jns	00402B42

l0040284A:
	adc	al,72
	cmp	al,99
	sbb	eax,448F9926

fn00402852()
	inc	esp
	and	al,E4
	dec	ebx
	add	edx,esi
	inc	ebx
	or	dl,dh
	add	dh,al
	mov	ebx,edi
	ror	al,17
	mov	bh,B6
	mov	ebx,ecx
	jmp	00402AA8

l0040286B:
	adc	al,95
	illegal	
	pop	ebx
	and	[ecx+5AF22414],ecx

fn00402870()
	mov	[esp],edx
	repne	
	pop	edx
	mov	ah,25
	mov	ah,81
	mov	ebx,esi
	mov	edx,ebx
	dec	edx
	sub	ch,bl
	mov	eax,ecx
	jle	00402166
	mov	ecx,ecx
	jg	00402166
	mov	dh,43
	pushf	
	inc	esp
	push	esp
	mov	cl,87

fn00402896()
	xchg	[esp],eax
	jmp	0040289F
0040289E                                           19                  .

l0040289F:
	xchg	dh,dh
	pop	eax
	mov	bh,ch
	add	esi,edi
	xor	esi,edx
	jo	00402904

l004028AA:
	mov	bx,bx
	jno	00402904

l004028AF:
	jo	00402852

l004028B1:
	jbe	0040286B

fn004028B3()
	xchg	[esp],esi
	mov	ebx,ebx
	xchg	di,di
	pop	esi
	sub	ch,ah
	xor	edx,eax

fn004028BF()
	ror	byte ptr [edx+8BF902D0],01
	illegal	
	cdq	
	stc	
	illegal	
004028CB                                  4D B6 D9 4C 8B            M..L.
004028D0 E2 25 1C                                        .%.            

fn004028D3()
	pop	dword ptr [esp-24]
	sub	bl,bh
	mov	bh,ch
	add	esi,edi
	neg	bh
	inc	esi
	call	004025CC
	ficomp	dword ptr [esi-3D]
	daa	
	jpe	004028ED

fn004028EA()
	add	dl,ah
	add	dl,dh
	dec	eax
	or	eax,edi
	xor	dl,dh
	dec	edx
	dec	eax
	xor	ecx,937F0BBD
	jmp	004022C6
00402900 47 EF 96 2D                                     G..-           

l00402904:
	inc	ebx
	add	eax,ecx
	mov	bh,al
	neg	bl
	mov	bh,15
	mov	bl,62
	js	00402B26

l00402915:
	rep	
	xchg	eax,eax
	jns	00402B26
	xchg	eax,ebp
	ret	B4C6
	mov	dh,B6
	dec	ecx

fn00402925()
	xor	ebx,esi
	mov	ebx,edx
	inc	ebx
	xor	ebx,esi
	inc	edi
	dec	ebx
	xor	bl,ch
	xor	ebx,ecx
	call	004028D3
	stosd	
	inc	edi
	cld	
	jnc	004028BF

fn0040293C()
	inc	ebx
	add	bh,ah
	neg	bh
	xor	ebx,edx
	mov	bh,36
	add	esi,ebx
	jmp	00402324
0040294C                                     B3 CF CE AF             ....

l00402950:
	inc	edi
	xor	ebx,esi
	mov	esi,edi
	add	edx,ebx
	xor	ch,bh
	xor	esi,ecx
	xor	edx,ebx
	mov	cl,bh
	mov	esi,eax
	call	00401EBE
	sbb	edi,[edx]
	add	dh,dl
	xchg	eax,edx
	ror	esp,cl
	jle	004029B7

l0040296F:
	add	bh,ch
	push	dword ptr [ecx]
	mov	dl,27
	mov	bl,C1
	sub	bl,dl
	mov	bh,7C
	or	eax,ecx
	call	0040263D
	stosd	
	xor	eax,3302300D

fn00402987()
	xor	edx,esi

l00402988:
	illegal	
	inc	edx
	mov	bl,36
	sub	bl,ah
	add	edx,esi
	dec	edx
	add	al,1E
	jmp	004023C1
00402999                            D6 C6 0E 23                   ...#  

fn0040299D()
	add	ecx,edx
	mov	ebx,edx
	or	cl,ch
	sub	edx,edi
	push	esi
	inc	edx
	xor	bl,bh
	jmp	00402574
004029AE                                           99 D3               ..
004029B0 F0 99 C6 86 40 BC                               ....@.         

l004029B6:
	add	bh,dl

fn004029B7()
	cli	
	mov	esi,eax
	dec	ebx
	pop	edx
	sub	bh,ah
	xor	bl,al
	xor	ebx,edi
	add	esi,eax
	mov	edi,ecx
	add	ebx,edi
	js	0040204B

fn004029CE()
	mov	cl,cl
	jns	0040204B

l004029D6:
	inc	ebp
	push	es
	mov	[5AE6563C],eax

fn004029DD()
	xchg	[esp],ecx
	xchg	dh,dh
	jmp	004029E8
004029E7                      24                                $       

fn004029E8()
	pop	ecx
	add	ebx,esi
	xor	dl,al
	xor	bh,cl
	inc	esi
	mov	dh,B6
	jmp	004026D9
004029F7                      86 B6 D6 64 8F E3 83 41           ...d...A

fn004029FF()
	mov	ecx,edx
	add	dl,dh
	xor	cl,bl
	mov	al,bh
	sub	ah,dh
	pop	edi
	or	edx,eax
	dec	edx
	jmp	00402BB2
00402A12       18 1C 80 56 68                              ...Vh        

fn00402A17()
	neg	ah
	inc	edx
	mov	dh,dl
	or	dl,ch
	mov	ebx,eax
	xor	edx,edi
	sub	edx,esi
	add	edx,edi
	call	004021D7
	mov	edi,95EADD95

fn00402A30()
	mov	bl,ch
	or	edi,ecx
	xor	edi,esi
	mov	esi,edi
	dec	esi
	add	bl,ah
	jc	00402123

fn00402A41()
	rep	
	jnc	00402123
	lds	esi,[edx]
	pushf	
	test	[edx],ecx

fn00402A4C()
	or	bh,al
	inc	ebx
	neg	bl
	dec	ebx
	mov	esi,ecx
	dec	ebx
	mov	esi,eax
	jmp	004027BE
00402A5C                                     D5 68 21 4F             .h!O
00402A60 14                                              .              

l00402A61:
	mov	bl,dl
	or	bh,al
	xor	bh,ah
	add	esi,eax
	sub	ebx,ecx
	add	bl,dl
	sub	bl,bh
	or	esi,edx
	inc	esi
	jc	004026FE

l00402A78:
	mov	cl,cl
	push	ax
	pop	ax
	jnc	004026FE

l00402A84:
	pop	ebp
	push	edi
	sbb	dword ptr [ecx-12],871DFA5D

fn00402A8C()
	xchg	[esp],edi

fn00402A8D()
	cmp	al,24
	repne	
	pop	edi
	add	ebx,edi
	neg	dl
	neg	dh
	sub	dh,ch
	xor	edx,ebx
	or	dh,ah
	or	edx,ebx
	jmp	0040244F
	push	esp
	rcr	dword ptr [esi],01
	lahf	

fn00402AA8()
	mov	bl,65
	add	bh,dl
	inc	ebx
	inc	edx
	sub	dl,ch
	sub	bh,ch
	jo	00402067

l00402AB8:
	xchg	esi,esi
	jno	00402067

l00402AC0:
	and	[edx+60],ch
	mov	[eax+29],gs
	inc	esp
	lodsd	

fn00402AC8()
	or	ebx,ecx
	mov	eax,edi
	add	dl,ah
	sub	bh,dl
	sub	al,cl
	xor	al,bl
	neg	ah
	xor	bl,bh
	jle	00402C68

fn00402ADE()
	repne	
	rep	
	jg	00402C68
	push	eax
	add	[esi],esi
	out	00,al
	jcxz	00402AD5

fn00402AED()
	lea	esp,[esp+04]
	neg	bl
	add	cl,dh
	neg	dh
	mov	ch,ah
	mov	esi,edi
	jmp	00402432
00402B00 F3 FF 6F A4 0C 92 E4 0B                         ..o.....       

fn00402B08()
	pop	dword ptr [esp-34]
	or	bl,ah
	sub	esi,eax
	sub	edi,esi
	add	edi,eax
	neg	bl
	push	dword ptr [edx+08]
	jmp	00402A30
00402B1E                                           3D 8B               =.
00402B20 37 06 C1 73 B8 A4                               7..s..         

l00402B26:
	or	bh,dl
	mov	bh,6F
	or	edi,esi
	sub	ebx,eax
	inc	edi
	or	bh,bl
	mov	bl,CE
	push	dword ptr [eax+10]
	call	004027DA
	push	edi
	test	eax,9639042B
	add	[edx],cl

l00402B42:
	or	dh,dl

l00402B43:
	repne	
	shl	ecx,0F
	add	ebx,eax
	neg	al
	sub	al,dh
	sub	dl,bl
	call	004023D6
	outsd	
	mul	dword ptr [eax]
	sti	
	mov	al,81
	outsb	

fn00402B5B()
	mov	[esi],ah
	sub	ebx,edi
	mov	ebx,esi
	mov	bl,al
	inc	edx
	mov	bl,22
	add	dh,cl
	neg	dl
	jc	00402107

l00402B70:
	lea	edi,[edi]
	js	00402B74

l00402B74:
	jnc	00402107

l00402B7A:
	add	al,AB
	mov	cl,C7
	adc	[edi+53],edi
	jmp	DA36FC10

l00402B82:
	mov	dl,al
	neg	cl
00402B86                   03 D8 03 C8 2A EA 0A EE 8B CF       ....*.....
00402B90 0A C8 E9 EE F7 FF FF D2 81 8F B3                ...........    

l00402B9B:
	inc	edx
	xor	dl,al
	sub	dl,cl
	mov	dl,A0
	xor	dh,al
	add	dl,dh
	call	00401F4D
	mov	esi,F3BED07C
	adc	eax,0BF78A38

fn00402BB2()
	mov	dh,bh
	or	ecx,edx

fn00402BB5()
	retf	D932
00402BB8                         43 48 8A F3 2B D3 0F 86         CH..+...
00402BC0 47 F8 FF FF                                     G...           

l00402BC4:
	jmp	00402BCA
00402BC9                            82                            .     

l00402BCA:
	ja	0040240B
	lahf	
	and	edx,[ecx+F12C6E3D]
	movsb	

fn00402BD8()
	xor	dl,al
	dec	edx
	neg	dh
	mov	dl,dh
	or	edx,ecx
	or	edx,eax
	neg	dl
	dec	edx
	call	00402344
	inc	ecx
	push	cs
	out	dx,al
	xchg	eax,ebp
	loop	00402C0E

fn00402BF1()
	mov	esi,edi
	dec	esi
	inc	esi
	or	edi,eax
	or	esi,edx
	dec	edi
	add	eax,ebx
	or	bh,al
	add	edi,edx
	add	bl,ch
	call	00401EE1
	into	
	sahf	
	cli	
	insd	

fn00402C0B()
	push	00
	dec	ecx

fn00402C0E()
	mov	dh,ch
	inc	ebx
	neg	ch
	xor	edx,eax
	add	ch,bl
	call	004028B3
	or	[ecx+02C78808],esi
	fisubr	word ptr [edx]
	sti	
	sub	bh,dl
	sub	edi,esi
	sub	bl,dl
	add	esi,ecx
	mov	edi,ebx
	jmp	0040202A
00402C34             9D CE 8A 75 A4 02 8D 64 24 04 03 D1     ...u...d$...
00402C40 02 E5 8B DA 33 C2 8A FA 2B DE 02 DA 33 F3 03 C7 ....3...+...3...
00402C50 0F 80 4C F5 FF FF 66 87 FF 8D 1B 0F 81 41 F5 FF ..L...f......A..
00402C60 FF F3 E5 C8 8D C8 C2 1F                         ........       

fn00402C68()
	sub	bh,ah
	sub	edi,edx
	add	ah,dl
	inc	edi
	add	ebx,ecx
	shr	ecx,0F
	sub	edi,ecx
	xor	al,cl
	call	00401FC6
	illegal	
	jle	00402C57
	mov	al,[870C5A82]

fn00402C85()
	xchg	[esp],eax
	repne	
	pop	eax
	xor	bl,cl
	add	bl,al
	not	eax
	mov	ebx,edi
	jmp	00402808
	mov	al,[005DE08F]
	add	[eax],al
	add	[eax],al
	add	[eax],al
	add	[eax],al
	add	[eax],al
	add	[eax],al
	add	[eax],al
	add	[eax],al
	add	[eax],al
	add	[eax],al
	add	[eax],al
	add	[eax],al
	add	[eax],al
	add	[eax],al
	add	[eax],al
	add	[eax],al
	add	[eax],al
	add	[eax],al
	add	[eax],al
	add	[eax],al
	add	[eax],al
	add	[eax],al
	add	[eax],al
	add	[eax],al
	add	[eax],al
	add	[eax],al
	add	[eax],al
	add	[eax],al
	add	[eax],al
	add	[eax],al
	add	[eax],al
	add	[eax],al
	add	[eax],al
	add	[eax],al
	add	[eax],al
	add	[eax],al
	add	[eax],al
	add	[eax],al
	add	[eax],al
	add	[eax],al
	add	[eax],al
	add	[eax],al
	add	[eax],al
	add	[eax],al
	add	[eax],al
	add	[eax],al
	add	[eax],al
	add	[eax],al
	add	[eax],al
	add	[eax],al
	add	[eax],al
	add	[eax],al
	add	[eax],al
	add	[eax],al
	add	[eax],al
	add	[eax],al
	add	[eax],al
	add	[eax],al
	add	[eax],al
	add	[eax],al
	add	[eax],al
	add	[eax],al
	add	[eax],al
	add	[eax],al
	add	[eax],al
	add	[eax],al
	add	[eax],al
	add	[eax],al
	add	[eax],al
	add	[eax],al
	add	[eax],al
	add	[eax],al
	add	[eax],al
	add	[eax],al
	add	[eax],al
	add	[eax],al
	add	[eax],al
	add	[eax],al
	add	[eax],al
	add	[eax],al
	add	[eax],al
	add	[eax],al
	add	[eax],al
	add	[eax],al
	add	[eax],al
	add	[eax],al
	add	[eax],al
	add	[eax],al
	add	[eax],al
	add	[eax],al
	add	[eax],al
	add	[eax],al
	add	[eax],al
	add	[eax],al
	add	[eax],al
	add	[eax],al
	add	[eax],al
	add	[eax],al
	add	[eax],al
	add	[eax],al
	add	[eax],al
	add	[eax],al
	add	[eax],al
	add	[eax],al
	add	[eax],al
	add	[eax],al
	add	[eax],al
	add	[eax],al
	add	[eax],al
	add	[eax],al
	add	[eax],al
	add	[eax],al
	add	[eax],al
	add	[eax],al
	add	[eax],al
	add	[eax],al
	add	[eax],al
	add	[eax],al
	add	[eax],al
	add	[eax],al
	add	[eax],al
	add	[eax],al
	add	[eax],al
	add	[eax],al
	add	[eax],al
	add	[eax],al
	add	[eax],al
	add	[eax],al
	add	[eax],al
	add	[eax],al
	add	[eax],al
	add	[eax],al
	add	[eax],al
	add	[eax],al
	add	[eax],al
	add	[eax],al
	add	[eax],al
	add	[eax],al
	add	[eax],al
	add	[eax],al
	add	[eax],al
	add	[eax],al
	add	[eax],al
	add	[eax],al
	add	[eax],al
	add	[eax],al
	add	[eax],al
	add	[eax],al
	add	[eax],al
	add	[eax],al
	add	[eax],al
	add	[eax],al
	add	[eax],al
	add	[eax],al
	add	[eax],al
	add	[eax],al
	add	[eax],al
	add	[eax],al
	add	[eax],al
	add	[eax],al
	add	[eax],al
	add	[eax],al
	add	[eax],al
	add	[eax],al
	add	[eax],al
	add	[eax],al
	add	[eax],al
	add	[eax],al
	add	[eax],al
	add	[eax],al
	add	[eax],al
	add	[eax],al
	add	[eax],al
	add	[eax],al
	add	[eax],al
	add	[eax],al
	add	[eax],al
	add	[eax],al
	add	[eax],al
	add	[eax],al
	add	[eax],al
	add	[eax],al
	add	[eax],al
	add	[eax],al
	add	[eax],al
	add	[eax],al
	add	[eax],al
	add	[eax],al
	add	[eax],al
	add	[eax],al
	add	[eax],al
	add	[eax],al
	add	[eax],al
	add	[eax],al
	add	[eax],al
	add	[eax],al
	add	[eax],al
	add	[eax],al
	add	[eax],al
	add	[eax],al
	add	[eax],al
	add	[eax],al
	add	[eax],al
	add	[eax],al
	add	[eax],al
	add	[eax],al
	add	[eax],al
	add	[eax],al
	add	[eax],al
	add	[eax],al
	add	[eax],al
	add	[eax],al
	add	[eax],al
	add	[eax],al
	add	[eax],al
	add	[eax],al
	add	[eax],al
	add	[eax],al
	add	[eax],al
	add	[eax],al
	add	[eax],al
	add	[eax],al
	add	[eax],al
	add	[eax],al
	add	[eax],al
	add	[eax],al
	add	[eax],al
	add	[eax],al
	add	[eax],al
	add	[eax],al
	add	[eax],al
	add	[eax],al
	add	[eax],al
	add	[eax],al
	add	[eax],al
	add	[eax],al
	add	[eax],al
	add	[eax],al
	add	[eax],al
	add	[eax],al
	add	[eax],al
	add	[eax],al
	add	[eax],al
	add	[eax],al
	add	[eax],al
	add	[eax],al
	add	[eax],al
	add	[eax],al
	add	[eax],al
	add	[eax],al
	add	[eax],al
	add	[eax],al
	add	[eax],al
	add	[eax],al
	add	[eax],al
	add	[eax],al
	add	[eax],al
	add	[eax],al
	add	[eax],al
	add	[eax],al
	add	[eax],al
	add	[eax],al
	add	[eax],al
	add	[eax],al
	add	[eax],al
	add	[eax],al
	add	[eax],al
	add	[eax],al
	add	[eax],al
	add	[eax],al
	add	[eax],al
	add	[eax],al
	add	[eax],al
	add	[eax],al
	add	[eax],al
	add	[eax],al
	add	[eax],al
	add	[eax],al
	add	[eax],al
	add	[eax],al
	add	[eax],al
	add	[eax],al
	add	[eax],al
	add	[eax],al
	add	[eax],al
	add	[eax],al
	add	[eax],al
	add	[eax],al
	add	[eax],al
	add	[eax],al
	add	[eax],al
	add	[eax],al
	add	[eax],al
	add	[eax],al
	add	[eax],al
	add	[eax],al
	add	[eax],al
	add	[eax],al
	add	[eax],al
	add	[eax],al
	add	[eax],al
	add	[eax],al
	add	[eax],al
	add	[eax],al
	add	[eax],al
	add	[eax],al
	add	[eax],al
	add	[eax],al
	add	[eax],al
	add	[eax],al
	add	[eax],al
	add	[eax],al
	add	[eax],al
	add	[eax],al
	add	[eax],al
	add	[eax],al
	add	[eax],al
	add	[eax],al
	add	[eax],al
	add	[eax],al
	add	[eax],al
	add	[eax],al
	add	[eax],al
	add	[eax],al
	add	[eax],al
	add	[eax],al
	add	[eax],al
	add	[eax],al
	add	[eax],al
	add	[eax],al
	add	[eax],al
	add	[eax],al
	add	[eax],al
	add	[eax],al
	add	[eax],al
	add	[eax],al
	add	[eax],al
	add	[eax],al
	add	[eax],al
	add	[eax],al
	add	[eax],al
	add	[eax],al
	add	[eax],al
	add	[eax],al
	add	[eax],al
	add	[eax],al
	add	[eax],al
	add	[eax],al
	add	[eax],al
	add	[eax],al
	add	[eax],al
	add	[eax],al
	add	[eax],al
	add	[eax],al
	add	[eax],al
	add	[eax],al
	add	[eax],al
	add	[eax],al
	add	[eax],al
	add	[eax],al
	add	[eax],al
	add	[eax],al
	add	[eax],al
	add	[eax],al
	add	[eax],al
	add	[eax],al
	add	[eax],al
	add	[eax],al
	add	[eax],al
	add	[eax],al
	add	[eax],al
	add	[eax],al
	add	[eax],al
	add	[eax],al
	add	[eax],al
	add	[eax],al
	add	[eax],al
	add	[eax],al
	add	[eax],al
	add	[eax],al
	add	[eax],al
	add	[eax],al
	add	[eax],al
	add	[eax],al
	add	[eax],al
	add	[eax],al
	add	[eax],al
	add	[eax],al
	add	[eax],al
	add	[eax],al
	add	[eax],al
	add	[eax],al
	add	[eax],al
	add	[eax],al
	add	[eax],al
	add	[eax],al
	add	[eax],al
	add	[eax],al
	add	[eax],al
	add	[eax],al
	add	[eax],al
	add	[eax],al
	add	[eax],al
	add	[eax],al
	add	[eax],al
	add	[eax],al
	add	[eax],al
	add	[eax],al
	add	[eax],al
	add	[eax],al
	add	[eax],al
	add	[eax],al
	add	[eax],al
	add	[eax],al
	add	[eax],al
	add	[eax],al
	add	[eax],al
	add	[eax],al
	add	[eax],al
	add	[eax],al
	add	[eax],al
	add	[eax],al
	add	[eax],al
	add	[eax],al
	add	[eax],al
	add	[eax],al
	add	[eax],al
	add	[eax],al
	add	[eax],al
	add	[eax],al
	add	[eax],al
	add	[eax],al
	add	[eax],al
	add	[eax],al
00403000 FF 46 75 5F 06 19 8D 1C 04 00 09 DD 4E 46 F7 95 .Fu_........NF..
00403010 E1 A8 6E 00 2E 0D 87 EA 00 20 35 F8 EB 14 A2 66 ..n...... 5....f
00403020 FF 18 4C FC B8 F8 04 00 4A 87 FF 04 B6 63 AE 18 ..L.....J....c..
00403030 85 00 00 D0 00 82 0E 03 2B 2D A8 0C 2C 39 24 0C ........+-..,9$.
00403040 A7 66 97 40 FF 71 1C A6 78 7F 5C FF 76 C6 51 17 .f.@.q..x.\.v.Q.
00403050 12 17 3D 73 FF FF 09 00 00 5E FD 38 00 99 5A F7 ..=s.....^.8..Z.
00403060 0A A1 FC E3 B7 FB 48 63 AC 38 B6 11 80 5E FF 00 ......Hc.8...^..
00403070 D0 1F B4 34 00 FF 39 00 BE 7E 65 00 00 E5 67 D0 ...4..9..~e...g.
00403080 CB BB 39 00 00 5C E5 3B 64 66 6D D5 00 33 8C B6 ..9..\.;dfm..3..
00403090 D1 00 29 FF C3 77 39 FF F1 B3 74 D6 45 0E BA 29 ..)..w9...t.E..)
004030A0 00 FF 38 17 71 79 E1 31 0C 56 35 33 A1 61 48 27 ..8.qy.1.V53.aH'
004030B0 16 11 FF 73 E0 C8 74 7D 59 ED 35 00 00 26 12 9E ...s..t}Y.5..&..
004030C0 D4 B2 70 61 C6 7B 21 1A 0A D8 00 C3 BC D6 28 FF ..pa.{!.......(.
004030D0 50 05 76 9B 3B 6A A9 00 00 F5 AC FF E9 00 00 3F P.v.;j.........?
004030E0 CB 6B 24 00 08 FF 74 FE 6A 00 00 F4 A9 8D 98 5C .k$...t.j......\
004030F0 34 FF CD 00 66 3E 00 61 51 04 05 60 6E D1 17 38 4...f>.aQ..`n..8
00403100 9B 64 AB B1 44 67 E7 4F 03 95 25 00 DC 86 01 2C .d..Dg.O..%....,
00403110 F4 7F 72 0A A2 6F C2 D4 60 18 71 00 39 BA 7F B4 ..r..o..`.q.9...
00403120 ED A3 15 E7 26 5B BE E7 01 80 00 D2 16 72 95 8A ....&[.......r..
00403130 81 A5 00 D0 00 50 97 0B 99 9C 00 06 43 49 F9 00 .....P......CI..
00403140 21 00 00 32 F1 A6 00 99 16 56 98 02 F3 59 08 66 !..2.....V...Y.f
00403150 3A 06 0D 1A 83 EB 4D 76 95 D2 96 1C BB C2 1E ED :.....Mv........
00403160 00 3F DE 3C C1 00 00 FF 30 5A 3E D7 92 FF 9D 72 .?.<....0Z>....r
00403170 04 F7 18 93 FF 39 B7 32 D2 00 A6 7E 2E E6 D6 E3 .....9.2...~....
00403180 76 35 71 00 4C 00 17 BD 56 40 41 B0 F9 00 50 9B v5q.L...V@A...P.
00403190 E1 9B F1 A9 09 41 F9 38 F9 A0 53 84 89 C7 7F 4E .....A.8..S....N
004031A0 C4 FF 90 4B 05 22 0A 90 88 58 C9 C8 3C 08 02 CD ...K."...X..<...
004031B0 E2 30 5E 88 DC 8E FF 3F 38 20 AD BE E1 FE DF 9F .0^....?8 ......
004031C0 40 8E CD 26 81 71 40 91 06 C0 24 00 53 C5 00 00 @..&.q@...$.S...
004031D0 F3 71 7A 5B 92 62 B9 00 B3 AE C6 25 0B FF 04 15 .qz[.b.....%....
004031E0 D9 22 C0 46 6D 87 37 00 AF FD 31 E4 5C 81 E2 60 .".Fm.7...1.\..`
004031F0 61 BB C6 00 A7 3B 2F 00 E6 3A 93 E3 F1 C6 05 DE a....;/..:......
00403200 7F 13 FF C7 B1 C5 B8 2D 84 57 FF 81 14 C7 00 21 .......-.W.....!
00403210 AC 06 04 89 00 BA FA FF F4 89 B6 A8 83 73 38 84 .............s8.
00403220 08 C0 24 A2 EA E6 91 4D EF 44 13 02 03 01 B6 FF ..$....M.D......
00403230 C0 FF 2A 9E 76 CE 00 4C 66 00 92 AC 49 F5 E8 96 ..*.v..Lf...I...
00403240 97 84 08 17 00 3A 89 F3 B3 49 4C 6E BF 34 34 20 .....:...ILn.44 
00403250 98 CB F3 C9 FB 1F A9 00 1E 93 1D F1 D7 00 BF BB ................
00403260 41 00 44 D4 CD 25 01 4F F1 11 E8 60 A2 FC 21 00 A.D..%.O...`..!.
00403270 91 F9 FF 1F 8D 44 41 DB 41 E8 4D 23 49 19 FF C3 .....DA.A.M#I...
00403280 82 21 98 04 25 BE 31 2D 46 00 F0 8D 4A B8 64 C2 .!..%.1-F...J.d.
00403290 0B FF 67 8C AE FD FF 79 A3 07 AE 38 F6 45 17 35 ..g....y...8.E.5
004032A0 C6 FF 00 88 DB 2A BF ED 00 00 15 00 33 FB 78 FF .....*......3.x.
004032B0 36 00 14 00 E7 E6 56 00 F9 4C 00 54 00 46 18 D3 6.....V..L.T.F..
004032C0 00 96 32 00 01 84 A9 8B 03 F7 31 F2 3F 5C 00 F5 ..2.......1.?\..
004032D0 82 60 47 A7 CD 14 58 50 4B 9B D3 0C A1 00 DF 71 .`G...XPK......q
004032E0 5C DB 31 64 60 56 E0 D2 5B 4C 18 DC 52 FF C5 00 \.1d`V..[L..R...
004032F0 3C 15 00 F4 9D 85 39 84 12 00 75 23 07 07 6A 5E <.....9...u#..j^
00403300 18 00 7F 80 00 88 C8 5C 89 00 00 A0 12 FB 39 B5 .......\......9.
00403310 FC D6 89 6A 0E 00 8D BC 00 00 5A 3B 04 00 BC 8D ...j......Z;....
00403320 A7 42 49 38 00 46 D7 00 78 08 F9 1B 00 26 B2 AF .BI8.F..x....&..
00403330 00 B2 0C 00 47 ED 32 C7 51 63 34 10 1D 02 8C B8 ....G.2.Qc4.....
00403340 00 C0 7F 19 69 DB 22 A6 0C 48 9A E8 FF 1C 48 2D ....i."..H....H-
00403350 00 50 AB 4F FF 4F 49 1D 47 31 EF E1 B2 47 FE 3E .P.O.OI.G1...G.>
00403360 05 8D D6 F1 C1 C3 5D 4F EA 4B B8 00 90 79 82 0C ......]O.K...y..
00403370 FF 4D 39 C9 FC 25 3D E0 02 50 20 2E FF F9 1F 93 .M9..%=..P .....
00403380 02 82 1E 4A 69 09 C9 80 00 FF 87 58 51 28 FF 00 ...Ji......XQ(..
00403390 69 00 FF 96 A9 8C 00 83 D4 A7 00 52 28 E3 22 30 i..........R(."0
004033A0 36 00 FB 00 4E 1D 00 BC 7D B7 03 4E 29 00 A9 07 6...N...}..N)...
004033B0 50 3D 38 00 CC E2 40 7B 02 76 C1 1B 18 65 B8 00 P=8...@{.v...e..
004033C0 60 79 9D 09 05 67 03 24 ED E2 4A 0F 00 75 9C 3E `y...g.$..J..u.>
004033D0 47 FF 20 C2 BE 99 64 14 CB BE 58 DB DD 96 B5 B9 G. ...d...X.....
004033E0 33 00 60 FF 0C 4E 08 07 5B 76 10 02 FF 82 FF BE 3.`..N..[v......
004033F0 88 9C 00 F7 FF D9 00 81 30 40 FD 22 84 C3 E4 B1 ........0@."....
00403400 00 9B 35 FA E8 42 85 6A A9 92 E8 A4 99 40 EA 3B ..5..B.j.....@.;
00403410 15 E6 96 12 01 E7 B6 35 1A C1 72 E8 18 C4 BE C5 .......5..r.....
00403420 93 3D 1F D5 C3 E2 16 E4 7D 92 00 8D 40 53 00 00 .=......}...@S..
00403430 1A 9D 04 92 84 FF FF 40 8F 2A 9F 29 F3 86 CB 8F .......@.*.)....
00403440 6F B0 47 00 67 72 EB 37 76 67 EE 43 1C 6C C3 33 o.G.gr.7vg.C.l.3
00403450 4F A0 03 5A 24 30 39 EF 20 FF A8 ED 7D BB 03 19 O..Z$09. ...}...
00403460 00 C4 6D EE 30 D9 9F 18 C8 76 1B F4 74 5E 00 20 ..m.0....v..t^. 
00403470 8E 2C 25 32 E3 1E C0 B6 00 01 A5 6C 28 18 14 00 .,%2.......l(...
00403480 92 08 BD C2 A1 4F 00 18 37 00 04 83 FF 00 43 20 .....O..7.....C 
00403490 F4 00 9A 70 F1 00 1F 53 7D 85 07 CE A7 01 0C 00 ...p...S}.......
004034A0 2F F5 7D 78 72 5D 06 08 49 81 B0 E6 E4 3A FD B7 /.}xr]..I....:..
004034B0 50 FF FF 57 38 CF 78 35 76 83 A1 D1 57 41 D5 D1 P..W8.x5v...WA..
004034C0 3B 51 04 8F 59 84 8F F7 14 C8 53 CD 01 0F A1 DD ;Q..Y.....S.....
004034D0 BB 50 96 2D B1 D8 46 FF 6B 98 7B 2B 8B BE 11 CF .P.-..F.k.{+....
004034E0 00 09 D9 FF 00 BA B6 DB B9 8A 19 89 CF 00 83 00 ................
004034F0 0D 68 3C 00 DF 48 6A 41 DF 16 32 CE A1 21 1B 88 .h<..HjA..2..!..
00403500 1E 00 8E FD 00 60 2D AF 29 C4 3D A1 A8 87 82 FB .....`-.).=.....
00403510 2A DF 38 40 8D 19 1E 01 40 3E 35 9C 2F 07 9B 59 *.8@....@>5./..Y
00403520 7E 2A 2A 22 EB 4D 3E E8 E2 9F 15 6C FF FE 00 FF ~**".M>....l....
00403530 60 50 FB 9E 74 5C 00 BC 00 00 16 43 C3 03 1A 37 `P..t\.....C...7
00403540 D0 BA FB 37 50 16 72 69 2E CE 5F 16 1A 4A 8B 12 ...7P.ri.._..J..
00403550 04 7A DC 7E FF 73 08 02 44 82 69 06 BB A8 58 3F .z.~.s..D.i...X?
00403560 FF 9A 55 04 49 FF 00 8E 53 0B 0F FF A9 BD 12 11 ..U.I...S.......
00403570 16 20 FF A9 86 8D 7E 8C 9A 27 3B C0 96 6D D4 00 . ....~..';..m..
00403580 28 20 47 FF 74 7C 57 38 7B 0F 6E A5 00 F8 DA 65 ( G.t|W8{.n....e
00403590 12 80 72 C0 00 96 FE F7 1C FF AB E1 F4 0B 74 86 ..r...........t.
004035A0 7C 28 E5 01 98 AD FF 00 E9 5F A6 42 00 F0 16 D6 |(......._.B....
004035B0 91 12 6C DF FF 7B E0 26 1C 6B E2 00 76 81 34 B2 ..l..{.&.k..v.4.
004035C0 D5 5D 78 1B 6F 3A 39 04 8B 00 65 7C C9 81 CF 3A .]x.o:9...e|...:
004035D0 9C 70 65 41 00 05 C2 0E 58 60 00 76 6F 31 85 65 .peA....X`.vo1.e
004035E0 00 79 FF 20 2D 61 00 3E 3D 32 87 75 F0 EA D2 00 .y. -a.>=2.u....
004035F0 0F BF 16 1F 23 06 26 00 F3 91 95 F7 09 F0 EA 3C ....#.&........<
00403600 00 2F A8 78 A6 00 F1 39 3E 03 00 FD B3 26 4D CA ./.x...9>....&M.
00403610 92 00 3D 3F 82 36 13 21 C7 02 03 D1 40 00 00 45 ..=?.6.!....@..E
00403620 D8 B9 A2 F0 FF 01 EC 14 65 87 36 20 41 DF 70 E5 ........e.6 A.p.
00403630 85 C4 18 BE 78 47 CB 3E E8 26 64 C7 ED B0 21 B7 ....xG.>.&d...!.
00403640 76 66 08 28 00 FF 00 81 74 28 7E CC F5 9E EF D2 vf.(....t(~.....
00403650 4E 92 55 67 A0 06 F3 9A 78 60 E1 43 A4 FF AD 68 N.Ug....x`.C...h
00403660 BB F8 73 A4 AE 00 59 3C 14 00 D4 5E 34 00 42 2E ..s...Y<...^4.B.
00403670 7C 00 AD A2 C2 E6 BA 00 65 52 25 7A 70 5D 09 00 |.......eR%zp]..
00403680 31 E8 05 9A EF 73 00 60 20 C3 39 A6 B9 04 0D 0E 1....s.` .9.....
00403690 F5 FF AA D5 5B 7C 81 2D 72 8C 0B C3 B3 26 93 F6 ....[|.-r....&..
004036A0 99 D8 11 84 F6 25 0B 8B 86 A8 8A 1F 8C 01 D4 2A .....%.........*
004036B0 12 16 00 75 8F 00 20 64 0D 00 DD F7 F2 39 1B 38 ...u.. d.....9.8
004036C0 FF 05 4A 8D FF FF 81 16 A5 00 A3 A1 42 FF 33 9D ..J.........B.3.
004036D0 32 00 55 81 39 00 BF 1E 91 D0 00 53 E8 00 63 35 2.U.9......S..c5
004036E0 74 8C 80 6B C7 05 D4 04 52 D8 00 1D 53 11 15 D9 t..k....R...S...
004036F0 18 E6 30 38 63 B2 0B 80 30 15 5A C6 9E 83 A2 23 ..08c...0.Z....#
00403700 53 6F 16 0B 10 94 5C 4D 6C 3E C4 17 ED 2A 43 00 So....\Ml>...*C.
00403710 13 1C 84 33 88 C0 D1 2D 9C E4 10 88 54 FF DF 59 ...3...-....T..Y
00403720 C6 D3 54 50 58 77 B3 38 06 9A 34 01 00 1C DB DF ..TPXw.8..4.....
00403730 02 98 7E 08 21 5E AC D0 53 1F 74 ED 13 C4 F5 36 ..~.!^..S.t....6
00403740 00 2D 00 C0 FF 2E 86 E9 F1 30 FB 80 6E 69 00 B7 .-.......0..ni..
00403750 6C 54 00 3E 00 FE AF 92 05 5F B7 18 00 10 00 41 lT.>....._.....A
00403760 7D E3 CB 10 A8 9A 9F 00 CC 3A 4C DE 06 DC 10 31 }........:L....1
00403770 00 FF 24 00 31 A8 05 42 86 FF 47 3E 00 20 8E C4 ..$.1..B..G>. ..
00403780 B3 1D 3A 30 5C 31 58 E4 4C B8 44 34 62 18 BA FF ..:0\1X.L.D4b...
00403790 00 55 5E 00 A8 24 79 AA 21 6E 40 3A 8D 6C 80 76 .U^..$y.!n@:.l.v
004037A0 24 F3 B9 9B 74 31 00 8F 1E 74 70 4A DD A3 EC F2 $...t1...tpJ....
004037B0 DB 00 84 E9 3D E4 1A 20 7B A0 2B 00 BF 8F 64 09 ....=.. {.+...d.
004037C0 DF B3 77 F7 FF 8B 00 3F 35 86 E9 7A 07 B7 06 05 ..w....?5..z....
004037D0 35 E1 C8 A6 BB CF 56 07 D9 00 BA B6 89 F1 4A 5A 5.....V.......JZ
004037E0 00 99 00 AC 73 44 FB 31 C8 00 00 F3 80 00 2A BF ....sD.1......*.
004037F0 3F D8 C5 00 3A AF 4E 03 98 00 D3 42 4A F9 04 AC ?...:.N....BJ...
00403800 07 00 A4 0C C7 4E 38 FF 5E 41 EA 02 E3 F5 8D E6 .....N8.^A......
00403810 BD 00 D6 A7 00 04 7E 4F 00 7F 00 00 62 B7 B1 4F ......~O....b..O
00403820 F8 8C C1 1D C2 20 5A 05 A9 7C 0A FC A2 1F 9F 54 ..... Z..|.....T
00403830 59 20 FD 7E EE 69 0E F5 4B 88 F5 4F BE 4F D9 B4 Y .~.i..K..O.O..
00403840 E2 FF 04 F1 52 70 09 8F 40 B7 00 C6 0D 30 C9 30 ....Rp..@....0.0
00403850 FC E1 BF 0C D2 00 CE 71 12 CF 3B 38 00 2E 89 DC .......q..;8....
00403860 7F 91 00 15 30 5D 6C FF C1 C0 42 00 8C 1B 1D 87 ....0]l...B.....
00403870 8C EC B2 FF 00 4A 57 DE 12 E2 00 45 00 00 FF A0 .....JW....E....
00403880 56 A3 27 10 A0 47 1B C8 6F 04 E0 28 C1 FD FF 38 V.'..G..o..(...8
00403890 18 02 BD 16 BA 88 F7 2C EE 98 C4 8C BE 12 AA 38 .......,.......8
004038A0 1C 00 5D 07 B5 00 00 AB 20 39 00 95 6C DE 78 B3 ..]..... 9..l.x.
004038B0 F9 6E 53 58 34 3D DD 8D 40 46 9D FF D9 7C ED FF .nSX4=..@F...|..
004038C0 45 1E C9 61 FD 0F 46 72 97 CB 15 B2 00 35 99 FA E..a..Fr.....5..
004038D0 C2 7C 0D 97 DC 00 32 5E F1 00 27 B4 00 EF 1D 00 .|....2^..'.....
004038E0 6E 13 D6 86 35 F5 D1 FB 19 8F 23 CD 00 60 F3 00 n...5.....#..`..
004038F0 00 6C B3 26 ED 53 6D 00 FF 58 8B B5 4C 4E 5F 14 .l.&.Sm..X..LN_.
00403900 59 4F 00 92 BA 13 FA BA 27 69 D2 0E 75 31 C9 2B YO......'i..u1.+
00403910 78 71 65 3F C0 32 4A 00 C8 9F B9 28 FD 51 E1 E6 xqe?.2J....(.Q..
00403920 03 BF 60 BE 46 42 FF 13 B9 71 E0 73 6B 0E 0D 07 ..`.FB...q.sk...
00403930 4F 4F 00 00 BC 83 C0 94 00 6A BA E0 20 3B 9D 2C OO.......j.. ;.,
00403940 DF FF 08 76 DB 24 60 A9 E0 52 31 00 EA 5C D8 A7 ...v.$`..R1..\..
00403950 35 5B DF 10 1D 31 50 00 FC 91 B4 FF 44 01 D9 FF 5[...1P.....D...
00403960 87 0A D3 A2 37 02 55 E4 01 00 00 FC A1 CF 22 00 ....7.U.......".
00403970 84 16 0C FF 00 6B 3F 00 B7 9A 35 08 33 75 F3 DF .....k?...5.3u..
00403980 58 91 0F A6 01 F8 A9 FF A3 00 14 C8 E1 DB 26 1F X.............&.
00403990 FB 02 F2 B6 1E F4 5C 0E 00 22 0A 27 00 3B 00 06 ......\..".'.;..
004039A0 04 06 21 2F 00 67 30 7F 31 82 C4 76 00 CE D1 EF ..!/.g0.1..v....
004039B0 69 3C 00 01 AA 00 A5 00 20 89 C1 16 F2 4C 53 9D i<...... ....LS.
004039C0 FF C6 00 7F DF FF 00 7E E9 42 ED 00 B8 82 35 6D .......~.B....5m
004039D0 41 FF 00 DB 36 75 5B B2 FF 40 81 AC 52 FA 42 FC A...6u[..@..R.B.
004039E0 FF 73 CE 0E 00 C6 FB 1C AD 00 CD 05 62 E3 00 EF .s..........b...
004039F0 03 FF 87 E4 30 F8 DE 00 7C 00 84 85 85 1C 05 F2 ....0...|.......
00403A00 26 27 5E 00 DB 81 A1 7F 6F 5D 7E 2E FF 7B 07 81 &'^.....o]~..{..
00403A10 40 85 EA 2A 26 90 32 15 40 9A D7 35 83 00 11 7C @..*&.2.@..5...|
00403A20 1B 01 DD FF 82 00 00 2A 65 7F C6 98 F5 00 00 00 .......*e.......
00403A30 56 A3 A8 76 BE E5 60 82 3C FE 92 07 F4 31 E2 FF V..v..`.<....1..
00403A40 C3 9D E2 29 F2 00 00 56 98 C1 00 74 21 D8 15 A4 ...)...V...t!...
00403A50 DC E6 DA FB 2E C6 9E 5F 8B FF 08 CB EE D3 83 19 ......._........
00403A60 5E 5B FD 6B 35 00 CF 01 2E 0E F7 00 FF 00 C7 38 ^[.k5..........8
00403A70 15 4D 79 C0 F0 D2 BD 24 17 C0 00 F0 ED D7 E2 FD .My....$........
00403A80 D0 83 3B 5C 92 06 FF 00 A7 F7 BA 26 00 3B 39 1C ..;\.......&.;9.
00403A90 32 B0 65 0F 46 19 CE 00 B6 38 00 C1 00 12 E1 8B 2.e.F....8......
00403AA0 3A 68 83 CB 28 00 8E 50 50 20 1A 33 83 76 7C F7 :h..(..PP .3.v|.
00403AB0 FF BF F5 58 27 75 F6 9C 48 0B A2 B0 B0 FF 83 A3 ...X'u..H.......
00403AC0 DE E7 3F F4 29 AC 00 CB 6E EF F8 1B 02 6B B7 F6 ..?.)...n....k..
00403AD0 14 99 96 CB 0E 59 74 4F EE 69 33 AB A5 BF 38 3E .....YtO.i3...8>
00403AE0 F3 7E 5D 00 70 06 FF 20 7C 21 69 FE FF 37 72 27 .~].p.. |!i..7r'
00403AF0 15 99 00 76 11 F6 C5 DD 7A 30 3D B9 8C 06 AA 01 ...v....z0=.....
00403B00 1E 00 43 2A 57 4C 14 60 37 5F 0F 00 14 41 44 00 ..C*WL.`7_...AD.
00403B10 BD A3 E9 AB A8 FE F9 60 A3 BF AD 00 F6 6F 6E 3C .......`.....on<
00403B20 00 33 4C CF 4E 71 31 4D FF 00 6F D4 3A C7 8E 00 .3L.Nq1M..o.:...
00403B30 00 F2 82 3B 6A 20 BD C7 C7 62 06 1F 00 69 00 FB ...;j ...b...i..
00403B40 00 F1 E2 1B E2 75 17 9D FF 21 9D 7C 91 3E 78 3B .....u...!.|.>x;
00403B50 46 A0 F9 00 7B 77 EE BD 10 18 E4 C0 00 08 F9 28 F...{w.........(
00403B60 00 D3 08 F5 F6 1A D8 FF FF B8 34 FF 95 31 56 19 ..........4..1V.
00403B70 21 3C ED 04 EE 24 22 0B A5 F4 00 00 04 79 FF 99 !<...$"......y..
00403B80 AC BA 9B 18 72 90 3C FC 00 10 F0 B6 33 FF 00 39 ....r.<.....3..9
00403B90 00 03 E0 A5 EA 6D 00 B9 CD FD FB 7B 70 72 1F FE .....m.....{pr..
00403BA0 00 D8 58 05 90 FF 00 A5 06 62 D8 8C B9 6B 88 B6 ..X......b...k..
00403BB0 6F CA 3F 80 C3 3F 99 D9 A8 E0 16 58 8E 00 67 C0 o.?..?.....X..g.
00403BC0 00 BD A1 00 00 97 C0 2F 08 7A 20 3E 00 8A CB 1A ......./.z >....
00403BD0 B8 02 DE FC 30 1E 9A E9 00 B9 61 30 4E C3 7C ED ....0.....a0N.|.
00403BE0 00 D5 97 57 6B C1 34 FF EA FF 30 FF 00 D0 00 54 ...Wk.4...0....T
00403BF0 00 03 00 5F B8 00 24 54 FF ED E4 56 88 65 71 BC ..._..$T...V.eq.
00403C00 64 D5 DB ED 4F D0 B0 4B 61 DF 00 98 1C F6 DA 22 d...O..Ka......"
00403C10 E5 55 3C D1 00 89 F6 5B 58 44 00 38 E3 03 00 FB .U<....[XD.8....
00403C20 D8 F3 7D 34 37 29 19 CC E4 0C BA 00 91 44 E4 FD ..}47).......D..
00403C30 1C E5 24 8B B9 81 43 DB 38 7B 8E 1F 06 D6 FF C5 ..$...C.8{......
00403C40 6A 04 04 B2 CA 42 27 E4 00 5C 46 C0 14 00 8F 00 j....B'..\F.....
00403C50 D2 CF 00 40 00 D2 94 F3 F8 48 36 95 22 20 43 D9 ...@.....H6." C.
00403C60 26 FF 00 FA 8B 0A D9 00 97 E8 09 63 BC BF 01 00 &..........c....
00403C70 A6 00 33 31 69 FF 13 96 A4 34 E4 00 65 2D C8 C7 ..31i....4..e-..
00403C80 B1 14 DB C2 FB 62 69 DE 86 47 A3 F7 D7 1E 29 57 .....bi..G....)W
00403C90 0A 26 0D A6 9F E7 01 4F 06 D1 09 AA 5E 40 8E 00 .&.....O....^@..
00403CA0 23 4E 0D 27 D4 8E 03 98 55 37 47 E8 7B 18 DF 8E #N.'....U7G.{...
00403CB0 CB 5A C3 35 00 88 C0 00 9C 00 B5 42 61 D4 3B FF .Z.5.......Ba.;.
00403CC0 83 9E 00 F6 1C FD 89 6F 3A 1C F9 CF 25 7F E4 38 .......o:...%..8
00403CD0 30 C5 64 D8 14 9F 76 7D 25 81 48 36 00 00 BB 21 0.d...v}%.H6...!
00403CE0 C1 03 9C 06 AD F4 6E BE 32 CA 17 FF 46 69 76 86 ......n.2...Fiv.
00403CF0 3A 27 54 5D AA 28 3E E5 02 78 07 A8 A2 1B A8 F0 :'T].(>..x......
00403D00 54 67 3F 9A FE 19 12 A8 46 00 1A E3 10 DE 49 11 Tg?.....F.....I.
00403D10 94 48 B5 CF FF CF A7 FC 00 FB 48 1D E8 AF 5F 25 .H........H..._%
00403D20 B6 3A 38 5C EC BD 11 D0 8B FF 73 D7 B5 A9 93 49 .:8\......s....I
00403D30 31 D9 20 FF 26 A0 3B FE 0D 86 DF FE 94 F8 45 42 1. .&.;.......EB
00403D40 42 49 00 5E 28 FF FA 63 3A 00 28 3C 55 0B E9 23 BI.^(..c:.(<U..#
00403D50 8A 00 13 36 4D F4 57 1A 0E 00 00 33 C0 F1 E6 A7 ...6M.W....3....
00403D60 82 5C 36 92 82 E5 09 BF DB 38 29 B1 00 14 C2 62 .\6......8)....b
00403D70 2C B1 83 F0 E8 00 BE 1F 00 F5 D8 FF 00 F9 C9 B8 ,...............
00403D80 F2 00 64 00 7F 00 7E FF 0F ED A5 13 E9 02 E7 8D ..d...~.........
00403D90 00 7C 78 5F 00 C3 19 0E 07 5D 00 06 16 00 38 00 .|x_.....]....8.
00403DA0 5A CB 0D 00 78 27 09 64 FF 00 B7 3F AE F3 5F 61 Z...x'.d...?.._a
00403DB0 9D EB 91 5D 8E 00 C7 FF 96 F6 00 06 1D 00 00 4F ...]...........O
00403DC0 F1 CD 40 25 00 AC DD 5E 83 1E 06 FF DD 0F 00 C8 ..@%...^........
00403DD0 FF 66 59 6E 7C BD 48 67 C4 00 00 78 C5 1D E3 17 .fYn|.Hg...x....
00403DE0 44 CE 2D 00 DC 98 9E 9B FF DD 78 39 9F 76 C1 D9 D.-.......x9.v..
00403DF0 7E FF ED 3D 6F 2E AF 3E 00 5A 13 DF 60 28 10 50 ~..=o..>.Z..`(.P
00403E00 92 84 DA 00 2E 9C A2 2A 57 C9 26 44 FF 00 20 0F .......*W.&D.. .
00403E10 43 20 3F 1D FD 2F 68 1B A8 47 76 BA E3 0E 4F B1 C ?../h..Gv...O.
00403E20 AF 2E BA 1F E9 7E D3 2A 00 9F 09 00 C7 13 43 4C .....~.*......CL
00403E30 9C 1E E5 91 FB 00 77 00 FF 8C DD 11 42 54 E5 D2 ......w.....BT..
00403E40 F7 00 FF 44 00 00 4F B6 DB 86 5E EB 2A 00 02 07 ...D..O...^.*...
00403E50 2A 63 50 F7 DF 47 51 77 BB D7 FB 9C FF 3E 73 D9 *cP..GQw.....>s.
00403E60 BD 5C 88 E1 D4 90 0E 00 73 C7 06 A1 9F 5A FF 8A .\......s....Z..
00403E70 0A CB FF 01 32 53 00 62 5F 9F 91 0F C9 DE 03 A9 ....2S.b_.......
00403E80 0A 2C 5D 26 04 EB CA 3C C6 9D 2E E2 8B 00 00 00 .,]&...<........
00403E90 80 C1 FF 3D 6D 66 FF 66 28 B1 E6 FF DF FB C6 5A ...=mf.f(......Z
00403EA0 00 88 FB AF 02 AB FF 12 4F 00 3C B7 4C 7F 61 00 ........O.<.L.a.
00403EB0 92 04 81 17 4F 77 2A 08 64 F4 7C 00 E6 00 26 B2 ....Ow*.d.|...&.
00403EC0 63 2C 5A 00 3A 67 FF 12 CB 57 BC 0C 98 A8 DB 00 c,Z.:g...W......
00403ED0 00 FF B7 FB 87 3E AF E0 1D 0C 92 8B 00 42 49 FD .....>.......BI.
00403EE0 00 67 08 43 6F 09 0E 66 00 45 FF 52 D4 D3 BD 8D .g.Co..f.E.R....
00403EF0 00 62 00 E0 C3 D8 19 06 AD 05 1D 1B 56 2C ED EF .b..........V,..
00403F00 9D FE 52 83 81 F2 70 B1 00 94 C0 E6 0A 3A CF 00 ..R...p......:..
00403F10 2C 3C CF 40 9B 13 87 B8 BF FF 8A A8 E9 C0 43 CC ,<.@..........C.
00403F20 8E B7 3D DD F3 BB 00 8B 1C 89 11 53 00 03 A4 7C ..=........S...|
00403F30 5F AB FF 26 13 A7 B1 48 36 8F EF 06 92 28 00 99 _..&...H6....(..
00403F40 00 76 6A BC 00 67 F9 E9 B3 91 AF 2E 24 3A 03 C9 .vj..g......$:..
00403F50 1B 00 0D D1 FD C0 17 00 32 00 00 E6 3E E5 D9 06 ........2...>...
00403F60 00 50 6E 71 00 56 44 CA 51 4B FF 36 EF EF C6 83 .Pnq.VD.QK.6....
00403F70 20 33 1D FF 73 F9 12 05 F0 6B 00 40 F1 37 00 B5  3..s....k.@.7..
00403F80 DA 37 80 B1 C7 05 DF 30 74 42 73 81 22 AF 6E DF .7.....0tBs.".n.
00403F90 59 7F B6 0E 18 00 06 8E D8 88 5A A6 50 1B C5 C4 Y.........Z.P...
00403FA0 00 6D 08 40 A0 E0 67 FB 59 C0 15 34 0F 0D 1D 48 .m.@..g.Y..4...H
00403FB0 5B 96 CE C0 F4 78 F4 63 FF 47 00 DE 39 E9 E4 F8 [....x.c.G..9...
00403FC0 85 33 B5 D6 A0 F2 16 00 83 CD 00 3C 00 18 F3 CC .3.........<....
00403FD0 73 45 B5 11 87 00 00 31 EA F3 00 16 57 7A E6 0A sE.....1....Wz..
00403FE0 34 11 D7 75 A5 AA F2 85 00 69 00 E3 00 00 DB 8B 4..u.....i......
00403FF0 00 0A 89 DA 00 2C 12 C4 25 FE 5C 6B 00 C6 F6 CC .....,..%.\k....
00404000 BD F3 D0 9D 00 BE 21 00 0C 10 00 C0 00 00 00 42 ......!........B
00404010 4C 00 F0 10 8A 07 38 00 40 07 C5 DC 99 C4 D5 30 L.....8.@......0
00404020 9C 00 78 7F 05 39 FF 36 58 9E E1 00 73 00 34 EF ..x..9.6X...s.4.
00404030 ED D8 3F F7 AD F4 11 10 2C 8D E3 9C DC F9 5A C6 ..?.....,.....Z.
00404040 DE 09 34 4E B2 78 7F 26 8A 00 7E 27 1D FF 34 CF ..4N.x.&..~'..4.
00404050 CA 89 4B 41 FF 37 3C 73 56 E2 20 00 85 FC 00 56 ..KA.7<sV. ....V
00404060 6C 1F 49 94 2B 7A E0 30 FF FF 9E 4B A5 13 22 0E l.I.+z.0...K..".
00404070 65 80 60 4C DF 04 31 FC 81 80 D7 40 23 01 94 00 e.`L..1....@#...
00404080 9C 6C 1A FE 50 8D 47 1B 18 ED E1 5A 0C 77 2B 82 .l..P.G....Z.w+.
00404090 2E 00 DF 00 18 F6 44 A0 9F 94 A8 5F 00 E2 7D 3E ......D...._..}>
004040A0 20 A5 AB A6 FF 4E 6B E0 8E 14 18 00 A7 06 00 E3  ....Nk.........
004040B0 A1 0F FF 59 61 71 CC 07 83 80 7C 60 E4 2F 72 00 ...Yaq....|`./r.
004040C0 30 84 27 D4 69 86 12 1A 31 0F 06 56 8F C2 00 46 0.'.i...1..V...F
004040D0 AD C2 E4 C6 E4 00 BE C9 7E FF FF E3 56 94 7A FE ........~...V.z.
004040E0 04 D3 7F 00 4F C6 4F 4E 14 60 2F 1B 02 34 00 B5 ....O.ON.`/..4..
004040F0 94 00 5D FD 03 FD C4 B2 0C 01 6E 82 C8 B8 10 57 ..].......n....W
00404100 04 1E C7 88 65 13 01 31 2B BC 7C A0 CE 4E 55 5E ....e..1+.|..NU^
00404110 1D 00 00 31 F0 04 B9 DD F1 00 FC A6 C2 A2 BE 3D ...1...........=
00404120 19 6F 92 BB C8 DF 00 04 00 00 F7 5C 9B 73 8F 14 .o.........\.s..
00404130 10 FA 1D A5 D0 98 21 E1 BB 4C A5 FC 3C 03 F9 61 ......!..L..<..a
00404140 D0 3F 22 08 65 0C 96 10 06 A3 00 3C 2E D1 00 E4 .?".e......<....
00404150 CB DA E6 39 78 E0 F2 04 1C 61 50 73 25 15 52 00 ...9x....aPs%.R.
00404160 B7 E1 0F 21 00 43 00 FB 08 1B 58 85 1A 09 19 C4 ...!.C....X.....
00404170 32 FF 51 81 1C 50 FF 8B 1B 11 FF FF A8 AA 03 30 2.Q..P.........0
00404180 8F BA 64 C0 1F ED 00 71 C9 9B 8D 40 79 70 00 00 ..d....q...@yp..
00404190 10 00 A0 00 BE 38 F7 BF 64 19 B0 BD D9 28 D5 B9 .....8..d....(..
004041A0 0A 57 74 00 DE 00 00 4A FF DE E5 4F DD F8 52 E0 .Wt....J...O..R.
004041B0 00 FD 00 45 11 08 37 D2 BA 66 20 D0 B8 00 03 E0 ...E..7..f .....
004041C0 DE 86 AC C6 83 0C F3 C3 A7 FF EF 35 79 B8 00 66 ...........5y..f
004041D0 97 00 4B C1 49 91 FF 8F 00 FC 81 CD 69 00 87 38 ..K.I.......i..8
004041E0 03 FE BB 63 00 9E 42 66 76 BC 00 2F E3 00 00 66 ...c..Bfv../...f
004041F0 A5 9E B0 C0 4A C1 10 41 14 91 C3 24 18 9E BE 46 ....J..A...$...F
00404200 BF FB 29 D6 00 18 96 DC CE E2 22 F5 64 CF C1 08 ..).......".d...
00404210 C2 E7 53 94 82 DC C7 C7 3E 8B 37 EB DE 4C 55 36 ..S.....>.7..LU6
00404220 02 B1 00 FF B6 00 C3 31 B1 00 00 FB 6A 44 FF 03 .......1....jD..
00404230 19 FD 6B 56 D5 00 35 33 DE FF 61 67 78 CD DA 81 ..kV..53..agx...
00404240 00 82 38 18 9B 6D BF 33 FF 07 64 00 76 4B C1 42 ..8..m.3..d.vK.B
00404250 73 D0 FF 28 B8 CD EF 9F 93 BD F0 F0 5E 6F 2E 8B s..(........^o..
00404260 33 FF F4 08 7D DF AA 4A AC 0E DA 02 11 A2 F4 29 3...}..J.......)
00404270 7F 28 7B 00 A5 6C 45 4F 71 20 18 1F FF 04 8C 2A .({..lEOq .....*
00404280 1E 4A BD FE 37 4C F0 36 CF 13 7B 0F 46 34 08 A2 .J..7L.6..{.F4..
00404290 FF 1D 0C 49 FF 38 FA FF 34 FD D3 BA 00 00 5D 00 ...I.8..4.....].
004042A0 AF AE CE 61 F6 00 01 00 E0 C7 D7 81 73 00 E0 D6 ...a........s...
004042B0 ED 5A 76 8B 15 7E C1 EE 17 00 EA 9A 0B F2 ED EA .Zv..~..........
004042C0 00 F0 93 00 F7 AB 38 22 15 00 6E 2C 70 E2 B0 B9 ......8"..n,p...
004042D0 03 C9 B4 01 00 4E 38 53 44 FF 47 3F 00 F8 00 00 .....N8SD.G?....
004042E0 F3 16 BD 69 00 90 00 43 53 BA EB FF 17 58 FA 26 ...i...CS....X.&
004042F0 F5 E0 12 00 56 C5 E6 AF BD E0 40 40 C3 85 DE A2 ....V.....@@....
00404300 A0 2A FF 31 35 03 E7 F2 6F 39 4C 00 FF 75 3E 8F .*.15...o9L..u>.
00404310 00 79 18 52 87 75 F4 8E 41 AE 3E 87 1D 79 7F C4 .y.R.u..A.>..y..
00404320 31 00 00 E5 86 02 06 A7 FF AF 04 6F 6B 58 A7 12 1..........okX..
00404330 0C DF 78 3F 00 FE 2C 60 CE C1 04 E6 00 28 E6 FF ..x?..,`.....(..
00404340 28 87 7B 10 73 F9 7A FF D8 0E E9 A3 00 0E ED 00 (.{.s.z.........
00404350 00 00 5D 4F 12 00 77 02 E1 2B 9C A5 84 03 9D F4 ..]O..w..+......
00404360 33 4B 18 E4 20 19 8E 00 2A DF 87 30 FF D3 9F 00 3K.. ...*..0....
00404370 00 46 9F B8 C5 FF F9 00 00 50 1B 2F 75 24 FF 97 .F.......P./u$..
00404380 6A 37 27 19 3F BA A4 82 0B D1 46 E5 A4 63 B0 08 j7'.?.....F..c..
00404390 48 62 80 60 40 D7 F2 79 F6 09 90 00 D2 40 65 78 Hb.`@..y.....@ex
004043A0 86 00 79 8A C8 95 20 A5 00 74 F1 4C A6 E5 AF B4 ..y... ..t.L....
004043B0 FF EA C2 00 45 DF 00 D9 15 63 A3 63 49 2D FF 07 ....E....c.cI-..
004043C0 CF 38 3B 1D 6F FC A2 C3 00 BB 0B 00 F6 16 F0 36 .8;.o..........6
004043D0 F9 C7 00 4F FF C9 ED 00 FF 2C C8 E0 8C 9F 76 32 ...O.....,....v2
004043E0 0C B0 00 C1 8F C5 39 FF BC FF 05 BF 80 E9 04 29 ......9........)
004043F0 00 30 F5 CC 02 0B 6D 93 FF CF 46 82 61 5A 7E 9B .0....m...F.aZ~.
00404400 62 00 2C 00 17 53 00 51 A1 1C 9E F7 93 79 6B C5 b.,..S.Q.....yk.
00404410 E6 CA 3D EE A3 E5 37 57 1B 60 65 46 FF D9 FF B3 ..=...7W.`eF....
00404420 00 29 00 00 70 81 07 84 7C 2F 3D 80 2C 73 1A 4C .)..p...|/=.,s.L
00404430 1F F8 00 8F 39 1B 32 AE 30 C2 FA 83 45 75 0F EE ....9.2.0...Eu..
00404440 AE 42 AF 00 C3 A4 FF C2 7B ED FF 52 8C FA 0B 00 .B......{..R....
00404450 31 21 00 7C 3D EB 18 AB 26 C0 AB 1E 3A 8C 25 25 1!.|=...&...:.%%
00404460 8B 9E 02 0F E2 CC A2 00 E3 FF 00 5A 92 FF A0 F1 ...........Z....
00404470 66 42 6A F9 CA 04 A4 21 BB 90 AC 26 41 72 6A DA fBj....!...&Arj.
00404480 3D 34 FF D6 FF 00 16 99 01 6A 42 C9 01 8D 8C 00 =4.......jB.....
00404490 00 D3 00 12 C3 00 00 E7 85 00 04 E7 47 91 5D 00 ............G.].
004044A0 85 CC 72 85 AE 00 6E E1 F0 C6 8D F0 F3 5C 7E 00 ..r...n......\~.
004044B0 F6 F7 5E 46 41 32 A7 C4 00 1C B7 8A 10 00 1F 21 ..^FA2.........!
004044C0 EB 19 45 7D C2 FD CD 44 FF 03 E3 41 85 9C 9C 8F ..E}...D...A....
004044D0 AD D4 CE 7E E1 2C 8F AF 16 00 5F 54 25 F9 17 21 ...~.,...._T%..!
004044E0 1D C7 9C DF FF ED 03 40 3D F7 92 C7 2F 37 C6 03 .......@=.../7..
004044F0 CA 57 7C 74 E0 13 1C A9 02 6A 09 07 3F DE F8 1F .W|t.....j..?...
00404500 55 DB C1 9D 04 00 DA 00 00 EE 35 A4 74 88 FF 00 U.........5.t...
00404510 5D 0C 7D E7 89 AA 54 94 1C 25 63 38 B3 6F D7 6E ].}...T..%c8.o.n
00404520 A9 68 08 67 E8 28 FF 08 08 53 85 9C E0 02 B2 60 .h.g.(...S.....`
00404530 87 E4 20 D3 00 E2 49 CF B6 97 C8 5A 01 FF 00 08 .. ...I....Z....
00404540 C7 ED 29 00 EF 01 70 A1 5B 2B CE 39 D1 A9 E2 00 ..)...p.[+.9....
00404550 6D 41 02 03 C1 63 82 13 71 5F 78 DE 0B 00 88 00 mA...c..q_x.....
00404560 BB DB 00 74 34 9E C7 AD F6 2E 29 54 3F 00 F2 1B ...t4.....)T?...
00404570 85 0E F7 00 DE 00 9C 31 FB 25 01 F0 4B 81 63 11 .......1.%..K.c.
00404580 72 1B 90 EE 73 B3 3C 69 0F 6E CE 76 88 00 CF 12 r...s.<i.n.v....
00404590 B9 14 06 0B 70 23 79 C0 00 12 2B 64 30 8F E7 37 ....p#y...+d0..7
004045A0 00 44 0C C7 26 69 58 7E 0B A8 9A D8 00 F2 18 E0 .D..&iX~........
004045B0 C1 26 41 87 02 C9 1C B3 00 00 A1 00 89 51 92 E8 .&A..........Q..
004045C0 84 AE CC 80 3E A3 0C 8F 69 D3 B2 A8 3F F4 EA E2 ....>...i...?...
004045D0 51 39 06 00 0B 6A FD 74 33 58 0B CA 80 4C DF 3A Q9...j.t3X...L.:
004045E0 FA F3 23 16 C8 E5 11 8D 00 00 4F B4 33 02 E0 78 ..#.......O.3..x
004045F0 65 00 0D C0 00 82 F7 47 5F 40 43 C6 DB ED DB 27 e......G_@C....'
00404600 0A F8 21 26 38 B7 30 AB 57 D7 8B E1 B6 3A E5 00 ..!&8.0.W....:..
00404610 41 5F E1 00 82 F3 8D D6 00 00 8A D5 81 BA F0 6C A_.............l
00404620 CC BC 39 78 95 94 00 FD F3 00 1B 1D 00 18 7D DD ..9x..........}.
00404630 F9 A1 25 4C BA B8 67 00 00 7E 3A 00 E1 00 99 00 ..%L..g..~:.....
00404640 6C 19 FF 40 75 00 DF 42 CE F0 00 00 EC 00 79 CB l..@u..B......y.
00404650 DB 2A 02 61 80 33 00 F5 08 27 FF 84 8D ED 9B FF .*.a.3...'......
00404660 9C FB 07 9B 74 5C 0B C1 D7 00 7B 52 96 E2 B5 62 ....t\....{R...b
00404670 09 52 B7 8A 4F 8F DA F9 9D 43 FF 43 F0 9B B4 33 .R..O....C.C...3
00404680 E8 06 D6 C0 C1 1B 06 FF 66 E3 58 00 41 1A 00 31 ........f.X.A..1
00404690 62 37 1E B7 E5 1A 99 12 ED DC 04 00 16 00 4C 8B b7............L.
004046A0 27 FF EB 00 A0 0F 07 6B 9C DE AA 68 03 3C 59 C0 '......k...h.<Y.
004046B0 F0 BE A1 AE 00 3C 91 E2 8A FF 16 03 00 EB C7 B4 .....<..........
004046C0 C3 22 DA FF A1 DC 7D E4 55 87 63 00 B8 A8 00 59 ."....}.U.c....Y
004046D0 7F 86 63 0C F7 41 FF 57 72 27 41 FD 3D 2F 13 E7 ..c..A.Wr'A.=/..
004046E0 7C 00 6B D3 84 B6 90 8B 7B D9 B8 A0 00 35 FF A8 |.k.....{....5..
004046F0 8A E2 51 D1 FF D7 9E 7B 00 8F 39 67 00 76 00 23 ..Q....{..9g.v.#
00404700 45 18 70 B7 06 00 BD 7C C4 A3 F0 4E EB F2 74 09 E.p....|...N..t.
00404710 E2 9C C0 FF D5 42 58 BB 87 20 E6 00 15 41 9C EE .....BX.. ...A..
00404720 DA 1C FF 32 7E 07 D2 3A 30 7C B3 4B 1C 29 C2 6F ...2~..:0|.K.).o
00404730 8D 01 32 00 20 D8 92 EA 33 47 34 09 FB 61 D6 1C ..2. ...3G4..a..
00404740 30 15 23 00 65 CB C4 8D 35 E2 3F 46 FF 79 00 B4 0.#.e...5.?F.y..
00404750 1A EA 00 05 F1 00 10 53 17 66 8E B2 00 FF 70 AB .......S.f....p.
00404760 C2 FF 20 3C 72 22 9B C8 E8 EE 35 1B 00 EC 5F 5C .. <r"....5..._\
00404770 D5 49 00 8F 68 00 E9 69 00 3C C9 A4 00 00 EC 15 .I..h..i.<......
00404780 69 E0 0B 76 A7 00 33 DD 02 0D 3B A3 31 42 00 00 i..v..3...;.1B..
00404790 84 00 FF 83 00 83 CE FF 4E 5E 53 00 06 BF 19 FF ........N^S.....
004047A0 1E 40 5C 9E C7 FF FF D1 94 A4 E1 61 0F 21 3C E4 .@\........a.!<.
004047B0 44 F8 00 00 D0 00 31 E0 88 00 32 00 A1 00 00 FD D.....1...2.....
004047C0 63 C7 9E 0B DE E2 38 4F 18 FF 13 00 7A 8A 79 FF c.....8O....z.y.
004047D0 9E DF FF 2B 44 80 F7 00 E8 18 74 FD 17 82 9B FF ...+D.....t.....
004047E0 A9 15 00 39 13 BD FF 10 D0 00 17 CF C7 73 FF BD ...9.........s..
004047F0 00 D5 F6 9C 65 B0 14 FF 7A FD D9 EA 4B 32 BE FF ....e...z...K2..
00404800 72 CB 63 FF E7 3A F5 00 56 00 C0 BA 42 18 0E 90 r.c..:..V...B...
00404810 AB 8F 57 28 00 B4 D9 DC 33 C2 16 BF 00 0C A7 01 ..W(....3.......
00404820 F0 48 B8 93 1B D6 47 4E 00 FF F8 67 00 09 48 00 .H....GN...g..H.
00404830 A1 00 6A 38 A9 FF 6D 67 CD CC D3 C4 9F FF 80 A8 ..j8..mg........
00404840 48 D5 FF 2B F7 26 08 71 00 00 00 41 A0 7D 83 0A H..+.&.q...A.}..
00404850 54 74 42 44 BD 69 E6 7F 9E ED 1C A5 7E 41 1B A0 TtBD.i......~A..
00404860 0B 16 8C E6 49 E6 FF C3 72 BC FC 14 36 D2 1E A4 ....I...r...6...
00404870 E0 94 06 C3 42 5F CB 30 36 45 03 FF F3 22 D2 07 ....B_.06E..."..
00404880 4D B7 88 1C 00 FF 6B 15 A0 FC E7 DA 5B F0 00 B5 M.....k.....[...
00404890 D0 55 0D 00 00 FA F0 62 00 31 E5 6D 1E C2 57 00 .U.....b.1.m..W.
004048A0 64 D6 A1 00 B3 10 B4 23 00 00 00 28 FF 6D 23 C6 d......#...(.m#.
004048B0 C8 F0 B0 46 39 7A B3 98 51 B6 00 00 4F 1B FF 14 ...F9z..Q...O...
004048C0 AE F1 77 10 FF F9 55 7E 7B 57 63 00 93 F7 00 00 ..w...U~{Wc.....
004048D0 76 00 00 44 00 B2 64 F7 B2 FF 5F 00 FF 00 23 FF v..D..d..._...#.
004048E0 92 E2 1D C5 0E 00 DD CB 00 6A 1C D5 DB 7E 18 00 .........j...~..
004048F0 00 2E FF 8C 76 B3 D5 20 05 91 57 00 C2 5D 22 E3 ....v.. ..W..]".
00404900 00 00 12 61 B0 3C D1 24 3D 80 7E 96 00 10 CB C7 ...a.<.$=.~.....
00404910 E5 F2 42 F1 D9 3B 00 3E FD 98 EE 82 99 E9 0C F2 ..B..;.>........
00404920 95 86 F8 B7 02 F0 1E B5 07 49 74 E5 A8 86 26 58 .........It...&X
00404930 C6 38 DD C3 93 B4 E4 16 0D 83 82 EE 00 66 30 D4 .8...........f0.
00404940 BB 12 F2 5A FF 0D AB 8F A5 F4 A4 C3 DA 08 51 21 ...Z..........Q!
00404950 3C 02 00 13 FE 97 00 1D 0B 08 BD C1 22 7F 7D 9F <...........".}.
00404960 FE 00 88 86 00 02 00 3A C3 D3 C8 29 06 00 BD FF .......:...)....
00404970 29 00 71 FF 38 6B CC F8 04 D1 82 0A 6D 24 1A 00 ).q.8k......m$..
00404980 3B FF 00 00 B1 00 00 F1 96 92 5F C9 F5 31 EA D1 ;........._..1..
00404990 5F E9 B7 0E F7 FF 33 26 F8 40 00 00 CB 46 89 CC _.....3&.@...F..
004049A0 FF 2C DD 28 C3 0B 59 D9 00 78 E1 CB 00 5B EA 5A .,.(..Y..x...[.Z
004049B0 28 7B A8 FF 60 07 06 AF 04 00 CC D4 90 ED 60 04 ({..`.........`.
004049C0 DE 00 39 3C C3 B3 F2 BA 9C 6C B7 34 C6 00 E8 53 ..9<.....l.4...S
004049D0 D7 DD 27 FA 59 CF 7A E2 E5 64 B1 80 A9 BA A0 81 ..'.Y.z..d......
004049E0 32 9C D0 1D 67 2C 59 72 00 06 2E AF EF AF 00 9A 2...g,Yr........
004049F0 A5 DD 99 C6 41 AA C7 1A BE 35 98 00 AF E9 E4 A5 ....A....5......
00404A00 5A 78 F6 00 28 16 2F 3A 5E 4C EE FF 02 8D 00 B1 Zx..(./:^L......
00404A10 B9 3A 0D E0 F8 75 AD F3 47 80 96 00 FF 53 2E CE .:...u..G....S..
00404A20 AA 10 60 8D 0B 06 05 AC D7 A7 4F 0F E0 71 FF 58 ..`.......O..q.X
00404A30 81 79 B2 41 FE FF 5B 26 CE FF 00 65 09 F0 A0 F0 .y.A..[&...e....
00404A40 33 12 96 CB 02 01 72 CF FF 50 47 00 FA 1C 3E E4 3.....r..PG...>.
00404A50 78 53 C0 90 FD B7 00 27 D8 FA 68 86 44 1B 5E 00 xS.....'..h.D.^.
00404A60 C2 85 0A CE AB 83 00 3F 88 A5 6F DF BC EA FF 1D .......?..o.....
00404A70 60 3F F6 E8 D5 D1 44 8B E3 3A 6C 0D 20 32 83 02 `?....D..:l. 2..
00404A80 17 78 A3 F6 C5 C7 14 C2 AE 00 DF D0 02 43 0A 47 .x...........C.G
00404A90 C2 7F 29 24 44 DE 42 01 F7 ED F0 3D 3C 53 6F 3F ..)$D.B....=<So?
00404AA0 54 FC C5 D5 1F 62 FF 40 CC E9 48 08 83 3A 00 F1 T....b.@..H..:..
00404AB0 F8 A0 A4 F2 BF EF F4 00 9D 1E 3C 0A 71 25 C3 D8 ..........<.q%..
00404AC0 00 C6 32 86 EF 55 36 48 A0 00 FD 17 A1 E2 E3 AC ..2..U6H........
00404AD0 71 00 00 11 9D 80 00 33 86 97 7F 43 E0 BD 94 A8 q......3...C....
00404AE0 17 00 00 FF 8A 00 F9 EF 77 C9 1E 1B 60 37 14 FF ........w...`7..
00404AF0 00 80 30 B6 49 FF 00 9C C4 4E 7F 00 37 08 3A 00 ..0.I....N..7.:.
00404B00 25 D5 93 EB 69 63 46 A2 EE 82 D7 00 FA 1E B3 6C %...icF........l
00404B10 00 C5 00 D3 DE 35 32 72 51 80 D3 DA 00 98 71 4B .....52rQ.....qK
00404B20 35 D0 00 0F 54 A9 8B 13 BB 7E 00 00 EC EE CC 31 5...T....~.....1
00404B30 5A 81 48 1B 80 00 37 C4 00 65 08 00 87 FF DB 00 Z.H...7..e......
00404B40 F2 39 DD A7 00 00 71 F3 12 64 14 00 F1 99 00 B0 .9....q..d......
00404B50 9E DF 9A B4 9E 93 3C 74 20 3A 01 FF FF CB 90 88 ......<t :......
00404B60 E7 72 5D 29 64 DF 00 EA 40 93 4C 40 00 00 BA 37 .r])d...@.L@...7
00404B70 CC FD E4 33 08 F1 55 F3 80 9C 73 7B 31 50 B0 FF ...3..U...s{1P..
00404B80 F6 7C 6D 24 E1 BB 77 88 DC 2C 00 00 00 64 78 00 .|m$..w..,...dx.
00404B90 CA 00 57 64 72 F7 E2 C0 DF 00 DC 3F 00 A3 00 68 ..Wdr......?...h
00404BA0 17 5A D0 03 00 86 46 D2 2D 36 D4 78 EB 2E 2E FF .Z....F.-6.x....
00404BB0 00 09 00 00 1C 38 76 EC 0C 5F BC D0 AE F0 5A C2 .....8v.._....Z.
00404BC0 51 00 3E 3A 53 FE FF A2 00 FF FF CE FF E5 B9 34 Q.>:S..........4
00404BD0 ED 1D 4D B0 24 8F 3B 85 3A 12 10 1D E6 8A A8 A7 ..M.$.;.:.......
00404BE0 70 4D 40 FF 26 C1 2A 00 1C 00 DE 2D AB 98 45 00 pM@.&.*....-..E.
00404BF0 19 00 6D 73 05 B7 FB 00 5F C0 83 5B 3C 7F 00 48 ..ms...._..[<..H
00404C00 4F 2F 00 4D 0D 30 00 F3 00 F1 00 00 85 0E 10 00 O/.M.0..........
00404C10 40 94 00 6B B4 78 28 63 91 12 8A D0 03 BF 29 FA @..k.x(c......).
00404C20 00 05 0F A9 A4 19 61 CE B4 55 77 67 1C 40 8D BC ......a..Uwg.@..
00404C30 87 C0 3C 12 78 E1 45 24 F7 20 8C C3 79 20 00 56 ..<.x.E$. ..y .V
00404C40 30 00 00 00 7A 23 C4 22 DD 23 6C 0D 87 A1 30 00 0...z#.".#l...0.
00404C50 98 00 1A DF 00 D1 33 95 CD 39 8C 43 FF E6 21 F8 ......3..9.C..!.
00404C60 04 D9 D2 47 16 7A 00 42 00 8F 5C 64 00 45 8C BA ...G.z.B..\d.E..
00404C70 00 A3 FF 9D FE F5 57 FF C2 84 00 E9 FD E5 A1 69 ......W........i
00404C80 00 91 87 EF 00 60 C4 9A 0F D9 01 FF 7E 48 BE FE .....`......~H..
00404C90 3C FB B6 96 23 16 3F 1A 44 EF 16 37 73 62 10 2F <...#.?.D..7sb./
00404CA0 CC 8A 19 3C 00 7B C6 07 C3 DE 6A 19 C2 C4 F4 03 ...<.{....j.....
00404CB0 FF 52 38 F4 BD 00 0C 41 38 3D C6 E5 FF 99 1B FF .R8....A8=......
00404CC0 F1 00 8C 8D CA F1 00 10 00 4D 63 E4 5B A8 0E E1 .........Mc.[...
00404CD0 5F D8 9C BB FF 00 00 1A 76 FF 27 80 D2 42 00 B4 _.......v.'..B..
00404CE0 00 F6 DC D8 3D 00 FF F1 A6 BB B1 95 28 0D 0C 99 ....=.......(...
00404CF0 00 9E 00 20 3D FF 19 67 6E F5 53 FF 26 B2 00 C4 ... =..gn.S.&...
00404D00 FF 00 5B C1 10 49 83 A0 FC 66 F7 2F 86 DF C8 00 ..[..I...f./....
00404D10 32 FB 79 A6 E2 D7 57 12 00 8E 00 43 68 0E D0 5E 2.y...W....Ch..^
00404D20 00 E8 7F 98 0C 11 00 50 BF F4 DC 28 87 D1 7D 6A .......P...(..}j
00404D30 13 81 C0 40 04 00 C3 B9 30 39 35 0D 76 A0 5F F9 ...@....095.v._.
00404D40 87 C1 00 00 29 09 F4 B9 3E 40 00 0E BF 00 47 33 ....)...>@....G3
00404D50 EF 07 E7 86 DE A5 62 62 5F C7 A8 B3 00 6E 51 B2 ......bb_....nQ.
00404D60 F9 74 00 B4 3B A1 96 FF E7 00 FF 44 73 4C 32 04 .t..;......DsL2.
00404D70 F6 AF A7 BA 7C 2C 4C 9F 74 EC 9C C2 0E D3 27 3D ....|,L.t.....'=
00404D80 00 80 64 DA 00 C7 56 6A 22 73 D3 1E E8 76 43 00 ..d...Vj"s...vC.
00404D90 FD 59 3F 38 5F 00 FF 13 36 AD 00 B6 0E 3B 41 55 .Y?8_...6....;AU
00404DA0 A5 4D A5 FF 60 FF 62 BF 4A F8 00 F0 4F FE 21 00 .M..`.b.J...O.!.
00404DB0 7C 00 0B 00 8D 6F B7 89 5C D5 1A 7B 00 54 BE 07 |....o..\..{.T..
00404DC0 FF E6 4C 40 73 B9 A9 00 23 31 D4 63 30 8B 0F 7F ..L@s...#1.c0...
00404DD0 74 98 00 61 8D 85 90 D9 38 BE B9 F2 3C FF 00 2E t..a....8...<...
00404DE0 A0 B6 23 A9 9C 38 00 C9 76 00 50 FB 34 07 00 3C ..#..8..v.P.4..<
00404DF0 00 04 98 9B FF 46 5B 24 8F 81 A0 26 22 F5 D7 7F .....F[$...&"...
00404E00 0F 1F 26 FF 28 30 85 CD BB 08 88 E2 30 0E 3A 8C ..&.(0......0.:.
00404E10 BD 00 8D FF CF 7A 00 0A 94 9B 1B 83 97 84 15 EB .....z..........
00404E20 E6 2E 00 C4 0D 16 32 36 27 45 48 AB 77 7C E0 8F ......26'EH.w|..
00404E30 04 00 0B 56 33 C7 6E 00 D9 00 8D B6 CF CF 93 D0 ...V3.n.........
00404E40 76 00 00 16 CF C7 36 00 91 00 C7 AD 67 1C 12 C3 v.....6.....g...
00404E50 6C 8C 98 00 A8 3C 4A A0 9D 43 E9 9B 05 6E 64 4A l....<J..C...ndJ
00404E60 8D 06 74 1B 37 00 00 05 1C DB 3E 64 26 00 A7 27 ..t.7.....>d&..'
00404E70 BC 48 50 30 18 81 6A C2 B1 60 4D E4 44 FA B9 47 .HP0..j..`M.D..G
00404E80 42 5C AC 00 61 B4 00 B3 16 00 46 00 C5 84 8F 00 B\..a.....F.....
00404E90 00 7C EB FF 0B 00 A6 4C 15 94 5E 00 51 90 10 6B .|.....L..^.Q..k
00404EA0 33 00 54 00 CC 2A 21 D1 71 CB 47 D9 1E AF 7C C6 3.T..*!.q.G...|.
00404EB0 FF 05 26 00 E2 95 05 00 F0 68 00 00 85 FA 55 00 ..&......h....U.
00404EC0 7B 87 98 F5 9B 69 FF FF BD 45 3D AB 1C 00 66 0A {....i...E=...f.
00404ED0 07 F6 68 4B 82 EF 94 FF 49 0F 00 19 8B 04 00 C0 ..hK....I.......
00404EE0 03 CB 00 32 EA F7 2F 71 34 00 95 C0 59 00 C5 00 ...2../q4...Y...
00404EF0 12 00 64 00 81 00 CC 9D 29 14 00 07 F3 00 00 49 ..d.....)......I
00404F00 81 00 0D 9A 51 A5 D3 D3 82 ED 13 4A 00 12 1B AD ....Q......J....
00404F10 5C 43 8B 1A B1 09 C4 E9 4C D8 7E 62 F1 55 52 8D \C......L.~b.UR.
00404F20 40 00 00 13 F5 98 27 EC 00 AC 1A 08 74 09 70 45 @.....'.....t.pE
00404F30 FC C1 97 E8 63 47 E5 FF 20 5B 34 05 CF 1B 77 5E ....cG.. [4...w^
00404F40 22 60 F1 64 E0 30 16 78 92 4F D0 00 4C ED BA 86 "`.d.0.x.O..L...
00404F50 45 76 C8 58 01 3F B0 10 40 00 BB 33 E2 9B E8 87 Ev.X.?..@..3....
00404F60 B3 5C 20 FF 10 1E EE 7E 0F C2 F9 99 42 D7 45 6F .\ ....~....B.Eo
00404F70 33 00 E0 07 96 60 34 00 85 23 E1 B8 20 BB 00 00 3....`4..#.. ...
00404F80 E5 14 7C DC 2F 15 A8 00 16 38 0C A6 04 36 B7 43 ..|./....8...6.C
00404F90 43 B5 80 B8 D4 01 A0 57 54 19 A7 19 7F C1 00 32 C......WT......2
00404FA0 54 00 1C 0C 44 0F C5 23 E2 60 8D 00 E0 6B 14 45 T...D..#.`...k.E
00404FB0 3A 3E E4 0C 60 E9 C3 A6 E7 AD F0 EF AD 5A 26 0B :>..`........Z&.
00404FC0 5E 25 C6 0E FE 32 00 7E D3 02 13 2C 9E D2 39 FF ^%...2.~...,..9.
00404FD0 00 E5 B9 D6 35 6C 3A 7A EC 87 FF 00 00 01 DF 00 ....5l:z........
00404FE0 64 32 48 06 32 37 E1 AC 20 D8 62 77 2C F1 55 F8 d2H.27.. .bw,.U.
00404FF0 DE 20 AC 28 40 FD 80 00 44 71 AD 60 41 0E 5B 4A . .(@...Dq.`A.[J
00405000 D9 18 C0 64 4E 10 79 FF A7 D5 BB DF 4B 9C 03 69 ...dN.y.....K..i
00405010 41 00 BB 04 70 55 00 8F FF 07 A1 4B 9E 29 20 BE A...pU.....K.) .
00405020 EB B9 F4 00 71 00 B0 6D 00 8D 00 42 00 3B 00 C3 ....q..m...B.;..
00405030 FF 4C 84 16 F9 24 A6 62 8C 58 06 88 BE 56 1F 00 .L...$.b.X...V..
00405040 4B 2E 87 3B A8 9D 12 47 F7 80 C1 42 8E 64 E6 68 K..;...G...B.d.h
00405050 E9 3A EC D9 19 19 3E DB AA F7 5B 04 8A 50 3A 00 .:....>...[..P:.
00405060 3B A3 3C E9 03 72 99 EF 60 9E 2E 86 AC FF FB 91 ;.<..r..`.......
00405070 34 5E E8 FF D3 8F 9F C7 B9 C6 FF 68 00 E6 1D E4 4^.........h....
00405080 55 63 DE D8 CB 00 80 FF 52 EA DA 75 58 99 B9 C2 Uc......R..uX...
00405090 31 81 07 30 8E A6 87 29 5D 00 0A 59 ED 0E 0E 4B 1..0...)]..Y...K
004050A0 FF 10 FB 84 59 89 90 FF FE 00 00 F9 C8 FF A0 00 ....Y...........
004050B0 AB F4 FF B2 40 F2 15 00 4B 07 EB 83 F3 4A 40 09 ....@...K....J@.
004050C0 DF DC 92 1B CC 21 16 E2 57 00 10 67 13 53 F4 90 .....!..W..g.S..
004050D0 7B D4 1B 42 D3 84 01 73 63 C7 5E BA F5 D1 9D 00 {..B...sc.^.....
004050E0 02 00 00 35 3A 00 00 5A 00 00 0E FA 15 6E 03 DD ...5:..Z.....n..
004050F0 C7 05 00 EC 00 8F 98 39 81 FA 4E 2D C5 25 00 A8 .......9..N-.%..
00405100 80 00 12 00 A8 19 6D E5 64 EE 14 5B 87 89 91 30 ......m.d..[...0
00405110 8D 40 A3 10 4A 02 5B 00 00 28 54 E4 0E 3E 27 6C .@..J.[..(T..>'l
00405120 00 02 8C 20 83 F4 17 45 A3 75 FB BB A9 96 A0 00 ... ...E.u......
00405130 50 BF B9 BD C1 FF 6F E4 9F 5B 5A A1 9B 58 81 DF P.....o..[Z..X..
00405140 FF 7C 91 D3 8C 00 83 40 25 CD 06 D0 F3 11 F7 00 .|.....@%.......
00405150 22 2D 84 C4 FF 3D A4 CB 7A 2D 90 8D 65 00 C4 1E "-...=..z-..e...
00405160 84 BD 82 6F 7A 4E 81 A6 BD DF A0 7C 97 94 07 35 ...ozN.....|...5
00405170 2E 00 D6 78 30 FE 6C 39 CB E4 C7 34 F5 EF D3 64 ...x0.l9...4...d
00405180 4B 66 C6 00 FE 84 DE 06 00 00 A3 40 9E CB 82 BF Kf.........@....
00405190 36 44 64 86 93 FF F7 F0 AC DC EB 7F 3B 94 BE AB 6Dd.........;...
004051A0 10 9E C6 B0 2F 76 58 00 00 6E B6 D9 A8 9C C6 41 ..../vX..n.....A
004051B0 2C 6B 00 32 CD 85 1F 8D 4C 1A 2D C7 7F 10 FF 2C ,k.2....L.-....,
004051C0 3A 00 74 CC 16 07 DB 89 A0 C7 00 6D 27 00 39 F6 :.t........m'.9.
004051D0 25 6A 00 00 F1 31 A8 DE 34 9F F3 E2 FF 42 2C 08 %j...1..4....B,.
004051E0 11 3F 76 42 00 00 27 C1 6E FF 16 DF DB 4E FE F7 .?vB..'.n....N..
004051F0 80 82 43 F7 58 00 71 68 2D F3 1E 10 FF B1 00 FF ..C.X.qh-.......
00405200 00 7F FF C9 5E CB 00 1F 1F 72 9D FF 56 67 90 C8 ....^....r..Vg..
00405210 00 8D E1 DB 1A FF 00 88 39 82 F2 E8 8E 43 1A 80 ........9....C..
00405220 2A 16 B9 39 DC 97 00 CE D6 C1 3A 78 A1 2B 1C 2F *..9......:x.+./
00405230 00 2F C3 00 9B E3 6E 65 00 FF 6D 00 C6 11 00 FF ./....ne..m.....
00405240 DC 19 3A EB BF 2A 94 F9 D1 00 9B 5D E3 FE 00 00 ..:..*.....]....
00405250 FF AD 0B D5 D8 88 15 FA 72 9C 33 2D 06 ED 00 8B ........r.3-....
00405260 00 CE C2 BD FF 0C 0D 74 00 4A BC 13 C3 CB 98 01 .......t.J......
00405270 21 FB FF C7 4D D7 0C 80 7B 00 85 E3 20 7C 7E 37 !...M...{... |~7
00405280 26 0B 25 33 C0 74 94 7A 62 B5 50 54 00 5A 67 AA &.%3.t.zb.PT.Zg.
00405290 BC 2F 85 00 EF 9F 6E 6F 51 00 57 00 00 FF FD F9 ./....noQ.W.....
004052A0 E8 09 11 0D 4D 62 FF 84 6C E0 FF 00 9A 01 05 E1 ....Mb..l.......
004052B0 D4 EF FB D1 A6 00 CB 00 00 8C B8 C3 CE FF 82 84 ................
004052C0 00 39 FF 1F 4E 66 5A 02 00 E0 63 9F 00 5E 05 E3 .9..NfZ...c..^..
004052D0 00 56 38 81 49 76 77 E4 11 AD 0E C5 00 34 83 B9 .V8.Ivw......4..
004052E0 9E 00 81 64 5C 00 0A 99 CF 75 00 26 34 FF F6 21 ...d\....u.&4..!
004052F0 DD 0B 37 04 25 00 00 00 A2 A0 FF 73 FF 6C 26 00 ..7.%......s.l&.
00405300 94 00 FF 00 17 60 59 E8 90 70 EC A3 35 FF 37 00 .....`Y..p..5.7.
00405310 0E F4 06 E5 00 8D 6C CB 00 F8 3D 70 94 4D 05 58 ......l...=p.M.X
00405320 A5 5C 6F 0B CB 5C 00 D5 83 C8 08 CA 88 2F 36 08 .\o..\......./6.
00405330 82 65 1C 00 59 FA 81 20 00 EF FF 80 61 00 1F F3 .e..Y.. ....a...
00405340 77 B1 02 C5 D5 68 D5 00 78 00 B0 7E 00 CC 98 69 w....h..x..~...i
00405350 48 6B 08 97 90 1B 79 00 59 48 17 14 9B C6 92 77 Hk....y.YH.....w
00405360 21 A6 0E D3 00 00 EF 47 D0 00 FF D7 33 F2 A6 42 !......G....3..B
00405370 CD FF 8D 1B 6A 63 00 60 BA 69 DD 1D 1A EF C0 00 ....jc.`.i......
00405380 00 39 AB A9 CF 52 88 43 DD ED FF 18 09 AB FB 96 .9...R.C........
00405390 C5 D3 B8 5A 17 E2 8B 6B EB 82 C1 6E 5B 7A 00 C3 ...Z...k...n[z..
004053A0 41 A1 1E 3A 37 80 00 7E 63 00 4F 4A 1C 00 26 0E A..:7..~c.OJ..&.
004053B0 CF 00 DD 00 FF 93 00 2E 03 57 08 41 39 91 BF DD .........W.A9...
004053C0 CC 20 D2 FF 88 87 49 75 46 B8 F7 1C 9F 71 B1 B2 . ....IuF....q..
004053D0 30 B0 2C A1 FF 08 DB B2 00 4A A9 20 4B 37 F2 00 0.,......J. K7..
004053E0 8E BD E8 FF 9C E8 00 D5 FF E0 39 BF D1 73 05 14 ..........9..s..
004053F0 00 C6 AB 08 7D 45 9C AF 49 80 0C 40 46 09 04 09 ....}E..I..@F...
00405400 4C E7 A1 FF 00 3B C2 63 FA 95 47 28 00 1D 50 8D L....;.c..G(..P.
00405410 FA FF 31 75 5F 6C 9C 0B 1D CC 4C 68 37 00 00 03 ..1u_l....Lh7...
00405420 00 05 00 D8 8C F1 A2 78 4F F9 E0 73 00 A2 EE 00 .......xO..s....
00405430 C5 27 52 00 E0 07 1F 73 FF D1 8C DE 74 39 00 04 .'R....s....t9..
00405440 4E 00 C6 53 45 00 14 99 E3 23 5E 00 22 CA F7 D1 N..SE....#^."...
00405450 B9 38 84 68 C9 00 FF 22 10 AB 71 94 00 3E 16 C6 .8.h..."..q..>..
00405460 8C 24 15 36 25 16 92 B1 00 00 3E A2 ED 50 00 A2 .$.6%.....>..P..
00405470 94 00 00 99 CF 2C 73 FF 60 F2 FA B0 96 10 EF 01 .....,s.`.......
00405480 FF BC 14 2B 66 1E E3 43 00 00 5F 7C AE 26 B7 DC ...+f..C.._|.&..
00405490 6C 0A 85 6F 63 9F 00 2D 72 1A B3 1C FF 1C 96 00 l..oc..-r.......
004054A0 43 EF 1A 84 4D 00 03 FF 6A 38 72 2B 13 13 56 00 C...M...j8r+..V.
004054B0 42 FF 5C 38 94 58 3C 44 49 19 E2 BB E1 DA E9 6A B.\8.X<DI......j
004054C0 98 71 64 39 35 07 C1 EC 00 C4 79 81 A4 1A 00 3E .qd95.....y....>
004054D0 C2 7B 95 C2 F5 B5 16 90 00 9A E7 83 9E 8A F3 34 .{.............4
004054E0 1A 18 30 71 FF FF 9C C6 FF A0 2E 18 1A 00 7A 56 ..0q..........zV
004054F0 1D C7 6C 27 00 BC E9 F6 83 00 AB 3E 99 A2 B5 24 ..l'.......>...$
00405500 03 26 00 A0 16 EC 09 27 DB 12 78 DF D6 AF B8 B8 .&.....'..x.....
00405510 F6 0C 7D FE 00 9A 00 9D CD D8 09 87 00 0E 00 52 ..}............R
00405520 AE 6F FD 88 5C 57 58 E7 FF 00 10 5E 11 82 FF 8C .o..\WX....^....
00405530 28 80 71 74 10 FF BA B3 E2 F3 00 80 12 00 F2 83 (.qt............
00405540 00 00 DC DF 8B 00 76 0A A9 80 09 31 15 2D FC 67 ......v....1.-.g
00405550 0B 70 58 01 00 00 00 64 B3 FF C2 63 50 BF DE 00 .pX....d...cP...
00405560 9F 41 FD A8 FC 1F D5 5C F6 7E A4 CD A2 00 C8 8D .A.....\.~......
00405570 1E 1E 61 4F 57 00 2F CF 93 08 00 95 8D FF 02 32 ..aOW./........2
00405580 65 B8 9C AD 71 EC 80 A3 4B C8 94 12 00 D1 54 7F e...q...K.....T.
00405590 8D 1B 3F 9A E4 02 D8 00 F5 DC A2 32 FC 08 BD 00 ..?........2....
004055A0 A2 1F 8F F1 C5 D2 3E 66 5C 52 00 E3 00 5E C1 4D ......>f\R...^.M
004055B0 F8 5C 00 00 16 FD 00 AE 82 21 6A EC 92 FF 18 76 .\.......!j....v
004055C0 52 E4 96 60 C7 B6 5C F9 28 18 37 6A C5 7D 62 B5 R..`..\.(.7j.}b.
004055D0 38 FC 10 51 62 1D FF 00 F0 A9 03 60 04 04 01 14 8..Qb......`....
004055E0 86 43 C2 7A 78 68 3F 11 00 11 00 76 01 81 AA 00 .C.zxh?....v....
004055F0 27 97 7A A7 0F CD 22 96 2E 6F 20 AF F0 5A 93 32 '.z..."..o ..Z.2
00405600 1E 5D 16 A3 91 F8 1C 69 0D F6 43 00 20 8C 01 05 .].....i..C. ...
00405610 08 16 DB 00 F8 F5 00 53 F1 37 00 EC 80 06 D1 48 .......S.7.....H
00405620 FA A4 BC E7 80 00 55 FF A5 FD 61 FF 19 36 20 48 ......U...a..6 H
00405630 F2 A4 80 F3 ED B7 B2 00 00 7C 1F 23 27 6E A8 D5 .........|.#'n..
00405640 D2 D1 95 B0 11 A2 9E DE 56 6C 82 0C 45 FF 47 FF ........Vl..E.G.
00405650 D8 D4 D2 FF 02 00 C1 B4 1D F9 8F 44 2B 40 07 25 ...........D+@.%
00405660 00 F1 BA 5C A3 9D C8 1C 08 42 00 00 FF 42 82 00 ...\.....B...B..
00405670 13 FF FF 27 CC 98 6D BB C3 00 07 41 FF D0 FA 48 ...'..m....A...H
00405680 FF 25 40 00 4E 24 00 9F 28 6F 00 00 00 A0 77 FF .%@.N$..(o....w.
00405690 00 00 BB 00 00 7F E3 B7 C1 10 2C 3A FF 7A 08 98 ..........,:.z..
004056A0 2D 56 F7 C0 54 32 00 6C 60 00 1D 5D E5 4E D8 6A -V..T2.l`..].N.j
004056B0 97 61 2C 5B 18 C5 8D 23 00 1C 00 BA 6B 8E 02 C5 .a,[...#....k...
004056C0 00 E0 65 4E DB 1A 30 C2 08 F1 9E C3 31 64 4B 00 ..eN..0.....1dK.
004056D0 90 82 B6 FF 84 1B 1D FF DA 70 FF 3D F9 98 A5 8C .........p.=....
004056E0 FF 1B 99 04 6C 00 00 1E 10 77 14 36 7C 5D 7F C9 ....l....w.6|]..
004056F0 87 B4 26 00 B6 FC 19 D1 7D C1 F0 E1 52 CB 08 FB ..&.....}...R...
00405700 20 75 E0 01 2E 00 38 A0 70 8B 3E 0B C6 00 00 B9  u....8.p.>.....
00405710 0E 4A BF 00 F7 8A FF DB F9 28 BA 00 6A 00 24 7B .J.......(..j.${
00405720 4E 83 00 00 00 FB 88 00 1C 00 CC 00 00 AE 2C 71 N.............,q
00405730 9F 38 AD 14 BB B8 E1 7F 01 26 00 1C FD 4F 8E FF .8.......&...O..
00405740 CC DE E7 2E 81 FE 3C FF 6B 00 F5 83 93 2D 07 78 ......<.k....-.x
00405750 B2 FF 00 38 63 74 F5 AC 48 00 39 73 9E 51 00 CB ...8ct..H.9s.Q..
00405760 92 D3 28 F0 DE 0C 00 30 B8 F3 49 07 8D FF 00 85 ..(....0..I.....
00405770 00 AF 60 00 C2 00 68 39 B2 00 00 80 00 56 E8 92 ..`...h9.....V..
00405780 DF 92 DE 47 9C D7 FF 32 7E BB FF 0B 96 96 50 21 ...G...2~.....P!
00405790 59 D4 2C CA E8 6A 00 35 EB 00 94 27 78 00 B4 FE Y.,..j.5...'x...
004057A0 A5 94 FF FE 00 FF 5B 01 A8 62 00 BA 31 C7 43 72 ......[..b..1.Cr
004057B0 2D 7C C8 86 3D 01 86 41 88 02 67 9A 4B 9B 51 09 -|..=..A..g.K.Q.
004057C0 FF F9 FB 58 AD 98 00 EC 59 BB 98 68 90 CB 81 62 ...X....Y..h...b
004057D0 C0 79 22 11 45 A2 8C 0C 00 AF 49 00 B8 C4 00 AA .y".E.....I.....
004057E0 F8 3A 00 81 63 FF 40 D1 00 EC 38 00 C6 9D 85 23 .:..c.@...8....#
004057F0 04 FF 5F E8 3C 7F B1 49 DB 36 57 A7 E3 DF 00 29 .._.<..I.6W....)
00405800 10 8D B4 13 9F 4C 28 FF F3 10 E3 90 6D 12 73 77 .....L(.....m.sw
00405810 DD D7 9F 2E 11 00 33 09 D0 24 98 EB 8B D1 04 7C ......3..$.....|
00405820 00 60 6F FA 8E 9E 16 DA B8 6E 00 18 00 84 00 80 .`o......n......
00405830 00 CE D9 68 97 A5 87 B8 70 A6 D1 63 2C 5D D7 B6 ...h....p..c,]..
00405840 97 81 CD B3 FD 99 0E 00 1A FF 9D DE AF F1 B0 A0 ................
00405850 00 06 ED 24 4F 42 4B 00 00 EE 00 DD 96 22 00 F5 ...$OBK......"..
00405860 9E 69 2E BF 62 6C 5C 93 F9 3D 18 9E E0 26 22 99 .i..bl\..=...&".
00405870 30 00 42 55 00 78 56 74 EA 90 32 00 C6 00 5E 9D 0.BU.xVt..2...^.
00405880 85 D2 1C B1 8A 00 67 00 00 8B A5 84 55 E0 AF 8E ......g.....U...
00405890 7E 48 71 E5 5A 6F 00 69 51 91 2E FF E3 53 3E 17 ~Hq.Zo.iQ....S>.
004058A0 66 BA C0 BA 17 00 00 40 1E FD BE 00 D2 3B EC B0 f......@.....;..
004058B0 00 3B B3 20 3E 13 A0 C0 E7 43 36 B4 53 FE FF 00 .;. >....C6.S...
004058C0 8C C2 38 68 B9 A0 62 26 45 2E 00 CB 38 20 C2 F7 ..8h..b&E...8 ..
004058D0 BF 6F 69 BB 6C 00 FA CE A5 20 27 00 C7 D8 6E 27 .oi.l.... '...n'
004058E0 00 44 00 05 72 C7 FF B7 00 00 3A 53 05 46 E0 C1 .D..r.....:S.F..
004058F0 9B 33 16 3D 88 8B 29 87 A7 14 0C 7F 00 90 90 65 .3.=..)........e
00405900 98 00 78 DD DD FF 04 27 23 98 17 5C 74 00 00 F0 ..x....'#..\t...
00405910 F6 00 00 58 00 00 E5 FF 31 5C FD EF B0 EF F1 FD ...X....1\......
00405920 C5 B8 1E 7B 09 26 A5 00 1C 2C 2A C7 A0 28 F1 E9 ...{.&...,*..(..
00405930 BD 4E D3 78 99 14 FD 3D 00 64 85 69 43 62 37 0D .N.x...=.d.iCb7.
00405940 72 FF 05 8D 00 9D DB 82 37 27 0C 9A A0 2F 98 E4 r.......7'.../..
00405950 23 9C 30 81 27 00 3C 90 00 00 1B 82 CE CE 2C 7B #.0.'.<.......,{
00405960 40 BE 6F 01 87 C9 46 21 C7 FD 00 91 86 2B 60 28 @.o...F!.....+`(
00405970 C1 C2 C0 C4 00 22 FF 5C 00 B5 69 CC 00 C5 D5 48 .....".\..i....H
00405980 DD 6C AE AA 3F 74 72 1C 4B 00 2B B4 73 B0 38 A7 .l..?tr.K.+.s.8.
00405990 F2 00 DA 1E 7E 9C DB 11 62 7B 34 42 7E 00 DB 6F ....~...b{4B~..o
004059A0 9C 43 AE 4B FE A1 00 00 76 6C 00 81 95 4D 31 00 .C.K....vl...M1.
004059B0 1A D0 7F 2D AA C6 00 00 AD 00 EB 00 13 0B 00 2E ...-............
004059C0 E4 4C 59 9B 03 FB 00 9C FF C7 66 7C 00 89 37 6C .LY.......f|..7l
004059D0 3D 00 C6 00 74 ED 2D ED FB 0F 00 A1 DC 1C 6F 49 =...t.-.......oI
004059E0 F0 E0 0E 2B 5F 9A 12 6E FF FF CA 39 00 00 0D 99 ...+_..n...9....
004059F0 00 FC 1D 00 D6 06 F0 C3 FF 43 87 C3 8F FF F0 7B .........C.....{
00405A00 AE C6 00 57 00 C7 47 32 0F D0 82 70 76 00 34 61 ...W..G2...pv.4a
00405A10 D8 33 00 21 6E 2D 40 5F 8F 27 04 27 00 7F FD 49 .3.!n-@_.'.'...I
00405A20 D3 C5 DB FF 73 D2 58 80 13 1C 94 D7 00 71 BF DF ....s.X......q..
00405A30 1F 4B FC 00 31 0D 66 FD B1 C1 10 FA BE 00 62 FC .K..1.f.......b.
00405A40 04 C7 38 30 3A 1B 6F BC 00 00 FF 03 FF 00 E2 E1 ..80:.o.........
00405A50 3F 00 9E FF 43 00 0F 4F 00 F9 33 DF 73 97 B7 7A ?...C..O..3.s..z
00405A60 A8 68 1B 00 0A 0D FA 78 16 00 00 BF F4 FF 00 00 .h.....x........
00405A70 78 0B 0F 3F 00 33 60 06 00 04 68 BD 04 45 00 9C x..?.3`...h..E..
00405A80 62 B9 2A 36 8E 0B 69 06 4B 33 C3 21 1D 7F 3C 00 b.*6..i.K3.!..<.
00405A90 77 BF C9 FE 38 00 40 FA C7 F5 00 D0 00 50 60 D1 w...8.@......P`.
00405AA0 96 0A F5 C7 BF 40 50 B2 F7 E7 18 B4 5E 00 8D F6 .....@P.....^...
00405AB0 7B FF 9D C3 60 C6 C0 8A 0E 1E D0 C0 E3 4B 1A 1D {...`........K..
00405AC0 77 4C 00 22 C9 16 ED B3 00 36 F5 00 9F FF 7E 92 wL.".....6....~.
00405AD0 14 42 93 81 24 00 13 00 FF 39 67 B3 69 E8 FB 7C .B..$....9g.i..|
00405AE0 CB 51 9C 00 3E CC 6D EA 5C 66 00 D1 18 7D DE 2C .Q..>.m.\f...}.,
00405AF0 A9 65 66 61 42 EE 00 AB 00 FF C2 C1 25 00 B6 E0 .efaB.......%...
00405B00 09 00 96 2A 4D 00 0F 00 1A 00 AD D2 A2 00 64 96 ...*M.........d.
00405B10 72 28 54 AC ED BB C6 BD F9 F4 7E 43 FF 00 83 E2 r(T.......~C....
00405B20 AA 18 AA FF 1F 71 61 8E FF 44 90 00 00 19 DE 06 .....qa..D......
00405B30 29 86 F5 00 B2 10 92 82 10 00 FA D9 4C 56 00 C4 )...........LV..
00405B40 56 89 D8 00 00 57 8D A0 CD 00 91 3B 11 CC B8 00 V....W.....;....
00405B50 E3 FF A4 30 EF 59 00 6A 1F 83 FF 00 F7 A3 66 C8 ...0.Y.j......f.
00405B60 78 C7 40 8D C1 2F 94 0D 73 9C 7C 85 67 85 B3 E6 x.@../..s.|.g...
00405B70 AB 52 14 4B FD E8 28 00 00 00 3F FC 51 FF 61 D7 .R.K..(...?.Q.a.
00405B80 43 4E 20 00 FF 00 73 04 62 00 44 69 92 E7 1B BB CN ...s.b.Di....
00405B90 CD 82 B5 C3 2A C6 00 80 00 FF 66 82 00 00 1B E0 ....*.....f.....
00405BA0 20 2F 7D 11 40 FF 99 1C 08 B0 2D 82 0A D0 E0 00  /}.@.....-.....
00405BB0 00 7D 00 B4 D4 23 F5 5B 90 2B D8 33 2D FC 2B 7F .}...#.[.+.3-.+.
00405BC0 30 4A 00 CE FF F6 3F CC B2 FF C1 67 DC D5 FF 82 0J....?....g....
00405BD0 A3 00 C6 C9 64 2A 00 5B 63 FF 00 25 B1 58 C3 00 ....d*.[c..%.X..
00405BE0 28 00 87 9B 03 A5 FF A8 D7 10 4B FF 00 08 99 91 (.........K.....
00405BF0 00 21 0E 19 EF 10 B9 36 66 57 03 EF 8B 51 18 82 .!.....6fW...Q..
00405C00 A6 D9 B7 45 54 20 7B 78 8B C5 24 49 0E 7C E0 48 ...ET {x..$I.|.H
00405C10 90 27 45 92 8C A1 F3 66 E2 D7 B9 A7 B8 E4 43 B8 .'E....f......C.
00405C20 A3 42 72 69 49 8F 8A CC 97 28 2B 89 00 C0 95 00 .BriI....(+.....
00405C30 20 00 2F 6A 0A 2D 64 1E 7B 93 0D D7 00 AD 63 73  ./j.-d.{.....cs
00405C40 00 BD 24 00 4C 9C 27 48 72 7B F4 7F 00 00 E4 00 ..$.L.'Hr{......
00405C50 00 77 D2 18 01 DD 20 97 5B 90 4C 43 64 64 1B 19 .w.... .[.LCdd..
00405C60 53 3E 87 8C 2D BC 00 A0 39 64 C0 F8 62 31 67 7F S>..-...9d..b1g.
00405C70 75 1C 83 02 6E FB 62 6F 89 80 59 92 89 17 00 9B u...n.bo..Y.....
00405C80 10 23 ED AF 6A 6C FE 00 B4 EB 3B 0A 5B 1B 63 F7 .#..jl....;.[.c.
00405C90 CA 2F 3E 9F C3 9E 81 7E FB CE 2A EC 00 03 2A 71 ./>....~..*...*q
00405CA0 61 5D 91 4D 93 0A 27 7A 00 D9 0D 35 57 00 1A BC a].M..'z...5W...
00405CB0 00 CD 02 A4 FF FF 09 FC E3 1C 0C 00 43 09 E6 00 ............C...
00405CC0 AE CC 2C D9 C0 00 20 58 00 1B 26 30 B7 CF 31 64 ..,... X..&0..1d
00405CD0 1E 63 BF 55 EC 18 BD 78 AF AB 17 07 FA FF 16 C7 .c.U...x........
00405CE0 FC 00 93 7E 00 3F FF 25 00 C8 93 93 F6 EC 12 B8 ...~.?.%........
00405CF0 BC E4 1D 01 B5 5C 8E 11 FC FF 9B 1A 66 4E 76 36 .....\......fNv6
00405D00 B8 36 FE FB D8 57 89 A4 F9 FF 37 3D 93 B4 65 78 .6...W....7=..ex
00405D10 69 F8 1D 1B 4D 00 D7 EF FF 00 46 6F 38 1C 27 95 i...M.....Fo8.'.
00405D20 C8 F9 C8 71 37 81 47 B1 8A 2F C6 14 D8 00 00 48 ...q7.G../.....H
00405D30 FF 00 84 00 F7 C3 FF 00 37 00 70 93 28 3E 01 7C ........7.p.(>.|
00405D40 BF 23 45 EC 3C 00 00 02 4E F1 DB FF 83 93 FF C5 .#E.<...N.......
00405D50 0A AD 00 35 7E 51 25 04 3F 1F 00 0F 60 7F 9B BC ...5~Q%.?...`...
00405D60 61 1F 65 AB 26 5F D5 18 00 C1 DB ED EE 00 1B 29 a.e.&_.........)
00405D70 00 01 FF 79 99 63 88 F0 7F 00 08 77 77 00 90 FF ...y.c.....ww...
00405D80 2F ED 98 00 98 CC 57 7F 6F A8 98 00 00 16 6C 3F /.....W.o.....l?
00405D90 16 CA 00 7C 13 73 C1 E7 68 9F 1F 02 9E CC 00 00 ...|.s..h.......
00405DA0 E9 D1 A2 00 5B D8 00 60 13 9E 7B F3 40 01 32 17 ....[..`..{.@.2.
00405DB0 0E 00 A4 DF 00 5A 00 FF 42 B1 85 EF CA 00 0C 9C .....Z..B.......
00405DC0 D9 BA FE FF 03 FF 5E 7C 00 2F D6 EC EF 00 3D AC ......^|./....=.
00405DD0 00 EB 8D 00 64 00 5B C5 5B 8B 00 5B 00 2D 6C 00 ....d.[.[..[.-l.
00405DE0 E8 3B B8 A0 02 C2 57 71 06 F3 55 FF 5D 00 8E 00 .;....Wq..U.]...
00405DF0 CC E3 00 9A FE 9C 80 FF FF E9 00 39 7C 86 FD 9C ...........9|...
00405E00 F9 14 62 4F 00 01 43 3F 61 31 FF A4 C8 5C 00 E2 ..bO..C?a1...\..
00405E10 C1 55 2A B6 7E BF 01 76 92 CA 4B B1 00 DA 99 C7 .U*.~..v..K.....
00405E20 00 02 C5 80 5E 00 39 2B 1C 07 DC AF 33 9D 00 80 ....^.9+....3...
00405E30 83 2C 00 02 BF 83 F8 4A F2 41 8D E3 A7 B7 91 00 .,.....J.A......
00405E40 03 F8 FF FF 1F 54 9A 2D E6 67 8A 0F 04 21 B3 F9 .....T.-.g...!..
00405E50 B2 B7 2D 00 00 85 BF 1F E4 67 00 61 4E 00 B4 83 ..-......g.aN...
00405E60 1F A2 89 CA 86 78 B0 73 96 1E 0D 00 ED DF 7F 00 .....x.s........
00405E70 DF 21 00 D8 01 71 FF 22 99 72 69 73 42 6E 85 BD .!...q.".risBn..
00405E80 D3 ED FF AF 00 F9 60 5A 6E 00 25 48 41 2E 43 D0 ......`Zn.%HA.C.
00405E90 00 00 0A 37 2C 44 00 5C A7 9E 62 FF F3 FE FF 44 ...7,D.\..b....D
00405EA0 07 C8 00 39 13 79 1B 30 DC 1A 1C 81 F2 09 74 00 ...9.y.0......t.
00405EB0 87 18 5F FE 32 98 DC A3 00 D6 E8 04 17 71 77 83 .._.2........qw.
00405EC0 A2 13 2D A1 2A 6F 41 82 00 E1 79 39 FF 1E F4 5D ..-.*oA...y9...]
00405ED0 41 00 80 5E FF 40 00 D0 3A FF 87 4C B4 B9 00 00 A..^.@..:..L....
00405EE0 83 00 61 A4 D1 12 15 B8 77 D7 8A 05 50 63 EA 00 ..a.....w...Pc..
00405EF0 13 1B F8 00 DF 96 21 38 CD 53 2C 1B A2 C9 9E 00 ......!8.S,.....
00405F00 72 A5 09 37 B3 61 BF 7B 12 00 80 18 C5 7F 93 07 r..7.a.{........
00405F10 BA 0E 00 00 74 7E 06 00 00 FE A1 B9 B2 0D 43 63 ....t~........Cc
00405F20 8F C4 00 3D EC 00 AF 68 45 10 D8 B5 B2 DF B3 44 ...=...hE......D
00405F30 FF 00 F2 22 85 00 5E D0 45 00 FF 06 4F 0A 2D B2 ..."..^.E...O.-.
00405F40 A5 FD 01 F9 E7 FF D2 BD FF 11 00 2D 83 97 B0 1C ...........-....
00405F50 35 81 00 C2 46 27 DE AB 80 4A F5 DC 00 0E 47 00 5...F'...J....G.
00405F60 D6 FF 60 AF FF D5 1A 6A 74 14 00 F7 80 53 22 79 ..`....jt....S"y
00405F70 18 8D 44 31 80 C9 37 86 F4 3E 09 A9 2B F8 BF 7D ..D1..7..>..+..}
00405F80 FF 49 CF 7E 9F 73 1F 56 85 D5 D6 0A F2 65 27 05 .I.~.s.V.....e'.
00405F90 D2 B6 00 DA 23 DB 00 26 1B 28 0C F5 DF 7B 32 40 ....#..&.(...{2@
00405FA0 39 67 33 1D 10 84 00 87 C1 35 2B E7 F3 06 00 18 9g3......5+.....
00405FB0 85 00 1B 92 26 40 0C 5D C0 CD 00 62 8C 00 11 FC ....&@.]...b....
00405FC0 04 58 E3 44 C7 C3 FF 90 00 00 00 B8 CB 04 00 18 .X.D............
00405FD0 47 06 14 2C 27 99 DF 00 1C A4 76 0A 25 CB 00 52 G..,'.....v.%..R
00405FE0 C5 40 4D 16 A4 D1 02 A8 10 29 66 C2 F7 22 70 C8 .@M......)f.."p.
00405FF0 9D E4 59 D7 8F E5 82 00 D2 D9 00 5C AA B9 58 6B ..Y........\..Xk
00406000 5F 00 14 EC 5C 4D 2E F8 FB 5F E7 7B 00 58 AC 35 _...\M..._.{.X.5
00406010 00 6F ED 17 0C FD 61 38 40 FB 86 4B 24 E3 08 F7 .o....a8@..K$...
00406020 FF A3 63 82 F2 1E 01 DD 00 01 E3 FA 40 7B 88 EA ..c.........@{..
00406030 79 E5 00 4B 10 3E 23 44 BE 00 34 78 40 F6 FF 5A y..K.>#D..4x@..Z
00406040 92 2A C3 CA 25 FF A7 4C 67 EA 05 49 60 1D B5 FF .*..%..Lg..I`...
00406050 00 38 40 51 A6 60 FD 46 00 E0 7F 00 81 00 33 C9 .8@Q.`.F......3.
00406060 DD 85 62 7A 67 00 AB B2 FF FF 3E 00 00 47 7B 20 ..bzg.....>..G{ 
00406070 40 FF 1F 57 00 63 01 00 FF FB FF C0 00 31 00 29 @..W.c.......1.)
00406080 21 00 1A AF F1 8C 00 06 BB 63 1E 8A 69 44 00 8D !........c..iD..
00406090 62 FC C5 4A 00 0F D1 64 20 00 74 F3 26 AD 00 84 b..J...d .t.&...
004060A0 C5 DA FF 85 FF 9C 8F AC 01 F2 E9 2B D8 00 13 00 ...........+....
004060B0 3A 80 DA 28 BE 00 00 5A 23 E0 AA 23 8B 52 99 71 :..(...Z#..#.R.q
004060C0 01 57 DB FF 00 F0 AE 00 40 01 8A A3 FF 8F 35 C4 .W......@.....5.
004060D0 36 AE 7D 11 D8 80 90 C7 20 E8 BD 65 89 42 FF FC 6.}..... ..e.B..
004060E0 00 B2 40 00 91 E0 00 00 FF 00 00 00 39 95 8B 70 ..@.........9..p
004060F0 E7 40 98 FA D1 45 C8 B8 00 F5 A3 8F 7B 00 00 1F .@...E......{...
00406100 C5 3E 2F F8 00 4D AE E0 DC 1C 00 F5 13 00 CC 48 .>/..M.........H
00406110 3A 46 3F 73 32 83 B1 00 03 6B 89 12 03 00 5B 0F :F?s2....k....[.
00406120 00 14 8C 8F 84 75 40 2F 73 22 27 95 89 14 C5 CA .....u@/s"'.....
00406130 E6 00 00 00 07 FB E8 00 28 5E E1 62 4C 35 F1 19 ........(^.bL5..
00406140 0E 7D 38 79 B0 D4 88 FF 00 CE 35 23 1E C0 23 43 .}8y......5#..#C
00406150 00 00 54 FD BF 56 51 8D 69 64 1C E6 65 84 3A 7D ..T..VQ.id..e.:}
00406160 19 A6 47 AA 00 FF 5F 3C 00 43 FC 00 A1 C2 52 BB ..G..._<.C....R.
00406170 88 34 0F AC 00 1A 65 22 AE 21 80 86 F9 BE 70 CA .4....e".!....p.
00406180 E4 00 D4 E3 0B D0 0C B9 FF 25 41 47 6B EF CE 6E .........%AGk..n
00406190 24 00 C5 E8 00 18 D3 00 00 F0 41 00 71 7A FF 9D $.........A.qz..
004061A0 57 B5 00 00 2E 00 FF FF 54 00 6D 00 C8 4D E3 A2 W.......T.m..M..
004061B0 D2 01 0E B3 05 D1 42 00 34 8F DE 11 DD 00 3D D9 ......B.4.....=.
004061C0 00 4F 59 45 D9 C4 DB 86 53 BF 00 00 A9 15 F0 FD .OYE....S.......
004061D0 88 CF 00 82 62 9F 00 38 00 05 02 46 4C 20 BC 00 ....b..8...FL ..
004061E0 00 5A FF 40 7B A4 78 D6 43 87 C8 7C 00 F9 72 83 .Z.@{.x.C..|..r.
004061F0 53 41 31 44 1B 00 1A DB 50 EA C3 8F A4 3B 00 8B SA1D....P....;..
00406200 17 4B 89 7F 00 B4 00 00 DD 00 FD 00 5F 00 F5 D3 .K.........._...
00406210 14 12 00 30 A8 D3 8A 4B 00 83 2E FB 87 D1 5B 00 ...0...K......[.
00406220 F9 0A 80 74 71 00 F1 F7 EC 79 8B FF 7C 30 D3 D6 ...tq....y..|0..
00406230 00 00 FF E8 ED 76 30 75 21 70 99 00 5D F5 13 56 .....v0u!p..]..V
00406240 04 87 E6 00 82 00 60 EC CE 9F 00 73 92 20 00 D8 ......`....s. ..
00406250 C9 C0 00 01 00 5E 03 87 ED 1A 05 15 FF FF 3A 31 .....^........:1
00406260 1F 07 7A 00 41 D7 B4 A4 30 35 FF 33 00 3F 1C 44 ..z.A...05.3.?.D
00406270 00 62 6A C0 CD 7E 0E 61 8A 81 FB 04 1A 00 44 13 .bj..~.a......D.
00406280 CC E7 EE 00 8F 18 44 29 8B FF 58 1D F5 10 85 F1 ......D)..X.....
00406290 2D 30 19 75 42 00 E0 E6 9F 00 58 44 EB 23 19 62 -0.uB.....XD.#.b
004062A0 40 8C 27 B4 B4 39 F0 49 95 4E F7 11 00 30 44 A2 @.'..9.I.N...0D.
004062B0 26 80 B6 4A CE 74 00 04 00 83 F1 00 14 68 7E 0E &..J.t.......h~.
004062C0 2E 59 AA 05 23 04 09 69 7B 00 10 00 9C 1D 83 00 .Y..#..i{.......
004062D0 FF 94 7C 76 18 81 00 CF 4D 4C 71 D0 4C 0B 2E 00 ..|v....MLq.L...
004062E0 C4 DB FF 3C 3D F4 7C DB 11 10 00 99 8D 88 C9 7C ...<=.|........|
004062F0 9A 87 30 E2 FF D1 50 2A 8B D4 FF F0 10 00 D5 00 ..0...P*........
00406300 5D A0 00 00 F2 C2 6E 78 84 D0 F9 B5 C3 FB D0 88 ].....nx........
00406310 78 1C 26 E1 20 00 6E CA 36 A2 0D 00 70 82 09 67 x.&. .n.6...p..g
00406320 48 01 56 FB C1 FF 00 2C 36 08 F2 74 A4 E4 4F 23 H.V....,6..t..O#
00406330 6F BB AB 0A C0 7F B5 83 F7 80 FA 00 00 27 C5 1E o............'..
00406340 29 D7 18 9F 6E 00 FB 04 8B 00 00 65 00 2C FF 00 )...n......e.,..
00406350 EE 08 74 04 C1 50 78 FE 2E F6 CD 38 FD C0 00 EE ..t..Px....8....
00406360 E9 A9 00 FF 00 D1 0C 00 C0 68 78 02 5E 0F B6 FB .........hx.^...
00406370 16 9F 4D AC 79 AE 9F 23 F3 00 00 FE 5A 1E BF 20 ..M.y..#....Z.. 
00406380 BB A2 00 8E 39 FF 53 00 D8 4F 79 DC 2D 74 34 A9 ....9.S..Oy.-t4.
00406390 50 3B 69 28 F4 50 A1 EA D6 D1 59 BD 78 DC 46 55 P;i(.P....Y.x.FU
004063A0 56 60 00 BC 6B 00 38 AD 39 65 34 40 00 80 CC 01 V`..k.8.9e4@....
004063B0 19 00 EB 5C 4E 88 D0 F1 AD 40 30 F2 ED 00 00 00 ...\N....@0.....
004063C0 25 A7 00 00 27 00 85 19 CC 3E 00 FF E3 89 FD C7 %...'....>......
004063D0 00 00 63 B6 00 CC 7E 5F 43 89 F4 44 00 05 84 73 ..c...~_C..D...s
004063E0 FC A3 3F 7A 00 96 BA AE 14 73 C7 FD 78 CD D8 84 ..?z.....s..x...
004063F0 6A 88 3B 18 E3 5C 6D 29 1C 90 62 7B B4 2A 70 9D j.;..\m)..b{.*p.
00406400 38 C1 1E 0C 09 3C 6C 06 01 D8 9A D9 00 16 6A 81 8....<l.......j.
00406410 00 B0 6E A1 C6 D7 00 EB D5 41 40 FF 05 12 2C 58 ..n......A@...,X
00406420 90 38 FF 7E A7 70 0B 8A 76 7C FF 43 11 CD 00 00 .8.~.p..v|.C....
00406430 C1 CB FF B0 2A 69 48 17 81 B1 78 58 FB D9 65 77 ....*iH...xX..ew
00406440 B0 85 0A 18 71 62 8A A3 20 D1 1C C3 A7 B5 93 D0 ....qb.. .......
00406450 CE 6A 00 97 E5 E2 64 68 9A 83 05 01 BF DD 6D 00 .j....dh......m.
00406460 00 00 2C FF 7B 96 FE 05 00 0D 8C 65 25 5C 00 8B ..,.{......e%\..
00406470 A9 00 20 00 21 00 50 00 01 0D 78 86 E7 EE A6 85 .. .!.P...x.....
00406480 5C 00 13 45 00 EE 60 32 2F 7D 00 81 04 FB 01 D0 \..E..`2/}......
00406490 FF 05 39 21 49 00 00 B1 3A 1C 7B 87 E1 F8 81 3A ..9!I...:.{....:
004064A0 5F E7 A8 00 00 02 FE 9E F4 83 E7 3A 7F AE 94 D1 _..........:....
004064B0 A4 D7 00 00 68 DF 3C 9C 5E 4E 33 17 83 58 11 E0 ....h.<.^N3..X..
004064C0 D9 77 D3 A5 DE 50 00 ED 78 60 6C 00 F7 2A C0 21 .w...P..x`l..*.!
004064D0 E3 90 4C CA 94 89 00 23 FF C9 C2 C7 00 36 94 00 ..L....#.....6..
004064E0 B3 68 00 9A 00 DE 3E E6 DE 60 3B E6 FA 74 FF FF .h....>..`;..t..
004064F0 77 4F FF FD E3 10 E4 70 E3 50 91 28 BE 00 36 B5 wO.....p.P.(..6.
00406500 14 20 FC 98 A1 C8 00 00 F8 87 71 FF 3B 8C 8A 95 . ........q.;...
00406510 3C 0A 45 A6 00 C1 C0 1D E0 EB 6F B7 5B 00 00 48 <.E.......o.[..H
00406520 28 A8 00 00 B1 FF E7 ED 30 46 64 A0 02 3D C7 00 (.......0Fd..=..
00406530 16 00 EE 74 29 3E F1 FB 40 66 FE 70 00 00 00 00 ...t)>..@f.p....
00406540 A2 93 B0 96 E6 74 26 0C FF E9 E4 4E B8 86 6D 87 .....t&....N..m.
00406550 27 24 B0 8E FE 00 5C FD 62 20 E2 10 DA C4 58 3F '$....\.b ....X?
00406560 7E 00 FF 7D 00 3C 00 00 FF 1D C6 00 FF 5E 1A A5 ~..}.<.......^..
00406570 73 00 44 00 1C 25 02 FF 0F 6D 07 BD 5A DD 44 1A s.D..%...m..Z.D.
00406580 F1 DF 00 6F 9A 74 A3 2A 8D 84 11 98 00 80 75 D5 ...o.t.*......u.
00406590 F9 9B 00 32 54 07 D5 00 74 64 00 B9 55 00 00 88 ...2T...td..U...
004065A0 AB 00 97 0B FD 76 FF 44 41 C7 1C 16 FF 00 FA 83 .....v.DA.......
004065B0 C2 00 08 51 00 95 A7 82 9B 34 C0 6D D2 E8 FB D9 ...Q.....4.m....
004065C0 00 FF 00 1D 00 54 A4 0B 6C 54 9E D8 9C 21 A7 4C .....T..lT...!.L
004065D0 9B 21 40 B8 60 FB 27 6D 04 0B 10 00 BA 33 D1 8B .!@.`.'m.....3..
004065E0 51 00 BB 37 12 59 46 E4 4B FB C8 B1 9C F0 34 0D Q..7.YF.K.....4.
004065F0 64 D0 00 08 0B D2 74 D1 A7 88 28 9D 1C 7F 41 5F d.....t...(...A_
00406600 00 00 00 00 00 00 00 00 00 00 00 00 00 00 00 00 ................
00406610 00 00 00 00 00 00 00 00 00 00 00 00 00 00 00 00 ................
00406620 00 00 00 00 00 00 00 00 00 00 00 00 00 00 00 00 ................
00406630 00 00 00 00 00 00 00 00 00 00 00 00 00 00 00 00 ................
00406640 00 00 00 00 00 00 00 00 00 00 00 00 00 00 00 00 ................
00406650 00 00 00 00 00 00 00 00 00 00 00 00 00 00 00 00 ................
00406660 00 00 00 00 00 00 00 00 00 00 00 00 00 00 00 00 ................
00406670 00 00 00 00 00 00 00 00 00 00 00 00 00 00 00 00 ................
00406680 00 00 00 00 00 00 00 00 00 00 00 00 00 00 00 00 ................
00406690 00 00 00 00 00 00 00 00 00 00 00 00 00 00 00 00 ................
004066A0 00 00 00 00 00 00 00 00 00 00 00 00 00 00 00 00 ................
004066B0 00 00 00 00 00 00 00 00 00 00 00 00 00 00 00 00 ................
004066C0 00 00 00 00 00 00 00 00 00 00 00 00 00 00 00 00 ................
004066D0 00 00 00 00 00 00 00 00 00 00 00 00 00 00 00 00 ................
004066E0 00 00 00 00 00 00 00 00 00 00 00 00 00 00 00 00 ................
004066F0 00 00 00 00 00 00 00 00 00 00 00 00 00 00 00 00 ................
00406700 00 00 00 00 00 00 00 00 00 00 00 00 00 00 00 00 ................
00406710 00 00 00 00 00 00 00 00 00 00 00 00 00 00 00 00 ................
00406720 00 00 00 00 00 00 00 00 00 00 00 00 00 00 00 00 ................
00406730 00 00 00 00 00 00 00 00 00 00 00 00 00 00 00 00 ................
00406740 00 00 00 00 00 00 00 00 00 00 00 00 00 00 00 00 ................
00406750 00 00 00 00 00 00 00 00 00 00 00 00 00 00 00 00 ................
00406760 00 00 00 00 00 00 00 00 00 00 00 00 00 00 00 00 ................
00406770 00 00 00 00 00 00 00 00 00 00 00 00 00 00 00 00 ................
00406780 00 00 00 00 00 00 00 00 00 00 00 00 00 00 00 00 ................
00406790 00 00 00 00 00 00 00 00 00 00 00 00 00 00 00 00 ................
004067A0 00 00 00 00 00 00 00 00 00 00 00 00 00 00 00 00 ................
004067B0 00 00 00 00 00 00 00 00 00 00 00 00 00 00 00 00 ................
004067C0 00 00 00 00 00 00 00 00 00 00 00 00 00 00 00 00 ................
004067D0 00 00 00 00 00 00 00 00 00 00 00 00 00 00 00 00 ................
004067E0 00 00 00 00 00 00 00 00 00 00 00 00 00 00 00 00 ................
004067F0 00 00 00 00 00 00 00 00 00 00 00 00 00 00 00 00 ................
00406800 00 00 00 00 00 00 00 00 00 00 00 00 00 00 00 00 ................
00406810 00 00 00 00 00 00 00 00 00 00 00 00 00 00 00 00 ................
00406820 00 00 00 00 00 00 00 00 00 00 00 00 00 00 00 00 ................
00406830 00 00 00 00 00 00 00 00 00 00 00 00 00 00 00 00 ................
00406840 00 00 00 00 00 00 00 00 00 00 00 00 00 00 00 00 ................
00406850 00 00 00 00 00 00 00 00 00 00 00 00 00 00 00 00 ................
00406860 00 00 00 00 00 00 00 00 00 00 00 00 00 00 00 00 ................
00406870 00 00 00 00 00 00 00 00 00 00 00 00 00 00 00 00 ................
00406880 00 00 00 00 00 00 00 00 00 00 00 00 00 00 00 00 ................
00406890 00 00 00 00 00 00 00 00 00 00 00 00 00 00 00 00 ................
004068A0 00 00 00 00 00 00 00 00 00 00 00 00 00 00 00 00 ................
004068B0 00 00 00 00 00 00 00 00 00 00 00 00 00 00 00 00 ................
004068C0 00 00 00 00 00 00 00 00 00 00 00 00 00 00 00 00 ................
004068D0 00 00 00 00 00 00 00 00 00 00 00 00 00 00 00 00 ................
004068E0 00 00 00 00 00 00 00 00 00 00 00 00 00 00 00 00 ................
004068F0 00 00 00 00 00 00 00 00 00 00 00 00 00 00 00 00 ................
00406900 00 00 00 00 00 00 00 00 00 00 00 00 00 00 00 00 ................
00406910 00 00 00 00 00 00 00 00 00 00 00 00 00 00 00 00 ................
00406920 00 00 00 00 00 00 00 00 00 00 00 00 00 00 00 00 ................
00406930 00 00 00 00 00 00 00 00 00 00 00 00 00 00 00 00 ................
00406940 00 00 00 00 00 00 00 00 00 00 00 00 00 00 00 00 ................
00406950 00 00 00 00 00 00 00 00 00 00 00 00 00 00 00 00 ................
00406960 00 00 00 00 00 00 00 00 00 00 00 00 00 00 00 00 ................
00406970 00 00 00 00 00 00 00 00 00 00 00 00 00 00 00 00 ................
00406980 00 00 00 00 00 00 00 00 00 00 00 00 00 00 00 00 ................
00406990 00 00 00 00 00 00 00 00 00 00 00 00 00 00 00 00 ................
004069A0 00 00 00 00 00 00 00 00 00 00 00 00 00 00 00 00 ................
004069B0 00 00 00 00 00 00 00 00 00 00 00 00 00 00 00 00 ................
004069C0 00 00 00 00 00 00 00 00 00 00 00 00 00 00 00 00 ................
004069D0 00 00 00 00 00 00 00 00 00 00 00 00 00 00 00 00 ................
004069E0 00 00 00 00 00 00 00 00 00 00 00 00 00 00 00 00 ................
004069F0 00 00 00 00 00 00 00 00 00 00 00 00 00 00 00 00 ................
00406A00 00 00 00 00 00 00 00 00 00 00 00 00 00 00 00 00 ................
00406A10 00 00 00 00 00 00 00 00 00 00 00 00 00 00 00 00 ................
00406A20 00 00 00 00 00 00 00 00 00 00 00 00 00 00 00 00 ................
00406A30 00 00 00 00 00 00 00 00 00 00 00 00 00 00 00 00 ................
00406A40 00 00 00 00 00 00 00 00 00 00 00 00 00 00 00 00 ................
00406A50 00 00 00 00 00 00 00 00 00 00 00 00 00 00 00 00 ................
00406A60 00 00 00 00 00 00 00 00 00 00 00 00 00 00 00 00 ................
00406A70 00 00 00 00 00 00 00 00 00 00 00 00 00 00 00 00 ................
00406A80 00 00 00 00 00 00 00 00 00 00 00 00 00 00 00 00 ................
00406A90 00 00 00 00 00 00 00 00 00 00 00 00 00 00 00 00 ................
00406AA0 00 00 00 00 00 00 00 00 00 00 00 00 00 00 00 00 ................
00406AB0 00 00 00 00 00 00 00 00 00 00 00 00 00 00 00 00 ................
00406AC0 00 00 00 00 00 00 00 00 00 00 00 00 00 00 00 00 ................
00406AD0 00 00 00 00 00 00 00 00 00 00 00 00 00 00 00 00 ................
00406AE0 00 00 00 00 00 00 00 00 00 00 00 00 00 00 00 00 ................
00406AF0 00 00 00 00 00 00 00 00 00 00 00 00 00 00 00 00 ................
00406B00 00 00 00 00 00 00 00 00 00 00 00 00 00 00 00 00 ................
00406B10 00 00 00 00 00 00 00 00 00 00 00 00 00 00 00 00 ................
00406B20 00 00 00 00 00 00 00 00 00 00 00 00 00 00 00 00 ................
00406B30 00 00 00 00 00 00 00 00 00 00 00 00 00 00 00 00 ................
00406B40 00 00 00 00 00 00 00 00 00 00 00 00 00 00 00 00 ................
00406B50 00 00 00 00 00 00 00 00 00 00 00 00 00 00 00 00 ................
00406B60 00 00 00 00 00 00 00 00 00 00 00 00 00 00 00 00 ................
00406B70 00 00 00 00 00 00 00 00 00 00 00 00 00 00 00 00 ................
00406B80 00 00 00 00 00 00 00 00 00 00 00 00 00 00 00 00 ................
00406B90 00 00 00 00 00 00 00 00 00 00 00 00 00 00 00 00 ................
00406BA0 00 00 00 00 00 00 00 00 00 00 00 00 00 00 00 00 ................
00406BB0 00 00 00 00 00 00 00 00 00 00 00 00 00 00 00 00 ................
00406BC0 00 00 00 00 00 00 00 00 00 00 00 00 00 00 00 00 ................
00406BD0 00 00 00 00 00 00 00 00 00 00 00 00 00 00 00 00 ................
00406BE0 00 00 00 00 00 00 00 00 00 00 00 00 00 00 00 00 ................
00406BF0 00 00 00 00 00 00 00 00 00 00 00 00 00 00 00 00 ................
00406C00 00 00 00 00 00 00 00 00 00 00 00 00 00 00 00 00 ................
00406C10 00 00 00 00 00 00 00 00 00 00 00 00 00 00 00 00 ................
00406C20 00 00 00 00 00 00 00 00 00 00 00 00 00 00 00 00 ................
00406C30 00 00 00 00 00 00 00 00 00 00 00 00 00 00 00 00 ................
00406C40 00 00 00 00 00 00 00 00 00 00 00 00 00 00 00 00 ................
00406C50 00 00 00 00 00 00 00 00 00 00 00 00 00 00 00 00 ................
00406C60 00 00 00 00 00 00 00 00 00 00 00 00 00 00 00 00 ................
00406C70 00 00 00 00 00 00 00 00 00 00 00 00 00 00 00 00 ................
00406C80 00 00 00 00 00 00 00 00 00 00 00 00 00 00 00 00 ................
00406C90 00 00 00 00 00 00 00 00 00 00 00 00 00 00 00 00 ................
00406CA0 00 00 00 00 00 00 00 00 00 00 00 00 00 00 00 00 ................
00406CB0 00 00 00 00 00 00 00 00 00 00 00 00 00 00 00 00 ................
00406CC0 00 00 00 00 00 00 00 00 00 00 00 00 00 00 00 00 ................
00406CD0 00 00 00 00 00 00 00 00 00 00 00 00 00 00 00 00 ................
00406CE0 00 00 00 00 00 00 00 00 00 00 00 00 00 00 00 00 ................
00406CF0 00 00 00 00 00 00 00 00 00 00 00 00 00 00 00 00 ................
00406D00 00 00 00 00 00 00 00 00 00 00 00 00 00 00 00 00 ................
00406D10 00 00 00 00 00 00 00 00 00 00 00 00 00 00 00 00 ................
00406D20 00 00 00 00 00 00 00 00 00 00 00 00 00 00 00 00 ................
00406D30 00 00 00 00 00 00 00 00 00 00 00 00 00 00 00 00 ................
00406D40 00 00 00 00 00 00 00 00 00 00 00 00 00 00 00 00 ................
00406D50 00 00 00 00 00 00 00 00 00 00 00 00 00 00 00 00 ................
00406D60 00 00 00 00 00 00 00 00 00 00 00 00 00 00 00 00 ................
00406D70 00 00 00 00 00 00 00 00 00 00 00 00 00 00 00 00 ................
00406D80 00 00 00 00 00 00 00 00 00 00 00 00 00 00 00 00 ................
00406D90 00 00 00 00 00 00 00 00 00 00 00 00 00 00 00 00 ................
00406DA0 00 00 00 00 00 00 00 00 00 00 00 00 00 00 00 00 ................
00406DB0 00 00 00 00 00 00 00 00 00 00 00 00 00 00 00 00 ................
00406DC0 00 00 00 00 00 00 00 00 00 00 00 00 00 00 00 00 ................
00406DD0 00 00 00 00 00 00 00 00 00 00 00 00 00 00 00 00 ................
00406DE0 00 00 00 00 00 00 00 00 00 00 00 00 00 00 00 00 ................
00406DF0 00 00 00 00 00 00 00 00 00 00 00 00 00 00 00 00 ................
00406E00 00 00 00 00 00 00 00 00 00 00 00 00 00 00 00 00 ................
00406E10 00 00 00 00 00 00 00 00 00 00 00 00 00 00 00 00 ................
00406E20 00 00 00 00 00 00 00 00 00 00 00 00 00 00 00 00 ................
00406E30 00 00 00 00 00 00 00 00 00 00 00 00 00 00 00 00 ................
00406E40 00 00 00 00 00 00 00 00 00 00 00 00 00 00 00 00 ................
00406E50 00 00 00 00 00 00 00 00 00 00 00 00 00 00 00 00 ................
00406E60 00 00 00 00 00 00 00 00 00 00 00 00 00 00 00 00 ................
00406E70 00 00 00 00 00 00 00 00 00 00 00 00 00 00 00 00 ................
00406E80 00 00 00 00 00 00 00 00 00 00 00 00 00 00 00 00 ................
00406E90 00 00 00 00 00 00 00 00 00 00 00 00 00 00 00 00 ................
00406EA0 00 00 00 00 00 00 00 00 00 00 00 00 00 00 00 00 ................
00406EB0 00 00 00 00 00 00 00 00 00 00 00 00 00 00 00 00 ................
00406EC0 00 00 00 00 00 00 00 00 00 00 00 00 00 00 00 00 ................
00406ED0 00 00 00 00 00 00 00 00 00 00 00 00 00 00 00 00 ................
00406EE0 00 00 00 00 00 00 00 00 00 00 00 00 00 00 00 00 ................
00406EF0 00 00 00 00 00 00 00 00 00 00 00 00 00 00 00 00 ................
00406F00 00 00 00 00 00 00 00 00 00 00 00 00 00 00 00 00 ................
00406F10 00 00 00 00 00 00 00 00 00 00 00 00 00 00 00 00 ................
00406F20 00 00 00 00 00 00 00 00 00 00 00 00 00 00 00 00 ................
00406F30 00 00 00 00 00 00 00 00 00 00 00 00 00 00 00 00 ................
00406F40 00 00 00 00 00 00 00 00 00 00 00 00 00 00 00 00 ................
00406F50 00 00 00 00 00 00 00 00 00 00 00 00 00 00 00 00 ................
00406F60 00 00 00 00 00 00 00 00 00 00 00 00 00 00 00 00 ................
00406F70 00 00 00 00 00 00 00 00 00 00 00 00 00 00 00 00 ................
00406F80 00 00 00 00 00 00 00 00 00 00 00 00 00 00 00 00 ................
00406F90 00 00 00 00 00 00 00 00 00 00 00 00 00 00 00 00 ................
00406FA0 00 00 00 00 00 00 00 00 00 00 00 00 00 00 00 00 ................
00406FB0 00 00 00 00 00 00 00 00 00 00 00 00 00 00 00 00 ................
00406FC0 00 00 00 00 00 00 00 00 00 00 00 00 00 00 00 00 ................
00406FD0 00 00 00 00 00 00 00 00 00 00 00 00 00 00 00 00 ................
00406FE0 00 00 00 00 00 00 00 00 00 00 00 00 00 00 00 00 ................
00406FF0 00 00 00 00 00 00 00 00 00 00 00 00 00 00 00 00 ................
00407000 00 00 00 00 00 00 00 00 00 00 00 00 00 00 00 00 ................
00407010 00 00 00 00 00 00 00 00 00 00 00 00 00 00 00 00 ................
00407020 00 00 00 00 00 00 00 00 00 00 00 00 00 00 00 00 ................
00407030 00 00 00 00 00 00 00 00 00 00 00 00 00 00 00 00 ................
00407040 00 00 00 00 00 00 00 00 00 00 00 00 00 00 00 00 ................
00407050 00 00 00 00 00 00 00 00 00 00 00 00 00 00 00 00 ................
00407060 00 00 00 00 00 00 00 00 00 00 00 00 00 00 00 00 ................
00407070 00 00 00 00 00 00 00 00 00 00 00 00 00 00 00 00 ................
00407080 00 00 00 00 00 00 00 00 00 00 00 00 00 00 00 00 ................
00407090 00 00 00 00 00 00 00 00 00 00 00 00 00 00 00 00 ................
004070A0 00 00 00 00 00 00 00 00 00 00 00 00 00 00 00 00 ................
004070B0 00 00 00 00 00 00 00 00 00 00 00 00 00 00 00 00 ................
004070C0 00 00 00 00 00 00 00 00 00 00 00 00 00 00 00 00 ................
004070D0 00 00 00 00 00 00 00 00 00 00 00 00 00 00 00 00 ................
004070E0 00 00 00 00 00 00 00 00 00 00 00 00 00 00 00 00 ................
004070F0 00 00 00 00 00 00 00 00 00 00 00 00 00 00 00 00 ................
00407100 00 00 00 00 00 00 00 00 00 00 00 00 00 00 00 00 ................
00407110 00 00 00 00 00 00 00 00 00 00 00 00 00 00 00 00 ................
00407120 00 00 00 00 00 00 00 00 00 00 00 00 00 00 00 00 ................
00407130 00 00 00 00 00 00 00 00 00 00 00 00 00 00 00 00 ................
00407140 00 00 00 00 00 00 00 00 00 00 00 00 00 00 00 00 ................
00407150 00 00 00 00 00 00 00 00 00 00 00 00 00 00 00 00 ................
00407160 00 00 00 00 00 00 00 00 00 00 00 00 00 00 00 00 ................
00407170 00 00 00 00 00 00 00 00 00 00 00 00 00 00 00 00 ................
00407180 00 00 00 00 00 00 00 00 00 00 00 00 00 00 00 00 ................
00407190 00 00 00 00 00 00 00 00 00 00 00 00 00 00 00 00 ................
004071A0 00 00 00 00 00 00 00 00 00 00 00 00 00 00 00 00 ................
004071B0 00 00 00 00 00 00 00 00 00 00 00 00 00 00 00 00 ................
004071C0 00 00 00 00 00 00 00 00 00 00 00 00 00 00 00 00 ................
004071D0 00 00 00 00 00 00 00 00 00 00 00 00 00 00 00 00 ................
004071E0 00 00 00 00 00 00 00 00 00 00 00 00 00 00 00 00 ................
004071F0 00 00 00 00 00 00 00 00 00 00 00 00 00 00 00 00 ................
00407200 00 00 00 00 00 00 00 00 00 00 00 00 00 00 00 00 ................
00407210 00 00 00 00 00 00 00 00 00 00 00 00 00 00 00 00 ................
00407220 00 00 00 00 00 00 00 00 00 00 00 00 00 00 00 00 ................
00407230 00 00 00 00 00 00 00 00 00 00 00 00 00 00 00 00 ................
00407240 00 00 00 00 00 00 00 00 00 00 00 00 00 00 00 00 ................
00407250 00 00 00 00 00 00 00 00 00 00 00 00 00 00 00 00 ................
00407260 00 00 00 00 00 00 00 00 00 00 00 00 00 00 00 00 ................
00407270 00 00 00 00 00 00 00 00 00 00 00 00 00 00 00 00 ................
00407280 00 00 00 00 00 00 00 00 00 00 00 00 00 00 00 00 ................
00407290 00 00 00 00 00 00 00 00 00 00 00 00 00 00 00 00 ................
004072A0 00 00 00 00 00 00 00 00 00 00 00 00 00 00 00 00 ................
004072B0 00 00 00 00 00 00 00 00 00 00 00 00 00 00 00 00 ................
004072C0 00 00 00 00 00 00 00 00 00 00 00 00 00 00 00 00 ................
004072D0 00 00 00 00 00 00 00 00 00 00 00 00 00 00 00 00 ................
004072E0 00 00 00 00 00 00 00 00 00 00 00 00 00 00 00 00 ................
004072F0 00 00 00 00 00 00 00 00 00 00 00 00 00 00 00 00 ................
00407300 00 00 00 00 00 00 00 00 00 00 00 00 00 00 00 00 ................
00407310 00 00 00 00 00 00 00 00 00 00 00 00 00 00 00 00 ................
00407320 00 00 00 00 00 00 00 00 00 00 00 00 00 00 00 00 ................
00407330 00 00 00 00 00 00 00 00 00 00 00 00 00 00 00 00 ................
00407340 00 00 00 00 00 00 00 00 00 00 00 00 00 00 00 00 ................
00407350 00 00 00 00 00 00 00 00 00 00 00 00 00 00 00 00 ................
00407360 00 00 00 00 00 00 00 00 00 00 00 00 00 00 00 00 ................
00407370 00 00 00 00 00 00 00 00 00 00 00 00 00 00 00 00 ................
00407380 00 00 00 00 00 00 00 00 00 00 00 00 00 00 00 00 ................
00407390 00 00 00 00 00 00 00 00 00 00 00 00 00 00 00 00 ................
004073A0 00 00 00 00 00 00 00 00 00 00 00 00 00 00 00 00 ................
004073B0 00 00 00 00 00 00 00 00 00 00 00 00 00 00 00 00 ................
004073C0 00 00 00 00 00 00 00 00 00 00 00 00 00 00 00 00 ................
004073D0 00 00 00 00 00 00 00 00 00 00 00 00 00 00 00 00 ................
004073E0 00 00 00 00 00 00 00 00 00 00 00 00 00 00 00 00 ................
004073F0 00 00 00 00 00 00 00 00 00 00 00 00 00 00 00 00 ................
00407400 00 00 00 00 00 00 00 00 00 00 00 00 00 00 00 00 ................
00407410 00 00 00 00 00 00 00 00 00 00 00 00 00 00 00 00 ................
00407420 00 00 00 00 00 00 00 00 00 00 00 00 00 00 00 00 ................
00407430 00 00 00 00 00 00 00 00 00 00 00 00 00 00 00 00 ................
00407440 00 00 00 00 00 00 00 00 00 00 00 00 00 00 00 00 ................
00407450 00 00 00 00 00 00 00 00 00 00 00 00 00 00 00 00 ................
00407460 00 00 00 00 00 00 00 00 00 00 00 00 00 00 00 00 ................
00407470 00 00 00 00 00 00 00 00 00 00 00 00 00 00 00 00 ................
00407480 00 00 00 00 00 00 00 00 00 00 00 00 00 00 00 00 ................
00407490 00 00 00 00 00 00 00 00 00 00 00 00 00 00 00 00 ................
004074A0 00 00 00 00 00 00 00 00 00 00 00 00 00 00 00 00 ................
004074B0 00 00 00 00 00 00 00 00 00 00 00 00 00 00 00 00 ................
004074C0 00 00 00 00 00 00 00 00 00 00 00 00 00 00 00 00 ................
004074D0 00 00 00 00 00 00 00 00 00 00 00 00 00 00 00 00 ................
004074E0 00 00 00 00 00 00 00 00 00 00 00 00 00 00 00 00 ................
004074F0 00 00 00 00 00 00 00 00 00 00 00 00 00 00 00 00 ................
00407500 00 00 00 00 00 00 00 00 00 00 00 00 00 00 00 00 ................
00407510 00 00 00 00 00 00 00 00 00 00 00 00 00 00 00 00 ................
00407520 00 00 00 00 00 00 00 00 00 00 00 00 00 00 00 00 ................
00407530 00 00 00 00 00 00 00 00 00 00 00 00 00 00 00 00 ................
00407540 00 00 00 00 00 00 00 00 00 00 00 00 00 00 00 00 ................
00407550 00 00 00 00 00 00 00 00 00 00 00 00 00 00 00 00 ................
00407560 00 00 00 00 00 00 00 00 00 00 00 00 00 00 00 00 ................
00407570 00 00 00 00 00 00 00 00 00 00 00 00 00 00 00 00 ................
00407580 00 00 00 00 00 00 00 00 00 00 00 00 00 00 00 00 ................
00407590 00 00 00 00 00 00 00 00 00 00 00 00 00 00 00 00 ................
004075A0 00 00 00 00 00 00 00 00 00 00 00 00 00 00 00 00 ................
004075B0 00 00 00 00 00 00 00 00 00 00 00 00 00 00 00 00 ................
004075C0 00 00 00 00 00 00 00 00 00 00 00 00 00 00 00 00 ................
004075D0 00 00 00 00 00 00 00 00 00 00 00 00 00 00 00 00 ................
004075E0 00 00 00 00 00 00 00 00 00 00 00 00 00 00 00 00 ................
004075F0 00 00 00 00 00 00 00 00 00 00 00 00 00 00 00 00 ................
00407600 00 00 00 00 00 00 00 00 00 00 00 00 00 00 00 00 ................
00407610 00 00 00 00 00 00 00 00 00 00 00 00 00 00 00 00 ................
00407620 00 00 00 00 00 00 00 00 00 00 00 00 00 00 00 00 ................
00407630 00 00 00 00 00 00 00 00 00 00 00 00 00 00 00 00 ................
00407640 00 00 00 00 00 00 00 00 00 00 00 00 00 00 00 00 ................
00407650 00 00 00 00 00 00 00 00 00 00 00 00 00 00 00 00 ................
00407660 00 00 00 00 00 00 00 00 00 00 00 00 00 00 00 00 ................
00407670 00 00 00 00 00 00 00 00 00 00 00 00 00 00 00 00 ................
00407680 00 00 00 00 00 00 00 00 00 00 00 00 00 00 00 00 ................
00407690 00 00 00 00 00 00 00 00 00 00 00 00 00 00 00 00 ................
004076A0 00 00 00 00 00 00 00 00 00 00 00 00 00 00 00 00 ................
004076B0 00 00 00 00 00 00 00 00 00 00 00 00 00 00 00 00 ................
004076C0 00 00 00 00 00 00 00 00 00 00 00 00 00 00 00 00 ................
004076D0 00 00 00 00 00 00 00 00 00 00 00 00 00 00 00 00 ................
004076E0 00 00 00 00 00 00 00 00 00 00 00 00 00 00 00 00 ................
004076F0 00 00 00 00 00 00 00 00 00 00 00 00 00 00 00 00 ................
00407700 00 00 00 00 00 00 00 00 00 00 00 00 00 00 00 00 ................
00407710 00 00 00 00 00 00 00 00 00 00 00 00 00 00 00 00 ................
00407720 00 00 00 00 00 00 00 00 00 00 00 00 00 00 00 00 ................
00407730 00 00 00 00 00 00 00 00 00 00 00 00 00 00 00 00 ................
00407740 00 00 00 00 00 00 00 00 00 00 00 00 00 00 00 00 ................
00407750 00 00 00 00 00 00 00 00 00 00 00 00 00 00 00 00 ................
00407760 00 00 00 00 00 00 00 00 00 00 00 00 00 00 00 00 ................
00407770 00 00 00 00 00 00 00 00 00 00 00 00 00 00 00 00 ................
00407780 00 00 00 00 00 00 00 00 00 00 00 00 00 00 00 00 ................
00407790 00 00 00 00 00 00 00 00 00 00 00 00 00 00 00 00 ................
004077A0 00 00 00 00 00 00 00 00 00 00 00 00 00 00 00 00 ................
004077B0 00 00 00 00 00 00 00 00 00 00 00 00 00 00 00 00 ................
004077C0 00 00 00 00 00 00 00 00 00 00 00 00 00 00 00 00 ................
004077D0 00 00 00 00 00 00 00 00 00 00 00 00 00 00 00 00 ................
004077E0 00 00 00 00 00 00 00 00 00 00 00 00 00 00 00 00 ................
004077F0 00 00 00 00 00 00 00 00 00 00 00 00 00 00 00 00 ................
00407800 00 00 00 00 00 00 00 00 00 00 00 00 00 00 00 00 ................
00407810 00 00 00 00 00 00 00 00 00 00 00 00 00 00 00 00 ................
00407820 00 00 00 00 00 00 00 00 00 00 00 00 00 00 00 00 ................
00407830 00 00 00 00 00 00 00 00 00 00 00 00 00 00 00 00 ................
00407840 00 00 00 00 00 00 00 00 00 00 00 00 00 00 00 00 ................
00407850 00 00 00 00 00 00 00 00 00 00 00 00 00 00 00 00 ................
00407860 00 00 00 00 00 00 00 00 00 00 00 00 00 00 00 00 ................
00407870 00 00 00 00 00 00 00 00 00 00 00 00 00 00 00 00 ................
00407880 00 00 00 00 00 00 00 00 00 00 00 00 00 00 00 00 ................
00407890 00 00 00 00 00 00 00 00 00 00 00 00 00 00 00 00 ................
004078A0 00 00 00 00 00 00 00 00 00 00 00 00 00 00 00 00 ................
004078B0 00 00 00 00 00 00 00 00 00 00 00 00 00 00 00 00 ................
004078C0 00 00 00 00 00 00 00 00 00 00 00 00 00 00 00 00 ................
004078D0 00 00 00 00 00 00 00 00 00 00 00 00 00 00 00 00 ................
004078E0 00 00 00 00 00 00 00 00 00 00 00 00 00 00 00 00 ................
004078F0 00 00 00 00 00 00 00 00 00 00 00 00 00 00 00 00 ................
00407900 00 00 00 00 00 00 00 00 00 00 00 00 00 00 00 00 ................
00407910 00 00 00 00 00 00 00 00 00 00 00 00 00 00 00 00 ................
00407920 00 00 00 00 00 00 00 00 00 00 00 00 00 00 00 00 ................
00407930 00 00 00 00 00 00 00 00 00 00 00 00 00 00 00 00 ................
00407940 00 00 00 00 00 00 00 00 00 00 00 00 00 00 00 00 ................
00407950 00 00 00 00 00 00 00 00 00 00 00 00 00 00 00 00 ................
00407960 00 00 00 00 00 00 00 00 00 00 00 00 00 00 00 00 ................
00407970 00 00 00 00 00 00 00 00 00 00 00 00 00 00 00 00 ................
00407980 00 00 00 00 00 00 00 00 00 00 00 00 00 00 00 00 ................
00407990 00 00 00 00 00 00 00 00 00 00 00 00 00 00 00 00 ................
004079A0 00 00 00 00 00 00 00 00 00 00 00 00 00 00 00 00 ................
004079B0 00 00 00 00 00 00 00 00 00 00 00 00 00 00 00 00 ................
004079C0 00 00 00 00 00 00 00 00 00 00 00 00 00 00 00 00 ................
004079D0 00 00 00 00 00 00 00 00 00 00 00 00 00 00 00 00 ................
004079E0 00 00 00 00 00 00 00 00 00 00 00 00 00 00 00 00 ................
004079F0 00 00 00 00 00 00 00 00 00 00 00 00 00 00 00 00 ................
00407A00 00 00 00 00 00 00 00 00 00 00 00 00 00 00 00 00 ................
00407A10 00 00 00 00 00 00 00 00 00 00 00 00 00 00 00 00 ................
00407A20 00 00 00 00 00 00 00 00 00 00 00 00 00 00 00 00 ................
00407A30 00 00 00 00 00 00 00 00 00 00 00 00 00 00 00 00 ................
00407A40 00 00 00 00 00 00 00 00 00 00 00 00 00 00 00 00 ................
00407A50 00 00 00 00 00 00 00 00 00 00 00 00 00 00 00 00 ................
00407A60 00 00 00 00 00 00 00 00 00 00 00 00 00 00 00 00 ................
00407A70 00 00 00 00 00 00 00 00 00 00 00 00 00 00 00 00 ................
00407A80 00 00 00 00 00 00 00 00 00 00 00 00 00 00 00 00 ................
00407A90 00 00 00 00 00 00 00 00 00 00 00 00 00 00 00 00 ................
00407AA0 00 00 00 00 00 00 00 00 00 00 00 00 00 00 00 00 ................
00407AB0 00 00 00 00 00 00 00 00 00 00 00 00 00 00 00 00 ................
00407AC0 00 00 00 00 00 00 00 00 00 00 00 00 00 00 00 00 ................
00407AD0 00 00 00 00 00 00 00 00 00 00 00 00 00 00 00 00 ................
00407AE0 00 00 00 00 00 00 00 00 00 00 00 00 00 00 00 00 ................
00407AF0 00 00 00 00 00 00 00 00 00 00 00 00 00 00 00 00 ................
00407B00 00 00 00 00 00 00 00 00 00 00 00 00 00 00 00 00 ................
00407B10 00 00 00 00 00 00 00 00 00 00 00 00 00 00 00 00 ................
00407B20 00 00 00 00 00 00 00 00 00 00 00 00 00 00 00 00 ................
00407B30 00 00 00 00 00 00 00 00 00 00 00 00 00 00 00 00 ................
00407B40 00 00 00 00 00 00 00 00 00 00 00 00 00 00 00 00 ................
00407B50 00 00 00 00 00 00 00 00 00 00 00 00 00 00 00 00 ................
00407B60 00 00 00 00 00 00 00 00 00 00 00 00 00 00 00 00 ................
00407B70 00 00 00 00 00 00 00 00 00 00 00 00 00 00 00 00 ................
00407B80 00 00 00 00 00 00 00 00 00 00 00 00 00 00 00 00 ................
00407B90 00 00 00 00 00 00 00 00 00 00 00 00 00 00 00 00 ................
00407BA0 00 00 00 00 00 00 00 00 00 00 00 00 00 00 00 00 ................
00407BB0 00 00 00 00 00 00 00 00 00 00 00 00 00 00 00 00 ................
00407BC0 00 00 00 00 00 00 00 00 00 00 00 00 00 00 00 00 ................
00407BD0 00 00 00 00 00 00 00 00 00 00 00 00 00 00 00 00 ................
00407BE0 00 00 00 00 00 00 00 00 00 00 00 00 00 00 00 00 ................
00407BF0 00 00 00 00 00 00 00 00 00 00 00 00 00 00 00 00 ................
00407C00 00 00 00 00 00 00 00 00 00 00 00 00 00 00 00 00 ................
00407C10 00 00 00 00 00 00 00 00 00 00 00 00 00 00 00 00 ................
00407C20 00 00 00 00 00 00 00 00 00 00 00 00 00 00 00 00 ................
00407C30 00 00 00 00 00 00 00 00 00 00 00 00 00 00 00 00 ................
00407C40 00 00 00 00 00 00 00 00 00 00 00 00 00 00 00 00 ................
00407C50 00 00 00 00 00 00 00 00 00 00 00 00 00 00 00 00 ................
00407C60 00 00 00 00 00 00 00 00 00 00 00 00 00 00 00 00 ................
00407C70 00 00 00 00 00 00 00 00 00 00 00 00 00 00 00 00 ................
00407C80 00 00 00 00 00 00 00 00 00 00 00 00 00 00 00 00 ................
00407C90 00 00 00 00 00 00 00 00 00 00 00 00 00 00 00 00 ................
00407CA0 00 00 00 00 00 00 00 00 00 00 00 00 00 00 00 00 ................
00407CB0 00 00 00 00 00 00 00 00 00 00 00 00 00 00 00 00 ................
00407CC0 00 00 00 00 00 00 00 00 00 00 00 00 00 00 00 00 ................
00407CD0 00 00 00 00 00 00 00 00 00 00 00 00 00 00 00 00 ................
00407CE0 00 00 00 00 00 00 00 00 00 00 00 00 00 00 00 00 ................
00407CF0 00 00 00 00 00 00 00 00 00 00 00 00 00 00 00 00 ................
00407D00 00 00 00 00 00 00 00 00 00 00 00 00 00 00 00 00 ................
00407D10 00 00 00 00 00 00 00 00 00 00 00 00 00 00 00 00 ................
00407D20 00 00 00 00 00 00 00 00 00 00 00 00 00 00 00 00 ................
00407D30 00 00 00 00 00 00 00 00 00 00 00 00 00 00 00 00 ................
00407D40 00 00 00 00 00 00 00 00 00 00 00 00 00 00 00 00 ................
00407D50 00 00 00 00 00 00 00 00 00 00 00 00 00 00 00 00 ................
00407D60 00 00 00 00 00 00 00 00 00 00 00 00 00 00 00 00 ................
00407D70 00 00 00 00 00 00 00 00 00 00 00 00 00 00 00 00 ................
00407D80 00 00 00 00 00 00 00 00 00 00 00 00 00 00 00 00 ................
00407D90 00 00 00 00 00 00 00 00 00 00 00 00 00 00 00 00 ................
00407DA0 00 00 00 00 00 00 00 00 00 00 00 00 00 00 00 00 ................
00407DB0 00 00 00 00 00 00 00 00 00 00 00 00 00 00 00 00 ................
00407DC0 00 00 00 00 00 00 00 00 00 00 00 00 00 00 00 00 ................
00407DD0 00 00 00 00 00 00 00 00 00 00 00 00 00 00 00 00 ................
00407DE0 00 00 00 00 00 00 00 00 00 00 00 00 00 00 00 00 ................
00407DF0 00 00 00 00 00 00 00 00 00 00 00 00 00 00 00 00 ................
00407E00 00 00 00 00 00 00 00 00 00 00 00 00 00 00 00 00 ................
00407E10 00 00 00 00 00 00 00 00 00 00 00 00 00 00 00 00 ................
00407E20 00 00 00 00 00 00 00 00 00 00 00 00 00 00 00 00 ................
00407E30 00 00 00 00 00 00 00 00 00 00 00 00 00 00 00 00 ................
00407E40 00 00 00 00 00 00 00 00 00 00 00 00 00 00 00 00 ................
00407E50 00 00 00 00 00 00 00 00 00 00 00 00 00 00 00 00 ................
00407E60 00 00 00 00 00 00 00 00 00 00 00 00 00 00 00 00 ................
00407E70 00 00 00 00 00 00 00 00 00 00 00 00 00 00 00 00 ................
00407E80 00 00 00 00 00 00 00 00 00 00 00 00 00 00 00 00 ................
00407E90 00 00 00 00 00 00 00 00 00 00 00 00 00 00 00 00 ................
00407EA0 00 00 00 00 00 00 00 00 00 00 00 00 00 00 00 00 ................
00407EB0 00 00 00 00 00 00 00 00 00 00 00 00 00 00 00 00 ................
00407EC0 00 00 00 00 00 00 00 00 00 00 00 00 00 00 00 00 ................
00407ED0 00 00 00 00 00 00 00 00 00 00 00 00 00 00 00 00 ................
00407EE0 00 00 00 00 00 00 00 00 00 00 00 00 00 00 00 00 ................
00407EF0 00 00 00 00 00 00 00 00 00 00 00 00 00 00 00 00 ................
00407F00 00 00 00 00 00 00 00 00 00 00 00 00 00 00 00 00 ................
00407F10 00 00 00 00 00 00 00 00 00 00 00 00 00 00 00 00 ................
00407F20 00 00 00 00 00 00 00 00 00 00 00 00 00 00 00 00 ................
00407F30 00 00 00 00 00 00 00 00 00 00 00 00 00 00 00 00 ................
00407F40 00 00 00 00 00 00 00 00 00 00 00 00 00 00 00 00 ................
00407F50 00 00 00 00 00 00 00 00 00 00 00 00 00 00 00 00 ................
00407F60 00 00 00 00 00 00 00 00 00 00 00 00 00 00 00 00 ................
00407F70 00 00 00 00 00 00 00 00 00 00 00 00 00 00 00 00 ................
00407F80 00 00 00 00 00 00 00 00 00 00 00 00 00 00 00 00 ................
00407F90 00 00 00 00 00 00 00 00 00 00 00 00 00 00 00 00 ................
00407FA0 00 00 00 00 00 00 00 00 00 00 00 00 00 00 00 00 ................
00407FB0 00 00 00 00 00 00 00 00 00 00 00 00 00 00 00 00 ................
00407FC0 00 00 00 00 00 00 00 00 00 00 00 00 00 00 00 00 ................
00407FD0 00 00 00 00 00 00 00 00 00 00 00 00 00 00 00 00 ................
00407FE0 00 00 00 00 00 00 00 00 00 00 00 00 00 00 00 00 ................
00407FF0 00 00 00 00 00 00 00 00 00 00 00 00 00 00 00 00 ................
00408000 00 00 00 00 00 00 00 00 00 00 00 00 00 00 00 00 ................
00408010 00 00 00 00 00 00 00 00 00 00 00 00 00 00 00 00 ................
00408020 00 00 00 00 00 00 00 00 00 00 00 00 00 00 00 00 ................
00408030 00 00 00 00 00 00 00 00 00 00 00 00 00 00 00 00 ................
00408040 00 00 00 00 00 00 00 00 00 00 00 00 00 00 00 00 ................
00408050 00 00 00 00 00 00 00 00 00 00 00 00 00 00 00 00 ................
00408060 00 00 00 00 00 00 00 00 00 00 00 00 00 00 00 00 ................
00408070 00 00 00 00 00 00 00 00 00 00 00 00 00 00 00 00 ................
00408080 00 00 00 00 00 00 00 00 00 00 00 00 00 00 00 00 ................
00408090 00 00 00 00 00 00 00 00 00 00 00 00 00 00 00 00 ................
004080A0 00 00 00 00 00 00 00 00 00 00 00 00 00 00 00 00 ................
004080B0 00 00 00 00 00 00 00 00 00 00 00 00 00 00 00 00 ................
004080C0 00 00 00 00 00 00 00 00 00 00 00 00 00 00 00 00 ................
004080D0 00 00 00 00 00 00 00 00 00 00 00 00 00 00 00 00 ................
004080E0 00 00 00 00 00 00 00 00 00 00 00 00 00 00 00 00 ................
004080F0 00 00 00 00 00 00 00 00 00 00 00 00 00 00 00 00 ................
00408100 00 00 00 00 00 00 00 00 00 00 00 00 00 00 00 00 ................
00408110 00 00 00 00 00 00 00 00 00 00 00 00 00 00 00 00 ................
00408120 00 00 00 00 00 00 00 00 00 00 00 00 00 00 00 00 ................
00408130 00 00 00 00 00 00 00 00 00 00 00 00 00 00 00 00 ................
00408140 00 00 00 00 00 00 00 00 00 00 00 00 00 00 00 00 ................
00408150 00 00 00 00 00 00 00 00 00 00 00 00 00 00 00 00 ................
00408160 00 00 00 00 00 00 00 00 00 00 00 00 00 00 00 00 ................
00408170 00 00 00 00 00 00 00 00 00 00 00 00 00 00 00 00 ................
00408180 00 00 00 00 00 00 00 00 00 00 00 00 00 00 00 00 ................
00408190 00 00 00 00 00 00 00 00 00 00 00 00 00 00 00 00 ................
004081A0 00 00 00 00 00 00 00 00 00 00 00 00 00 00 00 00 ................
004081B0 00 00 00 00 00 00 00 00 00 00 00 00 00 00 00 00 ................
004081C0 00 00 00 00 00 00 00 00 00 00 00 00 00 00 00 00 ................
004081D0 00 00 00 00 00 00 00 00 00 00 00 00 00 00 00 00 ................
004081E0 00 00 00 00 00 00 00 00 00 00 00 00 00 00 00 00 ................
004081F0 00 00 00 00 00 00 00 00 00 00 00 00 00 00 00 00 ................
00408200 00 00 00 00 00 00 00 00 00 00 00 00 00 00 00 00 ................
00408210 00 00 00 00 00 00 00 00 00 00 00 00 00 00 00 00 ................
00408220 00 00 00 00 00 00 00 00 00 00 00 00 00 00 00 00 ................
00408230 00 00 00 00 00 00 00 00 00 00 00 00 00 00 00 00 ................
00408240 00 00 00 00 00 00 00 00 00 00 00 00 00 00 00 00 ................
00408250 00 00 00 00 00 00 00 00 00 00 00 00 00 00 00 00 ................
00408260 00 00 00 00 00 00 00 00 00 00 00 00 00 00 00 00 ................
00408270 00 00 00 00 00 00 00 00 00 00 00 00 00 00 00 00 ................
00408280 00 00 00 00 00 00 00 00 00 00 00 00 00 00 00 00 ................
00408290 00 00 00 00 00 00 00 00 00 00 00 00 00 00 00 00 ................
004082A0 00 00 00 00 00 00 00 00 00 00 00 00 00 00 00 00 ................
004082B0 00 00 00 00 00 00 00 00 00 00 00 00 00 00 00 00 ................
004082C0 00 00 00 00 00 00 00 00 00 00 00 00 00 00 00 00 ................
004082D0 00 00 00 00 00 00 00 00 00 00 00 00 00 00 00 00 ................
004082E0 00 00 00 00 00 00 00 00 00 00 00 00 00 00 00 00 ................
004082F0 00 00 00 00 00 00 00 00 00 00 00 00 00 00 00 00 ................
00408300 00 00 00 00 00 00 00 00 00 00 00 00 00 00 00 00 ................
00408310 00 00 00 00 00 00 00 00 00 00 00 00 00 00 00 00 ................
00408320 00 00 00 00 00 00 00 00 00 00 00 00 00 00 00 00 ................
00408330 00 00 00 00 00 00 00 00 00 00 00 00 00 00 00 00 ................
00408340 00 00 00 00 00 00 00 00 00 00 00 00 00 00 00 00 ................
00408350 00 00 00 00 00 00 00 00 00 00 00 00 00 00 00 00 ................
00408360 00 00 00 00 00 00 00 00 00 00 00 00 00 00 00 00 ................
00408370 00 00 00 00 00 00 00 00 00 00 00 00 00 00 00 00 ................
00408380 00 00 00 00 00 00 00 00 00 00 00 00 00 00 00 00 ................
00408390 00 00 00 00 00 00 00 00 00 00 00 00 00 00 00 00 ................
004083A0 00 00 00 00 00 00 00 00 00 00 00 00 00 00 00 00 ................
004083B0 00 00 00 00 00 00 00 00 00 00 00 00 00 00 00 00 ................
004083C0 00 00 00 00 00 00 00 00 00 00 00 00 00 00 00 00 ................
004083D0 00 00 00 00 00 00 00 00 00 00 00 00 00 00 00 00 ................
004083E0 00 00 00 00 00 00 00 00 00 00 00 00 00 00 00 00 ................
004083F0 00 00 00 00 00 00 00 00 00 00 00 00 00 00 00 00 ................
00408400 00 00 00 00 00 00 00 00 00 00 00 00 00 00 00 00 ................
00408410 00 00 00 00 00 00 00 00 00 00 00 00 00 00 00 00 ................
00408420 00 00 00 00 00 00 00 00 00 00 00 00 00 00 00 00 ................
00408430 00 00 00 00 00 00 00 00 00 00 00 00 00 00 00 00 ................
00408440 00 00 00 00 00 00 00 00 00 00 00 00 00 00 00 00 ................
00408450 00 00 00 00 00 00 00 00 00 00 00 00 00 00 00 00 ................
00408460 00 00 00 00 00 00 00 00 00 00 00 00 00 00 00 00 ................
00408470 00 00 00 00 00 00 00 00 00 00 00 00 00 00 00 00 ................
00408480 00 00 00 00 00 00 00 00 00 00 00 00 00 00 00 00 ................
00408490 00 00 00 00 00 00 00 00 00 00 00 00 00 00 00 00 ................
004084A0 00 00 00 00 00 00 00 00 00 00 00 00 00 00 00 00 ................
004084B0 00 00 00 00 00 00 00 00 00 00 00 00 00 00 00 00 ................
004084C0 00 00 00 00 00 00 00 00 00 00 00 00 00 00 00 00 ................
004084D0 00 00 00 00 00 00 00 00 00 00 00 00 00 00 00 00 ................
004084E0 00 00 00 00 00 00 00 00 00 00 00 00 00 00 00 00 ................
004084F0 00 00 00 00 00 00 00 00 00 00 00 00 00 00 00 00 ................
00408500 00 00 00 00 00 00 00 00 00 00 00 00 00 00 00 00 ................
00408510 00 00 00 00 00 00 00 00 00 00 00 00 00 00 00 00 ................
00408520 00 00 00 00 00 00 00 00 00 00 00 00 00 00 00 00 ................
00408530 00 00 00 00 00 00 00 00 00 00 00 00 00 00 00 00 ................
00408540 00 00 00 00 00 00 00 00 00 00 00 00 00 00 00 00 ................
00408550 00 00 00 00 00 00 00 00 00 00 00 00 00 00 00 00 ................
00408560 00 00 00 00 00 00 00 00 00 00 00 00 00 00 00 00 ................
00408570 00 00 00 00 00 00 00 00 00 00 00 00 00 00 00 00 ................
00408580 00 00 00 00 00 00 00 00 00 00 00 00 00 00 00 00 ................
00408590 00 00 00 00 00 00 00 00 00 00 00 00 00 00 00 00 ................
004085A0 00 00 00 00 00 00 00 00 00 00 00 00 00 00 00 00 ................
004085B0 00 00 00 00 00 00 00 00 00 00 00 00 00 00 00 00 ................
004085C0 00 00 00 00 00 00 00 00 00 00 00 00 00 00 00 00 ................
004085D0 00 00 00 00 00 00 00 00 00 00 00 00 00 00 00 00 ................
004085E0 00 00 00 00 00 00 00 00 00 00 00 00 00 00 00 00 ................
004085F0 00 00 00 00 00 00 00 00 00 00 00 00 00 00 00 00 ................
00408600 00 00 00 00 00 00 00 00 00 00 00 00 00 00 00 00 ................
00408610 00 00 00 00 00 00 00 00 00 00 00 00 00 00 00 00 ................
00408620 00 00 00 00 00 00 00 00 00 00 00 00 00 00 00 00 ................
00408630 00 00 00 00 00 00 00 00 00 00 00 00 00 00 00 00 ................
00408640 00 00 00 00 00 00 00 00 00 00 00 00 00 00 00 00 ................
00408650 00 00 00 00 00 00 00 00 00 00 00 00 00 00 00 00 ................
00408660 00 00 00 00 00 00 00 00 00 00 00 00 00 00 00 00 ................
00408670 00 00 00 00 00 00 00 00 00 00 00 00 00 00 00 00 ................
00408680 00 00 00 00 00 00 00 00 00 00 00 00 00 00 00 00 ................
00408690 00 00 00 00 00 00 00 00 00 00 00 00 00 00 00 00 ................
004086A0 00 00 00 00 00 00 00 00 00 00 00 00 00 00 00 00 ................
004086B0 00 00 00 00 00 00 00 00 00 00 00 00 00 00 00 00 ................
004086C0 00 00 00 00 00 00 00 00 00 00 00 00 00 00 00 00 ................
004086D0 00 00 00 00 00 00 00 00 00 00 00 00 00 00 00 00 ................
004086E0 00 00 00 00 00 00 00 00 00 00 00 00 00 00 00 00 ................
004086F0 00 00 00 00 00 00 00 00 00 00 00 00 00 00 00 00 ................
00408700 00 00 00 00 00 00 00 00 00 00 00 00 00 00 00 00 ................
00408710 00 00 00 00 00 00 00 00 00 00 00 00 00 00 00 00 ................
00408720 00 00 00 00 00 00 00 00 00 00 00 00 00 00 00 00 ................
00408730 00 00 00 00 00 00 00 00 00 00 00 00 00 00 00 00 ................
00408740 00 00 00 00 00 00 00 00 00 00 00 00 00 00 00 00 ................
00408750 00 00 00 00 00 00 00 00 00 00 00 00 00 00 00 00 ................
00408760 00 00 00 00 00 00 00 00 00 00 00 00 00 00 00 00 ................
00408770 00 00 00 00 00 00 00 00 00 00 00 00 00 00 00 00 ................
00408780 00 00 00 00 00 00 00 00 00 00 00 00 00 00 00 00 ................
00408790 00 00 00 00 00 00 00 00 00 00 00 00 00 00 00 00 ................
004087A0 00 00 00 00 00 00 00 00 00 00 00 00 00 00 00 00 ................
004087B0 00 00 00 00 00 00 00 00 00 00 00 00 00 00 00 00 ................
004087C0 00 00 00 00 00 00 00 00 00 00 00 00 00 00 00 00 ................
004087D0 00 00 00 00 00 00 00 00 00 00 00 00 00 00 00 00 ................
004087E0 00 00 00 00 00 00 00 00 00 00 00 00 00 00 00 00 ................
004087F0 00 00 00 00 00 00 00 00 00 00 00 00 00 00 00 00 ................
00408800 00 00 00 00 00 00 00 00 00 00 00 00 00 00 00 00 ................
00408810 00 00 00 00 00 00 00 00 00 00 00 00 00 00 00 00 ................
00408820 00 00 00 00 00 00 00 00 00 00 00 00 00 00 00 00 ................
00408830 00 00 00 00 00 00 00 00 00 00 00 00 00 00 00 00 ................
00408840 00 00 00 00 00 00 00 00 00 00 00 00 00 00 00 00 ................
00408850 00 00 00 00 00 00 00 00 00 00 00 00 00 00 00 00 ................
00408860 00 00 00 00 00 00 00 00 00 00 00 00 00 00 00 00 ................
00408870 00 00 00 00 00 00 00 00 00 00 00 00 00 00 00 00 ................
00408880 00 00 00 00 00 00 00 00 00 00 00 00 00 00 00 00 ................
00408890 00 00 00 00 00 00 00 00 00 00 00 00 00 00 00 00 ................
004088A0 00 00 00 00 00 00 00 00 00 00 00 00 00 00 00 00 ................
004088B0 00 00 00 00 00 00 00 00 00 00 00 00 00 00 00 00 ................
004088C0 00 00 00 00 00 00 00 00 00 00 00 00 00 00 00 00 ................
004088D0 00 00 00 00 00 00 00 00 00 00 00 00 00 00 00 00 ................
004088E0 00 00 00 00 00 00 00 00 00 00 00 00 00 00 00 00 ................
004088F0 00 00 00 00 00 00 00 00 00 00 00 00 00 00 00 00 ................
00408900 00 00 00 00 00 00 00 00 00 00 00 00 00 00 00 00 ................
00408910 00 00 00 00 00 00 00 00 00 00 00 00 00 00 00 00 ................
00408920 00 00 00 00 00 00 00 00 00 00 00 00 00 00 00 00 ................
00408930 00 00 00 00 00 00 00 00 00 00 00 00 00 00 00 00 ................
00408940 00 00 00 00 00 00 00 00 00 00 00 00 00 00 00 00 ................
00408950 00 00 00 00 00 00 00 00 00 00 00 00 00 00 00 00 ................
00408960 00 00 00 00 00 00 00 00 00 00 00 00 00 00 00 00 ................
00408970 00 00 00 00 00 00 00 00 00 00 00 00 00 00 00 00 ................
00408980 00 00 00 00 00 00 00 00 00 00 00 00 00 00 00 00 ................
00408990 00 00 00 00 00 00 00 00 00 00 00 00 00 00 00 00 ................
004089A0 00 00 00 00 00 00 00 00 00 00 00 00 00 00 00 00 ................
004089B0 00 00 00 00 00 00 00 00 00 00 00 00 00 00 00 00 ................
004089C0 00 00 00 00 00 00 00 00 00 00 00 00 00 00 00 00 ................
004089D0 00 00 00 00 00 00 00 00 00 00 00 00 00 00 00 00 ................
004089E0 00 00 00 00 00 00 00 00 00 00 00 00 00 00 00 00 ................
004089F0 00 00 00 00 00 00 00 00 00 00 00 00 00 00 00 00 ................
00408A00 00 00 00 00 00 00 00 00 00 00 00 00 00 00 00 00 ................
00408A10 00 00 00 00 00 00 00 00 00 00 00 00 00 00 00 00 ................
00408A20 00 00 00 00 00 00 00 00 00 00 00 00 00 00 00 00 ................
00408A30 00 00 00 00 00 00 00 00 00 00 00 00 00 00 00 00 ................
00408A40 00 00 00 00 00 00 00 00 00 00 00 00 00 00 00 00 ................
00408A50 00 00 00 00 00 00 00 00 00 00 00 00 00 00 00 00 ................
00408A60 00 00 00 00 00 00 00 00 00 00 00 00 00 00 00 00 ................
00408A70 00 00 00 00 00 00 00 00 00 00 00 00 00 00 00 00 ................
00408A80 00 00 00 00 00 00 00 00 00 00 00 00 00 00 00 00 ................
00408A90 00 00 00 00 00 00 00 00 00 00 00 00 00 00 00 00 ................
00408AA0 00 00 00 00 00 00 00 00 00 00 00 00 00 00 00 00 ................
00408AB0 00 00 00 00 00 00 00 00 00 00 00 00 00 00 00 00 ................
00408AC0 00 00 00 00 00 00 00 00 00 00 00 00 00 00 00 00 ................
00408AD0 00 00 00 00 00 00 00 00 00 00 00 00 00 00 00 00 ................
00408AE0 00 00 00 00 00 00 00 00 00 00 00 00 00 00 00 00 ................
00408AF0 00 00 00 00 00 00 00 00 00 00 00 00 00 00 00 00 ................
00408B00 00 00 00 00 00 00 00 00 00 00 00 00 00 00 00 00 ................
00408B10 00 00 00 00 00 00 00 00 00 00 00 00 00 00 00 00 ................
00408B20 00 00 00 00 00 00 00 00 00 00 00 00 00 00 00 00 ................
00408B30 00 00 00 00 00 00 00 00 00 00 00 00 00 00 00 00 ................
00408B40 00 00 00 00 00 00 00 00 00 00 00 00 00 00 00 00 ................
00408B50 00 00 00 00 00 00 00 00 00 00 00 00 00 00 00 00 ................
00408B60 00 00 00 00 00 00 00 00 00 00 00 00 00 00 00 00 ................
00408B70 00 00 00 00 00 00 00 00 00 00 00 00 00 00 00 00 ................
00408B80 00 00 00 00 00 00 00 00 00 00 00 00 00 00 00 00 ................
00408B90 00 00 00 00 00 00 00 00 00 00 00 00 00 00 00 00 ................
00408BA0 00 00 00 00 00 00 00 00 00 00 00 00 00 00 00 00 ................
00408BB0 00 00 00 00 00 00 00 00 00 00 00 00 00 00 00 00 ................
00408BC0 00 00 00 00 00 00 00 00 00 00 00 00 00 00 00 00 ................
00408BD0 00 00 00 00 00 00 00 00 00 00 00 00 00 00 00 00 ................
00408BE0 00 00 00 00 00 00 00 00 00 00 00 00 00 00 00 00 ................
00408BF0 00 00 00 00 00 00 00 00 00 00 00 00 00 00 00 00 ................
00408C00 00 00 00 00 00 00 00 00 00 00 00 00 00 00 00 00 ................
00408C10 00 00 00 00 00 00 00 00 00 00 00 00 00 00 00 00 ................
00408C20 00 00 00 00 00 00 00 00 00 00 00 00 00 00 00 00 ................
00408C30 00 00 00 00 00 00 00 00 00 00 00 00 00 00 00 00 ................
00408C40 00 00 00 00 00 00 00 00 00 00 00 00 00 00 00 00 ................
00408C50 00 00 00 00 00 00 00 00 00 00 00 00 00 00 00 00 ................
00408C60 00 00 00 00 00 00 00 00 00 00 00 00 00 00 00 00 ................
00408C70 00 00 00 00 00 00 00 00 00 00 00 00 00 00 00 00 ................
00408C80 00 00 00 00 00 00 00 00 00 00 00 00 00 00 00 00 ................
00408C90 00 00 00 00 00 00 00 00 00 00 00 00 00 00 00 00 ................
00408CA0 00 00 00 00 00 00 00 00 00 00 00 00 00 00 00 00 ................
00408CB0 00 00 00 00 00 00 00 00 00 00 00 00 00 00 00 00 ................
00408CC0 00 00 00 00 00 00 00 00 00 00 00 00 00 00 00 00 ................
00408CD0 00 00 00 00 00 00 00 00 00 00 00 00 00 00 00 00 ................
00408CE0 00 00 00 00 00 00 00 00 00 00 00 00 00 00 00 00 ................
00408CF0 00 00 00 00 00 00 00 00 00 00 00 00 00 00 00 00 ................
00408D00 00 00 00 00 00 00 00 00 00 00 00 00 00 00 00 00 ................
00408D10 00 00 00 00 00 00 00 00 00 00 00 00 00 00 00 00 ................
00408D20 00 00 00 00 00 00 00 00 00 00 00 00 00 00 00 00 ................
00408D30 00 00 00 00 00 00 00 00 00 00 00 00 00 00 00 00 ................
00408D40 00 00 00 00 00 00 00 00 00 00 00 00 00 00 00 00 ................
00408D50 00 00 00 00 00 00 00 00 00 00 00 00 00 00 00 00 ................
00408D60 00 00 00 00 00 00 00 00 00 00 00 00 00 00 00 00 ................
00408D70 00 00 00 00 00 00 00 00 00 00 00 00 00 00 00 00 ................
00408D80 00 00 00 00 00 00 00 00 00 00 00 00 00 00 00 00 ................
00408D90 00 00 00 00 00 00 00 00 00 00 00 00 00 00 00 00 ................
00408DA0 00 00 00 00 00 00 00 00 00 00 00 00 00 00 00 00 ................
00408DB0 00 00 00 00 00 00 00 00 00 00 00 00 00 00 00 00 ................
00408DC0 00 00 00 00 00 00 00 00 00 00 00 00 00 00 00 00 ................
00408DD0 00 00 00 00 00 00 00 00 00 00 00 00 00 00 00 00 ................
00408DE0 00 00 00 00 00 00 00 00 00 00 00 00 00 00 00 00 ................
00408DF0 00 00 00 00 00 00 00 00 00 00 00 00 00 00 00 00 ................
00408E00 00 00 00 00 00 00 00 00 00 00 00 00 00 00 00 00 ................
00408E10 00 00 00 00 00 00 00 00 00 00 00 00 00 00 00 00 ................
00408E20 00 00 00 00 00 00 00 00 00 00 00 00 00 00 00 00 ................
00408E30 00 00 00 00 00 00 00 00 00 00 00 00 00 00 00 00 ................
00408E40 00 00 00 00 00 00 00 00 00 00 00 00 00 00 00 00 ................
00408E50 00 00 00 00 00 00 00 00 00 00 00 00 00 00 00 00 ................
00408E60 00 00 00 00 00 00 00 00 00 00 00 00 00 00 00 00 ................
00408E70 00 00 00 00 00 00 00 00 00 00 00 00 00 00 00 00 ................
00408E80 00 00 00 00 00 00 00 00 00 00 00 00 00 00 00 00 ................
00408E90 00 00 00 00 00 00 00 00 00 00 00 00 00 00 00 00 ................
00408EA0 00 00 00 00 00 00 00 00 00 00 00 00 00 00 00 00 ................
00408EB0 00 00 00 00 00 00 00 00 00 00 00 00 00 00 00 00 ................
00408EC0 00 00 00 00 00 00 00 00 00 00 00 00 00 00 00 00 ................
00408ED0 00 00 00 00 00 00 00 00 00 00 00 00 00 00 00 00 ................
00408EE0 00 00 00 00 00 00 00 00 00 00 00 00 00 00 00 00 ................
00408EF0 00 00 00 00 00 00 00 00 00 00 00 00 00 00 00 00 ................
00408F00 00 00 00 00 00 00 00 00 00 00 00 00 00 00 00 00 ................
00408F10 00 00 00 00 00 00 00 00 00 00 00 00 00 00 00 00 ................
00408F20 00 00 00 00 00 00 00 00 00 00 00 00 00 00 00 00 ................
00408F30 00 00 00 00 00 00 00 00 00 00 00 00 00 00 00 00 ................
00408F40 00 00 00 00 00 00 00 00 00 00 00 00 00 00 00 00 ................
00408F50 00 00 00 00 00 00 00 00 00 00 00 00 00 00 00 00 ................
00408F60 00 00 00 00 00 00 00 00 00 00 00 00 00 00 00 00 ................
00408F70 00 00 00 00 00 00 00 00 00 00 00 00 00 00 00 00 ................
00408F80 00 00 00 00 00 00 00 00 00 00 00 00 00 00 00 00 ................
00408F90 00 00 00 00 00 00 00 00 00 00 00 00 00 00 00 00 ................
00408FA0 00 00 00 00 00 00 00 00 00 00 00 00 00 00 00 00 ................
00408FB0 00 00 00 00 00 00 00 00 00 00 00 00 00 00 00 00 ................
00408FC0 00 00 00 00 00 00 00 00 00 00 00 00 00 00 00 00 ................
00408FD0 00 00 00 00 00 00 00 00 00 00 00 00 00 00 00 00 ................
00408FE0 00 00 00 00 00 00 00 00 00 00 00 00 00 00 00 00 ................
00408FF0 00 00 00 00 00 00 00 00 00 00 00 00 00 00 00 00 ................
00409000 00 00 00 00 00 00 00 00 00 00 00 00 00 00 00 00 ................
00409010 00 00 00 00 00 00 00 00 00 00 00 00 00 00 00 00 ................
00409020 00 00 00 00 00 00 00 00 00 00 00 00 00 00 00 00 ................
00409030 00 00 00 00 00 00 00 00 00 00 00 00 00 00 00 00 ................
00409040 00 00 00 00 00 00 00 00 00 00 00 00 00 00 00 00 ................
00409050 00 00 00 00 00 00 00 00 00 00 00 00 00 00 00 00 ................
00409060 00 00 00 00 00 00 00 00 00 00 00 00 00 00 00 00 ................
00409070 00 00 00 00 00 00 00 00 00 00 00 00 00 00 00 00 ................
00409080 00 00 00 00 00 00 00 00 00 00 00 00 00 00 00 00 ................
00409090 00 00 00 00 00 00 00 00 00 00 00 00 00 00 00 00 ................
004090A0 00 00 00 00 00 00 00 00 00 00 00 00 00 00 00 00 ................
004090B0 00 00 00 00 00 00 00 00 00 00 00 00 00 00 00 00 ................
004090C0 00 00 00 00 00 00 00 00 00 00 00 00 00 00 00 00 ................
004090D0 00 00 00 00 00 00 00 00 00 00 00 00 00 00 00 00 ................
004090E0 00 00 00 00 00 00 00 00 00 00 00 00 00 00 00 00 ................
004090F0 00 00 00 00 00 00 00 00 00 00 00 00 00 00 00 00 ................
00409100 00 00 00 00 00 00 00 00 00 00 00 00 00 00 00 00 ................
00409110 00 00 00 00 00 00 00 00 00 00 00 00 00 00 00 00 ................
00409120 00 00 00 00 00 00 00 00 00 00 00 00 00 00 00 00 ................
00409130 00 00 00 00 00 00 00 00 00 00 00 00 00 00 00 00 ................
00409140 00 00 00 00 00 00 00 00 00 00 00 00 00 00 00 00 ................
00409150 00 00 00 00 00 00 00 00 00 00 00 00 00 00 00 00 ................
00409160 00 00 00 00 00 00 00 00 00 00 00 00 00 00 00 00 ................
00409170 00 00 00 00 00 00 00 00 00 00 00 00 00 00 00 00 ................
00409180 00 00 00 00 00 00 00 00 00 00 00 00 00 00 00 00 ................
00409190 00 00 00 00 00 00 00 00 00 00 00 00 00 00 00 00 ................
004091A0 00 00 00 00 00 00 00 00 00 00 00 00 00 00 00 00 ................
004091B0 00 00 00 00 00 00 00 00 00 00 00 00 00 00 00 00 ................
004091C0 00 00 00 00 00 00 00 00 00 00 00 00 00 00 00 00 ................
004091D0 00 00 00 00 00 00 00 00 00 00 00 00 00 00 00 00 ................
004091E0 00 00 00 00 00 00 00 00 00 00 00 00 00 00 00 00 ................
004091F0 00 00 00 00 00 00 00 00 00 00 00 00 00 00 00 00 ................
00409200 00 00 00 00 00 00 00 00 00 00 00 00 00 00 00 00 ................
00409210 00 00 00 00 00 00 00 00 00 00 00 00 00 00 00 00 ................
00409220 00 00 00 00 00 00 00 00 00 00 00 00 00 00 00 00 ................
00409230 00 00 00 00 00 00 00 00 00 00 00 00 00 00 00 00 ................
00409240 00 00 00 00 00 00 00 00 00 00 00 00 00 00 00 00 ................
00409250 00 00 00 00 00 00 00 00 00 00 00 00 00 00 00 00 ................
00409260 00 00 00 00 00 00 00 00 00 00 00 00 00 00 00 00 ................
00409270 00 00 00 00 00 00 00 00 00 00 00 00 00 00 00 00 ................
00409280 00 00 00 00 00 00 00 00 00 00 00 00 00 00 00 00 ................
00409290 00 00 00 00 00 00 00 00 00 00 00 00 00 00 00 00 ................
004092A0 00 00 00 00 00 00 00 00 00 00 00 00 00 00 00 00 ................
004092B0 00 00 00 00 00 00 00 00 00 00 00 00 00 00 00 00 ................
004092C0 00 00 00 00 00 00 00 00 00 00 00 00 00 00 00 00 ................
004092D0 00 00 00 00 00 00 00 00 00 00 00 00 00 00 00 00 ................
004092E0 00 00 00 00 00 00 00 00 00 00 00 00 00 00 00 00 ................
004092F0 00 00 00 00 00 00 00 00 00 00 00 00 00 00 00 00 ................
00409300 00 00 00 00 00 00 00 00 00 00 00 00 00 00 00 00 ................
00409310 00 00 00 00 00 00 00 00 00 00 00 00 00 00 00 00 ................
00409320 00 00 00 00 00 00 00 00 00 00 00 00 00 00 00 00 ................
00409330 00 00 00 00 00 00 00 00 00 00 00 00 00 00 00 00 ................
00409340 00 00 00 00 00 00 00 00 00 00 00 00 00 00 00 00 ................
00409350 00 00 00 00 00 00 00 00 00 00 00 00 00 00 00 00 ................
00409360 00 00 00 00 00 00 00 00 00 00 00 00 00 00 00 00 ................
00409370 00 00 00 00 00 00 00 00 00 00 00 00 00 00 00 00 ................
00409380 00 00 00 00 00 00 00 00 00 00 00 00 00 00 00 00 ................
00409390 00 00 00 00 00 00 00 00 00 00 00 00 00 00 00 00 ................
004093A0 00 00 00 00 00 00 00 00 00 00 00 00 00 00 00 00 ................
004093B0 00 00 00 00 00 00 00 00 00 00 00 00 00 00 00 00 ................
004093C0 00 00 00 00 00 00 00 00 00 00 00 00 00 00 00 00 ................
004093D0 00 00 00 00 00 00 00 00 00 00 00 00 00 00 00 00 ................
004093E0 00 00 00 00 00 00 00 00 00 00 00 00 00 00 00 00 ................
004093F0 00 00 00 00 00 00 00 00 00 00 00 00 00 00 00 00 ................
00409400 00 00 00 00 00 00 00 00 00 00 00 00 00 00 00 00 ................
00409410 00 00 00 00 00 00 00 00 00 00 00 00 00 00 00 00 ................
00409420 00 00 00 00 00 00 00 00 00 00 00 00 00 00 00 00 ................
00409430 00 00 00 00 00 00 00 00 00 00 00 00 00 00 00 00 ................
00409440 00 00 00 00 00 00 00 00 00 00 00 00 00 00 00 00 ................
00409450 00 00 00 00 00 00 00 00 00 00 00 00 00 00 00 00 ................
00409460 00 00 00 00 00 00 00 00 00 00 00 00 00 00 00 00 ................
00409470 00 00 00 00 00 00 00 00 00 00 00 00 00 00 00 00 ................
00409480 00 00 00 00 00 00 00 00 00 00 00 00 00 00 00 00 ................
00409490 00 00 00 00 00 00 00 00 00 00 00 00 00 00 00 00 ................
004094A0 00 00 00 00 00 00 00 00 00 00 00 00 00 00 00 00 ................
004094B0 00 00 00 00 00 00 00 00 00 00 00 00 00 00 00 00 ................
004094C0 00 00 00 00 00 00 00 00 00 00 00 00 00 00 00 00 ................
004094D0 00 00 00 00 00 00 00 00 00 00 00 00 00 00 00 00 ................
004094E0 00 00 00 00 00 00 00 00 00 00 00 00 00 00 00 00 ................
004094F0 00 00 00 00 00 00 00 00 00 00 00 00 00 00 00 00 ................
00409500 00 00 00 00 00 00 00 00 00 00 00 00 00 00 00 00 ................
00409510 00 00 00 00 00 00 00 00 00 00 00 00 00 00 00 00 ................
00409520 00 00 00 00 00 00 00 00 00 00 00 00 00 00 00 00 ................
00409530 00 00 00 00 00 00 00 00 00 00 00 00 00 00 00 00 ................
00409540 00 00 00 00 00 00 00 00 00 00 00 00 00 00 00 00 ................
00409550 00 00 00 00 00 00 00 00 00 00 00 00 00 00 00 00 ................
00409560 00 00 00 00 00 00 00 00 00 00 00 00 00 00 00 00 ................
00409570 00 00 00 00 00 00 00 00 00 00 00 00 00 00 00 00 ................
00409580 00 00 00 00 00 00 00 00 00 00 00 00 00 00 00 00 ................
00409590 00 00 00 00 00 00 00 00 00 00 00 00 00 00 00 00 ................
004095A0 00 00 00 00 00 00 00 00 00 00 00 00 00 00 00 00 ................
004095B0 00 00 00 00 00 00 00 00 00 00 00 00 00 00 00 00 ................
004095C0 00 00 00 00 00 00 00 00 00 00 00 00 00 00 00 00 ................
004095D0 00 00 00 00 00 00 00 00 00 00 00 00 00 00 00 00 ................
004095E0 00 00 00 00 00 00 00 00 00 00 00 00 00 00 00 00 ................
004095F0 00 00 00 00 00 00 00 00 00 00 00 00 00 00 00 00 ................
00409600 00 00 00 00 00 00 00 00 00 00 00 00 00 00 00 00 ................
00409610 00 00 00 00 00 00 00 00 00 00 00 00 00 00 00 00 ................
00409620 00 00 00 00 00 00 00 00 00 00 00 00 00 00 00 00 ................
00409630 00 00 00 00 00 00 00 00 00 00 00 00 00 00 00 00 ................
00409640 00 00 00 00 00 00 00 00 00 00 00 00 00 00 00 00 ................
00409650 00 00 00 00 00 00 00 00 00 00 00 00 00 00 00 00 ................
00409660 00 00 00 00 00 00 00 00 00 00 00 00 00 00 00 00 ................
00409670 00 00 00 00 00 00 00 00 00 00 00 00 00 00 00 00 ................
00409680 00 00 00 00 00 00 00 00 00 00 00 00 00 00 00 00 ................
00409690 00 00 00 00 00 00 00 00 00 00 00 00 00 00 00 00 ................
004096A0 00 00 00 00 00 00 00 00 00 00 00 00 00 00 00 00 ................
004096B0 00 00 00 00 00 00 00 00 00 00 00 00 00 00 00 00 ................
004096C0 00 00 00 00 00 00 00 00 00 00 00 00 00 00 00 00 ................
004096D0 00 00 00 00 00 00 00 00 00 00 00 00 00 00 00 00 ................
004096E0 00 00 00 00 00 00 00 00 00 00 00 00 00 00 00 00 ................
004096F0 00 00 00 00 00 00 00 00 00 00 00 00 00 00 00 00 ................
00409700 00 00 00 00 00 00 00 00 00 00 00 00 00 00 00 00 ................
00409710 00 00 00 00 00 00 00 00 00 00 00 00 00 00 00 00 ................
00409720 00 00 00 00 00 00 00 00 00 00 00 00 00 00 00 00 ................
00409730 00 00 00 00 00 00 00 00 00 00 00 00 00 00 00 00 ................
00409740 00 00 00 00 00 00 00 00 00 00 00 00 00 00 00 00 ................
00409750 00 00 00 00 00 00 00 00 00 00 00 00 00 00 00 00 ................
00409760 00 00 00 00 00 00 00 00 00 00 00 00 00 00 00 00 ................
00409770 00 00 00 00 00 00 00 00 00 00 00 00 00 00 00 00 ................
00409780 00 00 00 00 00 00 00 00 00 00 00 00 00 00 00 00 ................
00409790 00 00 00 00 00 00 00 00 00 00 00 00 00 00 00 00 ................
004097A0 00 00 00 00 00 00 00 00 00 00 00 00 00 00 00 00 ................
004097B0 00 00 00 00 00 00 00 00 00 00 00 00 00 00 00 00 ................
004097C0 00 00 00 00 00 00 00 00 00 00 00 00 00 00 00 00 ................
004097D0 00 00 00 00 00 00 00 00 00 00 00 00 00 00 00 00 ................
004097E0 00 00 00 00 00 00 00 00 00 00 00 00 00 00 00 00 ................
004097F0 00 00 00 00 00 00 00 00 00 00 00 00 00 00 00 00 ................
00409800 00 00 00 00 00 00 00 00 00 00 00 00 00 00 00 00 ................
00409810 00 00 00 00 00 00 00 00 00 00 00 00 00 00 00 00 ................
00409820 00 00 00 00 00 00 00 00 00 00 00 00 00 00 00 00 ................
00409830 00 00 00 00 00 00 00 00 00 00 00 00 00 00 00 00 ................
00409840 00 00 00 00 00 00 00 00 00 00 00 00 00 00 00 00 ................
00409850 00 00 00 00 00 00 00 00 00 00 00 00 00 00 00 00 ................
00409860 00 00 00 00 00 00 00 00 00 00 00 00 00 00 00 00 ................
00409870 00 00 00 00 00 00 00 00 00 00 00 00 00 00 00 00 ................
00409880 00 00 00 00 00 00 00 00 00 00 00 00 00 00 00 00 ................
00409890 00 00 00 00 00 00 00 00 00 00 00 00 00 00 00 00 ................
004098A0 00 00 00 00 00 00 00 00 00 00 00 00 00 00 00 00 ................
004098B0 00 00 00 00 00 00 00 00 00 00 00 00 00 00 00 00 ................
004098C0 00 00 00 00 00 00 00 00 00 00 00 00 00 00 00 00 ................
004098D0 00 00 00 00 00 00 00 00 00 00 00 00 00 00 00 00 ................
004098E0 00 00 00 00 00 00 00 00 00 00 00 00 00 00 00 00 ................
004098F0 00 00 00 00 00 00 00 00 00 00 00 00 00 00 00 00 ................
00409900 00 00 00 00 00 00 00 00 00 00 00 00 00 00 00 00 ................
00409910 00 00 00 00 00 00 00 00 00 00 00 00 00 00 00 00 ................
00409920 00 00 00 00 00 00 00 00 00 00 00 00 00 00 00 00 ................
00409930 00 00 00 00 00 00 00 00 00 00 00 00 00 00 00 00 ................
00409940 00 00 00 00 00 00 00 00 00 00 00 00 00 00 00 00 ................
00409950 00 00 00 00 00 00 00 00 00 00 00 00 00 00 00 00 ................
00409960 00 00 00 00 00 00 00 00 00 00 00 00 00 00 00 00 ................
00409970 00 00 00 00 00 00 00 00 00 00 00 00 00 00 00 00 ................
00409980 00 00 00 00 00 00 00 00 00 00 00 00 00 00 00 00 ................
00409990 00 00 00 00 00 00 00 00 00 00 00 00 00 00 00 00 ................
004099A0 00 00 00 00 00 00 00 00 00 00 00 00 00 00 00 00 ................
004099B0 00 00 00 00 00 00 00 00 00 00 00 00 00 00 00 00 ................
004099C0 00 00 00 00 00 00 00 00 00 00 00 00 00 00 00 00 ................
004099D0 00 00 00 00 00 00 00 00 00 00 00 00 00 00 00 00 ................
004099E0 00 00 00 00 00 00 00 00 00 00 00 00 00 00 00 00 ................
004099F0 00 00 00 00 00 00 00 00 00 00 00 00 00 00 00 00 ................
00409A00 00 00 00 00 00 00 00 00 00 00 00 00 00 00 00 00 ................
00409A10 00 00 00 00 00 00 00 00 00 00 00 00 00 00 00 00 ................
00409A20 00 00 00 00 00 00 00 00 00 00 00 00 00 00 00 00 ................
00409A30 00 00 00 00 00 00 00 00 00 00 00 00 00 00 00 00 ................
00409A40 00 00 00 00 00 00 00 00 00 00 00 00 00 00 00 00 ................
00409A50 00 00 00 00 00 00 00 00 00 00 00 00 00 00 00 00 ................
00409A60 00 00 00 00 00 00 00 00 00 00 00 00 00 00 00 00 ................
00409A70 00 00 00 00 00 00 00 00 00 00 00 00 00 00 00 00 ................
00409A80 00 00 00 00 00 00 00 00 00 00 00 00 00 00 00 00 ................
00409A90 00 00 00 00 00 00 00 00 00 00 00 00 00 00 00 00 ................
00409AA0 00 00 00 00 00 00 00 00 00 00 00 00 00 00 00 00 ................
00409AB0 00 00 00 00 00 00 00 00 00 00 00 00 00 00 00 00 ................
00409AC0 00 00 00 00 00 00 00 00 00 00 00 00 00 00 00 00 ................
00409AD0 00 00 00 00 00 00 00 00 00 00 00 00 00 00 00 00 ................
00409AE0 00 00 00 00 00 00 00 00 00 00 00 00 00 00 00 00 ................
00409AF0 00 00 00 00 00 00 00 00 00 00 00 00 00 00 00 00 ................
00409B00 00 00 00 00 00 00 00 00 00 00 00 00 00 00 00 00 ................
00409B10 00 00 00 00 00 00 00 00 00 00 00 00 00 00 00 00 ................
00409B20 00 00 00 00 00 00 00 00 00 00 00 00 00 00 00 00 ................
00409B30 00 00 00 00 00 00 00 00 00 00 00 00 00 00 00 00 ................
00409B40 00 00 00 00 00 00 00 00 00 00 00 00 00 00 00 00 ................
00409B50 00 00 00 00 00 00 00 00 00 00 00 00 00 00 00 00 ................
00409B60 00 00 00 00 00 00 00 00 00 00 00 00 00 00 00 00 ................
00409B70 00 00 00 00 00 00 00 00 00 00 00 00 00 00 00 00 ................
00409B80 00 00 00 00 00 00 00 00 00 00 00 00 00 00 00 00 ................
00409B90 00 00 00 00 00 00 00 00 00 00 00 00 00 00 00 00 ................
00409BA0 00 00 00 00 00 00 00 00 00 00 00 00 00 00 00 00 ................
00409BB0 00 00 00 00 00 00 00 00 00 00 00 00 00 00 00 00 ................
00409BC0 00 00 00 00 00 00 00 00 00 00 00 00 00 00 00 00 ................
00409BD0 00 00 00 00 00 00 00 00 00 00 00 00 00 00 00 00 ................
00409BE0 00 00 00 00 00 00 00 00 00 00 00 00 00 00 00 00 ................
00409BF0 00 00 00 00 00 00 00 00 00 00 00 00 00 00 00 00 ................
00409C00 00 00 00 00 00 00 00 00 00 00 00 00 00 00 00 00 ................
00409C10 00 00 00 00 00 00 00 00 00 00 00 00 00 00 00 00 ................
00409C20 00 00 00 00 00 00 00 00 00 00 00 00 00 00 00 00 ................
00409C30 00 00 00 00 00 00 00 00 00 00 00 00 00 00 00 00 ................
00409C40 00 00 00 00 00 00 00 00 00 00 00 00 00 00 00 00 ................
00409C50 00 00 00 00 00 00 00 00 00 00 00 00 00 00 00 00 ................
00409C60 00 00 00 00 00 00 00 00 00 00 00 00 00 00 00 00 ................
00409C70 00 00 00 00 00 00 00 00 00 00 00 00 00 00 00 00 ................
00409C80 00 00 00 00 00 00 00 00 00 00 00 00 00 00 00 00 ................
00409C90 00 00 00 00 00 00 00 00 00 00 00 00 00 00 00 00 ................
00409CA0 00 00 00 00 00 00 00 00 00 00 00 00 00 00 00 00 ................
00409CB0 00 00 00 00 00 00 00 00 00 00 00 00 00 00 00 00 ................
00409CC0 00 00 00 00 00 00 00 00 00 00 00 00 00 00 00 00 ................
00409CD0 00 00 00 00 00 00 00 00 00 00 00 00 00 00 00 00 ................
00409CE0 00 00 00 00 00 00 00 00 00 00 00 00 00 00 00 00 ................
00409CF0 00 00 00 00 00 00 00 00 00 00 00 00 00 00 00 00 ................
00409D00 00 00 00 00 00 00 00 00 00 00 00 00 00 00 00 00 ................
00409D10 00 00 00 00 00 00 00 00 00 00 00 00 00 00 00 00 ................
00409D20 00 00 00 00 00 00 00 00 00 00 00 00 00 00 00 00 ................
00409D30 00 00 00 00 00 00 00 00 00 00 00 00 00 00 00 00 ................
00409D40 00 00 00 00 00 00 00 00 00 00 00 00 00 00 00 00 ................
00409D50 00 00 00 00 00 00 00 00 00 00 00 00 00 00 00 00 ................
00409D60 00 00 00 00 00 00 00 00 00 00 00 00 00 00 00 00 ................
00409D70 00 00 00 00 00 00 00 00 00 00 00 00 00 00 00 00 ................
00409D80 00 00 00 00 00 00 00 00 00 00 00 00 00 00 00 00 ................
00409D90 00 00 00 00 00 00 00 00 00 00 00 00 00 00 00 00 ................
00409DA0 00 00 00 00 00 00 00 00 00 00 00 00 00 00 00 00 ................
00409DB0 00 00 00 00 00 00 00 00 00 00 00 00 00 00 00 00 ................
00409DC0 00 00 00 00 00 00 00 00 00 00 00 00 00 00 00 00 ................
00409DD0 00 00 00 00 00 00 00 00 00 00 00 00 00 00 00 00 ................
00409DE0 00 00 00 00 00 00 00 00 00 00 00 00 00 00 00 00 ................
00409DF0 00 00 00 00 00 00 00 00 00 00 00 00 00 00 00 00 ................
00409E00 00 00 00 00 00 00 00 00 00 00 00 00 00 00 00 00 ................
00409E10 00 00 00 00 00 00 00 00 00 00 00 00 00 00 00 00 ................
00409E20 00 00 00 00 00 00 00 00 00 00 00 00 00 00 00 00 ................
00409E30 00 00 00 00 00 00 00 00 00 00 00 00 00 00 00 00 ................
00409E40 00 00 00 00 00 00 00 00 00 00 00 00 00 00 00 00 ................
00409E50 00 00 00 00 00 00 00 00 00 00 00 00 00 00 00 00 ................
00409E60 00 00 00 00 00 00 00 00 00 00 00 00 00 00 00 00 ................
00409E70 00 00 00 00 00 00 00 00 00 00 00 00 00 00 00 00 ................
00409E80 00 00 00 00 00 00 00 00 00 00 00 00 00 00 00 00 ................
00409E90 00 00 00 00 00 00 00 00 00 00 00 00 00 00 00 00 ................
00409EA0 00 00 00 00 00 00 00 00 00 00 00 00 00 00 00 00 ................
00409EB0 00 00 00 00 00 00 00 00 00 00 00 00 00 00 00 00 ................
00409EC0 00 00 00 00 00 00 00 00 00 00 00 00 00 00 00 00 ................
00409ED0 00 00 00 00 00 00 00 00 00 00 00 00 00 00 00 00 ................
00409EE0 00 00 00 00 00 00 00 00 00 00 00 00 00 00 00 00 ................
00409EF0 00 00 00 00 00 00 00 00 00 00 00 00 00 00 00 00 ................
00409F00 00 00 00 00 00 00 00 00 00 00 00 00 00 00 00 00 ................
00409F10 00 00 00 00 00 00 00 00 00 00 00 00 00 00 00 00 ................
00409F20 00 00 00 00 00 00 00 00 00 00 00 00 00 00 00 00 ................
00409F30 00 00 00 00 00 00 00 00 00 00 00 00 00 00 00 00 ................
00409F40 00 00 00 00 00 00 00 00 00 00 00 00 00 00 00 00 ................
00409F50 00 00 00 00 00 00 00 00 00 00 00 00 00 00 00 00 ................
00409F60 00 00 00 00 00 00 00 00 00 00 00 00 00 00 00 00 ................
00409F70 00 00 00 00 00 00 00 00 00 00 00 00 00 00 00 00 ................
00409F80 00 00 00 00 00 00 00 00 00 00 00 00 00 00 00 00 ................
00409F90 00 00 00 00 00 00 00 00 00 00 00 00 00 00 00 00 ................
00409FA0 00 00 00 00 00 00 00 00 00 00 00 00 00 00 00 00 ................
00409FB0 00 00 00 00 00 00 00 00 00 00 00 00 00 00 00 00 ................
00409FC0 00 00 00 00 00 00 00 00 00 00 00 00 00 00 00 00 ................
00409FD0 00 00 00 00 00 00 00 00 00 00 00 00 00 00 00 00 ................
00409FE0 00 00 00 00 00 00 00 00 00 00 00 00 00 00 00 00 ................
00409FF0 00 00 00 00 00 00 00 00 00 00 00 00 00 00 00 00 ................
0040A000 00 00 00 00 00 00 00 00 00 00 00 00 00 00 00 00 ................
0040A010 00 00 00 00 00 00 00 00 00 00 00 00 00 00 00 00 ................
0040A020 00 00 00 00 00 00 00 00 00 00 00 00 00 00 00 00 ................
0040A030 00 00 00 00 00 00 00 00 00 00 00 00 00 00 00 00 ................
0040A040 00 00 00 00 00 00 00 00 00 00 00 00 00 00 00 00 ................
0040A050 00 00 00 00 00 00 00 00 00 00 00 00 00 00 00 00 ................
0040A060 00 00 00 00 00 00 00 00 00 00 00 00 00 00 00 00 ................
0040A070 00 00 00 00 00 00 00 00 00 00 00 00 00 00 00 00 ................
0040A080 00 00 00 00 00 00 00 00 00 00 00 00 00 00 00 00 ................
0040A090 00 00 00 00 00 00 00 00 00 00 00 00 00 00 00 00 ................
0040A0A0 00 00 00 00 00 00 00 00 00 00 00 00 00 00 00 00 ................
0040A0B0 00 00 00 00 00 00 00 00 00 00 00 00 00 00 00 00 ................
0040A0C0 00 00 00 00 00 00 00 00 00 00 00 00 00 00 00 00 ................
0040A0D0 00 00 00 00 00 00 00 00 00 00 00 00 00 00 00 00 ................
0040A0E0 00 00 00 00 00 00 00 00 00 00 00 00 00 00 00 00 ................
0040A0F0 00 00 00 00 00 00 00 00 00 00 00 00 00 00 00 00 ................
0040A100 00 00 00 00 00 00 00 00 00 00 00 00 00 00 00 00 ................
0040A110 00 00 00 00 00 00 00 00 00 00 00 00 00 00 00 00 ................
0040A120 00 00 00 00 00 00 00 00 00 00 00 00 00 00 00 00 ................
0040A130 00 00 00 00 00 00 00 00 00 00 00 00 00 00 00 00 ................
0040A140 00 00 00 00 00 00 00 00 00 00 00 00 00 00 00 00 ................
0040A150 00 00 00 00 00 00 00 00 00 00 00 00 00 00 00 00 ................
0040A160 00 00 00 00 00 00 00 00 00 00 00 00 00 00 00 00 ................
0040A170 00 00 00 00 00 00 00 00 00 00 00 00 00 00 00 00 ................
0040A180 00 00 00 00 00 00 00 00 00 00 00 00 00 00 00 00 ................
0040A190 00 00 00 00 00 00 00 00 00 00 00 00 00 00 00 00 ................
0040A1A0 00 00 00 00 00 00 00 00 00 00 00 00 00 00 00 00 ................
0040A1B0 00 00 00 00 00 00 00 00 00 00 00 00 00 00 00 00 ................
0040A1C0 00 00 00 00 00 00 00 00 00 00 00 00 00 00 00 00 ................
0040A1D0 00 00 00 00 00 00 00 00 00 00 00 00 00 00 00 00 ................
0040A1E0 00 00 00 00 00 00 00 00 00 00 00 00 00 00 00 00 ................
0040A1F0 00 00 00 00 00 00 00 00 00 00 00 00 00 00 00 00 ................
0040A200 00 00 00 00 00 00 00 00 00 00 00 00 00 00 00 00 ................
0040A210 00 00 00 00 00 00 00 00 00 00 00 00 00 00 00 00 ................
0040A220 00 00 00 00 00 00 00 00 00 00 00 00 00 00 00 00 ................
0040A230 00 00 00 00 00 00 00 00 00 00 00 00 00 00 00 00 ................
0040A240 00 00 00 00 00 00 00 00 00 00 00 00 00 00 00 00 ................
0040A250 00 00 00 00 00 00 00 00 00 00 00 00 00 00 00 00 ................
0040A260 00 00 00 00 00 00 00 00 00 00 00 00 00 00 00 00 ................
0040A270 00 00 00 00 00 00 00 00 00 00 00 00 00 00 00 00 ................
0040A280 00 00 00 00 00 00 00 00 00 00 00 00 00 00 00 00 ................
0040A290 00 00 00 00 00 00 00 00 00 00 00 00 00 00 00 00 ................
0040A2A0 00 00 00 00 00 00 00 00 00 00 00 00 00 00 00 00 ................
0040A2B0 00 00 00 00 00 00 00 00 00 00 00 00 00 00 00 00 ................
0040A2C0 00 00 00 00 00 00 00 00 00 00 00 00 00 00 00 00 ................
0040A2D0 00 00 00 00 00 00 00 00 00 00 00 00 00 00 00 00 ................
0040A2E0 00 00 00 00 00 00 00 00 00 00 00 00 00 00 00 00 ................
0040A2F0 00 00 00 00 00 00 00 00 00 00 00 00 00 00 00 00 ................
0040A300 00 00 00 00 00 00 00 00 00 00 00 00 00 00 00 00 ................
0040A310 00 00 00 00 00 00 00 00 00 00 00 00 00 00 00 00 ................
0040A320 00 00 00 00 00 00 00 00 00 00 00 00 00 00 00 00 ................
0040A330 00 00 00 00 00 00 00 00 00 00 00 00 00 00 00 00 ................
0040A340 00 00 00 00 00 00 00 00 00 00 00 00 00 00 00 00 ................
0040A350 00 00 00 00 00 00 00 00 00 00 00 00 00 00 00 00 ................
0040A360 00 00 00 00 00 00 00 00 00 00 00 00 00 00 00 00 ................
0040A370 00 00 00 00 00 00 00 00 00 00 00 00 00 00 00 00 ................
0040A380 00 00 00 00 00 00 00 00 00 00 00 00 00 00 00 00 ................
0040A390 00 00 00 00 00 00 00 00 00 00 00 00 00 00 00 00 ................
0040A3A0 00 00 00 00 00 00 00 00 00 00 00 00 00 00 00 00 ................
0040A3B0 00 00 00 00 00 00 00 00 00 00 00 00 00 00 00 00 ................
0040A3C0 00 00 00 00 00 00 00 00 00 00 00 00 00 00 00 00 ................
0040A3D0 00 00 00 00 00 00 00 00 00 00 00 00 00 00 00 00 ................
0040A3E0 00 00 00 00 00 00 00 00 00 00 00 00 00 00 00 00 ................
0040A3F0 00 00 00 00 00 00 00 00 00 00 00 00 00 00 00 00 ................
0040A400 00 00 00 00 00 00 00 00 00 00 00 00 00 00 00 00 ................
0040A410 00 00 00 00 00 00 00 00 00 00 00 00 00 00 00 00 ................
0040A420 00 00 00 00 00 00 00 00 00 00 00 00 00 00 00 00 ................
0040A430 00 00 00 00 00 00 00 00 00 00 00 00 00 00 00 00 ................
0040A440 00 00 00 00 00 00 00 00 00 00 00 00 00 00 00 00 ................
0040A450 00 00 00 00 00 00 00 00 00 00 00 00 00 00 00 00 ................
0040A460 00 00 00 00 00 00 00 00 00 00 00 00 00 00 00 00 ................
0040A470 00 00 00 00 00 00 00 00 00 00 00 00 00 00 00 00 ................
0040A480 00 00 00 00 00 00 00 00 00 00 00 00 00 00 00 00 ................
0040A490 00 00 00 00 00 00 00 00 00 00 00 00 00 00 00 00 ................
0040A4A0 00 00 00 00 00 00 00 00 00 00 00 00 00 00 00 00 ................
0040A4B0 00 00 00 00 00 00 00 00 00 00 00 00 00 00 00 00 ................
0040A4C0 00 00 00 00 00 00 00 00 00 00 00 00 00 00 00 00 ................
0040A4D0 00 00 00 00 00 00 00 00 00 00 00 00 00 00 00 00 ................
0040A4E0 00 00 00 00 00 00 00 00 00 00 00 00 00 00 00 00 ................
0040A4F0 00 00 00 00 00 00 00 00 00 00 00 00 00 00 00 00 ................
0040A500 00 00 00 00 00 00 00 00 00 00 00 00 00 00 00 00 ................
0040A510 00 00 00 00 00 00 00 00 00 00 00 00 00 00 00 00 ................
0040A520 00 00 00 00 00 00 00 00 00 00 00 00 00 00 00 00 ................
0040A530 00 00 00 00 00 00 00 00 00 00 00 00 00 00 00 00 ................
0040A540 00 00 00 00 00 00 00 00 00 00 00 00 00 00 00 00 ................
0040A550 00 00 00 00 00 00 00 00 00 00 00 00 00 00 00 00 ................
0040A560 00 00 00 00 00 00 00 00 00 00 00 00 00 00 00 00 ................
0040A570 00 00 00 00 00 00 00 00 00 00 00 00 00 00 00 00 ................
0040A580 00 00 00 00 00 00 00 00 00 00 00 00 00 00 00 00 ................
0040A590 00 00 00 00 00 00 00 00 00 00 00 00 00 00 00 00 ................
0040A5A0 00 00 00 00 00 00 00 00 00 00 00 00 00 00 00 00 ................
0040A5B0 00 00 00 00 00 00 00 00 00 00 00 00 00 00 00 00 ................
0040A5C0 00 00 00 00 00 00 00 00 00 00 00 00 00 00 00 00 ................
0040A5D0 00 00 00 00 00 00 00 00 00 00 00 00 00 00 00 00 ................
0040A5E0 00 00 00 00 00 00 00 00 00 00 00 00 00 00 00 00 ................
0040A5F0 00 00 00 00 00 00 00 00 00 00 00 00 00 00 00 00 ................
0040A600 00 00 00 00 00 00 00 00 00 00 00 00 00 00 00 00 ................
0040A610 00 00 00 00 00 00 00 00 00 00 00 00 00 00 00 00 ................
0040A620 00 00 00 00 00 00 00 00 00 00 00 00 00 00 00 00 ................
0040A630 00 00 00 00 00 00 00 00 00 00 00 00 00 00 00 00 ................
0040A640 00 00 00 00 00 00 00 00 00 00 00 00 00 00 00 00 ................
0040A650 00 00 00 00 00 00 00 00 00 00 00 00 00 00 00 00 ................
0040A660 00 00 00 00 00 00 00 00 00 00 00 00 00 00 00 00 ................
0040A670 00 00 00 00 00 00 00 00 00 00 00 00 00 00 00 00 ................
0040A680 00 00 00 00 00 00 00 00 00 00 00 00 00 00 00 00 ................
0040A690 00 00 00 00 00 00 00 00 00 00 00 00 00 00 00 00 ................
0040A6A0 00 00 00 00 00 00 00 00 00 00 00 00 00 00 00 00 ................
0040A6B0 00 00 00 00 00 00 00 00 00 00 00 00 00 00 00 00 ................
0040A6C0 00 00 00 00 00 00 00 00 00 00 00 00 00 00 00 00 ................
0040A6D0 00 00 00 00 00 00 00 00 00 00 00 00 00 00 00 00 ................
0040A6E0 00 00 00 00 00 00 00 00 00 00 00 00 00 00 00 00 ................
0040A6F0 00 00 00 00 00 00 00 00 00 00 00 00 00 00 00 00 ................
0040A700 00 00 00 00 00 00 00 00 00 00 00 00 00 00 00 00 ................
0040A710 00 00 00 00 00 00 00 00 00 00 00 00 00 00 00 00 ................
0040A720 00 00 00 00 00 00 00 00 00 00 00 00 00 00 00 00 ................
0040A730 00 00 00 00 00 00 00 00 00 00 00 00 00 00 00 00 ................
0040A740 00 00 00 00 00 00 00 00 00 00 00 00 00 00 00 00 ................
0040A750 00 00 00 00 00 00 00 00 00 00 00 00 00 00 00 00 ................
0040A760 00 00 00 00 00 00 00 00 00 00 00 00 00 00 00 00 ................
0040A770 00 00 00 00 00 00 00 00 00 00 00 00 00 00 00 00 ................
0040A780 00 00 00 00 00 00 00 00 00 00 00 00 00 00 00 00 ................
0040A790 00 00 00 00 00 00 00 00 00 00 00 00 00 00 00 00 ................
0040A7A0 00 00 00 00 00 00 00 00 00 00 00 00 00 00 00 00 ................
0040A7B0 00 00 00 00 00 00 00 00 00 00 00 00 00 00 00 00 ................
0040A7C0 00 00 00 00 00 00 00 00 00 00 00 00 00 00 00 00 ................
0040A7D0 00 00 00 00 00 00 00 00 00 00 00 00 00 00 00 00 ................
0040A7E0 00 00 00 00 00 00 00 00 00 00 00 00 00 00 00 00 ................
0040A7F0 00 00 00 00 00 00 00 00 00 00 00 00 00 00 00 00 ................
0040A800 00 00 00 00 00 00 00 00 00 00 00 00 00 00 00 00 ................
0040A810 00 00 00 00 00 00 00 00 00 00 00 00 00 00 00 00 ................
0040A820 00 00 00 00 00 00 00 00 00 00 00 00 00 00 00 00 ................
0040A830 00 00 00 00 00 00 00 00 00 00 00 00 00 00 00 00 ................
0040A840 00 00 00 00 00 00 00 00 00 00 00 00 00 00 00 00 ................
0040A850 00 00 00 00 00 00 00 00 00 00 00 00 00 00 00 00 ................
0040A860 00 00 00 00 00 00 00 00 00 00 00 00 00 00 00 00 ................
0040A870 00 00 00 00 00 00 00 00 00 00 00 00 00 00 00 00 ................
0040A880 00 00 00 00 00 00 00 00 00 00 00 00 00 00 00 00 ................
0040A890 00 00 00 00 00 00 00 00 00 00 00 00 00 00 00 00 ................
0040A8A0 00 00 00 00 00 00 00 00 00 00 00 00 00 00 00 00 ................
0040A8B0 00 00 00 00 00 00 00 00 00 00 00 00 00 00 00 00 ................
0040A8C0 00 00 00 00 00 00 00 00 00 00 00 00 00 00 00 00 ................
0040A8D0 00 00 00 00 00 00 00 00 00 00 00 00 00 00 00 00 ................
0040A8E0 00 00 00 00 00 00 00 00 00 00 00 00 00 00 00 00 ................
0040A8F0 00 00 00 00 00 00 00 00 00 00 00 00 00 00 00 00 ................
0040A900 00 00 00 00 00 00 00 00 00 00 00 00 00 00 00 00 ................
0040A910 00 00 00 00 00 00 00 00 00 00 00 00 00 00 00 00 ................
0040A920 00 00 00 00 00 00 00 00 00 00 00 00 00 00 00 00 ................
0040A930 00 00 00 00 00 00 00 00 00 00 00 00 00 00 00 00 ................
0040A940 00 00 00 00 00 00 00 00 00 00 00 00 00 00 00 00 ................
0040A950 00 00 00 00 00 00 00 00 00 00 00 00 00 00 00 00 ................
0040A960 00 00 00 00 00 00 00 00 00 00 00 00 00 00 00 00 ................
0040A970 00 00 00 00 00 00 00 00 00 00 00 00 00 00 00 00 ................
0040A980 00 00 00 00 00 00 00 00 00 00 00 00 00 00 00 00 ................
0040A990 00 00 00 00 00 00 00 00 00 00 00 00 00 00 00 00 ................
0040A9A0 00 00 00 00 00 00 00 00 00 00 00 00 00 00 00 00 ................
0040A9B0 00 00 00 00 00 00 00 00 00 00 00 00 00 00 00 00 ................
0040A9C0 00 00 00 00 00 00 00 00 00 00 00 00 00 00 00 00 ................
0040A9D0 00 00 00 00 00 00 00 00 00 00 00 00 00 00 00 00 ................
0040A9E0 00 00 00 00 00 00 00 00 00 00 00 00 00 00 00 00 ................
0040A9F0 00 00 00 00 00 00 00 00 00 00 00 00 00 00 00 00 ................
0040AA00 00 00 00 00 00 00 00 00 00 00 00 00 00 00 00 00 ................
0040AA10 00 00 00 00 00 00 00 00 00 00 00 00 00 00 00 00 ................
0040AA20 00 00 00 00 00 00 00 00 00 00 00 00 00 00 00 00 ................
0040AA30 00 00 00 00 00 00 00 00 00 00 00 00 00 00 00 00 ................
0040AA40 00 00 00 00 00 00 00 00 00 00 00 00 00 00 00 00 ................
0040AA50 00 00 00 00 00 00 00 00 00 00 00 00 00 00 00 00 ................
0040AA60 00 00 00 00 00 00 00 00 00 00 00 00 00 00 00 00 ................
0040AA70 00 00 00 00 00 00 00 00 00 00 00 00 00 00 00 00 ................
0040AA80 00 00 00 00 00 00 00 00 00 00 00 00 00 00 00 00 ................
0040AA90 00 00 00 00 00 00 00 00 00 00 00 00 00 00 00 00 ................
0040AAA0 00 00 00 00 00 00 00 00 00 00 00 00 00 00 00 00 ................
0040AAB0 00 00 00 00 00 00 00 00 00 00 00 00 00 00 00 00 ................
0040AAC0 00 00 00 00 00 00 00 00 00 00 00 00 00 00 00 00 ................
0040AAD0 00 00 00 00 00 00 00 00 00 00 00 00 00 00 00 00 ................
0040AAE0 00 00 00 00 00 00 00 00 00 00 00 00 00 00 00 00 ................
0040AAF0 00 00 00 00 00 00 00 00 00 00 00 00 00 00 00 00 ................
0040AB00 00 00 00 00 00 00 00 00 00 00 00 00 00 00 00 00 ................
0040AB10 00 00 00 00 00 00 00 00 00 00 00 00 00 00 00 00 ................
0040AB20 00 00 00 00 00 00 00 00 00 00 00 00 00 00 00 00 ................
0040AB30 00 00 00 00 00 00 00 00 00 00 00 00 00 00 00 00 ................
0040AB40 00 00 00 00 00 00 00 00 00 00 00 00 00 00 00 00 ................
0040AB50 00 00 00 00 00 00 00 00 00 00 00 00 00 00 00 00 ................
0040AB60 00 00 00 00 00 00 00 00 00 00 00 00 00 00 00 00 ................
0040AB70 00 00 00 00 00 00 00 00 00 00 00 00 00 00 00 00 ................
0040AB80 00 00 00 00 00 00 00 00 00 00 00 00 00 00 00 00 ................
0040AB90 00 00 00 00 00 00 00 00 00 00 00 00 00 00 00 00 ................
0040ABA0 00 00 00 00 00 00 00 00 00 00 00 00 00 00 00 00 ................
0040ABB0 00 00 00 00 00 00 00 00 00 00 00 00 00 00 00 00 ................
0040ABC0 00 00 00 00 00 00 00 00 00 00 00 00 00 00 00 00 ................
0040ABD0 00 00 00 00 00 00 00 00 00 00 00 00 00 00 00 00 ................
0040ABE0 00 00 00 00 00 00 00 00 00 00 00 00 00 00 00 00 ................
0040ABF0 00 00 00 00 00 00 00 00 00 00 00 00 00 00 00 00 ................
0040AC00 00 00 00 00 00 00 00 00 00 00 00 00 00 00 00 00 ................
0040AC10 00 00 00 00 00 00 00 00 00 00 00 00 00 00 00 00 ................
0040AC20 00 00 00 00 00 00 00 00 00 00 00 00 00 00 00 00 ................
0040AC30 00 00 00 00 00 00 00 00 00 00 00 00 00 00 00 00 ................
0040AC40 00 00 00 00 00 00 00 00 00 00 00 00 00 00 00 00 ................
0040AC50 00 00 00 00 00 00 00 00 00 00 00 00 00 00 00 00 ................
0040AC60 00 00 00 00 00 00 00 00 00 00 00 00 00 00 00 00 ................
0040AC70 00 00 00 00 00 00 00 00 00 00 00 00 00 00 00 00 ................
0040AC80 00 00 00 00 00 00 00 00 00 00 00 00 00 00 00 00 ................
0040AC90 00 00 00 00 00 00 00 00 00 00 00 00 00 00 00 00 ................
0040ACA0 00 00 00 00 00 00 00 00 00 00 00 00 00 00 00 00 ................
0040ACB0 00 00 00 00 00 00 00 00 00 00 00 00 00 00 00 00 ................
0040ACC0 00 00 00 00 00 00 00 00 00 00 00 00 00 00 00 00 ................
0040ACD0 00 00 00 00 00 00 00 00 00 00 00 00 00 00 00 00 ................
0040ACE0 00 00 00 00 00 00 00 00 00 00 00 00 00 00 00 00 ................
0040ACF0 00 00 00 00 00 00 00 00 00 00 00 00 00 00 00 00 ................
0040AD00 00 00 00 00 00 00 00 00 00 00 00 00 00 00 00 00 ................
0040AD10 00 00 00 00 00 00 00 00 00 00 00 00 00 00 00 00 ................
0040AD20 00 00 00 00 00 00 00 00 00 00 00 00 00 00 00 00 ................
0040AD30 00 00 00 00 00 00 00 00 00 00 00 00 00 00 00 00 ................
0040AD40 00 00 00 00 00 00 00 00 00 00 00 00 00 00 00 00 ................
0040AD50 00 00 00 00 00 00 00 00 00 00 00 00 00 00 00 00 ................
0040AD60 00 00 00 00 00 00 00 00 00 00 00 00 00 00 00 00 ................
0040AD70 00 00 00 00 00 00 00 00 00 00 00 00 00 00 00 00 ................
0040AD80 00 00 00 00 00 00 00 00 00 00 00 00 00 00 00 00 ................
0040AD90 00 00 00 00 00 00 00 00 00 00 00 00 00 00 00 00 ................
0040ADA0 00 00 00 00 00 00 00 00 00 00 00 00 00 00 00 00 ................
0040ADB0 00 00 00 00 00 00 00 00 00 00 00 00 00 00 00 00 ................
0040ADC0 00 00 00 00 00 00 00 00 00 00 00 00 00 00 00 00 ................
0040ADD0 00 00 00 00 00 00 00 00 00 00 00 00 00 00 00 00 ................
0040ADE0 00 00 00 00 00 00 00 00 00 00 00 00 00 00 00 00 ................
0040ADF0 00 00 00 00 00 00 00 00 00 00 00 00 00 00 00 00 ................
0040AE00 00 00 00 00 00 00 00 00 00 00 00 00 00 00 00 00 ................
0040AE10 00 00 00 00 00 00 00 00 00 00 00 00 00 00 00 00 ................
0040AE20 00 00 00 00 00 00 00 00 00 00 00 00 00 00 00 00 ................
0040AE30 00 00 00 00 00 00 00 00 00 00 00 00 00 00 00 00 ................
0040AE40 00 00 00 00 00 00 00 00 00 00 00 00 00 00 00 00 ................
0040AE50 00 00 00 00 00 00 00 00 00 00 00 00 00 00 00 00 ................
0040AE60 00 00 00 00 00 00 00 00 00 00 00 00 00 00 00 00 ................
0040AE70 00 00 00 00 00 00 00 00 00 00 00 00 00 00 00 00 ................
0040AE80 00 00 00 00 00 00 00 00 00 00 00 00 00 00 00 00 ................
0040AE90 00 00 00 00 00 00 00 00 00 00 00 00 00 00 00 00 ................
0040AEA0 00 00 00 00 00 00 00 00 00 00 00 00 00 00 00 00 ................
0040AEB0 00 00 00 00 00 00 00 00 00 00 00 00 00 00 00 00 ................
0040AEC0 00 00 00 00 00 00 00 00 00 00 00 00 00 00 00 00 ................
0040AED0 00 00 00 00 00 00 00 00 00 00 00 00 00 00 00 00 ................
0040AEE0 00 00 00 00 00 00 00 00 00 00 00 00 00 00 00 00 ................
0040AEF0 00 00 00 00 00 00 00 00 00 00 00 00 00 00 00 00 ................
0040AF00 00 00 00 00 00 00 00 00 00 00 00 00 00 00 00 00 ................
0040AF10 00 00 00 00 00 00 00 00 00 00 00 00 00 00 00 00 ................
0040AF20 00 00 00 00 00 00 00 00 00 00 00 00 00 00 00 00 ................
0040AF30 00 00 00 00 00 00 00 00 00 00 00 00 00 00 00 00 ................
0040AF40 00 00 00 00 00 00 00 00 00 00 00 00 00 00 00 00 ................
0040AF50 00 00 00 00 00 00 00 00 00 00 00 00 00 00 00 00 ................
0040AF60 00 00 00 00 00 00 00 00 00 00 00 00 00 00 00 00 ................
0040AF70 00 00 00 00 00 00 00 00 00 00 00 00 00 00 00 00 ................
0040AF80 00 00 00 00 00 00 00 00 00 00 00 00 00 00 00 00 ................
0040AF90 00 00 00 00 00 00 00 00 00 00 00 00 00 00 00 00 ................
0040AFA0 00 00 00 00 00 00 00 00 00 00 00 00 00 00 00 00 ................
0040AFB0 00 00 00 00 00 00 00 00 00 00 00 00 00 00 00 00 ................
0040AFC0 00 00 00 00 00 00 00 00 00 00 00 00 00 00 00 00 ................
0040AFD0 00 00 00 00 00 00 00 00 00 00 00 00 00 00 00 00 ................
0040AFE0 00 00 00 00 00 00 00 00 00 00 00 00 00 00 00 00 ................
0040AFF0 00 00 00 00 00 00 00 00 00 00 00 00 00 00 00 00 ................
0040B000 00 00 00 00 00 00 00 00 00 00 00 00 00 00 00 00 ................
0040B010 00 00 00 00 00 00 00 00 00 00 00 00 00 00 00 00 ................
0040B020 00 00 00 00 00 00 00 00 00 00 00 00 00 00 00 00 ................
0040B030 00 00 00 00 00 00 00 00 00 00 00 00 00 00 00 00 ................
0040B040 00 00 00 00 00 00 00 00 00 00 00 00 00 00 00 00 ................
0040B050 00 00 00 00 00 00 00 00 00 00 00 00 00 00 00 00 ................
0040B060 00 00 00 00 00 00 00 00 00 00 00 00 00 00 00 00 ................
0040B070 00 00 00 00 00 00 00 00 00 00 00 00 00 00 00 00 ................
0040B080 00 00 00 00 00 00 00 00 00 00 00 00 00 00 00 00 ................
0040B090 00 00 00 00 00 00 00 00 00 00 00 00 00 00 00 00 ................
0040B0A0 00 00 00 00 00 00 00 00 00 00 00 00 00 00 00 00 ................
0040B0B0 00 00 00 00 00 00 00 00 00 00 00 00 00 00 00 00 ................
0040B0C0 00 00 00 00 00 00 00 00 00 00 00 00 00 00 00 00 ................
0040B0D0 00 00 00 00 00 00 00 00 00 00 00 00 00 00 00 00 ................
0040B0E0 00 00 00 00 00 00 00 00 00 00 00 00 00 00 00 00 ................
0040B0F0 00 00 00 00 00 00 00 00 00 00 00 00 00 00 00 00 ................
0040B100 00 00 00 00 00 00 00 00 00 00 00 00 00 00 00 00 ................
0040B110 00 00 00 00 00 00 00 00 00 00 00 00 00 00 00 00 ................
0040B120 00 00 00 00 00 00 00 00 00 00 00 00 00 00 00 00 ................
0040B130 00 00 00 00 00 00 00 00 00 00 00 00 00 00 00 00 ................
0040B140 00 00 00 00 00 00 00 00 00 00 00 00 00 00 00 00 ................
0040B150 00 00 00 00 00 00 00 00 00 00 00 00 00 00 00 00 ................
0040B160 00 00 00 00 00 00 00 00 00 00 00 00 00 00 00 00 ................
0040B170 00 00 00 00 00 00 00 00 00 00 00 00 00 00 00 00 ................
0040B180 00 00 00 00 00 00 00 00 00 00 00 00 00 00 00 00 ................
0040B190 00 00 00 00 00 00 00 00 00 00 00 00 00 00 00 00 ................
0040B1A0 00 00 00 00 00 00 00 00 00 00 00 00 00 00 00 00 ................
0040B1B0 00 00 00 00 00 00 00 00 00 00 00 00 00 00 00 00 ................
0040B1C0 00 00 00 00 00 00 00 00 00 00 00 00 00 00 00 00 ................
0040B1D0 00 00 00 00 00 00 00 00 00 00 00 00 00 00 00 00 ................
0040B1E0 00 00 00 00 00 00 00 00 00 00 00 00 00 00 00 00 ................
0040B1F0 00 00 00 00 00 00 00 00 00 00 00 00 00 00 00 00 ................
0040B200 00 00 00 00 00 00 00 00 00 00 00 00 00 00 00 00 ................
0040B210 00 00 00 00 00 00 00 00 00 00 00 00 00 00 00 00 ................
0040B220 00 00 00 00 00 00 00 00 00 00 00 00 00 00 00 00 ................
0040B230 00 00 00 00 00 00 00 00 00 00 00 00 00 00 00 00 ................
0040B240 00 00 00 00 00 00 00 00 00 00 00 00 00 00 00 00 ................
0040B250 00 00 00 00 00 00 00 00 00 00 00 00 00 00 00 00 ................
0040B260 00 00 00 00 00 00 00 00 00 00 00 00 00 00 00 00 ................
0040B270 00 00 00 00 00 00 00 00 00 00 00 00 00 00 00 00 ................
0040B280 00 00 00 00 00 00 00 00 00 00 00 00 00 00 00 00 ................
0040B290 00 00 00 00 00 00 00 00 00 00 00 00 00 00 00 00 ................
0040B2A0 00 00 00 00 00 00 00 00 00 00 00 00 00 00 00 00 ................
0040B2B0 00 00 00 00 00 00 00 00 00 00 00 00 00 00 00 00 ................
0040B2C0 00 00 00 00 00 00 00 00 00 00 00 00 00 00 00 00 ................
0040B2D0 00 00 00 00 00 00 00 00 00 00 00 00 00 00 00 00 ................
0040B2E0 00 00 00 00 00 00 00 00 00 00 00 00 00 00 00 00 ................
0040B2F0 00 00 00 00 00 00 00 00 00 00 00 00 00 00 00 00 ................
0040B300 00 00 00 00 00 00 00 00 00 00 00 00 00 00 00 00 ................
0040B310 00 00 00 00 00 00 00 00 00 00 00 00 00 00 00 00 ................
0040B320 00 00 00 00 00 00 00 00 00 00 00 00 00 00 00 00 ................
0040B330 00 00 00 00 00 00 00 00 00 00 00 00 00 00 00 00 ................
0040B340 00 00 00 00 00 00 00 00 00 00 00 00 00 00 00 00 ................
0040B350 00 00 00 00 00 00 00 00 00 00 00 00 00 00 00 00 ................
0040B360 00 00 00 00 00 00 00 00 00 00 00 00 00 00 00 00 ................
0040B370 00 00 00 00 00 00 00 00 00 00 00 00 00 00 00 00 ................
0040B380 00 00 00 00 00 00 00 00 00 00 00 00 00 00 00 00 ................
0040B390 00 00 00 00 00 00 00 00 00 00 00 00 00 00 00 00 ................
0040B3A0 00 00 00 00 00 00 00 00 00 00 00 00 00 00 00 00 ................
0040B3B0 00 00 00 00 00 00 00 00 00 00 00 00 00 00 00 00 ................
0040B3C0 00 00 00 00 00 00 00 00 00 00 00 00 00 00 00 00 ................
0040B3D0 00 00 00 00 00 00 00 00 00 00 00 00 00 00 00 00 ................
0040B3E0 00 00 00 00 00 00 00 00 00 00 00 00 00 00 00 00 ................
0040B3F0 00 00 00 00 00 00 00 00 00 00 00 00 00 00 00 00 ................
0040B400 00 00 00 00 00 00 00 00 00 00 00 00 00 00 00 00 ................
0040B410 00 00 00 00 00 00 00 00 00 00 00 00 00 00 00 00 ................
0040B420 00 00 00 00 00 00 00 00 00 00 00 00 00 00 00 00 ................
0040B430 00 00 00 00 00 00 00 00 00 00 00 00 00 00 00 00 ................
0040B440 00 00 00 00 00 00 00 00 00 00 00 00 00 00 00 00 ................
0040B450 00 00 00 00 00 00 00 00 00 00 00 00 00 00 00 00 ................
0040B460 00 00 00 00 00 00 00 00 00 00 00 00 00 00 00 00 ................
0040B470 00 00 00 00 00 00 00 00 00 00 00 00 00 00 00 00 ................
0040B480 00 00 00 00 00 00 00 00 00 00 00 00 00 00 00 00 ................
0040B490 00 00 00 00 00 00 00 00 00 00 00 00 00 00 00 00 ................
0040B4A0 00 00 00 00 00 00 00 00 00 00 00 00 00 00 00 00 ................
0040B4B0 00 00 00 00 00 00 00 00 00 00 00 00 00 00 00 00 ................
0040B4C0 00 00 00 00 00 00 00 00 00 00 00 00 00 00 00 00 ................
0040B4D0 00 00 00 00 00 00 00 00 00 00 00 00 00 00 00 00 ................
0040B4E0 00 00 00 00 00 00 00 00 00 00 00 00 00 00 00 00 ................
0040B4F0 00 00 00 00 00 00 00 00 00 00 00 00 00 00 00 00 ................
0040B500 00 00 00 00 00 00 00 00 00 00 00 00 00 00 00 00 ................
0040B510 00 00 00 00 00 00 00 00 00 00 00 00 00 00 00 00 ................
0040B520 00 00 00 00 00 00 00 00 00 00 00 00 00 00 00 00 ................
0040B530 00 00 00 00 00 00 00 00 00 00 00 00 00 00 00 00 ................
0040B540 00 00 00 00 00 00 00 00 00 00 00 00 00 00 00 00 ................
0040B550 00 00 00 00 00 00 00 00 00 00 00 00 00 00 00 00 ................
0040B560 00 00 00 00 00 00 00 00 00 00 00 00 00 00 00 00 ................
0040B570 00 00 00 00 00 00 00 00 00 00 00 00 00 00 00 00 ................
0040B580 00 00 00 00 00 00 00 00 00 00 00 00 00 00 00 00 ................
0040B590 00 00 00 00 00 00 00 00 00 00 00 00 00 00 00 00 ................
0040B5A0 00 00 00 00 00 00 00 00 00 00 00 00 00 00 00 00 ................
0040B5B0 00 00 00 00 00 00 00 00 00 00 00 00 00 00 00 00 ................
0040B5C0 00 00 00 00 00 00 00 00 00 00 00 00 00 00 00 00 ................
0040B5D0 00 00 00 00 00 00 00 00 00 00 00 00 00 00 00 00 ................
0040B5E0 00 00 00 00 00 00 00 00 00 00 00 00 00 00 00 00 ................
0040B5F0 00 00 00 00 00 00 00 00 00 00 00 00 00 00 00 00 ................
0040B600 00 00 00 00 00 00 00 00 00 00 00 00 00 00 00 00 ................
0040B610 00 00 00 00 00 00 00 00 00 00 00 00 00 00 00 00 ................
0040B620 00 00 00 00 00 00 00 00 00 00 00 00 00 00 00 00 ................
0040B630 00 00 00 00 00 00 00 00 00 00 00 00 00 00 00 00 ................
0040B640 00 00 00 00 00 00 00 00 00 00 00 00 00 00 00 00 ................
0040B650 00 00 00 00 00 00 00 00 00 00 00 00 00 00 00 00 ................
0040B660 00 00 00 00 00 00 00 00 00 00 00 00 00 00 00 00 ................
0040B670 00 00 00 00 00 00 00 00 00 00 00 00 00 00 00 00 ................
0040B680 00 00 00 00 00 00 00 00 00 00 00 00 00 00 00 00 ................
0040B690 00 00 00 00 00 00 00 00 00 00 00 00 00 00 00 00 ................
0040B6A0 00 00 00 00 00 00 00 00 00 00 00 00 00 00 00 00 ................
0040B6B0 00 00 00 00 00 00 00 00 00 00 00 00 00 00 00 00 ................
0040B6C0 00 00 00 00 00 00 00 00 00 00 00 00 00 00 00 00 ................
0040B6D0 00 00 00 00 00 00 00 00 00 00 00 00 00 00 00 00 ................
0040B6E0 00 00 00 00 00 00 00 00 00 00 00 00 00 00 00 00 ................
0040B6F0 00 00 00 00 00 00 00 00 00 00 00 00 00 00 00 00 ................
0040B700 00 00 00 00 00 00 00 00 00 00 00 00 00 00 00 00 ................
0040B710 00 00 00 00 00 00 00 00 00 00 00 00 00 00 00 00 ................
0040B720 00 00 00 00 00 00 00 00 00 00 00 00 00 00 00 00 ................
0040B730 00 00 00 00 00 00 00 00 00 00 00 00 00 00 00 00 ................
0040B740 00 00 00 00 00 00 00 00 00 00 00 00 00 00 00 00 ................
0040B750 00 00 00 00 00 00 00 00 00 00 00 00 00 00 00 00 ................
0040B760 00 00 00 00 00 00 00 00 00 00 00 00 00 00 00 00 ................
0040B770 00 00 00 00 00 00 00 00 00 00 00 00 00 00 00 00 ................
0040B780 00 00 00 00 00 00 00 00 00 00 00 00 00 00 00 00 ................
0040B790 00 00 00 00 00 00 00 00 00 00 00 00 00 00 00 00 ................
0040B7A0 00 00 00 00 00 00 00 00 00 00 00 00 00 00 00 00 ................
0040B7B0 00 00 00 00 00 00 00 00 00 00 00 00 00 00 00 00 ................
0040B7C0 00 00 00 00 00 00 00 00 00 00 00 00 00 00 00 00 ................
0040B7D0 00 00 00 00 00 00 00 00 00 00 00 00 00 00 00 00 ................
0040B7E0 00 00 00 00 00 00 00 00 00 00 00 00 00 00 00 00 ................
0040B7F0 00 00 00 00 00 00 00 00 00 00 00 00 00 00 00 00 ................
0040B800 00 00 00 00 00 00 00 00 00 00 00 00 00 00 00 00 ................
0040B810 00 00 00 00 00 00 00 00 00 00 00 00 00 00 00 00 ................
0040B820 00 00 00 00 00 00 00 00 00 00 00 00 00 00 00 00 ................
0040B830 00 00 00 00 00 00 00 00 00 00 00 00 00 00 00 00 ................
0040B840 00 00 00 00 00 00 00 00 00 00 00 00 00 00 00 00 ................
0040B850 00 00 00 00 00 00 00 00 00 00 00 00 00 00 00 00 ................
0040B860 00 00 00 00 00 00 00 00 00 00 00 00 00 00 00 00 ................
0040B870 00 00 00 00 00 00 00 00 00 00 00 00 00 00 00 00 ................
0040B880 00 00 00 00 00 00 00 00 00 00 00 00 00 00 00 00 ................
0040B890 00 00 00 00 00 00 00 00 00 00 00 00 00 00 00 00 ................
0040B8A0 00 00 00 00 00 00 00 00 00 00 00 00 00 00 00 00 ................
0040B8B0 00 00 00 00 00 00 00 00 00 00 00 00 00 00 00 00 ................
0040B8C0 00 00 00 00 00 00 00 00 00 00 00 00 00 00 00 00 ................
0040B8D0 00 00 00 00 00 00 00 00 00 00 00 00 00 00 00 00 ................
0040B8E0 00 00 00 00 00 00 00 00 00 00 00 00 00 00 00 00 ................
0040B8F0 00 00 00 00 00 00 00 00 00 00 00 00 00 00 00 00 ................
0040B900 00 00 00 00 00 00 00 00 00 00 00 00 00 00 00 00 ................
0040B910 00 00 00 00 00 00 00 00 00 00 00 00 00 00 00 00 ................
0040B920 00 00 00 00 00 00 00 00 00 00 00 00 00 00 00 00 ................
0040B930 00 00 00 00 00 00 00 00 00 00 00 00 00 00 00 00 ................
0040B940 00 00 00 00 00 00 00 00 00 00 00 00 00 00 00 00 ................
0040B950 00 00 00 00 00 00 00 00 00 00 00 00 00 00 00 00 ................
0040B960 00 00 00 00 00 00 00 00 00 00 00 00 00 00 00 00 ................
0040B970 00 00 00 00 00 00 00 00 00 00 00 00 00 00 00 00 ................
0040B980 00 00 00 00 00 00 00 00 00 00 00 00 00 00 00 00 ................
0040B990 00 00 00 00 00 00 00 00 00 00 00 00 00 00 00 00 ................
0040B9A0 00 00 00 00 00 00 00 00 00 00 00 00 00 00 00 00 ................
0040B9B0 00 00 00 00 00 00 00 00 00 00 00 00 00 00 00 00 ................
0040B9C0 00 00 00 00 00 00 00 00 00 00 00 00 00 00 00 00 ................
0040B9D0 00 00 00 00 00 00 00 00 00 00 00 00 00 00 00 00 ................
0040B9E0 00 00 00 00 00 00 00 00 00 00 00 00 00 00 00 00 ................
0040B9F0 00 00 00 00 00 00 00 00 00 00 00 00 00 00 00 00 ................
0040BA00 00 00 00 00 00 00 00 00 00 00 00 00 00 00 00 00 ................
0040BA10 00 00 00 00 00 00 00 00 00 00 00 00 00 00 00 00 ................
0040BA20 00 00 00 00 00 00 00 00 00 00 00 00 00 00 00 00 ................
0040BA30 00 00 00 00 00 00 00 00 00 00 00 00 00 00 00 00 ................
0040BA40 00 00 00 00 00 00 00 00 00 00 00 00 00 00 00 00 ................
0040BA50 00 00 00 00 00 00 00 00 00 00 00 00 00 00 00 00 ................
0040BA60 00 00 00 00 00 00 00 00 00 00 00 00 00 00 00 00 ................
0040BA70 00 00 00 00 00 00 00 00 00 00 00 00 00 00 00 00 ................
0040BA80 00 00 00 00 00 00 00 00 00 00 00 00 00 00 00 00 ................
0040BA90 00 00 00 00 00 00 00 00 00 00 00 00 00 00 00 00 ................
0040BAA0 00 00 00 00 00 00 00 00 00 00 00 00 00 00 00 00 ................
0040BAB0 00 00 00 00 00 00 00 00 00 00 00 00 00 00 00 00 ................
0040BAC0 00 00 00 00 00 00 00 00 00 00 00 00 00 00 00 00 ................
0040BAD0 00 00 00 00 00 00 00 00 00 00 00 00 00 00 00 00 ................
0040BAE0 00 00 00 00 00 00 00 00 00 00 00 00 00 00 00 00 ................
0040BAF0 00 00 00 00 00 00 00 00 00 00 00 00 00 00 00 00 ................
0040BB00 00 00 00 00 00 00 00 00 00 00 00 00 00 00 00 00 ................
0040BB10 00 00 00 00 00 00 00 00 00 00 00 00 00 00 00 00 ................
0040BB20 00 00 00 00 00 00 00 00 00 00 00 00 00 00 00 00 ................
0040BB30 00 00 00 00 00 00 00 00 00 00 00 00 00 00 00 00 ................
0040BB40 00 00 00 00 00 00 00 00 00 00 00 00 00 00 00 00 ................
0040BB50 00 00 00 00 00 00 00 00 00 00 00 00 00 00 00 00 ................
0040BB60 00 00 00 00 00 00 00 00 00 00 00 00 00 00 00 00 ................
0040BB70 00 00 00 00 00 00 00 00 00 00 00 00 00 00 00 00 ................
0040BB80 00 00 00 00 00 00 00 00 00 00 00 00 00 00 00 00 ................
0040BB90 00 00 00 00 00 00 00 00 00 00 00 00 00 00 00 00 ................
0040BBA0 00 00 00 00 00 00 00 00 00 00 00 00 00 00 00 00 ................
0040BBB0 00 00 00 00 00 00 00 00 00 00 00 00 00 00 00 00 ................
0040BBC0 00 00 00 00 00 00 00 00 00 00 00 00 00 00 00 00 ................
0040BBD0 00 00 00 00 00 00 00 00 00 00 00 00 00 00 00 00 ................
0040BBE0 00 00 00 00 00 00 00 00 00 00 00 00 00 00 00 00 ................
0040BBF0 00 00 00 00 00 00 00 00 00 00 00 00 00 00 00 00 ................
0040BC00 00 00 00 00 00 00 00 00 00 00 00 00 00 00 00 00 ................
0040BC10 00 00 00 00 00 00 00 00 00 00 00 00 00 00 00 00 ................
0040BC20 00 00 00 00 00 00 00 00 00 00 00 00 00 00 00 00 ................
0040BC30 00 00 00 00 00 00 00 00 00 00 00 00 00 00 00 00 ................
0040BC40 00 00 00 00 00 00 00 00 00 00 00 00 00 00 00 00 ................
0040BC50 00 00 00 00 00 00 00 00 00 00 00 00 00 00 00 00 ................
0040BC60 00 00 00 00 00 00 00 00 00 00 00 00 00 00 00 00 ................
0040BC70 00 00 00 00 00 00 00 00 00 00 00 00 00 00 00 00 ................
0040BC80 00 00 00 00 00 00 00 00 00 00 00 00 00 00 00 00 ................
0040BC90 00 00 00 00 00 00 00 00 00 00 00 00 00 00 00 00 ................
0040BCA0 00 00 00 00 00 00 00 00 00 00 00 00 00 00 00 00 ................
0040BCB0 00 00 00 00 00 00 00 00 00 00 00 00 00 00 00 00 ................
0040BCC0 00 00 00 00 00 00 00 00 00 00 00 00 00 00 00 00 ................
0040BCD0 00 00 00 00 00 00 00 00 00 00 00 00 00 00 00 00 ................
0040BCE0 00 00 00 00 00 00 00 00 00 00 00 00 00 00 00 00 ................
0040BCF0 00 00 00 00 00 00 00 00 00 00 00 00 00 00 00 00 ................
0040BD00 00 00 00 00 00 00 00 00 00 00 00 00 00 00 00 00 ................
0040BD10 00 00 00 00 00 00 00 00 00 00 00 00 00 00 00 00 ................
0040BD20 00 00 00 00 00 00 00 00 00 00 00 00 00 00 00 00 ................
0040BD30 00 00 00 00 00 00 00 00 00 00 00 00 00 00 00 00 ................
0040BD40 00 00 00 00 00 00 00 00 00 00 00 00 00 00 00 00 ................
0040BD50 00 00 00 00 00 00 00 00 00 00 00 00 00 00 00 00 ................
0040BD60 00 00 00 00 00 00 00 00 00 00 00 00 00 00 00 00 ................
0040BD70 00 00 00 00 00 00 00 00 00 00 00 00 00 00 00 00 ................
0040BD80 00 00 00 00 00 00 00 00 00 00 00 00 00 00 00 00 ................
0040BD90 00 00 00 00 00 00 00 00 00 00 00 00 00 00 00 00 ................
0040BDA0 00 00 00 00 00 00 00 00 00 00 00 00 00 00 00 00 ................
0040BDB0 00 00 00 00 00 00 00 00 00 00 00 00 00 00 00 00 ................
0040BDC0 00 00 00 00 00 00 00 00 00 00 00 00 00 00 00 00 ................
0040BDD0 00 00 00 00 00 00 00 00 00 00 00 00 00 00 00 00 ................
0040BDE0 00 00 00 00 00 00 00 00 00 00 00 00 00 00 00 00 ................
0040BDF0 00 00 00 00 00 00 00 00 00 00 00 00 00 00 00 00 ................
0040BE00 00 00 00 00 00 00 00 00 00 00 00 00 00 00 00 00 ................
0040BE10 00 00 00 00 00 00 00 00 00 00 00 00 00 00 00 00 ................
0040BE20 00 00 00 00 00 00 00 00 00 00 00 00 00 00 00 00 ................
0040BE30 00 00 00 00 00 00 00 00 00 00 00 00 00 00 00 00 ................
0040BE40 00 00 00 00 00 00 00 00 00 00 00 00 00 00 00 00 ................
0040BE50 00 00 00 00 00 00 00 00 00 00 00 00 00 00 00 00 ................
0040BE60 00 00 00 00 00 00 00 00 00 00 00 00 00 00 00 00 ................
0040BE70 00 00 00 00 00 00 00 00 00 00 00 00 00 00 00 00 ................
0040BE80 00 00 00 00 00 00 00 00 00 00 00 00 00 00 00 00 ................
0040BE90 00 00 00 00 00 00 00 00 00 00 00 00 00 00 00 00 ................
0040BEA0 00 00 00 00 00 00 00 00 00 00 00 00 00 00 00 00 ................
0040BEB0 00 00 00 00 00 00 00 00 00 00 00 00 00 00 00 00 ................
0040BEC0 00 00 00 00 00 00 00 00 00 00 00 00 00 00 00 00 ................
0040BED0 00 00 00 00 00 00 00 00 00 00 00 00 00 00 00 00 ................
0040BEE0 00 00 00 00 00 00 00 00 00 00 00 00 00 00 00 00 ................
0040BEF0 00 00 00 00 00 00 00 00 00 00 00 00 00 00 00 00 ................
0040BF00 00 00 00 00 00 00 00 00 00 00 00 00 00 00 00 00 ................
0040BF10 00 00 00 00 00 00 00 00 00 00 00 00 00 00 00 00 ................
0040BF20 00 00 00 00 00 00 00 00 00 00 00 00 00 00 00 00 ................
0040BF30 00 00 00 00 00 00 00 00 00 00 00 00 00 00 00 00 ................
0040BF40 00 00 00 00 00 00 00 00 00 00 00 00 00 00 00 00 ................
0040BF50 00 00 00 00 00 00 00 00 00 00 00 00 00 00 00 00 ................
0040BF60 00 00 00 00 00 00 00 00 00 00 00 00 00 00 00 00 ................
0040BF70 00 00 00 00 00 00 00 00 00 00 00 00 00 00 00 00 ................
0040BF80 00 00 00 00 00 00 00 00 00 00 00 00 00 00 00 00 ................
0040BF90 00 00 00 00 00 00 00 00 00 00 00 00 00 00 00 00 ................
0040BFA0 00 00 00 00 00 00 00 00 00 00 00 00 00 00 00 00 ................
0040BFB0 00 00 00 00 00 00 00 00 00 00 00 00 00 00 00 00 ................
0040BFC0 00 00 00 00 00 00 00 00 00 00 00 00 00 00 00 00 ................
0040BFD0 00 00 00 00 00 00 00 00 00 00 00 00 00 00 00 00 ................
0040BFE0 00 00 00 00 00 00 00 00 00 00 00 00 00 00 00 00 ................
0040BFF0 00 00 00 00 00 00 00 00 00 00 00 00 00 00 00 00 ................
0040C000 00 00 00 00 00 00 00 00 00 00 00 00 00 00 00 00 ................
0040C010 00 00 00 00 00 00 00 00 00 00 00 00 00 00 00 00 ................
0040C020 00 00 00 00 00 00 00 00 00 00 00 00 00 00 00 00 ................
0040C030 00 00 00 00 00 00 00 00 00 00 00 00 00 00 00 00 ................
0040C040 00 00 00 00 00 00 00 00 00 00 00 00 00 00 00 00 ................
0040C050 00 00 00 00 00 00 00 00 00 00 00 00 00 00 00 00 ................
0040C060 00 00 00 00 00 00 00 00 00 00 00 00 00 00 00 00 ................
0040C070 00 00 00 00 00 00 00 00 00 00 00 00 00 00 00 00 ................
0040C080 00 00 00 00 00 00 00 00 00 00 00 00 00 00 00 00 ................
0040C090 00 00 00 00 00 00 00 00 00 00 00 00 00 00 00 00 ................
0040C0A0 00 00 00 00 00 00 00 00 00 00 00 00 00 00 00 00 ................
0040C0B0 00 00 00 00 00 00 00 00 00 00 00 00 00 00 00 00 ................
0040C0C0 00 00 00 00 00 00 00 00 00 00 00 00 00 00 00 00 ................
0040C0D0 00 00 00 00 00 00 00 00 00 00 00 00 00 00 00 00 ................
0040C0E0 00 00 00 00 00 00 00 00 00 00 00 00 00 00 00 00 ................
0040C0F0 00 00 00 00 00 00 00 00 00 00 00 00 00 00 00 00 ................
0040C100 00 00 00 00 00 00 00 00 00 00 00 00 00 00 00 00 ................
0040C110 00 00 00 00 00 00 00 00 00 00 00 00 00 00 00 00 ................
0040C120 00 00 00 00 00 00 00 00 00 00 00 00 00 00 00 00 ................
0040C130 00 00 00 00 00 00 00 00 00 00 00 00 00 00 00 00 ................
0040C140 00 00 00 00 00 00 00 00 00 00 00 00 00 00 00 00 ................
0040C150 00 00 00 00 00 00 00 00 00 00 00 00 00 00 00 00 ................
0040C160 00 00 00 00 00 00 00 00 00 00 00 00 00 00 00 00 ................
0040C170 00 00 00 00 00 00 00 00 00 00 00 00 00 00 00 00 ................
0040C180 00 00 00 00 00 00 00 00 00 00 00 00 00 00 00 00 ................
0040C190 00 00 00 00 00 00 00 00 00 00 00 00 00 00 00 00 ................
0040C1A0 00 00 00 00 00 00 00 00 00 00 00 00 00 00 00 00 ................
0040C1B0 00 00 00 00 00 00 00 00 00 00 00 00 00 00 00 00 ................
0040C1C0 00 00 00 00 00 00 00 00 00 00 00 00 00 00 00 00 ................
0040C1D0 00 00 00 00 00 00 00 00 00 00 00 00 00 00 00 00 ................
0040C1E0 00 00 00 00 00 00 00 00 00 00 00 00 00 00 00 00 ................
0040C1F0 00 00 00 00 00 00 00 00 00 00 00 00 00 00 00 00 ................
0040C200 00 00 00 00 00 00 00 00 00 00 00 00 00 00 00 00 ................
0040C210 00 00 00 00 00 00 00 00 00 00 00 00 00 00 00 00 ................
0040C220 00 00 00 00 00 00 00 00 00 00 00 00 00 00 00 00 ................
0040C230 00 00 00 00 00 00 00 00 00 00 00 00 00 00 00 00 ................
0040C240 00 00 00 00 00 00 00 00 00 00 00 00 00 00 00 00 ................
0040C250 00 00 00 00 00 00 00 00 00 00 00 00 00 00 00 00 ................
0040C260 00 00 00 00 00 00 00 00 00 00 00 00 00 00 00 00 ................
0040C270 00 00 00 00 00 00 00 00 00 00 00 00 00 00 00 00 ................
0040C280 00 00 00 00 00 00 00 00 00 00 00 00 00 00 00 00 ................
0040C290 00 00 00 00 00 00 00 00 00 00 00 00 00 00 00 00 ................
0040C2A0 00 00 00 00 00 00 00 00 00 00 00 00 00 00 00 00 ................
0040C2B0 00 00 00 00 00 00 00 00 00 00 00 00 00 00 00 00 ................
0040C2C0 00 00 00 00 00 00 00 00 00 00 00 00 00 00 00 00 ................
0040C2D0 00 00 00 00 00 00 00 00 00 00 00 00 00 00 00 00 ................
0040C2E0 00 00 00 00 00 00 00 00 00 00 00 00 00 00 00 00 ................
0040C2F0 00 00 00 00 00 00 00 00 00 00 00 00 00 00 00 00 ................
0040C300 00 00 00 00 00 00 00 00 00 00 00 00 00 00 00 00 ................
0040C310 00 00 00 00 00 00 00 00 00 00 00 00 00 00 00 00 ................
0040C320 00 00 00 00 00 00 00 00 00 00 00 00 00 00 00 00 ................
0040C330 00 00 00 00 00 00 00 00 00 00 00 00 00 00 00 00 ................
0040C340 00 00 00 00 00 00 00 00 00 00 00 00 00 00 00 00 ................
0040C350 00 00 00 00 00 00 00 00 00 00 00 00 00 00 00 00 ................
0040C360 00 00 00 00 00 00 00 00 00 00 00 00 00 00 00 00 ................
0040C370 00 00 00 00 00 00 00 00 00 00 00 00 00 00 00 00 ................
0040C380 00 00 00 00 00 00 00 00 00 00 00 00 00 00 00 00 ................
0040C390 00 00 00 00 00 00 00 00 00 00 00 00 00 00 00 00 ................
0040C3A0 00 00 00 00 00 00 00 00 00 00 00 00 00 00 00 00 ................
0040C3B0 00 00 00 00 00 00 00 00 00 00 00 00 00 00 00 00 ................
0040C3C0 00 00 00 00 00 00 00 00 00 00 00 00 00 00 00 00 ................
0040C3D0 00 00 00 00 00 00 00 00 00 00 00 00 00 00 00 00 ................
0040C3E0 00 00 00 00 00 00 00 00 00 00 00 00 00 00 00 00 ................
0040C3F0 00 00 00 00 00 00 00 00 00 00 00 00 00 00 00 00 ................
0040C400 00 00 00 00 00 00 00 00 00 00 00 00 00 00 00 00 ................
0040C410 00 00 00 00 00 00 00 00 00 00 00 00 00 00 00 00 ................
0040C420 00 00 00 00 00 00 00 00 00 00 00 00 00 00 00 00 ................
0040C430 00 00 00 00 00 00 00 00 00 00 00 00 00 00 00 00 ................
0040C440 00 00 00 00 00 00 00 00 00 00 00 00 00 00 00 00 ................
0040C450 00 00 00 00 00 00 00 00 00 00 00 00 00 00 00 00 ................
0040C460 00 00 00 00 00 00 00 00 00 00 00 00 00 00 00 00 ................
0040C470 00 00 00 00 00 00 00 00 00 00 00 00 00 00 00 00 ................
0040C480 00 00 00 00 00 00 00 00 00 00 00 00 00 00 00 00 ................
0040C490 00 00 00 00 00 00 00 00 00 00 00 00 00 00 00 00 ................
0040C4A0 00 00 00 00 00 00 00 00 00 00 00 00 00 00 00 00 ................
0040C4B0 00 00 00 00 00 00 00 00 00 00 00 00 00 00 00 00 ................
0040C4C0 00 00 00 00 00 00 00 00 00 00 00 00 00 00 00 00 ................
0040C4D0 00 00 00 00 00 00 00 00 00 00 00 00 00 00 00 00 ................
0040C4E0 00 00 00 00 00 00 00 00 00 00 00 00 00 00 00 00 ................
0040C4F0 00 00 00 00 00 00 00 00 00 00 00 00 00 00 00 00 ................
0040C500 00 00 00 00 00 00 00 00 00 00 00 00 00 00 00 00 ................
0040C510 00 00 00 00 00 00 00 00 00 00 00 00 00 00 00 00 ................
0040C520 00 00 00 00 00 00 00 00 00 00 00 00 00 00 00 00 ................
0040C530 00 00 00 00 00 00 00 00 00 00 00 00 00 00 00 00 ................
0040C540 00 00 00 00 00 00 00 00 00 00 00 00 00 00 00 00 ................
0040C550 00 00 00 00 00 00 00 00 00 00 00 00 00 00 00 00 ................
0040C560 00 00 00 00 00 00 00 00 00 00 00 00 00 00 00 00 ................
0040C570 00 00 00 00 00 00 00 00 00 00 00 00 00 00 00 00 ................
0040C580 00 00 00 00 00 00 00 00 00 00 00 00 00 00 00 00 ................
0040C590 00 00 00 00 00 00 00 00 00 00 00 00 00 00 00 00 ................
0040C5A0 00 00 00 00 00 00 00 00 00 00 00 00 00 00 00 00 ................
0040C5B0 00 00 00 00 00 00 00 00 00 00 00 00 00 00 00 00 ................
0040C5C0 00 00 00 00 00 00 00 00 00 00 00 00 00 00 00 00 ................
0040C5D0 00 00 00 00 00 00 00 00 00 00 00 00 00 00 00 00 ................
0040C5E0 00 00 00 00 00 00 00 00 00 00 00 00 00 00 00 00 ................
0040C5F0 00 00 00 00 00 00 00 00 00 00 00 00 00 00 00 00 ................
0040C600 00 00 00 00 00 00 00 00 00 00 00 00 00 00 00 00 ................
0040C610 00 00 00 00 00 00 00 00 00 00 00 00 00 00 00 00 ................
0040C620 00 00 00 00 00 00 00 00 00 00 00 00 00 00 00 00 ................
0040C630 00 00 00 00 00 00 00 00 00 00 00 00 00 00 00 00 ................
0040C640 00 00 00 00 00 00 00 00 00 00 00 00 00 00 00 00 ................
0040C650 00 00 00 00 00 00 00 00 00 00 00 00 00 00 00 00 ................
0040C660 00 00 00 00 00 00 00 00 00 00 00 00 00 00 00 00 ................
0040C670 00 00 00 00 00 00 00 00 00 00 00 00 00 00 00 00 ................
0040C680 00 00 00 00 00 00 00 00 00 00 00 00 00 00 00 00 ................
0040C690 00 00 00 00 00 00 00 00 00 00 00 00 00 00 00 00 ................
0040C6A0 00 00 00 00 00 00 00 00 00 00 00 00 00 00 00 00 ................
0040C6B0 00 00 00 00 00 00 00 00 00 00 00 00 00 00 00 00 ................
0040C6C0 00 00 00 00 00 00 00 00 00 00 00 00 00 00 00 00 ................
0040C6D0 00 00 00 00 00 00 00 00 00 00 00 00 00 00 00 00 ................
0040C6E0 00 00 00 00 00 00 00 00 00 00 00 00 00 00 00 00 ................
0040C6F0 00 00 00 00 00 00 00 00 00 00 00 00 00 00 00 00 ................
0040C700 00 00 00 00 00 00 00 00 00 00 00 00 00 00 00 00 ................
0040C710 00 00 00 00 00 00 00 00 00 00 00 00 00 00 00 00 ................
0040C720 00 00 00 00 00 00 00 00 00 00 00 00 00 00 00 00 ................
0040C730 00 00 00 00 00 00 00 00 00 00 00 00 00 00 00 00 ................
0040C740 00 00 00 00 00 00 00 00 00 00 00 00 00 00 00 00 ................
0040C750 00 00 00 00 00 00 00 00 00 00 00 00 00 00 00 00 ................
0040C760 00 00 00 00 00 00 00 00 00 00 00 00 00 00 00 00 ................
0040C770 00 00 00 00 00 00 00 00 00 00 00 00 00 00 00 00 ................
0040C780 00 00 00 00 00 00 00 00 00 00 00 00 00 00 00 00 ................
0040C790 00 00 00 00 00 00 00 00 00 00 00 00 00 00 00 00 ................
0040C7A0 00 00 00 00 00 00 00 00 00 00 00 00 00 00 00 00 ................
0040C7B0 00 00 00 00 00 00 00 00 00 00 00 00 00 00 00 00 ................
0040C7C0 00 00 00 00 00 00 00 00 00 00 00 00 00 00 00 00 ................
0040C7D0 00 00 00 00 00 00 00 00 00 00 00 00 00 00 00 00 ................
0040C7E0 00 00 00 00 00 00 00 00 00 00 00 00 00 00 00 00 ................
0040C7F0 00 00 00 00 00 00 00 00 00 00 00 00 00 00 00 00 ................
0040C800 00 00 00 00 00 00 00 00 00 00 00 00 00 00 00 00 ................
0040C810 00 00 00 00 00 00 00 00 00 00 00 00 00 00 00 00 ................
0040C820 00 00 00 00 00 00 00 00 00 00 00 00 00 00 00 00 ................
0040C830 00 00 00 00 00 00 00 00 00 00 00 00 00 00 00 00 ................
0040C840 00 00 00 00 00 00 00 00 00 00 00 00 00 00 00 00 ................
0040C850 00 00 00 00 00 00 00 00 00 00 00 00 00 00 00 00 ................
0040C860 00 00 00 00 00 00 00 00 00 00 00 00 00 00 00 00 ................
0040C870 00 00 00 00 00 00 00 00 00 00 00 00 00 00 00 00 ................
0040C880 00 00 00 00 00 00 00 00 00 00 00 00 00 00 00 00 ................
0040C890 00 00 00 00 00 00 00 00 00 00 00 00 00 00 00 00 ................
0040C8A0 00 00 00 00 00 00 00 00 00 00 00 00 00 00 00 00 ................
0040C8B0 00 00 00 00 00 00 00 00 00 00 00 00 00 00 00 00 ................
0040C8C0 00 00 00 00 00 00 00 00 00 00 00 00 00 00 00 00 ................
0040C8D0 00 00 00 00 00 00 00 00 00 00 00 00 00 00 00 00 ................
0040C8E0 00 00 00 00 00 00 00 00 00 00 00 00 00 00 00 00 ................
0040C8F0 00 00 00 00 00 00 00 00 00 00 00 00 00 00 00 00 ................
0040C900 00 00 00 00 00 00 00 00 00 00 00 00 00 00 00 00 ................
0040C910 00 00 00 00 00 00 00 00 00 00 00 00 00 00 00 00 ................
0040C920 00 00 00 00 00 00 00 00 00 00 00 00 00 00 00 00 ................
0040C930 00 00 00 00 00 00 00 00 00 00 00 00 00 00 00 00 ................
0040C940 00 00 00 00 00 00 00 00 00 00 00 00 00 00 00 00 ................
0040C950 00 00 00 00 00 00 00 00 00 00 00 00 00 00 00 00 ................
0040C960 00 00 00 00 00 00 00 00 00 00 00 00 00 00 00 00 ................
0040C970 00 00 00 00 00 00 00 00 00 00 00 00 00 00 00 00 ................
0040C980 00 00 00 00 00 00 00 00 00 00 00 00 00 00 00 00 ................
0040C990 00 00 00 00 00 00 00 00 00 00 00 00 00 00 00 00 ................
0040C9A0 00 00 00 00 00 00 00 00 00 00 00 00 00 00 00 00 ................
0040C9B0 00 00 00 00 00 00 00 00 00 00 00 00 00 00 00 00 ................
0040C9C0 00 00 00 00 00 00 00 00 00 00 00 00 00 00 00 00 ................
0040C9D0 00 00 00 00 00 00 00 00 00 00 00 00 00 00 00 00 ................
0040C9E0 00 00 00 00 00 00 00 00 00 00 00 00 00 00 00 00 ................
0040C9F0 00 00 00 00 00 00 00 00 00 00 00 00 00 00 00 00 ................
0040CA00 00 00 00 00 00 00 00 00 00 00 00 00 00 00 00 00 ................
0040CA10 00 00 00 00 00 00 00 00 00 00 00 00 00 00 00 00 ................
0040CA20 00 00 00 00 00 00 00 00 00 00 00 00 00 00 00 00 ................
0040CA30 00 00 00 00 00 00 00 00 00 00 00 00 00 00 00 00 ................
0040CA40 00 00 00 00 00 00 00 00 00 00 00 00 00 00 00 00 ................
0040CA50 00 00 00 00 00 00 00 00 00 00 00 00 00 00 00 00 ................
0040CA60 00 00 00 00 00 00 00 00 00 00 00 00 00 00 00 00 ................
0040CA70 00 00 00 00 00 00 00 00 00 00 00 00 00 00 00 00 ................
0040CA80 00 00 00 00 00 00 00 00 00 00 00 00 00 00 00 00 ................
0040CA90 00 00 00 00 00 00 00 00 00 00 00 00 00 00 00 00 ................
0040CAA0 00 00 00 00 00 00 00 00 00 00 00 00 00 00 00 00 ................
0040CAB0 00 00 00 00 00 00 00 00 00 00 00 00 00 00 00 00 ................
0040CAC0 00 00 00 00 00 00 00 00 00 00 00 00 00 00 00 00 ................
0040CAD0 00 00 00 00 00 00 00 00 00 00 00 00 00 00 00 00 ................
0040CAE0 00 00 00 00 00 00 00 00 00 00 00 00 00 00 00 00 ................
0040CAF0 00 00 00 00 00 00 00 00 00 00 00 00 00 00 00 00 ................
0040CB00 00 00 00 00 00 00 00 00 00 00 00 00 00 00 00 00 ................
0040CB10 00 00 00 00 00 00 00 00 00 00 00 00 00 00 00 00 ................
0040CB20 00 00 00 00 00 00 00 00 00 00 00 00 00 00 00 00 ................
0040CB30 00 00 00 00 00 00 00 00 00 00 00 00 00 00 00 00 ................
0040CB40 00 00 00 00 00 00 00 00 00 00 00 00 00 00 00 00 ................
0040CB50 00 00 00 00 00 00 00 00 00 00 00 00 00 00 00 00 ................
0040CB60 00 00 00 00 00 00 00 00 00 00 00 00 00 00 00 00 ................
0040CB70 00 00 00 00 00 00 00 00 00 00 00 00 00 00 00 00 ................
0040CB80 00 00 00 00 00 00 00 00 00 00 00 00 00 00 00 00 ................
0040CB90 00 00 00 00 00 00 00 00 00 00 00 00 00 00 00 00 ................
0040CBA0 00 00 00 00 00 00 00 00 00 00 00 00 00 00 00 00 ................
0040CBB0 00 00 00 00 00 00 00 00 00 00 00 00 00 00 00 00 ................
0040CBC0 00 00 00 00 00 00 00 00 00 00 00 00 00 00 00 00 ................
0040CBD0 00 00 00 00 00 00 00 00 00 00 00 00 00 00 00 00 ................
0040CBE0 00 00 00 00 00 00 00 00 00 00 00 00 00 00 00 00 ................
0040CBF0 00 00 00 00 00 00 00 00 00 00 00 00 00 00 00 00 ................
0040CC00 00 00 00 00 00 00 00 00 00 00 00 00 00 00 00 00 ................
0040CC10 00 00 00 00 00 00 00 00 00 00 00 00 00 00 00 00 ................
0040CC20 00 00 00 00 00 00 00 00 00 00 00 00 00 00 00 00 ................
0040CC30 00 00 00 00 00 00 00 00 00 00 00 00 00 00 00 00 ................
0040CC40 00 00 00 00 00 00 00 00 00 00 00 00 00 00 00 00 ................
0040CC50 00 00 00 00 00 00 00 00 00 00 00 00 00 00 00 00 ................
0040CC60 00 00 00 00 00 00 00 00 00 00 00 00 00 00 00 00 ................
0040CC70 00 00 00 00 00 00 00 00 00 00 00 00 00 00 00 00 ................
0040CC80 00 00 00 00 00 00 00 00 00 00 00 00 00 00 00 00 ................
0040CC90 00 00 00 00 00 00 00 00 00 00 00 00 00 00 00 00 ................
0040CCA0 00 00 00 00 00 00 00 00 00 00 00 00 00 00 00 00 ................
0040CCB0 00 00 00 00 00 00 00 00 00 00 00 00 00 00 00 00 ................
0040CCC0 00 00 00 00 00 00 00 00 00 00 00 00 00 00 00 00 ................
0040CCD0 00 00 00 00 00 00 00 00 00 00 00 00 00 00 00 00 ................
0040CCE0 00 00 00 00 00 00 00 00 00 00 00 00 00 00 00 00 ................
0040CCF0 00 00 00 00 00 00 00 00 00 00 00 00 00 00 00 00 ................
0040CD00 00 00 00 00 00 00 00 00 00 00 00 00 00 00 00 00 ................
0040CD10 00 00 00 00 00 00 00 00 00 00 00 00 00 00 00 00 ................
0040CD20 00 00 00 00 00 00 00 00 00 00 00 00 00 00 00 00 ................
0040CD30 00 00 00 00 00 00 00 00 00 00 00 00 00 00 00 00 ................
0040CD40 00 00 00 00 00 00 00 00 00 00 00 00 00 00 00 00 ................
0040CD50 00 00 00 00 00 00 00 00 00 00 00 00 00 00 00 00 ................
0040CD60 00 00 00 00 00 00 00 00 00 00 00 00 00 00 00 00 ................
0040CD70 00 00 00 00 00 00 00 00 00 00 00 00 00 00 00 00 ................
0040CD80 00 00 00 00 00 00 00 00 00 00 00 00 00 00 00 00 ................
0040CD90 00 00 00 00 00 00 00 00 00 00 00 00 00 00 00 00 ................
0040CDA0 00 00 00 00 00 00 00 00 00 00 00 00 00 00 00 00 ................
0040CDB0 00 00 00 00 00 00 00 00 00 00 00 00 00 00 00 00 ................
0040CDC0 00 00 00 00 00 00 00 00 00 00 00 00 00 00 00 00 ................
0040CDD0 00 00 00 00 00 00 00 00 00 00 00 00 00 00 00 00 ................
0040CDE0 00 00 00 00 00 00 00 00 00 00 00 00 00 00 00 00 ................
0040CDF0 00 00 00 00 00 00 00 00 00 00 00 00 00 00 00 00 ................
0040CE00 00 00 00 00 00 00 00 00 00 00 00 00 00 00 00 00 ................
0040CE10 00 00 00 00 00 00 00 00 00 00 00 00 00 00 00 00 ................
0040CE20 00 00 00 00 00 00 00 00 00 00 00 00 00 00 00 00 ................
0040CE30 00 00 00 00 00 00 00 00 00 00 00 00 00 00 00 00 ................
0040CE40 00 00 00 00 00 00 00 00 00 00 00 00 00 00 00 00 ................
0040CE50 00 00 00 00 00 00 00 00 00 00 00 00 00 00 00 00 ................
0040CE60 00 00 00 00 00 00 00 00 00 00 00 00 00 00 00 00 ................
0040CE70 00 00 00 00 00 00 00 00 00 00 00 00 00 00 00 00 ................
0040CE80 00 00 00 00 00 00 00 00 00 00 00 00 00 00 00 00 ................
0040CE90 00 00 00 00 00 00 00 00 00 00 00 00 00 00 00 00 ................
0040CEA0 00 00 00 00 00 00 00 00 00 00 00 00 00 00 00 00 ................
0040CEB0 00 00 00 00 00 00 00 00 00 00 00 00 00 00 00 00 ................
0040CEC0 00 00 00 00 00 00 00 00 00 00 00 00 00 00 00 00 ................
0040CED0 00 00 00 00 00 00 00 00 00 00 00 00 00 00 00 00 ................
0040CEE0 00 00 00 00 00 00 00 00 00 00 00 00 00 00 00 00 ................
0040CEF0 00 00 00 00 00 00 00 00 00 00 00 00 00 00 00 00 ................
0040CF00 00 00 00 00 00 00 00 00 00 00 00 00 00 00 00 00 ................
0040CF10 00 00 00 00 00 00 00 00 00 00 00 00 00 00 00 00 ................
0040CF20 00 00 00 00 00 00 00 00 00 00 00 00 00 00 00 00 ................
0040CF30 00 00 00 00 00 00 00 00 00 00 00 00 00 00 00 00 ................
0040CF40 00 00 00 00 00 00 00 00 00 00 00 00 00 00 00 00 ................
0040CF50 00 00 00 00 00 00 00 00 00 00 00 00 00 00 00 00 ................
0040CF60 00 00 00 00 00 00 00 00 00 00 00 00 00 00 00 00 ................
0040CF70 00 00 00 00 00 00 00 00 00 00 00 00 00 00 00 00 ................
0040CF80 00 00 00 00 00 00 00 00 00 00 00 00 00 00 00 00 ................
0040CF90 00 00 00 00 00 00 00 00 00 00 00 00 00 00 00 00 ................
0040CFA0 00 00 00 00 00 00 00 00 00 00 00 00 00 00 00 00 ................
0040CFB0 00 00 00 00 00 00 00 00 00 00 00 00 00 00 00 00 ................
0040CFC0 00 00 00 00 00 00 00 00 00 00 00 00 00 00 00 00 ................
0040CFD0 00 00 00 00 00 00 00 00 00 00 00 00 00 00 00 00 ................
0040CFE0 00 00 00 00 00 00 00 00 00 00 00 00 00 00 00 00 ................
0040CFF0 00 00 00 00 00 00 00 00 00 00 00 00 00 00 00 00 ................
0040D000 00 00 00 00 00 00 00 00 00 00 00 00 00 00 00 00 ................
0040D010 00 00 00 00 00 00 00 00 00 00 00 00 00 00 00 00 ................
0040D020 00 00 00 00 00 00 00 00 00 00 00 00 00 00 00 00 ................
0040D030 00 00 00 00 00 00 00 00 00 00 00 00 00 00 00 00 ................
0040D040 00 00 00 00 00 00 00 00 00 00 00 00 00 00 00 00 ................
0040D050 00 00 00 00 00 00 00 00 00 00 00 00 00 00 00 00 ................
0040D060 00 00 00 00 00 00 00 00 00 00 00 00 00 00 00 00 ................
0040D070 00 00 00 00 00 00 00 00 00 00 00 00 00 00 00 00 ................
0040D080 00 00 00 00 00 00 00 00 00 00 00 00 00 00 00 00 ................
0040D090 00 00 00 00 00 00 00 00 00 00 00 00 00 00 00 00 ................
0040D0A0 00 00 00 00 00 00 00 00 00 00 00 00 00 00 00 00 ................
0040D0B0 00 00 00 00 00 00 00 00 00 00 00 00 00 00 00 00 ................
0040D0C0 00 00 00 00 00 00 00 00 00 00 00 00 00 00 00 00 ................
0040D0D0 00 00 00 00 00 00 00 00 00 00 00 00 00 00 00 00 ................
0040D0E0 00 00 00 00 00 00 00 00 00 00 00 00 00 00 00 00 ................
0040D0F0 00 00 00 00 00 00 00 00 00 00 00 00 00 00 00 00 ................
0040D100 00 00 00 00 00 00 00 00 00 00 00 00 00 00 00 00 ................
0040D110 00 00 00 00 00 00 00 00 00 00 00 00 00 00 00 00 ................
0040D120 00 00 00 00 00 00 00 00 00 00 00 00 00 00 00 00 ................
0040D130 00 00 00 00 00 00 00 00 00 00 00 00 00 00 00 00 ................
0040D140 00 00 00 00 00 00 00 00 00 00 00 00 00 00 00 00 ................
0040D150 00 00 00 00 00 00 00 00 00 00 00 00 00 00 00 00 ................
0040D160 00 00 00 00 00 00 00 00 00 00 00 00 00 00 00 00 ................
0040D170 00 00 00 00 00 00 00 00 00 00 00 00 00 00 00 00 ................
0040D180 00 00 00 00 00 00 00 00 00 00 00 00 00 00 00 00 ................
0040D190 00 00 00 00 00 00 00 00 00 00 00 00 00 00 00 00 ................
0040D1A0 00 00 00 00 00 00 00 00 00 00 00 00 00 00 00 00 ................
0040D1B0 00 00 00 00 00 00 00 00 00 00 00 00 00 00 00 00 ................
0040D1C0 00 00 00 00 00 00 00 00 00 00 00 00 00 00 00 00 ................
0040D1D0 00 00 00 00 00 00 00 00 00 00 00 00 00 00 00 00 ................
0040D1E0 00 00 00 00 00 00 00 00 00 00 00 00 00 00 00 00 ................
0040D1F0 00 00 00 00 00 00 00 00 00 00 00 00 00 00 00 00 ................
0040D200 00 00 00 00 00 00 00 00 00 00 00 00 00 00 00 00 ................
0040D210 00 00 00 00 00 00 00 00 00 00 00 00 00 00 00 00 ................
0040D220 00 00 00 00 00 00 00 00 00 00 00 00 00 00 00 00 ................
0040D230 00 00 00 00 00 00 00 00 00 00 00 00 00 00 00 00 ................
0040D240 00 00 00 00 00 00 00 00 00 00 00 00 00 00 00 00 ................
0040D250 00 00 00 00 00 00 00 00 00 00 00 00 00 00 00 00 ................
0040D260 00 00 00 00 00 00 00 00 00 00 00 00 00 00 00 00 ................
0040D270 00 00 00 00 00 00 00 00 00 00 00 00 00 00 00 00 ................
0040D280 00 00 00 00 00 00 00 00 00 00 00 00 00 00 00 00 ................
0040D290 00 00 00 00 00 00 00 00 00 00 00 00 00 00 00 00 ................
0040D2A0 00 00 00 00 00 00 00 00 00 00 00 00 00 00 00 00 ................
0040D2B0 00 00 00 00 00 00 00 00 00 00 00 00 00 00 00 00 ................
0040D2C0 00 00 00 00 00 00 00 00 00 00 00 00 00 00 00 00 ................
0040D2D0 00 00 00 00 00 00 00 00 00 00 00 00 00 00 00 00 ................
0040D2E0 00 00 00 00 00 00 00 00 00 00 00 00 00 00 00 00 ................
0040D2F0 00 00 00 00 00 00 00 00 00 00 00 00 00 00 00 00 ................
0040D300 00 00 00 00 00 00 00 00 00 00 00 00 00 00 00 00 ................
0040D310 00 00 00 00 00 00 00 00 00 00 00 00 00 00 00 00 ................
0040D320 00 00 00 00 00 00 00 00 00 00 00 00 00 00 00 00 ................
0040D330 00 00 00 00 00 00 00 00 00 00 00 00 00 00 00 00 ................
0040D340 00 00 00 00 00 00 00 00 00 00 00 00 00 00 00 00 ................
0040D350 00 00 00 00 00 00 00 00 00 00 00 00 00 00 00 00 ................
0040D360 00 00 00 00 00 00 00 00 00 00 00 00 00 00 00 00 ................
0040D370 00 00 00 00 00 00 00 00 00 00 00 00 00 00 00 00 ................
0040D380 00 00 00 00 00 00 00 00 00 00 00 00 00 00 00 00 ................
0040D390 00 00 00 00 00 00 00 00 00 00 00 00 00 00 00 00 ................
0040D3A0 00 00 00 00 00 00 00 00 00 00 00 00 00 00 00 00 ................
0040D3B0 00 00 00 00 00 00 00 00 00 00 00 00 00 00 00 00 ................
0040D3C0 00 00 00 00 00 00 00 00 00 00 00 00 00 00 00 00 ................
0040D3D0 00 00 00 00 00 00 00 00 00 00 00 00 00 00 00 00 ................
0040D3E0 00 00 00 00 00 00 00 00 00 00 00 00 00 00 00 00 ................
0040D3F0 00 00 00 00 00 00 00 00 00 00 00 00 00 00 00 00 ................
0040D400 00 00 00 00 00 00 00 00 00 00 00 00 00 00 00 00 ................
0040D410 00 00 00 00 00 00 00 00 00 00 00 00 00 00 00 00 ................
0040D420 00 00 00 00 00 00 00 00 00 00 00 00 00 00 00 00 ................
0040D430 00 00 00 00 00 00 00 00 00 00 00 00 00 00 00 00 ................
0040D440 00 00 00 00 00 00 00 00 00 00 00 00 00 00 00 00 ................
0040D450 00 00 00 00 00 00 00 00 00 00 00 00 00 00 00 00 ................
0040D460 00 00 00 00 00 00 00 00 00 00 00 00 00 00 00 00 ................
0040D470 00 00 00 00 00 00 00 00 00 00 00 00 00 00 00 00 ................
0040D480 00 00 00 00 00 00 00 00 00 00 00 00 00 00 00 00 ................
0040D490 00 00 00 00 00 00 00 00 00 00 00 00 00 00 00 00 ................
0040D4A0 00 00 00 00 00 00 00 00 00 00 00 00 00 00 00 00 ................
0040D4B0 00 00 00 00 00 00 00 00 00 00 00 00 00 00 00 00 ................
0040D4C0 00 00 00 00 00 00 00 00 00 00 00 00 00 00 00 00 ................
0040D4D0 00 00 00 00 00 00 00 00 00 00 00 00 00 00 00 00 ................
0040D4E0 00 00 00 00 00 00 00 00 00 00 00 00 00 00 00 00 ................
0040D4F0 00 00 00 00 00 00 00 00 00 00 00 00 00 00 00 00 ................
0040D500 00 00 00 00 00 00 00 00 00 00 00 00 00 00 00 00 ................
0040D510 00 00 00 00 00 00 00 00 00 00 00 00 00 00 00 00 ................
0040D520 00 00 00 00 00 00 00 00 00 00 00 00 00 00 00 00 ................
0040D530 00 00 00 00 00 00 00 00 00 00 00 00 00 00 00 00 ................
0040D540 00 00 00 00 00 00 00 00 00 00 00 00 00 00 00 00 ................
0040D550 00 00 00 00 00 00 00 00 00 00 00 00 00 00 00 00 ................
0040D560 00 00 00 00 00 00 00 00 00 00 00 00 00 00 00 00 ................
0040D570 00 00 00 00 00 00 00 00 00 00 00 00 00 00 00 00 ................
0040D580 00 00 00 00 00 00 00 00 00 00 00 00 00 00 00 00 ................
0040D590 00 00 00 00 00 00 00 00 00 00 00 00 00 00 00 00 ................
0040D5A0 00 00 00 00 00 00 00 00 00 00 00 00 00 00 00 00 ................
0040D5B0 00 00 00 00 00 00 00 00 00 00 00 00 00 00 00 00 ................
0040D5C0 00 00 00 00 00 00 00 00 00 00 00 00 00 00 00 00 ................
0040D5D0 00 00 00 00 00 00 00 00 00 00 00 00 00 00 00 00 ................
0040D5E0 00 00 00 00 00 00 00 00 00 00 00 00 00 00 00 00 ................
0040D5F0 00 00 00 00 00 00 00 00 00 00 00 00 00 00 00 00 ................
0040D600 00 00 00 00 00 00 00 00 00 00 00 00 00 00 00 00 ................
0040D610 00 00 00 00 00 00 00 00 00 00 00 00 00 00 00 00 ................
0040D620 00 00 00 00 00 00 00 00 00 00 00 00 00 00 00 00 ................
0040D630 00 00 00 00 00 00 00 00 00 00 00 00 00 00 00 00 ................
0040D640 00 00 00 00 00 00 00 00 00 00 00 00 00 00 00 00 ................
0040D650 00 00 00 00 00 00 00 00 00 00 00 00 00 00 00 00 ................
0040D660 00 00 00 00 00 00 00 00 00 00 00 00 00 00 00 00 ................
0040D670 00 00 00 00 00 00 00 00 00 00 00 00 00 00 00 00 ................
0040D680 00 00 00 00 00 00 00 00 00 00 00 00 00 00 00 00 ................
0040D690 00 00 00 00 00 00 00 00 00 00 00 00 00 00 00 00 ................
0040D6A0 00 00 00 00 00 00 00 00 00 00 00 00 00 00 00 00 ................
0040D6B0 00 00 00 00 00 00 00 00 00 00 00 00 00 00 00 00 ................
0040D6C0 00 00 00 00 00 00 00 00 00 00 00 00 00 00 00 00 ................
0040D6D0 00 00 00 00 00 00 00 00 00 00 00 00 00 00 00 00 ................
0040D6E0 00 00 00 00 00 00 00 00 00 00 00 00 00 00 00 00 ................
0040D6F0 00 00 00 00 00 00 00 00 00 00 00 00 00 00 00 00 ................
0040D700 00 00 00 00 00 00 00 00 00 00 00 00 00 00 00 00 ................
0040D710 00 00 00 00 00 00 00 00 00 00 00 00 00 00 00 00 ................
0040D720 00 00 00 00 00 00 00 00 00 00 00 00 00 00 00 00 ................
0040D730 00 00 00 00 00 00 00 00 00 00 00 00 00 00 00 00 ................
0040D740 00 00 00 00 00 00 00 00 00 00 00 00 00 00 00 00 ................
0040D750 00 00 00 00 00 00 00 00 00 00 00 00 00 00 00 00 ................
0040D760 00 00 00 00 00 00 00 00 00 00 00 00 00 00 00 00 ................
0040D770 00 00 00 00 00 00 00 00 00 00 00 00 00 00 00 00 ................
0040D780 00 00 00 00 00 00 00 00 00 00 00 00 00 00 00 00 ................
0040D790 00 00 00 00 00 00 00 00 00 00 00 00 00 00 00 00 ................
0040D7A0 00 00 00 00 00 00 00 00 00 00 00 00 00 00 00 00 ................
0040D7B0 00 00 00 00 00 00 00 00 00 00 00 00 00 00 00 00 ................
0040D7C0 00 00 00 00 00 00 00 00 00 00 00 00 00 00 00 00 ................
0040D7D0 00 00 00 00 00 00 00 00 00 00 00 00 00 00 00 00 ................
0040D7E0 00 00 00 00 00 00 00 00 00 00 00 00 00 00 00 00 ................
0040D7F0 00 00 00 00 00 00 00 00 00 00 00 00 00 00 00 00 ................
0040D800 00 00 00 00 00 00 00 00 00 00 00 00 00 00 00 00 ................
0040D810 00 00 00 00 00 00 00 00 00 00 00 00 00 00 00 00 ................
0040D820 00 00 00 00 00 00 00 00 00 00 00 00 00 00 00 00 ................
0040D830 00 00 00 00 00 00 00 00 00 00 00 00 00 00 00 00 ................
0040D840 00 00 00 00 00 00 00 00 00 00 00 00 00 00 00 00 ................
0040D850 00 00 00 00 00 00 00 00 00 00 00 00 00 00 00 00 ................
0040D860 00 00 00 00 00 00 00 00 00 00 00 00 00 00 00 00 ................
0040D870 00 00 00 00 00 00 00 00 00 00 00 00 00 00 00 00 ................
0040D880 00 00 00 00 00 00 00 00 00 00 00 00 00 00 00 00 ................
0040D890 00 00 00 00 00 00 00 00 00 00 00 00 00 00 00 00 ................
0040D8A0 00 00 00 00 00 00 00 00 00 00 00 00 00 00 00 00 ................
0040D8B0 00 00 00 00 00 00 00 00 00 00 00 00 00 00 00 00 ................
0040D8C0 00 00 00 00 00 00 00 00 00 00 00 00 00 00 00 00 ................
0040D8D0 00 00 00 00 00 00 00 00 00 00 00 00 00 00 00 00 ................
0040D8E0 00 00 00 00 00 00 00 00 00 00 00 00 00 00 00 00 ................
0040D8F0 00 00 00 00 00 00 00 00 00 00 00 00 00 00 00 00 ................
0040D900 00 00 00 00 00 00 00 00 00 00 00 00 00 00 00 00 ................
0040D910 00 00 00 00 00 00 00 00 00 00 00 00 00 00 00 00 ................
0040D920 00 00 00 00 00 00 00 00 00 00 00 00 00 00 00 00 ................
0040D930 00 00 00 00 00 00 00 00 00 00 00 00 00 00 00 00 ................
0040D940 00 00 00 00 00 00 00 00 00 00 00 00 00 00 00 00 ................
0040D950 00 00 00 00 00 00 00 00 00 00 00 00 00 00 00 00 ................
0040D960 00 00 00 00 00 00 00 00 00 00 00 00 00 00 00 00 ................
0040D970 00 00 00 00 00 00 00 00 00 00 00 00 00 00 00 00 ................
0040D980 00 00 00 00 00 00 00 00 00 00 00 00 00 00 00 00 ................
0040D990 00 00 00 00 00 00 00 00 00 00 00 00 00 00 00 00 ................
0040D9A0 00 00 00 00 00 00 00 00 00 00 00 00 00 00 00 00 ................
0040D9B0 00 00 00 00 00 00 00 00 00 00 00 00 00 00 00 00 ................
0040D9C0 00 00 00 00 00 00 00 00 00 00 00 00 00 00 00 00 ................
0040D9D0 00 00 00 00 00 00 00 00 00 00 00 00 00 00 00 00 ................
0040D9E0 00 00 00 00 00 00 00 00 00 00 00 00 00 00 00 00 ................
0040D9F0 00 00 00 00 00 00 00 00 00 00 00 00 00 00 00 00 ................
0040DA00 00 00 00 00 00 00 00 00 00 00 00 00 00 00 00 00 ................
0040DA10 00 00 00 00 00 00 00 00 00 00 00 00 00 00 00 00 ................
0040DA20 00 00 00 00 00 00 00 00 00 00 00 00 00 00 00 00 ................
0040DA30 00 00 00 00 00 00 00 00 00 00 00 00 00 00 00 00 ................
0040DA40 00 00 00 00 00 00 00 00 00 00 00 00 00 00 00 00 ................
0040DA50 00 00 00 00 00 00 00 00 00 00 00 00 00 00 00 00 ................
0040DA60 00 00 00 00 00 00 00 00 00 00 00 00 00 00 00 00 ................
0040DA70 00 00 00 00 00 00 00 00 00 00 00 00 00 00 00 00 ................
0040DA80 00 00 00 00 00 00 00 00 00 00 00 00 00 00 00 00 ................
0040DA90 00 00 00 00 00 00 00 00 00 00 00 00 00 00 00 00 ................
0040DAA0 00 00 00 00 00 00 00 00 00 00 00 00 00 00 00 00 ................
0040DAB0 00 00 00 00 00 00 00 00 00 00 00 00 00 00 00 00 ................
0040DAC0 00 00 00 00 00 00 00 00 00 00 00 00 00 00 00 00 ................
0040DAD0 00 00 00 00 00 00 00 00 00 00 00 00 00 00 00 00 ................
0040DAE0 00 00 00 00 00 00 00 00 00 00 00 00 00 00 00 00 ................
0040DAF0 00 00 00 00 00 00 00 00 00 00 00 00 00 00 00 00 ................
0040DB00 00 00 00 00 00 00 00 00 00 00 00 00 00 00 00 00 ................
0040DB10 00 00 00 00 00 00 00 00 00 00 00 00 00 00 00 00 ................
0040DB20 00 00 00 00 00 00 00 00 00 00 00 00 00 00 00 00 ................
0040DB30 00 00 00 00 00 00 00 00 00 00 00 00 00 00 00 00 ................
0040DB40 00 00 00 00 00 00 00 00 00 00 00 00 00 00 00 00 ................
0040DB50 00 00 00 00 00 00 00 00 00 00 00 00 00 00 00 00 ................
0040DB60 00 00 00 00 00 00 00 00 00 00 00 00 00 00 00 00 ................
0040DB70 00 00 00 00 00 00 00 00 00 00 00 00 00 00 00 00 ................
0040DB80 00 00 00 00 00 00 00 00 00 00 00 00 00 00 00 00 ................
0040DB90 00 00 00 00 00 00 00 00 00 00 00 00 00 00 00 00 ................
0040DBA0 00 00 00 00 00 00 00 00 00 00 00 00 00 00 00 00 ................
0040DBB0 00 00 00 00 00 00 00 00 00 00 00 00 00 00 00 00 ................
0040DBC0 00 00 00 00 00 00 00 00 00 00 00 00 00 00 00 00 ................
0040DBD0 00 00 00 00 00 00 00 00 00 00 00 00 00 00 00 00 ................
0040DBE0 00 00 00 00 00 00 00 00 00 00 00 00 00 00 00 00 ................
0040DBF0 00 00 00 00 00 00 00 00 00 00 00 00 00 00 00 00 ................
0040DC00 00 00 00 00 00 00 00 00 00 00 00 00 00 00 00 00 ................
0040DC10 00 00 00 00 00 00 00 00 00 00 00 00 00 00 00 00 ................
0040DC20 00 00 00 00 00 00 00 00 00 00 00 00 00 00 00 00 ................
0040DC30 00 00 00 00 00 00 00 00 00 00 00 00 00 00 00 00 ................
0040DC40 00 00 00 00 00 00 00 00 00 00 00 00 00 00 00 00 ................
0040DC50 00 00 00 00 00 00 00 00 00 00 00 00 00 00 00 00 ................
0040DC60 00 00 00 00 00 00 00 00 00 00 00 00 00 00 00 00 ................
0040DC70 00 00 00 00 00 00 00 00 00 00 00 00 00 00 00 00 ................
0040DC80 00 00 00 00 00 00 00 00 00 00 00 00 00 00 00 00 ................
0040DC90 00 00 00 00 00 00 00 00 00 00 00 00 00 00 00 00 ................
0040DCA0 00 00 00 00 00 00 00 00 00 00 00 00 00 00 00 00 ................
0040DCB0 00 00 00 00 00 00 00 00 00 00 00 00 00 00 00 00 ................
0040DCC0 00 00 00 00 00 00 00 00 00 00 00 00 00 00 00 00 ................
0040DCD0 00 00 00 00 00 00 00 00 00 00 00 00 00 00 00 00 ................
0040DCE0 00 00 00 00 00 00 00 00 00 00 00 00 00 00 00 00 ................
0040DCF0 00 00 00 00 00 00 00 00 00 00 00 00 00 00 00 00 ................
0040DD00 00 00 00 00 00 00 00 00 00 00 00 00 00 00 00 00 ................
0040DD10 00 00 00 00 00 00 00 00 00 00 00 00 00 00 00 00 ................
0040DD20 00 00 00 00 00 00 00 00 00 00 00 00 00 00 00 00 ................
0040DD30 00 00 00 00 00 00 00 00 00 00 00 00 00 00 00 00 ................
0040DD40 00 00 00 00 00 00 00 00 00 00 00 00 00 00 00 00 ................
0040DD50 00 00 00 00 00 00 00 00 00 00 00 00 00 00 00 00 ................
0040DD60 00 00 00 00 00 00 00 00 00 00 00 00 00 00 00 00 ................
0040DD70 00 00 00 00 00 00 00 00 00 00 00 00 00 00 00 00 ................
0040DD80 00 00 00 00 00 00 00 00 00 00 00 00 00 00 00 00 ................
0040DD90 00 00 00 00 00 00 00 00 00 00 00 00 00 00 00 00 ................
0040DDA0 00 00 00 00 00 00 00 00 00 00 00 00 00 00 00 00 ................
0040DDB0 00 00 00 00 00 00 00 00 00 00 00 00 00 00 00 00 ................
0040DDC0 00 00 00 00 00 00 00 00 00 00 00 00 00 00 00 00 ................
0040DDD0 00 00 00 00 00 00 00 00 00 00 00 00 00 00 00 00 ................
0040DDE0 00 00 00 00 00 00 00 00 00 00 00 00 00 00 00 00 ................
0040DDF0 00 00 00 00 00 00 00 00 00 00 00 00 00 00 00 00 ................
0040DE00 00 00 00 00 00 00 00 00 00 00 00 00 00 00 00 00 ................
0040DE10 00 00 00 00 00 00 00 00 00 00 00 00 00 00 00 00 ................
0040DE20 00 00 00 00 00 00 00 00 00 00 00 00 00 00 00 00 ................
0040DE30 00 00 00 00 00 00 00 00 00 00 00 00 00 00 00 00 ................
0040DE40 00 00 00 00 00 00 00 00 00 00 00 00 00 00 00 00 ................
0040DE50 00 00 00 00 00 00 00 00 00 00 00 00 00 00 00 00 ................
0040DE60 00 00 00 00 00 00 00 00 00 00 00 00 00 00 00 00 ................
0040DE70 00 00 00 00 00 00 00 00 00 00 00 00 00 00 00 00 ................
0040DE80 00 00 00 00 00 00 00 00 00 00 00 00 00 00 00 00 ................
0040DE90 00 00 00 00 00 00 00 00 00 00 00 00 00 00 00 00 ................
0040DEA0 00 00 00 00 00 00 00 00 00 00 00 00 00 00 00 00 ................
0040DEB0 00 00 00 00 00 00 00 00 00 00 00 00 00 00 00 00 ................
0040DEC0 00 00 00 00 00 00 00 00 00 00 00 00 00 00 00 00 ................
0040DED0 00 00 00 00 00 00 00 00 00 00 00 00 00 00 00 00 ................
0040DEE0 00 00 00 00 00 00 00 00 00 00 00 00 00 00 00 00 ................
0040DEF0 00 00 00 00 00 00 00 00 00 00 00 00 00 00 00 00 ................
0040DF00 00 00 00 00 00 00 00 00 00 00 00 00 00 00 00 00 ................
0040DF10 00 00 00 00 00 00 00 00 00 00 00 00 00 00 00 00 ................
0040DF20 00 00 00 00 00 00 00 00 00 00 00 00 00 00 00 00 ................
0040DF30 00 00 00 00 00 00 00 00 00 00 00 00 00 00 00 00 ................
0040DF40 00 00 00 00 00 00 00 00 00 00 00 00 00 00 00 00 ................
0040DF50 00 00 00 00 00 00 00 00 00 00 00 00 00 00 00 00 ................
0040DF60 00 00 00 00 00 00 00 00 00 00 00 00 00 00 00 00 ................
0040DF70 00 00 00 00 00 00 00 00 00 00 00 00 00 00 00 00 ................
0040DF80 00 00 00 00 00 00 00 00 00 00 00 00 00 00 00 00 ................
0040DF90 00 00 00 00 00 00 00 00 00 00 00 00 00 00 00 00 ................
0040DFA0 00 00 00 00 00 00 00 00 00 00 00 00 00 00 00 00 ................
0040DFB0 00 00 00 00 00 00 00 00 00 00 00 00 00 00 00 00 ................
0040DFC0 00 00 00 00 00 00 00 00 00 00 00 00 00 00 00 00 ................
0040DFD0 00 00 00 00 00 00 00 00 00 00 00 00 00 00 00 00 ................
0040DFE0 00 00 00 00 00 00 00 00 00 00 00 00 00 00 00 00 ................
0040DFF0 00 00 00 00 00 00 00 00 00 00 00 00 00 00 00 00 ................
0040E000 00 00 00 00 00 00 00 00 00 00 00 00 00 00 00 00 ................
0040E010 00 00 00 00 00 00 00 00 00 00 00 00 00 00 00 00 ................
0040E020 00 00 00 00 00 00 00 00 00 00 00 00 00 00 00 00 ................
0040E030 00 00 00 00 00 00 00 00 00 00 00 00 00 00 00 00 ................
0040E040 00 00 00 00 00 00 00 00 00 00 00 00 00 00 00 00 ................
0040E050 00 00 00 00 00 00 00 00 00 00 00 00 00 00 00 00 ................
0040E060 00 00 00 00 00 00 00 00 00 00 00 00 00 00 00 00 ................
0040E070 00 00 00 00 00 00 00 00 00 00 00 00 00 00 00 00 ................
0040E080 00 00 00 00 00 00 00 00 00 00 00 00 00 00 00 00 ................
0040E090 00 00 00 00 00 00 00 00 00 00 00 00 00 00 00 00 ................
0040E0A0 00 00 00 00 00 00 00 00 00 00 00 00 00 00 00 00 ................
0040E0B0 00 00 00 00 00 00 00 00 00 00 00 00 00 00 00 00 ................
0040E0C0 00 00 00 00 00 00 00 00 00 00 00 00 00 00 00 00 ................
0040E0D0 00 00 00 00 00 00 00 00 00 00 00 00 00 00 00 00 ................
0040E0E0 00 00 00 00 00 00 00 00 00 00 00 00 00 00 00 00 ................
0040E0F0 00 00 00 00 00 00 00 00 00 00 00 00 00 00 00 00 ................
0040E100 00 00 00 00 00 00 00 00 00 00 00 00 00 00 00 00 ................
0040E110 00 00 00 00 00 00 00 00 00 00 00 00 00 00 00 00 ................
0040E120 00 00 00 00 00 00 00 00 00 00 00 00 00 00 00 00 ................
0040E130 00 00 00 00 00 00 00 00 00 00 00 00 00 00 00 00 ................
0040E140 00 00 00 00 00 00 00 00 00 00 00 00 00 00 00 00 ................
0040E150 00 00 00 00 00 00 00 00 00 00 00 00 00 00 00 00 ................
0040E160 00 00 00 00 00 00 00 00 00 00 00 00 00 00 00 00 ................
0040E170 00 00 00 00 00 00 00 00 00 00 00 00 00 00 00 00 ................
0040E180 00 00 00 00 00 00 00 00 00 00 00 00 00 00 00 00 ................
0040E190 00 00 00 00 00 00 00 00 00 00 00 00 00 00 00 00 ................
0040E1A0 00 00 00 00 00 00 00 00 00 00 00 00 00 00 00 00 ................
0040E1B0 00 00 00 00 00 00 00 00 00 00 00 00 00 00 00 00 ................
0040E1C0 00 00 00 00 00 00 00 00 00 00 00 00 00 00 00 00 ................
0040E1D0 00 00 00 00 00 00 00 00 00 00 00 00 00 00 00 00 ................
0040E1E0 00 00 00 00 00 00 00 00 00 00 00 00 00 00 00 00 ................
0040E1F0 00 00 00 00 00 00 00 00 00 00 00 00 00 00 00 00 ................
0040E200 00 00 00 00 00 00 00 00 00 00 00 00 00 00 00 00 ................
0040E210 00 00 00 00 00 00 00 00 00 00 00 00 00 00 00 00 ................
0040E220 00 00 00 00 00 00 00 00 00 00 00 00 00 00 00 00 ................
0040E230 00 00 00 00 00 00 00 00 00 00 00 00 00 00 00 00 ................
0040E240 00 00 00 00 00 00 00 00 00 00 00 00 00 00 00 00 ................
0040E250 00 00 00 00 00 00 00 00 00 00 00 00 00 00 00 00 ................
0040E260 00 00 00 00 00 00 00 00 00 00 00 00 00 00 00 00 ................
0040E270 00 00 00 00 00 00 00 00 00 00 00 00 00 00 00 00 ................
0040E280 00 00 00 00 00 00 00 00 00 00 00 00 00 00 00 00 ................
0040E290 00 00 00 00 00 00 00 00 00 00 00 00 00 00 00 00 ................
0040E2A0 00 00 00 00 00 00 00 00 00 00 00 00 00 00 00 00 ................
0040E2B0 00 00 00 00 00 00 00 00 00 00 00 00 00 00 00 00 ................
0040E2C0 00 00 00 00 00 00 00 00 00 00 00 00 00 00 00 00 ................
0040E2D0 00 00 00 00 00 00 00 00 00 00 00 00 00 00 00 00 ................
0040E2E0 00 00 00 00 00 00 00 00 00 00 00 00 00 00 00 00 ................
0040E2F0 00 00 00 00 00 00 00 00 00 00 00 00 00 00 00 00 ................
0040E300 00 00 00 00 00 00 00 00 00 00 00 00 00 00 00 00 ................
0040E310 00 00 00 00 00 00 00 00 00 00 00 00 00 00 00 00 ................
0040E320 00 00 00 00 00 00 00 00 00 00 00 00 00 00 00 00 ................
0040E330 00 00 00 00 00 00 00 00 00 00 00 00 00 00 00 00 ................
0040E340 00 00 00 00 00 00 00 00 00 00 00 00 00 00 00 00 ................
0040E350 00 00 00 00 00 00 00 00 00 00 00 00 00 00 00 00 ................
0040E360 00 00 00 00 00 00 00 00 00 00 00 00 00 00 00 00 ................
0040E370 00 00 00 00 00 00 00 00 00 00 00 00 00 00 00 00 ................
0040E380 00 00 00 00 00 00 00 00 00 00 00 00 00 00 00 00 ................
0040E390 00 00 00 00 00 00 00 00 00 00 00 00 00 00 00 00 ................
0040E3A0 00 00 00 00 00 00 00 00 00 00 00 00 00 00 00 00 ................
0040E3B0 00 00 00 00 00 00 00 00 00 00 00 00 00 00 00 00 ................
0040E3C0 00 00 00 00 00 00 00 00 00 00 00 00 00 00 00 00 ................
0040E3D0 00 00 00 00 00 00 00 00 00 00 00 00 00 00 00 00 ................
0040E3E0 00 00 00 00 00 00 00 00 00 00 00 00 00 00 00 00 ................
0040E3F0 00 00 00 00 00 00 00 00 00 00 00 00 00 00 00 00 ................
0040E400 00 00 00 00 00 00 00 00 00 00 00 00 00 00 00 00 ................
0040E410 00 00 00 00 00 00 00 00 00 00 00 00 00 00 00 00 ................
0040E420 00 00 00 00 00 00 00 00 00 00 00 00 00 00 00 00 ................
0040E430 00 00 00 00 00 00 00 00 00 00 00 00 00 00 00 00 ................
0040E440 00 00 00 00 00 00 00 00 00 00 00 00 00 00 00 00 ................
0040E450 00 00 00 00 00 00 00 00 00 00 00 00 00 00 00 00 ................
0040E460 00 00 00 00 00 00 00 00 00 00 00 00 00 00 00 00 ................
0040E470 00 00 00 00 00 00 00 00 00 00 00 00 00 00 00 00 ................
0040E480 00 00 00 00 00 00 00 00 00 00 00 00 00 00 00 00 ................
0040E490 00 00 00 00 00 00 00 00 00 00 00 00 00 00 00 00 ................
0040E4A0 00 00 00 00 00 00 00 00 00 00 00 00 00 00 00 00 ................
0040E4B0 00 00 00 00 00 00 00 00 00 00 00 00 00 00 00 00 ................
0040E4C0 00 00 00 00 00 00 00 00 00 00 00 00 00 00 00 00 ................
0040E4D0 00 00 00 00 00 00 00 00 00 00 00 00 00 00 00 00 ................
0040E4E0 00 00 00 00 00 00 00 00 00 00 00 00 00 00 00 00 ................
0040E4F0 00 00 00 00 00 00 00 00 00 00 00 00 00 00 00 00 ................
0040E500 00 00 00 00 00 00 00 00 00 00 00 00 00 00 00 00 ................
0040E510 00 00 00 00 00 00 00 00 00 00 00 00 00 00 00 00 ................
0040E520 00 00 00 00 00 00 00 00 00 00 00 00 00 00 00 00 ................
0040E530 00 00 00 00 00 00 00 00 00 00 00 00 00 00 00 00 ................
0040E540 00 00 00 00 00 00 00 00 00 00 00 00 00 00 00 00 ................
0040E550 00 00 00 00 00 00 00 00 00 00 00 00 00 00 00 00 ................
0040E560 00 00 00 00 00 00 00 00 00 00 00 00 00 00 00 00 ................
0040E570 00 00 00 00 00 00 00 00 00 00 00 00 00 00 00 00 ................
0040E580 00 00 00 00 00 00 00 00 00 00 00 00 00 00 00 00 ................
0040E590 00 00 00 00 00 00 00 00 00 00 00 00 00 00 00 00 ................
0040E5A0 00 00 00 00 00 00 00 00 00 00 00 00 00 00 00 00 ................
0040E5B0 00 00 00 00 00 00 00 00 00 00 00 00 00 00 00 00 ................
0040E5C0 00 00 00 00 00 00 00 00 00 00 00 00 00 00 00 00 ................
0040E5D0 00 00 00 00 00 00 00 00 00 00 00 00 00 00 00 00 ................
0040E5E0 00 00 00 00 00 00 00 00 00 00 00 00 00 00 00 00 ................
0040E5F0 00 00 00 00 00 00 00 00 00 00 00 00 00 00 00 00 ................
0040E600 00 00 00 00 00 00 00 00 00 00 00 00 00 00 00 00 ................
0040E610 00 00 00 00 00 00 00 00 00 00 00 00 00 00 00 00 ................
0040E620 00 00 00 00 00 00 00 00 00 00 00 00 00 00 00 00 ................
0040E630 00 00 00 00 00 00 00 00 00 00 00 00 00 00 00 00 ................
0040E640 00 00 00 00 00 00 00 00 00 00 00 00 00 00 00 00 ................
0040E650 00 00 00 00 00 00 00 00 00 00 00 00 00 00 00 00 ................
0040E660 00 00 00 00 00 00 00 00 00 00 00 00 00 00 00 00 ................
0040E670 00 00 00 00 00 00 00 00 00 00 00 00 00 00 00 00 ................
0040E680 00 00 00 00 00 00 00 00 00 00 00 00 00 00 00 00 ................
0040E690 00 00 00 00 00 00 00 00 00 00 00 00 00 00 00 00 ................
0040E6A0 00 00 00 00 00 00 00 00 00 00 00 00 00 00 00 00 ................
0040E6B0 00 00 00 00 00 00 00 00 00 00 00 00 00 00 00 00 ................
0040E6C0 00 00 00 00 00 00 00 00 00 00 00 00 00 00 00 00 ................
0040E6D0 00 00 00 00 00 00 00 00 00 00 00 00 00 00 00 00 ................
0040E6E0 00 00 00 00 00 00 00 00 00 00 00 00 00 00 00 00 ................
0040E6F0 00 00 00 00 00 00 00 00 00 00 00 00 00 00 00 00 ................
0040E700 00 00 00 00 00 00 00 00 00 00 00 00 00 00 00 00 ................
0040E710 00 00 00 00 00 00 00 00 00 00 00 00 00 00 00 00 ................
0040E720 00 00 00 00 00 00 00 00 00 00 00 00 00 00 00 00 ................
0040E730 00 00 00 00 00 00 00 00 00 00 00 00 00 00 00 00 ................
0040E740 00 00 00 00 00 00 00 00 00 00 00 00 00 00 00 00 ................
0040E750 00 00 00 00 00 00 00 00 00 00 00 00 00 00 00 00 ................
0040E760 00 00 00 00 00 00 00 00 00 00 00 00 00 00 00 00 ................
0040E770 00 00 00 00 00 00 00 00 00 00 00 00 00 00 00 00 ................
0040E780 00 00 00 00 00 00 00 00 00 00 00 00 00 00 00 00 ................
0040E790 00 00 00 00 00 00 00 00 00 00 00 00 00 00 00 00 ................
0040E7A0 00 00 00 00 00 00 00 00 00 00 00 00 00 00 00 00 ................
0040E7B0 00 00 00 00 00 00 00 00 00 00 00 00 00 00 00 00 ................
0040E7C0 00 00 00 00 00 00 00 00 00 00 00 00 00 00 00 00 ................
0040E7D0 00 00 00 00 00 00 00 00 00 00 00 00 00 00 00 00 ................
0040E7E0 00 00 00 00 00 00 00 00 00 00 00 00 00 00 00 00 ................
0040E7F0 00 00 00 00 00 00 00 00 00 00 00 00 00 00 00 00 ................
0040E800 00 00 00 00 00 00 00 00 00 00 00 00 00 00 00 00 ................
0040E810 00 00 00 00 00 00 00 00 00 00 00 00 00 00 00 00 ................
0040E820 00 00 00 00 00 00 00 00 00 00 00 00 00 00 00 00 ................
0040E830 00 00 00 00 00 00 00 00 00 00 00 00 00 00 00 00 ................
0040E840 00 00 00 00 00 00 00 00 00 00 00 00 00 00 00 00 ................
0040E850 00 00 00 00 00 00 00 00 00 00 00 00 00 00 00 00 ................
0040E860 00 00 00 00 00 00 00 00 00 00 00 00 00 00 00 00 ................
0040E870 00 00 00 00 00 00 00 00 00 00 00 00 00 00 00 00 ................
0040E880 00 00 00 00 00 00 00 00 00 00 00 00 00 00 00 00 ................
0040E890 00 00 00 00 00 00 00 00 00 00 00 00 00 00 00 00 ................
0040E8A0 00 00 00 00 00 00 00 00 00 00 00 00 00 00 00 00 ................
0040E8B0 00 00 00 00 00 00 00 00 00 00 00 00 00 00 00 00 ................
0040E8C0 00 00 00 00 00 00 00 00 00 00 00 00 00 00 00 00 ................
0040E8D0 00 00 00 00 00 00 00 00 00 00 00 00 00 00 00 00 ................
0040E8E0 00 00 00 00 00 00 00 00 00 00 00 00 00 00 00 00 ................
0040E8F0 00 00 00 00 00 00 00 00 00 00 00 00 00 00 00 00 ................
0040E900 00 00 00 00 00 00 00 00 00 00 00 00 00 00 00 00 ................
0040E910 00 00 00 00 00 00 00 00 00 00 00 00 00 00 00 00 ................
0040E920 00 00 00 00 00 00 00 00 00 00 00 00 00 00 00 00 ................
0040E930 00 00 00 00 00 00 00 00 00 00 00 00 00 00 00 00 ................
0040E940 00 00 00 00 00 00 00 00 00 00 00 00 00 00 00 00 ................
0040E950 00 00 00 00 00 00 00 00 00 00 00 00 00 00 00 00 ................
0040E960 00 00 00 00 00 00 00 00 00 00 00 00 00 00 00 00 ................
0040E970 00 00 00 00 00 00 00 00 00 00 00 00 00 00 00 00 ................
0040E980 00 00 00 00 00 00 00 00 00 00 00 00 00 00 00 00 ................
0040E990 00 00 00 00 00 00 00 00 00 00 00 00 00 00 00 00 ................
0040E9A0 00 00 00 00 00 00 00 00 00 00 00 00 00 00 00 00 ................
0040E9B0 00 00 00 00 00 00 00 00 00 00 00 00 00 00 00 00 ................
0040E9C0 00 00 00 00 00 00 00 00 00 00 00 00 00 00 00 00 ................
0040E9D0 00 00 00 00 00 00 00 00 00 00 00 00 00 00 00 00 ................
0040E9E0 00 00 00 00 00 00 00 00 00 00 00 00 00 00 00 00 ................
0040E9F0 00 00 00 00 00 00 00 00 00 00 00 00 00 00 00 00 ................
0040EA00 00 00 00 00 00 00 00 00 00 00 00 00 00 00 00 00 ................
0040EA10 00 00 00 00 00 00 00 00 00 00 00 00 00 00 00 00 ................
0040EA20 00 00 00 00 00 00 00 00 00 00 00 00 00 00 00 00 ................
0040EA30 00 00 00 00 00 00 00 00 00 00 00 00 00 00 00 00 ................
0040EA40 00 00 00 00 00 00 00 00 00 00 00 00 00 00 00 00 ................
0040EA50 00 00 00 00 00 00 00 00 00 00 00 00 00 00 00 00 ................
0040EA60 00 00 00 00 00 00 00 00 00 00 00 00 00 00 00 00 ................
0040EA70 00 00 00 00 00 00 00 00 00 00 00 00 00 00 00 00 ................
0040EA80 00 00 00 00 00 00 00 00 00 00 00 00 00 00 00 00 ................
0040EA90 00 00 00 00 00 00 00 00 00 00 00 00 00 00 00 00 ................
0040EAA0 00 00 00 00 00 00 00 00 00 00 00 00 00 00 00 00 ................
0040EAB0 00 00 00 00 00 00 00 00 00 00 00 00 00 00 00 00 ................
0040EAC0 00 00 00 00 00 00 00 00 00 00 00 00 00 00 00 00 ................
0040EAD0 00 00 00 00 00 00 00 00 00 00 00 00 00 00 00 00 ................
0040EAE0 00 00 00 00 00 00 00 00 00 00 00 00 00 00 00 00 ................
0040EAF0 00 00 00 00 00 00 00 00 00 00 00 00 00 00 00 00 ................
0040EB00 00 00 00 00 00 00 00 00 00 00 00 00 00 00 00 00 ................
0040EB10 00 00 00 00 00 00 00 00 00 00 00 00 00 00 00 00 ................
0040EB20 00 00 00 00 00 00 00 00 00 00 00 00 00 00 00 00 ................
0040EB30 00 00 00 00 00 00 00 00 00 00 00 00 00 00 00 00 ................
0040EB40 00 00 00 00 00 00 00 00 00 00 00 00 00 00 00 00 ................
0040EB50 00 00 00 00 00 00 00 00 00 00 00 00 00 00 00 00 ................
0040EB60 00 00 00 00 00 00 00 00 00 00 00 00 00 00 00 00 ................
0040EB70 00 00 00 00 00 00 00 00 00 00 00 00 00 00 00 00 ................
0040EB80 00 00 00 00 00 00 00 00 00 00 00 00 00 00 00 00 ................
0040EB90 00 00 00 00 00 00 00 00 00 00 00 00 00 00 00 00 ................
0040EBA0 00 00 00 00 00 00 00 00 00 00 00 00 00 00 00 00 ................
0040EBB0 00 00 00 00 00 00 00 00 00 00 00 00 00 00 00 00 ................
0040EBC0 00 00 00 00 00 00 00 00 00 00 00 00 00 00 00 00 ................
0040EBD0 00 00 00 00 00 00 00 00 00 00 00 00 00 00 00 00 ................
0040EBE0 00 00 00 00 00 00 00 00 00 00 00 00 00 00 00 00 ................
0040EBF0 00 00 00 00 00 00 00 00 00 00 00 00 00 00 00 00 ................
0040EC00 00 00 00 00 00 00 00 00 00 00 00 00 00 00 00 00 ................
0040EC10 00 00 00 00 00 00 00 00 00 00 00 00 00 00 00 00 ................
0040EC20 00 00 00 00 00 00 00 00 00 00 00 00 00 00 00 00 ................
0040EC30 00 00 00 00 00 00 00 00 00 00 00 00 00 00 00 00 ................
0040EC40 00 00 00 00 00 00 00 00 00 00 00 00 00 00 00 00 ................
0040EC50 00 00 00 00 00 00 00 00 00 00 00 00 00 00 00 00 ................
0040EC60 00 00 00 00 00 00 00 00 00 00 00 00 00 00 00 00 ................
0040EC70 00 00 00 00 00 00 00 00 00 00 00 00 00 00 00 00 ................
0040EC80 00 00 00 00 00 00 00 00 00 00 00 00 00 00 00 00 ................
0040EC90 00 00 00 00 00 00 00 00 00 00 00 00 00 00 00 00 ................
0040ECA0 00 00 00 00 00 00 00 00 00 00 00 00 00 00 00 00 ................
0040ECB0 00 00 00 00 00 00 00 00 00 00 00 00 00 00 00 00 ................
0040ECC0 00 00 00 00 00 00 00 00 00 00 00 00 00 00 00 00 ................
0040ECD0 00 00 00 00 00 00 00 00 00 00 00 00 00 00 00 00 ................
0040ECE0 00 00 00 00 00 00 00 00 00 00 00 00 00 00 00 00 ................
0040ECF0 00 00 00 00 00 00 00 00 00 00 00 00 00 00 00 00 ................
0040ED00 00 00 00 00 00 00 00 00 00 00 00 00 00 00 00 00 ................
0040ED10 00 00 00 00 00 00 00 00 00 00 00 00 00 00 00 00 ................
0040ED20 00 00 00 00 00 00 00 00 00 00 00 00 00 00 00 00 ................
0040ED30 00 00 00 00 00 00 00 00 00 00 00 00 00 00 00 00 ................
0040ED40 00 00 00 00 00 00 00 00 00 00 00 00 00 00 00 00 ................
0040ED50 00 00 00 00 00 00 00 00 00 00 00 00 00 00 00 00 ................
0040ED60 00 00 00 00 00 00 00 00 00 00 00 00 00 00 00 00 ................
0040ED70 00 00 00 00 00 00 00 00 00 00 00 00 00 00 00 00 ................
0040ED80 00 00 00 00 00 00 00 00 00 00 00 00 00 00 00 00 ................
0040ED90 00 00 00 00 00 00 00 00 00 00 00 00 00 00 00 00 ................
0040EDA0 00 00 00 00 00 00 00 00 00 00 00 00 00 00 00 00 ................
0040EDB0 00 00 00 00 00 00 00 00 00 00 00 00 00 00 00 00 ................
0040EDC0 00 00 00 00 00 00 00 00 00 00 00 00 00 00 00 00 ................
0040EDD0 00 00 00 00 00 00 00 00 00 00 00 00 00 00 00 00 ................
0040EDE0 00 00 00 00 00 00 00 00 00 00 00 00 00 00 00 00 ................
0040EDF0 00 00 00 00 00 00 00 00 00 00 00 00 00 00 00 00 ................
0040EE00 00 00 00 00 00 00 00 00 00 00 00 00 00 00 00 00 ................
0040EE10 00 00 00 00 00 00 00 00 00 00 00 00 00 00 00 00 ................
0040EE20 00 00 00 00 00 00 00 00 00 00 00 00 00 00 00 00 ................
0040EE30 00 00 00 00 00 00 00 00 00 00 00 00 00 00 00 00 ................
0040EE40 00 00 00 00 00 00 00 00 00 00 00 00 00 00 00 00 ................
0040EE50 00 00 00 00 00 00 00 00 00 00 00 00 00 00 00 00 ................
0040EE60 00 00 00 00 00 00 00 00 00 00 00 00 00 00 00 00 ................
0040EE70 00 00 00 00 00 00 00 00 00 00 00 00 00 00 00 00 ................
0040EE80 00 00 00 00 00 00 00 00 00 00 00 00 00 00 00 00 ................
0040EE90 00 00 00 00 00 00 00 00 00 00 00 00 00 00 00 00 ................
0040EEA0 00 00 00 00 00 00 00 00 00 00 00 00 00 00 00 00 ................
0040EEB0 00 00 00 00 00 00 00 00 00 00 00 00 00 00 00 00 ................
0040EEC0 00 00 00 00 00 00 00 00 00 00 00 00 00 00 00 00 ................
0040EED0 00 00 00 00 00 00 00 00 00 00 00 00 00 00 00 00 ................
0040EEE0 00 00 00 00 00 00 00 00 00 00 00 00 00 00 00 00 ................
0040EEF0 00 00 00 00 00 00 00 00 00 00 00 00 00 00 00 00 ................
0040EF00 00 00 00 00 00 00 00 00 00 00 00 00 00 00 00 00 ................
0040EF10 00 00 00 00 00 00 00 00 00 00 00 00 00 00 00 00 ................
0040EF20 00 00 00 00 00 00 00 00 00 00 00 00 00 00 00 00 ................
0040EF30 00 00 00 00 00 00 00 00 00 00 00 00 00 00 00 00 ................
0040EF40 00 00 00 00 00 00 00 00 00 00 00 00 00 00 00 00 ................
0040EF50 00 00 00 00 00 00 00 00 00 00 00 00 00 00 00 00 ................
0040EF60 00 00 00 00 00 00 00 00 00 00 00 00 00 00 00 00 ................
0040EF70 00 00 00 00 00 00 00 00 00 00 00 00 00 00 00 00 ................
0040EF80 00 00 00 00 00 00 00 00 00 00 00 00 00 00 00 00 ................
0040EF90 00 00 00 00 00 00 00 00 00 00 00 00 00 00 00 00 ................
0040EFA0 00 00 00 00 00 00 00 00 00 00 00 00 00 00 00 00 ................
0040EFB0 00 00 00 00 00 00 00 00 00 00 00 00 00 00 00 00 ................
0040EFC0 00 00 00 00 00 00 00 00 00 00 00 00 00 00 00 00 ................
0040EFD0 00 00 00 00 00 00 00 00 00 00 00 00 00 00 00 00 ................
0040EFE0 00 00 00 00 00 00 00 00 00 00 00 00 00 00 00 00 ................
0040EFF0 00 00 00 00 00 00 00 00 00 00 00 00 00 00 00 00 ................
0040F000 68 F2 00 00 7C F2 00 00 8E F2 00 00 9A F2 00 00 h...|...........
0040F010 A4 F2 00 00 B2 F2 00 00 C4 F2 00 00 D4 F2 00 00 ................
0040F020 EA F2 00 00 F8 F2 00 00 08 F3 00 00 1E F3 00 00 ................
0040F030 2C F3 00 00 3E F3 00 00 4E F3 00 00 66 F3 00 00 ,...>...N...f...
0040F040 72 F3 00 00 7E F3 00 00 9C F3 00 00 AA F3 00 00 r...~...........
0040F050 C2 F3 00 00 D2 F3 00 00 E0 F3 00 00 EE F3 00 00 ................
0040F060 06 F4 00 00 00 00 00 00 24 F4 00 00 34 F4 00 00 ........$...4...
0040F070 42 F4 00 00 56 F4 00 00 66 F4 00 00 72 F4 00 00 B...V...f...r...
0040F080 7E F4 00 00 92 F4 00 00 A8 F4 00 00 B4 F4 00 00 ~...............
0040F090 C4 F4 00 00 D0 F4 00 00 DC F4 00 00 EC F4 00 00 ................
0040F0A0 FE F4 00 00 0A F5 00 00 1C F5 00 00 28 F5 00 00 ............(...
0040F0B0 34 F5 00 00 46 F5 00 00 5A F5 00 00 70 F5 00 00 4...F...Z...p...
0040F0C0 7E F5 00 00 8A F5 00 00 9C F5 00 00 B2 F5 00 00 ~...............
0040F0D0 C0 F5 00 00 D2 F5 00 00 DA F5 00 00 EA F5 00 00 ................
0040F0E0 F8 F5 00 00 06 F6 00 00 12 F6 00 00 1E F6 00 00 ................
0040F0F0 2C F6 00 00 3A F6 00 00 44 F6 00 00 50 F6 00 00 ,...:...D...P...
0040F100 5C F6 00 00 68 F6 00 00 7A F6 00 00 86 F6 00 00 \...h...z.......
0040F110 00 00 00 00 00 00 00 00 54 F1 00 00 00 00 00 00 ........T.......
0040F120 00 00 00 00 16 F4 00 00 00 F0 00 00 BC F1 00 00 ................
0040F130 00 00 00 00 00 00 00 00 94 F6 00 00 68 F0 00 00 ............h...
0040F140 00 00 00 00 00 00 00 00 00 00 00 00 00 00 00 00 ................
0040F150 00 00 00 00 68 F2 00 00 7C F2 00 00 8E F2 00 00 ....h...|.......
0040F160 9A F2 00 00 A4 F2 00 00 B2 F2 00 00 C4 F2 00 00 ................
0040F170 D4 F2 00 00 EA F2 00 00 F8 F2 00 00 08 F3 00 00 ................
0040F180 1E F3 00 00 2C F3 00 00 3E F3 00 00 4E F3 00 00 ....,...>...N...
0040F190 66 F3 00 00 72 F3 00 00 7E F3 00 00 9C F3 00 00 f...r...~.......
0040F1A0 AA F3 00 00 C2 F3 00 00 D2 F3 00 00 E0 F3 00 00 ................
0040F1B0 EE F3 00 00 06 F4 00 00 00 00 00 00 24 F4 00 00 ............$...
0040F1C0 34 F4 00 00 42 F4 00 00 56 F4 00 00 66 F4 00 00 4...B...V...f...
0040F1D0 72 F4 00 00 7E F4 00 00 92 F4 00 00 A8 F4 00 00 r...~...........
0040F1E0 B4 F4 00 00 C4 F4 00 00 D0 F4 00 00 DC F4 00 00 ................
0040F1F0 EC F4 00 00 FE F4 00 00 0A F5 00 00 1C F5 00 00 ................
0040F200 28 F5 00 00 34 F5 00 00 46 F5 00 00 5A F5 00 00 (...4...F...Z...
0040F210 70 F5 00 00 7E F5 00 00 8A F5 00 00 9C F5 00 00 p...~...........
0040F220 B2 F5 00 00 C0 F5 00 00 D2 F5 00 00 DA F5 00 00 ................
0040F230 EA F5 00 00 F8 F5 00 00 06 F6 00 00 12 F6 00 00 ................
0040F240 1E F6 00 00 2C F6 00 00 3A F6 00 00 44 F6 00 00 ....,...:...D...
0040F250 50 F6 00 00 5C F6 00 00 68 F6 00 00 7A F6 00 00 P...\...h...z...
0040F260 86 F6 00 00 00 00 00 00 03 00 47 65 74 4D 6F 64 ..........GetMod
0040F270 75 6C 65 48 61 6E 64 6C 65 41 00 00 04 00 47 65 uleHandleA....Ge
0040F280 74 50 72 6F 63 65 73 73 48 65 61 70 00 00 05 00 tProcessHeap....
0040F290 48 65 61 70 46 72 65 65 00 00 08 00 47 65 74 41 HeapFree....GetA
0040F2A0 43 50 00 00 09 00 48 65 61 70 52 65 41 6C 6C 6F CP....HeapReAllo
0040F2B0 63 00 0E 00 47 65 74 53 74 61 72 74 75 70 49 6E c...GetStartupIn
0040F2C0 66 6F 57 00 13 00 56 69 72 74 75 61 6C 41 6C 6C foW...VirtualAll
0040F2D0 6F 63 00 00 19 00 47 65 74 43 75 72 72 65 6E 74 oc....GetCurrent
0040F2E0 54 68 72 65 61 64 49 64 00 00 1E 00 45 78 69 74 ThreadId....Exit
0040F2F0 50 72 6F 63 65 73 73 00 23 00 56 69 72 74 75 61 Process.#.Virtua
0040F300 6C 41 6C 6C 6F 63 00 00 29 00 57 69 64 65 43 68 lAlloc..).WideCh
0040F310 61 72 54 6F 4D 75 6C 74 69 42 79 74 65 00 2C 00 arToMultiByte.,.
0040F320 48 65 61 70 44 65 73 74 72 6F 79 00 32 00 47 65 HeapDestroy.2.Ge
0040F330 74 43 6F 6D 6D 61 6E 64 4C 69 6E 65 41 00 33 00 tCommandLineA.3.
0040F340 47 65 74 4C 61 73 74 45 72 72 6F 72 00 00 34 00 GetLastError..4.
0040F350 49 6E 74 65 72 6C 6F 63 6B 65 64 44 65 63 72 65 InterlockedDecre
0040F360 6D 65 6E 74 00 00 37 00 48 65 61 70 41 6C 6C 6F ment..7.HeapAllo
0040F370 63 00 3D 00 48 65 61 70 46 72 65 65 00 00 43 00 c.=.HeapFree..C.
0040F380 53 65 74 55 6E 68 61 6E 64 6C 65 64 45 78 63 65 SetUnhandledExce
0040F390 70 74 69 6F 6E 46 69 6C 74 65 72 00 45 00 45 78 ptionFilter.E.Ex
0040F3A0 69 74 50 72 6F 63 65 73 73 00 49 00 49 6E 74 65 itProcess.I.Inte
0040F3B0 72 6C 6F 63 6B 65 64 44 65 63 72 65 6D 65 6E 74 rlockedDecrement
0040F3C0 00 00 4E 00 47 65 74 56 65 72 73 69 6F 6E 45 78 ..N.GetVersionEx
0040F3D0 41 00 54 00 46 72 65 65 4C 69 62 72 61 72 79 00 A.T.FreeLibrary.
0040F3E0 57 00 46 72 65 65 4C 69 62 72 61 72 79 00 5C 00 W.FreeLibrary.\.
0040F3F0 44 65 6C 65 74 65 43 72 69 74 69 63 61 6C 53 65 DeleteCriticalSe
0040F400 63 74 69 6F 6E 00 60 00 53 65 74 4C 61 73 74 45 ction.`.SetLastE
0040F410 72 72 6F 72 00 00 4B 45 52 4E 45 4C 33 32 2E 44 rror..KERNEL32.D
0040F420 4C 4C 00 00 11 00 45 6E 61 62 6C 65 57 69 6E 64 LL....EnableWind
0040F430 6F 77 00 00 14 00 47 65 74 4B 65 79 53 74 61 74 ow....GetKeyStat
0040F440 65 00 17 00 44 69 73 70 61 74 63 68 4D 65 73 73 e...DispatchMess
0040F450 61 67 65 41 00 00 1A 00 47 65 74 57 69 6E 64 6F ageA....GetWindo
0040F460 77 52 65 63 74 00 1C 00 49 73 57 69 6E 64 6F 77 wRect...IsWindow
0040F470 00 00 1D 00 46 69 6C 6C 52 65 63 74 00 00 1E 00 ....FillRect....
0040F480 47 65 74 44 65 73 6B 74 6F 70 57 69 6E 64 6F 77 GetDesktopWindow
0040F490 00 00 23 00 53 65 74 46 6F 72 65 67 72 6F 75 6E ..#.SetForegroun
0040F4A0 64 57 69 6E 64 6F 77 00 28 00 45 6E 64 44 69 61 dWindow.(.EndDia
0040F4B0 6C 6F 67 00 2B 00 47 65 74 43 75 72 73 6F 72 50 log.+.GetCursorP
0040F4C0 6F 73 00 00 2C 00 44 72 61 77 54 65 78 74 57 00 os..,.DrawTextW.
0040F4D0 31 00 50 74 49 6E 52 65 63 74 00 00 34 00 50 6F 1.PtInRect..4.Po
0040F4E0 73 74 4D 65 73 73 61 67 65 57 00 00 39 00 52 65 stMessageW..9.Re
0040F4F0 6C 65 61 73 65 43 61 70 74 75 72 65 00 00 3E 00 leaseCapture..>.
0040F500 45 6E 64 50 61 69 6E 74 00 00 44 00 53 65 74 57 EndPaint..D.SetW
0040F510 69 6E 64 6F 77 4C 6F 6E 67 57 00 00 49 00 47 65 indowLongW..I.Ge
0040F520 74 50 61 72 65 6E 74 00 4B 00 52 65 6C 65 61 73 tParent.K.Releas
0040F530 65 44 43 00 4F 00 50 6F 73 74 51 75 69 74 4D 65 eDC.O.PostQuitMe
0040F540 73 73 61 67 65 00 50 00 47 65 74 53 79 73 74 65 ssage.P.GetSyste
0040F550 6D 4D 65 74 72 69 63 73 00 00 54 00 43 72 65 61 mMetrics..T.Crea
0040F560 74 65 44 69 61 6C 6F 67 50 61 72 61 6D 57 00 00 teDialogParamW..
0040F570 55 00 4C 6F 61 64 53 74 72 69 6E 67 57 00 5B 00 U.LoadStringW.[.
0040F580 4B 69 6C 6C 54 69 6D 65 72 00 5F 00 47 65 74 57 KillTimer._.GetW
0040F590 69 6E 64 6F 77 4C 6F 6E 67 57 00 00 60 00 53 65 indowLongW..`.Se
0040F5A0 6E 64 44 6C 67 49 74 65 6D 4D 65 73 73 61 67 65 ndDlgItemMessage
0040F5B0 57 00 61 00 4F 66 66 73 65 74 52 65 63 74 00 00 W.a.OffsetRect..
0040F5C0 64 00 52 65 6C 65 61 73 65 43 61 70 74 75 72 65 d.ReleaseCapture
0040F5D0 00 00 69 00 47 65 74 44 43 00 6A 00 50 65 65 6B ..i.GetDC.j.Peek
0040F5E0 4D 65 73 73 61 67 65 57 00 00 70 00 47 65 74 53 MessageW..p.GetS
0040F5F0 79 73 43 6F 6C 6F 72 00 71 00 47 65 74 4D 65 73 ysColor.q.GetMes
0040F600 73 61 67 65 57 00 73 00 57 69 6E 48 65 6C 70 57 sageW.s.WinHelpW
0040F610 00 00 75 00 43 6F 70 79 52 65 63 74 00 00 77 00 ..u.CopyRect..w.
0040F620 42 65 67 69 6E 50 61 69 6E 74 00 00 7C 00 44 65 BeginPaint..|.De
0040F630 73 74 72 6F 79 49 63 6F 6E 00 7E 00 47 65 74 4D stroyIcon.~.GetM
0040F640 65 6E 75 00 80 00 50 74 49 6E 52 65 63 74 00 00 enu...PtInRect..
0040F650 85 00 49 73 49 63 6F 6E 69 63 00 00 88 00 53 65 ..IsIconic....Se
0040F660 74 54 69 6D 65 72 00 00 8C 00 52 65 67 69 73 74 tTimer....Regist
0040F670 65 72 43 6C 61 73 73 57 00 00 90 00 47 65 74 50 erClassW....GetP
0040F680 61 72 65 6E 74 00 93 00 4C 6F 61 64 53 74 72 69 arent...LoadStri
0040F690 6E 67 57 00 55 53 45 52 33 32 2E 44 4C 4C 00 00 ngW.USER32.DLL..
0040F6A0 00 00 00 00 00 00 00 00 00 00 00 00 00 00 00 00 ................
0040F6B0 00 00 00 00 00 00 00 00 00 00 00 00 00 00 00 00 ................
0040F6C0 00 00 00 00 00 00 00 00 00 00 00 00 00 00 00 00 ................
0040F6D0 00 00 00 00 00 00 00 00 00 00 00 00 00 00 00 00 ................
0040F6E0 00 00 00 00 00 00 00 00 00 00 00 00 00 00 00 00 ................
0040F6F0 00 00 00 00 00 00 00 00 00 00 00 00 00 00 00 00 ................
0040F700 00 00 00 00 00 00 00 00 00 00 00 00 00 00 00 00 ................
0040F710 00 00 00 00 00 00 00 00 00 00 00 00 00 00 00 00 ................
0040F720 00 00 00 00 00 00 00 00 00 00 00 00 00 00 00 00 ................
0040F730 00 00 00 00 00 00 00 00 00 00 00 00 00 00 00 00 ................
0040F740 00 00 00 00 00 00 00 00 00 00 00 00 00 00 00 00 ................
0040F750 00 00 00 00 00 00 00 00 00 00 00 00 00 00 00 00 ................
0040F760 00 00 00 00 00 00 00 00 00 00 00 00 00 00 00 00 ................
0040F770 00 00 00 00 00 00 00 00 00 00 00 00 00 00 00 00 ................
0040F780 00 00 00 00 00 00 00 00 00 00 00 00 00 00 00 00 ................
0040F790 00 00 00 00 00 00 00 00 00 00 00 00 00 00 00 00 ................
0040F7A0 00 00 00 00 00 00 00 00 00 00 00 00 00 00 00 00 ................
0040F7B0 00 00 00 00 00 00 00 00 00 00 00 00 00 00 00 00 ................
0040F7C0 00 00 00 00 00 00 00 00 00 00 00 00 00 00 00 00 ................
0040F7D0 00 00 00 00 00 00 00 00 00 00 00 00 00 00 00 00 ................
0040F7E0 00 00 00 00 00 00 00 00 00 00 00 00 00 00 00 00 ................
0040F7F0 00 00 00 00 00 00 00 00 00 00 00 00 00 00 00 00 ................
0040F800 00 00 00 00 00 00 00 00 00 00 00 00 00 00 00 00 ................
0040F810 00 00 00 00 00 00 00 00 00 00 00 00 00 00 00 00 ................
0040F820 00 00 00 00 00 00 00 00 00 00 00 00 00 00 00 00 ................
0040F830 00 00 00 00 00 00 00 00 00 00 00 00 00 00 00 00 ................
0040F840 00 00 00 00 00 00 00 00 00 00 00 00 00 00 00 00 ................
0040F850 00 00 00 00 00 00 00 00 00 00 00 00 00 00 00 00 ................
0040F860 00 00 00 00 00 00 00 00 00 00 00 00 00 00 00 00 ................
0040F870 00 00 00 00 00 00 00 00 00 00 00 00 00 00 00 00 ................
0040F880 00 00 00 00 00 00 00 00 00 00 00 00 00 00 00 00 ................
0040F890 00 00 00 00 00 00 00 00 00 00 00 00 00 00 00 00 ................
0040F8A0 00 00 00 00 00 00 00 00 00 00 00 00 00 00 00 00 ................
0040F8B0 00 00 00 00 00 00 00 00 00 00 00 00 00 00 00 00 ................
0040F8C0 00 00 00 00 00 00 00 00 00 00 00 00 00 00 00 00 ................
0040F8D0 00 00 00 00 00 00 00 00 00 00 00 00 00 00 00 00 ................
0040F8E0 00 00 00 00 00 00 00 00 00 00 00 00 00 00 00 00 ................
0040F8F0 00 00 00 00 00 00 00 00 00 00 00 00 00 00 00 00 ................
0040F900 00 00 00 00 00 00 00 00 00 00 00 00 00 00 00 00 ................
0040F910 00 00 00 00 00 00 00 00 00 00 00 00 00 00 00 00 ................
0040F920 00 00 00 00 00 00 00 00 00 00 00 00 00 00 00 00 ................
0040F930 00 00 00 00 00 00 00 00 00 00 00 00 00 00 00 00 ................
0040F940 00 00 00 00 00 00 00 00 00 00 00 00 00 00 00 00 ................
0040F950 00 00 00 00 00 00 00 00 00 00 00 00 00 00 00 00 ................
0040F960 00 00 00 00 00 00 00 00 00 00 00 00 00 00 00 00 ................
0040F970 00 00 00 00 00 00 00 00 00 00 00 00 00 00 00 00 ................
0040F980 00 00 00 00 00 00 00 00 00 00 00 00 00 00 00 00 ................
0040F990 00 00 00 00 00 00 00 00 00 00 00 00 00 00 00 00 ................
0040F9A0 00 00 00 00 00 00 00 00 00 00 00 00 00 00 00 00 ................
0040F9B0 00 00 00 00 00 00 00 00 00 00 00 00 00 00 00 00 ................
0040F9C0 00 00 00 00 00 00 00 00 00 00 00 00 00 00 00 00 ................
0040F9D0 00 00 00 00 00 00 00 00 00 00 00 00 00 00 00 00 ................
0040F9E0 00 00 00 00 00 00 00 00 00 00 00 00 00 00 00 00 ................
0040F9F0 00 00 00 00 00 00 00 00 00 00 00 00 00 00 00 00 ................
0040FA00 00 00 00 00 00 00 00 00 00 00 00 00 00 00 00 00 ................
0040FA10 00 00 00 00 00 00 00 00 00 00 00 00 00 00 00 00 ................
0040FA20 00 00 00 00 00 00 00 00 00 00 00 00 00 00 00 00 ................
0040FA30 00 00 00 00 00 00 00 00 00 00 00 00 00 00 00 00 ................
0040FA40 00 00 00 00 00 00 00 00 00 00 00 00 00 00 00 00 ................
0040FA50 00 00 00 00 00 00 00 00 00 00 00 00 00 00 00 00 ................
0040FA60 00 00 00 00 00 00 00 00 00 00 00 00 00 00 00 00 ................
0040FA70 00 00 00 00 00 00 00 00 00 00 00 00 00 00 00 00 ................
0040FA80 00 00 00 00 00 00 00 00 00 00 00 00 00 00 00 00 ................
0040FA90 00 00 00 00 00 00 00 00 00 00 00 00 00 00 00 00 ................
0040FAA0 00 00 00 00 00 00 00 00 00 00 00 00 00 00 00 00 ................
0040FAB0 00 00 00 00 00 00 00 00 00 00 00 00 00 00 00 00 ................
0040FAC0 00 00 00 00 00 00 00 00 00 00 00 00 00 00 00 00 ................
0040FAD0 00 00 00 00 00 00 00 00 00 00 00 00 00 00 00 00 ................
0040FAE0 00 00 00 00 00 00 00 00 00 00 00 00 00 00 00 00 ................
0040FAF0 00 00 00 00 00 00 00 00 00 00 00 00 00 00 00 00 ................
0040FB00 00 00 00 00 00 00 00 00 00 00 00 00 00 00 00 00 ................
0040FB10 00 00 00 00 00 00 00 00 00 00 00 00 00 00 00 00 ................
0040FB20 00 00 00 00 00 00 00 00 00 00 00 00 00 00 00 00 ................
0040FB30 00 00 00 00 00 00 00 00 00 00 00 00 00 00 00 00 ................
0040FB40 00 00 00 00 00 00 00 00 00 00 00 00 00 00 00 00 ................
0040FB50 00 00 00 00 00 00 00 00 00 00 00 00 00 00 00 00 ................
0040FB60 00 00 00 00 00 00 00 00 00 00 00 00 00 00 00 00 ................
0040FB70 00 00 00 00 00 00 00 00 00 00 00 00 00 00 00 00 ................
0040FB80 00 00 00 00 00 00 00 00 00 00 00 00 00 00 00 00 ................
0040FB90 00 00 00 00 00 00 00 00 00 00 00 00 00 00 00 00 ................
0040FBA0 00 00 00 00 00 00 00 00 00 00 00 00 00 00 00 00 ................
0040FBB0 00 00 00 00 00 00 00 00 00 00 00 00 00 00 00 00 ................
0040FBC0 00 00 00 00 00 00 00 00 00 00 00 00 00 00 00 00 ................
0040FBD0 00 00 00 00 00 00 00 00 00 00 00 00 00 00 00 00 ................
0040FBE0 00 00 00 00 00 00 00 00 00 00 00 00 00 00 00 00 ................
0040FBF0 00 00 00 00 00 00 00 00 00 00 00 00 00 00 00 00 ................
0040FC00 00 00 00 00 00 00 00 00 00 00 00 00 00 00 00 00 ................
0040FC10 00 00 00 00 00 00 00 00 00 00 00 00 00 00 00 00 ................
0040FC20 00 00 00 00 00 00 00 00 00 00 00 00 00 00 00 00 ................
0040FC30 00 00 00 00 00 00 00 00 00 00 00 00 00 00 00 00 ................
0040FC40 00 00 00 00 00 00 00 00 00 00 00 00 00 00 00 00 ................
0040FC50 00 00 00 00 00 00 00 00 00 00 00 00 00 00 00 00 ................
0040FC60 00 00 00 00 00 00 00 00 00 00 00 00 00 00 00 00 ................
0040FC70 00 00 00 00 00 00 00 00 00 00 00 00 00 00 00 00 ................
0040FC80 00 00 00 00 00 00 00 00 00 00 00 00 00 00 00 00 ................
0040FC90 00 00 00 00 00 00 00 00 00 00 00 00 00 00 00 00 ................
0040FCA0 00 00 00 00 00 00 00 00 00 00 00 00 00 00 00 00 ................
0040FCB0 00 00 00 00 00 00 00 00 00 00 00 00 00 00 00 00 ................
0040FCC0 00 00 00 00 00 00 00 00 00 00 00 00 00 00 00 00 ................
0040FCD0 00 00 00 00 00 00 00 00 00 00 00 00 00 00 00 00 ................
0040FCE0 00 00 00 00 00 00 00 00 00 00 00 00 00 00 00 00 ................
0040FCF0 00 00 00 00 00 00 00 00 00 00 00 00 00 00 00 00 ................
0040FD00 00 00 00 00 00 00 00 00 00 00 00 00 00 00 00 00 ................
0040FD10 00 00 00 00 00 00 00 00 00 00 00 00 00 00 00 00 ................
0040FD20 00 00 00 00 00 00 00 00 00 00 00 00 00 00 00 00 ................
0040FD30 00 00 00 00 00 00 00 00 00 00 00 00 00 00 00 00 ................
0040FD40 00 00 00 00 00 00 00 00 00 00 00 00 00 00 00 00 ................
0040FD50 00 00 00 00 00 00 00 00 00 00 00 00 00 00 00 00 ................
0040FD60 00 00 00 00 00 00 00 00 00 00 00 00 00 00 00 00 ................
0040FD70 00 00 00 00 00 00 00 00 00 00 00 00 00 00 00 00 ................
0040FD80 00 00 00 00 00 00 00 00 00 00 00 00 00 00 00 00 ................
0040FD90 00 00 00 00 00 00 00 00 00 00 00 00 00 00 00 00 ................
0040FDA0 00 00 00 00 00 00 00 00 00 00 00 00 00 00 00 00 ................
0040FDB0 00 00 00 00 00 00 00 00 00 00 00 00 00 00 00 00 ................
0040FDC0 00 00 00 00 00 00 00 00 00 00 00 00 00 00 00 00 ................
0040FDD0 00 00 00 00 00 00 00 00 00 00 00 00 00 00 00 00 ................
0040FDE0 00 00 00 00 00 00 00 00 00 00 00 00 00 00 00 00 ................
0040FDF0 00 00 00 00 00 00 00 00 00 00 00 00 00 00 00 00 ................
0040FE00 00 00 00 00 00 00 00 00 00 00 00 00 00 00 00 00 ................
0040FE10 00 00 00 00 00 00 00 00 00 00 00 00 00 00 00 00 ................
0040FE20 00 00 00 00 00 00 00 00 00 00 00 00 00 00 00 00 ................
0040FE30 00 00 00 00 00 00 00 00 00 00 00 00 00 00 00 00 ................
0040FE40 00 00 00 00 00 00 00 00 00 00 00 00 00 00 00 00 ................
0040FE50 00 00 00 00 00 00 00 00 00 00 00 00 00 00 00 00 ................
0040FE60 00 00 00 00 00 00 00 00 00 00 00 00 00 00 00 00 ................
0040FE70 00 00 00 00 00 00 00 00 00 00 00 00 00 00 00 00 ................
0040FE80 00 00 00 00 00 00 00 00 00 00 00 00 00 00 00 00 ................
0040FE90 00 00 00 00 00 00 00 00 00 00 00 00 00 00 00 00 ................
0040FEA0 00 00 00 00 00 00 00 00 00 00 00 00 00 00 00 00 ................
0040FEB0 00 00 00 00 00 00 00 00 00 00 00 00 00 00 00 00 ................
0040FEC0 00 00 00 00 00 00 00 00 00 00 00 00 00 00 00 00 ................
0040FED0 00 00 00 00 00 00 00 00 00 00 00 00 00 00 00 00 ................
0040FEE0 00 00 00 00 00 00 00 00 00 00 00 00 00 00 00 00 ................
0040FEF0 00 00 00 00 00 00 00 00 00 00 00 00 00 00 00 00 ................
0040FF00 00 00 00 00 00 00 00 00 00 00 00 00 00 00 00 00 ................
0040FF10 00 00 00 00 00 00 00 00 00 00 00 00 00 00 00 00 ................
0040FF20 00 00 00 00 00 00 00 00 00 00 00 00 00 00 00 00 ................
0040FF30 00 00 00 00 00 00 00 00 00 00 00 00 00 00 00 00 ................
0040FF40 00 00 00 00 00 00 00 00 00 00 00 00 00 00 00 00 ................
0040FF50 00 00 00 00 00 00 00 00 00 00 00 00 00 00 00 00 ................
0040FF60 00 00 00 00 00 00 00 00 00 00 00 00 00 00 00 00 ................
0040FF70 00 00 00 00 00 00 00 00 00 00 00 00 00 00 00 00 ................
0040FF80 00 00 00 00 00 00 00 00 00 00 00 00 00 00 00 00 ................
0040FF90 00 00 00 00 00 00 00 00 00 00 00 00 00 00 00 00 ................
0040FFA0 00 00 00 00 00 00 00 00 00 00 00 00 00 00 00 00 ................
0040FFB0 00 00 00 00 00 00 00 00 00 00 00 00 00 00 00 00 ................
0040FFC0 00 00 00 00 00 00 00 00 00 00 00 00 00 00 00 00 ................
0040FFD0 00 00 00 00 00 00 00 00 00 00 00 00 00 00 00 00 ................
0040FFE0 00 00 00 00 00 00 00 00 00 00 00 00 00 00 00 00 ................
0040FFF0 00 00 00 00 00 00 00 00 00 00 00 00 00 00 00 00 ................
00410000 00 00 00 00 00 00 00 00 00 00 00 00 00 00 03 00 ................
00410010 03 00 00 00 28 00 00 80 0E 00 00 00 40 00 00 80 ....(.......@...
00410020 10 00 00 00 58 00 00 80 00 00 00 00 00 00 00 00 ....X...........
00410030 00 00 00 00 00 00 01 00 01 00 00 00 70 00 00 80 ............p...
00410040 00 00 00 00 00 00 00 00 00 00 00 00 00 00 01 00 ................
00410050 8E 0A 00 00 88 00 00 80 00 00 00 00 00 00 00 00 ................
00410060 00 00 00 00 00 00 01 00 2A C5 00 00 A0 00 00 80 ........*.......
00410070 00 00 00 00 00 00 00 00 00 00 00 00 00 00 01 00 ................
00410080 19 04 00 00 B8 00 00 00 00 00 00 00 00 00 00 00 ................
00410090 00 00 00 00 00 00 01 00 19 04 00 00 C8 00 00 00 ................
004100A0 00 00 00 00 00 00 00 00 00 00 00 00 00 00 01 00 ................
004100B0 19 04 00 00 D8 00 00 00 E8 00 01 00 A8 08 00 00 ................
004100C0 00 00 00 00 00 00 00 00 90 09 01 00 14 00 00 00 ................
004100D0 00 00 00 00 00 00 00 00 A4 09 01 00 08 03 00 00 ................
004100E0 00 00 00 00 00 00 00 00 28 00 00 00 20 00 00 00 ........(... ...
004100F0 40 00 00 00 01 00 08 00 00 00 00 00 00 04 00 00 @...............
00410100 00 00 00 00 00 00 00 00 00 00 00 00 00 00 00 00 ................
00410110 00 00 00 00 00 00 80 00 00 80 00 00 00 80 80 00 ................
00410120 80 00 00 00 80 00 80 00 80 80 00 00 C0 C0 C0 00 ................
00410130 C0 DC C0 00 F0 CA A6 00 00 20 40 00 00 20 60 00 ......... @.. `.
00410140 00 20 80 00 00 20 A0 00 00 20 C0 00 00 20 E0 00 . ... ... ... ..
00410150 00 40 00 00 00 40 20 00 00 40 40 00 00 40 60 00 .@...@ ..@@..@`.
00410160 00 40 80 00 00 40 A0 00 00 40 C0 00 00 40 E0 00 .@...@...@...@..
00410170 00 60 00 00 00 60 20 00 00 60 40 00 00 60 60 00 .`...` ..`@..``.
00410180 00 60 80 00 00 60 A0 00 00 60 C0 00 00 60 E0 00 .`...`...`...`..
00410190 00 80 00 00 00 80 20 00 00 80 40 00 00 80 60 00 ...... ...@...`.
004101A0 00 80 80 00 00 80 A0 00 00 80 C0 00 00 80 E0 00 ................
004101B0 00 A0 00 00 00 A0 20 00 00 A0 40 00 00 A0 60 00 ...... ...@...`.
004101C0 00 A0 80 00 00 A0 A0 00 00 A0 C0 00 00 A0 E0 00 ................
004101D0 00 C0 00 00 00 C0 20 00 00 C0 40 00 00 C0 60 00 ...... ...@...`.
004101E0 00 C0 80 00 00 C0 A0 00 00 C0 C0 00 00 C0 E0 00 ................
004101F0 00 E0 00 00 00 E0 20 00 00 E0 40 00 00 E0 60 00 ...... ...@...`.
00410200 00 E0 80 00 00 E0 A0 00 00 E0 C0 00 00 E0 E0 00 ................
00410210 40 00 00 00 40 00 20 00 40 00 40 00 40 00 60 00 @...@. .@.@.@.`.
00410220 40 00 80 00 40 00 A0 00 40 00 C0 00 40 00 E0 00 @...@...@...@...
00410230 40 20 00 00 40 20 20 00 40 20 40 00 40 20 60 00 @ ..@  .@ @.@ `.
00410240 40 20 80 00 40 20 A0 00 40 20 C0 00 40 20 E0 00 @ ..@ ..@ ..@ ..
00410250 40 40 00 00 40 40 20 00 40 40 40 00 40 40 60 00 @@..@@ .@@@.@@`.
00410260 40 40 80 00 40 40 A0 00 40 40 C0 00 40 40 E0 00 @@..@@..@@..@@..
00410270 40 60 00 00 40 60 20 00 40 60 40 00 40 60 60 00 @`..@` .@`@.@``.
00410280 40 60 80 00 40 60 A0 00 40 60 C0 00 40 60 E0 00 @`..@`..@`..@`..
00410290 40 80 00 00 40 80 20 00 40 80 40 00 40 80 60 00 @...@. .@.@.@.`.
004102A0 40 80 80 00 40 80 A0 00 40 80 C0 00 40 80 E0 00 @...@...@...@...
004102B0 40 A0 00 00 40 A0 20 00 40 A0 40 00 40 A0 60 00 @...@. .@.@.@.`.
004102C0 40 A0 80 00 40 A0 A0 00 40 A0 C0 00 40 A0 E0 00 @...@...@...@...
004102D0 40 C0 00 00 40 C0 20 00 40 C0 40 00 40 C0 60 00 @...@. .@.@.@.`.
004102E0 40 C0 80 00 40 C0 A0 00 40 C0 C0 00 40 C0 E0 00 @...@...@...@...
004102F0 40 E0 00 00 40 E0 20 00 40 E0 40 00 40 E0 60 00 @...@. .@.@.@.`.
00410300 40 E0 80 00 40 E0 A0 00 40 E0 C0 00 40 E0 E0 00 @...@...@...@...
00410310 80 00 00 00 80 00 20 00 80 00 40 00 80 00 60 00 ...... ...@...`.
00410320 80 00 80 00 80 00 A0 00 80 00 C0 00 80 00 E0 00 ................
00410330 80 20 00 00 80 20 20 00 80 20 40 00 80 20 60 00 . ...  .. @.. `.
00410340 80 20 80 00 80 20 A0 00 80 20 C0 00 80 20 E0 00 . ... ... ... ..
00410350 80 40 00 00 80 40 20 00 80 40 40 00 80 40 60 00 .@...@ ..@@..@`.
00410360 80 40 80 00 80 40 A0 00 80 40 C0 00 80 40 E0 00 .@...@...@...@..
00410370 80 60 00 00 80 60 20 00 80 60 40 00 80 60 60 00 .`...` ..`@..``.
00410380 80 60 80 00 80 60 A0 00 80 60 C0 00 80 60 E0 00 .`...`...`...`..
00410390 80 80 00 00 80 80 20 00 80 80 40 00 80 80 60 00 ...... ...@...`.
004103A0 80 80 80 00 80 80 A0 00 80 80 C0 00 80 80 E0 00 ................
004103B0 80 A0 00 00 80 A0 20 00 80 A0 40 00 80 A0 60 00 ...... ...@...`.
004103C0 80 A0 80 00 80 A0 A0 00 80 A0 C0 00 80 A0 E0 00 ................
004103D0 80 C0 00 00 80 C0 20 00 80 C0 40 00 80 C0 60 00 ...... ...@...`.
004103E0 80 C0 80 00 80 C0 A0 00 80 C0 C0 00 80 C0 E0 00 ................
004103F0 80 E0 00 00 80 E0 20 00 80 E0 40 00 80 E0 60 00 ...... ...@...`.
00410400 80 E0 80 00 80 E0 A0 00 80 E0 C0 00 80 E0 E0 00 ................
00410410 C0 00 00 00 C0 00 20 00 C0 00 40 00 C0 00 60 00 ...... ...@...`.
00410420 C0 00 80 00 C0 00 A0 00 C0 00 C0 00 C0 00 E0 00 ................
00410430 C0 20 00 00 C0 20 20 00 C0 20 40 00 C0 20 60 00 . ...  .. @.. `.
00410440 C0 20 80 00 C0 20 A0 00 C0 20 C0 00 C0 20 E0 00 . ... ... ... ..
00410450 C0 40 00 00 C0 40 20 00 C0 40 40 00 C0 40 60 00 .@...@ ..@@..@`.
00410460 C0 40 80 00 C0 40 A0 00 C0 40 C0 00 C0 40 E0 00 .@...@...@...@..
00410470 C0 60 00 00 C0 60 20 00 C0 60 40 00 C0 60 60 00 .`...` ..`@..``.
00410480 C0 60 80 00 C0 60 A0 00 C0 60 C0 00 C0 60 E0 00 .`...`...`...`..
00410490 C0 80 00 00 C0 80 20 00 C0 80 40 00 C0 80 60 00 ...... ...@...`.
004104A0 C0 80 80 00 C0 80 A0 00 C0 80 C0 00 C0 80 E0 00 ................
004104B0 C0 A0 00 00 C0 A0 20 00 C0 A0 40 00 C0 A0 60 00 ...... ...@...`.
004104C0 C0 A0 80 00 C0 A0 A0 00 C0 A0 C0 00 C0 A0 E0 00 ................
004104D0 C0 C0 00 00 C0 C0 20 00 C0 C0 40 00 C0 C0 60 00 ...... ...@...`.
004104E0 C0 C0 80 00 C0 C0 A0 00 F0 FB FF 00 A4 A0 A0 00 ................
004104F0 80 80 80 00 00 00 FF 00 00 FF 00 00 00 FF FF 00 ................
00410500 FF 00 00 00 FF 00 FF 00 FF FF 00 00 FF FF FF 00 ................
00410510 00 00 00 00 00 00 00 00 00 00 00 00 00 00 00 00 ................
00410520 00 00 00 00 00 00 00 00 00 00 00 00 00 00 00 00 ................
00410530 00 00 00 00 00 00 ED A3 9A 9A 92 92 92 92 92 92 ................
00410540 92 92 92 92 92 92 92 92 92 92 92 92 92 92 92 00 ................
00410550 00 00 00 00 00 00 ED F6 07 09 09 09 09 09 09 09 ................
00410560 09 09 EC 09 09 EC EC EC EC EB EB EB EB EB 92 00 ................
00410570 00 00 00 00 00 00 ED F6 F6 F6 F6 F6 F6 F6 F6 F6 ................
00410580 F6 F6 F6 F6 F6 F6 F6 F6 09 09 09 09 09 EB 92 00 ................
00410590 00 00 00 00 00 00 ED F6 F6 F6 F6 F6 F6 F6 F6 F6 ................
004105A0 F6 F6 F6 F6 F6 F6 F6 F6 F6 F6 09 09 09 EB 92 00 ................
004105B0 00 00 00 00 00 00 ED F6 F6 F5 F5 ED ED EC EC EC ................
004105C0 E3 E3 E3 E3 E3 E3 E3 E3 E3 E3 F6 F6 09 EB 92 00 ................
004105D0 00 00 00 00 00 00 ED FF FF F5 FF FF FF F6 EC F6 ................
004105E0 F6 EC FF E3 F6 F6 EC FF E3 F6 F6 F6 F6 EB 92 00 ................
004105F0 00 00 00 00 00 00 ED FF FF F5 FF FF FF FF ED FF ................
00410600 FF EC FF E3 F6 F6 EC FF E3 F6 F6 F6 F6 EC 92 00 ................
00410610 00 00 00 00 00 00 ED FF FF F5 F5 F5 F5 F5 F5 ED ................
00410620 FF EC FF E3 F6 F6 EC FF E3 F6 F6 F6 F6 EC 92 00 ................
00410630 00 00 00 00 00 00 ED FF FF 09 FF FF FF FF F5 FF ................
00410640 FF ED FF E3 EC EC EC FF E3 F6 F6 F6 F6 EC 92 00 ................
00410650 00 00 00 00 00 00 ED FF FF 09 FF FF FF FF F5 FF ................
00410660 FF F5 FF E3 FF FF EC FF E3 F6 F6 F6 F6 EC 92 00 ................
00410670 00 00 00 00 00 00 ED FF FF 09 09 09 09 09 F5 F5 ................
00410680 FF F5 F5 E3 FF FF EC FF E3 F6 F6 F6 F6 EC 92 00 ................
00410690 00 00 00 00 00 00 ED FF FF 09 FF FF FF FF 09 FF ................
004106A0 FF FF FF FF FF FF ED ED E3 F6 F6 F6 F6 09 92 00 ................
004106B0 00 00 00 00 00 00 ED 08 08 ED 07 07 07 ED ED 08 ................
004106C0 FF FF FF F5 FF FF FF FF FF FF F6 F6 F6 09 92 00 ................
004106D0 00 00 00 00 00 00 F7 F7 F5 07 07 08 08 F6 08 ED ................
004106E0 EC 09 F5 F5 F5 F5 F5 F5 ED FF FF F6 F6 EC 92 00 ................
004106F0 00 19 18 AC 08 08 FF FF FF F6 F6 F6 F6 F6 08 07 ................
00410700 F6 FF FF 09 FF FF FF FF F5 FF FF FF F6 09 92 00 ................
00410710 00 19 B5 08 FF FF FF FF F6 F6 B5 1A 1A F6 F6 07 ................
00410720 F6 FF FF 09 FF FF FF FF F5 FF FF FF FF 09 92 00 ................
00410730 00 19 07 AC FF 08 B4 B4 B4 AB 22 1A 6B F6 F6 ED ..........".k...
00410740 F5 09 09 09 09 09 09 F5 F5 FF FF FF FF 09 92 00 ................
00410750 00 19 08 62 FF FF 08 B4 B4 62 1A 6C AB B5 F6 07 ...b.....b.l....
00410760 08 FF FF 09 FF FF FF FF F5 FF FF FF FF 09 92 00 ................
00410770 00 19 08 19 F6 FF FF 08 6B 1A 22 08 FF F6 F6 07 ........k.".....
00410780 08 FF FF 09 FF FF FF FF 09 FF FF FF FF 09 92 00 ................
00410790 00 21 08 19 07 FF FF 08 22 22 6B B4 F5 F6 F6 07 .!......""k.....
004107A0 F5 09 09 09 09 09 09 09 09 FF FF FF FF 09 92 00 ................
004107B0 00 21 08 19 AC FF F6 22 1A B5 F6 B4 B4 B4 F6 08 .!....."........
004107C0 08 FF FF 09 FF FF FF FF 09 FF FF FF FF 09 92 00 ................
004107D0 00 21 08 AC B4 FF 63 62 6C FF FF FF FF FF FF 08 .!....cbl.......
004107E0 08 FF FF 09 FF FF FF FF 07 09 09 09 09 09 92 00 ................
004107F0 00 61 08 B4 B4 FF FF FF FF FF FF FF FF FF FF F6 .a..............
00410800 07 09 09 09 09 09 09 ED A3 A3 9B 9A 9A 9A 92 00 ................
00410810 00 61 08 B5 B4 08 08 08 08 08 08 F5 B5 08 6B FF .a............k.
00410820 FF FF FF FF FF FF FF ED 09 09 09 09 09 92 F6 00 ................
00410830 00 61 B5 F6 B5 B5 B5 B5 B5 B5 B5 B5 B5 F6 61 FF .a............a.
00410840 FF FF FF FF FF FF FF ED F6 F6 09 09 92 F6 F6 00 ................
00410850 00 61 61 08 F6 08 BD BD BD BD BD BD B5 F6 61 F6 .aa...........a.
00410860 09 09 09 FF FF FF FF F5 F6 F6 09 92 F6 F6 00 00 ................
00410870 00 00 61 61 B5 08 F6 F6 F6 F6 F6 F6 F6 F6 61 FF ..aa..........a.
00410880 FF FF FF FF FF FF FF F5 F6 F6 9A F6 F6 00 00 00 ................
00410890 00 00 00 61 61 61 61 61 61 61 61 61 61 61 61 FF ...aaaaaaaaaaaa.
004108A0 FF FF FF FF FF FF FF F5 F6 9B F6 F6 00 00 00 00 ................
004108B0 00 00 00 00 00 00 07 FF FF FF FF FF FF FF FF FF ................
004108C0 FF FF FF FF FF FF FF F5 A4 F6 F6 00 00 00 00 00 ................
004108D0 00 00 00 00 00 00 07 07 07 07 07 F5 F5 F5 F5 F5 ................
004108E0 F5 F5 F5 F5 F5 F5 F5 F5 F6 F6 00 00 00 00 00 00 ................
004108F0 00 00 00 00 00 00 00 00 00 00 00 00 00 00 00 00 ................
00410900 00 00 00 00 00 00 00 00 00 00 00 00 00 00 00 00 ................
00410910 FF FF FF FF FC 00 00 01 FC 00 00 01 FC 00 00 01 ................
00410920 FC 00 00 01 FC 00 00 01 FC 00 00 01 FC 00 00 01 ................
00410930 FC 00 00 01 FC 00 00 01 FC 00 00 01 FC 00 00 01 ................
00410940 FC 00 00 01 C0 00 00 01 C0 00 00 01 80 00 00 01 ................
00410950 80 00 00 01 80 00 00 01 80 00 00 01 80 00 00 01 ................
00410960 80 00 00 01 80 00 00 01 80 00 00 01 80 00 00 01 ................
00410970 80 00 00 01 80 00 00 01 80 00 00 03 C0 00 00 07 ................
00410980 E0 00 00 0F FC 00 00 1F FC 00 00 3F FF FF FF FF ...........?....
00410990 00 00 01 00 01 00 20 20 08 00 00 00 00 00 A8 08 ......  ........
004109A0 00 00 01 00 08 03 34 00 00 00 56 00 53 00 5F 00 ......4...V.S._.
004109B0 56 00 45 00 52 00 53 00 49 00 4F 00 4E 00 5F 00 V.E.R.S.I.O.N._.
004109C0 49 00 4E 00 46 00 4F 00 00 00 00 00 BD 04 EF FE I.N.F.O.........
004109D0 00 00 01 00 D9 9F 93 BB D9 9F 93 BB D9 9F 93 BB ................
004109E0 D9 9F 93 BB D9 9F 00 00 00 00 00 00 04 00 04 00 ................
004109F0 01 00 00 00 00 00 00 00 00 00 00 00 00 00 00 00 ................
00410A00 68 02 00 00 00 00 53 00 74 00 72 00 69 00 6E 00 h.....S.t.r.i.n.
00410A10 67 00 46 00 69 00 6C 00 65 00 49 00 6E 00 66 00 g.F.i.l.e.I.n.f.
00410A20 6F 00 00 00 44 02 00 00 00 00 30 00 38 00 30 00 o...D.....0.8.0.
00410A30 30 00 30 00 34 00 42 00 30 00 00 00 48 00 14 00 0.0.4.B.0...H...
00410A40 01 00 43 00 6F 00 6D 00 70 00 61 00 6E 00 79 00 ..C.o.m.p.a.n.y.
00410A50 4E 00 61 00 6D 00 65 00 00 00 00 00 46 00 66 00 N.a.m.e.....F.f.
00410A60 64 00 79 00 50 00 6F 00 54 00 51 00 56 00 59 00 d.y.P.o.T.Q.V.Y.
00410A70 48 00 68 00 52 00 6F 00 73 00 35 00 6D 00 76 00 H.h.R.o.s.5.m.v.
00410A80 4B 00 00 00 48 00 0F 00 01 00 46 00 69 00 6C 00 K...H.....F.i.l.
00410A90 65 00 44 00 65 00 73 00 63 00 72 00 69 00 70 00 e.D.e.s.c.r.i.p.
00410AA0 74 00 69 00 6F 00 6E 00 00 00 00 00 77 00 6E 00 t.i.o.n.....w.n.
00410AB0 51 00 47 00 62 00 67 00 4A 00 48 00 73 00 42 00 Q.G.b.g.J.H.s.B.
00410AC0 53 00 61 00 57 00 54 00 00 00 00 00 48 00 14 00 S.a.W.T.....H...
00410AD0 01 00 46 00 69 00 6C 00 65 00 56 00 65 00 72 00 ..F.i.l.e.V.e.r.
00410AE0 73 00 69 00 6F 00 6E 00 00 00 00 00 74 00 66 00 s.i.o.n.....t.f.
00410AF0 72 00 54 00 62 00 36 00 74 00 6B 00 4A 00 52 00 r.T.b.6.t.k.J.R.
00410B00 35 00 74 00 58 00 6B 00 4E 00 58 00 6E 00 56 00 5.t.X.k.N.X.n.V.
00410B10 66 00 00 00 3C 00 0E 00 01 00 49 00 6E 00 74 00 f...<.....I.n.t.
00410B20 65 00 72 00 6E 00 61 00 6C 00 4E 00 61 00 6D 00 e.r.n.a.l.N.a.m.
00410B30 65 00 00 00 75 00 4E 00 42 00 43 00 66 00 4C 00 e...u.N.B.C.f.L.
00410B40 6E 00 57 00 66 00 68 00 31 00 41 00 4F 00 00 00 n.W.f.h.1.A.O...
00410B50 44 00 10 00 01 00 4C 00 65 00 67 00 61 00 6C 00 D.....L.e.g.a.l.
00410B60 43 00 6F 00 70 00 79 00 72 00 69 00 67 00 68 00 C.o.p.y.r.i.g.h.
00410B70 74 00 00 00 4D 00 54 00 42 00 78 00 4A 00 69 00 t...M.T.B.x.J.i.
00410B80 53 00 79 00 71 00 42 00 34 00 41 00 52 00 41 00 S.y.q.B.4.A.R.A.
00410B90 4D 00 00 00 50 00 13 00 01 00 4F 00 72 00 69 00 M...P.....O.r.i.
00410BA0 67 00 69 00 6E 00 61 00 6C 00 46 00 69 00 6C 00 g.i.n.a.l.F.i.l.
00410BB0 65 00 6E 00 61 00 6D 00 65 00 00 00 71 00 64 00 e.n.a.m.e...q.d.
00410BC0 65 00 71 00 47 00 48 00 77 00 6D 00 6C 00 57 00 e.q.G.H.w.m.l.W.
00410BD0 63 00 4F 00 32 00 74 00 4B 00 59 00 33 00 54 00 c.O.2.t.K.Y.3.T.
00410BE0 00 00 00 00 40 00 0F 00 01 00 50 00 72 00 6F 00 ....@.....P.r.o.
00410BF0 64 00 75 00 63 00 74 00 4E 00 61 00 6D 00 65 00 d.u.c.t.N.a.m.e.
00410C00 00 00 00 00 4D 00 59 00 63 00 4F 00 58 00 32 00 ....M.Y.c.O.X.2.
00410C10 6B 00 79 00 54 00 78 00 61 00 6B 00 6D 00 57 00 k.y.T.x.a.k.m.W.
00410C20 00 00 00 00 44 00 10 00 01 00 50 00 72 00 6F 00 ....D.....P.r.o.
00410C30 64 00 75 00 63 00 74 00 56 00 65 00 72 00 73 00 d.u.c.t.V.e.r.s.
00410C40 69 00 6F 00 6E 00 00 00 4E 00 74 00 62 00 4A 00 i.o.n...N.t.b.J.
00410C50 70 00 4C 00 76 00 31 00 73 00 35 00 34 00 70 00 p.L.v.1.s.5.4.p.
00410C60 41 00 37 00 69 00 00 00 44 00 00 00 00 00 56 00 A.7.i...D.....V.
00410C70 61 00 72 00 46 00 69 00 6C 00 65 00 49 00 6E 00 a.r.F.i.l.e.I.n.
00410C80 66 00 6F 00 00 00 00 00 24 00 04 00 00 00 54 00 f.o.....$.....T.
00410C90 72 00 61 00 6E 00 73 00 6C 00 61 00 74 00 69 00 r.a.n.s.l.a.t.i.
00410CA0 6F 00 6E 00 00 00 00 00 00 08 B0 04 00 00 00 00 o.n.............
00410CB0 00 00 00 00 00 00 00 00 00 00 00 00 00 00 00 00 ................
00410CC0 00 00 00 00 00 00 00 00 00 00 00 00 00 00 00 00 ................
00410CD0 00 00 00 00 00 00 00 00 00 00 00 00 00 00 00 00 ................
00410CE0 00 00 00 00 00 00 00 00 00 00 00 00 00 00 00 00 ................
00410CF0 00 00 00 00 00 00 00 00 00 00 00 00 00 00 00 00 ................
00410D00 00 00 00 00 00 00 00 00 00 00 00 00 00 00 00 00 ................
00410D10 00 00 00 00 00 00 00 00 00 00 00 00 00 00 00 00 ................
00410D20 00 00 00 00 00 00 00 00 00 00 00 00 00 00 00 00 ................
00410D30 00 00 00 00 00 00 00 00 00 00 00 00 00 00 00 00 ................
00410D40 00 00 00 00 00 00 00 00 00 00 00 00 00 00 00 00 ................
00410D50 00 00 00 00 00 00 00 00 00 00 00 00 00 00 00 00 ................
00410D60 00 00 00 00 00 00 00 00 00 00 00 00 00 00 00 00 ................
00410D70 00 00 00 00 00 00 00 00 00 00 00 00 00 00 00 00 ................
00410D80 00 00 00 00 00 00 00 00 00 00 00 00 00 00 00 00 ................
00410D90 00 00 00 00 00 00 00 00 00 00 00 00 00 00 00 00 ................
00410DA0 00 00 00 00 00 00 00 00 00 00 00 00 00 00 00 00 ................
00410DB0 00 00 00 00 00 00 00 00 00 00 00 00 00 00 00 00 ................
00410DC0 00 00 00 00 00 00 00 00 00 00 00 00 00 00 00 00 ................
00410DD0 00 00 00 00 00 00 00 00 00 00 00 00 00 00 00 00 ................
00410DE0 00 00 00 00 00 00 00 00 00 00 00 00 00 00 00 00 ................
00410DF0 00 00 00 00 00 00 00 00 00 00 00 00 00 00 00 00 ................
00410E00 00 00 00 00 00 00 00 00 00 00 00 00 00 00 00 00 ................
00410E10 00 00 00 00 00 00 00 00 00 00 00 00 00 00 00 00 ................
00410E20 00 00 00 00 00 00 00 00 00 00 00 00 00 00 00 00 ................
00410E30 00 00 00 00 00 00 00 00 00 00 00 00 00 00 00 00 ................
00410E40 00 00 00 00 00 00 00 00 00 00 00 00 00 00 00 00 ................
00410E50 00 00 00 00 00 00 00 00 00 00 00 00 00 00 00 00 ................
00410E60 00 00 00 00 00 00 00 00 00 00 00 00 00 00 00 00 ................
00410E70 00 00 00 00 00 00 00 00 00 00 00 00 00 00 00 00 ................
00410E80 00 00 00 00 00 00 00 00 00 00 00 00 00 00 00 00 ................
00410E90 00 00 00 00 00 00 00 00 00 00 00 00 00 00 00 00 ................
00410EA0 00 00 00 00 00 00 00 00 00 00 00 00 00 00 00 00 ................
00410EB0 00 00 00 00 00 00 00 00 00 00 00 00 00 00 00 00 ................
00410EC0 00 00 00 00 00 00 00 00 00 00 00 00 00 00 00 00 ................
00410ED0 00 00 00 00 00 00 00 00 00 00 00 00 00 00 00 00 ................
00410EE0 00 00 00 00 00 00 00 00 00 00 00 00 00 00 00 00 ................
00410EF0 00 00 00 00 00 00 00 00 00 00 00 00 00 00 00 00 ................
00410F00 00 00 00 00 00 00 00 00 00 00 00 00 00 00 00 00 ................
00410F10 00 00 00 00 00 00 00 00 00 00 00 00 00 00 00 00 ................
00410F20 00 00 00 00 00 00 00 00 00 00 00 00 00 00 00 00 ................
00410F30 00 00 00 00 00 00 00 00 00 00 00 00 00 00 00 00 ................
00410F40 00 00 00 00 00 00 00 00 00 00 00 00 00 00 00 00 ................
00410F50 00 00 00 00 00 00 00 00 00 00 00 00 00 00 00 00 ................
00410F60 00 00 00 00 00 00 00 00 00 00 00 00 00 00 00 00 ................
00410F70 00 00 00 00 00 00 00 00 00 00 00 00 00 00 00 00 ................
00410F80 00 00 00 00 00 00 00 00 00 00 00 00 00 00 00 00 ................
00410F90 00 00 00 00 00 00 00 00 00 00 00 00 00 00 00 00 ................
00410FA0 00 00 00 00 00 00 00 00 00 00 00 00 00 00 00 00 ................
00410FB0 00 00 00 00 00 00 00 00 00 00 00 00 00 00 00 00 ................
00410FC0 00 00 00 00 00 00 00 00 00 00 00 00 00 00 00 00 ................
00410FD0 00 00 00 00 00 00 00 00 00 00 00 00 00 00 00 00 ................
00410FE0 00 00 00 00 00 00 00 00 00 00 00 00 00 00 00 00 ................
00410FF0 00 00 00 00 00 00 00 00 00 00 00 00 00 00 00 00 ................
00411000 
...end of image
