00400000 00 00 00 00 00 00 00 00 00 00 00 00 00 00 00 00 ................
00400010 00 00 00 00 00 00 00 00 00 00 00 00 00 00 00 00 ................
00400020 00 00 00 00 00 00 00 00 00 00 00 00 00 00 00 00 ................
00400030 00 00 00 00 00 00 00 00 00 00 00 00 00 00 00 00 ................
00400040 00 00 00 00 00 00 00 00 00 00 00 00 00 00 00 00 ................
00400050 00 00 00 00 00 00 00 00 00 00 00 00 00 00 00 00 ................
00400060 00 00 00 00 00 00 00 00 00 00 00 00 00 00 00 00 ................
00400070 00 00 00 00 00 00 00 00 00 00 00 00 00 00 00 00 ................
00400080 00 00 00 00 00 00 00 00 00 00 00 00 00 00 00 00 ................
00400090 00 00 00 00 00 00 00 00 00 00 00 00 00 00 00 00 ................
004000A0 00 00 00 00 00 00 00 00 00 00 00 00 00 00 00 00 ................
004000B0 00 00 00 00 00 00 00 00 00 00 00 00 00 00 00 00 ................
004000C0 00 00 00 00 00 00 00 00 00 00 00 00 00 00 00 00 ................
004000D0 00 00 00 00 00 00 00 00 00 00 00 00 00 00 00 00 ................
004000E0 00 00 00 00 00 00 00 00 00 00 00 00 00 00 00 00 ................
004000F0 00 00 00 00 00 00 00 00 00 00 00 00 00 00 00 00 ................
00400100 00 00 00 00 00 00 00 00 00 00 00 00 00 00 00 00 ................
00400110 00 00 00 00 00 00 00 00 00 00 00 00 00 00 00 00 ................
00400120 00 00 00 00 00 00 00 00 00 00 00 00 00 00 00 00 ................
00400130 00 00 00 00 00 00 00 00 00 00 00 00 00 00 00 00 ................
00400140 00 00 00 00 00 00 00 00 00 00 00 00 00 00 00 00 ................
00400150 00 00 00 00 00 00 00 00 00 00 00 00 00 00 00 00 ................
00400160 00 00 00 00 00 00 00 00 00 00 00 00 00 00 00 00 ................
00400170 00 00 00 00 00 00 00 00 00 00 00 00 00 00 00 00 ................
00400180 00 00 00 00 00 00 00 00 00 00 00 00 00 00 00 00 ................
00400190 00 00 00 00 00 00 00 00 00 00 00 00 00 00 00 00 ................
004001A0 00 00 00 00 00 00 00 00 00 00 00 00 00 00 00 00 ................
004001B0 00 00 00 00 00 00 00 00 00 00 00 00 00 00 00 00 ................
004001C0 00 00 00 00 00 00 00 00 00 00 00 00 00 00 00 00 ................
004001D0 00 00 00 00 00 00 00 00 00 00 00 00 00 00 00 00 ................
004001E0 00 00 00 00 00 00 00 00 00 00 00 00 00 00 00 00 ................
004001F0 00 00 00 00 00 00 00 00 00 00 00 00 00 00 00 00 ................
00400200 00 00 00 00 00 00 00 00 00 00 00 00 00 00 00 00 ................
00400210 00 00 00 00 00 00 00 00 00 00 00 00 00 00 00 00 ................
00400220 00 00 00 00 00 00 00 00 00 00 00 00 00 00 00 00 ................
00400230 00 00 00 00 00 00 00 00 00 00 00 00 00 00 00 00 ................
00400240 00 00 00 00 00 00 00 00 00 00 00 00 00 00 00 00 ................
00400250 00 00 00 00 00 00 00 00 00 00 00 00 00 00 00 00 ................
00400260 00 00 00 00 00 00 00 00 00 00 00 00 00 00 00 00 ................
00400270 00 00 00 00 00 00 00 00 00 00 00 00 00 00 00 00 ................
00400280 00 00 00 00 00 00 00 00 00 00 00 00 00 00 00 00 ................
00400290 00 00 00 00 00 00 00 00 00 00 00 00 00 00 00 00 ................
004002A0 00 00 00 00 00 00 00 00 00 00 00 00 00 00 00 00 ................
004002B0 00 00 00 00 00 00 00 00 00 00 00 00 00 00 00 00 ................
004002C0 00 00 00 00 00 00 00 00 00 00 00 00 00 00 00 00 ................
004002D0 00 00 00 00 00 00 00 00 00 00 00 00 00 00 00 00 ................
004002E0 00 00 00 00 00 00 00 00 00 00 00 00 00 00 00 00 ................
004002F0 00 00 00 00 00 00 00 00 00 00 00 00 00 00 00 00 ................
00400300 00 00 00 00 00 00 00 00 00 00 00 00 00 00 00 00 ................
00400310 00 00 00 00 00 00 00 00 00 00 00 00 00 00 00 00 ................
00400320 00 00 00 00 00 00 00 00 00 00 00 00 00 00 00 00 ................
00400330 00 00 00 00 00 00 00 00 00 00 00 00 00 00 00 00 ................
00400340 00 00 00 00 00 00 00 00 00 00 00 00 00 00 00 00 ................
00400350 00 00 00 00 00 00 00 00 00 00 00 00 00 00 00 00 ................
00400360 00 00 00 00 00 00 00 00 00 00 00 00 00 00 00 00 ................
00400370 00 00 00 00 00 00 00 00 00 00 00 00 00 00 00 00 ................
00400380 00 00 00 00 00 00 00 00 00 00 00 00 00 00 00 00 ................
00400390 00 00 00 00 00 00 00 00 00 00 00 00 00 00 00 00 ................
004003A0 00 00 00 00 00 00 00 00 00 00 00 00 00 00 00 00 ................
004003B0 00 00 00 00 00 00 00 00 00 00 00 00 00 00 00 00 ................
004003C0 00 00 00 00 00 00 00 00 00 00 00 00 00 00 00 00 ................
004003D0 00 00 00 00 00 00 00 00 00 00 00 00 00 00 00 00 ................
004003E0 00 00 00 00 00 00 00 00 00 00 00 00 00 00 00 00 ................
004003F0 00 00 00 00 00 00 00 00 00 00 00 00 00 00 00 00 ................
00400400 00 00 00 00 00 00 00 00 00 00 00 00 00 00 00 00 ................
00400410 00 00 00 00 00 00 00 00 00 00 00 00 00 00 00 00 ................
00400420 00 00 00 00 00 00 00 00 00 00 00 00 00 00 00 00 ................
00400430 00 00 00 00 00 00 00 00 00 00 00 00 00 00 00 00 ................
00400440 00 00 00 00 00 00 00 00 00 00 00 00 00 00 00 00 ................
00400450 00 00 00 00 00 00 00 00 00 00 00 00 00 00 00 00 ................
00400460 00 00 00 00 00 00 00 00 00 00 00 00 00 00 00 00 ................
00400470 00 00 00 00 00 00 00 00 00 00 00 00 00 00 00 00 ................
00400480 00 00 00 00 00 00 00 00 00 00 00 00 00 00 00 00 ................
00400490 00 00 00 00 00 00 00 00 00 00 00 00 00 00 00 00 ................
004004A0 00 00 00 00 00 00 00 00 00 00 00 00 00 00 00 00 ................
004004B0 00 00 00 00 00 00 00 00 00 00 00 00 00 00 00 00 ................
004004C0 00 00 00 00 00 00 00 00 00 00 00 00 00 00 00 00 ................
004004D0 00 00 00 00 00 00 00 00 00 00 00 00 00 00 00 00 ................
004004E0 00 00 00 00 00 00 00 00 00 00 00 00 00 00 00 00 ................
004004F0 00 00 00 00 00 00 00 00 00 00 00 00 00 00 00 00 ................
00400500 00 00 00 00 00 00 00 00 00 00 00 00 00 00 00 00 ................
00400510 00 00 00 00 00 00 00 00 00 00 00 00 00 00 00 00 ................
00400520 00 00 00 00 00 00 00 00 00 00 00 00 00 00 00 00 ................
00400530 00 00 00 00 00 00 00 00 00 00 00 00 00 00 00 00 ................
00400540 00 00 00 00 00 00 00 00 00 00 00 00 00 00 00 00 ................
00400550 00 00 00 00 00 00 00 00 00 00 00 00 00 00 00 00 ................
00400560 00 00 00 00 00 00 00 00 00 00 00 00 00 00 00 00 ................
00400570 00 00 00 00 00 00 00 00 00 00 00 00 00 00 00 00 ................
00400580 00 00 00 00 00 00 00 00 00 00 00 00 00 00 00 00 ................
00400590 00 00 00 00 00 00 00 00 00 00 00 00 00 00 00 00 ................
004005A0 00 00 00 00 00 00 00 00 00 00 00 00 00 00 00 00 ................
004005B0 00 00 00 00 00 00 00 00 00 00 00 00 00 00 00 00 ................
004005C0 00 00 00 00 00 00 00 00 00 00 00 00 00 00 00 00 ................
004005D0 00 00 00 00 00 00 00 00 00 00 00 00 00 00 00 00 ................
004005E0 00 00 00 00 00 00 00 00 00 00 00 00 00 00 00 00 ................
004005F0 00 00 00 00 00 00 00 00 00 00 00 00 00 00 00 00 ................
00400600 00 00 00 00 00 00 00 00 00 00 00 00 00 00 00 00 ................
00400610 00 00 00 00 00 00 00 00 00 00 00 00 00 00 00 00 ................
00400620 00 00 00 00 00 00 00 00 00 00 00 00 00 00 00 00 ................
00400630 00 00 00 00 00 00 00 00 00 00 00 00 00 00 00 00 ................
00400640 00 00 00 00 00 00 00 00 00 00 00 00 00 00 00 00 ................
00400650 00 00 00 00 00 00 00 00 00 00 00 00 00 00 00 00 ................
00400660 00 00 00 00 00 00 00 00 00 00 00 00 00 00 00 00 ................
00400670 00 00 00 00 00 00 00 00 00 00 00 00 00 00 00 00 ................
00400680 00 00 00 00 00 00 00 00 00 00 00 00 00 00 00 00 ................
00400690 00 00 00 00 00 00 00 00 00 00 00 00 00 00 00 00 ................
004006A0 00 00 00 00 00 00 00 00 00 00 00 00 00 00 00 00 ................
004006B0 00 00 00 00 00 00 00 00 00 00 00 00 00 00 00 00 ................
004006C0 00 00 00 00 00 00 00 00 00 00 00 00 00 00 00 00 ................
004006D0 00 00 00 00 00 00 00 00 00 00 00 00 00 00 00 00 ................
004006E0 00 00 00 00 00 00 00 00 00 00 00 00 00 00 00 00 ................
004006F0 00 00 00 00 00 00 00 00 00 00 00 00 00 00 00 00 ................
00400700 00 00 00 00 00 00 00 00 00 00 00 00 00 00 00 00 ................
00400710 00 00 00 00 00 00 00 00 00 00 00 00 00 00 00 00 ................
00400720 00 00 00 00 00 00 00 00 00 00 00 00 00 00 00 00 ................
00400730 00 00 00 00 00 00 00 00 00 00 00 00 00 00 00 00 ................
00400740 00 00 00 00 00 00 00 00 00 00 00 00 00 00 00 00 ................
00400750 00 00 00 00 00 00 00 00 00 00 00 00 00 00 00 00 ................
00400760 00 00 00 00 00 00 00 00 00 00 00 00 00 00 00 00 ................
00400770 00 00 00 00 00 00 00 00 00 00 00 00 00 00 00 00 ................
00400780 00 00 00 00 00 00 00 00 00 00 00 00 00 00 00 00 ................
00400790 00 00 00 00 00 00 00 00 00 00 00 00 00 00 00 00 ................
004007A0 00 00 00 00 00 00 00 00 00 00 00 00 00 00 00 00 ................
004007B0 00 00 00 00 00 00 00 00 00 00 00 00 00 00 00 00 ................
004007C0 00 00 00 00 00 00 00 00 00 00 00 00 00 00 00 00 ................
004007D0 00 00 00 00 00 00 00 00 00 00 00 00 00 00 00 00 ................
004007E0 00 00 00 00 00 00 00 00 00 00 00 00 00 00 00 00 ................
004007F0 00 00 00 00 00 00 00 00 00 00 00 00 00 00 00 00 ................
00400800 00 00 00 00 00 00 00 00 00 00 00 00 00 00 00 00 ................
00400810 00 00 00 00 00 00 00 00 00 00 00 00 00 00 00 00 ................
00400820 00 00 00 00 00 00 00 00 00 00 00 00 00 00 00 00 ................
00400830 00 00 00 00 00 00 00 00 00 00 00 00 00 00 00 00 ................
00400840 00 00 00 00 00 00 00 00 00 00 00 00 00 00 00 00 ................
00400850 00 00 00 00 00 00 00 00 00 00 00 00 00 00 00 00 ................
00400860 00 00 00 00 00 00 00 00 00 00 00 00 00 00 00 00 ................
00400870 00 00 00 00 00 00 00 00 00 00 00 00 00 00 00 00 ................
00400880 00 00 00 00 00 00 00 00 00 00 00 00 00 00 00 00 ................
00400890 00 00 00 00 00 00 00 00 00 00 00 00 00 00 00 00 ................
004008A0 00 00 00 00 00 00 00 00 00 00 00 00 00 00 00 00 ................
004008B0 00 00 00 00 00 00 00 00 00 00 00 00 00 00 00 00 ................
004008C0 00 00 00 00 00 00 00 00 00 00 00 00 00 00 00 00 ................
004008D0 00 00 00 00 00 00 00 00 00 00 00 00 00 00 00 00 ................
004008E0 00 00 00 00 00 00 00 00 00 00 00 00 00 00 00 00 ................
004008F0 00 00 00 00 00 00 00 00 00 00 00 00 00 00 00 00 ................
00400900 00 00 00 00 00 00 00 00 00 00 00 00 00 00 00 00 ................
00400910 00 00 00 00 00 00 00 00 00 00 00 00 00 00 00 00 ................
00400920 00 00 00 00 00 00 00 00 00 00 00 00 00 00 00 00 ................
00400930 00 00 00 00 00 00 00 00 00 00 00 00 00 00 00 00 ................
00400940 00 00 00 00 00 00 00 00 00 00 00 00 00 00 00 00 ................
00400950 00 00 00 00 00 00 00 00 00 00 00 00 00 00 00 00 ................
00400960 00 00 00 00 00 00 00 00 00 00 00 00 00 00 00 00 ................
00400970 00 00 00 00 00 00 00 00 00 00 00 00 00 00 00 00 ................
00400980 00 00 00 00 00 00 00 00 00 00 00 00 00 00 00 00 ................
00400990 00 00 00 00 00 00 00 00 00 00 00 00 00 00 00 00 ................
004009A0 00 00 00 00 00 00 00 00 00 00 00 00 00 00 00 00 ................
004009B0 00 00 00 00 00 00 00 00 00 00 00 00 00 00 00 00 ................
004009C0 00 00 00 00 00 00 00 00 00 00 00 00 00 00 00 00 ................
004009D0 00 00 00 00 00 00 00 00 00 00 00 00 00 00 00 00 ................
004009E0 00 00 00 00 00 00 00 00 00 00 00 00 00 00 00 00 ................
004009F0 00 00 00 00 00 00 00 00 00 00 00 00 00 00 00 00 ................
00400A00 00 00 00 00 00 00 00 00 00 00 00 00 00 00 00 00 ................
00400A10 00 00 00 00 00 00 00 00 00 00 00 00 00 00 00 00 ................
00400A20 00 00 00 00 00 00 00 00 00 00 00 00 00 00 00 00 ................
00400A30 00 00 00 00 00 00 00 00 00 00 00 00 00 00 00 00 ................
00400A40 00 00 00 00 00 00 00 00 00 00 00 00 00 00 00 00 ................
00400A50 00 00 00 00 00 00 00 00 00 00 00 00 00 00 00 00 ................
00400A60 00 00 00 00 00 00 00 00 00 00 00 00 00 00 00 00 ................
00400A70 00 00 00 00 00 00 00 00 00 00 00 00 00 00 00 00 ................
00400A80 00 00 00 00 00 00 00 00 00 00 00 00 00 00 00 00 ................
00400A90 00 00 00 00 00 00 00 00 00 00 00 00 00 00 00 00 ................
00400AA0 00 00 00 00 00 00 00 00 00 00 00 00 00 00 00 00 ................
00400AB0 00 00 00 00 00 00 00 00 00 00 00 00 00 00 00 00 ................
00400AC0 00 00 00 00 00 00 00 00 00 00 00 00 00 00 00 00 ................
00400AD0 00 00 00 00 00 00 00 00 00 00 00 00 00 00 00 00 ................
00400AE0 00 00 00 00 00 00 00 00 00 00 00 00 00 00 00 00 ................
00400AF0 00 00 00 00 00 00 00 00 00 00 00 00 00 00 00 00 ................
00400B00 00 00 00 00 00 00 00 00 00 00 00 00 00 00 00 00 ................
00400B10 00 00 00 00 00 00 00 00 00 00 00 00 00 00 00 00 ................
00400B20 00 00 00 00 00 00 00 00 00 00 00 00 00 00 00 00 ................
00400B30 00 00 00 00 00 00 00 00 00 00 00 00 00 00 00 00 ................
00400B40 00 00 00 00 00 00 00 00 00 00 00 00 00 00 00 00 ................
00400B50 00 00 00 00 00 00 00 00 00 00 00 00 00 00 00 00 ................
00400B60 00 00 00 00 00 00 00 00 00 00 00 00 00 00 00 00 ................
00400B70 00 00 00 00 00 00 00 00 00 00 00 00 00 00 00 00 ................
00400B80 00 00 00 00 00 00 00 00 00 00 00 00 00 00 00 00 ................
00400B90 00 00 00 00 00 00 00 00 00 00 00 00 00 00 00 00 ................
00400BA0 00 00 00 00 00 00 00 00 00 00 00 00 00 00 00 00 ................
00400BB0 00 00 00 00 00 00 00 00 00 00 00 00 00 00 00 00 ................
00400BC0 00 00 00 00 00 00 00 00 00 00 00 00 00 00 00 00 ................
00400BD0 00 00 00 00 00 00 00 00 00 00 00 00 00 00 00 00 ................
00400BE0 00 00 00 00 00 00 00 00 00 00 00 00 00 00 00 00 ................
00400BF0 00 00 00 00 00 00 00 00 00 00 00 00 00 00 00 00 ................
00400C00 00 00 00 00 00 00 00 00 00 00 00 00 00 00 00 00 ................
00400C10 00 00 00 00 00 00 00 00 00 00 00 00 00 00 00 00 ................
00400C20 00 00 00 00 00 00 00 00 00 00 00 00 00 00 00 00 ................
00400C30 00 00 00 00 00 00 00 00 00 00 00 00 00 00 00 00 ................
00400C40 00 00 00 00 00 00 00 00 00 00 00 00 00 00 00 00 ................
00400C50 00 00 00 00 00 00 00 00 00 00 00 00 00 00 00 00 ................
00400C60 00 00 00 00 00 00 00 00 00 00 00 00 00 00 00 00 ................
00400C70 00 00 00 00 00 00 00 00 00 00 00 00 00 00 00 00 ................
00400C80 00 00 00 00 00 00 00 00 00 00 00 00 00 00 00 00 ................
00400C90 00 00 00 00 00 00 00 00 00 00 00 00 00 00 00 00 ................
00400CA0 00 00 00 00 00 00 00 00 00 00 00 00 00 00 00 00 ................
00400CB0 00 00 00 00 00 00 00 00 00 00 00 00 00 00 00 00 ................
00400CC0 00 00 00 00 00 00 00 00 00 00 00 00 00 00 00 00 ................
00400CD0 00 00 00 00 00 00 00 00 00 00 00 00 00 00 00 00 ................
00400CE0 00 00 00 00 00 00 00 00 00 00 00 00 00 00 00 00 ................
00400CF0 00 00 00 00 00 00 00 00 00 00 00 00 00 00 00 00 ................
00400D00 00 00 00 00 00 00 00 00 00 00 00 00 00 00 00 00 ................
00400D10 00 00 00 00 00 00 00 00 00 00 00 00 00 00 00 00 ................
00400D20 00 00 00 00 00 00 00 00 00 00 00 00 00 00 00 00 ................
00400D30 00 00 00 00 00 00 00 00 00 00 00 00 00 00 00 00 ................
00400D40 00 00 00 00 00 00 00 00 00 00 00 00 00 00 00 00 ................
00400D50 00 00 00 00 00 00 00 00 00 00 00 00 00 00 00 00 ................
00400D60 00 00 00 00 00 00 00 00 00 00 00 00 00 00 00 00 ................
00400D70 00 00 00 00 00 00 00 00 00 00 00 00 00 00 00 00 ................
00400D80 00 00 00 00 00 00 00 00 00 00 00 00 00 00 00 00 ................
00400D90 00 00 00 00 00 00 00 00 00 00 00 00 00 00 00 00 ................
00400DA0 00 00 00 00 00 00 00 00 00 00 00 00 00 00 00 00 ................
00400DB0 00 00 00 00 00 00 00 00 00 00 00 00 00 00 00 00 ................
00400DC0 00 00 00 00 00 00 00 00 00 00 00 00 00 00 00 00 ................
00400DD0 00 00 00 00 00 00 00 00 00 00 00 00 00 00 00 00 ................
00400DE0 00 00 00 00 00 00 00 00 00 00 00 00 00 00 00 00 ................
00400DF0 00 00 00 00 00 00 00 00 00 00 00 00 00 00 00 00 ................
00400E00 00 00 00 00 00 00 00 00 00 00 00 00 00 00 00 00 ................
00400E10 00 00 00 00 00 00 00 00 00 00 00 00 00 00 00 00 ................
00400E20 00 00 00 00 00 00 00 00 00 00 00 00 00 00 00 00 ................
00400E30 00 00 00 00 00 00 00 00 00 00 00 00 00 00 00 00 ................
00400E40 00 00 00 00 00 00 00 00 00 00 00 00 00 00 00 00 ................
00400E50 00 00 00 00 00 00 00 00 00 00 00 00 00 00 00 00 ................
00400E60 00 00 00 00 00 00 00 00 00 00 00 00 00 00 00 00 ................
00400E70 00 00 00 00 00 00 00 00 00 00 00 00 00 00 00 00 ................
00400E80 00 00 00 00 00 00 00 00 00 00 00 00 00 00 00 00 ................
00400E90 00 00 00 00 00 00 00 00 00 00 00 00 00 00 00 00 ................
00400EA0 00 00 00 00 00 00 00 00 00 00 00 00 00 00 00 00 ................
00400EB0 00 00 00 00 00 00 00 00 00 00 00 00 00 00 00 00 ................
00400EC0 00 00 00 00 00 00 00 00 00 00 00 00 00 00 00 00 ................
00400ED0 00 00 00 00 00 00 00 00 00 00 00 00 00 00 00 00 ................
00400EE0 00 00 00 00 00 00 00 00 00 00 00 00 00 00 00 00 ................
00400EF0 00 00 00 00 00 00 00 00 00 00 00 00 00 00 00 00 ................
00400F00 00 00 00 00 00 00 00 00 00 00 00 00 00 00 00 00 ................
00400F10 00 00 00 00 00 00 00 00 00 00 00 00 00 00 00 00 ................
00400F20 00 00 00 00 00 00 00 00 00 00 00 00 00 00 00 00 ................
00400F30 00 00 00 00 00 00 00 00 00 00 00 00 00 00 00 00 ................
00400F40 00 00 00 00 00 00 00 00 00 00 00 00 00 00 00 00 ................
00400F50 00 00 00 00 00 00 00 00 00 00 00 00 00 00 00 00 ................
00400F60 00 00 00 00 00 00 00 00 00 00 00 00 00 00 00 00 ................
00400F70 00 00 00 00 00 00 00 00 00 00 00 00 00 00 00 00 ................
00400F80 00 00 00 00 00 00 00 00 00 00 00 00 00 00 00 00 ................
00400F90 00 00 00 00 00 00 00 00 00 00 00 00 00 00 00 00 ................
00400FA0 00 00 00 00 00 00 00 00 00 00 00 00 00 00 00 00 ................
00400FB0 00 00 00 00 00 00 00 00 00 00 00 00 00 00 00 00 ................
00400FC0 00 00 00 00 00 00 00 00 00 00 00 00 00 00 00 00 ................
00400FD0 00 00 00 00 00 00 00 00 00 00 00 00 00 00 00 00 ................
00400FE0 00 00 00 00 00 00 00 00 00 00 00 00 00 00 00 00 ................
00400FF0 00 00 00 00 00 00 00 00 00 00 00 00 00 00 00 00 ................
00401000 B3 B4 E7 C8 97 E7 31                            ......1        

l00401007:
	dec	esi
	sub	ebx,eax
	inc	edi
	leave	
	or	ecx,esi
	add	esi,edi
	dec	esi
	inc	ecx
	or	ebx,edi
	or	edx,esi
	jl	00401112

l0040101C:
	push	edi
	pop	edi
	mov	bh,bh
	jge	00401112

l00401026:
	mov	ah,B4
	iret	
00401029                            A4 3D                         .=    

fn0040102B()
	lea	esp,[esp+04]
	mov	esi,edx
	mov	bh,bl
	dec	edi
	dec	edi
	xor	dl,ah
	sub	dl,al
	mov	dl,ch
	sub	dh,al
	call	00401046
	adc	al,0B
	stc	

fn00401046()
	pop	dword ptr [esp-18]
	mov	edx,edi
	neg	bh
	inc	edx
	sub	bh,dh
	add	edi,ecx
	sub	dh,al
	mov	bl,F2
	sub	ebx,edx
	jmp	004010F4
0040105E                                           73 71               sq
00401060 84 05 E3 8F 2D 03                               ....-.         

l00401066:
	mov	edi,eax
	sub	edx,eax
	xor	ebx,edi
	inc	esi
	sub	edx,eax
	xor	esi,ecx
	or	edi,edx
	add	edx,ecx
	call	0040116A
	sub	ecx,FC
	mov	[eax],ss
	cmp	[edi+03],ecx

fn00401080()
	dec	edi
	add	edx,esi

l00401082:
	illegal	
	add	ebx,eax
	xor	ebx,ecx
	mov	esi,ebx
	add	edx,esi
	inc	edi
	jl	00401007

l00401092:
	jge	00401094

l00401094:
	jge	00401007

l0040109A:
	add	al,CB
	sbb	byte ptr [eax],EB
	insb	

fn004010A0()
	dec	edx
	add	eax,edx
	xor	edi,ebx
	sub	ecx,esi
	jmp	004011B7

fn004010AC()
	pop	dword ptr [esp-28]
	inc	edi
	dec	edx
	or	edi,esi
	or	edx,esi
	dec	esi
	js	00401080

l004010B9:
	mov	cx,cx
	jns	00401080

l004010BE:
	sti	
	push	edx
	illegal	
	out	E6,al

fn004010C3()
	lea	esp,[esp+04]
	add	bl,bh
	dec	esi
	neg	dl
	dec	ebx
	dec	ebx
	neg	dh
	dec	edx
	call	0040102B
	mov	dh,A2
	sti	
	aam	DE
	mov	ebx,33EC8B55

fn004010DC()
	push	ebp
	mov	ebp,esp
	xor	edx,esi

l004010E0:
	illegal	
	add	edi,esi
	add	ebx,edx
	inc	edi
	or	ebx,esi
	call	00401144
	jge	004010ED
	pushf	
	xor	al,52
	jl	004010A6

fn004010F4()
	or	dl,cl
	sub	ebx,eax
	dec	esi
	xor	edi,edx
	neg	dl
	add	bh,cl
	add	edx,eax
	dec	ebx
	mov	bh,85
	mov	edx,ecx
	call	00401128
	pop	dword ptr [edx+7EFFAEEF]
	inc	esi

fn00401112()
	xor	edx,edi
	mov	edx,ecx
	dec	edx
	mov	edx,ebx
	add	edx,eax
	inc	edi
	dec	ebx
	or	ebx,eax
	call	0040118B
	mov	edi,8D48B8A2

fn00401128()
	lea	esp,[esp+04]

fn00401129()
	and	al,04
	inc	edi
	mov	dh,bl
	add	ebx,esi
	add	esi,eax
	or	ebx,ecx
	add	esi,eax
	mov	ebx,edi
	call	004010AC

fn0040113E()
	sub	ebp,08CDA3CC

fn00401144()
	mov	[esp],ecx
	mov	ch,ch
	pop	ecx
	add	edi,edx
	add	esi,eax
	sub	edx,eax
	dec	ebx
	inc	ebx
	add	edx,ebx
	jo	00401066

l0040115A:
	xchg	dl,dl
	repne	
	jno	00401066
	pop	edx
	sar	esi,cl
	add	byte ptr [edi+448FC88B],24

fn0040116A()
	pop	dword ptr [esp-2C]
	add	esi,ecx
	dec	edx
	mov	ebx,ecx
	add	edi,esi
	or	edx,eax
	sub	esi,ebx
	inc	edx
	mov	bl,DC
	xor	dl,bh
	call	004010C3
	inc	ebp
	retf	
00401185                1C B0 42 09 58 84                     ..B.X.    

fn0040118B()
	pop	dword ptr [esp-18]
	xor	edx,eax
	sub	esi,edx
	dec	edx
	sub	eax,ebx
	xor	eax,ecx
	mov	eax,edi
	or	edx,ebx
	inc	edi
	add	ecx,esi
	jz	004010A0

l004011A5:
	mov	edi,edi
	push	si
	pop	si
	jnz	004010A0

l004011B1:
	out	dx,ax
	mov	ss,[E83002D7]

fn004011B7()
	call	00402991

l004011B8:
	illegal	
	pop	ss
	add	[eax],al
	loop	004011CE

l004011BE:
	shl	ebx,AF
	add	bl,[ebx]
	movsd	
	illegal	
	mov	dh,CC
	illegal	
	mov	esi,264DA1CC
	cmp	byte ptr [edx+53C20C53],8D

l004011CE:
	mov	edx,53C20C53
	lea	edi,[edx+01403C53]
	mov	esp,A6406C6C
	mov	esp,E3866C6C
	illegal	
	shl	byte ptr [ebx+4C],AB
	mov	edx,5FBA7F63
	pusha	
	iret	
	pop	eax
	popa	
	ret	BD53
	mov	edx,1268ECF2
	mov	ebp,6C644940
	insb	
	push	ecx
	cmp	eax,31B3C35F
	int	03
	cmp	ebp,[eax+1A]
	lodsb	
	scasd	
	mov	[6C6478CC],eax
	insb	
	mov	edx,5358BC5B
	in	al,dx
	push	5040DF1A
	push	eax
	insb	
	insb	
	in	al,D8
	push	ebp
	jpo	00401226
	adc	eax,A8CCA18A
	pop	esi
	jl	00401274
	insb	
	insb	
	cwde	
	rol	dword ptr [eax+1C],B8
	insb	
	insb	
	mov	[4CEC614F],al
	cmp	eax,6C488DCC
	insb	
	jnc	004012AE
	jc	004012B0
	insb	
	inc	eax
	cdq	
	mov	eax,90AD6C6C
	pop	ds
	aam	E3
	mov	[ecx+3C126893],ds
	push	CC9BDC12
	push	edx
	push	esp
	insb	
	insb	
	or	[ebx+7C],dl
	dec	esp
	insb	
	insb	
	insb	
	test	al,5E
	mov	edi,[eax+6F406C6C]
	mov	eax,9A6D6C6C
	xor	ch,bl
	jo	00401233
	mov	[AF7C53B2],al
	bound	esi,[edx-44]
	push	0A6C6C68
	les	ebp,[eax+12]
	mov	esp,61406C46
	push	esp
	insb	
	insb	
	inc	esi
	insb	
	mov	dl,53
	sbb	al,40
	inc	esp
	push	eax
	insb	
	insb	
	mov	esp,122BBDFE
	cmp	[eax+B24C5358],ch
	outsd	
	scasd	
	push	02CC7C12
	dec	esp
	insb	
	insb	
	cmp	[edx+77],ebx
	insb	
	test	al,52
	jge	0040131A
	insb	
	insb	
	pop	edx
	pop	ecx
	pushf	
	inc	eax
	adc	ah,[eax+6C]
	insb	
	in	al,45
	cmpsd	
	mov	bh,58
	mov	eax,[B2586561]
	ret	
	push	5A7A615A
	cmp	byte ptr [edx-58],52
	adc	[esp+ebp*2+6C],bl
	mov	edx,2D404C53
	pusha	
	insb	
	insb	
	pop	ecx
	test	[edx+D4A4A75E],dh
	popa	
	mov	dl,53
	mov	esp,4C53B2AF
	scasd	
	inc	esi
	push	EEEA4ECE
	in	al,dx
	int	03
	sbb	bl,[eax+6C]
	insb	
	into	
	cmp	esi,ecx
	pop	eax
	sbb	al,38
	dec	esp
	or	[ecx+4F],al
	inc	ebp
	jcxz	004012A6
	pop	esi
	scasd	
	int	03
	out	dx,al
	les	ebp,[esp+ebp*2+68]
	lodsd	
	shl	dword ptr [ebp+4C],6C
	xchg	eax,ebx
	inc	eax
	fadd	st(0),st(4)
	insb	
	insb	
	xchg	eax,edi
	push	ecx
	sbb	ch,cl
	stosb	
	imul	ebx,[ebx+7B],8052A859
	shr	byte ptr [esp+ebp*2-46],4B
	fistp	word ptr [eax+65]
	add	ch,[eax+BA4FBC09]
	dec	ebx
	call	dword ptr [eax+65]
	inc	eax
	add	al,al
	insb	
	insb	
	shr	bh,cl
	inc	esi
	and	[esi],ch
	into	
	insb	
	outsd	
	insb	
	insb	
	ret	DFBF
	insd	
	mov	dl,BF
	fild	qword ptr [ebp-5D]
	ret	DF9F
	insd	
	mov	dl,9F
	fild	qword ptr [ebp-59]
	inc	esi
	push	6C5C9440
	insb	
	shl	esi,01
	dec	ecx
	pop	esi
	push	ebp
	int	03
	push	ebx
	pusha	
	insb	
	insb	
	test	al,5A
	dec	edx
	insb	
	insb	
	sbb	eax,ecx
	int	03
	punpcklbw	xmm5,[esp+ebp*2-58]
	pop	edx
	push	58
	insb	
	insb	
	sbb	ebp,[ebp-34]
	cmp	esp,[eax+6C]
	insb	
	inc	eax
	jl	0040134B
	insb	
	insb	
	add	dl,[eax]
	jpe	004013DD
	push	cs
	jl	004013CF
	push	ebx
	pushf	
	ret	BC53
	ret	0C53
	outsb	
	jc	0040134B
	insb	
	test	al,5E
	sbb	edx,[eax+6C]
	insb	
	test	al,15
	push	ebx
	lodsb	
	ret	7C53
	mov	edx,74BA4C12
	inc	eax
	js	00401405
	insb	
	insb	
	illegal	
	fbstp	tword ptr [eax]
	add	bh,[edx+72BABCB3]
	dec	esp
	sbb	[ebp-16],al
	shl	dword ptr [ebp+4C],6C
	xchg	eax,ebx
	mov	edx,4800403C
	insb	
	insb	
	call	41FBC257
	push	ecx
	push	edx
	mov	edx,1ABABC9B
	mov	esp,6E405038
	insb	
	insb	
	insb	
	mov	edx,497BFF57
	adc	cl,[edx]
	cmp	dh,bl
	movsd	
	xor	eax,FF995E93
	enter	B29D,53
	or	al,AF
	into	
	dec	esi
	jmp	far 3ACC:ECEE
	insb	
	insb	
	into	
	neg	byte ptr [ebp+08]
	xor	al,AF
	int	03
	out	C0,al
	insb	
	insb	
	push	406046AD
	mov	eax,4C6C6C60
	das	
	lock	
	sbb	eax,6EC5C61F
	and	[eax+6DA5B564],bl
	mov	ch,A5
	dec	ebp
	add	al,[ebp+40]
	call	far 0E68:6874
	jns	00401485
	xchg	eax,ebx
	pop	edx
	jpe	004013F4
	insb	
	test	al,52
	ffree	st(0)
	insb	
	insb	
	jmp	far 65C1:FAF6
	pop	esp
	insb	
	xchg	eax,ebx
	inc	eax
	adc	eax,416C6C50
	retf	
	and	[edi-78],ebx
	jbe	004014BB
	adc	cl,[edx+ebp*4+57]
	mov	[eax+12],gs
	lodsb	
	stosb	
	push	edi
	inc	dword ptr [eax-0A]
	push	esp
	insb	
	insb	
	mov	edx,40247B17
	stosd	
	push	esp
	insb	
	insb	
	sbb	eax,9758339B
	inc	eax
	stosb	
	push	ebx
	cld	
	push	1A680F1A
	jmp	dword ptr [eax+1A]
	illegal	
	sbb	bh,bh
	push	AB40FF1A
	push	eax
	insb	
	insb	
	rol	[edi+ebx*8+AB73030E],cl
	mov	edx,93BABCB3
	lodsb	
	and	ecx,[ebx-54]
	jmp	far BC65:C1F6
	insb	
	xchg	eax,ebx
	mov	edx,604B403C
	insb	
	insb	
	jno	0040147C
	das	
	xchg	eax,esp
	sbb	[eax+68741540],edi
	push	5012A564
	mov	byte ptr [edi+edx*2+4059A5A4],97
	push	eax
	insb	
	insb	
	push	ebx
	cmp	al,[ebx+6D]
	push	CC9BAD12
	test	[eax+ebp*2+68],dh
	wait	
	int	03
	sbb	[eax+6C],dl
	insb	
	mov	edx,7F6F5859
	push	CC9B1F2E
	fisubr	dword ptr [eax+68]
	push	6C6CBD40
	insb	
	xor	eax,096649FF
	sub	al,9B
	xchg	eax,edi
	mov	edi,[edx+FA584CF2]
	jg	004014AA
	stc	
	outsb	
	insb	
	insb	
	insb	
	mov	edx,40F8B8FB
	test	eax,BC6C6C4C
	sub	ecx,esi
	add	[eax+3CBA9359],esi
	xchg	eax,edi
	mov	edi,[edx+12BAACB3]
	mov	esp,404C72BA
	ja	00401581
	insb	
	insb	
	insb	
	call	53F2CDF5
	or	al,AF
	mov	dl,53
	sbb	al,AF
	into	
	dec	esi
	jmp	far 87CC:ECEE
	pusha	
	insb	
	insb	
	into	
	cwde	
	and	bh,[eax+64894021]
	insb	
	insb	
	xchg	[ecx-23],dl
	insd	
	jle	004014FD
	or	[edx],dl
	mov	esp,68035FC6
	mov	bh,07
	dec	esi
	fiadd	word ptr [ebx]
	push	C3075C4E
	mov	eax,D452A8C1
	pop	esp
	insb	
	insb	
	cli	
	rol	dword ptr [eax-67],4C
	insb	
	insb	
	repne	
	mov	al,[58CE2753]
	jc	004015BB
	inc	eax
	jpo	004015E2
	push	6C413168
	insb	
	insb	
	outsb	
	test	al,5E
	jmp	004015EE
	push	6C6C1368
	insb	
	outsb	
	scasd	
	push	82CC7C12
	push	eax
	insb	
	insb	
	inc	eax
	les	esi,[eax+68]
	push	25B866C7
	int	03
	push	edx
	or	[edx+edi*4],al
	lds	ebx,[eax]
	fld	double ptr [eax-6A]
	insb	
	insb	
	mov	edx,DD18BCB3
	inc	eax
	dec	edx
	insb	
	insb	
	std	
	mov	bh,8A
	cmpsd	
	fmul	dword ptr [ecx-06]
	sub	dword ptr [esp+ebp*4+6C],8D93BA6C
	mov	edx,BAC1BD53
	sbb	al,5A
	push	ebp
	lodsb	
	inc	eax
	jpe	00401639
	push	2A515768
	pop	ss
	sbb	[ebp+ebx*4+FCB3C27F],esi
	inc	esi
	outsd	
	push	1268FC12
	in	al,dx
	int	03
	pop	ds
	jo	0040164A
	push	40EC53BA
	cwde	
	insb	
	insb	
	cmp	ebx,ebp
	mov	ah,EC
	out	dx,al
	mov	edx,72BABC12
	dec	esp
	jl	0040161D
	outsb	
	sbb	edi,eax
	fstp	double ptr [ecx]
	inc	eax
	illegal	
	jo	0040166A
	push	DC9480AE
	sar	dword ptr [ebp+02],01
	into	
	dec	esi
	jmp	far FACC:ECEE
	insb	
	insb	
	insb	
	into	
	illegal	
	wait	
	scasd	
	int	03
	cmpsd	
	dec	eax
	insb	
	insb	
	push	50AF40AD
	insb	
	insb	
	jc	004015D8
	inc	eax
	sbb	ebx,[ebp+EA4ECEAF]
	out	dx,al
	in	al,dx
	int	03
	sub	dword ptr [esp+ebp*2+6C],CE
	popa	
	aaa	
	lea	esp,[eax]
	scasd	
	int	03
	das	
	dec	eax
	insb	
	insb	
	inc	eax
	or	eax,086C6C5C
	mov	ebx,93DCAF7D
	mov	edx,BD5D5A3C
	wait	
	inc	esi
	insb	
	test	al,23
	mov	edx,68E0624D
	insb	
	insb	
	insb	
	inc	esi
	pusha	
	inc	eax
	test	[eax+6C],ah
	insb	
	stc	
	inc	eax
	ret	6C54
	insb	
	mov	es,[ebx+BA93F5F8]
	cmp	al,9B
	fidivr	word ptr [edx+6C6C2F90]
	insb	
	mov	edx,04BABCA7
	pop	edx
	pop	ecx
	mov	esp,BABCA7BA
	movsb	
	inc	eax
	mov	eax,[406C6C48]
	pop	eax
	pop	eax
	insb	
	insb	
	pusha	
	pop	ds
	nop	
	xchg	[ecx],ch
	scasd	
	int	03
	xchg	eax,ecx
	push	esp
	insb	
	insb	
	push	5C65C1AD
	insb	
	xchg	eax,ebx
	mov	edx,2C5D5A3C
	push	57404C12
	jo	00401717
	push	086F2BAA
	insd	
	ret	EC53
	jl	00401689
	insb	
	insb	
	insb	
	insb	
	stosb	
	push	ebx
	jl	00401691
	sub	al,1D
	jg	00401672
	push	ebx
	or	al,CE
	mov	ebp,40BDBDBD
	dec	eax
	pop	esp
	insb	
	insb	
	cmp	[edi+BA937C98],edi
	cmp	al,46
	outsd	
	into	
	insb	
	das	
	insb	
	insb	
	mov	dl,53
	mov	esp,B26C46AF
	push	ebx
	dec	esp
	scasd	
	inc	esi
	push	68688840
	push	16AA7600
	sbb	eax,[eax+42407891]
	jl	00401767
	push	6C5890CC
	insb	
	cmp	edi,[ecx+78CF52A8]
	push	5854CC68
	insb	
	insb	
	inc	eax
	or	al,60
	insb	
	insb	
	cmp	eax,6878C040
	push	0CE83793
	sub	eax,1A68BE7A
	dec	esp
	scasd	
	int	03
	inc	esp
	js	00401794
	push	CF595A02
	ret	
	inc	eax
	push	C46C6C50
	sub	al,32
	inc	eax
	pop	edx
	inc	eax
	dec	esp
	mov	edx,4C555A18
	inc	eax
	and	al,60
	insb	
	insb	
	test	al,09
	push	esp
	test	al,09
	or	al,D6
	bound	ecx,eax
	push	60BD40A8
	insb	
	insb	
	sub	eax,689B3E03
	sbb	ch,bl
	mov	edx,C1F6EA49
	mov	esp,3CBA936C
	mov	ebx,[ebx]
	insd	
	inc	eax
	mov	dword ptr [eax+ebp*2+68],B031C7F2
	or	eax,AF3C577E
	into	
	dec	esi
	jmp	far 44CC:ECEE
	jz	004017EC
	push	58CE39CE
	sbb	al,AF
	int	03
	loopne	004017DE
	insb	
	insb	
	scasd	
	inc	eax
	adc	dh,[eax+68]
	push	7720AB7B
	inc	esi
	insb	
	int	03
	or	ebp,[eax+68]
	push	BA9D53C2
	repne	
	in	al,dx
	pop	eax
	cli	
	jg	0040180D
	pop	ecx
	out	dx,ax
	pusha	
	insb	
	insb	
	mov	edx,F258BCFA
	in	al,dx
	inc	eax
	mov	al,[eax+ebp*2+A2DCFC68]
	jle	0040181C
	movsb	
	outsd	
	mov	edx,615AAC93
	jpe	00401809
	js	00401834
	push	3D7A405A
	mov	[687C5740],eax
	push	1248BEC4
	mov	edx,1BC558B4
	insd	
	cmp	[ecx+6D],dl
	dec	eax
	daa	
	pusha	
	arpl	[esi-7D],bx
	insb	
	adc	dl,[eax]
	adc	esp,[esi-7C]
	scasd	
	mov	ebx,68783F40
	push	FDA3DD1A
	sub	[edi+6F584DBA],bh
	jg	004017BE
	outsd	
	iret	
	pop	eax
	popa	
	ret	AD53
	push	C638CC12
	in	al,DB
	out	dx,ax
	wait	
	popa	
	cld	
	scasd	
	int	03
	xchg	eax,ebx
	push	eax
	insb	
	insb	
	push	2C53B2AD
	scasd	
	mov	dl,53
	sbb	al,AF
	inc	esi
	insb	
	inc	eax
	adc	[eax+6C],ebx
	insb	
	and	esi,ecx
	sub	eax,ACE9A70E
	inc	eax
	jmp	BAAC84A7
	push	ebx
	jl	00401881
	push	ebx
	or	al,5A
	insd	
	les	eax,[ebx+53]
	mov	esp,6CBC725A
	test	al,52
	cmp	ah,[eax+6C]
	insb	
	inc	eax
	pop	esi
	insb	
	insb	
	insb	
	illegal	
	imul	eax,[edi+FA246134],B2
	ret	
	pusha	
	bound	eax,[eax+601DCCFB]
	test	al,52
	test	[eax+68],dh
	push	DF9CF88F
	pop	dword ptr [6C6C6C58]
	inc	eax
	dec	edi
	sub	byte ptr [eax+68],6E
	stc	
	illegal	
	sub	bl,[edi+AFBD9E2C]
	push	CEAFBC12
	dec	esi
	jmp	far F4CC:ECEE
	jo	004018F8
	push	085DF6CE
	xor	al,AF
	int	03
	xchg	eax,ecx
	pop	esp
	insb	
	insb	
	push	6C3D40AD
	insb	
	insb	
	and	[edi],esi
	inc	ecx
	dec	ebp
	push	0DCCEC12
	jz	00401916
	push	589DF2BA
	cli	
	jg	0040191E
	sbb	bl,[edi+689D1268]
	adc	ch,ah
	int	03
	ret	
	jl	0040192A
	push	54BB09A8
	bound	ebx,[ecx+0C]
	insb	
	insb	
	insb	
	inc	eax
	sbb	dword ptr [eax+6C],DE88236C
	idiv	eax
	pop	eax
	movsb	
	mov	edx,F6EA0C53
	cli	
	shl	dword ptr [ebp-54],6C
	xchg	eax,ebx
	mov	edx,B7409B3C
	pusha	
	insb	
	insb	
	scasb	
	enter	9E2B,26
	sub	dword ptr [edx+0FCEDC53],20
	repne	
	shr	[edx+53BA3C53],cl
	in	al,dx
	pop	eax
	outsd	
	jg	004018BE
	dec	edi
	scasd	
	inc	eax
	dec	ebp
	jl	00401972
	push	CC6824C7
	mov	edx,97601951
	mov	edx,182C3B08
	illegal	
	inc	eax
	mov	dh,78
	push	12243E68
	aas	
	illegal	
	popa	
	int	03
	mov	esp,12580C5A
	dec	eax
	pop	eax
	jpo	00401988
	jc	0040197E
	pusha	
	mov	[edx+55],bl
	pop	edx
	inc	eax
	mov	eax,5452A8C1
	jz	004019A9
	push	6C58AA40
	insb	
	shl	byte ptr [ecx-09],01
	sub	[edx+684EA4EC],dh
	adc	cl,[esi+ecx*8+4E]
	jmp	far 98CC:ECEE
	jo	004019C3
	push	3EA508CE
	sub	byte ptr [edi+6C5CC4CC],6C
	push	7C53BAAD
	inc	eax
	enter	6C58,6C
	illegal	
	call	far 08EA:5737
	and	[eax-73],bl
	pop	eax
	add	[eax+04],bl
	mov	edx,58DD18C5
	adc	bh,[edx+ebx*2+44]
	les	eax,[eax-48]
	jl	004019F5
	push	8B02B5E0
	dec	dx
	mov	edx,6D1B2FC7
	inc	eax
	adc	al,6C
	insb	
	insb	
	popa	
	insd	
	dec	eax
	daa	
	pusha	
	pop	edx
	popa	
	inc	eax
	inc	eax
	insb	
	insb	
	insb	
	mov	ah,19
	imul	byte ptr [edi]
	scasd	
	push	esi
	adc	ebp,[eax+40A0F215]
	mov	edx,5A686874
	jc	0040197A
	les	ebp,[eax+6878E866]
	push	A51B59BA
	add	esp,386C6C6C
	leave	
	into	
	movsd	
	pop	ds
	sbb	al,11
	lahf	
	illegal	
	push	CC
	mov	bl,60
	insb	
	insb	
	int	03
	stc	
	pusha	
	insb	
	insb	
	int	03
	and	[eax+ebp*2+68],bh
	ret	EC53
	fidivr	word ptr [edx+6C6C2FB0]
	insb	
	ret	4C63
	push	3940FC12
	jz	00401A63
	push	7245B4B0
	mov	eax,9B3CBA28
	xchg	eax,edi
	mov	edi,[edx+99BA4CF2]
	cmp	edx,[ebx+7FFA58BC]
	cmp	[ebx+9A4009DA],ch
	sbb	eax,ecx
	arpl	sp,bx
	call	far 9868:6884
	ror	esp,BE
	test	[eax+68],ch
	and	al,59
	cmp	edi,[esi-21]
	iret	
	inc	eax
	enter	6C6C,6C
	dec	ecx
	add	ebp,[ecx]
	dec	esi
	adc	edi,esp
	xchg	eax,edx
	mov	edx,F2BABCB3
	dec	esp
	inc	eax
	movsb	
	js	00401AAC
	push	13AC53BA
	xchg	eax,ecx
	push	4D6113A4
	mov	al,[96E02633]
	pushf	
	ret	AC53
	sbb	esp,[ebp+6884D440]
	push	7D435243
	mov	dl,F9
	in	eax,dx
	insb	
	insb	
	insb	
	mov	edx,4CB3BAFB
	mov	eax,325EA8F8
	insb	
	insb	
	jpo	00401A2B
	mov	esp,64DE5EA8
	insb	
	insb	
	pop	eax
	repne	
	dec	esp
	inc	eax
	cmpsd	
	insb	
	insb	
	mov	edx,3D405CBB
	jl	00401AF6
	push	E37708C7
	or	edx,esi
	pop	edx
	sub	dword ptr [eax+ebp*4+52],6C
	push	66136868
	test	[edi+4C537BBB],ch
	test	al,52
	xor	[eax+6C],ebx
	insb	
	mov	edx,E1408C67
	pop	eax
	insb	
	insb	
	shl	dword ptr [ebx+ebp],01
	add	[ebp+48],ebx
	fisubr	word ptr [eax+6880DF52]
	push	C1FAF6EA
	mov	esp,3CBA936C
	pop	edx
	pop	ebp
	jl	00401B0F
	sti	
	test	[eax+68],ch
	enter	95D9,B0
	or	al,7F
	mov	al,[1C53AAF0]
	into	
	mov	ebp,AABDBDBD
	push	ebx
	sub	al,CE
	insb	
	pop	ss
	insb	
	insb	
	stosb	
	push	ebx
	int	03
	into	
	insb	
	pop	ss
	insb	
	insb	
	inc	eax
	test	[eax+68],dh
	push	DE3D1D40
	fiadd	dword ptr [ebx+53BAAD68]
	sub	al,C1
	pop	esp
	insb	
	xchg	eax,ebx
	mov	edx,1C5D5A3C
	inc	eax
	ror	[eax],cl
	push	16D59268
	mov	bl,02
	jno	00401B1D
	sub	dl,al
	jle	00401AFC
	jmp	edx
	shl	dword ptr [ebp+4C],6C
	mov	edx,65C17C53
	mov	esp,3CBA936C
	push	68464C12
	into	
	dec	esi
	jmp	far 1BCC:ECEE
	js	00401BA3
	push	5E3BD8CE
	xchg	eax,ecx
	inc	eax
	scasd	
	js	00401BAD
	push	687AA18B
	jnc	00401BA1
	dec	esp
	cmpsb	
	cmp	[eax+ebp*2+68AFDC12],bh
	adc	bl,[ebp+68802DCC]
	push	AC7C5308
	insb	
	insb	
	insb	
	test	al,5E
	mov	edx,40686874
	jg	00401BCC
	insb	
	insb	
	test	[esp+ebx-05],ebp
	pop	eax
	mov	dl,8C
	in	al,BA
	push	ebx
	dec	esp
	shl	dword ptr [ebp+4C],6C
	xchg	eax,ebx
	mov	edx,6E6CCE3C
	insb	
	insb	
	inc	eax
	test	byte ptr [eax],68
	push	DAA2A96C
	pop	eax
	outsd	
	jg	00401B4C
	xchg	eax,ebx
	dec	esp
	mov	edx,65580E6F
	mov	edx,EF2EBA0C
	pop	eax
	and	al,38
	ror	ebp,cl
	or	[edx+EF5B8612],ebx
	sub	bl,[ebx+72BA8B97]
	mov	esp,2FF3BADE
	insb	
	insb	
	insb	
	mov	edx,0340BCFA
	or	al,68
	push	576DD6F8
	and	eax,BAC24FEA
	dec	edi
	mov	dx,es
	mov	bl,7C
	mov	edx,C11BBCF2
	inc	eax
	add	[esp+ebp*2+6C],ebp
	mov	[68787440],eax
	push	F2240500
	lock	
	inc	esi
	insb	
	into	
	dec	esi
	jmp	far 62CC:ECEE
	test	[eax+68],ch
	into	
	adc	eax,AF1BDF68
	int	03
	push	cs
	pusha	
	insb	
	insb	
	push	1C53B2AD
	inc	eax
	iret	
	test	[eax+68],ch
	xor	eax,4FCCF5EE
	mov	ch,82
	push	ds
	pop	esp
	mov	edx,BA58381B
	sbb	ch,[eax+ebx*2+7ABA4C12]
	lodsb	
	inc	eax
	mov	bh,80
	push	61ACB968
	cmpsd	
	stosb	
	mov	dl,53
	dec	esp
	scasd	
	inc	esi
	push	EEEA4ECE
	in	al,dx
	int	03
	jg	00401BB5
	push	BC7DCE68
	push	ebp
	sbb	ch,[edi+6C601BCC]
	insb	
	push	74F440AD
	push	E75E3768
	pusha	
	jpo	00401C14
	wait	
	int	03
	cmp	[eax+6C],ah
	insb	
	or	[ebx+7C],dl
	pop	esp
	insb	
	insb	
	insb	
	test	al,5E
	and	al,74
	push	1268AF68
	popf	
	int	03
	or	dword ptr [eax+ebp*2],68
	inc	eax
	in	al,74
	push	F29DC068
	inc	edi
	jpo	00401C25
	jl	00401C1C
	imul	byte ptr [eax+68]
	push	C1FAF6EA
	dec	esp
	insb	
	inc	eax
	inc	esp
	sub	byte ptr [eax+68],B4
	jpe	00401CB3
	movsd	
	pop	esp
	illegal	
	inc	eax
	illegal	
	insb	
	insb	
	insb	
	mov	[589C5BBA],eax
	push	ebx
	popf	
	mov	edx,B358BCBB
	in	al,dx
	inc	eax
	rcl	[eax],cl
	push	E68CE368
	inc	edi
	mov	dl,16
	call	EC52858D
	int	03
	push	cs
	jz	00401D19
	push	68FC1268
	adc	ch,ah
	int	03
	insd	
	jz	00401D24
	push	589DF2BA
	cli	
	jg	00401C76
	cli	
	mov	[eax+1A],gs
	cmovo	ebx,ebp
	or	[eax+68],ch
	wait	
	call	far 0355:8F46
	mov	al,[5CFA5857]
	pop	edx
	jpe	00401D38
	dec	esp
	test	al,4A
	fsave	word ptr [eax+68]
	push	C1FAF6EA
	dec	esp
	insb	
	inc	eax
	insb	
	insb	
	insb	
	into	
	mov	dl,AD
	jcxz	00401D59
	add	[ebp+F8DF5CF8],ch
	pop	esp
	illegal	
	popa	
	clc	
	pop	esp
	fild	qword ptr [eax+61F49938]
	clc	
	pop	esp
	illegal	
	popa	
	test	al,38
	popa	
	inc	eax
	ret	
	js	00401D7A
	push	49183F14
	mov	cl,12
	mov	edx,65584E5C
	inc	eax
	xchg	eax,edi
	push	64386868
	sbb	ebp,[ebp+02]
	pop	edx
	push	ebp
	pop	esp
	arpl	[eax+6B],bx
	push	D2236868
	mov	cl,02
	aaa	
	mov	eax,A752A8C1
	push	12686868
	int	03
	push	1FCC9D12
	jz	00401DB0
	push	40ECB3BA
	mov	bl,[eax+ebp*2]
	push	1E23D3E3
	sub	eax,65C196E9
	dec	esp
	insb	
	xchg	eax,ebx
	mov	edx,0C5D5A3C
	wait	
	xchg	eax,edi
	mov	edi,[edx+D740BC53]
	adc	al,68
	push	CFE26269
	xchg	eax,ebx
	mov	edx,7C5D5A3C
	wait	
	xchg	eax,edi
	mov	edi,[edx+BC404C53]
	jz	00401DE9
	push	61EC0793
	rep	
	call	far 4E5A:A896
	sub	byte ptr [eax+68],19
	arpl	fs:[0807CCAC],bx
	push	1A6DA468
	or	[eax+68782E52],ch
	push	80A74045
	push	0BA83F68
	nop	
	xchg	eax,edi
	mov	[682C1268],eax
	adc	bl,[eax+ebp*2]
	adc	bl,ah
	wait	
	int	03
	illegal	
	push	53C26868
	fsubr	double ptr [eax+12]
	or	al,68
	adc	bl,ah
	inc	eax
	jbe	00401E3F
	push	A64B3A68
	shl	byte ptr [edx+20],61
	sub	eax,14DE5EA8
	push	4CF25868
	inc	eax
	cmpsd	
	adc	al,68
	push	58BC5BBA
	push	ebx
	dec	esp
	scasd	
	int	03
	sbb	[eax+ebp*2],ecx
	push	5A7C53C2
	jpo	00401E61
	inc	eax
	lodsb	
	jz	00401E61
	push	41D1DF82
	xchg	eax,ebp
	imul	ecx,[edi-46],7C5D5A3C
	mov	dl,53
	jl	00401DB9
	push	53B2AC12
	mov	esp,74B040AF
	push	F2048068
	in	al,D0
	and	eax,6EC41A34
	jl	00401E72
	sbb	dl,[edx+ebx*2+0C]
	push	0A
	arpl	fs:[ebx-6E],bx
	inc	eax
	hlt	
	test	[eax+68],ch
	or	esp,esp
	repne	
	sub	[ecx+6532CC84],dl
	mov	esp,3CBA936C
	xchg	eax,edi
	mov	edi,[edx+74BA4C12]
	mov	edx,1E40BCB3
	sub	byte ptr [eax+68],B7
	xchg	eax,ebx
	xor	cl,al
	sar	[edi],cl
	rep	
	cmp	[eax+edi+1BA4BA5C],dh
	insd	
	jpo	00401DF8
	test	al,52
	sub	edi,[eax+68]
	push	5C65C1FA
	insb	
	inc	eax
	inc	edx
	or	al,68
	push	9AD7FFCE
	cmp	[edi+ecx*2+61A8CC61],ch
	in	al,dx
	test	al,A8
	or	[edx+40],ecx
	mov	bl,06
	insb	
	insb	
	mov	eax,403C12C1
	iret	
	or	al,68
	push	79F52946
	enter	76B6,B8
	ret	F671

fn00401E98()
	neg	bl
	inc	ecx
	sub	ecx,ebx
	xor	eax,esi
	mov	bl,85
	add	eax,esi
	sub	eax,edi
	jmp	00402BA7
00401EAA                               ED 10 76 34 74 F2           ..v4t.
00401EB0 70                                              p              

l00401EB1:
	inc	ebx
	dec	edi
	add	esi,ebx
	mov	bl,15
	add	edi,ebx
	or	esi,edx
	dec	edi
	mov	eax,ecx
	inc	edi
	sub	bh,dl
	call	004027E2
	js	00401F3C

l00401EC9:
	jz	00401EB1

l00401ECB:
	or	byte ptr [edi+8AD42444],F8

fn00401ECC()
	pop	dword ptr [esp-2C]
	mov	bh,al
	mov	bh,bl
	or	edi,esi
	or	edi,edx
	sub	ecx,edi
	or	ch,ah
	jle	00402122

fn00401EE2()
	repne	
	jg	00402122
	mov	dh,C6
	add	[eax],ch
	illegal	

fn00401EF0()
	mov	bh,al
	inc	ebx
	mov	bh,dl
	mov	ch,al
	add	edx,0000048F
	sub	bh,bl
	dec	edi
	mov	cl,69
	inc	edi
	xor	bh,dh
	call	0040284D
	loop	00401F57

l00401F0C:
	daa	
	fdiv	dword ptr [edi+01]
	fadd	double ptr [edx]

fn00401F11()
	add	dl,bl

fn00401F12()
	shr	[ebx],cl
	fdiv	dword ptr [edx+0000E8D2]
	add	[eax],al

fn00401F1C()
	or	ah,bh
	xor	dl,cl
	or	edi,esi
	xor	eax,ecx
	dec	ecx
	mov	al,2A
	call	004020E8
	pop	ss
	mov	dl,cl
	xor	edx,esi

fn00401F30()
	xor	edx,esi

fn00401F32()
	mov	ch,ah
	mov	cl,bh
	xor	bh,ch
	mov	dh,F6
	sub	ebx,eax

fn00401F3C()
	call	eax
	mov	edx,ecx
	or	esi,edi
	js	004023A8

fn00401F48()
	push	di
	pop	di
	push	edx
	pop	edx
	jns	004023A8

l00401F54:
	cmp	eax,BC932F7F

fn00401F57()
	xchg	eax,ebx
	mov	esp,240C8941

fn00401F5A()
	mov	[esp],ecx

l00401F5D:
	repne	
	xchg	ebx,ebx
	pop	ecx
	xor	edi,esi
	inc	ebx
	mov	ecx,ebx
	add	esi,ecx
	or	ecx,eax
	mov	edx,ebx
	add	dl,al
	call	00402AD4
	aaa	
	mov	esp,D1077204
	push	ds
	inc	eax

fn00401F7B()
	xchg	[esp],edi
	push	di
	pop	di
	pop	edi
	mov	cl,16
	xor	bl,ch
	mov	bl,ch
	inc	ebx
	add	ecx,eax
	mov	bh,bl
	dec	ebx
	call	00402BED
	mov	ch,A3
	outsb	
	std	
	insb	
	ror	dword ptr [edi+03F42444],01

fn00401F9A()
	pop	dword ptr [esp-0C]
	add	esi,edx

l00401F9F:
	repne	
	xor	bl,dl
	inc	esi
	xor	edi,ebx
	dec	esi
	or	ebx,edi
	mov	edi,edx
	movzx	ebx,ah
	sub	esi,ecx
	jle	004025D2

l00401FB5:
	jpo	00401FB7

l00401FB7:
	jmp	00401FBC

l00401FBC:
	jg	004025D2

l00401FC2:
	sbb	edx,eax
	cld	
	adc	al,cl

fn00401FC7()
	add	ecx,edi
	sub	ah,1A
	xor	ecx,edi
	dec	ecx
	add	cl,bl
	sub	ebx,eax
	sub	ecx,ebx
	call	004028CA
	cli	
	jo	00401FDD

l00401FDD:
	or	al,B1
	mov	ah,5C

fn00401FE1()
	mov	dl,88
	or	edi,edx
	xor	dh,ch
	or	dh,ah
	sub	cl,bl
	mov	edi,ebx
	jmp	00401F30
00401FF2       98 60 76 15 EA 7A 86                        .`v..z.      

l00401FF9:
	or	bl,dl
	add	ebx,edx
	xor	cl,bh
	mov	bh,B0
	add	ah,dh
	xor	cl,dl
	mov	ah,8F
	call	00402410
	sub	bl,[ebp-56]
	int	87

fn00402010()
	xchg	[esp],esi
	xchg	al,al
	pop	esi
	add	ebx,edx
	neg	bh
	xor	bl,ah
	call	00402B5A
	add	[edi-15],dl
	jg	4A20446E

fn00402025()
	pop	dword ptr [esp-20]
	dec	ecx

fn0040202A()
	sub	ecx,edi
	dec	ebx
	xor	ah,ch
	xor	cl,bh
	sub	edi,edx
	xor	cl,bh
	jmp	004025B6
0040203A                               3E 92 78 FE 59 96           >.x.Y.

fn00402040()
	add	ch,cl
	mov	ebx,edi
	dec	ecx
	neg	ah
	xor	ebx,edx
	mov	ch,ah
	add	ebx,edi
	js	00402866

fn00402053()
	xchg	esi,esi
	repne	
	jns	00402866
	xchg	eax,ebx
	in	eax,B0
	std	
	sub	ecx,[esi-7F]
	nop	

fn00402064()
	or	edx,edi
	sub	edi,edx
	neg	bl
	add	esi,edi
	add	ebx,edx
	add	edi,esi
	sub	bl,ah
	neg	dl
	mov	dl,2E
	movzx	edx,al
	jz	00402138

l0040207F:
	push	edx
	pop	edx
	jns	00402083

l00402083:
	jnz	00402138

l00402089:
	pop	esi
	pop	esp
	movsb	
	clc	
	sub	eax,F6F90AE6

fn0040208F()
	or	bh,cl
	neg	bl

l00402092:
	illegal	
	illegal	
	mov	bl,F9
	or	bh,bl
	xor	bh,dh
	mov	ebx,eax
	neg	bh
	inc	edi
	jmp	0040275F
004020A5                23 B6 FE 0A B8 3B                     #....;    

l004020AB:
	inc	ecx
	add	eax,ecx
	add	ch,bl
	xor	eax,edx
	sub	bl,al
	xor	bl,cl
	or	bl,ah
	add	ah,dh
	add	cl,dh
	call	00402927
	jpe	00402107

l004020C3:
	mov	dh,[D42A2D2D]

fn004020C7()
	sub	dl,ah

fn004020C9()
	mov	eax,ebx
	dec	edi
	mov	ah,dh
	neg	ch
	add	edi,ebx
	inc	ebx
	sub	bl,ch
	mov	dl,cl
	jle	00401F11

fn004020DD()
	rep	
	jg	00401F11
	leave	
	push	esi
	illegal	

fn004020E8()
	pop	dword ptr [esp-34]
	or	al,bh
	add	ecx,ebx
	neg	dh
	mov	dl,43
	or	al,bl
	mov	dh,cl
	pop	ecx
	call	004028A9
	dec	esi
	pushf	
	xor	eax,F40ECA62

fn00402105()
	xor	ebx,eax

fn00402107()
	or	ebx,esi
	add	eax,[eax+3C]
	or	bl,ch
	add	edi,eax
	xor	ebx,esi
	sub	edi,eax
	inc	edi
	jmp	004029FB
0040211A                               F1 BC 21 71 75 94           ..!qu.
00402120 BA 0B                                           ..             

fn00402122()
	neg	dh
	mov	ebx,edi
	sub	esi,edx
	xor	esi,edx
	inc	edi
	sub	esi,edx
	call	00402320
	xor	eax,C20CD83B
	call	far DC32:D82A

l00402138:
	sub	bl,al
	xor	bl,ah
	mov	bh,AE
	sub	bh,bl
	mov	bl,dh
	mov	bh,bl
	xor	edi,esi
	call	00401F9A
	inc	ecx
	illegal	
	sti	
	cmp	eax,edx
	cmc	

fn00402152()
	xchg	[esp],ecx
	mov	cx,cx
	jmp	0040215D

l0040215D:
	pop	ecx
	mov	cl,50
	mov	bl,6E
	mov	ah,EE
	inc	eax
	mov	al,ah
	call	00401F5A
	pop	esp
	nop	
	dec	esp

fn00402170()
	xor	edi,ecx
	neg	bl
	mov	edi,esi
	mov	bl,01
	inc	esi
	xor	ebx,eax
	sub	edi,ebx
	or	esi,ecx
	xor	bl,ch
	jmp	004024A5
00402186                   81 C0 21 14                         ..!.     

fn0040218A()
	neg	ch
	xor	cl,bl
	add	cl,bh
	add	ah,dl
	xor	cl,ah
	mov	ah,[esi]
	or	bl,dl
	jmp	00402200
0040219A                               95 34 D0 79 95              .4.y.

l0040219F:
	sub	ah,al
	or	al,bl
	push	dword ptr [ecx]
	inc	ebx
	or	edx,ecx
	dec	edi
	xor	ebx,edx
	mov	ebx,eax
	sub	edi,ebx
	or	edi,edx
	call	004021BE
	leave	
	loop	004021CD

l004021B9:
	xor	[esi+8900612F],ch

fn004021BE()
	mov	[esp],edi

fn004021BF()
	cmp	al,24
	push	edi
	pop	edi
	lea	eax,[eax]
	pop	edi
	sub	ebx,ecx
	mov	bh,bl
	or	bh,bl
	xor	edx,eax

fn004021CD()
	rol	byte ptr [edx],01

fn004021CE()
	add	bl,bh
	jpe	00402625

fn004021D6()
	lea	ecx,[ecx]
	jpo	00402625

l004021DE:
	xchg	[ebp+edi*4-15],ebp
	pop	edx

l004021E3:
	pop	edx

fn004021E4()
	mov	bh,ch
	or	edi,esi
	sub	esi,eax
	inc	ebx
	mov	edi,eax
	xor	bl,al
	add	ebx,ecx
	mov	bh,CC
	jmp	00402170
004021F8                         E6 CC BB 7F C7 E1 FE DF         ........

l00402200:
	neg	bh
	add	bl,al
	dec	ebx
	mov	cl,26
	add	cl,ah
	mov	ecx,eax
	neg	ch
	jmp	00402892
00402212       12 8A 46 06 5E                              ..F.^        

fn00402217()
	pop	dword ptr [esp-30]
	dec	edi
	neg	bl
	not	eax
	dec	esi
	add	ebx,eax
	sub	ebx,eax
	jbe	0040280D

l0040222B:
	push	ax
	pop	ax
	mov	bl,bl
	ja	0040280D

l00402237:
	push	es
	dec	edx
	mov	[ebp+74232FAC],cs

fn0040223F()
	add	bl,ah
	xor	edx,esi
	inc	edi
	mov	eax,edx
	mov	dl,BC
	or	edi,ecx
	sub	edi,ebx
	jpe	0040225E

l0040224E:
	jmp	00402253

l00402253:
	rep	
	jpo	0040225E
	dec	ebx
	push	esi
	push	ecx
	jc	00402238
	test	ch,cl
	loope	00402292

l0040225E:
	xor	ebx,esi
	or	edi,edx
	mov	esi,edx
	or	edi,ebx
	add	bh,ah
	add	dh,bh
	or	edi,ecx
	neg	al
	mov	bh,CA
	add	dh,ch
	jpe	0040219F

l00402278:
	rep	
	jpo	0040219F
	jpo	00402296
	fstenv	word ptr [ebp-06]
	lodsd	

l00402285:
	xor	al,ch
	inc	ecx
	sub	al,ch
	inc	ecx
	xor	cl,ah
	add	al,dl
	xor	ah,cl
	dec	eax
	jmp	0040229A
00402294             9D C0 21 70 79 8D                       ..!py.     

l0040229A:
	xor	al,bh
	dec	edi
	or	ecx,eax
	mov	ch,04
	xor	cl,bh
	inc	ecx
	add	eax,edi
	mov	ah,9B
	jpe	00402BCA

l004022AE:
	xchg	ah,ah
	jpo	00402BCA

l004022B6:
	push	ebx
	lea	eax,[edi+1B]
	test	[edx],eax

l004022BB:
	add	dl,al

fn004022BC()
	shr	byte ptr [ebx],01
	xlat	
	sub	edi,edx
	sub	ecx,eax
	dec	esi
	mov	ebx,esi
	push	00
	inc	edx
	mov	dl,cl
	inc	ebx
	jo	00401FE1

fn004022D2()
	jmp	004022D8
004022D7                      9A                                .       

l004022D8:
	jno	00401FE1

l004022DE:
	add	[ebp+08],bl
	jge	004022EE

fn004022E2()
	or	ebx,ecx

l004022E3:
	illegal	

fn004022E4()
	or	bl,cl
	or	ebx,ecx
	mov	bh,E0
	add	bh,cl
	xor	ebx,eax

fn004022EE()
	jmp	00401EB1
004022F3          A6 84 2A 14 D8                            ..*..       

fn004022F8()
	lea	esp,[esp+04]
	or	ch,dh
	neg	bl
	dec	ecx
	or	ch,ah
	or	ecx,ebx
	mov	cl,3A
	mov	ch,43
	dec	ebx
	or	ecx,eax
	jle	004025ED

l00402312:
	push	ecx
	pop	ecx
	xchg	cl,cl
	jg	004025ED

l0040231C:
	mov	[895CB207],al

fn00402320()
	mov	[esp],eax
	rep	
	pop	eax
	sub	edi,edx
	or	al,ah
	mov	bl,62
	mov	dh,97
	mov	ch,dl
	jmp	00402A76
	mov	dh,FE
	adc	[edi+ecx*4+8BD7C5B4],eax

fn0040233C()
	mov	edi,ebx
	sub	esi,eax
	xor	esi,edx
	mov	esi,ecx
	add	eax,edx
	dec	edi
	add	edi,edx
	inc	edi
	jmp	004024BE
0040234F                                              34                4
00402350 8F CA 88 D9 F5 A2 C8                            .......        

fn00402357()
	pop	dword ptr [esp-28]
	or	cl,dh
	add	ebx,eax
	mov	bl,ah
	mov	ecx,edx
	or	ecx,esi
	jle	00402C07

l0040236B:
	xchg	di,di
	jg	00402C07

l00402374:
	jmp	dword ptr [ebx-04]
00402377                      65 73 46                          esF     

fn0040237A()
	add	bh,ah
	add	edi,ecx
	dec	ebx
	mov	eax,[eax]

fn00402380()
	add	[ebx],cl
	rep	
	dec	esi
	jmp	00402520
00402389                            C2 05 86 26 3D                ...&= 

l0040238E:
	inc	eax
	add	edi,eax
	mov	esi,eax
	neg	dh
	or	ah,ch
	or	bh,bl
	or	bl,bh
	sub	bh,cl
	jmp	00402680
004023A2       4C A4 0E 76 5A 2E                           L..vZ.       

fn004023A8()
	mov	esi,ebx
	neg	dl
	sub	ebx,eax
	add	bh,ah
	inc	edx
	neg	ch
	call	00402824
	jpe	00402422

l004023BA:
	jns	00402380

l004023BC:
	add	bh,dh

fn004023BE()
	pop	dword ptr [esp-34]
	sub	bh,bl
	add	bh,ah
	mov	esi,ebx
	mov	bl,al
	add	bh,cl
	sub	bl,ah
	or	bl,dh
	mov	ebx,ecx
	jmp	00402A98
004023D7                      AF 04 D7 84                       ....    

fn004023DB()
	xchg	[esp],ecx
	push	ebx
	pop	ebx
	xchg	ch,ch
	pop	ecx
	or	esi,eax
	mov	bl,9E
	or	esi,edi
	neg	bl
	mov	bh,dh
	jmp	00402799
004023F2       0D 2E 5E 5F 35                              ..^_5        

fn004023F7()
	mov	bh,08
	xor	edi,eax
	inc	esi
	sub	bh,bl
	lea	edx,[eax+000000F8]
	xor	bh,al
	neg	bh
	add	bh,cl
	jmp	00402478
0040240C                                     E5 24 C5 8C             .$..

fn00402410()
	pop	dword ptr [esp-30]
	mov	al,dl
	add	ebx,edx

fn00402418()
	or	ecx,edx
	mov	bl,BB
	add	cl,ah
	mov	bh,dh
	add	ch,bh

fn00402422()
	jmp	0040218A
00402427                      EA 2E D9 D3 4E 68 8B 70           ....Nh.p

fn0040242F()
	sub	bl,bh
	mov	bh,A1
	sub	ebx,edi
	xor	ebx,esi
	or	eax,eax
	jnz	00402C9A

l0040243F:
	mov	bh,58
	add	bl,ch
	mov	bl,57
	js	004022E2

l0040244B:
	mov	ebx,ebx
	xchg	ah,ah
	jns	004022E2

l00402455:
	jo	00402462

l00402457:
	pop	esi
	jns	004024AC

fn0040245B()
	xchg	[esp],eax
	lea	edi,[edi]
	pop	eax
	xor	edi,edx

fn00402462()
	cli	
	add	eax,ecx
	mov	ebx,eax
	add	esi,edi
	xor	ebx,eax
	add	bl,bh
	call	004023BE

l00402472:
	fidivr	word ptr [edx-6F]
	push	ds
	out	dx,ax
	jbe	004024C0

l00402478:
	inc	edi
	xor	bl,dl
	add	esi,edi
	inc	edi
	mov	esi,ecx
	mov	bh,al
	or	bh,cl
	jmp	0040208F
00402489                            85 5F 3A 1D BE                ._:.. 

l0040248E:
	mov	esi,edx
	inc	esi
	or	edi,ebx
	xor	cl,ch
	mov	ch,1F
	sub	ch,cl
	call	00402C1C
	push	cs
	pop	edx
	popa	
	jz	0040248E

l004024A3:
	lock	
	inc	eax

fn004024A5()
	add	esi,ecx
	add	edx,ecx
	mov	cl,bh
	neg	bh

fn004024AC()
	fild	word ptr [ebx]
	illegal	
	xor	bh,dl
	jmp	00402B8A
004024B6                   56 FA 37 6E A4 0E A8 5A             V.7n...Z 

l004024BE:
	inc	esi
	sub	esi,eax
	or	edi,ebx

fn004024C2()
	sti	
	inc	edi
	or	esi,edx
	inc	edi
	add	eax,ebx
	jpe	0040265B

fn004024CF()
	jmp	004024D5
004024D4             F9                                      .          

l004024D5:
	jpo	0040265B

l004024DB:
	cld	
	push	ebp
	wait	
	scasd	
	jbe	004024EB

l004024E1:
	cmp	eax,8ABEB548

l004024E2:
	dec	eax
	mov	ch,BE
	mov	ch,dh

fn004024E6()
	out	dx,al
	inc	ecx
	xor	eax,edx
	dec	eax

fn004024EB()
	sub	ch,al
	add	ecx,edi
	jmp	00402779
004024F4             56 E0 46 70 5F F6 DF 8A D9 4F 0B C3     V.Fp_....O..
00402500 B5 70 0B F1                                     .p..           

fn00402504()
	mov	al,B0
	mov	al,ah
	mov	ah,bl
	or	eax,esi
	xor	ah,dh
	sub	ah,cl
	neg	ah
	mov	ah,78
	xor	eax,ebx
	call	00402B40
	dec	ebp
	stosb	
	or	[ecx],ecx
	in	eax,4E

fn00402520()
	dec	esi

fn00402521()
	inc	ebx
	mov	bh,5C
	mov	bh,ch
	or	bl,dh
	mov	bl,cl
	sub	bh,al
	sub	edi,edx
	inc	esi
	add	bh,al
	call	0040245B
	mov	bl,44
	jc	004024C2

fn0040253A()
	loope	0040257F

fn0040253B()
	inc	ebx

fn0040253C()
	add	edi,ebx
	sub	ebx,ecx
	xor	bl,bh
	mov	al,ah
	sub	eax,ebx
	jle	00402A1E

fn0040254C()
	push	bx
	pop	bx
	jg	00402A1E

l00402556:
	and	ebx,[edx]
	add	esp,[ecx+B041793F]

fn0040255C()
	inc	ecx
	mov	al,DF

fn0040255E()
	fild	word ptr [ebx]
	sti	
	add	bh,ah
	sub	edi,eax
	inc	ebx
	add	eax,esi
	neg	bl
	mov	edi,ebx
	jmp	0040253B
0040256E                                           63 86               c.
00402570 05 1E 7D C3 F6 DE 8B CA 2B F8 8A FD 03 CB 2A    ..}.....+.....*

l0040257F:
	call	470E2FCC
	jmp	004024F9
	or	al,22
	das	
	movsd	

l0040258E:
	xor	esi,eax
	mov	bl,ch
	xor	esi,ecx
	mov	bl,3C
	add	bl,ch
	neg	bl
	mov	bh,al
	jpe	0040237A

l004025A2:
	xchg	bh,bh
	jmp	004025A9

l004025A9:
	jpo	0040237A

l004025AF:
	lodsd	
	mov	bh,CB
	and	ch,[edi+ebx*4+2A]

fn004025B6()
	mov	bh,dl
	push	edx
	or	eax,edx
	mov	bl,B4
	add	edi,eax
	add	eax,esi
	or	edi,eax
	xor	edi,esi
	or	ecx,edi
	mov	ebx,edi
	jmp	004029BA
004025CE                                           C9 86               ..
004025D0 58 9B                                           X.             

l004025D2:
	add	esi,edx
	sub	esi,eax
	xor	edi,esi
	xor	esi,ebx
	xor	esi,edx
	or	edi,esi
	shr	eax,10
	dec	edi
	jmp	0040233C
004025E7                      02 10 7B 19 F5 6E                 ..{..n  

l004025ED:
	neg	ch
	add	bl,ch
	neg	cl
	neg	bh
	dec	ebx
	ror	ah,02
	mov	ch,cl
	add	ecx,esi
	add	ch,dl
	call	00402730
	illegal	
	illegal	
	push	ecx
	in	eax,ED
	loop	00402658

fn0040260C()
	dec	ebx
	sub	esi,eax
	dec	eax
	sub	bh,dl
	mov	edx,ebx
	dec	edx
	mov	dh,2C
	push	40
	mov	bl,AE
	dec	ecx
	call	00402152
	inc	esp
	sti	
	illegal	

fn00402625()
	xor	ah,dh
	dec	edx
	pop	eax
	sub	edi,esi
	sub	edi,ebx
	add	ebx,esi
	or	ebx,esi
	mov	bh,ah
	or	bl,bh
	call	0040296F
	mov	word ptr [edx+8FFE6876],2444

fn00402640()
	pop	dword ptr [esp-20]

fn00402643()
	loopne	00402693

l00402645:
	dec	esi
	or	esi,edx
	xor	bh,bl
	xor	esi,eax
	xor	bh,bl
	dec	edi
	dec	ebx
	call	00402217

fn00402655()
	add	bh,[edx+5C]
	lea	eax,[ecx+ecx*2]

fn0040265B()
	mov	edi,edx
	add	bl,cl
	sub	bh,bl
	mov	bl,ch
	dec	esi
	add	bh,al
	mov	bl,1C
	dec	edi
	mov	bh,CD
	neg	bl
	js	004028E1

fn00402671()
	add	[eax],al

fn00402673()
	mov	ecx,ecx
	jns	004028E1

fn0040267B()
	pop	ds
	mov	eax,B2D1E934

fn00402680()
	mov	dl,E4

fn00402681()
	in	al,0A
	illegal	
	add	dl,bl
	add	ah,dh
	mov	bh,CC
	xor	bh,cl
	add	edx,eax
	shl	ecx,0F
	inc	ebx
	jmp	0040223F

fn00402693()
	test	al,FB
	illegal	
00402697                      80 A6 98 36 0A 9B 61 2F           ...6..a/

fn0040269F()
	or	cl,dl
	mov	ecx,edx
	mov	ecx,edi
	inc	esi
	sub	ah,cl
	mov	eax,ebx
	sub	ecx,edi
	or	eax,edx
	mov	ch,dh
	jmp	00402C6C
004026B5                6C 50 6E 84 E0 2E 7C                  lPn...|   

fn004026BC()
	lea	esp,[esp+04]
	xor	bl,bh
	add	bl,dh
	sub	bh,dl
	neg	bl
	inc	esi
	mov	ebx,esi
	inc	edi
	xor	edi,esi
	xor	bh,dl
	jle	004021E3

l004026D6:
	mov	ecx,ecx
	jg	004021E3

l004026DE:
	mov	esi,B474834D
	add	ch,[eax]
	jl	00402671

fn004026E6()
	mov	ah,cl

fn004026E7()
	loope	00402714
	lock	
	mov	al,3F
	shr	ecx,0F
	add	ah,bh
	sub	eax,ebx
	jle	0040238E

l004026F9:
	push	edx
	pop	edx
	repne	
	jg	0040238E
	mov	cl,19

fn00402704()
	sbb	esp,esp

fn00402706()
	mov	cl,al
	mov	bl,ED
	mov	ebx,edx
	sub	bl,bh
	inc	ebx
	sub	bl,cl
	call	00402357

l00402714:
	illegal	
	pop	ebx
	dec	ecx
	jmp	004026FA
	and	eax,F92BFE33

fn0040271B()
	xor	edi,esi
	sub	edi,ecx
	xor	edi,ecx
	xor	ebx,esi
	sub	bl,dl
	xor	bh,ah
	call	00402CD7
	rol	[edx+648D333E],cl

fn00402730()
	lea	esp,[esp+04]

fn00402732()
	and	al,04
	inc	ebx
	or	ecx,edx
	sub	ebx,eax
	mov	cl,bh
	or	ecx,esi
	sub	ch,dh
	add	ebx,edi
	jz	00402040

fn00402747()
	jmp	0040274C

l0040274C:
	jmp	00402751

l00402751:
	jnz	00402040

l00402757:
	bound	esp,esp
	jge	00402740
	mov	ch,CC
	push	ebx
	cmp	dh,[edx]

fn0040275F()
	xor	bl,ch
	push	dword ptr [edx+08]
	neg	bl
	mov	esi,edi
	sub	bh,al
	add	bh,dl
	xor	bl,ch
	dec	edi
	call	004023DB
	rcr	bl,01
	jcxz	00402704

l00402778:
	leave	

fn00402779()
	mov	[edx],bh
	or	al,bl
	xor	cl,bl
	or	ah,bl
	add	eax,esi
	mov	ecx,eax
	js	004029E5

l0040278B:
	mov	bl,bl
	lea	ebx,[ebx]
	jns	004029E5

l00402795:
	add	[esp+edi*4+03D932D2],al

fn00402799()
	xor	bl,cl
	add	edi,eax

fn0040279C()
	clc	
	lea	eax,[eax+78]
	mov	ebx,ecx
	xor	ebx,eax
	mov	bh,dh
	sub	esi,ebx
	sub	bh,ch
	sub	esi,ecx
	jpe	0040271B

fn004027B2()
	mov	ebx,ebx
	repne	
	jpo	0040271B
	aam	E3
	xchg	eax,edi
	jo	004027C3

fn004027BF()
	add	eax,esi
	dec	edi
	add	eax,esi
	neg	al
	inc	edi
	or	eax,esi
	sub	ebx,eax
	or	bl,bh
	jo	004026E6

l004027D3:
	push	si
	pop	si
	jno	004026E6

l004027DD:
	jmp	ebp
004027DF                                              83                .
004027E0 1A 63                                           .c             

fn004027E2()
	pop	dword ptr [esp-20]
	or	ebx,ecx
	sub	edi,eax
	dec	edi
	or	bh,al
	mov	bl,bh
	inc	esi
	mov	edi,ebx
	mov	bl,BE
	xor	edi,ecx
	js	00402105

l004027FC:
	xchg	cl,cl
	jmp	00402803

l00402803:
	jns	00402105

l00402809:
	mov	[46FA9D6B],al

fn0040280D()
	inc	esi

fn0040280E()
	inc	esi
	or	esi,eax
	sub	edi,ebx
	mov	bl,ah
	add	bl,ah
	dec	edi
	dec	esi
	jmp	0040242F
0040281E                                           08 0B               ..
00402820 13 46 4E DC                                     .FN.           

fn00402824()
	pop	dword ptr [esp-28]
	add	ebx,eax
	dec	edi
	or	bh,al
	or	esi,ecx
	mov	ecx,esi
	mov	dh,al
	mov	bh,dh
	add	edi,edx
	jo	00402C4F

l0040283D:
	xchg	bl,bl
	rep	
	jno	00402C4F
	lodsb	
	push	ds
	lea	edi,[edx+8DC8B3A3]

fn0040284D()
	lea	esp,[esp+04]
	xor	eax,ecx
	add	cl,ch
	mov	edi,ebx
	mov	edi,ecx
	inc	ecx
	or	edi,edx
	call	00402025
	dec	esi
	pop	ss
	iret	
00402864             2F 86                                   /.         

fn00402866()
	or	cl,al
	add	ecx,edi
	mov	bh,D5
	neg	cl
	dec	ecx
	dec	ebx
	jmp	00401FC7
00402875                80 ED A4 51 DE 6C                     ...Q.l    

l0040287B:
	or	ch,dl
	inc	ecx
	or	bh,al
	xor	bh,dh
	mov	esi,edi
	or	ecx,edi
	call	00402AB7
	stosd	
	fcomp	double ptr [edi+E0041690]

fn00402892()
	add	ch,bh
	add	ebx,ecx
	sub	bh,dh
	neg	cl
	neg	bl
	sub	ecx,esi
	jmp	00402C38
004028A3          83 2F 50 31 A2 66                         ./P1.f      

fn004028A9()
	pop	dword ptr [esp-2C]
	mov	dl,ah
	mov	dl,al
	mov	ebx,edi
	mov	al,ch
	add	dh,bl
	sub	dh,bh
	mov	dl,al
	mov	esi,ebx
	xor	esi,eax
	jmp	00402C98
004028C4             15 EE E0 F6 3D 83                       ....=.     

fn004028CA()
	xchg	[esp],ecx
	xchg	ecx,ecx
	pop	ecx
	or	cl,bl
	mov	cl,96
	add	ecx,ebx
	call	004028FE
	dec	esi
	imul	esp,[esi+71],4B431153

fn004028E1()
	inc	ebx
	dec	ebx

fn004028E3()
	xor	eax,FFFFFEC8
	sub	edi,edx
	xor	bh,ah
	xor	bl,cl
	or	ebx,eax
	mov	bh,ch
	sub	bl,ah
	call	00402640
	push	es
	jo	00402927

fn004028FC()
	adc	edx,[esi]

fn004028FE()
	lea	esp,[esp+04]
	sub	bh,bl
	sub	ebx,ecx
	not	ah
	mov	ch,2F
	sub	cl,bh
	sub	ebx,edi
	or	ecx,ebx
	add	bh,ah
	jo	00402706

l00402918:
	xchg	bh,bh
	jno	00402706

l00402920:
	outsd	
	popa	
	out	dx,ax
	jl	00402941

l00402925:
	stc	
	add	cl,[edi+32E42444]

fn00402927()
	pop	dword ptr [esp-1C]
	xor	bh,dl

fn0040292C()
	cli	
	xor	ecx,eax
	add	bl,al
	neg	bl
	neg	cl
	mov	edi,6131A2E0
	jbe	00402AFD

fn00402940()
	push	edi

fn00402941()
	pop	edi
	jmp	00402947

l00402947:
	ja	00402AFD

l0040294D:
	cmp	byte ptr [ebx+15],94
	shl	edx,cl

fn00402953()
	add	cl,bh
	add	ebx,edi
	xor	edx,eax
	inc	ecx
	mov	esi,ebx
	neg	ch
	mov	edx,eax
	mov	al,ah
	jmp	0040287B
00402967                      FA 92 A7 CC CD 03 C9 F2           ........

fn0040296F()
	lea	esp,[esp+04]
	sub	bh,dh
	dec	edx
	dec	esi
	xor	edi,ecx
	mov	bh,37
	jz	00402064

l00402981:
	xchg	bl,bl
	jnz	00402064

l00402989:
	inc	ebx
	or	dh,[eax-79]
	out	dx,ax
	and	[ecx+8AD9F67F],bh

fn00402991()
	neg	cl
	mov	bh,dl

fn00402994()
	cli	
	dec	edx
	or	ecx,edi
	mov	ah,95
	neg	ah
	dec	edi
	xor	edi,esi
	add	eax,ecx
	add	bl,dl
	jbe	0040260C

fn004029A9()
	lea	cx,[ecx]
	ja	0040260C

l004029B2:
	stc	
	std	
	repne	
	illegal	
	push	esp
	dec	esi
	stosb	
	illegal	

fn004029BA()
	or	cl,bh
	mov	ch,B4
	neg	cl
	mov	bl,48
	xor	ecx,ebx
	neg	bh
	inc	edi
	sub	edx,0000048F
	sub	edi,eax
	jpe	00401E98

l004029D5:
	repne	
	repne	
	jpo	00401E98
	inc	esi
	pop	ebx
	mov	eax,C370384A
	adc	[eax-76],ecx

fn004029E5()
	dec	eax
	mov	ch,dh
	add	ah,ch
	or	ecx,edi
	add	ecx,edi
	dec	eax
	jmp	0040269F
004029F4             76 EF 2D 1C 0E EF 82                    v.-....    

fn004029FB()
	add	ebx,eax
	or	bl,cl
	inc	ebx
	add	edi,ecx
	mov	bh,19
	xor	bh,ch
	mov	esi,ebx
	js	004023F7

l00402A0E:
	mov	ch,ch
	jns	004023F7

l00402A16:
	mov	eax,EB5067A1
	jge	00402A2B

l00402A1D:
	mov	cl,0B

fn00402A1E()
	or	eax,ecx

fn00402A1F()
	shr	dword ptr [ebx],FA
	or	eax,esi
	neg	bh
	sub	ecx,eax
	neg	bh
	sub	edi,eax

fn00402A2B()
	clc	

fn00402A2C()
	xor	al,bl
	add	edi,edx
	jmp	00401EF0
00402A35                C7 A6 32 E7 B6 5F                     ..2.._    

l00402A3B:
	xor	eax,ebx
	neg	al
	mov	ecx,edi
	inc	ecx
	mov	cl,al
	xor	edi,6131AE37
	neg	ah
	jmp	00401FF9
00402A51    E3 69 CD 45 D5 CC 87                          .i.E...       

l00402A58:
	add	eax,esi
	mov	eax,edi
	or	eax,ecx
	xor	eax,edi
	sub	ecx,4066C33F
	inc	eax
	neg	al
	mov	eax,edi
	call	00402B21
	call	far FC78:871A
	out	2A,al
	illegal	
	add	ecx,edi
	sub	al,bl
	or	ebx,esi
	mov	edx,edi
	xor	cl,dl
	jo	00402573
	jns	00402A8A
	jno	00402573
	mov	al,E8
	push	ebp
	and	al,B0
	stosb	
	sbb	ebx,esi

l00402A98:
	or	bh,dh
	neg	bh
	xor	ebx,edx
	sub	bh,ch
	push	dword ptr [eax+10]
	mov	edi,ebx
	neg	bl
	or	ebx,esi
	mov	esi,ecx
	call	004026BC
	aaa	
	and	ecx,[edx-4C]
	jl	00402AD6

l00402AB6:
	push	ss

fn00402AB7()
	mov	[esp],edx
	jpo	00402ABC

l00402ABC:
	pop	edx
	mov	bh,bl
	inc	esi
	add	ecx,edx
	or	ch,ah
	sub	ebx,esi
	sub	ecx,ebx
	or	ch,bl
	call	00402B71
	jz	00402B18

l00402AD1:
	adc	[esi+24648D0A],ah

fn00402AD6()
	and	al,04

fn00402AD7()
	add	al,68
	add	[eax],dh
	add	[eax],al
	neg	dl
	sub	esi,edx
	xor	ch,bh
	add	edi,edx
	sub	ah,ch
	mov	ebx,eax
	jz	004020C7

l00402AEF:
	rep	
	jnz	004020C7
	sub	bl,[eax+esi*4+1D]
	pop	ds
	lahf	
	ret	

fn00402AFD()
	mov	ah,ch
	add	ch,bl
	sub	eax,ecx
	mov	ah,7A
	xor	ah,al
	neg	al
	or	eax,edi
	jle	00402A3B

l00402B11:
	xchg	al,al
	jg	00402A3B

fn00402B18()
	push	esp

l00402B19:
	hlt	

fn00402B1A()
	pop	dword ptr [edi]
	outsb	
	add	al,[eax+ecx*2+62]

fn00402B21()
	lea	esp,[esp+04]
	neg	al
	neg	al
	sub	eax,edi
	neg	al
	or	eax,esi
	or	eax,ebx
	neg	ah
	call	00402CF2
	inc	esi
	sbb	eax,B79EEB97
	sub	al,1C

fn00402B40()
	pop	dword ptr [esp-14]
	neg	ah
	or	eax,edi
	inc	eax
	inc	eax
	mov	al,7C
	inc	eax
	add	al,dl
	jmp	00402A58
00402B54             DE 6B E7 8E 53 A0                       .k..S.     

fn00402B5A()
	lea	esp,[esp+04]
	or	bh,cl
	mov	ebx,esi
	neg	bh
	mov	ecx,esi
	neg	bl
	call	00401F7B
	mov	[3C894526],es

fn00402B71()
	mov	[esp],edi

fn00402B73()
	and	al,66
	xchg	ecx,ecx
	xchg	dh,dh
	pop	edi
	pop	esi
	dec	edi
	add	edi,edx
	add	eax,ebx
	jmp	0040255C
00402B85                94 FB 83 25 96                        ...%.     

fn00402B8A()
	xor	esi,edx
	xor	edi,eax
	mov	ch,ah
	mov	cl,ah
	add	bl,bh
	mov	ch,dh
	or	bh,ch
	add	bl,cl
	neg	bl
	mov	ch,82
	call	00402CB1
	illegal	
	movsb	
	fisubr	word ptr [ebx+ebp+F660B3C3]

fn00402BA7()
	sub	eax,ebx
	mov	bl,60
	neg	bh
	dec	eax
	add	ecx,eax
	sub	bl,ch
	inc	ecx
	mov	bl,D7
	inc	eax
	jle	004020AB

l00402BBC:
	lea	edx,[edx]
	jg	004020AB

l00402BC4:
	imul	eax,[ecx],8355CC88

fn00402BCA()
	add	ah,cl
	mov	ecx,ebx
	add	ecx,edi
	xor	ah,cl
	dec	eax
	mov	ecx,edi
	js	00402504

fn00402BDB()
	mov	ch,ch
	xchg	ah,ah
	jns	00402504

l00402BE5:
	sbb	dh,[eax+4B476555]
	scasb	
	mov	[79243487],eax

fn00402BED()
	xchg	[esp],esi
	jns	00402BF2

l00402BF2:
	pop	esi
	mov	ebx,ecx
	mov	cl,4A
	xor	ah,3B
	add	ecx,ebx
	call	004022F8
	dec	byte ptr [esi-31]
	leave	
	adc	[ecx],ecx

fn00402C07()
	mov	bh,ah
	inc	eax
	mov	al,dh
	neg	al
	add	cl,al
	neg	ch
	jmp	004024E2
00402C17                      39 47 A2 83 13                    9G...   

fn00402C1C()
	lea	esp,[esp+04]
	mov	eax,[edx]
	or	edi,esi
	sub	ch,dl
	add	edx,esi
	xor	cl,ah
	add	ecx,edi
	or	cl,dh
	jmp	004022BB
00402C33          16 D6 A2 D3 AC                            .....       

l00402C38:
	mov	ecx,edx
	inc	ecx
	xor	ecx,edx
	xor	ecx,edx
	add	ah,38
	or	bh,ah
	call	00402010
	mov	byte ptr es:[edi+edi*8],B5

l00402C4F:
	neg	bh
	xor	edx,ecx
	mov	[esp-08],eax
	or	bh,ch
	xor	ecx,ebx
	add	bl,bh
	mov	dl,3F
	or	edx,esi
	or	ebx,ecx
	jmp	00402953
00402C68                         32 BE 0D 40                     2..@   

l00402C6C:
	xor	ch,dh
	sub	al,bh
	sub	eax,ebx
	add	eax,ecx
	add	eax,ebx
	or	ecx,esi
	add	al,dh
	inc	edx
	neg	ah
	add	al,ah
	jle	00402285

l00402C85:
	xchg	dx,dx
	jz	00402C8A

l00402C8A:
	jg	00402285

l00402C90:
	push	eax
	outsd	
	into	
	loopne	00402CB4
	mov	dl,BE

fn00402C98()
	or	bl,ch

fn00402C9A()
	dec	ecx
	add	bh,ah
	neg	dl
	dec	ebx
	add	edx,eax
	xor	dl,al
	or	ah,bl
	mov	eax,edx
	jmp	004027BF
00402CAD                                        54 D5 B2              T..
00402CB0 C7                                              .              

fn00402CB1()
	pop	dword ptr [esp-34]
	add	edx,0000000C
	neg	ch
	or	ecx,esi
	mov	cl,2E
	add	ebx,esi
	jpe	0040248E

l00402CC9:
	jnc	00402CCB

l00402CCB:
	jpo	0040248E

l00402CD1:
	leave	
	ficom	dword ptr [esi]
	or	edx,[ebp+24648D45]

fn00402CD7()
	lea	esp,[esp+04]
	neg	bh
	dec	edi
	xor	ebx,eax
	add	bh,cl
	or	ebx,ecx
	sub	bh,al
	add	eax,08
	jmp	0040258E
00402CEE                                           02 0C               ..
00402CF0 91 3E                                           .>             

fn00402CF2()
	lea	esp,[esp+04]
	add	eax,ebx
	add	eax,edx
	or	ah,bl
	neg	al
	cmp	ecx,BF993CC1
	jnz	00402418

l00402D0A:
	or	edi,ebx
	mov	bh,0E
	call	00401ECC
	xor	[ebp+edx+6B],ebp
	mov	esp,000000C9
	add	[eax],al
	add	[eax],al
	add	[eax],al
	add	[eax],al
	add	[eax],al
	add	[eax],al
	add	[eax],al
	add	[eax],al
	add	[eax],al
	add	[eax],al
	add	[eax],al
	add	[eax],al
	add	[eax],al
	add	[eax],al
	add	[eax],al
	add	[eax],al
	add	[eax],al
	add	[eax],al
	add	[eax],al
	add	[eax],al
	add	[eax],al
	add	[eax],al
	add	[eax],al
	add	[eax],al
	add	[eax],al
	add	[eax],al
	add	[eax],al
	add	[eax],al
	add	[eax],al
	add	[eax],al
	add	[eax],al
	add	[eax],al
	add	[eax],al
	add	[eax],al
	add	[eax],al
	add	[eax],al
	add	[eax],al
	add	[eax],al
	add	[eax],al
	add	[eax],al
	add	[eax],al
	add	[eax],al
	add	[eax],al
	add	[eax],al
	add	[eax],al
	add	[eax],al
	add	[eax],al
	add	[eax],al
	add	[eax],al
	add	[eax],al
	add	[eax],al
	add	[eax],al
	add	[eax],al
	add	[eax],al
	add	[eax],al
	add	[eax],al
	add	[eax],al
	add	[eax],al
	add	[eax],al
	add	[eax],al
	add	[eax],al
	add	[eax],al
	add	[eax],al
	add	[eax],al
	add	[eax],al
	add	[eax],al
	add	[eax],al
	add	[eax],al
	add	[eax],al
	add	[eax],al
	add	[eax],al
	add	[eax],al
	add	[eax],al
	add	[eax],al
	add	[eax],al
	add	[eax],al
	add	[eax],al
	add	[eax],al
	add	[eax],al
	add	[eax],al
	add	[eax],al
	add	[eax],al
	add	[eax],al
	add	[eax],al
	add	[eax],al
	add	[eax],al
	add	[eax],al
	add	[eax],al
	add	[eax],al
	add	[eax],al
	add	[eax],al
	add	[eax],al
	add	[eax],al
	add	[eax],al
	add	[eax],al
	add	[eax],al
	add	[eax],al
	add	[eax],al
	add	[eax],al
	add	[eax],al
	add	[eax],al
	add	[eax],al
	add	[eax],al
	add	[eax],al
	add	[eax],al
	add	[eax],al
	add	[eax],al
	add	[eax],al
	add	[eax],al
	add	[eax],al
	add	[eax],al
	add	[eax],al
	add	[eax],al
	add	[eax],al
	add	[eax],al
	add	[eax],al
	add	[eax],al
	add	[eax],al
	add	[eax],al
	add	[eax],al
	add	[eax],al
	add	[eax],al
	add	[eax],al
	add	[eax],al
	add	[eax],al
	add	[eax],al
	add	[eax],al
	add	[eax],al
	add	[eax],al
	add	[eax],al
	add	[eax],al
	add	[eax],al
	add	[eax],al
	add	[eax],al
	add	[eax],al
	add	[eax],al
	add	[eax],al
	add	[eax],al
	add	[eax],al
	add	[eax],al
	add	[eax],al
	add	[eax],al
	add	[eax],al
	add	[eax],al
	add	[eax],al
	add	[eax],al
	add	[eax],al
	add	[eax],al
	add	[eax],al
	add	[eax],al
	add	[eax],al
	add	[eax],al
	add	[eax],al
	add	[eax],al
	add	[eax],al
	add	[eax],al
	add	[eax],al
	add	[eax],al
	add	[eax],al
	add	[eax],al
	add	[eax],al
	add	[eax],al
	add	[eax],al
	add	[eax],al
	add	[eax],al
	add	[eax],al
	add	[eax],al
	add	[eax],al
	add	[eax],al
	add	[eax],al
	add	[eax],al
	add	[eax],al
	add	[eax],al
	add	[eax],al
	add	[eax],al
	add	[eax],al
	add	[eax],al
	add	[eax],al
	add	[eax],al
	add	[eax],al
	add	[eax],al
	add	[eax],al
	add	[eax],al
	add	[eax],al
	add	[eax],al
	add	[eax],al
	add	[eax],al
	add	[eax],al
	add	[eax],al
	add	[eax],al
	add	[eax],al
	add	[eax],al
	add	[eax],al
	add	[eax],al
	add	[eax],al
	add	[eax],al
	add	[eax],al
	add	[eax],al
	add	[eax],al
	add	[eax],al
	add	[eax],al
	add	[eax],al
	add	[eax],al
	add	[eax],al
	add	[eax],al
	add	[eax],al
	add	[eax],al
	add	[eax],al
	add	[eax],al
	add	[eax],al
	add	[eax],al
	add	[eax],al
	add	[eax],al
	add	[eax],al
	add	[eax],al
	add	[eax],al
	add	[eax],al
	add	[eax],al
	add	[eax],al
	add	[eax],al
	add	[eax],al
	add	[eax],al
	add	[eax],al
	add	[eax],al
	add	[eax],al
	add	[eax],al
	add	[eax],al
	add	[eax],al
	add	[eax],al
	add	[eax],al
	add	[eax],al
	add	[eax],al
	add	[eax],al
	add	[eax],al
	add	[eax],al
	add	[eax],al
	add	[eax],al
	add	[eax],al
	add	[eax],al
	add	[eax],al
	add	[eax],al
	add	[eax],al
	add	[eax],al
	add	[eax],al
	add	[eax],al
	add	[eax],al
	add	[eax],al
	add	[eax],al
	add	[eax],al
	add	[eax],al
	add	[eax],al
	add	[eax],al
	add	[eax],al
	add	[eax],al
	add	[eax],al
	add	[eax],al
	add	[eax],al
	add	[eax],al
	add	[eax],al
	add	[eax],al
	add	[eax],al
	add	[eax],al
	add	[eax],al
	add	[eax],al
	add	[eax],al
	add	[eax],al
	add	[eax],al
	add	[eax],al
	add	[eax],al
	add	[eax],al
	add	[eax],al
	add	[eax],al
	add	[eax],al
	add	[eax],al
	add	[eax],al
	add	[eax],al
	add	[eax],al
	add	[eax],al
	add	[eax],al
	add	[eax],al
	add	[eax],al
	add	[eax],al
	add	[eax],al
	add	[eax],al
	add	[eax],al
	add	[eax],al
	add	[eax],al
	add	[eax],al
	add	[eax],al
	add	[eax],al
	add	[eax],al
	add	[eax],al
	add	[eax],al
	add	[eax],al
	add	[eax],al
	add	[eax],al
	add	[eax],al
	add	[eax],al
	add	[eax],al
	add	[eax],al
	add	[eax],al
	add	[eax],al
	add	[eax],al
	add	[eax],al
	add	[eax],al
	add	[eax],al
	add	[eax],al
	add	[eax],al
	add	[eax],al
	add	[eax],al
	add	[eax],al
	add	[eax],al
	add	[eax],al
	add	[eax],al
	add	[eax],al
	add	[eax],al
	add	[eax],al
	add	[eax],al
	add	[eax],al
	add	[eax],al
	add	[eax],al
	add	[eax],al
	add	[eax],al
	add	[eax],al
	add	[eax],al
	add	[eax],al
	add	[eax],al
	add	[eax],al
	add	[eax],al
	add	[eax],al
	add	[eax],al
	add	[eax],al
	add	[eax],al
	add	[eax],al
	add	[eax],al
	add	[eax],al
	add	[eax],al
	add	[eax],al
	add	[eax],al
	add	[eax],al
	add	[eax],al
	add	[eax],al
	add	[eax],al
	add	[eax],al
	add	[eax],al
	add	[eax],al
	add	[eax],al
	add	[eax],al
	add	[eax],al
	add	[eax],al
	add	[eax],al
	add	[eax],al
	add	[eax],al
	add	[eax],al
	add	[eax],al
	add	[eax],al
	add	[eax],al
	add	[eax],al
	add	[eax],al
	add	[eax],al
	add	[eax],al
	add	[eax],al
	add	[eax],al
	add	[eax],al
	add	[eax],al
	add	[eax],al
	add	[eax],al
	add	[eax],al
	add	[eax],al
	add	[eax],al
00403000 DC A6 E4 3D 02 76 00 95 F8 4C AE D8 00 7B 43 35 ...=.v...L...{C5
00403010 89 DA 2E FF EA 11 22 F3 FF                      ......"..      
00403019                            00 F4 79 11 74 61 A3          ..y.ta.
00403020 2E 47 EA 00 18 D5 72 0F A8 7E 1A 97 00 48 CB 00 .G....r..~...H..
00403030 00 F6 BF 8E 3C 74 9B 2D 00 00 00 34 91 19 00 3B ....<t.-...4...;
00403040 E5 00 27 19 FF 29 FB 4E 6E 00 AB 50 BF D3 58 B6 ..'..).Nn..P..X.
00403050 F4 E5 00 A8 C1 2A 12 08 25 A6 F5 7B 7F B2 41 DF .....*..%..{..A.
00403060 60 11 01 78 1D 81 55 9F 24 75 64 00 A3 34 F2 00 `..x..U.$ud..4..
00403070 50 00 00 09 89 7F 32 00 05 1E 00 1B 7E 17 1F 00 P.....2.....~...
00403080 FF 00 38 4A F0 0F EC 00 E7 00 00 E1 B1 05 55 71 ..8J..........Uq
00403090 89 7C DF 08 D3 ED 00 DF A1 28 FB 00 00 F6 D9 DF .|.......(......
004030A0 E6 00 00 00 83 BE 7F 4F 7C C0 71 E7 2A 3F D2 94 .......O|.q.*?..
004030B0 FF 31 2F C8 E0 C5 5A 40 FF 20 00 1C 48 5F C1 40 .1/...Z@. ..H_.@
004030C0 36 00 0C F4 00 CE 03 00 00 00 7E CE 80 8C 00 A3 6.........~.....
004030D0 98 83 00 07 CD FF E5 FF E3 00 00 A7 8B D7 EB 2B ...............+
004030E0 F9 25 66 15 FF 00 CC 2C 1F 00 C7 3A 43 3A FF 8F .%f....,...:C:..
004030F0 21 11 E4 8F 52 7B DE 9F 32 94 6B FF 8E 0E E8 BB !...R{..2.k.....
00403100 7C A0 3B 61 7F 00 97 19 C9 CC 33 5A D0 95 11 00 |.;a......3Z....
00403110 3A 49 EC 00 2D 00 85 BE E3 91 69 66 D1 ED C8 04 :I..-.....if....
00403120 FF BF 73 58 00 D1 E9 20 FF 0A D2 FF A6 BF 7D 6D ..sX... ......}m
00403130 00 37 96 B0 72 D5 6A 0E 8C 62 22 C9 D9 27 FF 80 .7..r.j..b"..'..
00403140 A0 F6 9F 60 38 51 3A 97 1D 90 1C 6D 88 82 F6 D2 ...`8Q:....m....
00403150 00 8F 5D CC C8 8B 04 00 00 0F 8B 92 53 07 31 1F ..].........S.1.
00403160 FD D8 B4 FF 8F 0F 9C FF 8D FF 00 DA 00 9C E5 5C ...............\
00403170 FF 6E E2 7F C7 00 7F 31 EF 0C C0 E0 B2 20 30 02 .n.....1..... 0.
00403180 4D 3C BF E7 AA FF BD 93 C9 D2 E2 E5 86 FF DB 3F M<.............?
00403190 5F FF B3 50 00 7D C5 8D 38 92 FF FB FF 80 18 6F _..P.}..8......o
004031A0 A9 06 40 C4 F8 FA 24 9F 8C FF AF 71 3E 0E 58 75 ..@...$....q>.Xu
004031B0 CD 4E F5 27 06 2D BE DF CE 00 78 FF 72 00 96 A5 .N.'.-....x.r...
004031C0 FF 00 81 93 13 FB ED 06 1F 97 2C 3E CF 78 91 ED ..........,>.x..
004031D0 00 2C EC E1 00 E9 86 4E 8E 00 49 D1 00 14 DD 80 .,.....N..I.....
004031E0 FF C9 DA 1B 74 D9 00 14 60 89 00 9A 0A FE 10 04 ....t...`.......
004031F0 00 E1 BC 86 00 C8 02 9C C1 00 95 7D F0 0B 8B C5 ...........}....
00403200 2F 70 9E 75 FF E1 27 38 FF 5E F1 E5 CC EC D0 28 /p.u..'8.^.....(
00403210 6C 2D 30 73 6B 33 00 D8 64 2F C7 00 FF B2 83 8E l-0sk3..d/......
00403220 2F 42 3E 99 65 91 D8 00 00 7B 00 F9 CF 5D DA 1C /B>.e....{...]..
00403230 8B 15 00 6E 01 00 8A FF 01 5D 1D 82 7E 00 71 20 ...n.....]..~.q 
00403240 1E C6 3C 10 00 3D A3 F2 64 0A FC 18 40 48 01 00 ..<..=..d...@H..
00403250 98 08 FF 31 4C FF 00 28 A0 1F 9F 00 F5 ED FF 56 ...1L..(.......V
00403260 87 F4 3F 00 71 0C 2F 86 38 BF 7B 31 99 66 0A 5E ..?.q./.8.{1.f.^
00403270 81 30 30 73 2F 1C F7 A7 00 00 92 00 87 0B 4F A5 .00s/.........O.
00403280 8B F1 ED 30 C9 79 3A 39 36 D8 C1 4C 10 00 44 0E ...0.y:96..L..D.
00403290 A7 C6 E4 60 47 34 4C 83 EB 00 53 02 9D 13 DF 55 ...`G4L...S....U
004032A0 FF 15 00 39 00 F0 0D 81 61 A2 FF 50 63 C9 5D AE ...9....a..Pc.].
004032B0 77 81 08 29 E9 00 7C 00 C7 1C E8 08 23 A4 2D 8A w..)..|.....#.-.
004032C0 10 00 09 BE 81 B3 A8 00 59 2F 52 00 00 0D B3 A0 ........Y/R.....
004032D0 10 E6 D5 EB 79 09 1F F1 E5 93 88 EC B0 26 4E 78 ....y........&Nx
004032E0 00 00 41 A0 EB E4 01 27 60 36 96 00 19 00 16 62 ..A....'`6.....b
004032F0 D9 00 86 51 E9 B5 9C 00 58 3C 87 60 FF DF 00 EE ...Q....X<.`....
00403300 6F 23 AD 7C 2A 34 2F 28 FF F2 CC 36 A1 00 FF 54 o#.|*4/(...6...T
00403310 2A A7 82 8F 23 C1 3E 00 05 EC 23 38 44 4F 7E DC *...#.>...#8DO~.
00403320 31 00 00 C0 0C 2F 23 9B 32 12 08 54 4C 75 EA CF 1..../#.2..TLu..
00403330 65 4A 80 FF 00 20 0E C4 24 00 71 CA 18 EE C8 00 eJ... ..$.q.....
00403340 BE 5F 4D 00 3D 04 9E FF 96 00 E7 43 8E 00 BF FE ._M.=......C....
00403350 69 1F 0E 20 34 5A 04 6D 62 FE FE AC 64 3E 89 44 i.. 4Z.mb...d>.D
00403360 80 BA E5 BE 0C BB 00 4C 1C B9 00 20 02 0C 9C 93 .......L... ....
00403370 8A B0 34 12 84 2C 2B 00 00 F4 FB 85 DA 00 E3 00 ..4..,+.........
00403380 D8 29 AF FF FF 00 C7 77 0E D7 0E 09 36 00 76 6C .).....w....6.vl
00403390 2B 32 E5 87 46 22 A7 94 71 F2 B9 80 9D 29 00 75 +2..F"..q....).u
004033A0 10 60 4B D0 63 3C 1B 34 00 D0 79 00 EF 48 F3 1E .`K.c<.4..y..H..
004033B0 00 00 95 1C 37 CF AC 98 D7 07 92 65 E4 A8 00 C7 ....7......e....
004033C0 6B 54 5E DD C5 D6 71 EB F2 39 58 C1 6C 30 B3 20 kT^...q..9X.l0. 
004033D0 BD A2 00 E7 3F A6 7C DD 91 AE 1D 38 BC D5 CA BE ....?.|....8....
004033E0 82 AD 93 AD 90 28 00 46 50 30 E0 80 5F EB 9D A5 .....(.FP0.._...
004033F0 00 8F 00 3F E3 75 00 02 04 0E FF CA F9 5A 0C 00 ...?.u.......Z..
00403400 00 76 DE 6E 6D AC 56 30 00 1C 5F 0F 00 5C FF 79 .v.nm.V0.._..\.y
00403410 F0 98 A5 08 00 29 00 FF C5 C7 4C 3D 7F FD 51 00 .....)....L=..Q.
00403420 F0 54 51 D6 48 14 81 1C F1 39 00 6F A3 EF 27 05 .TQ.H....9.o..'.
00403430 ED 31 02 BC C4 03 DE 72 11 00 91 9B F8 72 B9 07 .1.....r.....r..
00403440 84 00 82 00 CC C1 8D 0B 4B F6 AB 77 25 FF 98 71 ........K..w%..q
00403450 90 26 25 FF 1A 4B 43 C1 D8 45 B3 CE 5C F0 4F BF .&%..KC..E..\.O.
00403460 2D 2F 00 0A AE C2 A1 DA BB E6 61 A8 9C 62 DA F4 -/........a..b..
00403470 45 38 64 0D 82 00 33 C6 5C 13 D0 00 E1 B9 11 86 E8d...3.\.......
00403480 56 45 2A 09 8D A7 F8 E0 C4 8F 4C 70 F6 4B DC 8D VE*.......Lp.K..
00403490 40 B0 01 08 88 59 E4 00 00 D7 0E D3 D3 AA FF 27 @....Y.........'
004034A0 B8 00 FF 3C 2A 3E AE 23 96 96 D4 DF 2A 00 5F 1F ...<*>.#....*._.
004034B0 FF 3E C9 76 00 89 00 27 C0 54 60 CB F6 01 CC D2 .>.v...'.T`.....
004034C0 CA 57 00 00 B3 AD 00 9B AB 6C 02 00 65 DF 7A 7F .W.......l..e.z.
004034D0 03 F0 25 47 00 04 4E BA C4 9E F5 AD 31 37 3E 3A ..%G..N.....17>:
004034E0 0B 8E 85 9C 4C 44 1F 57 2A 03 00 A3 FF 50 7D BE ....LD.W*....P}.
004034F0 10 02 3E 4A 19 F4 E8 D0 B0 24 76 20 42 C0 B0 31 ..>J.....$v B..1
00403500 64 D7 17 71 00 45 DF 42 1D 85 12 0E 04 83 69 D1 d..q.E.B......i.
00403510 93 FF 00 37 00 0A BD EC 8D 41 71 82 FB 36 7C 20 ...7.....Aq..6| 
00403520 01 C9 F6 00 11 1B FD 29 DB 89 0A 12 ED 50 40 22 .......).....P@"
00403530 EE D2 1B E4 3C 0A 06 CA 04 60 29 43 00 AC B2 CE ....<....`)C....
00403540 23 9D 16 08 00 00 47 DC 6D 5B 24 FF 58 1D 88 30 #.....G.m[$.X..0
00403550 5A 12 BF 08 80 A7 75 02 66 28 06 35 D6 A3 BF DE Z.....u.f(.5....
00403560 7E B1 B5 84 82 64 00 BA FF 11 9F D5 08 FF 63 FF ~....d........c.
00403570 00 85 43 5F 07 AF A4 95 84 8B F1 41 0C BB 18 36 ..C_.......A...6
00403580 09 57 BD 19 DD 5E 00 5B B0 1D 41 00 05 99 5C 6C .W...^.[..A...\l
00403590 69 2B D8 00 FC 00 98 E0 1F F8 00 D1 9E 07 01 A5 i+..............
004035A0 00 C6 D0 04 00 7A FF 9F 73 77 44 D7 00 00 00 58 .....z..swD....X
004035B0 F2 37 0C 2E F9 BB 0D CD F3 26 7B CC 5B 21 A3 00 .7.......&{.[!..
004035C0 2E 8D A1 89 E5 E6 F1 24 59 2F 4E A7 E0 A3 05 98 .......$Y/N.....
004035D0 8E 37 E2 71 F1 74 73 2A 00 D6 02 D6 46 4E 00 82 .7.q.ts*....FN..
004035E0 3E FB 2A FF 10 C9 F6 00 95 5D DA 5A EF 8D 1E F9 >.*......].Z....
004035F0 DF 30 53 E8 02 41 BC FA 4F 59 F6 23 33 A6 8B D1 .0S..A..OY.#3...
00403600 90 E8 47 58 3C EF B0 8D 97 5A 16 78 00 7C CF A1 ..GX<....Z.x.|..
00403610 D7 06 51 00 F7 A5 F4 42 D4 51 1C F5 EA 02 91 8D ..Q....B.Q......
00403620 00 20 3B D1 98 FF 83 D1 8D 8B 24 BA 67 3F 82 0E . ;.......$.g?..
00403630 EF 0F 17 B6 5A 0E D9 7F 1F F2 80 FF 63 A2 FB D7 ....Z.......c...
00403640 91 EF DB A9 0F 00 C7 83 B0 D5 F9 70 E8 9B C8 63 ...........p...c
00403650 FF 18 78 4A 52 DF 85 00 0A 59 9C 00 28 8D 7C 30 ..xJR....Y..(.|0
00403660 10 91 AC BE 48 73 8C 0B 90 6D 90 D8 00 DA AC 18 ....Hs...m......
00403670 1B CB FF 72 D1 18 40 C9 4B 16 82 22 EF 28 00 B8 ...r..@.K..".(..
00403680 FF 59 FC D2 16 D4 D7 31 FF 6F 73 EF 23 9D 00 00 .Y.....1.os.#...
00403690 00 A4 FF BE 42 9A 83 00 F6 FD 00 0C F1 C4 3E 5F ....B.........>_
004036A0 A4 D1 2C 59 4D 4C 40 08 A4 E4 1F 43 A1 6A E7 2C ..,YML@....C.j.,
004036B0 2A 79 00 26 60 60 3F 06 D2 21 9C 96 43 4E A0 FC *y.&``?..!..CN..
004036C0 5D 83 81 D5 0E 59 2A FE D1 3A 00 5C 80 B1 9F 98 ]....Y*..:.\....
004036D0 32 C5 BB 09 ED FF 4E 34 1D 71 8B 00 F9 E0 C7 00 2.....N4.q......
004036E0 1F C8 CE FF 18 00 2F EF 3E 7F 0F 86 D0 20 06 18 ....../.>.... ..
004036F0 46 FB 31 A3 18 0B FF 00 65 77 5A 12 34 D9 45 00 F.1.....ewZ.4.E.
00403700 00 32 30 91 6C 1D 21 26 08 10 E4 8B F7 80 30 C3 .20.l.!&......0.
00403710 00 78 C3 FD 28 04 F8 FF 21 FF 0F 00 52 FF 00 76 .x..(...!...R..v
00403720 C0 00 00 D7 63 0E 00 C4 D0 84 1B D0 F0 A6 A4 57 ....c..........W
00403730 05 00 31 6F B6 91 BF 2F 00 88 BC 03 32 45 00 B6 ..1o.../....2E..
00403740 00 00 5D 71 28 00 61 00 D1 EB 36 00 26 D2 17 F4 ..]q(.a...6.&...
00403750 9D C1 CC CC 8E D6 20 E9 FF 7F 97 38 FF E2 DF 04 ...... ....8....
00403760 35 C8 1A 38 34 AE 9D C4 93 77 17 8D 60 AA D9 01 5..84....w..`...
00403770 00 44 0A C2 9C 54 D7 29 C0 39 B8 6F 27 F7 B2 99 .D...T.).9.o'...
00403780 BF 0D 81 2B 42 0C E4 CF EC 2C D8 03 77 28 00 72 ...+B....,..w(.r
00403790 58 FF 63 7D 16 9B 0D CC F0 A5 F7 07 4D E1 00 08 X.c}........M...
004037A0 00 B1 24 F1 00 E2 E4 76 51 0A DA FF 91 0E 00 E8 ..$....vQ.......
004037B0 10 FF 69 C1 47 0E B8 15 99 35 75 49 27 1E 15 3C ..i.G....5uI'..<
004037C0 19 A7 15 2D 65 00 FD ED 2E BA 3B BD CB AB E1 EF ...-e.....;.....
004037D0 E1 FF A3 0A 23 81 4A 65 2D 81 33 42 35 20 14 8D ....#.Je-.3B5 ..
004037E0 C6 A8 C3 00 D9 4C 00 64 76 54 6F 30 E3 02 29 89 .....L.dvTo0..).
004037F0 8B DE B5 C4 87 C0 4D C3 F9 2E 8C 07 FF 00 10 FD ......M.........
00403800 CC 00 00 00 EE 0E 68 22 00 9B 32 0B 0A 5A 6C 08 ......h"..2..Zl.
00403810 E4 00 4D B0 E0 83 00 1C FF 1A 3E 99 7B 26 63 F2 ..M.......>.{&c.
00403820 8B 54 69 29 39 E2 0D 00 72 5B 18 E1 61 59 08 61 .Ti)9...r[..aY.a
00403830 4C 04 00 8E E8 33 AF AE 36 D2 12 00 4B FD 3B 0F L....3..6...K.;.
00403840 7D 00 5F 32 B6 DE 01 72 0D DF 25 00 E6 30 0F C3 }._2...r..%..0..
00403850 47 39 FF FB 57 0C CD FF F9 CA 6E 00 8B 8B FA C0 G9..W.....n.....
00403860 CB 00 9D FF E4 28 00 DC 34 B7 5F D5 A9 7B 33 00 .....(..4._..{3.
00403870 1A 00 E1 3A 0F D8 45 DB 14 5C B3 FF 0B FF 7F 00 ...:..E..\......
00403880 52 72 3F FF 74 A9 00 DE 0C 00 A2 C0 1D 27 BF 76 Rr?.t........'.v
00403890 CC 2B 6A 16 00 64 37 8F 83 10 00 27 DE 87 2B 66 .+j..d7....'..+f
004038A0 10 28 EC 1E 38 B1 98 00 EE 0F 2F CE 9F 32 DE B3 .(..8...../..2..
004038B0 2F BF 99 34 89 33 FD 00 18 69 B8 32 FF FA 07 2D /..4.3...i.2...-
004038C0 59 21 81 87 F6 5C 45 92 7A 00 A4 78 C7 82 00 8D Y!...\E.z..x....
004038D0 3B 7F F4 92 B2 DA 03 C0 B3 7C 96 C5 E0 67 26 C5 ;........|...g&.
004038E0 BE 48 FB 00 36 B0 ED 22 AC FA 00 DB E7 9C 12 44 .H..6..".......D
004038F0 00 C8 69 89 00 31 00 DC 66 00 A6 92 F1 43 31 1F ..i..1..f....C1.
00403900 19 17 B3 72 D7 5F 06 07 F9 16 DD FF 1D CB F2 E6 ...r._..........
00403910 D7 3E B1 30 E8 8E 75 B3 00 60 28 B4 00 EC 8A 16 .>.0..u..`(.....
00403920 9E 76 25 D3 5F 06 BB 90 F9 FF 27 CC 6F F9 DE 24 .v%._.....'.o..$
00403930 24 6B D7 CD 4C 22 E8 FF 18 6D 00 5B 21 3C 00 C1 $k..L"...m.[!<..
00403940 00 8D 9C 00 7E 99 6C 00 00 C8 D5 AF C2 F0 CD 67 ....~.l........g
00403950 95 28 FF 00 23 EB C5 FF DF 02 0A 4E B4 BA 40 19 .(..#......N..@.
00403960 C0 3D 00 48 58 32 8E 01 D3 00 22 6E D2 41 53 00 .=.HX2...."n.AS.
00403970 C8 00 BD 26 FD 41 20 BB 54 00 01 00 17 9E 4F E8 ...&.A .T.....O.
00403980 E3 56 00 28 ED 00 AE F6 FF 41 00 52 B8 00 29 3D .V.(.....A.R..)=
00403990 C1 91 75 35 73 DB AA D5 10 85 D9 00 02 5A 6A 25 ..u5s........Zj%
004039A0 1E D4 ED 00 18 B1 00 88 78 18 AC EE 46 6D 42 AA ........x...FmB.
004039B0 85 E1 39 23 FF 81 FA 1A 7C 9A 30 3C 10 D8 2A 43 ..9#....|.0<..*C
004039C0 00 CC F8 F1 2A D2 DC 28 4E FF 8A FE FF B4 50 71 ....*..(N.....Pq
004039D0 60 47 01 0F 9B 1F 5E 59 D2 6D 78 00 DF 57 FF 00 `G....^Y.mx..W..
004039E0 28 68 46 45 68 90 A8 E4 89 43 C0 00 38 00 65 00 (hFEh....C..8.e.
004039F0 00 00 1F 00 7A 24 28 3F 70 40 04 F9 F6 0C 00 29 ....z$(?p@.....)
00403A00 02 0B 24 00 8E 3F 00 8D F8 C8 E6 C6 B1 9C 38 B3 ..$..?........8.
00403A10 AB 4F 7F 96 7F FF FF 62 38 70 D0 66 15 00 FF 0E .O.....b8p.f....
00403A20 51 54 1F 57 8D FB BF 13 C4 00 9A 94 90 CE 89 A1 QT.W............
00403A30 BE A8 00 FF 80 04 08 EB 78 A2 00 5D 9F FB 52 FE ........x..]..R.
00403A40 71 5E 16 DB DB F6 00 3A CA 84 08 5D 82 DF 01 FF q^.....:...]....
00403A50 17 5E 00 A4 59 84 F2 00 01 42 33 F1 64 AF 66 4F .^..Y....B3.d.fO
00403A60 26 28 32 00 2E 93 8D 00 45 00 37 66 9D 5C 00 00 &(2.....E.7f.\..
00403A70 FA C9 7F 9E 4C 93 B3 2B 00 16 FE FF 06 61 00 88 ....L..+.....a..
00403A80 04 FB 4C 90 32 C7 97 00 AB F8 FF 8E 50 A0 7C 22 ..L.2.......P.|"
00403A90 DF 50 00 8E 00 00 F1 16 08 7E 08 A3 08 EE 66 8C .P.......~....f.
00403AA0 A1 11 EF 50 C6 4E 3C B2 E2 00 1B 36 78 1B 10 36 ...P.N<....6x..6
00403AB0 FF 8C 1D 54 3C 4A B2 42 F9 BD FF D6 C3 E0 D4 04 ...T<J.B........
00403AC0 F8 83 63 A1 8A 04 00 0C AA 13 40 EB CA 8F 63 0A ..c.......@...c.
00403AD0 FA FF 2F FF 82 4A 35 53 88 33 82 61 37 00 E6 63 ../..J5S.3.a7..c
00403AE0 00 06 71 DE 54 1A FF 37 18 86 14 C6 00 00 74 00 ..q.T..7......t.
00403AF0 FF 2E FA 00 04 74 31 D3 00 00 78 B6 1A 8E 44 0B .....t1...x...D.
00403B00 F9 FF 46 6E 9C 4F FC 3D 15 81 99 06 00 BA 2E 41 ..Fn.O.=.......A
00403B10 24 A5 CD FB 00 F8 07 E0 17 80 BD 55 13 59 D9 55 $..........U.Y.U
00403B20 FF B2 4C 48 FF 59 88 4C 5F 9B 5D ED 7D AE 2C 4C ..LH.Y.L_.].}.,L
00403B30 2A 89 9C 4B 7D F5 FA DC C4 F9 67 64 CD 00 C3 2E *..K}.....gd....
00403B40 00 FD ED 3B 00 26 66 D8 44 00 13 2E 39 E0 12 49 ...;.&f.D...9..I
00403B50 0E A8 DD E1 00 00 61 93 0D B9 9B 75 C9 AC 00 00 ......a....u....
00403B60 E3 09 00 E0 FD 00 C0 18 00 00 B4 D5 FF 22 93 07 ............."..
00403B70 44 88 B3 00 F9 FF AA 01 85 3D EB 23 BE 08 87 00 D........=.#....
00403B80 00 B4 FF FF CD 88 2E 0F 97 D1 A8 C2 FD 0E 20 00 .............. .
00403B90 4A A8 65 00 40 60 61 33 30 C9 56 65 69 26 94 BB J.e.@`a30.Vei&..
00403BA0 3A FE 77 00 DB D7 00 FB 28 F9 FF A0 C1 9E 09 D8 :.w.....(.......
00403BB0 12 3F 13 36 AC 01 0B 4D 63 14 2C 0B B3 49 FF 49 .?.6...Mc.,..I.I
00403BC0 DE A3 FF 00 E2 00 96 00 75 83 3E EE EE 89 10 71 ........u.>....q
00403BD0 94 C6 4D 16 AF 78 15 09 B0 00 71 00 93 F1 72 B0 ..M..x....q...r.
00403BE0 0A DE 8B EA 60 73 B7 BD 42 EE D1 DC 22 71 E0 21 ....`s..B..."q.!
00403BF0 54 A1 A3 53 0D 61 FF 00 DE B4 E6 7C 62 F3 BE 01 T..S.a.....|b...
00403C00 FF 20 38 0D ED A9 32 33 C6 1A 91 12 96 A8 D7 75 . 8...23.......u
00403C10 D0 9A 00 00 7E 24 75 FF C4 8F B3 01 F2 50 F6 00 ....~$u......P..
00403C20 E7 01 A0 E0 00 D3 00 00 AA 5A 6E 81 B1 2D FF 34 .........Zn..-.4
00403C30 D4 E7 30 F0 D4 ED 3A 16 00 78 41 00 45 79 17 66 ..0...:..xA.Ey.f
00403C40 FF 4D E8 AA 00 06 32 00 B7 19 77 37 7F 6C 41 FA .M....2...w7.lA.
00403C50 11 80 00 FF BD 69 3D C7 2C 0C 6A 78 EE DE 00 4D .....i=.,.jx...M
00403C60 DE 45 1B 00 81 00 1E 31 51 19 56 00 88 00 2E C6 .E.....1Q.V.....
00403C70 19 EE E5 C6 CB F6 00 83 80 C7 0F 5E 10 17 8A DA ...........^....
00403C80 10 5F 33 00 5E 25 66 C2 93 D6 64 8B FB 26 E3 00 ._3.^%f...d..&..
00403C90 B5 71 F7 9B FF 3C E5 FF F3 83 8E DB 81 78 FC 58 .q...<.......x.X
00403CA0 E9 E3 EB 65 52 67 46 B9 17 F2 41 27 90 67 2A 1C ...eRgF...A'.g*.
00403CB0 14 F0 09 00 04 16 15 D9 44 6C 44 69 85 A3 91 2B ........DlDi...+
00403CC0 00 9A 00 9F 56 E1 DF 00 0B 36 7C 35 81 1B 21 D7 ....V....6|5..!.
00403CD0 0F 19 53 9B FF 9C A7 24 FA 13 9F 00 BD 9B D2 80 ..S....$........
00403CE0 C7 36 7C A1 86 B7 CC 00 00 7F 7F 00 A6 00 48 26 .6|...........H&
00403CF0 8D E4 34 A5 01 7B E3 A7 66 16 06 56 D6 0E 66 BD ..4..{..f..V..f.
00403D00 00 0E 4C 5E B8 F1 68 B2 78 70 51 8B 00 38 7C 99 ..L^..h.xpQ..8|.
00403D10 D4 CE 00 C9 8C CE B1 7F 04 64 9C 00 02 AB 5B 49 .........d....[I
00403D20 7F CC 0A 9D F9 08 6B 00 E4 8F 00 F5 29 33 FF EF ......k.....)3..
00403D30 33 FF 49 00 91 EA BE 0E FF 2C 0C DC 46 33 3A B0 3.I......,..F3:.
00403D40 A9 7E 99 11 98 00 FF F9 0C 4E CB 7D 69 49 00 9A .~.......N.}iI..
00403D50 83 00 00 02 DF 6A 7E C2 5C 4B 00 00 00 0F 80 BF .....j~.\K......
00403D60 FB 52 DF 44 E5 E7 7B 6E C7 E6 AB EC B6 1B 60 68 .R.D..{n......`h
00403D70 D2 53 86 97 3C 00 79 30 FF 81 FF 51 9E F9 43 90 .S..<.y0...Q..C.
00403D80 00 9A 3F B4 35 00 F6 3A F1 C6 FF 4F 0F 30 89 E3 ..?.5..:...O.0..
00403D90 87 FF FB 6E 00 7B C5 63 00 67 E2 FF 08 43 00 97 ...n.{.c.g...C..
00403DA0 00 67 00 FC E8 00 74 FF B7 00 88 7E AA 0D EC 51 .g....t....~...Q
00403DB0 4E AB 31 7A F2 2A 03 4A FF 24 E1 4C FF E9 9E 79 N.1z.*.J.$.L...y
00403DC0 3C FF 96 5F 04 B8 6D DB 7F C2 1E 4E 9B 00 46 79 <.._..m....N..Fy
00403DD0 D6 26 3E 4B 2D F3 7A 00 7B 22 00 2F FF 00 2C 31 .&>K-.z.{"./..,1
00403DE0 08 B3 26 EE FD D7 45 FF D1 00 DC D1 CC 3D BE 4C ..&...E......=.L
00403DF0 58 8B 20 A4 06 B0 4B 76 63 81 86 1D 00 9A 9A A8 X. ...Kvc.......
00403E00 1B 02 C3 32 23 20 9E 4A B3 D6 00 67 2A 45 6A 00 ...2# .J...g*Ej.
00403E10 A3 DF 00 D3 F1 A6 29 B9 14 00 0F 0A 19 00 BE C5 ......).........
00403E20 51 BA 5A 76 78 00 A2 CA CD 16 28 37 CC C9 72 00 Q.Zvx.....(7..r.
00403E30 F2 FE B9 FF 9C 28 D8 98 FF E1 02 3E 38 00 75 00 .....(.....>8.u.
00403E40 DD FF 24 B0 7A 6B D0 83 63 FD 3A 1E E7 08 16 00 ..$.zk..c.:.....
00403E50 6B 39 FE 99 B9 00 A9 00 00 C1 DC 08 8B 99 08 00 k9..............
00403E60 9F 13 87 10 9E FF F2 0E 00 39 02 B3 94 8D 84 60 .........9.....`
00403E70 9D 00 BF 4F 00 22 8D FF 00 FF C9 88 EC 12 5C 9F ...O."........\.
00403E80 D8 36 D0 00 3B 0B 8F 85 60 C8 5D 86 80 B7 81 F8 .6..;...`.].....
00403E90 79 71 FF FF FF 74 21 E2 8A FF A9 B8 2D 3A 34 C1 yq...t!.....-:4.
00403EA0 88 05 AC 3F 00 02 48 AC 7B 65 FF 00 99 E7 F1 D9 ...?..H.{e......
00403EB0 62 6F ED 96 00 00 F5 FB C7 01 C1 00 00 96 F7 A6 bo..............
00403EC0 02 AA CB 04 DE F9 11 12 04 A9 D5 F4 1C 00 20 A1 .............. .
00403ED0 36 54 41 5E FA FE 00 9B C7 CE 91 00 38 E6 3F BA 6TA^........8.?.
00403EE0 CE E6 AF 42 28 7F D8 68 A3 33 D1 2E 18 C2 76 9D ...B(..h.3....v.
00403EF0 C1 D5 FF 83 ED F4 86 75 00 00 46 00 19 F4 47 CA .......u..F...G.
00403F00 D4 8B DA AA 62 FF 5D 90 A9 E8 45 62 00 04 F1 FF ....b.]...Eb....
00403F10 30 6E 06 FF 4C C1 10 C0 02 E9 00 35 35 24 00 38 0n..L......55$.8
00403F20 D1 00 00 00 1F 5B 00 73 9C E8 31 7B 00 C4 A7 AC .....[.s..1{....
00403F30 50 B6 70 02 F7 6D 83 3B 00 C2 00 00 FF F9 F1 0F P.p..m.;........
00403F40 00 C7 CC 13 60 00 65 56 6C 43 4B 00 DF 0A 00 0C ....`.eVlCK.....
00403F50 00 5C 3D FA A1 50 FF 51 00 D7 CB 00 E5 BA C9 A4 .\=..P.Q........
00403F60 06 3F 83 F1 6D 25 F7 CD 62 01 2D 74 E3 66 63 4C .?..m%..b.-t.fcL
00403F70 D1 AC BC 60 2F D3 16 EC 09 70 09 0E 0F 79 52 00 ...`/....p...yR.
00403F80 A8 00 00 DF B3 1F B1 00 98 DC E7 3A 87 00 26 6F ...........:..&o
00403F90 F9 95 48 12 00 C7 9E 8F DA 74 8B A8 66 05 00 17 ..H......t..f...
00403FA0 FD 17 FF 41 00 13 4F 82 6D 0E 27 FF BA B1 FF 72 ...A..O.m.'....r
00403FB0 24 A0 FB BE 3D ED D9 00 E9 00 FE F1 30 94 C7 00 $...=.......0...
00403FC0 6A DF 2E FF 00 22 8F E8 DF 37 CD 22 18 BC 41 F8 j...."...7."..A.
00403FD0 5A CC 7D E4 86 8A DD 08 5C 66 02 C9 E7 34 D9 2A Z.}.....\f...4.*
00403FE0 6C CA 92 F9 FF B0 56 00 FA 23 3F 16 AB 90 1C 64 l.....V..#?....d
00403FF0 D8 32 2C 28 00 B3 DD 81 64 A1 54 FF 59 E8 80 49 .2,(....d.T.Y..I
00404000 23 00 45 72 3F E4 00 62 F5 D2 2A 25 4B 6D 9E 00 #.Er?..b..*%Km..
00404010 FF 93 CF CA 00 D8 AB FB AF BE 72 B8 FF 8F 00 6E ..........r....n
00404020 9A 0C 4E B1 04 1C 00 02 78 1B 20 0C EC B5 4B 69 ..N.....x. ...Ki
00404030 A7 53 2B FE 8D 60 75 00 00 FF D7 FF ED 11 D7 5F .S+..`u........_
00404040 76 38 84 6B 00 F8 1F DE 9B 3E 6F D8 AE DF 6B AF v8.k.....>o...k.
00404050 69 67 FD 16 F7 BE 00 11 70 E7 6E CF 44 00 63 FD ig......p.n.D.c.
00404060 B1 A5 00 78 55 90 C8 00 8C FF 27 00 0D 31 C4 42 ...xU.....'..1.B
00404070 C3 01 34 00 12 78 FF 9C FF 6F 9C 00 B3 DB 0B 8E ..4..x...o......
00404080 00 E6 A6 36 00 A2 86 74 FE 5A 9C 16 10 86 10 65 ...6...t.Z.....e
00404090 FF 9C 00 8F FF DF 00 7E 41 10 DF 2D 49 4F 95 34 .......~A..-IO.4
004040A0 3A A1 F3 51 86 F5 B0 C1 2E D5 00 E7 FF 1F 07 2E :..Q............
004040B0 B8 DB 70 1F 00 64 06 09 04 0E 80 E9 B6 52 2B 40 ..p..d.......R+@
004040C0 03 2C D0 78 0C B0 C4 C3 C2 0D 00 16 8F 00 4A 3C .,.x..........J<
004040D0 32 7A 07 20 06 19 00 00 CE 34 02 F7 71 7F 40 F6 2z. .....4..q.@.
004040E0 00 06 5D D2 8F FF 5A 4E 9F 11 26 8B 9E 9E FF 44 ..]...ZN..&....D
004040F0 D8 8F 74 A6 88 99 36 77 4C C7 21 B1 CD 6A 4D FA ..t...6wL.!..jM.
00404100 06 17 00 8A 40 5F BE 02 FF E7 BE 50 EE 00 53 73 ....@_.....P..Ss
00404110 FF 10 E8 00 96 05 77 3F BC BF 00 01 16 00 37 DA ......w?......7.
00404120 00 C2 00 01 C1 25 F2 A6 B9 CD F0 F1 97 00 74 F7 .....%........t.
00404130 F8 3B B0 F6 76 3A A5 45 B5 B7 FE 5C B7 4A 1B 73 .;..v:.E...\.J.s
00404140 74 96 DC F9 FA 07 6B 22 38 90 00 FF FF 00 C2 3F t.....k"8......?
00404150 60 06 B9 34 61 DE 38 00 A1 00 E3 C7 AF F3 0B 00 `..4a.8.........
00404160 E6 07 23 1D DE E1 AE B3 C7 FF 25 00 BE E3 70 A3 ..#.......%...p.
00404170 02 81 A7 26 00 0F 39 C6 44 56 C5 D7 1B 77 1A 6D ...&..9.DV...w.m
00404180 86 7E C3 FB C8 00 39 CA 31 EF 97 F4 CC AB BA A8 .~....9.1.......
00404190 E3 CD 1C 99 57 02 9D 42 48 19 0D DA A1 10 FF 00 ....W..BH.......
004041A0 5E 7A 81 01 F2 9C 79 2F 40 00 34 5E 41 A7 E7 DF ^z....y/@.4^A...
004041B0 FF 46 6A 32 2D 2E 7F 00 CE 58 49 90 01 BB 7D 3C .Fj2-....XI...}<
004041C0 19 4C 15 94 AA E4 5D C3 7E 30 71 89 4B 87 FF C6 .L....].~0q.K...
004041D0 78 B6 79 00 6E 04 0D 63 F6 3D 00 61 A6 B1 3B 80 x.y.n..c.=.a..;.
004041E0 16 81 00 21 9C 1A 4B DB F0 2F 49 4D 43 31 26 FA ...!..K../IMC1&.
004041F0 D3 31 00 00 15 CF 1C 00 1E F4 76 60 1A CC 27 7F .1........v`..'.
00404200 5A 32 50 96 63 18 1E 00 E7 00 BC 2B 43 B5 03 BB Z2P.c......+C...
00404210 E6 FC E3 CB 86 A4 A5 E5 C6 C2 68 B4 24 76 F7 58 ..........h.$v.X
00404220 8F 4D 12 07 F3 89 90 16 48 62 00 BC 04 00 1C C6 .M......Hb......
00404230 93 AE FF D0 45 26 FC C6 C8 11 E0 91 01 36 52 7F ....E&.......6R.
00404240 00 54 B9 F9 84 24 34 C6 00 AC 30 7A 8E 41 29 00 .T...$4...0z.A).
00404250 1B 14 74 87 60 0E 0D 16 6B BC 87 62 FF 00 B4 AC ..t.`...k..b....
00404260 EE D1 F3 07 00 70 00 00 57 00 FF 0B 2A 5B 26 E5 .....p..W...*[&.
00404270 60 00 9E FF 7B EB D6 EC 93 A8 AB D4 FF 11 38 7C `...{.........8|
00404280 30 6C 3C 90 E7 F0 66 0E D0 85 40 23 30 3C 3C 00 0l<...f...@#0<<.
00404290 8B 00 D8 A1 29 61 83 21 BF B1 85 00 DB 5C 20 D3 ....)a.!.....\ .
004042A0 FF 8F 1D 73 B7 48 0B 8B 71 00 55 E9 3B 41 B1 26 ...s.H..q.U.;A.&
004042B0 00 00 63 C8 5F 6E 8B E9 82 BE 20 80 8D C3 FF 9A ..c._n.... .....
004042C0 FF 43 EC 7B 2E CE 00 D3 00 AD 85 40 A7 CF 70 41 .C.{.......@..pA
004042D0 D9 1E 52 0B B7 8D CB 05 B3 6F 52 07 00 5C D8 95 ..R......oR..\..
004042E0 C1 20 30 78 FF F4 60 2F A3 00 48 CE E6 F6 86 BE . 0x..`/..H.....
004042F0 F3 E9 D4 8D FD 35 B1 B4 07 78 FA 32 63 F4 87 06 .....5...x.2c...
00404300 C0 45 00 C0 88 55 51 C0 4B 1D 80 DE E2 D9 00 BB .E...UQ.K.......
00404310 D9 DA C1 88 7F D3 C3 E4 0C 6E 89 C8 4E 6F 75 1F .........n..Nou.
00404320 42 BF 00 CF 42 91 57 59 3A EB DD 82 C6 67 6E 1A B...B.WY:....gn.
00404330 14 72 A0 EF 83 28 77 40 00 39 25 7D 6E 65 2C 7A .r...(w@.9%}ne,z
00404340 B6 1F 98 77 54 2A 09 C8 00 43 9D 71 C0 EC F2 89 ...wT*...C.q....
00404350 9D 00 5E 78 3C 1C CB 22 51 7E 78 78 00 DE FF 26 ..^x<.."Q~xx...&
00404360 55 36 C6 4B 00 91 19 F5 1C 27 78 AA 0D 8C 0F 6F U6.K.....'x....o
00404370 C4 06 1E 30 E0 2F 80 DB 33 48 5C B9 82 41 B1 03 ...0./..3H\..A..
00404380 00 47 33 DA 00 00 0F FF 00 11 C1 A8 FF 00 76 58 .G3...........vX
00404390 B4 18 00 00 A6 30 0A 84 00 5E 02 FE 81 4C 05 81 .....0...^...L..
004043A0 FD 00 34 60 80 D9 27 C5 FF C7 E1 00 6C 8D 5A 8F ..4`..'.....l.Z.
004043B0 1E 89 28 20 AC 00 B4 32 80 CD 09 32 00 31 AA C2 ..( ...2...2.1..
004043C0 CC 68 DF 00 71 FF DF 00 A4 D2 70 35 7C 6F F0 00 .h..q.....p5|o..
004043D0 FF 4B 86 00 09 14 70 1A 4E 20 35 C4 6A A0 A1 00 .K....p.N 5.j...
004043E0 DF F8 D3 FB 8D 06 00 FF D0 FF E3 5D FE 22 27 FF ...........]."'.
004043F0 C5 E7 CB C1 04 F1 00 4C 28 64 28 9D 03 00 39 BC .......L(d(...9.
00404400 14 74 2D A8 88 2F 24 7D E5 FC E8 D0 00 42 83 D2 .t-../$}.....B..
00404410 02 4E 1D 1C 09 63 F5 C4 65 FB FF 73 F6 00 81 E7 .N...c..e..s....
00404420 8A 40 00 A2 0B F6 A5 DC 00 0B 0B 7F 00 6D E6 37 .@...........m.7
00404430 91 CA 8F 41 67 71 88 3C 00 F3 9C 00 5D F4 20 07 ...Agq.<....]. .
00404440 46 58 60 11 12 B8 2C 00 31 A5 00 34 00 74 10 36 FX`...,.1..4.t.6
00404450 5C 19 93 E7 97 A8 7C DC E0 FE C2 11 A8 C3 C5 16 \.....|.........
00404460 FF 00 53 E0 66 00 F7 8B 57 1D FF 87 1E 32 19 49 ..S.f...W....2.I
00404470 B6 8D 1C 6C A6 3E AB 8B 00 28 8E 2E D1 8F 34 E0 ...l.>...(....4.
00404480 17 80 2C 00 7A 00 17 6D C1 C7 00 FC 00 AB 30 3A ..,.z..m......0:
00404490 EB 00 5B E8 36 7D 2C 27 BB 6B EF CF 5D A3 B0 B9 ..[.6},'.k..]...
004044A0 92 01 C6 7D 37 08 DB 63 FF A0 3D E9 0C 02 00 8D ...}7..c..=.....
004044B0 EF CD 30 E6 EE D5 0A 26 05 96 00 D1 1E 91 19 25 ..0....&.......%
004044C0 3A D5 00 70 62 48 DF 52 74 8A CC B0 00 00 0B 35 :..pbH.Rt......5
004044D0 83 B7 17 DA BF F3 EB 00 BD 27 43 40 DA A8 0B 00 .........'C@....
004044E0 7A 01 3E 72 CC 9F E1 BF 5B AC 53 A9 10 00 7C E8 z.>r....[.S...|.
004044F0 18 C4 07 00 D9 00 25 00 03 B1 00 7E 99 88 94 57 ......%....~...W
00404500 80 61 74 A0 F5 24 00 F8 49 E5 A7 28 69 11 00 F7 .at..$..I..(i...
00404510 24 5C FF FF C7 1F C4 EE FF FF A3 C3 6D CA 00 00 $\..........m...
00404520 E8 A6 28 FF 26 38 85 00 E0 F0 74 39 51 E7 FF 0B ..(.&8....t9Q...
00404530 30 C0 16 1D 03 0E FF F6 00 00 A2 D3 5C 46 1A 21 0...........\F.!
00404540 85 9B 4B F6 E7 1D 06 04 F6 37 04 FF 71 62 00 84 ..K......7..qb..
00404550 2B 00 83 E6 3B 04 09 21 8A 90 2E FF 76 89 7A 05 +...;..!....v.z.
00404560 9E 01 00 20 08 D9 EF 00 B9 58 E2 DA E2 00 50 16 ... .....X....P.
00404570 40 02 72 05 3B 00 F7 3C FF 00 DA 19 CA FB FD 50 @.r.;..<.......P
00404580 E0 93 CF C5 05 00 AA C6 C2 9A 66 5F 6A 07 10 C4 ..........f_j...
00404590 01 01 60 D2 A8 D4 5D 80 77 00 FF 35 FD FF B9 C7 ..`...].w..5....
004045A0 B7 FC 15 36 BD C0 00 C5 00 C3 D0 67 15 B6 00 A4 ...6.......g....
004045B0 F4 C3 3B 9A E4 E6 00 23 5D A1 40 5F 7D 7C 3B E6 ..;....#].@_}|;.
004045C0 20 5C 68 00 00 9B FD 80 96 40 ED B9 78 6C 70 A8  \h......@..xlp.
004045D0 2E F6 8F F2 F2 6A 7F 78 00 FF 00 7D C6 65 FC 61 .....j.x...}.e.a
004045E0 BE E1 55 73 FF 0B D5 2C 10 C3 00 45 1A 25 68 00 ..Us...,...E.%h.
004045F0 4A 83 77 CC F4 D9 1E EA 00 45 EB F9 00 00 4A CA J.w......E....J.
00404600 03 48 00 3F 9C 3B EE 02 FF 49 66 45 00 FF 62 1B .H.?.;...IfE..b.
00404610 68 E9 81 2D B3 3E B9 B4 60 27 00 77 00 05 00 46 h..-.>..`'.w...F
00404620 A0 4C B0 00 55 7E E0 D3 97 D1 89 0C 00 1E 39 BC .L..U~........9.
00404630 F8 00 84 00 DB 66 B3 6F 2E E1 FF 06 A1 00 C8 B7 .....f.o........
00404640 FD 92 4A C3 C4 00 95 02 D8 D4 06 C8 9A EF 6D 2C ..J...........m,
00404650 00 DE 76 09 DD 86 D0 FB 43 79 FF CB 10 8E 00 FB ..v.....Cy......
00404660 C6 0C 42 00 FF D5 6F A0 ED A4 4A B6 55 A1 E3 08 ..B...o...J.U...
00404670 CF FF 91 00 CF 91 40 00 77 D2 00 26 16 A5 D3 D3 ......@.w..&....
00404680 EF CB 66 7F 73 FF 9D 00 81 91 00 8B 00 E2 4B F6 ..f.s.........K.
00404690 4C 8C FF 89 00 6C 7D 9E BB 64 1F 21 A5 20 BD 82 L....l}..d.!. ..
004046A0 00 1C 15 FE AF 07 9E 97 C1 04 BD 91 C1 28 1C B7 .............(..
004046B0 99 00 00 ED 72 A2 D1 00 9F 0B 96 00 A5 7C B8 28 ....r........|.(
004046C0 3E 06 46 00 CB EE 78 78 E4 00 6F 34 FF DC 07 FF >.F...xx..o4....
004046D0 74 41 C7 9D D1 61 D2 C8 2E DF 6B 01 8B A5 41 80 tA...a....k...A.
004046E0 78 0D 0F A2 B0 2F 1C 00 41 E8 FF 6B 77 46 02 A5 x..../..A..kwF..
004046F0 5E CD 1D 35 2B 08 00 C5 D5 00 FF 7F CE 9F FF 3C ^..5+..........<
00404700 FF A0 FF 00 7B 8C 7F 24 57 8D 72 0A 2C 00 CD E8 ....{..$W.r.,...
00404710 35 A2 49 24 00 72 23 FF 00 18 30 AF 7E 18 07 D9 5.I$.r#...0.~...
00404720 5B 0A 59 BF 97 10 C0 0C 65 82 6E 73 2A 0B 29 00 [.Y.....e.ns*.).
00404730 92 15 9D 27 8A 00 FF 9A 88 8C 00 26 45 37 5B E1 ...'.......&E7[.
00404740 A9 C0 A9 89 20 C4 FC 50 7A CB 2D 0F BB 18 26 00 .... ..Pz.-...&.
00404750 3A 89 60 C1 4F 00 6F FF 8F 96 55 57 F0 CC F5 74 :.`.O.o...UW...t
00404760 A4 48 71 00 40 DA 70 85 CE 26 15 A4 00 33 00 FE .Hq.@.p..&...3..
00404770 79 F0 C9 8A 00 F3 00 00 01 C0 17 40 9F FC 00 FF y..........@....
00404780 B9 93 7F B7 47 18 FF 19 3F 87 A2 FD 2A 1A BD EB ....G...?...*...
00404790 DA 00 00 D1 D7 FF 31 08 30 1E 8E F3 9A D4 90 E6 ......1.0.......
004047A0 9C 86 2D 7F 00 69 15 1D C1 FF 00 15 F4 9B F6 94 ..-..i..........
004047B0 00 CD 2C CA 91 81 26 00 E0 00 27 3A FF 39 0D B1 ..,...&...':.9..
004047C0 D0 6C 03 BD 67 75 EE 59 73 01 3C 31 33 A7 60 08 .l..gu.Ys.<13.`.
004047D0 4D CA 28 75 FF 5E 73 C1 0E 6C 96 42 68 FF DB 23 M.(u.^s..l.Bh..#
004047E0 CF 4A C2 F3 FF 00 41 00 BB 31 72 CF E3 FF 05 3A .J....A..1r....:
004047F0 3A F4 00 E2 2D 9D 9C 57 E0 9F 55 E6 28 73 63 18 :...-..W..U.(sc.
00404800 E8 0C 71 51 16 32 00 C5 66 2F 00 60 FF EB A3 E4 ..qQ.2..f/.`....
00404810 00 2D F0 21 69 BE 00 EB 0A 79 7F 90 91 08 00 81 .-.!i....y......
00404820 F5 B6 00 9A FB C9 D8 AA 14 66 72 00 00 4F 22 25 .........fr..O"%
00404830 84 5B 5A F1 23 11 88 B8 00 58 07 1C 32 97 85 EE .[Z.#....X..2...
00404840 F7 FF EA 0C 8A 9E F7 0B 84 87 43 FF 00 E7 00 0E ..........C.....
00404850 D3 42 00 36 3A 29 3F B5 65 1F 7F 28 A4 A9 2D FE .B.6:)?.e..(..-.
00404860 D5 00 1E 55 D1 16 F7 3C 2C 85 58 AF C7 EC D0 27 ...U...<,.X....'
00404870 01 18 C5 63 C8 28 00 00 64 B9 ED AE 00 00 70 D7 ...c.(..d.....p.
00404880 C4 B8 F7 21 16 2B 00 8D A8 FF E4 A4 23 C2 40 AD ...!.+......#.@.
00404890 97 F1 C4 4C 00 5F F2 1F B9 F4 18 E8 58 81 FF 00 ...L._......X...
004048A0 E4 00 EC 71 00 C4 0A FF F8 0E FF 5F 00 05 FF 62 ...q......._...b
004048B0 D7 12 29 4C FB 90 E1 85 50 3C 00 90 FF C3 EF 76 ..)L....P<.....v
004048C0 86 66 87 54 00 00 00 7A 9F D4 83 C6 DB 38 FF EC .f.T...z.....8..
004048D0 BE 07 21 FF 00 05 5E F3 08 D0 00 29 AC 7F 00 85 ..!...^....)....
004048E0 C4 6E 01 0B 00 80 64 E9 49 E5 33 FB 40 60 8D BE .n....d.I.3.@`..
004048F0 ED DD FB 5F 00 3E 84 00 65 42 00 00 FF EF 5D 4A ..._.>..eB....]J
00404900 2A 12 F0 1C 26 00 BB EB AB 9A D8 08 A5 F1 82 F3 *...&...........
00404910 1E 00 89 E2 8D 4F 72 80 F3 30 A2 3C FF F0 B9 00 .....Or..0.<....
00404920 9C C4 FF 98 C5 FE 1D 00 01 BF B0 FF 41 DE 1D 5F ............A.._
00404930 7D 00 53 25 1B F9 D2 D4 50 00 C2 9E 8B D7 DB 07 }.S%....P.......
00404940 00 39 A7 7F D5 F3 B9 00 71 00 8C 31 77 6D 3D 8D .9......q..1wm=.
00404950 15 AC ED E7 1F 42 A9 16 FF 00 AB 8F E1 2A E3 0C .....B.......*..
00404960 4F 38 EA C1 07 22 39 A3 78 0D 00 F2 30 00 EB 8E O8..."9.x...0...
00404970 00 07 C9 45 00 58 01 BA 44 F5 FF 42 90 28 03 00 ...E.X..D..B.(..
00404980 7D 00 86 50 8D 00 FC 86 E6 AF 00 37 6A 0B 6B D8 }..P.......7j.k.
00404990 03 DA 78 00 FF E4 08 00 85 8B B6 E8 BA E5 C0 C8 ..x.............
004049A0 20 AC 6B 00 E7 42 05 38 FF 39 00 57 6A 74 35 D2  .k..B.8.9.Wjt5.
004049B0 F6 FA 9B 2B E2 FF 40 B1 8A 5A 15 B7 FD 9D 00 3F ...+..@..Z.....?
004049C0 44 75 00 57 BD FF 0B 41 7C E4 05 CD 5E 00 00 ED Du.W...A|...^...
004049D0 B6 D9 A3 E1 B2 20 67 05 00 02 63 1B E8 BE 1A 90 ..... g...c.....
004049E0 26 66 C2 7B 4B C1 C7 F6 34 00 FF 47 DF FE 70 47 &f.{K...4..G..pG
004049F0 90 C6 23 1B 00 99 42 51 BF E2 44 FF 82 A0 00 B2 ..#...BQ..D.....
00404A00 E8 F8 12 E7 00 DC 6C 1F B4 78 00 18 00 00 1E 8F ......l..x......
00404A10 C3 2F 78 00 64 09 00 77 00 9C 00 F8 00 70 C5 F9 ./x.d..w.....p..
00404A20 FF D8 A1 00 64 15 00 20 0F 2C FB A0 C4 50 70 1A ....d.. .,...Pp.
00404A30 8A 12 F7 E1 04 FD E8 2E 73 AB 87 8D FB 18 AE E2 ........s.......
00404A40 38 CE F5 37 00 86 3A 0E 83 54 60 1C 0E 00 0F 00 8..7..:..T`.....
00404A50 F7 CA 00 F6 00 BF 03 5A 03 D7 35 1F 00 FF 25 15 .......Z..5...%.
00404A60 00 00 00 C3 E0 BD 4B F2 7F 3D 4C CA 84 EF 99 7C ......K..=L....|
00404A70 27 5F 0E D2 38 D3 00 11 00 71 FF 67 83 26 00 F5 '_..8....q.g.&..
00404A80 00 00 D0 00 48 00 17 B9 76 00 14 FF FD 97 0C F1 ....H...v.......
00404A90 05 DF 27 8B 63 9F A7 E4 27 9F 08 FF 71 F3 02 6F ..'.c...'...q..o
00404AA0 2D 00 D2 E1 64 80 B1 C5 DE 00 82 00 FF 63 F6 A3 -...d........c..
00404AB0 FF C1 FF CB 3D 3A 27 66 03 59 BD 00 00 8C FF B2 ....=:'f.Y......
00404AC0 60 9F 4E 65 05 B8 00 00 FF 1B 8F 8F 11 01 FF EB `.Ne............
00404AD0 70 9A C1 61 0A E6 00 3B C0 4C C8 00 04 00 C4 06 p..a...;.L......
00404AE0 0F C5 42 2A 7C E4 BC 00 B6 56 C0 5C B3 6D ED 21 ..B*|....V.\.m.!
00404AF0 43 59 42 7A 00 70 5C 2B F1 86 00 45 4C 03 5D 00 CYBz.p\+...EL.].
00404B00 2F 00 11 00 46 52 D6 EE 36 06 3B 88 14 00 C2 B1 /...FR..6.;.....
00404B10 1F E0 33 F8 8C B9 DF 0C E4 2B FF F7 FF 00 53 6C ..3......+....Sl
00404B20 00 00 37 00 BC D8 21 C2 75 20 AE 8F 08 35 C7 78 ..7...!.u ...5.x
00404B30 EA 44 4D 92 6A 92 FF 00 88 49 F8 FF CB ED 9C 00 .DM.j....I......
00404B40 29 FF 1B F6 A8 A6 25 BF 81 00 FF 07 C0 49 83 B5 ).....%......I..
00404B50 12 03 78 1C C6 38 7D 00 C2 3E 0C 69 29 AC 65 06 ..x..8}..>.i).e.
00404B60 30 84 1C F7 DB 15 3D 5C 00 2E 64 39 FD BD 98 FC 0.....=\..d9....
00404B70 80 36 EB D8 B2 B0 CB 9A 98 7E 40 00 62 B2 B0 4D .6.......~@.b..M
00404B80 C8 C1 E7 9A 8D FF 1D 8B B5 C8 00 B6 00 03 1E 6D ...............m
00404B90 41 30 D1 93 F4 CA EE 21 1C 09 74 18 CC 00 9C 00 A0.....!..t.....
00404BA0 FF FF A6 7B D9 47 00 7A F0 DB 00 35 0C 02 A1 2E ...{.G.z...5....
00404BB0 3F E5 A9 00 CD D7 CB FF 7C 35 00 EF 7B 65 8F E6 ?.......|5..{e..
00404BC0 C0 74 1C E1 FD 9F 3B 41 B1 EC 21 83 5C 01 03 1B .t....;A..!.\...
00404BD0 FF DD E2 20 00 C1 7F 00 9F C4 0E BB A4 00 3A 00 ... ..........:.
00404BE0 F2 D0 0D C1 FD 69 70 D8 37 8B 80 FF DB 9E 51 14 .....ip.7.....Q.
00404BF0 58 60 61 FA 78 D5 CD 72 28 66 17 1F 40 96 01 5D X`a.x..r(f..@..]
00404C00 CF 85 FB 9B 62 FC 30 DD D0 00 EB FB 5A B7 F7 13 ....b.0.....Z...
00404C10 FF 88 8E 0D 4B 6B 2B FF 7F EF 02 39 E0 F4 A4 DE ....Kk+....9....
00404C20 20 5D 00 BD AF F0 00 E1 F0 05 58 2A 98 CA 1F C1  ]........X*....
00404C30 43 18 85 31 11 C4 00 21 46 EC 00 0D 2E 6E 82 00 C..1...!F....n..
00404C40 B6 3B B4 1C 3F D8 A5 B4 AC 8C 00 B9 0D 15 FA B0 .;..?...........
00404C50 AD B0 00 63 6A 4A 2F 9E 5B BF 00 CC 39 5D 00 B5 ...cjJ/.[...9]..
00404C60 B0 E6 21 CB AD 5C A7 E1 93 4E 3A 00 72 4D 2B E8 ..!..\...N:.rM+.
00404C70 B1 E4 69 09 B1 D1 00 05 CC 48 89 59 FB F9 77 46 ..i......H.Y..wF
00404C80 47 E0 BF FF 8D 00 31 95 38 0B A2 B9 08 EB 00 94 G.....1.8.......
00404C90 14 00 02 3E 92 E0 45 DA 00 E8 8C B3 BB 00 8A 0F ...>..E.........
00404CA0 C9 2E 00 D5 9D 28 BA 57 74 30 5C 80 D2 40 40 80 .....(.Wt0\..@@.
00404CB0 1E 71 00 46 F2 7F 7C 08 5C D3 21 2F 49 FF D1 13 .q.F..|.\.!/I...
00404CC0 4E DD 00 FF 1B 3D 00 EC 00 6B 36 B1 00 68 FF 7F N....=...k6..h..
00404CD0 12 6F 51 16 DA 09 68 C3 B4 10 3E A6 B9 1D CE F9 .oQ...h...>.....
00404CE0 40 66 F9 64 E5 80 50 88 D9 12 E4 9A 6E FF 00 40 @f.d..P.....n..@
00404CF0 4D 00 2D 18 2B 20 00 FD 36 37 B8 00 D1 81 C7 5B M.-.+ ..67.....[
00404D00 FF 67 FF 2E 00 4E 18 00 E8 F4 53 FF 00 FF FF 60 .g...N....S....`
00404D10 00 67 A3 48 70 04 0C 54 00 EB 0E 6C 26 2D 59 8E .g.Hp..T...l&-Y.
00404D20 39 86 32 9C FF A5 4B FF C4 42 78 19 24 F6 FF CA 9.2...K..Bx.$...
00404D30 D0 00 FF CC E6 89 FF A6 3E 7A 50 08 66 F7 7E 30 ........>zP.f.~0
00404D40 9C FD 41 FE 67 F8 90 6E FC B0 05 52 7B B6 83 15 ..A.g..n...R{...
00404D50 42 48 30 00 C2 00 00 FF 28 F6 FF FE 00 01 00 28 BH0.....(......(
00404D60 44 00 7A F0 F2 00 88 EB EE 69 CF 08 80 39 83 FF D.z......i...9..
00404D70 F6 00 AD 31 B3 07 83 0D 47 D5 53 4D 14 95 3A A6 ...1....G.SM..:.
00404D80 E9 23 06 1C F0 00 B9 AF FF 3D 9F DB 00 39 9F 26 .#.......=...9.&
00404D90 80 09 69 BF 2C CD 76 79 C3 FF 2F D3 80 5F 03 13 ..i.,.vy../.._..
00404DA0 E3 0A 82 F0 18 00 90 00 AB 5C 8B 02 00 05 9B C4 .........\......
00404DB0 54 48 7D 3C 8E 8E 7F 24 9A 00 E4 00 B8 51 97 82 TH}<...$.....Q..
00404DC0 93 1E 5B 01 20 00 A2 CF A5 91 02 94 66 9E 5B 5C ..[. .......f.[\
00404DD0 11 47 66 7C 83 00 7D 27 84 07 18 B9 18 BD C0 00 .Gf|..}'........
00404DE0 FF 02 65 81 6D F7 00 BF 00 66 06 FE 58 36 C0 D7 ..e.m....f..X6..
00404DF0 93 FD 73 00 8E 16 57 F2 C0 00 2C 00 57 EE D8 1D ..s...W...,.W...
00404E00 6F 9B B7 31 00 4B F8 00 D1 8F 26 B9 CE 87 5F 4F o..1.K....&..._O
00404E10 67 1F 09 00 E7 BB 7A 9D F4 FF 04 22 9B 80 55 C1 g.....z...."..U.
00404E20 75 83 E7 19 3F 00 9D 9C 78 F8 FD E2 58 DE 32 D9 u...?...x...X.2.
00404E30 67 DA BF C3 A4 02 DA 48 17 26 8E 9D 00 00 88 EC g......H.&......
00404E40 1E 4D 20 00 87 2D 77 00 FF 66 4C 00 FD 1B 4C 11 .M ..-w..fL...L.
00404E50 D3 FF 9F 81 A0 E1 6F 0B 6B A5 00 78 00 00 A9 59 ......o.k..x...Y
00404E60 48 30 AE B9 00 C7 00 08 89 08 73 B7 FA 6A 1C CF H0........s..j..
00404E70 5F 52 04 FF 39 3F 21 24 AC 93 9E E3 69 AB 11 E3 _R..9?!$....i...
00404E80 4C 86 B9 19 00 F9 67 FF A2 B4 AB CE 22 B8 20 B8 L.....g.....". .
00404E90 90 DE 33 DA 78 06 89 48 FF 00 C9 00 13 40 48 00 ..3.x..H.....@H.
00404EA0 00 39 2D B5 D1 32 00 3E A0 02 42 FF 8F 32 00 81 .9-..2.>..B..2..
00404EB0 A5 5F 19 7A 00 9B 42 FF 9B 58 76 34 00 FF E5 3B ._.z..B..Xv4...;
00404EC0 B4 4D 64 1D AE 18 73 85 25 00 00 DF FA 9C BF AF .Md...s.%.......
00404ED0 00 92 86 DF 6E 54 DB CD E1 43 58 4F C8 4C 92 E9 ....nT...CXO.L..
00404EE0 4E F1 00 67 2A 22 54 6D B0 3D CB FF DB 00 AB A5 N..g*"Tm.=......
00404EF0 D9 E6 F9 00 7A BF 69 64 3E 5E 11 DA 51 00 A4 48 ....z.id>^..Q..H
00404F00 00 BF 70 98 E6 2D F0 BE 8A FF 20 6F BC 41 15 1A ..p..-.... o.A..
00404F10 74 34 28 A9 91 51 AD FB 86 83 F8 50 0A 46 80 06 t4(..Q.....P.F..
00404F20 D5 DD 5F 00 00 00 12 38 E8 39 B9 17 6C 82 BB 88 .._....8.9..l...
00404F30 D0 00 80 00 90 A5 00 55 EB 85 3E FF 4A 82 3F FF .......U..>.J.?.
00404F40 6F 80 7B D0 6E 7C FE E6 01 6F 65 BB A0 83 5A 00 o.{.n|...oe...Z.
00404F50 92 44 FF 17 7B DB 71 50 16 57 00 B2 0C EF 62 04 .D..{.qP.W....b.
00404F60 3D 00 A4 DA 9A 4E FF 5A B0 00 6A 62 8B 70 2C 0F =....N.Z..jb.p,.
00404F70 75 7C 0E 06 EF AD 57 79 FC 8A DE EF 31 C8 AD 36 u|....Wy....1..6
00404F80 23 74 82 EF 00 AA 24 65 1C 11 2F 53 1F 00 24 00 #t....$e../S..$.
00404F90 00 0E 3B E9 1C DB 00 0A B4 A6 5E 1B 20 09 06 00 ..;.......^. ...
00404FA0 82 EE B3 DB 36 0E C4 B3 48 BA 11 01 9B 00 DC F3 ....6...H.......
00404FB0 C8 00 EF 00 86 B6 FF 6A FF 57 9A 00 A2 8E 98 66 .......j.W.....f
00404FC0 9C 21 62 81 5D 58 00 3C 20 00 F3 6F 00 5C B7 BE .!b.]X.< ..o.\..
00404FD0 FB A7 EE C0 6E B7 84 C4 00 5E CB FF 83 24 71 70 ....n....^...$qp
00404FE0 F2 6F FF 3B 1B 00 DF 96 3C 46 43 41 68 00 22 86 .o.;....<FCAh.".
00404FF0 00 58 11 50 34 79 22 79 80 11 FA C9 2E C4 B2 0C .X.P4y"y........
00405000 F2 37 78 00 40 CB 6C CF 4F 34 9C 1B 2F CD FC 9B .7x.@.l.O4../...
00405010 C8 B4 30 1A 80 E3 18 00 10 27 8C 00 61 C1 1F 25 ..0......'..a..%
00405020 A1 9B BA FF 23 7C 00 00 FB BF BF F0 00 54 00 77 ....#|.......T.w
00405030 02 7D 00 FF 44 F9 15 60 03 35 DE 1F 00 97 A1 DE .}..D..`.5......
00405040 06 C7 D3 08 3E 50 FF A3 84 E7 9D 14 A7 FF 45 8E ....>P........E.
00405050 2B 9B C2 9C 77 25 80 12 90 8D F0 00 0F 39 FF 00 +...w%.......9..
00405060 6B D5 FF 56 DF A4 79 45 54 4A C2 6F 00 71 00 09 k..V..yETJ.o.q..
00405070 2C 00 00 46 FC C4 00 00 23 A2 08 00 93 0A A6 94 ,..F....#.......
00405080 98 FE 12 B0 03 FE D8 27 6B 30 BF F9 B0 40 8A 01 .......'k0...@..
00405090 0B 0E F8 E4 3A D4 D8 E7 C0 18 00 00 AE 89 00 71 ....:..........q
004050A0 3C C1 5C 3A 1E B6 EA 16 6A 24 78 36 19 60 2B A2 <.\:....j$x6.`+.
004050B0 86 D5 2C 1D D7 DD F0 B8 46 00 5E 00 63 C6 00 60 ..,.....F.^.c..`
004050C0 E1 00 00 00 C2 40 78 00 BC D7 FF FF 00 1F 74 00 .....@x.......t.
004050D0 FF 14 38 00 3C 06 BF 00 15 FC F0 9E B9 FF FF B1 ..8.<...........
004050E0 00 39 37 67 00 07 00 08 1A 7C 00 62 9E C2 82 00 .97g.....|.b....
004050F0 FF 85 3A 15 59 C1 FF 9C FF 1C BE F0 00 7A 84 E5 ..:.Y........z..
00405100 3B A1 59 20 FF 37 8E 27 82 28 85 0A 26 01 60 89 ;.Y .7.'.(..&.`.
00405110 00 9D 52 DA 5D A8 41 57 A2 B1 35 D6 04 85 DA 3F ..R.].AW..5....?
00405120 AC 60 18 3D F7 CE 7A F6 99 31 0A 70 26 A0 7F 51 .`.=..z..1.p&..Q
00405130 8F 45 00 2E 87 84 5A EF 00 FF 61 61 68 00 62 70 .E....Z...aah.bp
00405140 0B EA 7C 10 E1 12 4C C3 B0 00 C2 A4 8C D0 52 23 ..|...L.......R#
00405150 BF 27 8B 03 42 08 02 EE 05 BF EF A6 16 F0 4E 16 .'..B.........N.
00405160 51 2C 00 BA 40 C0 1E 35 99 93 66 39 02 AD 0F EF Q,..@..5..f9....
00405170 00 FB F7 68 75 EE 84 FF 46 63 38 3D 13 03 82 18 ...hu...Fc8=....
00405180 5B 00 DB 93 D8 15 92 71 00 0B EA 00 86 A7 D7 59 [......q.......Y
00405190 6F DF FD 85 F4 2A FD C6 68 CD 03 20 B9 03 B4 1D o....*..h.. ....
004051A0 00 00 25 4D CB D7 17 50 FF E4 02 E0 5E 42 0E 59 ..%M...P....^B.Y
004051B0 6E 0A 68 3D 1D 32 E5 AA C3 CC 00 D7 F9 7B 6B FF n.h=.2.......{k.
004051C0 3F 9B 53 1F 5B 74 DF 1C FF 0B 1F FF E9 E8 FF 36 ?.S.[t.........6
004051D0 72 78 67 8D AB 02 6D 87 F3 4B 83 85 00 15 00 BB rxg...m..K......
004051E0 0F D4 85 AF 00 66 B9 30 51 1F E4 44 A6 A9 21 CE .....f.0Q..D..!.
004051F0 C3 CF 98 F0 9E A1 C0 AB 00 00 70 03 48 47 0A 6F ..........p.HG.o
00405200 CB EF DD 00 00 34 0A 34 AC FF FF 87 F0 C1 F6 C7 .....4.4........
00405210 CA C6 D3 F8 AA DE 13 E1 B6 41 1C 1C 1B FB 00 02 .........A......
00405220 2C AD 00 67 BD D3 01 36 B1 20 88 11 D1 B4 00 00 ,..g...6. ......
00405230 B2 0C 21 FE 82 2C 55 89 77 57 B7 F0 C4 D7 00 AD ..!..,U.wW......
00405240 86 6C 47 42 D7 00 D0 15 47 D5 22 6E F2 A4 00 40 .lGB....G."n...@
00405250 00 D8 13 FF 81 4C 00 B0 41 3B 68 2B 37 64 9D 88 .....L..A;h+7d..
00405260 3F A1 00 7F 1C A4 3C 32 00 1F 6D 2C 24 00 08 00 ?.....<2..m,$...
00405270 2F 26 D8 78 E8 A8 24 FD EF F4 1F 00 31 52 47 FF /&.x..$.....1RG.
00405280 BA 5C F8 0D 67 99 EB 88 00 BA 07 16 D1 B3 00 B0 .\..g...........
00405290 84 56 00 69 00 18 87 A6 3E F5 2D 50 33 5A 00 05 .V.i....>.-P3Z..
004052A0 87 17 DD 9C 34 56 35 3F CA C1 54 20 FA ED CD 00 ....4V5?..T ....
004052B0 07 0C 26 00 13 E8 83 AB 98 C8 84 00 7C 59 FF A9 ..&.........|Y..
004052C0 C1 1C 11 18 16 EF A5 73 FF A0 31 77 D5 15 12 88 .......s..1w....
004052D0 CC BD 34 B9 00 DC 64 03 52 17 9F 00 D5 79 FF 20 ..4...d.R....y. 
004052E0 9F 4F 2F 8C FB 48 FF 9C 92 1F 00 8E E3 50 4C 0E .O/..H.......PL.
004052F0 70 0C E3 B8 00 00 84 36 12 E5 D8 41 62 B4 00 E3 p......6...Ab...
00405300 00 DB 71 24 F1 11 F1 51 4A 5C 2F CC 24 40 13 50 ..q$...QJ\/.$@.P
00405310 E8 F3 4A 11 00 CF 12 A5 AE A1 2C 73 C8 00 20 3B ..J.......,s.. ;
00405320 00 D7 A3 F9 07 6A 00 33 00 36 FE 20 00 06 AF BC .....j.3.6. ....
00405330 80 6A E2 FF 85 02 37 2A 20 E2 0B 29 E1 C3 29 A9 .j....7* ..)..).
00405340 2D 03 9C 70 00 00 F7 8F 49 DB 3A 02 00 C5 FD 00 -..p....I.:.....
00405350 A5 FF 8D 57 43 F1 39 0B 58 00 0C 80 00 72 F7 F8 ...WC.9.X....r..
00405360 E3 C8 00 60 01 3E E2 FF 3D 3D 65 FC A9 48 00 4A ...`.>..==e..H.J
00405370 97 E8 1A CB 00 F8 97 00 FB 00 06 00 00 2C 00 4F .............,.O
00405380 30 64 1B 00 60 05 FF 39 33 9C 9F 23 4D F2 3F 96 0d..`..93..#M.?.
00405390 9C 14 00 6F E9 EA 8C 0E 7E 66 88 41 00 3B 40 00 ...o....~f.A.;@.
004053A0 D1 CC 2E A0 98 9A 3A 00 E7 38 00 BC 89 1C FF 2F ......:..8...../
004053B0 72 46 03 E8 63 00 BD 5E 38 EB FB 68 D8 40 00 D8 rF..c..^8..h.@..
004053C0 D4 49 FB 06 78 58 43 77 05 4F E0 72 04 00 0E E4 .I..xXCw.O.r....
004053D0 99 B4 F6 07 24 09 4A FE 00 5A 18 B7 9B 9F C5 92 ....$.J..Z......
004053E0 3E E5 AD E0 77 68 14 F1 FF 62 A8 F0 03 00 09 51 >...wh...b.....Q
004053F0 39 F7 22 26 AA 31 35 C9 63 00 CF AC 54 D4 95 44 9."&.15.c...T..D
00405400 19 0E 87 37 00 CF F9 84 BD 89 7E 7C 3A 29 C3 17 ...7......~|:)..
00405410 BB 54 A0 5F 4C 0F 5C FF BE 45 B5 00 94 0C 4E 87 .T._L.\..E....N.
00405420 CC 11 80 36 28 00 54 39 9D 27 4D C5 1F 00 24 A4 ...6(.T9.'M...$.
00405430 12 B9 39 F4 3B AE 48 68 55 CF E2 CE 0A 3F 00 21 ..9.;.HhU....?.!
00405440 8F BF 04 FF 95 06 4E 08 DB B3 00 FB 6A 62 B5 00 ......N.....jb..
00405450 00 4A 92 ED 00 54 FF FF 72 F0 00 A0 00 7E D6 EF .J...T..r....~..
00405460 AD 9F F2 A5 98 68 4F 21 CA CF 67 1B 0C 68 35 DF .....hO!..g..h5.
00405470 24 80 9E 43 FF 5A EF 67 1A 43 15 F5 F3 4F D9 FD $..C.Z.g.C...O..
00405480 BD 0D A1 B6 5C FC 3D F4 DE 76 B0 A1 E0 3A 9C 40 ....\.=..v...:.@
00405490 00 E2 EA 00 00 00 00 14 7D 81 A7 FF 88 F4 66 0E ........}.....f.
004054A0 00 C8 F3 00 EE 6F 67 D1 01 65 F5 16 2D 00 C4 DB .....og..e..-...
004054B0 FF FF C0 7B 43 C7 00 B4 0C 4B 01 4B F9 0D 15 22 ...{C....K.K..."
004054C0 57 87 00 CA 0B C8 00 D2 00 17 FF 40 74 A0 00 FF W..........@t...
004054D0 FF F3 0F E9 60 00 9B BB AB 94 90 B6 00 B3 90 51 ....`..........Q
004054E0 85 B6 B3 B3 6F 00 86 00 C3 CB FF 00 80 95 65 19 ....o.........e.
004054F0 36 00 9E C8 D4 FE 00 00 10 E8 97 C9 FF A0 FD 00 6...............
00405500 A2 33 76 84 83 B0 FA B8 82 00 8E 1E D4 C4 D1 A4 .3v.............
00405510 10 9C 36 00 DA 6F 82 6B 00 37 03 F0 00 DC 61 88 ..6..o.k.7....a.
00405520 64 8D 00 8D 3C 47 AC 93 00 59 5A 00 0F C3 00 01 d...<G...YZ.....
00405530 ED 01 DF FF C2 4E D9 FF D4 D7 E0 05 00 3D 57 FF .....N.......=W.
00405540 17 2C 5D DB 0E AE 45 2D 6D 2C A3 C9 62 EA 71 F3 .,]...E-m,..b.q.
00405550 7D 0F CC 32 E8 3E 33 00 B8 74 6F 5A 00 93 3C ED }..2.>3..toZ..<.
00405560 06 4A 61 97 44 A2 3C 80 3B 64 4E 4A BC 41 A0 4E .Ja.D.<.;dNJ.A.N
00405570 A7 CC 4B 74 00 E9 01 90 4F FF 00 1C F0 B3 00 CC ..Kt....O.......
00405580 FA FF 9E E0 C1 04 CF 04 FE 84 6B 9F 00 84 B7 F6 ..........k.....
00405590 03 5B 64 F1 5B 38 DB A1 C2 FF 48 9D 07 07 2F C1 .[d.[8....H.../.
004055A0 70 A7 7C E5 B0 65 5A A2 A7 24 31 1C 00 70 00 58 p.|..eZ..$1..p.X
004055B0 DF BF 5C 68 43 E9 E0 CF 1C BA 10 BE 8A 58 DD E2 ..\hC........X..
004055C0 99 73 18 47 B2 DF 88 DF 0D 03 EE 94 03 FF 0C 40 .s.G...........@
004055D0 00 23 EC FD 9A A4 00 EF E6 DE 03 2C 00 16 B8 77 .#.........,...w
004055E0 00 02 DE C4 34 B5 FA A7 FD 00 F9 76 D6 16 FF 70 ....4......v...p
004055F0 6B 78 C8 1F 00 FF 20 C5 1B FF 00 8A 27 20 6E 75 kx.... .....' nu
00405600 DA 4B 77 25 31 61 00 FB 22 9A 1C F9 A7 64 FF F7 .Kw%1a.."....d..
00405610 7E 94 78 D7 00 00 F4 91 4E 06 E2 CC 00 AD E7 B7 ~.x.....N.......
00405620 00 EA FF 75 4D 00 FF 7B 00 A1 00 32 00 89 C7 34 ...uM..{...2...4
00405630 61 B9 85 0E 60 7E 00 70 34 F0 49 41 41 1F A0 1E a...`~.p4.IAA...
00405640 A8 42 9F 3D 61 1B 0C F1 0A 00 95 47 DA 1B 00 97 .B.=a......G....
00405650 2E FF 8D 20 AE FF 76 A8 B7 DF 99 00 1B 2C FE 79 ... ..v......,.y
00405660 04 09 23 4E 46 20 65 00 93 98 00 CC 00 03 00 E2 ..#NF e.........
00405670 4E BD BC 5D EC FF 25 47 00 09 81 D0 00 B1 44 5C N..]..%G......D\
00405680 48 40 10 FB BE 8A 00 FF A0 69 EB 0A 23 BD 79 3C H@.......i..#.y<
00405690 8C 2E 58 00 8B 89 94 D9 F8 A2 B9 92 A4 C6 FF 02 ..X.............
004056A0 00 87 A7 00 14 00 81 00 00 DC 20 79 97 00 00 91 .......... y....
004056B0 FD B3 79 6C 00 E1 DC EF C5 00 00 01 C8 41 51 2A ..yl.........AQ*
004056C0 AE 53 D9 FF AB 00 00 32 D3 29 23 A6 FF D6 8C 33 .S.....2.)#....3
004056D0 02 5B C7 0D 37 60 99 96 80 0D 00 CC 26 32 1D 4F .[..7`......&2.O
004056E0 32 00 AA 02 60 78 97 48 C3 5D 6F 00 3E 3B B4 E7 2...`x.H.]o.>;..
004056F0 E0 35 02 B4 00 9B 18 ED DF 08 87 7D 25 FF 75 DC .5.........}%.u.
00405700 0E 40 24 1E A1 3E 7B F8 99 20 F6 F0 69 92 00 A3 .@$..>{.. ..i...
00405710 8B 9D 10 03 9B 5D 80 00 4F 98 2C 9F 89 2F 8F 20 .....]..O.,../. 
00405720 0A 14 F7 78 97 40 C4 B6 00 8F 9F 97 00 52 17 FF ...x.@.......R..
00405730 FE 5E 95 22 FD 23 1D B6 00 00 CE 84 39 4B A7 00 .^.".#......9K..
00405740 DC 45 3A 12 6F 6B 62 09 81 FF 00 00 7F 7C 86 42 .E:.okb......|.B
00405750 40 AB 37 C3 98 85 02 05 00 6F 91 52 FE 06 E4 9C @.7......o.R....
00405760 49 26 00 00 C0 A9 86 00 5E 02 62 8C 23 8A 74 00 I&......^.b.#.t.
00405770 86 41 00 FF 00 BF 42 20 21 00 8A 00 BD 73 00 E4 .A....B !....s..
00405780 AD DD 1A FF 3B 6B 8F 1E E9 B3 87 ED 10 70 00 82 ....;k.......p..
00405790 C6 1C B7 FC F8 85 21 E6 8E BF 59 E6 44 2A FF 87 ......!...Y.D*..
004057A0 00 B1 C8 DA 33 00 59 04 0C 5A 10 13 83 31 87 CE ....3.Y..Z...1..
004057B0 34 4B FF E7 B0 00 DF 00 FC 62 A5 6C 7E 0D 05 D0 4K.......b.l~...
004057C0 D8 00 AA 87 D8 24 00 A3 67 40 9C FF AA 6D 8B EF .....$..g@...m..
004057D0 00 D5 00 C1 6C 88 29 FF 00 E0 D2 72 DE 71 9A 00 ....l.)....r.q..
004057E0 20 2C 41 60 40 97 1A 81 43 F1 CE 2E F1 2E 20 24  ,A`@...C..... $
004057F0 DA F0 00 00 9B 01 C2 D3 C4 14 1B 68 C0 83 00 5A ...........h...Z
00405800 6D 26 EC AB 72 28 88 FE 4B 91 E8 F2 00 1A 9E 89 m&..r(..K.......
00405810 60 00 00 B2 80 26 6D 40 4D D3 00 D1 90 59 C1 36 `....&m@M....Y.6
00405820 FA 97 0E 05 30 22 F6 00 F4 00 CA 01 68 C9 90 4D ....0"......h..M
00405830 FF 90 06 D0 D0 29 C0 95 4C 00 00 13 95 00 00 3F .....)..L......?
00405840 C1 D0 8C B9 FA 3D 00 3B 1C 00 0E 4E 75 2B 68 77 .....=.;...Nu+hw
00405850 E0 D3 FC E4 00 2B 10 04 44 CB 80 FF D6 FF F2 3A .....+..D......:
00405860 A5 8F 00 32 C3 3B 00 40 50 43 67 97 00 18 30 BB ...2.;.@PCg...0.
00405870 00 F4 CD 70 00 7E 00 46 28 20 8B 18 5E 8D 78 00 ...p.~.F( ..^.x.
00405880 F4 28 92 21 69 59 C6 00 FF 99 FF 76 70 D3 1A 8A .(.!iY.....vp...
00405890 A1 26 3F 9E 49 CC 19 4A D9 00 07 00 0A BF 04 C2 .&?.I..J........
004058A0 63 E1 86 94 19 9C DA AE 04 E9 2E DC AB E1 10 7B c..............{
004058B0 00 29 2C FF 14 52 BD E3 3C F3 FE 03 05 E6 FF 3A .),..R..<......:
004058C0 55 25 4E 5A BC 9A 08 00 C9 40 C5 C8 00 00 57 AB U%NZ.....@....W.
004058D0 FF 08 9E 8D 94 95 C0 F2 70 D6 41 F4 B7 0C 22 C5 ........p.A...".
004058E0 00 7C 00 C7 74 BE 71 6F 93 9C FF DB FF 36 61 B5 .|..t.qo.....6a.
004058F0 3C 9C 65 00 DC 5A D6 00 1C 8F B1 65 D9 C4 92 00 <.e..Z.....e....
00405900 7D 77 BC 96 D1 6F FA BB 67 60 77 0D B7 83 E1 67 }w...o..g`w....g
00405910 3F 01 00 9C A7 68 00 45 9A 33 AE AF FD C1 F4 C4 ?....h.E.3......
00405920 00 9E 2D 25 3A 4E 8C 00 5C 5E 8A E4 C1 CD 6C 53 ..-%:N..\^....lS
00405930 18 1C B0 BD 00 55 00 3E C6 77 80 2D 40 A4 D7 4B .....U.>.w.-@..K
00405940 00 1F 2C AD 7D 2F 03 25 00 78 69 0B D7 86 43 00 ..,.}/.%.xi...C.
00405950 F5 34 26 71 00 0D 13 B0 6F FD 97 09 03 C8 FC F2 .4&q....o.......
00405960 4E 4B F5 D0 4D BC 19 E0 52 51 E0 B7 0F 8C 58 01 NK..M...RQ....X.
00405970 ED 80 1A 8E D2 D2 4D 28 32 22 D0 BB 25 66 58 ED ......M(2"..%fX.
00405980 00 D3 00 00 95 8F 71 87 58 AB BA F7 DC 4D 6C FF ......q.X....Ml.
00405990 BF 11 F9 E0 55 C4 28 9B 1C 0A 83 2C FF C1 8C 77 ....U.(....,...w
004059A0 00 81 53 D0 6A 93 86 00 36 21 00 17 7C 00 BD ED ..S.j...6!..|...
004059B0 EC 00 FF 32 FF 10 CC 32 CF 31 65 DD 60 28 C1 F0 ...2...2.1e.`(..
004059C0 B0 D8 FF 3F 54 EA 3E 00 33 AD E2 02 43 2E 86 80 ...?T.>.3...C...
004059D0 14 81 9F 30 00 0A 82 00 38 AF 00 73 43 C1 5F 5A ...0....8..sC._Z
004059E0 36 88 27 00 37 E0 06 FF 96 52 17 00 00 9E A9 E2 6.'.7....R......
004059F0 20 37 34 3E A8 D7 B7 22 C2 C8 DC 1D 00 2A CE 40  74>...".....*.@
00405A00 F2 EB A6 46 00 BD EF 00 B7 FF 04 03 10 10 71 CE ...F..........q.
00405A10 00 26 72 DC 3A 09 30 50 44 00 31 C1 DC 60 E7 CA .&r.:.0PD.1..`..
00405A20 C4 9E F0 88 32 9E F4 00 CD 47 29 31 E5 F0 43 C0 ....2....G)1..C.
00405A30 FF FF C5 17 FF 5A DA 82 D7 EF FF 3B 1C B0 E8 23 .....Z.....;...#
00405A40 00 20 00 20 96 00 FF B4 E8 17 01 F3 00 DF 62 9D . . ..........b.
00405A50 E5 96 53 30 22 70 11 B4 50 D9 2D 86 00 EB 89 D1 ..S0"p..P.-.....
00405A60 DF 0E 18 C2 86 FF 00 60 00 0D A5 6F 85 10 11 00 .......`...o....
00405A70 50 6E A1 ED A0 BB 29 10 00 78 9F 60 61 FF 43 91 Pn....)..x.`a.C.
00405A80 6D E1 B2 F5 25 7E 25 11 00 FF 00 00 19 AB 78 72 m...%~%.......xr
00405A90 58 FF 00 08 FF 0A C5 27 DF 73 68 CB 57 7F 19 CC X......'.sh.W...
00405AA0 37 6F 00 FF 87 36 6F 00 00 2D 3F 47 81 CD 9B C0 7o...6o..-?G....
00405AB0 96 00 00 92 00 F9 87 BF 00 75 00 C2 42 39 F0 99 .........u..B9..
00405AC0 1C 62 9D 06 70 00 DC 30 97 63 11 08 E0 00 FF 97 .b..p..0.c......
00405AD0 11 3E 80 82 FE A9 57 E0 9B 00 06 CE 3F C8 B1 A8 .>....W.....?...
00405AE0 1A D4 80 0D 63 BF FF A5 60 32 66 B2 00 00 B1 7A ....c...`2f....z
00405AF0 29 E5 00 0A A7 30 DC 00 F6 F6 B3 00 9A B1 FF 52 )....0.........R
00405B00 16 DE CA F6 E9 11 C5 EC C6 00 AD 4C 7C FF 00 E0 ...........L|...
00405B10 C4 E2 B6 76 6A 78 4E 7E E2 8B C4 00 B9 5A 00 06 ...vjxN~.....Z..
00405B20 FC 91 36 D1 3F B7 00 90 9D 00 FF 67 32 21 0E 26 ..6.?......g2!.&
00405B30 20 44 DA AB 5F D3 31 4F 4F 70 00 72 FF C5 8F AE  D.._.1OOp.r....
00405B40 0E F1 00 B5 2B 85 C3 29 BB 4A 30 00 BC 9F B8 06 ....+..).J0.....
00405B50 00 28 D9 10 BC 13 84 FA 5E FF DF 9C 5A 00 00 1C .(......^...Z...
00405B60 02 F1 98 00 93 24 3D AC 5C 00 10 B1 81 00 3F B1 .....$=.\.....?.
00405B70 2D DD D7 C6 E4 8E CF BC 8D 43 AF 89 00 29 48 71 -........C...)Hq
00405B80 7F 00 92 00 00 19 60 CB 00 39 C8 FF EB 00 91 74 ......`..9.....t
00405B90 80 1B E0 BC 04 CC 98 27 0E 1A 8B F9 79 CE 00 87 .......'....y...
00405BA0 E5 E1 B7 54 B0 16 39 D7 AF 00 16 3F D0 00 7C 18 ...T..9....?..|.
00405BB0 67 C5 74 00 83 00 6C 8A 83 99 AC B0 3B 00 05 8B g.t...l.....;...
00405BC0 FF 10 DE 00 90 00 0B A5 E1 46 3D 14 80 00 00 B8 .........F=.....
00405BD0 00 1E 92 90 6B 37 48 68 5C 3A 9F 00 52 28 1C 58 ....k7Hh\:..R(.X
00405BE0 C1 12 12 47 17 06 82 00 91 C9 00 ED E8 3F 3F 72 ...G.........??r
00405BF0 5D 00 22 AB 02 00 03 45 11 81 AC 00 C0 96 17 FF ]."....E........
00405C00 4D 1C EF 32 0B 7B FF 9E C8 00 DC AE 4D 7B FE 07 M..2.{......M{..
00405C10 DF FB D8 88 54 00 00 1B 00 00 8E 19 38 00 7A 2C ....T.......8.z,
00405C20 C8 01 9C 3C 23 67 06 00 5F C4 1D 54 63 CB FF 35 ...<#g.._..Tc..5
00405C30 00 EA 1C A3 C7 92 28 5E 00 00 C9 FF 24 00 03 98 ......(^....$...
00405C40 17 FF FB 82 66 9B 64 4C BB 89 85 10 74 4D CF 96 ....f.dL....tM..
00405C50 BC E7 FF C2 4E 5D 6F 00 9C BD FF 65 B9 AE DD 0E ....N]o....e....
00405C60 37 A0 6A 82 00 5F C0 8D 8C FF 88 A7 43 49 88 0D 7.j.._......CI..
00405C70 E9 1B 39 00 F9 61 30 01 8E 63 00 00 F3 1D 64 90 ..9..a0..c....d.
00405C80 7A 52 5C FF B4 00 85 00 00 09 00 DE 00 FF 1E 9C zR\.............
00405C90 00 1B FC 30 FF E0 79 83 00 80 56 AF A2 2F BF 83 ...0..y...V../..
00405CA0 03 54 F0 FF 30 23 D5 00 9A 1D 80 08 28 81 3C 9F .T..0#......(.<.
00405CB0 04 B6 63 58 00 FB 1F 98 D8 0F E7 2E CD D5 DF 29 ..cX...........)
00405CC0 98 E1 63 FB 96 07 8D 82 1A 83 8A F8 95 1F C1 76 ..c............v
00405CD0 C1 D8 99 51 00 6E 73 41 D4 90 68 00 49 FF 02 73 ...Q.nsA..h.I..s
00405CE0 83 FC 00 E8 8A CA B7 89 BC 8B C4 51 FF CA FF EE ...........Q....
00405CF0 90 7F 89 3C 42 00 75 00 00 20 81 47 00 81 18 53 ...<B.u.. .G...S
00405D00 FB 23 62 83 9D F9 A6 FF 3E A2 7F 00 F4 40 12 84 .#b.....>....@..
00405D10 08 4B 00 A1 20 00 FB 64 BF 08 93 01 20 05 E3 94 .K.. ..d.... ...
00405D20 00 42 E8 CB F4 FF 25 62 CE 74 0F 69 AB CD 28 00 .B....%b.t.i..(.
00405D30 F1 7A 18 00 A0 39 B8 39 D0 73 91 06 74 FF A8 90 .z...9.9.s..t...
00405D40 80 DD 40 CE FD D1 B1 CF 29 E7 BA FF FC 64 98 17 ..@.....)....d..
00405D50 4F A6 71 89 35 AB 66 B5 30 5F 21 B0 00 65 A0 09 O.q.5.f.0_!..e..
00405D60 80 88 8D 06 D9 63 E3 BE 00 29 E1 CA 09 72 BD 0D .....c...)...r..
00405D70 13 16 03 C2 4A F8 42 C1 E6 7E 85 00 3A 2C 10 00 ....J.B..~..:,..
00405D80 C5 7F 12 28 02 60 52 1B FF 2F 1E FA 8B 8C 18 34 ...(.`R../.....4
00405D90 66 39 0D 38 C5 41 FF 19 F7 73 5C E5 84 00 B9 40 f9.8.A...s\....@
00405DA0 00 00 81 1B 6E F3 B6 B2 D0 4B A0 A7 83 5C 16 3C ....n....K...\.<
00405DB0 00 00 41 3C 14 FC FF 6F E3 A3 CF D9 1B BB 5E FD ..A<...o......^.
00405DC0 14 C6 00 78 B3 87 57 00 D9 E0 8B A3 0F 90 56 3F ...x..W.......V?
00405DD0 8E F8 06 25 4A FD 35 00 F8 37 13 91 D1 59 84 0B ...%J.5..7...Y..
00405DE0 BB C3 A3 1E 00 67 EC C6 0C 6C E3 00 EB 2A 83 4A .....g...l...*.J
00405DF0 66 15 2E 0F 87 7F FF D4 CE B8 C3 3A 00 00 00 89 f..........:....
00405E00 00 3F 11 00 A4 3F 22 00 25 B6 39 2A FB CA 73 AA .?...?".%.9*..s.
00405E10 8F 8D DA 88 04 00 1F 9A 00 00 DE A2 D9 DB 9F 11 ................
00405E20 00 80 41 3D 01 C2 9E 88 09 62 00 00 C2 E9 5E E9 ..A=.....b....^.
00405E30 DC CB 7D 7C 03 A3 3E 35 31 FF E8 63 8C 00 00 5B ..}|..>51..c...[
00405E40 F8 00 78 B7 74 D6 00 54 00 8C 00 87 00 5A 00 E7 ..x.t..T.....Z..
00405E50 C7 9C 00 00 40 8B AC 83 00 F8 AE 11 0E 00 28 81 ....@.........(.
00405E60 B8 3A C9 6E A9 18 00 7B A5 DF 09 A2 78 81 EF B5 .:.n...{....x...
00405E70 CB C9 D6 7D 5A 6F 7C 44 F6 14 F8 BF F1 F3 D3 89 ...}Zo|D........
00405E80 C6 FB A2 00 A8 B1 E2 E6 42 0B DA ED FF 00 8D F4 ........B.......
00405E90 18 20 C7 85 00 69 2D 86 67 4E C7 00 00 00 3C 83 . ...i-.gN....<.
00405EA0 00 B0 9F 03 00 FF EA 11 0A 92 82 1D A9 A0 C5 01 ................
00405EB0 58 05 00 25 C1 31 47 09 7E AA 32 FF FF 07 00 1F X..%.1G.~.2.....
00405EC0 49 1C 47 15 CC C3 7F F7 80 FD 71 AC 15 E7 F6 B1 I.G.......q.....
00405ED0 49 00 1C D8 C9 80 E7 DF 02 23 CB 70 08 82 35 1C I........#.p..5.
00405EE0 00 9A D2 BA 63 57 8E 0A 00 C0 53 E9 EF C7 D3 7B ....cW....S....{
00405EF0 40 B2 00 02 50 6C 22 82 22 00 06 08 FF 03 62 00 @...Pl".".....b.
00405F00 53 00 65 BD B9 0F 52 46 00 16 00 E0 38 FF 03 D2 S.e...RF....8...
00405F10 56 D7 76 61 D9 ED 90 8A 18 62 AB 08 9E 6C EE E4 V.va.....b...l..
00405F20 BD 00 09 11 71 3D 00 A0 00 FB 00 D3 0F 00 B5 C7 ....q=..........
00405F30 04 77 51 ED 25 7A 1D 70 E9 BF 00 0A 10 70 CA 02 .wQ.%z.p.....p..
00405F40 99 F3 70 B1 5D 28 00 00 E0 F7 79 18 9F 3D 00 FF ..p.](....y..=..
00405F50 30 FD 5F 75 9B ED 93 71 5A E0 10 A8 EE 49 F1 00 0._u...qZ....I..
00405F60 00 C0 FF 0C 0A 00 FF 82 2E D5 6A 57 21 00 F2 1B ..........jW!...
00405F70 93 04 E7 FF C2 FB D0 A4 FA 57 02 D2 FF 00 00 56 .........W.....V
00405F80 0B C3 C9 C5 00 E0 3C 87 6D F6 9F 3B 2C 00 74 2B ......<.m..;,.t+
00405F90 20 E2 54 74 B3 F1 58 0C 3E 87 44 00 00 60 9F 00  .Tt..X.>.D..`..
00405FA0 4D 03 C7 00 00 33 89 28 89 FA 3A 47 FF 04 75 CA M....3.(..:G..u.
00405FB0 9E 00 00 4D 72 B4 52 C2 B4 C1 46 60 E5 00 AF 88 ...Mr.R...F`....
00405FC0 41 A0 D5 C3 2D E1 C7 7E 6A 3E 00 B8 21 D9 7C 0E A...-..~j>..!.|.
00405FD0 9F 3E 00 A1 A3 00 41 00 AB 82 9C F2 70 00 58 00 .>....A.....p.X.
00405FE0 18 FF 45 D8 FF EB 90 5C FF 7E BF 22 6B 22 C7 91 ..E....\.~."k"..
00405FF0 82 2E 00 E1 CD F4 00 72 00 00 1A 0D 40 81 90 E1 .......r....@...
00406000 2E FF BE F8 F7 6E 93 06 40 EF 00 FF 1F 00 CE 00 .....n..@.......
00406010 A7 6E FF E3 4A EF 80 46 C4 EF 00 BA 68 19 E0 E2 .n..J..F....h...
00406020 00 B9 EC E3 A6 FB 5C 02 FB FF 82 FF 72 43 00 6E ......\.....rC.n
00406030 00 3F C1 87 1D C3 F9 06 03 92 D1 A0 D3 6C 7C 69 .?...........l|i
00406040 B5 FF 50 A0 EE 43 A5 6D AC 97 00 E8 E7 00 E5 7F ..P..C.m........
00406050 4F CF 60 5C 64 4D FF C7 00 C3 00 04 E6 00 9A 99 O.`\dM..........
00406060 AE FF 8B 00 2E 00 22 56 27 05 FF 80 08 B9 A1 51 ......"V'......Q
00406070 46 C8 8E 26 93 DA E8 F5 16 CE E7 8E 0F 5A 78 05 F..&.........Zx.
00406080 00 5E 00 00 FC DE 03 00 DB 00 8F FF 7A FB 2C 00 .^..........z.,.
00406090 2D 80 4C 92 C6 F8 91 68 93 00 F0 04 00 35 27 E0 -.L....h.....5'.
004060A0 6C 00 1D 62 87 18 CE 79 5A 1E 6C C9 C7 22 0A 24 l..b...yZ.l..".$
004060B0 28 00 19 1B AB 5C 3A 0F 08 59 A4 A5 F3 74 9A 81 (....\:..Y...t..
004060C0 F8 84 82 00 00 00 C6 D1 8E EE 60 45 04 00 9E 3A ..........`E...:
004060D0 71 D3 C4 30 15 01 63 00 E6 B2 5F 1D D1 74 7F 3B q..0..c..._..t.;
004060E0 C1 15 C3 F9 3B 50 1D 5E FF 8A F3 00 00 31 31 0A ....;P.^.....11.
004060F0 40 AA 91 00 C5 89 B4 80 EF 52 AF 81 82 6C 63 F6 @........R...lc.
00406100 6C BC 91 6C D0 08 D5 02 89 F5 96 33 5A 14 C5 98 l..l.......3Z...
00406110 98 C0 6F 7A 00 44 83 00 05 00 D9 64 88 D4 3C 44 ..oz.D.....d..<D
00406120 A9 17 37 9B 31 71 06 D0 7A 23 00 00 63 99 42 86 ..7.1q..z#..c.B.
00406130 9D 27 A0 72 00 C6 DD 99 07 3A 67 A4 B5 FF D1 00 .'.r.....:g.....
00406140 1A 59 1B 27 C4 90 37 FF 08 4C 6E BF 6A 8B D0 5A .Y.'..7..Ln.j..Z
00406150 F5 DF FF 2E 71 30 37 8F 00 95 C2 AF C8 D4 06 00 ....q07.........
00406160 8E AB A0 32 08 E7 FF 9F FF 00 20 BA 77 B4 57 DD ...2...... .w.W.
00406170 AA 5D 82 08 10 08 87 00 81 00 00 B0 07 86 5D 53 .]............]S
00406180 00 86 B7 53 85 B2 F3 80 3A 00 CD 00 53 D8 06 81 ...S....:...S...
00406190 0E FC 6B 00 9F E7 4A 00 20 25 E1 00 6C 09 F7 5C ..k...J. %..l..\
004061A0 F6 21 8C 05 00 36 6C FC B7 B6 15 30 7E 00 39 6F .!...6l....0~.9o
004061B0 00 00 E3 C6 31 7E 7F A5 46 FD 58 D4 00 00 F6 9A ....1~..F.X.....
004061C0 FF AD E3 BC 00 CF 16 E1 38 2D 08 96 FF B5 BD 00 ........8-......
004061D0 FF E0 00 0D 98 7D 00 EB 00 20 FB C1 B8 63 72 C4 .....}... ...cr.
004061E0 80 E3 B1 86 32 FF D9 12 BD C9 63 DA F8 A5 B1 83 ....2.....c.....
004061F0 00 AF C1 28 E3 3A FF 6F FD C1 1D 00 00 00 E7 F6 ...(.:.o........
00406200 16 AB 00 8D D4 CA 6C 84 30 14 F0 A5 B3 2B ED 46 ......l.0....+.F
00406210 28 00 50 A6 94 00 A9 26 00 19 55 99 E0 00 80 F2 (.P....&..U.....
00406220 3E 00 BA 49 39 E1 00 3C 20 24 0A 76 61 00 46 00 >..I9..< $.va.F.
00406230 B2 A0 F9 5B 73 26 00 0D 00 E2 3B A3 C5 F1 39 62 ...[s&....;...9b
00406240 01 2C A9 37 AD 6F 97 4F DB DD F5 EF 90 06 EE BB .,.7.o.O........
00406250 A0 27 FF C6 00 18 EA FF 67 37 0C 34 0B 23 42 FF .'......g7.4.#B.
00406260 99 00 27 8C 39 00 A1 C0 00 FF 00 1F 9E D7 08 FF ..'.9...........
00406270 EC 79 00 00 EF 00 8F 05 00 00 13 12 E2 8E 27 00 .y............'.
00406280 84 D9 12 FF 7F 06 69 75 88 B4 E1 20 C2 46 4C 00 ......iu... .FL.
00406290 6D FF 81 EB 55 79 00 24 00 35 F0 71 27 1B 4C 33 m...Uy.$.5.q'.L3
004062A0 F8 DE A4 F3 00 00 D5 00 1F C7 47 F6 19 87 A7 79 ..........G....y
004062B0 00 BF 00 06 D3 78 00 1B 72 3E 00 FA FE 04 7B BB .....x..r>....{.
004062C0 00 DA 00 FF CE 98 73 1F F1 86 1C 0F FF 38 FF E4 ......s......8..
004062D0 CF 40 1A 0B 09 51 13 01 9E C4 44 8A 02 00 00 64 .@...Q....D....d
004062E0 FF C1 7C 46 00 00 00 00 00 C5 A2 F4 00 FC 00 24 ..|F...........$
004062F0 DB 25 3C 7B 40 E5 82 DE 41 42 5E BE 2F 00 E9 71 .%<{@...AB^./..q
00406300 D4 C4 28 49 80 1F 00 F8 6D 07 3B 18 05 39 4B 3A ..(I....m.;..9K:
00406310 61 71 7C 23 00 BB E6 22 00 32 00 20 F6 00 00 09 aq|#...".2. ....
00406320 83 DD 54 57 72 2C 00 68 18 4B B9 00 2A 00 00 D9 ..TWr,.h.K..*...
00406330 4F AE 5F 55 00 F1 00 A3 72 00 00 BF 0A FF 46 51 O._U....r.....FQ
00406340 EA 29 29 00 C7 4C DB 7B 21 5C 9A 30 A0 7D 60 DF .))..L.{!\.0.}`.
00406350 8D 11 2D 00 02 88 C5 77 00 A7 29 9C 4F E6 4C FD ..-....w..).O.L.
00406360 96 40 61 67 2F 1B 10 3A FF ED 00 7F D0 39 7B 00 .@ag/..:.....9{.
00406370 60 60 86 09 F3 8A 3D 00 00 7A 10 92 8B 0D 07 B6 ``....=..z......
00406380 A0 19 00 94 01 7E 8B 90 82 1D 1D 00 53 B9 00 51 .....~......S..Q
00406390 41 FF FD 4B 00 4A 84 00 00 9E FC 00 51 C1 32 A1 A..K.J......Q.2.
004063A0 09 CC 00 04 C0 F8 42 00 FB 00 DC 02 7F 0C 03 FF ......B.........
004063B0 A1 72 14 00 00 18 AE 3C B5 7C 91 31 FF EC 50 68 .r.....<.|.1..Ph
004063C0 AE FD EF 36 59 51 8D EF AC C3 A4 41 AF 92 B3 95 ...6YQ.....A....
004063D0 1C ED D7 1E E3 20 F6 00 AD 6F 61 62 C5 36 8F E6 ..... ...oab.6..
004063E0 00 60 93 94 61 75 0C 1C EF FF 97 00 C1 EF 48 ED .`..au........H.
004063F0 C9 F6 FF D9 DE BD 00 00 C8 B5 A6 DB 01 A5 5F AF .............._.
00406400 00 25 81 73 25 4B 9D 07 00 53 0E A0 00 00 7E BB .%.s%K...S....~.
00406410 00 9E F8 C2 1A DA E7 55 48 7C 08 27 00 69 A3 3D .......UH|.'.i.=
00406420 00 94 C3 2D 00 B6 99 00 3E 8C 89 95 2E 8F 14 02 ...-....>.......
00406430 FD 04 6E D6 2C B0 C9 45 1A 00 90 55 02 B0 C1 C7 ..n.,..E...U....
00406440 0F 0F 3E 96 03 01 00 28 0B 00 00 BE A4 2D 59 08 ..>....(.....-Y.
00406450 06 E8 D0 F4 6E AA 67 9C D6 12 37 9C F7 3C 58 00 ....n.g...7..<X.
00406460 77 65 1C FF 00 6F E7 A1 95 53 53 99 49 EA 7F 85 we...o...SS.I...
00406470 4F 03 4D 00 5C 00 FC 7B 42 1F 63 BE 00 DD 7B FD O.M.\..{B.c...{.
00406480 A9 00 6D 09 D9 29 00 D3 FF 2D 71 05 7D 62 0E 00 ..m..)...-q.}b..
00406490 43 FF C0 79 05 BB 72 42 00 9A E8 22 B4 43 29 F8 C..y..rB...".C).
004064A0 DC 00 00 BC F1 42 28 EA 1C 8D CA D8 AE 00 03 00 .....B(.........
004064B0 E5 73 78 54 70 9D 77 00 00 3F 45 13 BF C0 83 00 .sxTp.w..?E.....
004064C0 00 2E 56 53 40 F4 92 85 BF 26 5B 00 00 FD FF F1 ..VS@....&[.....
004064D0 00 C3 83 00 47 8E 8A 4C 32 FE B6 5B 00 00 EE D3 ....G..L2..[....
004064E0 DF F6 75 C2 01 6A AA 26 00 E9 08 BD AC F9 90 B4 ..u..j.&........
004064F0 61 C2 00 46 20 BE 00 B0 2A 71 6C E0 00 A3 00 78 a..F ...*ql....x
00406500 0B 1C D3 56 FF B1 B5 FA CC 00 FF 00 AB 3D FA E2 ...V.........=..
00406510 3D F0 B0 CC 63 2B 00 00 59 AD 24 30 31 45 39 7E =...c+..Y.$01E9~
00406520 43 C6 AB B0 C9 29 FF 31 C7 34 01 0D 7D 4D 71 00 C....).1.4..}Mq.
00406530 2C 7A 5E DF 3A 00 00 00 B5 4D 64 7B F3 4D FF 11 ,z^.:....Md{.M..
00406540 07 8E 09 62 3D 14 00 08 F8 A4 00 74 FF 35 29 1F ...b=......t.5).
00406550 DD 7C 8B 8F A9 5D C5 91 04 00 8C 90 00 33 17 5A .|...].......3.Z
00406560 F1 88 F8 60 A9 00 F3 D7 53 F5 4C 07 37 86 BA 00 ...`....S.L.7...
00406570 33 F7 00 00 CD 10 10 8F B1 B4 BD 00 09 3B 92 3B 3............;.;
00406580 BC AF 00 00 1E 75 19 00 92 00 05 E6 E3 8F 23 E1 .....u........#.
00406590 6D E2 DF 20 62 3A 18 FE C1 EA FD 7B 37 F4 1E 5C m.. b:.....{7..\
004065A0 15 40 36 CD FC DE 50 FF F0 FF D0 6C 14 18 FF D6 .@6...P....l....
004065B0 5F 00 00 E8 9D F3 B7 C1 38 00 70 AB 09 0B 43 4D _.......8.p...CM
004065C0 99 B4 B7 00 00 42 FE FF 99 19 7F 54 D1 9A 00 8D .....B.....T....
004065D0 BA 37 03 57 00 C4 8C 5A D4 00 80 E6 00 45 08 CF .7.W...Z.....E..
004065E0 00 F8 9A 93 1F 56 5C ED E3 38 48 8B 8E 0D BB 41 .....V\..8H....A
004065F0 31 B8 00 77 E8 F3 07 18 3B F0 73 46 0A 63 67 26 1..w....;.sF.cg&
00406600 00 00 00 00 00 00 00 00 00 00 00 00 00 00 00 00 ................
00406610 00 00 00 00 00 00 00 00 00 00 00 00 00 00 00 00 ................
00406620 00 00 00 00 00 00 00 00 00 00 00 00 00 00 00 00 ................
00406630 00 00 00 00 00 00 00 00 00 00 00 00 00 00 00 00 ................
00406640 00 00 00 00 00 00 00 00 00 00 00 00 00 00 00 00 ................
00406650 00 00 00 00 00 00 00 00 00 00 00 00 00 00 00 00 ................
00406660 00 00 00 00 00 00 00 00 00 00 00 00 00 00 00 00 ................
00406670 00 00 00 00 00 00 00 00 00 00 00 00 00 00 00 00 ................
00406680 00 00 00 00 00 00 00 00 00 00 00 00 00 00 00 00 ................
00406690 00 00 00 00 00 00 00 00 00 00 00 00 00 00 00 00 ................
004066A0 00 00 00 00 00 00 00 00 00 00 00 00 00 00 00 00 ................
004066B0 00 00 00 00 00 00 00 00 00 00 00 00 00 00 00 00 ................
004066C0 00 00 00 00 00 00 00 00 00 00 00 00 00 00 00 00 ................
004066D0 00 00 00 00 00 00 00 00 00 00 00 00 00 00 00 00 ................
004066E0 00 00 00 00 00 00 00 00 00 00 00 00 00 00 00 00 ................
004066F0 00 00 00 00 00 00 00 00 00 00 00 00 00 00 00 00 ................
00406700 00 00 00 00 00 00 00 00 00 00 00 00 00 00 00 00 ................
00406710 00 00 00 00 00 00 00 00 00 00 00 00 00 00 00 00 ................
00406720 00 00 00 00 00 00 00 00 00 00 00 00 00 00 00 00 ................
00406730 00 00 00 00 00 00 00 00 00 00 00 00 00 00 00 00 ................
00406740 00 00 00 00 00 00 00 00 00 00 00 00 00 00 00 00 ................
00406750 00 00 00 00 00 00 00 00 00 00 00 00 00 00 00 00 ................
00406760 00 00 00 00 00 00 00 00 00 00 00 00 00 00 00 00 ................
00406770 00 00 00 00 00 00 00 00 00 00 00 00 00 00 00 00 ................
00406780 00 00 00 00 00 00 00 00 00 00 00 00 00 00 00 00 ................
00406790 00 00 00 00 00 00 00 00 00 00 00 00 00 00 00 00 ................
004067A0 00 00 00 00 00 00 00 00 00 00 00 00 00 00 00 00 ................
004067B0 00 00 00 00 00 00 00 00 00 00 00 00 00 00 00 00 ................
004067C0 00 00 00 00 00 00 00 00 00 00 00 00 00 00 00 00 ................
004067D0 00 00 00 00 00 00 00 00 00 00 00 00 00 00 00 00 ................
004067E0 00 00 00 00 00 00 00 00 00 00 00 00 00 00 00 00 ................
004067F0 00 00 00 00 00 00 00 00 00 00 00 00 00 00 00 00 ................
00406800 00 00 00 00 00 00 00 00 00 00 00 00 00 00 00 00 ................
00406810 00 00 00 00 00 00 00 00 00 00 00 00 00 00 00 00 ................
00406820 00 00 00 00 00 00 00 00 00 00 00 00 00 00 00 00 ................
00406830 00 00 00 00 00 00 00 00 00 00 00 00 00 00 00 00 ................
00406840 00 00 00 00 00 00 00 00 00 00 00 00 00 00 00 00 ................
00406850 00 00 00 00 00 00 00 00 00 00 00 00 00 00 00 00 ................
00406860 00 00 00 00 00 00 00 00 00 00 00 00 00 00 00 00 ................
00406870 00 00 00 00 00 00 00 00 00 00 00 00 00 00 00 00 ................
00406880 00 00 00 00 00 00 00 00 00 00 00 00 00 00 00 00 ................
00406890 00 00 00 00 00 00 00 00 00 00 00 00 00 00 00 00 ................
004068A0 00 00 00 00 00 00 00 00 00 00 00 00 00 00 00 00 ................
004068B0 00 00 00 00 00 00 00 00 00 00 00 00 00 00 00 00 ................
004068C0 00 00 00 00 00 00 00 00 00 00 00 00 00 00 00 00 ................
004068D0 00 00 00 00 00 00 00 00 00 00 00 00 00 00 00 00 ................
004068E0 00 00 00 00 00 00 00 00 00 00 00 00 00 00 00 00 ................
004068F0 00 00 00 00 00 00 00 00 00 00 00 00 00 00 00 00 ................
00406900 00 00 00 00 00 00 00 00 00 00 00 00 00 00 00 00 ................
00406910 00 00 00 00 00 00 00 00 00 00 00 00 00 00 00 00 ................
00406920 00 00 00 00 00 00 00 00 00 00 00 00 00 00 00 00 ................
00406930 00 00 00 00 00 00 00 00 00 00 00 00 00 00 00 00 ................
00406940 00 00 00 00 00 00 00 00 00 00 00 00 00 00 00 00 ................
00406950 00 00 00 00 00 00 00 00 00 00 00 00 00 00 00 00 ................
00406960 00 00 00 00 00 00 00 00 00 00 00 00 00 00 00 00 ................
00406970 00 00 00 00 00 00 00 00 00 00 00 00 00 00 00 00 ................
00406980 00 00 00 00 00 00 00 00 00 00 00 00 00 00 00 00 ................
00406990 00 00 00 00 00 00 00 00 00 00 00 00 00 00 00 00 ................
004069A0 00 00 00 00 00 00 00 00 00 00 00 00 00 00 00 00 ................
004069B0 00 00 00 00 00 00 00 00 00 00 00 00 00 00 00 00 ................
004069C0 00 00 00 00 00 00 00 00 00 00 00 00 00 00 00 00 ................
004069D0 00 00 00 00 00 00 00 00 00 00 00 00 00 00 00 00 ................
004069E0 00 00 00 00 00 00 00 00 00 00 00 00 00 00 00 00 ................
004069F0 00 00 00 00 00 00 00 00 00 00 00 00 00 00 00 00 ................
00406A00 00 00 00 00 00 00 00 00 00 00 00 00 00 00 00 00 ................
00406A10 00 00 00 00 00 00 00 00 00 00 00 00 00 00 00 00 ................
00406A20 00 00 00 00 00 00 00 00 00 00 00 00 00 00 00 00 ................
00406A30 00 00 00 00 00 00 00 00 00 00 00 00 00 00 00 00 ................
00406A40 00 00 00 00 00 00 00 00 00 00 00 00 00 00 00 00 ................
00406A50 00 00 00 00 00 00 00 00 00 00 00 00 00 00 00 00 ................
00406A60 00 00 00 00 00 00 00 00 00 00 00 00 00 00 00 00 ................
00406A70 00 00 00 00 00 00 00 00 00 00 00 00 00 00 00 00 ................
00406A80 00 00 00 00 00 00 00 00 00 00 00 00 00 00 00 00 ................
00406A90 00 00 00 00 00 00 00 00 00 00 00 00 00 00 00 00 ................
00406AA0 00 00 00 00 00 00 00 00 00 00 00 00 00 00 00 00 ................
00406AB0 00 00 00 00 00 00 00 00 00 00 00 00 00 00 00 00 ................
00406AC0 00 00 00 00 00 00 00 00 00 00 00 00 00 00 00 00 ................
00406AD0 00 00 00 00 00 00 00 00 00 00 00 00 00 00 00 00 ................
00406AE0 00 00 00 00 00 00 00 00 00 00 00 00 00 00 00 00 ................
00406AF0 00 00 00 00 00 00 00 00 00 00 00 00 00 00 00 00 ................
00406B00 00 00 00 00 00 00 00 00 00 00 00 00 00 00 00 00 ................
00406B10 00 00 00 00 00 00 00 00 00 00 00 00 00 00 00 00 ................
00406B20 00 00 00 00 00 00 00 00 00 00 00 00 00 00 00 00 ................
00406B30 00 00 00 00 00 00 00 00 00 00 00 00 00 00 00 00 ................
00406B40 00 00 00 00 00 00 00 00 00 00 00 00 00 00 00 00 ................
00406B50 00 00 00 00 00 00 00 00 00 00 00 00 00 00 00 00 ................
00406B60 00 00 00 00 00 00 00 00 00 00 00 00 00 00 00 00 ................
00406B70 00 00 00 00 00 00 00 00 00 00 00 00 00 00 00 00 ................
00406B80 00 00 00 00 00 00 00 00 00 00 00 00 00 00 00 00 ................
00406B90 00 00 00 00 00 00 00 00 00 00 00 00 00 00 00 00 ................
00406BA0 00 00 00 00 00 00 00 00 00 00 00 00 00 00 00 00 ................
00406BB0 00 00 00 00 00 00 00 00 00 00 00 00 00 00 00 00 ................
00406BC0 00 00 00 00 00 00 00 00 00 00 00 00 00 00 00 00 ................
00406BD0 00 00 00 00 00 00 00 00 00 00 00 00 00 00 00 00 ................
00406BE0 00 00 00 00 00 00 00 00 00 00 00 00 00 00 00 00 ................
00406BF0 00 00 00 00 00 00 00 00 00 00 00 00 00 00 00 00 ................
00406C00 00 00 00 00 00 00 00 00 00 00 00 00 00 00 00 00 ................
00406C10 00 00 00 00 00 00 00 00 00 00 00 00 00 00 00 00 ................
00406C20 00 00 00 00 00 00 00 00 00 00 00 00 00 00 00 00 ................
00406C30 00 00 00 00 00 00 00 00 00 00 00 00 00 00 00 00 ................
00406C40 00 00 00 00 00 00 00 00 00 00 00 00 00 00 00 00 ................
00406C50 00 00 00 00 00 00 00 00 00 00 00 00 00 00 00 00 ................
00406C60 00 00 00 00 00 00 00 00 00 00 00 00 00 00 00 00 ................
00406C70 00 00 00 00 00 00 00 00 00 00 00 00 00 00 00 00 ................
00406C80 00 00 00 00 00 00 00 00 00 00 00 00 00 00 00 00 ................
00406C90 00 00 00 00 00 00 00 00 00 00 00 00 00 00 00 00 ................
00406CA0 00 00 00 00 00 00 00 00 00 00 00 00 00 00 00 00 ................
00406CB0 00 00 00 00 00 00 00 00 00 00 00 00 00 00 00 00 ................
00406CC0 00 00 00 00 00 00 00 00 00 00 00 00 00 00 00 00 ................
00406CD0 00 00 00 00 00 00 00 00 00 00 00 00 00 00 00 00 ................
00406CE0 00 00 00 00 00 00 00 00 00 00 00 00 00 00 00 00 ................
00406CF0 00 00 00 00 00 00 00 00 00 00 00 00 00 00 00 00 ................
00406D00 00 00 00 00 00 00 00 00 00 00 00 00 00 00 00 00 ................
00406D10 00 00 00 00 00 00 00 00 00 00 00 00 00 00 00 00 ................
00406D20 00 00 00 00 00 00 00 00 00 00 00 00 00 00 00 00 ................
00406D30 00 00 00 00 00 00 00 00 00 00 00 00 00 00 00 00 ................
00406D40 00 00 00 00 00 00 00 00 00 00 00 00 00 00 00 00 ................
00406D50 00 00 00 00 00 00 00 00 00 00 00 00 00 00 00 00 ................
00406D60 00 00 00 00 00 00 00 00 00 00 00 00 00 00 00 00 ................
00406D70 00 00 00 00 00 00 00 00 00 00 00 00 00 00 00 00 ................
00406D80 00 00 00 00 00 00 00 00 00 00 00 00 00 00 00 00 ................
00406D90 00 00 00 00 00 00 00 00 00 00 00 00 00 00 00 00 ................
00406DA0 00 00 00 00 00 00 00 00 00 00 00 00 00 00 00 00 ................
00406DB0 00 00 00 00 00 00 00 00 00 00 00 00 00 00 00 00 ................
00406DC0 00 00 00 00 00 00 00 00 00 00 00 00 00 00 00 00 ................
00406DD0 00 00 00 00 00 00 00 00 00 00 00 00 00 00 00 00 ................
00406DE0 00 00 00 00 00 00 00 00 00 00 00 00 00 00 00 00 ................
00406DF0 00 00 00 00 00 00 00 00 00 00 00 00 00 00 00 00 ................
00406E00 00 00 00 00 00 00 00 00 00 00 00 00 00 00 00 00 ................
00406E10 00 00 00 00 00 00 00 00 00 00 00 00 00 00 00 00 ................
00406E20 00 00 00 00 00 00 00 00 00 00 00 00 00 00 00 00 ................
00406E30 00 00 00 00 00 00 00 00 00 00 00 00 00 00 00 00 ................
00406E40 00 00 00 00 00 00 00 00 00 00 00 00 00 00 00 00 ................
00406E50 00 00 00 00 00 00 00 00 00 00 00 00 00 00 00 00 ................
00406E60 00 00 00 00 00 00 00 00 00 00 00 00 00 00 00 00 ................
00406E70 00 00 00 00 00 00 00 00 00 00 00 00 00 00 00 00 ................
00406E80 00 00 00 00 00 00 00 00 00 00 00 00 00 00 00 00 ................
00406E90 00 00 00 00 00 00 00 00 00 00 00 00 00 00 00 00 ................
00406EA0 00 00 00 00 00 00 00 00 00 00 00 00 00 00 00 00 ................
00406EB0 00 00 00 00 00 00 00 00 00 00 00 00 00 00 00 00 ................
00406EC0 00 00 00 00 00 00 00 00 00 00 00 00 00 00 00 00 ................
00406ED0 00 00 00 00 00 00 00 00 00 00 00 00 00 00 00 00 ................
00406EE0 00 00 00 00 00 00 00 00 00 00 00 00 00 00 00 00 ................
00406EF0 00 00 00 00 00 00 00 00 00 00 00 00 00 00 00 00 ................
00406F00 00 00 00 00 00 00 00 00 00 00 00 00 00 00 00 00 ................
00406F10 00 00 00 00 00 00 00 00 00 00 00 00 00 00 00 00 ................
00406F20 00 00 00 00 00 00 00 00 00 00 00 00 00 00 00 00 ................
00406F30 00 00 00 00 00 00 00 00 00 00 00 00 00 00 00 00 ................
00406F40 00 00 00 00 00 00 00 00 00 00 00 00 00 00 00 00 ................
00406F50 00 00 00 00 00 00 00 00 00 00 00 00 00 00 00 00 ................
00406F60 00 00 00 00 00 00 00 00 00 00 00 00 00 00 00 00 ................
00406F70 00 00 00 00 00 00 00 00 00 00 00 00 00 00 00 00 ................
00406F80 00 00 00 00 00 00 00 00 00 00 00 00 00 00 00 00 ................
00406F90 00 00 00 00 00 00 00 00 00 00 00 00 00 00 00 00 ................
00406FA0 00 00 00 00 00 00 00 00 00 00 00 00 00 00 00 00 ................
00406FB0 00 00 00 00 00 00 00 00 00 00 00 00 00 00 00 00 ................
00406FC0 00 00 00 00 00 00 00 00 00 00 00 00 00 00 00 00 ................
00406FD0 00 00 00 00 00 00 00 00 00 00 00 00 00 00 00 00 ................
00406FE0 00 00 00 00 00 00 00 00 00 00 00 00 00 00 00 00 ................
00406FF0 00 00 00 00 00 00 00 00 00 00 00 00 00 00 00 00 ................
00407000 00 00 00 00 00 00 00 00 00 00 00 00 00 00 00 00 ................
00407010 00 00 00 00 00 00 00 00 00 00 00 00 00 00 00 00 ................
00407020 00 00 00 00 00 00 00 00 00 00 00 00 00 00 00 00 ................
00407030 00 00 00 00 00 00 00 00 00 00 00 00 00 00 00 00 ................
00407040 00 00 00 00 00 00 00 00 00 00 00 00 00 00 00 00 ................
00407050 00 00 00 00 00 00 00 00 00 00 00 00 00 00 00 00 ................
00407060 00 00 00 00 00 00 00 00 00 00 00 00 00 00 00 00 ................
00407070 00 00 00 00 00 00 00 00 00 00 00 00 00 00 00 00 ................
00407080 00 00 00 00 00 00 00 00 00 00 00 00 00 00 00 00 ................
00407090 00 00 00 00 00 00 00 00 00 00 00 00 00 00 00 00 ................
004070A0 00 00 00 00 00 00 00 00 00 00 00 00 00 00 00 00 ................
004070B0 00 00 00 00 00 00 00 00 00 00 00 00 00 00 00 00 ................
004070C0 00 00 00 00 00 00 00 00 00 00 00 00 00 00 00 00 ................
004070D0 00 00 00 00 00 00 00 00 00 00 00 00 00 00 00 00 ................
004070E0 00 00 00 00 00 00 00 00 00 00 00 00 00 00 00 00 ................
004070F0 00 00 00 00 00 00 00 00 00 00 00 00 00 00 00 00 ................
00407100 00 00 00 00 00 00 00 00 00 00 00 00 00 00 00 00 ................
00407110 00 00 00 00 00 00 00 00 00 00 00 00 00 00 00 00 ................
00407120 00 00 00 00 00 00 00 00 00 00 00 00 00 00 00 00 ................
00407130 00 00 00 00 00 00 00 00 00 00 00 00 00 00 00 00 ................
00407140 00 00 00 00 00 00 00 00 00 00 00 00 00 00 00 00 ................
00407150 00 00 00 00 00 00 00 00 00 00 00 00 00 00 00 00 ................
00407160 00 00 00 00 00 00 00 00 00 00 00 00 00 00 00 00 ................
00407170 00 00 00 00 00 00 00 00 00 00 00 00 00 00 00 00 ................
00407180 00 00 00 00 00 00 00 00 00 00 00 00 00 00 00 00 ................
00407190 00 00 00 00 00 00 00 00 00 00 00 00 00 00 00 00 ................
004071A0 00 00 00 00 00 00 00 00 00 00 00 00 00 00 00 00 ................
004071B0 00 00 00 00 00 00 00 00 00 00 00 00 00 00 00 00 ................
004071C0 00 00 00 00 00 00 00 00 00 00 00 00 00 00 00 00 ................
004071D0 00 00 00 00 00 00 00 00 00 00 00 00 00 00 00 00 ................
004071E0 00 00 00 00 00 00 00 00 00 00 00 00 00 00 00 00 ................
004071F0 00 00 00 00 00 00 00 00 00 00 00 00 00 00 00 00 ................
00407200 00 00 00 00 00 00 00 00 00 00 00 00 00 00 00 00 ................
00407210 00 00 00 00 00 00 00 00 00 00 00 00 00 00 00 00 ................
00407220 00 00 00 00 00 00 00 00 00 00 00 00 00 00 00 00 ................
00407230 00 00 00 00 00 00 00 00 00 00 00 00 00 00 00 00 ................
00407240 00 00 00 00 00 00 00 00 00 00 00 00 00 00 00 00 ................
00407250 00 00 00 00 00 00 00 00 00 00 00 00 00 00 00 00 ................
00407260 00 00 00 00 00 00 00 00 00 00 00 00 00 00 00 00 ................
00407270 00 00 00 00 00 00 00 00 00 00 00 00 00 00 00 00 ................
00407280 00 00 00 00 00 00 00 00 00 00 00 00 00 00 00 00 ................
00407290 00 00 00 00 00 00 00 00 00 00 00 00 00 00 00 00 ................
004072A0 00 00 00 00 00 00 00 00 00 00 00 00 00 00 00 00 ................
004072B0 00 00 00 00 00 00 00 00 00 00 00 00 00 00 00 00 ................
004072C0 00 00 00 00 00 00 00 00 00 00 00 00 00 00 00 00 ................
004072D0 00 00 00 00 00 00 00 00 00 00 00 00 00 00 00 00 ................
004072E0 00 00 00 00 00 00 00 00 00 00 00 00 00 00 00 00 ................
004072F0 00 00 00 00 00 00 00 00 00 00 00 00 00 00 00 00 ................
00407300 00 00 00 00 00 00 00 00 00 00 00 00 00 00 00 00 ................
00407310 00 00 00 00 00 00 00 00 00 00 00 00 00 00 00 00 ................
00407320 00 00 00 00 00 00 00 00 00 00 00 00 00 00 00 00 ................
00407330 00 00 00 00 00 00 00 00 00 00 00 00 00 00 00 00 ................
00407340 00 00 00 00 00 00 00 00 00 00 00 00 00 00 00 00 ................
00407350 00 00 00 00 00 00 00 00 00 00 00 00 00 00 00 00 ................
00407360 00 00 00 00 00 00 00 00 00 00 00 00 00 00 00 00 ................
00407370 00 00 00 00 00 00 00 00 00 00 00 00 00 00 00 00 ................
00407380 00 00 00 00 00 00 00 00 00 00 00 00 00 00 00 00 ................
00407390 00 00 00 00 00 00 00 00 00 00 00 00 00 00 00 00 ................
004073A0 00 00 00 00 00 00 00 00 00 00 00 00 00 00 00 00 ................
004073B0 00 00 00 00 00 00 00 00 00 00 00 00 00 00 00 00 ................
004073C0 00 00 00 00 00 00 00 00 00 00 00 00 00 00 00 00 ................
004073D0 00 00 00 00 00 00 00 00 00 00 00 00 00 00 00 00 ................
004073E0 00 00 00 00 00 00 00 00 00 00 00 00 00 00 00 00 ................
004073F0 00 00 00 00 00 00 00 00 00 00 00 00 00 00 00 00 ................
00407400 00 00 00 00 00 00 00 00 00 00 00 00 00 00 00 00 ................
00407410 00 00 00 00 00 00 00 00 00 00 00 00 00 00 00 00 ................
00407420 00 00 00 00 00 00 00 00 00 00 00 00 00 00 00 00 ................
00407430 00 00 00 00 00 00 00 00 00 00 00 00 00 00 00 00 ................
00407440 00 00 00 00 00 00 00 00 00 00 00 00 00 00 00 00 ................
00407450 00 00 00 00 00 00 00 00 00 00 00 00 00 00 00 00 ................
00407460 00 00 00 00 00 00 00 00 00 00 00 00 00 00 00 00 ................
00407470 00 00 00 00 00 00 00 00 00 00 00 00 00 00 00 00 ................
00407480 00 00 00 00 00 00 00 00 00 00 00 00 00 00 00 00 ................
00407490 00 00 00 00 00 00 00 00 00 00 00 00 00 00 00 00 ................
004074A0 00 00 00 00 00 00 00 00 00 00 00 00 00 00 00 00 ................
004074B0 00 00 00 00 00 00 00 00 00 00 00 00 00 00 00 00 ................
004074C0 00 00 00 00 00 00 00 00 00 00 00 00 00 00 00 00 ................
004074D0 00 00 00 00 00 00 00 00 00 00 00 00 00 00 00 00 ................
004074E0 00 00 00 00 00 00 00 00 00 00 00 00 00 00 00 00 ................
004074F0 00 00 00 00 00 00 00 00 00 00 00 00 00 00 00 00 ................
00407500 00 00 00 00 00 00 00 00 00 00 00 00 00 00 00 00 ................
00407510 00 00 00 00 00 00 00 00 00 00 00 00 00 00 00 00 ................
00407520 00 00 00 00 00 00 00 00 00 00 00 00 00 00 00 00 ................
00407530 00 00 00 00 00 00 00 00 00 00 00 00 00 00 00 00 ................
00407540 00 00 00 00 00 00 00 00 00 00 00 00 00 00 00 00 ................
00407550 00 00 00 00 00 00 00 00 00 00 00 00 00 00 00 00 ................
00407560 00 00 00 00 00 00 00 00 00 00 00 00 00 00 00 00 ................
00407570 00 00 00 00 00 00 00 00 00 00 00 00 00 00 00 00 ................
00407580 00 00 00 00 00 00 00 00 00 00 00 00 00 00 00 00 ................
00407590 00 00 00 00 00 00 00 00 00 00 00 00 00 00 00 00 ................
004075A0 00 00 00 00 00 00 00 00 00 00 00 00 00 00 00 00 ................
004075B0 00 00 00 00 00 00 00 00 00 00 00 00 00 00 00 00 ................
004075C0 00 00 00 00 00 00 00 00 00 00 00 00 00 00 00 00 ................
004075D0 00 00 00 00 00 00 00 00 00 00 00 00 00 00 00 00 ................
004075E0 00 00 00 00 00 00 00 00 00 00 00 00 00 00 00 00 ................
004075F0 00 00 00 00 00 00 00 00 00 00 00 00 00 00 00 00 ................
00407600 00 00 00 00 00 00 00 00 00 00 00 00 00 00 00 00 ................
00407610 00 00 00 00 00 00 00 00 00 00 00 00 00 00 00 00 ................
00407620 00 00 00 00 00 00 00 00 00 00 00 00 00 00 00 00 ................
00407630 00 00 00 00 00 00 00 00 00 00 00 00 00 00 00 00 ................
00407640 00 00 00 00 00 00 00 00 00 00 00 00 00 00 00 00 ................
00407650 00 00 00 00 00 00 00 00 00 00 00 00 00 00 00 00 ................
00407660 00 00 00 00 00 00 00 00 00 00 00 00 00 00 00 00 ................
00407670 00 00 00 00 00 00 00 00 00 00 00 00 00 00 00 00 ................
00407680 00 00 00 00 00 00 00 00 00 00 00 00 00 00 00 00 ................
00407690 00 00 00 00 00 00 00 00 00 00 00 00 00 00 00 00 ................
004076A0 00 00 00 00 00 00 00 00 00 00 00 00 00 00 00 00 ................
004076B0 00 00 00 00 00 00 00 00 00 00 00 00 00 00 00 00 ................
004076C0 00 00 00 00 00 00 00 00 00 00 00 00 00 00 00 00 ................
004076D0 00 00 00 00 00 00 00 00 00 00 00 00 00 00 00 00 ................
004076E0 00 00 00 00 00 00 00 00 00 00 00 00 00 00 00 00 ................
004076F0 00 00 00 00 00 00 00 00 00 00 00 00 00 00 00 00 ................
00407700 00 00 00 00 00 00 00 00 00 00 00 00 00 00 00 00 ................
00407710 00 00 00 00 00 00 00 00 00 00 00 00 00 00 00 00 ................
00407720 00 00 00 00 00 00 00 00 00 00 00 00 00 00 00 00 ................
00407730 00 00 00 00 00 00 00 00 00 00 00 00 00 00 00 00 ................
00407740 00 00 00 00 00 00 00 00 00 00 00 00 00 00 00 00 ................
00407750 00 00 00 00 00 00 00 00 00 00 00 00 00 00 00 00 ................
00407760 00 00 00 00 00 00 00 00 00 00 00 00 00 00 00 00 ................
00407770 00 00 00 00 00 00 00 00 00 00 00 00 00 00 00 00 ................
00407780 00 00 00 00 00 00 00 00 00 00 00 00 00 00 00 00 ................
00407790 00 00 00 00 00 00 00 00 00 00 00 00 00 00 00 00 ................
004077A0 00 00 00 00 00 00 00 00 00 00 00 00 00 00 00 00 ................
004077B0 00 00 00 00 00 00 00 00 00 00 00 00 00 00 00 00 ................
004077C0 00 00 00 00 00 00 00 00 00 00 00 00 00 00 00 00 ................
004077D0 00 00 00 00 00 00 00 00 00 00 00 00 00 00 00 00 ................
004077E0 00 00 00 00 00 00 00 00 00 00 00 00 00 00 00 00 ................
004077F0 00 00 00 00 00 00 00 00 00 00 00 00 00 00 00 00 ................
00407800 00 00 00 00 00 00 00 00 00 00 00 00 00 00 00 00 ................
00407810 00 00 00 00 00 00 00 00 00 00 00 00 00 00 00 00 ................
00407820 00 00 00 00 00 00 00 00 00 00 00 00 00 00 00 00 ................
00407830 00 00 00 00 00 00 00 00 00 00 00 00 00 00 00 00 ................
00407840 00 00 00 00 00 00 00 00 00 00 00 00 00 00 00 00 ................
00407850 00 00 00 00 00 00 00 00 00 00 00 00 00 00 00 00 ................
00407860 00 00 00 00 00 00 00 00 00 00 00 00 00 00 00 00 ................
00407870 00 00 00 00 00 00 00 00 00 00 00 00 00 00 00 00 ................
00407880 00 00 00 00 00 00 00 00 00 00 00 00 00 00 00 00 ................
00407890 00 00 00 00 00 00 00 00 00 00 00 00 00 00 00 00 ................
004078A0 00 00 00 00 00 00 00 00 00 00 00 00 00 00 00 00 ................
004078B0 00 00 00 00 00 00 00 00 00 00 00 00 00 00 00 00 ................
004078C0 00 00 00 00 00 00 00 00 00 00 00 00 00 00 00 00 ................
004078D0 00 00 00 00 00 00 00 00 00 00 00 00 00 00 00 00 ................
004078E0 00 00 00 00 00 00 00 00 00 00 00 00 00 00 00 00 ................
004078F0 00 00 00 00 00 00 00 00 00 00 00 00 00 00 00 00 ................
00407900 00 00 00 00 00 00 00 00 00 00 00 00 00 00 00 00 ................
00407910 00 00 00 00 00 00 00 00 00 00 00 00 00 00 00 00 ................
00407920 00 00 00 00 00 00 00 00 00 00 00 00 00 00 00 00 ................
00407930 00 00 00 00 00 00 00 00 00 00 00 00 00 00 00 00 ................
00407940 00 00 00 00 00 00 00 00 00 00 00 00 00 00 00 00 ................
00407950 00 00 00 00 00 00 00 00 00 00 00 00 00 00 00 00 ................
00407960 00 00 00 00 00 00 00 00 00 00 00 00 00 00 00 00 ................
00407970 00 00 00 00 00 00 00 00 00 00 00 00 00 00 00 00 ................
00407980 00 00 00 00 00 00 00 00 00 00 00 00 00 00 00 00 ................
00407990 00 00 00 00 00 00 00 00 00 00 00 00 00 00 00 00 ................
004079A0 00 00 00 00 00 00 00 00 00 00 00 00 00 00 00 00 ................
004079B0 00 00 00 00 00 00 00 00 00 00 00 00 00 00 00 00 ................
004079C0 00 00 00 00 00 00 00 00 00 00 00 00 00 00 00 00 ................
004079D0 00 00 00 00 00 00 00 00 00 00 00 00 00 00 00 00 ................
004079E0 00 00 00 00 00 00 00 00 00 00 00 00 00 00 00 00 ................
004079F0 00 00 00 00 00 00 00 00 00 00 00 00 00 00 00 00 ................
00407A00 00 00 00 00 00 00 00 00 00 00 00 00 00 00 00 00 ................
00407A10 00 00 00 00 00 00 00 00 00 00 00 00 00 00 00 00 ................
00407A20 00 00 00 00 00 00 00 00 00 00 00 00 00 00 00 00 ................
00407A30 00 00 00 00 00 00 00 00 00 00 00 00 00 00 00 00 ................
00407A40 00 00 00 00 00 00 00 00 00 00 00 00 00 00 00 00 ................
00407A50 00 00 00 00 00 00 00 00 00 00 00 00 00 00 00 00 ................
00407A60 00 00 00 00 00 00 00 00 00 00 00 00 00 00 00 00 ................
00407A70 00 00 00 00 00 00 00 00 00 00 00 00 00 00 00 00 ................
00407A80 00 00 00 00 00 00 00 00 00 00 00 00 00 00 00 00 ................
00407A90 00 00 00 00 00 00 00 00 00 00 00 00 00 00 00 00 ................
00407AA0 00 00 00 00 00 00 00 00 00 00 00 00 00 00 00 00 ................
00407AB0 00 00 00 00 00 00 00 00 00 00 00 00 00 00 00 00 ................
00407AC0 00 00 00 00 00 00 00 00 00 00 00 00 00 00 00 00 ................
00407AD0 00 00 00 00 00 00 00 00 00 00 00 00 00 00 00 00 ................
00407AE0 00 00 00 00 00 00 00 00 00 00 00 00 00 00 00 00 ................
00407AF0 00 00 00 00 00 00 00 00 00 00 00 00 00 00 00 00 ................
00407B00 00 00 00 00 00 00 00 00 00 00 00 00 00 00 00 00 ................
00407B10 00 00 00 00 00 00 00 00 00 00 00 00 00 00 00 00 ................
00407B20 00 00 00 00 00 00 00 00 00 00 00 00 00 00 00 00 ................
00407B30 00 00 00 00 00 00 00 00 00 00 00 00 00 00 00 00 ................
00407B40 00 00 00 00 00 00 00 00 00 00 00 00 00 00 00 00 ................
00407B50 00 00 00 00 00 00 00 00 00 00 00 00 00 00 00 00 ................
00407B60 00 00 00 00 00 00 00 00 00 00 00 00 00 00 00 00 ................
00407B70 00 00 00 00 00 00 00 00 00 00 00 00 00 00 00 00 ................
00407B80 00 00 00 00 00 00 00 00 00 00 00 00 00 00 00 00 ................
00407B90 00 00 00 00 00 00 00 00 00 00 00 00 00 00 00 00 ................
00407BA0 00 00 00 00 00 00 00 00 00 00 00 00 00 00 00 00 ................
00407BB0 00 00 00 00 00 00 00 00 00 00 00 00 00 00 00 00 ................
00407BC0 00 00 00 00 00 00 00 00 00 00 00 00 00 00 00 00 ................
00407BD0 00 00 00 00 00 00 00 00 00 00 00 00 00 00 00 00 ................
00407BE0 00 00 00 00 00 00 00 00 00 00 00 00 00 00 00 00 ................
00407BF0 00 00 00 00 00 00 00 00 00 00 00 00 00 00 00 00 ................
00407C00 00 00 00 00 00 00 00 00 00 00 00 00 00 00 00 00 ................
00407C10 00 00 00 00 00 00 00 00 00 00 00 00 00 00 00 00 ................
00407C20 00 00 00 00 00 00 00 00 00 00 00 00 00 00 00 00 ................
00407C30 00 00 00 00 00 00 00 00 00 00 00 00 00 00 00 00 ................
00407C40 00 00 00 00 00 00 00 00 00 00 00 00 00 00 00 00 ................
00407C50 00 00 00 00 00 00 00 00 00 00 00 00 00 00 00 00 ................
00407C60 00 00 00 00 00 00 00 00 00 00 00 00 00 00 00 00 ................
00407C70 00 00 00 00 00 00 00 00 00 00 00 00 00 00 00 00 ................
00407C80 00 00 00 00 00 00 00 00 00 00 00 00 00 00 00 00 ................
00407C90 00 00 00 00 00 00 00 00 00 00 00 00 00 00 00 00 ................
00407CA0 00 00 00 00 00 00 00 00 00 00 00 00 00 00 00 00 ................
00407CB0 00 00 00 00 00 00 00 00 00 00 00 00 00 00 00 00 ................
00407CC0 00 00 00 00 00 00 00 00 00 00 00 00 00 00 00 00 ................
00407CD0 00 00 00 00 00 00 00 00 00 00 00 00 00 00 00 00 ................
00407CE0 00 00 00 00 00 00 00 00 00 00 00 00 00 00 00 00 ................
00407CF0 00 00 00 00 00 00 00 00 00 00 00 00 00 00 00 00 ................
00407D00 00 00 00 00 00 00 00 00 00 00 00 00 00 00 00 00 ................
00407D10 00 00 00 00 00 00 00 00 00 00 00 00 00 00 00 00 ................
00407D20 00 00 00 00 00 00 00 00 00 00 00 00 00 00 00 00 ................
00407D30 00 00 00 00 00 00 00 00 00 00 00 00 00 00 00 00 ................
00407D40 00 00 00 00 00 00 00 00 00 00 00 00 00 00 00 00 ................
00407D50 00 00 00 00 00 00 00 00 00 00 00 00 00 00 00 00 ................
00407D60 00 00 00 00 00 00 00 00 00 00 00 00 00 00 00 00 ................
00407D70 00 00 00 00 00 00 00 00 00 00 00 00 00 00 00 00 ................
00407D80 00 00 00 00 00 00 00 00 00 00 00 00 00 00 00 00 ................
00407D90 00 00 00 00 00 00 00 00 00 00 00 00 00 00 00 00 ................
00407DA0 00 00 00 00 00 00 00 00 00 00 00 00 00 00 00 00 ................
00407DB0 00 00 00 00 00 00 00 00 00 00 00 00 00 00 00 00 ................
00407DC0 00 00 00 00 00 00 00 00 00 00 00 00 00 00 00 00 ................
00407DD0 00 00 00 00 00 00 00 00 00 00 00 00 00 00 00 00 ................
00407DE0 00 00 00 00 00 00 00 00 00 00 00 00 00 00 00 00 ................
00407DF0 00 00 00 00 00 00 00 00 00 00 00 00 00 00 00 00 ................
00407E00 00 00 00 00 00 00 00 00 00 00 00 00 00 00 00 00 ................
00407E10 00 00 00 00 00 00 00 00 00 00 00 00 00 00 00 00 ................
00407E20 00 00 00 00 00 00 00 00 00 00 00 00 00 00 00 00 ................
00407E30 00 00 00 00 00 00 00 00 00 00 00 00 00 00 00 00 ................
00407E40 00 00 00 00 00 00 00 00 00 00 00 00 00 00 00 00 ................
00407E50 00 00 00 00 00 00 00 00 00 00 00 00 00 00 00 00 ................
00407E60 00 00 00 00 00 00 00 00 00 00 00 00 00 00 00 00 ................
00407E70 00 00 00 00 00 00 00 00 00 00 00 00 00 00 00 00 ................
00407E80 00 00 00 00 00 00 00 00 00 00 00 00 00 00 00 00 ................
00407E90 00 00 00 00 00 00 00 00 00 00 00 00 00 00 00 00 ................
00407EA0 00 00 00 00 00 00 00 00 00 00 00 00 00 00 00 00 ................
00407EB0 00 00 00 00 00 00 00 00 00 00 00 00 00 00 00 00 ................
00407EC0 00 00 00 00 00 00 00 00 00 00 00 00 00 00 00 00 ................
00407ED0 00 00 00 00 00 00 00 00 00 00 00 00 00 00 00 00 ................
00407EE0 00 00 00 00 00 00 00 00 00 00 00 00 00 00 00 00 ................
00407EF0 00 00 00 00 00 00 00 00 00 00 00 00 00 00 00 00 ................
00407F00 00 00 00 00 00 00 00 00 00 00 00 00 00 00 00 00 ................
00407F10 00 00 00 00 00 00 00 00 00 00 00 00 00 00 00 00 ................
00407F20 00 00 00 00 00 00 00 00 00 00 00 00 00 00 00 00 ................
00407F30 00 00 00 00 00 00 00 00 00 00 00 00 00 00 00 00 ................
00407F40 00 00 00 00 00 00 00 00 00 00 00 00 00 00 00 00 ................
00407F50 00 00 00 00 00 00 00 00 00 00 00 00 00 00 00 00 ................
00407F60 00 00 00 00 00 00 00 00 00 00 00 00 00 00 00 00 ................
00407F70 00 00 00 00 00 00 00 00 00 00 00 00 00 00 00 00 ................
00407F80 00 00 00 00 00 00 00 00 00 00 00 00 00 00 00 00 ................
00407F90 00 00 00 00 00 00 00 00 00 00 00 00 00 00 00 00 ................
00407FA0 00 00 00 00 00 00 00 00 00 00 00 00 00 00 00 00 ................
00407FB0 00 00 00 00 00 00 00 00 00 00 00 00 00 00 00 00 ................
00407FC0 00 00 00 00 00 00 00 00 00 00 00 00 00 00 00 00 ................
00407FD0 00 00 00 00 00 00 00 00 00 00 00 00 00 00 00 00 ................
00407FE0 00 00 00 00 00 00 00 00 00 00 00 00 00 00 00 00 ................
00407FF0 00 00 00 00 00 00 00 00 00 00 00 00 00 00 00 00 ................
00408000 00 00 00 00 00 00 00 00 00 00 00 00 00 00 00 00 ................
00408010 00 00 00 00 00 00 00 00 00 00 00 00 00 00 00 00 ................
00408020 00 00 00 00 00 00 00 00 00 00 00 00 00 00 00 00 ................
00408030 00 00 00 00 00 00 00 00 00 00 00 00 00 00 00 00 ................
00408040 00 00 00 00 00 00 00 00 00 00 00 00 00 00 00 00 ................
00408050 00 00 00 00 00 00 00 00 00 00 00 00 00 00 00 00 ................
00408060 00 00 00 00 00 00 00 00 00 00 00 00 00 00 00 00 ................
00408070 00 00 00 00 00 00 00 00 00 00 00 00 00 00 00 00 ................
00408080 00 00 00 00 00 00 00 00 00 00 00 00 00 00 00 00 ................
00408090 00 00 00 00 00 00 00 00 00 00 00 00 00 00 00 00 ................
004080A0 00 00 00 00 00 00 00 00 00 00 00 00 00 00 00 00 ................
004080B0 00 00 00 00 00 00 00 00 00 00 00 00 00 00 00 00 ................
004080C0 00 00 00 00 00 00 00 00 00 00 00 00 00 00 00 00 ................
004080D0 00 00 00 00 00 00 00 00 00 00 00 00 00 00 00 00 ................
004080E0 00 00 00 00 00 00 00 00 00 00 00 00 00 00 00 00 ................
004080F0 00 00 00 00 00 00 00 00 00 00 00 00 00 00 00 00 ................
00408100 00 00 00 00 00 00 00 00 00 00 00 00 00 00 00 00 ................
00408110 00 00 00 00 00 00 00 00 00 00 00 00 00 00 00 00 ................
00408120 00 00 00 00 00 00 00 00 00 00 00 00 00 00 00 00 ................
00408130 00 00 00 00 00 00 00 00 00 00 00 00 00 00 00 00 ................
00408140 00 00 00 00 00 00 00 00 00 00 00 00 00 00 00 00 ................
00408150 00 00 00 00 00 00 00 00 00 00 00 00 00 00 00 00 ................
00408160 00 00 00 00 00 00 00 00 00 00 00 00 00 00 00 00 ................
00408170 00 00 00 00 00 00 00 00 00 00 00 00 00 00 00 00 ................
00408180 00 00 00 00 00 00 00 00 00 00 00 00 00 00 00 00 ................
00408190 00 00 00 00 00 00 00 00 00 00 00 00 00 00 00 00 ................
004081A0 00 00 00 00 00 00 00 00 00 00 00 00 00 00 00 00 ................
004081B0 00 00 00 00 00 00 00 00 00 00 00 00 00 00 00 00 ................
004081C0 00 00 00 00 00 00 00 00 00 00 00 00 00 00 00 00 ................
004081D0 00 00 00 00 00 00 00 00 00 00 00 00 00 00 00 00 ................
004081E0 00 00 00 00 00 00 00 00 00 00 00 00 00 00 00 00 ................
004081F0 00 00 00 00 00 00 00 00 00 00 00 00 00 00 00 00 ................
00408200 00 00 00 00 00 00 00 00 00 00 00 00 00 00 00 00 ................
00408210 00 00 00 00 00 00 00 00 00 00 00 00 00 00 00 00 ................
00408220 00 00 00 00 00 00 00 00 00 00 00 00 00 00 00 00 ................
00408230 00 00 00 00 00 00 00 00 00 00 00 00 00 00 00 00 ................
00408240 00 00 00 00 00 00 00 00 00 00 00 00 00 00 00 00 ................
00408250 00 00 00 00 00 00 00 00 00 00 00 00 00 00 00 00 ................
00408260 00 00 00 00 00 00 00 00 00 00 00 00 00 00 00 00 ................
00408270 00 00 00 00 00 00 00 00 00 00 00 00 00 00 00 00 ................
00408280 00 00 00 00 00 00 00 00 00 00 00 00 00 00 00 00 ................
00408290 00 00 00 00 00 00 00 00 00 00 00 00 00 00 00 00 ................
004082A0 00 00 00 00 00 00 00 00 00 00 00 00 00 00 00 00 ................
004082B0 00 00 00 00 00 00 00 00 00 00 00 00 00 00 00 00 ................
004082C0 00 00 00 00 00 00 00 00 00 00 00 00 00 00 00 00 ................
004082D0 00 00 00 00 00 00 00 00 00 00 00 00 00 00 00 00 ................
004082E0 00 00 00 00 00 00 00 00 00 00 00 00 00 00 00 00 ................
004082F0 00 00 00 00 00 00 00 00 00 00 00 00 00 00 00 00 ................
00408300 00 00 00 00 00 00 00 00 00 00 00 00 00 00 00 00 ................
00408310 00 00 00 00 00 00 00 00 00 00 00 00 00 00 00 00 ................
00408320 00 00 00 00 00 00 00 00 00 00 00 00 00 00 00 00 ................
00408330 00 00 00 00 00 00 00 00 00 00 00 00 00 00 00 00 ................
00408340 00 00 00 00 00 00 00 00 00 00 00 00 00 00 00 00 ................
00408350 00 00 00 00 00 00 00 00 00 00 00 00 00 00 00 00 ................
00408360 00 00 00 00 00 00 00 00 00 00 00 00 00 00 00 00 ................
00408370 00 00 00 00 00 00 00 00 00 00 00 00 00 00 00 00 ................
00408380 00 00 00 00 00 00 00 00 00 00 00 00 00 00 00 00 ................
00408390 00 00 00 00 00 00 00 00 00 00 00 00 00 00 00 00 ................
004083A0 00 00 00 00 00 00 00 00 00 00 00 00 00 00 00 00 ................
004083B0 00 00 00 00 00 00 00 00 00 00 00 00 00 00 00 00 ................
004083C0 00 00 00 00 00 00 00 00 00 00 00 00 00 00 00 00 ................
004083D0 00 00 00 00 00 00 00 00 00 00 00 00 00 00 00 00 ................
004083E0 00 00 00 00 00 00 00 00 00 00 00 00 00 00 00 00 ................
004083F0 00 00 00 00 00 00 00 00 00 00 00 00 00 00 00 00 ................
00408400 00 00 00 00 00 00 00 00 00 00 00 00 00 00 00 00 ................
00408410 00 00 00 00 00 00 00 00 00 00 00 00 00 00 00 00 ................
00408420 00 00 00 00 00 00 00 00 00 00 00 00 00 00 00 00 ................
00408430 00 00 00 00 00 00 00 00 00 00 00 00 00 00 00 00 ................
00408440 00 00 00 00 00 00 00 00 00 00 00 00 00 00 00 00 ................
00408450 00 00 00 00 00 00 00 00 00 00 00 00 00 00 00 00 ................
00408460 00 00 00 00 00 00 00 00 00 00 00 00 00 00 00 00 ................
00408470 00 00 00 00 00 00 00 00 00 00 00 00 00 00 00 00 ................
00408480 00 00 00 00 00 00 00 00 00 00 00 00 00 00 00 00 ................
00408490 00 00 00 00 00 00 00 00 00 00 00 00 00 00 00 00 ................
004084A0 00 00 00 00 00 00 00 00 00 00 00 00 00 00 00 00 ................
004084B0 00 00 00 00 00 00 00 00 00 00 00 00 00 00 00 00 ................
004084C0 00 00 00 00 00 00 00 00 00 00 00 00 00 00 00 00 ................
004084D0 00 00 00 00 00 00 00 00 00 00 00 00 00 00 00 00 ................
004084E0 00 00 00 00 00 00 00 00 00 00 00 00 00 00 00 00 ................
004084F0 00 00 00 00 00 00 00 00 00 00 00 00 00 00 00 00 ................
00408500 00 00 00 00 00 00 00 00 00 00 00 00 00 00 00 00 ................
00408510 00 00 00 00 00 00 00 00 00 00 00 00 00 00 00 00 ................
00408520 00 00 00 00 00 00 00 00 00 00 00 00 00 00 00 00 ................
00408530 00 00 00 00 00 00 00 00 00 00 00 00 00 00 00 00 ................
00408540 00 00 00 00 00 00 00 00 00 00 00 00 00 00 00 00 ................
00408550 00 00 00 00 00 00 00 00 00 00 00 00 00 00 00 00 ................
00408560 00 00 00 00 00 00 00 00 00 00 00 00 00 00 00 00 ................
00408570 00 00 00 00 00 00 00 00 00 00 00 00 00 00 00 00 ................
00408580 00 00 00 00 00 00 00 00 00 00 00 00 00 00 00 00 ................
00408590 00 00 00 00 00 00 00 00 00 00 00 00 00 00 00 00 ................
004085A0 00 00 00 00 00 00 00 00 00 00 00 00 00 00 00 00 ................
004085B0 00 00 00 00 00 00 00 00 00 00 00 00 00 00 00 00 ................
004085C0 00 00 00 00 00 00 00 00 00 00 00 00 00 00 00 00 ................
004085D0 00 00 00 00 00 00 00 00 00 00 00 00 00 00 00 00 ................
004085E0 00 00 00 00 00 00 00 00 00 00 00 00 00 00 00 00 ................
004085F0 00 00 00 00 00 00 00 00 00 00 00 00 00 00 00 00 ................
00408600 00 00 00 00 00 00 00 00 00 00 00 00 00 00 00 00 ................
00408610 00 00 00 00 00 00 00 00 00 00 00 00 00 00 00 00 ................
00408620 00 00 00 00 00 00 00 00 00 00 00 00 00 00 00 00 ................
00408630 00 00 00 00 00 00 00 00 00 00 00 00 00 00 00 00 ................
00408640 00 00 00 00 00 00 00 00 00 00 00 00 00 00 00 00 ................
00408650 00 00 00 00 00 00 00 00 00 00 00 00 00 00 00 00 ................
00408660 00 00 00 00 00 00 00 00 00 00 00 00 00 00 00 00 ................
00408670 00 00 00 00 00 00 00 00 00 00 00 00 00 00 00 00 ................
00408680 00 00 00 00 00 00 00 00 00 00 00 00 00 00 00 00 ................
00408690 00 00 00 00 00 00 00 00 00 00 00 00 00 00 00 00 ................
004086A0 00 00 00 00 00 00 00 00 00 00 00 00 00 00 00 00 ................
004086B0 00 00 00 00 00 00 00 00 00 00 00 00 00 00 00 00 ................
004086C0 00 00 00 00 00 00 00 00 00 00 00 00 00 00 00 00 ................
004086D0 00 00 00 00 00 00 00 00 00 00 00 00 00 00 00 00 ................
004086E0 00 00 00 00 00 00 00 00 00 00 00 00 00 00 00 00 ................
004086F0 00 00 00 00 00 00 00 00 00 00 00 00 00 00 00 00 ................
00408700 00 00 00 00 00 00 00 00 00 00 00 00 00 00 00 00 ................
00408710 00 00 00 00 00 00 00 00 00 00 00 00 00 00 00 00 ................
00408720 00 00 00 00 00 00 00 00 00 00 00 00 00 00 00 00 ................
00408730 00 00 00 00 00 00 00 00 00 00 00 00 00 00 00 00 ................
00408740 00 00 00 00 00 00 00 00 00 00 00 00 00 00 00 00 ................
00408750 00 00 00 00 00 00 00 00 00 00 00 00 00 00 00 00 ................
00408760 00 00 00 00 00 00 00 00 00 00 00 00 00 00 00 00 ................
00408770 00 00 00 00 00 00 00 00 00 00 00 00 00 00 00 00 ................
00408780 00 00 00 00 00 00 00 00 00 00 00 00 00 00 00 00 ................
00408790 00 00 00 00 00 00 00 00 00 00 00 00 00 00 00 00 ................
004087A0 00 00 00 00 00 00 00 00 00 00 00 00 00 00 00 00 ................
004087B0 00 00 00 00 00 00 00 00 00 00 00 00 00 00 00 00 ................
004087C0 00 00 00 00 00 00 00 00 00 00 00 00 00 00 00 00 ................
004087D0 00 00 00 00 00 00 00 00 00 00 00 00 00 00 00 00 ................
004087E0 00 00 00 00 00 00 00 00 00 00 00 00 00 00 00 00 ................
004087F0 00 00 00 00 00 00 00 00 00 00 00 00 00 00 00 00 ................
00408800 00 00 00 00 00 00 00 00 00 00 00 00 00 00 00 00 ................
00408810 00 00 00 00 00 00 00 00 00 00 00 00 00 00 00 00 ................
00408820 00 00 00 00 00 00 00 00 00 00 00 00 00 00 00 00 ................
00408830 00 00 00 00 00 00 00 00 00 00 00 00 00 00 00 00 ................
00408840 00 00 00 00 00 00 00 00 00 00 00 00 00 00 00 00 ................
00408850 00 00 00 00 00 00 00 00 00 00 00 00 00 00 00 00 ................
00408860 00 00 00 00 00 00 00 00 00 00 00 00 00 00 00 00 ................
00408870 00 00 00 00 00 00 00 00 00 00 00 00 00 00 00 00 ................
00408880 00 00 00 00 00 00 00 00 00 00 00 00 00 00 00 00 ................
00408890 00 00 00 00 00 00 00 00 00 00 00 00 00 00 00 00 ................
004088A0 00 00 00 00 00 00 00 00 00 00 00 00 00 00 00 00 ................
004088B0 00 00 00 00 00 00 00 00 00 00 00 00 00 00 00 00 ................
004088C0 00 00 00 00 00 00 00 00 00 00 00 00 00 00 00 00 ................
004088D0 00 00 00 00 00 00 00 00 00 00 00 00 00 00 00 00 ................
004088E0 00 00 00 00 00 00 00 00 00 00 00 00 00 00 00 00 ................
004088F0 00 00 00 00 00 00 00 00 00 00 00 00 00 00 00 00 ................
00408900 00 00 00 00 00 00 00 00 00 00 00 00 00 00 00 00 ................
00408910 00 00 00 00 00 00 00 00 00 00 00 00 00 00 00 00 ................
00408920 00 00 00 00 00 00 00 00 00 00 00 00 00 00 00 00 ................
00408930 00 00 00 00 00 00 00 00 00 00 00 00 00 00 00 00 ................
00408940 00 00 00 00 00 00 00 00 00 00 00 00 00 00 00 00 ................
00408950 00 00 00 00 00 00 00 00 00 00 00 00 00 00 00 00 ................
00408960 00 00 00 00 00 00 00 00 00 00 00 00 00 00 00 00 ................
00408970 00 00 00 00 00 00 00 00 00 00 00 00 00 00 00 00 ................
00408980 00 00 00 00 00 00 00 00 00 00 00 00 00 00 00 00 ................
00408990 00 00 00 00 00 00 00 00 00 00 00 00 00 00 00 00 ................
004089A0 00 00 00 00 00 00 00 00 00 00 00 00 00 00 00 00 ................
004089B0 00 00 00 00 00 00 00 00 00 00 00 00 00 00 00 00 ................
004089C0 00 00 00 00 00 00 00 00 00 00 00 00 00 00 00 00 ................
004089D0 00 00 00 00 00 00 00 00 00 00 00 00 00 00 00 00 ................
004089E0 00 00 00 00 00 00 00 00 00 00 00 00 00 00 00 00 ................
004089F0 00 00 00 00 00 00 00 00 00 00 00 00 00 00 00 00 ................
00408A00 00 00 00 00 00 00 00 00 00 00 00 00 00 00 00 00 ................
00408A10 00 00 00 00 00 00 00 00 00 00 00 00 00 00 00 00 ................
00408A20 00 00 00 00 00 00 00 00 00 00 00 00 00 00 00 00 ................
00408A30 00 00 00 00 00 00 00 00 00 00 00 00 00 00 00 00 ................
00408A40 00 00 00 00 00 00 00 00 00 00 00 00 00 00 00 00 ................
00408A50 00 00 00 00 00 00 00 00 00 00 00 00 00 00 00 00 ................
00408A60 00 00 00 00 00 00 00 00 00 00 00 00 00 00 00 00 ................
00408A70 00 00 00 00 00 00 00 00 00 00 00 00 00 00 00 00 ................
00408A80 00 00 00 00 00 00 00 00 00 00 00 00 00 00 00 00 ................
00408A90 00 00 00 00 00 00 00 00 00 00 00 00 00 00 00 00 ................
00408AA0 00 00 00 00 00 00 00 00 00 00 00 00 00 00 00 00 ................
00408AB0 00 00 00 00 00 00 00 00 00 00 00 00 00 00 00 00 ................
00408AC0 00 00 00 00 00 00 00 00 00 00 00 00 00 00 00 00 ................
00408AD0 00 00 00 00 00 00 00 00 00 00 00 00 00 00 00 00 ................
00408AE0 00 00 00 00 00 00 00 00 00 00 00 00 00 00 00 00 ................
00408AF0 00 00 00 00 00 00 00 00 00 00 00 00 00 00 00 00 ................
00408B00 00 00 00 00 00 00 00 00 00 00 00 00 00 00 00 00 ................
00408B10 00 00 00 00 00 00 00 00 00 00 00 00 00 00 00 00 ................
00408B20 00 00 00 00 00 00 00 00 00 00 00 00 00 00 00 00 ................
00408B30 00 00 00 00 00 00 00 00 00 00 00 00 00 00 00 00 ................
00408B40 00 00 00 00 00 00 00 00 00 00 00 00 00 00 00 00 ................
00408B50 00 00 00 00 00 00 00 00 00 00 00 00 00 00 00 00 ................
00408B60 00 00 00 00 00 00 00 00 00 00 00 00 00 00 00 00 ................
00408B70 00 00 00 00 00 00 00 00 00 00 00 00 00 00 00 00 ................
00408B80 00 00 00 00 00 00 00 00 00 00 00 00 00 00 00 00 ................
00408B90 00 00 00 00 00 00 00 00 00 00 00 00 00 00 00 00 ................
00408BA0 00 00 00 00 00 00 00 00 00 00 00 00 00 00 00 00 ................
00408BB0 00 00 00 00 00 00 00 00 00 00 00 00 00 00 00 00 ................
00408BC0 00 00 00 00 00 00 00 00 00 00 00 00 00 00 00 00 ................
00408BD0 00 00 00 00 00 00 00 00 00 00 00 00 00 00 00 00 ................
00408BE0 00 00 00 00 00 00 00 00 00 00 00 00 00 00 00 00 ................
00408BF0 00 00 00 00 00 00 00 00 00 00 00 00 00 00 00 00 ................
00408C00 00 00 00 00 00 00 00 00 00 00 00 00 00 00 00 00 ................
00408C10 00 00 00 00 00 00 00 00 00 00 00 00 00 00 00 00 ................
00408C20 00 00 00 00 00 00 00 00 00 00 00 00 00 00 00 00 ................
00408C30 00 00 00 00 00 00 00 00 00 00 00 00 00 00 00 00 ................
00408C40 00 00 00 00 00 00 00 00 00 00 00 00 00 00 00 00 ................
00408C50 00 00 00 00 00 00 00 00 00 00 00 00 00 00 00 00 ................
00408C60 00 00 00 00 00 00 00 00 00 00 00 00 00 00 00 00 ................
00408C70 00 00 00 00 00 00 00 00 00 00 00 00 00 00 00 00 ................
00408C80 00 00 00 00 00 00 00 00 00 00 00 00 00 00 00 00 ................
00408C90 00 00 00 00 00 00 00 00 00 00 00 00 00 00 00 00 ................
00408CA0 00 00 00 00 00 00 00 00 00 00 00 00 00 00 00 00 ................
00408CB0 00 00 00 00 00 00 00 00 00 00 00 00 00 00 00 00 ................
00408CC0 00 00 00 00 00 00 00 00 00 00 00 00 00 00 00 00 ................
00408CD0 00 00 00 00 00 00 00 00 00 00 00 00 00 00 00 00 ................
00408CE0 00 00 00 00 00 00 00 00 00 00 00 00 00 00 00 00 ................
00408CF0 00 00 00 00 00 00 00 00 00 00 00 00 00 00 00 00 ................
00408D00 00 00 00 00 00 00 00 00 00 00 00 00 00 00 00 00 ................
00408D10 00 00 00 00 00 00 00 00 00 00 00 00 00 00 00 00 ................
00408D20 00 00 00 00 00 00 00 00 00 00 00 00 00 00 00 00 ................
00408D30 00 00 00 00 00 00 00 00 00 00 00 00 00 00 00 00 ................
00408D40 00 00 00 00 00 00 00 00 00 00 00 00 00 00 00 00 ................
00408D50 00 00 00 00 00 00 00 00 00 00 00 00 00 00 00 00 ................
00408D60 00 00 00 00 00 00 00 00 00 00 00 00 00 00 00 00 ................
00408D70 00 00 00 00 00 00 00 00 00 00 00 00 00 00 00 00 ................
00408D80 00 00 00 00 00 00 00 00 00 00 00 00 00 00 00 00 ................
00408D90 00 00 00 00 00 00 00 00 00 00 00 00 00 00 00 00 ................
00408DA0 00 00 00 00 00 00 00 00 00 00 00 00 00 00 00 00 ................
00408DB0 00 00 00 00 00 00 00 00 00 00 00 00 00 00 00 00 ................
00408DC0 00 00 00 00 00 00 00 00 00 00 00 00 00 00 00 00 ................
00408DD0 00 00 00 00 00 00 00 00 00 00 00 00 00 00 00 00 ................
00408DE0 00 00 00 00 00 00 00 00 00 00 00 00 00 00 00 00 ................
00408DF0 00 00 00 00 00 00 00 00 00 00 00 00 00 00 00 00 ................
00408E00 00 00 00 00 00 00 00 00 00 00 00 00 00 00 00 00 ................
00408E10 00 00 00 00 00 00 00 00 00 00 00 00 00 00 00 00 ................
00408E20 00 00 00 00 00 00 00 00 00 00 00 00 00 00 00 00 ................
00408E30 00 00 00 00 00 00 00 00 00 00 00 00 00 00 00 00 ................
00408E40 00 00 00 00 00 00 00 00 00 00 00 00 00 00 00 00 ................
00408E50 00 00 00 00 00 00 00 00 00 00 00 00 00 00 00 00 ................
00408E60 00 00 00 00 00 00 00 00 00 00 00 00 00 00 00 00 ................
00408E70 00 00 00 00 00 00 00 00 00 00 00 00 00 00 00 00 ................
00408E80 00 00 00 00 00 00 00 00 00 00 00 00 00 00 00 00 ................
00408E90 00 00 00 00 00 00 00 00 00 00 00 00 00 00 00 00 ................
00408EA0 00 00 00 00 00 00 00 00 00 00 00 00 00 00 00 00 ................
00408EB0 00 00 00 00 00 00 00 00 00 00 00 00 00 00 00 00 ................
00408EC0 00 00 00 00 00 00 00 00 00 00 00 00 00 00 00 00 ................
00408ED0 00 00 00 00 00 00 00 00 00 00 00 00 00 00 00 00 ................
00408EE0 00 00 00 00 00 00 00 00 00 00 00 00 00 00 00 00 ................
00408EF0 00 00 00 00 00 00 00 00 00 00 00 00 00 00 00 00 ................
00408F00 00 00 00 00 00 00 00 00 00 00 00 00 00 00 00 00 ................
00408F10 00 00 00 00 00 00 00 00 00 00 00 00 00 00 00 00 ................
00408F20 00 00 00 00 00 00 00 00 00 00 00 00 00 00 00 00 ................
00408F30 00 00 00 00 00 00 00 00 00 00 00 00 00 00 00 00 ................
00408F40 00 00 00 00 00 00 00 00 00 00 00 00 00 00 00 00 ................
00408F50 00 00 00 00 00 00 00 00 00 00 00 00 00 00 00 00 ................
00408F60 00 00 00 00 00 00 00 00 00 00 00 00 00 00 00 00 ................
00408F70 00 00 00 00 00 00 00 00 00 00 00 00 00 00 00 00 ................
00408F80 00 00 00 00 00 00 00 00 00 00 00 00 00 00 00 00 ................
00408F90 00 00 00 00 00 00 00 00 00 00 00 00 00 00 00 00 ................
00408FA0 00 00 00 00 00 00 00 00 00 00 00 00 00 00 00 00 ................
00408FB0 00 00 00 00 00 00 00 00 00 00 00 00 00 00 00 00 ................
00408FC0 00 00 00 00 00 00 00 00 00 00 00 00 00 00 00 00 ................
00408FD0 00 00 00 00 00 00 00 00 00 00 00 00 00 00 00 00 ................
00408FE0 00 00 00 00 00 00 00 00 00 00 00 00 00 00 00 00 ................
00408FF0 00 00 00 00 00 00 00 00 00 00 00 00 00 00 00 00 ................
00409000 00 00 00 00 00 00 00 00 00 00 00 00 00 00 00 00 ................
00409010 00 00 00 00 00 00 00 00 00 00 00 00 00 00 00 00 ................
00409020 00 00 00 00 00 00 00 00 00 00 00 00 00 00 00 00 ................
00409030 00 00 00 00 00 00 00 00 00 00 00 00 00 00 00 00 ................
00409040 00 00 00 00 00 00 00 00 00 00 00 00 00 00 00 00 ................
00409050 00 00 00 00 00 00 00 00 00 00 00 00 00 00 00 00 ................
00409060 00 00 00 00 00 00 00 00 00 00 00 00 00 00 00 00 ................
00409070 00 00 00 00 00 00 00 00 00 00 00 00 00 00 00 00 ................
00409080 00 00 00 00 00 00 00 00 00 00 00 00 00 00 00 00 ................
00409090 00 00 00 00 00 00 00 00 00 00 00 00 00 00 00 00 ................
004090A0 00 00 00 00 00 00 00 00 00 00 00 00 00 00 00 00 ................
004090B0 00 00 00 00 00 00 00 00 00 00 00 00 00 00 00 00 ................
004090C0 00 00 00 00 00 00 00 00 00 00 00 00 00 00 00 00 ................
004090D0 00 00 00 00 00 00 00 00 00 00 00 00 00 00 00 00 ................
004090E0 00 00 00 00 00 00 00 00 00 00 00 00 00 00 00 00 ................
004090F0 00 00 00 00 00 00 00 00 00 00 00 00 00 00 00 00 ................
00409100 00 00 00 00 00 00 00 00 00 00 00 00 00 00 00 00 ................
00409110 00 00 00 00 00 00 00 00 00 00 00 00 00 00 00 00 ................
00409120 00 00 00 00 00 00 00 00 00 00 00 00 00 00 00 00 ................
00409130 00 00 00 00 00 00 00 00 00 00 00 00 00 00 00 00 ................
00409140 00 00 00 00 00 00 00 00 00 00 00 00 00 00 00 00 ................
00409150 00 00 00 00 00 00 00 00 00 00 00 00 00 00 00 00 ................
00409160 00 00 00 00 00 00 00 00 00 00 00 00 00 00 00 00 ................
00409170 00 00 00 00 00 00 00 00 00 00 00 00 00 00 00 00 ................
00409180 00 00 00 00 00 00 00 00 00 00 00 00 00 00 00 00 ................
00409190 00 00 00 00 00 00 00 00 00 00 00 00 00 00 00 00 ................
004091A0 00 00 00 00 00 00 00 00 00 00 00 00 00 00 00 00 ................
004091B0 00 00 00 00 00 00 00 00 00 00 00 00 00 00 00 00 ................
004091C0 00 00 00 00 00 00 00 00 00 00 00 00 00 00 00 00 ................
004091D0 00 00 00 00 00 00 00 00 00 00 00 00 00 00 00 00 ................
004091E0 00 00 00 00 00 00 00 00 00 00 00 00 00 00 00 00 ................
004091F0 00 00 00 00 00 00 00 00 00 00 00 00 00 00 00 00 ................
00409200 00 00 00 00 00 00 00 00 00 00 00 00 00 00 00 00 ................
00409210 00 00 00 00 00 00 00 00 00 00 00 00 00 00 00 00 ................
00409220 00 00 00 00 00 00 00 00 00 00 00 00 00 00 00 00 ................
00409230 00 00 00 00 00 00 00 00 00 00 00 00 00 00 00 00 ................
00409240 00 00 00 00 00 00 00 00 00 00 00 00 00 00 00 00 ................
00409250 00 00 00 00 00 00 00 00 00 00 00 00 00 00 00 00 ................
00409260 00 00 00 00 00 00 00 00 00 00 00 00 00 00 00 00 ................
00409270 00 00 00 00 00 00 00 00 00 00 00 00 00 00 00 00 ................
00409280 00 00 00 00 00 00 00 00 00 00 00 00 00 00 00 00 ................
00409290 00 00 00 00 00 00 00 00 00 00 00 00 00 00 00 00 ................
004092A0 00 00 00 00 00 00 00 00 00 00 00 00 00 00 00 00 ................
004092B0 00 00 00 00 00 00 00 00 00 00 00 00 00 00 00 00 ................
004092C0 00 00 00 00 00 00 00 00 00 00 00 00 00 00 00 00 ................
004092D0 00 00 00 00 00 00 00 00 00 00 00 00 00 00 00 00 ................
004092E0 00 00 00 00 00 00 00 00 00 00 00 00 00 00 00 00 ................
004092F0 00 00 00 00 00 00 00 00 00 00 00 00 00 00 00 00 ................
00409300 00 00 00 00 00 00 00 00 00 00 00 00 00 00 00 00 ................
00409310 00 00 00 00 00 00 00 00 00 00 00 00 00 00 00 00 ................
00409320 00 00 00 00 00 00 00 00 00 00 00 00 00 00 00 00 ................
00409330 00 00 00 00 00 00 00 00 00 00 00 00 00 00 00 00 ................
00409340 00 00 00 00 00 00 00 00 00 00 00 00 00 00 00 00 ................
00409350 00 00 00 00 00 00 00 00 00 00 00 00 00 00 00 00 ................
00409360 00 00 00 00 00 00 00 00 00 00 00 00 00 00 00 00 ................
00409370 00 00 00 00 00 00 00 00 00 00 00 00 00 00 00 00 ................
00409380 00 00 00 00 00 00 00 00 00 00 00 00 00 00 00 00 ................
00409390 00 00 00 00 00 00 00 00 00 00 00 00 00 00 00 00 ................
004093A0 00 00 00 00 00 00 00 00 00 00 00 00 00 00 00 00 ................
004093B0 00 00 00 00 00 00 00 00 00 00 00 00 00 00 00 00 ................
004093C0 00 00 00 00 00 00 00 00 00 00 00 00 00 00 00 00 ................
004093D0 00 00 00 00 00 00 00 00 00 00 00 00 00 00 00 00 ................
004093E0 00 00 00 00 00 00 00 00 00 00 00 00 00 00 00 00 ................
004093F0 00 00 00 00 00 00 00 00 00 00 00 00 00 00 00 00 ................
00409400 00 00 00 00 00 00 00 00 00 00 00 00 00 00 00 00 ................
00409410 00 00 00 00 00 00 00 00 00 00 00 00 00 00 00 00 ................
00409420 00 00 00 00 00 00 00 00 00 00 00 00 00 00 00 00 ................
00409430 00 00 00 00 00 00 00 00 00 00 00 00 00 00 00 00 ................
00409440 00 00 00 00 00 00 00 00 00 00 00 00 00 00 00 00 ................
00409450 00 00 00 00 00 00 00 00 00 00 00 00 00 00 00 00 ................
00409460 00 00 00 00 00 00 00 00 00 00 00 00 00 00 00 00 ................
00409470 00 00 00 00 00 00 00 00 00 00 00 00 00 00 00 00 ................
00409480 00 00 00 00 00 00 00 00 00 00 00 00 00 00 00 00 ................
00409490 00 00 00 00 00 00 00 00 00 00 00 00 00 00 00 00 ................
004094A0 00 00 00 00 00 00 00 00 00 00 00 00 00 00 00 00 ................
004094B0 00 00 00 00 00 00 00 00 00 00 00 00 00 00 00 00 ................
004094C0 00 00 00 00 00 00 00 00 00 00 00 00 00 00 00 00 ................
004094D0 00 00 00 00 00 00 00 00 00 00 00 00 00 00 00 00 ................
004094E0 00 00 00 00 00 00 00 00 00 00 00 00 00 00 00 00 ................
004094F0 00 00 00 00 00 00 00 00 00 00 00 00 00 00 00 00 ................
00409500 00 00 00 00 00 00 00 00 00 00 00 00 00 00 00 00 ................
00409510 00 00 00 00 00 00 00 00 00 00 00 00 00 00 00 00 ................
00409520 00 00 00 00 00 00 00 00 00 00 00 00 00 00 00 00 ................
00409530 00 00 00 00 00 00 00 00 00 00 00 00 00 00 00 00 ................
00409540 00 00 00 00 00 00 00 00 00 00 00 00 00 00 00 00 ................
00409550 00 00 00 00 00 00 00 00 00 00 00 00 00 00 00 00 ................
00409560 00 00 00 00 00 00 00 00 00 00 00 00 00 00 00 00 ................
00409570 00 00 00 00 00 00 00 00 00 00 00 00 00 00 00 00 ................
00409580 00 00 00 00 00 00 00 00 00 00 00 00 00 00 00 00 ................
00409590 00 00 00 00 00 00 00 00 00 00 00 00 00 00 00 00 ................
004095A0 00 00 00 00 00 00 00 00 00 00 00 00 00 00 00 00 ................
004095B0 00 00 00 00 00 00 00 00 00 00 00 00 00 00 00 00 ................
004095C0 00 00 00 00 00 00 00 00 00 00 00 00 00 00 00 00 ................
004095D0 00 00 00 00 00 00 00 00 00 00 00 00 00 00 00 00 ................
004095E0 00 00 00 00 00 00 00 00 00 00 00 00 00 00 00 00 ................
004095F0 00 00 00 00 00 00 00 00 00 00 00 00 00 00 00 00 ................
00409600 00 00 00 00 00 00 00 00 00 00 00 00 00 00 00 00 ................
00409610 00 00 00 00 00 00 00 00 00 00 00 00 00 00 00 00 ................
00409620 00 00 00 00 00 00 00 00 00 00 00 00 00 00 00 00 ................
00409630 00 00 00 00 00 00 00 00 00 00 00 00 00 00 00 00 ................
00409640 00 00 00 00 00 00 00 00 00 00 00 00 00 00 00 00 ................
00409650 00 00 00 00 00 00 00 00 00 00 00 00 00 00 00 00 ................
00409660 00 00 00 00 00 00 00 00 00 00 00 00 00 00 00 00 ................
00409670 00 00 00 00 00 00 00 00 00 00 00 00 00 00 00 00 ................
00409680 00 00 00 00 00 00 00 00 00 00 00 00 00 00 00 00 ................
00409690 00 00 00 00 00 00 00 00 00 00 00 00 00 00 00 00 ................
004096A0 00 00 00 00 00 00 00 00 00 00 00 00 00 00 00 00 ................
004096B0 00 00 00 00 00 00 00 00 00 00 00 00 00 00 00 00 ................
004096C0 00 00 00 00 00 00 00 00 00 00 00 00 00 00 00 00 ................
004096D0 00 00 00 00 00 00 00 00 00 00 00 00 00 00 00 00 ................
004096E0 00 00 00 00 00 00 00 00 00 00 00 00 00 00 00 00 ................
004096F0 00 00 00 00 00 00 00 00 00 00 00 00 00 00 00 00 ................
00409700 00 00 00 00 00 00 00 00 00 00 00 00 00 00 00 00 ................
00409710 00 00 00 00 00 00 00 00 00 00 00 00 00 00 00 00 ................
00409720 00 00 00 00 00 00 00 00 00 00 00 00 00 00 00 00 ................
00409730 00 00 00 00 00 00 00 00 00 00 00 00 00 00 00 00 ................
00409740 00 00 00 00 00 00 00 00 00 00 00 00 00 00 00 00 ................
00409750 00 00 00 00 00 00 00 00 00 00 00 00 00 00 00 00 ................
00409760 00 00 00 00 00 00 00 00 00 00 00 00 00 00 00 00 ................
00409770 00 00 00 00 00 00 00 00 00 00 00 00 00 00 00 00 ................
00409780 00 00 00 00 00 00 00 00 00 00 00 00 00 00 00 00 ................
00409790 00 00 00 00 00 00 00 00 00 00 00 00 00 00 00 00 ................
004097A0 00 00 00 00 00 00 00 00 00 00 00 00 00 00 00 00 ................
004097B0 00 00 00 00 00 00 00 00 00 00 00 00 00 00 00 00 ................
004097C0 00 00 00 00 00 00 00 00 00 00 00 00 00 00 00 00 ................
004097D0 00 00 00 00 00 00 00 00 00 00 00 00 00 00 00 00 ................
004097E0 00 00 00 00 00 00 00 00 00 00 00 00 00 00 00 00 ................
004097F0 00 00 00 00 00 00 00 00 00 00 00 00 00 00 00 00 ................
00409800 00 00 00 00 00 00 00 00 00 00 00 00 00 00 00 00 ................
00409810 00 00 00 00 00 00 00 00 00 00 00 00 00 00 00 00 ................
00409820 00 00 00 00 00 00 00 00 00 00 00 00 00 00 00 00 ................
00409830 00 00 00 00 00 00 00 00 00 00 00 00 00 00 00 00 ................
00409840 00 00 00 00 00 00 00 00 00 00 00 00 00 00 00 00 ................
00409850 00 00 00 00 00 00 00 00 00 00 00 00 00 00 00 00 ................
00409860 00 00 00 00 00 00 00 00 00 00 00 00 00 00 00 00 ................
00409870 00 00 00 00 00 00 00 00 00 00 00 00 00 00 00 00 ................
00409880 00 00 00 00 00 00 00 00 00 00 00 00 00 00 00 00 ................
00409890 00 00 00 00 00 00 00 00 00 00 00 00 00 00 00 00 ................
004098A0 00 00 00 00 00 00 00 00 00 00 00 00 00 00 00 00 ................
004098B0 00 00 00 00 00 00 00 00 00 00 00 00 00 00 00 00 ................
004098C0 00 00 00 00 00 00 00 00 00 00 00 00 00 00 00 00 ................
004098D0 00 00 00 00 00 00 00 00 00 00 00 00 00 00 00 00 ................
004098E0 00 00 00 00 00 00 00 00 00 00 00 00 00 00 00 00 ................
004098F0 00 00 00 00 00 00 00 00 00 00 00 00 00 00 00 00 ................
00409900 00 00 00 00 00 00 00 00 00 00 00 00 00 00 00 00 ................
00409910 00 00 00 00 00 00 00 00 00 00 00 00 00 00 00 00 ................
00409920 00 00 00 00 00 00 00 00 00 00 00 00 00 00 00 00 ................
00409930 00 00 00 00 00 00 00 00 00 00 00 00 00 00 00 00 ................
00409940 00 00 00 00 00 00 00 00 00 00 00 00 00 00 00 00 ................
00409950 00 00 00 00 00 00 00 00 00 00 00 00 00 00 00 00 ................
00409960 00 00 00 00 00 00 00 00 00 00 00 00 00 00 00 00 ................
00409970 00 00 00 00 00 00 00 00 00 00 00 00 00 00 00 00 ................
00409980 00 00 00 00 00 00 00 00 00 00 00 00 00 00 00 00 ................
00409990 00 00 00 00 00 00 00 00 00 00 00 00 00 00 00 00 ................
004099A0 00 00 00 00 00 00 00 00 00 00 00 00 00 00 00 00 ................
004099B0 00 00 00 00 00 00 00 00 00 00 00 00 00 00 00 00 ................
004099C0 00 00 00 00 00 00 00 00 00 00 00 00 00 00 00 00 ................
004099D0 00 00 00 00 00 00 00 00 00 00 00 00 00 00 00 00 ................
004099E0 00 00 00 00 00 00 00 00 00 00 00 00 00 00 00 00 ................
004099F0 00 00 00 00 00 00 00 00 00 00 00 00 00 00 00 00 ................
00409A00 00 00 00 00 00 00 00 00 00 00 00 00 00 00 00 00 ................
00409A10 00 00 00 00 00 00 00 00 00 00 00 00 00 00 00 00 ................
00409A20 00 00 00 00 00 00 00 00 00 00 00 00 00 00 00 00 ................
00409A30 00 00 00 00 00 00 00 00 00 00 00 00 00 00 00 00 ................
00409A40 00 00 00 00 00 00 00 00 00 00 00 00 00 00 00 00 ................
00409A50 00 00 00 00 00 00 00 00 00 00 00 00 00 00 00 00 ................
00409A60 00 00 00 00 00 00 00 00 00 00 00 00 00 00 00 00 ................
00409A70 00 00 00 00 00 00 00 00 00 00 00 00 00 00 00 00 ................
00409A80 00 00 00 00 00 00 00 00 00 00 00 00 00 00 00 00 ................
00409A90 00 00 00 00 00 00 00 00 00 00 00 00 00 00 00 00 ................
00409AA0 00 00 00 00 00 00 00 00 00 00 00 00 00 00 00 00 ................
00409AB0 00 00 00 00 00 00 00 00 00 00 00 00 00 00 00 00 ................
00409AC0 00 00 00 00 00 00 00 00 00 00 00 00 00 00 00 00 ................
00409AD0 00 00 00 00 00 00 00 00 00 00 00 00 00 00 00 00 ................
00409AE0 00 00 00 00 00 00 00 00 00 00 00 00 00 00 00 00 ................
00409AF0 00 00 00 00 00 00 00 00 00 00 00 00 00 00 00 00 ................
00409B00 00 00 00 00 00 00 00 00 00 00 00 00 00 00 00 00 ................
00409B10 00 00 00 00 00 00 00 00 00 00 00 00 00 00 00 00 ................
00409B20 00 00 00 00 00 00 00 00 00 00 00 00 00 00 00 00 ................
00409B30 00 00 00 00 00 00 00 00 00 00 00 00 00 00 00 00 ................
00409B40 00 00 00 00 00 00 00 00 00 00 00 00 00 00 00 00 ................
00409B50 00 00 00 00 00 00 00 00 00 00 00 00 00 00 00 00 ................
00409B60 00 00 00 00 00 00 00 00 00 00 00 00 00 00 00 00 ................
00409B70 00 00 00 00 00 00 00 00 00 00 00 00 00 00 00 00 ................
00409B80 00 00 00 00 00 00 00 00 00 00 00 00 00 00 00 00 ................
00409B90 00 00 00 00 00 00 00 00 00 00 00 00 00 00 00 00 ................
00409BA0 00 00 00 00 00 00 00 00 00 00 00 00 00 00 00 00 ................
00409BB0 00 00 00 00 00 00 00 00 00 00 00 00 00 00 00 00 ................
00409BC0 00 00 00 00 00 00 00 00 00 00 00 00 00 00 00 00 ................
00409BD0 00 00 00 00 00 00 00 00 00 00 00 00 00 00 00 00 ................
00409BE0 00 00 00 00 00 00 00 00 00 00 00 00 00 00 00 00 ................
00409BF0 00 00 00 00 00 00 00 00 00 00 00 00 00 00 00 00 ................
00409C00 00 00 00 00 00 00 00 00 00 00 00 00 00 00 00 00 ................
00409C10 00 00 00 00 00 00 00 00 00 00 00 00 00 00 00 00 ................
00409C20 00 00 00 00 00 00 00 00 00 00 00 00 00 00 00 00 ................
00409C30 00 00 00 00 00 00 00 00 00 00 00 00 00 00 00 00 ................
00409C40 00 00 00 00 00 00 00 00 00 00 00 00 00 00 00 00 ................
00409C50 00 00 00 00 00 00 00 00 00 00 00 00 00 00 00 00 ................
00409C60 00 00 00 00 00 00 00 00 00 00 00 00 00 00 00 00 ................
00409C70 00 00 00 00 00 00 00 00 00 00 00 00 00 00 00 00 ................
00409C80 00 00 00 00 00 00 00 00 00 00 00 00 00 00 00 00 ................
00409C90 00 00 00 00 00 00 00 00 00 00 00 00 00 00 00 00 ................
00409CA0 00 00 00 00 00 00 00 00 00 00 00 00 00 00 00 00 ................
00409CB0 00 00 00 00 00 00 00 00 00 00 00 00 00 00 00 00 ................
00409CC0 00 00 00 00 00 00 00 00 00 00 00 00 00 00 00 00 ................
00409CD0 00 00 00 00 00 00 00 00 00 00 00 00 00 00 00 00 ................
00409CE0 00 00 00 00 00 00 00 00 00 00 00 00 00 00 00 00 ................
00409CF0 00 00 00 00 00 00 00 00 00 00 00 00 00 00 00 00 ................
00409D00 00 00 00 00 00 00 00 00 00 00 00 00 00 00 00 00 ................
00409D10 00 00 00 00 00 00 00 00 00 00 00 00 00 00 00 00 ................
00409D20 00 00 00 00 00 00 00 00 00 00 00 00 00 00 00 00 ................
00409D30 00 00 00 00 00 00 00 00 00 00 00 00 00 00 00 00 ................
00409D40 00 00 00 00 00 00 00 00 00 00 00 00 00 00 00 00 ................
00409D50 00 00 00 00 00 00 00 00 00 00 00 00 00 00 00 00 ................
00409D60 00 00 00 00 00 00 00 00 00 00 00 00 00 00 00 00 ................
00409D70 00 00 00 00 00 00 00 00 00 00 00 00 00 00 00 00 ................
00409D80 00 00 00 00 00 00 00 00 00 00 00 00 00 00 00 00 ................
00409D90 00 00 00 00 00 00 00 00 00 00 00 00 00 00 00 00 ................
00409DA0 00 00 00 00 00 00 00 00 00 00 00 00 00 00 00 00 ................
00409DB0 00 00 00 00 00 00 00 00 00 00 00 00 00 00 00 00 ................
00409DC0 00 00 00 00 00 00 00 00 00 00 00 00 00 00 00 00 ................
00409DD0 00 00 00 00 00 00 00 00 00 00 00 00 00 00 00 00 ................
00409DE0 00 00 00 00 00 00 00 00 00 00 00 00 00 00 00 00 ................
00409DF0 00 00 00 00 00 00 00 00 00 00 00 00 00 00 00 00 ................
00409E00 00 00 00 00 00 00 00 00 00 00 00 00 00 00 00 00 ................
00409E10 00 00 00 00 00 00 00 00 00 00 00 00 00 00 00 00 ................
00409E20 00 00 00 00 00 00 00 00 00 00 00 00 00 00 00 00 ................
00409E30 00 00 00 00 00 00 00 00 00 00 00 00 00 00 00 00 ................
00409E40 00 00 00 00 00 00 00 00 00 00 00 00 00 00 00 00 ................
00409E50 00 00 00 00 00 00 00 00 00 00 00 00 00 00 00 00 ................
00409E60 00 00 00 00 00 00 00 00 00 00 00 00 00 00 00 00 ................
00409E70 00 00 00 00 00 00 00 00 00 00 00 00 00 00 00 00 ................
00409E80 00 00 00 00 00 00 00 00 00 00 00 00 00 00 00 00 ................
00409E90 00 00 00 00 00 00 00 00 00 00 00 00 00 00 00 00 ................
00409EA0 00 00 00 00 00 00 00 00 00 00 00 00 00 00 00 00 ................
00409EB0 00 00 00 00 00 00 00 00 00 00 00 00 00 00 00 00 ................
00409EC0 00 00 00 00 00 00 00 00 00 00 00 00 00 00 00 00 ................
00409ED0 00 00 00 00 00 00 00 00 00 00 00 00 00 00 00 00 ................
00409EE0 00 00 00 00 00 00 00 00 00 00 00 00 00 00 00 00 ................
00409EF0 00 00 00 00 00 00 00 00 00 00 00 00 00 00 00 00 ................
00409F00 00 00 00 00 00 00 00 00 00 00 00 00 00 00 00 00 ................
00409F10 00 00 00 00 00 00 00 00 00 00 00 00 00 00 00 00 ................
00409F20 00 00 00 00 00 00 00 00 00 00 00 00 00 00 00 00 ................
00409F30 00 00 00 00 00 00 00 00 00 00 00 00 00 00 00 00 ................
00409F40 00 00 00 00 00 00 00 00 00 00 00 00 00 00 00 00 ................
00409F50 00 00 00 00 00 00 00 00 00 00 00 00 00 00 00 00 ................
00409F60 00 00 00 00 00 00 00 00 00 00 00 00 00 00 00 00 ................
00409F70 00 00 00 00 00 00 00 00 00 00 00 00 00 00 00 00 ................
00409F80 00 00 00 00 00 00 00 00 00 00 00 00 00 00 00 00 ................
00409F90 00 00 00 00 00 00 00 00 00 00 00 00 00 00 00 00 ................
00409FA0 00 00 00 00 00 00 00 00 00 00 00 00 00 00 00 00 ................
00409FB0 00 00 00 00 00 00 00 00 00 00 00 00 00 00 00 00 ................
00409FC0 00 00 00 00 00 00 00 00 00 00 00 00 00 00 00 00 ................
00409FD0 00 00 00 00 00 00 00 00 00 00 00 00 00 00 00 00 ................
00409FE0 00 00 00 00 00 00 00 00 00 00 00 00 00 00 00 00 ................
00409FF0 00 00 00 00 00 00 00 00 00 00 00 00 00 00 00 00 ................
0040A000 00 00 00 00 00 00 00 00 00 00 00 00 00 00 00 00 ................
0040A010 00 00 00 00 00 00 00 00 00 00 00 00 00 00 00 00 ................
0040A020 00 00 00 00 00 00 00 00 00 00 00 00 00 00 00 00 ................
0040A030 00 00 00 00 00 00 00 00 00 00 00 00 00 00 00 00 ................
0040A040 00 00 00 00 00 00 00 00 00 00 00 00 00 00 00 00 ................
0040A050 00 00 00 00 00 00 00 00 00 00 00 00 00 00 00 00 ................
0040A060 00 00 00 00 00 00 00 00 00 00 00 00 00 00 00 00 ................
0040A070 00 00 00 00 00 00 00 00 00 00 00 00 00 00 00 00 ................
0040A080 00 00 00 00 00 00 00 00 00 00 00 00 00 00 00 00 ................
0040A090 00 00 00 00 00 00 00 00 00 00 00 00 00 00 00 00 ................
0040A0A0 00 00 00 00 00 00 00 00 00 00 00 00 00 00 00 00 ................
0040A0B0 00 00 00 00 00 00 00 00 00 00 00 00 00 00 00 00 ................
0040A0C0 00 00 00 00 00 00 00 00 00 00 00 00 00 00 00 00 ................
0040A0D0 00 00 00 00 00 00 00 00 00 00 00 00 00 00 00 00 ................
0040A0E0 00 00 00 00 00 00 00 00 00 00 00 00 00 00 00 00 ................
0040A0F0 00 00 00 00 00 00 00 00 00 00 00 00 00 00 00 00 ................
0040A100 00 00 00 00 00 00 00 00 00 00 00 00 00 00 00 00 ................
0040A110 00 00 00 00 00 00 00 00 00 00 00 00 00 00 00 00 ................
0040A120 00 00 00 00 00 00 00 00 00 00 00 00 00 00 00 00 ................
0040A130 00 00 00 00 00 00 00 00 00 00 00 00 00 00 00 00 ................
0040A140 00 00 00 00 00 00 00 00 00 00 00 00 00 00 00 00 ................
0040A150 00 00 00 00 00 00 00 00 00 00 00 00 00 00 00 00 ................
0040A160 00 00 00 00 00 00 00 00 00 00 00 00 00 00 00 00 ................
0040A170 00 00 00 00 00 00 00 00 00 00 00 00 00 00 00 00 ................
0040A180 00 00 00 00 00 00 00 00 00 00 00 00 00 00 00 00 ................
0040A190 00 00 00 00 00 00 00 00 00 00 00 00 00 00 00 00 ................
0040A1A0 00 00 00 00 00 00 00 00 00 00 00 00 00 00 00 00 ................
0040A1B0 00 00 00 00 00 00 00 00 00 00 00 00 00 00 00 00 ................
0040A1C0 00 00 00 00 00 00 00 00 00 00 00 00 00 00 00 00 ................
0040A1D0 00 00 00 00 00 00 00 00 00 00 00 00 00 00 00 00 ................
0040A1E0 00 00 00 00 00 00 00 00 00 00 00 00 00 00 00 00 ................
0040A1F0 00 00 00 00 00 00 00 00 00 00 00 00 00 00 00 00 ................
0040A200 00 00 00 00 00 00 00 00 00 00 00 00 00 00 00 00 ................
0040A210 00 00 00 00 00 00 00 00 00 00 00 00 00 00 00 00 ................
0040A220 00 00 00 00 00 00 00 00 00 00 00 00 00 00 00 00 ................
0040A230 00 00 00 00 00 00 00 00 00 00 00 00 00 00 00 00 ................
0040A240 00 00 00 00 00 00 00 00 00 00 00 00 00 00 00 00 ................
0040A250 00 00 00 00 00 00 00 00 00 00 00 00 00 00 00 00 ................
0040A260 00 00 00 00 00 00 00 00 00 00 00 00 00 00 00 00 ................
0040A270 00 00 00 00 00 00 00 00 00 00 00 00 00 00 00 00 ................
0040A280 00 00 00 00 00 00 00 00 00 00 00 00 00 00 00 00 ................
0040A290 00 00 00 00 00 00 00 00 00 00 00 00 00 00 00 00 ................
0040A2A0 00 00 00 00 00 00 00 00 00 00 00 00 00 00 00 00 ................
0040A2B0 00 00 00 00 00 00 00 00 00 00 00 00 00 00 00 00 ................
0040A2C0 00 00 00 00 00 00 00 00 00 00 00 00 00 00 00 00 ................
0040A2D0 00 00 00 00 00 00 00 00 00 00 00 00 00 00 00 00 ................
0040A2E0 00 00 00 00 00 00 00 00 00 00 00 00 00 00 00 00 ................
0040A2F0 00 00 00 00 00 00 00 00 00 00 00 00 00 00 00 00 ................
0040A300 00 00 00 00 00 00 00 00 00 00 00 00 00 00 00 00 ................
0040A310 00 00 00 00 00 00 00 00 00 00 00 00 00 00 00 00 ................
0040A320 00 00 00 00 00 00 00 00 00 00 00 00 00 00 00 00 ................
0040A330 00 00 00 00 00 00 00 00 00 00 00 00 00 00 00 00 ................
0040A340 00 00 00 00 00 00 00 00 00 00 00 00 00 00 00 00 ................
0040A350 00 00 00 00 00 00 00 00 00 00 00 00 00 00 00 00 ................
0040A360 00 00 00 00 00 00 00 00 00 00 00 00 00 00 00 00 ................
0040A370 00 00 00 00 00 00 00 00 00 00 00 00 00 00 00 00 ................
0040A380 00 00 00 00 00 00 00 00 00 00 00 00 00 00 00 00 ................
0040A390 00 00 00 00 00 00 00 00 00 00 00 00 00 00 00 00 ................
0040A3A0 00 00 00 00 00 00 00 00 00 00 00 00 00 00 00 00 ................
0040A3B0 00 00 00 00 00 00 00 00 00 00 00 00 00 00 00 00 ................
0040A3C0 00 00 00 00 00 00 00 00 00 00 00 00 00 00 00 00 ................
0040A3D0 00 00 00 00 00 00 00 00 00 00 00 00 00 00 00 00 ................
0040A3E0 00 00 00 00 00 00 00 00 00 00 00 00 00 00 00 00 ................
0040A3F0 00 00 00 00 00 00 00 00 00 00 00 00 00 00 00 00 ................
0040A400 00 00 00 00 00 00 00 00 00 00 00 00 00 00 00 00 ................
0040A410 00 00 00 00 00 00 00 00 00 00 00 00 00 00 00 00 ................
0040A420 00 00 00 00 00 00 00 00 00 00 00 00 00 00 00 00 ................
0040A430 00 00 00 00 00 00 00 00 00 00 00 00 00 00 00 00 ................
0040A440 00 00 00 00 00 00 00 00 00 00 00 00 00 00 00 00 ................
0040A450 00 00 00 00 00 00 00 00 00 00 00 00 00 00 00 00 ................
0040A460 00 00 00 00 00 00 00 00 00 00 00 00 00 00 00 00 ................
0040A470 00 00 00 00 00 00 00 00 00 00 00 00 00 00 00 00 ................
0040A480 00 00 00 00 00 00 00 00 00 00 00 00 00 00 00 00 ................
0040A490 00 00 00 00 00 00 00 00 00 00 00 00 00 00 00 00 ................
0040A4A0 00 00 00 00 00 00 00 00 00 00 00 00 00 00 00 00 ................
0040A4B0 00 00 00 00 00 00 00 00 00 00 00 00 00 00 00 00 ................
0040A4C0 00 00 00 00 00 00 00 00 00 00 00 00 00 00 00 00 ................
0040A4D0 00 00 00 00 00 00 00 00 00 00 00 00 00 00 00 00 ................
0040A4E0 00 00 00 00 00 00 00 00 00 00 00 00 00 00 00 00 ................
0040A4F0 00 00 00 00 00 00 00 00 00 00 00 00 00 00 00 00 ................
0040A500 00 00 00 00 00 00 00 00 00 00 00 00 00 00 00 00 ................
0040A510 00 00 00 00 00 00 00 00 00 00 00 00 00 00 00 00 ................
0040A520 00 00 00 00 00 00 00 00 00 00 00 00 00 00 00 00 ................
0040A530 00 00 00 00 00 00 00 00 00 00 00 00 00 00 00 00 ................
0040A540 00 00 00 00 00 00 00 00 00 00 00 00 00 00 00 00 ................
0040A550 00 00 00 00 00 00 00 00 00 00 00 00 00 00 00 00 ................
0040A560 00 00 00 00 00 00 00 00 00 00 00 00 00 00 00 00 ................
0040A570 00 00 00 00 00 00 00 00 00 00 00 00 00 00 00 00 ................
0040A580 00 00 00 00 00 00 00 00 00 00 00 00 00 00 00 00 ................
0040A590 00 00 00 00 00 00 00 00 00 00 00 00 00 00 00 00 ................
0040A5A0 00 00 00 00 00 00 00 00 00 00 00 00 00 00 00 00 ................
0040A5B0 00 00 00 00 00 00 00 00 00 00 00 00 00 00 00 00 ................
0040A5C0 00 00 00 00 00 00 00 00 00 00 00 00 00 00 00 00 ................
0040A5D0 00 00 00 00 00 00 00 00 00 00 00 00 00 00 00 00 ................
0040A5E0 00 00 00 00 00 00 00 00 00 00 00 00 00 00 00 00 ................
0040A5F0 00 00 00 00 00 00 00 00 00 00 00 00 00 00 00 00 ................
0040A600 00 00 00 00 00 00 00 00 00 00 00 00 00 00 00 00 ................
0040A610 00 00 00 00 00 00 00 00 00 00 00 00 00 00 00 00 ................
0040A620 00 00 00 00 00 00 00 00 00 00 00 00 00 00 00 00 ................
0040A630 00 00 00 00 00 00 00 00 00 00 00 00 00 00 00 00 ................
0040A640 00 00 00 00 00 00 00 00 00 00 00 00 00 00 00 00 ................
0040A650 00 00 00 00 00 00 00 00 00 00 00 00 00 00 00 00 ................
0040A660 00 00 00 00 00 00 00 00 00 00 00 00 00 00 00 00 ................
0040A670 00 00 00 00 00 00 00 00 00 00 00 00 00 00 00 00 ................
0040A680 00 00 00 00 00 00 00 00 00 00 00 00 00 00 00 00 ................
0040A690 00 00 00 00 00 00 00 00 00 00 00 00 00 00 00 00 ................
0040A6A0 00 00 00 00 00 00 00 00 00 00 00 00 00 00 00 00 ................
0040A6B0 00 00 00 00 00 00 00 00 00 00 00 00 00 00 00 00 ................
0040A6C0 00 00 00 00 00 00 00 00 00 00 00 00 00 00 00 00 ................
0040A6D0 00 00 00 00 00 00 00 00 00 00 00 00 00 00 00 00 ................
0040A6E0 00 00 00 00 00 00 00 00 00 00 00 00 00 00 00 00 ................
0040A6F0 00 00 00 00 00 00 00 00 00 00 00 00 00 00 00 00 ................
0040A700 00 00 00 00 00 00 00 00 00 00 00 00 00 00 00 00 ................
0040A710 00 00 00 00 00 00 00 00 00 00 00 00 00 00 00 00 ................
0040A720 00 00 00 00 00 00 00 00 00 00 00 00 00 00 00 00 ................
0040A730 00 00 00 00 00 00 00 00 00 00 00 00 00 00 00 00 ................
0040A740 00 00 00 00 00 00 00 00 00 00 00 00 00 00 00 00 ................
0040A750 00 00 00 00 00 00 00 00 00 00 00 00 00 00 00 00 ................
0040A760 00 00 00 00 00 00 00 00 00 00 00 00 00 00 00 00 ................
0040A770 00 00 00 00 00 00 00 00 00 00 00 00 00 00 00 00 ................
0040A780 00 00 00 00 00 00 00 00 00 00 00 00 00 00 00 00 ................
0040A790 00 00 00 00 00 00 00 00 00 00 00 00 00 00 00 00 ................
0040A7A0 00 00 00 00 00 00 00 00 00 00 00 00 00 00 00 00 ................
0040A7B0 00 00 00 00 00 00 00 00 00 00 00 00 00 00 00 00 ................
0040A7C0 00 00 00 00 00 00 00 00 00 00 00 00 00 00 00 00 ................
0040A7D0 00 00 00 00 00 00 00 00 00 00 00 00 00 00 00 00 ................
0040A7E0 00 00 00 00 00 00 00 00 00 00 00 00 00 00 00 00 ................
0040A7F0 00 00 00 00 00 00 00 00 00 00 00 00 00 00 00 00 ................
0040A800 00 00 00 00 00 00 00 00 00 00 00 00 00 00 00 00 ................
0040A810 00 00 00 00 00 00 00 00 00 00 00 00 00 00 00 00 ................
0040A820 00 00 00 00 00 00 00 00 00 00 00 00 00 00 00 00 ................
0040A830 00 00 00 00 00 00 00 00 00 00 00 00 00 00 00 00 ................
0040A840 00 00 00 00 00 00 00 00 00 00 00 00 00 00 00 00 ................
0040A850 00 00 00 00 00 00 00 00 00 00 00 00 00 00 00 00 ................
0040A860 00 00 00 00 00 00 00 00 00 00 00 00 00 00 00 00 ................
0040A870 00 00 00 00 00 00 00 00 00 00 00 00 00 00 00 00 ................
0040A880 00 00 00 00 00 00 00 00 00 00 00 00 00 00 00 00 ................
0040A890 00 00 00 00 00 00 00 00 00 00 00 00 00 00 00 00 ................
0040A8A0 00 00 00 00 00 00 00 00 00 00 00 00 00 00 00 00 ................
0040A8B0 00 00 00 00 00 00 00 00 00 00 00 00 00 00 00 00 ................
0040A8C0 00 00 00 00 00 00 00 00 00 00 00 00 00 00 00 00 ................
0040A8D0 00 00 00 00 00 00 00 00 00 00 00 00 00 00 00 00 ................
0040A8E0 00 00 00 00 00 00 00 00 00 00 00 00 00 00 00 00 ................
0040A8F0 00 00 00 00 00 00 00 00 00 00 00 00 00 00 00 00 ................
0040A900 00 00 00 00 00 00 00 00 00 00 00 00 00 00 00 00 ................
0040A910 00 00 00 00 00 00 00 00 00 00 00 00 00 00 00 00 ................
0040A920 00 00 00 00 00 00 00 00 00 00 00 00 00 00 00 00 ................
0040A930 00 00 00 00 00 00 00 00 00 00 00 00 00 00 00 00 ................
0040A940 00 00 00 00 00 00 00 00 00 00 00 00 00 00 00 00 ................
0040A950 00 00 00 00 00 00 00 00 00 00 00 00 00 00 00 00 ................
0040A960 00 00 00 00 00 00 00 00 00 00 00 00 00 00 00 00 ................
0040A970 00 00 00 00 00 00 00 00 00 00 00 00 00 00 00 00 ................
0040A980 00 00 00 00 00 00 00 00 00 00 00 00 00 00 00 00 ................
0040A990 00 00 00 00 00 00 00 00 00 00 00 00 00 00 00 00 ................
0040A9A0 00 00 00 00 00 00 00 00 00 00 00 00 00 00 00 00 ................
0040A9B0 00 00 00 00 00 00 00 00 00 00 00 00 00 00 00 00 ................
0040A9C0 00 00 00 00 00 00 00 00 00 00 00 00 00 00 00 00 ................
0040A9D0 00 00 00 00 00 00 00 00 00 00 00 00 00 00 00 00 ................
0040A9E0 00 00 00 00 00 00 00 00 00 00 00 00 00 00 00 00 ................
0040A9F0 00 00 00 00 00 00 00 00 00 00 00 00 00 00 00 00 ................
0040AA00 00 00 00 00 00 00 00 00 00 00 00 00 00 00 00 00 ................
0040AA10 00 00 00 00 00 00 00 00 00 00 00 00 00 00 00 00 ................
0040AA20 00 00 00 00 00 00 00 00 00 00 00 00 00 00 00 00 ................
0040AA30 00 00 00 00 00 00 00 00 00 00 00 00 00 00 00 00 ................
0040AA40 00 00 00 00 00 00 00 00 00 00 00 00 00 00 00 00 ................
0040AA50 00 00 00 00 00 00 00 00 00 00 00 00 00 00 00 00 ................
0040AA60 00 00 00 00 00 00 00 00 00 00 00 00 00 00 00 00 ................
0040AA70 00 00 00 00 00 00 00 00 00 00 00 00 00 00 00 00 ................
0040AA80 00 00 00 00 00 00 00 00 00 00 00 00 00 00 00 00 ................
0040AA90 00 00 00 00 00 00 00 00 00 00 00 00 00 00 00 00 ................
0040AAA0 00 00 00 00 00 00 00 00 00 00 00 00 00 00 00 00 ................
0040AAB0 00 00 00 00 00 00 00 00 00 00 00 00 00 00 00 00 ................
0040AAC0 00 00 00 00 00 00 00 00 00 00 00 00 00 00 00 00 ................
0040AAD0 00 00 00 00 00 00 00 00 00 00 00 00 00 00 00 00 ................
0040AAE0 00 00 00 00 00 00 00 00 00 00 00 00 00 00 00 00 ................
0040AAF0 00 00 00 00 00 00 00 00 00 00 00 00 00 00 00 00 ................
0040AB00 00 00 00 00 00 00 00 00 00 00 00 00 00 00 00 00 ................
0040AB10 00 00 00 00 00 00 00 00 00 00 00 00 00 00 00 00 ................
0040AB20 00 00 00 00 00 00 00 00 00 00 00 00 00 00 00 00 ................
0040AB30 00 00 00 00 00 00 00 00 00 00 00 00 00 00 00 00 ................
0040AB40 00 00 00 00 00 00 00 00 00 00 00 00 00 00 00 00 ................
0040AB50 00 00 00 00 00 00 00 00 00 00 00 00 00 00 00 00 ................
0040AB60 00 00 00 00 00 00 00 00 00 00 00 00 00 00 00 00 ................
0040AB70 00 00 00 00 00 00 00 00 00 00 00 00 00 00 00 00 ................
0040AB80 00 00 00 00 00 00 00 00 00 00 00 00 00 00 00 00 ................
0040AB90 00 00 00 00 00 00 00 00 00 00 00 00 00 00 00 00 ................
0040ABA0 00 00 00 00 00 00 00 00 00 00 00 00 00 00 00 00 ................
0040ABB0 00 00 00 00 00 00 00 00 00 00 00 00 00 00 00 00 ................
0040ABC0 00 00 00 00 00 00 00 00 00 00 00 00 00 00 00 00 ................
0040ABD0 00 00 00 00 00 00 00 00 00 00 00 00 00 00 00 00 ................
0040ABE0 00 00 00 00 00 00 00 00 00 00 00 00 00 00 00 00 ................
0040ABF0 00 00 00 00 00 00 00 00 00 00 00 00 00 00 00 00 ................
0040AC00 00 00 00 00 00 00 00 00 00 00 00 00 00 00 00 00 ................
0040AC10 00 00 00 00 00 00 00 00 00 00 00 00 00 00 00 00 ................
0040AC20 00 00 00 00 00 00 00 00 00 00 00 00 00 00 00 00 ................
0040AC30 00 00 00 00 00 00 00 00 00 00 00 00 00 00 00 00 ................
0040AC40 00 00 00 00 00 00 00 00 00 00 00 00 00 00 00 00 ................
0040AC50 00 00 00 00 00 00 00 00 00 00 00 00 00 00 00 00 ................
0040AC60 00 00 00 00 00 00 00 00 00 00 00 00 00 00 00 00 ................
0040AC70 00 00 00 00 00 00 00 00 00 00 00 00 00 00 00 00 ................
0040AC80 00 00 00 00 00 00 00 00 00 00 00 00 00 00 00 00 ................
0040AC90 00 00 00 00 00 00 00 00 00 00 00 00 00 00 00 00 ................
0040ACA0 00 00 00 00 00 00 00 00 00 00 00 00 00 00 00 00 ................
0040ACB0 00 00 00 00 00 00 00 00 00 00 00 00 00 00 00 00 ................
0040ACC0 00 00 00 00 00 00 00 00 00 00 00 00 00 00 00 00 ................
0040ACD0 00 00 00 00 00 00 00 00 00 00 00 00 00 00 00 00 ................
0040ACE0 00 00 00 00 00 00 00 00 00 00 00 00 00 00 00 00 ................
0040ACF0 00 00 00 00 00 00 00 00 00 00 00 00 00 00 00 00 ................
0040AD00 00 00 00 00 00 00 00 00 00 00 00 00 00 00 00 00 ................
0040AD10 00 00 00 00 00 00 00 00 00 00 00 00 00 00 00 00 ................
0040AD20 00 00 00 00 00 00 00 00 00 00 00 00 00 00 00 00 ................
0040AD30 00 00 00 00 00 00 00 00 00 00 00 00 00 00 00 00 ................
0040AD40 00 00 00 00 00 00 00 00 00 00 00 00 00 00 00 00 ................
0040AD50 00 00 00 00 00 00 00 00 00 00 00 00 00 00 00 00 ................
0040AD60 00 00 00 00 00 00 00 00 00 00 00 00 00 00 00 00 ................
0040AD70 00 00 00 00 00 00 00 00 00 00 00 00 00 00 00 00 ................
0040AD80 00 00 00 00 00 00 00 00 00 00 00 00 00 00 00 00 ................
0040AD90 00 00 00 00 00 00 00 00 00 00 00 00 00 00 00 00 ................
0040ADA0 00 00 00 00 00 00 00 00 00 00 00 00 00 00 00 00 ................
0040ADB0 00 00 00 00 00 00 00 00 00 00 00 00 00 00 00 00 ................
0040ADC0 00 00 00 00 00 00 00 00 00 00 00 00 00 00 00 00 ................
0040ADD0 00 00 00 00 00 00 00 00 00 00 00 00 00 00 00 00 ................
0040ADE0 00 00 00 00 00 00 00 00 00 00 00 00 00 00 00 00 ................
0040ADF0 00 00 00 00 00 00 00 00 00 00 00 00 00 00 00 00 ................
0040AE00 00 00 00 00 00 00 00 00 00 00 00 00 00 00 00 00 ................
0040AE10 00 00 00 00 00 00 00 00 00 00 00 00 00 00 00 00 ................
0040AE20 00 00 00 00 00 00 00 00 00 00 00 00 00 00 00 00 ................
0040AE30 00 00 00 00 00 00 00 00 00 00 00 00 00 00 00 00 ................
0040AE40 00 00 00 00 00 00 00 00 00 00 00 00 00 00 00 00 ................
0040AE50 00 00 00 00 00 00 00 00 00 00 00 00 00 00 00 00 ................
0040AE60 00 00 00 00 00 00 00 00 00 00 00 00 00 00 00 00 ................
0040AE70 00 00 00 00 00 00 00 00 00 00 00 00 00 00 00 00 ................
0040AE80 00 00 00 00 00 00 00 00 00 00 00 00 00 00 00 00 ................
0040AE90 00 00 00 00 00 00 00 00 00 00 00 00 00 00 00 00 ................
0040AEA0 00 00 00 00 00 00 00 00 00 00 00 00 00 00 00 00 ................
0040AEB0 00 00 00 00 00 00 00 00 00 00 00 00 00 00 00 00 ................
0040AEC0 00 00 00 00 00 00 00 00 00 00 00 00 00 00 00 00 ................
0040AED0 00 00 00 00 00 00 00 00 00 00 00 00 00 00 00 00 ................
0040AEE0 00 00 00 00 00 00 00 00 00 00 00 00 00 00 00 00 ................
0040AEF0 00 00 00 00 00 00 00 00 00 00 00 00 00 00 00 00 ................
0040AF00 00 00 00 00 00 00 00 00 00 00 00 00 00 00 00 00 ................
0040AF10 00 00 00 00 00 00 00 00 00 00 00 00 00 00 00 00 ................
0040AF20 00 00 00 00 00 00 00 00 00 00 00 00 00 00 00 00 ................
0040AF30 00 00 00 00 00 00 00 00 00 00 00 00 00 00 00 00 ................
0040AF40 00 00 00 00 00 00 00 00 00 00 00 00 00 00 00 00 ................
0040AF50 00 00 00 00 00 00 00 00 00 00 00 00 00 00 00 00 ................
0040AF60 00 00 00 00 00 00 00 00 00 00 00 00 00 00 00 00 ................
0040AF70 00 00 00 00 00 00 00 00 00 00 00 00 00 00 00 00 ................
0040AF80 00 00 00 00 00 00 00 00 00 00 00 00 00 00 00 00 ................
0040AF90 00 00 00 00 00 00 00 00 00 00 00 00 00 00 00 00 ................
0040AFA0 00 00 00 00 00 00 00 00 00 00 00 00 00 00 00 00 ................
0040AFB0 00 00 00 00 00 00 00 00 00 00 00 00 00 00 00 00 ................
0040AFC0 00 00 00 00 00 00 00 00 00 00 00 00 00 00 00 00 ................
0040AFD0 00 00 00 00 00 00 00 00 00 00 00 00 00 00 00 00 ................
0040AFE0 00 00 00 00 00 00 00 00 00 00 00 00 00 00 00 00 ................
0040AFF0 00 00 00 00 00 00 00 00 00 00 00 00 00 00 00 00 ................
0040B000 00 00 00 00 00 00 00 00 00 00 00 00 00 00 00 00 ................
0040B010 00 00 00 00 00 00 00 00 00 00 00 00 00 00 00 00 ................
0040B020 00 00 00 00 00 00 00 00 00 00 00 00 00 00 00 00 ................
0040B030 00 00 00 00 00 00 00 00 00 00 00 00 00 00 00 00 ................
0040B040 00 00 00 00 00 00 00 00 00 00 00 00 00 00 00 00 ................
0040B050 00 00 00 00 00 00 00 00 00 00 00 00 00 00 00 00 ................
0040B060 00 00 00 00 00 00 00 00 00 00 00 00 00 00 00 00 ................
0040B070 00 00 00 00 00 00 00 00 00 00 00 00 00 00 00 00 ................
0040B080 00 00 00 00 00 00 00 00 00 00 00 00 00 00 00 00 ................
0040B090 00 00 00 00 00 00 00 00 00 00 00 00 00 00 00 00 ................
0040B0A0 00 00 00 00 00 00 00 00 00 00 00 00 00 00 00 00 ................
0040B0B0 00 00 00 00 00 00 00 00 00 00 00 00 00 00 00 00 ................
0040B0C0 00 00 00 00 00 00 00 00 00 00 00 00 00 00 00 00 ................
0040B0D0 00 00 00 00 00 00 00 00 00 00 00 00 00 00 00 00 ................
0040B0E0 00 00 00 00 00 00 00 00 00 00 00 00 00 00 00 00 ................
0040B0F0 00 00 00 00 00 00 00 00 00 00 00 00 00 00 00 00 ................
0040B100 00 00 00 00 00 00 00 00 00 00 00 00 00 00 00 00 ................
0040B110 00 00 00 00 00 00 00 00 00 00 00 00 00 00 00 00 ................
0040B120 00 00 00 00 00 00 00 00 00 00 00 00 00 00 00 00 ................
0040B130 00 00 00 00 00 00 00 00 00 00 00 00 00 00 00 00 ................
0040B140 00 00 00 00 00 00 00 00 00 00 00 00 00 00 00 00 ................
0040B150 00 00 00 00 00 00 00 00 00 00 00 00 00 00 00 00 ................
0040B160 00 00 00 00 00 00 00 00 00 00 00 00 00 00 00 00 ................
0040B170 00 00 00 00 00 00 00 00 00 00 00 00 00 00 00 00 ................
0040B180 00 00 00 00 00 00 00 00 00 00 00 00 00 00 00 00 ................
0040B190 00 00 00 00 00 00 00 00 00 00 00 00 00 00 00 00 ................
0040B1A0 00 00 00 00 00 00 00 00 00 00 00 00 00 00 00 00 ................
0040B1B0 00 00 00 00 00 00 00 00 00 00 00 00 00 00 00 00 ................
0040B1C0 00 00 00 00 00 00 00 00 00 00 00 00 00 00 00 00 ................
0040B1D0 00 00 00 00 00 00 00 00 00 00 00 00 00 00 00 00 ................
0040B1E0 00 00 00 00 00 00 00 00 00 00 00 00 00 00 00 00 ................
0040B1F0 00 00 00 00 00 00 00 00 00 00 00 00 00 00 00 00 ................
0040B200 00 00 00 00 00 00 00 00 00 00 00 00 00 00 00 00 ................
0040B210 00 00 00 00 00 00 00 00 00 00 00 00 00 00 00 00 ................
0040B220 00 00 00 00 00 00 00 00 00 00 00 00 00 00 00 00 ................
0040B230 00 00 00 00 00 00 00 00 00 00 00 00 00 00 00 00 ................
0040B240 00 00 00 00 00 00 00 00 00 00 00 00 00 00 00 00 ................
0040B250 00 00 00 00 00 00 00 00 00 00 00 00 00 00 00 00 ................
0040B260 00 00 00 00 00 00 00 00 00 00 00 00 00 00 00 00 ................
0040B270 00 00 00 00 00 00 00 00 00 00 00 00 00 00 00 00 ................
0040B280 00 00 00 00 00 00 00 00 00 00 00 00 00 00 00 00 ................
0040B290 00 00 00 00 00 00 00 00 00 00 00 00 00 00 00 00 ................
0040B2A0 00 00 00 00 00 00 00 00 00 00 00 00 00 00 00 00 ................
0040B2B0 00 00 00 00 00 00 00 00 00 00 00 00 00 00 00 00 ................
0040B2C0 00 00 00 00 00 00 00 00 00 00 00 00 00 00 00 00 ................
0040B2D0 00 00 00 00 00 00 00 00 00 00 00 00 00 00 00 00 ................
0040B2E0 00 00 00 00 00 00 00 00 00 00 00 00 00 00 00 00 ................
0040B2F0 00 00 00 00 00 00 00 00 00 00 00 00 00 00 00 00 ................
0040B300 00 00 00 00 00 00 00 00 00 00 00 00 00 00 00 00 ................
0040B310 00 00 00 00 00 00 00 00 00 00 00 00 00 00 00 00 ................
0040B320 00 00 00 00 00 00 00 00 00 00 00 00 00 00 00 00 ................
0040B330 00 00 00 00 00 00 00 00 00 00 00 00 00 00 00 00 ................
0040B340 00 00 00 00 00 00 00 00 00 00 00 00 00 00 00 00 ................
0040B350 00 00 00 00 00 00 00 00 00 00 00 00 00 00 00 00 ................
0040B360 00 00 00 00 00 00 00 00 00 00 00 00 00 00 00 00 ................
0040B370 00 00 00 00 00 00 00 00 00 00 00 00 00 00 00 00 ................
0040B380 00 00 00 00 00 00 00 00 00 00 00 00 00 00 00 00 ................
0040B390 00 00 00 00 00 00 00 00 00 00 00 00 00 00 00 00 ................
0040B3A0 00 00 00 00 00 00 00 00 00 00 00 00 00 00 00 00 ................
0040B3B0 00 00 00 00 00 00 00 00 00 00 00 00 00 00 00 00 ................
0040B3C0 00 00 00 00 00 00 00 00 00 00 00 00 00 00 00 00 ................
0040B3D0 00 00 00 00 00 00 00 00 00 00 00 00 00 00 00 00 ................
0040B3E0 00 00 00 00 00 00 00 00 00 00 00 00 00 00 00 00 ................
0040B3F0 00 00 00 00 00 00 00 00 00 00 00 00 00 00 00 00 ................
0040B400 00 00 00 00 00 00 00 00 00 00 00 00 00 00 00 00 ................
0040B410 00 00 00 00 00 00 00 00 00 00 00 00 00 00 00 00 ................
0040B420 00 00 00 00 00 00 00 00 00 00 00 00 00 00 00 00 ................
0040B430 00 00 00 00 00 00 00 00 00 00 00 00 00 00 00 00 ................
0040B440 00 00 00 00 00 00 00 00 00 00 00 00 00 00 00 00 ................
0040B450 00 00 00 00 00 00 00 00 00 00 00 00 00 00 00 00 ................
0040B460 00 00 00 00 00 00 00 00 00 00 00 00 00 00 00 00 ................
0040B470 00 00 00 00 00 00 00 00 00 00 00 00 00 00 00 00 ................
0040B480 00 00 00 00 00 00 00 00 00 00 00 00 00 00 00 00 ................
0040B490 00 00 00 00 00 00 00 00 00 00 00 00 00 00 00 00 ................
0040B4A0 00 00 00 00 00 00 00 00 00 00 00 00 00 00 00 00 ................
0040B4B0 00 00 00 00 00 00 00 00 00 00 00 00 00 00 00 00 ................
0040B4C0 00 00 00 00 00 00 00 00 00 00 00 00 00 00 00 00 ................
0040B4D0 00 00 00 00 00 00 00 00 00 00 00 00 00 00 00 00 ................
0040B4E0 00 00 00 00 00 00 00 00 00 00 00 00 00 00 00 00 ................
0040B4F0 00 00 00 00 00 00 00 00 00 00 00 00 00 00 00 00 ................
0040B500 00 00 00 00 00 00 00 00 00 00 00 00 00 00 00 00 ................
0040B510 00 00 00 00 00 00 00 00 00 00 00 00 00 00 00 00 ................
0040B520 00 00 00 00 00 00 00 00 00 00 00 00 00 00 00 00 ................
0040B530 00 00 00 00 00 00 00 00 00 00 00 00 00 00 00 00 ................
0040B540 00 00 00 00 00 00 00 00 00 00 00 00 00 00 00 00 ................
0040B550 00 00 00 00 00 00 00 00 00 00 00 00 00 00 00 00 ................
0040B560 00 00 00 00 00 00 00 00 00 00 00 00 00 00 00 00 ................
0040B570 00 00 00 00 00 00 00 00 00 00 00 00 00 00 00 00 ................
0040B580 00 00 00 00 00 00 00 00 00 00 00 00 00 00 00 00 ................
0040B590 00 00 00 00 00 00 00 00 00 00 00 00 00 00 00 00 ................
0040B5A0 00 00 00 00 00 00 00 00 00 00 00 00 00 00 00 00 ................
0040B5B0 00 00 00 00 00 00 00 00 00 00 00 00 00 00 00 00 ................
0040B5C0 00 00 00 00 00 00 00 00 00 00 00 00 00 00 00 00 ................
0040B5D0 00 00 00 00 00 00 00 00 00 00 00 00 00 00 00 00 ................
0040B5E0 00 00 00 00 00 00 00 00 00 00 00 00 00 00 00 00 ................
0040B5F0 00 00 00 00 00 00 00 00 00 00 00 00 00 00 00 00 ................
0040B600 00 00 00 00 00 00 00 00 00 00 00 00 00 00 00 00 ................
0040B610 00 00 00 00 00 00 00 00 00 00 00 00 00 00 00 00 ................
0040B620 00 00 00 00 00 00 00 00 00 00 00 00 00 00 00 00 ................
0040B630 00 00 00 00 00 00 00 00 00 00 00 00 00 00 00 00 ................
0040B640 00 00 00 00 00 00 00 00 00 00 00 00 00 00 00 00 ................
0040B650 00 00 00 00 00 00 00 00 00 00 00 00 00 00 00 00 ................
0040B660 00 00 00 00 00 00 00 00 00 00 00 00 00 00 00 00 ................
0040B670 00 00 00 00 00 00 00 00 00 00 00 00 00 00 00 00 ................
0040B680 00 00 00 00 00 00 00 00 00 00 00 00 00 00 00 00 ................
0040B690 00 00 00 00 00 00 00 00 00 00 00 00 00 00 00 00 ................
0040B6A0 00 00 00 00 00 00 00 00 00 00 00 00 00 00 00 00 ................
0040B6B0 00 00 00 00 00 00 00 00 00 00 00 00 00 00 00 00 ................
0040B6C0 00 00 00 00 00 00 00 00 00 00 00 00 00 00 00 00 ................
0040B6D0 00 00 00 00 00 00 00 00 00 00 00 00 00 00 00 00 ................
0040B6E0 00 00 00 00 00 00 00 00 00 00 00 00 00 00 00 00 ................
0040B6F0 00 00 00 00 00 00 00 00 00 00 00 00 00 00 00 00 ................
0040B700 00 00 00 00 00 00 00 00 00 00 00 00 00 00 00 00 ................
0040B710 00 00 00 00 00 00 00 00 00 00 00 00 00 00 00 00 ................
0040B720 00 00 00 00 00 00 00 00 00 00 00 00 00 00 00 00 ................
0040B730 00 00 00 00 00 00 00 00 00 00 00 00 00 00 00 00 ................
0040B740 00 00 00 00 00 00 00 00 00 00 00 00 00 00 00 00 ................
0040B750 00 00 00 00 00 00 00 00 00 00 00 00 00 00 00 00 ................
0040B760 00 00 00 00 00 00 00 00 00 00 00 00 00 00 00 00 ................
0040B770 00 00 00 00 00 00 00 00 00 00 00 00 00 00 00 00 ................
0040B780 00 00 00 00 00 00 00 00 00 00 00 00 00 00 00 00 ................
0040B790 00 00 00 00 00 00 00 00 00 00 00 00 00 00 00 00 ................
0040B7A0 00 00 00 00 00 00 00 00 00 00 00 00 00 00 00 00 ................
0040B7B0 00 00 00 00 00 00 00 00 00 00 00 00 00 00 00 00 ................
0040B7C0 00 00 00 00 00 00 00 00 00 00 00 00 00 00 00 00 ................
0040B7D0 00 00 00 00 00 00 00 00 00 00 00 00 00 00 00 00 ................
0040B7E0 00 00 00 00 00 00 00 00 00 00 00 00 00 00 00 00 ................
0040B7F0 00 00 00 00 00 00 00 00 00 00 00 00 00 00 00 00 ................
0040B800 00 00 00 00 00 00 00 00 00 00 00 00 00 00 00 00 ................
0040B810 00 00 00 00 00 00 00 00 00 00 00 00 00 00 00 00 ................
0040B820 00 00 00 00 00 00 00 00 00 00 00 00 00 00 00 00 ................
0040B830 00 00 00 00 00 00 00 00 00 00 00 00 00 00 00 00 ................
0040B840 00 00 00 00 00 00 00 00 00 00 00 00 00 00 00 00 ................
0040B850 00 00 00 00 00 00 00 00 00 00 00 00 00 00 00 00 ................
0040B860 00 00 00 00 00 00 00 00 00 00 00 00 00 00 00 00 ................
0040B870 00 00 00 00 00 00 00 00 00 00 00 00 00 00 00 00 ................
0040B880 00 00 00 00 00 00 00 00 00 00 00 00 00 00 00 00 ................
0040B890 00 00 00 00 00 00 00 00 00 00 00 00 00 00 00 00 ................
0040B8A0 00 00 00 00 00 00 00 00 00 00 00 00 00 00 00 00 ................
0040B8B0 00 00 00 00 00 00 00 00 00 00 00 00 00 00 00 00 ................
0040B8C0 00 00 00 00 00 00 00 00 00 00 00 00 00 00 00 00 ................
0040B8D0 00 00 00 00 00 00 00 00 00 00 00 00 00 00 00 00 ................
0040B8E0 00 00 00 00 00 00 00 00 00 00 00 00 00 00 00 00 ................
0040B8F0 00 00 00 00 00 00 00 00 00 00 00 00 00 00 00 00 ................
0040B900 00 00 00 00 00 00 00 00 00 00 00 00 00 00 00 00 ................
0040B910 00 00 00 00 00 00 00 00 00 00 00 00 00 00 00 00 ................
0040B920 00 00 00 00 00 00 00 00 00 00 00 00 00 00 00 00 ................
0040B930 00 00 00 00 00 00 00 00 00 00 00 00 00 00 00 00 ................
0040B940 00 00 00 00 00 00 00 00 00 00 00 00 00 00 00 00 ................
0040B950 00 00 00 00 00 00 00 00 00 00 00 00 00 00 00 00 ................
0040B960 00 00 00 00 00 00 00 00 00 00 00 00 00 00 00 00 ................
0040B970 00 00 00 00 00 00 00 00 00 00 00 00 00 00 00 00 ................
0040B980 00 00 00 00 00 00 00 00 00 00 00 00 00 00 00 00 ................
0040B990 00 00 00 00 00 00 00 00 00 00 00 00 00 00 00 00 ................
0040B9A0 00 00 00 00 00 00 00 00 00 00 00 00 00 00 00 00 ................
0040B9B0 00 00 00 00 00 00 00 00 00 00 00 00 00 00 00 00 ................
0040B9C0 00 00 00 00 00 00 00 00 00 00 00 00 00 00 00 00 ................
0040B9D0 00 00 00 00 00 00 00 00 00 00 00 00 00 00 00 00 ................
0040B9E0 00 00 00 00 00 00 00 00 00 00 00 00 00 00 00 00 ................
0040B9F0 00 00 00 00 00 00 00 00 00 00 00 00 00 00 00 00 ................
0040BA00 00 00 00 00 00 00 00 00 00 00 00 00 00 00 00 00 ................
0040BA10 00 00 00 00 00 00 00 00 00 00 00 00 00 00 00 00 ................
0040BA20 00 00 00 00 00 00 00 00 00 00 00 00 00 00 00 00 ................
0040BA30 00 00 00 00 00 00 00 00 00 00 00 00 00 00 00 00 ................
0040BA40 00 00 00 00 00 00 00 00 00 00 00 00 00 00 00 00 ................
0040BA50 00 00 00 00 00 00 00 00 00 00 00 00 00 00 00 00 ................
0040BA60 00 00 00 00 00 00 00 00 00 00 00 00 00 00 00 00 ................
0040BA70 00 00 00 00 00 00 00 00 00 00 00 00 00 00 00 00 ................
0040BA80 00 00 00 00 00 00 00 00 00 00 00 00 00 00 00 00 ................
0040BA90 00 00 00 00 00 00 00 00 00 00 00 00 00 00 00 00 ................
0040BAA0 00 00 00 00 00 00 00 00 00 00 00 00 00 00 00 00 ................
0040BAB0 00 00 00 00 00 00 00 00 00 00 00 00 00 00 00 00 ................
0040BAC0 00 00 00 00 00 00 00 00 00 00 00 00 00 00 00 00 ................
0040BAD0 00 00 00 00 00 00 00 00 00 00 00 00 00 00 00 00 ................
0040BAE0 00 00 00 00 00 00 00 00 00 00 00 00 00 00 00 00 ................
0040BAF0 00 00 00 00 00 00 00 00 00 00 00 00 00 00 00 00 ................
0040BB00 00 00 00 00 00 00 00 00 00 00 00 00 00 00 00 00 ................
0040BB10 00 00 00 00 00 00 00 00 00 00 00 00 00 00 00 00 ................
0040BB20 00 00 00 00 00 00 00 00 00 00 00 00 00 00 00 00 ................
0040BB30 00 00 00 00 00 00 00 00 00 00 00 00 00 00 00 00 ................
0040BB40 00 00 00 00 00 00 00 00 00 00 00 00 00 00 00 00 ................
0040BB50 00 00 00 00 00 00 00 00 00 00 00 00 00 00 00 00 ................
0040BB60 00 00 00 00 00 00 00 00 00 00 00 00 00 00 00 00 ................
0040BB70 00 00 00 00 00 00 00 00 00 00 00 00 00 00 00 00 ................
0040BB80 00 00 00 00 00 00 00 00 00 00 00 00 00 00 00 00 ................
0040BB90 00 00 00 00 00 00 00 00 00 00 00 00 00 00 00 00 ................
0040BBA0 00 00 00 00 00 00 00 00 00 00 00 00 00 00 00 00 ................
0040BBB0 00 00 00 00 00 00 00 00 00 00 00 00 00 00 00 00 ................
0040BBC0 00 00 00 00 00 00 00 00 00 00 00 00 00 00 00 00 ................
0040BBD0 00 00 00 00 00 00 00 00 00 00 00 00 00 00 00 00 ................
0040BBE0 00 00 00 00 00 00 00 00 00 00 00 00 00 00 00 00 ................
0040BBF0 00 00 00 00 00 00 00 00 00 00 00 00 00 00 00 00 ................
0040BC00 00 00 00 00 00 00 00 00 00 00 00 00 00 00 00 00 ................
0040BC10 00 00 00 00 00 00 00 00 00 00 00 00 00 00 00 00 ................
0040BC20 00 00 00 00 00 00 00 00 00 00 00 00 00 00 00 00 ................
0040BC30 00 00 00 00 00 00 00 00 00 00 00 00 00 00 00 00 ................
0040BC40 00 00 00 00 00 00 00 00 00 00 00 00 00 00 00 00 ................
0040BC50 00 00 00 00 00 00 00 00 00 00 00 00 00 00 00 00 ................
0040BC60 00 00 00 00 00 00 00 00 00 00 00 00 00 00 00 00 ................
0040BC70 00 00 00 00 00 00 00 00 00 00 00 00 00 00 00 00 ................
0040BC80 00 00 00 00 00 00 00 00 00 00 00 00 00 00 00 00 ................
0040BC90 00 00 00 00 00 00 00 00 00 00 00 00 00 00 00 00 ................
0040BCA0 00 00 00 00 00 00 00 00 00 00 00 00 00 00 00 00 ................
0040BCB0 00 00 00 00 00 00 00 00 00 00 00 00 00 00 00 00 ................
0040BCC0 00 00 00 00 00 00 00 00 00 00 00 00 00 00 00 00 ................
0040BCD0 00 00 00 00 00 00 00 00 00 00 00 00 00 00 00 00 ................
0040BCE0 00 00 00 00 00 00 00 00 00 00 00 00 00 00 00 00 ................
0040BCF0 00 00 00 00 00 00 00 00 00 00 00 00 00 00 00 00 ................
0040BD00 00 00 00 00 00 00 00 00 00 00 00 00 00 00 00 00 ................
0040BD10 00 00 00 00 00 00 00 00 00 00 00 00 00 00 00 00 ................
0040BD20 00 00 00 00 00 00 00 00 00 00 00 00 00 00 00 00 ................
0040BD30 00 00 00 00 00 00 00 00 00 00 00 00 00 00 00 00 ................
0040BD40 00 00 00 00 00 00 00 00 00 00 00 00 00 00 00 00 ................
0040BD50 00 00 00 00 00 00 00 00 00 00 00 00 00 00 00 00 ................
0040BD60 00 00 00 00 00 00 00 00 00 00 00 00 00 00 00 00 ................
0040BD70 00 00 00 00 00 00 00 00 00 00 00 00 00 00 00 00 ................
0040BD80 00 00 00 00 00 00 00 00 00 00 00 00 00 00 00 00 ................
0040BD90 00 00 00 00 00 00 00 00 00 00 00 00 00 00 00 00 ................
0040BDA0 00 00 00 00 00 00 00 00 00 00 00 00 00 00 00 00 ................
0040BDB0 00 00 00 00 00 00 00 00 00 00 00 00 00 00 00 00 ................
0040BDC0 00 00 00 00 00 00 00 00 00 00 00 00 00 00 00 00 ................
0040BDD0 00 00 00 00 00 00 00 00 00 00 00 00 00 00 00 00 ................
0040BDE0 00 00 00 00 00 00 00 00 00 00 00 00 00 00 00 00 ................
0040BDF0 00 00 00 00 00 00 00 00 00 00 00 00 00 00 00 00 ................
0040BE00 00 00 00 00 00 00 00 00 00 00 00 00 00 00 00 00 ................
0040BE10 00 00 00 00 00 00 00 00 00 00 00 00 00 00 00 00 ................
0040BE20 00 00 00 00 00 00 00 00 00 00 00 00 00 00 00 00 ................
0040BE30 00 00 00 00 00 00 00 00 00 00 00 00 00 00 00 00 ................
0040BE40 00 00 00 00 00 00 00 00 00 00 00 00 00 00 00 00 ................
0040BE50 00 00 00 00 00 00 00 00 00 00 00 00 00 00 00 00 ................
0040BE60 00 00 00 00 00 00 00 00 00 00 00 00 00 00 00 00 ................
0040BE70 00 00 00 00 00 00 00 00 00 00 00 00 00 00 00 00 ................
0040BE80 00 00 00 00 00 00 00 00 00 00 00 00 00 00 00 00 ................
0040BE90 00 00 00 00 00 00 00 00 00 00 00 00 00 00 00 00 ................
0040BEA0 00 00 00 00 00 00 00 00 00 00 00 00 00 00 00 00 ................
0040BEB0 00 00 00 00 00 00 00 00 00 00 00 00 00 00 00 00 ................
0040BEC0 00 00 00 00 00 00 00 00 00 00 00 00 00 00 00 00 ................
0040BED0 00 00 00 00 00 00 00 00 00 00 00 00 00 00 00 00 ................
0040BEE0 00 00 00 00 00 00 00 00 00 00 00 00 00 00 00 00 ................
0040BEF0 00 00 00 00 00 00 00 00 00 00 00 00 00 00 00 00 ................
0040BF00 00 00 00 00 00 00 00 00 00 00 00 00 00 00 00 00 ................
0040BF10 00 00 00 00 00 00 00 00 00 00 00 00 00 00 00 00 ................
0040BF20 00 00 00 00 00 00 00 00 00 00 00 00 00 00 00 00 ................
0040BF30 00 00 00 00 00 00 00 00 00 00 00 00 00 00 00 00 ................
0040BF40 00 00 00 00 00 00 00 00 00 00 00 00 00 00 00 00 ................
0040BF50 00 00 00 00 00 00 00 00 00 00 00 00 00 00 00 00 ................
0040BF60 00 00 00 00 00 00 00 00 00 00 00 00 00 00 00 00 ................
0040BF70 00 00 00 00 00 00 00 00 00 00 00 00 00 00 00 00 ................
0040BF80 00 00 00 00 00 00 00 00 00 00 00 00 00 00 00 00 ................
0040BF90 00 00 00 00 00 00 00 00 00 00 00 00 00 00 00 00 ................
0040BFA0 00 00 00 00 00 00 00 00 00 00 00 00 00 00 00 00 ................
0040BFB0 00 00 00 00 00 00 00 00 00 00 00 00 00 00 00 00 ................
0040BFC0 00 00 00 00 00 00 00 00 00 00 00 00 00 00 00 00 ................
0040BFD0 00 00 00 00 00 00 00 00 00 00 00 00 00 00 00 00 ................
0040BFE0 00 00 00 00 00 00 00 00 00 00 00 00 00 00 00 00 ................
0040BFF0 00 00 00 00 00 00 00 00 00 00 00 00 00 00 00 00 ................
0040C000 00 00 00 00 00 00 00 00 00 00 00 00 00 00 00 00 ................
0040C010 00 00 00 00 00 00 00 00 00 00 00 00 00 00 00 00 ................
0040C020 00 00 00 00 00 00 00 00 00 00 00 00 00 00 00 00 ................
0040C030 00 00 00 00 00 00 00 00 00 00 00 00 00 00 00 00 ................
0040C040 00 00 00 00 00 00 00 00 00 00 00 00 00 00 00 00 ................
0040C050 00 00 00 00 00 00 00 00 00 00 00 00 00 00 00 00 ................
0040C060 00 00 00 00 00 00 00 00 00 00 00 00 00 00 00 00 ................
0040C070 00 00 00 00 00 00 00 00 00 00 00 00 00 00 00 00 ................
0040C080 00 00 00 00 00 00 00 00 00 00 00 00 00 00 00 00 ................
0040C090 00 00 00 00 00 00 00 00 00 00 00 00 00 00 00 00 ................
0040C0A0 00 00 00 00 00 00 00 00 00 00 00 00 00 00 00 00 ................
0040C0B0 00 00 00 00 00 00 00 00 00 00 00 00 00 00 00 00 ................
0040C0C0 00 00 00 00 00 00 00 00 00 00 00 00 00 00 00 00 ................
0040C0D0 00 00 00 00 00 00 00 00 00 00 00 00 00 00 00 00 ................
0040C0E0 00 00 00 00 00 00 00 00 00 00 00 00 00 00 00 00 ................
0040C0F0 00 00 00 00 00 00 00 00 00 00 00 00 00 00 00 00 ................
0040C100 00 00 00 00 00 00 00 00 00 00 00 00 00 00 00 00 ................
0040C110 00 00 00 00 00 00 00 00 00 00 00 00 00 00 00 00 ................
0040C120 00 00 00 00 00 00 00 00 00 00 00 00 00 00 00 00 ................
0040C130 00 00 00 00 00 00 00 00 00 00 00 00 00 00 00 00 ................
0040C140 00 00 00 00 00 00 00 00 00 00 00 00 00 00 00 00 ................
0040C150 00 00 00 00 00 00 00 00 00 00 00 00 00 00 00 00 ................
0040C160 00 00 00 00 00 00 00 00 00 00 00 00 00 00 00 00 ................
0040C170 00 00 00 00 00 00 00 00 00 00 00 00 00 00 00 00 ................
0040C180 00 00 00 00 00 00 00 00 00 00 00 00 00 00 00 00 ................
0040C190 00 00 00 00 00 00 00 00 00 00 00 00 00 00 00 00 ................
0040C1A0 00 00 00 00 00 00 00 00 00 00 00 00 00 00 00 00 ................
0040C1B0 00 00 00 00 00 00 00 00 00 00 00 00 00 00 00 00 ................
0040C1C0 00 00 00 00 00 00 00 00 00 00 00 00 00 00 00 00 ................
0040C1D0 00 00 00 00 00 00 00 00 00 00 00 00 00 00 00 00 ................
0040C1E0 00 00 00 00 00 00 00 00 00 00 00 00 00 00 00 00 ................
0040C1F0 00 00 00 00 00 00 00 00 00 00 00 00 00 00 00 00 ................
0040C200 00 00 00 00 00 00 00 00 00 00 00 00 00 00 00 00 ................
0040C210 00 00 00 00 00 00 00 00 00 00 00 00 00 00 00 00 ................
0040C220 00 00 00 00 00 00 00 00 00 00 00 00 00 00 00 00 ................
0040C230 00 00 00 00 00 00 00 00 00 00 00 00 00 00 00 00 ................
0040C240 00 00 00 00 00 00 00 00 00 00 00 00 00 00 00 00 ................
0040C250 00 00 00 00 00 00 00 00 00 00 00 00 00 00 00 00 ................
0040C260 00 00 00 00 00 00 00 00 00 00 00 00 00 00 00 00 ................
0040C270 00 00 00 00 00 00 00 00 00 00 00 00 00 00 00 00 ................
0040C280 00 00 00 00 00 00 00 00 00 00 00 00 00 00 00 00 ................
0040C290 00 00 00 00 00 00 00 00 00 00 00 00 00 00 00 00 ................
0040C2A0 00 00 00 00 00 00 00 00 00 00 00 00 00 00 00 00 ................
0040C2B0 00 00 00 00 00 00 00 00 00 00 00 00 00 00 00 00 ................
0040C2C0 00 00 00 00 00 00 00 00 00 00 00 00 00 00 00 00 ................
0040C2D0 00 00 00 00 00 00 00 00 00 00 00 00 00 00 00 00 ................
0040C2E0 00 00 00 00 00 00 00 00 00 00 00 00 00 00 00 00 ................
0040C2F0 00 00 00 00 00 00 00 00 00 00 00 00 00 00 00 00 ................
0040C300 00 00 00 00 00 00 00 00 00 00 00 00 00 00 00 00 ................
0040C310 00 00 00 00 00 00 00 00 00 00 00 00 00 00 00 00 ................
0040C320 00 00 00 00 00 00 00 00 00 00 00 00 00 00 00 00 ................
0040C330 00 00 00 00 00 00 00 00 00 00 00 00 00 00 00 00 ................
0040C340 00 00 00 00 00 00 00 00 00 00 00 00 00 00 00 00 ................
0040C350 00 00 00 00 00 00 00 00 00 00 00 00 00 00 00 00 ................
0040C360 00 00 00 00 00 00 00 00 00 00 00 00 00 00 00 00 ................
0040C370 00 00 00 00 00 00 00 00 00 00 00 00 00 00 00 00 ................
0040C380 00 00 00 00 00 00 00 00 00 00 00 00 00 00 00 00 ................
0040C390 00 00 00 00 00 00 00 00 00 00 00 00 00 00 00 00 ................
0040C3A0 00 00 00 00 00 00 00 00 00 00 00 00 00 00 00 00 ................
0040C3B0 00 00 00 00 00 00 00 00 00 00 00 00 00 00 00 00 ................
0040C3C0 00 00 00 00 00 00 00 00 00 00 00 00 00 00 00 00 ................
0040C3D0 00 00 00 00 00 00 00 00 00 00 00 00 00 00 00 00 ................
0040C3E0 00 00 00 00 00 00 00 00 00 00 00 00 00 00 00 00 ................
0040C3F0 00 00 00 00 00 00 00 00 00 00 00 00 00 00 00 00 ................
0040C400 00 00 00 00 00 00 00 00 00 00 00 00 00 00 00 00 ................
0040C410 00 00 00 00 00 00 00 00 00 00 00 00 00 00 00 00 ................
0040C420 00 00 00 00 00 00 00 00 00 00 00 00 00 00 00 00 ................
0040C430 00 00 00 00 00 00 00 00 00 00 00 00 00 00 00 00 ................
0040C440 00 00 00 00 00 00 00 00 00 00 00 00 00 00 00 00 ................
0040C450 00 00 00 00 00 00 00 00 00 00 00 00 00 00 00 00 ................
0040C460 00 00 00 00 00 00 00 00 00 00 00 00 00 00 00 00 ................
0040C470 00 00 00 00 00 00 00 00 00 00 00 00 00 00 00 00 ................
0040C480 00 00 00 00 00 00 00 00 00 00 00 00 00 00 00 00 ................
0040C490 00 00 00 00 00 00 00 00 00 00 00 00 00 00 00 00 ................
0040C4A0 00 00 00 00 00 00 00 00 00 00 00 00 00 00 00 00 ................
0040C4B0 00 00 00 00 00 00 00 00 00 00 00 00 00 00 00 00 ................
0040C4C0 00 00 00 00 00 00 00 00 00 00 00 00 00 00 00 00 ................
0040C4D0 00 00 00 00 00 00 00 00 00 00 00 00 00 00 00 00 ................
0040C4E0 00 00 00 00 00 00 00 00 00 00 00 00 00 00 00 00 ................
0040C4F0 00 00 00 00 00 00 00 00 00 00 00 00 00 00 00 00 ................
0040C500 00 00 00 00 00 00 00 00 00 00 00 00 00 00 00 00 ................
0040C510 00 00 00 00 00 00 00 00 00 00 00 00 00 00 00 00 ................
0040C520 00 00 00 00 00 00 00 00 00 00 00 00 00 00 00 00 ................
0040C530 00 00 00 00 00 00 00 00 00 00 00 00 00 00 00 00 ................
0040C540 00 00 00 00 00 00 00 00 00 00 00 00 00 00 00 00 ................
0040C550 00 00 00 00 00 00 00 00 00 00 00 00 00 00 00 00 ................
0040C560 00 00 00 00 00 00 00 00 00 00 00 00 00 00 00 00 ................
0040C570 00 00 00 00 00 00 00 00 00 00 00 00 00 00 00 00 ................
0040C580 00 00 00 00 00 00 00 00 00 00 00 00 00 00 00 00 ................
0040C590 00 00 00 00 00 00 00 00 00 00 00 00 00 00 00 00 ................
0040C5A0 00 00 00 00 00 00 00 00 00 00 00 00 00 00 00 00 ................
0040C5B0 00 00 00 00 00 00 00 00 00 00 00 00 00 00 00 00 ................
0040C5C0 00 00 00 00 00 00 00 00 00 00 00 00 00 00 00 00 ................
0040C5D0 00 00 00 00 00 00 00 00 00 00 00 00 00 00 00 00 ................
0040C5E0 00 00 00 00 00 00 00 00 00 00 00 00 00 00 00 00 ................
0040C5F0 00 00 00 00 00 00 00 00 00 00 00 00 00 00 00 00 ................
0040C600 00 00 00 00 00 00 00 00 00 00 00 00 00 00 00 00 ................
0040C610 00 00 00 00 00 00 00 00 00 00 00 00 00 00 00 00 ................
0040C620 00 00 00 00 00 00 00 00 00 00 00 00 00 00 00 00 ................
0040C630 00 00 00 00 00 00 00 00 00 00 00 00 00 00 00 00 ................
0040C640 00 00 00 00 00 00 00 00 00 00 00 00 00 00 00 00 ................
0040C650 00 00 00 00 00 00 00 00 00 00 00 00 00 00 00 00 ................
0040C660 00 00 00 00 00 00 00 00 00 00 00 00 00 00 00 00 ................
0040C670 00 00 00 00 00 00 00 00 00 00 00 00 00 00 00 00 ................
0040C680 00 00 00 00 00 00 00 00 00 00 00 00 00 00 00 00 ................
0040C690 00 00 00 00 00 00 00 00 00 00 00 00 00 00 00 00 ................
0040C6A0 00 00 00 00 00 00 00 00 00 00 00 00 00 00 00 00 ................
0040C6B0 00 00 00 00 00 00 00 00 00 00 00 00 00 00 00 00 ................
0040C6C0 00 00 00 00 00 00 00 00 00 00 00 00 00 00 00 00 ................
0040C6D0 00 00 00 00 00 00 00 00 00 00 00 00 00 00 00 00 ................
0040C6E0 00 00 00 00 00 00 00 00 00 00 00 00 00 00 00 00 ................
0040C6F0 00 00 00 00 00 00 00 00 00 00 00 00 00 00 00 00 ................
0040C700 00 00 00 00 00 00 00 00 00 00 00 00 00 00 00 00 ................
0040C710 00 00 00 00 00 00 00 00 00 00 00 00 00 00 00 00 ................
0040C720 00 00 00 00 00 00 00 00 00 00 00 00 00 00 00 00 ................
0040C730 00 00 00 00 00 00 00 00 00 00 00 00 00 00 00 00 ................
0040C740 00 00 00 00 00 00 00 00 00 00 00 00 00 00 00 00 ................
0040C750 00 00 00 00 00 00 00 00 00 00 00 00 00 00 00 00 ................
0040C760 00 00 00 00 00 00 00 00 00 00 00 00 00 00 00 00 ................
0040C770 00 00 00 00 00 00 00 00 00 00 00 00 00 00 00 00 ................
0040C780 00 00 00 00 00 00 00 00 00 00 00 00 00 00 00 00 ................
0040C790 00 00 00 00 00 00 00 00 00 00 00 00 00 00 00 00 ................
0040C7A0 00 00 00 00 00 00 00 00 00 00 00 00 00 00 00 00 ................
0040C7B0 00 00 00 00 00 00 00 00 00 00 00 00 00 00 00 00 ................
0040C7C0 00 00 00 00 00 00 00 00 00 00 00 00 00 00 00 00 ................
0040C7D0 00 00 00 00 00 00 00 00 00 00 00 00 00 00 00 00 ................
0040C7E0 00 00 00 00 00 00 00 00 00 00 00 00 00 00 00 00 ................
0040C7F0 00 00 00 00 00 00 00 00 00 00 00 00 00 00 00 00 ................
0040C800 00 00 00 00 00 00 00 00 00 00 00 00 00 00 00 00 ................
0040C810 00 00 00 00 00 00 00 00 00 00 00 00 00 00 00 00 ................
0040C820 00 00 00 00 00 00 00 00 00 00 00 00 00 00 00 00 ................
0040C830 00 00 00 00 00 00 00 00 00 00 00 00 00 00 00 00 ................
0040C840 00 00 00 00 00 00 00 00 00 00 00 00 00 00 00 00 ................
0040C850 00 00 00 00 00 00 00 00 00 00 00 00 00 00 00 00 ................
0040C860 00 00 00 00 00 00 00 00 00 00 00 00 00 00 00 00 ................
0040C870 00 00 00 00 00 00 00 00 00 00 00 00 00 00 00 00 ................
0040C880 00 00 00 00 00 00 00 00 00 00 00 00 00 00 00 00 ................
0040C890 00 00 00 00 00 00 00 00 00 00 00 00 00 00 00 00 ................
0040C8A0 00 00 00 00 00 00 00 00 00 00 00 00 00 00 00 00 ................
0040C8B0 00 00 00 00 00 00 00 00 00 00 00 00 00 00 00 00 ................
0040C8C0 00 00 00 00 00 00 00 00 00 00 00 00 00 00 00 00 ................
0040C8D0 00 00 00 00 00 00 00 00 00 00 00 00 00 00 00 00 ................
0040C8E0 00 00 00 00 00 00 00 00 00 00 00 00 00 00 00 00 ................
0040C8F0 00 00 00 00 00 00 00 00 00 00 00 00 00 00 00 00 ................
0040C900 00 00 00 00 00 00 00 00 00 00 00 00 00 00 00 00 ................
0040C910 00 00 00 00 00 00 00 00 00 00 00 00 00 00 00 00 ................
0040C920 00 00 00 00 00 00 00 00 00 00 00 00 00 00 00 00 ................
0040C930 00 00 00 00 00 00 00 00 00 00 00 00 00 00 00 00 ................
0040C940 00 00 00 00 00 00 00 00 00 00 00 00 00 00 00 00 ................
0040C950 00 00 00 00 00 00 00 00 00 00 00 00 00 00 00 00 ................
0040C960 00 00 00 00 00 00 00 00 00 00 00 00 00 00 00 00 ................
0040C970 00 00 00 00 00 00 00 00 00 00 00 00 00 00 00 00 ................
0040C980 00 00 00 00 00 00 00 00 00 00 00 00 00 00 00 00 ................
0040C990 00 00 00 00 00 00 00 00 00 00 00 00 00 00 00 00 ................
0040C9A0 00 00 00 00 00 00 00 00 00 00 00 00 00 00 00 00 ................
0040C9B0 00 00 00 00 00 00 00 00 00 00 00 00 00 00 00 00 ................
0040C9C0 00 00 00 00 00 00 00 00 00 00 00 00 00 00 00 00 ................
0040C9D0 00 00 00 00 00 00 00 00 00 00 00 00 00 00 00 00 ................
0040C9E0 00 00 00 00 00 00 00 00 00 00 00 00 00 00 00 00 ................
0040C9F0 00 00 00 00 00 00 00 00 00 00 00 00 00 00 00 00 ................
0040CA00 00 00 00 00 00 00 00 00 00 00 00 00 00 00 00 00 ................
0040CA10 00 00 00 00 00 00 00 00 00 00 00 00 00 00 00 00 ................
0040CA20 00 00 00 00 00 00 00 00 00 00 00 00 00 00 00 00 ................
0040CA30 00 00 00 00 00 00 00 00 00 00 00 00 00 00 00 00 ................
0040CA40 00 00 00 00 00 00 00 00 00 00 00 00 00 00 00 00 ................
0040CA50 00 00 00 00 00 00 00 00 00 00 00 00 00 00 00 00 ................
0040CA60 00 00 00 00 00 00 00 00 00 00 00 00 00 00 00 00 ................
0040CA70 00 00 00 00 00 00 00 00 00 00 00 00 00 00 00 00 ................
0040CA80 00 00 00 00 00 00 00 00 00 00 00 00 00 00 00 00 ................
0040CA90 00 00 00 00 00 00 00 00 00 00 00 00 00 00 00 00 ................
0040CAA0 00 00 00 00 00 00 00 00 00 00 00 00 00 00 00 00 ................
0040CAB0 00 00 00 00 00 00 00 00 00 00 00 00 00 00 00 00 ................
0040CAC0 00 00 00 00 00 00 00 00 00 00 00 00 00 00 00 00 ................
0040CAD0 00 00 00 00 00 00 00 00 00 00 00 00 00 00 00 00 ................
0040CAE0 00 00 00 00 00 00 00 00 00 00 00 00 00 00 00 00 ................
0040CAF0 00 00 00 00 00 00 00 00 00 00 00 00 00 00 00 00 ................
0040CB00 00 00 00 00 00 00 00 00 00 00 00 00 00 00 00 00 ................
0040CB10 00 00 00 00 00 00 00 00 00 00 00 00 00 00 00 00 ................
0040CB20 00 00 00 00 00 00 00 00 00 00 00 00 00 00 00 00 ................
0040CB30 00 00 00 00 00 00 00 00 00 00 00 00 00 00 00 00 ................
0040CB40 00 00 00 00 00 00 00 00 00 00 00 00 00 00 00 00 ................
0040CB50 00 00 00 00 00 00 00 00 00 00 00 00 00 00 00 00 ................
0040CB60 00 00 00 00 00 00 00 00 00 00 00 00 00 00 00 00 ................
0040CB70 00 00 00 00 00 00 00 00 00 00 00 00 00 00 00 00 ................
0040CB80 00 00 00 00 00 00 00 00 00 00 00 00 00 00 00 00 ................
0040CB90 00 00 00 00 00 00 00 00 00 00 00 00 00 00 00 00 ................
0040CBA0 00 00 00 00 00 00 00 00 00 00 00 00 00 00 00 00 ................
0040CBB0 00 00 00 00 00 00 00 00 00 00 00 00 00 00 00 00 ................
0040CBC0 00 00 00 00 00 00 00 00 00 00 00 00 00 00 00 00 ................
0040CBD0 00 00 00 00 00 00 00 00 00 00 00 00 00 00 00 00 ................
0040CBE0 00 00 00 00 00 00 00 00 00 00 00 00 00 00 00 00 ................
0040CBF0 00 00 00 00 00 00 00 00 00 00 00 00 00 00 00 00 ................
0040CC00 00 00 00 00 00 00 00 00 00 00 00 00 00 00 00 00 ................
0040CC10 00 00 00 00 00 00 00 00 00 00 00 00 00 00 00 00 ................
0040CC20 00 00 00 00 00 00 00 00 00 00 00 00 00 00 00 00 ................
0040CC30 00 00 00 00 00 00 00 00 00 00 00 00 00 00 00 00 ................
0040CC40 00 00 00 00 00 00 00 00 00 00 00 00 00 00 00 00 ................
0040CC50 00 00 00 00 00 00 00 00 00 00 00 00 00 00 00 00 ................
0040CC60 00 00 00 00 00 00 00 00 00 00 00 00 00 00 00 00 ................
0040CC70 00 00 00 00 00 00 00 00 00 00 00 00 00 00 00 00 ................
0040CC80 00 00 00 00 00 00 00 00 00 00 00 00 00 00 00 00 ................
0040CC90 00 00 00 00 00 00 00 00 00 00 00 00 00 00 00 00 ................
0040CCA0 00 00 00 00 00 00 00 00 00 00 00 00 00 00 00 00 ................
0040CCB0 00 00 00 00 00 00 00 00 00 00 00 00 00 00 00 00 ................
0040CCC0 00 00 00 00 00 00 00 00 00 00 00 00 00 00 00 00 ................
0040CCD0 00 00 00 00 00 00 00 00 00 00 00 00 00 00 00 00 ................
0040CCE0 00 00 00 00 00 00 00 00 00 00 00 00 00 00 00 00 ................
0040CCF0 00 00 00 00 00 00 00 00 00 00 00 00 00 00 00 00 ................
0040CD00 00 00 00 00 00 00 00 00 00 00 00 00 00 00 00 00 ................
0040CD10 00 00 00 00 00 00 00 00 00 00 00 00 00 00 00 00 ................
0040CD20 00 00 00 00 00 00 00 00 00 00 00 00 00 00 00 00 ................
0040CD30 00 00 00 00 00 00 00 00 00 00 00 00 00 00 00 00 ................
0040CD40 00 00 00 00 00 00 00 00 00 00 00 00 00 00 00 00 ................
0040CD50 00 00 00 00 00 00 00 00 00 00 00 00 00 00 00 00 ................
0040CD60 00 00 00 00 00 00 00 00 00 00 00 00 00 00 00 00 ................
0040CD70 00 00 00 00 00 00 00 00 00 00 00 00 00 00 00 00 ................
0040CD80 00 00 00 00 00 00 00 00 00 00 00 00 00 00 00 00 ................
0040CD90 00 00 00 00 00 00 00 00 00 00 00 00 00 00 00 00 ................
0040CDA0 00 00 00 00 00 00 00 00 00 00 00 00 00 00 00 00 ................
0040CDB0 00 00 00 00 00 00 00 00 00 00 00 00 00 00 00 00 ................
0040CDC0 00 00 00 00 00 00 00 00 00 00 00 00 00 00 00 00 ................
0040CDD0 00 00 00 00 00 00 00 00 00 00 00 00 00 00 00 00 ................
0040CDE0 00 00 00 00 00 00 00 00 00 00 00 00 00 00 00 00 ................
0040CDF0 00 00 00 00 00 00 00 00 00 00 00 00 00 00 00 00 ................
0040CE00 00 00 00 00 00 00 00 00 00 00 00 00 00 00 00 00 ................
0040CE10 00 00 00 00 00 00 00 00 00 00 00 00 00 00 00 00 ................
0040CE20 00 00 00 00 00 00 00 00 00 00 00 00 00 00 00 00 ................
0040CE30 00 00 00 00 00 00 00 00 00 00 00 00 00 00 00 00 ................
0040CE40 00 00 00 00 00 00 00 00 00 00 00 00 00 00 00 00 ................
0040CE50 00 00 00 00 00 00 00 00 00 00 00 00 00 00 00 00 ................
0040CE60 00 00 00 00 00 00 00 00 00 00 00 00 00 00 00 00 ................
0040CE70 00 00 00 00 00 00 00 00 00 00 00 00 00 00 00 00 ................
0040CE80 00 00 00 00 00 00 00 00 00 00 00 00 00 00 00 00 ................
0040CE90 00 00 00 00 00 00 00 00 00 00 00 00 00 00 00 00 ................
0040CEA0 00 00 00 00 00 00 00 00 00 00 00 00 00 00 00 00 ................
0040CEB0 00 00 00 00 00 00 00 00 00 00 00 00 00 00 00 00 ................
0040CEC0 00 00 00 00 00 00 00 00 00 00 00 00 00 00 00 00 ................
0040CED0 00 00 00 00 00 00 00 00 00 00 00 00 00 00 00 00 ................
0040CEE0 00 00 00 00 00 00 00 00 00 00 00 00 00 00 00 00 ................
0040CEF0 00 00 00 00 00 00 00 00 00 00 00 00 00 00 00 00 ................
0040CF00 00 00 00 00 00 00 00 00 00 00 00 00 00 00 00 00 ................
0040CF10 00 00 00 00 00 00 00 00 00 00 00 00 00 00 00 00 ................
0040CF20 00 00 00 00 00 00 00 00 00 00 00 00 00 00 00 00 ................
0040CF30 00 00 00 00 00 00 00 00 00 00 00 00 00 00 00 00 ................
0040CF40 00 00 00 00 00 00 00 00 00 00 00 00 00 00 00 00 ................
0040CF50 00 00 00 00 00 00 00 00 00 00 00 00 00 00 00 00 ................
0040CF60 00 00 00 00 00 00 00 00 00 00 00 00 00 00 00 00 ................
0040CF70 00 00 00 00 00 00 00 00 00 00 00 00 00 00 00 00 ................
0040CF80 00 00 00 00 00 00 00 00 00 00 00 00 00 00 00 00 ................
0040CF90 00 00 00 00 00 00 00 00 00 00 00 00 00 00 00 00 ................
0040CFA0 00 00 00 00 00 00 00 00 00 00 00 00 00 00 00 00 ................
0040CFB0 00 00 00 00 00 00 00 00 00 00 00 00 00 00 00 00 ................
0040CFC0 00 00 00 00 00 00 00 00 00 00 00 00 00 00 00 00 ................
0040CFD0 00 00 00 00 00 00 00 00 00 00 00 00 00 00 00 00 ................
0040CFE0 00 00 00 00 00 00 00 00 00 00 00 00 00 00 00 00 ................
0040CFF0 00 00 00 00 00 00 00 00 00 00 00 00 00 00 00 00 ................
0040D000 00 00 00 00 00 00 00 00 00 00 00 00 00 00 00 00 ................
0040D010 00 00 00 00 00 00 00 00 00 00 00 00 00 00 00 00 ................
0040D020 00 00 00 00 00 00 00 00 00 00 00 00 00 00 00 00 ................
0040D030 00 00 00 00 00 00 00 00 00 00 00 00 00 00 00 00 ................
0040D040 00 00 00 00 00 00 00 00 00 00 00 00 00 00 00 00 ................
0040D050 00 00 00 00 00 00 00 00 00 00 00 00 00 00 00 00 ................
0040D060 00 00 00 00 00 00 00 00 00 00 00 00 00 00 00 00 ................
0040D070 00 00 00 00 00 00 00 00 00 00 00 00 00 00 00 00 ................
0040D080 00 00 00 00 00 00 00 00 00 00 00 00 00 00 00 00 ................
0040D090 00 00 00 00 00 00 00 00 00 00 00 00 00 00 00 00 ................
0040D0A0 00 00 00 00 00 00 00 00 00 00 00 00 00 00 00 00 ................
0040D0B0 00 00 00 00 00 00 00 00 00 00 00 00 00 00 00 00 ................
0040D0C0 00 00 00 00 00 00 00 00 00 00 00 00 00 00 00 00 ................
0040D0D0 00 00 00 00 00 00 00 00 00 00 00 00 00 00 00 00 ................
0040D0E0 00 00 00 00 00 00 00 00 00 00 00 00 00 00 00 00 ................
0040D0F0 00 00 00 00 00 00 00 00 00 00 00 00 00 00 00 00 ................
0040D100 00 00 00 00 00 00 00 00 00 00 00 00 00 00 00 00 ................
0040D110 00 00 00 00 00 00 00 00 00 00 00 00 00 00 00 00 ................
0040D120 00 00 00 00 00 00 00 00 00 00 00 00 00 00 00 00 ................
0040D130 00 00 00 00 00 00 00 00 00 00 00 00 00 00 00 00 ................
0040D140 00 00 00 00 00 00 00 00 00 00 00 00 00 00 00 00 ................
0040D150 00 00 00 00 00 00 00 00 00 00 00 00 00 00 00 00 ................
0040D160 00 00 00 00 00 00 00 00 00 00 00 00 00 00 00 00 ................
0040D170 00 00 00 00 00 00 00 00 00 00 00 00 00 00 00 00 ................
0040D180 00 00 00 00 00 00 00 00 00 00 00 00 00 00 00 00 ................
0040D190 00 00 00 00 00 00 00 00 00 00 00 00 00 00 00 00 ................
0040D1A0 00 00 00 00 00 00 00 00 00 00 00 00 00 00 00 00 ................
0040D1B0 00 00 00 00 00 00 00 00 00 00 00 00 00 00 00 00 ................
0040D1C0 00 00 00 00 00 00 00 00 00 00 00 00 00 00 00 00 ................
0040D1D0 00 00 00 00 00 00 00 00 00 00 00 00 00 00 00 00 ................
0040D1E0 00 00 00 00 00 00 00 00 00 00 00 00 00 00 00 00 ................
0040D1F0 00 00 00 00 00 00 00 00 00 00 00 00 00 00 00 00 ................
0040D200 00 00 00 00 00 00 00 00 00 00 00 00 00 00 00 00 ................
0040D210 00 00 00 00 00 00 00 00 00 00 00 00 00 00 00 00 ................
0040D220 00 00 00 00 00 00 00 00 00 00 00 00 00 00 00 00 ................
0040D230 00 00 00 00 00 00 00 00 00 00 00 00 00 00 00 00 ................
0040D240 00 00 00 00 00 00 00 00 00 00 00 00 00 00 00 00 ................
0040D250 00 00 00 00 00 00 00 00 00 00 00 00 00 00 00 00 ................
0040D260 00 00 00 00 00 00 00 00 00 00 00 00 00 00 00 00 ................
0040D270 00 00 00 00 00 00 00 00 00 00 00 00 00 00 00 00 ................
0040D280 00 00 00 00 00 00 00 00 00 00 00 00 00 00 00 00 ................
0040D290 00 00 00 00 00 00 00 00 00 00 00 00 00 00 00 00 ................
0040D2A0 00 00 00 00 00 00 00 00 00 00 00 00 00 00 00 00 ................
0040D2B0 00 00 00 00 00 00 00 00 00 00 00 00 00 00 00 00 ................
0040D2C0 00 00 00 00 00 00 00 00 00 00 00 00 00 00 00 00 ................
0040D2D0 00 00 00 00 00 00 00 00 00 00 00 00 00 00 00 00 ................
0040D2E0 00 00 00 00 00 00 00 00 00 00 00 00 00 00 00 00 ................
0040D2F0 00 00 00 00 00 00 00 00 00 00 00 00 00 00 00 00 ................
0040D300 00 00 00 00 00 00 00 00 00 00 00 00 00 00 00 00 ................
0040D310 00 00 00 00 00 00 00 00 00 00 00 00 00 00 00 00 ................
0040D320 00 00 00 00 00 00 00 00 00 00 00 00 00 00 00 00 ................
0040D330 00 00 00 00 00 00 00 00 00 00 00 00 00 00 00 00 ................
0040D340 00 00 00 00 00 00 00 00 00 00 00 00 00 00 00 00 ................
0040D350 00 00 00 00 00 00 00 00 00 00 00 00 00 00 00 00 ................
0040D360 00 00 00 00 00 00 00 00 00 00 00 00 00 00 00 00 ................
0040D370 00 00 00 00 00 00 00 00 00 00 00 00 00 00 00 00 ................
0040D380 00 00 00 00 00 00 00 00 00 00 00 00 00 00 00 00 ................
0040D390 00 00 00 00 00 00 00 00 00 00 00 00 00 00 00 00 ................
0040D3A0 00 00 00 00 00 00 00 00 00 00 00 00 00 00 00 00 ................
0040D3B0 00 00 00 00 00 00 00 00 00 00 00 00 00 00 00 00 ................
0040D3C0 00 00 00 00 00 00 00 00 00 00 00 00 00 00 00 00 ................
0040D3D0 00 00 00 00 00 00 00 00 00 00 00 00 00 00 00 00 ................
0040D3E0 00 00 00 00 00 00 00 00 00 00 00 00 00 00 00 00 ................
0040D3F0 00 00 00 00 00 00 00 00 00 00 00 00 00 00 00 00 ................
0040D400 00 00 00 00 00 00 00 00 00 00 00 00 00 00 00 00 ................
0040D410 00 00 00 00 00 00 00 00 00 00 00 00 00 00 00 00 ................
0040D420 00 00 00 00 00 00 00 00 00 00 00 00 00 00 00 00 ................
0040D430 00 00 00 00 00 00 00 00 00 00 00 00 00 00 00 00 ................
0040D440 00 00 00 00 00 00 00 00 00 00 00 00 00 00 00 00 ................
0040D450 00 00 00 00 00 00 00 00 00 00 00 00 00 00 00 00 ................
0040D460 00 00 00 00 00 00 00 00 00 00 00 00 00 00 00 00 ................
0040D470 00 00 00 00 00 00 00 00 00 00 00 00 00 00 00 00 ................
0040D480 00 00 00 00 00 00 00 00 00 00 00 00 00 00 00 00 ................
0040D490 00 00 00 00 00 00 00 00 00 00 00 00 00 00 00 00 ................
0040D4A0 00 00 00 00 00 00 00 00 00 00 00 00 00 00 00 00 ................
0040D4B0 00 00 00 00 00 00 00 00 00 00 00 00 00 00 00 00 ................
0040D4C0 00 00 00 00 00 00 00 00 00 00 00 00 00 00 00 00 ................
0040D4D0 00 00 00 00 00 00 00 00 00 00 00 00 00 00 00 00 ................
0040D4E0 00 00 00 00 00 00 00 00 00 00 00 00 00 00 00 00 ................
0040D4F0 00 00 00 00 00 00 00 00 00 00 00 00 00 00 00 00 ................
0040D500 00 00 00 00 00 00 00 00 00 00 00 00 00 00 00 00 ................
0040D510 00 00 00 00 00 00 00 00 00 00 00 00 00 00 00 00 ................
0040D520 00 00 00 00 00 00 00 00 00 00 00 00 00 00 00 00 ................
0040D530 00 00 00 00 00 00 00 00 00 00 00 00 00 00 00 00 ................
0040D540 00 00 00 00 00 00 00 00 00 00 00 00 00 00 00 00 ................
0040D550 00 00 00 00 00 00 00 00 00 00 00 00 00 00 00 00 ................
0040D560 00 00 00 00 00 00 00 00 00 00 00 00 00 00 00 00 ................
0040D570 00 00 00 00 00 00 00 00 00 00 00 00 00 00 00 00 ................
0040D580 00 00 00 00 00 00 00 00 00 00 00 00 00 00 00 00 ................
0040D590 00 00 00 00 00 00 00 00 00 00 00 00 00 00 00 00 ................
0040D5A0 00 00 00 00 00 00 00 00 00 00 00 00 00 00 00 00 ................
0040D5B0 00 00 00 00 00 00 00 00 00 00 00 00 00 00 00 00 ................
0040D5C0 00 00 00 00 00 00 00 00 00 00 00 00 00 00 00 00 ................
0040D5D0 00 00 00 00 00 00 00 00 00 00 00 00 00 00 00 00 ................
0040D5E0 00 00 00 00 00 00 00 00 00 00 00 00 00 00 00 00 ................
0040D5F0 00 00 00 00 00 00 00 00 00 00 00 00 00 00 00 00 ................
0040D600 00 00 00 00 00 00 00 00 00 00 00 00 00 00 00 00 ................
0040D610 00 00 00 00 00 00 00 00 00 00 00 00 00 00 00 00 ................
0040D620 00 00 00 00 00 00 00 00 00 00 00 00 00 00 00 00 ................
0040D630 00 00 00 00 00 00 00 00 00 00 00 00 00 00 00 00 ................
0040D640 00 00 00 00 00 00 00 00 00 00 00 00 00 00 00 00 ................
0040D650 00 00 00 00 00 00 00 00 00 00 00 00 00 00 00 00 ................
0040D660 00 00 00 00 00 00 00 00 00 00 00 00 00 00 00 00 ................
0040D670 00 00 00 00 00 00 00 00 00 00 00 00 00 00 00 00 ................
0040D680 00 00 00 00 00 00 00 00 00 00 00 00 00 00 00 00 ................
0040D690 00 00 00 00 00 00 00 00 00 00 00 00 00 00 00 00 ................
0040D6A0 00 00 00 00 00 00 00 00 00 00 00 00 00 00 00 00 ................
0040D6B0 00 00 00 00 00 00 00 00 00 00 00 00 00 00 00 00 ................
0040D6C0 00 00 00 00 00 00 00 00 00 00 00 00 00 00 00 00 ................
0040D6D0 00 00 00 00 00 00 00 00 00 00 00 00 00 00 00 00 ................
0040D6E0 00 00 00 00 00 00 00 00 00 00 00 00 00 00 00 00 ................
0040D6F0 00 00 00 00 00 00 00 00 00 00 00 00 00 00 00 00 ................
0040D700 00 00 00 00 00 00 00 00 00 00 00 00 00 00 00 00 ................
0040D710 00 00 00 00 00 00 00 00 00 00 00 00 00 00 00 00 ................
0040D720 00 00 00 00 00 00 00 00 00 00 00 00 00 00 00 00 ................
0040D730 00 00 00 00 00 00 00 00 00 00 00 00 00 00 00 00 ................
0040D740 00 00 00 00 00 00 00 00 00 00 00 00 00 00 00 00 ................
0040D750 00 00 00 00 00 00 00 00 00 00 00 00 00 00 00 00 ................
0040D760 00 00 00 00 00 00 00 00 00 00 00 00 00 00 00 00 ................
0040D770 00 00 00 00 00 00 00 00 00 00 00 00 00 00 00 00 ................
0040D780 00 00 00 00 00 00 00 00 00 00 00 00 00 00 00 00 ................
0040D790 00 00 00 00 00 00 00 00 00 00 00 00 00 00 00 00 ................
0040D7A0 00 00 00 00 00 00 00 00 00 00 00 00 00 00 00 00 ................
0040D7B0 00 00 00 00 00 00 00 00 00 00 00 00 00 00 00 00 ................
0040D7C0 00 00 00 00 00 00 00 00 00 00 00 00 00 00 00 00 ................
0040D7D0 00 00 00 00 00 00 00 00 00 00 00 00 00 00 00 00 ................
0040D7E0 00 00 00 00 00 00 00 00 00 00 00 00 00 00 00 00 ................
0040D7F0 00 00 00 00 00 00 00 00 00 00 00 00 00 00 00 00 ................
0040D800 00 00 00 00 00 00 00 00 00 00 00 00 00 00 00 00 ................
0040D810 00 00 00 00 00 00 00 00 00 00 00 00 00 00 00 00 ................
0040D820 00 00 00 00 00 00 00 00 00 00 00 00 00 00 00 00 ................
0040D830 00 00 00 00 00 00 00 00 00 00 00 00 00 00 00 00 ................
0040D840 00 00 00 00 00 00 00 00 00 00 00 00 00 00 00 00 ................
0040D850 00 00 00 00 00 00 00 00 00 00 00 00 00 00 00 00 ................
0040D860 00 00 00 00 00 00 00 00 00 00 00 00 00 00 00 00 ................
0040D870 00 00 00 00 00 00 00 00 00 00 00 00 00 00 00 00 ................
0040D880 00 00 00 00 00 00 00 00 00 00 00 00 00 00 00 00 ................
0040D890 00 00 00 00 00 00 00 00 00 00 00 00 00 00 00 00 ................
0040D8A0 00 00 00 00 00 00 00 00 00 00 00 00 00 00 00 00 ................
0040D8B0 00 00 00 00 00 00 00 00 00 00 00 00 00 00 00 00 ................
0040D8C0 00 00 00 00 00 00 00 00 00 00 00 00 00 00 00 00 ................
0040D8D0 00 00 00 00 00 00 00 00 00 00 00 00 00 00 00 00 ................
0040D8E0 00 00 00 00 00 00 00 00 00 00 00 00 00 00 00 00 ................
0040D8F0 00 00 00 00 00 00 00 00 00 00 00 00 00 00 00 00 ................
0040D900 00 00 00 00 00 00 00 00 00 00 00 00 00 00 00 00 ................
0040D910 00 00 00 00 00 00 00 00 00 00 00 00 00 00 00 00 ................
0040D920 00 00 00 00 00 00 00 00 00 00 00 00 00 00 00 00 ................
0040D930 00 00 00 00 00 00 00 00 00 00 00 00 00 00 00 00 ................
0040D940 00 00 00 00 00 00 00 00 00 00 00 00 00 00 00 00 ................
0040D950 00 00 00 00 00 00 00 00 00 00 00 00 00 00 00 00 ................
0040D960 00 00 00 00 00 00 00 00 00 00 00 00 00 00 00 00 ................
0040D970 00 00 00 00 00 00 00 00 00 00 00 00 00 00 00 00 ................
0040D980 00 00 00 00 00 00 00 00 00 00 00 00 00 00 00 00 ................
0040D990 00 00 00 00 00 00 00 00 00 00 00 00 00 00 00 00 ................
0040D9A0 00 00 00 00 00 00 00 00 00 00 00 00 00 00 00 00 ................
0040D9B0 00 00 00 00 00 00 00 00 00 00 00 00 00 00 00 00 ................
0040D9C0 00 00 00 00 00 00 00 00 00 00 00 00 00 00 00 00 ................
0040D9D0 00 00 00 00 00 00 00 00 00 00 00 00 00 00 00 00 ................
0040D9E0 00 00 00 00 00 00 00 00 00 00 00 00 00 00 00 00 ................
0040D9F0 00 00 00 00 00 00 00 00 00 00 00 00 00 00 00 00 ................
0040DA00 00 00 00 00 00 00 00 00 00 00 00 00 00 00 00 00 ................
0040DA10 00 00 00 00 00 00 00 00 00 00 00 00 00 00 00 00 ................
0040DA20 00 00 00 00 00 00 00 00 00 00 00 00 00 00 00 00 ................
0040DA30 00 00 00 00 00 00 00 00 00 00 00 00 00 00 00 00 ................
0040DA40 00 00 00 00 00 00 00 00 00 00 00 00 00 00 00 00 ................
0040DA50 00 00 00 00 00 00 00 00 00 00 00 00 00 00 00 00 ................
0040DA60 00 00 00 00 00 00 00 00 00 00 00 00 00 00 00 00 ................
0040DA70 00 00 00 00 00 00 00 00 00 00 00 00 00 00 00 00 ................
0040DA80 00 00 00 00 00 00 00 00 00 00 00 00 00 00 00 00 ................
0040DA90 00 00 00 00 00 00 00 00 00 00 00 00 00 00 00 00 ................
0040DAA0 00 00 00 00 00 00 00 00 00 00 00 00 00 00 00 00 ................
0040DAB0 00 00 00 00 00 00 00 00 00 00 00 00 00 00 00 00 ................
0040DAC0 00 00 00 00 00 00 00 00 00 00 00 00 00 00 00 00 ................
0040DAD0 00 00 00 00 00 00 00 00 00 00 00 00 00 00 00 00 ................
0040DAE0 00 00 00 00 00 00 00 00 00 00 00 00 00 00 00 00 ................
0040DAF0 00 00 00 00 00 00 00 00 00 00 00 00 00 00 00 00 ................
0040DB00 00 00 00 00 00 00 00 00 00 00 00 00 00 00 00 00 ................
0040DB10 00 00 00 00 00 00 00 00 00 00 00 00 00 00 00 00 ................
0040DB20 00 00 00 00 00 00 00 00 00 00 00 00 00 00 00 00 ................
0040DB30 00 00 00 00 00 00 00 00 00 00 00 00 00 00 00 00 ................
0040DB40 00 00 00 00 00 00 00 00 00 00 00 00 00 00 00 00 ................
0040DB50 00 00 00 00 00 00 00 00 00 00 00 00 00 00 00 00 ................
0040DB60 00 00 00 00 00 00 00 00 00 00 00 00 00 00 00 00 ................
0040DB70 00 00 00 00 00 00 00 00 00 00 00 00 00 00 00 00 ................
0040DB80 00 00 00 00 00 00 00 00 00 00 00 00 00 00 00 00 ................
0040DB90 00 00 00 00 00 00 00 00 00 00 00 00 00 00 00 00 ................
0040DBA0 00 00 00 00 00 00 00 00 00 00 00 00 00 00 00 00 ................
0040DBB0 00 00 00 00 00 00 00 00 00 00 00 00 00 00 00 00 ................
0040DBC0 00 00 00 00 00 00 00 00 00 00 00 00 00 00 00 00 ................
0040DBD0 00 00 00 00 00 00 00 00 00 00 00 00 00 00 00 00 ................
0040DBE0 00 00 00 00 00 00 00 00 00 00 00 00 00 00 00 00 ................
0040DBF0 00 00 00 00 00 00 00 00 00 00 00 00 00 00 00 00 ................
0040DC00 00 00 00 00 00 00 00 00 00 00 00 00 00 00 00 00 ................
0040DC10 00 00 00 00 00 00 00 00 00 00 00 00 00 00 00 00 ................
0040DC20 00 00 00 00 00 00 00 00 00 00 00 00 00 00 00 00 ................
0040DC30 00 00 00 00 00 00 00 00 00 00 00 00 00 00 00 00 ................
0040DC40 00 00 00 00 00 00 00 00 00 00 00 00 00 00 00 00 ................
0040DC50 00 00 00 00 00 00 00 00 00 00 00 00 00 00 00 00 ................
0040DC60 00 00 00 00 00 00 00 00 00 00 00 00 00 00 00 00 ................
0040DC70 00 00 00 00 00 00 00 00 00 00 00 00 00 00 00 00 ................
0040DC80 00 00 00 00 00 00 00 00 00 00 00 00 00 00 00 00 ................
0040DC90 00 00 00 00 00 00 00 00 00 00 00 00 00 00 00 00 ................
0040DCA0 00 00 00 00 00 00 00 00 00 00 00 00 00 00 00 00 ................
0040DCB0 00 00 00 00 00 00 00 00 00 00 00 00 00 00 00 00 ................
0040DCC0 00 00 00 00 00 00 00 00 00 00 00 00 00 00 00 00 ................
0040DCD0 00 00 00 00 00 00 00 00 00 00 00 00 00 00 00 00 ................
0040DCE0 00 00 00 00 00 00 00 00 00 00 00 00 00 00 00 00 ................
0040DCF0 00 00 00 00 00 00 00 00 00 00 00 00 00 00 00 00 ................
0040DD00 00 00 00 00 00 00 00 00 00 00 00 00 00 00 00 00 ................
0040DD10 00 00 00 00 00 00 00 00 00 00 00 00 00 00 00 00 ................
0040DD20 00 00 00 00 00 00 00 00 00 00 00 00 00 00 00 00 ................
0040DD30 00 00 00 00 00 00 00 00 00 00 00 00 00 00 00 00 ................
0040DD40 00 00 00 00 00 00 00 00 00 00 00 00 00 00 00 00 ................
0040DD50 00 00 00 00 00 00 00 00 00 00 00 00 00 00 00 00 ................
0040DD60 00 00 00 00 00 00 00 00 00 00 00 00 00 00 00 00 ................
0040DD70 00 00 00 00 00 00 00 00 00 00 00 00 00 00 00 00 ................
0040DD80 00 00 00 00 00 00 00 00 00 00 00 00 00 00 00 00 ................
0040DD90 00 00 00 00 00 00 00 00 00 00 00 00 00 00 00 00 ................
0040DDA0 00 00 00 00 00 00 00 00 00 00 00 00 00 00 00 00 ................
0040DDB0 00 00 00 00 00 00 00 00 00 00 00 00 00 00 00 00 ................
0040DDC0 00 00 00 00 00 00 00 00 00 00 00 00 00 00 00 00 ................
0040DDD0 00 00 00 00 00 00 00 00 00 00 00 00 00 00 00 00 ................
0040DDE0 00 00 00 00 00 00 00 00 00 00 00 00 00 00 00 00 ................
0040DDF0 00 00 00 00 00 00 00 00 00 00 00 00 00 00 00 00 ................
0040DE00 00 00 00 00 00 00 00 00 00 00 00 00 00 00 00 00 ................
0040DE10 00 00 00 00 00 00 00 00 00 00 00 00 00 00 00 00 ................
0040DE20 00 00 00 00 00 00 00 00 00 00 00 00 00 00 00 00 ................
0040DE30 00 00 00 00 00 00 00 00 00 00 00 00 00 00 00 00 ................
0040DE40 00 00 00 00 00 00 00 00 00 00 00 00 00 00 00 00 ................
0040DE50 00 00 00 00 00 00 00 00 00 00 00 00 00 00 00 00 ................
0040DE60 00 00 00 00 00 00 00 00 00 00 00 00 00 00 00 00 ................
0040DE70 00 00 00 00 00 00 00 00 00 00 00 00 00 00 00 00 ................
0040DE80 00 00 00 00 00 00 00 00 00 00 00 00 00 00 00 00 ................
0040DE90 00 00 00 00 00 00 00 00 00 00 00 00 00 00 00 00 ................
0040DEA0 00 00 00 00 00 00 00 00 00 00 00 00 00 00 00 00 ................
0040DEB0 00 00 00 00 00 00 00 00 00 00 00 00 00 00 00 00 ................
0040DEC0 00 00 00 00 00 00 00 00 00 00 00 00 00 00 00 00 ................
0040DED0 00 00 00 00 00 00 00 00 00 00 00 00 00 00 00 00 ................
0040DEE0 00 00 00 00 00 00 00 00 00 00 00 00 00 00 00 00 ................
0040DEF0 00 00 00 00 00 00 00 00 00 00 00 00 00 00 00 00 ................
0040DF00 00 00 00 00 00 00 00 00 00 00 00 00 00 00 00 00 ................
0040DF10 00 00 00 00 00 00 00 00 00 00 00 00 00 00 00 00 ................
0040DF20 00 00 00 00 00 00 00 00 00 00 00 00 00 00 00 00 ................
0040DF30 00 00 00 00 00 00 00 00 00 00 00 00 00 00 00 00 ................
0040DF40 00 00 00 00 00 00 00 00 00 00 00 00 00 00 00 00 ................
0040DF50 00 00 00 00 00 00 00 00 00 00 00 00 00 00 00 00 ................
0040DF60 00 00 00 00 00 00 00 00 00 00 00 00 00 00 00 00 ................
0040DF70 00 00 00 00 00 00 00 00 00 00 00 00 00 00 00 00 ................
0040DF80 00 00 00 00 00 00 00 00 00 00 00 00 00 00 00 00 ................
0040DF90 00 00 00 00 00 00 00 00 00 00 00 00 00 00 00 00 ................
0040DFA0 00 00 00 00 00 00 00 00 00 00 00 00 00 00 00 00 ................
0040DFB0 00 00 00 00 00 00 00 00 00 00 00 00 00 00 00 00 ................
0040DFC0 00 00 00 00 00 00 00 00 00 00 00 00 00 00 00 00 ................
0040DFD0 00 00 00 00 00 00 00 00 00 00 00 00 00 00 00 00 ................
0040DFE0 00 00 00 00 00 00 00 00 00 00 00 00 00 00 00 00 ................
0040DFF0 00 00 00 00 00 00 00 00 00 00 00 00 00 00 00 00 ................
0040E000 00 00 00 00 00 00 00 00 00 00 00 00 00 00 00 00 ................
0040E010 00 00 00 00 00 00 00 00 00 00 00 00 00 00 00 00 ................
0040E020 00 00 00 00 00 00 00 00 00 00 00 00 00 00 00 00 ................
0040E030 00 00 00 00 00 00 00 00 00 00 00 00 00 00 00 00 ................
0040E040 00 00 00 00 00 00 00 00 00 00 00 00 00 00 00 00 ................
0040E050 00 00 00 00 00 00 00 00 00 00 00 00 00 00 00 00 ................
0040E060 00 00 00 00 00 00 00 00 00 00 00 00 00 00 00 00 ................
0040E070 00 00 00 00 00 00 00 00 00 00 00 00 00 00 00 00 ................
0040E080 00 00 00 00 00 00 00 00 00 00 00 00 00 00 00 00 ................
0040E090 00 00 00 00 00 00 00 00 00 00 00 00 00 00 00 00 ................
0040E0A0 00 00 00 00 00 00 00 00 00 00 00 00 00 00 00 00 ................
0040E0B0 00 00 00 00 00 00 00 00 00 00 00 00 00 00 00 00 ................
0040E0C0 00 00 00 00 00 00 00 00 00 00 00 00 00 00 00 00 ................
0040E0D0 00 00 00 00 00 00 00 00 00 00 00 00 00 00 00 00 ................
0040E0E0 00 00 00 00 00 00 00 00 00 00 00 00 00 00 00 00 ................
0040E0F0 00 00 00 00 00 00 00 00 00 00 00 00 00 00 00 00 ................
0040E100 00 00 00 00 00 00 00 00 00 00 00 00 00 00 00 00 ................
0040E110 00 00 00 00 00 00 00 00 00 00 00 00 00 00 00 00 ................
0040E120 00 00 00 00 00 00 00 00 00 00 00 00 00 00 00 00 ................
0040E130 00 00 00 00 00 00 00 00 00 00 00 00 00 00 00 00 ................
0040E140 00 00 00 00 00 00 00 00 00 00 00 00 00 00 00 00 ................
0040E150 00 00 00 00 00 00 00 00 00 00 00 00 00 00 00 00 ................
0040E160 00 00 00 00 00 00 00 00 00 00 00 00 00 00 00 00 ................
0040E170 00 00 00 00 00 00 00 00 00 00 00 00 00 00 00 00 ................
0040E180 00 00 00 00 00 00 00 00 00 00 00 00 00 00 00 00 ................
0040E190 00 00 00 00 00 00 00 00 00 00 00 00 00 00 00 00 ................
0040E1A0 00 00 00 00 00 00 00 00 00 00 00 00 00 00 00 00 ................
0040E1B0 00 00 00 00 00 00 00 00 00 00 00 00 00 00 00 00 ................
0040E1C0 00 00 00 00 00 00 00 00 00 00 00 00 00 00 00 00 ................
0040E1D0 00 00 00 00 00 00 00 00 00 00 00 00 00 00 00 00 ................
0040E1E0 00 00 00 00 00 00 00 00 00 00 00 00 00 00 00 00 ................
0040E1F0 00 00 00 00 00 00 00 00 00 00 00 00 00 00 00 00 ................
0040E200 00 00 00 00 00 00 00 00 00 00 00 00 00 00 00 00 ................
0040E210 00 00 00 00 00 00 00 00 00 00 00 00 00 00 00 00 ................
0040E220 00 00 00 00 00 00 00 00 00 00 00 00 00 00 00 00 ................
0040E230 00 00 00 00 00 00 00 00 00 00 00 00 00 00 00 00 ................
0040E240 00 00 00 00 00 00 00 00 00 00 00 00 00 00 00 00 ................
0040E250 00 00 00 00 00 00 00 00 00 00 00 00 00 00 00 00 ................
0040E260 00 00 00 00 00 00 00 00 00 00 00 00 00 00 00 00 ................
0040E270 00 00 00 00 00 00 00 00 00 00 00 00 00 00 00 00 ................
0040E280 00 00 00 00 00 00 00 00 00 00 00 00 00 00 00 00 ................
0040E290 00 00 00 00 00 00 00 00 00 00 00 00 00 00 00 00 ................
0040E2A0 00 00 00 00 00 00 00 00 00 00 00 00 00 00 00 00 ................
0040E2B0 00 00 00 00 00 00 00 00 00 00 00 00 00 00 00 00 ................
0040E2C0 00 00 00 00 00 00 00 00 00 00 00 00 00 00 00 00 ................
0040E2D0 00 00 00 00 00 00 00 00 00 00 00 00 00 00 00 00 ................
0040E2E0 00 00 00 00 00 00 00 00 00 00 00 00 00 00 00 00 ................
0040E2F0 00 00 00 00 00 00 00 00 00 00 00 00 00 00 00 00 ................
0040E300 00 00 00 00 00 00 00 00 00 00 00 00 00 00 00 00 ................
0040E310 00 00 00 00 00 00 00 00 00 00 00 00 00 00 00 00 ................
0040E320 00 00 00 00 00 00 00 00 00 00 00 00 00 00 00 00 ................
0040E330 00 00 00 00 00 00 00 00 00 00 00 00 00 00 00 00 ................
0040E340 00 00 00 00 00 00 00 00 00 00 00 00 00 00 00 00 ................
0040E350 00 00 00 00 00 00 00 00 00 00 00 00 00 00 00 00 ................
0040E360 00 00 00 00 00 00 00 00 00 00 00 00 00 00 00 00 ................
0040E370 00 00 00 00 00 00 00 00 00 00 00 00 00 00 00 00 ................
0040E380 00 00 00 00 00 00 00 00 00 00 00 00 00 00 00 00 ................
0040E390 00 00 00 00 00 00 00 00 00 00 00 00 00 00 00 00 ................
0040E3A0 00 00 00 00 00 00 00 00 00 00 00 00 00 00 00 00 ................
0040E3B0 00 00 00 00 00 00 00 00 00 00 00 00 00 00 00 00 ................
0040E3C0 00 00 00 00 00 00 00 00 00 00 00 00 00 00 00 00 ................
0040E3D0 00 00 00 00 00 00 00 00 00 00 00 00 00 00 00 00 ................
0040E3E0 00 00 00 00 00 00 00 00 00 00 00 00 00 00 00 00 ................
0040E3F0 00 00 00 00 00 00 00 00 00 00 00 00 00 00 00 00 ................
0040E400 00 00 00 00 00 00 00 00 00 00 00 00 00 00 00 00 ................
0040E410 00 00 00 00 00 00 00 00 00 00 00 00 00 00 00 00 ................
0040E420 00 00 00 00 00 00 00 00 00 00 00 00 00 00 00 00 ................
0040E430 00 00 00 00 00 00 00 00 00 00 00 00 00 00 00 00 ................
0040E440 00 00 00 00 00 00 00 00 00 00 00 00 00 00 00 00 ................
0040E450 00 00 00 00 00 00 00 00 00 00 00 00 00 00 00 00 ................
0040E460 00 00 00 00 00 00 00 00 00 00 00 00 00 00 00 00 ................
0040E470 00 00 00 00 00 00 00 00 00 00 00 00 00 00 00 00 ................
0040E480 00 00 00 00 00 00 00 00 00 00 00 00 00 00 00 00 ................
0040E490 00 00 00 00 00 00 00 00 00 00 00 00 00 00 00 00 ................
0040E4A0 00 00 00 00 00 00 00 00 00 00 00 00 00 00 00 00 ................
0040E4B0 00 00 00 00 00 00 00 00 00 00 00 00 00 00 00 00 ................
0040E4C0 00 00 00 00 00 00 00 00 00 00 00 00 00 00 00 00 ................
0040E4D0 00 00 00 00 00 00 00 00 00 00 00 00 00 00 00 00 ................
0040E4E0 00 00 00 00 00 00 00 00 00 00 00 00 00 00 00 00 ................
0040E4F0 00 00 00 00 00 00 00 00 00 00 00 00 00 00 00 00 ................
0040E500 00 00 00 00 00 00 00 00 00 00 00 00 00 00 00 00 ................
0040E510 00 00 00 00 00 00 00 00 00 00 00 00 00 00 00 00 ................
0040E520 00 00 00 00 00 00 00 00 00 00 00 00 00 00 00 00 ................
0040E530 00 00 00 00 00 00 00 00 00 00 00 00 00 00 00 00 ................
0040E540 00 00 00 00 00 00 00 00 00 00 00 00 00 00 00 00 ................
0040E550 00 00 00 00 00 00 00 00 00 00 00 00 00 00 00 00 ................
0040E560 00 00 00 00 00 00 00 00 00 00 00 00 00 00 00 00 ................
0040E570 00 00 00 00 00 00 00 00 00 00 00 00 00 00 00 00 ................
0040E580 00 00 00 00 00 00 00 00 00 00 00 00 00 00 00 00 ................
0040E590 00 00 00 00 00 00 00 00 00 00 00 00 00 00 00 00 ................
0040E5A0 00 00 00 00 00 00 00 00 00 00 00 00 00 00 00 00 ................
0040E5B0 00 00 00 00 00 00 00 00 00 00 00 00 00 00 00 00 ................
0040E5C0 00 00 00 00 00 00 00 00 00 00 00 00 00 00 00 00 ................
0040E5D0 00 00 00 00 00 00 00 00 00 00 00 00 00 00 00 00 ................
0040E5E0 00 00 00 00 00 00 00 00 00 00 00 00 00 00 00 00 ................
0040E5F0 00 00 00 00 00 00 00 00 00 00 00 00 00 00 00 00 ................
0040E600 00 00 00 00 00 00 00 00 00 00 00 00 00 00 00 00 ................
0040E610 00 00 00 00 00 00 00 00 00 00 00 00 00 00 00 00 ................
0040E620 00 00 00 00 00 00 00 00 00 00 00 00 00 00 00 00 ................
0040E630 00 00 00 00 00 00 00 00 00 00 00 00 00 00 00 00 ................
0040E640 00 00 00 00 00 00 00 00 00 00 00 00 00 00 00 00 ................
0040E650 00 00 00 00 00 00 00 00 00 00 00 00 00 00 00 00 ................
0040E660 00 00 00 00 00 00 00 00 00 00 00 00 00 00 00 00 ................
0040E670 00 00 00 00 00 00 00 00 00 00 00 00 00 00 00 00 ................
0040E680 00 00 00 00 00 00 00 00 00 00 00 00 00 00 00 00 ................
0040E690 00 00 00 00 00 00 00 00 00 00 00 00 00 00 00 00 ................
0040E6A0 00 00 00 00 00 00 00 00 00 00 00 00 00 00 00 00 ................
0040E6B0 00 00 00 00 00 00 00 00 00 00 00 00 00 00 00 00 ................
0040E6C0 00 00 00 00 00 00 00 00 00 00 00 00 00 00 00 00 ................
0040E6D0 00 00 00 00 00 00 00 00 00 00 00 00 00 00 00 00 ................
0040E6E0 00 00 00 00 00 00 00 00 00 00 00 00 00 00 00 00 ................
0040E6F0 00 00 00 00 00 00 00 00 00 00 00 00 00 00 00 00 ................
0040E700 00 00 00 00 00 00 00 00 00 00 00 00 00 00 00 00 ................
0040E710 00 00 00 00 00 00 00 00 00 00 00 00 00 00 00 00 ................
0040E720 00 00 00 00 00 00 00 00 00 00 00 00 00 00 00 00 ................
0040E730 00 00 00 00 00 00 00 00 00 00 00 00 00 00 00 00 ................
0040E740 00 00 00 00 00 00 00 00 00 00 00 00 00 00 00 00 ................
0040E750 00 00 00 00 00 00 00 00 00 00 00 00 00 00 00 00 ................
0040E760 00 00 00 00 00 00 00 00 00 00 00 00 00 00 00 00 ................
0040E770 00 00 00 00 00 00 00 00 00 00 00 00 00 00 00 00 ................
0040E780 00 00 00 00 00 00 00 00 00 00 00 00 00 00 00 00 ................
0040E790 00 00 00 00 00 00 00 00 00 00 00 00 00 00 00 00 ................
0040E7A0 00 00 00 00 00 00 00 00 00 00 00 00 00 00 00 00 ................
0040E7B0 00 00 00 00 00 00 00 00 00 00 00 00 00 00 00 00 ................
0040E7C0 00 00 00 00 00 00 00 00 00 00 00 00 00 00 00 00 ................
0040E7D0 00 00 00 00 00 00 00 00 00 00 00 00 00 00 00 00 ................
0040E7E0 00 00 00 00 00 00 00 00 00 00 00 00 00 00 00 00 ................
0040E7F0 00 00 00 00 00 00 00 00 00 00 00 00 00 00 00 00 ................
0040E800 00 00 00 00 00 00 00 00 00 00 00 00 00 00 00 00 ................
0040E810 00 00 00 00 00 00 00 00 00 00 00 00 00 00 00 00 ................
0040E820 00 00 00 00 00 00 00 00 00 00 00 00 00 00 00 00 ................
0040E830 00 00 00 00 00 00 00 00 00 00 00 00 00 00 00 00 ................
0040E840 00 00 00 00 00 00 00 00 00 00 00 00 00 00 00 00 ................
0040E850 00 00 00 00 00 00 00 00 00 00 00 00 00 00 00 00 ................
0040E860 00 00 00 00 00 00 00 00 00 00 00 00 00 00 00 00 ................
0040E870 00 00 00 00 00 00 00 00 00 00 00 00 00 00 00 00 ................
0040E880 00 00 00 00 00 00 00 00 00 00 00 00 00 00 00 00 ................
0040E890 00 00 00 00 00 00 00 00 00 00 00 00 00 00 00 00 ................
0040E8A0 00 00 00 00 00 00 00 00 00 00 00 00 00 00 00 00 ................
0040E8B0 00 00 00 00 00 00 00 00 00 00 00 00 00 00 00 00 ................
0040E8C0 00 00 00 00 00 00 00 00 00 00 00 00 00 00 00 00 ................
0040E8D0 00 00 00 00 00 00 00 00 00 00 00 00 00 00 00 00 ................
0040E8E0 00 00 00 00 00 00 00 00 00 00 00 00 00 00 00 00 ................
0040E8F0 00 00 00 00 00 00 00 00 00 00 00 00 00 00 00 00 ................
0040E900 00 00 00 00 00 00 00 00 00 00 00 00 00 00 00 00 ................
0040E910 00 00 00 00 00 00 00 00 00 00 00 00 00 00 00 00 ................
0040E920 00 00 00 00 00 00 00 00 00 00 00 00 00 00 00 00 ................
0040E930 00 00 00 00 00 00 00 00 00 00 00 00 00 00 00 00 ................
0040E940 00 00 00 00 00 00 00 00 00 00 00 00 00 00 00 00 ................
0040E950 00 00 00 00 00 00 00 00 00 00 00 00 00 00 00 00 ................
0040E960 00 00 00 00 00 00 00 00 00 00 00 00 00 00 00 00 ................
0040E970 00 00 00 00 00 00 00 00 00 00 00 00 00 00 00 00 ................
0040E980 00 00 00 00 00 00 00 00 00 00 00 00 00 00 00 00 ................
0040E990 00 00 00 00 00 00 00 00 00 00 00 00 00 00 00 00 ................
0040E9A0 00 00 00 00 00 00 00 00 00 00 00 00 00 00 00 00 ................
0040E9B0 00 00 00 00 00 00 00 00 00 00 00 00 00 00 00 00 ................
0040E9C0 00 00 00 00 00 00 00 00 00 00 00 00 00 00 00 00 ................
0040E9D0 00 00 00 00 00 00 00 00 00 00 00 00 00 00 00 00 ................
0040E9E0 00 00 00 00 00 00 00 00 00 00 00 00 00 00 00 00 ................
0040E9F0 00 00 00 00 00 00 00 00 00 00 00 00 00 00 00 00 ................
0040EA00 00 00 00 00 00 00 00 00 00 00 00 00 00 00 00 00 ................
0040EA10 00 00 00 00 00 00 00 00 00 00 00 00 00 00 00 00 ................
0040EA20 00 00 00 00 00 00 00 00 00 00 00 00 00 00 00 00 ................
0040EA30 00 00 00 00 00 00 00 00 00 00 00 00 00 00 00 00 ................
0040EA40 00 00 00 00 00 00 00 00 00 00 00 00 00 00 00 00 ................
0040EA50 00 00 00 00 00 00 00 00 00 00 00 00 00 00 00 00 ................
0040EA60 00 00 00 00 00 00 00 00 00 00 00 00 00 00 00 00 ................
0040EA70 00 00 00 00 00 00 00 00 00 00 00 00 00 00 00 00 ................
0040EA80 00 00 00 00 00 00 00 00 00 00 00 00 00 00 00 00 ................
0040EA90 00 00 00 00 00 00 00 00 00 00 00 00 00 00 00 00 ................
0040EAA0 00 00 00 00 00 00 00 00 00 00 00 00 00 00 00 00 ................
0040EAB0 00 00 00 00 00 00 00 00 00 00 00 00 00 00 00 00 ................
0040EAC0 00 00 00 00 00 00 00 00 00 00 00 00 00 00 00 00 ................
0040EAD0 00 00 00 00 00 00 00 00 00 00 00 00 00 00 00 00 ................
0040EAE0 00 00 00 00 00 00 00 00 00 00 00 00 00 00 00 00 ................
0040EAF0 00 00 00 00 00 00 00 00 00 00 00 00 00 00 00 00 ................
0040EB00 00 00 00 00 00 00 00 00 00 00 00 00 00 00 00 00 ................
0040EB10 00 00 00 00 00 00 00 00 00 00 00 00 00 00 00 00 ................
0040EB20 00 00 00 00 00 00 00 00 00 00 00 00 00 00 00 00 ................
0040EB30 00 00 00 00 00 00 00 00 00 00 00 00 00 00 00 00 ................
0040EB40 00 00 00 00 00 00 00 00 00 00 00 00 00 00 00 00 ................
0040EB50 00 00 00 00 00 00 00 00 00 00 00 00 00 00 00 00 ................
0040EB60 00 00 00 00 00 00 00 00 00 00 00 00 00 00 00 00 ................
0040EB70 00 00 00 00 00 00 00 00 00 00 00 00 00 00 00 00 ................
0040EB80 00 00 00 00 00 00 00 00 00 00 00 00 00 00 00 00 ................
0040EB90 00 00 00 00 00 00 00 00 00 00 00 00 00 00 00 00 ................
0040EBA0 00 00 00 00 00 00 00 00 00 00 00 00 00 00 00 00 ................
0040EBB0 00 00 00 00 00 00 00 00 00 00 00 00 00 00 00 00 ................
0040EBC0 00 00 00 00 00 00 00 00 00 00 00 00 00 00 00 00 ................
0040EBD0 00 00 00 00 00 00 00 00 00 00 00 00 00 00 00 00 ................
0040EBE0 00 00 00 00 00 00 00 00 00 00 00 00 00 00 00 00 ................
0040EBF0 00 00 00 00 00 00 00 00 00 00 00 00 00 00 00 00 ................
0040EC00 00 00 00 00 00 00 00 00 00 00 00 00 00 00 00 00 ................
0040EC10 00 00 00 00 00 00 00 00 00 00 00 00 00 00 00 00 ................
0040EC20 00 00 00 00 00 00 00 00 00 00 00 00 00 00 00 00 ................
0040EC30 00 00 00 00 00 00 00 00 00 00 00 00 00 00 00 00 ................
0040EC40 00 00 00 00 00 00 00 00 00 00 00 00 00 00 00 00 ................
0040EC50 00 00 00 00 00 00 00 00 00 00 00 00 00 00 00 00 ................
0040EC60 00 00 00 00 00 00 00 00 00 00 00 00 00 00 00 00 ................
0040EC70 00 00 00 00 00 00 00 00 00 00 00 00 00 00 00 00 ................
0040EC80 00 00 00 00 00 00 00 00 00 00 00 00 00 00 00 00 ................
0040EC90 00 00 00 00 00 00 00 00 00 00 00 00 00 00 00 00 ................
0040ECA0 00 00 00 00 00 00 00 00 00 00 00 00 00 00 00 00 ................
0040ECB0 00 00 00 00 00 00 00 00 00 00 00 00 00 00 00 00 ................
0040ECC0 00 00 00 00 00 00 00 00 00 00 00 00 00 00 00 00 ................
0040ECD0 00 00 00 00 00 00 00 00 00 00 00 00 00 00 00 00 ................
0040ECE0 00 00 00 00 00 00 00 00 00 00 00 00 00 00 00 00 ................
0040ECF0 00 00 00 00 00 00 00 00 00 00 00 00 00 00 00 00 ................
0040ED00 00 00 00 00 00 00 00 00 00 00 00 00 00 00 00 00 ................
0040ED10 00 00 00 00 00 00 00 00 00 00 00 00 00 00 00 00 ................
0040ED20 00 00 00 00 00 00 00 00 00 00 00 00 00 00 00 00 ................
0040ED30 00 00 00 00 00 00 00 00 00 00 00 00 00 00 00 00 ................
0040ED40 00 00 00 00 00 00 00 00 00 00 00 00 00 00 00 00 ................
0040ED50 00 00 00 00 00 00 00 00 00 00 00 00 00 00 00 00 ................
0040ED60 00 00 00 00 00 00 00 00 00 00 00 00 00 00 00 00 ................
0040ED70 00 00 00 00 00 00 00 00 00 00 00 00 00 00 00 00 ................
0040ED80 00 00 00 00 00 00 00 00 00 00 00 00 00 00 00 00 ................
0040ED90 00 00 00 00 00 00 00 00 00 00 00 00 00 00 00 00 ................
0040EDA0 00 00 00 00 00 00 00 00 00 00 00 00 00 00 00 00 ................
0040EDB0 00 00 00 00 00 00 00 00 00 00 00 00 00 00 00 00 ................
0040EDC0 00 00 00 00 00 00 00 00 00 00 00 00 00 00 00 00 ................
0040EDD0 00 00 00 00 00 00 00 00 00 00 00 00 00 00 00 00 ................
0040EDE0 00 00 00 00 00 00 00 00 00 00 00 00 00 00 00 00 ................
0040EDF0 00 00 00 00 00 00 00 00 00 00 00 00 00 00 00 00 ................
0040EE00 00 00 00 00 00 00 00 00 00 00 00 00 00 00 00 00 ................
0040EE10 00 00 00 00 00 00 00 00 00 00 00 00 00 00 00 00 ................
0040EE20 00 00 00 00 00 00 00 00 00 00 00 00 00 00 00 00 ................
0040EE30 00 00 00 00 00 00 00 00 00 00 00 00 00 00 00 00 ................
0040EE40 00 00 00 00 00 00 00 00 00 00 00 00 00 00 00 00 ................
0040EE50 00 00 00 00 00 00 00 00 00 00 00 00 00 00 00 00 ................
0040EE60 00 00 00 00 00 00 00 00 00 00 00 00 00 00 00 00 ................
0040EE70 00 00 00 00 00 00 00 00 00 00 00 00 00 00 00 00 ................
0040EE80 00 00 00 00 00 00 00 00 00 00 00 00 00 00 00 00 ................
0040EE90 00 00 00 00 00 00 00 00 00 00 00 00 00 00 00 00 ................
0040EEA0 00 00 00 00 00 00 00 00 00 00 00 00 00 00 00 00 ................
0040EEB0 00 00 00 00 00 00 00 00 00 00 00 00 00 00 00 00 ................
0040EEC0 00 00 00 00 00 00 00 00 00 00 00 00 00 00 00 00 ................
0040EED0 00 00 00 00 00 00 00 00 00 00 00 00 00 00 00 00 ................
0040EEE0 00 00 00 00 00 00 00 00 00 00 00 00 00 00 00 00 ................
0040EEF0 00 00 00 00 00 00 00 00 00 00 00 00 00 00 00 00 ................
0040EF00 00 00 00 00 00 00 00 00 00 00 00 00 00 00 00 00 ................
0040EF10 00 00 00 00 00 00 00 00 00 00 00 00 00 00 00 00 ................
0040EF20 00 00 00 00 00 00 00 00 00 00 00 00 00 00 00 00 ................
0040EF30 00 00 00 00 00 00 00 00 00 00 00 00 00 00 00 00 ................
0040EF40 00 00 00 00 00 00 00 00 00 00 00 00 00 00 00 00 ................
0040EF50 00 00 00 00 00 00 00 00 00 00 00 00 00 00 00 00 ................
0040EF60 00 00 00 00 00 00 00 00 00 00 00 00 00 00 00 00 ................
0040EF70 00 00 00 00 00 00 00 00 00 00 00 00 00 00 00 00 ................
0040EF80 00 00 00 00 00 00 00 00 00 00 00 00 00 00 00 00 ................
0040EF90 00 00 00 00 00 00 00 00 00 00 00 00 00 00 00 00 ................
0040EFA0 00 00 00 00 00 00 00 00 00 00 00 00 00 00 00 00 ................
0040EFB0 00 00 00 00 00 00 00 00 00 00 00 00 00 00 00 00 ................
0040EFC0 00 00 00 00 00 00 00 00 00 00 00 00 00 00 00 00 ................
0040EFD0 00 00 00 00 00 00 00 00 00 00 00 00 00 00 00 00 ................
0040EFE0 00 00 00 00 00 00 00 00 00 00 00 00 00 00 00 00 ................
0040EFF0 00 00 00 00 00 00 00 00 00 00 00 00 00 00 00 00 ................
0040F000 80 F2 00 00 92 F2 00 00 A4 F2 00 00 BC F2 00 00 ................
0040F010 CC F2 00 00 D8 F2 00 00 E4 F2 00 00 F0 F2 00 00 ................
0040F020 FE F2 00 00 14 F3 00 00 26 F3 00 00 40 F3 00 00 ........&...@...
0040F030 5C F3 00 00 6C F3 00 00 82 F3 00 00 8E F3 00 00 \...l...........
0040F040 A6 F3 00 00 B6 F3 00 00 CA F3 00 00 D6 F3 00 00 ................
0040F050 E6 F3 00 00 F6 F3 00 00 06 F4 00 00 18 F4 00 00 ................
0040F060 24 F4 00 00 42 F4 00 00 00 00 00 00 5C F4 00 00 $...B.......\...
0040F070 68 F4 00 00 7C F4 00 00 8E F4 00 00 9E F4 00 00 h...|...........
0040F080 B0 F4 00 00 C2 F4 00 00 D6 F4 00 00 E2 F4 00 00 ................
0040F090 EA F4 00 00 FC F4 00 00 12 F5 00 00 24 F5 00 00 ............$...
0040F0A0 30 F5 00 00 42 F5 00 00 54 F5 00 00 6A F5 00 00 0...B...T...j...
0040F0B0 76 F5 00 00 82 F5 00 00 8E F5 00 00 A0 F5 00 00 v...............
0040F0C0 AE F5 00 00 BE F5 00 00 CA F5 00 00 D6 F5 00 00 ................
0040F0D0 E4 F5 00 00 F4 F5 00 00 08 F6 00 00 1A F6 00 00 ................
0040F0E0 2C F6 00 00 38 F6 00 00 46 F6 00 00 5E F6 00 00 ,...8...F...^...
0040F0F0 6A F6 00 00 76 F6 00 00 84 F6 00 00 98 F6 00 00 j...v...........
0040F100 AA F6 00 00 B8 F6 00 00 CA F6 00 00 D8 F6 00 00 ................
0040F110 E4 F6 00 00 F2 F6 00 00 06 F7 00 00 00 00 00 00 ................
0040F120 00 00 00 00 60 F1 00 00 00 00 00 00 00 00 00 00 ....`...........
0040F130 4E F4 00 00 00 F0 00 00 CC F1 00 00 00 00 00 00 N...............
0040F140 00 00 00 00 12 F7 00 00 6C F0 00 00 00 00 00 00 ........l.......
0040F150 00 00 00 00 00 00 00 00 00 00 00 00 00 00 00 00 ................
0040F160 80 F2 00 00 92 F2 00 00 A4 F2 00 00 BC F2 00 00 ................
0040F170 CC F2 00 00 D8 F2 00 00 E4 F2 00 00 F0 F2 00 00 ................
0040F180 FE F2 00 00 14 F3 00 00 26 F3 00 00 40 F3 00 00 ........&...@...
0040F190 5C F3 00 00 6C F3 00 00 82 F3 00 00 8E F3 00 00 \...l...........
0040F1A0 A6 F3 00 00 B6 F3 00 00 CA F3 00 00 D6 F3 00 00 ................
0040F1B0 E6 F3 00 00 F6 F3 00 00 06 F4 00 00 18 F4 00 00 ................
0040F1C0 24 F4 00 00 42 F4 00 00 00 00 00 00 5C F4 00 00 $...B.......\...
0040F1D0 68 F4 00 00 7C F4 00 00 8E F4 00 00 9E F4 00 00 h...|...........
0040F1E0 B0 F4 00 00 C2 F4 00 00 D6 F4 00 00 E2 F4 00 00 ................
0040F1F0 EA F4 00 00 FC F4 00 00 12 F5 00 00 24 F5 00 00 ............$...
0040F200 30 F5 00 00 42 F5 00 00 54 F5 00 00 6A F5 00 00 0...B...T...j...
0040F210 76 F5 00 00 82 F5 00 00 8E F5 00 00 A0 F5 00 00 v...............
0040F220 AE F5 00 00 BE F5 00 00 CA F5 00 00 D6 F5 00 00 ................
0040F230 E4 F5 00 00 F4 F5 00 00 08 F6 00 00 1A F6 00 00 ................
0040F240 2C F6 00 00 38 F6 00 00 46 F6 00 00 5E F6 00 00 ,...8...F...^...
0040F250 6A F6 00 00 76 F6 00 00 84 F6 00 00 98 F6 00 00 j...v...........
0040F260 AA F6 00 00 B8 F6 00 00 CA F6 00 00 D8 F6 00 00 ................
0040F270 E4 F6 00 00 F2 F6 00 00 06 F7 00 00 00 00 00 00 ................
0040F280 25 00 47 65 74 43 6F 6D 6D 61 6E 64 4C 69 6E 65 %.GetCommandLine
0040F290 57 00 29 00 47 65 74 50 72 6F 63 41 64 64 72 65 W.).GetProcAddre
0040F2A0 73 73 00 00 2E 00 45 6E 74 65 72 43 72 69 74 69 ss....EnterCriti
0040F2B0 63 61 6C 53 65 63 74 69 6F 6E 00 00 33 00 56 69 calSection..3.Vi
0040F2C0 72 74 75 61 6C 41 6C 6C 6F 63 00 00 37 00 6C 73 rtualAlloc..7.ls
0040F2D0 74 72 63 70 79 57 00 00 38 00 57 72 69 74 65 46 trcpyW..8.WriteF
0040F2E0 69 6C 65 00 3C 00 6C 73 74 72 6C 65 6E 57 00 00 ile.<.lstrlenW..
0040F2F0 3F 00 48 65 61 70 44 65 73 74 72 6F 79 00 41 00 ?.HeapDestroy.A.
0040F300 57 61 69 74 46 6F 72 53 69 6E 67 6C 65 4F 62 6A WaitForSingleObj
0040F310 65 63 74 00 45 00 47 65 74 50 72 6F 63 65 73 73 ect.E.GetProcess
0040F320 48 65 61 70 00 00 4B 00 51 75 65 72 79 50 65 72 Heap..K.QueryPer
0040F330 66 6F 72 6D 61 6E 63 65 43 6F 75 6E 74 65 72 00 formanceCounter.
0040F340 4D 00 49 6E 69 74 69 61 6C 69 7A 65 43 72 69 74 M.InitializeCrit
0040F350 69 63 61 6C 53 65 63 74 69 6F 6E 00 50 00 47 65 icalSection.P.Ge
0040F360 74 4C 61 73 74 45 72 72 6F 72 00 00 54 00 47 65 tLastError..T.Ge
0040F370 74 4D 6F 64 75 6C 65 46 69 6C 65 4E 61 6D 65 41 tModuleFileNameA
0040F380 00 00 58 00 4C 6F 63 61 6C 46 72 65 65 00 5B 00 ..X.LocalFree.[.
0040F390 49 6E 74 65 72 6C 6F 63 6B 65 64 49 6E 63 72 65 InterlockedIncre
0040F3A0 6D 65 6E 74 00 00 5F 00 47 65 74 54 69 63 6B 43 ment.._.GetTickC
0040F3B0 6F 75 6E 74 00 00 65 00 47 65 74 4D 6F 64 75 6C ount..e.GetModul
0040F3C0 65 48 61 6E 64 6C 65 57 00 00 68 00 52 65 61 64 eHandleW..h.Read
0040F3D0 46 69 6C 65 00 00 6B 00 47 65 74 4C 61 73 74 45 File..k.GetLastE
0040F3E0 72 72 6F 72 00 00 6E 00 4C 6F 61 64 4C 69 62 72 rror..n.LoadLibr
0040F3F0 61 72 79 57 00 00 72 00 47 65 74 56 65 72 73 69 aryW..r.GetVersi
0040F400 6F 6E 45 78 41 00 74 00 47 65 74 50 72 6F 63 65 onExA.t.GetProce
0040F410 73 73 48 65 61 70 00 00 75 00 48 65 61 70 41 6C ssHeap..u.HeapAl
0040F420 6C 6F 63 00 77 00 53 65 74 55 6E 68 61 6E 64 6C loc.w.SetUnhandl
0040F430 65 64 45 78 63 65 70 74 69 6F 6E 46 69 6C 74 65 edExceptionFilte
0040F440 72 00 7C 00 4C 6F 63 61 6C 46 72 65 65 00 4B 45 r.|.LocalFree.KE
0040F450 52 4E 45 4C 33 32 2E 44 4C 4C 00 00 1E 00 47 65 RNEL32.DLL....Ge
0040F460 74 57 69 6E 64 6F 77 00 22 00 47 65 74 44 65 73 tWindow.".GetDes
0040F470 6B 74 6F 70 57 69 6E 64 6F 77 00 00 24 00 43 68 ktopWindow..$.Ch
0040F480 65 63 6B 44 6C 67 42 75 74 74 6F 6E 00 00 27 00 eckDlgButton..'.
0040F490 47 65 74 57 69 6E 64 6F 77 52 65 63 74 00 29 00 GetWindowRect.).
0040F4A0 52 65 6C 65 61 73 65 43 61 70 74 75 72 65 00 00 ReleaseCapture..
0040F4B0 2F 00 52 65 6C 65 61 73 65 43 61 70 74 75 72 65 /.ReleaseCapture
0040F4C0 00 00 33 00 44 69 73 70 61 74 63 68 4D 65 73 73 ..3.DispatchMess
0040F4D0 61 67 65 41 00 00 35 00 49 73 49 63 6F 6E 69 63 ageA..5.IsIconic
0040F4E0 00 00 3A 00 47 65 74 44 43 00 3D 00 47 65 74 44 ..:.GetDC.=.GetD
0040F4F0 6C 67 49 74 65 6D 54 65 78 74 57 00 40 00 53 65 lgItemTextW.@.Se
0040F500 6E 64 44 6C 67 49 74 65 6D 4D 65 73 73 61 67 65 ndDlgItemMessage
0040F510 57 00 45 00 44 69 61 6C 6F 67 42 6F 78 50 61 72 W.E.DialogBoxPar
0040F520 61 6D 57 00 46 00 53 65 74 54 69 6D 65 72 00 00 amW.F.SetTimer..
0040F530 47 00 43 61 6C 6C 57 69 6E 64 6F 77 50 72 6F 63 G.CallWindowProc
0040F540 57 00 48 00 44 69 61 6C 6F 67 42 6F 78 50 61 72 W.H.DialogBoxPar
0040F550 61 6D 57 00 4A 00 53 65 74 46 6F 72 65 67 72 6F amW.J.SetForegro
0040F560 75 6E 64 57 69 6E 64 6F 77 00 4E 00 47 65 74 57 undWindow.N.GetW
0040F570 69 6E 64 6F 77 00 52 00 50 74 49 6E 52 65 63 74 indow.R.PtInRect
0040F580 00 00 58 00 44 72 61 77 54 65 78 74 57 00 5B 00 ..X.DrawTextW.[.
0040F590 43 61 6C 6C 57 69 6E 64 6F 77 50 72 6F 63 57 00 CallWindowProcW.
0040F5A0 5E 00 4C 6F 61 64 49 6D 61 67 65 57 00 00 63 00 ^.LoadImageW..c.
0040F5B0 45 6E 61 62 6C 65 57 69 6E 64 6F 77 00 00 64 00 EnableWindow..d.
0040F5C0 47 65 74 57 69 6E 64 6F 77 00 68 00 4C 6F 61 64 GetWindow.h.Load
0040F5D0 49 63 6F 6E 57 00 6D 00 4C 6F 61 64 53 74 72 69 IconW.m.LoadStri
0040F5E0 6E 67 41 00 71 00 53 65 74 57 69 6E 64 6F 77 50 ngA.q.SetWindowP
0040F5F0 6F 73 00 00 76 00 54 72 61 6E 73 6C 61 74 65 4D os..v.TranslateM
0040F600 65 73 73 61 67 65 00 00 7B 00 53 65 74 44 6C 67 essage..{.SetDlg
0040F610 49 74 65 6D 54 65 78 74 57 00 7D 00 49 73 57 69 ItemTextW.}.IsWi
0040F620 6E 64 6F 77 56 69 73 69 62 6C 65 00 7F 00 43 6F ndowVisible...Co
0040F630 70 79 52 65 63 74 00 00 80 00 4D 65 73 73 61 67 pyRect....Messag
0040F640 65 42 6F 78 57 00 85 00 53 79 73 74 65 6D 50 61 eBoxW...SystemPa
0040F650 72 61 6D 65 74 65 72 73 49 6E 66 6F 57 00 89 00 rametersInfoW...
0040F660 47 65 74 50 61 72 65 6E 74 00 8B 00 57 69 6E 48 GetParent...WinH
0040F670 65 6C 70 57 00 00 90 00 4C 6F 61 64 53 74 72 69 elpW....LoadStri
0040F680 6E 67 41 00 92 00 52 65 67 69 73 74 65 72 43 6C ngA...RegisterCl
0040F690 61 73 73 45 78 57 00 00 96 00 50 6F 73 74 51 75 assExW....PostQu
0040F6A0 69 74 4D 65 73 73 61 67 65 00 98 00 44 65 73 74 itMessage...Dest
0040F6B0 72 6F 79 49 63 6F 6E 00 9D 00 45 6E 61 62 6C 65 royIcon...Enable
0040F6C0 4D 65 6E 75 49 74 65 6D 00 00 9E 00 4C 6F 61 64 MenuItem....Load
0040F6D0 43 75 72 73 6F 72 57 00 A3 00 47 65 74 50 61 72 CursorW...GetPar
0040F6E0 65 6E 74 00 A7 00 4C 6F 61 64 53 74 72 69 6E 67 ent...LoadString
0040F6F0 41 00 AD 00 44 69 73 70 61 74 63 68 4D 65 73 73 A...DispatchMess
0040F700 61 67 65 57 00 00 B3 00 47 65 74 50 61 72 65 6E ageW....GetParen
0040F710 74 00 55 53 45 52 33 32 2E 44 4C 4C 00 00 00 00 t.USER32.DLL....
0040F720 00 00 00 00 00 00 00 00 00 00 00 00 00 00 00 00 ................
0040F730 00 00 00 00 00 00 00 00 00 00 00 00 00 00 00 00 ................
0040F740 00 00 00 00 00 00 00 00 00 00 00 00 00 00 00 00 ................
0040F750 00 00 00 00 00 00 00 00 00 00 00 00 00 00 00 00 ................
0040F760 00 00 00 00 00 00 00 00 00 00 00 00 00 00 00 00 ................
0040F770 00 00 00 00 00 00 00 00 00 00 00 00 00 00 00 00 ................
0040F780 00 00 00 00 00 00 00 00 00 00 00 00 00 00 00 00 ................
0040F790 00 00 00 00 00 00 00 00 00 00 00 00 00 00 00 00 ................
0040F7A0 00 00 00 00 00 00 00 00 00 00 00 00 00 00 00 00 ................
0040F7B0 00 00 00 00 00 00 00 00 00 00 00 00 00 00 00 00 ................
0040F7C0 00 00 00 00 00 00 00 00 00 00 00 00 00 00 00 00 ................
0040F7D0 00 00 00 00 00 00 00 00 00 00 00 00 00 00 00 00 ................
0040F7E0 00 00 00 00 00 00 00 00 00 00 00 00 00 00 00 00 ................
0040F7F0 00 00 00 00 00 00 00 00 00 00 00 00 00 00 00 00 ................
0040F800 00 00 00 00 00 00 00 00 00 00 00 00 00 00 00 00 ................
0040F810 00 00 00 00 00 00 00 00 00 00 00 00 00 00 00 00 ................
0040F820 00 00 00 00 00 00 00 00 00 00 00 00 00 00 00 00 ................
0040F830 00 00 00 00 00 00 00 00 00 00 00 00 00 00 00 00 ................
0040F840 00 00 00 00 00 00 00 00 00 00 00 00 00 00 00 00 ................
0040F850 00 00 00 00 00 00 00 00 00 00 00 00 00 00 00 00 ................
0040F860 00 00 00 00 00 00 00 00 00 00 00 00 00 00 00 00 ................
0040F870 00 00 00 00 00 00 00 00 00 00 00 00 00 00 00 00 ................
0040F880 00 00 00 00 00 00 00 00 00 00 00 00 00 00 00 00 ................
0040F890 00 00 00 00 00 00 00 00 00 00 00 00 00 00 00 00 ................
0040F8A0 00 00 00 00 00 00 00 00 00 00 00 00 00 00 00 00 ................
0040F8B0 00 00 00 00 00 00 00 00 00 00 00 00 00 00 00 00 ................
0040F8C0 00 00 00 00 00 00 00 00 00 00 00 00 00 00 00 00 ................
0040F8D0 00 00 00 00 00 00 00 00 00 00 00 00 00 00 00 00 ................
0040F8E0 00 00 00 00 00 00 00 00 00 00 00 00 00 00 00 00 ................
0040F8F0 00 00 00 00 00 00 00 00 00 00 00 00 00 00 00 00 ................
0040F900 00 00 00 00 00 00 00 00 00 00 00 00 00 00 00 00 ................
0040F910 00 00 00 00 00 00 00 00 00 00 00 00 00 00 00 00 ................
0040F920 00 00 00 00 00 00 00 00 00 00 00 00 00 00 00 00 ................
0040F930 00 00 00 00 00 00 00 00 00 00 00 00 00 00 00 00 ................
0040F940 00 00 00 00 00 00 00 00 00 00 00 00 00 00 00 00 ................
0040F950 00 00 00 00 00 00 00 00 00 00 00 00 00 00 00 00 ................
0040F960 00 00 00 00 00 00 00 00 00 00 00 00 00 00 00 00 ................
0040F970 00 00 00 00 00 00 00 00 00 00 00 00 00 00 00 00 ................
0040F980 00 00 00 00 00 00 00 00 00 00 00 00 00 00 00 00 ................
0040F990 00 00 00 00 00 00 00 00 00 00 00 00 00 00 00 00 ................
0040F9A0 00 00 00 00 00 00 00 00 00 00 00 00 00 00 00 00 ................
0040F9B0 00 00 00 00 00 00 00 00 00 00 00 00 00 00 00 00 ................
0040F9C0 00 00 00 00 00 00 00 00 00 00 00 00 00 00 00 00 ................
0040F9D0 00 00 00 00 00 00 00 00 00 00 00 00 00 00 00 00 ................
0040F9E0 00 00 00 00 00 00 00 00 00 00 00 00 00 00 00 00 ................
0040F9F0 00 00 00 00 00 00 00 00 00 00 00 00 00 00 00 00 ................
0040FA00 00 00 00 00 00 00 00 00 00 00 00 00 00 00 00 00 ................
0040FA10 00 00 00 00 00 00 00 00 00 00 00 00 00 00 00 00 ................
0040FA20 00 00 00 00 00 00 00 00 00 00 00 00 00 00 00 00 ................
0040FA30 00 00 00 00 00 00 00 00 00 00 00 00 00 00 00 00 ................
0040FA40 00 00 00 00 00 00 00 00 00 00 00 00 00 00 00 00 ................
0040FA50 00 00 00 00 00 00 00 00 00 00 00 00 00 00 00 00 ................
0040FA60 00 00 00 00 00 00 00 00 00 00 00 00 00 00 00 00 ................
0040FA70 00 00 00 00 00 00 00 00 00 00 00 00 00 00 00 00 ................
0040FA80 00 00 00 00 00 00 00 00 00 00 00 00 00 00 00 00 ................
0040FA90 00 00 00 00 00 00 00 00 00 00 00 00 00 00 00 00 ................
0040FAA0 00 00 00 00 00 00 00 00 00 00 00 00 00 00 00 00 ................
0040FAB0 00 00 00 00 00 00 00 00 00 00 00 00 00 00 00 00 ................
0040FAC0 00 00 00 00 00 00 00 00 00 00 00 00 00 00 00 00 ................
0040FAD0 00 00 00 00 00 00 00 00 00 00 00 00 00 00 00 00 ................
0040FAE0 00 00 00 00 00 00 00 00 00 00 00 00 00 00 00 00 ................
0040FAF0 00 00 00 00 00 00 00 00 00 00 00 00 00 00 00 00 ................
0040FB00 00 00 00 00 00 00 00 00 00 00 00 00 00 00 00 00 ................
0040FB10 00 00 00 00 00 00 00 00 00 00 00 00 00 00 00 00 ................
0040FB20 00 00 00 00 00 00 00 00 00 00 00 00 00 00 00 00 ................
0040FB30 00 00 00 00 00 00 00 00 00 00 00 00 00 00 00 00 ................
0040FB40 00 00 00 00 00 00 00 00 00 00 00 00 00 00 00 00 ................
0040FB50 00 00 00 00 00 00 00 00 00 00 00 00 00 00 00 00 ................
0040FB60 00 00 00 00 00 00 00 00 00 00 00 00 00 00 00 00 ................
0040FB70 00 00 00 00 00 00 00 00 00 00 00 00 00 00 00 00 ................
0040FB80 00 00 00 00 00 00 00 00 00 00 00 00 00 00 00 00 ................
0040FB90 00 00 00 00 00 00 00 00 00 00 00 00 00 00 00 00 ................
0040FBA0 00 00 00 00 00 00 00 00 00 00 00 00 00 00 00 00 ................
0040FBB0 00 00 00 00 00 00 00 00 00 00 00 00 00 00 00 00 ................
0040FBC0 00 00 00 00 00 00 00 00 00 00 00 00 00 00 00 00 ................
0040FBD0 00 00 00 00 00 00 00 00 00 00 00 00 00 00 00 00 ................
0040FBE0 00 00 00 00 00 00 00 00 00 00 00 00 00 00 00 00 ................
0040FBF0 00 00 00 00 00 00 00 00 00 00 00 00 00 00 00 00 ................
0040FC00 00 00 00 00 00 00 00 00 00 00 00 00 00 00 00 00 ................
0040FC10 00 00 00 00 00 00 00 00 00 00 00 00 00 00 00 00 ................
0040FC20 00 00 00 00 00 00 00 00 00 00 00 00 00 00 00 00 ................
0040FC30 00 00 00 00 00 00 00 00 00 00 00 00 00 00 00 00 ................
0040FC40 00 00 00 00 00 00 00 00 00 00 00 00 00 00 00 00 ................
0040FC50 00 00 00 00 00 00 00 00 00 00 00 00 00 00 00 00 ................
0040FC60 00 00 00 00 00 00 00 00 00 00 00 00 00 00 00 00 ................
0040FC70 00 00 00 00 00 00 00 00 00 00 00 00 00 00 00 00 ................
0040FC80 00 00 00 00 00 00 00 00 00 00 00 00 00 00 00 00 ................
0040FC90 00 00 00 00 00 00 00 00 00 00 00 00 00 00 00 00 ................
0040FCA0 00 00 00 00 00 00 00 00 00 00 00 00 00 00 00 00 ................
0040FCB0 00 00 00 00 00 00 00 00 00 00 00 00 00 00 00 00 ................
0040FCC0 00 00 00 00 00 00 00 00 00 00 00 00 00 00 00 00 ................
0040FCD0 00 00 00 00 00 00 00 00 00 00 00 00 00 00 00 00 ................
0040FCE0 00 00 00 00 00 00 00 00 00 00 00 00 00 00 00 00 ................
0040FCF0 00 00 00 00 00 00 00 00 00 00 00 00 00 00 00 00 ................
0040FD00 00 00 00 00 00 00 00 00 00 00 00 00 00 00 00 00 ................
0040FD10 00 00 00 00 00 00 00 00 00 00 00 00 00 00 00 00 ................
0040FD20 00 00 00 00 00 00 00 00 00 00 00 00 00 00 00 00 ................
0040FD30 00 00 00 00 00 00 00 00 00 00 00 00 00 00 00 00 ................
0040FD40 00 00 00 00 00 00 00 00 00 00 00 00 00 00 00 00 ................
0040FD50 00 00 00 00 00 00 00 00 00 00 00 00 00 00 00 00 ................
0040FD60 00 00 00 00 00 00 00 00 00 00 00 00 00 00 00 00 ................
0040FD70 00 00 00 00 00 00 00 00 00 00 00 00 00 00 00 00 ................
0040FD80 00 00 00 00 00 00 00 00 00 00 00 00 00 00 00 00 ................
0040FD90 00 00 00 00 00 00 00 00 00 00 00 00 00 00 00 00 ................
0040FDA0 00 00 00 00 00 00 00 00 00 00 00 00 00 00 00 00 ................
0040FDB0 00 00 00 00 00 00 00 00 00 00 00 00 00 00 00 00 ................
0040FDC0 00 00 00 00 00 00 00 00 00 00 00 00 00 00 00 00 ................
0040FDD0 00 00 00 00 00 00 00 00 00 00 00 00 00 00 00 00 ................
0040FDE0 00 00 00 00 00 00 00 00 00 00 00 00 00 00 00 00 ................
0040FDF0 00 00 00 00 00 00 00 00 00 00 00 00 00 00 00 00 ................
0040FE00 00 00 00 00 00 00 00 00 00 00 00 00 00 00 00 00 ................
0040FE10 00 00 00 00 00 00 00 00 00 00 00 00 00 00 00 00 ................
0040FE20 00 00 00 00 00 00 00 00 00 00 00 00 00 00 00 00 ................
0040FE30 00 00 00 00 00 00 00 00 00 00 00 00 00 00 00 00 ................
0040FE40 00 00 00 00 00 00 00 00 00 00 00 00 00 00 00 00 ................
0040FE50 00 00 00 00 00 00 00 00 00 00 00 00 00 00 00 00 ................
0040FE60 00 00 00 00 00 00 00 00 00 00 00 00 00 00 00 00 ................
0040FE70 00 00 00 00 00 00 00 00 00 00 00 00 00 00 00 00 ................
0040FE80 00 00 00 00 00 00 00 00 00 00 00 00 00 00 00 00 ................
0040FE90 00 00 00 00 00 00 00 00 00 00 00 00 00 00 00 00 ................
0040FEA0 00 00 00 00 00 00 00 00 00 00 00 00 00 00 00 00 ................
0040FEB0 00 00 00 00 00 00 00 00 00 00 00 00 00 00 00 00 ................
0040FEC0 00 00 00 00 00 00 00 00 00 00 00 00 00 00 00 00 ................
0040FED0 00 00 00 00 00 00 00 00 00 00 00 00 00 00 00 00 ................
0040FEE0 00 00 00 00 00 00 00 00 00 00 00 00 00 00 00 00 ................
0040FEF0 00 00 00 00 00 00 00 00 00 00 00 00 00 00 00 00 ................
0040FF00 00 00 00 00 00 00 00 00 00 00 00 00 00 00 00 00 ................
0040FF10 00 00 00 00 00 00 00 00 00 00 00 00 00 00 00 00 ................
0040FF20 00 00 00 00 00 00 00 00 00 00 00 00 00 00 00 00 ................
0040FF30 00 00 00 00 00 00 00 00 00 00 00 00 00 00 00 00 ................
0040FF40 00 00 00 00 00 00 00 00 00 00 00 00 00 00 00 00 ................
0040FF50 00 00 00 00 00 00 00 00 00 00 00 00 00 00 00 00 ................
0040FF60 00 00 00 00 00 00 00 00 00 00 00 00 00 00 00 00 ................
0040FF70 00 00 00 00 00 00 00 00 00 00 00 00 00 00 00 00 ................
0040FF80 00 00 00 00 00 00 00 00 00 00 00 00 00 00 00 00 ................
0040FF90 00 00 00 00 00 00 00 00 00 00 00 00 00 00 00 00 ................
0040FFA0 00 00 00 00 00 00 00 00 00 00 00 00 00 00 00 00 ................
0040FFB0 00 00 00 00 00 00 00 00 00 00 00 00 00 00 00 00 ................
0040FFC0 00 00 00 00 00 00 00 00 00 00 00 00 00 00 00 00 ................
0040FFD0 00 00 00 00 00 00 00 00 00 00 00 00 00 00 00 00 ................
0040FFE0 00 00 00 00 00 00 00 00 00 00 00 00 00 00 00 00 ................
0040FFF0 00 00 00 00 00 00 00 00 00 00 00 00 00 00 00 00 ................
00410000 00 00 00 00 00 00 00 00 00 00 00 00 00 00 03 00 ................
00410010 03 00 00 00 28 00 00 80 0E 00 00 00 40 00 00 80 ....(.......@...
00410020 10 00 00 00 58 00 00 80 00 00 00 00 00 00 00 00 ....X...........
00410030 00 00 00 00 00 00 01 00 01 00 00 00 70 00 00 80 ............p...
00410040 00 00 00 00 00 00 00 00 00 00 00 00 00 00 01 00 ................
00410050 25 70 00 00 88 00 00 80 00 00 00 00 00 00 00 00 %p..............
00410060 00 00 00 00 00 00 01 00 D3 96 00 00 A0 00 00 80 ................
00410070 00 00 00 00 00 00 00 00 00 00 00 00 00 00 01 00 ................
00410080 19 04 00 00 B8 00 00 00 00 00 00 00 00 00 00 00 ................
00410090 00 00 00 00 00 00 01 00 19 04 00 00 C8 00 00 00 ................
004100A0 00 00 00 00 00 00 00 00 00 00 00 00 00 00 01 00 ................
004100B0 19 04 00 00 D8 00 00 00 E8 00 01 00 A8 08 00 00 ................
004100C0 00 00 00 00 00 00 00 00 90 09 01 00 14 00 00 00 ................
004100D0 00 00 00 00 00 00 00 00 A4 09 01 00 FC 02 00 00 ................
004100E0 00 00 00 00 00 00 00 00 28 00 00 00 20 00 00 00 ........(... ...
004100F0 40 00 00 00 01 00 08 00 00 00 00 00 00 04 00 00 @...............
00410100 00 00 00 00 00 00 00 00 00 00 00 00 00 00 00 00 ................
00410110 00 00 00 00 00 00 80 00 00 80 00 00 00 80 80 00 ................
00410120 80 00 00 00 80 00 80 00 80 80 00 00 C0 C0 C0 00 ................
00410130 C0 DC C0 00 F0 CA A6 00 00 20 40 00 00 20 60 00 ......... @.. `.
00410140 00 20 80 00 00 20 A0 00 00 20 C0 00 00 20 E0 00 . ... ... ... ..
00410150 00 40 00 00 00 40 20 00 00 40 40 00 00 40 60 00 .@...@ ..@@..@`.
00410160 00 40 80 00 00 40 A0 00 00 40 C0 00 00 40 E0 00 .@...@...@...@..
00410170 00 60 00 00 00 60 20 00 00 60 40 00 00 60 60 00 .`...` ..`@..``.
00410180 00 60 80 00 00 60 A0 00 00 60 C0 00 00 60 E0 00 .`...`...`...`..
00410190 00 80 00 00 00 80 20 00 00 80 40 00 00 80 60 00 ...... ...@...`.
004101A0 00 80 80 00 00 80 A0 00 00 80 C0 00 00 80 E0 00 ................
004101B0 00 A0 00 00 00 A0 20 00 00 A0 40 00 00 A0 60 00 ...... ...@...`.
004101C0 00 A0 80 00 00 A0 A0 00 00 A0 C0 00 00 A0 E0 00 ................
004101D0 00 C0 00 00 00 C0 20 00 00 C0 40 00 00 C0 60 00 ...... ...@...`.
004101E0 00 C0 80 00 00 C0 A0 00 00 C0 C0 00 00 C0 E0 00 ................
004101F0 00 E0 00 00 00 E0 20 00 00 E0 40 00 00 E0 60 00 ...... ...@...`.
00410200 00 E0 80 00 00 E0 A0 00 00 E0 C0 00 00 E0 E0 00 ................
00410210 40 00 00 00 40 00 20 00 40 00 40 00 40 00 60 00 @...@. .@.@.@.`.
00410220 40 00 80 00 40 00 A0 00 40 00 C0 00 40 00 E0 00 @...@...@...@...
00410230 40 20 00 00 40 20 20 00 40 20 40 00 40 20 60 00 @ ..@  .@ @.@ `.
00410240 40 20 80 00 40 20 A0 00 40 20 C0 00 40 20 E0 00 @ ..@ ..@ ..@ ..
00410250 40 40 00 00 40 40 20 00 40 40 40 00 40 40 60 00 @@..@@ .@@@.@@`.
00410260 40 40 80 00 40 40 A0 00 40 40 C0 00 40 40 E0 00 @@..@@..@@..@@..
00410270 40 60 00 00 40 60 20 00 40 60 40 00 40 60 60 00 @`..@` .@`@.@``.
00410280 40 60 80 00 40 60 A0 00 40 60 C0 00 40 60 E0 00 @`..@`..@`..@`..
00410290 40 80 00 00 40 80 20 00 40 80 40 00 40 80 60 00 @...@. .@.@.@.`.
004102A0 40 80 80 00 40 80 A0 00 40 80 C0 00 40 80 E0 00 @...@...@...@...
004102B0 40 A0 00 00 40 A0 20 00 40 A0 40 00 40 A0 60 00 @...@. .@.@.@.`.
004102C0 40 A0 80 00 40 A0 A0 00 40 A0 C0 00 40 A0 E0 00 @...@...@...@...
004102D0 40 C0 00 00 40 C0 20 00 40 C0 40 00 40 C0 60 00 @...@. .@.@.@.`.
004102E0 40 C0 80 00 40 C0 A0 00 40 C0 C0 00 40 C0 E0 00 @...@...@...@...
004102F0 40 E0 00 00 40 E0 20 00 40 E0 40 00 40 E0 60 00 @...@. .@.@.@.`.
00410300 40 E0 80 00 40 E0 A0 00 40 E0 C0 00 40 E0 E0 00 @...@...@...@...
00410310 80 00 00 00 80 00 20 00 80 00 40 00 80 00 60 00 ...... ...@...`.
00410320 80 00 80 00 80 00 A0 00 80 00 C0 00 80 00 E0 00 ................
00410330 80 20 00 00 80 20 20 00 80 20 40 00 80 20 60 00 . ...  .. @.. `.
00410340 80 20 80 00 80 20 A0 00 80 20 C0 00 80 20 E0 00 . ... ... ... ..
00410350 80 40 00 00 80 40 20 00 80 40 40 00 80 40 60 00 .@...@ ..@@..@`.
00410360 80 40 80 00 80 40 A0 00 80 40 C0 00 80 40 E0 00 .@...@...@...@..
00410370 80 60 00 00 80 60 20 00 80 60 40 00 80 60 60 00 .`...` ..`@..``.
00410380 80 60 80 00 80 60 A0 00 80 60 C0 00 80 60 E0 00 .`...`...`...`..
00410390 80 80 00 00 80 80 20 00 80 80 40 00 80 80 60 00 ...... ...@...`.
004103A0 80 80 80 00 80 80 A0 00 80 80 C0 00 80 80 E0 00 ................
004103B0 80 A0 00 00 80 A0 20 00 80 A0 40 00 80 A0 60 00 ...... ...@...`.
004103C0 80 A0 80 00 80 A0 A0 00 80 A0 C0 00 80 A0 E0 00 ................
004103D0 80 C0 00 00 80 C0 20 00 80 C0 40 00 80 C0 60 00 ...... ...@...`.
004103E0 80 C0 80 00 80 C0 A0 00 80 C0 C0 00 80 C0 E0 00 ................
004103F0 80 E0 00 00 80 E0 20 00 80 E0 40 00 80 E0 60 00 ...... ...@...`.
00410400 80 E0 80 00 80 E0 A0 00 80 E0 C0 00 80 E0 E0 00 ................
00410410 C0 00 00 00 C0 00 20 00 C0 00 40 00 C0 00 60 00 ...... ...@...`.
00410420 C0 00 80 00 C0 00 A0 00 C0 00 C0 00 C0 00 E0 00 ................
00410430 C0 20 00 00 C0 20 20 00 C0 20 40 00 C0 20 60 00 . ...  .. @.. `.
00410440 C0 20 80 00 C0 20 A0 00 C0 20 C0 00 C0 20 E0 00 . ... ... ... ..
00410450 C0 40 00 00 C0 40 20 00 C0 40 40 00 C0 40 60 00 .@...@ ..@@..@`.
00410460 C0 40 80 00 C0 40 A0 00 C0 40 C0 00 C0 40 E0 00 .@...@...@...@..
00410470 C0 60 00 00 C0 60 20 00 C0 60 40 00 C0 60 60 00 .`...` ..`@..``.
00410480 C0 60 80 00 C0 60 A0 00 C0 60 C0 00 C0 60 E0 00 .`...`...`...`..
00410490 C0 80 00 00 C0 80 20 00 C0 80 40 00 C0 80 60 00 ...... ...@...`.
004104A0 C0 80 80 00 C0 80 A0 00 C0 80 C0 00 C0 80 E0 00 ................
004104B0 C0 A0 00 00 C0 A0 20 00 C0 A0 40 00 C0 A0 60 00 ...... ...@...`.
004104C0 C0 A0 80 00 C0 A0 A0 00 C0 A0 C0 00 C0 A0 E0 00 ................
004104D0 C0 C0 00 00 C0 C0 20 00 C0 C0 40 00 C0 C0 60 00 ...... ...@...`.
004104E0 C0 C0 80 00 C0 C0 A0 00 F0 FB FF 00 A4 A0 A0 00 ................
004104F0 80 80 80 00 00 00 FF 00 00 FF 00 00 00 FF FF 00 ................
00410500 FF 00 00 00 FF 00 FF 00 FF FF 00 00 FF FF FF 00 ................
00410510 00 00 00 00 00 00 00 00 00 00 00 00 00 00 00 00 ................
00410520 00 00 00 00 00 00 00 00 00 00 00 00 00 00 00 00 ................
00410530 00 00 00 00 00 00 ED A3 9A 9A 92 92 92 92 92 92 ................
00410540 92 92 92 92 92 92 92 92 92 92 92 92 92 92 92 00 ................
00410550 00 00 00 00 00 00 ED F6 07 09 09 09 09 09 09 09 ................
00410560 09 09 EC 09 09 EC EC EC EC EB EB EB EB EB 92 00 ................
00410570 00 00 00 00 00 00 ED F6 F6 F6 F6 F6 F6 F6 F6 F6 ................
00410580 F6 F6 F6 F6 F6 F6 F6 F6 09 09 09 09 09 EB 92 00 ................
00410590 00 00 00 00 00 00 ED F6 F6 F6 F6 F6 F6 F6 F6 F6 ................
004105A0 F6 F6 F6 F6 F6 F6 F6 F6 F6 F6 09 09 09 EB 92 00 ................
004105B0 00 00 00 00 00 00 ED F6 F6 F5 F5 ED ED EC EC EC ................
004105C0 E3 E3 E3 E3 E3 E3 E3 E3 E3 E3 F6 F6 09 EB 92 00 ................
004105D0 00 00 00 00 00 00 ED FF FF F5 FF FF FF F6 EC F6 ................
004105E0 F6 EC FF E3 F6 F6 EC FF E3 F6 F6 F6 F6 EB 92 00 ................
004105F0 00 00 00 00 00 00 ED FF FF F5 FF FF FF FF ED FF ................
00410600 FF EC FF E3 F6 F6 EC FF E3 F6 F6 F6 F6 EC 92 00 ................
00410610 00 00 00 00 00 00 ED FF FF F5 F5 F5 F5 F5 F5 ED ................
00410620 FF EC FF E3 F6 F6 EC FF E3 F6 F6 F6 F6 EC 92 00 ................
00410630 00 00 00 00 00 00 ED FF FF 09 FF FF FF FF F5 FF ................
00410640 FF ED FF E3 EC EC EC FF E3 F6 F6 F6 F6 EC 92 00 ................
00410650 00 00 00 00 00 00 ED FF FF 09 FF FF FF FF F5 FF ................
00410660 FF F5 FF E3 FF FF EC FF E3 F6 F6 F6 F6 EC 92 00 ................
00410670 00 00 00 00 00 00 ED FF FF 09 09 09 09 09 F5 F5 ................
00410680 FF F5 F5 E3 FF FF EC FF E3 F6 F6 F6 F6 EC 92 00 ................
00410690 00 00 00 00 00 00 ED FF FF 09 FF FF FF FF 09 FF ................
004106A0 FF FF FF FF FF FF ED ED E3 F6 F6 F6 F6 09 92 00 ................
004106B0 00 00 00 00 00 00 ED 08 08 ED 07 07 07 ED ED 08 ................
004106C0 FF FF FF F5 FF FF FF FF FF FF F6 F6 F6 09 92 00 ................
004106D0 00 00 00 00 00 00 F7 F7 F5 07 07 08 08 F6 08 ED ................
004106E0 EC 09 F5 F5 F5 F5 F5 F5 ED FF FF F6 F6 EC 92 00 ................
004106F0 00 19 18 AC 08 08 FF FF FF F6 F6 F6 F6 F6 08 07 ................
00410700 F6 FF FF 09 FF FF FF FF F5 FF FF FF F6 09 92 00 ................
00410710 00 19 B5 08 FF FF FF FF F6 F6 B5 1A 1A F6 F6 07 ................
00410720 F6 FF FF 09 FF FF FF FF F5 FF FF FF FF 09 92 00 ................
00410730 00 19 07 AC FF 08 B4 B4 B4 AB 22 1A 6B F6 F6 ED ..........".k...
00410740 F5 09 09 09 09 09 09 F5 F5 FF FF FF FF 09 92 00 ................
00410750 00 19 08 62 FF FF 08 B4 B4 62 1A 6C AB B5 F6 07 ...b.....b.l....
00410760 08 FF FF 09 FF FF FF FF F5 FF FF FF FF 09 92 00 ................
00410770 00 19 08 19 F6 FF FF 08 6B 1A 22 08 FF F6 F6 07 ........k.".....
00410780 08 FF FF 09 FF FF FF FF 09 FF FF FF FF 09 92 00 ................
00410790 00 21 08 19 07 FF FF 08 22 22 6B B4 F5 F6 F6 07 .!......""k.....
004107A0 F5 09 09 09 09 09 09 09 09 FF FF FF FF 09 92 00 ................
004107B0 00 21 08 19 AC FF F6 22 1A B5 F6 B4 B4 B4 F6 08 .!....."........
004107C0 08 FF FF 09 FF FF FF FF 09 FF FF FF FF 09 92 00 ................
004107D0 00 21 08 AC B4 FF 63 62 6C FF FF FF FF FF FF 08 .!....cbl.......
004107E0 08 FF FF 09 FF FF FF FF 07 09 09 09 09 09 92 00 ................
004107F0 00 61 08 B4 B4 FF FF FF FF FF FF FF FF FF FF F6 .a..............
00410800 07 09 09 09 09 09 09 ED A3 A3 9B 9A 9A 9A 92 00 ................
00410810 00 61 08 B5 B4 08 08 08 08 08 08 F5 B5 08 6B FF .a............k.
00410820 FF FF FF FF FF FF FF ED 09 09 09 09 09 92 F6 00 ................
00410830 00 61 B5 F6 B5 B5 B5 B5 B5 B5 B5 B5 B5 F6 61 FF .a............a.
00410840 FF FF FF FF FF FF FF ED F6 F6 09 09 92 F6 F6 00 ................
00410850 00 61 61 08 F6 08 BD BD BD BD BD BD B5 F6 61 F6 .aa...........a.
00410860 09 09 09 FF FF FF FF F5 F6 F6 09 92 F6 F6 00 00 ................
00410870 00 00 61 61 B5 08 F6 F6 F6 F6 F6 F6 F6 F6 61 FF ..aa..........a.
00410880 FF FF FF FF FF FF FF F5 F6 F6 9A F6 F6 00 00 00 ................
00410890 00 00 00 61 61 61 61 61 61 61 61 61 61 61 61 FF ...aaaaaaaaaaaa.
004108A0 FF FF FF FF FF FF FF F5 F6 9B F6 F6 00 00 00 00 ................
004108B0 00 00 00 00 00 00 07 FF FF FF FF FF FF FF FF FF ................
004108C0 FF FF FF FF FF FF FF F5 A4 F6 F6 00 00 00 00 00 ................
004108D0 00 00 00 00 00 00 07 07 07 07 07 F5 F5 F5 F5 F5 ................
004108E0 F5 F5 F5 F5 F5 F5 F5 F5 F6 F6 00 00 00 00 00 00 ................
004108F0 00 00 00 00 00 00 00 00 00 00 00 00 00 00 00 00 ................
00410900 00 00 00 00 00 00 00 00 00 00 00 00 00 00 00 00 ................
00410910 FF FF FF FF FC 00 00 01 FC 00 00 01 FC 00 00 01 ................
00410920 FC 00 00 01 FC 00 00 01 FC 00 00 01 FC 00 00 01 ................
00410930 FC 00 00 01 FC 00 00 01 FC 00 00 01 FC 00 00 01 ................
00410940 FC 00 00 01 C0 00 00 01 C0 00 00 01 80 00 00 01 ................
00410950 80 00 00 01 80 00 00 01 80 00 00 01 80 00 00 01 ................
00410960 80 00 00 01 80 00 00 01 80 00 00 01 80 00 00 01 ................
00410970 80 00 00 01 80 00 00 01 80 00 00 03 C0 00 00 07 ................
00410980 E0 00 00 0F FC 00 00 1F FC 00 00 3F FF FF FF FF ...........?....
00410990 00 00 01 00 01 00 20 20 08 00 00 00 00 00 A8 08 ......  ........
004109A0 00 00 01 00 FC 02 34 00 00 00 56 00 53 00 5F 00 ......4...V.S._.
004109B0 56 00 45 00 52 00 53 00 49 00 4F 00 4E 00 5F 00 V.E.R.S.I.O.N._.
004109C0 49 00 4E 00 46 00 4F 00 00 00 00 00 BD 04 EF FE I.N.F.O.........
004109D0 00 00 01 00 89 BB 07 68 89 BB 07 68 89 BB 07 68 .......h...h...h
004109E0 89 BB 07 68 89 BB 00 00 00 00 00 00 04 00 04 00 ...h............
004109F0 01 00 00 00 00 00 00 00 00 00 00 00 00 00 00 00 ................
00410A00 5C 02 00 00 00 00 53 00 74 00 72 00 69 00 6E 00 \.....S.t.r.i.n.
00410A10 67 00 46 00 69 00 6C 00 65 00 49 00 6E 00 66 00 g.F.i.l.e.I.n.f.
00410A20 6F 00 00 00 38 02 00 00 00 00 30 00 38 00 30 00 o...8.....0.8.0.
00410A30 30 00 30 00 34 00 42 00 30 00 00 00 3C 00 0D 00 0.0.4.B.0...<...
00410A40 01 00 43 00 6F 00 6D 00 70 00 61 00 6E 00 79 00 ..C.o.m.p.a.n.y.
00410A50 4E 00 61 00 6D 00 65 00 00 00 00 00 6F 00 70 00 N.a.m.e.....o.p.
00410A60 35 00 66 00 34 00 51 00 4F 00 76 00 69 00 6B 00 5.f.4.Q.O.v.i.k.
00410A70 77 00 42 00 00 00 00 00 4C 00 12 00 01 00 46 00 w.B.....L.....F.
00410A80 69 00 6C 00 65 00 44 00 65 00 73 00 63 00 72 00 i.l.e.D.e.s.c.r.
00410A90 69 00 70 00 74 00 69 00 6F 00 6E 00 00 00 00 00 i.p.t.i.o.n.....
00410AA0 4E 00 74 00 45 00 73 00 49 00 6F 00 66 00 4B 00 N.t.E.s.I.o.f.K.
00410AB0 77 00 71 00 74 00 6A 00 6D 00 52 00 47 00 41 00 w.q.t.j.m.R.G.A.
00410AC0 4C 00 00 00 44 00 11 00 01 00 46 00 69 00 6C 00 L...D.....F.i.l.
00410AD0 65 00 56 00 65 00 72 00 73 00 69 00 6F 00 6E 00 e.V.e.r.s.i.o.n.
00410AE0 00 00 00 00 4A 00 6D 00 67 00 66 00 48 00 4F 00 ....J.m.g.f.H.O.
00410AF0 70 00 65 00 64 00 49 00 49 00 31 00 41 00 72 00 p.e.d.I.I.1.A.r.
00410B00 36 00 35 00 00 00 00 00 44 00 12 00 01 00 49 00 6.5.....D.....I.
00410B10 6E 00 74 00 65 00 72 00 6E 00 61 00 6C 00 4E 00 n.t.e.r.n.a.l.N.
00410B20 61 00 6D 00 65 00 00 00 62 00 4F 00 54 00 4F 00 a.m.e...b.O.T.O.
00410B30 4F 00 69 00 72 00 72 00 51 00 78 00 57 00 54 00 O.i.r.r.Q.x.W.T.
00410B40 56 00 71 00 42 00 6B 00 58 00 00 00 4C 00 14 00 V.q.B.k.X...L...
00410B50 01 00 4C 00 65 00 67 00 61 00 6C 00 43 00 6F 00 ..L.e.g.a.l.C.o.
00410B60 70 00 79 00 72 00 69 00 67 00 68 00 74 00 00 00 p.y.r.i.g.h.t...
00410B70 6B 00 37 00 41 00 37 00 69 00 6D 00 71 00 77 00 k.7.A.7.i.m.q.w.
00410B80 67 00 52 00 6F 00 6C 00 78 00 6C 00 45 00 49 00 g.R.o.l.x.l.E.I.
00410B90 72 00 4B 00 6B 00 00 00 44 00 0D 00 01 00 4F 00 r.K.k...D.....O.
00410BA0 72 00 69 00 67 00 69 00 6E 00 61 00 6C 00 46 00 r.i.g.i.n.a.l.F.
00410BB0 69 00 6C 00 65 00 6E 00 61 00 6D 00 65 00 00 00 i.l.e.n.a.m.e...
00410BC0 72 00 54 00 44 00 6F 00 71 00 62 00 37 00 4C 00 r.T.D.o.q.b.7.L.
00410BD0 4E 00 57 00 56 00 78 00 00 00 00 00 3C 00 0E 00 N.W.V.x.....<...
00410BE0 01 00 50 00 72 00 6F 00 64 00 75 00 63 00 74 00 ..P.r.o.d.u.c.t.
00410BF0 4E 00 61 00 6D 00 65 00 00 00 00 00 57 00 50 00 N.a.m.e.....W.P.
00410C00 4F 00 37 00 57 00 75 00 68 00 74 00 4E 00 69 00 O.7.W.u.h.t.N.i.
00410C10 73 00 78 00 57 00 00 00 44 00 10 00 01 00 50 00 s.x.W...D.....P.
00410C20 72 00 6F 00 64 00 75 00 63 00 74 00 56 00 65 00 r.o.d.u.c.t.V.e.
00410C30 72 00 73 00 69 00 6F 00 6E 00 00 00 4F 00 6A 00 r.s.i.o.n...O.j.
00410C40 4B 00 58 00 41 00 57 00 53 00 65 00 6E 00 6A 00 K.X.A.W.S.e.n.j.
00410C50 42 00 73 00 6F 00 51 00 47 00 00 00 44 00 00 00 B.s.o.Q.G...D...
00410C60 00 00 56 00 61 00 72 00 46 00 69 00 6C 00 65 00 ..V.a.r.F.i.l.e.
00410C70 49 00 6E 00 66 00 6F 00 00 00 00 00 24 00 04 00 I.n.f.o.....$...
00410C80 00 00 54 00 72 00 61 00 6E 00 73 00 6C 00 61 00 ..T.r.a.n.s.l.a.
00410C90 74 00 69 00 6F 00 6E 00 00 00 00 00 00 08 B0 04 t.i.o.n.........
00410CA0 00 00 00 00 00 00 00 00 00 00 00 00 00 00 00 00 ................
00410CB0 00 00 00 00 00 00 00 00 00 00 00 00 00 00 00 00 ................
00410CC0 00 00 00 00 00 00 00 00 00 00 00 00 00 00 00 00 ................
00410CD0 00 00 00 00 00 00 00 00 00 00 00 00 00 00 00 00 ................
00410CE0 00 00 00 00 00 00 00 00 00 00 00 00 00 00 00 00 ................
00410CF0 00 00 00 00 00 00 00 00 00 00 00 00 00 00 00 00 ................
00410D00 00 00 00 00 00 00 00 00 00 00 00 00 00 00 00 00 ................
00410D10 00 00 00 00 00 00 00 00 00 00 00 00 00 00 00 00 ................
00410D20 00 00 00 00 00 00 00 00 00 00 00 00 00 00 00 00 ................
00410D30 00 00 00 00 00 00 00 00 00 00 00 00 00 00 00 00 ................
00410D40 00 00 00 00 00 00 00 00 00 00 00 00 00 00 00 00 ................
00410D50 00 00 00 00 00 00 00 00 00 00 00 00 00 00 00 00 ................
00410D60 00 00 00 00 00 00 00 00 00 00 00 00 00 00 00 00 ................
00410D70 00 00 00 00 00 00 00 00 00 00 00 00 00 00 00 00 ................
00410D80 00 00 00 00 00 00 00 00 00 00 00 00 00 00 00 00 ................
00410D90 00 00 00 00 00 00 00 00 00 00 00 00 00 00 00 00 ................
00410DA0 00 00 00 00 00 00 00 00 00 00 00 00 00 00 00 00 ................
00410DB0 00 00 00 00 00 00 00 00 00 00 00 00 00 00 00 00 ................
00410DC0 00 00 00 00 00 00 00 00 00 00 00 00 00 00 00 00 ................
00410DD0 00 00 00 00 00 00 00 00 00 00 00 00 00 00 00 00 ................
00410DE0 00 00 00 00 00 00 00 00 00 00 00 00 00 00 00 00 ................
00410DF0 00 00 00 00 00 00 00 00 00 00 00 00 00 00 00 00 ................
00410E00 00 00 00 00 00 00 00 00 00 00 00 00 00 00 00 00 ................
00410E10 00 00 00 00 00 00 00 00 00 00 00 00 00 00 00 00 ................
00410E20 00 00 00 00 00 00 00 00 00 00 00 00 00 00 00 00 ................
00410E30 00 00 00 00 00 00 00 00 00 00 00 00 00 00 00 00 ................
00410E40 00 00 00 00 00 00 00 00 00 00 00 00 00 00 00 00 ................
00410E50 00 00 00 00 00 00 00 00 00 00 00 00 00 00 00 00 ................
00410E60 00 00 00 00 00 00 00 00 00 00 00 00 00 00 00 00 ................
00410E70 00 00 00 00 00 00 00 00 00 00 00 00 00 00 00 00 ................
00410E80 00 00 00 00 00 00 00 00 00 00 00 00 00 00 00 00 ................
00410E90 00 00 00 00 00 00 00 00 00 00 00 00 00 00 00 00 ................
00410EA0 00 00 00 00 00 00 00 00 00 00 00 00 00 00 00 00 ................
00410EB0 00 00 00 00 00 00 00 00 00 00 00 00 00 00 00 00 ................
00410EC0 00 00 00 00 00 00 00 00 00 00 00 00 00 00 00 00 ................
00410ED0 00 00 00 00 00 00 00 00 00 00 00 00 00 00 00 00 ................
00410EE0 00 00 00 00 00 00 00 00 00 00 00 00 00 00 00 00 ................
00410EF0 00 00 00 00 00 00 00 00 00 00 00 00 00 00 00 00 ................
00410F00 00 00 00 00 00 00 00 00 00 00 00 00 00 00 00 00 ................
00410F10 00 00 00 00 00 00 00 00 00 00 00 00 00 00 00 00 ................
00410F20 00 00 00 00 00 00 00 00 00 00 00 00 00 00 00 00 ................
00410F30 00 00 00 00 00 00 00 00 00 00 00 00 00 00 00 00 ................
00410F40 00 00 00 00 00 00 00 00 00 00 00 00 00 00 00 00 ................
00410F50 00 00 00 00 00 00 00 00 00 00 00 00 00 00 00 00 ................
00410F60 00 00 00 00 00 00 00 00 00 00 00 00 00 00 00 00 ................
00410F70 00 00 00 00 00 00 00 00 00 00 00 00 00 00 00 00 ................
00410F80 00 00 00 00 00 00 00 00 00 00 00 00 00 00 00 00 ................
00410F90 00 00 00 00 00 00 00 00 00 00 00 00 00 00 00 00 ................
00410FA0 00 00 00 00 00 00 00 00 00 00 00 00 00 00 00 00 ................
00410FB0 00 00 00 00 00 00 00 00 00 00 00 00 00 00 00 00 ................
00410FC0 00 00 00 00 00 00 00 00 00 00 00 00 00 00 00 00 ................
00410FD0 00 00 00 00 00 00 00 00 00 00 00 00 00 00 00 00 ................
00410FE0 00 00 00 00 00 00 00 00 00 00 00 00 00 00 00 00 ................
00410FF0 00 00 00 00 00 00 00 00 00 00 00 00 00 00 00 00 ................
00411000 
...end of image
