00400000 00 00 00 00 00 00 00 00 00 00 00 00 00 00 00 00 ................
00400010 00 00 00 00 00 00 00 00 00 00 00 00 00 00 00 00 ................
00400020 00 00 00 00 00 00 00 00 00 00 00 00 00 00 00 00 ................
00400030 00 00 00 00 00 00 00 00 00 00 00 00 00 00 00 00 ................
00400040 00 00 00 00 00 00 00 00 00 00 00 00 00 00 00 00 ................
00400050 00 00 00 00 00 00 00 00 00 00 00 00 00 00 00 00 ................
00400060 00 00 00 00 00 00 00 00 00 00 00 00 00 00 00 00 ................
00400070 00 00 00 00 00 00 00 00 00 00 00 00 00 00 00 00 ................
00400080 00 00 00 00 00 00 00 00 00 00 00 00 00 00 00 00 ................
00400090 00 00 00 00 00 00 00 00 00 00 00 00 00 00 00 00 ................
004000A0 00 00 00 00 00 00 00 00 00 00 00 00 00 00 00 00 ................
004000B0 00 00 00 00 00 00 00 00 00 00 00 00 00 00 00 00 ................
004000C0 00 00 00 00 00 00 00 00 00 00 00 00 00 00 00 00 ................
004000D0 00 00 00 00 00 00 00 00 00 00 00 00 00 00 00 00 ................
004000E0 00 00 00 00 00 00 00 00 00 00 00 00 00 00 00 00 ................
004000F0 00 00 00 00 00 00 00 00 00 00 00 00 00 00 00 00 ................
00400100 00 00 00 00 00 00 00 00 00 00 00 00 00 00 00 00 ................
00400110 00 00 00 00 00 00 00 00 00 00 00 00 00 00 00 00 ................
00400120 00 00 00 00 00 00 00 00 00 00 00 00 00 00 00 00 ................
00400130 00 00 00 00 00 00 00 00 00 00 00 00 00 00 00 00 ................
00400140 00 00 00 00 00 00 00 00 00 00 00 00 00 00 00 00 ................
00400150 00 00 00 00 00 00 00 00 00 00 00 00 00 00 00 00 ................
00400160 00 00 00 00 00 00 00 00 00 00 00 00 00 00 00 00 ................
00400170 00 00 00 00 00 00 00 00 00 00 00 00 00 00 00 00 ................
00400180 00 00 00 00 00 00 00 00 00 00 00 00 00 00 00 00 ................
00400190 00 00 00 00 00 00 00 00 00 00 00 00 00 00 00 00 ................
004001A0 00 00 00 00 00 00 00 00 00 00 00 00 00 00 00 00 ................
004001B0 00 00 00 00 00 00 00 00 00 00 00 00 00 00 00 00 ................
004001C0 00 00 00 00 00 00 00 00 00 00 00 00 00 00 00 00 ................
004001D0 00 00 00 00 00 00 00 00 00 00 00 00 00 00 00 00 ................
004001E0 00 00 00 00 00 00 00 00 00 00 00 00 00 00 00 00 ................
004001F0 00 00 00 00 00 00 00 00 00 00 00 00 00 00 00 00 ................
00400200 00 00 00 00 00 00 00 00 00 00 00 00 00 00 00 00 ................
00400210 00 00 00 00 00 00 00 00 00 00 00 00 00 00 00 00 ................
00400220 00 00 00 00 00 00 00 00 00 00 00 00 00 00 00 00 ................
00400230 00 00 00 00 00 00 00 00 00 00 00 00 00 00 00 00 ................
00400240 00 00 00 00 00 00 00 00 00 00 00 00 00 00 00 00 ................
00400250 00 00 00 00 00 00 00 00 00 00 00 00 00 00 00 00 ................
00400260 00 00 00 00 00 00 00 00 00 00 00 00 00 00 00 00 ................
00400270 00 00 00 00 00 00 00 00 00 00 00 00 00 00 00 00 ................
00400280 00 00 00 00 00 00 00 00 00 00 00 00 00 00 00 00 ................
00400290 00 00 00 00 00 00 00 00 00 00 00 00 00 00 00 00 ................
004002A0 00 00 00 00 00 00 00 00 00 00 00 00 00 00 00 00 ................
004002B0 00 00 00 00 00 00 00 00 00 00 00 00 00 00 00 00 ................
004002C0 00 00 00 00 00 00 00 00 00 00 00 00 00 00 00 00 ................
004002D0 00 00 00 00 00 00 00 00 00 00 00 00 00 00 00 00 ................
004002E0 00 00 00 00 00 00 00 00 00 00 00 00 00 00 00 00 ................
004002F0 00 00 00 00 00 00 00 00 00 00 00 00 00 00 00 00 ................
00400300 00 00 00 00 00 00 00 00 00 00 00 00 00 00 00 00 ................
00400310 00 00 00 00 00 00 00 00 00 00 00 00 00 00 00 00 ................
00400320 00 00 00 00 00 00 00 00 00 00 00 00 00 00 00 00 ................
00400330 00 00 00 00 00 00 00 00 00 00 00 00 00 00 00 00 ................
00400340 00 00 00 00 00 00 00 00 00 00 00 00 00 00 00 00 ................
00400350 00 00 00 00 00 00 00 00 00 00 00 00 00 00 00 00 ................
00400360 00 00 00 00 00 00 00 00 00 00 00 00 00 00 00 00 ................
00400370 00 00 00 00 00 00 00 00 00 00 00 00 00 00 00 00 ................
00400380 00 00 00 00 00 00 00 00 00 00 00 00 00 00 00 00 ................
00400390 00 00 00 00 00 00 00 00 00 00 00 00 00 00 00 00 ................
004003A0 00 00 00 00 00 00 00 00 00 00 00 00 00 00 00 00 ................
004003B0 00 00 00 00 00 00 00 00 00 00 00 00 00 00 00 00 ................
004003C0 00 00 00 00 00 00 00 00 00 00 00 00 00 00 00 00 ................
004003D0 00 00 00 00 00 00 00 00 00 00 00 00 00 00 00 00 ................
004003E0 00 00 00 00 00 00 00 00 00 00 00 00 00 00 00 00 ................
004003F0 00 00 00 00 00 00 00 00 00 00 00 00 00 00 00 00 ................
00400400 00 00 00 00 00 00 00 00 00 00 00 00 00 00 00 00 ................
00400410 00 00 00 00 00 00 00 00 00 00 00 00 00 00 00 00 ................
00400420 00 00 00 00 00 00 00 00 00 00 00 00 00 00 00 00 ................
00400430 00 00 00 00 00 00 00 00 00 00 00 00 00 00 00 00 ................
00400440 00 00 00 00 00 00 00 00 00 00 00 00 00 00 00 00 ................
00400450 00 00 00 00 00 00 00 00 00 00 00 00 00 00 00 00 ................
00400460 00 00 00 00 00 00 00 00 00 00 00 00 00 00 00 00 ................
00400470 00 00 00 00 00 00 00 00 00 00 00 00 00 00 00 00 ................
00400480 00 00 00 00 00 00 00 00 00 00 00 00 00 00 00 00 ................
00400490 00 00 00 00 00 00 00 00 00 00 00 00 00 00 00 00 ................
004004A0 00 00 00 00 00 00 00 00 00 00 00 00 00 00 00 00 ................
004004B0 00 00 00 00 00 00 00 00 00 00 00 00 00 00 00 00 ................
004004C0 00 00 00 00 00 00 00 00 00 00 00 00 00 00 00 00 ................
004004D0 00 00 00 00 00 00 00 00 00 00 00 00 00 00 00 00 ................
004004E0 00 00 00 00 00 00 00 00 00 00 00 00 00 00 00 00 ................
004004F0 00 00 00 00 00 00 00 00 00 00 00 00 00 00 00 00 ................
00400500 00 00 00 00 00 00 00 00 00 00 00 00 00 00 00 00 ................
00400510 00 00 00 00 00 00 00 00 00 00 00 00 00 00 00 00 ................
00400520 00 00 00 00 00 00 00 00 00 00 00 00 00 00 00 00 ................
00400530 00 00 00 00 00 00 00 00 00 00 00 00 00 00 00 00 ................
00400540 00 00 00 00 00 00 00 00 00 00 00 00 00 00 00 00 ................
00400550 00 00 00 00 00 00 00 00 00 00 00 00 00 00 00 00 ................
00400560 00 00 00 00 00 00 00 00 00 00 00 00 00 00 00 00 ................
00400570 00 00 00 00 00 00 00 00 00 00 00 00 00 00 00 00 ................
00400580 00 00 00 00 00 00 00 00 00 00 00 00 00 00 00 00 ................
00400590 00 00 00 00 00 00 00 00 00 00 00 00 00 00 00 00 ................
004005A0 00 00 00 00 00 00 00 00 00 00 00 00 00 00 00 00 ................
004005B0 00 00 00 00 00 00 00 00 00 00 00 00 00 00 00 00 ................
004005C0 00 00 00 00 00 00 00 00 00 00 00 00 00 00 00 00 ................
004005D0 00 00 00 00 00 00 00 00 00 00 00 00 00 00 00 00 ................
004005E0 00 00 00 00 00 00 00 00 00 00 00 00 00 00 00 00 ................
004005F0 00 00 00 00 00 00 00 00 00 00 00 00 00 00 00 00 ................
00400600 00 00 00 00 00 00 00 00 00 00 00 00 00 00 00 00 ................
00400610 00 00 00 00 00 00 00 00 00 00 00 00 00 00 00 00 ................
00400620 00 00 00 00 00 00 00 00 00 00 00 00 00 00 00 00 ................
00400630 00 00 00 00 00 00 00 00 00 00 00 00 00 00 00 00 ................
00400640 00 00 00 00 00 00 00 00 00 00 00 00 00 00 00 00 ................
00400650 00 00 00 00 00 00 00 00 00 00 00 00 00 00 00 00 ................
00400660 00 00 00 00 00 00 00 00 00 00 00 00 00 00 00 00 ................
00400670 00 00 00 00 00 00 00 00 00 00 00 00 00 00 00 00 ................
00400680 00 00 00 00 00 00 00 00 00 00 00 00 00 00 00 00 ................
00400690 00 00 00 00 00 00 00 00 00 00 00 00 00 00 00 00 ................
004006A0 00 00 00 00 00 00 00 00 00 00 00 00 00 00 00 00 ................
004006B0 00 00 00 00 00 00 00 00 00 00 00 00 00 00 00 00 ................
004006C0 00 00 00 00 00 00 00 00 00 00 00 00 00 00 00 00 ................
004006D0 00 00 00 00 00 00 00 00 00 00 00 00 00 00 00 00 ................
004006E0 00 00 00 00 00 00 00 00 00 00 00 00 00 00 00 00 ................
004006F0 00 00 00 00 00 00 00 00 00 00 00 00 00 00 00 00 ................
00400700 00 00 00 00 00 00 00 00 00 00 00 00 00 00 00 00 ................
00400710 00 00 00 00 00 00 00 00 00 00 00 00 00 00 00 00 ................
00400720 00 00 00 00 00 00 00 00 00 00 00 00 00 00 00 00 ................
00400730 00 00 00 00 00 00 00 00 00 00 00 00 00 00 00 00 ................
00400740 00 00 00 00 00 00 00 00 00 00 00 00 00 00 00 00 ................
00400750 00 00 00 00 00 00 00 00 00 00 00 00 00 00 00 00 ................
00400760 00 00 00 00 00 00 00 00 00 00 00 00 00 00 00 00 ................
00400770 00 00 00 00 00 00 00 00 00 00 00 00 00 00 00 00 ................
00400780 00 00 00 00 00 00 00 00 00 00 00 00 00 00 00 00 ................
00400790 00 00 00 00 00 00 00 00 00 00 00 00 00 00 00 00 ................
004007A0 00 00 00 00 00 00 00 00 00 00 00 00 00 00 00 00 ................
004007B0 00 00 00 00 00 00 00 00 00 00 00 00 00 00 00 00 ................
004007C0 00 00 00 00 00 00 00 00 00 00 00 00 00 00 00 00 ................
004007D0 00 00 00 00 00 00 00 00 00 00 00 00 00 00 00 00 ................
004007E0 00 00 00 00 00 00 00 00 00 00 00 00 00 00 00 00 ................
004007F0 00 00 00 00 00 00 00 00 00 00 00 00 00 00 00 00 ................
00400800 00 00 00 00 00 00 00 00 00 00 00 00 00 00 00 00 ................
00400810 00 00 00 00 00 00 00 00 00 00 00 00 00 00 00 00 ................
00400820 00 00 00 00 00 00 00 00 00 00 00 00 00 00 00 00 ................
00400830 00 00 00 00 00 00 00 00 00 00 00 00 00 00 00 00 ................
00400840 00 00 00 00 00 00 00 00 00 00 00 00 00 00 00 00 ................
00400850 00 00 00 00 00 00 00 00 00 00 00 00 00 00 00 00 ................
00400860 00 00 00 00 00 00 00 00 00 00 00 00 00 00 00 00 ................
00400870 00 00 00 00 00 00 00 00 00 00 00 00 00 00 00 00 ................
00400880 00 00 00 00 00 00 00 00 00 00 00 00 00 00 00 00 ................
00400890 00 00 00 00 00 00 00 00 00 00 00 00 00 00 00 00 ................
004008A0 00 00 00 00 00 00 00 00 00 00 00 00 00 00 00 00 ................
004008B0 00 00 00 00 00 00 00 00 00 00 00 00 00 00 00 00 ................
004008C0 00 00 00 00 00 00 00 00 00 00 00 00 00 00 00 00 ................
004008D0 00 00 00 00 00 00 00 00 00 00 00 00 00 00 00 00 ................
004008E0 00 00 00 00 00 00 00 00 00 00 00 00 00 00 00 00 ................
004008F0 00 00 00 00 00 00 00 00 00 00 00 00 00 00 00 00 ................
00400900 00 00 00 00 00 00 00 00 00 00 00 00 00 00 00 00 ................
00400910 00 00 00 00 00 00 00 00 00 00 00 00 00 00 00 00 ................
00400920 00 00 00 00 00 00 00 00 00 00 00 00 00 00 00 00 ................
00400930 00 00 00 00 00 00 00 00 00 00 00 00 00 00 00 00 ................
00400940 00 00 00 00 00 00 00 00 00 00 00 00 00 00 00 00 ................
00400950 00 00 00 00 00 00 00 00 00 00 00 00 00 00 00 00 ................
00400960 00 00 00 00 00 00 00 00 00 00 00 00 00 00 00 00 ................
00400970 00 00 00 00 00 00 00 00 00 00 00 00 00 00 00 00 ................
00400980 00 00 00 00 00 00 00 00 00 00 00 00 00 00 00 00 ................
00400990 00 00 00 00 00 00 00 00 00 00 00 00 00 00 00 00 ................
004009A0 00 00 00 00 00 00 00 00 00 00 00 00 00 00 00 00 ................
004009B0 00 00 00 00 00 00 00 00 00 00 00 00 00 00 00 00 ................
004009C0 00 00 00 00 00 00 00 00 00 00 00 00 00 00 00 00 ................
004009D0 00 00 00 00 00 00 00 00 00 00 00 00 00 00 00 00 ................
004009E0 00 00 00 00 00 00 00 00 00 00 00 00 00 00 00 00 ................
004009F0 00 00 00 00 00 00 00 00 00 00 00 00 00 00 00 00 ................
00400A00 00 00 00 00 00 00 00 00 00 00 00 00 00 00 00 00 ................
00400A10 00 00 00 00 00 00 00 00 00 00 00 00 00 00 00 00 ................
00400A20 00 00 00 00 00 00 00 00 00 00 00 00 00 00 00 00 ................
00400A30 00 00 00 00 00 00 00 00 00 00 00 00 00 00 00 00 ................
00400A40 00 00 00 00 00 00 00 00 00 00 00 00 00 00 00 00 ................
00400A50 00 00 00 00 00 00 00 00 00 00 00 00 00 00 00 00 ................
00400A60 00 00 00 00 00 00 00 00 00 00 00 00 00 00 00 00 ................
00400A70 00 00 00 00 00 00 00 00 00 00 00 00 00 00 00 00 ................
00400A80 00 00 00 00 00 00 00 00 00 00 00 00 00 00 00 00 ................
00400A90 00 00 00 00 00 00 00 00 00 00 00 00 00 00 00 00 ................
00400AA0 00 00 00 00 00 00 00 00 00 00 00 00 00 00 00 00 ................
00400AB0 00 00 00 00 00 00 00 00 00 00 00 00 00 00 00 00 ................
00400AC0 00 00 00 00 00 00 00 00 00 00 00 00 00 00 00 00 ................
00400AD0 00 00 00 00 00 00 00 00 00 00 00 00 00 00 00 00 ................
00400AE0 00 00 00 00 00 00 00 00 00 00 00 00 00 00 00 00 ................
00400AF0 00 00 00 00 00 00 00 00 00 00 00 00 00 00 00 00 ................
00400B00 00 00 00 00 00 00 00 00 00 00 00 00 00 00 00 00 ................
00400B10 00 00 00 00 00 00 00 00 00 00 00 00 00 00 00 00 ................
00400B20 00 00 00 00 00 00 00 00 00 00 00 00 00 00 00 00 ................
00400B30 00 00 00 00 00 00 00 00 00 00 00 00 00 00 00 00 ................
00400B40 00 00 00 00 00 00 00 00 00 00 00 00 00 00 00 00 ................
00400B50 00 00 00 00 00 00 00 00 00 00 00 00 00 00 00 00 ................
00400B60 00 00 00 00 00 00 00 00 00 00 00 00 00 00 00 00 ................
00400B70 00 00 00 00 00 00 00 00 00 00 00 00 00 00 00 00 ................
00400B80 00 00 00 00 00 00 00 00 00 00 00 00 00 00 00 00 ................
00400B90 00 00 00 00 00 00 00 00 00 00 00 00 00 00 00 00 ................
00400BA0 00 00 00 00 00 00 00 00 00 00 00 00 00 00 00 00 ................
00400BB0 00 00 00 00 00 00 00 00 00 00 00 00 00 00 00 00 ................
00400BC0 00 00 00 00 00 00 00 00 00 00 00 00 00 00 00 00 ................
00400BD0 00 00 00 00 00 00 00 00 00 00 00 00 00 00 00 00 ................
00400BE0 00 00 00 00 00 00 00 00 00 00 00 00 00 00 00 00 ................
00400BF0 00 00 00 00 00 00 00 00 00 00 00 00 00 00 00 00 ................
00400C00 00 00 00 00 00 00 00 00 00 00 00 00 00 00 00 00 ................
00400C10 00 00 00 00 00 00 00 00 00 00 00 00 00 00 00 00 ................
00400C20 00 00 00 00 00 00 00 00 00 00 00 00 00 00 00 00 ................
00400C30 00 00 00 00 00 00 00 00 00 00 00 00 00 00 00 00 ................
00400C40 00 00 00 00 00 00 00 00 00 00 00 00 00 00 00 00 ................
00400C50 00 00 00 00 00 00 00 00 00 00 00 00 00 00 00 00 ................
00400C60 00 00 00 00 00 00 00 00 00 00 00 00 00 00 00 00 ................
00400C70 00 00 00 00 00 00 00 00 00 00 00 00 00 00 00 00 ................
00400C80 00 00 00 00 00 00 00 00 00 00 00 00 00 00 00 00 ................
00400C90 00 00 00 00 00 00 00 00 00 00 00 00 00 00 00 00 ................
00400CA0 00 00 00 00 00 00 00 00 00 00 00 00 00 00 00 00 ................
00400CB0 00 00 00 00 00 00 00 00 00 00 00 00 00 00 00 00 ................
00400CC0 00 00 00 00 00 00 00 00 00 00 00 00 00 00 00 00 ................
00400CD0 00 00 00 00 00 00 00 00 00 00 00 00 00 00 00 00 ................
00400CE0 00 00 00 00 00 00 00 00 00 00 00 00 00 00 00 00 ................
00400CF0 00 00 00 00 00 00 00 00 00 00 00 00 00 00 00 00 ................
00400D00 00 00 00 00 00 00 00 00 00 00 00 00 00 00 00 00 ................
00400D10 00 00 00 00 00 00 00 00 00 00 00 00 00 00 00 00 ................
00400D20 00 00 00 00 00 00 00 00 00 00 00 00 00 00 00 00 ................
00400D30 00 00 00 00 00 00 00 00 00 00 00 00 00 00 00 00 ................
00400D40 00 00 00 00 00 00 00 00 00 00 00 00 00 00 00 00 ................
00400D50 00 00 00 00 00 00 00 00 00 00 00 00 00 00 00 00 ................
00400D60 00 00 00 00 00 00 00 00 00 00 00 00 00 00 00 00 ................
00400D70 00 00 00 00 00 00 00 00 00 00 00 00 00 00 00 00 ................
00400D80 00 00 00 00 00 00 00 00 00 00 00 00 00 00 00 00 ................
00400D90 00 00 00 00 00 00 00 00 00 00 00 00 00 00 00 00 ................
00400DA0 00 00 00 00 00 00 00 00 00 00 00 00 00 00 00 00 ................
00400DB0 00 00 00 00 00 00 00 00 00 00 00 00 00 00 00 00 ................
00400DC0 00 00 00 00 00 00 00 00 00 00 00 00 00 00 00 00 ................
00400DD0 00 00 00 00 00 00 00 00 00 00 00 00 00 00 00 00 ................
00400DE0 00 00 00 00 00 00 00 00 00 00 00 00 00 00 00 00 ................
00400DF0 00 00 00 00 00 00 00 00 00 00 00 00 00 00 00 00 ................
00400E00 00 00 00 00 00 00 00 00 00 00 00 00 00 00 00 00 ................
00400E10 00 00 00 00 00 00 00 00 00 00 00 00 00 00 00 00 ................
00400E20 00 00 00 00 00 00 00 00 00 00 00 00 00 00 00 00 ................
00400E30 00 00 00 00 00 00 00 00 00 00 00 00 00 00 00 00 ................
00400E40 00 00 00 00 00 00 00 00 00 00 00 00 00 00 00 00 ................
00400E50 00 00 00 00 00 00 00 00 00 00 00 00 00 00 00 00 ................
00400E60 00 00 00 00 00 00 00 00 00 00 00 00 00 00 00 00 ................
00400E70 00 00 00 00 00 00 00 00 00 00 00 00 00 00 00 00 ................
00400E80 00 00 00 00 00 00 00 00 00 00 00 00 00 00 00 00 ................
00400E90 00 00 00 00 00 00 00 00 00 00 00 00 00 00 00 00 ................
00400EA0 00 00 00 00 00 00 00 00 00 00 00 00 00 00 00 00 ................
00400EB0 00 00 00 00 00 00 00 00 00 00 00 00 00 00 00 00 ................
00400EC0 00 00 00 00 00 00 00 00 00 00 00 00 00 00 00 00 ................
00400ED0 00 00 00 00 00 00 00 00 00 00 00 00 00 00 00 00 ................
00400EE0 00 00 00 00 00 00 00 00 00 00 00 00 00 00 00 00 ................
00400EF0 00 00 00 00 00 00 00 00 00 00 00 00 00 00 00 00 ................
00400F00 00 00 00 00 00 00 00 00 00 00 00 00 00 00 00 00 ................
00400F10 00 00 00 00 00 00 00 00 00 00 00 00 00 00 00 00 ................
00400F20 00 00 00 00 00 00 00 00 00 00 00 00 00 00 00 00 ................
00400F30 00 00 00 00 00 00 00 00 00 00 00 00 00 00 00 00 ................
00400F40 00 00 00 00 00 00 00 00 00 00 00 00 00 00 00 00 ................
00400F50 00 00 00 00 00 00 00 00 00 00 00 00 00 00 00 00 ................
00400F60 00 00 00 00 00 00 00 00 00 00 00 00 00 00 00 00 ................
00400F70 00 00 00 00 00 00 00 00 00 00 00 00 00 00 00 00 ................
00400F80 00 00 00 00 00 00 00 00 00 00 00 00 00 00 00 00 ................
00400F90 00 00 00 00 00 00 00 00 00 00 00 00 00 00 00 00 ................
00400FA0 00 00 00 00 00 00 00 00 00 00 00 00 00 00 00 00 ................
00400FB0 00 00 00 00 00 00 00 00 00 00 00 00 00 00 00 00 ................
00400FC0 00 00 00 00 00 00 00 00 00 00 00 00 00 00 00 00 ................
00400FD0 00 00 00 00 00 00 00 00 00 00 00 00 00 00 00 00 ................
00400FE0 00 00 00 00 00 00 00 00 00 00 00 00 00 00 00 00 ................
00400FF0 00 00 00 00 00 00 00 00 00 00 00 00 00 00 00 00 ................
00401000 E8 E9 09 66 18                                  ...f.          

l00401005:
	inc	dh
	dec	esi
	mov	bl,cl
	add	cl,AE
	inc	esi
	inc	ecx
	add	esi,edi
	not	dh
	jc	00401362

l00401019:
	repne	
	mov	ch,ch
	jnc	00401362
	in	al,dx
	push	ebx
	into	
	and	ecx,[8DAA27A8]

fn0040102A()
	lea	esp,[esp+04]
	add	bl,80
	xor	ebx,esi
	or	dh,ah
	inc	ebx
	or	edi,eax
	sub	ecx,edi
	sub	edi,edx
	call	00401301
	lahf	
	push	edi
	illegal	
	ror	[ebx-75],cl

fn00401046()
	dec	ebx
	mov	ecx,edi
	xor	esi,ebx
	add	edi,edx
	mov	ecx,esi
	or	edi,esi
	or	esi,edi
	xor	ecx,eax
	jmp	00401177
0040105A                               19 21 C2 E4 8C 3C           .!...<

fn00401060()
	mov	[esp],ebx
	lea	ax,[eax]
	xchg	ebx,ebx
	pop	ebx
	xor	esi,edi
	mov	eax,[eax+08]
	xor	edx,ecx
	mov	ebx,ecx
	xor	ecx,esi
	inc	edi
	inc	edx
	jmp	00401046
00401078                         4E D8 72 B4 59 4A 89            N.r.YJ.

fn0040107F()
	lea	esp,[esp+04]
	or	edx,ebx
	inc	edi
	dec	edx
	add	ecx,edx
	or	eax,eax
	jz	0040115F

l00401091:
	ret	
00401092       E8 C4 00 00 00 85 C1 E8 44 B4 21 A2 DB      ........D.!..

fn0040109F()
	pop	dword ptr [esp-14]
	xor	edx,edi
	inc	edx
	sub	eax,EEEEEEEE
	add	ebx,eax
	add	ecx,edi
	xor	ecx,edx
	add	ebx,ecx
	call	00401142
	or	eax,70EE0BF3

fn004010BD()
	add	ebx,eax
	xor	edx,esi
	xor	esi,ebx
	inc	esi
	sub	ecx,eax
	or	ebx,ecx
	sub	edx,edi
	dec	ecx
	jmp	00401277
004010D0 44 E0 88 0C FF 69                               D....i         

l004010D6:
	xor	ebx,esi
	or	ebx,edi
	sub	edi,ebx
	xor	esi,edx
	add	ebx,esi
	mov	ecx,edi
	sub	ebx,eax
	sub	dh,al
	sub	esi,ebx
	jo	004010F8

l004010EA:
	js	004010EC

l004010EC:
	mov	cx,cx
	jno	004010F8

l004010F1:
	retf	2F4B
004010F4             48 8F 44 87                             H.D.       

l004010F8:
	not	bl
	mov	bl,5B
	xor	ecx,esi
	mov	dl,C8
	or	bh,dh
	or	bh,ah
	xor	cl,al
	inc	esi
	inc	dl
	jle	00401005

l0040110F:
	jle	00401111

l00401111:
	jg	00401005

l00401117:
	out	dx,al
	push	ss
	cmpsb	
	lock	
	std	
	enter	0B68,DA

fn0040111E()
	or	ebx,edx
	add	ecx,eax
	add	esi,ebx
	dec	edi
	or	edi,ecx
	mov	edx,esi
	jo	00401246

fn0040112F()
	push	bx
	pop	bx
	repne	
	jno	00401246
	fbstp	tword ptr [ebp-0F]
	mov	ebp,A2BE527D

fn00401142()
	mov	[esp],ecx
	ja	00401147

l00401147:
	pop	ecx
	xor	ebx,edi
	xor	ecx,eax
	sub	ecx,edi
	or	esi,ebx
	mov	esi,edx
	call	0040107F
	sub	[eax+648D825F],bh
	and	al,04

fn0040115F()
	dec	edx
	add	edi,ebx
	sub	esi,ecx
	mov	esi,ecx
	mov	ebx,ecx
	or	esi,edx
	xor	edi,ebx
	sub	esi,eax
	call	00401382
	imul	ecx,[ebx+67],0BDA8BF7

fn00401177()
	mov	ebx,edx
	or	ebx,esi

fn0040117A()
	fimul	word ptr [edx+2B]
	fld	dword ptr [edi-75]
	illegal	
	mov	esi,edi
	and	eax,EEEEEEEE
	dec	ebx
	jmp	0040111E
0040118B                                  A3 B9 48 4C 22            ..HL"

fn00401190()
	or	edi,eax
	sub	eax,edx
	sub	edx,eax
	add	eax,ecx
	mov	ebx,edx
	xor	ebx,eax
	dec	edx
	inc	ebx
	add	esi,ecx
	call	004012B3
	xlat	
	clc	
	repne	
	pop	es

fn004011A9()
	pop	dword ptr [esp-28]
	xor	edx,ecx
	dec	edi
	inc	ecx
	inc	ebx
	sub	edx,ecx
	call	0040134C
	imul	edi,[edi],1E
	ror	[ebp+2B042464],cl

fn004011BD()
	lea	esp,[esp+04]
	sub	edx,ebx

fn004011C2()
	ror	[esi-75],cl
	iret	
004011C6                   33 CE 0B CB 2B DF 0F 8E 04 FF       3...+.....
004011D0 FF FF                                           ..             

l004011D2:
	xchg	esi,esi
	jg	004010D6

l004011DA:
	xlat	
	sub	ch,[ecx+8B7E0BED]

l004011E0:
	mov	ecx,eax

fn004011E1()
	enter	CE0B,8B
	test	dword ptr [ebx],E84147D0
	into	
	illegal	
	jmp	dword ptr [edi+36C80282]
	illegal	
	popf	
	call	EC64568A

fn004011F7()
	pop	dword ptr [esp-14]
	inc	ecx
	sub	ecx,eax
	xor	edi,eax
	leave	
	dec	esi
	xor	eax,edi
	jle	004012DA

l0040120A:
	xchg	esi,esi
	xchg	ch,ch
	jg	004012DA

l00401214:
	int	03
	mov	bh,C9
	pop	ecx
	dec	ebx
	ror	[ebx],cl

l0040121A:
	or	ecx,edi
0040121C                                     2B F0 33 FB             +.3.
00401220 8B D9 47 0B FA 03 D7 8B 00 0B F1 42 E9 6A 01 00 ..G........B.j..
00401230 00 D8 28 2F DF CC 9D 09                         ..(/....       

l00401238:
	mov	eax,esi
	xor	edx,ebx
	dec	ecx
	xor	ebx,eax
	mov	edi,esi
	jmp	004013AE

fn00401246()
	inc	ecx
	sub	edx,eax
	mov	edx,eax
	inc	edx
	inc	ebx
	sub	edi,ebx
	inc	edx
	add	ecx,edi
	or	edx,ecx
	call	0040109F
	or	[B6177A92],ebx
	jz	004012C9

fn00401261()
	xor	edi,edx
	add	edx,edi
	mov	edi,eax
	add	edi,eax
	sub	ebx,ecx
	inc	edi
	call	0040132D
	xchg	eax,ebp
	lds	esi,[ecx+edi*8]
	jl	00401240

fn00401277()
	mov	eax,[eax+00000090]
	mov	edx,ebx
	or	ecx,ebx
	or	esi,ebx
	inc	ecx
	inc	ecx
	xor	esi,eax
	jpe	0040121A

l00401289:
	jmp	0040128E

l0040128E:
	mov	ax,ax
	jpo	0040121A

l00401293:
	add	edi,[esi+edx*8-58]

fn00401297()
	push	ebp
	mov	ebp,esp
	inc	ebx
	mov	esi,eax
	inc	edx
	dec	ecx
	add	edx,ebx
	mov	ebx,eax
	inc	edi
	sub	edi,ebx
	jmp	004011E0
004012AB                                  69 33 8C 74 FB            i3.t.
004012B0 90 9E 58                                        ..X            

fn004012B3()
	pop	dword ptr [esp-18]
	or	ecx,edx
	xor	edi,esi
	mov	ecx,eax
	or	ecx,edx
	xor	esi,ebx
	add	ecx,eax
	dec	edx
	xor	eax,esi
	jc	00401238

l004012C9:
	illegal	
	push	dword ptr [ecx+00]

l004012CC:
	jno	004012CE

l004012CE:
	jnc	00401238

l004012D4:
	pop	es
	dec	edi
	xor	al,FF
	add	al,A2

fn004012DA()
	or	ecx,ebx
	xor	eax,esi
	xor	esi,ecx
	xor	edi,ecx
	xor	eax,esi
	add	edi,edx
	xor	ebx,edi
	xor	eax,edi
	xor	edi,ebx
	add	eax,esi
	jbe	00401190

fn004012F4()
	xchg	dx,dx
	ja	00401190

l004012FD:
	cli	
	or	eax,648D96A0

fn00401301()
	lea	esp,[esp+04]
	add	ebx,edi
	add	esi,ebx
	mov	edi,esi
	dec	ebx
	or	esi,edx
	or	esi,ecx
	or	edi,edx
	inc	edx
	mov	eax,fs:[00000030]
	jo	00401261

fn0040131F()
	jo	00401321

l00401321:
	jc	00401323

l00401323:
	jno	00401261

fn00401324()
	cmp	dword ptr [eax],CAFFFFFF

l00401329:
	retf	83CC

fn0040132A()
	int	03
	add	dword ptr [eax-77],14
0040132C                                     40                      @  

fn0040132D()
	mov	[esp],edx

fn0040132F()
	and	al,86
	in	al,5A
	sub	ebx,ecx
	dec	esi
	mov	esi,ecx
	xor	edx,ebx
	jpe	004010BD

fn00401340()
	lea	ebx,[ebx]
	jpo	004010BD

l00401348:
	repne	
	imul	esi,[ecx-2D],0424648D

fn0040134C()
	lea	esp,[esp+04]
	add	ebx,edx
	dec	edx
	mov	edi,esi
	mov	edi,esi
	dec	edi
	call	00401060
	lahf	
	cmp	[edi],edi
	add	cl,[ebx]

fn00401362()
	dec	dh
	add	dl,5B
	not	ch
	sub	edi,edx
	adc	dl,79
	add	dl,ch
	not	dh
	mov	esi,ebx
	or	cl,dl
	mov	ch,cl
	call	0040102A
	jpe	00401324

fn0040137F()
	fsubr	dword ptr [edx+ecx*8]

fn00401382()
	lea	esp,[esp+04]
	add	ecx,ebx
	add	ecx,edi
	inc	edx
	add	esi,edi
	dec	ebx
	mov	ecx,edx
	dec	edi
	inc	edi
	call	004011F7
	mov	dword ptr [ecx-3D],49DE0BA1
	or	ebx,eax
	xor	edx,ebx

fn004013A2()
	xor	ecx,esi
	dec	edx
	call	004011A9
	push	eax
	pusha	
	imul	esi,[edx-18],000014CB

fn004013AE()
	call	0040287E

fn004013B3()
	mov	ecx,3BB3C4A4
	int	03
	sar	edx,D2
	pop	esp
	rcr	edi,01
	loope	004013A2

l004013C1:
	mov	[esi],eax
	int	BD
	mov	[ecx],ebp
	fsubrp	st(1),st(0)
	loope	004013AC
	scasb	
	illegal	
	push	ebx
	stc	
	jpo	00401427
	stc	
	adc	[ecx],bl
	clc	
	int	DF
	loope	004013BB
	stc	
	push	ss
	illegal	
	leave	
	mov	[8A8B8E0A],eax
	push	esi
	illegal	
	jge	0040143F
	les	esi,[ecx+56E1E1E1]
	xchg	ch,dl
	push	esi
	mov	ss,bp
	push	esi
	outsb	
	illegal	
	clc	
	les	ebx,edx
	loope	004013DD
	clc	
	into	
	illegal	
	loope	00401397
	cmp	al,ah
	int	8C
	pop	ebx
	and	[edx-64],dl
	stc	
	jns	004013EE
	stosd	
	loope	004013F1
	push	edx
	pushf	
	std	
	jns	004013E1
	movsd	
	adc	bl,ah
	push	edx
	pushf	
	cmc	
	push	esi
	pushf	
	add	eax,edi
	cmp	cl,ah
	loope	00401404
	add	ch,ch
	mov	ebp,A8A48DE9
	xchg	eax,ecx
	loop	00401499
	or	eax,E1DF63F9
	loope	0040141E
	pushf	
	in	eax,D1
	loope	0040141A
	loope	0040140D
	pop	ebp
	mov	edi,E2E1E1E0
	insb	
	add	esi,esi
	illegal	
	mov	[D9C1F939],bh
	loope	0040142F
	loop	004014BC
	add	eax,F9016CE2
	mov	ebp,56E1E1DD
	test	[54A586DE],cl
	xchg	cl,cl
	loop	004014D2
	test	eax,F8059C52
	sahf	
	illegal	
	loope	004014A4
	adc	dh,bh
	movsb	
	sbb	[edi+568C0155],edi
	cmc	
	pop	esi
	sbb	eax,E1778E15
	shl	[eax+00601956],cl
	loop	00401467
	loope	00401469
	clc	
	movsb	
	loopne	0040146D
	loope	0040145A
	and	ebp,[edi]
	mov	edx,edx
	pop	esp
	push	esp
	loope	00401477
	loope	004014EE
	pushf	
	fst	dword ptr [esi-6C]
	illegal	
	push	esi
	mov	cx,ss
	mov	al,D9
	mov	al,D1
	add	byte ptr [ebx+D9F4F818],E1
	loope	004014DD
	pop	eax
	push	AB
	fisubr	word ptr [ebp+5E]
	not	edi
	jmp	far EE17:5607
	cmp	eax,945664F6
	illegal	
	out	dx,al
	cmp	eax,B12E6DF6
	mov	[8033E6F7],eax
	fisub	word ptr [ecx+919956A5]
	pop	eax
	xchg	eax,esp
	add	eax,6CE2A177
	add	eax,F9016CE2
	mov	ecx,56E1E1D8
	pushf	
	add	[esi+19],edx
	clc	
	mov	edx,EBE1E1DE
	push	edi
	pop	ss
	pop	ds
	rcr	ebx,A6
	push	ds
	rcr	[esp+eax*4-27],cl
	loope	004014DB
	push	esi
	call	far 881F:DEBD
	shr	[edx],cl
	illegal	
	cdq	
	push	esi
	call	far 561F:DEC5
	fstp	double ptr [ecx-08]
	mov	eax,[59E1E1D9]
	jnz	0040155D
	mov	[56E35629],eax
	xchg	eax,esp
	illegal	
	push	esi
	mov	cx,ss
	clc	
	mov	edx,9035E1E1
	push	edi
	pop	ss
	popa	
	lock	
	into	
	fist	word ptr [ebx]
	clc	
	jcxz	0040150B
	loope	00401513
	shl	byte ptr [ebx+F15DFFC6],8C
	test	bl,56
	pushf	
	in	eax,B8
	pushf	
	jmp	B91736A3
	pushf	
	illegal	
	pop	esi
	illegal	
	loope	0040151E
	pop	esp
	test	ebp,ebx
	loope	00401532
	push	esi
	pushf	
	jmp	E21BEF50
	loope	00401570
	leave	
	jo	0040154E
	mov	ebx,D9A058D5
	loop	004015D0
	add	eax,F9016CE2
	stosb	
	fsub	st(0),st(1)
	loope	004015C4
	test	[E2A586DE],cl
	outsb	
	lea	esp,edx
	insb	
	or	eax,E1E147F8
	loope	0040158B
	rcr	[ecx+56FC32D7],cl
	cmc	
	mov	ss,[esi-6C]
	illegal	
	push	esi
	test	cl,bl
	clc	
	jnc	0040156C
	loope	00401573
	push	esi
	pushf	
	sar	eax,01
	xchg	eax,edi
	loopne	0040157A
	loope	004015F1
	and	esi,[eax-4D]
	cmp	[06D6AFE1],edx
	rcr	[ebp+7F],cl
	illegal	
	loope	00401589
	test	cl,bl
	clc	
	xchg	eax,ecx
	illegal	
	loope	00401609
	sahf	
	illegal	
	ficomp	word ptr [ecx+ebx*8+DD17F991]
	loope	0040159F
	clc	
	sub	bl,bl
	loope	004015A4
	adc	[edi+edi*4],ch
	loope	004015CD
	mov	esp,F8E0776F
	js	004015AF
	loope	004015B2
	inc	esi
	or	[ecx],dl
	push	es
	fstsw	word ptr [ebp+03BDDD06]
	and	[esi],al
	fstsw	word ptr [ebp+F80EF6D2]
	wait	
	loopne	004015C7
	loope	004015DE
	aaa	
	xchg	eax,ecx
	pop	ecx
	inc	esi
	xchg	eax,esp
	jge	004015C1
	pop	edi
	add	eax,56E2E2E4
	pushf	
	jmp	5649B253
	pushf	
	cmc	
	neg	ah
	clc	
	inc	edx
	fsub	st(0),st(1)
	loope	0040159E
	and	cl,bh
	shl	[eax],cl
	add	edx,edx
	clc	
	push	edi
	fsub	st(0),st(1)
	loope	00401626
	mov	bh,1E
	adc	eax,7993C62C
	loop	00401686
	add	ecx,edi
	push	eax
	loope	00401600
	loope	004015F3
	sub	dl,[esi+E91E60DB]
	loope	0040160A
	loope	00401623
	rcr	ebp,01
	loope	00401610
	nop	
	push	esi
	sahf	
	int	DE
	pushf	
	or	eax,F8D59656
	illegal	
	fabs	
	loope	00401636
	jnc	004015C4
	adc	eax,[ebx+D91F1886]
	loope	004015D5
	push	esi
	cmc	
	mov	ds,[ebp+56]
	int	03
	mov	cl,E1
	loope	00401634
	push	esi
	pop	ebp
	push	esi
	pop	es
	test	al,27
	illegal	
	int	03
	xchg	eax,ecx
	enter	5697,9F
	leave	
	not	bh
	neg	ch
	push	esi
	iret	
	scasb	
	and	[esi+86CC6C0E],esp
	clc	
	sub	edi,ebx
	loope	00401657
	inc	ecx
	test	byte ptr [edi+1E5E4185],D5
	push	esi
	pop	ebp
	push	esi
	iret	
	idiv	dl
	push	esi
	xchg	eax,edi
	mov	cl,AE
	and	eax,edi
	illegal	
	loope	00401670
	pop	ss
	sbb	al,3D
	inc	edi
	mov	dl,ch
	lock	
	fimul	word ptr [ecx]
	fimul	word ptr [eax]
	fiadd	word ptr [edi]
	push	esi
	pop	ss
	out	dx,al
	cmp	eax,E2E3D6F8
	loop	0040169F
	push	ds
	cli	
	xchg	dh,al
	stc	
	sbb	al,E1
	loope	00401641
	push	ds
	mov	[esi-0B],ss
	mov	ecx,[edx+F8D19456]
	ret	E1DD
	loope	004016A2
	push	esi
	and	[edi+E2E260F9],al
	loop	00401741
	jmp	far 9168:750F
	stc	
	mov	[E2E1E1D8],eax
	adc	[esi-64],edx
	in	eax,18
	pop	ds
	fabs	
	clc	
	cmpsd	
	fsubrp	st(1),st(0)
	loope	004016B1
	inc	ebx
	illegal	
	sti	
	lodsb	
	or	al,E2
	iret	
	lodsb	
	and	[ecx],bl
	shl	byte ptr [edi+ebp*2+58CD4B00],01
	pushf	
	shr	dword ptr [esi+D56CEA0F],01
	clc	
	out	dx,al
	fsubrp	st(1),st(0)
	loope	00401755
	ret	4D1F
	illegal	
	mov	eax,F90D6CE2
	jo	004016EA
	loope	004016ED
	push	esi
	xchg	eax,esp
	add	[esi-60],edx
	movsd	
	push	esi
	popf	
	loopne	004016CF
	fisub	word ptr [eax]
	pop	eax
	pushf	
	adc	eax,E2018456
	insb	
	adc	eax,F8116CE2
	pushf	
	fabs	
	loope	004016E2
	adc	eax,edx
	and	[ebx],eax
	and	[esi],al
	fstsw	word ptr [ebp+F6D22003]
	and	[eax+ebx*4-20],dl
	pusha	
	call	E0DA4B0D
	clc	
	imul	esp,ebp,E2
	loop	0040175D
	mov	[ecx],al
	adc	al,18
	pop	ds
	illegal	
	loope	004016DA
	push	esi
	cmc	
	mov	ecx,[edx+F8D96C56]
	and	al,E4
	loop	0040173C
	mov	[18031492],eax
	stc	
	add	eax,E1DE8AF9
	loope	0040171D
	push	ss
	rcr	[esi+edx*2-23],cl
	loope	0040174F
	stc	
	cdq	
	fsubrp	st(1),st(0)
	loope	0040176C
	mov	bl,ch
	loope	00401759
	xor	eax,75F8F910
	illegal	
	loope	0040175B
	dec	ebp
	shr	fs:[edx],cl
	jmp	E33A7806
	sar	[ebx+20],cl
	stc	
	illegal	
	pop	esi
	jmp	DF1A8474
	cmpsb	
	fisub	word ptr [ecx+ebx*8-20]
	retf	1B5E
	fistp	word ptr [esi-08]
	illegal	
	mov	cl,E1
	loope	00401735
	mov	dl,DC
	push	ecx
	push	ss
	jcxz	00401802
	pushf	
	illegal	
	xchg	eax,ecx
	push	esp
	pushf	
	fst	dword ptr [ecx+5979E277]
	add	byte ptr [ecx+E35AF901],E2
	loop	004017BA
	scasb	
	illegal	
	loope	00401832
	push	edx
	out	dx,ax
	imul	esi,esp,F8E177FB
	fsubrp	st(1),st(0)
	loope	0040184B
	loope	0040182A
	pushf	
	in	eax,dx
	xchg	eax,ecx
	loop	00401847
	illegal	
	xchg	eax,ecx
	clc	
	mov	bl,dh
	loope	004017C3
	push	ss
	adc	[edi],dl
	mov	ah,B1
	cdq	
	cmp	esi,[esi+9C58CD9C]
	illegal	
	pop	eax
	pushf	
	jmp	E2117C57
	rcr	[ebp-74],cl
	in	al,E2
	loop	004017CF
	sub	ebx,[ecx+edx*8+56E59C58]
	insb	
	fst	dword ptr [esi-1D]
	clc	
	dec	edx
	loopne	004017ED
	loope	0040183E
	pop	ecx
	dec	esi
	loopne	004017DD
	nop	
	fisub	word ptr [ecx+B9A156A5]
	fisub	word ptr [eax]
	pop	eax
	pushf	
	adc	edx,esp
	insb	
	stc	
	ja	00401804
	stc	
	xlat	
	loopne	00401808
	loope	00401881
	pushf	
	or	eax,E1DA7FF8
	loope	004018B0
	dec	esp
	imul	edi,[ebp-0C],BE
	imul	edx,[ecx+5979E277],F9018182
	illegal	
	loop	00401826
	jns	004018C1
	mov	ds,di
	lahf	
	xchg	eax,ecx
	stc	
	and	dl,bl
	loope	00401830
	idiv	byte ptr [esi+E32BBC05]
	retf	
	cmp	eax,21
	fsub	st(0),st(1)
	loope	0040183C
	illegal	
	pop	esp
	mov	ebx,edi
	loope	00401845
	push	edi
	retf	
	wait	
	iret	
	illegal	
	xchg	eax,ebp
	illegal	
	loope	00401887
	cmp	eax,AF6A16B1
	loop	00401887
	push	esi
	pushf	
	fstp	dword ptr [eax]
	pop	ds
	fabs	
	mov	[esi-0B],ss
	jns	00401863
	popa	
	loope	00401866
	clc	
	mov	esi,EFE2E2E2
	xchg	eax,edx
	outsb	
	pop	ebx
	mov	[esi-0B],ss
	pop	esi
	sbb	eax,8A8B8EE5
	push	esi
	test	cl,bl
	fiadd	word ptr [esi+614654A5]
	loope	00401883
	loope	004018FA
	mov	al,E9
	in	eax,E2
	loop	004018A0
	jpe	00401899
	bound	eax,[edi+esi*4]
	loop	00401920
	test	eax,E2C56EE2
	outsb	
	test	eax,E2C56EE2
	outsb	
	lds	edi,ecx
	aaa	
	fsubrp	st(1),st(0)
	loope	004018BE
	sub	eax,F9E2E2E2
	jge	004018AD
	loope	004018AF
	pop	eax
	pushf	
	add	[ebp+56],edi
	aam	B1
	loope	004018B8
	loope	004018D1
	pop	edi
	in	eax,E2
	loop	0040188E
	pop	ebx
	leave	
	test	al,AE
	add	ecx,edx
	jns	0040193F
	add	byte ptr [ecx+E487F901],E2
	loop	00401968
	sbb	dword ptr [F991F3EA],CA
	illegal	
	loope	004018DC
	adc	[edi-20],esi
	push	esp
	pushf	
	jmp	EDDC6D95
	clc	
	aaa	
	illegal	
	loope	0040190D
	and	[eax+E5945876],bl
	push	esi
	test	ch,dl
	scasb	
	sbb	al,bh
	popf	
	illegal	
	loope	004018AB
	push	esi
	rcr	esi,cl
	pop	ss
	scasb	
	and	eax,edi
	mov	ebp,96E1E1DE
	push	edx
	or	[esi+8D059D2F],ebx
	sbb	[edi],bl
	illegal	
	mov	[esi-0B],ss
	ja	004018D8
	jns	0040191A
	mov	cl,E1
	loope	00401991
	pushf	
	illegal	
	xchg	eax,ecx
	ja	00401923
	push	esp
	pushf	
	fprem	st(0),st(0)
	hlt	
	jcxz	0040192B
	loop	0040194F
	pop	edi
	test	dword ptr [ecx+5ED23081],E2E2E3BF
	fbld	tword ptr cs:[eax+E5F9D131]
	jcxz	00401941
	loop	00401930
	and	[esi-16],ebp
	rcr	[eax+edi*2-21],cl
	loope	0040194B
	aaa	
	clc	
	xor	eax,F8E1E1DD
	cmc	
	in	al,E2
	loop	004019C4
	sahf	
	pop	edi
	push	esp
	push	esi
	test	cl,bl
	push	esi
	push	cs
	mov	dh,8C
	illegal	
	fiadd	word ptr [esi+414654A5]
	loope	0040196B
	loope	004019E2
	mov	byte ptr [esi-6C],D9
	illegal	
	push	es
	rcr	[ebp-5E],cl
	illegal	
	loope	0040193F
	xchg	eax,esp
	illegal	
	clc	
	sub	ah,cl
	loope	00401981
	jle	0040193B
	lodsd	
	sahf	
	shr	[ebx],cl
	test	al,dl
	clc	
	inc	edi
	out	E2,al
	loop	00401A0C
	illegal	
	xlat	
	rcr	[edi-26],cl
	out	E2,al
	loop	00401A0E
	push	ds
	scasb	
	movaps	xmm2,xmm7
	loope	004019A0
	loope	004019B9
	adc	ah,ch
	loop	004019A7
	adc	bl,[ecx+00]
	xchg	eax,ebp
	dec	dword ptr [eax+ecx*4+28]
	loope	004019A1
	loope	004019B3
	push	esi
	mov	[ecx],cs
	push	esi
	pushf	
	adc	eax,5EED5618
	sbb	edx,ecx
	jns	004019C1
	mov	eax,[9558E1E1]
	mov	ebp,BD955421
	and	[eax+E1DFC9F8],edx
	loope	004019E1
	mov	ebx,9D2532A1
	add	dword ptr [edx+edx*8+E1DF025C],E1
	pop	esi
	push	ds
	int	5E
	illegal	
	loope	004019D9
	pop	esp
	cmp	esp,esi
	loop	004019EE
	add	byte ptr [ebx+E03BF886],E1
	loope	00401A7F
	jle	004019C7
	xchg	eax,ebx
	illegal	
	push	edx
	mov	[esi-0B],ss
	pop	esi
	sbb	eax,8A8B8EE9
	push	esi
	pushf	
	illegal	
	clc	
	and	esp,esp
	loop	00401A0D
	dec	eax
	add	al,D2
	inc	ecx
	sub	[ebx+91D96EE2],ch
	stc	
	adc	esi,ebx
	loope	00401A1B
	mov	[esi+1E],bl
	mov	ecx,D218D698
	pop	esp
	stc	
	out	E2,al
	loop	00401A2A
	insb	
	stc	
	clc	
	sub	al,E5
	loop	00401A31
	ret	
	hlt	
	pusha	
	or	dl,[eax+D2F10BC6]
	pop	ebp
	fsub	st(0),st(1)
	loope	00401A3C
	test	cl,bl
	clc	
	jns	00401A3F
	loope	00401A46
	push	esi
	xchg	eax,esi
	fstp	double ptr [esi-08]
	fst	dword ptr [esi-12]
	pop	esi
	sbb	ebx,ecx
	clc	
	xchg	eax,esp
	fsub	st(0),st(1)
	loope	00401A48
	sub	bl,bl
	clc	
	illegal	
	loop	00401A5F
	mov	cl,0E
	jz	00401A0F
	xor	al,E1
	xchg	eax,edx
	sbb	[edi],bl
	illegal	
	mov	[esi-0B],ss
	pop	esi
	sbb	eax,D96CE2F1
	push	esp
	pushf	
	jmp	E3D81329
	loop	00401A7C
	fld	tword ptr [esi+A90D7AF7]
	mov	bh,1F
	illegal	
	loope	00401A31
	push	esi
	cmc	
	mov	ch,[esi+D5945621]
	clc	
	adc	eax,02E1E1DE
	cmp	edi,esi
	xchg	eax,esp
	add	al,BF
	push	edx
	mov	[esi],ebx
	scasb	
	sbb	[eax+E2E448F9],ah
	loop	00401A92
	sbb	cl,bh
	dec	edi
	in	al,E2
	loop	00401B3A
	out	dx,ax
	push	ds
	mov	dh,65
	mov	ebp,E0D4F8B9
	loope	00401AB7
	int	97
	fistp	word ptr [ebx]
	cmp	al,A4
	push	esi
	insb	
	illegal	
	push	esi
	fldz	
	cmp	eax,83821A56
	sbb	dh,dh
	sub	al,4D
	jmp	far 5788:91F4
	popf	
	enter	57E2,BD
	mov	dword ptr [ecx+7D],DD59E2C8
	mov	dword ptr [eax+5CD218D6],E2E2E757
	xchg	al,bh
	cmpsb	
	in	eax,E2
	loop	00401A99
	in	al,dx
	enter	1382,B5
	clc	
	movsb	
	illegal	
	loope	00401B70
	wait	
	lds	esp,[esi+B15CD21A]
	illegal	
	loope	00401B07
	insb	
	fst	dword ptr [edx-65]
	leave	
	loop	00401B98
	sar	eax,01
	les	ebx,ebp
	loope	00401B13
	jpo	00401BA0
	adc	eax,1B35435B
	jns	00401B94
	add	byte ptr [ecx+E6DCF901],E2
	loop	00401BBD
	sbb	dword ptr [F991F3EA],1F
	illegal	
	loope	00401B31
	adc	edx,esp
	insb	
	fstcw	word ptr [ecx+59]
	add	byte ptr [ecx+E67CF801],E2
	loop	00401B6D
	jmp	far 8382:10CD
	xchg	[eax],bl
	pop	ds
	shl	ecx,01
	mov	ax,ds
	retf	
	out	E2,al
	loop	00401BB7
	push	12
	xor	byte ptr [edi+6D3CB3B9],CF
	loop	00401BE6
	illegal	
	loop	00401BE9
	in	eax,dx
	loop	00401BEC
	std	
	mov	ds,cx
	dec	esi
	jcxz	00401B68
	loop	00401BE0
	pushf	
	std	
	loop	00401BF8
	jmp	8F3D8873
	clc	
	cmpsd	
	illegal	
	loope	00401B32
	loop	00401BC8
	sbb	dl,dl
	sub	bl,cl
	pusha	
	clc	
	xchg	eax,esp
	xchg	ecx,esp
	loope	00401B7A
	sbb	dl,dl
	pop	esp
	mov	bh,ah
	loop	00401B8D
	pop	eax
	pushf	
	add	ebp,esp
	clc	
	jnc	00401B92
	loope	00401B95
	pop	ebp
	pushf	
	hlt	
	enter	18C8,1F
	illegal	
	mov	[esi-0B],ss
	mov	cs,[ebx+E430F88A]
	loop	00401BAB
	test	[edx],bh
	and	ecx,[edx]
	sti	
	dec	esp
	push	esi
	sbb	al,2E
	loopne	00401B5F
	push	esi
	jmp	far 3DEE:F1B6
	clc	
	push	E5
	loop	00401BC1
	cld	
	out	dx,ax
	std	
	cmp	[eax+65],bl
	mov	ebp,1F1880C5
	fabs	
	rcr	[ebp+06],cl
	jcxz	00401BD3
	loop	00401BC1
	sbb	al,bh
	add	edi,ebx
	loope	00401BDA
	push	eax
	cdq	
	and	[ecx],al
	fprem	st(0),st(0)
	illegal	
	loope	00401C27
	xchg	[edi+ecx],ah
	sti	
	call	dword ptr [eax-73]
	mov	ebp,BD8D5421
	and	[edi+7991E277],ecx
	pop	ecx
	add	byte ptr [ecx+E7B8F901],E2
	loop	00401C99
	jns	00401C01
	in	eax,dx
	xchg	eax,ecx
	clc	
	popa	
	out	E2,al
	loop	00401BED
	in	eax,93
	and	[edi],esp
	ror	dword ptr [edi],01
	and	[edi+17],edx
	illegal	
	mov	[edi],dh
	ficom	word ptr [eax]
	and	[edi],bl
	ficomp	word ptr [eax+95F818D6]
	jmp	F270FF29
	pop	edx
	dec	ebp
	and	esi,esi
	illegal	
	and	edx,ebx
	scasd	
	loopne	00401BF2
	popa	
	test	al,E1
	insb	
	in	al,dx
	lodsb	
	pop	edi
	out	91,al
	xchg	eax,esi
	clc	
	push	eax
	jmp	F487FF45
	add	[esi+9C5611E2],ch
	in	eax,18
	pop	ds
	illegal	
	loope	00401BFB
	push	esi
	cmc	
	imul	byte ptr [edx+ebx*4+E23553F2]
	lea	eax,[edi+58]
	pushf	
	in	eax,5E
	cmpsb	
	loope	00401CEE
	fst	double ptr [esi-52]
	not	byte ptr [edi+F6D16E56]
	pushf	
	js	00401C8D
	and	ch,[ebx]
	cmp	edx,[ecx+E1DE68F9]
	loope	00401C7A
	adc	[esp+ebx*4-13],edx
	xchg	eax,ecx
	jns	00401CF8
	add	byte ptr [ecx+D688F601],20
	jge	00401D11
	loop	00401D16
	fstenv	word ptr [edi-1E]
	jns	00401D08
	add	byte ptr [ecx+E850F901],E2
	loop	00401D31
	illegal	
	pop	ebp
	or	al,91
	stc	
	xchg	eax,ebx
	fsubrp	st(1),st(0)
	loope	00401CA5
	adc	eax,edi
	in	al,E2
	loop	00401CF9
	illegal	
	mov	ecx,DE3A4F97
	insb	
	fst	dword ptr [esi+66]
	rcr	esi,01
	fprem	st(0),st(0)
	rcr	dh,E1
	loope	00401D13
	cmp	cl,ah
	loope	00401CC4
	popa	
	rcr	[ebp-24],cl
	fsubrp	st(1),st(0)
	loope	00401C97
	loope	00401CCE
	loope	00401D50
	xchg	eax,ecx
	clc	
	illegal	
	illegal	
	loope	00401CBB
	cdq	
	xor	bl,[esi]
	push	ebx
	jc	00401CBB
	retf	
	stc	
	wait	
	call	20B9FFE6
	mov	bl,09
	lock	
	xchg	eax,ecx
	stc	
	illegal	
	loope	00401CEE
	loop	00401D20
	push	esi
	pushf	
	illegal	
	sbb	[edi],bl
	illegal	
	mov	ax,ds
	push	ss
	loopne	00401CFC
	loope	00401D33
	cmp	bh,[ebx+79AB2360]
	loope	00401D06
	loope	00401D08
	push	edx
	pushf	
	in	eax,79
	repne	
	call	far 9C52:8AEC
	jmp	155532AF
	adc	eax,79ED9C52
	adc	eax,52151515
	pushf	
	illegal	
	jns	00401D25
	stosd	
	loope	00401D28
	clc	
	and	eax,58E2E2EB
	jcxz	00401D38
	or	cl,bl
	ficomp	word ptr [edi]
	test	bh,F6
	fild	qword ptr [esi+1B5E8821]
	frstor	word ptr [eax+D2E594A6]
	pop	edi
	out	E2,al
	loop	00401CEA
	clc	
	or	al,E9
	loop	00401D4F
	sbb	esi,0B
	pop	esi
	jnz	00401D56
	adc	[esp+ebx*4-0F],edx
	xchg	eax,ecx
	push	esp
	pushf	
	in	eax,dx
	xchg	eax,ecx
	ja	00401D60
	ja	00401D62
	jns	00401DDC
	add	byte ptr [ecx+E924F901],E2
	loop	00401E05
	sub	esp,edx
	mov	ebp,E3E5F8AE
	loop	00401D77
	shl	dword ptr [ebp+30],01
	jl	00401DB9
	illegal	
	loope	00401D29
	push	esi
	cmc	
	adc	dword ptr [esi+6C],D96456D5
	in	eax,2F
	popa	
	scasb	
	push	es
	div	byte ptr [ebp+6D]
	idiv	ah
	scasd	
	push	eax
	adc	dword ptr [ecx+81825979],E957F901
	loop	00401DA0
	jns	00401D8E
	jo	00401D98
	xor	[ecx+E1DF9AF9],dl
	loope	00401DC0
	cmp	ecx,ebp
	push	F9F08B11
	imul	ebp,eax,9CEAE2E2
	in	eax,DD
	loope	00401DBC
	loope	00401E4A
	rcl	[ecx+F90D6CE2],cl
	sub	al,E2
	loop	00401DC9
	clc	
	call	far E2E2:E2EB
	insb	
	std	
	clc	
	stosd	
	jmp	00401DD5
	loop	00401D8A
	xchg	[edi+ecx],dl
	movsb	
	jns	00401E31
	jns	00401DDB
	in	eax,dx
	xchg	eax,ecx
	stc	
	illegal	
	illegal	
	loope	00401DE7
	adc	[eax],ebx
	pop	ds
	fabs	
	mov	[esi-0B],ss
	pop	esi
	sbb	eax,3CB2F6E5
	test	al,EB
	jz	00401DE7
	pop	edi
	movsd	
	cmp	eax,A6F9DF2E
	out	E2,al
	loop	00401E90
	jmp	00401DD2
	sbb	cl,bh
	scasd	
	out	E2,al
	loop	00401DFD
	pop	esi
	mov	al,E8
	loop	00401E12
	scasb	
	and	ecx,edi
	mov	esp,F8E2E2E7
	int	E6
	loop	00401E1E
	les	esp,[edx+54E0DB2D]
	pushf	
	in	eax,91
	loop	00401EB3
	rcl	dword ptr [esp+ebx*4-2B],01
	xchg	eax,ecx
	push	esp
	pushf	
	fprem	st(0),st(0)
	sub	esp,ecx
	loope	00401E35
	lodsb	
	clc	
	cdq	
	or	ah,[9C5636F5]
	illegal	
	mov	eax,[D98C56A5]
	push	esi
	mov	eax,[561FDE69]
	jmp	DF018FC5
	out	dx,ax
	push	esi
	cdq	
	leave	
	clc	
	dec	esp
	out	E2,al
	loop	00401ED9
	lds	ebx,edi
	retf	EA78
	push	esi
	fldz	
	aaa	
	sbb	byte ptr [eax],1F
	fabs	
	mov	[esi-0B],ss
	clc	
	nop	
	in	al,dx
	loop	00401E72
	cmc	
	jmp	40A96A45
	mov	ss,si
	fldenv	word ptr [eax]
	and	edx,ebx
	scasd	
	loopne	00401EFD
	and	bh,bl
	jpo	00401F01
	test	al,E1
	insb	
	out	dx,ax
	lodsb	
	pop	edi
	out	91,al
	xchg	eax,esi
	cmpsb	
	pushf	
	illegal	
	pop	esp
	jmp	far 3AF8:E2E2
	jmp	far 5C74:E2E2
	adc	ah,[E2E6EAF9+esi]
	loop	00401E69
	loope	00401F2B
	loope	00401EAA
	outsb	
	shl	[ecx-1B],cl
	fsubr	double ptr [esi-29]
	pop	esi
	jmp	EC9AF138
	in	eax,E2
	loop	00401E7A
	mov	al,[E2E5F3F8]
	loop	00401EF6
	scasd	
	cmp	al,53
	fsub	double ptr [esi]
	push	esi
	cmc	
	pop	esi
	sbb	eax,E59C54ED
	xchg	eax,ecx
	pusha	
	illegal	
	loop	00401ED7
	loope	00401ED8
	rcr	[edx+0B],cl
	jmp	6D2301E1
	illegal	
	clc	
	sbb	ch,cl
	loop	00401EE7
	mov	[DA939277],al
	xchg	eax,ecx
	ja	00401EEF
	jns	00401F68
	add	byte ptr [ecx+EAB0F901],E2
	loop	00401F91
	and	eax,916E1BD5
	stc	
	rep	
	loope	00401F02
	loope	00401F1B
	mov	[F3E2E2E4],eax
	push	esi
	fdiv	double ptr [eax]
	jbe	00401FA4
	adc	esi,ebx
	xchg	eax,esp
	add	edx,esp
	outsb	
	rcl	dword ptr [ecx+EA6BF990],01
	loop	00401F1D
	push	esi
	sahf	
	illegal	
	ficomp	word ptr [ecx+eax+F8BD6EE2]
	stc	
	out	E2,al
	loop	00401F3E
	push	ss
	push	ss
	pop	eax
	jmp	00401FA2
	wait	
	lds	esi,esi
	xlat	
	push	esi
	stosd	
	cmpsb	
	out	dx,ax
	rcr	[esi-1A],cl
	loop	00401F40
	add	byte ptr [ebx+D51F1886],E1
	clc	
	mov	ebp,12E2E2E8
	cmp	bh,[eax+CDF98E08]
	loop	00401F55
	loop	00401F03
	stc	
	int	E8
	loop	00401F5C
	push	esi
	push	ds
	fisub	word ptr [ecx+AD71E2A5]
	mov	ds,cx
	stosd	
	in	eax,E2
	loop	00401F0F
	clc	
	mov	[09E2E2E7],al
	xchg	eax,ebp
	xchg	eax,esi
	mov	esp,DE018456
	xchg	[ebp+E0C11E60],ah
	loope	00401F7F
	push	esi
	xchg	ch,dl
	fiadd	word ptr [ecx+eax+E2F56CE2]
	insb	
	std	
	mov	ds,cx
	sub	esi,esp
	loop	00401F92
	jmp	far E1D9:E59C
	loope	00401F98
	clc	
	daa	
	out	E2,al
	loop	00402018
	arpl	di,bx
	fdiv	dword ptr [edi-32]
	illegal	
	sbb	dl,dl
	pop	esp
	out	E2,al
	loop	00401FA9
	xchg	ch,bl
	pop	esi
	fstp	st(1)
	rcr	[edx+53],cl
	out	E2,al
	loop	00401F5A
	add	dword ptr [esi+48B1F618],0F
	sbb	edi,ebp
	cwde	
	jmp	6D223FB7
	in	eax,F9
	mov	eax,F6E2E2E4
	rcr	dh,cl
	pushf	
	fst	dword ptr [ecx-21]
	xchg	eax,ecx
	loop	00402064
	in	eax,F9
	leave	
	in	al,E2
	loop	00402035
	pop	esi
	mov	[E8EFF8E1],eax
	loop	00401FE9
	push	ecx
	inc	esp
	scasd	
	js	00402031
	xchg	eax,edx
	pop	ds
	fabs	
	mov	[esi-0B],ss
	pop	esi
	sbb	eax,8A8B8EE5
	clc	
	movsb	
	jcxz	00401FFF
	loop	00401FCF
	push	ebp
	cmpsd	
	in	al,dx
	out	dx,ax
	and	eax,6CA3DC2B
	sar	esi,CE

fn00402029()
	dec	dh
	xor	bl,cl
	or	esi,eax
	dec	dl
	or	esi,ebx
	neg	bl
	mov	ch,FF
	call	00402042
	or	ecx,[ecx+12]
	or	eax,448F25CE

fn00402042()
	pop	dword ptr [esp-28]

l00402044:
	and	al,D8
	not	ch
	xor	dl,bl
	add	dl,bh
	xor	edx,edi
	add	esi,ebx
	ret	
00402051    49 80 DA D8 0F 86 A0 00 00 00 50 58 0F 87 98  I.........PX...
00402060 00 00 00 E9 60 CE 36 43 36 39                   ....`.6C69     

fn0040206A()
	inc	edi
	add	ebx,edi
	sbb	bl,40
	dec	ebx
	add	ah,dl
	mov	bl,E4
	jmp	00402B0E
0040207A                               2E 4A BA 59 7C 42           .J.Y|B

fn00402080()
	lea	esp,[esp+04]
	push	dword ptr [edx+08]
	xor	bl,ch
	add	bl,A3
	inc	bh
	xor	bl,ch
	or	esi,edx
	jc	0040271A

l00402098:
	xchg	si,si
	rep	
	jnc	0040271A
	test	byte ptr [ecx+BE513BFA],0D
	mov	[ebx+0B],ecx

fn004020AA()
	dec	ebx
	or	esi,ebx
	adc	bl,C8
	dec	esi
	or	al,cl
	mov	ah,cl
	jmp	00402EBF
004020BA                               6A D1 2B 1A 90 CB           j.+...

fn004020C0()
	sub	al,bl
	mov	bh,EF
	add	ebx,edx
	dec	ebx
	adc	bl,59
	sub	al,dl
	xor	eax,edx
	call	004028B4
	mov	eax,[E9A80A64]

fn004020D8()
	lea	esp,[esp+04]
	neg	bh
	adc	bl,E3
	not	cl
	sub	edi,ebx
	sbb	ch,65
	inc	bh
	mov	ebx,edx
	mov	eax,[edx]
	not	dl
	jmp	0040293C
004020F5                03 81 23 45 59 E1 2A D4 4E 43 F6      ..#EY.*.NC.
00402100 D9 0A CB 8B D8 F6 D8 8B D6 0B C1                ...........    

l0040210B:
	add	edi,edx
	add	esi,edx
	xor	cl,ah
	add	dh,2D
	inc	bl
	add	dl,dh
	add	dl,85
	add	edi,ebx
	jmp	00402554
00402122       2F 18 43 69 CA 54 D7 50                     /.Ci.T.P     

l0040212A:
	add	bl,dl
	or	bl,dh
	sbb	bl,60
	add	bh,A8
	or	bh,cl
	mov	bl,51
	dec	ebx
	or	bl,ah
	call	004021E0
	and	eax,8028398A

fn00402144()
	add	bl,60

fn00402145()
	ret	
00402146                   60 80 C7 3B FE CB 47 47 02 F9       `..;..GG..
00402150 32 D8 0B DA 0A FD 0A DE E8 5B 08 00 00 96 3A 94 2........[....:.
00402160 0D                                              .              

fn00402161()
	lea	esp,[esp+04]
	mov	ch,ah
	adc	bl,59
	dec	edx
	or	ebx,edx
	or	bh,ch
	sbb	bh,96
	mov	ah,B3
	inc	bl
	jc	00402C80

fn0040217C()
	lea	cx,[ecx]
	rep	
	jnc	00402C80
	insd	
	jle	0040216E
	test	byte ptr [edi+2BCC2444],F0

fn0040218A()
	pop	dword ptr [esp-34]
	sub	esi,eax
	or	esi,edx
	dec	ebx
	call	00402198

fn00402198()
	dec	dl
	sub	bl,dl
	jl	004026DF

l004021A2:
	mov	ch,ch
	repne	
	jge	004026DF
	clc	
	inc	esi
	idiv	byte ptr [edi]
	or	bl,dh
	dec	ebx
	sbb	bl,7A
	xor	bh,dl
	mov	bl,ch
	sub	bl,cl
	xor	bl,ch
	jmp	00402788
	push	ds
	jnz	004021A7
	jmp	7D70D678

fn004021CA()
	mov	bh,bl
	sub	bl,ah
	or	edx,esi
	inc	dh
	dec	ch
	add	dl,F9
	call	00402262
	cld	
	scasd	
	sub	al,4B

fn004021E0()
	pop	dword ptr [esp-30]
	adc	bh,B1
	neg	bl
	or	ebx,edx
	sub	eax,7C8F346C
	neg	bl
	sbb	bh,B1
	call	004025CA
	dec	ecx
	shl	[esi-0E],cl
	rol	byte ptr [eax+C22A79D7],01

fn00402200()
	adc	bh,79
	sub	al,dl

fn00402205()
	neg	al
	add	dh,B2
	sbb	ah,3E
	adc	ah,EA
	xor	edi,edx
	pop	eax
	jl	00402C44

l00402217:
	add	[eax],al

fn00402219()
	xchg	ax,ax
	jge	00402C44

l00402222:
	jge	00402217

l00402224:
	outsd	
	mov	ebp,7B90084B

fn0040222A()
	pop	dword ptr [esp-10]
	sub	edi,ebx
	add	bh,cl
	or	bh,ah
	mov	esi,ebx
	xor	esi,ebx
	not	bl
	pop	edx
	add	esi,eax
	jmp	00402144
00402242       81 83 D7 D8 F9 D7                           ......       

l00402248:
	inc	esi
	inc	ah
	neg	bh
	sub	eax,edi
	xor	ebx,esi
	mov	bh,ah
	dec	al
	call	00402BC5

l00402259:
	add	[eax-03],dh

l0040225C:
	mov	esi,45E56423

fn00402262()
	lea	esp,[esp+04]
	mov	esi,eax
	neg	al
	mov	bl,ah
	neg	bh
	sub	edx,ebx
	call	00402161
	jmp	far 4BCE:D837
0040227A                               39 FE 19                    9..  

fn0040227D()
	mov	ecx,ebx
	mov	ebx,edi
	add	cl,61
	xor	ebx,esi
	mov	eax,ecx
	inc	al
	add	ebx,ecx
	mov	eax,ecx
	jmp	004023C7
00402293          E9 1E AC 22 29 E5 1B                      ...")..     

fn0040229A()
	xchg	[esp],ebx
	xchg	eax,eax
	mov	bh,bh
	pop	ebx
	xor	al,bl
	xor	dh,ch
	sbb	al,9F
	inc	edx
	xor	ah,dl
	add	al,cl
	sub	dh,al
	jmp	00402AA6
004022B5                D7 94 9C BB DD 15 53 93               ......S.  

fn004022BD()
	pop	dword ptr [esp-0C]
	add	dh,BB
	add	dh,cl
	dec	edi
	neg	dh
	inc	edi
	xor	ebx,ecx
	not	bl
	xor	bh,al
	jbe	00402AD3
	jmp	004022DB
	ja	00402AD3
	or	eax,esi
	shl	ah,80

l004022E5:
	add	bh,54
	not	bl
	add	edx,ecx
	sbb	bh,53
	not	cl
	xor	ebx,edx
	dec	edi
	dec	bh
	sub	esi,edi
	dec	esi
	jl	00402CCA

l004022FF:
	xchg	cl,cl
	jge	00402CCA

l00402307:
	cdq	
	in	eax,dx
	jpe	00402350
	mov	dh,AC
	retf	

fn0040230E()
	add	cl,ch
	xor	eax,ecx
	dec	ch
	adc	ch,E3
	dec	cl
	add	bh,dh
	inc	ecx
	sub	ah,ch
	sub	cl,dl
	call	00402508
	outsd	
	jg	0040237B

l00402328:
	pop	eax
	mov	eax,B4CB2B09

fn0040232B()
	sub	ecx,ebx
	mov	ah,B2

fn0040232E()
	mov	dl,F6
	ror	dword ptr [ebx],01
	ret	FD8A
00402335                48 8B D8 2B C1 E8 E2 06 00 00 2A      H..+......*
00402340 39 4E F0                                        9N.            

fn00402343()
	sbb	bh,10
	or	eax,ebx
	add	ecx,edi
	dec	eax
	inc	dl
	neg	al
	add	ch,EB

l00402350:
	lds	ebp,ebx
	dec	bh
	sub	ah,cl
	jz	00402953

l0040235C:
	repne	
	mov	dl,dl
	jnz	00402953
	add	esi,ebx
	or	[ebp+1C894552],bl

fn0040236B()
	mov	[esp],ebx
	mov	bh,bh
	xchg	ah,ah
	pop	ebx
	sub	edi,ebx
	or	esi,edi
	or	bl,dl
	inc	edi
	jmp	004027B4

fn0040237B()
	xor	eax,F4000004
0040237F                                              F4                .
00402380 E1 51 11 3F                                     .Q.?           

fn00402384()
	lea	esp,[esp+04]
	dec	bh
	mov	bh,ch
	xor	esi,edx
	mov	ebx,ecx
	add	ebx,edi
	sbb	bh,E6
	sub	esi,edx
	neg	bl
	add	bh,1A
	jl	00402CAE

l004023A2:
	rep	
	jge	00402CAE
	xchg	eax,esi
	push	eax
	test	[esi],esi
	xlat	
	into	
	inc	edx

fn004023B0()
	add	ah,E8
	neg	al
	mov	[esi],cl
	mov	bh,F0
	inc	bh
	mov	al,dh
	call	00402899
	rcl	[edi],cl
	movsb	
	sar	al,cl

fn004023C7()
	inc	bl

fn004023C9()
	inc	ebx
	mov	eax,edx
	mov	ch,bl
	add	ebx,edi
	inc	bh
	xor	ebx,ecx

l004023D3:
	illegal	
	mov	[esi],ds
	pop	es
	add	[eax],al

fn004023DA()
	jpe	004023DC

l004023DC:
	jge	00402AF8

l004023E2:
	inc	ebp
	sbb	eax,4B9A0CEF

fn004023E8()
	dec	ah
	or	ah,cl
	mov	ah,B5
	xor	bl,al
	mov	cl,ch
	inc	eax
	jmp	00402CFA
004023F8                         E4 82 72 1A 06                  ..r..  

fn004023FD()
	lea	esp,[esp+04]
	xor	bh,al
	mov	ebx,eax
	or	ebx,esi
	dec	ecx
	xor	ebx,edx
	or	dl,dh
	jmp	00402BAD
00402411    CE B0 BF 80 E9 41 05 65                       .....A.e      

l00402419:
	xor	edi,edx
	not	bl
	sub	bl,cl
	add	ebx,esi
	xor	eax,FFFFFEC8
	mov	bl,al
	call	00402EA6
	cmp	dl,[esi+esi*8+24448F83]

fn00402431()
	pop	dword ptr [esp-0C]

fn00402434()
	hlt	
	mov	bh,dh
	xor	bh,cl
	not	eax
	xor	esi,ebx
	add	bl,98
	or	edi,edx
	sub	bl,dh
	jmp	00402972
00402449                            F5 7D 37 02 4B                .}7.K 

fn0040244E()
	add	eax,ebx
	sub	ah,bl
	add	bl,AE
	neg	al
	xor	bl,ah
	mov	bh,dh
	or	ebx,edx
	xor	ebx,eax
	sub	ebx,esi
	inc	eax
	jmp	00402E78
00402467                      67 D5 77 44                       g.wD    

fn0040246B()
	mov	[esp],ebx
	repne	
	pop	ebx
	mov	ah,AA
	xor	ah,al
	dec	ah
	sub	ebx,esi
	neg	ah
	ror	ch,0B
	jmp	00402682
	daa	
	and	bl,[edx+eax*8+D4F6DDE0]

fn00402488()
	not	ah
	neg	ah
	sub	ch,8E
	not	bh
	add	bh,BF
	inc	ebx
	xor	eax,edi
	dec	bh
	mov	ebx,eax
	or	al,dh
	jz	004023E8

l004024A3:
	xchg	edx,edx
	xchg	cx,cx
	jnz	004023E8

l004024AE:
	outsd	
	in	eax,4A
	push	eax
	cli	
	cwde	
	mov	[0424648D],al

fn004024B6()
	lea	esp,[esp+04]

fn004024BA()
	inc	ecx
	sub	bh,dh
	not	ch
	not	ch
	sbb	bh,0E
	or	edi,ecx
	sub	ah,cl
	or	ebx,ecx
	jz	00402029

fn004024D0()
	repne	
	jnz	00402029
	mov	edi,D9850A9B
	fiadd	dword ptr [esi-73]

fn004024DE()
	lea	esp,[esp+04]
	adc	cl,B6
	xor	edx,ecx
	dec	edi
	push	00
	add	edi,edx
	or	edi,ecx
	jo	0040210B

l004024F4:
	xchg	dl,dl
	jmp	004024FC
004024FB                                  EF                        .   

l004024FC:
	jno	0040210B

l00402502:
	ror	dword ptr [esp+ebx-2C],D7
	or	cl,[edi+2AD42444]

fn00402508()
	pop	dword ptr [esp-2C]
	sub	dl,bl

fn0040250D()
	ror	[edx],cl
	fild	word ptr [eax+DC80FCC3]
	and	eax,00C2C681
	add	[eax],al
	xor	ecx,esi
	mov	edx,ebx
	xor	bh,al
	or	bl,cl
	call	00402D9F
	mov	[CE1372AC],al
	mov	eax,DF801CE9
	scasd	
	xor	ah,dl
	add	ah,79
	sub	eax,edi
	mov	bl,2F
	add	ch,90
	or	ah,dh
	or	ebx,esi
	sub	ebx,edi
	inc	bl
	jmp	00402C23
0040254D                                        8D 0E 27              ..'
00402550 DC 68 0E 89                                     .h..           

l00402554:
	add	edi,ebx
	dec	ebx
	not	dl
	call	eax
	mov	dh,ch
	sub	esi,edx
	add	dl,dh
	inc	bh
	xor	edi,ebx
	call	004022BD
	add	al,AE
	arpl	[eax-06],bx

fn0040256F()
	jnz	004023C9

fn00402575()
	inc	esi
	sub	edx,edi
	sbb	ch,49
	inc	edi
	add	dh,dl
	sub	ecx,edx
	call	004024B6
	jl	004025B7
	sbb	dword ptr [esp+ebx*2],8BEF4371

fn0040258D()
	mov	ebx,edx
	neg	dl
	sub	ch,cl
	sub	ch,dl
	neg	dl
	sub	ebx,eax
	or	ecx,ebx
	mov	ah,dh
	mov	bh,bl
	sbb	al,9B
	jmp	0040230E
004025A7                      7D 22 A5 00 6B 02 2D              }"..k.- 

l004025AE:
	dec	bl
	sub	eax,esi
	mov	bl,al
	inc	eax
	sub	ebx,eax
	mov	bh,D5
	mov	al,dl
	adc	bl,CA
	inc	ebx
	mov	eax,edx
	jmp	00402488
004025C6                   EE 5C 75 1E                         .\u.     

fn004025CA()
	lea	esp,[esp+04]
	mov	ebx,eax
	or	ebx,edx
	mov	bh,14
	add	bh,E5
	sub	ebx,edi

fn004025D8()
	fild	word ptr [eax+F80AADD3]
	inc	ebx
	mov	bl,6B
	call	00402D19
	wait	
	wait	
	push	cs
	sbb	eax,F83CE9EC

fn004025EE()
	lea	esp,[esp+04]
	add	bl,56
	adc	ah,80
	mov	esi,edi

fn004025FA()
	dec	ecx
	dec	dh
	neg	dl
	not	dl
	jmp	00402E37
00402606                   82 43 93 85 C6 B2                   .C....   

l0040260C:
	xor	al,cl
	inc	esi
	adc	ch,54
	inc	bl
	add	al,bl
	adc	dl,6A
	or	ch,dh
	pop	ecx
	js	00402C5F

l00402622:
	lea	cx,[ecx]
	jns	00402C5F

l0040262B:
	push	esp
	jmp	004025D8
0040262E                                           28 B5               (.
00402630 81 17                                           ..             

fn00402632()
	movzx	edx,al
	dec	esi
	not	bh
	add	bh,A0
	xor	bh,bl
	neg	bh
	neg	bl
	jmp	00402D76
00402646                   C0 D9 C1 39                         ...9     

fn0040264A()
	mov	cl,84
	mov	bh,4F
	xor	edx,eax
	inc	ebx
	dec	ebx
	dec	edx
	xor	bl,bh
	add	edx,eax
	push	esi
	jmp	0040232B
0040265D                                        71 C6 43              q.C
00402660 93                                              .              

fn00402661()
	xor	bh,dl
	add	esi,ebx
	add	ebx,eax
	add	esi,edi
	xor	bl,dh
	dec	bh
	jbe	004028CC

l00402673:
	xchg	bh,bh
	ja	004028CC

l0040267B:
	mov	ebx,CC466273
	mov	dh,0B
	ret	
00402684             2B D8 4B 33 C6 2A C7 02 C4 8B D8 03     +.K3.*......
00402690 DE E9 9B FE FF FF F2 D2 70 D0 89                ........p..    

l0040269B:
	sub	bl,bh
	add	al,ch
	push	00003000
	or	dl,ah
	sbb	dl,8E
	mov	ch,dh
	jo	004029ED

l004026B1:
	rep	
	jno	004029ED
	fistp	dword ptr [edi]
	enter	89E3,75

fn004026BE()
	lea	esp,[esp+04]
	add	ebx,edi
	sbb	cl,F0
	mov	ch,F6
	dec	ch
	or	ecx,esi
	add	al,ah
	inc	ch
	xor	ebx,ecx
	neg	bl
	jmp	00402A5F
004026DA                               EC 8E AC 45 17              ...E.

l004026DF:
	not	dl
	neg	bh
	mov	eax,edx
	mov	dl,cl
	add	ch,8D
	xor	cl,ah
	dec	ebx
	js	0040260C

l004026F3:
	xchg	bh,bh
	jns	0040260C

l004026FB:
	mov	dword ptr [esi],C074074F
	adc	[edi-80],eax

l00402702:
	inc	edi
	add	bl,02

fn00402704()
	ret	
00402705                02 8B D9 8A FC 4B B7 64 2B F2 B3      .....K.d+..
00402710 94 E8 6A F9 FF FF 05 B5 88 F1                   ..j.......     

fn0040271A()
	inc	ebx

fn0040271B()
	dec	bh
	inc	bl
	sub	bh,cl
	neg	bh
	add	edi,edx
	mov	bl,3F
	call	0040276C
	fimul	dword ptr [edi+CC2A9EA9]
	add	edx,00000000
	mov	cl,F4
	neg	cl
	neg	bl
	dec	ecx
	sub	bl,ah
	dec	bl
	add	ebx,edi
	call	004020D8
	and	cl,bh
	dec	edi
	js	0040275A

fn0040274E()
	or	edi,eax

fn0040274F()
	clc	
	or	bl,dl
	add	bl,bh
	mov	edi,ecx
	xor	bl,dl
	sub	ebx,edx

fn0040275A()
	xor	bh,bl
	or	bl,ah
	dec	bh
	or	esi,eax
	call	00402431

fn00402767()
	rep	
	cmpsb	

l00402769:
	add	[ebp-7A],bl

fn0040276C()
	xchg	[esp],ecx
	jl	00402771

l00402771:
	pop	ecx
	lea	eax,[eax+78]
	mov	bl,cl
	adc	bh,4B
	xor	bl,cl
	mov	bh,ch
	call	0040236B
	shr	byte ptr [edi],2E
	push	es
	sti	
	push	dword ptr [eax+10]
	adc	bh,A1
	add	bh,al
	adc	bh,8F
	not	bl
	add	bl,61
	sbb	bh,AB
	jpe	004029D3

l004027A1:
	jmp	004027A7
004027A6                   DC                                  .        

l004027A7:
	jpo	004029D3

l004027AD:
	cdq	
	adc	bl,[esi+31532F32]

fn004027B4()
	or	bl,dh
	mov	bh,34
	add	eax,08
	sbb	bh,FB
	sbb	bl,52
	mov	bl,BF
	neg	bl
	sub	bh,cl
	add	bh,dh
	mov	ebx,ecx
	jmp	00402661
004027D0 C0 E7 6A B5 D8 64 AF 1C                         ..j..d..       

fn004027D8()
	lea	esp,[esp+04]
	sub	al,bh
	not	dh
	sub	eax,esi
	xor	esi,ebx
	or	al,bl
	not	bh
	jbe	004020AA

l004027EE:
	repne	
	jmp	004027F4
	ja	004020AA
	arpl	[ecx+3B],bx
	xchg	eax,esp
	mov	cl,AA
	popa	
	xchg	eax,ecx

fn00402802()
	inc	esi
	xor	esi,edi
	shr	eax,10
	add	edi,esi
	or	edi,ebx
	sub	esi,edi
	inc	edi
	xor	esi,eax
	jmp	00402CDF
00402816                   F4 4B 26 91 C3 5B AD                .K&..[.  

fn0040281D()
	xchg	[esp],edi
	rep	
	pop	edi
	adc	bl,7B
	adc	bh,88
	dec	esi
	sub	bh,cl
	jmp	004021AF
	or	dh,[eax]
	mov	eax,0ADE0327

fn00402834()
	add	ebx,esi
	or	ah,bl
	add	bh,1F
	sub	eax,edx
	add	ah,51
	xor	ecx,edi
	xor	edx,ecx
	sub	ch,cl
	jbe	00402A03

l0040284C:
	mov	si,si
	xchg	ch,ch
	ja	00402A03

l00402857:
	dec	edx
	xor	[ebx+0969C3A6],bl
	add	[eax+804E16DB],eax

fn0040285F()
	sbb	bl,16
	dec	esi
	sbb	bh,49

l00402864:
	illegal	
	mov	bh,B9
	or	bl,cl
	sbb	bl,7A
	js	00402702

l00402873:
	rep	
	jns	00402702
	neg	byte ptr [edx]
	mov	ebx,8BC1FE56

fn0040287E()
	inc	cl
	mov	edx,edi
	add	ah,A9
	or	cl,bh
	xor	ebx,edi
	or	esi,ebx
	xor	al,ah
	dec	eax
	xor	ebx,ecx
	jmp	00402343
00402895                D8 2D 23 D2                           .-#.      

fn00402899()
	lea	esp,[esp+04]
	add	al,bl
	mov	ah,ch
	mov	al,dh
	add	bh,dl
	mov	bl,21
	xor	eax,esi
	or	al,cl
	jmp	0040206A
004028B0 FA E9 FC B6                                     ....           

fn004028B4()
	lea	esp,[esp+04]
	rol	ch,13
	inc	ebx
	or	ah,dh
	inc	ebx
	sub	ebx,eax
	xor	ebx,esi
	call	0040246B
	out	dx,ax
	out	D9,al
	jns	004028D0

fn004028CC()
	add	esi,ebx

l004028CD:
	rep	

fn004028CE()
	or	bh,dh

fn004028D0()
	adc	bl,5E
	not	bl
	xor	esi,eax
	mov	eax,[eax]
	call	00402DCA
	jnz	00402946

l004028E0:
	jmp	00402929

fn004028E2()
	lea	esp,[esp+04]
	sub	ebx,esi
	sub	bl,ch
	xor	esi,eax
	neg	bh
	mov	ebx,eax
	sub	edi,edx
	adc	bh,4F
	add	eax,ecx
	call	0040281D
	out	dx,ax
	ficom	dword ptr [eax]
	and	eax,F103CF65

fn00402902()
	add	esi,ecx
	inc	dl
	sub	cl,dl
	add	ebx,esi
	adc	bl,A7
	dec	ecx
	sbb	bh,C7
	call	004024DE
	mov	[ebx+esi*2],ch
	retf	3462
0040291C                                     B8                      .  

fn0040291D()
	adc	bl,1F
	sbb	bl,6B
	shr	ecx,0F
	inc	ebx
	dec	edi
	sub	dh,bh

fn00402929()
	test	dword ptr [ebx],0BD3F6F2
	cli	
	call	004027D8
	mov	ebx,edi
	dec	eax
	leave	
	stc	
	mov	bl,21

fn0040293C()
	adc	bl,B9
	xor	dh,dl
	or	dh,ch
	sub	esi,edx
	adc	dl,F9

fn00402946()
	sar	cl,cl
	mov	dh,ah
	jmp	00402902
0040294C                                     3C E8 47 97             <.G.
00402950 51 81 EA                                        Q..            

l00402953:
	sbb	bh,F7
	push	40
	inc	ebx
	add	dl,4E
	mov	eax,edx
	adc	bl,D7
	or	esi,ebx
	not	cl
	xor	ah,cl
	sub	eax,edi
	jmp	00402EE1
0040296E                                           30 D5               0.
00402970 F6 02                                           ..             

l00402972:
	mov	edi,ecx
	sub	ebx,ecx
	sbb	bh,FE
	mov	bl,5A
	add	bl,ch
	dec	bh
	or	eax,eax
	jnz	004025FA

l00402987:
	mov	ebx,edi
	jc	00402A89

l0040298F:
	mov	ch,ch
	rep	
	jnc	00402A89
	leave	
	scasd	
	mov	dl,[ecx]
	and	[edi+20],cl
	or	byte ptr [ebp+03042464],C3

fn004029A0()
	lea	esp,[esp+04]
	add	eax,ebx
	add	ebx,ecx
	inc	esi
	sub	ebx,edx
	not	bh
	jmp	00402E5A
004029B2       90 C8 2A 04 79 06                           ..*.y.       

fn004029B8()
	xchg	[esp],eax
	mov	dl,dl
	pop	eax
	mov	bh,47
	not	bl
	add	esi,ecx
	neg	bl
	mov	bh,cl
	sub	ebx,eax
	jmp	004022E5
004029CF                                              D9                .
004029D0 0F 4A AE                                        .J.            

l004029D3:
	inc	ebx
	neg	bh
	or	edi,eax
	add	esi,edx
	mov	esi,edx
	or	esi,eax
	xor	esi,edx
	neg	bh
	call	0040222A
	wait	
	sub	dl,al
	jg	00402A14

l004029EC:
	lahf	

fn004029ED()
	add	dl,D8
	not	al
	inc	ecx
	dec	edx
	mov	ebx,edi
	not	al
	neg	cl
	call	0040218A
	mov	al,[4B4E692D]

fn00402A03()
	dec	ebx

fn00402A04()
	sub	eax,edx
	add	ch,B8
	inc	cl
	add	ebx,eax
	or	bh,cl
	mov	edx,1CD7B712

fn00402A14()
	call	004026BE

fn00402A19()
	adc	esi,[eax+3190FA5D]
	pop	es
	dec	byte ptr [edi+4ADC2444]

fn00402A21()
	pop	dword ptr [esp-24]
	dec	edx

fn00402A26()
	sub	ecx,ebx
	add	eax,ecx
	mov	dh,41
	inc	al
	jo	00402F07

fn00402A34()
	jmp	00402A39

l00402A39:
	jno	00402F07

l00402A3F:
	dec	ecx
	xchg	eax,edi
	retf	
00402A42       2D FD C3                                    -..          

fn00402A45()
	xchg	[esp],edi
	mov	ah,ah
	rep	
	pop	edi
	sbb	bh,64
	xor	cl,bl
	add	esi,edx
	neg	ch
	jmp	00402730
	jge	004029F6
	sbb	edx,[esi+ecx+28B3C80B]

fn00402A5F()
	or	ecx,eax
	mov	bl,28
	xor	edx,1CD7BB62
	dec	bl
	not	ch
	add	ecx,ebx
	dec	eax
	sub	ebx,esi
	jle	0040227D

l00402A78:
	mov	bl,bl
	xchg	si,si
	jg	0040227D

l00402A83:
	into	
	call	ecx
	rep	
	and	dh,cl

fn00402A89()
	inc	esi
	sub	edi,ecx
	not	bh
	mov	esi,edi
	mov	bh,ah
	mov	bl,ah
	neg	bl
	xor	bh,ch
	sub	ebx,edi
	jmp	00402B59
00402A9F                                              DA                .
00402AA0 B4 F0 72 A4 1F 21                               ..r..!         

fn00402AA6()
	adc	dl,38
	neg	bh
	neg	ah
	push	dword ptr [ecx]
	xor	bh,ah
	neg	dh
	add	dh,5F
	xor	dl,al
	mov	edi,eax
	or	ebx,edi
	jpe	00402200

l00402AC2:
	rep	
	xchg	bh,bh
	jpo	00402200
	sub	eax,A91D9277
	lock	
	sub	ebp,[eax+F8244489]

fn00402AD3()
	mov	[esp-08],eax
	adc	cl,A0
	sub	ebx,esi
	sbb	bl,0E
	adc	dh,A7
	mov	bl,al
	jbe	004021CA

l00402AEA:
	rep	
	xchg	ebx,ebx
	ja	004021CA
	add	al,92
	xlat	
	jnc	00402AE0

fn00402AF8()
	or	bl,dh
	sub	ebx,esi
	add	al,dl
	add	ch,al
	dec	ebx
	or	ch,ah
	dec	ecx
	jmp	00402B77
00402B06                   F5 EA 3C 95 D7 E3 83 D9             ..<..... 

l00402B0E:
	or	ebx,edi
	sub	bl,al
	mov	bh,ch
	sbb	al,9A
	or	ah,dh
	not	al
	not	ah
	sub	eax,esi
	neg	al
	jpe	00402248

l00402B27:
	jmp	00402B2C

l00402B2C:
	jpo	00402248

l00402B32:
	xchg	eax,edx
	xor	bl,[esi+24448F80]

fn00402B36()
	pop	dword ptr [esp-14]

fn00402B39()
	in	al,dx
	add	edx,eax
	sbb	bh,A7
	or	edx,ecx
	adc	bh,B0
	dec	dl
	inc	edi
	sbb	dh,7B
	inc	bl
	jmp	00402632
00402B51    B4 A0 F7 AE AE CE FB 41                       .......A      

l00402B59:
	mov	edi,ecx
	add	bh,ch
	not	bh
	dec	bl
	adc	bh,75
	inc	edi
	or	bl,ch
	mov	eax,ecx
	dec	ebx
	not	bl
	call	00402384
	stc	
	lodsb	
	dec	esi
	cwde	
	imul	esi,[edx],F9

l00402B77:
	xor	bh,cl
	dec	bh
	mov	al,08
	mov	bh,1A
	xor	eax,edx
	adc	al,73
	neg	cl
	call	00402B92
	test	[esi],ecx
	bound	edi,[ebx-0D]
	jge	00402B13

fn00402B92()
	pop	dword ptr [esp-10]
	mov	ch,[edi]
	xor	eax,ecx
	not	al
	or	ah,dl
	neg	ah
	or	ah,dl
	xor	ebx,edi
	jmp	004020C0
00402BA9                            50 5C 15 13                   P\..  

fn00402BAD()
	sub	eax,ecx
	sbb	dl,B7
	xor	edx,esi
	mov	bl,B4
	add	ebx,edi
	sub	dh,ch
	or	bh,al
	jmp	00402834
00402BC1    F9 FA 72 37                                   ..r7          

fn00402BC5()
	lea	esp,[esp+04]
	inc	al
	add	bl,8D
	adc	bl,5B
	dec	eax
	sbb	bl,55
	adc	bl,9A
	call	00402C05
	test	ecx,esp
	cmp	eax,E3B927FF

fn00402BE4()
	mov	[esp],edx
	push	bx
	pop	bx
	xchg	dh,dh
	pop	edx
	sbb	bh,F3
	mov	bl,A8
	cmp	eax,8370CB94
	jmp	0040256F
00402BFE                                           E4 8D               ..
00402C00 F0 CE 06 92 88                                  .....          

fn00402C05()
	lea	esp,[esp+04]
	xor	ebx,edi
	dec	eax
	adc	al,31
	dec	edx
	sub	eax,ecx
	not	al
	neg	ah
	call	00402E12
	bound	ebp,es:[ebx+A59AB817]
	dec	esi

fn00402C23()
	inc	bh
	sub	ebx,esi
	sbb	ah,2B
	not	bl
	mov	bh,52
	or	eax,esi
	xor	ah,cl
	adc	ah,A3
	adc	bl,86
	xor	eax,esi
	call	00402D36
	das	
	inc	ecx
	and	byte ptr [esi+29],43

fn00402C44()
	inc	ebx

fn00402C45()
	add	dh,cl
	add	bl,dh
	dec	esi
	mov	ebx,edx
	adc	dh,22
	or	edi,esi
	neg	dh
	call	00402B36
	pop	eax
	pop	esp
	dec	esi
	and	dl,[3247A97B]

fn00402C5F()
	inc	edi
	xor	dl,ah
	mov	ebx,edi
	add	bh,93
	mov	esi,edx
	or	dh,ch
	neg	bl
	mov	bh,C2
	mov	dh,cl
	add	ebx,eax
	call	004025EE
	xchg	eax,esp
	inc	esp
	mov	[B3393586],al
	mov	eax,FA8BC20B

fn00402C80()
	or	eax,edx
	mov	edi,edx

fn00402C84()
	or	al,dh
	pop	edi
	sbb	al,BB
	sbb	bl,C2
	dec	bh
	not	ch
	add	ch,al
	jle	0040258D

fn00402C99()
	jmp	00402C9E

l00402C9E:
	mov	dl,dl
	jg	0040258D

l00402CA6:
	add	ah,ah
	aas	
	xchg	eax,ebp
	or	[ecx+40032969],bl

fn00402CAE()
	add	eax,[eax+3C]
	mov	bl,5C
	inc	ebx
	sbb	bh,27
	mov	bl,C9
	mov	bh,3B
	dec	bl
	sub	ebx,esi
	call	00402DE3
	illegal	
	xchg	[eax-47],ch
	test	al,33

l00402CCA:
	xor	edi,esi
	xor	esi,edx
	xor	ecx,ebx
	inc	ch
	dec	edi
	dec	bl
	call	00402A45

fn00402CD7()
	std	
	illegal	
	fisubr	word ptr [edx+2BE40CF1]

fn00402CDF()
	sub	edi,eax
	add	eax,edx
	add	esi,edx
	or	edi,edx
	add	esi,eax
	mov	edi,ebx
	mov	edi,edx
	sub	esi,ebx
	dec	edi
	call	004029A0

fn00402CF5()
	xor	edx,esi
	loopne	00402CD7

l00402CF9:
	retf	F80A

fn00402CFA()
	or	bh,al
00402CFC                                     03 DF 80 DB             ....
00402D00 67 8B D9 0B DF FE C3 F6 D8 0B DE 8A C7 E9 9E F6 g...............
00402D10 FF FF                                           ..             
00402D12       99 F6 63 B5 9A 2E C8                        ..c....      

fn00402D19()
	pop	dword ptr [esp-14]
	sub	bh,ah
	mov	bl,dh
	adc	bl,5C
	xor	ebx,eax
	neg	bl
	dec	bh
	neg	bh
	call	00402BE4
	in	eax,C7
	sbb	ebp,esi
	adc	ecx,[ecx+5BF3241C]

fn00402D36()
	mov	[esp],ebx
	rep	
	pop	ebx

fn00402D3B()
	inc	eax
	inc	ah
	not	bh
	not	ah
	inc	eax
	adc	bh,DD
	not	ch
	jmp	004025AE
00402D4D                                        F3 28 7D              .(}
00402D50 EE                                              .              

fn00402D51()
	sub	esi,000000C2
	not	ch
	neg	ah
	or	eax,edi
	dec	edx
	xor	ecx,edx
	or	ebx,eax
	dec	bl
	xor	dh,dl
	add	dl,0F
	call	004023FD
	push	esp
	test	ebx,esi
	enter	434B,A3
	lahf	

fn00402D76()
	or	edi,ebx
	not	bl

l00402D7A:
	dec	ebx
	add	edi,ebx
	xor	bl,bh
	sbb	bh,FC
	movzx	ebx,ah
	inc	edi
	dec	esi
	jo	00402802

l00402D8D:
	jmp	00402D92

l00402D92:
	jno	00402802

l00402D98:
	pushf	
	out	dx,ax
	mov	es:[ebx-05],ds
	cld	

fn00402D9F()
	lea	esp,[esp+04]
	or	ebx,edi
	or	edx,ecx
	xor	ecx,edi
	xor	edx,eax
	neg	ch
	sbb	dh,D9
	inc	dh
	xor	eax,ebx
	jle	0040264A

fn00402DBA()
	xchg	ax,ax
	mov	ecx,ecx
	jg	0040264A

l00402DC5:
	js	00402D7A

l00402DC7:
	mov	ah,AC
	pusha	

fn00402DCA()
	xchg	[esp],edx
	mov	ah,ah
	xchg	bx,bx
	pop	edx
	xor	bh,ah
	inc	esi
	dec	bh
	dec	bh
	call	004028E2
	add	eax,7E
	sub	ecx,[ebp+2B042464]

fn00402DE3()
	lea	esp,[esp+04]
	sub	edi,esi
	or	bl,dh
	add	bh,dl
	add	esi,edx
	lea	edx,[eax+000000F8]
	neg	bh
	mov	bh,cl
	add	bl,cl
	or	edi,ebx
	jc	0040285F

l00402E03:
	lea	ecx,[ecx]
	rep	
	jnc	0040285F
	ror	dword ptr [eax+FB02FB48],89

fn00402E12()
	mov	[esp],eax
	xchg	dh,dh
	pop	eax
	dec	ebx
	add	bh,dh
	inc	bh
	dec	al
	neg	al
	sbb	bh,16
	js	0040244E

l00402E2A:
	xchg	bh,bh
	jns	0040244E

l00402E32:
	test	dword ptr [edi+2A62761D],CCDE80E1

fn00402E37()
	sub	ah,cl
	sbb	dh,CC

fn00402E3C()
	sbb	bl,7D
	mov	ebx,esi
	mov	ah,bh
	inc	ah
	js	0040291D

fn00402E4B()
	xchg	al,al
	jns	0040291D

l00402E53:
	sub	al,32
	lodsd	
	dec	esi
	illegal	
	pop	esi
	sub	edi,eax

fn00402E5A()
	sub	edi,eax
	inc	edi
	xor	bl,cl
	xor	bh,al
	neg	bh
	mov	bh,dh
	add	bl,A7
	inc	bh
	dec	ebx
	jmp	00402419
00402E70 80 F1 45 70 3A A5 FE 1C                         ..Ep:...       

l00402E78:
	adc	ah,30
	mov	eax,edx
	add	ebx,ecx
	sbb	bl,99
	not	bh
	add	bl,86
	adc	bl,37
	or	ebx,edx
	neg	bh
	jl	0040212A

l00402E94:
	mov	ax,ax
	mov	esi,esi
	jge	0040212A

l00402E9F:
	mov	[eax+A0027F29],dh

fn00402EA6()
	xchg	[esp],esi
	push	ax
	pop	ax
	pop	esi
	xor	bl,dl
	dec	bl
	or	bl,al
	xor	bl,al
	jmp	0040274E
00402EBB                                  7E 85 34 B0               ~.4.

l00402EBF:
	shl	ecx,0F
	add	al,0E
	or	bh,ch
	sub	dl,ah
	sub	ebx,ecx
	inc	esi
	or	bl,ch
	sbb	bl,8D
	mov	bl,al
	add	eax,ebx
	call	0040229A
	add	[ecx-73],dl
	sbb	al,B8
	cli	
	cwde	

fn00402EE1()
	mov	ch,cl
	neg	dl
	or	esi,ebx
	mov	edx,ebx
	sbb	cl,79
	xor	edx,eax
	or	ch,cl
	inc	esi
	add	bh,57
	dec	ecx
	jz	0040269B

l00402EFB:
	push	ebx
	pop	ebx
	jnz	0040269B

l00402F03:
	shl	[eax+C12B65EA],cl

fn00402F07()
	sub	eax,ecx
	add	bh,ah
	inc	bh
	mov	eax,esi
	inc	dl
	add	ebx,ecx
	js	00402D51

fn00402F19()
	lea	di,[edi]
	repne	
	jns	00402D51
	or	eax,0A98A95E
	push	ss
	adc	al,00
	add	[eax],al
	add	[eax],al
	add	[eax],al
	add	[eax],al
	add	[eax],al
	add	[eax],al
	add	[eax],al
	add	[eax],al
	add	[eax],al
	add	[eax],al
	add	[eax],al
	add	[eax],al
	add	[eax],al
	add	[eax],al
	add	[eax],al
	add	[eax],al
	add	[eax],al
	add	[eax],al
	add	[eax],al
	add	[eax],al
	add	[eax],al
	add	[eax],al
	add	[eax],al
	add	[eax],al
	add	[eax],al
	add	[eax],al
	add	[eax],al
	add	[eax],al
	add	[eax],al
	add	[eax],al
	add	[eax],al
	add	[eax],al
	add	[eax],al
	add	[eax],al
	add	[eax],al
	add	[eax],al
	add	[eax],al
	add	[eax],al
	add	[eax],al
	add	[eax],al
	add	[eax],al
	add	[eax],al
	add	[eax],al
	add	[eax],al
	add	[eax],al
	add	[eax],al
	add	[eax],al
	add	[eax],al
	add	[eax],al
	add	[eax],al
	add	[eax],al
	add	[eax],al
	add	[eax],al
	add	[eax],al
	add	[eax],al
	add	[eax],al
	add	[eax],al
	add	[eax],al
	add	[eax],al
	add	[eax],al
	add	[eax],al
	add	[eax],al
	add	[eax],al
	add	[eax],al
	add	[eax],al
	add	[eax],al
	add	[eax],al
	add	[eax],al
	add	[eax],al
	add	[eax],al
	add	[eax],al
	add	[eax],al
	add	[eax],al
	add	[eax],al
	add	[eax],al
	add	[eax],al
	add	[eax],al
	add	[eax],al
	add	[eax],al
	add	[eax],al
	add	[eax],al
	add	[eax],al
	add	[eax],al
	add	[eax],al
	add	[eax],al
	add	[eax],al
	add	[eax],al
	add	[eax],al
	add	[eax],al
	add	[eax],al
	add	[eax],al
	add	[eax],al
	add	[eax],al
	add	[eax],al
	add	[eax],al
	add	[eax],al
	add	[eax],al
	add	[eax],al
	add	[eax],al
	add	[eax],al
	add	[eax],al
	add	[eax],al
	add	[eax],al
	add	[eax],al
	add	[eax],al
	add	[eax],al
	add	[ecx+3F],bl
00403000 59 3F 49 00 13 66 00 93 10 CA E6 FF 99 9C 92 FF Y?I..f..........
00403010 00 F8 C5 B1 BA 1B 5F 80 5F 2E 00 73 27 00 20 3B ......_._..s'. ;
00403020 FC 23 A6 85 AD CB FA 07 8D 1D C8 3F DF FC 64 27 .#.........?..d'
00403030 7C 24 6A 00 52 00 38 28 E7 6D 26 D8 E2 75 FF 44 |$j.R.8(.m&..u.D
00403040 28 FB 00 00 00 C1 5E 97 28 A0 AB 1D 00 C9 10 5A (.....^.(......Z
00403050 00 4A 46 2D FD 2F 00 03 00 1D 01 24 02 CA FF 00 .JF-./.....$....
00403060 00 C9 D9 00 EA E3 20 C7 76 B1 37 FF 1A 16 15 44 ...... .v.7....D
00403070 FC EA FB D6 20 40 0F BF 00 E4 86 51 28 C3 83 B2 .... @.....Q(...
00403080 83 54 00 00 C3 AF 00 41 36 B4 F3 BB 00 BC 00 AF .T.....A6.......
00403090 AC 06 13 1C 4E 08 C7 00 55 B9 00 A4 00 FD D9 66 ....N...U......f
004030A0 00 FF 9B 00 00 EB 87 AF 5B 64 00 D5 03 D7 20 17 ........[d.... .
004030B0 F0 05 83 53 62 2C 0A 8B F2 A8 CD 93 0B 08 9F BD ...Sb,..........
004030C0 23 03 F1 C5 AA 12 00 00 C4 FF 1B BE C1 20 95 00 #............ ..
004030D0 DB 0D 00 0C 5E 3F 1B 00 00 AF B0 0F 00 00 FC 7B ....^?.........{
004030E0 00 40 7B 2D 83 8B 4C 00 FF EE 68 96 DB 38 00 00 .@{-..L...h..8..
004030F0 00 D8 70 4B 96 54 FF CD 33 86 F3 8D 80 FF 00 96 ..pK.T..3.......
00403100 00 58 64 69 C0 8B 2B 00 41 00 C1 6D F3 43 0C BF .Xdi..+.A..m.C..
00403110 68 3A C3 63 B9 C3 4C C5 75 00 08 00 15 80 2E 00 h:.c..L.u.......
00403120 B3 06 7E 02 0C FF B6 64 DC 8B 72 05 6C 83 00 DB ..~....d..r.l...
00403130 2F 99 00 46 79 F8 FF FF 00 5A 46 BF 79 4E E7 08 /..Fy....ZF.yN..
00403140 70 04 13 D5 0B 47 0F 2B 31 31 63 DB BF 20 FE 37 p....G.+11c.. .7
00403150 F1 00 5D F9 00 00 56 00 89 68 EE 03 32 74 97 00 ..]...V..h..2t..
00403160 5B E2 85 62 37 B8 9D F2 29 36 9D 07 00 BB D3 A7 [..b7...)6......
00403170 2D 9E A8 B1 A2 5B 9E 87 37 6F 00 00 60 1D A8 AE -....[..7o..`...
00403180 09 A7 DF F2 B2 39 FF 90 04 85 C0 C2 00 F4 38 7C .....9........8|
00403190 D8 BA DF 87 00 E6 00 14 A2 78 BE EF AD B1 53 50 .........x....SP
004031A0 A5 90 39 DB 00 4D F1 F5 91 E4 43 FF 1A 09 61 6C ..9..M....C...al
004031B0 84 00 00 A2 00 FF 49 AF 10 A9 01 00 AC B8 1B FB ......I.........
004031C0 1B 01 FF DB C3 B3 45 05 30 00 FF 1E 89 CF 7D C9 ......E.0.....}.
004031D0 0E 00 AA 00 80 82 52 F5 14 07 08 F0 67 7D 75 79 ......R.....g}uy
004031E0 4F 12 D1 5A 00 3C 60 04 08 C4 B9 AB 29 16 31 D8 O..Z.<`.....).1.
004031F0 00 3D E8 86 25 CE 00 92 6F A6 1A CD 31 B5 BE F1 .=..%...o...1...
00403200 8C 41 AB 1E 61 1F 64 8F B4 01 00 88 09 66 92 7F .A..a.d......f..
00403210 19 39 93 47 0E 24 16 00 0C 78 39 00 AE FB 40 53 .9.G.$...x9...@S
00403220 00 F3 54 3A F1 AE 00 FF 3D 90 80 00 0E E3 5B 00 ..T:....=.....[.
00403230 00 D2 48 28 CD 70 3A 49 29 10 00 8F 0B C7 F3 BB ..H(.p:I).......
00403240 64 53 B2 BB 87 3A 12 BB 99 82 31 00 1A FF A0 14 dS...:....1.....
00403250 D5 2F C2 59 FF 25 6A 13 4F 00 73 BF AA 02 92 00 ./.Y.%j.O.s.....
00403260 48 FF 08 B1 8A 7E 33 8D 5A 8C 5D FF 00 52 76 FF H....~3.Z.]..Rv.
00403270 48 00 4E C4 B6 FF 39 4B 00 D6 00 00 36 FA FF 99 H.N...9K....6...
00403280 EB 58 43 E6 01 A6 00 00 84 07 61 FF 2C A2 D5 EB .XC.......a.,...
00403290 4A 87 E5 00 FA C1 00 D4 B5 64 17 E2 B0 38 87 FF J........d...8..
004032A0 00 00 E9 21 1B 75 9C AF 20 B3 FF E6 00 41 D5 FF ...!.u.. ....A..
004032B0 00 EF 33 C0 B0 94 F8 C1 E9 16 96 9D BD 10 F0 17 ..3.............
004032C0 7A FF 00 01 9B A0 00 00 65 1F F1 0F 54 C5 6F AB z.......e...T.o.
004032D0 FB 75 F4 89 E7 97 B6 00 18 A1 3B A6 FF AA 0B 00 .u........;.....
004032E0 FF 76 AE 00 00 00 BB 4B BA B6 00 00 C4 18 92 6F .v.....K.......o
004032F0 0E 40 9F F2 28 50 9A 73 53 41 FF D5 1F 0E 60 48 .@..(P.sSA....`H
00403300 E3 8E 1E B8 DC 84 E8 00 2A 4F FF A5 00 27 44 11 ........*O...'D.
00403310 60 C7 A1 FD 0B C3 32 C2 E0 7D 87 C7 ED 12 47 67 `.....2..}....Gg
00403320 FF FD 19 7D B3 FF 0C CF B8 37 D0 D9 26 10 7D 6C ...}.....7..&.}l
00403330 8E 89 53 EC F7 2F 53 F5 A8 71 DE FC 37 EF 87 FF ..S../S..q..7...
00403340 FF 58 FF 53 99 75 90 3F 87 3F C4 88 F8 48 28 31 .X.S.u.?.?...H(1
00403350 1F 3B A2 0C 30 42 22 E2 FA 70 00 83 40 00 93 05 .;..0B"..p..@...
00403360 95 77 DE 6B 4F B0 68 00 56 08 A5 2A 11 C3 57 00 .w.kO.h.V..*..W.
00403370 1B E5 C1 96 F0 B1 00 1D 92 1C F7 D3 88 AC 80 47 ...............G
00403380 6F 00 61 2F A6 1D 56 0E FE E6 3D 00 0D AB D1 1E o.a/..V...=.....
00403390 0F 3C 17 6F 00 23 02 00 3D 3A 5A 00 E7 E3 61 1E .<.o.#..=:Z...a.
004033A0 D3 C4 18 97 3F 4E 58 70 2D 49 35 E1 F4 F3 85 30 ....?NXp-I5....0
004033B0 00 C0 E9 71 3C 4E B0 00 4F DC 24 CA 3B 15 1C 8C ...q<N..O.$.;...
004033C0 B6 23 87 0D B5 37 00 7D F7 0C 8B 92 00 ED 71 BF .#...7.}......q.
004033D0 FF F4 02 D8 00 D1 82 89 00 C3 88 15 47 AC 00 39 ............G..9
004033E0 CF 58 6C 8D 0D C6 3A 76 EF FF 00 00 0E 00 C4 2A .Xl...:v.......*
004033F0 23 5D DF 10 9F C5 CE 00 17 58 00 86 00 B4 1D A7 #].......X......
00403400 00 7F 81 03 6B 00 05 F7 C6 C2 E4 59 C0 47 5C 32 ....k......Y.G\2
00403410 5F 8A E8 01 C3 C5 B5 2C E1 F6 C7 72 74 14 E5 05 _......,...rt...
00403420 8B 00 26 E1 8A 8C F2 B6 49 00 2D 3B D3 95 BB DA ..&.....I.-;....
00403430 7F EE BF 3D 61 00 00 12 83 87 23 7C 59 87 8C 0F ...=a.....#|Y...
00403440 23 65 D1 E5 D9 E3 30 C5 13 A6 55 FF 00 80 BE 19 #e....0...U.....
00403450 00 6B 2B 38 61 00 00 1D 4C FD 85 C3 BF 00 00 C3 .k+8a...L.......
00403460 3A F9 FB 19 93 2F 09 39 05 E2 7E EE FA 90 00 FF :..../.9..~.....
00403470 00 C3 8A 74 78 FD 74 70 2F FD 00 03 CE 5D 09 60 ...tx.tp/....].`
00403480 00 3C 3A 10 F6 AD 2D 00 91 B4 4E 28 26 08 00 B1 .<:...-...N(&...
00403490 4C 84 05 5A 1E E7 17 0A C4 75 28 CB BF B3 24 FF L..Z.....u(...$.
004034A0 A3 0B 19 78 A3 50 75 00 12 C3 CE FE E5 1F 54 7D ...x.Pu.......T}
004034B0 D1 00 5B 8C 12 00 B2 FF DA 9E B6 F0 10 00 E1 F3 ..[.............
004034C0 70 7D 8E 6A C6 FF 7F 4F E1 66 F3 E6 B0 B1 6F C6 p}.j...O.f....o.
004034D0 E6 BB EC 5A 28 80 6D 91 84 08 87 3A 14 41 02 00 ...Z(.m....:.A..
004034E0 20 93 F6 03 EC 06 12 00 DE 1A 48 C0 00 96 5B 84  .........H...[.
004034F0 60 80 E6 00 00 0B FF B1 E3 1E 99 53 2E C5 00 22 `..........S..."
00403500 71 00 EC F0 CB FF D9 06 CC DC 15 F1 B2 40 00 25 q............@.%
00403510 76 49 29 9B 2E 00 52 A6 D3 9D C2 60 7F 68 CD 36 vI)...R....`.h.6
00403520 02 42 54 B0 0D D4 B7 AF A8 FD DC 1C A5 23 53 C7 .BT..........#S.
00403530 45 3A 00 42 4D 79 B7 45 02 00 D1 E1 A8 38 B1 00 E:.BMy.E.....8..
00403540 4B 41 B9 00 6C 6D 00 11 19 F4 10 87 FC 13 00 0A KA..lm..........
00403550 09 8B 34 AA 9F 0F 93 47 7C 56 BC 39 FF 00 60 35 ..4....G|V.9..`5
00403560 00 02 24 3D CC AE 1C CF 00 0E 58 D6 C0 24 FF 40 ..$=......X..$.@
00403570 D9 87 D1 00 E8 D0 E5 FF C0 D2 B3 62 00 00 D5 E4 ...........b....
00403580 7C 71 FB 97 0D 58 9C 57 0D 9F C8 15 98 DF C5 8A |q...X.W........
00403590 0F E9 8B FF FF 01 B1 FF 60 3E 52 FF D9 AB 00 CC ........`>R.....
004035A0 18 00 63 BB F2 6F FF C3 A2 7B B5 C3 E4 9F 00 00 ..c..o...{......
004035B0 BD 00 00 B1 04 C0 2C 62 FE FF 98 9D BB 00 1C 27 ......,b.......'
004035C0 B7 DD 4A 03 FD 18 40 1E 75 B2 7A 38 B9 04 CD B8 ..J...@.u.z8....
004035D0 B9 C2 5F 8D 9E 18 15 B9 47 00 00 19 C6 2C FF 00 .._.....G....,..
004035E0 E2 95 00 72 78 FF FD C4 00 FF 3F C3 EC DB 81 57 ...rx.....?....W
004035F0 08 27 18 E6 4E ED CB 7C DF E4 00 AE C5 1A 42 C6 .'..N..|......B.
00403600 D2 23 00 61 A6 C8 00 2B EA 3A 3E 46 26 00 C8 00 .#.a...+.:>F&...
00403610 7F 00 BE D4 24 AB 73 CD E0 44 00 74 FB 0D 83 89 ....$.s..D.t....
00403620 82 FC A5 F8 BA 35 03 08 00 C0 3C 07 13 0F 24 69 .....5....<...$i
00403630 45 EE F2 80 00 20 31 36 FF 85 4E EA 7E 03 F2 C7 E.... 16..N.~...
00403640 FF DD FF 20 CF 00 75 FF 0E 72 D1 29 8F 04 C5 83 ... ..u..r.)....
00403650 1C E5 18 E4 00 9D CD 87 D6 FF 12 FF 47 12 75 87 ............G.u.
00403660 00 04 FF BF 00 00 E0 0A 0F 41 00 00 FC D8 37 99 .........A....7.
00403670 7E 2B 08 04 CD 84 4C 00 60 D8 AA FA CB F8 90 7B ~+....L.`......{
00403680 81 5E 60 00 FA D9 32 DF E0 2A 8A 58 69 9A A2 40 .^`...2..*.Xi..@
00403690 60 60 E8 E1 5D 27 C9 00 93 00 83 FD D1 C7 06 B6 ``..]'..........
004036A0 63 5C C5 FF 68 AD 1D B0 19 FF 89 A5 32 BB 54 00 c\..h.......2.T.
004036B0 5A FB 11 BB 4D 27 13 E0 E9 81 9B 17 20 02 82 28 Z...M'...... ..(
004036C0 54 55 19 FF 7A 84 F8 E8 E8 69 00 A3 1A C8 D8 1A TU..z....i......
004036D0 85 1F 2C 45 1E B6 2C 00 F9 9D F1 EE 0E 8B B6 DB ..,E..,.........
004036E0 10 A4 FF 0D 00 60 0D 1C FF 80 8B DD 9C 39 FF FD .....`.......9..
004036F0 D6 00 B0 C2 48 07 08 B5 9D 83 26 0E 5C 21 D3 01 ....H.....&.\!..
00403700 40 C5 FF 00 88 47 38 D5 00 5E 4F 2F 00 21 E2 F8 @....G8..^O/.!..
00403710 FF B9 D3 8B 32 52 47 8C 00 8E 7E DF 17 5C 65 00 ....2RG...~..\e.
00403720 34 56 83 02 FF FE 54 36 0E 50 F0 00 2D 76 F6 00 4V....T6.P..-v..
00403730 58 2E 47 63 8A 85 1D 15 85 97 05 72 DC B3 92 B7 X.Gc.......r....
00403740 B3 43 8C 08 0D 95 00 0D 2B 54 27 BD 2F 20 68 2A .C......+T'./ h*
00403750 ED 00 D5 DE F5 3F B0 1C 56 D7 F1 F1 4C C1 24 D9 .....?..V...L.$.
00403760 01 01 00 87 80 00 E1 D9 8C E0 F4 35 5D FF C9 E1 ...........5]...
00403770 52 EF BF BE 30 B7 A9 00 1B 26 6D 4B 3A 93 52 4B R...0....&mK:.RK
00403780 2B B7 38 7C 11 17 8C EC E2 D2 90 99 4A E7 00 00 +.8|........J...
00403790 12 00 97 FF B1 E1 F0 5B 37 87 D4 49 00 F2 86 98 .......[7..I....
004037A0 00 D0 3B 00 96 00 60 1E 87 2C D3 8B 50 D5 94 7B ..;...`..,..P..{
004037B0 00 58 0A 4C 00 BF 25 FF 11 3D 00 FB 87 A7 09 28 .X.L..%..=.....(
004037C0 93 58 5C AD 8A 12 8D 00 0C 68 5A FF 32 87 94 03 .X\......hZ.2...
004037D0 AB 62 00 06 04 E4 00 03 89 85 00 81 9C 6A 00 9E .b...........j..
004037E0 FD 56 FF 80 00 A2 08 00 08 3B FD 22 98 B7 ED 70 .V.......;."...p
004037F0 3F 3C FC 00 15 50 00 18 C7 D2 77 DF 00 FF A4 B9 ?<...P....w.....
00403800 00 01 E1 0C F7 90 FF 08 FF 03 FF 11 00 F2 00 4A ...............J
00403810 00 07 23 FA 34 FF 61 36 B5 2A 10 84 59 30 8C DF ..#.4.a6.*..Y0..
00403820 00 A2 B1 31 46 29 11 21 00 C2 FF C6 00 00 23 C3 ...1F).!......#.
00403830 8D 03 AB 3C E5 FC 2B 00 F7 01 A3 72 58 9C 2C 7F ...<..+....rX.,.
00403840 00 29 00 D3 D1 C6 A5 41 AB 60 11 CD 1B DF 63 36 .).....A.`....c6
00403850 A5 9F DB FF DC C2 FF 7E 60 00 BD CC B7 37 00 05 .......~`....7..
00403860 3C 9C 72 B5 2C F2 4F 19 00 AC FB 99 CE 46 00 3D <.r.,.O......F.=
00403870 FF 90 56 00 64 D2 5D 56 B9 2B 2B E9 50 60 D0 32 ..V.d.]V.++.P`.2
00403880 F4 50 00 1C 93 9F FF EE 63 4A C3 00 68 CA 00 00 .P......cJ..h...
00403890 26 00 9C 11 81 48 00 AC F4 4A 96 83 84 24 41 E2 &....H...J...$A.
004038A0 C6 B1 07 C6 B7 E4 DB B9 DD C8 00 E0 6A 6A BD 85 ............jj..
004038B0 09 9D 75 62 55 AF EA 0A E0 DB 13 68 00 8F 04 E2 ..ubU......h....
004038C0 F0 E4 FD C5 F0 95 3D B1 67 97 FF 14 CF FF ED 83 ......=.g.......
004038D0 33 0C 01 0E 64 1E 8B 00 98 89 73 25 E2 1F F1 00 3...d.....s%....
004038E0 95 00 53 C0 43 BF 54 C4 F9 88 76 7B 3E D0 E0 BA ..S.C.T...v{>...
004038F0 02 69 01 93 BD 31 F7 B8 27 78 EF C2 00 00 C0 00 .i...1..'x......
00403900 FF 0D 7C C2 06 C4 E3 DA FD C0 31 00 81 BF 9F 01 ..|.......1.....
00403910 7E E1 00 22 3D 0F 21 98 AF 00 A7 00 00 14 A8 74 ~.."=.!........t
00403920 2A 60 00 56 21 CC 28 A9 D2 C3 00 08 A1 0B E7 4D *`.V!.(........M
00403930 FF 2C 04 64 BA B1 B0 E0 3A B5 F5 D5 F8 B9 3A D1 .,.d....:.....:.
00403940 07 15 D7 EE CC 04 7D E1 C2 F2 42 12 C8 03 FF CC ......}...B.....
00403950 DA 69 05 CF 80 1C 80 00 72 D8 94 AF 13 FD 2C 9B .i......r.....,.
00403960 32 01 B1 CE 11 00 0E E9 54 00 F5 03 21 EE 86 DA 2.......T...!...
00403970 1A BE 88 7E 00 F0 CA CD 8A 24 93 5A 2B 6D 8C 67 ...~.....$.Z+m.g
00403980 B2 00 C6 51 4B EF 51 74 8E 5D C4 E6 FD C1 7C FF ...QK.Qt.]....|.
00403990 3A CD 37 FF EA 0F 55 E5 1F F8 28 22 95 12 67 A2 :.7...U...("..g.
004039A0 62 A0 E6 2E 00 A6 2B DF FF 00 E7 00 03 65 A1 8D b.....+......e..
004039B0 C6 00 37 94 51 06 9A 54 38 76 35 27 D7 85 3C 19 ..7.Q..T8v5'..<.
004039C0 FF BE A7 5E 24 7C E1 21 F5 BE B9 2F FF 9D 78 00 ...^$|.!.../..x.
004039D0 D3 F1 5B E8 00 96 F0 5D D1 E6 00 D9 F3 70 DC FD ..[....].....p..
004039E0 D4 54 60 07 08 FC 41 1B D5 B2 00 42 8B D3 53 1F .T`...A....B..S.
004039F0 FC FD 6A 90 54 9D 2A FF 8D 74 00 3C 6B 9C 40 08 ..j.T.*..t.<k.@.
00403A00 B1 DA 10 50 91 D7 FF 53 1C 8E FF 6C B5 00 75 2B ...P...S...l..u+
00403A10 52 01 3F 1B 12 DB FE 78 E3 FF 80 99 10 ED 47 4B R.?....x......GK
00403A20 00 75 A1 50 75 C1 38 00 6C 00 0C 00 00 00 0B 00 .u.Pu.8.l.......
00403A30 02 2C 93 7B EA 00 C5 00 89 E5 A3 A0 27 D6 40 3B .,.{........'.@;
00403A40 5A E6 FF B9 C9 BB C5 EF 07 D3 00 FF 8C 01 EA 2E Z...............
00403A50 A5 14 D1 78 02 85 F3 00 AA 1B 45 00 00 A6 3B D9 ...x......E...;.
00403A60 FB CE 5B BC 45 AE 54 37 00 57 BD F6 22 00 E5 E3 ..[.E.T7.W.."...
00403A70 00 E2 34 0B 2B 87 18 8E C7 7E 49 3E 8A D9 22 04 ..4.+....~I>..".
00403A80 28 DD 00 2D A4 1B 76 4C 58 31 00 89 D7 20 BB CE (..-..vLX1... ..
00403A90 4C 82 3E 00 00 FF 10 EC 00 11 9F 68 60 3E 9A CE L.>........h`>..
00403AA0 54 00 00 45 99 E4 03 E5 54 C7 EF 00 32 98 8F 5C T..E....T...2..\
00403AB0 CF 22 01 82 9F 00 00 CF BF 50 02 00 01 FF 35 86 .".......P....5.
00403AC0 13 00 54 00 B3 DE 00 C1 D0 DD 52 00 EF 8D 9F 27 ..T.......R....'
00403AD0 00 59 0A 7B 00 E2 41 DD ED 97 3F CA 01 D8 DF 6E .Y.{..A...?....n
00403AE0 08 00 47 8F 45 E3 01 64 73 FF 00 00 00 25 00 66 ..G.E..ds....%.f
00403AF0 00 2F 56 C3 CD 00 22 34 F5 F4 2F A1 42 40 B1 BE ./V..."4../.B@..
00403B00 EF B9 1E 77 00 C0 C3 AC 6D F0 58 BC 2E 2D 93 80 ...w....m.X..-..
00403B10 FF F0 A7 E4 FF 00 00 00 0C 92 63 10 0A 71 3F 0F ..........c..q?.
00403B20 26 9D 3D 0C 4E 8A 39 58 E9 7D 00 A3 9B 26 50 FF &.=.N.9X.}...&P.
00403B30 00 26 00 C3 7C 02 83 63 E2 FB 00 AD 54 3D FF BB .&..|..c....T=..
00403B40 B1 00 C9 D5 A5 D1 88 21 58 68 00 10 98 1C C0 0B .......!Xh......
00403B50 B6 FD 0F E0 7E FC 68 4C E1 DE BD C3 43 5B 06 2A ....~.hL....C[.*
00403B60 07 08 93 49 FE F2 9F 00 8E 44 75 A1 C8 F1 76 02 ...I.....Du...v.
00403B70 07 90 00 2C 74 00 87 E9 84 7C 00 93 24 97 00 20 ...,t....|..$.. 
00403B80 A0 9C 22 99 69 37 1C 10 20 1A 92 00 FF 66 C9 B9 ..".i7.. ....f..
00403B90 FD 00 7F DC C0 2E 3B 7C 38 EB D6 7B 33 EB FF FF ......;|8..{3...
00403BA0 A1 C8 F3 0A 01 BA 37 EC 53 63 80 48 78 33 1F 76 ......7.Sc.Hx3.v
00403BB0 72 01 95 1C DE A3 84 00 1E AB 64 00 67 70 F5 64 r.........d.gp.d
00403BC0 48 8B 89 D1 9D 93 33 3E 26 3E 60 38 39 4B 9C C4 H.....3>&>`89K..
00403BD0 FF 57 A5 AF 89 7F 6A 26 82 79 33 FA 63 03 F1 E8 .W....j&.y3.c...
00403BE0 F1 14 3A 99 9A 00 4E A6 91 00 00 4A 4F E0 55 00 ..:...N....JO.U.
00403BF0 E9 00 FF B7 27 D3 28 F4 57 03 AF 8F 35 FC 1C B9 ....'.(.W...5...
00403C00 27 25 00 2B 97 FF B3 1A FF FF 0D 84 F5 DD B9 41 '%.+...........A
00403C10 20 DE 02 E2 8A D9 6D 45 B1 DE 00 3F A5 E0 6C 28  .....mE...?..l(
00403C20 1D 25 28 5A FB 01 00 30 32 C7 00 70 F0 C1 1B 5F .%(Z...02..p..._
00403C30 0E B0 93 3D C9 6D 00 C1 36 54 AB 30 0A FF 32 00 ...=.m..6T.0..2.
00403C40 FF C0 26 93 B5 E6 08 FF FF 76 08 00 00 0A 5F 00 ..&......v...._.
00403C50 49 51 3B 30 24 9B 93 3A 5C 00 45 9E 00 25 FE 86 IQ;0$..:\.E..%..
00403C60 FF D0 C6 E1 60 A3 90 FF 93 7D 0F 29 00 81 0F 0B ....`....}.)....
00403C70 3A C4 FF 66 81 5B 54 0F 8A 7C 46 70 43 61 3D FF :..f.[T..|FpCa=.
00403C80 31 D7 8B 16 82 31 52 42 C7 FE 40 00 09 83 FF A5 1....1RB..@.....
00403C90 BF 17 19 B9 44 17 6F CA 00 BD D9 B7 B2 CD 11 C6 ....D.o.........
00403CA0 01 F0 25 C8 C4 A7 F1 CD 12 07 C1 06 E0 FF F7 00 ..%.............
00403CB0 00 B3 14 64 D0 DA 9E 00 00 FF BF 8C DE BC 27 F5 ...d..........'.
00403CC0 87 66 00 00 08 9C 6D 6A 48 FF 00 14 F9 B9 B6 90 .f....mjH.......
00403CD0 53 E1 60 7C F8 0C 15 FC D4 08 C6 FF 8B 30 00 B2 S.`|.........0..
00403CE0 3B DA F1 CB 00 5F 6A 5D 00 F7 F0 F9 3B 48 E6 14 ;...._j]....;H..
00403CF0 A3 B0 97 1A 00 0A F7 ED EB 1D 7E 67 50 25 EB B2 ..........~gP%..
00403D00 00 5B C2 61 47 E2 81 67 F5 1B D6 56 2F 00 7C 5C .[.aG..g...V/.|\
00403D10 5E 04 93 00 44 FF B7 9E ED 10 06 BE E9 9E BA 58 ^...D..........X
00403D20 E4 BD 02 71 D5 00 0D 3B 36 7F 17 23 C3 50 F7 A9 ...q...;6..#.P..
00403D30 F5 00 71 E6 56 01 ED FF 0B 7E 39 03 48 FF C1 B8 ..q.V....~9.H...
00403D40 23 24 B4 00 D3 06 3C 39 FF DE AC FF 8A 88 25 95 #$....<9......%.
00403D50 FF B4 A3 5A 00 FC FF EF 16 50 D1 2E 84 08 13 F8 ...Z.....P......
00403D60 00 A1 59 8E 45 00 F3 C5 09 5D 88 00 54 82 84 17 ..Y.E....]..T...
00403D70 F6 60 C6 AF 14 F4 26 4F 2B 78 F3 66 13 44 60 1D .`....&O+x.f.D`.
00403D80 4C A7 28 BC 37 00 EA 95 F2 27 C8 C8 68 9D FB 00 L.(.7....'..h...
00403D90 83 87 00 EB 94 34 00 A3 A4 6E 7E A3 AD 11 80 30 .....4...n~....0
00403DA0 2F DF 2B 11 B7 BF DF 28 C8 D4 E8 40 E0 FC 00 B9 /.+....(...@....
00403DB0 F1 00 0B 40 FF 0D 66 57 50 0E EB 9F F1 23 F3 20 ...@..fWP....#. 
00403DC0 D5 7D FF 79 00 26 00 C6 36 FF 05 2D 44 44 28 06 .}.y.&..6..-DD(.
00403DD0 22 CF 6E 9D 06 D3 39 F7 35 8F 1D 38 00 00 00 6B ".n...9.5..8...k
00403DE0 6F C7 00 C6 38 DF 9E FF CC 84 FF 81 1B DD 8A 94 o...8...........
00403DF0 8E 2E 04 4B 78 3E 77 02 95 2E 98 32 8F 2F 0D 1F ...Kx>w....2./..
00403E00 03 B0 0D FF EF 57 00 F7 00 F0 51 13 0F B0 DB B6 .....W....Q.....
00403E10 A0 78 3A 40 A6 BF C3 FF 18 C5 5D 00 BF 49 26 01 .x:@......]..I&.
00403E20 D5 00 50 99 0E EC 00 7D 58 FF 05 00 D8 13 33 FD ..P....}X.....3.
00403E30 DC E4 84 81 00 BD 3C B3 6A 18 B0 AD 01 4A F1 CE ......<.j....J..
00403E40 2E 16 5D 15 03 00 18 08 ED A1 A9 DA 38 0E 00 FF ..].........8...
00403E50 00 00 2A 13 36 AE EA 63 F8 0A 00 5F 92 50 FF 4C ..*.6..c..._.P.L
00403E60 D2 4A FF DF 3E 96 39 00 5D 82 1B 51 BD 00 70 00 .J..>.9.]..Q..p.
00403E70 D6 94 F5 13 C7 6D E4 C5 21 C1 9C 01 BF 51 24 1A .....m..!....Q$.
00403E80 1C 2B 2E 37 CB DB 00 00 A1 45 2D 00 CD FF 00 BC .+.7.....E-.....
00403E90 B9 60 6E 0D 00 FF 12 FF 14 04 24 92 0D 7A 00 4E .`n.......$..z.N
00403EA0 00 00 00 D3 B7 34 85 1A C3 FB 59 00 5E 5D 00 00 .....4....Y.^]..
00403EB0 BD C5 60 50 76 12 55 8A 27 8C 00 63 5B FA 16 0B ..`Pv.U.'..c[...
00403EC0 17 06 25 01 60 36 00 60 31 FF 8F FC 2D B1 80 00 ..%.`6.`1...-...
00403ED0 DF C7 AC 00 FF 00 D7 6F FC 86 91 D4 0C FC A9 00 .......o........
00403EE0 36 E1 00 38 9E 4E 68 E0 A1 F6 69 88 00 2D 11 1C 6..8.Nh...i..-..
00403EF0 FF 06 E8 78 00 03 00 00 87 FE 40 1E BF FF 39 A6 ...x......@...9.
00403F00 00 BB 8B C1 FF 4C D0 74 73 2E AF 1D BD B0 36 8E .....L.ts.....6.
00403F10 EF BC 5B 13 46 DE A0 00 E4 81 26 00 26 C1 26 78 ..[.F.....&.&.&x
00403F20 23 E9 FF EB DC 4E 98 CB FB 2D 37 00 60 56 44 F2 #....N...-7.`VD.
00403F30 7A 00 3B 5A E7 F5 11 12 FF FF 00 E4 F9 29 6D 00 z.;Z.........)m.
00403F40 2D A7 AD 05 00 9F 27 B3 ED FF E4 5C 00 E5 81 00 -.....'....\....
00403F50 D4 20 13 A9 50 D9 5B D1 52 E6 45 00 4D 0E C0 9C . ..P.[.R.E.M...
00403F60 21 03 6C 00 E4 5B 84 07 50 EE 13 F1 A3 BF 3D 00 !.l..[..P.....=.
00403F70 DE D7 5A FF A4 2F 5B AC B1 00 A8 43 00 87 7B 7E ..Z../[....C..{~
00403F80 E0 C0 00 83 5E EC B6 00 74 86 00 17 1B 0C 7C FF ....^...t.....|.
00403F90 EB AE 16 5C 00 58 5C 00 CF 48 CC 05 00 82 2B 30 ...\.X\..H....+0
00403FA0 D9 FD C0 25 DF D3 5B F9 5F 40 E2 6C 00 C3 01 1C ...%..[._@.l....
00403FB0 34 87 65 69 00 87 C5 90 00 7E 3D 7E 45 25 60 9E 4.ei.....~=~E%`.
00403FC0 89 F5 46 B7 FF BD 06 01 8B 9E 1F 91 03 C7 C0 77 ..F............w
00403FD0 00 9C B1 23 A5 00 FF 00 9B 17 72 87 5A B1 1F A3 ...#......r.Z...
00403FE0 B8 00 EF 10 90 41 23 6C 66 00 B0 43 36 D6 78 E0 .....A#lf..C6.x.
00403FF0 00 26 98 54 C4 00 67 A7 44 E4 12 BC 28 02 E4 69 .&.T..g.D...(..i
00404000 1C 6B A7 00 E7 08 00 8F B7 4A 8D 1B 15 08 00 72 .k.......J.....r
00404010 D0 81 00 D0 B0 FF A0 81 00 BD A2 93 27 0F 28 B2 ............'.(.
00404020 00 D3 3B E9 0A 57 09 4B 5C 4E 3B 00 00 10 C0 0E ..;..W.K\N;.....
00404030 34 6D 4E F4 94 B3 4D 94 CF F0 FA FD 20 20 A1 21 4mN...M.....  .!
00404040 4B C6 85 61 3F 31 8C D8 B9 D0 B1 0E 33 0B C8 CC K..a?1......3...
00404050 46 FF 00 39 D4 1B 36 AA 47 A9 E4 E5 F8 00 CF CA F..9..6.G.......
00404060 07 88 D4 79 00 0F E2 E1 65 47 17 A3 F1 1E 48 46 ...y....eG....HF
00404070 03 8F 23 00 00 32 E6 A4 93 80 12 0F D0 1D C4 00 ..#..2..........
00404080 FF 37 58 A3 C1 6F 76 86 F3 5D 82 08 E8 B4 FA 11 .7X..ov..]......
00404090 A9 D7 7E 06 47 00 4E D8 E0 4F 06 F6 5B 6C 6B 50 ..~.G.N..O..[lkP
004040A0 89 E3 F8 AF 2C EF 89 15 00 D9 99 14 84 F9 83 13 ....,...........
004040B0 23 6F C7 00 85 DB 1A 15 FF 16 60 60 5E 4D 98 81 #o........``^M..
004040C0 54 7D C2 91 D6 48 3D 19 81 1B 71 FB 3A 33 4F DA T}...H=...q.:3O.
004040D0 B0 E5 00 3A A5 E5 C3 CA 14 4E FB 50 E3 00 4B 5C ...:.....N.P..K\
004040E0 BC 2C C7 63 84 FB 05 54 01 00 1E 96 CE 78 81 BE .,.c...T.....x..
004040F0 00 09 2F 00 F6 CC A3 91 F0 B5 EC CC 6A A7 32 74 ../.........j.2t
00404100 9E 9F 00 88 E0 48 17 21 5E F4 00 AF A5 78 A6 8E .....H.!^....x..
00404110 0C D2 5E BE 97 7E B2 AB FC 4F 84 CD 40 24 82 C3 ..^..~...O..@$..
00404120 DB E0 00 00 63 F9 FF 0B 00 5D 87 43 0F 40 00 90 ....c....].C.@..
00404130 29 23 34 28 4C D8 32 B8 22 3B EF 47 00 00 00 65 )#4(L.2.";.G...e
00404140 81 6F D0 70 7C 2D 00 FD 15 3F D1 C6 98 7C 8B BC .o.p|-...?...|..
00404150 0B 00 38 C3 05 75 00 8A 23 00 C8 A0 20 A0 AD C7 ..8..u..#... ...
00404160 09 AA 84 30 96 C6 BC 1A D5 E3 2D 6E FD FE 41 FF ...0......-n..A.
00404170 4C 40 3A 49 99 00 6C DA 7B 02 BC 00 0A 35 00 00 L@:I..l.{....5..
00404180 5D 84 C4 FF 00 00 F3 7A 09 7B CD DE B6 67 7C B9 ]......z.{...g|.
00404190 63 4D 5C C4 C2 00 DC 0E 23 FF 00 A9 E3 11 D8 2B cM\.....#......+
004041A0 00 0B 6B 6E 0E 41 8F 83 9A FF 86 33 80 3C FF 63 ..kn.A.....3.<.c
004041B0 79 FD FF 00 91 E1 58 5F 00 7E 47 FF FF 19 7B D4 y.....X_.~G...{.
004041C0 08 1B 53 41 B7 7E 7E 00 E5 D1 D0 F4 5B 9B C0 02 ..SA.~~.....[...
004041D0 CA 7A 57 2B F8 E6 ED B6 C1 00 00 FE 78 64 FF 01 .zW+........xd..
004041E0 73 8D 08 28 49 58 9F AB 10 E9 E7 E7 38 46 70 C7 s..(IX......8Fp.
004041F0 B9 88 F4 C8 4F D7 40 FF A7 C2 78 4A 94 00 16 A9 ....O.@...xJ....
00404200 40 6F 31 F6 AE 00 B1 E5 1D A5 04 F5 00 04 24 D7 @o1...........$.
00404210 68 86 AB CD 00 1A B8 42 00 9F 4A 26 A3 00 4F 7F h......B..J&..O.
00404220 FF A8 DC 91 54 E3 71 B8 76 49 B7 20 BD DE 66 19 ....T.q.vI. ..f.
00404230 FF DC 33 D1 BA 14 4C 55 21 A0 E6 2C A9 7E 0F 6D ..3...LU!..,.~.m
00404240 00 44 7C 3F BE F0 7B 21 06 08 C2 30 27 9A EB 0C .D|?..{!...0'...
00404250 2A 41 00 6C 00 00 B6 61 9A 1D FF 7F 05 6B CF 1B *A.l...a.....k..
00404260 69 32 6E D0 E7 F9 7B DB 6C BF EE 58 27 FF D4 FF i2n...{.l..X'...
00404270 AB F2 E9 20 CC 00 50 00 00 97 33 35 08 00 5C 62 ... ..P...35..\b
00404280 F0 DC 89 E8 08 11 93 00 C0 CA A1 36 CE 00 5C F4 ...........6..\.
00404290 4D 58 C6 6F 7A FC 68 FF B8 41 6E 10 F9 C5 00 BC MX.oz.h..An.....
004042A0 E6 83 82 0A 70 35 00 00 3E 00 FF 26 2A 8B 00 62 ....p5..>..&*..b
004042B0 F0 86 A4 BE 3A 2B 78 7F 7B 00 3A 9A C6 B1 00 44 ....:+x.{.:....D
004042C0 B7 09 7F 0F 46 00 56 9B FB B7 E7 2D 0D 7C B0 20 ....F.V....-.|. 
004042D0 6F A7 8D C3 FD 4E 8C D2 F7 66 1B E3 75 3B 2B 5E o....N...f..u;+^
004042E0 90 88 00 B7 80 EF C0 2F 23 E1 71 BF 00 F9 54 A9 ......./#.q...T.
004042F0 DF 5E BF BE A0 7F 00 00 6A 45 CA 00 ED 03 C4 4F .^......jE.....O
00404300 00 28 59 7E FC FC EE C9 2F 73 AB C7 4B 00 5D EE .(Y~..../s..K.].
00404310 40 DB E2 FF C2 FB 00 9C 83 B1 DE 22 00 3C FF 5C @..........".<.\
00404320 DE E6 CE 5D 00 0A 5C 11 6B 68 99 F0 68 4B 16 FF ...]..\.kh..hK..
00404330 64 64 40 FF B5 21 FF 3B 00 41 CE DE 49 00 45 A2 dd@..!.;.A..I.E.
00404340 15 82 B2 00 FF A4 A5 F4 00 00 B8 F5 5E FF 7D 28 ............^.}(
00404350 28 02 11 28 05 5F 3F 63 8B C2 2F A9 FF E7 1C D0 (..(._?c../.....
00404360 DB EB 1E 88 5A 6F 10 E1 9A F3 69 00 F3 00 64 7B ....Zo....i...d{
00404370 05 D7 0F FF 53 C2 00 00 57 6E 2F 28 80 A2 05 1E ....S...Wn/(....
00404380 FF 00 32 FC BF 00 E8 E7 00 50 F8 00 00 00 A7 C7 ..2......P......
00404390 BB 14 00 49 C3 24 00 FF FF 21 AA FF 03 38 79 D0 ...I.$...!...8y.
004043A0 F4 00 53 BE 09 61 FF 20 1B 7B 5E CF 6B BD 0C 2E ..S..a. .{^.k...
004043B0 78 E6 F8 E7 27 37 FF 60 00 00 93 67 00 E9 58 BB x...'7.`...g..X.
004043C0 8F 43 1F C9 94 06 08 61 00 00 5E EF AA 6F C5 A0 .C.....a..^..o..
004043D0 F3 00 60 B3 6F E8 E2 00 00 4F 3A 00 97 A7 00 D2 ..`.o....O:.....
004043E0 EB 7B A9 93 9D 01 A5 00 1D 7B 46 28 D6 54 FC 1F .{.......{F(.T..
004043F0 74 03 00 A9 5E 21 48 60 01 96 00 4A B8 54 41 00 t...^!H`...J.TA.
00404400 F8 98 00 30 60 9C CF 8D A1 32 4F 92 68 16 AA FC ...0`....2O.h...
00404410 30 6C D1 FF CE 00 6E BA B4 3C A4 10 00 02 3E 0F 0l....n..<....>.
00404420 2C D6 6A 21 00 01 FF 22 00 C0 B8 A9 FF 65 D9 EB ,.j!...".....e..
00404430 96 0D 0C 80 8E 3F 2A 71 FF E6 0C 57 FF 51 F7 53 .....?*q...W.Q.S
00404440 08 18 E8 88 4C 60 3D 00 0F 80 9F 85 66 FF EB CE ....L`=.....f...
00404450 3C FF 4D 00 68 EE 5D 31 1A 7D 14 C9 FC BD A1 26 <.M.h.]1.}.....&
00404460 C3 42 DB D2 DF 2C 6A 17 91 CF EF 69 B6 C3 B1 01 .B...,j....i....
00404470 F1 14 00 E7 04 F6 04 A1 00 00 51 F3 B4 CE 00 8F ..........Q.....
00404480 33 00 8D 98 00 00 00 49 88 5C 93 82 18 29 BB 8E 3......I.\...)..
00404490 B4 BF 00 0A 00 DB C1 AB 8E D9 80 E2 EA A1 C7 00 ................
004044A0 59 49 DF 10 61 4C 88 DE 90 4B 00 B3 DE E3 D9 C0 YI..aL...K......
004044B0 A6 7F 73 38 06 00 C6 41 9B 76 00 FF 80 D5 17 DB ..s8...A.v......
004044C0 2B CD D3 86 20 55 78 90 22 80 FB 90 63 DF C2 97 +... Ux."...c...
004044D0 D7 8E 77 9D FF 06 FF 83 77 90 CD 00 EA AB 9D FF ..w.....w.......
004044E0 0B A0 DC CD 39 1A 47 49 3C 49 E3 20 00 B0 88 44 ....9.GI<I. ...D
004044F0 07 00 C1 42 23 00 31 22 36 70 A8 63 D4 B8 BF 00 ...B#.1"6p.c....
00404500 1E FF 81 20 00 22 FF 64 FF 77 01 FF 00 3E A6 36 ... .".d.w...>.6
00404510 ED 26 24 42 98 A0 27 80 5D 0F FF 00 00 20 90 00 .&$B..'.].... ..
00404520 2A 83 92 66 FF DF A0 8D 64 AE 68 DD 83 00 A3 65 *..f....d.h....e
00404530 74 FF 31 AF 24 10 8F 81 A1 14 1B 0D 50 E2 4E 00 t.1.$.......P.N.
00404540 18 4C E1 F8 70 00 E6 4D FE DA 12 63 A7 BD D1 E7 .L..p..M...c....
00404550 00 4E 00 39 CB 6F 6F 02 00 26 00 00 F8 93 7B 54 .N.9.oo..&....{T
00404560 3E 00 DD 46 A0 BC C8 2F 89 8A 00 95 9C 5C FC 5E >..F.../.....\.^
00404570 55 68 C4 00 3C 51 FF A1 FF FF FF F1 1C 00 FF 2D Uh..<Q.........-
00404580 D2 4C D9 06 20 1D 7B 01 2C 28 01 00 50 00 43 83 .L.. .{.,(..P.C.
00404590 3C 3A 98 76 15 FF E6 A7 F3 71 FD 96 5C 94 1E D8 <:.v.....q..\...
004045A0 22 8B 9C 01 4C 8B FA E8 6E F5 DC F4 E3 B8 D0 17 "...L...n.......
004045B0 00 0D 00 AC 1E 75 19 E1 45 0F DB 00 A3 31 DA 00 .....u..E....1..
004045C0 FD B7 1F 60 95 FB FD FA 00 8D DB 0D B8 21 B3 55 ...`.........!.U
004045D0 C7 DF B0 00 D4 00 72 20 00 FF 23 67 B1 61 92 43 ......r ..#g.a.C
004045E0 83 00 F0 E3 38 FF 00 83 1D D4 64 93 FC 6B 9D 52 ....8.....d..k.R
004045F0 FF 9E 00 36 96 7F 59 FF 3C 97 35 00 47 6C 9B 00 ...6..Y.<.5.Gl..
00404600 AB 00 85 00 E8 C8 02 7F 40 2D 1C AE FD 01 F2 42 ........@-.....B
00404610 88 67 E4 40 49 40 C6 DD D7 00 00 FF 00 3B CE 00 .g.@I@.......;..
00404620 B0 00 66 15 A7 EA BE 00 05 CC DB 00 29 10 20 6E ..f.........). n
00404630 0D DF EE FB 53 69 30 27 BF FE FF 49 AC 11 00 DD ....Si0'...I....
00404640 7D C0 63 87 47 7C B8 A7 BE 5F 00 0B 4D 46 C2 28 }.c.G|..._..MF.(
00404650 00 4E F8 91 3C 15 7F 45 4E 9A 86 8F 41 BA 52 C2 .N..<..EN...A.R.
00404660 B7 94 3E 00 DF 70 00 3E E7 1C 79 62 B3 FF C1 E7 ..>..p.>..yb....
00404670 4C 76 00 F9 C7 EB 2F 00 4C 60 C3 61 87 00 9C 00 Lv..../.L`.a....
00404680 B7 E8 81 71 70 FF FF F8 FA 4A 4A BF E0 10 FD 73 ...qp....JJ....s
00404690 3A 00 00 0F F1 99 FE E9 82 73 3E 28 00 B4 D5 38 :........s>(...8
004046A0 00 00 E0 00 D0 07 B1 00 45 89 F7 00 7B 31 85 4B ........E...{1.K
004046B0 14 00 7F 9F D9 E3 55 65 95 00 35 7B E3 A2 84 83 ......Ue..5{....
004046C0 A7 A5 3E 71 24 29 00 44 44 A9 80 0C 0D 44 D8 6E ..>q$).DD....D.n
004046D0 61 FF EF F4 41 0B 1B 4C E1 20 BC B4 E0 92 F5 7F a...A..L. ......
004046E0 0B 1C 50 65 FD 00 00 E2 6C 2B 53 0E 3F 19 5E DF ..Pe....l+S.?.^.
004046F0 3C F5 47 80 00 A5 08 DA A7 00 DD 1F 6B 4B C1 FE <.G.........kK..
00404700 8C 16 01 92 79 30 D5 F0 80 00 72 00 B1 00 31 27 ....y0....r...1'
00404710 C4 4D 28 C8 D3 E6 51 00 99 DC AC 00 82 06 00 69 .M(...Q........i
00404720 C9 88 1D 00 53 2E FF 16 6A 8E 03 A3 BB FF 6F 83 ....S...j.....o.
00404730 00 BC 3D 09 96 BF 00 00 26 79 AF 00 92 39 6F 00 ..=.....&y...9o.
00404740 B2 00 B0 65 74 3E 4C 6E 29 9C D4 4E DE 0A 2C 23 ...et>Ln)..N..,#
00404750 B9 D7 54 2B 00 00 E0 86 66 11 AA FF 00 08 DE 00 ..T+....f.......
00404760 2E 9E 4F 00 00 FC 46 CA E3 00 00 00 F2 83 00 7D ..O...F........}
00404770 E7 C5 CD EA 00 38 D8 99 C8 E9 0B 7F 7B CD 00 85 .....8......{...
00404780 FF DC 00 03 16 7A 16 00 00 FF 74 04 92 10 08 5F .....z....t...._
00404790 6B 46 00 1D 00 CC CF 20 77 CD 8B 63 37 8B 00 99 kF..... w..c7...
004047A0 E1 FB EF 4E 8C 4A 02 00 0B 00 39 1C 00 07 1B A3 ...N.J....9.....
004047B0 93 93 1B FF 8A FA 0C AE B6 36 91 D7 0C E8 00 06 .........6......
004047C0 64 60 20 67 E5 00 A1 28 00 4D 6E 59 F5 98 14 50 d` g...(.MnY...P
004047D0 DA FC D2 51 6A 96 BC 83 FF 39 00 79 83 F1 63 2D ...Qj....9.y..c-
004047E0 FF A0 F8 60 C0 9B 40 6F 4B D0 84 00 FF FF 77 21 ...`..@oK.....w!
004047F0 BD 00 09 05 D9 3C CE A1 81 B9 CA 98 D5 00 8D 10 .....<..........
00404800 00 4F D6 08 A0 4C 99 76 01 00 A5 41 09 82 79 04 .O...L.v...A..y.
00404810 25 00 00 C3 49 BA 64 2E 75 DC 91 80 CE FF A5 7F %...I.d.u.......
00404820 44 24 E2 89 34 00 67 00 C1 6B 10 10 EC 15 D4 A5 D$..4.g..k......
00404830 B5 85 32 8C 01 70 BD 31 33 FF 5A F7 FF A5 64 7C ..2..p.13.Z...d|
00404840 E8 70 8F D1 00 29 FF FF 00 E4 B9 E0 FF B7 18 77 .p...).........w
00404850 20 27 72 3E 0C 47 ED 1F F6 D9 B1 21 00 4A 00 4E  'r>.G.....!.J.N
00404860 85 00 00 90 B1 B6 9B 28 BD 00 1F 3C 6B BE 18 71 .......(...<k..q
00404870 45 FB 00 F2 00 FA 0B 9F 33 4B 00 66 9B D9 DF 00 E.......3K.f....
00404880 49 87 FF 42 04 2D 91 4A 11 D2 10 BD 6E 00 18 FB I..B.-.J....n...
00404890 97 54 29 01 46 54 9E 85 52 FF 82 00 00 DB F1 F7 .T).FT..R.......
004048A0 5A C5 E0 77 5F AF 82 FF 7D BB 00 5E 04 C1 46 A1 Z..w_...}..^..F.
004048B0 1A 2C E0 28 00 F1 54 CF 6C 5C CE 31 F1 00 FF 0D .,.(..T.l\.1....
004048C0 7D FF 5C 60 B7 E5 58 22 FB A3 1B 1D B1 17 00 24 }.\`..X".......$
004048D0 00 8B 84 06 45 23 13 27 D9 40 0C 00 8E F1 2B BC ....E#.'.@....+.
004048E0 00 5A 00 ED 45 FF A4 7F F0 89 14 64 2E 02 00 15 .Z..E......d....
004048F0 00 11 3B FA 35 DA 36 1D 80 C1 85 6E 9F E9 F0 1C ..;.5.6....n....
00404900 47 1E B3 88 58 28 57 66 22 00 42 B1 3E E2 00 7B G...X(Wf".B.>..{
00404910 51 FE 76 FF B0 9F 21 DA FF 32 00 FF 99 FF A7 FF Q.v...!..2......
00404920 08 DE 41 8C A7 30 00 82 68 FF 36 D4 D7 00 80 7B ..A..0..h.6....{
00404930 9F AE 00 1E 1A DA E4 1B 35 00 6F 3F 10 E3 F6 00 ........5.o?....
00404940 95 F4 12 E3 0E 99 1E BD 0C F8 2E E7 C0 00 C6 56 ...............V
00404950 15 D8 AC 54 61 63 1C 30 FF EF 33 C8 68 6E 3B 70 ...Tac.0..3.hn;p
00404960 00 1C DC 80 96 B6 D8 8F 3A C7 1D 19 7E 3A 7D 09 ........:...~:}.
00404970 0F AE 00 15 8A 80 88 00 4E BB F2 B8 82 70 00 11 ........N....p..
00404980 C4 2A 00 6F 04 64 23 51 3E 16 D2 98 AA 51 E0 92 .*.o.d#Q>....Q..
00404990 2C FF BF FA 5D 00 AD 20 A7 7D 43 34 6B 08 10 EA ,...].. .}C4k...
004049A0 66 85 66 9B 1F AC AA 9B 54 00 92 D0 A9 A6 1B BC f.f.....T.......
004049B0 09 49 BA 95 BC 15 EB 74 62 2E 17 32 CD C6 83 1F .I.....tb..2....
004049C0 D7 E5 00 06 FF 00 F3 19 40 A3 54 D7 93 00 14 F3 ........@.T.....
004049D0 00 61 7E FE 05 44 9A 1A DC E6 F9 6F FF 33 2C C7 .a~..D.....o.3,.
004049E0 CE 2D FD 2C C8 F4 01 80 FF 15 7F 77 DB FF 00 13 .-.,.......w....
004049F0 00 28 A8 B8 70 B4 16 75 3B BE E8 C8 00 17 45 E9 .(..p..u;.....E.
00404A00 8C D8 12 64 84 FA 6C A4 30 C4 B0 12 FF F0 D9 46 ...d..l.0......F
00404A10 87 17 F1 DF 00 6F 24 BD E5 49 9C C6 A3 4B 0E B7 .....o$..I...K..
00404A20 3D 49 11 CE 30 9D AB 0D 58 64 94 3D D3 A3 97 00 =I..0...Xd.=....
00404A30 62 25 61 DC EA 06 99 0E 4B 48 7B 2B EE FD 58 D9 b%a.....KH{+..X.
00404A40 3D 9B 25 64 02 00 83 42 02 00 FE 14 5D ED E2 78 =.%d...B....]..x
00404A50 06 10 18 C2 37 30 CE 00 5B 18 00 98 43 12 FF 00 ....70..[...C...
00404A60 DF 1F 99 00 51 D2 4A 3B BD 32 C4 FF CE 18 A6 FE ....Q.J;.2......
00404A70 2D C8 00 00 41 96 70 1E 06 2C 7B 23 30 C9 00 E3 -...A.p..,{#0...
00404A80 59 33 6F 7B 7C 84 DB DF 6A 00 F4 D7 D6 18 D1 9B Y3o{|...j.......
00404A90 00 0C 71 34 26 12 3C 00 84 06 AE 88 0D EC 30 61 ..q4&.<.......0a
00404AA0 C5 0F D1 2E 3E 9C F7 BF 00 60 D4 89 A5 2B 28 08 ....>....`...+(.
00404AB0 C0 FB F3 19 80 00 FD D6 0F 18 88 F3 96 00 AE 32 ...............2
00404AC0 06 38 28 12 FF 00 C0 47 FF B3 2D DE 2C 8D 94 D3 .8(....G..-.,...
00404AD0 05 73 00 69 C5 14 87 25 00 00 80 C1 46 9D 61 B4 .s.i...%....F.a.
00404AE0 FB 7D B0 8C 00 39 68 42 33 8B 00 3E 18 00 A7 C5 .}...9hB3..>....
00404AF0 D8 8C 68 1B 40 42 1C 1A 63 16 71 29 42 02 00 0F ..h.@B..c.q)B...
00404B00 DA 0A BC 00 E6 05 D5 98 29 F8 51 1C E2 F1 00 5A ........).Q....Z
00404B10 EB EF 1F F9 7F 3E BC 3E 31 06 86 2D 73 3E 28 0E .....>.>1..-s>(.
00404B20 8E 95 00 00 E8 27 00 9C 00 00 30 8C CC 0B B0 81 .....'....0.....
00404B30 E3 D1 5E AF 1B 10 51 60 FF 9F 18 02 10 00 4A 74 ..^...Q`......Jt
00404B40 FC ED B6 AF B6 DD 78 3F AE D9 FF 00 03 7D C0 D2 ......x?.....}..
00404B50 00 2A B2 00 00 2D 79 D9 F2 2B 88 F1 17 7D 00 B3 .*...-y..+...}..
00404B60 00 0D D6 00 7F AA 8E ED CF 6A 62 CC 87 2C 83 82 .........jb..,..
00404B70 45 0E DF 43 0B 55 FA 28 00 4B 21 8E E2 34 28 36 E..C.U.(.K!..4(6
00404B80 90 D8 E8 0A 1B 31 67 56 16 5F FB 35 8C 17 D9 38 .....1gV._.5...8
00404B90 E2 32 3A 20 E0 12 00 83 C8 42 A0 E9 97 F7 17 A1 .2: .....B......
00404BA0 90 13 FF 9C 00 40 C1 D2 6D E1 23 86 BF 7C 27 3E .....@..m.#..|'>
00404BB0 7F 1A E0 81 02 F3 C9 2C 88 96 97 8E 19 60 FD 21 .......,.....`.!
00404BC0 40 FF 66 FC 00 61 64 9F 5E 73 82 1D 50 00 CD 31 @.f..ad.^s..P..1
00404BD0 40 14 A0 8D D3 7A FF 80 51 00 FF CA 84 00 00 8A @....z..Q.......
00404BE0 42 AA 52 00 03 00 F3 00 AA 1C 33 8A 26 D1 3B A3 B.R.......3.&.;.
00404BF0 D2 00 01 A2 DB 8E BC FF 5D 4D 3E DF 00 D9 0D C2 ........]M>.....
00404C00 C4 F3 CC D5 68 25 00 15 FF B8 82 C8 00 67 C9 70 ....h%.......g.p
00404C10 E9 8E 00 F6 81 D7 9B 47 6C 1E 81 DE FD 00 6B 67 .......Gl.....kg
00404C20 C3 83 42 61 E5 7E 8B 92 16 86 80 69 0C 30 38 D7 ..Ba.~.....i.08.
00404C30 32 F3 50 76 C7 71 37 93 D1 29 95 00 D7 C7 E4 EC 2.Pv.q7..)......
00404C40 C8 00 00 F8 00 BD B8 DB 5B F7 E8 00 A2 7F 23 C1 ........[.....#.
00404C50 FE 56 CB FF 96 92 E7 D1 9E 00 05 FF 23 8A DF 3D .V..........#..=
00404C60 41 18 84 FF 00 01 D4 E9 00 68 00 7F FF 22 D8 1C A........h..."..
00404C70 66 FF 16 2D 47 70 68 E7 40 09 AA 1D 77 D1 35 CB f..-Gph.@...w.5.
00404C80 08 AD 11 C0 24 00 98 FF 29 1A 00 70 D2 8D 00 88 ....$...)..p....
00404C90 C4 19 2E 28 96 FF A0 25 D5 6C 03 00 4E 08 B4 3E ...(...%.l..N..>
00404CA0 00 42 7B E8 00 00 3D 3C 8E A0 9D 47 28 E4 11 55 .B{...=<...G(..U
00404CB0 00 00 2C F9 00 5C 71 DF DE 68 F4 2F 4A 22 E0 00 ..,..\q..h./J"..
00404CC0 13 04 EB FF F5 25 02 DE 00 7B B1 CF 02 00 26 D3 .....%...{....&.
00404CD0 00 97 26 2B 6D 81 F6 00 21 99 A7 69 87 FF 2E 30 ..&+m...!..i...0
00404CE0 8F C0 4C 3D AB 53 A7 80 A4 FF 00 B1 1D FF 91 60 ..L=.S.........`
00404CF0 D0 33 C2 20 C7 00 20 54 D5 5A D4 A7 8F 6C 74 FE .3. .. T.Z...lt.
00404D00 DC C5 A9 F3 D9 38 8C DE 88 D0 3D 31 34 FF 16 12 .....8....=14...
00404D10 1E C1 BF 03 FD 54 95 B3 00 7D 6F 00 AC 6E A6 8E .....T...}o..n..
00404D20 B3 CA 78 35 66 BF F7 17 40 FF 51 00 0C FC C1 00 ..x5f...@.Q.....
00404D30 00 DB DD 00 16 32 00 6A 10 45 0E 68 D7 E1 34 0B .....2.j.E.h..4.
00404D40 7F 00 00 86 9F C7 06 21 81 D9 97 FE 3F 00 B7 AA .......!....?...
00404D50 5F 10 30 7F 64 6E 89 4F 81 25 08 5E B0 9E 90 33 _.0.dn.O.%.^...3
00404D60 68 E0 BC 95 C0 FF 45 00 7C FC 00 4D 0D C4 00 24 h.....E.|..M...$
00404D70 9B 19 93 00 90 EE CE B8 BE 1D 24 FF 05 CD 6E 6B ..........$...nk
00404D80 F0 B1 7F E0 C0 7F 88 09 8D 99 FE 89 30 6D 06 24 ............0m.$
00404D90 89 FF 12 81 00 FF D0 0E 18 D7 61 A1 00 00 F3 00 ..........a.....
00404DA0 FF 2E 00 C1 88 00 03 52 34 C0 D2 D9 00 6F 77 AF .......R4....ow.
00404DB0 00 AE 47 69 66 4F CA 69 8B 3F C2 90 54 F2 2F 24 ..GifO.i.?..T./$
00404DC0 21 0F 00 61 56 CD 9E E7 66 00 B3 C7 05 5F F7 00 !..aV...f...._..
00404DD0 CC 62 ED 3F A8 60 AD 00 00 C5 00 FC F3 48 1E 00 .b.?.`.......H..
00404DE0 57 40 06 35 FF 0A 69 1D 22 66 AD 8F 13 00 3F 00 W@.5..i."f....?.
00404DF0 00 67 89 70 9F 84 BE E0 DA 9D BA 13 45 00 2A B5 .g.p........E.*.
00404E00 71 31 00 00 00 5A 0D 1B 2E 62 2D 00 77 8E 00 43 q1...Z...b-.w..C
00404E10 D9 13 00 13 8C 3B 6E D2 05 00 5C 16 15 6C 0E B0 .....;n...\..l..
00404E20 1B 72 17 87 C3 87 04 71 28 53 DE EB 9E F6 CC 96 .r.....q(S......
00404E30 00 00 1F 31 3E 10 27 78 85 D5 FC B5 23 DA C2 6F ...1>.'x....#..o
00404E40 00 14 FF 7E E0 8D C1 26 00 3E FF 68 67 5F FF F9 ...~...&.>.hg_..
00404E50 1F CD FF B5 00 88 27 C4 36 DD F9 87 C5 A9 4C 47 ......'.6.....LG
00404E60 AB E8 FF 21 FF DF 58 F4 97 5F 19 8C 05 00 17 00 ...!..X.._......
00404E70 C4 00 44 18 40 E1 9C 9F 5E C5 C6 67 89 54 22 29 ..D.@...^..g.T")
00404E80 00 3E 59 00 2B 50 09 25 14 18 02 F2 FF 2E 00 CE .>Y.+P.%........
00404E90 52 09 00 4C 00 BE 04 40 BC 4C 00 97 1A 3C 71 36 R..L...@.L...<q6
00404EA0 AC 03 72 3A 00 DE 0B D0 00 91 00 FF CD 80 63 3B ..r:..........c;
00404EB0 C5 5C 1D 07 2F 99 ED 1F CD 3E 00 39 DA C4 A9 CD .\../....>.9....
00404EC0 81 4F 00 44 C0 27 60 9D C5 FF 82 31 00 F9 6D 4E .O.D.'`....1..mN
00404ED0 00 C8 98 9A 00 80 F7 72 A2 5F 46 90 C8 A1 30 51 .......r._F...0Q
00404EE0 74 82 C3 22 74 10 00 38 1F 02 39 77 05 08 C9 FF t.."t..8..9w....
00404EF0 61 14 29 1B F1 00 97 E6 B8 18 6B FF 2E 4F 09 6A a.).......k..O.j
00404F00 C2 8F 33 D8 78 00 82 49 87 2A 00 DD 7B 00 57 FF ..3.x..I.*..{.W.
00404F10 67 24 AC DF BD 51 49 94 00 D5 00 FD 1D AB 00 B3 g$...QI.........
00404F20 00 91 3B 10 00 79 E3 8A A1 FF FF 20 3E 3E 05 10 ..;..y..... >>..
00404F30 00 00 73 9A 30 36 A8 9B 57 D6 A3 66 00 C1 82 4C ..s.06..W..f...L
00404F40 9C FF C4 C5 DA 4C 9E B0 82 A8 04 00 1F 9F EB 8B .....L..........
00404F50 06 FF 12 01 55 55 23 FF F3 DD 5B 3A 72 4E FF 20 ....UU#...[:rN. 
00404F60 13 FB E3 5A AF 2B 04 00 00 44 6E B9 C3 44 80 E7 ...Z.+...Dn..D..
00404F70 B1 00 59 E3 DC 38 E1 00 00 74 EA 48 06 00 38 98 ..Y..8...t.H..8.
00404F80 A5 DB D6 DF 00 6C 26 00 FF 7F 00 FF 00 47 B8 00 .....l&......G..
00404F90 8C 56 DC C6 7E F0 4B 90 2D 3A 00 73 A7 CF 00 E1 .V..~.K.-:.s....
00404FA0 C4 07 00 1C 37 E4 C6 1C E2 AB 34 00 A8 81 00 92 ....7.....4.....
00404FB0 D4 FF 00 14 7B 5C 05 FF FD A0 81 59 EE BE 61 94 ....{\.....Y..a.
00404FC0 64 00 F8 E6 CF 01 D9 62 5E 38 CE 22 81 AE 4D 60 d......b^8."..M`
00404FD0 E1 4D 5E 58 08 EE B9 A1 00 B1 16 33 64 9E 3F 2B .M^X.......3d.?+
00404FE0 9C 2C 53 00 30 F7 10 BB 8E 7C 60 0E 00 23 38 CA .,S.0....|`..#8.
00404FF0 39 07 E3 2B C6 EF 22 FF 4E 76 BE 14 D1 C5 67 00 9..+..".Nv....g.
00405000 48 FF FF 33 F4 9D A6 00 AE C7 FA 31 15 60 FB F4 H..3.......1.`..
00405010 FA 69 97 73 E1 6C B3 F0 E7 97 F8 A3 FA 00 E0 28 .i.s.l.........(
00405020 E8 00 DF 19 F1 FF 64 4C E0 03 00 00 00 8F B9 00 ......dL........
00405030 01 9F 62 33 CE 61 94 A5 DC DF 68 1C E4 DC 51 ED ..b3.a....h...Q.
00405040 96 1D FF F1 29 F9 22 EB 98 39 00 00 93 00 06 2A ....)."..9.....*
00405050 B9 A1 2D 25 00 00 C0 AB 5E 00 4D FF E8 2E FF 00 ..-%....^.M.....
00405060 00 FA DF 39 00 B4 FE 81 17 00 00 A4 68 68 00 FF ...9........hh..
00405070 B4 1A C5 00 D5 ED 00 EA F8 66 24 4D 00 0A 00 6D .........f$M...m
00405080 81 9D CB F2 00 A0 24 F9 FF 26 13 09 8B 6F B8 5E ......$..&...o.^
00405090 C0 00 17 40 00 A1 FF 1F 73 65 FF FA 00 D5 21 FD ...@....se....!.
004050A0 4C 00 00 A8 DA 00 25 F5 2B 00 B2 BC 61 A4 3B A3 L.....%.+...a.;.
004050B0 7E 22 35 06 FF 61 E0 00 00 D3 2D 00 00 7E 38 0D ~"5..a....-..~8.
004050C0 D9 AE 00 00 6B E9 4C FF 31 30 87 2E 00 A3 00 B8 ....k.L.10......
004050D0 3F 44 53 8B 9C 12 8C 78 3D 00 22 E1 22 FF A5 00 ?DS....x=."."...
004050E0 0E 49 7A 06 6F 00 52 00 00 00 19 28 14 57 DF FC .Iz.o.R....(.W..
004050F0 00 C0 C4 D3 86 78 F7 9B 37 A8 4F 90 FF 5E A2 73 .....x..7.O..^.s
00405100 E0 1F 01 00 F2 C1 3B 0C 12 1D E0 41 08 05 E4 87 ......;....A....
00405110 00 2A 32 B1 FB 88 33 CD FF 88 D5 D1 FF BF 37 7C .*2...3.......7|
00405120 AF 8A 6F F7 5E 4D 0D 00 69 25 3F 60 1F A5 FE 00 ..o.^M..i%?`....
00405130 00 F0 39 00 0A E0 B9 B9 04 32 92 17 98 4F 06 68 ..9......2...O.h
00405140 83 38 42 90 01 60 00 E1 86 00 DA 1F 2E 28 BE CF .8B..`.......(..
00405150 44 40 09 00 7C 00 56 6F 87 CB 9D 7C 00 E3 A5 F1 D@..|.Vo...|....
00405160 FF E0 7F 64 E2 83 77 8F D2 9B E1 B7 70 1A F8 6B ...d..w.....p..k
00405170 3B 2D 25 84 8D D2 81 00 A0 9D 00 DA 2A E0 00 13 ;-%.........*...
00405180 5A 27 FF FE 0E BF 10 10 D4 65 00 00 C5 C6 E3 27 Z'.......e.....'
00405190 1E 0F 0D 83 00 34 1C F6 A6 BB E3 80 BE 08 B5 54 .....4.........T
004051A0 7D C0 D3 A8 00 3B FF 00 36 41 39 B7 AD 00 F0 00 }....;..6A9.....
004051B0 C0 39 EE 00 0E 92 33 2D EA 11 BC 5B 4D 77 3A 07 .9....3-...[Mw:.
004051C0 4C 27 00 8E FF 58 94 BC 75 FF 05 00 6B F4 FB CF L'...X..u...k...
004051D0 00 2E 23 8D C8 A4 85 B2 1C 00 82 61 DC 00 60 20 ..#........a..` 
004051E0 01 4B 70 C0 12 0E 56 00 B4 7F 21 4A 60 15 E0 DC .Kp...V...!J`...
004051F0 19 B8 3D 5F 73 C5 32 41 E7 DD 16 B5 74 5B 50 65 ..=_s.2A....t[Pe
00405200 44 7E 32 FF 50 C2 7D 3A 90 8F FC 00 97 D3 57 B0 D~2.P.}:......W.
00405210 00 4F 00 F4 00 00 E6 34 12 52 EE 00 84 FA 00 AB .O.....4.R......
00405220 0F 7A AB C4 5B BD 00 00 D7 B7 16 7D 02 DC 85 ED .z..[......}....
00405230 0F 60 3C 3B 7B 83 FD 00 3E DF CF 36 13 B2 43 FD .`<;{...>..6..C.
00405240 C5 1D CF 7E C8 00 CC FC 8D CD 70 19 02 A0 D3 D8 ...~......p.....
00405250 8D 30 F0 C4 4A E3 81 EF 42 BC C9 60 00 A1 EF 70 .0..J...B..`...p
00405260 00 2F 15 44 97 8D 00 C3 81 00 F8 00 8F B6 50 4B ./.D..........PK
00405270 86 3F 24 F6 4A C5 87 C5 F0 EA C1 60 F2 90 FF 00 .?$.J......`....
00405280 1B FF 00 00 D7 86 11 00 04 B0 00 C4 27 F6 6C DB ............'.l.
00405290 81 72 00 00 9F F6 6E F0 C1 5F FF 70 73 55 31 CF .r....n.._.psU1.
004052A0 00 B8 45 70 02 64 EB FF 5E 0A 68 39 8A BB 03 C8 ..Ep.d..^.h9....
004052B0 C5 27 64 12 5C 03 78 1C 27 70 0A E9 B4 0D 68 00 .'d.\.x.'p....h.
004052C0 E0 00 03 0C F8 FD FA F5 0E 0C 6E 1B 35 8F 6B 4E ..........n.5.kN
004052D0 CC 8A 80 50 3A 8D 9C 2D 43 00 F1 03 00 AB 55 0E ...P:..-C.....U.
004052E0 53 E6 00 AE C4 61 00 00 60 83 19 89 38 00 18 BD S....a..`...8...
004052F0 F4 00 04 E6 6A 8F 57 48 8C 00 00 00 3C 00 78 05 ....j.WH....<.x.
00405300 FF 39 30 64 18 E2 14 F3 F9 48 00 A0 FF 8F 22 A5 .90d.....H....".
00405310 FF 0B 6F 9C 39 06 00 AD FB A1 7B 07 35 01 0C 00 ..o.9.....{.5...
00405320 87 A4 AA B3 1F FF 2D FF 23 F9 DC CE 00 A3 CD FF ......-.#.......
00405330 A6 00 4E D5 FD 36 9A F8 A1 00 DB 6D 7B 19 E5 63 ..N..6.....m{..c
00405340 4F 14 FC 00 F1 EE 6E 1B 91 1B 00 A4 9A C1 8E 07 O.....n.........
00405350 01 70 30 1F 52 31 3E F7 2A 9D 00 48 AB 8C A9 0C .p0.R1>.*..H....
00405360 C6 67 E2 E3 FF A7 7B 74 DA 9F 4E 58 14 08 EB 59 .g....{t..NX...Y
00405370 4B 57 A0 00 00 BC 9B 00 33 0A 36 47 90 C0 83 C0 KW......3.6G....
00405380 AB 50 91 37 8D 54 62 36 08 F5 F7 4E E0 21 00 FF .P.7.Tb6...N.!..
00405390 00 16 77 02 C1 83 62 96 0B 00 00 4C 02 A7 01 A6 ..w...b....L....
004053A0 CA 7F 1F 68 ED 32 00 C2 06 AA 24 02 9D 00 EA 4C ...h.2....$....L
004053B0 27 32 44 00 D9 00 FF 50 03 A2 1D EA 3A 97 00 62 '2D....P....:..b
004053C0 DB E1 5E F9 FF 4C 55 32 C1 61 70 FF 39 C3 C4 76 ..^..LU2.ap.9..v
004053D0 82 15 A1 C4 32 96 3F C2 00 61 00 54 E8 ED 34 F4 ....2.?..a.T..4.
004053E0 00 00 7E D8 09 02 DD D0 5D F0 C8 FE 43 3D 69 1B ..~.....]...C=i.
004053F0 CD 7A 00 28 C1 2B 7F 94 D3 7D 00 87 30 C7 0B 00 .z.(.+...}..0...
00405400 68 3E D8 00 00 47 B1 D5 C8 E2 32 41 5C FF 00 F0 h>...G....2A\...
00405410 60 12 06 C9 61 80 7B 01 98 7B C2 0E FF 02 39 50 `...a.{..{....9P
00405420 D9 70 FF FF F2 B9 4F 05 C3 93 75 84 4A 00 2D C7 .p....O...u.J.-.
00405430 3D 00 DB 39 24 00 9D FB E7 F7 00 42 16 88 EF 2C =..9$......B...,
00405440 FF 48 0C 95 3E 3B 62 B8 C0 50 65 9E F3 80 85 43 .H..>;b..Pe....C
00405450 FF EF C7 70 FB A5 4F 1B DD 10 08 80 4E 65 DF 78 ...p..O.....Ne.x
00405460 35 16 B0 60 00 5E 3E 12 77 56 8D FF D2 FF 8B 00 5..`.^>.wV......
00405470 04 00 97 4C C4 28 F8 00 2E FE 0B 3F 07 F7 CD 14 ...L.(.....?....
00405480 B8 BF FE A5 F0 AE 58 FF 00 07 C5 00 14 0B 04 15 ......X.........
00405490 AA D3 0F C9 17 08 00 86 96 93 FF 2B F4 00 2A C3 ...........+..*.
004054A0 4C 99 DE 6F 4D FB BB 19 A0 00 9F AE 37 3C 75 20 L..oM.......7<u 
004054B0 C4 5C 1E 00 AE 54 C0 F6 24 19 EF D0 28 07 AF 07 .\...T..$...(...
004054C0 FF 50 57 54 F9 34 80 09 C1 00 4E 9B 6F 72 00 70 .PWT.4....N.or.p
004054D0 4F 20 FD 67 B4 39 00 5F B1 D6 00 C9 85 72 9A 58 O .g.9._.....r.X
004054E0 99 4B 04 AB CC A0 64 02 B2 82 BF A6 C2 00 03 0D .K....d.........
004054F0 29 86 00 FF 4A 97 22 FF 25 B1 0C CF 8E E5 A3 83 )...J.".%.......
00405500 9A 82 00 E1 ED 50 DE 0C 31 BE 63 00 00 FC E2 14 .....P..1.c.....
00405510 8E 00 E2 7A E3 26 CF C6 00 49 FF 36 0B D0 61 08 ...z.&...I.6..a.
00405520 52 33 00 E3 11 CD 66 89 A0 EF F9 18 E0 DC 26 9D R3....f.......&.
00405530 42 55 00 19 13 F1 02 D3 00 00 6A 01 00 A4 00 64 BU........j....d
00405540 00 BE D2 75 00 7E FF C9 5E 5E 03 4E 05 4E FF D0 ...u.~..^^.N.N..
00405550 71 99 FF 00 7C 6D 1F 2E 36 83 27 23 2A CE E9 E1 q...|m..6.'#*...
00405560 00 51 0C 8F 61 75 73 66 48 33 00 84 46 E2 C2 A3 .Q..ausfH3..F...
00405570 DD FF BA 6B 00 4C EF 52 A7 E0 00 25 8A 6E 00 04 ...k.L.R...%.n..
00405580 00 27 D4 00 E7 00 71 4C 40 DB 2F 86 61 1E 08 95 .'....qL@./.a...
00405590 3B DC E6 AD DF A4 66 96 28 0E 00 6C 34 E1 01 00 ;.....f.(..l4...
004055A0 00 0E C2 00 0C 3C 46 F6 EE 81 22 63 85 00 E0 D7 .....<F..."c....
004055B0 40 FF 35 F9 76 E4 F1 E4 69 80 B9 00 B7 00 00 C7 @.5.v...i.......
004055C0 5C 0B 00 4F E7 A0 CF CD D0 4F 12 7C 53 00 56 6B \..O.....O.|S.Vk
004055D0 B0 08 88 00 92 AB FF 8C B6 FF 9D 8F 37 00 00 1B ............7...
004055E0 94 00 16 B0 00 E4 52 7C 63 67 0A 00 64 1B 32 7D ......R|cg..d.2}
004055F0 70 66 D3 00 49 10 9A F3 10 F7 18 80 A2 83 00 27 pf..I..........'
00405600 00 DE FF 4C 9D D4 B4 1E FF EF DD FF 9F 82 BC 89 ...L............
00405610 00 FF 33 26 7B EF 00 E9 89 9A 2E 37 4A CA 7F C2 ..3&{......7J...
00405620 E6 44 66 00 52 FF 55 00 00 4B F3 6B 00 F7 00 00 .Df.R.U..K.k....
00405630 79 12 20 FC D9 69 08 DA FB 9C E3 55 82 5C 38 E9 y. ..i.....U.\8.
00405640 00 EA 97 D9 DB 00 0E 40 42 9E 47 E7 00 0B A2 1A .......@B.G.....
00405650 00 2A E0 EF 70 0E ED F7 26 8F FE 68 BB 3E 09 E9 .*..p...&..h.>..
00405660 0E 72 B8 F4 F4 C7 0C 28 2D B4 00 37 9D 60 B8 8B .r.....(-..7.`..
00405670 00 3E B3 03 D1 AD 00 19 6E 26 52 56 B7 5C 30 02 .>......n&RV.\0.
00405680 1E 80 D4 8F 00 CF 30 52 BD 00 C0 C8 81 83 00 00 ......0R........
00405690 D5 1D 34 A9 8E 7F 58 81 A2 00 68 B4 6F 13 20 80 ..4...X...h.o. .
004056A0 ED 62 2C B0 3B 00 FB 00 00 00 00 B1 12 52 23 F8 .b,.;........R#.
004056B0 00 3F 55 06 6D 04 A3 91 09 8D FE A1 89 75 49 B6 .?U.m........uI.
004056C0 0C 11 D5 78 98 FF B1 B8 C1 3C 7F C6 78 0E 3E 01 ...x.....<..x.>.
004056D0 E8 E0 1E 49 36 6C 33 BD 7F AB 83 11 3C 66 A8 0E ...I6l3.....<f..
004056E0 F2 1A 31 B9 6A CA B0 92 8C DF 22 E1 FF AC 25 B7 ..1.j....."...%.
004056F0 00 76 BF C3 40 6A DA 7D 7F 9E ED 00 27 38 57 5B .v..@j.}....'8W[
00405700 AF 0E CA 6F FF BE D3 67 91 B2 FF C2 68 93 7B A7 ...o...g....h.{.
00405710 5C DE A8 6C ED BC 2E 55 1D 75 B4 3F 23 67 08 B7 \..l...U.u.?#g..
00405720 00 10 C0 00 7B 04 1E B9 C0 9F 23 00 00 13 82 0A ....{.....#.....
00405730 2D D8 2F FC 67 AE FB B9 BB 40 95 BC FC DB 7C 23 -./.g....@....|#
00405740 57 34 7C 93 69 D6 43 00 00 62 3F 5A 96 35 67 F2 W4|.i.C..b?Z.5g.
00405750 4C FF A1 A5 00 00 00 B9 C7 00 74 22 6E E4 0D B9 L.........t"n...
00405760 82 BF 84 24 07 0F 00 1D 01 A0 95 00 36 98 8B 02 ...$........6...
00405770 83 77 52 E1 00 BB BF 20 6A C7 C0 B9 7D 00 C7 AB .wR.... j...}...
00405780 FF FF A2 A1 7D 00 00 FF 09 00 FD 00 00 0C AC FE ....}...........
00405790 34 06 C3 F8 86 F2 A8 03 69 DE 00 78 00 46 0F D9 4.......i..x.F..
004057A0 D7 85 70 05 11 EE 22 00 8A 17 78 2D D5 F3 DD 1C ..p..."...x-....
004057B0 FF DE F9 33 47 00 25 BE 00 47 E6 5D 21 18 64 D1 ...3G.%..G.]!.d.
004057C0 4E E4 00 09 85 FF 4F BD 0B 4F 00 98 28 08 84 CC N.....O..O..(...
004057D0 49 94 0F 00 10 72 FF 00 FC F2 AE 8C 04 3B F1 00 I....r.......;..
004057E0 20 00 00 70 D7 00 70 1F F2 57 4A 8C DD 76 31 62  ..p..p..WJ..v1b
004057F0 D3 09 54 DC AD 00 F7 C5 00 18 35 AF 27 FF 29 00 ..T.......5.'.).
00405800 4E 59 12 5A 14 E9 18 38 C1 6A 00 8F 1E 20 81 BD NY.Z...8.j... ..
00405810 00 8D 7D 00 99 B8 00 D6 00 F7 FF 03 04 36 00 0A ..}..........6..
00405820 16 7D FF 5F AD 25 C5 08 60 84 57 17 14 79 EE 00 .}._.%..`.W..y..
00405830 06 0F 00 0E C1 9A DE 34 00 37 C2 42 B9 FF 40 17 .......4.7.B..@.
00405840 A9 FF 22 51 00 19 00 00 13 60 7F 00 5D FF FF 3E .."Q.....`..]..>
00405850 E2 C5 00 6E B9 4D FF CB 86 FD 17 00 CB 78 C3 7B ...n.M.......x.{
00405860 0F 77 43 F0 36 9E 00 11 83 F1 FC 9F 74 F1 60 7B .wC.6.......t.`{
00405870 78 00 29 32 30 64 36 11 3B 14 A2 F6 D2 53 00 A4 x.)20d6.;....S..
00405880 00 75 26 AA 4B 39 93 4D 07 48 80 D1 00 80 6C C9 .u&.K9.M.H....l.
00405890 8B E7 30 00 8E D1 BC 25 01 FB D7 00 3F FD 5A AF ..0....%....?.Z.
004058A0 77 FF 4D 88 E5 6C E0 2A 54 AD F8 DC 09 10 4F 42 w.M..l.*T.....OB
004058B0 E7 71 EE 00 A3 D0 1A 00 E8 F7 65 CF CB 47 95 7F .q........e..G..
004058C0 E5 7B 2E 00 44 FB 18 48 9F 67 25 96 D4 07 D0 3C .{..D..H.g%....<
004058D0 24 00 00 B5 30 CF A8 CA 4B D3 C0 00 93 75 00 FD $...0...K....u..
004058E0 00 00 13 33 C5 E2 AE 83 4E 7B 00 61 23 73 21 B4 ...3....N{.a#s!.
004058F0 7E 07 56 BA FF 90 B5 9E 42 D6 3A F8 D7 27 F7 AE ~.V.....B.:..'..
00405900 25 25 32 FF FF 0B B5 89 89 BC C3 38 DB 53 40 1C %%2........8.S@.
00405910 25 9B F6 FD 6E 29 F4 1C 4A FD FB 74 11 24 C2 F0 %...n)..J..t.$..
00405920 DF F9 7A 3E AB 23 56 00 E0 A5 81 50 FF 37 08 EB ..z>.#V....P.7..
00405930 D1 30 27 B9 13 4F 1C 89 CC FA 66 A5 00 00 E8 D4 .0'..O....f.....
00405940 47 00 1F DC D0 95 00 2C F0 19 54 7C 43 BF 81 D2 G......,..T|C...
00405950 6C C8 00 D8 00 CD F4 02 00 BB 32 00 C4 00 8C 40 l.........2....@
00405960 00 7C 00 FF F6 2F 00 15 F7 35 EE 20 01 60 0A BB .|.../...5. .`..
00405970 E9 0B 6B FF 2C E6 00 0E FF 90 FB 24 3B FB D9 AF ..k.,......$;...
00405980 CC 8D A5 FF C4 8C 7A 00 69 4B CA EE 8F 66 7C 3B ......z.iK...f|;
00405990 7F 7D 1E D0 C8 07 27 00 18 59 A2 FF EF 83 FF F7 .}....'..Y......
004059A0 2B 36 00 63 64 2F 96 06 CA 19 00 B6 00 E5 04 00 +6.cd/..........
004059B0 77 00 8F 95 07 20 6D 5B F0 28 8C F4 0E 00 8D BF w.... m[.(......
004059C0 5F 00 E8 58 C2 79 71 1D 00 74 BF 00 94 76 D6 C6 _..X.yq..t...v..
004059D0 FF 47 04 B5 C8 51 B7 2C FD 4C 39 01 F2 B7 89 D1 .G...Q.,.L9.....
004059E0 9A 69 34 A6 21 20 30 08 5E 24 B5 00 E3 00 10 95 .i4.! 0.^$......
004059F0 00 5A 47 1A 24 EA 00 C9 00 83 E7 00 AF 40 64 7B .ZG.$........@d{
00405A00 0D 04 51 3F FE 41 CD FF EC 9E 80 E8 B6 0C 00 B5 ..Q?.A..........
00405A10 DF F1 DD 90 6D 18 62 00 AC 35 86 B1 C9 E5 64 C5 ....m.b..5....d.
00405A20 33 18 A0 F1 97 00 94 CB 85 31 5A 5C 87 BB 01 03 3........1Z\....
00405A30 DF F6 00 7F 6D 47 5E 1D 24 7C 00 00 07 CA 62 F9 ....mG^.$|....b.
00405A40 C3 A1 33 04 26 C3 4F 00 05 A6 00 86 92 73 40 40 ..3.&.O......s@@
00405A50 3C BC 6C 31 34 3A 22 4C 00 0A 26 8A 08 C4 BD 71 <.l14:"L..&....q
00405A60 3A C8 BF 89 00 EC 88 00 BF 3C 01 0E 00 08 F7 86 :........<......
00405A70 00 FF 18 2C 12 30 00 49 C6 BB 29 00 20 62 14 5A ...,.0.I..). b.Z
00405A80 3E E8 00 FF 1B A7 75 46 7B F1 23 6E 2A 79 2C FF >.....uF{.#n*y,.
00405A90 40 CB 47 CC 5F 66 06 BD 00 36 F2 10 B1 F5 CB 31 @.G._f...6.....1
00405AA0 05 00 08 0A 87 B0 0B A5 44 90 10 24 7D B4 FF D6 ........D..$}...
00405AB0 4B 34 2F 04 29 30 7E BC 9A 00 77 00 A5 00 00 1F K4/.)0~...w.....
00405AC0 BC DF 00 01 61 C7 B1 0E B2 00 AD ED 74 F6 81 FF ....a.......t...
00405AD0 F9 6F 00 C5 41 3C DF 94 12 5C 3A 5A 0F A8 50 14 .o..A<...\:Z..P.
00405AE0 00 FF 3F 35 FF 2C A3 12 21 83 4D 44 C9 EF C9 61 ..?5.,..!.MD...a
00405AF0 1B 70 FA 12 FF 6C 79 00 C0 FF B2 00 EA 5F B0 8D .p...ly......_..
00405B00 FF FF FC BE B7 C1 9E 04 67 90 75 A5 E0 00 92 6F ........g.u....o
00405B10 28 6E 16 00 1B 5A 57 6A 7C D4 26 14 55 C5 FF 00 (n...ZWj|.&.U...
00405B20 42 72 81 62 FF BA CE 38 32 39 6F FF FF 00 DC DF Br.b...829o.....
00405B30 63 FF 00 64 00 08 E5 30 C9 00 FD 95 D0 79 89 E7 c..d...0.....y..
00405B40 FF 00 5D 82 99 65 89 D4 6F E2 38 65 71 70 05 7F ..]..e..o.8eqp..
00405B50 00 5E 02 00 4B 64 00 5C FD FF EF 57 A7 26 4F 06 .^..Kd.\...W.&O.
00405B60 34 C6 6D A2 6B E8 AA FF 94 04 FF D1 7A 42 00 A6 4.m.k.......zB..
00405B70 F4 59 A1 DF C2 08 FF 3E 00 23 E4 2D C1 51 04 20 .Y.....>.#.-.Q. 
00405B80 4D 6D D5 4D 00 18 BA 00 6C 00 79 86 FF 00 EA 00 Mm.M....l.y.....
00405B90 BB BA 2D 6B FF 2D 1D 00 AA 90 42 00 BF 10 F1 16 ..-k.-....B.....
00405BA0 9A 3D 00 E5 1D 22 1F E8 17 E5 C7 E4 09 ED 7B 4B .=..."........{K
00405BB0 B0 FF FF 00 D9 0F D8 81 80 93 90 00 5E FB 27 F8 ............^.'.
00405BC0 1F 66 FF 1A E3 12 31 F3 97 90 30 99 FF BE 0C 37 .f....1...0....7
00405BD0 CE C5 00 3E 26 8B CB 98 BD 00 31 90 5A 0B 20 47 ...>&.....1.Z. G
00405BE0 FF 20 B5 6A 56 00 89 00 CC DB FB 82 32 63 4A E1 . .jV.......2cJ.
00405BF0 64 B4 BF E7 8D FC 62 E4 44 93 07 B3 50 97 00 3A d.....b.D...P..:
00405C00 00 00 45 EE 28 1B CE A6 7E 02 00 70 50 41 4D F6 ..E.(...~..pPAM.
00405C10 31 FF 48 DC 84 00 CE 00 0B 00 00 FF 20 BF CA B9 1.H......... ...
00405C20 18 2C 47 9B 19 24 70 86 00 CE 00 D2 4D 00 00 FA .,G..$p.....M...
00405C30 61 EA 00 15 E7 57 17 EF E1 00 00 6B 9F BF FF 6A a....W.....k...j
00405C40 01 00 1B 60 26 33 45 FE FF 67 63 15 1D DC CA 00 ...`&3E..gc.....
00405C50 38 60 12 9F C2 ED 16 76 3C 9C 69 A8 F4 F7 3E 5C 8`.....v<.i...>\
00405C60 EF 5D 01 89 5B A2 CE BD 2B B1 5E 4E 10 00 77 60 .]..[...+.^N..w`
00405C70 1B 2C C9 22 0A 0F BD F8 2C 00 BD C2 F7 AC 94 BF .,."....,.......
00405C80 8B 87 6D C5 70 19 85 E7 00 00 BB 69 64 00 F7 CA ..m.p......id...
00405C90 73 08 00 63 8F 00 00 00 79 E4 11 BF E2 C1 00 F1 s..c....y.......
00405CA0 14 C9 AE 8C C1 FA 00 87 CA 14 8B 9A 2C 8D 4D BB ............,.M.
00405CB0 00 09 CC 65 3C 4C C4 95 1E 0B F3 BD 4C BC 22 E2 ...e<L......L.".
00405CC0 05 00 BF 99 81 E3 0E 37 82 B8 27 00 00 02 DB 6E .......7..'....n
00405CD0 35 00 7F 4F 98 99 EC 71 00 71 70 A2 63 00 BC 3D 5..O...q.qp.c..=
00405CE0 00 94 A9 2F FF C1 48 A3 B8 16 7B 99 1B 00 8D DB .../..H...{.....
00405CF0 47 0A AB 00 9B F7 CB 14 3B B8 74 0C 00 15 39 EA G.......;.t...9.
00405D00 CA 86 E8 FC D7 36 F9 DC CF 05 1C BE 9D 26 D5 34 .....6.......&.4
00405D10 16 7A C6 08 00 00 D3 E9 90 7D D0 70 F4 62 F6 00 .z.......}.p.b..
00405D20 42 77 5C 34 4F FF CB 73 8E 0E CF 9C BE B1 5E FF Bw\4O..s......^.
00405D30 4F 00 EB 77 29 39 FB C4 14 00 03 5B 59 3E 1E 48 O..w)9.....[Y>.H
00405D40 FF 5B 2A C5 C3 00 10 74 F8 00 00 CF E2 40 8F 00 .[*....t.....@..
00405D50 EF 01 60 95 90 04 4A 6B 1F 2C ED 03 2E 00 91 C9 ..`...Jk.,......
00405D60 67 A3 C9 AF E4 00 6F D5 2B CA 00 0D B8 F6 5C 00 g.....o.+.....\.
00405D70 B8 38 88 66 96 E6 D9 B2 46 72 3A 7F B2 E0 80 00 .8.f....Fr:.....
00405D80 69 FC 00 BC D6 C9 2A 24 FF FF 00 B0 23 59 26 00 i.....*$....#Y&.
00405D90 0D 24 4B 4A 01 BC 20 93 95 B1 B2 FF 8A 11 D9 93 .$KJ.. .........
00405DA0 2A BE 5E 9B 00 72 00 43 AC D7 68 20 E2 A5 00 37 *.^..r.C..h ...7
00405DB0 30 00 C6 87 B0 87 E1 EC 0E C2 62 62 E3 00 D3 FF 0.........bb....
00405DC0 5A FF 77 EF DC 23 AF F2 C7 43 DE 61 FE 94 44 6C Z.w..#...C.a..Dl
00405DD0 A9 9A F4 4C FF 2C D9 2A 33 85 F0 00 00 BD 41 0B ...L.,.*3.....A.
00405DE0 33 1C 4F C8 27 50 4E 02 83 7A 67 2A 80 CF 5C 00 3.O.'PN..zg*..\.
00405DF0 62 56 48 03 5A C3 7A 00 00 24 F7 A6 C4 9C B7 C0 bVH.Z.z..$......
00405E00 00 2E AA 00 D4 FF 23 E4 1A F9 54 3F 00 B1 56 68 ......#...T?..Vh
00405E10 A4 04 B2 BE 90 19 8C 04 49 40 B1 B8 CA C1 07 C0 ........I@......
00405E20 BB A8 FF A5 00 B9 9A E2 6B 5E 00 00 72 B2 00 A5 ........k^..r...
00405E30 C1 1A 46 AE BC 57 16 A9 90 3D C7 00 EC 17 7D 0C ..F..W...=....}.
00405E40 ED 7C 7D CF 10 BB 2D A3 0A EA 58 02 E3 00 39 AC .|}...-...X...9.
00405E50 8E 40 71 E8 70 FF 00 00 81 00 BE 8D 1D 00 86 8E .@q.p...........
00405E60 F5 87 00 16 A3 58 00 3E 00 A2 ED 00 C5 35 FF 8D .....X.>.....5..
00405E70 15 02 A6 38 B3 8A 91 D0 14 8B F3 1A 5A DA E0 00 ...8........Z...
00405E80 EE 58 21 00 44 07 A6 38 FE 23 5C AD 43 11 31 29 .X!.D..8.#\.C.1)
00405E90 E0 C8 C3 10 00 00 00 C0 73 A5 29 1D 08 CE 00 FF ........s.).....
00405EA0 92 F3 20 D4 16 05 E3 27 8E 20 BB 00 00 F1 37 63 .. ....'. ....7c
00405EB0 26 9B BB 00 24 B1 B8 1E 4E E6 8E 84 6A D9 3D A6 &...$...N...j.=.
00405EC0 A9 25 E9 63 6F 1F FF 80 79 D0 44 70 1B 4A 06 A3 .%.co...y.Dp.J..
00405ED0 30 BD EC 26 AD 60 CD B1 C0 C7 08 38 F3 38 00 93 0..&.`.....8.8..
00405EE0 BB 16 FF 00 C4 21 F1 C6 00 64 AE 82 F6 FF 00 F8 .....!...d......
00405EF0 35 FF DD 30 3C 99 A6 A8 F6 41 D9 7D 92 9B 20 8E 5..0<....A.}.. .
00405F00 10 22 C0 3A 00 F4 88 A3 EF 76 F5 40 27 00 F5 CE .".:.....v.@'...
00405F10 D6 C1 08 03 00 00 FF 97 27 DE 00 09 6C FF 18 33 ........'...l..3
00405F20 AB C0 B9 08 06 96 61 7D 00 08 A1 75 A4 46 FF B7 ......a}...u.F..
00405F30 11 B9 BA 50 50 80 81 98 78 13 F5 FF B2 00 61 00 ...PP...x.....a.
00405F40 EC 00 47 D9 16 66 BF FF 64 AB 0F 80 C0 C1 FF 98 ..G..f..d.......
00405F50 0C FD BF 63 C4 00 7C 9F 7B 93 02 00 41 00 C4 9E ...c..|.{...A...
00405F60 81 00 FF 00 ED 5C 03 28 50 39 12 24 73 AF DB AC .....\.(P9.$s...
00405F70 57 93 39 33 DE DE A4 89 FF EE 00 3D 95 95 E6 81 W.93.......=....
00405F80 FE 2C D3 80 0B 4B 3C 89 2F EB 00 00 25 00 70 57 .,...K<./...%.pW
00405F90 5B FF DB AE 07 E7 00 60 49 6A 87 FD 1B 79 00 00 [......`Ij...y..
00405FA0 00 7E A4 10 E3 A5 D1 F8 86 92 00 2A 00 BF 96 AD .~.........*....
00405FB0 FB EA 63 D0 82 03 02 D0 65 B5 C9 7E A2 70 17 9D ..c.....e..~.p..
00405FC0 14 00 1E 6C 22 3F F3 A6 26 20 92 0C C6 F3 30 82 ...l"?..& ....0.
00405FD0 00 FF 00 B4 16 FF CD 44 0C 09 5E 00 C0 7C 51 3E .......D..^..|Q>
00405FE0 C6 63 7B 17 FF 1C 53 0E E7 18 54 4A 01 67 C0 C3 .c{...S...TJ.g..
00405FF0 81 8C 35 00 C5 C1 20 E8 2D 24 4A 00 45 64 E9 C9 ..5... .-$J.Ed..
00406000 4E DD FF 53 A0 3B 0F 96 88 1C AA 53 E4 76 5C 60 N..S.;.....S.v\`
00406010 00 57 60 00 9D 0E 97 44 70 FF FF 4D 88 00 38 85 .W`....Dp..M..8.
00406020 68 91 83 00 AC C7 1E 00 F5 00 30 20 FE 00 47 6A h.........0 ..Gj
00406030 C0 2B 08 D1 70 58 42 7C 82 00 80 02 B1 90 F7 D3 .+..pXB|........
00406040 68 EC 6C FF 5D 0C 1C 17 A0 F9 47 00 E3 B0 16 28 h.l.].....G....(
00406050 00 F9 A4 FA C0 E3 E1 80 14 00 95 CA 03 00 F4 8A ................
00406060 8B BE 55 D4 D1 80 A4 81 40 00 F3 97 7B D0 F9 9F ..U.....@...{...
00406070 00 38 B6 6C C5 0C 00 39 36 49 00 87 DB AA 00 30 .8.l...96I.....0
00406080 2D F1 66 C4 85 34 FD 00 7A 03 FC 13 14 00 B9 FF -.f..4..z.......
00406090 D6 52 00 1A 66 35 44 17 F0 8B 02 59 57 00 8F 76 .R..f5D....YW..v
004060A0 49 46 53 BC 4A B8 FF DD 68 CF C6 6E 5C 97 BF 00 IFS.J...h..n\...
004060B0 11 00 6A 86 FE F5 C5 C1 AC 00 00 C1 1D B9 5A 22 ..j...........Z"
004060C0 D8 3A 6F 41 17 00 B4 54 CA D7 00 B7 52 9B A1 FB .:oA...T....R...
004060D0 5B 00 03 00 7C 00 78 9F D2 E1 A1 BD 1C C3 42 08 [...|.x.......B.
004060E0 00 00 E5 04 FD 26 47 00 8B 00 CA 07 80 36 33 00 .....&G......63.
004060F0 41 FF 3C 1A 44 43 DE 50 CC 61 8C FF 1D 27 E9 76 A.<.DC.P.a...'.v
00406100 72 01 E0 93 73 24 41 00 F7 C2 40 00 68 02 00 E1 r...s$A...@.h...
00406110 4B 2E 3A C0 2A FF E7 FF 00 8A 70 CE 00 A3 FF F7 K.:.*.....p.....
00406120 B4 00 C9 8E E3 00 80 CC 9E FF F2 99 45 5C BA EE ............E\..
00406130 C1 6B 00 A2 20 10 00 B2 CF FF FA B5 F5 AF AF 87 .k.. ...........
00406140 A2 15 18 81 FF 00 76 2A FD E0 7D D5 49 00 87 59 ......v*..}.I..Y
00406150 DF 1C E8 14 74 10 D1 07 00 F6 93 A1 A0 00 C4 1C ....t...........
00406160 88 0E 7E 2C C4 00 4D 00 84 B0 D2 C9 00 32 3D 08 ..~,..M......2=.
00406170 66 AB 48 98 37 ED 19 D3 10 64 D8 00 D4 20 37 FF f.H.7....d... 7.
00406180 09 97 F6 CF 98 7F 6D 72 11 00 7F F6 1F FD 1C 96 ......mr........
00406190 6C 00 00 25 61 E0 8F BB 01 41 34 00 A6 12 FF 40 l..%a....A4....@
004061A0 E1 B9 80 D3 00 73 BC DF 88 A0 00 A1 93 00 00 FD .....s..........
004061B0 06 FA 24 CE F0 AF DA 00 00 00 B9 04 00 D4 B8 4F ..$............O
004061C0 5B C3 0E 7C 14 0E 50 69 9B 00 9E 00 00 00 47 4D [..|..Pi......GM
004061D0 C8 2E 6A 82 F2 E0 A5 8D 00 8A 91 9B 00 96 FE 11 ..j.............
004061E0 B0 80 F0 E7 26 00 46 00 BE 77 CC 63 00 FD 43 74 ....&.F..w.c..Ct
004061F0 90 3E 3A 18 00 9F F8 6C 03 0B 0E 0D 87 F5 AB 70 .>:....l.......p
00406200 15 FF FF 39 AA EB 2A A0 FF 69 86 A8 B3 00 16 AB ...9..*..i......
00406210 18 00 26 31 4A 1C 2A E1 E2 00 93 7B E3 6E 00 80 ..&1J.*....{.n..
00406220 F8 DD C0 F5 2A 00 D1 E9 16 86 50 DE CF 00 84 FF ....*.....P.....
00406230 D4 18 E4 FF 43 A9 14 80 00 C4 19 21 00 23 BF F0 ....C......!.#..
00406240 00 00 D7 15 E8 AB 00 00 80 00 26 2C F3 41 30 7F ..........&,.A0.
00406250 4F 9B 63 F8 FF 00 B4 CA 68 00 FD 15 9B 00 EF C5 O.c.....h.......
00406260 54 DE FF 03 3D E5 A5 C8 FF 60 F5 00 0C BC 86 AB T...=....`......
00406270 FD 00 C3 E9 14 7B 22 7E 3B EE 2F 80 A5 89 70 B2 .....{"~;./...p.
00406280 C6 3A 10 94 BB 7C A3 17 80 C1 00 00 4C 1E 3F 0E .:...|......L.?.
00406290 00 F6 CC 7E 42 37 CA 49 A5 48 E0 19 C9 49 4E 00 ...~B7.I.H...IN.
004062A0 8E C0 BD 00 26 F7 ED CB FF D9 22 00 00 D5 DA AD ....&.....".....
004062B0 00 00 C5 6B 62 FE 26 FF DF 62 00 23 3A FF 06 4F ...kb.&..b.#:..O
004062C0 78 96 10 DC 00 A5 00 44 0B 9D 72 5C 8D 27 AF 00 x......D..r\.'..
004062D0 89 48 D0 BC 00 3E 12 99 E8 69 68 CB FF 00 02 6F .H...>...ih....o
004062E0 D1 FD 00 02 64 D2 DF A5 4E A2 ED 1F B6 FF C0 98 ....d...N.......
004062F0 F3 A3 9E 8E 49 4E 23 D2 5E 0B 39 C1 00 14 E9 94 ....IN#.^.9.....
00406300 00 AF 32 EB 0A 33 85 81 3B 26 F9 1E D6 5F 0F 96 ..2..3..;&..._..
00406310 1D B9 46 E2 C4 25 66 93 B1 FF 00 D6 02 50 FF 93 ..F..%f......P..
00406320 DC E2 01 47 A6 BA D8 53 A6 14 9C A2 11 35 9C D0 ...G...S.....5..
00406330 00 D1 49 D0 1B 00 1C 19 5C 38 7A 70 6E 77 F1 27 ..I.....\8zpnw.'
00406340 99 89 1F FF 00 FC 47 31 0D 27 37 58 19 00 1F 1B ......G1.'7X....
00406350 33 66 C2 4C BA 2A FF E3 BB 9F 4F B5 34 34 C2 DE 3f.L.*....O.44..
00406360 43 29 00 EE 00 80 00 02 37 44 E3 E5 7B C8 52 74 C)......7D..{.Rt
00406370 FF 53 6A 1E FB E3 9C 21 D8 D9 20 B0 63 7C 9E A4 .Sj....!.. .c|..
00406380 00 FF FA 00 26 B8 CD C7 42 62 34 48 09 3C 8D 1C ....&...Bb4H.<..
00406390 8C FF CC 00 33 02 00 7D 76 60 00 E7 60 00 48 6B ....3..}v`..`.Hk
004063A0 7C BC 81 00 00 AF 5E D3 6B C1 05 6C 2A 04 C3 7A |.....^.k..l*..z
004063B0 C3 00 FD 00 9A 60 86 30 C0 63 FA 00 F2 28 01 90 .....`.0.c...(..
004063C0 B5 FF 00 F1 00 0B E1 FF 04 41 A1 B0 E2 0D 23 30 .........A....#0
004063D0 87 E8 30 78 C2 B4 4C 5B 38 00 8D 14 17 28 58 14 ..0x..L[8....(X.
004063E0 AA FF FC 00 CD BA 00 17 54 C8 FF 3E 6B C9 8F 00 ........T..>k...
004063F0 1A 00 F9 59 FF C6 FB DF 6D 02 B0 F5 00 4E E8 02 ...Y....m....N..
00406400 41 E0 F0 01 C6 08 FF FB 46 99 69 20 BC F1 B2 5F A.......F.i ..._
00406410 DD 6E 70 B0 6F 00 08 F7 C4 9E 2A 00 0A 00 E6 BE .np.o.....*.....
00406420 00 3D FF FE A2 06 C9 29 60 58 9E 32 00 30 60 00 .=.....)`X.2.0`.
00406430 66 7A 72 A2 56 DF BF 0D 1B B7 00 78 22 00 00 C7 fzr.V......x"...
00406440 00 1C AE 00 40 D0 AF 5F 88 FF E9 3F 13 43 13 00 ....@.._...?.C..
00406450 EE 03 00 04 43 E7 0C F4 DF 00 AB F5 08 8C 3C BD ....C.........<.
00406460 01 65 B1 F6 00 AF FA 96 F0 70 D8 00 25 CE 6A 84 .e.......p..%.j.
00406470 36 F6 1A A6 FF 4F BD 2E 2D 00 83 E6 47 00 62 12 6....O..-...G.b.
00406480 D8 28 E3 00 FF 0C E9 4D A4 3B 00 02 76 B7 3E 10 .(.....M.;..v.>.
00406490 00 26 EE 86 8C EA E8 A9 C7 D1 38 C3 B2 A1 A6 AE .&........8.....
004064A0 67 BB E4 7B 00 10 10 8D 00 99 33 68 F8 FB 63 FA g..{......3h..c.
004064B0 00 BD FC 91 42 78 05 10 80 E9 CF 00 2F BB 0B 31 ....Bx....../..1
004064C0 BF 51 93 EC 58 4E 04 5B 0F 77 1C 3E 92 F5 C9 09 .Q..XN.[.w.>....
004064D0 CF 48 37 30 A7 A9 00 00 05 8B A1 02 EE 08 7C 76 .H70..........|v
004064E0 D3 03 83 FF FB 00 EC 08 C1 40 80 CE AE DF 60 7C .........@....`|
004064F0 D7 03 46 00 62 C5 00 36 D0 6D 37 14 09 14 06 DB ..F.b..6.m7.....
00406500 8A EA 40 B0 00 62 F1 FC 78 3A DF 3F 19 BF 67 D2 ..@..b..x:.?..g.
00406510 90 2D 86 00 0C 2C 83 70 3C 61 00 33 FF 20 BA B4 .-...,.p<a.3. ..
00406520 7E 9D C8 33 0A E8 04 50 E5 C8 00 C6 C7 31 FE 00 ~..3...P.....1..
00406530 9E 11 86 00 3C 71 AC 51 1E 57 EF F0 07 EF C6 3A ....<q.Q.W.....:
00406540 B3 9D CF A6 41 4B E9 41 5A A7 80 B2 30 2C 42 E4 ....AK.AZ...0,B.
00406550 20 09 79 05 CC B7 72 62 86 00 00 C6 7C 1A 9D 9E  .y...rb....|...
00406560 00 65 4E 45 00 2C 00 11 01 BD 00 00 71 E3 E1 6B .eNE.,......q..k
00406570 00 FF 0A 72 29 FE 6A 00 C6 3D F7 D9 28 44 D9 02 ...r).j..=..(D..
00406580 22 93 50 BB E4 8A 8D 9E 00 87 BC 83 34 F2 D5 6A ".P.........4..j
00406590 36 9A B6 EF 00 28 B0 20 AF 77 74 3A 44 D8 27 E0 6....(. .wt:D.'.
004065A0 22 93 00 10 25 8C 00 32 75 39 FF 1C DF C2 A4 CE "...%..2u9......
004065B0 9A 4E B1 B8 15 4E 18 59 26 FF 2C 0E 20 63 00 FC .N...N.Y&.,. c..
004065C0 68 DF 72 57 FF CA 1D 00 68 17 48 64 A1 F3 EC 12 h.rW....h.Hd....
004065D0 C5 24 A1 8F 90 19 76 66 06 F2 75 9E D9 8C FF 2A .$....vf..u....*
004065E0 87 FD FF 08 E0 6C FF D6 FF D7 AB 9D 3B A2 97 BD .....l......;...
004065F0 FF 89 DF 92 52 2A 25 35 E0 4F 9E B5 B3 E4 98 82 ....R*%5.O......
00406600 00 00 00 00 00 00 00 00 00 00 00 00 00 00 00 00 ................
00406610 00 00 00 00 00 00 00 00 00 00 00 00 00 00 00 00 ................
00406620 00 00 00 00 00 00 00 00 00 00 00 00 00 00 00 00 ................
00406630 00 00 00 00 00 00 00 00 00 00 00 00 00 00 00 00 ................
00406640 00 00 00 00 00 00 00 00 00 00 00 00 00 00 00 00 ................
00406650 00 00 00 00 00 00 00 00 00 00 00 00 00 00 00 00 ................
00406660 00 00 00 00 00 00 00 00 00 00 00 00 00 00 00 00 ................
00406670 00 00 00 00 00 00 00 00 00 00 00 00 00 00 00 00 ................
00406680 00 00 00 00 00 00 00 00 00 00 00 00 00 00 00 00 ................
00406690 00 00 00 00 00 00 00 00 00 00 00 00 00 00 00 00 ................
004066A0 00 00 00 00 00 00 00 00 00 00 00 00 00 00 00 00 ................
004066B0 00 00 00 00 00 00 00 00 00 00 00 00 00 00 00 00 ................
004066C0 00 00 00 00 00 00 00 00 00 00 00 00 00 00 00 00 ................
004066D0 00 00 00 00 00 00 00 00 00 00 00 00 00 00 00 00 ................
004066E0 00 00 00 00 00 00 00 00 00 00 00 00 00 00 00 00 ................
004066F0 00 00 00 00 00 00 00 00 00 00 00 00 00 00 00 00 ................
00406700 00 00 00 00 00 00 00 00 00 00 00 00 00 00 00 00 ................
00406710 00 00 00 00 00 00 00 00 00 00 00 00 00 00 00 00 ................
00406720 00 00 00 00 00 00 00 00 00 00 00 00 00 00 00 00 ................
00406730 00 00 00 00 00 00 00 00 00 00 00 00 00 00 00 00 ................
00406740 00 00 00 00 00 00 00 00 00 00 00 00 00 00 00 00 ................
00406750 00 00 00 00 00 00 00 00 00 00 00 00 00 00 00 00 ................
00406760 00 00 00 00 00 00 00 00 00 00 00 00 00 00 00 00 ................
00406770 00 00 00 00 00 00 00 00 00 00 00 00 00 00 00 00 ................
00406780 00 00 00 00 00 00 00 00 00 00 00 00 00 00 00 00 ................
00406790 00 00 00 00 00 00 00 00 00 00 00 00 00 00 00 00 ................
004067A0 00 00 00 00 00 00 00 00 00 00 00 00 00 00 00 00 ................
004067B0 00 00 00 00 00 00 00 00 00 00 00 00 00 00 00 00 ................
004067C0 00 00 00 00 00 00 00 00 00 00 00 00 00 00 00 00 ................
004067D0 00 00 00 00 00 00 00 00 00 00 00 00 00 00 00 00 ................
004067E0 00 00 00 00 00 00 00 00 00 00 00 00 00 00 00 00 ................
004067F0 00 00 00 00 00 00 00 00 00 00 00 00 00 00 00 00 ................
00406800 00 00 00 00 00 00 00 00 00 00 00 00 00 00 00 00 ................
00406810 00 00 00 00 00 00 00 00 00 00 00 00 00 00 00 00 ................
00406820 00 00 00 00 00 00 00 00 00 00 00 00 00 00 00 00 ................
00406830 00 00 00 00 00 00 00 00 00 00 00 00 00 00 00 00 ................
00406840 00 00 00 00 00 00 00 00 00 00 00 00 00 00 00 00 ................
00406850 00 00 00 00 00 00 00 00 00 00 00 00 00 00 00 00 ................
00406860 00 00 00 00 00 00 00 00 00 00 00 00 00 00 00 00 ................
00406870 00 00 00 00 00 00 00 00 00 00 00 00 00 00 00 00 ................
00406880 00 00 00 00 00 00 00 00 00 00 00 00 00 00 00 00 ................
00406890 00 00 00 00 00 00 00 00 00 00 00 00 00 00 00 00 ................
004068A0 00 00 00 00 00 00 00 00 00 00 00 00 00 00 00 00 ................
004068B0 00 00 00 00 00 00 00 00 00 00 00 00 00 00 00 00 ................
004068C0 00 00 00 00 00 00 00 00 00 00 00 00 00 00 00 00 ................
004068D0 00 00 00 00 00 00 00 00 00 00 00 00 00 00 00 00 ................
004068E0 00 00 00 00 00 00 00 00 00 00 00 00 00 00 00 00 ................
004068F0 00 00 00 00 00 00 00 00 00 00 00 00 00 00 00 00 ................
00406900 00 00 00 00 00 00 00 00 00 00 00 00 00 00 00 00 ................
00406910 00 00 00 00 00 00 00 00 00 00 00 00 00 00 00 00 ................
00406920 00 00 00 00 00 00 00 00 00 00 00 00 00 00 00 00 ................
00406930 00 00 00 00 00 00 00 00 00 00 00 00 00 00 00 00 ................
00406940 00 00 00 00 00 00 00 00 00 00 00 00 00 00 00 00 ................
00406950 00 00 00 00 00 00 00 00 00 00 00 00 00 00 00 00 ................
00406960 00 00 00 00 00 00 00 00 00 00 00 00 00 00 00 00 ................
00406970 00 00 00 00 00 00 00 00 00 00 00 00 00 00 00 00 ................
00406980 00 00 00 00 00 00 00 00 00 00 00 00 00 00 00 00 ................
00406990 00 00 00 00 00 00 00 00 00 00 00 00 00 00 00 00 ................
004069A0 00 00 00 00 00 00 00 00 00 00 00 00 00 00 00 00 ................
004069B0 00 00 00 00 00 00 00 00 00 00 00 00 00 00 00 00 ................
004069C0 00 00 00 00 00 00 00 00 00 00 00 00 00 00 00 00 ................
004069D0 00 00 00 00 00 00 00 00 00 00 00 00 00 00 00 00 ................
004069E0 00 00 00 00 00 00 00 00 00 00 00 00 00 00 00 00 ................
004069F0 00 00 00 00 00 00 00 00 00 00 00 00 00 00 00 00 ................
00406A00 00 00 00 00 00 00 00 00 00 00 00 00 00 00 00 00 ................
00406A10 00 00 00 00 00 00 00 00 00 00 00 00 00 00 00 00 ................
00406A20 00 00 00 00 00 00 00 00 00 00 00 00 00 00 00 00 ................
00406A30 00 00 00 00 00 00 00 00 00 00 00 00 00 00 00 00 ................
00406A40 00 00 00 00 00 00 00 00 00 00 00 00 00 00 00 00 ................
00406A50 00 00 00 00 00 00 00 00 00 00 00 00 00 00 00 00 ................
00406A60 00 00 00 00 00 00 00 00 00 00 00 00 00 00 00 00 ................
00406A70 00 00 00 00 00 00 00 00 00 00 00 00 00 00 00 00 ................
00406A80 00 00 00 00 00 00 00 00 00 00 00 00 00 00 00 00 ................
00406A90 00 00 00 00 00 00 00 00 00 00 00 00 00 00 00 00 ................
00406AA0 00 00 00 00 00 00 00 00 00 00 00 00 00 00 00 00 ................
00406AB0 00 00 00 00 00 00 00 00 00 00 00 00 00 00 00 00 ................
00406AC0 00 00 00 00 00 00 00 00 00 00 00 00 00 00 00 00 ................
00406AD0 00 00 00 00 00 00 00 00 00 00 00 00 00 00 00 00 ................
00406AE0 00 00 00 00 00 00 00 00 00 00 00 00 00 00 00 00 ................
00406AF0 00 00 00 00 00 00 00 00 00 00 00 00 00 00 00 00 ................
00406B00 00 00 00 00 00 00 00 00 00 00 00 00 00 00 00 00 ................
00406B10 00 00 00 00 00 00 00 00 00 00 00 00 00 00 00 00 ................
00406B20 00 00 00 00 00 00 00 00 00 00 00 00 00 00 00 00 ................
00406B30 00 00 00 00 00 00 00 00 00 00 00 00 00 00 00 00 ................
00406B40 00 00 00 00 00 00 00 00 00 00 00 00 00 00 00 00 ................
00406B50 00 00 00 00 00 00 00 00 00 00 00 00 00 00 00 00 ................
00406B60 00 00 00 00 00 00 00 00 00 00 00 00 00 00 00 00 ................
00406B70 00 00 00 00 00 00 00 00 00 00 00 00 00 00 00 00 ................
00406B80 00 00 00 00 00 00 00 00 00 00 00 00 00 00 00 00 ................
00406B90 00 00 00 00 00 00 00 00 00 00 00 00 00 00 00 00 ................
00406BA0 00 00 00 00 00 00 00 00 00 00 00 00 00 00 00 00 ................
00406BB0 00 00 00 00 00 00 00 00 00 00 00 00 00 00 00 00 ................
00406BC0 00 00 00 00 00 00 00 00 00 00 00 00 00 00 00 00 ................
00406BD0 00 00 00 00 00 00 00 00 00 00 00 00 00 00 00 00 ................
00406BE0 00 00 00 00 00 00 00 00 00 00 00 00 00 00 00 00 ................
00406BF0 00 00 00 00 00 00 00 00 00 00 00 00 00 00 00 00 ................
00406C00 00 00 00 00 00 00 00 00 00 00 00 00 00 00 00 00 ................
00406C10 00 00 00 00 00 00 00 00 00 00 00 00 00 00 00 00 ................
00406C20 00 00 00 00 00 00 00 00 00 00 00 00 00 00 00 00 ................
00406C30 00 00 00 00 00 00 00 00 00 00 00 00 00 00 00 00 ................
00406C40 00 00 00 00 00 00 00 00 00 00 00 00 00 00 00 00 ................
00406C50 00 00 00 00 00 00 00 00 00 00 00 00 00 00 00 00 ................
00406C60 00 00 00 00 00 00 00 00 00 00 00 00 00 00 00 00 ................
00406C70 00 00 00 00 00 00 00 00 00 00 00 00 00 00 00 00 ................
00406C80 00 00 00 00 00 00 00 00 00 00 00 00 00 00 00 00 ................
00406C90 00 00 00 00 00 00 00 00 00 00 00 00 00 00 00 00 ................
00406CA0 00 00 00 00 00 00 00 00 00 00 00 00 00 00 00 00 ................
00406CB0 00 00 00 00 00 00 00 00 00 00 00 00 00 00 00 00 ................
00406CC0 00 00 00 00 00 00 00 00 00 00 00 00 00 00 00 00 ................
00406CD0 00 00 00 00 00 00 00 00 00 00 00 00 00 00 00 00 ................
00406CE0 00 00 00 00 00 00 00 00 00 00 00 00 00 00 00 00 ................
00406CF0 00 00 00 00 00 00 00 00 00 00 00 00 00 00 00 00 ................
00406D00 00 00 00 00 00 00 00 00 00 00 00 00 00 00 00 00 ................
00406D10 00 00 00 00 00 00 00 00 00 00 00 00 00 00 00 00 ................
00406D20 00 00 00 00 00 00 00 00 00 00 00 00 00 00 00 00 ................
00406D30 00 00 00 00 00 00 00 00 00 00 00 00 00 00 00 00 ................
00406D40 00 00 00 00 00 00 00 00 00 00 00 00 00 00 00 00 ................
00406D50 00 00 00 00 00 00 00 00 00 00 00 00 00 00 00 00 ................
00406D60 00 00 00 00 00 00 00 00 00 00 00 00 00 00 00 00 ................
00406D70 00 00 00 00 00 00 00 00 00 00 00 00 00 00 00 00 ................
00406D80 00 00 00 00 00 00 00 00 00 00 00 00 00 00 00 00 ................
00406D90 00 00 00 00 00 00 00 00 00 00 00 00 00 00 00 00 ................
00406DA0 00 00 00 00 00 00 00 00 00 00 00 00 00 00 00 00 ................
00406DB0 00 00 00 00 00 00 00 00 00 00 00 00 00 00 00 00 ................
00406DC0 00 00 00 00 00 00 00 00 00 00 00 00 00 00 00 00 ................
00406DD0 00 00 00 00 00 00 00 00 00 00 00 00 00 00 00 00 ................
00406DE0 00 00 00 00 00 00 00 00 00 00 00 00 00 00 00 00 ................
00406DF0 00 00 00 00 00 00 00 00 00 00 00 00 00 00 00 00 ................
00406E00 00 00 00 00 00 00 00 00 00 00 00 00 00 00 00 00 ................
00406E10 00 00 00 00 00 00 00 00 00 00 00 00 00 00 00 00 ................
00406E20 00 00 00 00 00 00 00 00 00 00 00 00 00 00 00 00 ................
00406E30 00 00 00 00 00 00 00 00 00 00 00 00 00 00 00 00 ................
00406E40 00 00 00 00 00 00 00 00 00 00 00 00 00 00 00 00 ................
00406E50 00 00 00 00 00 00 00 00 00 00 00 00 00 00 00 00 ................
00406E60 00 00 00 00 00 00 00 00 00 00 00 00 00 00 00 00 ................
00406E70 00 00 00 00 00 00 00 00 00 00 00 00 00 00 00 00 ................
00406E80 00 00 00 00 00 00 00 00 00 00 00 00 00 00 00 00 ................
00406E90 00 00 00 00 00 00 00 00 00 00 00 00 00 00 00 00 ................
00406EA0 00 00 00 00 00 00 00 00 00 00 00 00 00 00 00 00 ................
00406EB0 00 00 00 00 00 00 00 00 00 00 00 00 00 00 00 00 ................
00406EC0 00 00 00 00 00 00 00 00 00 00 00 00 00 00 00 00 ................
00406ED0 00 00 00 00 00 00 00 00 00 00 00 00 00 00 00 00 ................
00406EE0 00 00 00 00 00 00 00 00 00 00 00 00 00 00 00 00 ................
00406EF0 00 00 00 00 00 00 00 00 00 00 00 00 00 00 00 00 ................
00406F00 00 00 00 00 00 00 00 00 00 00 00 00 00 00 00 00 ................
00406F10 00 00 00 00 00 00 00 00 00 00 00 00 00 00 00 00 ................
00406F20 00 00 00 00 00 00 00 00 00 00 00 00 00 00 00 00 ................
00406F30 00 00 00 00 00 00 00 00 00 00 00 00 00 00 00 00 ................
00406F40 00 00 00 00 00 00 00 00 00 00 00 00 00 00 00 00 ................
00406F50 00 00 00 00 00 00 00 00 00 00 00 00 00 00 00 00 ................
00406F60 00 00 00 00 00 00 00 00 00 00 00 00 00 00 00 00 ................
00406F70 00 00 00 00 00 00 00 00 00 00 00 00 00 00 00 00 ................
00406F80 00 00 00 00 00 00 00 00 00 00 00 00 00 00 00 00 ................
00406F90 00 00 00 00 00 00 00 00 00 00 00 00 00 00 00 00 ................
00406FA0 00 00 00 00 00 00 00 00 00 00 00 00 00 00 00 00 ................
00406FB0 00 00 00 00 00 00 00 00 00 00 00 00 00 00 00 00 ................
00406FC0 00 00 00 00 00 00 00 00 00 00 00 00 00 00 00 00 ................
00406FD0 00 00 00 00 00 00 00 00 00 00 00 00 00 00 00 00 ................
00406FE0 00 00 00 00 00 00 00 00 00 00 00 00 00 00 00 00 ................
00406FF0 00 00 00 00 00 00 00 00 00 00 00 00 00 00 00 00 ................
00407000 00 00 00 00 00 00 00 00 00 00 00 00 00 00 00 00 ................
00407010 00 00 00 00 00 00 00 00 00 00 00 00 00 00 00 00 ................
00407020 00 00 00 00 00 00 00 00 00 00 00 00 00 00 00 00 ................
00407030 00 00 00 00 00 00 00 00 00 00 00 00 00 00 00 00 ................
00407040 00 00 00 00 00 00 00 00 00 00 00 00 00 00 00 00 ................
00407050 00 00 00 00 00 00 00 00 00 00 00 00 00 00 00 00 ................
00407060 00 00 00 00 00 00 00 00 00 00 00 00 00 00 00 00 ................
00407070 00 00 00 00 00 00 00 00 00 00 00 00 00 00 00 00 ................
00407080 00 00 00 00 00 00 00 00 00 00 00 00 00 00 00 00 ................
00407090 00 00 00 00 00 00 00 00 00 00 00 00 00 00 00 00 ................
004070A0 00 00 00 00 00 00 00 00 00 00 00 00 00 00 00 00 ................
004070B0 00 00 00 00 00 00 00 00 00 00 00 00 00 00 00 00 ................
004070C0 00 00 00 00 00 00 00 00 00 00 00 00 00 00 00 00 ................
004070D0 00 00 00 00 00 00 00 00 00 00 00 00 00 00 00 00 ................
004070E0 00 00 00 00 00 00 00 00 00 00 00 00 00 00 00 00 ................
004070F0 00 00 00 00 00 00 00 00 00 00 00 00 00 00 00 00 ................
00407100 00 00 00 00 00 00 00 00 00 00 00 00 00 00 00 00 ................
00407110 00 00 00 00 00 00 00 00 00 00 00 00 00 00 00 00 ................
00407120 00 00 00 00 00 00 00 00 00 00 00 00 00 00 00 00 ................
00407130 00 00 00 00 00 00 00 00 00 00 00 00 00 00 00 00 ................
00407140 00 00 00 00 00 00 00 00 00 00 00 00 00 00 00 00 ................
00407150 00 00 00 00 00 00 00 00 00 00 00 00 00 00 00 00 ................
00407160 00 00 00 00 00 00 00 00 00 00 00 00 00 00 00 00 ................
00407170 00 00 00 00 00 00 00 00 00 00 00 00 00 00 00 00 ................
00407180 00 00 00 00 00 00 00 00 00 00 00 00 00 00 00 00 ................
00407190 00 00 00 00 00 00 00 00 00 00 00 00 00 00 00 00 ................
004071A0 00 00 00 00 00 00 00 00 00 00 00 00 00 00 00 00 ................
004071B0 00 00 00 00 00 00 00 00 00 00 00 00 00 00 00 00 ................
004071C0 00 00 00 00 00 00 00 00 00 00 00 00 00 00 00 00 ................
004071D0 00 00 00 00 00 00 00 00 00 00 00 00 00 00 00 00 ................
004071E0 00 00 00 00 00 00 00 00 00 00 00 00 00 00 00 00 ................
004071F0 00 00 00 00 00 00 00 00 00 00 00 00 00 00 00 00 ................
00407200 00 00 00 00 00 00 00 00 00 00 00 00 00 00 00 00 ................
00407210 00 00 00 00 00 00 00 00 00 00 00 00 00 00 00 00 ................
00407220 00 00 00 00 00 00 00 00 00 00 00 00 00 00 00 00 ................
00407230 00 00 00 00 00 00 00 00 00 00 00 00 00 00 00 00 ................
00407240 00 00 00 00 00 00 00 00 00 00 00 00 00 00 00 00 ................
00407250 00 00 00 00 00 00 00 00 00 00 00 00 00 00 00 00 ................
00407260 00 00 00 00 00 00 00 00 00 00 00 00 00 00 00 00 ................
00407270 00 00 00 00 00 00 00 00 00 00 00 00 00 00 00 00 ................
00407280 00 00 00 00 00 00 00 00 00 00 00 00 00 00 00 00 ................
00407290 00 00 00 00 00 00 00 00 00 00 00 00 00 00 00 00 ................
004072A0 00 00 00 00 00 00 00 00 00 00 00 00 00 00 00 00 ................
004072B0 00 00 00 00 00 00 00 00 00 00 00 00 00 00 00 00 ................
004072C0 00 00 00 00 00 00 00 00 00 00 00 00 00 00 00 00 ................
004072D0 00 00 00 00 00 00 00 00 00 00 00 00 00 00 00 00 ................
004072E0 00 00 00 00 00 00 00 00 00 00 00 00 00 00 00 00 ................
004072F0 00 00 00 00 00 00 00 00 00 00 00 00 00 00 00 00 ................
00407300 00 00 00 00 00 00 00 00 00 00 00 00 00 00 00 00 ................
00407310 00 00 00 00 00 00 00 00 00 00 00 00 00 00 00 00 ................
00407320 00 00 00 00 00 00 00 00 00 00 00 00 00 00 00 00 ................
00407330 00 00 00 00 00 00 00 00 00 00 00 00 00 00 00 00 ................
00407340 00 00 00 00 00 00 00 00 00 00 00 00 00 00 00 00 ................
00407350 00 00 00 00 00 00 00 00 00 00 00 00 00 00 00 00 ................
00407360 00 00 00 00 00 00 00 00 00 00 00 00 00 00 00 00 ................
00407370 00 00 00 00 00 00 00 00 00 00 00 00 00 00 00 00 ................
00407380 00 00 00 00 00 00 00 00 00 00 00 00 00 00 00 00 ................
00407390 00 00 00 00 00 00 00 00 00 00 00 00 00 00 00 00 ................
004073A0 00 00 00 00 00 00 00 00 00 00 00 00 00 00 00 00 ................
004073B0 00 00 00 00 00 00 00 00 00 00 00 00 00 00 00 00 ................
004073C0 00 00 00 00 00 00 00 00 00 00 00 00 00 00 00 00 ................
004073D0 00 00 00 00 00 00 00 00 00 00 00 00 00 00 00 00 ................
004073E0 00 00 00 00 00 00 00 00 00 00 00 00 00 00 00 00 ................
004073F0 00 00 00 00 00 00 00 00 00 00 00 00 00 00 00 00 ................
00407400 00 00 00 00 00 00 00 00 00 00 00 00 00 00 00 00 ................
00407410 00 00 00 00 00 00 00 00 00 00 00 00 00 00 00 00 ................
00407420 00 00 00 00 00 00 00 00 00 00 00 00 00 00 00 00 ................
00407430 00 00 00 00 00 00 00 00 00 00 00 00 00 00 00 00 ................
00407440 00 00 00 00 00 00 00 00 00 00 00 00 00 00 00 00 ................
00407450 00 00 00 00 00 00 00 00 00 00 00 00 00 00 00 00 ................
00407460 00 00 00 00 00 00 00 00 00 00 00 00 00 00 00 00 ................
00407470 00 00 00 00 00 00 00 00 00 00 00 00 00 00 00 00 ................
00407480 00 00 00 00 00 00 00 00 00 00 00 00 00 00 00 00 ................
00407490 00 00 00 00 00 00 00 00 00 00 00 00 00 00 00 00 ................
004074A0 00 00 00 00 00 00 00 00 00 00 00 00 00 00 00 00 ................
004074B0 00 00 00 00 00 00 00 00 00 00 00 00 00 00 00 00 ................
004074C0 00 00 00 00 00 00 00 00 00 00 00 00 00 00 00 00 ................
004074D0 00 00 00 00 00 00 00 00 00 00 00 00 00 00 00 00 ................
004074E0 00 00 00 00 00 00 00 00 00 00 00 00 00 00 00 00 ................
004074F0 00 00 00 00 00 00 00 00 00 00 00 00 00 00 00 00 ................
00407500 00 00 00 00 00 00 00 00 00 00 00 00 00 00 00 00 ................
00407510 00 00 00 00 00 00 00 00 00 00 00 00 00 00 00 00 ................
00407520 00 00 00 00 00 00 00 00 00 00 00 00 00 00 00 00 ................
00407530 00 00 00 00 00 00 00 00 00 00 00 00 00 00 00 00 ................
00407540 00 00 00 00 00 00 00 00 00 00 00 00 00 00 00 00 ................
00407550 00 00 00 00 00 00 00 00 00 00 00 00 00 00 00 00 ................
00407560 00 00 00 00 00 00 00 00 00 00 00 00 00 00 00 00 ................
00407570 00 00 00 00 00 00 00 00 00 00 00 00 00 00 00 00 ................
00407580 00 00 00 00 00 00 00 00 00 00 00 00 00 00 00 00 ................
00407590 00 00 00 00 00 00 00 00 00 00 00 00 00 00 00 00 ................
004075A0 00 00 00 00 00 00 00 00 00 00 00 00 00 00 00 00 ................
004075B0 00 00 00 00 00 00 00 00 00 00 00 00 00 00 00 00 ................
004075C0 00 00 00 00 00 00 00 00 00 00 00 00 00 00 00 00 ................
004075D0 00 00 00 00 00 00 00 00 00 00 00 00 00 00 00 00 ................
004075E0 00 00 00 00 00 00 00 00 00 00 00 00 00 00 00 00 ................
004075F0 00 00 00 00 00 00 00 00 00 00 00 00 00 00 00 00 ................
00407600 00 00 00 00 00 00 00 00 00 00 00 00 00 00 00 00 ................
00407610 00 00 00 00 00 00 00 00 00 00 00 00 00 00 00 00 ................
00407620 00 00 00 00 00 00 00 00 00 00 00 00 00 00 00 00 ................
00407630 00 00 00 00 00 00 00 00 00 00 00 00 00 00 00 00 ................
00407640 00 00 00 00 00 00 00 00 00 00 00 00 00 00 00 00 ................
00407650 00 00 00 00 00 00 00 00 00 00 00 00 00 00 00 00 ................
00407660 00 00 00 00 00 00 00 00 00 00 00 00 00 00 00 00 ................
00407670 00 00 00 00 00 00 00 00 00 00 00 00 00 00 00 00 ................
00407680 00 00 00 00 00 00 00 00 00 00 00 00 00 00 00 00 ................
00407690 00 00 00 00 00 00 00 00 00 00 00 00 00 00 00 00 ................
004076A0 00 00 00 00 00 00 00 00 00 00 00 00 00 00 00 00 ................
004076B0 00 00 00 00 00 00 00 00 00 00 00 00 00 00 00 00 ................
004076C0 00 00 00 00 00 00 00 00 00 00 00 00 00 00 00 00 ................
004076D0 00 00 00 00 00 00 00 00 00 00 00 00 00 00 00 00 ................
004076E0 00 00 00 00 00 00 00 00 00 00 00 00 00 00 00 00 ................
004076F0 00 00 00 00 00 00 00 00 00 00 00 00 00 00 00 00 ................
00407700 00 00 00 00 00 00 00 00 00 00 00 00 00 00 00 00 ................
00407710 00 00 00 00 00 00 00 00 00 00 00 00 00 00 00 00 ................
00407720 00 00 00 00 00 00 00 00 00 00 00 00 00 00 00 00 ................
00407730 00 00 00 00 00 00 00 00 00 00 00 00 00 00 00 00 ................
00407740 00 00 00 00 00 00 00 00 00 00 00 00 00 00 00 00 ................
00407750 00 00 00 00 00 00 00 00 00 00 00 00 00 00 00 00 ................
00407760 00 00 00 00 00 00 00 00 00 00 00 00 00 00 00 00 ................
00407770 00 00 00 00 00 00 00 00 00 00 00 00 00 00 00 00 ................
00407780 00 00 00 00 00 00 00 00 00 00 00 00 00 00 00 00 ................
00407790 00 00 00 00 00 00 00 00 00 00 00 00 00 00 00 00 ................
004077A0 00 00 00 00 00 00 00 00 00 00 00 00 00 00 00 00 ................
004077B0 00 00 00 00 00 00 00 00 00 00 00 00 00 00 00 00 ................
004077C0 00 00 00 00 00 00 00 00 00 00 00 00 00 00 00 00 ................
004077D0 00 00 00 00 00 00 00 00 00 00 00 00 00 00 00 00 ................
004077E0 00 00 00 00 00 00 00 00 00 00 00 00 00 00 00 00 ................
004077F0 00 00 00 00 00 00 00 00 00 00 00 00 00 00 00 00 ................
00407800 00 00 00 00 00 00 00 00 00 00 00 00 00 00 00 00 ................
00407810 00 00 00 00 00 00 00 00 00 00 00 00 00 00 00 00 ................
00407820 00 00 00 00 00 00 00 00 00 00 00 00 00 00 00 00 ................
00407830 00 00 00 00 00 00 00 00 00 00 00 00 00 00 00 00 ................
00407840 00 00 00 00 00 00 00 00 00 00 00 00 00 00 00 00 ................
00407850 00 00 00 00 00 00 00 00 00 00 00 00 00 00 00 00 ................
00407860 00 00 00 00 00 00 00 00 00 00 00 00 00 00 00 00 ................
00407870 00 00 00 00 00 00 00 00 00 00 00 00 00 00 00 00 ................
00407880 00 00 00 00 00 00 00 00 00 00 00 00 00 00 00 00 ................
00407890 00 00 00 00 00 00 00 00 00 00 00 00 00 00 00 00 ................
004078A0 00 00 00 00 00 00 00 00 00 00 00 00 00 00 00 00 ................
004078B0 00 00 00 00 00 00 00 00 00 00 00 00 00 00 00 00 ................
004078C0 00 00 00 00 00 00 00 00 00 00 00 00 00 00 00 00 ................
004078D0 00 00 00 00 00 00 00 00 00 00 00 00 00 00 00 00 ................
004078E0 00 00 00 00 00 00 00 00 00 00 00 00 00 00 00 00 ................
004078F0 00 00 00 00 00 00 00 00 00 00 00 00 00 00 00 00 ................
00407900 00 00 00 00 00 00 00 00 00 00 00 00 00 00 00 00 ................
00407910 00 00 00 00 00 00 00 00 00 00 00 00 00 00 00 00 ................
00407920 00 00 00 00 00 00 00 00 00 00 00 00 00 00 00 00 ................
00407930 00 00 00 00 00 00 00 00 00 00 00 00 00 00 00 00 ................
00407940 00 00 00 00 00 00 00 00 00 00 00 00 00 00 00 00 ................
00407950 00 00 00 00 00 00 00 00 00 00 00 00 00 00 00 00 ................
00407960 00 00 00 00 00 00 00 00 00 00 00 00 00 00 00 00 ................
00407970 00 00 00 00 00 00 00 00 00 00 00 00 00 00 00 00 ................
00407980 00 00 00 00 00 00 00 00 00 00 00 00 00 00 00 00 ................
00407990 00 00 00 00 00 00 00 00 00 00 00 00 00 00 00 00 ................
004079A0 00 00 00 00 00 00 00 00 00 00 00 00 00 00 00 00 ................
004079B0 00 00 00 00 00 00 00 00 00 00 00 00 00 00 00 00 ................
004079C0 00 00 00 00 00 00 00 00 00 00 00 00 00 00 00 00 ................
004079D0 00 00 00 00 00 00 00 00 00 00 00 00 00 00 00 00 ................
004079E0 00 00 00 00 00 00 00 00 00 00 00 00 00 00 00 00 ................
004079F0 00 00 00 00 00 00 00 00 00 00 00 00 00 00 00 00 ................
00407A00 00 00 00 00 00 00 00 00 00 00 00 00 00 00 00 00 ................
00407A10 00 00 00 00 00 00 00 00 00 00 00 00 00 00 00 00 ................
00407A20 00 00 00 00 00 00 00 00 00 00 00 00 00 00 00 00 ................
00407A30 00 00 00 00 00 00 00 00 00 00 00 00 00 00 00 00 ................
00407A40 00 00 00 00 00 00 00 00 00 00 00 00 00 00 00 00 ................
00407A50 00 00 00 00 00 00 00 00 00 00 00 00 00 00 00 00 ................
00407A60 00 00 00 00 00 00 00 00 00 00 00 00 00 00 00 00 ................
00407A70 00 00 00 00 00 00 00 00 00 00 00 00 00 00 00 00 ................
00407A80 00 00 00 00 00 00 00 00 00 00 00 00 00 00 00 00 ................
00407A90 00 00 00 00 00 00 00 00 00 00 00 00 00 00 00 00 ................
00407AA0 00 00 00 00 00 00 00 00 00 00 00 00 00 00 00 00 ................
00407AB0 00 00 00 00 00 00 00 00 00 00 00 00 00 00 00 00 ................
00407AC0 00 00 00 00 00 00 00 00 00 00 00 00 00 00 00 00 ................
00407AD0 00 00 00 00 00 00 00 00 00 00 00 00 00 00 00 00 ................
00407AE0 00 00 00 00 00 00 00 00 00 00 00 00 00 00 00 00 ................
00407AF0 00 00 00 00 00 00 00 00 00 00 00 00 00 00 00 00 ................
00407B00 00 00 00 00 00 00 00 00 00 00 00 00 00 00 00 00 ................
00407B10 00 00 00 00 00 00 00 00 00 00 00 00 00 00 00 00 ................
00407B20 00 00 00 00 00 00 00 00 00 00 00 00 00 00 00 00 ................
00407B30 00 00 00 00 00 00 00 00 00 00 00 00 00 00 00 00 ................
00407B40 00 00 00 00 00 00 00 00 00 00 00 00 00 00 00 00 ................
00407B50 00 00 00 00 00 00 00 00 00 00 00 00 00 00 00 00 ................
00407B60 00 00 00 00 00 00 00 00 00 00 00 00 00 00 00 00 ................
00407B70 00 00 00 00 00 00 00 00 00 00 00 00 00 00 00 00 ................
00407B80 00 00 00 00 00 00 00 00 00 00 00 00 00 00 00 00 ................
00407B90 00 00 00 00 00 00 00 00 00 00 00 00 00 00 00 00 ................
00407BA0 00 00 00 00 00 00 00 00 00 00 00 00 00 00 00 00 ................
00407BB0 00 00 00 00 00 00 00 00 00 00 00 00 00 00 00 00 ................
00407BC0 00 00 00 00 00 00 00 00 00 00 00 00 00 00 00 00 ................
00407BD0 00 00 00 00 00 00 00 00 00 00 00 00 00 00 00 00 ................
00407BE0 00 00 00 00 00 00 00 00 00 00 00 00 00 00 00 00 ................
00407BF0 00 00 00 00 00 00 00 00 00 00 00 00 00 00 00 00 ................
00407C00 00 00 00 00 00 00 00 00 00 00 00 00 00 00 00 00 ................
00407C10 00 00 00 00 00 00 00 00 00 00 00 00 00 00 00 00 ................
00407C20 00 00 00 00 00 00 00 00 00 00 00 00 00 00 00 00 ................
00407C30 00 00 00 00 00 00 00 00 00 00 00 00 00 00 00 00 ................
00407C40 00 00 00 00 00 00 00 00 00 00 00 00 00 00 00 00 ................
00407C50 00 00 00 00 00 00 00 00 00 00 00 00 00 00 00 00 ................
00407C60 00 00 00 00 00 00 00 00 00 00 00 00 00 00 00 00 ................
00407C70 00 00 00 00 00 00 00 00 00 00 00 00 00 00 00 00 ................
00407C80 00 00 00 00 00 00 00 00 00 00 00 00 00 00 00 00 ................
00407C90 00 00 00 00 00 00 00 00 00 00 00 00 00 00 00 00 ................
00407CA0 00 00 00 00 00 00 00 00 00 00 00 00 00 00 00 00 ................
00407CB0 00 00 00 00 00 00 00 00 00 00 00 00 00 00 00 00 ................
00407CC0 00 00 00 00 00 00 00 00 00 00 00 00 00 00 00 00 ................
00407CD0 00 00 00 00 00 00 00 00 00 00 00 00 00 00 00 00 ................
00407CE0 00 00 00 00 00 00 00 00 00 00 00 00 00 00 00 00 ................
00407CF0 00 00 00 00 00 00 00 00 00 00 00 00 00 00 00 00 ................
00407D00 00 00 00 00 00 00 00 00 00 00 00 00 00 00 00 00 ................
00407D10 00 00 00 00 00 00 00 00 00 00 00 00 00 00 00 00 ................
00407D20 00 00 00 00 00 00 00 00 00 00 00 00 00 00 00 00 ................
00407D30 00 00 00 00 00 00 00 00 00 00 00 00 00 00 00 00 ................
00407D40 00 00 00 00 00 00 00 00 00 00 00 00 00 00 00 00 ................
00407D50 00 00 00 00 00 00 00 00 00 00 00 00 00 00 00 00 ................
00407D60 00 00 00 00 00 00 00 00 00 00 00 00 00 00 00 00 ................
00407D70 00 00 00 00 00 00 00 00 00 00 00 00 00 00 00 00 ................
00407D80 00 00 00 00 00 00 00 00 00 00 00 00 00 00 00 00 ................
00407D90 00 00 00 00 00 00 00 00 00 00 00 00 00 00 00 00 ................
00407DA0 00 00 00 00 00 00 00 00 00 00 00 00 00 00 00 00 ................
00407DB0 00 00 00 00 00 00 00 00 00 00 00 00 00 00 00 00 ................
00407DC0 00 00 00 00 00 00 00 00 00 00 00 00 00 00 00 00 ................
00407DD0 00 00 00 00 00 00 00 00 00 00 00 00 00 00 00 00 ................
00407DE0 00 00 00 00 00 00 00 00 00 00 00 00 00 00 00 00 ................
00407DF0 00 00 00 00 00 00 00 00 00 00 00 00 00 00 00 00 ................
00407E00 00 00 00 00 00 00 00 00 00 00 00 00 00 00 00 00 ................
00407E10 00 00 00 00 00 00 00 00 00 00 00 00 00 00 00 00 ................
00407E20 00 00 00 00 00 00 00 00 00 00 00 00 00 00 00 00 ................
00407E30 00 00 00 00 00 00 00 00 00 00 00 00 00 00 00 00 ................
00407E40 00 00 00 00 00 00 00 00 00 00 00 00 00 00 00 00 ................
00407E50 00 00 00 00 00 00 00 00 00 00 00 00 00 00 00 00 ................
00407E60 00 00 00 00 00 00 00 00 00 00 00 00 00 00 00 00 ................
00407E70 00 00 00 00 00 00 00 00 00 00 00 00 00 00 00 00 ................
00407E80 00 00 00 00 00 00 00 00 00 00 00 00 00 00 00 00 ................
00407E90 00 00 00 00 00 00 00 00 00 00 00 00 00 00 00 00 ................
00407EA0 00 00 00 00 00 00 00 00 00 00 00 00 00 00 00 00 ................
00407EB0 00 00 00 00 00 00 00 00 00 00 00 00 00 00 00 00 ................
00407EC0 00 00 00 00 00 00 00 00 00 00 00 00 00 00 00 00 ................
00407ED0 00 00 00 00 00 00 00 00 00 00 00 00 00 00 00 00 ................
00407EE0 00 00 00 00 00 00 00 00 00 00 00 00 00 00 00 00 ................
00407EF0 00 00 00 00 00 00 00 00 00 00 00 00 00 00 00 00 ................
00407F00 00 00 00 00 00 00 00 00 00 00 00 00 00 00 00 00 ................
00407F10 00 00 00 00 00 00 00 00 00 00 00 00 00 00 00 00 ................
00407F20 00 00 00 00 00 00 00 00 00 00 00 00 00 00 00 00 ................
00407F30 00 00 00 00 00 00 00 00 00 00 00 00 00 00 00 00 ................
00407F40 00 00 00 00 00 00 00 00 00 00 00 00 00 00 00 00 ................
00407F50 00 00 00 00 00 00 00 00 00 00 00 00 00 00 00 00 ................
00407F60 00 00 00 00 00 00 00 00 00 00 00 00 00 00 00 00 ................
00407F70 00 00 00 00 00 00 00 00 00 00 00 00 00 00 00 00 ................
00407F80 00 00 00 00 00 00 00 00 00 00 00 00 00 00 00 00 ................
00407F90 00 00 00 00 00 00 00 00 00 00 00 00 00 00 00 00 ................
00407FA0 00 00 00 00 00 00 00 00 00 00 00 00 00 00 00 00 ................
00407FB0 00 00 00 00 00 00 00 00 00 00 00 00 00 00 00 00 ................
00407FC0 00 00 00 00 00 00 00 00 00 00 00 00 00 00 00 00 ................
00407FD0 00 00 00 00 00 00 00 00 00 00 00 00 00 00 00 00 ................
00407FE0 00 00 00 00 00 00 00 00 00 00 00 00 00 00 00 00 ................
00407FF0 00 00 00 00 00 00 00 00 00 00 00 00 00 00 00 00 ................
00408000 00 00 00 00 00 00 00 00 00 00 00 00 00 00 00 00 ................
00408010 00 00 00 00 00 00 00 00 00 00 00 00 00 00 00 00 ................
00408020 00 00 00 00 00 00 00 00 00 00 00 00 00 00 00 00 ................
00408030 00 00 00 00 00 00 00 00 00 00 00 00 00 00 00 00 ................
00408040 00 00 00 00 00 00 00 00 00 00 00 00 00 00 00 00 ................
00408050 00 00 00 00 00 00 00 00 00 00 00 00 00 00 00 00 ................
00408060 00 00 00 00 00 00 00 00 00 00 00 00 00 00 00 00 ................
00408070 00 00 00 00 00 00 00 00 00 00 00 00 00 00 00 00 ................
00408080 00 00 00 00 00 00 00 00 00 00 00 00 00 00 00 00 ................
00408090 00 00 00 00 00 00 00 00 00 00 00 00 00 00 00 00 ................
004080A0 00 00 00 00 00 00 00 00 00 00 00 00 00 00 00 00 ................
004080B0 00 00 00 00 00 00 00 00 00 00 00 00 00 00 00 00 ................
004080C0 00 00 00 00 00 00 00 00 00 00 00 00 00 00 00 00 ................
004080D0 00 00 00 00 00 00 00 00 00 00 00 00 00 00 00 00 ................
004080E0 00 00 00 00 00 00 00 00 00 00 00 00 00 00 00 00 ................
004080F0 00 00 00 00 00 00 00 00 00 00 00 00 00 00 00 00 ................
00408100 00 00 00 00 00 00 00 00 00 00 00 00 00 00 00 00 ................
00408110 00 00 00 00 00 00 00 00 00 00 00 00 00 00 00 00 ................
00408120 00 00 00 00 00 00 00 00 00 00 00 00 00 00 00 00 ................
00408130 00 00 00 00 00 00 00 00 00 00 00 00 00 00 00 00 ................
00408140 00 00 00 00 00 00 00 00 00 00 00 00 00 00 00 00 ................
00408150 00 00 00 00 00 00 00 00 00 00 00 00 00 00 00 00 ................
00408160 00 00 00 00 00 00 00 00 00 00 00 00 00 00 00 00 ................
00408170 00 00 00 00 00 00 00 00 00 00 00 00 00 00 00 00 ................
00408180 00 00 00 00 00 00 00 00 00 00 00 00 00 00 00 00 ................
00408190 00 00 00 00 00 00 00 00 00 00 00 00 00 00 00 00 ................
004081A0 00 00 00 00 00 00 00 00 00 00 00 00 00 00 00 00 ................
004081B0 00 00 00 00 00 00 00 00 00 00 00 00 00 00 00 00 ................
004081C0 00 00 00 00 00 00 00 00 00 00 00 00 00 00 00 00 ................
004081D0 00 00 00 00 00 00 00 00 00 00 00 00 00 00 00 00 ................
004081E0 00 00 00 00 00 00 00 00 00 00 00 00 00 00 00 00 ................
004081F0 00 00 00 00 00 00 00 00 00 00 00 00 00 00 00 00 ................
00408200 00 00 00 00 00 00 00 00 00 00 00 00 00 00 00 00 ................
00408210 00 00 00 00 00 00 00 00 00 00 00 00 00 00 00 00 ................
00408220 00 00 00 00 00 00 00 00 00 00 00 00 00 00 00 00 ................
00408230 00 00 00 00 00 00 00 00 00 00 00 00 00 00 00 00 ................
00408240 00 00 00 00 00 00 00 00 00 00 00 00 00 00 00 00 ................
00408250 00 00 00 00 00 00 00 00 00 00 00 00 00 00 00 00 ................
00408260 00 00 00 00 00 00 00 00 00 00 00 00 00 00 00 00 ................
00408270 00 00 00 00 00 00 00 00 00 00 00 00 00 00 00 00 ................
00408280 00 00 00 00 00 00 00 00 00 00 00 00 00 00 00 00 ................
00408290 00 00 00 00 00 00 00 00 00 00 00 00 00 00 00 00 ................
004082A0 00 00 00 00 00 00 00 00 00 00 00 00 00 00 00 00 ................
004082B0 00 00 00 00 00 00 00 00 00 00 00 00 00 00 00 00 ................
004082C0 00 00 00 00 00 00 00 00 00 00 00 00 00 00 00 00 ................
004082D0 00 00 00 00 00 00 00 00 00 00 00 00 00 00 00 00 ................
004082E0 00 00 00 00 00 00 00 00 00 00 00 00 00 00 00 00 ................
004082F0 00 00 00 00 00 00 00 00 00 00 00 00 00 00 00 00 ................
00408300 00 00 00 00 00 00 00 00 00 00 00 00 00 00 00 00 ................
00408310 00 00 00 00 00 00 00 00 00 00 00 00 00 00 00 00 ................
00408320 00 00 00 00 00 00 00 00 00 00 00 00 00 00 00 00 ................
00408330 00 00 00 00 00 00 00 00 00 00 00 00 00 00 00 00 ................
00408340 00 00 00 00 00 00 00 00 00 00 00 00 00 00 00 00 ................
00408350 00 00 00 00 00 00 00 00 00 00 00 00 00 00 00 00 ................
00408360 00 00 00 00 00 00 00 00 00 00 00 00 00 00 00 00 ................
00408370 00 00 00 00 00 00 00 00 00 00 00 00 00 00 00 00 ................
00408380 00 00 00 00 00 00 00 00 00 00 00 00 00 00 00 00 ................
00408390 00 00 00 00 00 00 00 00 00 00 00 00 00 00 00 00 ................
004083A0 00 00 00 00 00 00 00 00 00 00 00 00 00 00 00 00 ................
004083B0 00 00 00 00 00 00 00 00 00 00 00 00 00 00 00 00 ................
004083C0 00 00 00 00 00 00 00 00 00 00 00 00 00 00 00 00 ................
004083D0 00 00 00 00 00 00 00 00 00 00 00 00 00 00 00 00 ................
004083E0 00 00 00 00 00 00 00 00 00 00 00 00 00 00 00 00 ................
004083F0 00 00 00 00 00 00 00 00 00 00 00 00 00 00 00 00 ................
00408400 00 00 00 00 00 00 00 00 00 00 00 00 00 00 00 00 ................
00408410 00 00 00 00 00 00 00 00 00 00 00 00 00 00 00 00 ................
00408420 00 00 00 00 00 00 00 00 00 00 00 00 00 00 00 00 ................
00408430 00 00 00 00 00 00 00 00 00 00 00 00 00 00 00 00 ................
00408440 00 00 00 00 00 00 00 00 00 00 00 00 00 00 00 00 ................
00408450 00 00 00 00 00 00 00 00 00 00 00 00 00 00 00 00 ................
00408460 00 00 00 00 00 00 00 00 00 00 00 00 00 00 00 00 ................
00408470 00 00 00 00 00 00 00 00 00 00 00 00 00 00 00 00 ................
00408480 00 00 00 00 00 00 00 00 00 00 00 00 00 00 00 00 ................
00408490 00 00 00 00 00 00 00 00 00 00 00 00 00 00 00 00 ................
004084A0 00 00 00 00 00 00 00 00 00 00 00 00 00 00 00 00 ................
004084B0 00 00 00 00 00 00 00 00 00 00 00 00 00 00 00 00 ................
004084C0 00 00 00 00 00 00 00 00 00 00 00 00 00 00 00 00 ................
004084D0 00 00 00 00 00 00 00 00 00 00 00 00 00 00 00 00 ................
004084E0 00 00 00 00 00 00 00 00 00 00 00 00 00 00 00 00 ................
004084F0 00 00 00 00 00 00 00 00 00 00 00 00 00 00 00 00 ................
00408500 00 00 00 00 00 00 00 00 00 00 00 00 00 00 00 00 ................
00408510 00 00 00 00 00 00 00 00 00 00 00 00 00 00 00 00 ................
00408520 00 00 00 00 00 00 00 00 00 00 00 00 00 00 00 00 ................
00408530 00 00 00 00 00 00 00 00 00 00 00 00 00 00 00 00 ................
00408540 00 00 00 00 00 00 00 00 00 00 00 00 00 00 00 00 ................
00408550 00 00 00 00 00 00 00 00 00 00 00 00 00 00 00 00 ................
00408560 00 00 00 00 00 00 00 00 00 00 00 00 00 00 00 00 ................
00408570 00 00 00 00 00 00 00 00 00 00 00 00 00 00 00 00 ................
00408580 00 00 00 00 00 00 00 00 00 00 00 00 00 00 00 00 ................
00408590 00 00 00 00 00 00 00 00 00 00 00 00 00 00 00 00 ................
004085A0 00 00 00 00 00 00 00 00 00 00 00 00 00 00 00 00 ................
004085B0 00 00 00 00 00 00 00 00 00 00 00 00 00 00 00 00 ................
004085C0 00 00 00 00 00 00 00 00 00 00 00 00 00 00 00 00 ................
004085D0 00 00 00 00 00 00 00 00 00 00 00 00 00 00 00 00 ................
004085E0 00 00 00 00 00 00 00 00 00 00 00 00 00 00 00 00 ................
004085F0 00 00 00 00 00 00 00 00 00 00 00 00 00 00 00 00 ................
00408600 00 00 00 00 00 00 00 00 00 00 00 00 00 00 00 00 ................
00408610 00 00 00 00 00 00 00 00 00 00 00 00 00 00 00 00 ................
00408620 00 00 00 00 00 00 00 00 00 00 00 00 00 00 00 00 ................
00408630 00 00 00 00 00 00 00 00 00 00 00 00 00 00 00 00 ................
00408640 00 00 00 00 00 00 00 00 00 00 00 00 00 00 00 00 ................
00408650 00 00 00 00 00 00 00 00 00 00 00 00 00 00 00 00 ................
00408660 00 00 00 00 00 00 00 00 00 00 00 00 00 00 00 00 ................
00408670 00 00 00 00 00 00 00 00 00 00 00 00 00 00 00 00 ................
00408680 00 00 00 00 00 00 00 00 00 00 00 00 00 00 00 00 ................
00408690 00 00 00 00 00 00 00 00 00 00 00 00 00 00 00 00 ................
004086A0 00 00 00 00 00 00 00 00 00 00 00 00 00 00 00 00 ................
004086B0 00 00 00 00 00 00 00 00 00 00 00 00 00 00 00 00 ................
004086C0 00 00 00 00 00 00 00 00 00 00 00 00 00 00 00 00 ................
004086D0 00 00 00 00 00 00 00 00 00 00 00 00 00 00 00 00 ................
004086E0 00 00 00 00 00 00 00 00 00 00 00 00 00 00 00 00 ................
004086F0 00 00 00 00 00 00 00 00 00 00 00 00 00 00 00 00 ................
00408700 00 00 00 00 00 00 00 00 00 00 00 00 00 00 00 00 ................
00408710 00 00 00 00 00 00 00 00 00 00 00 00 00 00 00 00 ................
00408720 00 00 00 00 00 00 00 00 00 00 00 00 00 00 00 00 ................
00408730 00 00 00 00 00 00 00 00 00 00 00 00 00 00 00 00 ................
00408740 00 00 00 00 00 00 00 00 00 00 00 00 00 00 00 00 ................
00408750 00 00 00 00 00 00 00 00 00 00 00 00 00 00 00 00 ................
00408760 00 00 00 00 00 00 00 00 00 00 00 00 00 00 00 00 ................
00408770 00 00 00 00 00 00 00 00 00 00 00 00 00 00 00 00 ................
00408780 00 00 00 00 00 00 00 00 00 00 00 00 00 00 00 00 ................
00408790 00 00 00 00 00 00 00 00 00 00 00 00 00 00 00 00 ................
004087A0 00 00 00 00 00 00 00 00 00 00 00 00 00 00 00 00 ................
004087B0 00 00 00 00 00 00 00 00 00 00 00 00 00 00 00 00 ................
004087C0 00 00 00 00 00 00 00 00 00 00 00 00 00 00 00 00 ................
004087D0 00 00 00 00 00 00 00 00 00 00 00 00 00 00 00 00 ................
004087E0 00 00 00 00 00 00 00 00 00 00 00 00 00 00 00 00 ................
004087F0 00 00 00 00 00 00 00 00 00 00 00 00 00 00 00 00 ................
00408800 00 00 00 00 00 00 00 00 00 00 00 00 00 00 00 00 ................
00408810 00 00 00 00 00 00 00 00 00 00 00 00 00 00 00 00 ................
00408820 00 00 00 00 00 00 00 00 00 00 00 00 00 00 00 00 ................
00408830 00 00 00 00 00 00 00 00 00 00 00 00 00 00 00 00 ................
00408840 00 00 00 00 00 00 00 00 00 00 00 00 00 00 00 00 ................
00408850 00 00 00 00 00 00 00 00 00 00 00 00 00 00 00 00 ................
00408860 00 00 00 00 00 00 00 00 00 00 00 00 00 00 00 00 ................
00408870 00 00 00 00 00 00 00 00 00 00 00 00 00 00 00 00 ................
00408880 00 00 00 00 00 00 00 00 00 00 00 00 00 00 00 00 ................
00408890 00 00 00 00 00 00 00 00 00 00 00 00 00 00 00 00 ................
004088A0 00 00 00 00 00 00 00 00 00 00 00 00 00 00 00 00 ................
004088B0 00 00 00 00 00 00 00 00 00 00 00 00 00 00 00 00 ................
004088C0 00 00 00 00 00 00 00 00 00 00 00 00 00 00 00 00 ................
004088D0 00 00 00 00 00 00 00 00 00 00 00 00 00 00 00 00 ................
004088E0 00 00 00 00 00 00 00 00 00 00 00 00 00 00 00 00 ................
004088F0 00 00 00 00 00 00 00 00 00 00 00 00 00 00 00 00 ................
00408900 00 00 00 00 00 00 00 00 00 00 00 00 00 00 00 00 ................
00408910 00 00 00 00 00 00 00 00 00 00 00 00 00 00 00 00 ................
00408920 00 00 00 00 00 00 00 00 00 00 00 00 00 00 00 00 ................
00408930 00 00 00 00 00 00 00 00 00 00 00 00 00 00 00 00 ................
00408940 00 00 00 00 00 00 00 00 00 00 00 00 00 00 00 00 ................
00408950 00 00 00 00 00 00 00 00 00 00 00 00 00 00 00 00 ................
00408960 00 00 00 00 00 00 00 00 00 00 00 00 00 00 00 00 ................
00408970 00 00 00 00 00 00 00 00 00 00 00 00 00 00 00 00 ................
00408980 00 00 00 00 00 00 00 00 00 00 00 00 00 00 00 00 ................
00408990 00 00 00 00 00 00 00 00 00 00 00 00 00 00 00 00 ................
004089A0 00 00 00 00 00 00 00 00 00 00 00 00 00 00 00 00 ................
004089B0 00 00 00 00 00 00 00 00 00 00 00 00 00 00 00 00 ................
004089C0 00 00 00 00 00 00 00 00 00 00 00 00 00 00 00 00 ................
004089D0 00 00 00 00 00 00 00 00 00 00 00 00 00 00 00 00 ................
004089E0 00 00 00 00 00 00 00 00 00 00 00 00 00 00 00 00 ................
004089F0 00 00 00 00 00 00 00 00 00 00 00 00 00 00 00 00 ................
00408A00 00 00 00 00 00 00 00 00 00 00 00 00 00 00 00 00 ................
00408A10 00 00 00 00 00 00 00 00 00 00 00 00 00 00 00 00 ................
00408A20 00 00 00 00 00 00 00 00 00 00 00 00 00 00 00 00 ................
00408A30 00 00 00 00 00 00 00 00 00 00 00 00 00 00 00 00 ................
00408A40 00 00 00 00 00 00 00 00 00 00 00 00 00 00 00 00 ................
00408A50 00 00 00 00 00 00 00 00 00 00 00 00 00 00 00 00 ................
00408A60 00 00 00 00 00 00 00 00 00 00 00 00 00 00 00 00 ................
00408A70 00 00 00 00 00 00 00 00 00 00 00 00 00 00 00 00 ................
00408A80 00 00 00 00 00 00 00 00 00 00 00 00 00 00 00 00 ................
00408A90 00 00 00 00 00 00 00 00 00 00 00 00 00 00 00 00 ................
00408AA0 00 00 00 00 00 00 00 00 00 00 00 00 00 00 00 00 ................
00408AB0 00 00 00 00 00 00 00 00 00 00 00 00 00 00 00 00 ................
00408AC0 00 00 00 00 00 00 00 00 00 00 00 00 00 00 00 00 ................
00408AD0 00 00 00 00 00 00 00 00 00 00 00 00 00 00 00 00 ................
00408AE0 00 00 00 00 00 00 00 00 00 00 00 00 00 00 00 00 ................
00408AF0 00 00 00 00 00 00 00 00 00 00 00 00 00 00 00 00 ................
00408B00 00 00 00 00 00 00 00 00 00 00 00 00 00 00 00 00 ................
00408B10 00 00 00 00 00 00 00 00 00 00 00 00 00 00 00 00 ................
00408B20 00 00 00 00 00 00 00 00 00 00 00 00 00 00 00 00 ................
00408B30 00 00 00 00 00 00 00 00 00 00 00 00 00 00 00 00 ................
00408B40 00 00 00 00 00 00 00 00 00 00 00 00 00 00 00 00 ................
00408B50 00 00 00 00 00 00 00 00 00 00 00 00 00 00 00 00 ................
00408B60 00 00 00 00 00 00 00 00 00 00 00 00 00 00 00 00 ................
00408B70 00 00 00 00 00 00 00 00 00 00 00 00 00 00 00 00 ................
00408B80 00 00 00 00 00 00 00 00 00 00 00 00 00 00 00 00 ................
00408B90 00 00 00 00 00 00 00 00 00 00 00 00 00 00 00 00 ................
00408BA0 00 00 00 00 00 00 00 00 00 00 00 00 00 00 00 00 ................
00408BB0 00 00 00 00 00 00 00 00 00 00 00 00 00 00 00 00 ................
00408BC0 00 00 00 00 00 00 00 00 00 00 00 00 00 00 00 00 ................
00408BD0 00 00 00 00 00 00 00 00 00 00 00 00 00 00 00 00 ................
00408BE0 00 00 00 00 00 00 00 00 00 00 00 00 00 00 00 00 ................
00408BF0 00 00 00 00 00 00 00 00 00 00 00 00 00 00 00 00 ................
00408C00 00 00 00 00 00 00 00 00 00 00 00 00 00 00 00 00 ................
00408C10 00 00 00 00 00 00 00 00 00 00 00 00 00 00 00 00 ................
00408C20 00 00 00 00 00 00 00 00 00 00 00 00 00 00 00 00 ................
00408C30 00 00 00 00 00 00 00 00 00 00 00 00 00 00 00 00 ................
00408C40 00 00 00 00 00 00 00 00 00 00 00 00 00 00 00 00 ................
00408C50 00 00 00 00 00 00 00 00 00 00 00 00 00 00 00 00 ................
00408C60 00 00 00 00 00 00 00 00 00 00 00 00 00 00 00 00 ................
00408C70 00 00 00 00 00 00 00 00 00 00 00 00 00 00 00 00 ................
00408C80 00 00 00 00 00 00 00 00 00 00 00 00 00 00 00 00 ................
00408C90 00 00 00 00 00 00 00 00 00 00 00 00 00 00 00 00 ................
00408CA0 00 00 00 00 00 00 00 00 00 00 00 00 00 00 00 00 ................
00408CB0 00 00 00 00 00 00 00 00 00 00 00 00 00 00 00 00 ................
00408CC0 00 00 00 00 00 00 00 00 00 00 00 00 00 00 00 00 ................
00408CD0 00 00 00 00 00 00 00 00 00 00 00 00 00 00 00 00 ................
00408CE0 00 00 00 00 00 00 00 00 00 00 00 00 00 00 00 00 ................
00408CF0 00 00 00 00 00 00 00 00 00 00 00 00 00 00 00 00 ................
00408D00 00 00 00 00 00 00 00 00 00 00 00 00 00 00 00 00 ................
00408D10 00 00 00 00 00 00 00 00 00 00 00 00 00 00 00 00 ................
00408D20 00 00 00 00 00 00 00 00 00 00 00 00 00 00 00 00 ................
00408D30 00 00 00 00 00 00 00 00 00 00 00 00 00 00 00 00 ................
00408D40 00 00 00 00 00 00 00 00 00 00 00 00 00 00 00 00 ................
00408D50 00 00 00 00 00 00 00 00 00 00 00 00 00 00 00 00 ................
00408D60 00 00 00 00 00 00 00 00 00 00 00 00 00 00 00 00 ................
00408D70 00 00 00 00 00 00 00 00 00 00 00 00 00 00 00 00 ................
00408D80 00 00 00 00 00 00 00 00 00 00 00 00 00 00 00 00 ................
00408D90 00 00 00 00 00 00 00 00 00 00 00 00 00 00 00 00 ................
00408DA0 00 00 00 00 00 00 00 00 00 00 00 00 00 00 00 00 ................
00408DB0 00 00 00 00 00 00 00 00 00 00 00 00 00 00 00 00 ................
00408DC0 00 00 00 00 00 00 00 00 00 00 00 00 00 00 00 00 ................
00408DD0 00 00 00 00 00 00 00 00 00 00 00 00 00 00 00 00 ................
00408DE0 00 00 00 00 00 00 00 00 00 00 00 00 00 00 00 00 ................
00408DF0 00 00 00 00 00 00 00 00 00 00 00 00 00 00 00 00 ................
00408E00 00 00 00 00 00 00 00 00 00 00 00 00 00 00 00 00 ................
00408E10 00 00 00 00 00 00 00 00 00 00 00 00 00 00 00 00 ................
00408E20 00 00 00 00 00 00 00 00 00 00 00 00 00 00 00 00 ................
00408E30 00 00 00 00 00 00 00 00 00 00 00 00 00 00 00 00 ................
00408E40 00 00 00 00 00 00 00 00 00 00 00 00 00 00 00 00 ................
00408E50 00 00 00 00 00 00 00 00 00 00 00 00 00 00 00 00 ................
00408E60 00 00 00 00 00 00 00 00 00 00 00 00 00 00 00 00 ................
00408E70 00 00 00 00 00 00 00 00 00 00 00 00 00 00 00 00 ................
00408E80 00 00 00 00 00 00 00 00 00 00 00 00 00 00 00 00 ................
00408E90 00 00 00 00 00 00 00 00 00 00 00 00 00 00 00 00 ................
00408EA0 00 00 00 00 00 00 00 00 00 00 00 00 00 00 00 00 ................
00408EB0 00 00 00 00 00 00 00 00 00 00 00 00 00 00 00 00 ................
00408EC0 00 00 00 00 00 00 00 00 00 00 00 00 00 00 00 00 ................
00408ED0 00 00 00 00 00 00 00 00 00 00 00 00 00 00 00 00 ................
00408EE0 00 00 00 00 00 00 00 00 00 00 00 00 00 00 00 00 ................
00408EF0 00 00 00 00 00 00 00 00 00 00 00 00 00 00 00 00 ................
00408F00 00 00 00 00 00 00 00 00 00 00 00 00 00 00 00 00 ................
00408F10 00 00 00 00 00 00 00 00 00 00 00 00 00 00 00 00 ................
00408F20 00 00 00 00 00 00 00 00 00 00 00 00 00 00 00 00 ................
00408F30 00 00 00 00 00 00 00 00 00 00 00 00 00 00 00 00 ................
00408F40 00 00 00 00 00 00 00 00 00 00 00 00 00 00 00 00 ................
00408F50 00 00 00 00 00 00 00 00 00 00 00 00 00 00 00 00 ................
00408F60 00 00 00 00 00 00 00 00 00 00 00 00 00 00 00 00 ................
00408F70 00 00 00 00 00 00 00 00 00 00 00 00 00 00 00 00 ................
00408F80 00 00 00 00 00 00 00 00 00 00 00 00 00 00 00 00 ................
00408F90 00 00 00 00 00 00 00 00 00 00 00 00 00 00 00 00 ................
00408FA0 00 00 00 00 00 00 00 00 00 00 00 00 00 00 00 00 ................
00408FB0 00 00 00 00 00 00 00 00 00 00 00 00 00 00 00 00 ................
00408FC0 00 00 00 00 00 00 00 00 00 00 00 00 00 00 00 00 ................
00408FD0 00 00 00 00 00 00 00 00 00 00 00 00 00 00 00 00 ................
00408FE0 00 00 00 00 00 00 00 00 00 00 00 00 00 00 00 00 ................
00408FF0 00 00 00 00 00 00 00 00 00 00 00 00 00 00 00 00 ................
00409000 00 00 00 00 00 00 00 00 00 00 00 00 00 00 00 00 ................
00409010 00 00 00 00 00 00 00 00 00 00 00 00 00 00 00 00 ................
00409020 00 00 00 00 00 00 00 00 00 00 00 00 00 00 00 00 ................
00409030 00 00 00 00 00 00 00 00 00 00 00 00 00 00 00 00 ................
00409040 00 00 00 00 00 00 00 00 00 00 00 00 00 00 00 00 ................
00409050 00 00 00 00 00 00 00 00 00 00 00 00 00 00 00 00 ................
00409060 00 00 00 00 00 00 00 00 00 00 00 00 00 00 00 00 ................
00409070 00 00 00 00 00 00 00 00 00 00 00 00 00 00 00 00 ................
00409080 00 00 00 00 00 00 00 00 00 00 00 00 00 00 00 00 ................
00409090 00 00 00 00 00 00 00 00 00 00 00 00 00 00 00 00 ................
004090A0 00 00 00 00 00 00 00 00 00 00 00 00 00 00 00 00 ................
004090B0 00 00 00 00 00 00 00 00 00 00 00 00 00 00 00 00 ................
004090C0 00 00 00 00 00 00 00 00 00 00 00 00 00 00 00 00 ................
004090D0 00 00 00 00 00 00 00 00 00 00 00 00 00 00 00 00 ................
004090E0 00 00 00 00 00 00 00 00 00 00 00 00 00 00 00 00 ................
004090F0 00 00 00 00 00 00 00 00 00 00 00 00 00 00 00 00 ................
00409100 00 00 00 00 00 00 00 00 00 00 00 00 00 00 00 00 ................
00409110 00 00 00 00 00 00 00 00 00 00 00 00 00 00 00 00 ................
00409120 00 00 00 00 00 00 00 00 00 00 00 00 00 00 00 00 ................
00409130 00 00 00 00 00 00 00 00 00 00 00 00 00 00 00 00 ................
00409140 00 00 00 00 00 00 00 00 00 00 00 00 00 00 00 00 ................
00409150 00 00 00 00 00 00 00 00 00 00 00 00 00 00 00 00 ................
00409160 00 00 00 00 00 00 00 00 00 00 00 00 00 00 00 00 ................
00409170 00 00 00 00 00 00 00 00 00 00 00 00 00 00 00 00 ................
00409180 00 00 00 00 00 00 00 00 00 00 00 00 00 00 00 00 ................
00409190 00 00 00 00 00 00 00 00 00 00 00 00 00 00 00 00 ................
004091A0 00 00 00 00 00 00 00 00 00 00 00 00 00 00 00 00 ................
004091B0 00 00 00 00 00 00 00 00 00 00 00 00 00 00 00 00 ................
004091C0 00 00 00 00 00 00 00 00 00 00 00 00 00 00 00 00 ................
004091D0 00 00 00 00 00 00 00 00 00 00 00 00 00 00 00 00 ................
004091E0 00 00 00 00 00 00 00 00 00 00 00 00 00 00 00 00 ................
004091F0 00 00 00 00 00 00 00 00 00 00 00 00 00 00 00 00 ................
00409200 00 00 00 00 00 00 00 00 00 00 00 00 00 00 00 00 ................
00409210 00 00 00 00 00 00 00 00 00 00 00 00 00 00 00 00 ................
00409220 00 00 00 00 00 00 00 00 00 00 00 00 00 00 00 00 ................
00409230 00 00 00 00 00 00 00 00 00 00 00 00 00 00 00 00 ................
00409240 00 00 00 00 00 00 00 00 00 00 00 00 00 00 00 00 ................
00409250 00 00 00 00 00 00 00 00 00 00 00 00 00 00 00 00 ................
00409260 00 00 00 00 00 00 00 00 00 00 00 00 00 00 00 00 ................
00409270 00 00 00 00 00 00 00 00 00 00 00 00 00 00 00 00 ................
00409280 00 00 00 00 00 00 00 00 00 00 00 00 00 00 00 00 ................
00409290 00 00 00 00 00 00 00 00 00 00 00 00 00 00 00 00 ................
004092A0 00 00 00 00 00 00 00 00 00 00 00 00 00 00 00 00 ................
004092B0 00 00 00 00 00 00 00 00 00 00 00 00 00 00 00 00 ................
004092C0 00 00 00 00 00 00 00 00 00 00 00 00 00 00 00 00 ................
004092D0 00 00 00 00 00 00 00 00 00 00 00 00 00 00 00 00 ................
004092E0 00 00 00 00 00 00 00 00 00 00 00 00 00 00 00 00 ................
004092F0 00 00 00 00 00 00 00 00 00 00 00 00 00 00 00 00 ................
00409300 00 00 00 00 00 00 00 00 00 00 00 00 00 00 00 00 ................
00409310 00 00 00 00 00 00 00 00 00 00 00 00 00 00 00 00 ................
00409320 00 00 00 00 00 00 00 00 00 00 00 00 00 00 00 00 ................
00409330 00 00 00 00 00 00 00 00 00 00 00 00 00 00 00 00 ................
00409340 00 00 00 00 00 00 00 00 00 00 00 00 00 00 00 00 ................
00409350 00 00 00 00 00 00 00 00 00 00 00 00 00 00 00 00 ................
00409360 00 00 00 00 00 00 00 00 00 00 00 00 00 00 00 00 ................
00409370 00 00 00 00 00 00 00 00 00 00 00 00 00 00 00 00 ................
00409380 00 00 00 00 00 00 00 00 00 00 00 00 00 00 00 00 ................
00409390 00 00 00 00 00 00 00 00 00 00 00 00 00 00 00 00 ................
004093A0 00 00 00 00 00 00 00 00 00 00 00 00 00 00 00 00 ................
004093B0 00 00 00 00 00 00 00 00 00 00 00 00 00 00 00 00 ................
004093C0 00 00 00 00 00 00 00 00 00 00 00 00 00 00 00 00 ................
004093D0 00 00 00 00 00 00 00 00 00 00 00 00 00 00 00 00 ................
004093E0 00 00 00 00 00 00 00 00 00 00 00 00 00 00 00 00 ................
004093F0 00 00 00 00 00 00 00 00 00 00 00 00 00 00 00 00 ................
00409400 00 00 00 00 00 00 00 00 00 00 00 00 00 00 00 00 ................
00409410 00 00 00 00 00 00 00 00 00 00 00 00 00 00 00 00 ................
00409420 00 00 00 00 00 00 00 00 00 00 00 00 00 00 00 00 ................
00409430 00 00 00 00 00 00 00 00 00 00 00 00 00 00 00 00 ................
00409440 00 00 00 00 00 00 00 00 00 00 00 00 00 00 00 00 ................
00409450 00 00 00 00 00 00 00 00 00 00 00 00 00 00 00 00 ................
00409460 00 00 00 00 00 00 00 00 00 00 00 00 00 00 00 00 ................
00409470 00 00 00 00 00 00 00 00 00 00 00 00 00 00 00 00 ................
00409480 00 00 00 00 00 00 00 00 00 00 00 00 00 00 00 00 ................
00409490 00 00 00 00 00 00 00 00 00 00 00 00 00 00 00 00 ................
004094A0 00 00 00 00 00 00 00 00 00 00 00 00 00 00 00 00 ................
004094B0 00 00 00 00 00 00 00 00 00 00 00 00 00 00 00 00 ................
004094C0 00 00 00 00 00 00 00 00 00 00 00 00 00 00 00 00 ................
004094D0 00 00 00 00 00 00 00 00 00 00 00 00 00 00 00 00 ................
004094E0 00 00 00 00 00 00 00 00 00 00 00 00 00 00 00 00 ................
004094F0 00 00 00 00 00 00 00 00 00 00 00 00 00 00 00 00 ................
00409500 00 00 00 00 00 00 00 00 00 00 00 00 00 00 00 00 ................
00409510 00 00 00 00 00 00 00 00 00 00 00 00 00 00 00 00 ................
00409520 00 00 00 00 00 00 00 00 00 00 00 00 00 00 00 00 ................
00409530 00 00 00 00 00 00 00 00 00 00 00 00 00 00 00 00 ................
00409540 00 00 00 00 00 00 00 00 00 00 00 00 00 00 00 00 ................
00409550 00 00 00 00 00 00 00 00 00 00 00 00 00 00 00 00 ................
00409560 00 00 00 00 00 00 00 00 00 00 00 00 00 00 00 00 ................
00409570 00 00 00 00 00 00 00 00 00 00 00 00 00 00 00 00 ................
00409580 00 00 00 00 00 00 00 00 00 00 00 00 00 00 00 00 ................
00409590 00 00 00 00 00 00 00 00 00 00 00 00 00 00 00 00 ................
004095A0 00 00 00 00 00 00 00 00 00 00 00 00 00 00 00 00 ................
004095B0 00 00 00 00 00 00 00 00 00 00 00 00 00 00 00 00 ................
004095C0 00 00 00 00 00 00 00 00 00 00 00 00 00 00 00 00 ................
004095D0 00 00 00 00 00 00 00 00 00 00 00 00 00 00 00 00 ................
004095E0 00 00 00 00 00 00 00 00 00 00 00 00 00 00 00 00 ................
004095F0 00 00 00 00 00 00 00 00 00 00 00 00 00 00 00 00 ................
00409600 00 00 00 00 00 00 00 00 00 00 00 00 00 00 00 00 ................
00409610 00 00 00 00 00 00 00 00 00 00 00 00 00 00 00 00 ................
00409620 00 00 00 00 00 00 00 00 00 00 00 00 00 00 00 00 ................
00409630 00 00 00 00 00 00 00 00 00 00 00 00 00 00 00 00 ................
00409640 00 00 00 00 00 00 00 00 00 00 00 00 00 00 00 00 ................
00409650 00 00 00 00 00 00 00 00 00 00 00 00 00 00 00 00 ................
00409660 00 00 00 00 00 00 00 00 00 00 00 00 00 00 00 00 ................
00409670 00 00 00 00 00 00 00 00 00 00 00 00 00 00 00 00 ................
00409680 00 00 00 00 00 00 00 00 00 00 00 00 00 00 00 00 ................
00409690 00 00 00 00 00 00 00 00 00 00 00 00 00 00 00 00 ................
004096A0 00 00 00 00 00 00 00 00 00 00 00 00 00 00 00 00 ................
004096B0 00 00 00 00 00 00 00 00 00 00 00 00 00 00 00 00 ................
004096C0 00 00 00 00 00 00 00 00 00 00 00 00 00 00 00 00 ................
004096D0 00 00 00 00 00 00 00 00 00 00 00 00 00 00 00 00 ................
004096E0 00 00 00 00 00 00 00 00 00 00 00 00 00 00 00 00 ................
004096F0 00 00 00 00 00 00 00 00 00 00 00 00 00 00 00 00 ................
00409700 00 00 00 00 00 00 00 00 00 00 00 00 00 00 00 00 ................
00409710 00 00 00 00 00 00 00 00 00 00 00 00 00 00 00 00 ................
00409720 00 00 00 00 00 00 00 00 00 00 00 00 00 00 00 00 ................
00409730 00 00 00 00 00 00 00 00 00 00 00 00 00 00 00 00 ................
00409740 00 00 00 00 00 00 00 00 00 00 00 00 00 00 00 00 ................
00409750 00 00 00 00 00 00 00 00 00 00 00 00 00 00 00 00 ................
00409760 00 00 00 00 00 00 00 00 00 00 00 00 00 00 00 00 ................
00409770 00 00 00 00 00 00 00 00 00 00 00 00 00 00 00 00 ................
00409780 00 00 00 00 00 00 00 00 00 00 00 00 00 00 00 00 ................
00409790 00 00 00 00 00 00 00 00 00 00 00 00 00 00 00 00 ................
004097A0 00 00 00 00 00 00 00 00 00 00 00 00 00 00 00 00 ................
004097B0 00 00 00 00 00 00 00 00 00 00 00 00 00 00 00 00 ................
004097C0 00 00 00 00 00 00 00 00 00 00 00 00 00 00 00 00 ................
004097D0 00 00 00 00 00 00 00 00 00 00 00 00 00 00 00 00 ................
004097E0 00 00 00 00 00 00 00 00 00 00 00 00 00 00 00 00 ................
004097F0 00 00 00 00 00 00 00 00 00 00 00 00 00 00 00 00 ................
00409800 00 00 00 00 00 00 00 00 00 00 00 00 00 00 00 00 ................
00409810 00 00 00 00 00 00 00 00 00 00 00 00 00 00 00 00 ................
00409820 00 00 00 00 00 00 00 00 00 00 00 00 00 00 00 00 ................
00409830 00 00 00 00 00 00 00 00 00 00 00 00 00 00 00 00 ................
00409840 00 00 00 00 00 00 00 00 00 00 00 00 00 00 00 00 ................
00409850 00 00 00 00 00 00 00 00 00 00 00 00 00 00 00 00 ................
00409860 00 00 00 00 00 00 00 00 00 00 00 00 00 00 00 00 ................
00409870 00 00 00 00 00 00 00 00 00 00 00 00 00 00 00 00 ................
00409880 00 00 00 00 00 00 00 00 00 00 00 00 00 00 00 00 ................
00409890 00 00 00 00 00 00 00 00 00 00 00 00 00 00 00 00 ................
004098A0 00 00 00 00 00 00 00 00 00 00 00 00 00 00 00 00 ................
004098B0 00 00 00 00 00 00 00 00 00 00 00 00 00 00 00 00 ................
004098C0 00 00 00 00 00 00 00 00 00 00 00 00 00 00 00 00 ................
004098D0 00 00 00 00 00 00 00 00 00 00 00 00 00 00 00 00 ................
004098E0 00 00 00 00 00 00 00 00 00 00 00 00 00 00 00 00 ................
004098F0 00 00 00 00 00 00 00 00 00 00 00 00 00 00 00 00 ................
00409900 00 00 00 00 00 00 00 00 00 00 00 00 00 00 00 00 ................
00409910 00 00 00 00 00 00 00 00 00 00 00 00 00 00 00 00 ................
00409920 00 00 00 00 00 00 00 00 00 00 00 00 00 00 00 00 ................
00409930 00 00 00 00 00 00 00 00 00 00 00 00 00 00 00 00 ................
00409940 00 00 00 00 00 00 00 00 00 00 00 00 00 00 00 00 ................
00409950 00 00 00 00 00 00 00 00 00 00 00 00 00 00 00 00 ................
00409960 00 00 00 00 00 00 00 00 00 00 00 00 00 00 00 00 ................
00409970 00 00 00 00 00 00 00 00 00 00 00 00 00 00 00 00 ................
00409980 00 00 00 00 00 00 00 00 00 00 00 00 00 00 00 00 ................
00409990 00 00 00 00 00 00 00 00 00 00 00 00 00 00 00 00 ................
004099A0 00 00 00 00 00 00 00 00 00 00 00 00 00 00 00 00 ................
004099B0 00 00 00 00 00 00 00 00 00 00 00 00 00 00 00 00 ................
004099C0 00 00 00 00 00 00 00 00 00 00 00 00 00 00 00 00 ................
004099D0 00 00 00 00 00 00 00 00 00 00 00 00 00 00 00 00 ................
004099E0 00 00 00 00 00 00 00 00 00 00 00 00 00 00 00 00 ................
004099F0 00 00 00 00 00 00 00 00 00 00 00 00 00 00 00 00 ................
00409A00 00 00 00 00 00 00 00 00 00 00 00 00 00 00 00 00 ................
00409A10 00 00 00 00 00 00 00 00 00 00 00 00 00 00 00 00 ................
00409A20 00 00 00 00 00 00 00 00 00 00 00 00 00 00 00 00 ................
00409A30 00 00 00 00 00 00 00 00 00 00 00 00 00 00 00 00 ................
00409A40 00 00 00 00 00 00 00 00 00 00 00 00 00 00 00 00 ................
00409A50 00 00 00 00 00 00 00 00 00 00 00 00 00 00 00 00 ................
00409A60 00 00 00 00 00 00 00 00 00 00 00 00 00 00 00 00 ................
00409A70 00 00 00 00 00 00 00 00 00 00 00 00 00 00 00 00 ................
00409A80 00 00 00 00 00 00 00 00 00 00 00 00 00 00 00 00 ................
00409A90 00 00 00 00 00 00 00 00 00 00 00 00 00 00 00 00 ................
00409AA0 00 00 00 00 00 00 00 00 00 00 00 00 00 00 00 00 ................
00409AB0 00 00 00 00 00 00 00 00 00 00 00 00 00 00 00 00 ................
00409AC0 00 00 00 00 00 00 00 00 00 00 00 00 00 00 00 00 ................
00409AD0 00 00 00 00 00 00 00 00 00 00 00 00 00 00 00 00 ................
00409AE0 00 00 00 00 00 00 00 00 00 00 00 00 00 00 00 00 ................
00409AF0 00 00 00 00 00 00 00 00 00 00 00 00 00 00 00 00 ................
00409B00 00 00 00 00 00 00 00 00 00 00 00 00 00 00 00 00 ................
00409B10 00 00 00 00 00 00 00 00 00 00 00 00 00 00 00 00 ................
00409B20 00 00 00 00 00 00 00 00 00 00 00 00 00 00 00 00 ................
00409B30 00 00 00 00 00 00 00 00 00 00 00 00 00 00 00 00 ................
00409B40 00 00 00 00 00 00 00 00 00 00 00 00 00 00 00 00 ................
00409B50 00 00 00 00 00 00 00 00 00 00 00 00 00 00 00 00 ................
00409B60 00 00 00 00 00 00 00 00 00 00 00 00 00 00 00 00 ................
00409B70 00 00 00 00 00 00 00 00 00 00 00 00 00 00 00 00 ................
00409B80 00 00 00 00 00 00 00 00 00 00 00 00 00 00 00 00 ................
00409B90 00 00 00 00 00 00 00 00 00 00 00 00 00 00 00 00 ................
00409BA0 00 00 00 00 00 00 00 00 00 00 00 00 00 00 00 00 ................
00409BB0 00 00 00 00 00 00 00 00 00 00 00 00 00 00 00 00 ................
00409BC0 00 00 00 00 00 00 00 00 00 00 00 00 00 00 00 00 ................
00409BD0 00 00 00 00 00 00 00 00 00 00 00 00 00 00 00 00 ................
00409BE0 00 00 00 00 00 00 00 00 00 00 00 00 00 00 00 00 ................
00409BF0 00 00 00 00 00 00 00 00 00 00 00 00 00 00 00 00 ................
00409C00 00 00 00 00 00 00 00 00 00 00 00 00 00 00 00 00 ................
00409C10 00 00 00 00 00 00 00 00 00 00 00 00 00 00 00 00 ................
00409C20 00 00 00 00 00 00 00 00 00 00 00 00 00 00 00 00 ................
00409C30 00 00 00 00 00 00 00 00 00 00 00 00 00 00 00 00 ................
00409C40 00 00 00 00 00 00 00 00 00 00 00 00 00 00 00 00 ................
00409C50 00 00 00 00 00 00 00 00 00 00 00 00 00 00 00 00 ................
00409C60 00 00 00 00 00 00 00 00 00 00 00 00 00 00 00 00 ................
00409C70 00 00 00 00 00 00 00 00 00 00 00 00 00 00 00 00 ................
00409C80 00 00 00 00 00 00 00 00 00 00 00 00 00 00 00 00 ................
00409C90 00 00 00 00 00 00 00 00 00 00 00 00 00 00 00 00 ................
00409CA0 00 00 00 00 00 00 00 00 00 00 00 00 00 00 00 00 ................
00409CB0 00 00 00 00 00 00 00 00 00 00 00 00 00 00 00 00 ................
00409CC0 00 00 00 00 00 00 00 00 00 00 00 00 00 00 00 00 ................
00409CD0 00 00 00 00 00 00 00 00 00 00 00 00 00 00 00 00 ................
00409CE0 00 00 00 00 00 00 00 00 00 00 00 00 00 00 00 00 ................
00409CF0 00 00 00 00 00 00 00 00 00 00 00 00 00 00 00 00 ................
00409D00 00 00 00 00 00 00 00 00 00 00 00 00 00 00 00 00 ................
00409D10 00 00 00 00 00 00 00 00 00 00 00 00 00 00 00 00 ................
00409D20 00 00 00 00 00 00 00 00 00 00 00 00 00 00 00 00 ................
00409D30 00 00 00 00 00 00 00 00 00 00 00 00 00 00 00 00 ................
00409D40 00 00 00 00 00 00 00 00 00 00 00 00 00 00 00 00 ................
00409D50 00 00 00 00 00 00 00 00 00 00 00 00 00 00 00 00 ................
00409D60 00 00 00 00 00 00 00 00 00 00 00 00 00 00 00 00 ................
00409D70 00 00 00 00 00 00 00 00 00 00 00 00 00 00 00 00 ................
00409D80 00 00 00 00 00 00 00 00 00 00 00 00 00 00 00 00 ................
00409D90 00 00 00 00 00 00 00 00 00 00 00 00 00 00 00 00 ................
00409DA0 00 00 00 00 00 00 00 00 00 00 00 00 00 00 00 00 ................
00409DB0 00 00 00 00 00 00 00 00 00 00 00 00 00 00 00 00 ................
00409DC0 00 00 00 00 00 00 00 00 00 00 00 00 00 00 00 00 ................
00409DD0 00 00 00 00 00 00 00 00 00 00 00 00 00 00 00 00 ................
00409DE0 00 00 00 00 00 00 00 00 00 00 00 00 00 00 00 00 ................
00409DF0 00 00 00 00 00 00 00 00 00 00 00 00 00 00 00 00 ................
00409E00 00 00 00 00 00 00 00 00 00 00 00 00 00 00 00 00 ................
00409E10 00 00 00 00 00 00 00 00 00 00 00 00 00 00 00 00 ................
00409E20 00 00 00 00 00 00 00 00 00 00 00 00 00 00 00 00 ................
00409E30 00 00 00 00 00 00 00 00 00 00 00 00 00 00 00 00 ................
00409E40 00 00 00 00 00 00 00 00 00 00 00 00 00 00 00 00 ................
00409E50 00 00 00 00 00 00 00 00 00 00 00 00 00 00 00 00 ................
00409E60 00 00 00 00 00 00 00 00 00 00 00 00 00 00 00 00 ................
00409E70 00 00 00 00 00 00 00 00 00 00 00 00 00 00 00 00 ................
00409E80 00 00 00 00 00 00 00 00 00 00 00 00 00 00 00 00 ................
00409E90 00 00 00 00 00 00 00 00 00 00 00 00 00 00 00 00 ................
00409EA0 00 00 00 00 00 00 00 00 00 00 00 00 00 00 00 00 ................
00409EB0 00 00 00 00 00 00 00 00 00 00 00 00 00 00 00 00 ................
00409EC0 00 00 00 00 00 00 00 00 00 00 00 00 00 00 00 00 ................
00409ED0 00 00 00 00 00 00 00 00 00 00 00 00 00 00 00 00 ................
00409EE0 00 00 00 00 00 00 00 00 00 00 00 00 00 00 00 00 ................
00409EF0 00 00 00 00 00 00 00 00 00 00 00 00 00 00 00 00 ................
00409F00 00 00 00 00 00 00 00 00 00 00 00 00 00 00 00 00 ................
00409F10 00 00 00 00 00 00 00 00 00 00 00 00 00 00 00 00 ................
00409F20 00 00 00 00 00 00 00 00 00 00 00 00 00 00 00 00 ................
00409F30 00 00 00 00 00 00 00 00 00 00 00 00 00 00 00 00 ................
00409F40 00 00 00 00 00 00 00 00 00 00 00 00 00 00 00 00 ................
00409F50 00 00 00 00 00 00 00 00 00 00 00 00 00 00 00 00 ................
00409F60 00 00 00 00 00 00 00 00 00 00 00 00 00 00 00 00 ................
00409F70 00 00 00 00 00 00 00 00 00 00 00 00 00 00 00 00 ................
00409F80 00 00 00 00 00 00 00 00 00 00 00 00 00 00 00 00 ................
00409F90 00 00 00 00 00 00 00 00 00 00 00 00 00 00 00 00 ................
00409FA0 00 00 00 00 00 00 00 00 00 00 00 00 00 00 00 00 ................
00409FB0 00 00 00 00 00 00 00 00 00 00 00 00 00 00 00 00 ................
00409FC0 00 00 00 00 00 00 00 00 00 00 00 00 00 00 00 00 ................
00409FD0 00 00 00 00 00 00 00 00 00 00 00 00 00 00 00 00 ................
00409FE0 00 00 00 00 00 00 00 00 00 00 00 00 00 00 00 00 ................
00409FF0 00 00 00 00 00 00 00 00 00 00 00 00 00 00 00 00 ................
0040A000 00 00 00 00 00 00 00 00 00 00 00 00 00 00 00 00 ................
0040A010 00 00 00 00 00 00 00 00 00 00 00 00 00 00 00 00 ................
0040A020 00 00 00 00 00 00 00 00 00 00 00 00 00 00 00 00 ................
0040A030 00 00 00 00 00 00 00 00 00 00 00 00 00 00 00 00 ................
0040A040 00 00 00 00 00 00 00 00 00 00 00 00 00 00 00 00 ................
0040A050 00 00 00 00 00 00 00 00 00 00 00 00 00 00 00 00 ................
0040A060 00 00 00 00 00 00 00 00 00 00 00 00 00 00 00 00 ................
0040A070 00 00 00 00 00 00 00 00 00 00 00 00 00 00 00 00 ................
0040A080 00 00 00 00 00 00 00 00 00 00 00 00 00 00 00 00 ................
0040A090 00 00 00 00 00 00 00 00 00 00 00 00 00 00 00 00 ................
0040A0A0 00 00 00 00 00 00 00 00 00 00 00 00 00 00 00 00 ................
0040A0B0 00 00 00 00 00 00 00 00 00 00 00 00 00 00 00 00 ................
0040A0C0 00 00 00 00 00 00 00 00 00 00 00 00 00 00 00 00 ................
0040A0D0 00 00 00 00 00 00 00 00 00 00 00 00 00 00 00 00 ................
0040A0E0 00 00 00 00 00 00 00 00 00 00 00 00 00 00 00 00 ................
0040A0F0 00 00 00 00 00 00 00 00 00 00 00 00 00 00 00 00 ................
0040A100 00 00 00 00 00 00 00 00 00 00 00 00 00 00 00 00 ................
0040A110 00 00 00 00 00 00 00 00 00 00 00 00 00 00 00 00 ................
0040A120 00 00 00 00 00 00 00 00 00 00 00 00 00 00 00 00 ................
0040A130 00 00 00 00 00 00 00 00 00 00 00 00 00 00 00 00 ................
0040A140 00 00 00 00 00 00 00 00 00 00 00 00 00 00 00 00 ................
0040A150 00 00 00 00 00 00 00 00 00 00 00 00 00 00 00 00 ................
0040A160 00 00 00 00 00 00 00 00 00 00 00 00 00 00 00 00 ................
0040A170 00 00 00 00 00 00 00 00 00 00 00 00 00 00 00 00 ................
0040A180 00 00 00 00 00 00 00 00 00 00 00 00 00 00 00 00 ................
0040A190 00 00 00 00 00 00 00 00 00 00 00 00 00 00 00 00 ................
0040A1A0 00 00 00 00 00 00 00 00 00 00 00 00 00 00 00 00 ................
0040A1B0 00 00 00 00 00 00 00 00 00 00 00 00 00 00 00 00 ................
0040A1C0 00 00 00 00 00 00 00 00 00 00 00 00 00 00 00 00 ................
0040A1D0 00 00 00 00 00 00 00 00 00 00 00 00 00 00 00 00 ................
0040A1E0 00 00 00 00 00 00 00 00 00 00 00 00 00 00 00 00 ................
0040A1F0 00 00 00 00 00 00 00 00 00 00 00 00 00 00 00 00 ................
0040A200 00 00 00 00 00 00 00 00 00 00 00 00 00 00 00 00 ................
0040A210 00 00 00 00 00 00 00 00 00 00 00 00 00 00 00 00 ................
0040A220 00 00 00 00 00 00 00 00 00 00 00 00 00 00 00 00 ................
0040A230 00 00 00 00 00 00 00 00 00 00 00 00 00 00 00 00 ................
0040A240 00 00 00 00 00 00 00 00 00 00 00 00 00 00 00 00 ................
0040A250 00 00 00 00 00 00 00 00 00 00 00 00 00 00 00 00 ................
0040A260 00 00 00 00 00 00 00 00 00 00 00 00 00 00 00 00 ................
0040A270 00 00 00 00 00 00 00 00 00 00 00 00 00 00 00 00 ................
0040A280 00 00 00 00 00 00 00 00 00 00 00 00 00 00 00 00 ................
0040A290 00 00 00 00 00 00 00 00 00 00 00 00 00 00 00 00 ................
0040A2A0 00 00 00 00 00 00 00 00 00 00 00 00 00 00 00 00 ................
0040A2B0 00 00 00 00 00 00 00 00 00 00 00 00 00 00 00 00 ................
0040A2C0 00 00 00 00 00 00 00 00 00 00 00 00 00 00 00 00 ................
0040A2D0 00 00 00 00 00 00 00 00 00 00 00 00 00 00 00 00 ................
0040A2E0 00 00 00 00 00 00 00 00 00 00 00 00 00 00 00 00 ................
0040A2F0 00 00 00 00 00 00 00 00 00 00 00 00 00 00 00 00 ................
0040A300 00 00 00 00 00 00 00 00 00 00 00 00 00 00 00 00 ................
0040A310 00 00 00 00 00 00 00 00 00 00 00 00 00 00 00 00 ................
0040A320 00 00 00 00 00 00 00 00 00 00 00 00 00 00 00 00 ................
0040A330 00 00 00 00 00 00 00 00 00 00 00 00 00 00 00 00 ................
0040A340 00 00 00 00 00 00 00 00 00 00 00 00 00 00 00 00 ................
0040A350 00 00 00 00 00 00 00 00 00 00 00 00 00 00 00 00 ................
0040A360 00 00 00 00 00 00 00 00 00 00 00 00 00 00 00 00 ................
0040A370 00 00 00 00 00 00 00 00 00 00 00 00 00 00 00 00 ................
0040A380 00 00 00 00 00 00 00 00 00 00 00 00 00 00 00 00 ................
0040A390 00 00 00 00 00 00 00 00 00 00 00 00 00 00 00 00 ................
0040A3A0 00 00 00 00 00 00 00 00 00 00 00 00 00 00 00 00 ................
0040A3B0 00 00 00 00 00 00 00 00 00 00 00 00 00 00 00 00 ................
0040A3C0 00 00 00 00 00 00 00 00 00 00 00 00 00 00 00 00 ................
0040A3D0 00 00 00 00 00 00 00 00 00 00 00 00 00 00 00 00 ................
0040A3E0 00 00 00 00 00 00 00 00 00 00 00 00 00 00 00 00 ................
0040A3F0 00 00 00 00 00 00 00 00 00 00 00 00 00 00 00 00 ................
0040A400 00 00 00 00 00 00 00 00 00 00 00 00 00 00 00 00 ................
0040A410 00 00 00 00 00 00 00 00 00 00 00 00 00 00 00 00 ................
0040A420 00 00 00 00 00 00 00 00 00 00 00 00 00 00 00 00 ................
0040A430 00 00 00 00 00 00 00 00 00 00 00 00 00 00 00 00 ................
0040A440 00 00 00 00 00 00 00 00 00 00 00 00 00 00 00 00 ................
0040A450 00 00 00 00 00 00 00 00 00 00 00 00 00 00 00 00 ................
0040A460 00 00 00 00 00 00 00 00 00 00 00 00 00 00 00 00 ................
0040A470 00 00 00 00 00 00 00 00 00 00 00 00 00 00 00 00 ................
0040A480 00 00 00 00 00 00 00 00 00 00 00 00 00 00 00 00 ................
0040A490 00 00 00 00 00 00 00 00 00 00 00 00 00 00 00 00 ................
0040A4A0 00 00 00 00 00 00 00 00 00 00 00 00 00 00 00 00 ................
0040A4B0 00 00 00 00 00 00 00 00 00 00 00 00 00 00 00 00 ................
0040A4C0 00 00 00 00 00 00 00 00 00 00 00 00 00 00 00 00 ................
0040A4D0 00 00 00 00 00 00 00 00 00 00 00 00 00 00 00 00 ................
0040A4E0 00 00 00 00 00 00 00 00 00 00 00 00 00 00 00 00 ................
0040A4F0 00 00 00 00 00 00 00 00 00 00 00 00 00 00 00 00 ................
0040A500 00 00 00 00 00 00 00 00 00 00 00 00 00 00 00 00 ................
0040A510 00 00 00 00 00 00 00 00 00 00 00 00 00 00 00 00 ................
0040A520 00 00 00 00 00 00 00 00 00 00 00 00 00 00 00 00 ................
0040A530 00 00 00 00 00 00 00 00 00 00 00 00 00 00 00 00 ................
0040A540 00 00 00 00 00 00 00 00 00 00 00 00 00 00 00 00 ................
0040A550 00 00 00 00 00 00 00 00 00 00 00 00 00 00 00 00 ................
0040A560 00 00 00 00 00 00 00 00 00 00 00 00 00 00 00 00 ................
0040A570 00 00 00 00 00 00 00 00 00 00 00 00 00 00 00 00 ................
0040A580 00 00 00 00 00 00 00 00 00 00 00 00 00 00 00 00 ................
0040A590 00 00 00 00 00 00 00 00 00 00 00 00 00 00 00 00 ................
0040A5A0 00 00 00 00 00 00 00 00 00 00 00 00 00 00 00 00 ................
0040A5B0 00 00 00 00 00 00 00 00 00 00 00 00 00 00 00 00 ................
0040A5C0 00 00 00 00 00 00 00 00 00 00 00 00 00 00 00 00 ................
0040A5D0 00 00 00 00 00 00 00 00 00 00 00 00 00 00 00 00 ................
0040A5E0 00 00 00 00 00 00 00 00 00 00 00 00 00 00 00 00 ................
0040A5F0 00 00 00 00 00 00 00 00 00 00 00 00 00 00 00 00 ................
0040A600 00 00 00 00 00 00 00 00 00 00 00 00 00 00 00 00 ................
0040A610 00 00 00 00 00 00 00 00 00 00 00 00 00 00 00 00 ................
0040A620 00 00 00 00 00 00 00 00 00 00 00 00 00 00 00 00 ................
0040A630 00 00 00 00 00 00 00 00 00 00 00 00 00 00 00 00 ................
0040A640 00 00 00 00 00 00 00 00 00 00 00 00 00 00 00 00 ................
0040A650 00 00 00 00 00 00 00 00 00 00 00 00 00 00 00 00 ................
0040A660 00 00 00 00 00 00 00 00 00 00 00 00 00 00 00 00 ................
0040A670 00 00 00 00 00 00 00 00 00 00 00 00 00 00 00 00 ................
0040A680 00 00 00 00 00 00 00 00 00 00 00 00 00 00 00 00 ................
0040A690 00 00 00 00 00 00 00 00 00 00 00 00 00 00 00 00 ................
0040A6A0 00 00 00 00 00 00 00 00 00 00 00 00 00 00 00 00 ................
0040A6B0 00 00 00 00 00 00 00 00 00 00 00 00 00 00 00 00 ................
0040A6C0 00 00 00 00 00 00 00 00 00 00 00 00 00 00 00 00 ................
0040A6D0 00 00 00 00 00 00 00 00 00 00 00 00 00 00 00 00 ................
0040A6E0 00 00 00 00 00 00 00 00 00 00 00 00 00 00 00 00 ................
0040A6F0 00 00 00 00 00 00 00 00 00 00 00 00 00 00 00 00 ................
0040A700 00 00 00 00 00 00 00 00 00 00 00 00 00 00 00 00 ................
0040A710 00 00 00 00 00 00 00 00 00 00 00 00 00 00 00 00 ................
0040A720 00 00 00 00 00 00 00 00 00 00 00 00 00 00 00 00 ................
0040A730 00 00 00 00 00 00 00 00 00 00 00 00 00 00 00 00 ................
0040A740 00 00 00 00 00 00 00 00 00 00 00 00 00 00 00 00 ................
0040A750 00 00 00 00 00 00 00 00 00 00 00 00 00 00 00 00 ................
0040A760 00 00 00 00 00 00 00 00 00 00 00 00 00 00 00 00 ................
0040A770 00 00 00 00 00 00 00 00 00 00 00 00 00 00 00 00 ................
0040A780 00 00 00 00 00 00 00 00 00 00 00 00 00 00 00 00 ................
0040A790 00 00 00 00 00 00 00 00 00 00 00 00 00 00 00 00 ................
0040A7A0 00 00 00 00 00 00 00 00 00 00 00 00 00 00 00 00 ................
0040A7B0 00 00 00 00 00 00 00 00 00 00 00 00 00 00 00 00 ................
0040A7C0 00 00 00 00 00 00 00 00 00 00 00 00 00 00 00 00 ................
0040A7D0 00 00 00 00 00 00 00 00 00 00 00 00 00 00 00 00 ................
0040A7E0 00 00 00 00 00 00 00 00 00 00 00 00 00 00 00 00 ................
0040A7F0 00 00 00 00 00 00 00 00 00 00 00 00 00 00 00 00 ................
0040A800 00 00 00 00 00 00 00 00 00 00 00 00 00 00 00 00 ................
0040A810 00 00 00 00 00 00 00 00 00 00 00 00 00 00 00 00 ................
0040A820 00 00 00 00 00 00 00 00 00 00 00 00 00 00 00 00 ................
0040A830 00 00 00 00 00 00 00 00 00 00 00 00 00 00 00 00 ................
0040A840 00 00 00 00 00 00 00 00 00 00 00 00 00 00 00 00 ................
0040A850 00 00 00 00 00 00 00 00 00 00 00 00 00 00 00 00 ................
0040A860 00 00 00 00 00 00 00 00 00 00 00 00 00 00 00 00 ................
0040A870 00 00 00 00 00 00 00 00 00 00 00 00 00 00 00 00 ................
0040A880 00 00 00 00 00 00 00 00 00 00 00 00 00 00 00 00 ................
0040A890 00 00 00 00 00 00 00 00 00 00 00 00 00 00 00 00 ................
0040A8A0 00 00 00 00 00 00 00 00 00 00 00 00 00 00 00 00 ................
0040A8B0 00 00 00 00 00 00 00 00 00 00 00 00 00 00 00 00 ................
0040A8C0 00 00 00 00 00 00 00 00 00 00 00 00 00 00 00 00 ................
0040A8D0 00 00 00 00 00 00 00 00 00 00 00 00 00 00 00 00 ................
0040A8E0 00 00 00 00 00 00 00 00 00 00 00 00 00 00 00 00 ................
0040A8F0 00 00 00 00 00 00 00 00 00 00 00 00 00 00 00 00 ................
0040A900 00 00 00 00 00 00 00 00 00 00 00 00 00 00 00 00 ................
0040A910 00 00 00 00 00 00 00 00 00 00 00 00 00 00 00 00 ................
0040A920 00 00 00 00 00 00 00 00 00 00 00 00 00 00 00 00 ................
0040A930 00 00 00 00 00 00 00 00 00 00 00 00 00 00 00 00 ................
0040A940 00 00 00 00 00 00 00 00 00 00 00 00 00 00 00 00 ................
0040A950 00 00 00 00 00 00 00 00 00 00 00 00 00 00 00 00 ................
0040A960 00 00 00 00 00 00 00 00 00 00 00 00 00 00 00 00 ................
0040A970 00 00 00 00 00 00 00 00 00 00 00 00 00 00 00 00 ................
0040A980 00 00 00 00 00 00 00 00 00 00 00 00 00 00 00 00 ................
0040A990 00 00 00 00 00 00 00 00 00 00 00 00 00 00 00 00 ................
0040A9A0 00 00 00 00 00 00 00 00 00 00 00 00 00 00 00 00 ................
0040A9B0 00 00 00 00 00 00 00 00 00 00 00 00 00 00 00 00 ................
0040A9C0 00 00 00 00 00 00 00 00 00 00 00 00 00 00 00 00 ................
0040A9D0 00 00 00 00 00 00 00 00 00 00 00 00 00 00 00 00 ................
0040A9E0 00 00 00 00 00 00 00 00 00 00 00 00 00 00 00 00 ................
0040A9F0 00 00 00 00 00 00 00 00 00 00 00 00 00 00 00 00 ................
0040AA00 00 00 00 00 00 00 00 00 00 00 00 00 00 00 00 00 ................
0040AA10 00 00 00 00 00 00 00 00 00 00 00 00 00 00 00 00 ................
0040AA20 00 00 00 00 00 00 00 00 00 00 00 00 00 00 00 00 ................
0040AA30 00 00 00 00 00 00 00 00 00 00 00 00 00 00 00 00 ................
0040AA40 00 00 00 00 00 00 00 00 00 00 00 00 00 00 00 00 ................
0040AA50 00 00 00 00 00 00 00 00 00 00 00 00 00 00 00 00 ................
0040AA60 00 00 00 00 00 00 00 00 00 00 00 00 00 00 00 00 ................
0040AA70 00 00 00 00 00 00 00 00 00 00 00 00 00 00 00 00 ................
0040AA80 00 00 00 00 00 00 00 00 00 00 00 00 00 00 00 00 ................
0040AA90 00 00 00 00 00 00 00 00 00 00 00 00 00 00 00 00 ................
0040AAA0 00 00 00 00 00 00 00 00 00 00 00 00 00 00 00 00 ................
0040AAB0 00 00 00 00 00 00 00 00 00 00 00 00 00 00 00 00 ................
0040AAC0 00 00 00 00 00 00 00 00 00 00 00 00 00 00 00 00 ................
0040AAD0 00 00 00 00 00 00 00 00 00 00 00 00 00 00 00 00 ................
0040AAE0 00 00 00 00 00 00 00 00 00 00 00 00 00 00 00 00 ................
0040AAF0 00 00 00 00 00 00 00 00 00 00 00 00 00 00 00 00 ................
0040AB00 00 00 00 00 00 00 00 00 00 00 00 00 00 00 00 00 ................
0040AB10 00 00 00 00 00 00 00 00 00 00 00 00 00 00 00 00 ................
0040AB20 00 00 00 00 00 00 00 00 00 00 00 00 00 00 00 00 ................
0040AB30 00 00 00 00 00 00 00 00 00 00 00 00 00 00 00 00 ................
0040AB40 00 00 00 00 00 00 00 00 00 00 00 00 00 00 00 00 ................
0040AB50 00 00 00 00 00 00 00 00 00 00 00 00 00 00 00 00 ................
0040AB60 00 00 00 00 00 00 00 00 00 00 00 00 00 00 00 00 ................
0040AB70 00 00 00 00 00 00 00 00 00 00 00 00 00 00 00 00 ................
0040AB80 00 00 00 00 00 00 00 00 00 00 00 00 00 00 00 00 ................
0040AB90 00 00 00 00 00 00 00 00 00 00 00 00 00 00 00 00 ................
0040ABA0 00 00 00 00 00 00 00 00 00 00 00 00 00 00 00 00 ................
0040ABB0 00 00 00 00 00 00 00 00 00 00 00 00 00 00 00 00 ................
0040ABC0 00 00 00 00 00 00 00 00 00 00 00 00 00 00 00 00 ................
0040ABD0 00 00 00 00 00 00 00 00 00 00 00 00 00 00 00 00 ................
0040ABE0 00 00 00 00 00 00 00 00 00 00 00 00 00 00 00 00 ................
0040ABF0 00 00 00 00 00 00 00 00 00 00 00 00 00 00 00 00 ................
0040AC00 00 00 00 00 00 00 00 00 00 00 00 00 00 00 00 00 ................
0040AC10 00 00 00 00 00 00 00 00 00 00 00 00 00 00 00 00 ................
0040AC20 00 00 00 00 00 00 00 00 00 00 00 00 00 00 00 00 ................
0040AC30 00 00 00 00 00 00 00 00 00 00 00 00 00 00 00 00 ................
0040AC40 00 00 00 00 00 00 00 00 00 00 00 00 00 00 00 00 ................
0040AC50 00 00 00 00 00 00 00 00 00 00 00 00 00 00 00 00 ................
0040AC60 00 00 00 00 00 00 00 00 00 00 00 00 00 00 00 00 ................
0040AC70 00 00 00 00 00 00 00 00 00 00 00 00 00 00 00 00 ................
0040AC80 00 00 00 00 00 00 00 00 00 00 00 00 00 00 00 00 ................
0040AC90 00 00 00 00 00 00 00 00 00 00 00 00 00 00 00 00 ................
0040ACA0 00 00 00 00 00 00 00 00 00 00 00 00 00 00 00 00 ................
0040ACB0 00 00 00 00 00 00 00 00 00 00 00 00 00 00 00 00 ................
0040ACC0 00 00 00 00 00 00 00 00 00 00 00 00 00 00 00 00 ................
0040ACD0 00 00 00 00 00 00 00 00 00 00 00 00 00 00 00 00 ................
0040ACE0 00 00 00 00 00 00 00 00 00 00 00 00 00 00 00 00 ................
0040ACF0 00 00 00 00 00 00 00 00 00 00 00 00 00 00 00 00 ................
0040AD00 00 00 00 00 00 00 00 00 00 00 00 00 00 00 00 00 ................
0040AD10 00 00 00 00 00 00 00 00 00 00 00 00 00 00 00 00 ................
0040AD20 00 00 00 00 00 00 00 00 00 00 00 00 00 00 00 00 ................
0040AD30 00 00 00 00 00 00 00 00 00 00 00 00 00 00 00 00 ................
0040AD40 00 00 00 00 00 00 00 00 00 00 00 00 00 00 00 00 ................
0040AD50 00 00 00 00 00 00 00 00 00 00 00 00 00 00 00 00 ................
0040AD60 00 00 00 00 00 00 00 00 00 00 00 00 00 00 00 00 ................
0040AD70 00 00 00 00 00 00 00 00 00 00 00 00 00 00 00 00 ................
0040AD80 00 00 00 00 00 00 00 00 00 00 00 00 00 00 00 00 ................
0040AD90 00 00 00 00 00 00 00 00 00 00 00 00 00 00 00 00 ................
0040ADA0 00 00 00 00 00 00 00 00 00 00 00 00 00 00 00 00 ................
0040ADB0 00 00 00 00 00 00 00 00 00 00 00 00 00 00 00 00 ................
0040ADC0 00 00 00 00 00 00 00 00 00 00 00 00 00 00 00 00 ................
0040ADD0 00 00 00 00 00 00 00 00 00 00 00 00 00 00 00 00 ................
0040ADE0 00 00 00 00 00 00 00 00 00 00 00 00 00 00 00 00 ................
0040ADF0 00 00 00 00 00 00 00 00 00 00 00 00 00 00 00 00 ................
0040AE00 00 00 00 00 00 00 00 00 00 00 00 00 00 00 00 00 ................
0040AE10 00 00 00 00 00 00 00 00 00 00 00 00 00 00 00 00 ................
0040AE20 00 00 00 00 00 00 00 00 00 00 00 00 00 00 00 00 ................
0040AE30 00 00 00 00 00 00 00 00 00 00 00 00 00 00 00 00 ................
0040AE40 00 00 00 00 00 00 00 00 00 00 00 00 00 00 00 00 ................
0040AE50 00 00 00 00 00 00 00 00 00 00 00 00 00 00 00 00 ................
0040AE60 00 00 00 00 00 00 00 00 00 00 00 00 00 00 00 00 ................
0040AE70 00 00 00 00 00 00 00 00 00 00 00 00 00 00 00 00 ................
0040AE80 00 00 00 00 00 00 00 00 00 00 00 00 00 00 00 00 ................
0040AE90 00 00 00 00 00 00 00 00 00 00 00 00 00 00 00 00 ................
0040AEA0 00 00 00 00 00 00 00 00 00 00 00 00 00 00 00 00 ................
0040AEB0 00 00 00 00 00 00 00 00 00 00 00 00 00 00 00 00 ................
0040AEC0 00 00 00 00 00 00 00 00 00 00 00 00 00 00 00 00 ................
0040AED0 00 00 00 00 00 00 00 00 00 00 00 00 00 00 00 00 ................
0040AEE0 00 00 00 00 00 00 00 00 00 00 00 00 00 00 00 00 ................
0040AEF0 00 00 00 00 00 00 00 00 00 00 00 00 00 00 00 00 ................
0040AF00 00 00 00 00 00 00 00 00 00 00 00 00 00 00 00 00 ................
0040AF10 00 00 00 00 00 00 00 00 00 00 00 00 00 00 00 00 ................
0040AF20 00 00 00 00 00 00 00 00 00 00 00 00 00 00 00 00 ................
0040AF30 00 00 00 00 00 00 00 00 00 00 00 00 00 00 00 00 ................
0040AF40 00 00 00 00 00 00 00 00 00 00 00 00 00 00 00 00 ................
0040AF50 00 00 00 00 00 00 00 00 00 00 00 00 00 00 00 00 ................
0040AF60 00 00 00 00 00 00 00 00 00 00 00 00 00 00 00 00 ................
0040AF70 00 00 00 00 00 00 00 00 00 00 00 00 00 00 00 00 ................
0040AF80 00 00 00 00 00 00 00 00 00 00 00 00 00 00 00 00 ................
0040AF90 00 00 00 00 00 00 00 00 00 00 00 00 00 00 00 00 ................
0040AFA0 00 00 00 00 00 00 00 00 00 00 00 00 00 00 00 00 ................
0040AFB0 00 00 00 00 00 00 00 00 00 00 00 00 00 00 00 00 ................
0040AFC0 00 00 00 00 00 00 00 00 00 00 00 00 00 00 00 00 ................
0040AFD0 00 00 00 00 00 00 00 00 00 00 00 00 00 00 00 00 ................
0040AFE0 00 00 00 00 00 00 00 00 00 00 00 00 00 00 00 00 ................
0040AFF0 00 00 00 00 00 00 00 00 00 00 00 00 00 00 00 00 ................
0040B000 00 00 00 00 00 00 00 00 00 00 00 00 00 00 00 00 ................
0040B010 00 00 00 00 00 00 00 00 00 00 00 00 00 00 00 00 ................
0040B020 00 00 00 00 00 00 00 00 00 00 00 00 00 00 00 00 ................
0040B030 00 00 00 00 00 00 00 00 00 00 00 00 00 00 00 00 ................
0040B040 00 00 00 00 00 00 00 00 00 00 00 00 00 00 00 00 ................
0040B050 00 00 00 00 00 00 00 00 00 00 00 00 00 00 00 00 ................
0040B060 00 00 00 00 00 00 00 00 00 00 00 00 00 00 00 00 ................
0040B070 00 00 00 00 00 00 00 00 00 00 00 00 00 00 00 00 ................
0040B080 00 00 00 00 00 00 00 00 00 00 00 00 00 00 00 00 ................
0040B090 00 00 00 00 00 00 00 00 00 00 00 00 00 00 00 00 ................
0040B0A0 00 00 00 00 00 00 00 00 00 00 00 00 00 00 00 00 ................
0040B0B0 00 00 00 00 00 00 00 00 00 00 00 00 00 00 00 00 ................
0040B0C0 00 00 00 00 00 00 00 00 00 00 00 00 00 00 00 00 ................
0040B0D0 00 00 00 00 00 00 00 00 00 00 00 00 00 00 00 00 ................
0040B0E0 00 00 00 00 00 00 00 00 00 00 00 00 00 00 00 00 ................
0040B0F0 00 00 00 00 00 00 00 00 00 00 00 00 00 00 00 00 ................
0040B100 00 00 00 00 00 00 00 00 00 00 00 00 00 00 00 00 ................
0040B110 00 00 00 00 00 00 00 00 00 00 00 00 00 00 00 00 ................
0040B120 00 00 00 00 00 00 00 00 00 00 00 00 00 00 00 00 ................
0040B130 00 00 00 00 00 00 00 00 00 00 00 00 00 00 00 00 ................
0040B140 00 00 00 00 00 00 00 00 00 00 00 00 00 00 00 00 ................
0040B150 00 00 00 00 00 00 00 00 00 00 00 00 00 00 00 00 ................
0040B160 00 00 00 00 00 00 00 00 00 00 00 00 00 00 00 00 ................
0040B170 00 00 00 00 00 00 00 00 00 00 00 00 00 00 00 00 ................
0040B180 00 00 00 00 00 00 00 00 00 00 00 00 00 00 00 00 ................
0040B190 00 00 00 00 00 00 00 00 00 00 00 00 00 00 00 00 ................
0040B1A0 00 00 00 00 00 00 00 00 00 00 00 00 00 00 00 00 ................
0040B1B0 00 00 00 00 00 00 00 00 00 00 00 00 00 00 00 00 ................
0040B1C0 00 00 00 00 00 00 00 00 00 00 00 00 00 00 00 00 ................
0040B1D0 00 00 00 00 00 00 00 00 00 00 00 00 00 00 00 00 ................
0040B1E0 00 00 00 00 00 00 00 00 00 00 00 00 00 00 00 00 ................
0040B1F0 00 00 00 00 00 00 00 00 00 00 00 00 00 00 00 00 ................
0040B200 00 00 00 00 00 00 00 00 00 00 00 00 00 00 00 00 ................
0040B210 00 00 00 00 00 00 00 00 00 00 00 00 00 00 00 00 ................
0040B220 00 00 00 00 00 00 00 00 00 00 00 00 00 00 00 00 ................
0040B230 00 00 00 00 00 00 00 00 00 00 00 00 00 00 00 00 ................
0040B240 00 00 00 00 00 00 00 00 00 00 00 00 00 00 00 00 ................
0040B250 00 00 00 00 00 00 00 00 00 00 00 00 00 00 00 00 ................
0040B260 00 00 00 00 00 00 00 00 00 00 00 00 00 00 00 00 ................
0040B270 00 00 00 00 00 00 00 00 00 00 00 00 00 00 00 00 ................
0040B280 00 00 00 00 00 00 00 00 00 00 00 00 00 00 00 00 ................
0040B290 00 00 00 00 00 00 00 00 00 00 00 00 00 00 00 00 ................
0040B2A0 00 00 00 00 00 00 00 00 00 00 00 00 00 00 00 00 ................
0040B2B0 00 00 00 00 00 00 00 00 00 00 00 00 00 00 00 00 ................
0040B2C0 00 00 00 00 00 00 00 00 00 00 00 00 00 00 00 00 ................
0040B2D0 00 00 00 00 00 00 00 00 00 00 00 00 00 00 00 00 ................
0040B2E0 00 00 00 00 00 00 00 00 00 00 00 00 00 00 00 00 ................
0040B2F0 00 00 00 00 00 00 00 00 00 00 00 00 00 00 00 00 ................
0040B300 00 00 00 00 00 00 00 00 00 00 00 00 00 00 00 00 ................
0040B310 00 00 00 00 00 00 00 00 00 00 00 00 00 00 00 00 ................
0040B320 00 00 00 00 00 00 00 00 00 00 00 00 00 00 00 00 ................
0040B330 00 00 00 00 00 00 00 00 00 00 00 00 00 00 00 00 ................
0040B340 00 00 00 00 00 00 00 00 00 00 00 00 00 00 00 00 ................
0040B350 00 00 00 00 00 00 00 00 00 00 00 00 00 00 00 00 ................
0040B360 00 00 00 00 00 00 00 00 00 00 00 00 00 00 00 00 ................
0040B370 00 00 00 00 00 00 00 00 00 00 00 00 00 00 00 00 ................
0040B380 00 00 00 00 00 00 00 00 00 00 00 00 00 00 00 00 ................
0040B390 00 00 00 00 00 00 00 00 00 00 00 00 00 00 00 00 ................
0040B3A0 00 00 00 00 00 00 00 00 00 00 00 00 00 00 00 00 ................
0040B3B0 00 00 00 00 00 00 00 00 00 00 00 00 00 00 00 00 ................
0040B3C0 00 00 00 00 00 00 00 00 00 00 00 00 00 00 00 00 ................
0040B3D0 00 00 00 00 00 00 00 00 00 00 00 00 00 00 00 00 ................
0040B3E0 00 00 00 00 00 00 00 00 00 00 00 00 00 00 00 00 ................
0040B3F0 00 00 00 00 00 00 00 00 00 00 00 00 00 00 00 00 ................
0040B400 00 00 00 00 00 00 00 00 00 00 00 00 00 00 00 00 ................
0040B410 00 00 00 00 00 00 00 00 00 00 00 00 00 00 00 00 ................
0040B420 00 00 00 00 00 00 00 00 00 00 00 00 00 00 00 00 ................
0040B430 00 00 00 00 00 00 00 00 00 00 00 00 00 00 00 00 ................
0040B440 00 00 00 00 00 00 00 00 00 00 00 00 00 00 00 00 ................
0040B450 00 00 00 00 00 00 00 00 00 00 00 00 00 00 00 00 ................
0040B460 00 00 00 00 00 00 00 00 00 00 00 00 00 00 00 00 ................
0040B470 00 00 00 00 00 00 00 00 00 00 00 00 00 00 00 00 ................
0040B480 00 00 00 00 00 00 00 00 00 00 00 00 00 00 00 00 ................
0040B490 00 00 00 00 00 00 00 00 00 00 00 00 00 00 00 00 ................
0040B4A0 00 00 00 00 00 00 00 00 00 00 00 00 00 00 00 00 ................
0040B4B0 00 00 00 00 00 00 00 00 00 00 00 00 00 00 00 00 ................
0040B4C0 00 00 00 00 00 00 00 00 00 00 00 00 00 00 00 00 ................
0040B4D0 00 00 00 00 00 00 00 00 00 00 00 00 00 00 00 00 ................
0040B4E0 00 00 00 00 00 00 00 00 00 00 00 00 00 00 00 00 ................
0040B4F0 00 00 00 00 00 00 00 00 00 00 00 00 00 00 00 00 ................
0040B500 00 00 00 00 00 00 00 00 00 00 00 00 00 00 00 00 ................
0040B510 00 00 00 00 00 00 00 00 00 00 00 00 00 00 00 00 ................
0040B520 00 00 00 00 00 00 00 00 00 00 00 00 00 00 00 00 ................
0040B530 00 00 00 00 00 00 00 00 00 00 00 00 00 00 00 00 ................
0040B540 00 00 00 00 00 00 00 00 00 00 00 00 00 00 00 00 ................
0040B550 00 00 00 00 00 00 00 00 00 00 00 00 00 00 00 00 ................
0040B560 00 00 00 00 00 00 00 00 00 00 00 00 00 00 00 00 ................
0040B570 00 00 00 00 00 00 00 00 00 00 00 00 00 00 00 00 ................
0040B580 00 00 00 00 00 00 00 00 00 00 00 00 00 00 00 00 ................
0040B590 00 00 00 00 00 00 00 00 00 00 00 00 00 00 00 00 ................
0040B5A0 00 00 00 00 00 00 00 00 00 00 00 00 00 00 00 00 ................
0040B5B0 00 00 00 00 00 00 00 00 00 00 00 00 00 00 00 00 ................
0040B5C0 00 00 00 00 00 00 00 00 00 00 00 00 00 00 00 00 ................
0040B5D0 00 00 00 00 00 00 00 00 00 00 00 00 00 00 00 00 ................
0040B5E0 00 00 00 00 00 00 00 00 00 00 00 00 00 00 00 00 ................
0040B5F0 00 00 00 00 00 00 00 00 00 00 00 00 00 00 00 00 ................
0040B600 00 00 00 00 00 00 00 00 00 00 00 00 00 00 00 00 ................
0040B610 00 00 00 00 00 00 00 00 00 00 00 00 00 00 00 00 ................
0040B620 00 00 00 00 00 00 00 00 00 00 00 00 00 00 00 00 ................
0040B630 00 00 00 00 00 00 00 00 00 00 00 00 00 00 00 00 ................
0040B640 00 00 00 00 00 00 00 00 00 00 00 00 00 00 00 00 ................
0040B650 00 00 00 00 00 00 00 00 00 00 00 00 00 00 00 00 ................
0040B660 00 00 00 00 00 00 00 00 00 00 00 00 00 00 00 00 ................
0040B670 00 00 00 00 00 00 00 00 00 00 00 00 00 00 00 00 ................
0040B680 00 00 00 00 00 00 00 00 00 00 00 00 00 00 00 00 ................
0040B690 00 00 00 00 00 00 00 00 00 00 00 00 00 00 00 00 ................
0040B6A0 00 00 00 00 00 00 00 00 00 00 00 00 00 00 00 00 ................
0040B6B0 00 00 00 00 00 00 00 00 00 00 00 00 00 00 00 00 ................
0040B6C0 00 00 00 00 00 00 00 00 00 00 00 00 00 00 00 00 ................
0040B6D0 00 00 00 00 00 00 00 00 00 00 00 00 00 00 00 00 ................
0040B6E0 00 00 00 00 00 00 00 00 00 00 00 00 00 00 00 00 ................
0040B6F0 00 00 00 00 00 00 00 00 00 00 00 00 00 00 00 00 ................
0040B700 00 00 00 00 00 00 00 00 00 00 00 00 00 00 00 00 ................
0040B710 00 00 00 00 00 00 00 00 00 00 00 00 00 00 00 00 ................
0040B720 00 00 00 00 00 00 00 00 00 00 00 00 00 00 00 00 ................
0040B730 00 00 00 00 00 00 00 00 00 00 00 00 00 00 00 00 ................
0040B740 00 00 00 00 00 00 00 00 00 00 00 00 00 00 00 00 ................
0040B750 00 00 00 00 00 00 00 00 00 00 00 00 00 00 00 00 ................
0040B760 00 00 00 00 00 00 00 00 00 00 00 00 00 00 00 00 ................
0040B770 00 00 00 00 00 00 00 00 00 00 00 00 00 00 00 00 ................
0040B780 00 00 00 00 00 00 00 00 00 00 00 00 00 00 00 00 ................
0040B790 00 00 00 00 00 00 00 00 00 00 00 00 00 00 00 00 ................
0040B7A0 00 00 00 00 00 00 00 00 00 00 00 00 00 00 00 00 ................
0040B7B0 00 00 00 00 00 00 00 00 00 00 00 00 00 00 00 00 ................
0040B7C0 00 00 00 00 00 00 00 00 00 00 00 00 00 00 00 00 ................
0040B7D0 00 00 00 00 00 00 00 00 00 00 00 00 00 00 00 00 ................
0040B7E0 00 00 00 00 00 00 00 00 00 00 00 00 00 00 00 00 ................
0040B7F0 00 00 00 00 00 00 00 00 00 00 00 00 00 00 00 00 ................
0040B800 00 00 00 00 00 00 00 00 00 00 00 00 00 00 00 00 ................
0040B810 00 00 00 00 00 00 00 00 00 00 00 00 00 00 00 00 ................
0040B820 00 00 00 00 00 00 00 00 00 00 00 00 00 00 00 00 ................
0040B830 00 00 00 00 00 00 00 00 00 00 00 00 00 00 00 00 ................
0040B840 00 00 00 00 00 00 00 00 00 00 00 00 00 00 00 00 ................
0040B850 00 00 00 00 00 00 00 00 00 00 00 00 00 00 00 00 ................
0040B860 00 00 00 00 00 00 00 00 00 00 00 00 00 00 00 00 ................
0040B870 00 00 00 00 00 00 00 00 00 00 00 00 00 00 00 00 ................
0040B880 00 00 00 00 00 00 00 00 00 00 00 00 00 00 00 00 ................
0040B890 00 00 00 00 00 00 00 00 00 00 00 00 00 00 00 00 ................
0040B8A0 00 00 00 00 00 00 00 00 00 00 00 00 00 00 00 00 ................
0040B8B0 00 00 00 00 00 00 00 00 00 00 00 00 00 00 00 00 ................
0040B8C0 00 00 00 00 00 00 00 00 00 00 00 00 00 00 00 00 ................
0040B8D0 00 00 00 00 00 00 00 00 00 00 00 00 00 00 00 00 ................
0040B8E0 00 00 00 00 00 00 00 00 00 00 00 00 00 00 00 00 ................
0040B8F0 00 00 00 00 00 00 00 00 00 00 00 00 00 00 00 00 ................
0040B900 00 00 00 00 00 00 00 00 00 00 00 00 00 00 00 00 ................
0040B910 00 00 00 00 00 00 00 00 00 00 00 00 00 00 00 00 ................
0040B920 00 00 00 00 00 00 00 00 00 00 00 00 00 00 00 00 ................
0040B930 00 00 00 00 00 00 00 00 00 00 00 00 00 00 00 00 ................
0040B940 00 00 00 00 00 00 00 00 00 00 00 00 00 00 00 00 ................
0040B950 00 00 00 00 00 00 00 00 00 00 00 00 00 00 00 00 ................
0040B960 00 00 00 00 00 00 00 00 00 00 00 00 00 00 00 00 ................
0040B970 00 00 00 00 00 00 00 00 00 00 00 00 00 00 00 00 ................
0040B980 00 00 00 00 00 00 00 00 00 00 00 00 00 00 00 00 ................
0040B990 00 00 00 00 00 00 00 00 00 00 00 00 00 00 00 00 ................
0040B9A0 00 00 00 00 00 00 00 00 00 00 00 00 00 00 00 00 ................
0040B9B0 00 00 00 00 00 00 00 00 00 00 00 00 00 00 00 00 ................
0040B9C0 00 00 00 00 00 00 00 00 00 00 00 00 00 00 00 00 ................
0040B9D0 00 00 00 00 00 00 00 00 00 00 00 00 00 00 00 00 ................
0040B9E0 00 00 00 00 00 00 00 00 00 00 00 00 00 00 00 00 ................
0040B9F0 00 00 00 00 00 00 00 00 00 00 00 00 00 00 00 00 ................
0040BA00 00 00 00 00 00 00 00 00 00 00 00 00 00 00 00 00 ................
0040BA10 00 00 00 00 00 00 00 00 00 00 00 00 00 00 00 00 ................
0040BA20 00 00 00 00 00 00 00 00 00 00 00 00 00 00 00 00 ................
0040BA30 00 00 00 00 00 00 00 00 00 00 00 00 00 00 00 00 ................
0040BA40 00 00 00 00 00 00 00 00 00 00 00 00 00 00 00 00 ................
0040BA50 00 00 00 00 00 00 00 00 00 00 00 00 00 00 00 00 ................
0040BA60 00 00 00 00 00 00 00 00 00 00 00 00 00 00 00 00 ................
0040BA70 00 00 00 00 00 00 00 00 00 00 00 00 00 00 00 00 ................
0040BA80 00 00 00 00 00 00 00 00 00 00 00 00 00 00 00 00 ................
0040BA90 00 00 00 00 00 00 00 00 00 00 00 00 00 00 00 00 ................
0040BAA0 00 00 00 00 00 00 00 00 00 00 00 00 00 00 00 00 ................
0040BAB0 00 00 00 00 00 00 00 00 00 00 00 00 00 00 00 00 ................
0040BAC0 00 00 00 00 00 00 00 00 00 00 00 00 00 00 00 00 ................
0040BAD0 00 00 00 00 00 00 00 00 00 00 00 00 00 00 00 00 ................
0040BAE0 00 00 00 00 00 00 00 00 00 00 00 00 00 00 00 00 ................
0040BAF0 00 00 00 00 00 00 00 00 00 00 00 00 00 00 00 00 ................
0040BB00 00 00 00 00 00 00 00 00 00 00 00 00 00 00 00 00 ................
0040BB10 00 00 00 00 00 00 00 00 00 00 00 00 00 00 00 00 ................
0040BB20 00 00 00 00 00 00 00 00 00 00 00 00 00 00 00 00 ................
0040BB30 00 00 00 00 00 00 00 00 00 00 00 00 00 00 00 00 ................
0040BB40 00 00 00 00 00 00 00 00 00 00 00 00 00 00 00 00 ................
0040BB50 00 00 00 00 00 00 00 00 00 00 00 00 00 00 00 00 ................
0040BB60 00 00 00 00 00 00 00 00 00 00 00 00 00 00 00 00 ................
0040BB70 00 00 00 00 00 00 00 00 00 00 00 00 00 00 00 00 ................
0040BB80 00 00 00 00 00 00 00 00 00 00 00 00 00 00 00 00 ................
0040BB90 00 00 00 00 00 00 00 00 00 00 00 00 00 00 00 00 ................
0040BBA0 00 00 00 00 00 00 00 00 00 00 00 00 00 00 00 00 ................
0040BBB0 00 00 00 00 00 00 00 00 00 00 00 00 00 00 00 00 ................
0040BBC0 00 00 00 00 00 00 00 00 00 00 00 00 00 00 00 00 ................
0040BBD0 00 00 00 00 00 00 00 00 00 00 00 00 00 00 00 00 ................
0040BBE0 00 00 00 00 00 00 00 00 00 00 00 00 00 00 00 00 ................
0040BBF0 00 00 00 00 00 00 00 00 00 00 00 00 00 00 00 00 ................
0040BC00 00 00 00 00 00 00 00 00 00 00 00 00 00 00 00 00 ................
0040BC10 00 00 00 00 00 00 00 00 00 00 00 00 00 00 00 00 ................
0040BC20 00 00 00 00 00 00 00 00 00 00 00 00 00 00 00 00 ................
0040BC30 00 00 00 00 00 00 00 00 00 00 00 00 00 00 00 00 ................
0040BC40 00 00 00 00 00 00 00 00 00 00 00 00 00 00 00 00 ................
0040BC50 00 00 00 00 00 00 00 00 00 00 00 00 00 00 00 00 ................
0040BC60 00 00 00 00 00 00 00 00 00 00 00 00 00 00 00 00 ................
0040BC70 00 00 00 00 00 00 00 00 00 00 00 00 00 00 00 00 ................
0040BC80 00 00 00 00 00 00 00 00 00 00 00 00 00 00 00 00 ................
0040BC90 00 00 00 00 00 00 00 00 00 00 00 00 00 00 00 00 ................
0040BCA0 00 00 00 00 00 00 00 00 00 00 00 00 00 00 00 00 ................
0040BCB0 00 00 00 00 00 00 00 00 00 00 00 00 00 00 00 00 ................
0040BCC0 00 00 00 00 00 00 00 00 00 00 00 00 00 00 00 00 ................
0040BCD0 00 00 00 00 00 00 00 00 00 00 00 00 00 00 00 00 ................
0040BCE0 00 00 00 00 00 00 00 00 00 00 00 00 00 00 00 00 ................
0040BCF0 00 00 00 00 00 00 00 00 00 00 00 00 00 00 00 00 ................
0040BD00 00 00 00 00 00 00 00 00 00 00 00 00 00 00 00 00 ................
0040BD10 00 00 00 00 00 00 00 00 00 00 00 00 00 00 00 00 ................
0040BD20 00 00 00 00 00 00 00 00 00 00 00 00 00 00 00 00 ................
0040BD30 00 00 00 00 00 00 00 00 00 00 00 00 00 00 00 00 ................
0040BD40 00 00 00 00 00 00 00 00 00 00 00 00 00 00 00 00 ................
0040BD50 00 00 00 00 00 00 00 00 00 00 00 00 00 00 00 00 ................
0040BD60 00 00 00 00 00 00 00 00 00 00 00 00 00 00 00 00 ................
0040BD70 00 00 00 00 00 00 00 00 00 00 00 00 00 00 00 00 ................
0040BD80 00 00 00 00 00 00 00 00 00 00 00 00 00 00 00 00 ................
0040BD90 00 00 00 00 00 00 00 00 00 00 00 00 00 00 00 00 ................
0040BDA0 00 00 00 00 00 00 00 00 00 00 00 00 00 00 00 00 ................
0040BDB0 00 00 00 00 00 00 00 00 00 00 00 00 00 00 00 00 ................
0040BDC0 00 00 00 00 00 00 00 00 00 00 00 00 00 00 00 00 ................
0040BDD0 00 00 00 00 00 00 00 00 00 00 00 00 00 00 00 00 ................
0040BDE0 00 00 00 00 00 00 00 00 00 00 00 00 00 00 00 00 ................
0040BDF0 00 00 00 00 00 00 00 00 00 00 00 00 00 00 00 00 ................
0040BE00 00 00 00 00 00 00 00 00 00 00 00 00 00 00 00 00 ................
0040BE10 00 00 00 00 00 00 00 00 00 00 00 00 00 00 00 00 ................
0040BE20 00 00 00 00 00 00 00 00 00 00 00 00 00 00 00 00 ................
0040BE30 00 00 00 00 00 00 00 00 00 00 00 00 00 00 00 00 ................
0040BE40 00 00 00 00 00 00 00 00 00 00 00 00 00 00 00 00 ................
0040BE50 00 00 00 00 00 00 00 00 00 00 00 00 00 00 00 00 ................
0040BE60 00 00 00 00 00 00 00 00 00 00 00 00 00 00 00 00 ................
0040BE70 00 00 00 00 00 00 00 00 00 00 00 00 00 00 00 00 ................
0040BE80 00 00 00 00 00 00 00 00 00 00 00 00 00 00 00 00 ................
0040BE90 00 00 00 00 00 00 00 00 00 00 00 00 00 00 00 00 ................
0040BEA0 00 00 00 00 00 00 00 00 00 00 00 00 00 00 00 00 ................
0040BEB0 00 00 00 00 00 00 00 00 00 00 00 00 00 00 00 00 ................
0040BEC0 00 00 00 00 00 00 00 00 00 00 00 00 00 00 00 00 ................
0040BED0 00 00 00 00 00 00 00 00 00 00 00 00 00 00 00 00 ................
0040BEE0 00 00 00 00 00 00 00 00 00 00 00 00 00 00 00 00 ................
0040BEF0 00 00 00 00 00 00 00 00 00 00 00 00 00 00 00 00 ................
0040BF00 00 00 00 00 00 00 00 00 00 00 00 00 00 00 00 00 ................
0040BF10 00 00 00 00 00 00 00 00 00 00 00 00 00 00 00 00 ................
0040BF20 00 00 00 00 00 00 00 00 00 00 00 00 00 00 00 00 ................
0040BF30 00 00 00 00 00 00 00 00 00 00 00 00 00 00 00 00 ................
0040BF40 00 00 00 00 00 00 00 00 00 00 00 00 00 00 00 00 ................
0040BF50 00 00 00 00 00 00 00 00 00 00 00 00 00 00 00 00 ................
0040BF60 00 00 00 00 00 00 00 00 00 00 00 00 00 00 00 00 ................
0040BF70 00 00 00 00 00 00 00 00 00 00 00 00 00 00 00 00 ................
0040BF80 00 00 00 00 00 00 00 00 00 00 00 00 00 00 00 00 ................
0040BF90 00 00 00 00 00 00 00 00 00 00 00 00 00 00 00 00 ................
0040BFA0 00 00 00 00 00 00 00 00 00 00 00 00 00 00 00 00 ................
0040BFB0 00 00 00 00 00 00 00 00 00 00 00 00 00 00 00 00 ................
0040BFC0 00 00 00 00 00 00 00 00 00 00 00 00 00 00 00 00 ................
0040BFD0 00 00 00 00 00 00 00 00 00 00 00 00 00 00 00 00 ................
0040BFE0 00 00 00 00 00 00 00 00 00 00 00 00 00 00 00 00 ................
0040BFF0 00 00 00 00 00 00 00 00 00 00 00 00 00 00 00 00 ................
0040C000 00 00 00 00 00 00 00 00 00 00 00 00 00 00 00 00 ................
0040C010 00 00 00 00 00 00 00 00 00 00 00 00 00 00 00 00 ................
0040C020 00 00 00 00 00 00 00 00 00 00 00 00 00 00 00 00 ................
0040C030 00 00 00 00 00 00 00 00 00 00 00 00 00 00 00 00 ................
0040C040 00 00 00 00 00 00 00 00 00 00 00 00 00 00 00 00 ................
0040C050 00 00 00 00 00 00 00 00 00 00 00 00 00 00 00 00 ................
0040C060 00 00 00 00 00 00 00 00 00 00 00 00 00 00 00 00 ................
0040C070 00 00 00 00 00 00 00 00 00 00 00 00 00 00 00 00 ................
0040C080 00 00 00 00 00 00 00 00 00 00 00 00 00 00 00 00 ................
0040C090 00 00 00 00 00 00 00 00 00 00 00 00 00 00 00 00 ................
0040C0A0 00 00 00 00 00 00 00 00 00 00 00 00 00 00 00 00 ................
0040C0B0 00 00 00 00 00 00 00 00 00 00 00 00 00 00 00 00 ................
0040C0C0 00 00 00 00 00 00 00 00 00 00 00 00 00 00 00 00 ................
0040C0D0 00 00 00 00 00 00 00 00 00 00 00 00 00 00 00 00 ................
0040C0E0 00 00 00 00 00 00 00 00 00 00 00 00 00 00 00 00 ................
0040C0F0 00 00 00 00 00 00 00 00 00 00 00 00 00 00 00 00 ................
0040C100 00 00 00 00 00 00 00 00 00 00 00 00 00 00 00 00 ................
0040C110 00 00 00 00 00 00 00 00 00 00 00 00 00 00 00 00 ................
0040C120 00 00 00 00 00 00 00 00 00 00 00 00 00 00 00 00 ................
0040C130 00 00 00 00 00 00 00 00 00 00 00 00 00 00 00 00 ................
0040C140 00 00 00 00 00 00 00 00 00 00 00 00 00 00 00 00 ................
0040C150 00 00 00 00 00 00 00 00 00 00 00 00 00 00 00 00 ................
0040C160 00 00 00 00 00 00 00 00 00 00 00 00 00 00 00 00 ................
0040C170 00 00 00 00 00 00 00 00 00 00 00 00 00 00 00 00 ................
0040C180 00 00 00 00 00 00 00 00 00 00 00 00 00 00 00 00 ................
0040C190 00 00 00 00 00 00 00 00 00 00 00 00 00 00 00 00 ................
0040C1A0 00 00 00 00 00 00 00 00 00 00 00 00 00 00 00 00 ................
0040C1B0 00 00 00 00 00 00 00 00 00 00 00 00 00 00 00 00 ................
0040C1C0 00 00 00 00 00 00 00 00 00 00 00 00 00 00 00 00 ................
0040C1D0 00 00 00 00 00 00 00 00 00 00 00 00 00 00 00 00 ................
0040C1E0 00 00 00 00 00 00 00 00 00 00 00 00 00 00 00 00 ................
0040C1F0 00 00 00 00 00 00 00 00 00 00 00 00 00 00 00 00 ................
0040C200 00 00 00 00 00 00 00 00 00 00 00 00 00 00 00 00 ................
0040C210 00 00 00 00 00 00 00 00 00 00 00 00 00 00 00 00 ................
0040C220 00 00 00 00 00 00 00 00 00 00 00 00 00 00 00 00 ................
0040C230 00 00 00 00 00 00 00 00 00 00 00 00 00 00 00 00 ................
0040C240 00 00 00 00 00 00 00 00 00 00 00 00 00 00 00 00 ................
0040C250 00 00 00 00 00 00 00 00 00 00 00 00 00 00 00 00 ................
0040C260 00 00 00 00 00 00 00 00 00 00 00 00 00 00 00 00 ................
0040C270 00 00 00 00 00 00 00 00 00 00 00 00 00 00 00 00 ................
0040C280 00 00 00 00 00 00 00 00 00 00 00 00 00 00 00 00 ................
0040C290 00 00 00 00 00 00 00 00 00 00 00 00 00 00 00 00 ................
0040C2A0 00 00 00 00 00 00 00 00 00 00 00 00 00 00 00 00 ................
0040C2B0 00 00 00 00 00 00 00 00 00 00 00 00 00 00 00 00 ................
0040C2C0 00 00 00 00 00 00 00 00 00 00 00 00 00 00 00 00 ................
0040C2D0 00 00 00 00 00 00 00 00 00 00 00 00 00 00 00 00 ................
0040C2E0 00 00 00 00 00 00 00 00 00 00 00 00 00 00 00 00 ................
0040C2F0 00 00 00 00 00 00 00 00 00 00 00 00 00 00 00 00 ................
0040C300 00 00 00 00 00 00 00 00 00 00 00 00 00 00 00 00 ................
0040C310 00 00 00 00 00 00 00 00 00 00 00 00 00 00 00 00 ................
0040C320 00 00 00 00 00 00 00 00 00 00 00 00 00 00 00 00 ................
0040C330 00 00 00 00 00 00 00 00 00 00 00 00 00 00 00 00 ................
0040C340 00 00 00 00 00 00 00 00 00 00 00 00 00 00 00 00 ................
0040C350 00 00 00 00 00 00 00 00 00 00 00 00 00 00 00 00 ................
0040C360 00 00 00 00 00 00 00 00 00 00 00 00 00 00 00 00 ................
0040C370 00 00 00 00 00 00 00 00 00 00 00 00 00 00 00 00 ................
0040C380 00 00 00 00 00 00 00 00 00 00 00 00 00 00 00 00 ................
0040C390 00 00 00 00 00 00 00 00 00 00 00 00 00 00 00 00 ................
0040C3A0 00 00 00 00 00 00 00 00 00 00 00 00 00 00 00 00 ................
0040C3B0 00 00 00 00 00 00 00 00 00 00 00 00 00 00 00 00 ................
0040C3C0 00 00 00 00 00 00 00 00 00 00 00 00 00 00 00 00 ................
0040C3D0 00 00 00 00 00 00 00 00 00 00 00 00 00 00 00 00 ................
0040C3E0 00 00 00 00 00 00 00 00 00 00 00 00 00 00 00 00 ................
0040C3F0 00 00 00 00 00 00 00 00 00 00 00 00 00 00 00 00 ................
0040C400 00 00 00 00 00 00 00 00 00 00 00 00 00 00 00 00 ................
0040C410 00 00 00 00 00 00 00 00 00 00 00 00 00 00 00 00 ................
0040C420 00 00 00 00 00 00 00 00 00 00 00 00 00 00 00 00 ................
0040C430 00 00 00 00 00 00 00 00 00 00 00 00 00 00 00 00 ................
0040C440 00 00 00 00 00 00 00 00 00 00 00 00 00 00 00 00 ................
0040C450 00 00 00 00 00 00 00 00 00 00 00 00 00 00 00 00 ................
0040C460 00 00 00 00 00 00 00 00 00 00 00 00 00 00 00 00 ................
0040C470 00 00 00 00 00 00 00 00 00 00 00 00 00 00 00 00 ................
0040C480 00 00 00 00 00 00 00 00 00 00 00 00 00 00 00 00 ................
0040C490 00 00 00 00 00 00 00 00 00 00 00 00 00 00 00 00 ................
0040C4A0 00 00 00 00 00 00 00 00 00 00 00 00 00 00 00 00 ................
0040C4B0 00 00 00 00 00 00 00 00 00 00 00 00 00 00 00 00 ................
0040C4C0 00 00 00 00 00 00 00 00 00 00 00 00 00 00 00 00 ................
0040C4D0 00 00 00 00 00 00 00 00 00 00 00 00 00 00 00 00 ................
0040C4E0 00 00 00 00 00 00 00 00 00 00 00 00 00 00 00 00 ................
0040C4F0 00 00 00 00 00 00 00 00 00 00 00 00 00 00 00 00 ................
0040C500 00 00 00 00 00 00 00 00 00 00 00 00 00 00 00 00 ................
0040C510 00 00 00 00 00 00 00 00 00 00 00 00 00 00 00 00 ................
0040C520 00 00 00 00 00 00 00 00 00 00 00 00 00 00 00 00 ................
0040C530 00 00 00 00 00 00 00 00 00 00 00 00 00 00 00 00 ................
0040C540 00 00 00 00 00 00 00 00 00 00 00 00 00 00 00 00 ................
0040C550 00 00 00 00 00 00 00 00 00 00 00 00 00 00 00 00 ................
0040C560 00 00 00 00 00 00 00 00 00 00 00 00 00 00 00 00 ................
0040C570 00 00 00 00 00 00 00 00 00 00 00 00 00 00 00 00 ................
0040C580 00 00 00 00 00 00 00 00 00 00 00 00 00 00 00 00 ................
0040C590 00 00 00 00 00 00 00 00 00 00 00 00 00 00 00 00 ................
0040C5A0 00 00 00 00 00 00 00 00 00 00 00 00 00 00 00 00 ................
0040C5B0 00 00 00 00 00 00 00 00 00 00 00 00 00 00 00 00 ................
0040C5C0 00 00 00 00 00 00 00 00 00 00 00 00 00 00 00 00 ................
0040C5D0 00 00 00 00 00 00 00 00 00 00 00 00 00 00 00 00 ................
0040C5E0 00 00 00 00 00 00 00 00 00 00 00 00 00 00 00 00 ................
0040C5F0 00 00 00 00 00 00 00 00 00 00 00 00 00 00 00 00 ................
0040C600 00 00 00 00 00 00 00 00 00 00 00 00 00 00 00 00 ................
0040C610 00 00 00 00 00 00 00 00 00 00 00 00 00 00 00 00 ................
0040C620 00 00 00 00 00 00 00 00 00 00 00 00 00 00 00 00 ................
0040C630 00 00 00 00 00 00 00 00 00 00 00 00 00 00 00 00 ................
0040C640 00 00 00 00 00 00 00 00 00 00 00 00 00 00 00 00 ................
0040C650 00 00 00 00 00 00 00 00 00 00 00 00 00 00 00 00 ................
0040C660 00 00 00 00 00 00 00 00 00 00 00 00 00 00 00 00 ................
0040C670 00 00 00 00 00 00 00 00 00 00 00 00 00 00 00 00 ................
0040C680 00 00 00 00 00 00 00 00 00 00 00 00 00 00 00 00 ................
0040C690 00 00 00 00 00 00 00 00 00 00 00 00 00 00 00 00 ................
0040C6A0 00 00 00 00 00 00 00 00 00 00 00 00 00 00 00 00 ................
0040C6B0 00 00 00 00 00 00 00 00 00 00 00 00 00 00 00 00 ................
0040C6C0 00 00 00 00 00 00 00 00 00 00 00 00 00 00 00 00 ................
0040C6D0 00 00 00 00 00 00 00 00 00 00 00 00 00 00 00 00 ................
0040C6E0 00 00 00 00 00 00 00 00 00 00 00 00 00 00 00 00 ................
0040C6F0 00 00 00 00 00 00 00 00 00 00 00 00 00 00 00 00 ................
0040C700 00 00 00 00 00 00 00 00 00 00 00 00 00 00 00 00 ................
0040C710 00 00 00 00 00 00 00 00 00 00 00 00 00 00 00 00 ................
0040C720 00 00 00 00 00 00 00 00 00 00 00 00 00 00 00 00 ................
0040C730 00 00 00 00 00 00 00 00 00 00 00 00 00 00 00 00 ................
0040C740 00 00 00 00 00 00 00 00 00 00 00 00 00 00 00 00 ................
0040C750 00 00 00 00 00 00 00 00 00 00 00 00 00 00 00 00 ................
0040C760 00 00 00 00 00 00 00 00 00 00 00 00 00 00 00 00 ................
0040C770 00 00 00 00 00 00 00 00 00 00 00 00 00 00 00 00 ................
0040C780 00 00 00 00 00 00 00 00 00 00 00 00 00 00 00 00 ................
0040C790 00 00 00 00 00 00 00 00 00 00 00 00 00 00 00 00 ................
0040C7A0 00 00 00 00 00 00 00 00 00 00 00 00 00 00 00 00 ................
0040C7B0 00 00 00 00 00 00 00 00 00 00 00 00 00 00 00 00 ................
0040C7C0 00 00 00 00 00 00 00 00 00 00 00 00 00 00 00 00 ................
0040C7D0 00 00 00 00 00 00 00 00 00 00 00 00 00 00 00 00 ................
0040C7E0 00 00 00 00 00 00 00 00 00 00 00 00 00 00 00 00 ................
0040C7F0 00 00 00 00 00 00 00 00 00 00 00 00 00 00 00 00 ................
0040C800 00 00 00 00 00 00 00 00 00 00 00 00 00 00 00 00 ................
0040C810 00 00 00 00 00 00 00 00 00 00 00 00 00 00 00 00 ................
0040C820 00 00 00 00 00 00 00 00 00 00 00 00 00 00 00 00 ................
0040C830 00 00 00 00 00 00 00 00 00 00 00 00 00 00 00 00 ................
0040C840 00 00 00 00 00 00 00 00 00 00 00 00 00 00 00 00 ................
0040C850 00 00 00 00 00 00 00 00 00 00 00 00 00 00 00 00 ................
0040C860 00 00 00 00 00 00 00 00 00 00 00 00 00 00 00 00 ................
0040C870 00 00 00 00 00 00 00 00 00 00 00 00 00 00 00 00 ................
0040C880 00 00 00 00 00 00 00 00 00 00 00 00 00 00 00 00 ................
0040C890 00 00 00 00 00 00 00 00 00 00 00 00 00 00 00 00 ................
0040C8A0 00 00 00 00 00 00 00 00 00 00 00 00 00 00 00 00 ................
0040C8B0 00 00 00 00 00 00 00 00 00 00 00 00 00 00 00 00 ................
0040C8C0 00 00 00 00 00 00 00 00 00 00 00 00 00 00 00 00 ................
0040C8D0 00 00 00 00 00 00 00 00 00 00 00 00 00 00 00 00 ................
0040C8E0 00 00 00 00 00 00 00 00 00 00 00 00 00 00 00 00 ................
0040C8F0 00 00 00 00 00 00 00 00 00 00 00 00 00 00 00 00 ................
0040C900 00 00 00 00 00 00 00 00 00 00 00 00 00 00 00 00 ................
0040C910 00 00 00 00 00 00 00 00 00 00 00 00 00 00 00 00 ................
0040C920 00 00 00 00 00 00 00 00 00 00 00 00 00 00 00 00 ................
0040C930 00 00 00 00 00 00 00 00 00 00 00 00 00 00 00 00 ................
0040C940 00 00 00 00 00 00 00 00 00 00 00 00 00 00 00 00 ................
0040C950 00 00 00 00 00 00 00 00 00 00 00 00 00 00 00 00 ................
0040C960 00 00 00 00 00 00 00 00 00 00 00 00 00 00 00 00 ................
0040C970 00 00 00 00 00 00 00 00 00 00 00 00 00 00 00 00 ................
0040C980 00 00 00 00 00 00 00 00 00 00 00 00 00 00 00 00 ................
0040C990 00 00 00 00 00 00 00 00 00 00 00 00 00 00 00 00 ................
0040C9A0 00 00 00 00 00 00 00 00 00 00 00 00 00 00 00 00 ................
0040C9B0 00 00 00 00 00 00 00 00 00 00 00 00 00 00 00 00 ................
0040C9C0 00 00 00 00 00 00 00 00 00 00 00 00 00 00 00 00 ................
0040C9D0 00 00 00 00 00 00 00 00 00 00 00 00 00 00 00 00 ................
0040C9E0 00 00 00 00 00 00 00 00 00 00 00 00 00 00 00 00 ................
0040C9F0 00 00 00 00 00 00 00 00 00 00 00 00 00 00 00 00 ................
0040CA00 00 00 00 00 00 00 00 00 00 00 00 00 00 00 00 00 ................
0040CA10 00 00 00 00 00 00 00 00 00 00 00 00 00 00 00 00 ................
0040CA20 00 00 00 00 00 00 00 00 00 00 00 00 00 00 00 00 ................
0040CA30 00 00 00 00 00 00 00 00 00 00 00 00 00 00 00 00 ................
0040CA40 00 00 00 00 00 00 00 00 00 00 00 00 00 00 00 00 ................
0040CA50 00 00 00 00 00 00 00 00 00 00 00 00 00 00 00 00 ................
0040CA60 00 00 00 00 00 00 00 00 00 00 00 00 00 00 00 00 ................
0040CA70 00 00 00 00 00 00 00 00 00 00 00 00 00 00 00 00 ................
0040CA80 00 00 00 00 00 00 00 00 00 00 00 00 00 00 00 00 ................
0040CA90 00 00 00 00 00 00 00 00 00 00 00 00 00 00 00 00 ................
0040CAA0 00 00 00 00 00 00 00 00 00 00 00 00 00 00 00 00 ................
0040CAB0 00 00 00 00 00 00 00 00 00 00 00 00 00 00 00 00 ................
0040CAC0 00 00 00 00 00 00 00 00 00 00 00 00 00 00 00 00 ................
0040CAD0 00 00 00 00 00 00 00 00 00 00 00 00 00 00 00 00 ................
0040CAE0 00 00 00 00 00 00 00 00 00 00 00 00 00 00 00 00 ................
0040CAF0 00 00 00 00 00 00 00 00 00 00 00 00 00 00 00 00 ................
0040CB00 00 00 00 00 00 00 00 00 00 00 00 00 00 00 00 00 ................
0040CB10 00 00 00 00 00 00 00 00 00 00 00 00 00 00 00 00 ................
0040CB20 00 00 00 00 00 00 00 00 00 00 00 00 00 00 00 00 ................
0040CB30 00 00 00 00 00 00 00 00 00 00 00 00 00 00 00 00 ................
0040CB40 00 00 00 00 00 00 00 00 00 00 00 00 00 00 00 00 ................
0040CB50 00 00 00 00 00 00 00 00 00 00 00 00 00 00 00 00 ................
0040CB60 00 00 00 00 00 00 00 00 00 00 00 00 00 00 00 00 ................
0040CB70 00 00 00 00 00 00 00 00 00 00 00 00 00 00 00 00 ................
0040CB80 00 00 00 00 00 00 00 00 00 00 00 00 00 00 00 00 ................
0040CB90 00 00 00 00 00 00 00 00 00 00 00 00 00 00 00 00 ................
0040CBA0 00 00 00 00 00 00 00 00 00 00 00 00 00 00 00 00 ................
0040CBB0 00 00 00 00 00 00 00 00 00 00 00 00 00 00 00 00 ................
0040CBC0 00 00 00 00 00 00 00 00 00 00 00 00 00 00 00 00 ................
0040CBD0 00 00 00 00 00 00 00 00 00 00 00 00 00 00 00 00 ................
0040CBE0 00 00 00 00 00 00 00 00 00 00 00 00 00 00 00 00 ................
0040CBF0 00 00 00 00 00 00 00 00 00 00 00 00 00 00 00 00 ................
0040CC00 00 00 00 00 00 00 00 00 00 00 00 00 00 00 00 00 ................
0040CC10 00 00 00 00 00 00 00 00 00 00 00 00 00 00 00 00 ................
0040CC20 00 00 00 00 00 00 00 00 00 00 00 00 00 00 00 00 ................
0040CC30 00 00 00 00 00 00 00 00 00 00 00 00 00 00 00 00 ................
0040CC40 00 00 00 00 00 00 00 00 00 00 00 00 00 00 00 00 ................
0040CC50 00 00 00 00 00 00 00 00 00 00 00 00 00 00 00 00 ................
0040CC60 00 00 00 00 00 00 00 00 00 00 00 00 00 00 00 00 ................
0040CC70 00 00 00 00 00 00 00 00 00 00 00 00 00 00 00 00 ................
0040CC80 00 00 00 00 00 00 00 00 00 00 00 00 00 00 00 00 ................
0040CC90 00 00 00 00 00 00 00 00 00 00 00 00 00 00 00 00 ................
0040CCA0 00 00 00 00 00 00 00 00 00 00 00 00 00 00 00 00 ................
0040CCB0 00 00 00 00 00 00 00 00 00 00 00 00 00 00 00 00 ................
0040CCC0 00 00 00 00 00 00 00 00 00 00 00 00 00 00 00 00 ................
0040CCD0 00 00 00 00 00 00 00 00 00 00 00 00 00 00 00 00 ................
0040CCE0 00 00 00 00 00 00 00 00 00 00 00 00 00 00 00 00 ................
0040CCF0 00 00 00 00 00 00 00 00 00 00 00 00 00 00 00 00 ................
0040CD00 00 00 00 00 00 00 00 00 00 00 00 00 00 00 00 00 ................
0040CD10 00 00 00 00 00 00 00 00 00 00 00 00 00 00 00 00 ................
0040CD20 00 00 00 00 00 00 00 00 00 00 00 00 00 00 00 00 ................
0040CD30 00 00 00 00 00 00 00 00 00 00 00 00 00 00 00 00 ................
0040CD40 00 00 00 00 00 00 00 00 00 00 00 00 00 00 00 00 ................
0040CD50 00 00 00 00 00 00 00 00 00 00 00 00 00 00 00 00 ................
0040CD60 00 00 00 00 00 00 00 00 00 00 00 00 00 00 00 00 ................
0040CD70 00 00 00 00 00 00 00 00 00 00 00 00 00 00 00 00 ................
0040CD80 00 00 00 00 00 00 00 00 00 00 00 00 00 00 00 00 ................
0040CD90 00 00 00 00 00 00 00 00 00 00 00 00 00 00 00 00 ................
0040CDA0 00 00 00 00 00 00 00 00 00 00 00 00 00 00 00 00 ................
0040CDB0 00 00 00 00 00 00 00 00 00 00 00 00 00 00 00 00 ................
0040CDC0 00 00 00 00 00 00 00 00 00 00 00 00 00 00 00 00 ................
0040CDD0 00 00 00 00 00 00 00 00 00 00 00 00 00 00 00 00 ................
0040CDE0 00 00 00 00 00 00 00 00 00 00 00 00 00 00 00 00 ................
0040CDF0 00 00 00 00 00 00 00 00 00 00 00 00 00 00 00 00 ................
0040CE00 00 00 00 00 00 00 00 00 00 00 00 00 00 00 00 00 ................
0040CE10 00 00 00 00 00 00 00 00 00 00 00 00 00 00 00 00 ................
0040CE20 00 00 00 00 00 00 00 00 00 00 00 00 00 00 00 00 ................
0040CE30 00 00 00 00 00 00 00 00 00 00 00 00 00 00 00 00 ................
0040CE40 00 00 00 00 00 00 00 00 00 00 00 00 00 00 00 00 ................
0040CE50 00 00 00 00 00 00 00 00 00 00 00 00 00 00 00 00 ................
0040CE60 00 00 00 00 00 00 00 00 00 00 00 00 00 00 00 00 ................
0040CE70 00 00 00 00 00 00 00 00 00 00 00 00 00 00 00 00 ................
0040CE80 00 00 00 00 00 00 00 00 00 00 00 00 00 00 00 00 ................
0040CE90 00 00 00 00 00 00 00 00 00 00 00 00 00 00 00 00 ................
0040CEA0 00 00 00 00 00 00 00 00 00 00 00 00 00 00 00 00 ................
0040CEB0 00 00 00 00 00 00 00 00 00 00 00 00 00 00 00 00 ................
0040CEC0 00 00 00 00 00 00 00 00 00 00 00 00 00 00 00 00 ................
0040CED0 00 00 00 00 00 00 00 00 00 00 00 00 00 00 00 00 ................
0040CEE0 00 00 00 00 00 00 00 00 00 00 00 00 00 00 00 00 ................
0040CEF0 00 00 00 00 00 00 00 00 00 00 00 00 00 00 00 00 ................
0040CF00 00 00 00 00 00 00 00 00 00 00 00 00 00 00 00 00 ................
0040CF10 00 00 00 00 00 00 00 00 00 00 00 00 00 00 00 00 ................
0040CF20 00 00 00 00 00 00 00 00 00 00 00 00 00 00 00 00 ................
0040CF30 00 00 00 00 00 00 00 00 00 00 00 00 00 00 00 00 ................
0040CF40 00 00 00 00 00 00 00 00 00 00 00 00 00 00 00 00 ................
0040CF50 00 00 00 00 00 00 00 00 00 00 00 00 00 00 00 00 ................
0040CF60 00 00 00 00 00 00 00 00 00 00 00 00 00 00 00 00 ................
0040CF70 00 00 00 00 00 00 00 00 00 00 00 00 00 00 00 00 ................
0040CF80 00 00 00 00 00 00 00 00 00 00 00 00 00 00 00 00 ................
0040CF90 00 00 00 00 00 00 00 00 00 00 00 00 00 00 00 00 ................
0040CFA0 00 00 00 00 00 00 00 00 00 00 00 00 00 00 00 00 ................
0040CFB0 00 00 00 00 00 00 00 00 00 00 00 00 00 00 00 00 ................
0040CFC0 00 00 00 00 00 00 00 00 00 00 00 00 00 00 00 00 ................
0040CFD0 00 00 00 00 00 00 00 00 00 00 00 00 00 00 00 00 ................
0040CFE0 00 00 00 00 00 00 00 00 00 00 00 00 00 00 00 00 ................
0040CFF0 00 00 00 00 00 00 00 00 00 00 00 00 00 00 00 00 ................
0040D000 00 00 00 00 00 00 00 00 00 00 00 00 00 00 00 00 ................
0040D010 00 00 00 00 00 00 00 00 00 00 00 00 00 00 00 00 ................
0040D020 00 00 00 00 00 00 00 00 00 00 00 00 00 00 00 00 ................
0040D030 00 00 00 00 00 00 00 00 00 00 00 00 00 00 00 00 ................
0040D040 00 00 00 00 00 00 00 00 00 00 00 00 00 00 00 00 ................
0040D050 00 00 00 00 00 00 00 00 00 00 00 00 00 00 00 00 ................
0040D060 00 00 00 00 00 00 00 00 00 00 00 00 00 00 00 00 ................
0040D070 00 00 00 00 00 00 00 00 00 00 00 00 00 00 00 00 ................
0040D080 00 00 00 00 00 00 00 00 00 00 00 00 00 00 00 00 ................
0040D090 00 00 00 00 00 00 00 00 00 00 00 00 00 00 00 00 ................
0040D0A0 00 00 00 00 00 00 00 00 00 00 00 00 00 00 00 00 ................
0040D0B0 00 00 00 00 00 00 00 00 00 00 00 00 00 00 00 00 ................
0040D0C0 00 00 00 00 00 00 00 00 00 00 00 00 00 00 00 00 ................
0040D0D0 00 00 00 00 00 00 00 00 00 00 00 00 00 00 00 00 ................
0040D0E0 00 00 00 00 00 00 00 00 00 00 00 00 00 00 00 00 ................
0040D0F0 00 00 00 00 00 00 00 00 00 00 00 00 00 00 00 00 ................
0040D100 00 00 00 00 00 00 00 00 00 00 00 00 00 00 00 00 ................
0040D110 00 00 00 00 00 00 00 00 00 00 00 00 00 00 00 00 ................
0040D120 00 00 00 00 00 00 00 00 00 00 00 00 00 00 00 00 ................
0040D130 00 00 00 00 00 00 00 00 00 00 00 00 00 00 00 00 ................
0040D140 00 00 00 00 00 00 00 00 00 00 00 00 00 00 00 00 ................
0040D150 00 00 00 00 00 00 00 00 00 00 00 00 00 00 00 00 ................
0040D160 00 00 00 00 00 00 00 00 00 00 00 00 00 00 00 00 ................
0040D170 00 00 00 00 00 00 00 00 00 00 00 00 00 00 00 00 ................
0040D180 00 00 00 00 00 00 00 00 00 00 00 00 00 00 00 00 ................
0040D190 00 00 00 00 00 00 00 00 00 00 00 00 00 00 00 00 ................
0040D1A0 00 00 00 00 00 00 00 00 00 00 00 00 00 00 00 00 ................
0040D1B0 00 00 00 00 00 00 00 00 00 00 00 00 00 00 00 00 ................
0040D1C0 00 00 00 00 00 00 00 00 00 00 00 00 00 00 00 00 ................
0040D1D0 00 00 00 00 00 00 00 00 00 00 00 00 00 00 00 00 ................
0040D1E0 00 00 00 00 00 00 00 00 00 00 00 00 00 00 00 00 ................
0040D1F0 00 00 00 00 00 00 00 00 00 00 00 00 00 00 00 00 ................
0040D200 00 00 00 00 00 00 00 00 00 00 00 00 00 00 00 00 ................
0040D210 00 00 00 00 00 00 00 00 00 00 00 00 00 00 00 00 ................
0040D220 00 00 00 00 00 00 00 00 00 00 00 00 00 00 00 00 ................
0040D230 00 00 00 00 00 00 00 00 00 00 00 00 00 00 00 00 ................
0040D240 00 00 00 00 00 00 00 00 00 00 00 00 00 00 00 00 ................
0040D250 00 00 00 00 00 00 00 00 00 00 00 00 00 00 00 00 ................
0040D260 00 00 00 00 00 00 00 00 00 00 00 00 00 00 00 00 ................
0040D270 00 00 00 00 00 00 00 00 00 00 00 00 00 00 00 00 ................
0040D280 00 00 00 00 00 00 00 00 00 00 00 00 00 00 00 00 ................
0040D290 00 00 00 00 00 00 00 00 00 00 00 00 00 00 00 00 ................
0040D2A0 00 00 00 00 00 00 00 00 00 00 00 00 00 00 00 00 ................
0040D2B0 00 00 00 00 00 00 00 00 00 00 00 00 00 00 00 00 ................
0040D2C0 00 00 00 00 00 00 00 00 00 00 00 00 00 00 00 00 ................
0040D2D0 00 00 00 00 00 00 00 00 00 00 00 00 00 00 00 00 ................
0040D2E0 00 00 00 00 00 00 00 00 00 00 00 00 00 00 00 00 ................
0040D2F0 00 00 00 00 00 00 00 00 00 00 00 00 00 00 00 00 ................
0040D300 00 00 00 00 00 00 00 00 00 00 00 00 00 00 00 00 ................
0040D310 00 00 00 00 00 00 00 00 00 00 00 00 00 00 00 00 ................
0040D320 00 00 00 00 00 00 00 00 00 00 00 00 00 00 00 00 ................
0040D330 00 00 00 00 00 00 00 00 00 00 00 00 00 00 00 00 ................
0040D340 00 00 00 00 00 00 00 00 00 00 00 00 00 00 00 00 ................
0040D350 00 00 00 00 00 00 00 00 00 00 00 00 00 00 00 00 ................
0040D360 00 00 00 00 00 00 00 00 00 00 00 00 00 00 00 00 ................
0040D370 00 00 00 00 00 00 00 00 00 00 00 00 00 00 00 00 ................
0040D380 00 00 00 00 00 00 00 00 00 00 00 00 00 00 00 00 ................
0040D390 00 00 00 00 00 00 00 00 00 00 00 00 00 00 00 00 ................
0040D3A0 00 00 00 00 00 00 00 00 00 00 00 00 00 00 00 00 ................
0040D3B0 00 00 00 00 00 00 00 00 00 00 00 00 00 00 00 00 ................
0040D3C0 00 00 00 00 00 00 00 00 00 00 00 00 00 00 00 00 ................
0040D3D0 00 00 00 00 00 00 00 00 00 00 00 00 00 00 00 00 ................
0040D3E0 00 00 00 00 00 00 00 00 00 00 00 00 00 00 00 00 ................
0040D3F0 00 00 00 00 00 00 00 00 00 00 00 00 00 00 00 00 ................
0040D400 00 00 00 00 00 00 00 00 00 00 00 00 00 00 00 00 ................
0040D410 00 00 00 00 00 00 00 00 00 00 00 00 00 00 00 00 ................
0040D420 00 00 00 00 00 00 00 00 00 00 00 00 00 00 00 00 ................
0040D430 00 00 00 00 00 00 00 00 00 00 00 00 00 00 00 00 ................
0040D440 00 00 00 00 00 00 00 00 00 00 00 00 00 00 00 00 ................
0040D450 00 00 00 00 00 00 00 00 00 00 00 00 00 00 00 00 ................
0040D460 00 00 00 00 00 00 00 00 00 00 00 00 00 00 00 00 ................
0040D470 00 00 00 00 00 00 00 00 00 00 00 00 00 00 00 00 ................
0040D480 00 00 00 00 00 00 00 00 00 00 00 00 00 00 00 00 ................
0040D490 00 00 00 00 00 00 00 00 00 00 00 00 00 00 00 00 ................
0040D4A0 00 00 00 00 00 00 00 00 00 00 00 00 00 00 00 00 ................
0040D4B0 00 00 00 00 00 00 00 00 00 00 00 00 00 00 00 00 ................
0040D4C0 00 00 00 00 00 00 00 00 00 00 00 00 00 00 00 00 ................
0040D4D0 00 00 00 00 00 00 00 00 00 00 00 00 00 00 00 00 ................
0040D4E0 00 00 00 00 00 00 00 00 00 00 00 00 00 00 00 00 ................
0040D4F0 00 00 00 00 00 00 00 00 00 00 00 00 00 00 00 00 ................
0040D500 00 00 00 00 00 00 00 00 00 00 00 00 00 00 00 00 ................
0040D510 00 00 00 00 00 00 00 00 00 00 00 00 00 00 00 00 ................
0040D520 00 00 00 00 00 00 00 00 00 00 00 00 00 00 00 00 ................
0040D530 00 00 00 00 00 00 00 00 00 00 00 00 00 00 00 00 ................
0040D540 00 00 00 00 00 00 00 00 00 00 00 00 00 00 00 00 ................
0040D550 00 00 00 00 00 00 00 00 00 00 00 00 00 00 00 00 ................
0040D560 00 00 00 00 00 00 00 00 00 00 00 00 00 00 00 00 ................
0040D570 00 00 00 00 00 00 00 00 00 00 00 00 00 00 00 00 ................
0040D580 00 00 00 00 00 00 00 00 00 00 00 00 00 00 00 00 ................
0040D590 00 00 00 00 00 00 00 00 00 00 00 00 00 00 00 00 ................
0040D5A0 00 00 00 00 00 00 00 00 00 00 00 00 00 00 00 00 ................
0040D5B0 00 00 00 00 00 00 00 00 00 00 00 00 00 00 00 00 ................
0040D5C0 00 00 00 00 00 00 00 00 00 00 00 00 00 00 00 00 ................
0040D5D0 00 00 00 00 00 00 00 00 00 00 00 00 00 00 00 00 ................
0040D5E0 00 00 00 00 00 00 00 00 00 00 00 00 00 00 00 00 ................
0040D5F0 00 00 00 00 00 00 00 00 00 00 00 00 00 00 00 00 ................
0040D600 00 00 00 00 00 00 00 00 00 00 00 00 00 00 00 00 ................
0040D610 00 00 00 00 00 00 00 00 00 00 00 00 00 00 00 00 ................
0040D620 00 00 00 00 00 00 00 00 00 00 00 00 00 00 00 00 ................
0040D630 00 00 00 00 00 00 00 00 00 00 00 00 00 00 00 00 ................
0040D640 00 00 00 00 00 00 00 00 00 00 00 00 00 00 00 00 ................
0040D650 00 00 00 00 00 00 00 00 00 00 00 00 00 00 00 00 ................
0040D660 00 00 00 00 00 00 00 00 00 00 00 00 00 00 00 00 ................
0040D670 00 00 00 00 00 00 00 00 00 00 00 00 00 00 00 00 ................
0040D680 00 00 00 00 00 00 00 00 00 00 00 00 00 00 00 00 ................
0040D690 00 00 00 00 00 00 00 00 00 00 00 00 00 00 00 00 ................
0040D6A0 00 00 00 00 00 00 00 00 00 00 00 00 00 00 00 00 ................
0040D6B0 00 00 00 00 00 00 00 00 00 00 00 00 00 00 00 00 ................
0040D6C0 00 00 00 00 00 00 00 00 00 00 00 00 00 00 00 00 ................
0040D6D0 00 00 00 00 00 00 00 00 00 00 00 00 00 00 00 00 ................
0040D6E0 00 00 00 00 00 00 00 00 00 00 00 00 00 00 00 00 ................
0040D6F0 00 00 00 00 00 00 00 00 00 00 00 00 00 00 00 00 ................
0040D700 00 00 00 00 00 00 00 00 00 00 00 00 00 00 00 00 ................
0040D710 00 00 00 00 00 00 00 00 00 00 00 00 00 00 00 00 ................
0040D720 00 00 00 00 00 00 00 00 00 00 00 00 00 00 00 00 ................
0040D730 00 00 00 00 00 00 00 00 00 00 00 00 00 00 00 00 ................
0040D740 00 00 00 00 00 00 00 00 00 00 00 00 00 00 00 00 ................
0040D750 00 00 00 00 00 00 00 00 00 00 00 00 00 00 00 00 ................
0040D760 00 00 00 00 00 00 00 00 00 00 00 00 00 00 00 00 ................
0040D770 00 00 00 00 00 00 00 00 00 00 00 00 00 00 00 00 ................
0040D780 00 00 00 00 00 00 00 00 00 00 00 00 00 00 00 00 ................
0040D790 00 00 00 00 00 00 00 00 00 00 00 00 00 00 00 00 ................
0040D7A0 00 00 00 00 00 00 00 00 00 00 00 00 00 00 00 00 ................
0040D7B0 00 00 00 00 00 00 00 00 00 00 00 00 00 00 00 00 ................
0040D7C0 00 00 00 00 00 00 00 00 00 00 00 00 00 00 00 00 ................
0040D7D0 00 00 00 00 00 00 00 00 00 00 00 00 00 00 00 00 ................
0040D7E0 00 00 00 00 00 00 00 00 00 00 00 00 00 00 00 00 ................
0040D7F0 00 00 00 00 00 00 00 00 00 00 00 00 00 00 00 00 ................
0040D800 00 00 00 00 00 00 00 00 00 00 00 00 00 00 00 00 ................
0040D810 00 00 00 00 00 00 00 00 00 00 00 00 00 00 00 00 ................
0040D820 00 00 00 00 00 00 00 00 00 00 00 00 00 00 00 00 ................
0040D830 00 00 00 00 00 00 00 00 00 00 00 00 00 00 00 00 ................
0040D840 00 00 00 00 00 00 00 00 00 00 00 00 00 00 00 00 ................
0040D850 00 00 00 00 00 00 00 00 00 00 00 00 00 00 00 00 ................
0040D860 00 00 00 00 00 00 00 00 00 00 00 00 00 00 00 00 ................
0040D870 00 00 00 00 00 00 00 00 00 00 00 00 00 00 00 00 ................
0040D880 00 00 00 00 00 00 00 00 00 00 00 00 00 00 00 00 ................
0040D890 00 00 00 00 00 00 00 00 00 00 00 00 00 00 00 00 ................
0040D8A0 00 00 00 00 00 00 00 00 00 00 00 00 00 00 00 00 ................
0040D8B0 00 00 00 00 00 00 00 00 00 00 00 00 00 00 00 00 ................
0040D8C0 00 00 00 00 00 00 00 00 00 00 00 00 00 00 00 00 ................
0040D8D0 00 00 00 00 00 00 00 00 00 00 00 00 00 00 00 00 ................
0040D8E0 00 00 00 00 00 00 00 00 00 00 00 00 00 00 00 00 ................
0040D8F0 00 00 00 00 00 00 00 00 00 00 00 00 00 00 00 00 ................
0040D900 00 00 00 00 00 00 00 00 00 00 00 00 00 00 00 00 ................
0040D910 00 00 00 00 00 00 00 00 00 00 00 00 00 00 00 00 ................
0040D920 00 00 00 00 00 00 00 00 00 00 00 00 00 00 00 00 ................
0040D930 00 00 00 00 00 00 00 00 00 00 00 00 00 00 00 00 ................
0040D940 00 00 00 00 00 00 00 00 00 00 00 00 00 00 00 00 ................
0040D950 00 00 00 00 00 00 00 00 00 00 00 00 00 00 00 00 ................
0040D960 00 00 00 00 00 00 00 00 00 00 00 00 00 00 00 00 ................
0040D970 00 00 00 00 00 00 00 00 00 00 00 00 00 00 00 00 ................
0040D980 00 00 00 00 00 00 00 00 00 00 00 00 00 00 00 00 ................
0040D990 00 00 00 00 00 00 00 00 00 00 00 00 00 00 00 00 ................
0040D9A0 00 00 00 00 00 00 00 00 00 00 00 00 00 00 00 00 ................
0040D9B0 00 00 00 00 00 00 00 00 00 00 00 00 00 00 00 00 ................
0040D9C0 00 00 00 00 00 00 00 00 00 00 00 00 00 00 00 00 ................
0040D9D0 00 00 00 00 00 00 00 00 00 00 00 00 00 00 00 00 ................
0040D9E0 00 00 00 00 00 00 00 00 00 00 00 00 00 00 00 00 ................
0040D9F0 00 00 00 00 00 00 00 00 00 00 00 00 00 00 00 00 ................
0040DA00 00 00 00 00 00 00 00 00 00 00 00 00 00 00 00 00 ................
0040DA10 00 00 00 00 00 00 00 00 00 00 00 00 00 00 00 00 ................
0040DA20 00 00 00 00 00 00 00 00 00 00 00 00 00 00 00 00 ................
0040DA30 00 00 00 00 00 00 00 00 00 00 00 00 00 00 00 00 ................
0040DA40 00 00 00 00 00 00 00 00 00 00 00 00 00 00 00 00 ................
0040DA50 00 00 00 00 00 00 00 00 00 00 00 00 00 00 00 00 ................
0040DA60 00 00 00 00 00 00 00 00 00 00 00 00 00 00 00 00 ................
0040DA70 00 00 00 00 00 00 00 00 00 00 00 00 00 00 00 00 ................
0040DA80 00 00 00 00 00 00 00 00 00 00 00 00 00 00 00 00 ................
0040DA90 00 00 00 00 00 00 00 00 00 00 00 00 00 00 00 00 ................
0040DAA0 00 00 00 00 00 00 00 00 00 00 00 00 00 00 00 00 ................
0040DAB0 00 00 00 00 00 00 00 00 00 00 00 00 00 00 00 00 ................
0040DAC0 00 00 00 00 00 00 00 00 00 00 00 00 00 00 00 00 ................
0040DAD0 00 00 00 00 00 00 00 00 00 00 00 00 00 00 00 00 ................
0040DAE0 00 00 00 00 00 00 00 00 00 00 00 00 00 00 00 00 ................
0040DAF0 00 00 00 00 00 00 00 00 00 00 00 00 00 00 00 00 ................
0040DB00 00 00 00 00 00 00 00 00 00 00 00 00 00 00 00 00 ................
0040DB10 00 00 00 00 00 00 00 00 00 00 00 00 00 00 00 00 ................
0040DB20 00 00 00 00 00 00 00 00 00 00 00 00 00 00 00 00 ................
0040DB30 00 00 00 00 00 00 00 00 00 00 00 00 00 00 00 00 ................
0040DB40 00 00 00 00 00 00 00 00 00 00 00 00 00 00 00 00 ................
0040DB50 00 00 00 00 00 00 00 00 00 00 00 00 00 00 00 00 ................
0040DB60 00 00 00 00 00 00 00 00 00 00 00 00 00 00 00 00 ................
0040DB70 00 00 00 00 00 00 00 00 00 00 00 00 00 00 00 00 ................
0040DB80 00 00 00 00 00 00 00 00 00 00 00 00 00 00 00 00 ................
0040DB90 00 00 00 00 00 00 00 00 00 00 00 00 00 00 00 00 ................
0040DBA0 00 00 00 00 00 00 00 00 00 00 00 00 00 00 00 00 ................
0040DBB0 00 00 00 00 00 00 00 00 00 00 00 00 00 00 00 00 ................
0040DBC0 00 00 00 00 00 00 00 00 00 00 00 00 00 00 00 00 ................
0040DBD0 00 00 00 00 00 00 00 00 00 00 00 00 00 00 00 00 ................
0040DBE0 00 00 00 00 00 00 00 00 00 00 00 00 00 00 00 00 ................
0040DBF0 00 00 00 00 00 00 00 00 00 00 00 00 00 00 00 00 ................
0040DC00 00 00 00 00 00 00 00 00 00 00 00 00 00 00 00 00 ................
0040DC10 00 00 00 00 00 00 00 00 00 00 00 00 00 00 00 00 ................
0040DC20 00 00 00 00 00 00 00 00 00 00 00 00 00 00 00 00 ................
0040DC30 00 00 00 00 00 00 00 00 00 00 00 00 00 00 00 00 ................
0040DC40 00 00 00 00 00 00 00 00 00 00 00 00 00 00 00 00 ................
0040DC50 00 00 00 00 00 00 00 00 00 00 00 00 00 00 00 00 ................
0040DC60 00 00 00 00 00 00 00 00 00 00 00 00 00 00 00 00 ................
0040DC70 00 00 00 00 00 00 00 00 00 00 00 00 00 00 00 00 ................
0040DC80 00 00 00 00 00 00 00 00 00 00 00 00 00 00 00 00 ................
0040DC90 00 00 00 00 00 00 00 00 00 00 00 00 00 00 00 00 ................
0040DCA0 00 00 00 00 00 00 00 00 00 00 00 00 00 00 00 00 ................
0040DCB0 00 00 00 00 00 00 00 00 00 00 00 00 00 00 00 00 ................
0040DCC0 00 00 00 00 00 00 00 00 00 00 00 00 00 00 00 00 ................
0040DCD0 00 00 00 00 00 00 00 00 00 00 00 00 00 00 00 00 ................
0040DCE0 00 00 00 00 00 00 00 00 00 00 00 00 00 00 00 00 ................
0040DCF0 00 00 00 00 00 00 00 00 00 00 00 00 00 00 00 00 ................
0040DD00 00 00 00 00 00 00 00 00 00 00 00 00 00 00 00 00 ................
0040DD10 00 00 00 00 00 00 00 00 00 00 00 00 00 00 00 00 ................
0040DD20 00 00 00 00 00 00 00 00 00 00 00 00 00 00 00 00 ................
0040DD30 00 00 00 00 00 00 00 00 00 00 00 00 00 00 00 00 ................
0040DD40 00 00 00 00 00 00 00 00 00 00 00 00 00 00 00 00 ................
0040DD50 00 00 00 00 00 00 00 00 00 00 00 00 00 00 00 00 ................
0040DD60 00 00 00 00 00 00 00 00 00 00 00 00 00 00 00 00 ................
0040DD70 00 00 00 00 00 00 00 00 00 00 00 00 00 00 00 00 ................
0040DD80 00 00 00 00 00 00 00 00 00 00 00 00 00 00 00 00 ................
0040DD90 00 00 00 00 00 00 00 00 00 00 00 00 00 00 00 00 ................
0040DDA0 00 00 00 00 00 00 00 00 00 00 00 00 00 00 00 00 ................
0040DDB0 00 00 00 00 00 00 00 00 00 00 00 00 00 00 00 00 ................
0040DDC0 00 00 00 00 00 00 00 00 00 00 00 00 00 00 00 00 ................
0040DDD0 00 00 00 00 00 00 00 00 00 00 00 00 00 00 00 00 ................
0040DDE0 00 00 00 00 00 00 00 00 00 00 00 00 00 00 00 00 ................
0040DDF0 00 00 00 00 00 00 00 00 00 00 00 00 00 00 00 00 ................
0040DE00 00 00 00 00 00 00 00 00 00 00 00 00 00 00 00 00 ................
0040DE10 00 00 00 00 00 00 00 00 00 00 00 00 00 00 00 00 ................
0040DE20 00 00 00 00 00 00 00 00 00 00 00 00 00 00 00 00 ................
0040DE30 00 00 00 00 00 00 00 00 00 00 00 00 00 00 00 00 ................
0040DE40 00 00 00 00 00 00 00 00 00 00 00 00 00 00 00 00 ................
0040DE50 00 00 00 00 00 00 00 00 00 00 00 00 00 00 00 00 ................
0040DE60 00 00 00 00 00 00 00 00 00 00 00 00 00 00 00 00 ................
0040DE70 00 00 00 00 00 00 00 00 00 00 00 00 00 00 00 00 ................
0040DE80 00 00 00 00 00 00 00 00 00 00 00 00 00 00 00 00 ................
0040DE90 00 00 00 00 00 00 00 00 00 00 00 00 00 00 00 00 ................
0040DEA0 00 00 00 00 00 00 00 00 00 00 00 00 00 00 00 00 ................
0040DEB0 00 00 00 00 00 00 00 00 00 00 00 00 00 00 00 00 ................
0040DEC0 00 00 00 00 00 00 00 00 00 00 00 00 00 00 00 00 ................
0040DED0 00 00 00 00 00 00 00 00 00 00 00 00 00 00 00 00 ................
0040DEE0 00 00 00 00 00 00 00 00 00 00 00 00 00 00 00 00 ................
0040DEF0 00 00 00 00 00 00 00 00 00 00 00 00 00 00 00 00 ................
0040DF00 00 00 00 00 00 00 00 00 00 00 00 00 00 00 00 00 ................
0040DF10 00 00 00 00 00 00 00 00 00 00 00 00 00 00 00 00 ................
0040DF20 00 00 00 00 00 00 00 00 00 00 00 00 00 00 00 00 ................
0040DF30 00 00 00 00 00 00 00 00 00 00 00 00 00 00 00 00 ................
0040DF40 00 00 00 00 00 00 00 00 00 00 00 00 00 00 00 00 ................
0040DF50 00 00 00 00 00 00 00 00 00 00 00 00 00 00 00 00 ................
0040DF60 00 00 00 00 00 00 00 00 00 00 00 00 00 00 00 00 ................
0040DF70 00 00 00 00 00 00 00 00 00 00 00 00 00 00 00 00 ................
0040DF80 00 00 00 00 00 00 00 00 00 00 00 00 00 00 00 00 ................
0040DF90 00 00 00 00 00 00 00 00 00 00 00 00 00 00 00 00 ................
0040DFA0 00 00 00 00 00 00 00 00 00 00 00 00 00 00 00 00 ................
0040DFB0 00 00 00 00 00 00 00 00 00 00 00 00 00 00 00 00 ................
0040DFC0 00 00 00 00 00 00 00 00 00 00 00 00 00 00 00 00 ................
0040DFD0 00 00 00 00 00 00 00 00 00 00 00 00 00 00 00 00 ................
0040DFE0 00 00 00 00 00 00 00 00 00 00 00 00 00 00 00 00 ................
0040DFF0 00 00 00 00 00 00 00 00 00 00 00 00 00 00 00 00 ................
0040E000 00 00 00 00 00 00 00 00 00 00 00 00 00 00 00 00 ................
0040E010 00 00 00 00 00 00 00 00 00 00 00 00 00 00 00 00 ................
0040E020 00 00 00 00 00 00 00 00 00 00 00 00 00 00 00 00 ................
0040E030 00 00 00 00 00 00 00 00 00 00 00 00 00 00 00 00 ................
0040E040 00 00 00 00 00 00 00 00 00 00 00 00 00 00 00 00 ................
0040E050 00 00 00 00 00 00 00 00 00 00 00 00 00 00 00 00 ................
0040E060 00 00 00 00 00 00 00 00 00 00 00 00 00 00 00 00 ................
0040E070 00 00 00 00 00 00 00 00 00 00 00 00 00 00 00 00 ................
0040E080 00 00 00 00 00 00 00 00 00 00 00 00 00 00 00 00 ................
0040E090 00 00 00 00 00 00 00 00 00 00 00 00 00 00 00 00 ................
0040E0A0 00 00 00 00 00 00 00 00 00 00 00 00 00 00 00 00 ................
0040E0B0 00 00 00 00 00 00 00 00 00 00 00 00 00 00 00 00 ................
0040E0C0 00 00 00 00 00 00 00 00 00 00 00 00 00 00 00 00 ................
0040E0D0 00 00 00 00 00 00 00 00 00 00 00 00 00 00 00 00 ................
0040E0E0 00 00 00 00 00 00 00 00 00 00 00 00 00 00 00 00 ................
0040E0F0 00 00 00 00 00 00 00 00 00 00 00 00 00 00 00 00 ................
0040E100 00 00 00 00 00 00 00 00 00 00 00 00 00 00 00 00 ................
0040E110 00 00 00 00 00 00 00 00 00 00 00 00 00 00 00 00 ................
0040E120 00 00 00 00 00 00 00 00 00 00 00 00 00 00 00 00 ................
0040E130 00 00 00 00 00 00 00 00 00 00 00 00 00 00 00 00 ................
0040E140 00 00 00 00 00 00 00 00 00 00 00 00 00 00 00 00 ................
0040E150 00 00 00 00 00 00 00 00 00 00 00 00 00 00 00 00 ................
0040E160 00 00 00 00 00 00 00 00 00 00 00 00 00 00 00 00 ................
0040E170 00 00 00 00 00 00 00 00 00 00 00 00 00 00 00 00 ................
0040E180 00 00 00 00 00 00 00 00 00 00 00 00 00 00 00 00 ................
0040E190 00 00 00 00 00 00 00 00 00 00 00 00 00 00 00 00 ................
0040E1A0 00 00 00 00 00 00 00 00 00 00 00 00 00 00 00 00 ................
0040E1B0 00 00 00 00 00 00 00 00 00 00 00 00 00 00 00 00 ................
0040E1C0 00 00 00 00 00 00 00 00 00 00 00 00 00 00 00 00 ................
0040E1D0 00 00 00 00 00 00 00 00 00 00 00 00 00 00 00 00 ................
0040E1E0 00 00 00 00 00 00 00 00 00 00 00 00 00 00 00 00 ................
0040E1F0 00 00 00 00 00 00 00 00 00 00 00 00 00 00 00 00 ................
0040E200 00 00 00 00 00 00 00 00 00 00 00 00 00 00 00 00 ................
0040E210 00 00 00 00 00 00 00 00 00 00 00 00 00 00 00 00 ................
0040E220 00 00 00 00 00 00 00 00 00 00 00 00 00 00 00 00 ................
0040E230 00 00 00 00 00 00 00 00 00 00 00 00 00 00 00 00 ................
0040E240 00 00 00 00 00 00 00 00 00 00 00 00 00 00 00 00 ................
0040E250 00 00 00 00 00 00 00 00 00 00 00 00 00 00 00 00 ................
0040E260 00 00 00 00 00 00 00 00 00 00 00 00 00 00 00 00 ................
0040E270 00 00 00 00 00 00 00 00 00 00 00 00 00 00 00 00 ................
0040E280 00 00 00 00 00 00 00 00 00 00 00 00 00 00 00 00 ................
0040E290 00 00 00 00 00 00 00 00 00 00 00 00 00 00 00 00 ................
0040E2A0 00 00 00 00 00 00 00 00 00 00 00 00 00 00 00 00 ................
0040E2B0 00 00 00 00 00 00 00 00 00 00 00 00 00 00 00 00 ................
0040E2C0 00 00 00 00 00 00 00 00 00 00 00 00 00 00 00 00 ................
0040E2D0 00 00 00 00 00 00 00 00 00 00 00 00 00 00 00 00 ................
0040E2E0 00 00 00 00 00 00 00 00 00 00 00 00 00 00 00 00 ................
0040E2F0 00 00 00 00 00 00 00 00 00 00 00 00 00 00 00 00 ................
0040E300 00 00 00 00 00 00 00 00 00 00 00 00 00 00 00 00 ................
0040E310 00 00 00 00 00 00 00 00 00 00 00 00 00 00 00 00 ................
0040E320 00 00 00 00 00 00 00 00 00 00 00 00 00 00 00 00 ................
0040E330 00 00 00 00 00 00 00 00 00 00 00 00 00 00 00 00 ................
0040E340 00 00 00 00 00 00 00 00 00 00 00 00 00 00 00 00 ................
0040E350 00 00 00 00 00 00 00 00 00 00 00 00 00 00 00 00 ................
0040E360 00 00 00 00 00 00 00 00 00 00 00 00 00 00 00 00 ................
0040E370 00 00 00 00 00 00 00 00 00 00 00 00 00 00 00 00 ................
0040E380 00 00 00 00 00 00 00 00 00 00 00 00 00 00 00 00 ................
0040E390 00 00 00 00 00 00 00 00 00 00 00 00 00 00 00 00 ................
0040E3A0 00 00 00 00 00 00 00 00 00 00 00 00 00 00 00 00 ................
0040E3B0 00 00 00 00 00 00 00 00 00 00 00 00 00 00 00 00 ................
0040E3C0 00 00 00 00 00 00 00 00 00 00 00 00 00 00 00 00 ................
0040E3D0 00 00 00 00 00 00 00 00 00 00 00 00 00 00 00 00 ................
0040E3E0 00 00 00 00 00 00 00 00 00 00 00 00 00 00 00 00 ................
0040E3F0 00 00 00 00 00 00 00 00 00 00 00 00 00 00 00 00 ................
0040E400 00 00 00 00 00 00 00 00 00 00 00 00 00 00 00 00 ................
0040E410 00 00 00 00 00 00 00 00 00 00 00 00 00 00 00 00 ................
0040E420 00 00 00 00 00 00 00 00 00 00 00 00 00 00 00 00 ................
0040E430 00 00 00 00 00 00 00 00 00 00 00 00 00 00 00 00 ................
0040E440 00 00 00 00 00 00 00 00 00 00 00 00 00 00 00 00 ................
0040E450 00 00 00 00 00 00 00 00 00 00 00 00 00 00 00 00 ................
0040E460 00 00 00 00 00 00 00 00 00 00 00 00 00 00 00 00 ................
0040E470 00 00 00 00 00 00 00 00 00 00 00 00 00 00 00 00 ................
0040E480 00 00 00 00 00 00 00 00 00 00 00 00 00 00 00 00 ................
0040E490 00 00 00 00 00 00 00 00 00 00 00 00 00 00 00 00 ................
0040E4A0 00 00 00 00 00 00 00 00 00 00 00 00 00 00 00 00 ................
0040E4B0 00 00 00 00 00 00 00 00 00 00 00 00 00 00 00 00 ................
0040E4C0 00 00 00 00 00 00 00 00 00 00 00 00 00 00 00 00 ................
0040E4D0 00 00 00 00 00 00 00 00 00 00 00 00 00 00 00 00 ................
0040E4E0 00 00 00 00 00 00 00 00 00 00 00 00 00 00 00 00 ................
0040E4F0 00 00 00 00 00 00 00 00 00 00 00 00 00 00 00 00 ................
0040E500 00 00 00 00 00 00 00 00 00 00 00 00 00 00 00 00 ................
0040E510 00 00 00 00 00 00 00 00 00 00 00 00 00 00 00 00 ................
0040E520 00 00 00 00 00 00 00 00 00 00 00 00 00 00 00 00 ................
0040E530 00 00 00 00 00 00 00 00 00 00 00 00 00 00 00 00 ................
0040E540 00 00 00 00 00 00 00 00 00 00 00 00 00 00 00 00 ................
0040E550 00 00 00 00 00 00 00 00 00 00 00 00 00 00 00 00 ................
0040E560 00 00 00 00 00 00 00 00 00 00 00 00 00 00 00 00 ................
0040E570 00 00 00 00 00 00 00 00 00 00 00 00 00 00 00 00 ................
0040E580 00 00 00 00 00 00 00 00 00 00 00 00 00 00 00 00 ................
0040E590 00 00 00 00 00 00 00 00 00 00 00 00 00 00 00 00 ................
0040E5A0 00 00 00 00 00 00 00 00 00 00 00 00 00 00 00 00 ................
0040E5B0 00 00 00 00 00 00 00 00 00 00 00 00 00 00 00 00 ................
0040E5C0 00 00 00 00 00 00 00 00 00 00 00 00 00 00 00 00 ................
0040E5D0 00 00 00 00 00 00 00 00 00 00 00 00 00 00 00 00 ................
0040E5E0 00 00 00 00 00 00 00 00 00 00 00 00 00 00 00 00 ................
0040E5F0 00 00 00 00 00 00 00 00 00 00 00 00 00 00 00 00 ................
0040E600 00 00 00 00 00 00 00 00 00 00 00 00 00 00 00 00 ................
0040E610 00 00 00 00 00 00 00 00 00 00 00 00 00 00 00 00 ................
0040E620 00 00 00 00 00 00 00 00 00 00 00 00 00 00 00 00 ................
0040E630 00 00 00 00 00 00 00 00 00 00 00 00 00 00 00 00 ................
0040E640 00 00 00 00 00 00 00 00 00 00 00 00 00 00 00 00 ................
0040E650 00 00 00 00 00 00 00 00 00 00 00 00 00 00 00 00 ................
0040E660 00 00 00 00 00 00 00 00 00 00 00 00 00 00 00 00 ................
0040E670 00 00 00 00 00 00 00 00 00 00 00 00 00 00 00 00 ................
0040E680 00 00 00 00 00 00 00 00 00 00 00 00 00 00 00 00 ................
0040E690 00 00 00 00 00 00 00 00 00 00 00 00 00 00 00 00 ................
0040E6A0 00 00 00 00 00 00 00 00 00 00 00 00 00 00 00 00 ................
0040E6B0 00 00 00 00 00 00 00 00 00 00 00 00 00 00 00 00 ................
0040E6C0 00 00 00 00 00 00 00 00 00 00 00 00 00 00 00 00 ................
0040E6D0 00 00 00 00 00 00 00 00 00 00 00 00 00 00 00 00 ................
0040E6E0 00 00 00 00 00 00 00 00 00 00 00 00 00 00 00 00 ................
0040E6F0 00 00 00 00 00 00 00 00 00 00 00 00 00 00 00 00 ................
0040E700 00 00 00 00 00 00 00 00 00 00 00 00 00 00 00 00 ................
0040E710 00 00 00 00 00 00 00 00 00 00 00 00 00 00 00 00 ................
0040E720 00 00 00 00 00 00 00 00 00 00 00 00 00 00 00 00 ................
0040E730 00 00 00 00 00 00 00 00 00 00 00 00 00 00 00 00 ................
0040E740 00 00 00 00 00 00 00 00 00 00 00 00 00 00 00 00 ................
0040E750 00 00 00 00 00 00 00 00 00 00 00 00 00 00 00 00 ................
0040E760 00 00 00 00 00 00 00 00 00 00 00 00 00 00 00 00 ................
0040E770 00 00 00 00 00 00 00 00 00 00 00 00 00 00 00 00 ................
0040E780 00 00 00 00 00 00 00 00 00 00 00 00 00 00 00 00 ................
0040E790 00 00 00 00 00 00 00 00 00 00 00 00 00 00 00 00 ................
0040E7A0 00 00 00 00 00 00 00 00 00 00 00 00 00 00 00 00 ................
0040E7B0 00 00 00 00 00 00 00 00 00 00 00 00 00 00 00 00 ................
0040E7C0 00 00 00 00 00 00 00 00 00 00 00 00 00 00 00 00 ................
0040E7D0 00 00 00 00 00 00 00 00 00 00 00 00 00 00 00 00 ................
0040E7E0 00 00 00 00 00 00 00 00 00 00 00 00 00 00 00 00 ................
0040E7F0 00 00 00 00 00 00 00 00 00 00 00 00 00 00 00 00 ................
0040E800 00 00 00 00 00 00 00 00 00 00 00 00 00 00 00 00 ................
0040E810 00 00 00 00 00 00 00 00 00 00 00 00 00 00 00 00 ................
0040E820 00 00 00 00 00 00 00 00 00 00 00 00 00 00 00 00 ................
0040E830 00 00 00 00 00 00 00 00 00 00 00 00 00 00 00 00 ................
0040E840 00 00 00 00 00 00 00 00 00 00 00 00 00 00 00 00 ................
0040E850 00 00 00 00 00 00 00 00 00 00 00 00 00 00 00 00 ................
0040E860 00 00 00 00 00 00 00 00 00 00 00 00 00 00 00 00 ................
0040E870 00 00 00 00 00 00 00 00 00 00 00 00 00 00 00 00 ................
0040E880 00 00 00 00 00 00 00 00 00 00 00 00 00 00 00 00 ................
0040E890 00 00 00 00 00 00 00 00 00 00 00 00 00 00 00 00 ................
0040E8A0 00 00 00 00 00 00 00 00 00 00 00 00 00 00 00 00 ................
0040E8B0 00 00 00 00 00 00 00 00 00 00 00 00 00 00 00 00 ................
0040E8C0 00 00 00 00 00 00 00 00 00 00 00 00 00 00 00 00 ................
0040E8D0 00 00 00 00 00 00 00 00 00 00 00 00 00 00 00 00 ................
0040E8E0 00 00 00 00 00 00 00 00 00 00 00 00 00 00 00 00 ................
0040E8F0 00 00 00 00 00 00 00 00 00 00 00 00 00 00 00 00 ................
0040E900 00 00 00 00 00 00 00 00 00 00 00 00 00 00 00 00 ................
0040E910 00 00 00 00 00 00 00 00 00 00 00 00 00 00 00 00 ................
0040E920 00 00 00 00 00 00 00 00 00 00 00 00 00 00 00 00 ................
0040E930 00 00 00 00 00 00 00 00 00 00 00 00 00 00 00 00 ................
0040E940 00 00 00 00 00 00 00 00 00 00 00 00 00 00 00 00 ................
0040E950 00 00 00 00 00 00 00 00 00 00 00 00 00 00 00 00 ................
0040E960 00 00 00 00 00 00 00 00 00 00 00 00 00 00 00 00 ................
0040E970 00 00 00 00 00 00 00 00 00 00 00 00 00 00 00 00 ................
0040E980 00 00 00 00 00 00 00 00 00 00 00 00 00 00 00 00 ................
0040E990 00 00 00 00 00 00 00 00 00 00 00 00 00 00 00 00 ................
0040E9A0 00 00 00 00 00 00 00 00 00 00 00 00 00 00 00 00 ................
0040E9B0 00 00 00 00 00 00 00 00 00 00 00 00 00 00 00 00 ................
0040E9C0 00 00 00 00 00 00 00 00 00 00 00 00 00 00 00 00 ................
0040E9D0 00 00 00 00 00 00 00 00 00 00 00 00 00 00 00 00 ................
0040E9E0 00 00 00 00 00 00 00 00 00 00 00 00 00 00 00 00 ................
0040E9F0 00 00 00 00 00 00 00 00 00 00 00 00 00 00 00 00 ................
0040EA00 00 00 00 00 00 00 00 00 00 00 00 00 00 00 00 00 ................
0040EA10 00 00 00 00 00 00 00 00 00 00 00 00 00 00 00 00 ................
0040EA20 00 00 00 00 00 00 00 00 00 00 00 00 00 00 00 00 ................
0040EA30 00 00 00 00 00 00 00 00 00 00 00 00 00 00 00 00 ................
0040EA40 00 00 00 00 00 00 00 00 00 00 00 00 00 00 00 00 ................
0040EA50 00 00 00 00 00 00 00 00 00 00 00 00 00 00 00 00 ................
0040EA60 00 00 00 00 00 00 00 00 00 00 00 00 00 00 00 00 ................
0040EA70 00 00 00 00 00 00 00 00 00 00 00 00 00 00 00 00 ................
0040EA80 00 00 00 00 00 00 00 00 00 00 00 00 00 00 00 00 ................
0040EA90 00 00 00 00 00 00 00 00 00 00 00 00 00 00 00 00 ................
0040EAA0 00 00 00 00 00 00 00 00 00 00 00 00 00 00 00 00 ................
0040EAB0 00 00 00 00 00 00 00 00 00 00 00 00 00 00 00 00 ................
0040EAC0 00 00 00 00 00 00 00 00 00 00 00 00 00 00 00 00 ................
0040EAD0 00 00 00 00 00 00 00 00 00 00 00 00 00 00 00 00 ................
0040EAE0 00 00 00 00 00 00 00 00 00 00 00 00 00 00 00 00 ................
0040EAF0 00 00 00 00 00 00 00 00 00 00 00 00 00 00 00 00 ................
0040EB00 00 00 00 00 00 00 00 00 00 00 00 00 00 00 00 00 ................
0040EB10 00 00 00 00 00 00 00 00 00 00 00 00 00 00 00 00 ................
0040EB20 00 00 00 00 00 00 00 00 00 00 00 00 00 00 00 00 ................
0040EB30 00 00 00 00 00 00 00 00 00 00 00 00 00 00 00 00 ................
0040EB40 00 00 00 00 00 00 00 00 00 00 00 00 00 00 00 00 ................
0040EB50 00 00 00 00 00 00 00 00 00 00 00 00 00 00 00 00 ................
0040EB60 00 00 00 00 00 00 00 00 00 00 00 00 00 00 00 00 ................
0040EB70 00 00 00 00 00 00 00 00 00 00 00 00 00 00 00 00 ................
0040EB80 00 00 00 00 00 00 00 00 00 00 00 00 00 00 00 00 ................
0040EB90 00 00 00 00 00 00 00 00 00 00 00 00 00 00 00 00 ................
0040EBA0 00 00 00 00 00 00 00 00 00 00 00 00 00 00 00 00 ................
0040EBB0 00 00 00 00 00 00 00 00 00 00 00 00 00 00 00 00 ................
0040EBC0 00 00 00 00 00 00 00 00 00 00 00 00 00 00 00 00 ................
0040EBD0 00 00 00 00 00 00 00 00 00 00 00 00 00 00 00 00 ................
0040EBE0 00 00 00 00 00 00 00 00 00 00 00 00 00 00 00 00 ................
0040EBF0 00 00 00 00 00 00 00 00 00 00 00 00 00 00 00 00 ................
0040EC00 00 00 00 00 00 00 00 00 00 00 00 00 00 00 00 00 ................
0040EC10 00 00 00 00 00 00 00 00 00 00 00 00 00 00 00 00 ................
0040EC20 00 00 00 00 00 00 00 00 00 00 00 00 00 00 00 00 ................
0040EC30 00 00 00 00 00 00 00 00 00 00 00 00 00 00 00 00 ................
0040EC40 00 00 00 00 00 00 00 00 00 00 00 00 00 00 00 00 ................
0040EC50 00 00 00 00 00 00 00 00 00 00 00 00 00 00 00 00 ................
0040EC60 00 00 00 00 00 00 00 00 00 00 00 00 00 00 00 00 ................
0040EC70 00 00 00 00 00 00 00 00 00 00 00 00 00 00 00 00 ................
0040EC80 00 00 00 00 00 00 00 00 00 00 00 00 00 00 00 00 ................
0040EC90 00 00 00 00 00 00 00 00 00 00 00 00 00 00 00 00 ................
0040ECA0 00 00 00 00 00 00 00 00 00 00 00 00 00 00 00 00 ................
0040ECB0 00 00 00 00 00 00 00 00 00 00 00 00 00 00 00 00 ................
0040ECC0 00 00 00 00 00 00 00 00 00 00 00 00 00 00 00 00 ................
0040ECD0 00 00 00 00 00 00 00 00 00 00 00 00 00 00 00 00 ................
0040ECE0 00 00 00 00 00 00 00 00 00 00 00 00 00 00 00 00 ................
0040ECF0 00 00 00 00 00 00 00 00 00 00 00 00 00 00 00 00 ................
0040ED00 00 00 00 00 00 00 00 00 00 00 00 00 00 00 00 00 ................
0040ED10 00 00 00 00 00 00 00 00 00 00 00 00 00 00 00 00 ................
0040ED20 00 00 00 00 00 00 00 00 00 00 00 00 00 00 00 00 ................
0040ED30 00 00 00 00 00 00 00 00 00 00 00 00 00 00 00 00 ................
0040ED40 00 00 00 00 00 00 00 00 00 00 00 00 00 00 00 00 ................
0040ED50 00 00 00 00 00 00 00 00 00 00 00 00 00 00 00 00 ................
0040ED60 00 00 00 00 00 00 00 00 00 00 00 00 00 00 00 00 ................
0040ED70 00 00 00 00 00 00 00 00 00 00 00 00 00 00 00 00 ................
0040ED80 00 00 00 00 00 00 00 00 00 00 00 00 00 00 00 00 ................
0040ED90 00 00 00 00 00 00 00 00 00 00 00 00 00 00 00 00 ................
0040EDA0 00 00 00 00 00 00 00 00 00 00 00 00 00 00 00 00 ................
0040EDB0 00 00 00 00 00 00 00 00 00 00 00 00 00 00 00 00 ................
0040EDC0 00 00 00 00 00 00 00 00 00 00 00 00 00 00 00 00 ................
0040EDD0 00 00 00 00 00 00 00 00 00 00 00 00 00 00 00 00 ................
0040EDE0 00 00 00 00 00 00 00 00 00 00 00 00 00 00 00 00 ................
0040EDF0 00 00 00 00 00 00 00 00 00 00 00 00 00 00 00 00 ................
0040EE00 00 00 00 00 00 00 00 00 00 00 00 00 00 00 00 00 ................
0040EE10 00 00 00 00 00 00 00 00 00 00 00 00 00 00 00 00 ................
0040EE20 00 00 00 00 00 00 00 00 00 00 00 00 00 00 00 00 ................
0040EE30 00 00 00 00 00 00 00 00 00 00 00 00 00 00 00 00 ................
0040EE40 00 00 00 00 00 00 00 00 00 00 00 00 00 00 00 00 ................
0040EE50 00 00 00 00 00 00 00 00 00 00 00 00 00 00 00 00 ................
0040EE60 00 00 00 00 00 00 00 00 00 00 00 00 00 00 00 00 ................
0040EE70 00 00 00 00 00 00 00 00 00 00 00 00 00 00 00 00 ................
0040EE80 00 00 00 00 00 00 00 00 00 00 00 00 00 00 00 00 ................
0040EE90 00 00 00 00 00 00 00 00 00 00 00 00 00 00 00 00 ................
0040EEA0 00 00 00 00 00 00 00 00 00 00 00 00 00 00 00 00 ................
0040EEB0 00 00 00 00 00 00 00 00 00 00 00 00 00 00 00 00 ................
0040EEC0 00 00 00 00 00 00 00 00 00 00 00 00 00 00 00 00 ................
0040EED0 00 00 00 00 00 00 00 00 00 00 00 00 00 00 00 00 ................
0040EEE0 00 00 00 00 00 00 00 00 00 00 00 00 00 00 00 00 ................
0040EEF0 00 00 00 00 00 00 00 00 00 00 00 00 00 00 00 00 ................
0040EF00 00 00 00 00 00 00 00 00 00 00 00 00 00 00 00 00 ................
0040EF10 00 00 00 00 00 00 00 00 00 00 00 00 00 00 00 00 ................
0040EF20 00 00 00 00 00 00 00 00 00 00 00 00 00 00 00 00 ................
0040EF30 00 00 00 00 00 00 00 00 00 00 00 00 00 00 00 00 ................
0040EF40 00 00 00 00 00 00 00 00 00 00 00 00 00 00 00 00 ................
0040EF50 00 00 00 00 00 00 00 00 00 00 00 00 00 00 00 00 ................
0040EF60 00 00 00 00 00 00 00 00 00 00 00 00 00 00 00 00 ................
0040EF70 00 00 00 00 00 00 00 00 00 00 00 00 00 00 00 00 ................
0040EF80 00 00 00 00 00 00 00 00 00 00 00 00 00 00 00 00 ................
0040EF90 00 00 00 00 00 00 00 00 00 00 00 00 00 00 00 00 ................
0040EFA0 00 00 00 00 00 00 00 00 00 00 00 00 00 00 00 00 ................
0040EFB0 00 00 00 00 00 00 00 00 00 00 00 00 00 00 00 00 ................
0040EFC0 00 00 00 00 00 00 00 00 00 00 00 00 00 00 00 00 ................
0040EFD0 00 00 00 00 00 00 00 00 00 00 00 00 00 00 00 00 ................
0040EFE0 00 00 00 00 00 00 00 00 00 00 00 00 00 00 00 00 ................
0040EFF0 00 00 00 00 00 00 00 00 00 00 00 00 00 00 00 00 ................
0040F000 A8 F2 00 00 B8 F2 00 00 C4 F2 00 00 DC F2 00 00 ................
0040F010 EA F2 00 00 FC F2 00 00 0A F3 00 00 22 F3 00 00 ............"...
0040F020 36 F3 00 00 42 F3 00 00 58 F3 00 00 64 F3 00 00 6...B...X...d...
0040F030 72 F3 00 00 84 F3 00 00 96 F3 00 00 AA F3 00 00 r...............
0040F040 C2 F3 00 00 D2 F3 00 00 E8 F3 00 00 F6 F3 00 00 ................
0040F050 10 F4 00 00 20 F4 00 00 34 F4 00 00 4A F4 00 00 .... ...4...J...
0040F060 5A F4 00 00 70 F4 00 00 82 F4 00 00 8A F4 00 00 Z...p...........
0040F070 00 00 00 00 AE F4 00 00 C2 F4 00 00 D2 F4 00 00 ................
0040F080 EA F4 00 00 00 F5 00 00 0E F5 00 00 1C F5 00 00 ................
0040F090 2E F5 00 00 42 F5 00 00 54 F5 00 00 68 F5 00 00 ....B...T...h...
0040F0A0 7A F5 00 00 86 F5 00 00 98 F5 00 00 A6 F5 00 00 z...............
0040F0B0 BC F5 00 00 CA F5 00 00 DC F5 00 00 EC F5 00 00 ................
0040F0C0 FA F5 00 00 0C F6 00 00 20 F6 00 00 30 F6 00 00 ........ ...0...
0040F0D0 3C F6 00 00 4C F6 00 00 5E F6 00 00 74 F6 00 00 <...L...^...t...
0040F0E0 82 F6 00 00 90 F6 00 00 A4 F6 00 00 B0 F6 00 00 ................
0040F0F0 C2 F6 00 00 CE F6 00 00 E0 F6 00 00 F4 F6 00 00 ................
0040F100 04 F7 00 00 16 F7 00 00 22 F7 00 00 36 F7 00 00 ........"...6...
0040F110 46 F7 00 00 52 F7 00 00 66 F7 00 00 74 F7 00 00 F...R...f...t...
0040F120 86 F7 00 00 92 F7 00 00 A6 F7 00 00 B8 F7 00 00 ................
0040F130 00 00 00 00 00 00 00 00 74 F1 00 00 00 00 00 00 ........t.......
0040F140 00 00 00 00 A0 F4 00 00 00 F0 00 00 E8 F1 00 00 ................
0040F150 00 00 00 00 00 00 00 00 C8 F7 00 00 74 F0 00 00 ............t...
0040F160 00 00 00 00 00 00 00 00 00 00 00 00 00 00 00 00 ................
0040F170 00 00 00 00 A8 F2 00 00 B8 F2 00 00 C4 F2 00 00 ................
0040F180 DC F2 00 00 EA F2 00 00 FC F2 00 00 0A F3 00 00 ................
0040F190 22 F3 00 00 36 F3 00 00 42 F3 00 00 58 F3 00 00 "...6...B...X...
0040F1A0 64 F3 00 00 72 F3 00 00 84 F3 00 00 96 F3 00 00 d...r...........
0040F1B0 AA F3 00 00 C2 F3 00 00 D2 F3 00 00 E8 F3 00 00 ................
0040F1C0 F6 F3 00 00 10 F4 00 00 20 F4 00 00 34 F4 00 00 ........ ...4...
0040F1D0 4A F4 00 00 5A F4 00 00 70 F4 00 00 82 F4 00 00 J...Z...p.......
0040F1E0 8A F4 00 00 00 00 00 00 AE F4 00 00 C2 F4 00 00 ................
0040F1F0 D2 F4 00 00 EA F4 00 00 00 F5 00 00 0E F5 00 00 ................
0040F200 1C F5 00 00 2E F5 00 00 42 F5 00 00 54 F5 00 00 ........B...T...
0040F210 68 F5 00 00 7A F5 00 00 86 F5 00 00 98 F5 00 00 h...z...........
0040F220 A6 F5 00 00 BC F5 00 00 CA F5 00 00 DC F5 00 00 ................
0040F230 EC F5 00 00 FA F5 00 00 0C F6 00 00 20 F6 00 00 ............ ...
0040F240 30 F6 00 00 3C F6 00 00 4C F6 00 00 5E F6 00 00 0...<...L...^...
0040F250 74 F6 00 00 82 F6 00 00 90 F6 00 00 A4 F6 00 00 t...............
0040F260 B0 F6 00 00 C2 F6 00 00 CE F6 00 00 E0 F6 00 00 ................
0040F270 F4 F6 00 00 04 F7 00 00 16 F7 00 00 22 F7 00 00 ............"...
0040F280 36 F7 00 00 46 F7 00 00 52 F7 00 00 66 F7 00 00 6...F...R...f...
0040F290 74 F7 00 00 86 F7 00 00 92 F7 00 00 A6 F7 00 00 t...............
0040F2A0 B8 F7 00 00 00 00 00 00 2F 00 56 69 72 74 75 61 ......../.Virtua
0040F2B0 6C 41 6C 6C 6F 63 00 00 31 00 57 72 69 74 65 46 lAlloc..1.WriteF
0040F2C0 69 6C 65 00 33 00 4C 65 61 76 65 43 72 69 74 69 ile.3.LeaveCriti
0040F2D0 63 61 6C 53 65 63 74 69 6F 6E 00 00 39 00 46 72 calSection..9.Fr
0040F2E0 65 65 4C 69 62 72 61 72 79 00 3E 00 47 65 74 53 eeLibrary.>.GetS
0040F2F0 74 61 72 74 75 70 49 6E 66 6F 57 00 42 00 46 72 tartupInfoW.B.Fr
0040F300 65 65 4C 69 62 72 61 72 79 00 45 00 49 6E 74 65 eeLibrary.E.Inte
0040F310 72 6C 6F 63 6B 65 64 44 65 63 72 65 6D 65 6E 74 rlockedDecrement
0040F320 00 00 47 00 47 65 74 4D 6F 64 75 6C 65 48 61 6E ..G.GetModuleHan
0040F330 64 6C 65 57 00 00 4C 00 53 65 74 45 76 65 6E 74 dleW..L.SetEvent
0040F340 00 00 51 00 57 69 64 65 43 68 61 72 54 6F 4D 75 ..Q.WideCharToMu
0040F350 6C 74 69 42 79 74 65 00 54 00 6C 73 74 72 63 70 ltiByte.T.lstrcp
0040F360 79 57 00 00 5A 00 4C 6F 63 61 6C 41 6C 6C 6F 63 yW..Z.LocalAlloc
0040F370 00 00 5C 00 47 65 74 50 72 6F 63 41 64 64 72 65 ..\.GetProcAddre
0040F380 73 73 00 00 5D 00 47 65 74 50 72 6F 63 65 73 73 ss..].GetProcess
0040F390 48 65 61 70 00 00 62 00 47 65 74 4D 6F 64 75 6C Heap..b.GetModul
0040F3A0 65 48 61 6E 64 6C 65 41 00 00 63 00 49 6E 74 65 eHandleA..c.Inte
0040F3B0 72 6C 6F 63 6B 65 64 44 65 63 72 65 6D 65 6E 74 rlockedDecrement
0040F3C0 00 00 67 00 47 65 74 54 69 63 6B 43 6F 75 6E 74 ..g.GetTickCount
0040F3D0 00 00 6B 00 47 65 74 43 75 72 72 65 6E 74 50 72 ..k.GetCurrentPr
0040F3E0 6F 63 65 73 73 49 64 00 6C 00 45 78 69 74 50 72 ocessId.l.ExitPr
0040F3F0 6F 63 65 73 73 00 6D 00 47 65 74 53 79 73 74 65 ocess.m.GetSyste
0040F400 6D 54 69 6D 65 41 73 46 69 6C 65 54 69 6D 65 00 mTimeAsFileTime.
0040F410 72 00 56 69 72 74 75 61 6C 41 6C 6C 6F 63 00 00 r.VirtualAlloc..
0040F420 75 00 47 65 74 43 75 72 72 65 6E 74 50 72 6F 63 u.GetCurrentProc
0040F430 65 73 73 00 76 00 47 65 74 43 75 72 72 65 6E 74 ess.v.GetCurrent
0040F440 54 68 72 65 61 64 49 64 00 00 77 00 47 65 74 4C ThreadId..w.GetL
0040F450 61 73 74 45 72 72 6F 72 00 00 7A 00 57 61 69 74 astError..z.Wait
0040F460 46 6F 72 53 69 6E 67 6C 65 4F 62 6A 65 63 74 00 ForSingleObject.
0040F470 7D 00 47 65 74 53 74 61 72 74 75 70 49 6E 66 6F }.GetStartupInfo
0040F480 57 00 81 00 53 6C 65 65 70 00 87 00 47 65 74 43 W...Sleep...GetC
0040F490 75 72 72 65 6E 74 54 68 72 65 61 64 49 64 00 00 urrentThreadId..
0040F4A0 4B 45 52 4E 45 4C 33 32 2E 44 4C 4C 00 00 21 00 KERNEL32.DLL..!.
0040F4B0 54 72 61 6E 73 6C 61 74 65 4D 65 73 73 61 67 65 TranslateMessage
0040F4C0 00 00 27 00 55 70 64 61 74 65 57 69 6E 64 6F 77 ..'.UpdateWindow
0040F4D0 00 00 2D 00 53 79 73 74 65 6D 50 61 72 61 6D 65 ..-.SystemParame
0040F4E0 74 65 72 73 49 6E 66 6F 57 00 2F 00 53 65 6E 64 tersInfoW./.Send
0040F4F0 44 6C 67 49 74 65 6D 4D 65 73 73 61 67 65 57 00 DlgItemMessageW.
0040F500 34 00 4D 65 73 73 61 67 65 42 65 65 70 00 37 00 4.MessageBeep.7.
0040F510 47 65 74 53 75 62 4D 65 6E 75 00 00 3B 00 43 61 GetSubMenu..;.Ca
0040F520 6C 6C 57 69 6E 64 6F 77 50 72 6F 63 57 00 3D 00 llWindowProcW.=.
0040F530 49 73 44 69 61 6C 6F 67 4D 65 73 73 61 67 65 57 IsDialogMessageW
0040F540 00 00 41 00 53 65 74 44 6C 67 49 74 65 6D 54 65 ..A.SetDlgItemTe
0040F550 78 74 57 00 44 00 44 69 73 70 61 74 63 68 4D 65 xtW.D.DispatchMe
0040F560 73 73 61 67 65 57 00 00 48 00 53 65 74 57 69 6E ssageW..H.SetWin
0040F570 64 6F 77 4C 6F 6E 67 57 00 00 4A 00 47 65 74 50 dowLongW..J.GetP
0040F580 61 72 65 6E 74 00 4D 00 53 63 72 65 65 6E 54 6F arent.M.ScreenTo
0040F590 43 6C 69 65 6E 74 00 00 4F 00 4C 6F 61 64 43 75 Client..O.LoadCu
0040F5A0 72 73 6F 72 57 00 52 00 53 65 6E 64 44 6C 67 49 rsorW.R.SendDlgI
0040F5B0 74 65 6D 4D 65 73 73 61 67 65 57 00 58 00 4C 6F temMessageW.X.Lo
0040F5C0 61 64 43 75 72 73 6F 72 57 00 5C 00 50 6F 73 74 adCursorW.\.Post
0040F5D0 51 75 69 74 4D 65 73 73 61 67 65 00 5D 00 55 70 QuitMessage.].Up
0040F5E0 64 61 74 65 57 69 6E 64 6F 77 00 00 61 00 4D 65 dateWindow..a.Me
0040F5F0 73 73 61 67 65 42 6F 78 57 00 62 00 43 72 65 61 ssageBoxW.b.Crea
0040F600 74 65 57 69 6E 64 6F 77 45 78 57 00 64 00 52 65 teWindowExW.d.Re
0040F610 67 69 73 74 65 72 43 6C 61 73 73 45 78 57 00 00 gisterClassExW..
0040F620 6A 00 55 70 64 61 74 65 57 69 6E 64 6F 77 00 00 j.UpdateWindow..
0040F630 70 00 49 73 57 69 6E 64 6F 77 00 00 75 00 50 6F p.IsWindow..u.Po
0040F640 73 74 4D 65 73 73 61 67 65 57 00 00 7A 00 53 65 stMessageW..z.Se
0040F650 74 57 69 6E 64 6F 77 4C 6F 6E 67 57 00 00 7B 00 tWindowLongW..{.
0040F660 53 65 6E 64 44 6C 67 49 74 65 6D 4D 65 73 73 61 SendDlgItemMessa
0040F670 67 65 57 00 7F 00 47 65 74 53 75 62 4D 65 6E 75 geW...GetSubMenu
0040F680 00 00 82 00 4C 6F 61 64 53 74 72 69 6E 67 41 00 ....LoadStringA.
0040F690 87 00 47 65 74 53 79 73 74 65 6D 4D 65 74 72 69 ..GetSystemMetri
0040F6A0 63 73 00 00 8B 00 47 65 74 57 69 6E 64 6F 77 00 cs....GetWindow.
0040F6B0 8C 00 49 73 57 69 6E 64 6F 77 56 69 73 69 62 6C ..IsWindowVisibl
0040F6C0 65 00 91 00 53 65 74 43 75 72 73 6F 72 00 93 00 e...SetCursor...
0040F6D0 43 68 65 63 6B 44 6C 67 42 75 74 74 6F 6E 00 00 CheckDlgButton..
0040F6E0 96 00 52 65 67 69 73 74 65 72 43 6C 61 73 73 45 ..RegisterClassE
0040F6F0 78 57 00 00 99 00 47 65 74 43 75 72 73 6F 72 50 xW....GetCursorP
0040F700 6F 73 00 00 9D 00 47 65 74 57 69 6E 64 6F 77 54 os....GetWindowT
0040F710 65 78 74 57 00 00 9F 00 45 6E 64 44 69 61 6C 6F extW....EndDialo
0040F720 67 00 A0 00 47 65 74 44 65 73 6B 74 6F 70 57 69 g...GetDesktopWi
0040F730 6E 64 6F 77 00 00 A4 00 44 65 73 74 72 6F 79 57 ndow....DestroyW
0040F740 69 6E 64 6F 77 00 A8 00 46 69 6C 6C 52 65 63 74 indow...FillRect
0040F750 00 00 AE 00 4C 6F 61 64 41 63 63 65 6C 65 72 61 ....LoadAccelera
0040F760 74 6F 72 73 57 00 B3 00 53 68 6F 77 57 69 6E 64 torsW...ShowWind
0040F770 6F 77 00 00 B8 00 43 72 65 61 74 65 57 69 6E 64 ow....CreateWind
0040F780 6F 77 45 78 57 00 BB 00 53 65 74 46 6F 63 75 73 owExW...SetFocus
0040F790 00 00 BF 00 47 65 74 53 79 73 74 65 6D 4D 65 74 ....GetSystemMet
0040F7A0 72 69 63 73 00 00 C5 00 52 65 67 69 73 74 65 72 rics....Register
0040F7B0 43 6C 61 73 73 57 00 00 C8 00 53 65 6E 64 4D 65 ClassW....SendMe
0040F7C0 73 73 61 67 65 41 00 00 55 53 45 52 33 32 2E 44 ssageA..USER32.D
0040F7D0 4C 4C 00 00 00 00 00 00 00 00 00 00 00 00 00 00 LL..............
0040F7E0 00 00 00 00 00 00 00 00 00 00 00 00 00 00 00 00 ................
0040F7F0 00 00 00 00 00 00 00 00 00 00 00 00 00 00 00 00 ................
0040F800 00 00 00 00 00 00 00 00 00 00 00 00 00 00 00 00 ................
0040F810 00 00 00 00 00 00 00 00 00 00 00 00 00 00 00 00 ................
0040F820 00 00 00 00 00 00 00 00 00 00 00 00 00 00 00 00 ................
0040F830 00 00 00 00 00 00 00 00 00 00 00 00 00 00 00 00 ................
0040F840 00 00 00 00 00 00 00 00 00 00 00 00 00 00 00 00 ................
0040F850 00 00 00 00 00 00 00 00 00 00 00 00 00 00 00 00 ................
0040F860 00 00 00 00 00 00 00 00 00 00 00 00 00 00 00 00 ................
0040F870 00 00 00 00 00 00 00 00 00 00 00 00 00 00 00 00 ................
0040F880 00 00 00 00 00 00 00 00 00 00 00 00 00 00 00 00 ................
0040F890 00 00 00 00 00 00 00 00 00 00 00 00 00 00 00 00 ................
0040F8A0 00 00 00 00 00 00 00 00 00 00 00 00 00 00 00 00 ................
0040F8B0 00 00 00 00 00 00 00 00 00 00 00 00 00 00 00 00 ................
0040F8C0 00 00 00 00 00 00 00 00 00 00 00 00 00 00 00 00 ................
0040F8D0 00 00 00 00 00 00 00 00 00 00 00 00 00 00 00 00 ................
0040F8E0 00 00 00 00 00 00 00 00 00 00 00 00 00 00 00 00 ................
0040F8F0 00 00 00 00 00 00 00 00 00 00 00 00 00 00 00 00 ................
0040F900 00 00 00 00 00 00 00 00 00 00 00 00 00 00 00 00 ................
0040F910 00 00 00 00 00 00 00 00 00 00 00 00 00 00 00 00 ................
0040F920 00 00 00 00 00 00 00 00 00 00 00 00 00 00 00 00 ................
0040F930 00 00 00 00 00 00 00 00 00 00 00 00 00 00 00 00 ................
0040F940 00 00 00 00 00 00 00 00 00 00 00 00 00 00 00 00 ................
0040F950 00 00 00 00 00 00 00 00 00 00 00 00 00 00 00 00 ................
0040F960 00 00 00 00 00 00 00 00 00 00 00 00 00 00 00 00 ................
0040F970 00 00 00 00 00 00 00 00 00 00 00 00 00 00 00 00 ................
0040F980 00 00 00 00 00 00 00 00 00 00 00 00 00 00 00 00 ................
0040F990 00 00 00 00 00 00 00 00 00 00 00 00 00 00 00 00 ................
0040F9A0 00 00 00 00 00 00 00 00 00 00 00 00 00 00 00 00 ................
0040F9B0 00 00 00 00 00 00 00 00 00 00 00 00 00 00 00 00 ................
0040F9C0 00 00 00 00 00 00 00 00 00 00 00 00 00 00 00 00 ................
0040F9D0 00 00 00 00 00 00 00 00 00 00 00 00 00 00 00 00 ................
0040F9E0 00 00 00 00 00 00 00 00 00 00 00 00 00 00 00 00 ................
0040F9F0 00 00 00 00 00 00 00 00 00 00 00 00 00 00 00 00 ................
0040FA00 00 00 00 00 00 00 00 00 00 00 00 00 00 00 00 00 ................
0040FA10 00 00 00 00 00 00 00 00 00 00 00 00 00 00 00 00 ................
0040FA20 00 00 00 00 00 00 00 00 00 00 00 00 00 00 00 00 ................
0040FA30 00 00 00 00 00 00 00 00 00 00 00 00 00 00 00 00 ................
0040FA40 00 00 00 00 00 00 00 00 00 00 00 00 00 00 00 00 ................
0040FA50 00 00 00 00 00 00 00 00 00 00 00 00 00 00 00 00 ................
0040FA60 00 00 00 00 00 00 00 00 00 00 00 00 00 00 00 00 ................
0040FA70 00 00 00 00 00 00 00 00 00 00 00 00 00 00 00 00 ................
0040FA80 00 00 00 00 00 00 00 00 00 00 00 00 00 00 00 00 ................
0040FA90 00 00 00 00 00 00 00 00 00 00 00 00 00 00 00 00 ................
0040FAA0 00 00 00 00 00 00 00 00 00 00 00 00 00 00 00 00 ................
0040FAB0 00 00 00 00 00 00 00 00 00 00 00 00 00 00 00 00 ................
0040FAC0 00 00 00 00 00 00 00 00 00 00 00 00 00 00 00 00 ................
0040FAD0 00 00 00 00 00 00 00 00 00 00 00 00 00 00 00 00 ................
0040FAE0 00 00 00 00 00 00 00 00 00 00 00 00 00 00 00 00 ................
0040FAF0 00 00 00 00 00 00 00 00 00 00 00 00 00 00 00 00 ................
0040FB00 00 00 00 00 00 00 00 00 00 00 00 00 00 00 00 00 ................
0040FB10 00 00 00 00 00 00 00 00 00 00 00 00 00 00 00 00 ................
0040FB20 00 00 00 00 00 00 00 00 00 00 00 00 00 00 00 00 ................
0040FB30 00 00 00 00 00 00 00 00 00 00 00 00 00 00 00 00 ................
0040FB40 00 00 00 00 00 00 00 00 00 00 00 00 00 00 00 00 ................
0040FB50 00 00 00 00 00 00 00 00 00 00 00 00 00 00 00 00 ................
0040FB60 00 00 00 00 00 00 00 00 00 00 00 00 00 00 00 00 ................
0040FB70 00 00 00 00 00 00 00 00 00 00 00 00 00 00 00 00 ................
0040FB80 00 00 00 00 00 00 00 00 00 00 00 00 00 00 00 00 ................
0040FB90 00 00 00 00 00 00 00 00 00 00 00 00 00 00 00 00 ................
0040FBA0 00 00 00 00 00 00 00 00 00 00 00 00 00 00 00 00 ................
0040FBB0 00 00 00 00 00 00 00 00 00 00 00 00 00 00 00 00 ................
0040FBC0 00 00 00 00 00 00 00 00 00 00 00 00 00 00 00 00 ................
0040FBD0 00 00 00 00 00 00 00 00 00 00 00 00 00 00 00 00 ................
0040FBE0 00 00 00 00 00 00 00 00 00 00 00 00 00 00 00 00 ................
0040FBF0 00 00 00 00 00 00 00 00 00 00 00 00 00 00 00 00 ................
0040FC00 00 00 00 00 00 00 00 00 00 00 00 00 00 00 00 00 ................
0040FC10 00 00 00 00 00 00 00 00 00 00 00 00 00 00 00 00 ................
0040FC20 00 00 00 00 00 00 00 00 00 00 00 00 00 00 00 00 ................
0040FC30 00 00 00 00 00 00 00 00 00 00 00 00 00 00 00 00 ................
0040FC40 00 00 00 00 00 00 00 00 00 00 00 00 00 00 00 00 ................
0040FC50 00 00 00 00 00 00 00 00 00 00 00 00 00 00 00 00 ................
0040FC60 00 00 00 00 00 00 00 00 00 00 00 00 00 00 00 00 ................
0040FC70 00 00 00 00 00 00 00 00 00 00 00 00 00 00 00 00 ................
0040FC80 00 00 00 00 00 00 00 00 00 00 00 00 00 00 00 00 ................
0040FC90 00 00 00 00 00 00 00 00 00 00 00 00 00 00 00 00 ................
0040FCA0 00 00 00 00 00 00 00 00 00 00 00 00 00 00 00 00 ................
0040FCB0 00 00 00 00 00 00 00 00 00 00 00 00 00 00 00 00 ................
0040FCC0 00 00 00 00 00 00 00 00 00 00 00 00 00 00 00 00 ................
0040FCD0 00 00 00 00 00 00 00 00 00 00 00 00 00 00 00 00 ................
0040FCE0 00 00 00 00 00 00 00 00 00 00 00 00 00 00 00 00 ................
0040FCF0 00 00 00 00 00 00 00 00 00 00 00 00 00 00 00 00 ................
0040FD00 00 00 00 00 00 00 00 00 00 00 00 00 00 00 00 00 ................
0040FD10 00 00 00 00 00 00 00 00 00 00 00 00 00 00 00 00 ................
0040FD20 00 00 00 00 00 00 00 00 00 00 00 00 00 00 00 00 ................
0040FD30 00 00 00 00 00 00 00 00 00 00 00 00 00 00 00 00 ................
0040FD40 00 00 00 00 00 00 00 00 00 00 00 00 00 00 00 00 ................
0040FD50 00 00 00 00 00 00 00 00 00 00 00 00 00 00 00 00 ................
0040FD60 00 00 00 00 00 00 00 00 00 00 00 00 00 00 00 00 ................
0040FD70 00 00 00 00 00 00 00 00 00 00 00 00 00 00 00 00 ................
0040FD80 00 00 00 00 00 00 00 00 00 00 00 00 00 00 00 00 ................
0040FD90 00 00 00 00 00 00 00 00 00 00 00 00 00 00 00 00 ................
0040FDA0 00 00 00 00 00 00 00 00 00 00 00 00 00 00 00 00 ................
0040FDB0 00 00 00 00 00 00 00 00 00 00 00 00 00 00 00 00 ................
0040FDC0 00 00 00 00 00 00 00 00 00 00 00 00 00 00 00 00 ................
0040FDD0 00 00 00 00 00 00 00 00 00 00 00 00 00 00 00 00 ................
0040FDE0 00 00 00 00 00 00 00 00 00 00 00 00 00 00 00 00 ................
0040FDF0 00 00 00 00 00 00 00 00 00 00 00 00 00 00 00 00 ................
0040FE00 00 00 00 00 00 00 00 00 00 00 00 00 00 00 00 00 ................
0040FE10 00 00 00 00 00 00 00 00 00 00 00 00 00 00 00 00 ................
0040FE20 00 00 00 00 00 00 00 00 00 00 00 00 00 00 00 00 ................
0040FE30 00 00 00 00 00 00 00 00 00 00 00 00 00 00 00 00 ................
0040FE40 00 00 00 00 00 00 00 00 00 00 00 00 00 00 00 00 ................
0040FE50 00 00 00 00 00 00 00 00 00 00 00 00 00 00 00 00 ................
0040FE60 00 00 00 00 00 00 00 00 00 00 00 00 00 00 00 00 ................
0040FE70 00 00 00 00 00 00 00 00 00 00 00 00 00 00 00 00 ................
0040FE80 00 00 00 00 00 00 00 00 00 00 00 00 00 00 00 00 ................
0040FE90 00 00 00 00 00 00 00 00 00 00 00 00 00 00 00 00 ................
0040FEA0 00 00 00 00 00 00 00 00 00 00 00 00 00 00 00 00 ................
0040FEB0 00 00 00 00 00 00 00 00 00 00 00 00 00 00 00 00 ................
0040FEC0 00 00 00 00 00 00 00 00 00 00 00 00 00 00 00 00 ................
0040FED0 00 00 00 00 00 00 00 00 00 00 00 00 00 00 00 00 ................
0040FEE0 00 00 00 00 00 00 00 00 00 00 00 00 00 00 00 00 ................
0040FEF0 00 00 00 00 00 00 00 00 00 00 00 00 00 00 00 00 ................
0040FF00 00 00 00 00 00 00 00 00 00 00 00 00 00 00 00 00 ................
0040FF10 00 00 00 00 00 00 00 00 00 00 00 00 00 00 00 00 ................
0040FF20 00 00 00 00 00 00 00 00 00 00 00 00 00 00 00 00 ................
0040FF30 00 00 00 00 00 00 00 00 00 00 00 00 00 00 00 00 ................
0040FF40 00 00 00 00 00 00 00 00 00 00 00 00 00 00 00 00 ................
0040FF50 00 00 00 00 00 00 00 00 00 00 00 00 00 00 00 00 ................
0040FF60 00 00 00 00 00 00 00 00 00 00 00 00 00 00 00 00 ................
0040FF70 00 00 00 00 00 00 00 00 00 00 00 00 00 00 00 00 ................
0040FF80 00 00 00 00 00 00 00 00 00 00 00 00 00 00 00 00 ................
0040FF90 00 00 00 00 00 00 00 00 00 00 00 00 00 00 00 00 ................
0040FFA0 00 00 00 00 00 00 00 00 00 00 00 00 00 00 00 00 ................
0040FFB0 00 00 00 00 00 00 00 00 00 00 00 00 00 00 00 00 ................
0040FFC0 00 00 00 00 00 00 00 00 00 00 00 00 00 00 00 00 ................
0040FFD0 00 00 00 00 00 00 00 00 00 00 00 00 00 00 00 00 ................
0040FFE0 00 00 00 00 00 00 00 00 00 00 00 00 00 00 00 00 ................
0040FFF0 00 00 00 00 00 00 00 00 00 00 00 00 00 00 00 00 ................
00410000 00 00 00 00 00 00 00 00 00 00 00 00 00 00 03 00 ................
00410010 03 00 00 00 28 00 00 80 0E 00 00 00 40 00 00 80 ....(.......@...
00410020 10 00 00 00 58 00 00 80 00 00 00 00 00 00 00 00 ....X...........
00410030 00 00 00 00 00 00 01 00 01 00 00 00 70 00 00 80 ............p...
00410040 00 00 00 00 00 00 00 00 00 00 00 00 00 00 01 00 ................
00410050 C8 3A 00 00 88 00 00 80 00 00 00 00 00 00 00 00 .:..............
00410060 00 00 00 00 00 00 01 00 6A 0A 00 00 A0 00 00 80 ........j.......
00410070 00 00 00 00 00 00 00 00 00 00 00 00 00 00 01 00 ................
00410080 19 04 00 00 B8 00 00 00 00 00 00 00 00 00 00 00 ................
00410090 00 00 00 00 00 00 01 00 19 04 00 00 C8 00 00 00 ................
004100A0 00 00 00 00 00 00 00 00 00 00 00 00 00 00 01 00 ................
004100B0 19 04 00 00 D8 00 00 00 E8 00 01 00 A8 08 00 00 ................
004100C0 00 00 00 00 00 00 00 00 90 09 01 00 14 00 00 00 ................
004100D0 00 00 00 00 00 00 00 00 A4 09 01 00 F4 02 00 00 ................
004100E0 00 00 00 00 00 00 00 00 28 00 00 00 20 00 00 00 ........(... ...
004100F0 40 00 00 00 01 00 08 00 00 00 00 00 00 04 00 00 @...............
00410100 00 00 00 00 00 00 00 00 00 00 00 00 00 00 00 00 ................
00410110 00 00 00 00 00 00 80 00 00 80 00 00 00 80 80 00 ................
00410120 80 00 00 00 80 00 80 00 80 80 00 00 C0 C0 C0 00 ................
00410130 C0 DC C0 00 F0 CA A6 00 00 20 40 00 00 20 60 00 ......... @.. `.
00410140 00 20 80 00 00 20 A0 00 00 20 C0 00 00 20 E0 00 . ... ... ... ..
00410150 00 40 00 00 00 40 20 00 00 40 40 00 00 40 60 00 .@...@ ..@@..@`.
00410160 00 40 80 00 00 40 A0 00 00 40 C0 00 00 40 E0 00 .@...@...@...@..
00410170 00 60 00 00 00 60 20 00 00 60 40 00 00 60 60 00 .`...` ..`@..``.
00410180 00 60 80 00 00 60 A0 00 00 60 C0 00 00 60 E0 00 .`...`...`...`..
00410190 00 80 00 00 00 80 20 00 00 80 40 00 00 80 60 00 ...... ...@...`.
004101A0 00 80 80 00 00 80 A0 00 00 80 C0 00 00 80 E0 00 ................
004101B0 00 A0 00 00 00 A0 20 00 00 A0 40 00 00 A0 60 00 ...... ...@...`.
004101C0 00 A0 80 00 00 A0 A0 00 00 A0 C0 00 00 A0 E0 00 ................
004101D0 00 C0 00 00 00 C0 20 00 00 C0 40 00 00 C0 60 00 ...... ...@...`.
004101E0 00 C0 80 00 00 C0 A0 00 00 C0 C0 00 00 C0 E0 00 ................
004101F0 00 E0 00 00 00 E0 20 00 00 E0 40 00 00 E0 60 00 ...... ...@...`.
00410200 00 E0 80 00 00 E0 A0 00 00 E0 C0 00 00 E0 E0 00 ................
00410210 40 00 00 00 40 00 20 00 40 00 40 00 40 00 60 00 @...@. .@.@.@.`.
00410220 40 00 80 00 40 00 A0 00 40 00 C0 00 40 00 E0 00 @...@...@...@...
00410230 40 20 00 00 40 20 20 00 40 20 40 00 40 20 60 00 @ ..@  .@ @.@ `.
00410240 40 20 80 00 40 20 A0 00 40 20 C0 00 40 20 E0 00 @ ..@ ..@ ..@ ..
00410250 40 40 00 00 40 40 20 00 40 40 40 00 40 40 60 00 @@..@@ .@@@.@@`.
00410260 40 40 80 00 40 40 A0 00 40 40 C0 00 40 40 E0 00 @@..@@..@@..@@..
00410270 40 60 00 00 40 60 20 00 40 60 40 00 40 60 60 00 @`..@` .@`@.@``.
00410280 40 60 80 00 40 60 A0 00 40 60 C0 00 40 60 E0 00 @`..@`..@`..@`..
00410290 40 80 00 00 40 80 20 00 40 80 40 00 40 80 60 00 @...@. .@.@.@.`.
004102A0 40 80 80 00 40 80 A0 00 40 80 C0 00 40 80 E0 00 @...@...@...@...
004102B0 40 A0 00 00 40 A0 20 00 40 A0 40 00 40 A0 60 00 @...@. .@.@.@.`.
004102C0 40 A0 80 00 40 A0 A0 00 40 A0 C0 00 40 A0 E0 00 @...@...@...@...
004102D0 40 C0 00 00 40 C0 20 00 40 C0 40 00 40 C0 60 00 @...@. .@.@.@.`.
004102E0 40 C0 80 00 40 C0 A0 00 40 C0 C0 00 40 C0 E0 00 @...@...@...@...
004102F0 40 E0 00 00 40 E0 20 00 40 E0 40 00 40 E0 60 00 @...@. .@.@.@.`.
00410300 40 E0 80 00 40 E0 A0 00 40 E0 C0 00 40 E0 E0 00 @...@...@...@...
00410310 80 00 00 00 80 00 20 00 80 00 40 00 80 00 60 00 ...... ...@...`.
00410320 80 00 80 00 80 00 A0 00 80 00 C0 00 80 00 E0 00 ................
00410330 80 20 00 00 80 20 20 00 80 20 40 00 80 20 60 00 . ...  .. @.. `.
00410340 80 20 80 00 80 20 A0 00 80 20 C0 00 80 20 E0 00 . ... ... ... ..
00410350 80 40 00 00 80 40 20 00 80 40 40 00 80 40 60 00 .@...@ ..@@..@`.
00410360 80 40 80 00 80 40 A0 00 80 40 C0 00 80 40 E0 00 .@...@...@...@..
00410370 80 60 00 00 80 60 20 00 80 60 40 00 80 60 60 00 .`...` ..`@..``.
00410380 80 60 80 00 80 60 A0 00 80 60 C0 00 80 60 E0 00 .`...`...`...`..
00410390 80 80 00 00 80 80 20 00 80 80 40 00 80 80 60 00 ...... ...@...`.
004103A0 80 80 80 00 80 80 A0 00 80 80 C0 00 80 80 E0 00 ................
004103B0 80 A0 00 00 80 A0 20 00 80 A0 40 00 80 A0 60 00 ...... ...@...`.
004103C0 80 A0 80 00 80 A0 A0 00 80 A0 C0 00 80 A0 E0 00 ................
004103D0 80 C0 00 00 80 C0 20 00 80 C0 40 00 80 C0 60 00 ...... ...@...`.
004103E0 80 C0 80 00 80 C0 A0 00 80 C0 C0 00 80 C0 E0 00 ................
004103F0 80 E0 00 00 80 E0 20 00 80 E0 40 00 80 E0 60 00 ...... ...@...`.
00410400 80 E0 80 00 80 E0 A0 00 80 E0 C0 00 80 E0 E0 00 ................
00410410 C0 00 00 00 C0 00 20 00 C0 00 40 00 C0 00 60 00 ...... ...@...`.
00410420 C0 00 80 00 C0 00 A0 00 C0 00 C0 00 C0 00 E0 00 ................
00410430 C0 20 00 00 C0 20 20 00 C0 20 40 00 C0 20 60 00 . ...  .. @.. `.
00410440 C0 20 80 00 C0 20 A0 00 C0 20 C0 00 C0 20 E0 00 . ... ... ... ..
00410450 C0 40 00 00 C0 40 20 00 C0 40 40 00 C0 40 60 00 .@...@ ..@@..@`.
00410460 C0 40 80 00 C0 40 A0 00 C0 40 C0 00 C0 40 E0 00 .@...@...@...@..
00410470 C0 60 00 00 C0 60 20 00 C0 60 40 00 C0 60 60 00 .`...` ..`@..``.
00410480 C0 60 80 00 C0 60 A0 00 C0 60 C0 00 C0 60 E0 00 .`...`...`...`..
00410490 C0 80 00 00 C0 80 20 00 C0 80 40 00 C0 80 60 00 ...... ...@...`.
004104A0 C0 80 80 00 C0 80 A0 00 C0 80 C0 00 C0 80 E0 00 ................
004104B0 C0 A0 00 00 C0 A0 20 00 C0 A0 40 00 C0 A0 60 00 ...... ...@...`.
004104C0 C0 A0 80 00 C0 A0 A0 00 C0 A0 C0 00 C0 A0 E0 00 ................
004104D0 C0 C0 00 00 C0 C0 20 00 C0 C0 40 00 C0 C0 60 00 ...... ...@...`.
004104E0 C0 C0 80 00 C0 C0 A0 00 F0 FB FF 00 A4 A0 A0 00 ................
004104F0 80 80 80 00 00 00 FF 00 00 FF 00 00 00 FF FF 00 ................
00410500 FF 00 00 00 FF 00 FF 00 FF FF 00 00 FF FF FF 00 ................
00410510 00 00 00 00 00 00 00 00 00 00 00 00 00 00 00 00 ................
00410520 00 00 00 00 00 00 00 00 00 00 00 00 00 00 00 00 ................
00410530 00 00 00 00 00 00 ED A3 9A 9A 92 92 92 92 92 92 ................
00410540 92 92 92 92 92 92 92 92 92 92 92 92 92 92 92 00 ................
00410550 00 00 00 00 00 00 ED F6 07 09 09 09 09 09 09 09 ................
00410560 09 09 EC 09 09 EC EC EC EC EB EB EB EB EB 92 00 ................
00410570 00 00 00 00 00 00 ED F6 F6 F6 F6 F6 F6 F6 F6 F6 ................
00410580 F6 F6 F6 F6 F6 F6 F6 F6 09 09 09 09 09 EB 92 00 ................
00410590 00 00 00 00 00 00 ED F6 F6 F6 F6 F6 F6 F6 F6 F6 ................
004105A0 F6 F6 F6 F6 F6 F6 F6 F6 F6 F6 09 09 09 EB 92 00 ................
004105B0 00 00 00 00 00 00 ED F6 F6 F5 F5 ED ED EC EC EC ................
004105C0 E3 E3 E3 E3 E3 E3 E3 E3 E3 E3 F6 F6 09 EB 92 00 ................
004105D0 00 00 00 00 00 00 ED FF FF F5 FF FF FF F6 EC F6 ................
004105E0 F6 EC FF E3 F6 F6 EC FF E3 F6 F6 F6 F6 EB 92 00 ................
004105F0 00 00 00 00 00 00 ED FF FF F5 FF FF FF FF ED FF ................
00410600 FF EC FF E3 F6 F6 EC FF E3 F6 F6 F6 F6 EC 92 00 ................
00410610 00 00 00 00 00 00 ED FF FF F5 F5 F5 F5 F5 F5 ED ................
00410620 FF EC FF E3 F6 F6 EC FF E3 F6 F6 F6 F6 EC 92 00 ................
00410630 00 00 00 00 00 00 ED FF FF 09 FF FF FF FF F5 FF ................
00410640 FF ED FF E3 EC EC EC FF E3 F6 F6 F6 F6 EC 92 00 ................
00410650 00 00 00 00 00 00 ED FF FF 09 FF FF FF FF F5 FF ................
00410660 FF F5 FF E3 FF FF EC FF E3 F6 F6 F6 F6 EC 92 00 ................
00410670 00 00 00 00 00 00 ED FF FF 09 09 09 09 09 F5 F5 ................
00410680 FF F5 F5 E3 FF FF EC FF E3 F6 F6 F6 F6 EC 92 00 ................
00410690 00 00 00 00 00 00 ED FF FF 09 FF FF FF FF 09 FF ................
004106A0 FF FF FF FF FF FF ED ED E3 F6 F6 F6 F6 09 92 00 ................
004106B0 00 00 00 00 00 00 ED 08 08 ED 07 07 07 ED ED 08 ................
004106C0 FF FF FF F5 FF FF FF FF FF FF F6 F6 F6 09 92 00 ................
004106D0 00 00 00 00 00 00 F7 F7 F5 07 07 08 08 F6 08 ED ................
004106E0 EC 09 F5 F5 F5 F5 F5 F5 ED FF FF F6 F6 EC 92 00 ................
004106F0 00 19 18 AC 08 08 FF FF FF F6 F6 F6 F6 F6 08 07 ................
00410700 F6 FF FF 09 FF FF FF FF F5 FF FF FF F6 09 92 00 ................
00410710 00 19 B5 08 FF FF FF FF F6 F6 B5 1A 1A F6 F6 07 ................
00410720 F6 FF FF 09 FF FF FF FF F5 FF FF FF FF 09 92 00 ................
00410730 00 19 07 AC FF 08 B4 B4 B4 AB 22 1A 6B F6 F6 ED ..........".k...
00410740 F5 09 09 09 09 09 09 F5 F5 FF FF FF FF 09 92 00 ................
00410750 00 19 08 62 FF FF 08 B4 B4 62 1A 6C AB B5 F6 07 ...b.....b.l....
00410760 08 FF FF 09 FF FF FF FF F5 FF FF FF FF 09 92 00 ................
00410770 00 19 08 19 F6 FF FF 08 6B 1A 22 08 FF F6 F6 07 ........k.".....
00410780 08 FF FF 09 FF FF FF FF 09 FF FF FF FF 09 92 00 ................
00410790 00 21 08 19 07 FF FF 08 22 22 6B B4 F5 F6 F6 07 .!......""k.....
004107A0 F5 09 09 09 09 09 09 09 09 FF FF FF FF 09 92 00 ................
004107B0 00 21 08 19 AC FF F6 22 1A B5 F6 B4 B4 B4 F6 08 .!....."........
004107C0 08 FF FF 09 FF FF FF FF 09 FF FF FF FF 09 92 00 ................
004107D0 00 21 08 AC B4 FF 63 62 6C FF FF FF FF FF FF 08 .!....cbl.......
004107E0 08 FF FF 09 FF FF FF FF 07 09 09 09 09 09 92 00 ................
004107F0 00 61 08 B4 B4 FF FF FF FF FF FF FF FF FF FF F6 .a..............
00410800 07 09 09 09 09 09 09 ED A3 A3 9B 9A 9A 9A 92 00 ................
00410810 00 61 08 B5 B4 08 08 08 08 08 08 F5 B5 08 6B FF .a............k.
00410820 FF FF FF FF FF FF FF ED 09 09 09 09 09 92 F6 00 ................
00410830 00 61 B5 F6 B5 B5 B5 B5 B5 B5 B5 B5 B5 F6 61 FF .a............a.
00410840 FF FF FF FF FF FF FF ED F6 F6 09 09 92 F6 F6 00 ................
00410850 00 61 61 08 F6 08 BD BD BD BD BD BD B5 F6 61 F6 .aa...........a.
00410860 09 09 09 FF FF FF FF F5 F6 F6 09 92 F6 F6 00 00 ................
00410870 00 00 61 61 B5 08 F6 F6 F6 F6 F6 F6 F6 F6 61 FF ..aa..........a.
00410880 FF FF FF FF FF FF FF F5 F6 F6 9A F6 F6 00 00 00 ................
00410890 00 00 00 61 61 61 61 61 61 61 61 61 61 61 61 FF ...aaaaaaaaaaaa.
004108A0 FF FF FF FF FF FF FF F5 F6 9B F6 F6 00 00 00 00 ................
004108B0 00 00 00 00 00 00 07 FF FF FF FF FF FF FF FF FF ................
004108C0 FF FF FF FF FF FF FF F5 A4 F6 F6 00 00 00 00 00 ................
004108D0 00 00 00 00 00 00 07 07 07 07 07 F5 F5 F5 F5 F5 ................
004108E0 F5 F5 F5 F5 F5 F5 F5 F5 F6 F6 00 00 00 00 00 00 ................
004108F0 00 00 00 00 00 00 00 00 00 00 00 00 00 00 00 00 ................
00410900 00 00 00 00 00 00 00 00 00 00 00 00 00 00 00 00 ................
00410910 FF FF FF FF FC 00 00 01 FC 00 00 01 FC 00 00 01 ................
00410920 FC 00 00 01 FC 00 00 01 FC 00 00 01 FC 00 00 01 ................
00410930 FC 00 00 01 FC 00 00 01 FC 00 00 01 FC 00 00 01 ................
00410940 FC 00 00 01 C0 00 00 01 C0 00 00 01 80 00 00 01 ................
00410950 80 00 00 01 80 00 00 01 80 00 00 01 80 00 00 01 ................
00410960 80 00 00 01 80 00 00 01 80 00 00 01 80 00 00 01 ................
00410970 80 00 00 01 80 00 00 01 80 00 00 03 C0 00 00 07 ................
00410980 E0 00 00 0F FC 00 00 1F FC 00 00 3F FF FF FF FF ...........?....
00410990 00 00 01 00 01 00 20 20 08 00 00 00 00 00 A8 08 ......  ........
004109A0 00 00 01 00 F4 02 34 00 00 00 56 00 53 00 5F 00 ......4...V.S._.
004109B0 56 00 45 00 52 00 53 00 49 00 4F 00 4E 00 5F 00 V.E.R.S.I.O.N._.
004109C0 49 00 4E 00 46 00 4F 00 00 00 00 00 BD 04 EF FE I.N.F.O.........
004109D0 00 00 01 00 79 EE 38 B0 79 EE 38 B0 79 EE 38 B0 ....y.8.y.8.y.8.
004109E0 79 EE 38 B0 79 EE 00 00 00 00 00 00 04 00 04 00 y.8.y...........
004109F0 01 00 00 00 00 00 00 00 00 00 00 00 00 00 00 00 ................
00410A00 54 02 00 00 00 00 53 00 74 00 72 00 69 00 6E 00 T.....S.t.r.i.n.
00410A10 67 00 46 00 69 00 6C 00 65 00 49 00 6E 00 66 00 g.F.i.l.e.I.n.f.
00410A20 6F 00 00 00 30 02 00 00 00 00 30 00 38 00 30 00 o...0.....0.8.0.
00410A30 30 00 30 00 34 00 42 00 30 00 00 00 38 00 0C 00 0.0.4.B.0...8...
00410A40 01 00 43 00 6F 00 6D 00 70 00 61 00 6E 00 79 00 ..C.o.m.p.a.n.y.
00410A50 4E 00 61 00 6D 00 65 00 00 00 00 00 62 00 63 00 N.a.m.e.....b.c.
00410A60 34 00 47 00 6B 00 31 00 42 00 6A 00 77 00 79 00 4.G.k.1.B.j.w.y.
00410A70 48 00 00 00 48 00 10 00 01 00 46 00 69 00 6C 00 H...H.....F.i.l.
00410A80 65 00 44 00 65 00 73 00 63 00 72 00 69 00 70 00 e.D.e.s.c.r.i.p.
00410A90 74 00 69 00 6F 00 6E 00 00 00 00 00 41 00 73 00 t.i.o.n.....A.s.
00410AA0 6B 00 70 00 4C 00 41 00 53 00 70 00 74 00 33 00 k.p.L.A.S.p.t.3.
00410AB0 69 00 48 00 34 00 76 00 51 00 00 00 48 00 14 00 i.H.4.v.Q...H...
00410AC0 01 00 46 00 69 00 6C 00 65 00 56 00 65 00 72 00 ..F.i.l.e.V.e.r.
00410AD0 73 00 69 00 6F 00 6E 00 00 00 00 00 79 00 71 00 s.i.o.n.....y.q.
00410AE0 4C 00 70 00 73 00 74 00 6C 00 6D 00 6C 00 53 00 L.p.s.t.l.m.l.S.
00410AF0 52 00 6F 00 4F 00 69 00 6A 00 67 00 58 00 79 00 R.o.O.i.j.g.X.y.
00410B00 78 00 00 00 48 00 13 00 01 00 49 00 6E 00 74 00 x...H.....I.n.t.
00410B10 65 00 72 00 6E 00 61 00 6C 00 4E 00 61 00 6D 00 e.r.n.a.l.N.a.m.
00410B20 65 00 00 00 65 00 71 00 58 00 54 00 74 00 62 00 e...e.q.X.T.t.b.
00410B30 74 00 4F 00 77 00 6F 00 76 00 78 00 4D 00 63 00 t.O.w.o.v.x.M.c.
00410B40 4A 00 67 00 58 00 52 00 00 00 00 00 4C 00 13 00 J.g.X.R.....L...
00410B50 01 00 4C 00 65 00 67 00 61 00 6C 00 43 00 6F 00 ..L.e.g.a.l.C.o.
00410B60 70 00 79 00 72 00 69 00 67 00 68 00 74 00 00 00 p.y.r.i.g.h.t...
00410B70 6E 00 56 00 55 00 37 00 4E 00 38 00 61 00 77 00 n.V.U.7.N.8.a.w.
00410B80 45 00 44 00 4F 00 46 00 64 00 41 00 4C 00 4C 00 E.D.O.F.d.A.L.L.
00410B90 55 00 6A 00 00 00 00 00 40 00 0C 00 01 00 4F 00 U.j.....@.....O.
00410BA0 72 00 69 00 67 00 69 00 6E 00 61 00 6C 00 46 00 r.i.g.i.n.a.l.F.
00410BB0 69 00 6C 00 65 00 6E 00 61 00 6D 00 65 00 00 00 i.l.e.n.a.m.e...
00410BC0 4F 00 6F 00 56 00 79 00 6C 00 37 00 63 00 74 00 O.o.V.y.l.7.c.t.
00410BD0 52 00 71 00 6F 00 00 00 3C 00 0E 00 01 00 50 00 R.q.o...<.....P.
00410BE0 72 00 6F 00 64 00 75 00 63 00 74 00 4E 00 61 00 r.o.d.u.c.t.N.a.
00410BF0 6D 00 65 00 00 00 00 00 72 00 57 00 73 00 35 00 m.e.....r.W.s.5.
00410C00 4F 00 31 00 37 00 78 00 48 00 63 00 61 00 55 00 O.1.7.x.H.c.a.U.
00410C10 50 00 00 00 40 00 0E 00 01 00 50 00 72 00 6F 00 P...@.....P.r.o.
00410C20 64 00 75 00 63 00 74 00 56 00 65 00 72 00 73 00 d.u.c.t.V.e.r.s.
00410C30 69 00 6F 00 6E 00 00 00 49 00 42 00 37 00 75 00 i.o.n...I.B.7.u.
00410C40 73 00 4F 00 34 00 38 00 33 00 46 00 70 00 4F 00 s.O.4.8.3.F.p.O.
00410C50 78 00 00 00 44 00 00 00 00 00 56 00 61 00 72 00 x...D.....V.a.r.
00410C60 46 00 69 00 6C 00 65 00 49 00 6E 00 66 00 6F 00 F.i.l.e.I.n.f.o.
00410C70 00 00 00 00 24 00 04 00 00 00 54 00 72 00 61 00 ....$.....T.r.a.
00410C80 6E 00 73 00 6C 00 61 00 74 00 69 00 6F 00 6E 00 n.s.l.a.t.i.o.n.
00410C90 00 00 00 00 00 08 B0 04 00 00 00 00 00 00 00 00 ................
00410CA0 00 00 00 00 00 00 00 00 00 00 00 00 00 00 00 00 ................
00410CB0 00 00 00 00 00 00 00 00 00 00 00 00 00 00 00 00 ................
00410CC0 00 00 00 00 00 00 00 00 00 00 00 00 00 00 00 00 ................
00410CD0 00 00 00 00 00 00 00 00 00 00 00 00 00 00 00 00 ................
00410CE0 00 00 00 00 00 00 00 00 00 00 00 00 00 00 00 00 ................
00410CF0 00 00 00 00 00 00 00 00 00 00 00 00 00 00 00 00 ................
00410D00 00 00 00 00 00 00 00 00 00 00 00 00 00 00 00 00 ................
00410D10 00 00 00 00 00 00 00 00 00 00 00 00 00 00 00 00 ................
00410D20 00 00 00 00 00 00 00 00 00 00 00 00 00 00 00 00 ................
00410D30 00 00 00 00 00 00 00 00 00 00 00 00 00 00 00 00 ................
00410D40 00 00 00 00 00 00 00 00 00 00 00 00 00 00 00 00 ................
00410D50 00 00 00 00 00 00 00 00 00 00 00 00 00 00 00 00 ................
00410D60 00 00 00 00 00 00 00 00 00 00 00 00 00 00 00 00 ................
00410D70 00 00 00 00 00 00 00 00 00 00 00 00 00 00 00 00 ................
00410D80 00 00 00 00 00 00 00 00 00 00 00 00 00 00 00 00 ................
00410D90 00 00 00 00 00 00 00 00 00 00 00 00 00 00 00 00 ................
00410DA0 00 00 00 00 00 00 00 00 00 00 00 00 00 00 00 00 ................
00410DB0 00 00 00 00 00 00 00 00 00 00 00 00 00 00 00 00 ................
00410DC0 00 00 00 00 00 00 00 00 00 00 00 00 00 00 00 00 ................
00410DD0 00 00 00 00 00 00 00 00 00 00 00 00 00 00 00 00 ................
00410DE0 00 00 00 00 00 00 00 00 00 00 00 00 00 00 00 00 ................
00410DF0 00 00 00 00 00 00 00 00 00 00 00 00 00 00 00 00 ................
00410E00 00 00 00 00 00 00 00 00 00 00 00 00 00 00 00 00 ................
00410E10 00 00 00 00 00 00 00 00 00 00 00 00 00 00 00 00 ................
00410E20 00 00 00 00 00 00 00 00 00 00 00 00 00 00 00 00 ................
00410E30 00 00 00 00 00 00 00 00 00 00 00 00 00 00 00 00 ................
00410E40 00 00 00 00 00 00 00 00 00 00 00 00 00 00 00 00 ................
00410E50 00 00 00 00 00 00 00 00 00 00 00 00 00 00 00 00 ................
00410E60 00 00 00 00 00 00 00 00 00 00 00 00 00 00 00 00 ................
00410E70 00 00 00 00 00 00 00 00 00 00 00 00 00 00 00 00 ................
00410E80 00 00 00 00 00 00 00 00 00 00 00 00 00 00 00 00 ................
00410E90 00 00 00 00 00 00 00 00 00 00 00 00 00 00 00 00 ................
00410EA0 00 00 00 00 00 00 00 00 00 00 00 00 00 00 00 00 ................
00410EB0 00 00 00 00 00 00 00 00 00 00 00 00 00 00 00 00 ................
00410EC0 00 00 00 00 00 00 00 00 00 00 00 00 00 00 00 00 ................
00410ED0 00 00 00 00 00 00 00 00 00 00 00 00 00 00 00 00 ................
00410EE0 00 00 00 00 00 00 00 00 00 00 00 00 00 00 00 00 ................
00410EF0 00 00 00 00 00 00 00 00 00 00 00 00 00 00 00 00 ................
00410F00 00 00 00 00 00 00 00 00 00 00 00 00 00 00 00 00 ................
00410F10 00 00 00 00 00 00 00 00 00 00 00 00 00 00 00 00 ................
00410F20 00 00 00 00 00 00 00 00 00 00 00 00 00 00 00 00 ................
00410F30 00 00 00 00 00 00 00 00 00 00 00 00 00 00 00 00 ................
00410F40 00 00 00 00 00 00 00 00 00 00 00 00 00 00 00 00 ................
00410F50 00 00 00 00 00 00 00 00 00 00 00 00 00 00 00 00 ................
00410F60 00 00 00 00 00 00 00 00 00 00 00 00 00 00 00 00 ................
00410F70 00 00 00 00 00 00 00 00 00 00 00 00 00 00 00 00 ................
00410F80 00 00 00 00 00 00 00 00 00 00 00 00 00 00 00 00 ................
00410F90 00 00 00 00 00 00 00 00 00 00 00 00 00 00 00 00 ................
00410FA0 00 00 00 00 00 00 00 00 00 00 00 00 00 00 00 00 ................
00410FB0 00 00 00 00 00 00 00 00 00 00 00 00 00 00 00 00 ................
00410FC0 00 00 00 00 00 00 00 00 00 00 00 00 00 00 00 00 ................
00410FD0 00 00 00 00 00 00 00 00 00 00 00 00 00 00 00 00 ................
00410FE0 00 00 00 00 00 00 00 00 00 00 00 00 00 00 00 00 ................
00410FF0 00 00 00 00 00 00 00 00 00 00 00 00 00 00 00 00 ................
