00400000 00 00 00 00 00 00 00 00 00 00 00 00 00 00 00 00 ................
00400010 00 00 00 00 00 00 00 00 00 00 00 00 00 00 00 00 ................
00400020 00 00 00 00 00 00 00 00 00 00 00 00 00 00 00 00 ................
00400030 00 00 00 00 00 00 00 00 00 00 00 00 00 00 00 00 ................
00400040 00 00 00 00 00 00 00 00 00 00 00 00 00 00 00 00 ................
00400050 00 00 00 00 00 00 00 00 00 00 00 00 00 00 00 00 ................
00400060 00 00 00 00 00 00 00 00 00 00 00 00 00 00 00 00 ................
00400070 00 00 00 00 00 00 00 00 00 00 00 00 00 00 00 00 ................
00400080 00 00 00 00 00 00 00 00 00 00 00 00 00 00 00 00 ................
00400090 00 00 00 00 00 00 00 00 00 00 00 00 00 00 00 00 ................
004000A0 00 00 00 00 00 00 00 00 00 00 00 00 00 00 00 00 ................
004000B0 00 00 00 00 00 00 00 00 00 00 00 00 00 00 00 00 ................
004000C0 00 00 00 00 00 00 00 00 00 00 00 00 00 00 00 00 ................
004000D0 00 00 00 00 00 00 00 00 00 00 00 00 00 00 00 00 ................
004000E0 00 00 00 00 00 00 00 00 00 00 00 00 00 00 00 00 ................
004000F0 00 00 00 00 00 00 00 00 00 00 00 00 00 00 00 00 ................
00400100 00 00 00 00 00 00 00 00 00 00 00 00 00 00 00 00 ................
00400110 00 00 00 00 00 00 00 00 00 00 00 00 00 00 00 00 ................
00400120 00 00 00 00 00 00 00 00 00 00 00 00 00 00 00 00 ................
00400130 00 00 00 00 00 00 00 00 00 00 00 00 00 00 00 00 ................
00400140 00 00 00 00 00 00 00 00 00 00 00 00 00 00 00 00 ................
00400150 00 00 00 00 00 00 00 00 00 00 00 00 00 00 00 00 ................
00400160 00 00 00 00 00 00 00 00 00 00 00 00 00 00 00 00 ................
00400170 00 00 00 00 00 00 00 00 00 00 00 00 00 00 00 00 ................
00400180 00 00 00 00 00 00 00 00 00 00 00 00 00 00 00 00 ................
00400190 00 00 00 00 00 00 00 00 00 00 00 00 00 00 00 00 ................
004001A0 00 00 00 00 00 00 00 00 00 00 00 00 00 00 00 00 ................
004001B0 00 00 00 00 00 00 00 00 00 00 00 00 00 00 00 00 ................
004001C0 00 00 00 00 00 00 00 00 00 00 00 00 00 00 00 00 ................
004001D0 00 00 00 00 00 00 00 00 00 00 00 00 00 00 00 00 ................
004001E0 00 00 00 00 00 00 00 00 00 00 00 00 00 00 00 00 ................
004001F0 00 00 00 00 00 00 00 00 00 00 00 00 00 00 00 00 ................
00400200 00 00 00 00 00 00 00 00 00 00 00 00 00 00 00 00 ................
00400210 00 00 00 00 00 00 00 00 00 00 00 00 00 00 00 00 ................
00400220 00 00 00 00 00 00 00 00 00 00 00 00 00 00 00 00 ................
00400230 00 00 00 00 00 00 00 00 00 00 00 00 00 00 00 00 ................
00400240 00 00 00 00 00 00 00 00 00 00 00 00 00 00 00 00 ................
00400250 00 00 00 00 00 00 00 00 00 00 00 00 00 00 00 00 ................
00400260 00 00 00 00 00 00 00 00 00 00 00 00 00 00 00 00 ................
00400270 00 00 00 00 00 00 00 00 00 00 00 00 00 00 00 00 ................
00400280 00 00 00 00 00 00 00 00 00 00 00 00 00 00 00 00 ................
00400290 00 00 00 00 00 00 00 00 00 00 00 00 00 00 00 00 ................
004002A0 00 00 00 00 00 00 00 00 00 00 00 00 00 00 00 00 ................
004002B0 00 00 00 00 00 00 00 00 00 00 00 00 00 00 00 00 ................
004002C0 00 00 00 00 00 00 00 00 00 00 00 00 00 00 00 00 ................
004002D0 00 00 00 00 00 00 00 00 00 00 00 00 00 00 00 00 ................
004002E0 00 00 00 00 00 00 00 00 00 00 00 00 00 00 00 00 ................
004002F0 00 00 00 00 00 00 00 00 00 00 00 00 00 00 00 00 ................
00400300 00 00 00 00 00 00 00 00 00 00 00 00 00 00 00 00 ................
00400310 00 00 00 00 00 00 00 00 00 00 00 00 00 00 00 00 ................
00400320 00 00 00 00 00 00 00 00 00 00 00 00 00 00 00 00 ................
00400330 00 00 00 00 00 00 00 00 00 00 00 00 00 00 00 00 ................
00400340 00 00 00 00 00 00 00 00 00 00 00 00 00 00 00 00 ................
00400350 00 00 00 00 00 00 00 00 00 00 00 00 00 00 00 00 ................
00400360 00 00 00 00 00 00 00 00 00 00 00 00 00 00 00 00 ................
00400370 00 00 00 00 00 00 00 00 00 00 00 00 00 00 00 00 ................
00400380 00 00 00 00 00 00 00 00 00 00 00 00 00 00 00 00 ................
00400390 00 00 00 00 00 00 00 00 00 00 00 00 00 00 00 00 ................
004003A0 00 00 00 00 00 00 00 00 00 00 00 00 00 00 00 00 ................
004003B0 00 00 00 00 00 00 00 00 00 00 00 00 00 00 00 00 ................
004003C0 00 00 00 00 00 00 00 00 00 00 00 00 00 00 00 00 ................
004003D0 00 00 00 00 00 00 00 00 00 00 00 00 00 00 00 00 ................
004003E0 00 00 00 00 00 00 00 00 00 00 00 00 00 00 00 00 ................
004003F0 00 00 00 00 00 00 00 00 00 00 00 00 00 00 00 00 ................
00400400 00 00 00 00 00 00 00 00 00 00 00 00 00 00 00 00 ................
00400410 00 00 00 00 00 00 00 00 00 00 00 00 00 00 00 00 ................
00400420 00 00 00 00 00 00 00 00 00 00 00 00 00 00 00 00 ................
00400430 00 00 00 00 00 00 00 00 00 00 00 00 00 00 00 00 ................
00400440 00 00 00 00 00 00 00 00 00 00 00 00 00 00 00 00 ................
00400450 00 00 00 00 00 00 00 00 00 00 00 00 00 00 00 00 ................
00400460 00 00 00 00 00 00 00 00 00 00 00 00 00 00 00 00 ................
00400470 00 00 00 00 00 00 00 00 00 00 00 00 00 00 00 00 ................
00400480 00 00 00 00 00 00 00 00 00 00 00 00 00 00 00 00 ................
00400490 00 00 00 00 00 00 00 00 00 00 00 00 00 00 00 00 ................
004004A0 00 00 00 00 00 00 00 00 00 00 00 00 00 00 00 00 ................
004004B0 00 00 00 00 00 00 00 00 00 00 00 00 00 00 00 00 ................
004004C0 00 00 00 00 00 00 00 00 00 00 00 00 00 00 00 00 ................
004004D0 00 00 00 00 00 00 00 00 00 00 00 00 00 00 00 00 ................
004004E0 00 00 00 00 00 00 00 00 00 00 00 00 00 00 00 00 ................
004004F0 00 00 00 00 00 00 00 00 00 00 00 00 00 00 00 00 ................
00400500 00 00 00 00 00 00 00 00 00 00 00 00 00 00 00 00 ................
00400510 00 00 00 00 00 00 00 00 00 00 00 00 00 00 00 00 ................
00400520 00 00 00 00 00 00 00 00 00 00 00 00 00 00 00 00 ................
00400530 00 00 00 00 00 00 00 00 00 00 00 00 00 00 00 00 ................
00400540 00 00 00 00 00 00 00 00 00 00 00 00 00 00 00 00 ................
00400550 00 00 00 00 00 00 00 00 00 00 00 00 00 00 00 00 ................
00400560 00 00 00 00 00 00 00 00 00 00 00 00 00 00 00 00 ................
00400570 00 00 00 00 00 00 00 00 00 00 00 00 00 00 00 00 ................
00400580 00 00 00 00 00 00 00 00 00 00 00 00 00 00 00 00 ................
00400590 00 00 00 00 00 00 00 00 00 00 00 00 00 00 00 00 ................
004005A0 00 00 00 00 00 00 00 00 00 00 00 00 00 00 00 00 ................
004005B0 00 00 00 00 00 00 00 00 00 00 00 00 00 00 00 00 ................
004005C0 00 00 00 00 00 00 00 00 00 00 00 00 00 00 00 00 ................
004005D0 00 00 00 00 00 00 00 00 00 00 00 00 00 00 00 00 ................
004005E0 00 00 00 00 00 00 00 00 00 00 00 00 00 00 00 00 ................
004005F0 00 00 00 00 00 00 00 00 00 00 00 00 00 00 00 00 ................
00400600 00 00 00 00 00 00 00 00 00 00 00 00 00 00 00 00 ................
00400610 00 00 00 00 00 00 00 00 00 00 00 00 00 00 00 00 ................
00400620 00 00 00 00 00 00 00 00 00 00 00 00 00 00 00 00 ................
00400630 00 00 00 00 00 00 00 00 00 00 00 00 00 00 00 00 ................
00400640 00 00 00 00 00 00 00 00 00 00 00 00 00 00 00 00 ................
00400650 00 00 00 00 00 00 00 00 00 00 00 00 00 00 00 00 ................
00400660 00 00 00 00 00 00 00 00 00 00 00 00 00 00 00 00 ................
00400670 00 00 00 00 00 00 00 00 00 00 00 00 00 00 00 00 ................
00400680 00 00 00 00 00 00 00 00 00 00 00 00 00 00 00 00 ................
00400690 00 00 00 00 00 00 00 00 00 00 00 00 00 00 00 00 ................
004006A0 00 00 00 00 00 00 00 00 00 00 00 00 00 00 00 00 ................
004006B0 00 00 00 00 00 00 00 00 00 00 00 00 00 00 00 00 ................
004006C0 00 00 00 00 00 00 00 00 00 00 00 00 00 00 00 00 ................
004006D0 00 00 00 00 00 00 00 00 00 00 00 00 00 00 00 00 ................
004006E0 00 00 00 00 00 00 00 00 00 00 00 00 00 00 00 00 ................
004006F0 00 00 00 00 00 00 00 00 00 00 00 00 00 00 00 00 ................
00400700 00 00 00 00 00 00 00 00 00 00 00 00 00 00 00 00 ................
00400710 00 00 00 00 00 00 00 00 00 00 00 00 00 00 00 00 ................
00400720 00 00 00 00 00 00 00 00 00 00 00 00 00 00 00 00 ................
00400730 00 00 00 00 00 00 00 00 00 00 00 00 00 00 00 00 ................
00400740 00 00 00 00 00 00 00 00 00 00 00 00 00 00 00 00 ................
00400750 00 00 00 00 00 00 00 00 00 00 00 00 00 00 00 00 ................
00400760 00 00 00 00 00 00 00 00 00 00 00 00 00 00 00 00 ................
00400770 00 00 00 00 00 00 00 00 00 00 00 00 00 00 00 00 ................
00400780 00 00 00 00 00 00 00 00 00 00 00 00 00 00 00 00 ................
00400790 00 00 00 00 00 00 00 00 00 00 00 00 00 00 00 00 ................
004007A0 00 00 00 00 00 00 00 00 00 00 00 00 00 00 00 00 ................
004007B0 00 00 00 00 00 00 00 00 00 00 00 00 00 00 00 00 ................
004007C0 00 00 00 00 00 00 00 00 00 00 00 00 00 00 00 00 ................
004007D0 00 00 00 00 00 00 00 00 00 00 00 00 00 00 00 00 ................
004007E0 00 00 00 00 00 00 00 00 00 00 00 00 00 00 00 00 ................
004007F0 00 00 00 00 00 00 00 00 00 00 00 00 00 00 00 00 ................
00400800 00 00 00 00 00 00 00 00 00 00 00 00 00 00 00 00 ................
00400810 00 00 00 00 00 00 00 00 00 00 00 00 00 00 00 00 ................
00400820 00 00 00 00 00 00 00 00 00 00 00 00 00 00 00 00 ................
00400830 00 00 00 00 00 00 00 00 00 00 00 00 00 00 00 00 ................
00400840 00 00 00 00 00 00 00 00 00 00 00 00 00 00 00 00 ................
00400850 00 00 00 00 00 00 00 00 00 00 00 00 00 00 00 00 ................
00400860 00 00 00 00 00 00 00 00 00 00 00 00 00 00 00 00 ................
00400870 00 00 00 00 00 00 00 00 00 00 00 00 00 00 00 00 ................
00400880 00 00 00 00 00 00 00 00 00 00 00 00 00 00 00 00 ................
00400890 00 00 00 00 00 00 00 00 00 00 00 00 00 00 00 00 ................
004008A0 00 00 00 00 00 00 00 00 00 00 00 00 00 00 00 00 ................
004008B0 00 00 00 00 00 00 00 00 00 00 00 00 00 00 00 00 ................
004008C0 00 00 00 00 00 00 00 00 00 00 00 00 00 00 00 00 ................
004008D0 00 00 00 00 00 00 00 00 00 00 00 00 00 00 00 00 ................
004008E0 00 00 00 00 00 00 00 00 00 00 00 00 00 00 00 00 ................
004008F0 00 00 00 00 00 00 00 00 00 00 00 00 00 00 00 00 ................
00400900 00 00 00 00 00 00 00 00 00 00 00 00 00 00 00 00 ................
00400910 00 00 00 00 00 00 00 00 00 00 00 00 00 00 00 00 ................
00400920 00 00 00 00 00 00 00 00 00 00 00 00 00 00 00 00 ................
00400930 00 00 00 00 00 00 00 00 00 00 00 00 00 00 00 00 ................
00400940 00 00 00 00 00 00 00 00 00 00 00 00 00 00 00 00 ................
00400950 00 00 00 00 00 00 00 00 00 00 00 00 00 00 00 00 ................
00400960 00 00 00 00 00 00 00 00 00 00 00 00 00 00 00 00 ................
00400970 00 00 00 00 00 00 00 00 00 00 00 00 00 00 00 00 ................
00400980 00 00 00 00 00 00 00 00 00 00 00 00 00 00 00 00 ................
00400990 00 00 00 00 00 00 00 00 00 00 00 00 00 00 00 00 ................
004009A0 00 00 00 00 00 00 00 00 00 00 00 00 00 00 00 00 ................
004009B0 00 00 00 00 00 00 00 00 00 00 00 00 00 00 00 00 ................
004009C0 00 00 00 00 00 00 00 00 00 00 00 00 00 00 00 00 ................
004009D0 00 00 00 00 00 00 00 00 00 00 00 00 00 00 00 00 ................
004009E0 00 00 00 00 00 00 00 00 00 00 00 00 00 00 00 00 ................
004009F0 00 00 00 00 00 00 00 00 00 00 00 00 00 00 00 00 ................
00400A00 00 00 00 00 00 00 00 00 00 00 00 00 00 00 00 00 ................
00400A10 00 00 00 00 00 00 00 00 00 00 00 00 00 00 00 00 ................
00400A20 00 00 00 00 00 00 00 00 00 00 00 00 00 00 00 00 ................
00400A30 00 00 00 00 00 00 00 00 00 00 00 00 00 00 00 00 ................
00400A40 00 00 00 00 00 00 00 00 00 00 00 00 00 00 00 00 ................
00400A50 00 00 00 00 00 00 00 00 00 00 00 00 00 00 00 00 ................
00400A60 00 00 00 00 00 00 00 00 00 00 00 00 00 00 00 00 ................
00400A70 00 00 00 00 00 00 00 00 00 00 00 00 00 00 00 00 ................
00400A80 00 00 00 00 00 00 00 00 00 00 00 00 00 00 00 00 ................
00400A90 00 00 00 00 00 00 00 00 00 00 00 00 00 00 00 00 ................
00400AA0 00 00 00 00 00 00 00 00 00 00 00 00 00 00 00 00 ................
00400AB0 00 00 00 00 00 00 00 00 00 00 00 00 00 00 00 00 ................
00400AC0 00 00 00 00 00 00 00 00 00 00 00 00 00 00 00 00 ................
00400AD0 00 00 00 00 00 00 00 00 00 00 00 00 00 00 00 00 ................
00400AE0 00 00 00 00 00 00 00 00 00 00 00 00 00 00 00 00 ................
00400AF0 00 00 00 00 00 00 00 00 00 00 00 00 00 00 00 00 ................
00400B00 00 00 00 00 00 00 00 00 00 00 00 00 00 00 00 00 ................
00400B10 00 00 00 00 00 00 00 00 00 00 00 00 00 00 00 00 ................
00400B20 00 00 00 00 00 00 00 00 00 00 00 00 00 00 00 00 ................
00400B30 00 00 00 00 00 00 00 00 00 00 00 00 00 00 00 00 ................
00400B40 00 00 00 00 00 00 00 00 00 00 00 00 00 00 00 00 ................
00400B50 00 00 00 00 00 00 00 00 00 00 00 00 00 00 00 00 ................
00400B60 00 00 00 00 00 00 00 00 00 00 00 00 00 00 00 00 ................
00400B70 00 00 00 00 00 00 00 00 00 00 00 00 00 00 00 00 ................
00400B80 00 00 00 00 00 00 00 00 00 00 00 00 00 00 00 00 ................
00400B90 00 00 00 00 00 00 00 00 00 00 00 00 00 00 00 00 ................
00400BA0 00 00 00 00 00 00 00 00 00 00 00 00 00 00 00 00 ................
00400BB0 00 00 00 00 00 00 00 00 00 00 00 00 00 00 00 00 ................
00400BC0 00 00 00 00 00 00 00 00 00 00 00 00 00 00 00 00 ................
00400BD0 00 00 00 00 00 00 00 00 00 00 00 00 00 00 00 00 ................
00400BE0 00 00 00 00 00 00 00 00 00 00 00 00 00 00 00 00 ................
00400BF0 00 00 00 00 00 00 00 00 00 00 00 00 00 00 00 00 ................
00400C00 00 00 00 00 00 00 00 00 00 00 00 00 00 00 00 00 ................
00400C10 00 00 00 00 00 00 00 00 00 00 00 00 00 00 00 00 ................
00400C20 00 00 00 00 00 00 00 00 00 00 00 00 00 00 00 00 ................
00400C30 00 00 00 00 00 00 00 00 00 00 00 00 00 00 00 00 ................
00400C40 00 00 00 00 00 00 00 00 00 00 00 00 00 00 00 00 ................
00400C50 00 00 00 00 00 00 00 00 00 00 00 00 00 00 00 00 ................
00400C60 00 00 00 00 00 00 00 00 00 00 00 00 00 00 00 00 ................
00400C70 00 00 00 00 00 00 00 00 00 00 00 00 00 00 00 00 ................
00400C80 00 00 00 00 00 00 00 00 00 00 00 00 00 00 00 00 ................
00400C90 00 00 00 00 00 00 00 00 00 00 00 00 00 00 00 00 ................
00400CA0 00 00 00 00 00 00 00 00 00 00 00 00 00 00 00 00 ................
00400CB0 00 00 00 00 00 00 00 00 00 00 00 00 00 00 00 00 ................
00400CC0 00 00 00 00 00 00 00 00 00 00 00 00 00 00 00 00 ................
00400CD0 00 00 00 00 00 00 00 00 00 00 00 00 00 00 00 00 ................
00400CE0 00 00 00 00 00 00 00 00 00 00 00 00 00 00 00 00 ................
00400CF0 00 00 00 00 00 00 00 00 00 00 00 00 00 00 00 00 ................
00400D00 00 00 00 00 00 00 00 00 00 00 00 00 00 00 00 00 ................
00400D10 00 00 00 00 00 00 00 00 00 00 00 00 00 00 00 00 ................
00400D20 00 00 00 00 00 00 00 00 00 00 00 00 00 00 00 00 ................
00400D30 00 00 00 00 00 00 00 00 00 00 00 00 00 00 00 00 ................
00400D40 00 00 00 00 00 00 00 00 00 00 00 00 00 00 00 00 ................
00400D50 00 00 00 00 00 00 00 00 00 00 00 00 00 00 00 00 ................
00400D60 00 00 00 00 00 00 00 00 00 00 00 00 00 00 00 00 ................
00400D70 00 00 00 00 00 00 00 00 00 00 00 00 00 00 00 00 ................
00400D80 00 00 00 00 00 00 00 00 00 00 00 00 00 00 00 00 ................
00400D90 00 00 00 00 00 00 00 00 00 00 00 00 00 00 00 00 ................
00400DA0 00 00 00 00 00 00 00 00 00 00 00 00 00 00 00 00 ................
00400DB0 00 00 00 00 00 00 00 00 00 00 00 00 00 00 00 00 ................
00400DC0 00 00 00 00 00 00 00 00 00 00 00 00 00 00 00 00 ................
00400DD0 00 00 00 00 00 00 00 00 00 00 00 00 00 00 00 00 ................
00400DE0 00 00 00 00 00 00 00 00 00 00 00 00 00 00 00 00 ................
00400DF0 00 00 00 00 00 00 00 00 00 00 00 00 00 00 00 00 ................
00400E00 00 00 00 00 00 00 00 00 00 00 00 00 00 00 00 00 ................
00400E10 00 00 00 00 00 00 00 00 00 00 00 00 00 00 00 00 ................
00400E20 00 00 00 00 00 00 00 00 00 00 00 00 00 00 00 00 ................
00400E30 00 00 00 00 00 00 00 00 00 00 00 00 00 00 00 00 ................
00400E40 00 00 00 00 00 00 00 00 00 00 00 00 00 00 00 00 ................
00400E50 00 00 00 00 00 00 00 00 00 00 00 00 00 00 00 00 ................
00400E60 00 00 00 00 00 00 00 00 00 00 00 00 00 00 00 00 ................
00400E70 00 00 00 00 00 00 00 00 00 00 00 00 00 00 00 00 ................
00400E80 00 00 00 00 00 00 00 00 00 00 00 00 00 00 00 00 ................
00400E90 00 00 00 00 00 00 00 00 00 00 00 00 00 00 00 00 ................
00400EA0 00 00 00 00 00 00 00 00 00 00 00 00 00 00 00 00 ................
00400EB0 00 00 00 00 00 00 00 00 00 00 00 00 00 00 00 00 ................
00400EC0 00 00 00 00 00 00 00 00 00 00 00 00 00 00 00 00 ................
00400ED0 00 00 00 00 00 00 00 00 00 00 00 00 00 00 00 00 ................
00400EE0 00 00 00 00 00 00 00 00 00 00 00 00 00 00 00 00 ................
00400EF0 00 00 00 00 00 00 00 00 00 00 00 00 00 00 00 00 ................
00400F00 00 00 00 00 00 00 00 00 00 00 00 00 00 00 00 00 ................
00400F10 00 00 00 00 00 00 00 00 00 00 00 00 00 00 00 00 ................
00400F20 00 00 00 00 00 00 00 00 00 00 00 00 00 00 00 00 ................
00400F30 00 00 00 00 00 00 00 00 00 00 00 00 00 00 00 00 ................
00400F40 00 00 00 00 00 00 00 00 00 00 00 00 00 00 00 00 ................
00400F50 00 00 00 00 00 00 00 00 00 00 00 00 00 00 00 00 ................
00400F60 00 00 00 00 00 00 00 00 00 00 00 00 00 00 00 00 ................
00400F70 00 00 00 00 00 00 00 00 00 00 00 00 00 00 00 00 ................
00400F80 00 00 00 00 00 00 00 00 00 00 00 00 00 00 00 00 ................
00400F90 00 00 00 00 00 00 00 00 00 00 00 00 00 00 00 00 ................
00400FA0 00 00 00 00 00 00 00 00 00 00 00 00 00 00 00 00 ................
00400FB0 00 00 00 00 00 00 00 00 00 00 00 00 00 00 00 00 ................
00400FC0 00 00 00 00 00 00 00 00 00 00 00 00 00 00 00 00 ................
00400FD0 00 00 00 00 00 00 00 00 00 00 00 00 00 00 00 00 ................
00400FE0 00 00 00 00 00 00 00 00 00 00 00 00 00 00 00 00 ................
00400FF0 00 00 00 00 00 00 00 00 00 00 00 00 00 00 00 00 ................
00401000 5D 12 93 E6 E6                                  ]....          

fn00401005()
	dec	ebx
	mov	edx,esi
	sub	edx,ebx
	sub	esi,edi
	or	ecx,ebx
	mov	ecx,esi
	jmp	00401309
00401015                98 C2 8D F1                           ....      

fn00401019()
	mov	[esp],esi
	jmp	00401021

l00401021:
	pop	esi
	sub	edi,esi
	or	edi,esi
	or	edi,esi
	jz	004012F3

l0040102E:
	push	edx
	pop	edx
	jnz	004012F3

l00401036:
	ffree	st(5)
	mov	ebp,DA0B407A

l0040103A:
	inc	eax
	or	ebx,edx
	dec	edi
	add	ecx,esi
	mov	ecx,edi
	xor	esi,edx
	call	0040104F
	js	0040107F

l0040104B:
	cld	
	repne	
	lds	edi,ebp

fn0040104F()
	lea	esp,[esp+04]
	or	esi,ebx
	xor	ecx,edi
	inc	ecx
	inc	edx
	add	edi,ecx
	inc	eax
	add	eax,esi
	mov	edi,eax
	jmp	004013AC

l00401065:
	mov	ecx,esi
	sub	dl,bl
	or	ebx,ecx
	neg	ch
	add	bh,BF
	sub	ecx,eax
	mov	dh,bh
	add	dl,C0
	adc	cl,CE
	inc	edx
	call	004012D2

fn0040107F()
	add	[eax+49F9BD10],ch

fn00401080()
	test	al,10
	mov	ebp,DE2B49F9
	add	edi,eax
	mov	ecx,esi
	add	ebx,ecx
	mov	ebx,edx
	mov	eax,[eax+08]
	call	00401019
	mov	al,[F4930F91]

fn0040109C()
	lea	esp,[esp+04]
	sub	ecx,edx
	mov	edx,eax
	add	esi,edi
	xor	edi,eax
	add	esi,ecx
	xor	edi,esi
	sub	esi,eax
	xor	esi,ecx
	call	0040121D
	inc	esp
	add	dl,dh
	add	eax,4B471C5F

fn004010BB()
	inc	edi
	dec	ebx
	inc	ebx
	inc	ecx
	sub	edi,ecx
	mov	eax,[eax+00000090]
	add	edi,eax
	or	esi,eax
	add	edx,eax
	call	004010D6
	push	ss
	mov	[ecx+24648D55],ebx

fn004010D6()
	lea	esp,[esp+04]

fn004010D9()
	add	al,4E
	add	edx,eax
	xor	ebx,esi
	dec	ebx
	dec	ecx
	mov	edi,esi
	or	ecx,ebx
	jmp	00401005
004010EA                               9F 77 57 0D 2E 1F           .wW...
004010F0 61                                              a              

fn004010F1()
	mov	ebx,ecx
	inc	edi
	mov	ecx,eax
	dec	ecx
	sub	edi,edx
	sub	esi,edx
	inc	esi
	jmp	0040135A
00401101    4D E1 D5 CA                                   M...          

fn00401105()
	or	eax,eax
	jz	0040110A

l00401109:
	ret	

l0040110A:
	xor	edx,ecx
	or	esi,eax
	mov	ebx,esi
	inc	edi
	call	00401175
	sahf	
	iret	
00401118                         00 CC F2 D8                     ....   

fn0040111C()
	xchg	[esp],ebx
	lea	esi,[esi]
	pop	ebx
	dec	esi
	inc	edi
	mov	ecx,edi
	add	esi,ebx
	mov	ebx,eax
	xor	ebx,edx
	jbe	00401296

l00401132:
	repne	
	repne	
	ja	00401296
	aas	
	daa	
	imul	edx,[0424648D],2D

fn0040113E()
	lea	esp,[esp+04]
	sub	eax,EEEEEEEE
	inc	edi
	or	esi,ebx
	inc	edi
	xor	esi,edi
	call	0040111C
	jz	0040112D
	xlat	
	add	eax,edx
	jns	004011C5
	cwde	

fn0040115A()
	lea	esp,[esp+04]
	mov	eax,fs:[00000030]
	mov	ebx,edi
	xor	edx,ecx
	dec	edi
	mov	ebx,esi
	call	00401235
	inc	edi
	add	eax,8F0BF52D

fn00401175()
	pop	dword ptr [esp-0C]

fn00401176()
	inc	esp
	and	al,F4
	xor	ecx,ebx
	inc	ecx
	sub	edi,ecx
	mov	edx,esi
	dec	edx
	xor	ecx,eax
	xor	ebx,edx
	jc	00401191

fn00401187()
	jbe	00401189

l00401189:
	mov	dl,dl
	jnc	00401191

l0040118D:
	push	cs
	imul	ebp,[ecx+0B47CB2B],4AF92BDA

fn00401191()
	sub	ecx,ebx
	inc	edi
	or	ebx,edx
	sub	edi,ecx
	dec	edx

l00401199:
	inc	edi
	dec	edi
	inc	edi
	xor	ebx,esi
	leave	
	jmp	004011BD
004011A1    95 D2 62 5B                                   ..b[          

fn004011A5()
	dec	ebx
	or	ecx,eax
	dec	ebx
	add	esi,ecx
	and	eax,EEEEEEEE
	dec	edi
	call	0040109C
	mov	bl,F3
	push	ebx
	les	ebx,[esi]
	push	edx
	in	eax,8B

fn004011BD()
	mov	eax,edx

fn004011BE()
	ret	D82B
004011C1    33 CB 49 0B CB 0B F0 E8 3B 00 00 00 80 33 85  3.I.....;....3.
004011D0 5E                                              ^              

l004011D1:
	dec	ebx
	dec	esi
	add	edi,esi
	xor	edx,edi
	or	ecx,ebx
	inc	ebx
	dec	ecx
	mov	esi,eax
	call	004011EA
	jno	00401215

l004011E4:
	out	dx,ax
	illegal	
	mov	ebp,648DD0CD

fn004011EA()
	lea	esp,[esp+04]
	xor	esi,edi
	sub	ecx,ebx
	add	ecx,esi
	inc	edx
	or	edx,edi
	inc	esi
	add	edx,eax
	or	esi,ebx
	jmp	00401327
00401201    83 02 C6 77 C4 A8 25                          ...w..%       

fn00401208()
	pop	dword ptr [esp-10]
	add	esi,ecx
	inc	ebx
	add	eax,ebx
	inc	esi
	mov	edx,ecx
	jmp	00401388

fn00401215()
	outsd	
	add	[eax],eax
	add	[edi+07],cl
00401219                            4F 07 5E 2C                   O.^,  

fn0040121D()
	mov	[esp],esi

fn0040121E()
	xor	al,24
	mov	al,al
	pop	esi
	mov	edx,eax
	inc	edi
	inc	edx
	dec	edx
	call	0040113E
	mov	ch,13
	outsb	
	or	esi,esi
	into	
	push	24648D51

fn00401235()
	lea	esp,[esp+04]
	add	edi,edx
	or	esi,ecx
	mov	edi,ebx
	xor	esi,edi
	inc	edi
	jmp	004010BB
00401247                      29 A2 89 B8 CD 58                 )....X  

fn0040124D()
	push	ebp
	mov	ebp,esp
	mov	esi,eax
	add	edi,esi
	dec	ecx
	or	ecx,eax
	xor	esi,ebx
	sub	edx,edi
	inc	ecx
	jz	004011D1

l00401262:
	jnz	00401264

l00401264:
	xchg	dl,dl
	jnz	004011D1

l0040126C:
	and	bl,[ebx+51A34D62]
	and	al,47

fn00401274()
	not	bl
	sbb	dl,0C
	neg	bh
	or	edi,edx
	add	edx,eax
	inc	ebx
	xor	edx,ebx
	jbe	004010F1

fn00401288()
	xchg	ch,ch
	ja	004010F1

l00401290:
	lodsb	
	movsb	
	lodsb	
	lodsd	
	aas	

fn00401296()
	sub	edx,ebx
	dec	edi
	inc	esi
	or	ebx,edx
	mov	edi,esi
	add	edx,edi
	mov	esi,ebx
	dec	ebx
	xor	esi,edi
	jmp	00401105
004012AA                               15 EE 26 3A 7F 19           ..&:..

fn004012B0()
	mov	edi,edx
	add	bh,A6
	mov	bh,cl
	neg	cl
	add	ch,cl
	not	ch
	sbb	bl,19
	inc	bl
	dec	esi
	js	00401274

l004012C5:
	mov	di,di
	mov	edx,edx
	jns	00401274

l004012CC:
	xchg	eax,edx
	inc	ebp
	ror	byte ptr [ecx],01
	movsb	

fn004012D2()
	lea	esp,[esp+04]
	sub	ebx,ecx
	inc	ch
	dec	cl
	neg	dl
	or	edx,esi
	xor	ebx,edi
	mov	bh,ah
	add	cl,3F
	js	004012B0

l004012E9:
	mov	al,al
	jns	004012B0

l004012ED:
	or	eax,824A651F
	cmp	eax,0BC80342

fn004012F3()
	inc	edx
	add	ecx,eax
	or	edi,esi
	inc	ecx
	mov	edx,eax
	mov	ebx,esi
	xor	esi,ecx
	inc	ecx
	call	0040136E

fn00401305()
	mov	ebx,2B986F37

l00401309:
	sub	ecx,edi

l0040130A:
	iret	
0040130B                                  8B 00 8B FE 0B            .....
00401310 FE 2B F2 33 D0 33 C8 0B CE 0B F1 E8 21 00 00 00 .+.3.3......!...
00401320 DD BF 32 F3 E7 5A 65                            ..2..Ze        

fn00401327()
	or	esi,edx
	or	ecx,eax
	add	ecx,edi
	sbb	cl,D9
	xor	ebx,edi
	dec	ebx
	or	ch,ah
	jmp	00401065
0040133A                               DA 99 12 12 EA EC           ......
00401340 37 8F 44 24 E8 46 4F 0B F7 4F 8B DA 4B 33 D7 E9 7.D$.FO..O..K3..
00401350 30 FD FF FF 80 40 2B 5B 89 6F                   0....@+[.o     

l0040135A:
	or	edx,ebx
	xor	edx,edi
	xor	ecx,eax
	dec	esi
	or	edx,ecx
	mov	edx,esi
	call	0040115A
	mov	dl,9E
	cmp	al,8F

fn0040136E()
	pop	dword ptr [esp-20]

fn0040136F()
	inc	esp
	and	al,E0
	mov	ebx,edi
	add	ecx,edx
	inc	edi
	xor	ecx,esi
	xor	edi,ebx
	jmp	004011A5
00401380 44 DE 68 F3 88 07 41 28                         D.h...A(       

l00401388:
	add	ebx,eax
	add	ecx,edx
	sub	edi,ecx
	mov	esi,ebx
	sub	ebx,edx
	or	edx,esi
	inc	esi
	jle	0040103A

l0040139B:
	repne	
	ja	0040139E
	jg	0040103A
	jge	0040139F
	ret	BA43
	jz	0040139D

fn004013AC()
	call	00402D29
	xchg	eax,ebx
	xor	al,53
	mov	ds,[edx+esi*8-1F]
	aas	
	sbb	ecx,esp
	aas	
	sbb	bl,[eax+eax*4]
	mov	[33C4E2E2],eax
	sbb	al,ah
	adc	al,A2
	repne	
	illegal	
	les	esi,edx
	in	al,dx
	pop	esp
	aam	24
	loop	004013B4
	pop	ss
	xchg	eax,edi
	dec	esp
	jo	00401417
	imul	ebp,esp,AB
	mov	al,D3
	aas	
	loope	0040141F
	in	al,C5
	jnc	004013CC
	loope	00401425
	out	C5,al
	jnc	004013D3
	pop	esp
	movsb	
	loop	004013D1
	les	ebp,[edi-50]
	sahf	
	movsd	
	inc	ebx
	sbb	[edx+215CE2E2],ah
	and	al,E2
	loop	0040141F
	push	ecx
	inc	ebx
	imul	ebp,[esi+E535C412],DEE441C4
	mov	[ecx+A3BF5C54],ds
	loop	004013F5
	pop	esp
	mov	dh,EA
	jmp	far C4FA:B011
	jz	0040140B
	scasb	
	adc	bl,[edx+esi*2+62]
	loop	00401406
	push	edx
	adc	ah,[ebx+52C2226E]
	bound	ebx,[edi+ebp+62]
	loop	00401413
	outsb	
	ret	
	mov	dl,AC
	inc	ecx
	les	ebx,[B62113C2]
	ja	004013F5
	les	edi,[ecx]
	in	al,A2
	mov	eax,02C845F1
	loop	0040142B
	loop	0040140F
	test	al,A4
	fcomp	dword ptr [esi+ecx-1D]
	loop	00401435
	dec	ebx
	xor	[eax+F3C443DC],esi
	and	ch,ah
	mov	[15334452],al
	les	edi,[ecx]
	sbb	ah,cl
	aas	
	adc	eax,B6163FE1
	sbb	al,29
	mov	[D65CE2E2],eax
	jcxz	00401456
	loop	00401480
	xchg	eax,edi
	mov	cl,F5
	cmpsb	
	jg	004014EC
	mov	es,dx
	jno	00401462
	movsd	
	inc	ebx
	mul	ah
	loop	00401468
	ret	E7D2
	ret	E5C0
	loop	00401433
	inc	ebx
	and	ebx,79B9E2E2
	mov	eax,E4B4DC54
	xor	eax,ecx
	cmp	bh,[esi+E7B2C480]
	mov	[B4C41733],al
	in	eax,A2
	xor	eax,E6BEE11A
	neg	byte ptr [esp+esi*2-1C]
	loop	00401496
	adc	al,81
	mov	[EEE2FC2B],al
	loop	0040149F
	inc	ebp
	xor	esp,ebp
	idiv	byte ptr [edx+45]
	xor	esp,esp
	idiv	byte ptr [ecx-04]
	add	al,B9
	cli	
	sbb	bl,[edx+edx*8]
	jcxz	004014B4
	loop	004014D0
	jpo	0040148C
	bound	esi,[edx+5C]
	lds	esp,[edx+3475E2E2]
	lodsb	
	iret	
	adc	dh,[ebx+E2E39249]
	aaa	
	les	ebx,[C4B777B6]
	cmp	esp,esp
	pop	esp
	jz	00401495
	loop	004014D7
	iret	
	push	esi
	mov	al,E1
	aas	
	pop	ss
	loope	0040153D
	sbb	bl,[esp+ebx]
	loop	004014E5
	loop	004014AA
	iret	
	mov	ah,63
	inc	edx
	shl	[eax],cl
	loop	004014EF
	loop	0040156B
	sub	[edx],esp
	loop	0040154A
	fadd	double ptr [eax+edi*2+3F]
	inc	eax
	dec	eax
	cmp	ebx,ecx
	popf	
	loope	00401535
	les	esi,[ebx]
	and	[edx+edx*4-1C],edx
	loop	0040155E
	les	ebx,[B62013C2]
	ja	0040158B
	nop	
	loop	00401515
	add	al,ah
	push	esi
	cmp	bh,[ebp+4C792C54]
	loop	00401520
	loop	00401542
	movsd	
	add	ebx,[ecx]
	bound	esp,edx
	loop	00401576
	loop	0040152B
	loop	0040154D
	mul	cl
	aas	
	and	[edi+eax*4],ebx
	jcxz	00401535
	loop	004015B1
	shl	[edx-1E],cl
	loop	00401595
	add	bh,[ecx+72]
	mov	cl,bh
	mov	fs:[edi-5D],ds
	loop	00401549
	sbb	al,4C
	jcxz	0040154D
	loop	00401519
	aam	A5
	inc	ebx
	dec	edi
	mov	[881CE2E2],al
	jcxz	0040155A
	loop	004015D6
	adc	al,E3
	loop	00401560
	std	
	adc	ebx,edi
	xchg	eax,ecx
	sbb	ebx,E223821C
	loop	00401530
	ret	E3D0
	loop	00401572
	into	
	bound	esi,[edx]
	push	cs
	out	1C,al
	jle	004015BB
	loop	0040157C
	adc	bh,[esi+7643A5DF]
	mov	[D0DCE2E2],al
	loope	0040155A
	pop	ss
	rol	dword ptr [edi+F6433019],7C
	loope	004015AE
	add	al,B9
	cli	
	sbb	bl,[eax+ebx*8]
	mov	[11FCE2E2],al
	in	eax,93
	mov	esi,23AB1CF6
	loop	004015A8
	loope	004015DE
	les	esi,[ebx]
	and	[esp+ebx*2-61],edx
	and	al,E2
	loop	00401555
	pop	ecx
	xor	dl,ah
	cld	
	add	al,B9
	cli	
	sbb	bl,[edi+ecx*8]
	mov	[CCFCE2E2],al
	cld	
	mov	[A21CF61F],al
	and	esp,edx
	loop	004015E1
	shl	[edi],cl
	pop	esp
	sub	esp,[edx-1E]
	js	0040160F
	lodsd	
	dec	ebx
	not	dword ptr [ebx]
	pop	edi
	and	ah,[edi+C26293C2]
	pop	esp
	bound	esp,[esp+edx*2+637343A5]
	loop	004015EC
	mov	[C0C2E3B8],al
	jcxz	004015F5
	movsd	
	ret	
	sub	al,63
	loop	004015F9
	mov	ecx,E2E3945C
	loop	00401660
	ret	9AF6
	les	esi,[ebx]
	and	[ebx+esi],ebp
	and	dl,al
	adc	ah,[esp+ebp+33]
	in	eax,C2
	inc	ecx
	in	eax,E2
	movsd	
	inc	ebx
	cmc	
	mov	[33C4E2E2],eax
	and	[eax+edx*8-1E],bl
	loop	00401621
	aaa	
	inc	edx
	aaa	
	mov	edi,B843A525
	mov	[33C4E2E2],al
	in	al,C4
	xor	eax,E637C4E5
	in	al,2E
	out	B9,al
	jns	004016AE
	pop	esp
	and	ah,[ebx-1E]
	loop	00401635
	dec	ebx
	and	eax,FB2A14BC
	jpo	0040162A
	xor	dl,ah
	movsd	
	inc	ebx
	punpcklwd	xmm4,xmm1
	loope	004016A0
	and	byte ptr [eax+33B0B4F6],E4
	aas	
	and	eax,5CE872C4
	xchg	[ebx+445CE2E2],esp
	mov	[66C4E2E2],eax
	pop	esp
	add	ah,[ebx+3BB1E2E2]
	adc	ch,[edi+E3D85299]
	jmp	00401631
	push	edx
	movsd	
	fcom	double ptr [edx+45]
	xor	al,22
	inc	edx
	pusha	
	out	8D,al
	mov	bl,22
	movsd	
	inc	ebx
	fbld	tword ptr [ebx+755CE2E2]
	and	ah,dl
	loop	004016AE
	imul	eax,eax,B904FC61
	cli	
	sbb	bl,[eax+ebx]
	bound	esp,edx
	loop	004016BB
	push	edx
	insd	
	sbb	[esi-0A],bl
	sbb	al,EB
	jcxz	004016AA
	loop	004016AB
	push	ss
	pop	esp
	cmpsb	
	mov	[A5DBE2E2],al
	xor	edi,[ebx+27C4FB19]
	out	dx,al
	loop	004016BD
	loop	004016A1
	jbe	004016C4
	les	ebx,[eax+C4E5D2C2]
	jbe	004016CC
	les	esp,[esi+5C]
	push	A3
	loop	004016D0
	pop	esp
	stosd	
	popa	
	loope	004016D4
	cmp	dh,bl
	add	eax,[edx+B9B03CBD]
	jns	004016B5
	push	esp
	xchg	eax,edx
	out	E2,al
	aaa	
	pop	esp
	movsd	
	and	esp,edx
	loop	004016CB
	cmp	bl,ah
	and	esi,eax
	mov	al,B5
	sub	[ebx+edi*8],eax
	sub	cl,ah
	add	al,E3
	push	A554A434
	inc	ebx
	and	esp,[ebx]
	loop	00401701
	mov	eax,E2E59254
	aaa	
	pop	esp
	mov	esi,2FE2E223
	jmp	004016DC
	xor	dh,DF
	pop	esi
	mov	[A258A218],al
	cwde	
	les	edx,[esi+ebx*8+213FA20B]
	ret	649C
	pop	esp
	inc	eax
	arpl	dx,bx
	loop	00401767
	adc	dword ptr [edx],DA4CE8BA
	cld	
	loop	004017BF
	loop	00401734
	lds	esi,[ebx]
	sbb	edi,esp
	in	eax,5A
	pop	esp
	sahf	
	lds	esi,[ebx]
	sbb	eax,A21A33C4
	repne	
	illegal	
	les	esi,esp
	test	byte ptr [ebp+esi+19],5C
	mov	bl,21
	loope	0040174F
	jno	00401760
	sahf	
	jc	00401719
	movsb	
	push	esp
	movsd	
	inc	ebx
	xchg	eax,esp
	mov	[3344E2E2],eax
	sbb	ah,[ecx]
	cld	
	loop	00401764
	loop	00401766
	lds	esi,[ebx]
	and	esp,edi
	jl	00401799
	imul	edx,ecx,DC2033C5
	in	al,EB
	adc	al,49
	xor	[ecx+edi*8],esi
	sbb	ecx,esi
	cld	
	adc	eax,C5151515
	xor	ebx,[edi]
	cld	
	adc	eax,C5151515
	xor	ebx,[esi]
	cld	
	loop	0040181B
	loop	00401790
	lds	esi,[ebx]
	sbb	al,DC
	mov	[edx-7C],dh
	xchg	eax,ebp
	popf	
	les	eax,[ecx-1B]
	sti	
	les	ebp,[ecx]
	out	dx,al
	loop	004017A2
	loop	00401786
	mov	eax,E5B6C4E5
	les	edi,[esi+5C23DCE5]
	jmp	far C4E1:E121
	jnc	004017BD
	pop	esp
	and	ah,[ecx]
	loope	004017BA
	mov	esi,621688C3
	fidivr	dword ptr [edi]
	loope	00401821
	push	ds
	loope	00401824
	pop	ds
	loope	00401827
	sbb	esi,[esi+E161AF1C]
	loope	00401834
	xor	ebx,[ebx]
	loope	00401833
	and	[ebx+ecx*8-5D],bl
	loop	004017DC
	mov	ecx,F823613A
	fsub	st(0),st(7)
	jmp	004017FB
	adc	[edx+AEE2E2E2],ah
	xchg	eax,esi
	jpo	00401791
	sbb	al,7B
	add	eax,7E14561C
	pusha	
	les	esi,[ebx]
	and	[ecx+ebp*8-5D],bl
	loop	004017FE
	les	esp,[ebp-2B]
	xor	bl,ah
	movsd	
	mov	[F245E433],al
	bound	esi,esi
	loope	0040186A
	and	[eax+edx*2],ebx
	and	ah,dl
	loop	004017FE
	pop	esp
	jnc	00401856
	loope	00401818
	lodsd	
	dec	ecx
	daa	
	fxam	
	rep	
	das	
	dec	eax
	les	edx,esi
	lodsb	
	aaa	
	in	eax,A2
	mov	eax,0AC845F1
	loop	0040182E
	loop	00401812
	test	al,C4
	xor	eax,A5D8A4E4
	add	edx,[ecx+61]
	loope	0040183B
	mov	al,35
	in	eax,A5
	add	ecx,[edi]
	popa	
	loope	00401844
	pop	esp
	push	ss
	mov	[7FEAE2E2],al
	mov	esp,C01CF6A7
	bound	esp,edx
	loop	00401854
	push	ss
	les	esi,[ebx]
	in	al,54
	xchg	eax,edx
	in	al,E2
	pop	esp
	xor	ah,[edx+A2F4E2E2]
	push	esp
	out	dx,al
	inc	esp
	xor	ah,ah
	loope	004018C8
	sbb	ecx,esp
	aas	
	sbb	bl,[ebx+ebx*2]
	and	esp,edx
	loop	00401857
	cmp	[edi],edx
	mov	[BEE1F1B8],al
	neg	dword ptr [eax+edi+21]
	loope	00401881
	push	esi
	or	ebx,[edx]
	illegal	
	mov	dl,F6
	cld	
	add	al,B9
	cli	
	sbb	bl,[ebx+ebx*4]
	loop	00401891
	loop	004018AD
	jns	004018C6
	fistp	word ptr [ebp+626E1CF6]
	loop	0040189D
	loope	004018D3
	pop	esp
	xor	eax,46E2E263
	inc	ebp
	mov	dl,E1
	and	al,56
	nop	
	mov	dh,77
	mov	bh,C4
	xor	esp,esp
	mov	[37C4F1F2],al
	in	al,C4
	repne	
	add	[edx+C420C492],ah
	illegal	
	pop	esp
	inc	esp
	loop	004018C5
	loop	0040190A
	cwde	
	xchg	[edx],esi
	cmp	ebx,ebp
	ret	C120
	mov	edi,47323262
	les	edx,[ebx-32]
	and	dh,[edi+5C]
	jcxz	0040195C
	loop	004018DE
	hlt	
	and	byte ptr [edx+7C],77
	add	[eax+E08403A5],ebp
	loope	004018EA
	mov	[005CE439],al
	loopne	004018F1
	loope	004018D6
	mov	dl,E5
	mov	[1CF6E433],al
	dec	ebp
	loop	004018FE
	loop	00401962
	xor	esp,[ecx]
	pop	esp
	mov	dword ptr [edx+CEE4E2E2],F446FB23
	push	edx
	sbb	ah,ah
	or	eax,E2E2D91C
	loop	00401966
	loop	00401978
	loop	0040191B
	mov	esi,2321020F
	mov	esi,560CDC0E
	and	dh,[edx]
	in	eax,15
	or	[esi+E2E3CE1C],dh
	loop	00401913
	shl	[edx+FEE1F1F2],cl
	out	dx,ax
	mov	dh,1C
	les	esp,eax
	loope	0040193D
	mov	eax,E2E6E250
	loop	004019BF
	pop	ds
	and	ah,dl
	loop	00401926
	jbe	00401929
	stosd	
	or	eax,C49EA206
	hlt	
	call	C4614EBA
	cmp	ebp,esp
	scasb	
	push	esp
	pop	esp
	mov	eax,36E2E223
	pop	esp
	stc	
	mov	[8AA0E2E2],al
	cdq	
	pop	eax
	imul	dword ptr [eax+79B91E7E]
	mov	eax,E2E49254
	aaa	
	les	ebx,[616F5CB6]
	loope	00401980
	dec	ecx
	sbb	eax,85744572
	or	eax,02948436
	pop	esi
	cmpsb	
	bound	edx,[ebp+94841296]
	pop	esp
	lahf	
	jcxz	00401998
	loop	00401992
	dec	esp
	xchg	eax,esp
	dec	edi
	scasb	
	mov	[eax+222C1CF6],cs
	loop	004019A6
	loope	004019DC
	push	esp
	xchg	eax,edx
	jcxz	004019AC
	aaa	
	les	ebx,[E11E13C2]
	aas	
	in	al,45
	xor	esp,[eax]
	pop	esp
	xchg	eax,esp
	mov	eax,[AEB7E1E1]
	xlat	
	mov	[ebp-40],bh
	shr	byte ptr [ebp+541E33C4],01
	xchg	eax,edx
	jcxz	004019CC
	aaa	
	les	ebx,[451F13C2]
	xor	esp,[ecx]
	test	byte ptr [edx+41],E5
	loope	004019DA
	loop	004019DD
	movsd	
	ret	
	mov	bh,A2
	loop	004019E3
	pop	esp
	hlt	
	mov	[759DE2E2],al
	dec	eax
	cmpsd	
	test	al,51
	insb	
	test	[edi+73],ah
	xchg	ax,si
	shr	[esi+5E1C3254],cl
	loop	004019FC
	loop	00401A78
	shl	dword ptr [edx+0AE8E2E2],01
	outsd	
	dec	ebp
	nop	
	ret	7E2D
	pop	edx
	xchg	edi,esp
	inc	esp
	xor	esp,esi
	scasb	
	xchg	eax,esi
	fistp	qword ptr [edi]
	in	eax,84
	rep	
	sub	cl,ah
	test	bl,ch
	push	E121165C
	loope	00401AAF
	shl	byte ptr [ebx+CCE27B0F],5C
	retf	
	mov	eax,[560DE1E1]
	sbb	al,A5
	add	ecx,[eax-5E]
	loop	00401A36
	cmpsb	
	push	esp
	pop	esp
	pop	es
	mov	eax,[545CE1E1]
	mov	eax,[6202E1E1]
	fldenv	word ptr [ecx+1C]
	cld	
	jns	00401A7B
	fistp	word ptr [ebp+E2411CF6]
	loop	00401A52
	loope	00401A88
	loope	00401AB3
	in	al,FC
	add	al,B9
	cli	
	sbb	bl,[edi]
	loope	00401A5F
	loope	00401A7C
	fist	word ptr [esi+1CF640FD]
	mov	edx,5CE2E2E2
	test	[eax+4AD9E1E1],esp
	illegal	
	inc	edx
	insd	
	add	[ebx+42],edi
	illegal	
	movsd	
	jpo	00401AEE
	sbb	al,E5
	ret	A220
	movsd	
	inc	ebx
	aaa	
	loopne	00401A87
	loope	00401A4A
	mov	al,A2
	inc	ecx
	in	al,5C
	xor	al,E0
	loope	00401A92
	test	al,AE
	xchg	eax,edx
	pop	eax
	illegal	
	inc	edx
	shr	dl,cl
	and	ah,dl
	loop	00401A81
	mov	eax,1A39A2E5
	loope	00401B03
	sbb	eax,B61B3FE1
	sbb	al,AE
	and	ecx,esp
	loope	00401AAE
	xor	esp,[ecx]
	in	al,E2
	loop	00401AB7
	movsd	
	add	esp,[edi+5CE1E161]
	loop	00401B3F
	loope	00401AC1
	dec	esi
	daa	
	js	00401B53
	xchg	eax,ebp
	jo	00401B38
	jns	00401AA1
	push	esp
	xchg	eax,edx
	in	al,E2
	aaa	
	les	ebx,[5C2113C2]
	push	esi
	popa	
	loope	00401AD9
	pop	ebp
	pop	esi
	wait	
	pop	esp
	and	ss:[di],esp
	les	ebx,edi
	lodsb	
	push	ds
	fimul	word ptr [ebx]
	jns	00401B64
	mov	ebp,62E2E222
	xchg	eax,esi
	movsd	
	inc	ebx
	mov	eax,[5CE1E1A1]
	pop	ds
	mov	eax,[E6A2E1E1]
	xchg	[esp+eax*2+4512EBF5],bh
	cmc	
	jmp	00401B37
	inc	esp
	imul	ebx
	adc	al,[ebp-09]
	jmp	00401B40
	jbe	00401BAC
	loope	00401B28
	pop	esp
	mov	[eax+862EE1E1],esp
	push	C4374178
	sbb	eax,452113C2
	xor	esp,[ecx]
	mul	cl
	aas	
	out	45,al
	xor	esp,ebp
	test	byte ptr [ebp+33],E4
	pop	esp
	cmp	[eax+2C9EE1E1],ah
	jns	00401B20
	scasb	
	mov	bl,C4
	aaa	
	sbb	ah,al
	xor	edx,[C21FC454]
	xchg	eax,ebx
	out	FC,al
	loop	00401B5C
	loop	00401B4E
	fmul	st(0),st(5)
	mov	[C410444E],al
	cmp	[edi],edx
	mov	[B845F1B8],al
	call	C630DA60
	xor	ebx,[ecx]
	loope	00401B41
	lock	
	fdivr	double ptr [ecx+41]
	out	14,al
	push	92
	in	al,E2
	aaa	
	les	ebx,[5CB777B6]
	test	eax,25E1E121
	cmpsb	
	out	dx,al
	jz	00401BB9
	xchg	eax,edx
	loop	00401B82
	loop	00401B7E
	in	eax,E1
	aas	
	sbb	esi,esi
	loope	00401BE8
	pop	ss
	sbb	al,31
	mov	al,[33DFE1E1]
	and	esi,esp
	loop	00401B97
	loop	00401C13
	jmp	ebx
	loop	00401B9D
	illegal	
	or	ecx,edx
	push	cs
	mov	cl,36
	aaa	
	les	ebx,[E202E2FC]
	loop	00401C0F
	xor	esp,ebp
	test	byte ptr [ebp+33],E4
	idiv	byte ptr [ecx-04]
	add	al,B9
	cli	
	sbb	bl,[ebx+eax*2-5E]
	loop	00401BBF
	xchg	eax,ebx
	sbb	al,54
	rol	byte ptr [edi+BEE1DB3F],E9
	loope	00401BA7
	lock	
	loope	00401BAA
	jmp	1D29DAD2
	push	edi
	mov	[D31CE2E2],al
	loope	00401BDA
	loope	00401C17
	imul	esp,[edx-1E],1A3344E2
	sti	
	les	esp,[E2E2E2EE]
	pop	esp
	jg	00401C2D
	loope	00401BEF
	jl	00401BDB
	pop	es
	adc	ebp,66
	enter	C4C4,1D
	mov	dh,C4
	xor	eax,E439C4E5
	pop	esp
	fisub	word ptr [eax+33C4E1E1]
	out	2F,al
	push	edi
	loope	00401C91
	das	
	push	edx
	adc	al,26
	pop	esp
	sahf	
	popa	
	loope	00401C15
	mov	edx,esp
	wait	
	push	esi
	mov	[555CE439],al
	pusha	
	loope	00401C21
	les	esi,[ebx+C4E45CC2]
	faddp	st(2),st(0)
	xchg	eax,ebx
	in	al,5C
	mov	fs,[eax-1F]
	loope	00401BF6
	iret	
	arpl	[ebp+705C20CF],bx
	mov	eax,[217EE1E1]
	rcl	dword ptr [edx-38],92
	in	eax,E2
	aaa	
	les	ebx,[E53FC4FA]
	les	eax,[ecx-1C]
	and	[esi+0BD8AE02],ecx
	fsub	st(0),st(3)
	int	03
	pop	esi
	pop	ebx
	into	
	bound	ebx,[BEE1E1A1+eax]
	push	ds
	scasb	
	push	esp
	sbb	al,C2
	mov	eax,[C2A5E1E1]
	sbb	[eax],ah
	loope	00401C70
	scasb	
	adc	bl,[ebp+ebx*8+20]
	loope	00401C77
	sub	dl,[edi-46]
	popf	
	add	bh,bh
	das	
	les	ebx,[3FC4B777]
	in	al,C4
	mov	eax,[C4E535C4]
	aaa	
	out	5C,al
	arpl	[edx-1E],bx
	loop	00401D0E
	frstor	word ptr [ecx]
	loope	00401C97
	pop	eax
	xchg	[esi+33],esi
	shld	edx,eax,cl
	mov	al,E2
	jmp	ebx
	les	ebp,[esi+BEC4A2DC]
	out	A2,al
	aas	
	in	al,C4
	shl	dh,A2
	inc	ecx
	in	al,5C
	retf	
	illegal	
	loope	00401D24
	pop	esp
	mov	ecx,C2E1E120
	fdivrp	st(2),st(0)
	jc	00401CC3
	les	esp,[ebp-5E]
	xchg	eax,esp
	scasb	
	adc	bl,[eax+22]
	loop	00401CCE
	push	edx
	adc	ah,[ebx+5C32226E]
	frstor	word ptr [edx]
	loop	00401CD9
	or	bh,[eax]
	or	eax,00A3F1B6
	sbb	al,1C
	and	cl,ah
	loope	00401CC9
	mov	dl,E5
	mov	[BEE11A33],al
	jmp	00401CEF
	mov	esi,6B1CF6E4
	mov	eax,[C238E1E1]
	shr	ah,cl
	pop	esp
	out	22,al
	loop	00401D01
	adc	cl,[edi]
	sbb	[edx-27],bl
	and	[edi],edi
	cld	
	add	al,B9
	cli	
	sbb	bl,[ebx+edi*2]
	and	ecx,esp
	loope	00401D2D
	pop	ecx
	jmp	00401CE3
	neg	byte ptr [esi+ecx*4]
	popa	
	loope	00401D1C
	loope	00401D53
	inc	ebp
	xor	ebx,[edi]
	neg	byte ptr [ebp+edi*2+60]
	loope	00401D27
	movsd	
	push	edi
	xchg	eax,edx
	xchg	eax,esi
	arpl	[edx],bx
	enter	E159,3F
	in	eax,7C
	loop	00401DB0
	push	7CE1E161
	loop	00401DA0
	xor	ebx,[edi]
	mul	cl
	aas	
	in	eax,F6
	cld	
	add	al,B9
	cli	
	sbb	bl,[esp+ebp*2]
	and	ecx,esp
	loope	00401DC9
	pop	ds
	and	ecx,esp
	loope	00401DA9
	retf	
	sbb	edi,[ebp+C49F431C]
	mov	eax,[26398FA5]
	pop	esp
	mov	[eax],fs
	loope	00401D64
	ret	E541
	jle	00401DBB
	les	edx,edx
	scasb	
	xchg	eax,esi
	push	eax
	loop	00401D73
	loop	00401DEF
	or	[eax-1F],ah
	loope	00401D2E
	push	esi
	outsd	
	fisubr	dword ptr [edi+4452A25B]
	xor	edx,[esi]
	loope	00401DE3
	sbb	al,7C
	loop	00401DC4
	loop	00401D8D
	loop	00401DF1
	xor	edx,[edi]
	les	edi,[ecx]
	sbb	ah,[edx+215CF1B8]
	and	ecx,esp
	loope	00401D93
	nop	
	mov	ch,14
	ret	98DF
	les	edx,[esi+ebx*8+20B75C0B]
	loope	00401DAB
	les	esi,[5C0BDEE5]
	mov	edx,5CE1E120
	hlt	
	and	cl,ah
	loope	00401DE7
	fdiv	double ptr [eax]
	push	gs
	shl	byte ptr [esi+616B1C54],E1
	loope	00401D8C
	sub	byte ptr [ecx-1F],E1
	shr	[ecx+eax+0144ECEB],cl
	jmp	00401DDE
	cmp	dl,[edx+edx*4-1C]
	loop	00401DB4
	jns	00401DB5
	push	esp
	xchg	eax,edx
	in	eax,E2
	aaa	
	pop	esp
	lodsd	
	lahf	
	loope	00401DE8
	xchg	eax,edx
	and	edi,esp
	push	ecx
	imul	ebx,[edi-52],12
	mov	al,D6
	movsd	
	inc	ebx
	bound	ebx,[edi+54B8E1E1]
	xchg	eax,edx
	jcxz	00401DFF
	aaa	
	les	ebx,[465CF27C]
	lahf	
	loope	00401E08
	dec	edx
	add	eax,3314706F
	retf	
	pushf	
	xor	al,A4
	push	esp
	movsd	
	inc	ebx
	fcomp	dword ptr [edi+3FE1E1E1]
	sbb	al,E1
	aas	
	pop	ss
	sbb	al,81
	popa	
	loope	00401E24
	les	esi,[F132C41A]
	pop	esp
	lahf	
	loope	00401E2F
	ja	00401E0D
	fdivr	double ptr [ebx+16E12B85]
	inc	ebp
	xor	ebx,[esi]
	test	byte ptr [ebp+33],1F
	idiv	byte ptr [edx+7C]
	loop	00401EBF
	shl	dword ptr [ecx+2778E1E1],01
	and	[ecx+D655FD1D],edi
	les	edx,ebx
	mov	ecx,E5925479
	loop	00401EAF
	les	ebx,[5F825CB7]
	loope	00401E61
	xor	[esi+77DDE8E5],ebx
	xor	dword ptr [edi],13C21DC4
	adc	eax,A5E27CB6
	les	edx,cs:[edx+eax*2]
	pop	edx
	loope	00401E7B
	loop	00401E7D
	jl	00401EBF
	pop	esp
	popa	
	illegal	
	loope	00401E6B
	pop	esp
	sbb	edx,esp
	loop	00401E8A
	imul	ebx,[ebp+56],3B
	stosd	
	xchg	eax,esi
	adc	al,38
	mov	[edx+A2925256],fs
	xor	al,A4
	push	esp
	pop	esp
	sbb	edi,E1
	loope	00401E91
	inc	ecx
	sbb	[ebx-06],eax
	aaa	
	jo	00401E68
	xchg	eax,edx
	les	esp,ebx
	add	al,A2
	xchg	eax,edx
	pop	esp
	xchg	eax,ecx
	mov	al,[62DCE1E1]
	scasb	
	adc	bh,[eax]
	ret	E393
	xor	dh,[eax+CC5C2135]
	mov	al,[0FF4E1E1]
	insb	
	inc	ebp
	add	dh,[eax]
	loop	00401E8F
	inc	ebx
	popa	
	popa	
	loope	00401ED0
	das	
	and	byte ptr [eax+D2B0B4F6],3F
	fadd	st(0),st(4)
	mov	bl,EB
	mov	[CFA53892],al
	in	eax,F4
	les	esi,[ebx+C791DCE9]
	popa	
	lock	
	mov	bl,8B
	inc	ebp
	sbb	dl,[esp+edi*2+22]
	inc	ebp
	xor	esp,[eax]
	test	byte ptr [ebp+33],1F
	idiv	ah
	add	al,B9
	cli	
	sbb	bl,[esi+edi*4]
	mov	al,[A6FCE1E1]
	movsb	
	dec	esi
	neg	byte ptr [ecx+edx*8]
	loopne	00401F0E
	loope	00401F8B
	sub	ah,cl
	loope	00401F14
	xlat	
	mov	[edx+0F],bl
	mov	byte ptr [ebx+esi+18],C4
	xor	ebx,[6D5C23DC]
	and	cl,ah
	loope	00401F3A
	push	edx
	sbb	al,A5
	push	edx
	sbb	ah,[ebp+42E4CFA5]
	pop	esp
	xor	eax,5CE2E278
	sub	[eax],ah
	loope	00401F3B
	call	07132CE5
	push	cs
	illegal	
	sbb	al,AD
	mov	al,[CCFCE1E1]
	cld	
	mov	[C01CF61F],al
	loopne	00401F52
	loope	00401F54
	push	ss
	push	esp
	xchg	eax,edx
	in	al,E2
	pop	esp
	shl	eax,01
	loope	00401F5E
	sub	edi,[esi+ecx*8+2B]
	dec	eax
	pop	esp
	pop	eax
	push	ss
	fsub	st(0),st(3)
	jmp	00401F62
	jcxz	00401F77
	cdq	
	push	edx
	fsub	st(0),st(3)
	jmp	00401F37
	fcom	st(0),st(6)
	pop	esp
	pusha	
	lahf	
	loope	00401F7A
	cli	
	fist	word ptr [edx+ebx*8+07A49D8F]
	loope	00401FE2
	sbb	esi,[esi+E1DF801C]
	loope	00401F8A
	xor	esp,[ecx]
	jcxz	00401F91
	loop	00401F93
	movsd	
	add	ebx,[F6E1E1E0]
	loope	00401FF9
	pop	ss
	pop	esp
	sbb	eax,esp
	loope	00401FA1
	adc	[edi],cl
	retf	1A09
	stosb	
	mov	esi,37E2E592
	les	ebx,[7CE43FE1]
	loope	00401FCF
	add	al,B9
	cli	
	sbb	bl,[eax+edx*4]
	pusha	
	loope	00401FBD
	cld	
	fisubr	dword ptr [ebx+eax+60185C57]
	loope	00401FC7
	fst	dword ptr [eax+ebp*2+6E]
	test	dword ptr [ebx+33C4B74B],E733ACE5
	inc	esp
	xor	esp,ebp
	inc	esp
	xor	esp,[eax]
	add	al,[ecx-1A]
	loop	00401FA4
	add	ebp,[esi+A5E1E19F]
	pop	dword ptr [ebx]
	out	44,al
	xor	esp,[ecx]
	les	edi,[edi]
	in	al,5C
	cmp	esp,[ecx-1F]
	loope	00401FF2
	hlt	
	pushf	
	jl	00401FDC
	sbb	eax,35C4B777
	out	C4,al
	aas	
	in	eax,C4
	inc	ecx
	in	al,DE
	or	ebx,[ebx+esi*8-5F]
	loope	0040200C
	pop	ss
	sub	eax,03A5A682
	jbe	00402053
	loope	00402016
	loope	00402076
	sbb	bl,[E1E1E1E1+eax*2]
	aas	
	sbb	ecx,esp
	aas	
	sbb	bl,[eax+eax*2]
	loopne	00402028
	loope	004020A5
	sub	esp,eax
	loope	0040202E
	jo	00402077
	and	ebx,[ebp+73]
	lock	
	mov	[ebx],esp
	cli	
	inc	ecx
	pop	edi
	or	byte ptr [ebx],CF
	inc	ecx
	add	ch,09
	dec	ebx
	xor	ch,cl
	push	00
	mov	dh,02
	mov	esi,eax
	sub	cl,bl
	jo	004029B1
	xchg	ch,ch
	jmp	00402077
	jno	004029B1
	xchg	eax,edi
	xor	ah,ch
	mov	[0C8789D8],al

fn00402083()
	xchg	[esp],ecx
	xchg	edx,edx
	push	ebx
	pop	ebx
	pop	ecx
	add	eax,[eax+3C]
	or	bh,dh
	xor	bh,dh
	xor	ebx,ecx
	sub	bh,ah
	mov	bh,ch
	mov	bl,dl
	jbe	00402697

l004020A0:
	jl	004020A2

l004020A2:
	xchg	dl,dl
	ja	00402697

l004020AA:
	jno	004020E2

l004020AC:
	adc	[ecx+CBFE9FB7],ch

fn004020AE()
	mov	bh,9F
	dec	bl

fn004020B2()
	sub	esi,eax
	add	bl,2C
	xor	bl,dh
	xor	bh,dh
	add	bl,dl
	call	00402BC7
	dec	edx
	insd	
	xor	al,E6

fn004020C6()
	sub	dh,ch
	dec	ebx
	mov	dh,dl
	xor	bl,cl
	push	dword ptr [ecx]
	adc	bh,EE
	add	dh,cl
	dec	dl
	add	bh,dl
	add	bl,BC
	jmp	0040256F
004020E0 B0 EB                                           ..             

l004020E2:
	mov	[ebx+F640D92B],cs

fn004020E4()
	sub	ebx,ecx
	inc	eax
	not	cl

fn004020E8()
	sar	esi,01
	int	8B
	retf	
	dec	ch
	inc	eax
	sub	ecx,ebx
	jc	00402E4E
	lea	dx,[edx]
	push	edi
	pop	edi
	jnc	00402E4E
	les	esp,[eax]
	and	ah,[esi-71]

fn00402107()
	pop	dword ptr [esp-24]
	add	bl,89
	inc	bh
	dec	ebx
	add	bl,77
	sbb	bl,09
	or	edi,edx
	xor	bh,cl
	mov	edi,ecx
	dec	bh
	call	00402410
	cmp	[edx+152532E0],bh

fn0040212A()
	adc	ch,2C
	mov	edx,eax
	add	ebx,ecx
	or	eax,ebx
	sub	ch,dl
	or	esi,edx
	not	bl
	jmp	0040291C
0040213E                                           78 5F               x_
00402140 57 C8 60 C0 D4 DF                               W.`...         

fn00402146()
	xchg	[esp],edi
	xchg	cl,cl
	mov	esi,esi
	pop	edi
	add	eax,ebx
	dec	bh
	or	bl,dl
	neg	bl
	jmp	004020AE
0040215B                                  71 1A D0 8B 17            q....
00402160 3A E0                                           :.             

fn00402162()
	lea	esp,[esp+04]
	inc	esi
	dec	esi
	add	bh,ch
	add	eax,ecx
	or	bh,bl
	jo	00402AB7

l00402174:
	rep	
	jbe	00402177
	jno	00402AB7
	or	ebx,eax
	dec	eax
	enter	34D5,97
	cli	

l00402185:
	or	ah,bl
	sub	esi,eax
	not	bl
	add	dl,bh
	sub	al,ch
	xor	ebx,ecx
	jmp	00402A62
00402196                   98 0B DB 36 09 1A                   ...6..   

l0040219C:
	xor	bh,dl
	xor	bh,dh
	dec	ch
	xor	ch,bh
	sub	al,cl
	inc	ebx
	sub	bh,bl
	inc	ah
	dec	ah
	neg	bh
	jc	004020E4

l004021B5:
	jmp	004021BB
004021BA                               9D                          .    

l004021BB:
	mov	bh,bh
	jnc	004020E4

l004021C3:
	rol	dword ptr [ebx+5F],B7
	or	bl,dl
	or	edi,eax
	add	bl,al
	neg	bh
	dec	edi
	or	esi,eax
	add	bl,CD
	sub	esi,edi
	add	bl,92
	xor	esi,ebx
	call	00402C21
	mov	esi,[ecx+02A24A7E]

fn004021E6()
	add	bh,al

l004021E7:
	clc	
	dec	edi
	or	esi,ebx
	sub	bh,al
	not	bh
	neg	bl
	mov	bl,dl
	or	edi,eax
	call	00402F82
	cdq	
	retf	
004021FC                                     E2 A3                   .. 

fn004021FE()
	lea	esp,[esp+04]
	mov	al,bh
	mov	al,49
	add	eax,ecx
	not	cl
	adc	ah,79
	mov	eax,ebx
	mov	ch,dh
	jl	00402479

l00402217:
	mov	bl,bl
	mov	bx,bx
	jge	00402479

l00402222:
	sbb	al,ED
	xchg	eax,edx
	and	al,C5

fn00402227()
	xchg	[esp],ebx
	push	cx
	pop	cx
	pop	ebx
	or	bh,dh
	neg	bh
	or	ecx,ebx
	xor	cl,dl
	mov	edi,edx
	or	esi,edx
	jo	0040265C

l00402241:
	jmp	00402246

l00402246:
	jno	0040265C

l0040224C:
	adc	dword ptr [esi+E70A48F9],CA0BEE02

fn00402250()
	or	ah,bh
	add	ch,dh
	or	ecx,edx
	or	ecx,edx
	not	ch
	dec	edi
	mov	edi,esi
	sub	al,ah
	adc	bh,5F
	jbe	0040253D

fn00402268()
	xchg	eax,eax
	jle	0040226C

l0040226C:
	ja	0040253D

l00402272:
	mov	cs,di
	out	8D,al
	push	es
	out	dx,al

fn00402278()
	xor	ecx,eax
	sub	al,dh
	xor	eax,edi
	dec	ecx
	not	ch
	or	eax,edi
	or	ah,bl
	ror	bl,0E
	sub	al,dl
	call	00402936
	pusha	
	rcr	dl,3D
	imul	ebx,[edx+5A],800FE1C1

fn00402296()
	shl	ecx,0F
	add	dl,F4

fn0040229A()
	ret	F6F4
0040229D                                        DE 32 D4              .2.
004022A0 F6 DB F6 D7 FE CF 32 DA E9 7A 05 00 00          ......2..z...  
004022AD                                        62 0C 5B              b.[
004022B0 36 03 8C 38 A7                                  6..8.          

fn004022B5()
	inc	esi
	mov	ecx,eax
	sub	eax,edx
	mov	al,1A
	dec	cl
	add	ecx,edi
	dec	al
	dec	eax
	add	cl,0E
	jmp	0040276C
004022CB                                  21 76 36 A4 B0            !v6..
004022D0 D7 19                                           ..             

fn004022D2()
	lea	eax,[eax+78]
	inc	edi
	xor	edi,esi
	add	bh,61
	dec	bh
	xor	bl,ah
	inc	esi
	mov	bl,ch
	add	bl,bh
	sub	edi,ecx
	jmp	00402E9E
004022EB                                  1A 58 66 CA 4A            .Xf.J

fn004022F0()
	pop	dword ptr [esp-20]
	or	bh,dh
	adc	bh,7F
	mov	bl,0A
	not	bh
	neg	bh
	or	edi,edx
	jmp	004027E4
00402306                   33 FB FC D5 20 01 93 1A 89 0C       3... .....
00402310 24 73 00 74 00 59 4B 2A EF 8B DF FF 70 10 03 F8 $s.t.YK*....p...
00402320 4B F6 D3 FE C3 0A DF E9 4F 09 00 00 D2 44 A9 EE K.......O....D..
00402330 F1 E3                                           ..             

l00402332:
	not	eax
	not	bl
	mov	bh,81
	xor	bh,ch
	add	bl,al
	sub	bh,cl
	neg	bl
	or	edi,esi
	add	bh,dh
	mov	bl,al
	jl	00402C61

l0040234C:
	repne	
	mov	edi,edi
	jge	00402C61
	dec	eax
	stosd	
	les	edi,[esi+24048714]
	push	edi
	pop	edi
	repne	
	pop	eax
	sbb	bl,27
	dec	ah
	dec	ecx
	adc	bl,EF
	neg	ah
	call	00402B53
	xchg	eax,ebp
	or	al,D9
	leave	
	cwde	

fn00402376()
	mov	[esp],edx
	mov	eax,eax
	rep	
	pop	edx
	mov	bh,B5
	neg	bl
	inc	ebx
	sbb	bh,6A
	inc	bh
	mov	edi,ebx
	jmp	0040231B
	push	dword ptr [ebx+4F]
	push	ss
	or	bh,[edi+D02B4F40]

fn00402393()
	sub	edx,eax
	add	edx,ebx
	adc	bh,F6
	neg	bh
	dec	dl
	neg	dl
	movzx	edx,al
	or	bl,ch

l004023A4:
	illegal	
	inc	esi
	illegal	
	illegal	
	clc	

l004023AC:
	mov	dh,5D
	retf	

fn004023AF()
	adc	dh,FC
	or	bl,cl
	mov	eax,ebx
	dec	edi
	mov	dl,35
	dec	edi
	add	eax,ebx
	jmp	00402554
004023C1    62 CC 07 4E 81 0C 57                          b..N..W       

fn004023C8()
	add	eax,esi
	dec	ecx
	not	ch
	xor	ecx,edx
	add	ah,ch
	adc	al,CF
	call	004024BB
	dec	ebp
	xlat	
	illegal	
	inc	ecx
	movsd	
	fmul	double ptr [edx+0AD9F6EF]

fn004023E0()
	mov	ch,bh
	neg	cl
	or	ch,dh
	mov	ecx,ebx
	mov	ecx,edx
	or	ecx,eax
	add	cl,ah
	or	ecx,ebx
	call	0040260A
	mov	ecx,BF780048

fn004023FA()
	xor	edx,ecx
	not	bh
	not	ah
	neg	bh
	mov	ah,F5
	or	esi,edi
	call	00402F11
	xchg	eax,edx
	add	al,8A
	shr	[edi+D424448F],cl

fn00402410()
	pop	dword ptr [esp-2C]

fn00402414()
	or	edi,esi
	or	edi,edx
	mov	bh,bl
	add	bl,3C
	mov	eax,[eax]
	jz	004021E6

fn00402425()
	rep	
	jmp	0040242B
	jnz	004021E6
	and	[ebp+321E63B7],cl

fn00402436()
	xor	ch,cl
	or	ecx,esi
	or	ecx,esi
	cmp	eax,004586FF
	jnz	00402B61

l00402448:
	mov	bh,cl
	mov	edx,esi
	sub	cl,al
	add	bl,FC
	call	00402AD4
	rol	dword ptr [esi],01
	lodsd	
	or	ecx,[edi+80EC2444]

fn0040245A()
	pop	dword ptr [esp-14]
	adc	bh,65

fn0040245F()
	xlat	
	inc	bh
	xor	bl,bh
	inc	bl
	adc	bh,A7
	sbb	bh,3B
	call	00402AF9
	iret	
00402473          BF EF 3D C7 87 57                         ..=..W      

fn00402479()
	neg	al
	sub	ah,bh
	mov	al,dl
	inc	eax
	inc	ecx
	add	ah,54
	neg	cl
	xor	ecx,ebx
	call	00402494
	mov	eax,CF6D36BC
	mov	eax,24648DEC

fn00402494()
	lea	esp,[esp+04]

fn00402497()
	add	al,02
	mov	dword ptr [edx],80D5F6C7
	rcl	dword ptr [esi],01
	not	cl
	xor	ecx,esi
	jpe	004028A4

fn004024AB()
	mov	bl,bl
	jpo	004028A4

l004024B3:
	push	ebx
	inc	edi
	or	cl,cl
	out	ED,al
	in	eax,6E

fn004024BB()
	xchg	[esp],edi
	xchg	al,al
	xchg	di,di
	pop	edi
	sbb	al,6C
	mov	eax,edi
	neg	bl
	jbe	00402A01

l004024D1:
	repne	
	ja	00402A01
	stc	
	and	eax,eax
	xchg	eax,edx
	int	03

fn004024DD()
	add	ecx,eax
	inc	ecx
	or	eax,ebx
	mov	ch,ah
	inc	cl
	sbb	ch,F6
	or	ch,cl
	mov	ah,DA
	call	00402DBE
	out	dx,ax
	lea	edx,[esi]
	rol	dl,cl
	pop	es
	mov	[0424648D],eax

fn004024FA()
	lea	esp,[esp+04]
	dec	ch
	mov	cl,36
	or	ch,bh
	mov	ecx,esi
	add	ah,bh
	mov	eax,esi
	not	cl
	xor	bh,dl
	not	al
	js	00402D0A

l00402516:
	xchg	ah,ah
	jns	00402D0A

l0040251E:
	push	esp
	cmp	eax,[edx-4A]
	xchg	eax,esp

fn00402523()
	or	cl,ah
	add	ah,ch
	sub	cl,ah
	adc	cl,54
	inc	eax
	neg	ch
	inc	ecx
	mov	eax,edi
	jmp	00402B8B
00402537                      2A 73 3B 59 25 AB                 *s;Y%.  

fn0040253D()
	mov	ecx,eax
	dec	edi
	xor	ebx,edi
	inc	ah
	adc	ah,1F
	not	ah
	jmp	00402800
0040254E                                           51 EE               Q.
00402550 11 E3 66 F6                                     ..f.           

l00402554:
	sub	dh,bh
	or	bh,dl
	adc	al,3E
	xor	edi,ecx
	sbb	dl,DE
	add	eax,edi
	xor	ah,dl
	jmp	00402296
00402569                            81 04 1E 68 8A 7C             ...h.|

l0040256F:
	dec	ebx
	xor	ebx,esi
	adc	bh,F2
	not	bh
	xor	dh,dl
	or	dl,bl
	add	ah,84
	mov	bl,7C
	or	esi,edx
	dec	ebx
	jmp	00402EB7
00402588                         76 46 98 9B 8F 44 24 EC         vF...D$.
00402590 B0 B1 FE CA 0A DE FE CC 80 D3 7A 0F 82 C4 02 00 ..........z.....
004025A0 00 F2 0F 83 BD 02 00 00 EF 27 10 E8 6C 24 55    .........'..l$U

fn004025AF()
	sbb	al,2E
	dec	edi
	add	ah,dh
	inc	cl
	or	eax,ecx
	neg	ch
	xor	al,ah
	inc	eax
	jmp	00402523
004025C3          C5 13 6A FF E8 1C D6 37                   ..j....7    

l004025CB:
	mov	esi,edx
	not	bh
	sub	ecx,edx
	or	edi,eax
	inc	cl
	add	esi,edx
	sub	edx,ecx
	add	ch,E4
	neg	dl
	jmp	0040212A
004025E3          4A 62 0B 70 3F F1                         Jb.p?.      

fn004025E9()
	xchg	[esp],ecx
	lea	si,[esi]
	xchg	esi,esi
	pop	ecx
	add	eax,ecx
	mov	al,bl
	add	cl,dh
	add	edi,ebx
	dec	eax
	not	cl
	add	bh,02
	call	00402E1E
	mov	dword ptr [edx],8DB9408C

fn0040260A()
	lea	esp,[esp+04]

fn0040260B()
	and	al,04
	mov	cl,61
	sub	eax,FFBA7901
	sub	ecx,eax
	add	ch,bh
	or	ch,dh
	or	ch,ah
	xor	cl,ah
	or	cl,bh
	add	ecx,eax
	jmp	00402436
00402629                            48 D1 38 00 DA EA D9          H.8....
00402630 12                                              .              

fn00402631()
	pop	dword ptr [esp-34]
	adc	al,9A
	sub	dl,bh
	push	40
	add	al,9F
	add	dh,cl
	adc	cl,22
	add	ch,0C
	xor	ah,bh
	jz	00402D47

l0040264F:
	xchg	eax,eax
	jnz	00402D47

l00402657:
	add	esp,ecx
	in	al,94
	cmp	al,[ecx+000004C2]

fn0040265C()
	add	edx,00000004

fn00402661()
	add	[edx],dh
	fiadd	word ptr [eax+EA8A09C3]
	add	bl,bh
	or	esi,ebx
	jmp	00402A9C
00402672       5D F0 B2 BC 77 B3 B6 87 1C 24 86 F6 5B FE   ]...w....$..[.
00402680 C3 F6 D1 0B DF 03 F8 03 F9 2A CC 40 E9 4F 06 00 .........*.@.O..
00402690 00 4F 0D C3 75 B5 29                            .O..u.)        

l00402697:
	xor	bl,ah
	dec	ebx
	xor	edi,ebx
	dec	bl
	or	esi,ecx
	add	bh,bl
	jmp	00402A23
004026A7                      F6 D1 35 C2 70 7D 83              ..5.p}. 

fn004026AE()
	lea	esp,[esp+04]
	or	cl,bl
	add	bh,dl
	add	esi,edx
	or	ah,dh
	sub	ch,dl
	or	ebx,edx
	call	004027A6
	mov	ebp,41E9B041

fn004026C8()
	neg	bl
	sbb	bl,82
	xor	bl,al
	dec	esi
	or	esi,ecx
	dec	bl
	adc	bl,6D
	add	bl,08
	sub	esi,edi
	jmp	004022D2
004026E1    AA F9 80 EB 59 51                             ....YQ        

l004026E7:
	pop	ecx
	adc	ah,1E
	dec	ebx
	sub	esi,edx
	not	bl
	sub	edi,edx
	xor	al,dh
	xor	al,dh
	sub	bl,cl
	add	esi,ebx
	jo	004023FA

l00402700:
	xchg	bh,bh
	jno	004023FA

l00402708:
	int	4E
	and	[eax+60],dh
	fiadd	dword ptr [eax+D32B0FC5]

fn0040270E()
	add	ch,0F
	sub	edx,ebx
	or	ch,cl
	not	ch
	neg	bh
	dec	dh
	or	dh,ah
	jc	00402BAA

fn0040271E()
	add	byte ptr [edi+86000004],ED

l00402723:
	xchg	ch,ch

fn00402725()
	jnc	00402BAA

fn0040272B()
	illegal	
	sbb	ah,ah
	wait	
	loope	0040277F
	push	2BD8F674
	enter	8043,DF
	xchg	[ebx],esi
	fbstp	tword ptr [eax+D3D480BB]
	mov	ebx,edx
	mov	al,ah
	call	00402679
	inc	esp
	insb	
	sbb	ah,[edi-61]
	insd	
	illegal	

fn00402752()
	dec	dl
	dec	dh
	add	esi,edx
	add	ah,54
	or	bl,cl
	mov	bl,al
	call	004029D8
	push	edi
	jcxz	0040271E

l00402767:
	dec	edi
	movsd	
	and	[0BCE8B26],ebp

l0040276C:
	mov	ecx,esi
	or	eax,ebx

fn0040276F()
	ret	
00402770 33 CB 0A CF 42 80 D1 6F F6 D1 F6 D1 80 D8 B1 80 3...B..o........
00402780 D9 FD E8 67 06 00 00 0F CC C5 72 93 0B C1 32 FE ...g......r...2.
00402790 F6 D5 F6 D7 0B FB 0A C7 FE CC 2B D8 48 FE C3 EB ..........+.H...
004027A0 92 5F 45 5F DA F5                               ._E_..         

fn004027A6()
	pop	dword ptr [esp-0C]
	dec	cl
	inc	ecx
	sbb	dl,D4
	sub	edi,esi
	call	004027B7

fn004027B6()
	add	[eax+4E],al

fn004027B7()
	inc	eax
	dec	esi
	inc	cl
	xor	ch,dl
	jmp	0040294C
004027C2       08 AA 2A F3 61 33 F9 80 C3 CC 80 D7 9B 5A   ..*.a3.......Z
004027D0 2A F9 FE CB 8A FC 8B F2 80 DB 19 E9 E7 F9 FF FF *...............
004027E0 FB 65 9D 1B                                     .e..           

l004027E4:
	mov	edi,ebx
	xor	esi,edx
	dec	bh
	dec	bl
	sub	edi,ebx
	neg	bh
	xor	ebx,edx
	adc	bl,D8
	not	bl
	movzx	ebx,ah
	jmp	0040284A
004027FC                                     EC CA 4B 54             ..KT

fn00402800()
	inc	cl
	add	al,ch
	add	edx,00000AD7
	add	bl,32
	sub	al,dh
	adc	ch,53
	jpe	00402B6D

l00402818:
	xchg	cl,cl
	jpo	00402B6D

l00402820:
	push	7F
	or	edi,eax
	js	004027B6

l00402826:
	xchg	eax,esi

fn00402827()
	add	eax,ecx
	not	ah
	inc	edx
	sub	dl,ch
	not	ah
	mov	dh,bl
	jo	004020C6

l00402838:
	jmp	0040283D

l0040283D:
	jno	004020C6

l00402843:
	jcxz	0040288A

l00402845:
	illegal	
	les	eax,[ecx]
	cmp	al,33

fn0040284A()
	xor	edi,ecx
	mov	esi,ebx
	dec	esi
	shr	eax,10
	mov	edi,eax
	sub	edi,ebx
	add	edi,ecx
	add	eax,edx
	inc	esi
	call	00402146
	fisub	dword ptr [ebx+6A]
	dec	esi
	sub	esi,edi
	retf	C18B
00402869                            49 F6 DD F6 D5 F6 D4          I......
00402870 8B DA F6 DE 8B FE E8 93 FA FF FF 36 6A F8 77 06 ...........6j.w.
00402880 F0                                              .              

l00402881:
	neg	ah
	adc	cl,47
	mov	cl,E3
	adc	al,21

fn0040288A()
	and	[ebp+F6CA2AE3],esi
	illegal	
	add	eax,ecx
	add	bl,E3
	not	ah
	call	00402B1D

fn0040289D()
	wait	
	xchg	eax,esi
	insd	
	mov	bh,1E
	add	al,E6

fn004028A4()
	sub	ecx,edx
	or	ah,dl
	xor	ecx,edx
	sub	al,dl
	mov	ecx,esi
	xor	ecx,esi
	neg	ch
	mov	[edx],bl
	or	ah,bl
	jmp	004024DD
004028BB                                  83 5D DE 4C 2A            .].L*

fn004028C0()
	pop	dword ptr [esp-0C]
	add	bl,ah
	or	bl,cl
	sub	esi,ebx
	sub	ebx,esi
	add	bh,4B
	sbb	dl,48
	neg	bh
	jmp	00402393
004028D9                            3C 18 96 FA B4 C7             <.....

fn004028DF()
	lea	esp,[esp+04]
	not	al
	add	ch,C9
	mov	al,AC
	inc	ecx
	adc	cl,AA
	inc	al
	sub	cl,ch
	sub	eax,edx
	jmp	00402881
004028F6                   44 92 04 2B 10 6B 8E 8C             D..+.k.. 

l004028FE:
	xor	ebx,ecx
	xor	ch,bh
	inc	bh
	adc	ch,1E
	or	ebx,edi
	inc	cl
	sub	dh,bl
	add	dh,18
	jmp	0040270E
00402915                3D AD FC B4 E1 03 7D                  =.....}   

l0040291C:
	add	ch,cl
	inc	edi
	or	edi,edx
	sbb	ah,DB
	dec	ebx
	not	ch
	adc	al,29
	inc	al
	jmp	00402ED2
00402931    D9 9F A9 0A 8F                                .....         

fn00402936()
	lea	esp,[esp+04]
	not	ah
	xor	eax,esi
	inc	ecx
	sub	ecx,eax
	dec	eax
	inc	ecx
	call	004021FE
	repne	
	illegal	
	jbe	00402947

fn0040294C()
	dec	bl
	xor	dl,ah
	xor	edi,edx
	neg	al
	not	dl
	xor	ah,bh
	jle	004026E7

l0040295E:
	push	si
	pop	si
	rep	
	jg	004026E7
	push	D9224FD4

fn0040296F()
	xchg	[esp],ecx
	jmp	00402978
00402977                      3C                                <       

l00402978:
	repne	
	pop	ecx
	sbb	dh,99
	adc	bh,19
	inc	ecx
	add	cl,DF
	dec	cl
	or	ebx,edx
	js	00402059
	xchg	al,al
	jns	00402059
	or	ch,[edx+9458B62C]
	mov	dword ptr [eax-75],8BDE32CF

fn0040299E()
	mov	ecx,edi
	xor	bl,dh
	mov	edi,ebx
	dec	ecx
	xor	cl,dl
	push	edx
	call	004024FA
	cwde	
	aaa	
	dec	ebp

fn004029B0()
	in	al,dx
	xor	esi,eax
	neg	bh
	or	cl,bl
	mov	dl,dh
	mov	edi,ebx
	dec	ebx
	sub	dl,cl
	dec	bh
	or	dh,dl
	call	eax
	jbe	004028FE

l004029CA:
	lea	eax,[eax]
	ja	004028FE

l004029D2:
	rcl	byte ptr [ecx-46],E7
	push	ebx
	and	cl,[ebp+2B042464]

fn004029D8()
	lea	esp,[esp+04]
	sub	ebx,edx

fn004029DD()
	fisubr	dword ptr [edx]
	illegal	
	sar	dh,01
	into	
	mov	ebx,edi
	inc	ah
	jo	00402C3D

l004029EE:
	lea	cx,[ecx]
	xchg	dx,dx
	jno	00402C3D

l004029FA:
	inc	ecx
	xor	al,F3
	loopne	004029B0

fn004029FF()
	scasb	
	mov	eax,[EA02CB2B]

l00402A01:
	sub	ecx,ebx
	add	ch,dl

fn00402A05()
	not	ch
	neg	cl
	not	al
	add	cl,ah
	neg	cl
	add	al,83
	adc	al,7D
	add	ch,ah
	jmp	00402278
00402A1C                                     55 9D B5 8B             U...
00402A20 4B 78 08                                        Kx.            

l00402A23:
	add	esi,eax
	adc	bh,71
	adc	bh,CA
	add	bh,ah
	or	bl,cl
	sbb	bh,A9
	jle	00402C99

l00402A38:
	xchg	si,si
	jg	00402C99

l00402A41:
	push	es
	int	03
	push	ecx
	and	al,C3
	inc	bl
	sub	bl,ch
	sub	bl,ah
	add	edi,ecx
	add	bl,dl
	dec	ebx
	mov	eax,ecx
	sub	bl,bh
	adc	bh,DA
	jmp	00402C05
00402A5D                                        AA 7D 63              .}c
00402A60 1B 0B                                           ..             

l00402A62:
	xor	edx,eax
	xor	esi,edx
	inc	dl
	adc	cl,2A
	xor	edi,ecx
	xor	dh,bl
	adc	dh,93
	xor	esi,ecx
	call	00402B3C
	popf	
	inc	esp
	add	byte ptr [esi+ebp+C00B57C6],0F

fn00402A80()
	or	eax,eax
	jnz	00402F1A
	sbb	bl,F3
	dec	edi
	or	ebx,esi
	not	bh
	add	bh,bl
	jmp	00402A46
	mov	al,[3A3FD466]
	xor	al,CC
	mov	bl,0B

fn00402A9C()
	or	edi,ebx
	xor	esi,edx
	xor	ebx,edx
	sub	bh,dl
	dec	ecx
	mov	cl,F8
	mov	bl,36
	mov	eax,[edx]
	xor	bh,bl
	call	0040296F
	push	esp
	retf	
	or	esi,eax
	push	eax

l00402AB7:
	xor	bh,al
	add	bh,E8
	xor	bl,bh
	add	bh,ch
	inc	edi
	dec	edi
	sbb	bl,45
	neg	bl
	mov	bl,al
	dec	bh
	call	00402376
	mov	[edi+34877ABA],bh

fn00402AD4()
	xchg	[esp],esi
	repne	
	mov	bh,bh
	pop	esi
	sbb	cl,02
	dec	bh
	sbb	al,E2
	jbe	00402185

l00402AE9:
	jmp	00402AEE

l00402AEE:
	ja	00402185

l00402AF4:
	push	ebp
	ret	
00402AF6                   34 E6 A9                            4..      

fn00402AF9()
	xchg	[esp],ebx
	lea	edi,[edi]
	jmp	00402B04
00402B03          84                                        .           

l00402B04:
	pop	ebx
	add	esi,edi
	mov	bh,B7
	mov	ebx,eax
	add	bh,bl
	add	bl,0F
	jmp	00402332
00402B15                6D 70 18 92 C1 E6 FB 99               mp......  

fn00402B1D()
	pop	dword ptr [esp-18]
	xor	al,cl
	mov	cl,A0
	xor	ecx,eax
	add	ch,5A
	not	ah
	xor	ecx,ebx
	sub	cl,ah
	adc	al,62
	jmp	004023C8
00402B38                         0D D3 89 BF                     ....   

fn00402B3C()
	mov	[esp],esi
	repne	
	pop	esi
	or	ecx,edi
	ret	
	inc	eax
	mov	edx,esi
	call	0040258C
	rcr	[edx-47],cl
	jpe	00402AD5
	sbb	dl,al
	xchg	[esp],ebx
	rep	
	pop	ebx
	neg	bh
	inc	cl
	dec	ecx
	xor	ch,dl
	dec	al

fn00402B61()
	sub	eax,edx
	dec	ecx
	jmp	0040219C
00402B69                            B4 1C E5 28                   ...(  

l00402B6D:
	sbb	bl,A7
	xor	ch,bl
	add	ebx,edx
	or	al,dh
	add	cl,3B
	sbb	bh,97
	sub	edi,edx
	jmp	0040299E
00402B83          C6 24 AA C5 BA 6B 45 E3                   .$...kE.    

fn00402B8B()
	inc	ch
	or	cl,bh
	xor	ecx,ebx
	inc	ch
	add	cl,9F
	xor	ecx,ebx
	add	ch,61
	or	ch,ah
	mov	ecx,esi
	dec	ecx
	jmp	004023E0
00402BA5                81 86 3F 37 56                        ..?7V     

fn00402BAA()
	or	bl,bh
	mov	dh,85
	mov	ecx,eax
	mov	[esp-08],eax
	mov	dh,bh
	inc	edi
	mov	ch,ah
	inc	esi
	jmp	004025CB
00402BBF                                              10                .
00402BC0 58 E3 67 49 3A 86 4C                            X.gI:.L        

fn00402BC7()
	lea	esp,[esp+04]
	neg	bh
	dec	bh
	or	bl,cl
	or	esi,edx
	dec	bl
	xor	eax,FFFFFEC8
	xor	edi,esi
	call	00402D88
	illegal	
	out	E4,al
	xor	[eax-72],ebp

fn00402BE8()
	adc	bl,40
	or	bh,al
	adc	bl,54
	neg	al
	not	cl
	adc	al,A9
	not	ah
	call	004025E9
	inc	ebp
	rcr	dword ptr [ebp+ecx+F69AFD68],01

fn00402C05()
	not	bh
	add	esi,edi
	sub	ebx,esi
	inc	edi
	not	bh
	dec	bh
	inc	edi
	add	bl,E1
	call	00402083
	nop	
	and	dword ptr [eax+A4DAB95C],24448FFC

fn00402C21()
	pop	dword ptr [esp-28]

fn00402C24()
	fadd	dword ptr [ebx]
	rol	dword ptr [ebx],01
	cli	
	add	esi,eax
	not	bl
	mov	ecx,eax
	dec	ebx
	call	00402227

fn00402C35()
	adc	dword ptr [esi+27],E70447A0
	outsd	

fn00402C3D()
	shr	ecx,0F
	add	edx,ecx
	not	bh
	add	bh,ah
	sub	dl,ah
	dec	bh
	or	eax,ebx
	jbe	004023AF

l00402C52:
	lea	edi,[edi]
	xchg	bh,bh
	ja	004023AF

l00402C5C:
	popa	
	pop	ebx
	xor	eax,[ebp-03]

fn00402C61()
	sub	bl,bh
	sub	ebx,esi
	or	esi,edi
	mov	bl,bh
	xor	edi,ecx
	adc	bl,AB
	add	bl,cl
	jmp	00402A80
00402C75                93 F6 BE 72 A2 DA 2A FD 0A DA 32      ...r..*...2
00402C80 FB 32 F9 33 D9 80 DF 4D 33 F1 FE C3 FE CF E9 34 .2.3...M3......4
00402C90 FB FF FF 7B EF C7 0C BF E8                      ...{.....      

l00402C99:
	lea	edx,[eax+000000F8]
	not	bh
	mov	bh,ch
	sub	ebx,edx
	inc	bh
	sbb	bh,3D
	add	ebx,edi
	mov	esi,ebx
	neg	bh
	xor	ebx,edx
	jo	00402F33

l00402CB8:
	push	esi
	pop	esi
	jno	00402F33

l00402CC0:
	rep	
	dec	ebp
	clc	
	or	[edx+33],bh
	retf	D7F6
	add	bl,85
	add	bl,dh
	mov	bl,5F
	dec	bl
	inc	eax
	or	cl,ch
	call	0040235A
	cmp	eax,4FAB2D72
	ja	00402CA0
	lds	ecx,[ebx+eax-75]
	or	al,ch
	or	ecx,esi
	mov	al,F1
	mov	ah,F1
	neg	al
	dec	bh
	add	cl,E0
	jpe	00402F5A
	jmp	00402D00
	pop	esi
	jpo	00402F5A
	nop	
	pop	ebp
	cmp	[edi+D3F6C9FE],dh

fn00402D0A()
	dec	cl
	not	bl
	or	edi,eax
	sub	cl,ah
	sub	edx,00000AD7
	mov	eax,ebx
	mov	cl,al
	call	00402DA1
	shl	[ecx-01],cl
	add	al,[edi]
	mov	[DE8001A2],eax

fn00402D29()
	sbb	dh,3A

fn00402D2B()
	cmp	dh,dh
	fimul	dword ptr [ebx+33FB2BCA]
	iret	
00402D34             03 D6 2A F0 FE CE E8 F2 F8 FF FF 1E     ..*.........
00402D40 D1 2A 74 E2 30 10 B6                            .*t.0..        

fn00402D47()
	xor	dh,dl
	sub	al,dl
	mov	ebx,edi
	xor	edi,ecx
	mov	al,dl
	sub	dh,bh
	add	al,70
	js	00402EF2

l00402D5C:
	xchg	bh,bh
	push	esi
	pop	esi
	jns	00402EF2

l00402D66:
	mov	eax,2BF12652

fn00402D6B()
	sub	esi,eax
	inc	bh
	push	dword ptr [edx+08]
	xor	bl,dl
	not	bh
	adc	bh,DE
	add	edi,edx
	dec	bl
	jmp	004026C8
00402D82       83 4C 1E 1B B3 09                           .L....       

fn00402D88()
	lea	esp,[esp+04]
	or	esi,edx
	mov	bh,ch
	dec	edi
	dec	edi
	sub	bh,dl
	call	0040245A
	sub	ch,[ebx]
	pop	eax
	add	edi,[edi+0E]
	cmpsd	
	aam	89

fn00402DA1()
	mov	[esp],ebx
	repne	
	pop	ebx
	xor	ebx,esi
	neg	al
	not	bh
	add	ecx,edi
	add	ah,04
	jmp	0040278C
	fild	qword ptr [eax+52A02C53]
	sbb	al,35

fn00402DBE()
	mov	[esp],ecx
	xchg	di,di
	jmp	00402DCA
00402DC9                            C1                            .     

l00402DCA:
	pop	ecx
	xor	eax,ebx
	xor	ecx,eax
	xor	ecx,edx
	dec	cl
	mov	eax,esi
	neg	al
	mov	ch,dl
	jl	004022B5

l00402DDF:
	repne	
	push	edx
	pop	edx
	jge	004022B5
	rep	
	cdq	
	and	edi,[edx+34872C58]

fn00402DEE()
	xchg	[esp],esi
	push	di
	pop	di
	jmp	00402DFB
00402DFA                               ED                          .    

l00402DFB:
	pop	esi
	inc	al
	add	ah,cl
	sub	eax,edi
	inc	cl
	or	eax,ecx
	dec	eax
	or	ecx,edi
	jle	004025AF

l00402E0F:
	mov	dx,dx
	jg	004025AF

l00402E18:
	int	03
	adc	al,8F
	rcl	byte ptr [ebx-79],01

fn00402E1E()
	xchg	[esp],ebx

fn00402E1F()
	sbb	al,24
	xchg	dx,dx
	pop	ebx
	add	ecx,edx
	sbb	al,18
	inc	bh
	mov	al,67
	xor	ebx,esi
	add	ecx,edi
	jc	00402250

fn00402E38()
	ja	00402E3A

l00402E3A:
	jmp	00402E40
00402E3F                                              95                .

l00402E40:
	jnc	00402250

l00402E46:
	aam	68
	illegal	
	cmp	[1E8AAB2F],ch

fn00402E4E()
	mov	bl,[esi]
	dec	cl
	inc	ecx
	mov	al,dl
	adc	ah,53
	add	eax,edi
	xor	eax,edi
	dec	ch
	jpe	00402E81

l00402E60:
	repne	
	mov	bh,bh
	jpo	00402E81
	push	esi
	push	CBFE5A0E

l00402E69:
	dec	bl
	add	eax,08
	neg	bl
	sbb	bl,E0
	sub	bl,dh
	xor	ebx,edi
	call	00402107
	push	ebx
	sbb	bl,[eax+F1B49F02]

fn00402E81()
	mov	ah,F1
	dec	ecx
	mov	al,bl
	or	al,cl
	inc	eax
	mov	eax,ebx
	adc	ah,18
	add	ch,23
	dec	ecx
	not	bl
	call	004028DF

fn00402E99()
	cmp	[ecx+8BE0CBC2],cl

l00402E9E:
	mov	ebx,ecx

l00402E9F:
	fdecstp	st(6),st(0)
	xlat	
	mov	bh,89
	inc	bl
	or	bh,cl
	inc	bl
	mov	bh,dh
	sub	bh,al
	add	bl,ah
	jmp	00402E69
00402EB2       94 10 C1 6E 4E                              ...nN        

l00402EB7:
	sub	edi,ebx
	inc	edx
	add	dh,cl
	or	bh,dl
	neg	al
	pop	eax
	neg	dh
	sbb	bh,F7
	dec	edx
	call	004028C0
	sti	
	retf	
00402ECE                                           91 DD               ..
00402ED0 7A 68                                           zh             

l00402ED2:
	xor	cl,bh
	xor	ebx,edx
	mov	bl,cl
	mov	ch,B2
	not	bl
	pop	esi
	jc	00402BE8

l00402EE3:
	mov	ecx,ecx
	jnc	00402BE8

l00402EEB:
	push	cs
	in	al,dx
	and	al,[edi+2A1B4D56]

l00402EF2:
	sub	bl,ah

fn00402EF3()
	fmul	double ptr [ebx+300068DA]

fn00402EF4()
	mov	ebx,edx
	push	00003000

fn00402EF9()
	add	[eax],al

fn00402EFB()
	xor	esi,ebx
	mov	al,dl
	or	eax,ebx
	add	edx,esi
	mov	bl,E4
	mov	dl,AF
	call	004026AE
	jno	00402EF9

fn00402F0E()
	mov	ebx,[ebx+edx-77]

fn00402F11()
	mov	[esp],ecx

fn00402F12()
	or	al,24
	xchg	cl,cl
	pop	ecx
	sbb	al,A3

fn00402F1A()
	dec	ecx
	dec	ebx
	neg	dl
	jz	00402752

fn00402F24()
	repne	
	jnz	00402752
	jg	00402EE9
	into	
	xchg	eax,edx
	push	ecx
	out	31,al
	sub	eax,C3FEDD32

fn00402F33()
	xor	bl,ch
	inc	bl
	xor	ebx,esi
	inc	bl
	mov	bh,23
	inc	bl
	adc	bl,BC
	jle	00402D6B

l00402F48:
	lea	eax,[eax]
	push	cx
	pop	cx
	jg	00402D6B

l00402F54:
	jge	00402F58

l00402F56:
	and	eax,2B710F2E

l00402F58:
	illegal	
	sub	ebx,ecx

l00402F5B:
	illegal	
	shl	dword ptr [esi+eax+333AD980],CA
	dec	bh
	xor	edi,8B034064
	dec	ebx
	dec	eax
	jpe	00402CC5
	xchg	ch,ch
	jpo	00402CC5
	push	ecx
	jno	00402F7E
	mov	esp,[eax-71]

fn00402F82()
	pop	dword ptr [esp-18]
	neg	bl
	xor	bl,ah
	mov	bh,B1
	inc	ebx
	or	bl,dl
	mov	bh,90
	call	00402162
	mov	al,07
	out	B8,al
	repne	
	add	[eax],al
	add	[eax],al
	add	[eax],al
	add	[eax],al
	add	[eax],al
	add	[eax],al
	add	[eax],al
	add	[eax],al
	add	[eax],al
	add	[eax],al
	add	[eax],al
	add	[eax],al
	add	[eax],al
	add	[eax],al
	add	[eax],al
	add	[eax],al
	add	[eax],al
	add	[eax],al
	add	[eax],al
	add	[eax],al
	add	[eax],al
	add	[eax],al
	add	[eax],al
	add	[eax],al
	add	[eax],al
	add	[eax],al
	add	[eax],al
	add	[eax],al
	add	[eax],al
	add	[eax],al
	add	[eax],al
	add	[eax],al
	add	[eax],al
	add	[eax],al
	add	[eax],al
	add	[eax],al
	add	[eax],al
	add	[eax],al
	add	[eax],al
	add	[eax],al
	add	[eax],al
	add	[eax],al
	add	[eax],al
	add	[eax],al
	add	[eax],al
	add	[eax],al
	add	[eax],al
	add	[eax],al
	add	[eax],al
	add	[eax],al
	add	[ebx+00ECFF7C],dh
00403000 B3 7C FF EC 00 D2 A3 2E 93 FF 35 B5 38 2A 00 64 .|........5.8*.d
00403010 54 03 00 FF F1 30 00 C7 62 40 C4 3E 43 44 A9 1B T....0..b@.>CD..
00403020 B2 DE 48 80 0F 2B 36 05 0B 00 9E 00 63 16 1B 56 ..H..+6.....c..V
00403030 38 00 0C 59 5A FE 0D 9D E0 70 FF 00 00 3F B6 3B 8..YZ....p...?.;
00403040 FC E7 00 AC 31 00 C7 4E CD AD 86 FF 6A B8 36 BA ....1..N....j.6.
00403050 EF 00 AD 00 CF DD AB 00 EE 3F 27 5F B8 D3 73 FD .........?'_..s.
00403060 4C 83 16 25 A1 0E 97 B9 A0 FF 33 9D 64 34 FF 00 L..%......3.d4..
00403070 00 00 FF 00 F0 00 F0 FF FF 56 7A 0B 3F C2 24 37 .........Vz.?.$7
00403080 B8 34 7F 00 00 50 52 CE 55 86 EF A9 CB 5F 93 8D .4...PR.U...._..
00403090 8C 00 C4 93 C1 00 00 EA 34 C3 72 82 62 00 59 0D ........4.r.b.Y.
004030A0 FF 7B FC C8 7E 7E 47 17 DF 27 12 16 C3 09 EF 00 .{..~~G..'......
004030B0 03 91 91 71 F1 08 00 44 72 E0 37 BF EB 00 C0 04 ...q...Dr.7.....
004030C0 65 EC F3 47 A8 FF B8 0A 04 82 FF 04 B6 9A F0 70 e..G...........p
004030D0 AF 3D 91 AA CF ED 24 42 33 00 00 58 80 4E 24 DB .=....$B3..X.N$.
004030E0 FE 56 F3 D2 CC FF 0D 00 70 09 FA 31 00 0E 00 8B .V......p..1....
004030F0 F1 6C 38 AF FE FF 00 5A EF 15 1A FF 12 FF 79 57 .l8....Z......yW
00403100 00 BA 00 D6 85 A3 B0 41 9E 27 E4 08 FF 80 20 00 .......A.'.... .
00403110 05 00 00 42 72 C7 FD B5 C5 00 44 CD 0C A2 C1 03 ...Br.....D.....
00403120 DD 1E 88 65 03 06 FF 9F 72 E0 60 23 B1 C8 4E 08 ...e....r.`#..N.
00403130 26 00 FF FE B6 D5 20 69 E2 44 00 00 08 5B 60 5D &..... i.D...[`]
00403140 42 3C 1E 86 F0 3F 66 D1 21 65 6C 58 51 D8 D6 9E B<...?f.!elXQ...
00403150 EF 40 71 F4 54 50 00 76 DE 8A 85 FF F5 B2 D8 8F .@q.TP.v........
00403160 00 C1 62 00 AE 69 11 7A 3B 8C 1E 8A 1C 3E 00 00 ..b..i.z;....>..
00403170 96 24 EA BF 00 80 00 2F E0 96 00 00 0A 30 8F 6A .$...../.....0.j
00403180 5E 9B B0 00 41 FF 00 D6 6C 00 12 69 6C CE 70 59 ^...A...l..il.pY
00403190 2A 51 00 46 BB 17 8B EC 1C 9E E7 46 00 00 EF 58 *Q.F.......F...X
004031A0 49 B3 97 40 18 0A D1 00 DB 55 64 7E 0E DE FF 36 I..@.....Ud~...6
004031B0 00 24 40 00 CD F8 4A FB DE E7 7E 0C 00 0D 00 97 .$@...J...~.....
004031C0 34 FF FF 08 E3 00 18 DB 34 0D 60 00 FA 0C 65 E4 4.......4.`...e.
004031D0 DF 7D 52 2B 19 28 5A CF EA C5 4F 8A 65 4F BF FF .}R+.(Z...O.eO..
004031E0 F7 E3 00 6C D7 FE 6D 69 DA 13 00 CB E2 3B F1 B4 ...l..mi.....;..
004031F0 00 FF E8 75 EE 55 13 EC 8F DC 6C 75 DF 20 02 AE ...u.U....lu. ..
00403200 0B E2 00 71 48 FE C2 87 52 6C 7E B0 95 00 6A 7D ...qH...Rl~...j}
00403210 DD 38 E1 A0 E1 2D 28 33 FD D8 76 6E 02 50 78 29 .8...-(3..vn.Px)
00403220 E1 CC 0B 70 15 A8 5E 0E CC 0A 3B 48 13 00 FB 00 ...p..^...;H....
00403230 C9 CC D3 4B C6 07 4E F3 A4 5A 49 03 F8 FF 07 63 ...K..N..ZI....c
00403240 A3 67 FC 14 00 3C 97 45 6E 4C 1E 40 BF FF 4C CD .g...<.EnL.@..L.
00403250 04 00 E2 FF C4 EB 46 00 48 FF 31 98 47 A4 E0 DD ......F.H.1.G...
00403260 FF 27 B8 38 69 30 80 C7 88 A5 5A 00 C5 62 21 82 .'.8i0....Z..b!.
00403270 D7 CC 00 DB AF 7F 12 4D 30 00 4D A7 00 A8 D4 FA .......M0.M.....
00403280 2E 86 60 49 82 F1 02 BB 00 03 F5 1F 00 61 20 08 ..`I.........a .
00403290 48 00 7D 66 26 B9 63 00 68 C2 00 00 3B 80 31 FF H.}f&.c.h...;.1.
004032A0 1C 00 2C BB C2 03 A6 C0 00 08 6E 43 81 FF 00 8F ..,.......nC....
004032B0 E3 AF 72 E3 00 C3 83 36 36 33 FF 47 FF B7 DC 70 ..r....663.G...p
004032C0 B6 67 FF 00 15 CE 00 C8 D3 DD 00 D6 00 BC 7B 9F .g............{.
004032D0 00 FD 02 FF 7F C2 8E 8B 03 D9 28 01 63 49 61 77 ..........(.cIaw
004032E0 83 1E 09 0A 3C E8 1B 00 EA 49 D3 BD A9 75 77 38 ....<....I...uw8
004032F0 00 80 00 93 60 D4 00 D8 C1 C0 5C 00 27 B8 B8 7F ....`.....\.'...
00403300 49 83 97 D5 20 EA BE 55 C1 0A BC 01 AF 12 32 1F I... ..U......2.
00403310 F7 6E C8 A0 00 19 00 8D 77 1D F0 DD 0A 19 3F CE .n......w.....?.
00403320 00 6E 00 04 34 2F 83 00 71 A7 88 2F A5 1F D6 D8 .n..4/..q../....
00403330 C9 A8 5E 6D 70 D5 C2 FF 68 F1 27 7B E0 F0 92 57 ..^mp...h.'{...W
00403340 68 75 3A 78 81 B1 00 EA 63 D6 F0 C7 17 FF C1 34 hu:x....c......4
00403350 FC 22 8C 4F 9E 12 BC FF 8E 6E 00 4E 00 91 D2 00 .".O.....n.N....
00403360 51 F6 36 2C BE 8D 00 A0 DE 9B CC 96 72 6B 58 F7 Q.6,........rkX.
00403370 00 6E 00 78 91 3E 00 00 8C 01 D5 16 64 8A B6 02 .n.x.>......d...
00403380 59 E8 4B D5 0B 00 2C 74 FF 56 00 00 53 F6 16 9A Y.K...,t.V..S...
00403390 FF 9C CA 41 66 C4 6D 1E D4 2A 36 70 00 F9 7D F4 ...Af.m..*6p..}.
004033A0 33 56 03 01 DD 4D 1E AD 90 1F D0 04 27 F3 A5 3F 3V...M......'..?
004033B0 FF F7 50 F3 20 D6 00 60 26 15 37 9F 2F A3 00 4F ..P. ..`&.7./..O
004033C0 7C 61 2A 00 0F D8 FF 7B 4F 61 9F 20 2B 50 00 1C |a*....{Oa. +P..
004033D0 BB 45 83 B1 6E 00 B7 20 51 10 93 02 8C 6F E0 00 .E..n.. Q....o..
004033E0 6F E3 45 00 B0 24 FB 00 49 9D 4E 20 50 00 F1 46 o.E..$..I.N P..F
004033F0 F0 53 94 7A 00 D4 00 F7 67 33 67 8B 9F 60 00 00 .S.z....g3g..`..
00403400 E0 01 80 FF C2 DC EC FF 3C 3F AE 14 4C C6 8E 69 ........<?..L..i
00403410 29 E9 84 A6 FF 34 8B 85 DB 31 00 19 DF 11 62 3A )....4...1....b:
00403420 FF 44 BC 0B FA C6 48 FF 52 66 00 82 5A B0 59 00 .D....H.Rf..Z.Y.
00403430 FF B9 BB 07 00 77 40 42 D4 71 00 DE 25 45 5D 1B .....w@B.q..%E].
00403440 1F 8F C0 B6 F0 49 45 E1 7D 00 17 2E 06 FC 3A 1D .....IE.}.....:.
00403450 B8 EB D9 95 90 64 CB DF FF 18 72 A3 ED BC 60 49 .....d....r...`I
00403460 5D 39 FF B8 80 6E DC BF 66 00 7F BA D5 FF 71 00 ]9...n..f.....q.
00403470 00 29 43 E1 92 00 9B 31 D2 E6 1E 50 EC 02 EA 3B .)C....1...P...;
00403480 9F 5A 38 C9 78 C6 D3 9B A4 36 76 B7 B7 55 19 FF .Z8.x....6v..U..
00403490 4A BD 54 7E 54 6F B7 B9 26 49 59 83 63 B2 A6 3E J.T~To..&IY.c..>
004034A0 17 F5 00 A3 14 3F F4 88 A3 0F 3B 60 0D 20 D9 58 .....?....;`. .X
004034B0 00 A5 BD 0F 06 DB 76 DE 34 13 A0 E4 C1 2D C0 FF ......v.4....-..
004034C0 86 0D 6A 00 8B E8 CA B9 08 F0 EC D5 02 EF 3E F9 ..j...........>.
004034D0 1A 01 57 23 38 00 0E 1D 96 F5 F5 00 00 87 34 69 ..W#8.........4i
004034E0 FF 68 5D AB 00 1B 50 69 00 4B EA 80 97 00 2F 0B .h]...Pi.K..../.
004034F0 00 CC BC A1 FF 1F E5 84 0E 05 BF FF D0 00 88 0D ................
00403500 00 B4 FC 7A 27 00 36 BD D1 A3 7A 93 45 9F 58 2D ...z'.6...z.E.X-
00403510 9A 36 E5 FF 0C 4C 3A 2D 37 8A 00 DA 51 96 FF A2 .6...L:-7...Q...
00403520 77 D8 C5 FF E0 0C 34 8C 93 67 AC 63 63 25 64 00 w.....4..g.cc%d.
00403530 64 E3 FF 33 3B 0E FF 3F AF 72 00 08 FF 9F 05 DB d..3;..?.r......
00403540 41 72 5E 49 CE 7A 0A 80 F2 30 FF 00 EA 85 5A FF Ar^I.z...0....Z.
00403550 04 80 C9 FD D5 39 6D FD 8D 48 7D 00 A4 06 9F D7 .....9m..H}.....
00403560 07 3D A6 F2 CB 3D 00 90 59 74 BB 00 F5 39 10 39 .=...=..Yt...9.9
00403570 99 CE 3E F6 FE 9A FF 00 00 57 25 BF FC 7B 7E 14 ..>......W%..{~.
00403580 15 A7 4A 42 C2 78 BB BF 00 33 FF 60 B3 E3 DB B4 ..JB.x...3.`....
00403590 99 AE FE 8C 00 D2 D5 B0 71 17 F2 98 E8 D6 E8 83 ........q.......
004035A0 B1 1E 6C 7E B7 49 00 37 F0 50 01 FA C4 C7 B4 B2 ..l~.I.7.P......
004035B0 9B 20 00 00 34 85 00 C2 00 EA 08 67 82 FC 22 A9 . ..4......g..".
004035C0 00 3B DF 38 87 78 F0 00 D4 B3 B0 37 4D CE 00 09 .;.8.x.....7M...
004035D0 81 47 39 04 AE E1 00 4D 00 BD 47 11 00 54 E0 00 .G9....M..G..T..
004035E0 22 D3 3B CE D0 BA 16 B0 00 04 6C EA 1E 18 84 8F ".;.......l.....
004035F0 39 00 36 16 A1 F1 4A 86 F7 00 FE BD 59 4B 78 02 9.6...J.....YKx.
00403600 9F 9F C3 18 91 00 A8 D0 62 90 B4 00 39 F3 14 46 ........b...9..F
00403610 C0 41 CB 91 1D AC 53 09 3E F7 00 BA AD 00 8D A4 .A....S.>.......
00403620 02 F7 CD BE 15 4B A4 2C 65 E6 4B 03 AF A5 AB 0F .....K.,e.K.....
00403630 0D 9D 00 91 03 44 69 F9 93 EC 6D 48 5D BC 0E 77 .....Di...mH]..w
00403640 FC 5E 85 24 9A 30 00 64 2B 96 D7 00 20 2E AF 82 .^.$.0.d+... ...
00403650 9C 2C CA 10 73 00 39 85 84 10 ED E8 9A 9B 72 08 .,..s.9.......r.
00403660 67 81 59 64 60 49 23 F4 8B 38 D2 F8 7C FF B1 78 g.Yd`I#..8..|..x
00403670 CD 00 14 14 00 D9 72 80 2C 38 00 81 97 00 FF 02 ......r.,8......
00403680 E1 FF 00 17 FF 00 D9 92 00 D3 69 FF 12 A0 BF FC ..........i.....
00403690 8B 1C F9 01 BD 00 AA FF 08 00 E1 7C 04 78 FC BE ...........|.x..
004036A0 17 F3 50 10 00 90 D8 25 1F BC 1A E0 F2 50 00 30 ..P....%.....P.0
004036B0 2A 99 85 B1 00 09 2C 38 C5 1E 14 C3 31 F4 7B 6C *.....,8....1.{l
004036C0 20 60 16 F2 D8 EB 20 00 84 8F A1 9F 77 B0 43 6B  `.... .....w.Ck
004036D0 3F 80 93 7A 00 B9 66 49 01 EE 46 AC 00 72 81 00 ?..z..fI..F..r..
004036E0 61 10 9D CC 00 9F 00 F7 54 51 DB 62 A4 00 F5 89 a.......TQ.b....
004036F0 E1 43 BC D2 B7 FF 0E 3C 34 9C F2 CF 4E C8 0B EF .C.....<4...N...
00403700 7F 00 71 2A 00 2C 25 A0 00 5B 79 FF 7C 6C E1 EE ..q*.,%..[y.|l..
00403710 D9 C7 91 06 B1 73 75 E8 28 03 19 AC 00 00 7A 73 .....su.(.....zs
00403720 A3 7A 69 33 01 F7 0B 0B C8 90 00 5F 20 46 85 00 .zi3......._ F..
00403730 84 ED FE 91 C9 62 80 FC 70 60 D3 00 33 82 1C AB .....b..p`..3...
00403740 73 19 00 70 C9 67 7B 91 00 AF AD 5D 24 B5 DE 1B s..p.g{....]$...
00403750 56 98 80 01 EA 65 4F 2A 32 10 6A B2 E5 4A 06 00 V....eO*2.j..J..
00403760 EA 8A 5E B4 7B 18 CD 00 D2 74 B1 02 B1 41 00 7B ..^.{....t...A.{
00403770 FF 9E 78 CF 33 E4 5C 45 0F EC 46 00 3B 1B FB 45 ..x.3.\E..F.;..E
00403780 98 87 00 59 20 00 3A 2C E3 14 27 4D 81 B4 EB 1D ...Y .:,..'M....
00403790 00 02 31 58 50 F8 A4 30 C9 B0 48 84 2C 32 2F FD ..1XP..0..H.,2/.
004037A0 8B 25 0D C7 B0 B5 07 92 F9 18 E8 2B EB 7F 00 AC .%.........+....
004037B0 74 FF D0 DB 78 13 AD F4 0A 54 40 7C E5 32 31 36 t...x....T@|.216
004037C0 0E 7A 00 AB 8D 72 FF F1 00 BC 2E 47 9B 3C 18 B7 .z...r.....G.<..
004037D0 62 D3 62 C1 39 4C 83 00 25 00 00 C6 FF A9 89 2F b.b.9L..%....../
004037E0 A2 61 00 95 B0 54 F4 00 E9 00 62 88 02 34 B4 09 .a...T....b..4..
004037F0 62 EF 00 FF FF 2B 37 A1 B3 04 38 31 AA 3C 37 2A b....+7...81.<7*
00403800 B7 00 6D 0B B6 A3 E5 81 D4 C0 E2 00 84 CD 44 F4 ..m...........D.
00403810 E8 00 28 6F 5A F7 C4 4F 1C 65 88 9E 98 CC 1A FF ..(oZ..O.e......
00403820 33 2F 3E BE 44 3F B0 93 6F C5 33 14 2E C7 72 44 3/>.D?..o.3...rD
00403830 FF EB 24 63 0E FE 8B 81 AF D2 13 ED 06 F3 7A 51 ..$c..........zQ
00403840 60 09 CA D3 DC 00 97 4B A1 31 B4 16 D6 F2 C4 9D `......K.1......
00403850 28 48 FF D8 D8 D8 A3 9A 1F 47 97 F5 BF 9A 16 82 (H.......G......
00403860 DF 6D D9 04 94 60 E5 40 1A F6 3A 34 A5 C5 00 2F .m...`.@..:4.../
00403870 9C B0 1A 5B 77 28 00 CC 68 84 73 43 EA 0F C5 2A ...[w(..h.sC...*
00403880 31 76 00 13 F4 FF CA BF 7D EB 0C 9F F1 A0 B5 D2 1v......}.......
00403890 00 D8 A3 40 F3 00 06 7E CC 3C DE 00 5E 77 E5 ED ...@...~.<..^w..
004038A0 9D 0B 82 FF 98 D0 FB 4C 9C ED C8 48 A5 7F 00 FC .......L...H....
004038B0 00 69 00 2A 23 DF 00 B7 0E 00 99 7F 10 10 C0 1F .i.*#...........
004038C0 B9 41 B5 BB F4 B3 EF D5 06 AD 54 DB 38 31 3B F6 .A........T.81;.
004038D0 EF 1C 80 00 00 3A EB FF 0E 31 40 9F 7E 22 3F 66 .....:...1@.~"?f
004038E0 0B 7C 29 DA 4D EB 79 1B FF 59 0E 8F 2D 36 86 D0 .|).M.y..Y..-6..
004038F0 13 8E FB C4 00 00 B5 70 77 00 47 53 6F 9D 37 00 .......pw.GSo.7.
00403900 5B DB A7 B6 F5 11 A0 EB 8B 34 EF 4F FD 91 00 00 [........4.O....
00403910 48 47 19 14 FF 01 D6 00 00 A2 B8 F0 05 A0 E0 5E HG.............^
00403920 BD 0A 3C 2D 9F 64 10 83 70 40 FA E6 19 D2 D5 DB ..<-.d..p@......
00403930 30 ED 91 9E E3 56 9E 00 A8 39 F6 C9 D1 40 41 60 0....V...9...@A`
00403940 16 8D F1 DB 4E A2 93 FF D1 FA C5 4C 6A 47 CF 54 ....N......LjG.T
00403950 1A 74 7A 00 00 72 71 EA 0B FF A6 28 FB A7 01 02 .tz..rq....(....
00403960 56 08 35 0C 51 07 09 89 B7 DA F8 10 AE FE 1F 81 V.5.Q...........
00403970 AE FF C1 9B DD 4A 88 07 DC BD D4 F0 3C BB 00 00 .....J......<...
00403980 44 2A 63 00 5D F6 E3 60 00 13 EF F8 4A A4 00 04 D*c.]..`....J...
00403990 3C A2 42 48 F1 95 88 B7 00 63 CC 00 3D FF 50 43 <.BH.....c..=.PC
004039A0 17 1C BF 7C 08 3E 00 FF 50 E0 86 E0 0F 02 C2 F8 ...|.>..P.......
004039B0 EB 00 91 3E 94 00 4D 0C D7 00 00 00 00 DF F9 20 ...>..M........ 
004039C0 22 FA 20 2F 7E 65 00 21 24 3C 00 BC BD 80 A0 14 ". /~e.!$<......
004039D0 99 31 00 64 F1 F0 60 E7 46 D7 10 2F 85 5F ED 62 .1.d..`.F../._.b
004039E0 00 67 63 73 28 C2 A3 E7 A3 FF 45 FF 30 A6 0B 2B .gcs(.....E.0..+
004039F0 11 C3 30 61 B1 F1 00 F7 77 92 74 00 9A F5 00 FF ..0a....w.t.....
00403A00 67 17 BC F9 B3 18 E5 32 36 00 6D 8D DD 40 26 8C g......26.m..@&.
00403A10 16 7A 65 FB E4 30 00 CF 8B 1D B8 98 07 00 81 60 .ze..0.........`
00403A20 00 8D 2E 00 FF CE 3C 9C 14 2E 00 F0 90 70 02 32 ......<......p.2
00403A30 FF F5 00 00 E6 4C 00 10 1E 43 B8 FE FC 39 55 F0 .....L...C...9U.
00403A40 4A 06 00 A5 2C 11 82 D3 9F D1 B5 00 FF 33 5C 88 J...,........3\.
00403A50 29 D2 00 00 17 AD CE C2 00 7B 97 26 00 49 5B 1B )........{.&.I[.
00403A60 04 FF 84 6F FC 00 ED 0C 08 F2 86 0C FF 52 00 3C ...o.........R.<
00403A70 34 93 FF 00 5E 99 F0 36 0C 83 A5 19 06 FF 7F 72 4...^..6.......r
00403A80 35 00 DB A9 09 8F 55 A2 24 FF F1 19 AE C1 C6 09 5.....U.$.......
00403A90 00 84 50 00 76 A8 52 5F FF FF 84 21 33 FF 11 3A ..P.v.R_...!3..:
00403AA0 00 D3 BE 93 18 00 4B 26 96 A9 7B CE C9 92 78 D3 ......K&..{...x.
00403AB0 7D 2E 21 AA 00 60 40 00 21 2C 1D E2 1D 42 9B B3 }.!..`@.!,...B..
00403AC0 13 2C 46 71 AF FF 08 91 FF 6E A8 00 A0 57 88 67 .,Fq.....n...W.g
00403AD0 13 BD 5C 00 C6 00 EF 00 EF A5 0E F6 17 E2 9D 00 ..\.............
00403AE0 DB 19 86 FF 1A 97 10 9F FB 1A 60 22 F2 69 CA D5 ..........`".i..
00403AF0 03 3E 27 9E FA A4 9A 67 79 0B 00 D3 39 5C 6E C8 .>'....gy...9\n.
00403B00 B2 00 D9 03 00 4F 89 0C 10 38 D5 98 2F F3 DF 43 .....O...8../..C
00403B10 04 F2 6D FF CC 7A DF 9E 93 DE 00 F7 E1 54 58 02 ..m..z.......TX.
00403B20 87 9A 11 00 AD 22 79 AE 22 62 49 62 B2 CE 67 47 ....."y."bIb..gG
00403B30 03 E8 F8 0E 0F 33 7A CE DF E2 9D 2C 7F 04 66 30 .....3z....,..f0
00403B40 38 59 50 E4 84 00 24 FF 15 66 B7 39 C7 FF 34 00 8YP...$..f.9..4.
00403B50 24 89 9D 5E A5 B6 D6 16 3B 84 00 07 80 2E 18 66 $..^....;......f
00403B60 42 38 0F 1C 00 15 B0 84 06 06 E8 EB E4 21 BC 7E B8...........!.~
00403B70 08 EF CA 7C 3C 00 FF 1B E8 A5 FF B6 24 C2 17 94 ...|<.......$...
00403B80 0A 9F EA 62 00 1C 37 23 46 11 02 78 BF 8D 1F A4 ...b..7#F..x....
00403B90 63 74 06 58 BD 08 ED 19 D4 9E 34 ED 00 80 E0 E0 ct.X......4.....
00403BA0 6C 00 5F 70 74 60 75 44 FF 00 FA F8 61 25 30 7A l._pt`uD....a%0z
00403BB0 26 05 6D 14 41 56 BE 4A B6 45 FF 2E 7C C5 32 8C &.m.AV.J.E..|.2.
00403BC0 00 C9 48 9C FD D4 00 68 38 99 00 23 0D E1 FE 80 ..H....h8..#....
00403BD0 26 2B 8C 84 CB 28 F0 CC 00 14 00 44 CE AB F6 00 &+...(.....D....
00403BE0 02 D3 92 C4 1C 74 6C 87 00 00 8B BF FB 00 05 AA .....tl.........
00403BF0 9A 0F CD C6 38 C2 47 3C 37 41 F4 CB C4 00 CA 82 ....8.G<7A......
00403C00 00 C6 C6 00 32 01 CE F0 1D 2B B9 C8 52 F3 26 53 ....2....+..R.&S
00403C10 76 F2 AE FF 00 30 00 D8 EF 00 8F 00 81 B6 B6 77 v....0.........w
00403C20 5A 88 B3 22 04 E7 4A 24 00 32 1C C7 F6 3E 67 96 Z.."..J$.2...>g.
00403C30 7E 00 B0 8E 00 1A 16 00 F3 03 01 00 00 9B 72 0D ~.............r.
00403C40 94 00 D8 DA 30 B7 64 93 F6 95 FD B4 FF D3 00 14 ....0.d.........
00403C50 01 BA 80 6C 75 73 E2 52 D0 9E 47 7A BE 02 CA 00 ...lus.R..Gz....
00403C60 5E E8 C6 21 F8 5D 54 04 33 D1 BB 62 D8 7E 7E 30 ^..!.]T.3..b.~~0
00403C70 00 50 FC 00 BE 14 70 9C F3 00 FF 00 00 40 6F AA .P....p......@o.
00403C80 B5 8B 4C 87 8B E4 3E FB 00 83 71 00 64 8E F8 00 ..L...>...q.d...
00403C90 67 EC 47 B3 67 38 3B 36 D4 6C 84 3A EF 00 74 C5 g.G.g8;6.l.:..t.
00403CA0 00 C0 57 E9 90 26 01 B5 8D 84 7A 00 EA 3D 5A 82 ..W..&....z..=Z.
00403CB0 D8 C2 48 C6 DF 10 B6 FB 00 BE B3 00 C5 00 FF DE ..H.............
00403CC0 77 85 44 51 48 82 7B 7F 21 73 ED AB D2 11 04 00 w.DQH.{.!s......
00403CD0 3D 4A 08 FF C0 57 A3 60 81 2E FE 90 F9 42 00 79 =J...W.`.....B.y
00403CE0 64 76 51 D7 B0 70 87 C9 A8 EB 00 AC 43 00 90 4F dvQ..p......C..O
00403CF0 01 00 63 18 07 F4 2B F1 F2 00 4D 00 EA 72 FD D1 ..c...+...M..r..
00403D00 84 C6 88 D3 A6 E3 92 00 62 4C 3E 5F 78 35 24 47 ........bL>_x5$G
00403D10 C3 FF 97 43 03 FF D8 E2 8F 40 FF 19 00 84 0B AF ...C.....@......
00403D20 19 28 9F 5A 00 FF 0B 94 C4 4C 64 26 00 79 7B 31 .(.Z.....Ld&.y{1
00403D30 43 CF 48 BB B8 5C 95 78 7E 03 D5 E5 C0 00 41 25 C.H..\.x~.....A%
00403D40 CC 77 91 9E 8D 3B 00 70 3C 00 F7 C2 1E 66 2A E2 .w...;.p<....f*.
00403D50 BE C7 36 2D 58 F6 00 80 28 F0 F9 3C 00 91 54 F7 ..6-X...(..<..T.
00403D60 62 68 5E E2 C8 44 AD 11 FC 6F 2E FF 05 06 6E B1 bh^..D...o....n.
00403D70 C1 04 51 6D A0 33 E8 EA 82 37 A7 21 69 13 FF 0B ..Qm.3...7.!i...
00403D80 EF F9 70 4C 00 63 1F CD FC 0E 50 7D 85 91 40 F7 ..pL.c....P}..@.
00403D90 3B 93 D2 00 69 00 C8 42 DE 83 7F 22 1D D2 E8 F1 ;...i..B..."....
00403DA0 F6 4A DE C9 D1 06 66 B7 FF 18 FF 26 7B 2C 00 3C .J....f....&{,.<
00403DB0 38 CD 00 4B B6 48 81 51 8A 5D 00 00 00 91 00 F7 8..K.H.Q.]......
00403DC0 0C 91 E1 4E FF 00 98 A5 14 67 01 80 A0 A1 B3 0A ...N.....g......
00403DD0 84 D1 57 22 52 B9 B5 FF E7 08 B8 13 85 84 68 E9 ..W"R.........h.
00403DE0 AD A5 DF D3 84 15 FF 94 F1 FE 71 66 D7 E3 F3 14 ..........qf....
00403DF0 BD 71 F5 00 3B FF FF FF 00 A0 B6 B7 DC 59 C9 1E .q..;........Y..
00403E00 71 F9 60 E0 18 31 00 E6 FF 23 69 61 00 AC ED 06 q.`..1...#ia....
00403E10 BE FB 4A F7 DB FE 4C 13 FF 58 53 08 00 85 18 00 ..J...L..XS.....
00403E20 10 57 E4 F9 6E E6 04 A6 D2 D4 8B 5B DC 05 E4 00 .W..n......[....
00403E30 00 FF CD 40 12 B1 18 F2 68 87 4E 68 EB CF 82 15 ...@....h.Nh....
00403E40 1B 00 A9 00 9F 50 89 71 FB B8 8D A6 4D EB 84 24 .....P.q....M..$
00403E50 6C A5 3A 00 38 5F 8A 48 79 B3 00 5C 13 46 0B 2B l.:.8_.Hy..\.F.+
00403E60 00 B0 E7 90 26 00 70 00 13 AC D2 FC C2 23 10 00 ....&.p......#..
00403E70 00 08 00 D0 00 78 18 1D E6 22 93 D8 3E 3A A0 E1 .....x..."..>:..
00403E80 FF 8C 9B 96 74 00 00 FB 3E 59 93 62 F3 8D D1 01 ....t...>Y.b....
00403E90 00 9C FF 8B 7E 37 2D 5D 2E 86 00 FC 9E E6 82 62 ....~7-].......b
00403EA0 FE 6A D8 31 CD 44 4E FF 00 53 00 D8 10 43 3B D0 .j.1.DN..S...C;.
00403EB0 DF D3 5C 94 5D 25 B7 AA 85 B7 00 4F F4 C0 D1 FF ..\.]%.....O....
00403EC0 98 00 9D 9C A4 74 02 8A EB 9A 01 B0 6D 1A FF DE .....t......m...
00403ED0 29 FE 78 C3 57 00 12 18 00 11 12 73 83 9F 1A FC ).x.W......s....
00403EE0 FC FF 1B 00 EE DE FB E7 A5 D0 00 68 9B 60 F4 08 ...........h.`..
00403EF0 DB 00 FD 99 5C E8 D7 84 F0 AE 03 0F 04 12 6F 30 ....\.........o0
00403F00 00 61 09 00 00 00 FF FF 11 A5 22 E8 BC AF 51 FF .a........"...Q.
00403F10 6B E6 86 8D 17 B0 9C 00 B4 5E 43 A2 CC F2 FC 00 k........^C.....
00403F20 E3 59 8D 35 07 A1 7C 27 FF 10 81 38 8C 61 E5 42 .Y.5..|'...8.a.B
00403F30 61 00 10 10 B4 45 1E 16 6D 1F C5 00 E8 60 85 6A a....E..m....`.j
00403F40 00 E2 D3 C9 19 00 6D 1B B9 00 6F 40 C4 02 84 04 ......m...o@....
00403F50 20 00 9D DC 7B 90 00 5F 00 C0 00 93 7C 7C 00 F2  ...{.._....||..
00403F60 00 00 FF 00 CE 34 CF 6C 2C 36 E7 2A 00 F7 00 CB .....4.l,6.*....
00403F70 9D 00 68 BF 83 3B 96 80 34 00 4A 1F 7C 08 D1 FF ..h..;..4.J.|...
00403F80 1A 93 49 07 80 A1 C7 38 B6 2A 12 41 00 81 DF C2 ..I....8.*.A....
00403F90 0C 32 0D 30 00 00 97 24 00 DF DE EA 00 35 81 00 .2.0...$.....5..
00403FA0 46 3A 04 C0 DC 1E 05 13 9E 00 70 77 84 A8 4D FF F:........pw..M.
00403FB0 AA 0E 08 34 B8 E7 1E 8A 7C 18 3F 81 05 82 27 BC ...4....|.?...'.
00403FC0 3C 80 21 F6 34 D6 62 FC 38 F6 20 00 00 AB 00 D8 <.!.4.b.8. .....
00403FD0 3E 50 76 0E 5F 4E F5 AA E1 0A A7 E8 29 9F 85 89 >Pv._N......)...
00403FE0 5D 30 00 A7 08 53 02 DC 47 52 FF E6 05 5D E2 79 ]0...S..GR...].y
00403FF0 19 3B 68 FC 3E 26 CA FB 83 EA 8E 49 3F DF 1D 83 .;h.>&.....I?...
00404000 4E C7 00 00 25 4E F9 E5 DB F1 FB F1 00 DC 00 13 N...%N..........
00404010 B4 FF 7A BA 8A 31 B1 64 DD 2E D2 C4 BF 20 60 6A ..z..1.d..... `j
00404020 87 00 45 00 5E 00 9A 2F 84 1F 2D A4 63 19 57 D6 ..E.^../..-.c.W.
00404030 06 1D 1B 07 A6 62 C5 69 FF C6 67 73 8A E4 48 0C .....b.i..gs..H.
00404040 83 DE 0B 8D E1 E8 20 30 37 91 00 FE E1 14 11 F7 ...... 07.......
00404050 93 01 F8 F9 2F 43 00 13 DF 0A 07 21 80 F4 4D 3D ..../C.....!..M=
00404060 00 2E 9B 00 94 57 A5 81 FA 56 F5 66 FF 90 07 F5 .....W...V.f....
00404070 A9 01 50 BA 6D D8 34 F7 B6 7A 1E C0 59 B1 28 07 ..P.m.4..z..Y.(.
00404080 7C 8F 94 62 86 CE 31 46 0E D8 36 BB 00 00 D4 FF |..b..1F..6.....
00404090 04 00 66 54 68 CC DD C9 FF 00 1B 80 DE 10 30 21 ..fTh.........0!
004040A0 04 EF 89 14 33 11 00 02 34 FF 00 23 2F 00 C1 FF ....3...4..#/...
004040B0 E0 4B D5 56 FF 00 80 2C 5E 36 00 97 29 0E 32 DE .K.V...,^6..).2.
004040C0 81 3D A4 69 C3 8F 3F 9B A9 27 FE 1F 3B BF 9C 1C .=.i..?..'..;...
004040D0 E7 C0 18 00 F2 50 00 B2 D3 FF 2C 8B F4 31 87 CD .....P....,..1..
004040E0 06 5C F7 6B 0A 00 FF 42 82 B6 BB C6 EE 00 00 00 .\.k...B........
004040F0 F3 00 22 00 6C 63 79 DE 00 00 00 B7 8F 39 33 B7 ..".lcy......93.
00404100 88 00 EB 0E CA 86 75 E0 6D 00 91 37 90 00 00 A0 ......u.m..7....
00404110 C5 85 C0 E2 2C CB 1F 72 3F 32 47 FC CD 20 77 88 ....,..r?2G.. w.
00404120 CB 2E FF 76 8D 60 00 E7 E8 00 00 18 00 15 64 81 ...v.`........d.
00404130 9D 16 FF 80 6D 00 E5 CB 86 A2 07 05 93 C0 57 DC ....m.........W.
00404140 00 00 48 93 00 E7 30 62 00 09 53 FF FF 00 43 FD ..H...0b..S...C.
00404150 D7 EC D1 7F D4 3E 3E 13 C0 1F 47 4D 06 00 08 28 .....>>...GM...(
00404160 E8 38 3D 06 50 00 BF F8 82 00 49 01 44 CE 37 82 .8=.P.....I.D.7.
00404170 CF EB 8A 6C F0 00 BC 66 00 C4 5B 71 6E 00 33 71 ...l...f..[qn.3q
00404180 87 65 8D 40 3A 6D C1 E1 00 BB 30 96 EC 6E 38 12 .e.@:m....0..n8.
00404190 06 00 7F FB C1 00 03 7A AD 0C 6F 00 D1 35 A0 9C .......z..o..5..
004041A0 5E 67 39 00 16 3F 00 5C 4B 55 18 04 66 92 AE 83 ^g9..?.\KU..f...
004041B0 5E 92 B0 41 8C 1A 00 59 52 0C F6 14 7F 72 7B 96 ^..A...YR....r{.
004041C0 C4 4C 3B 00 4F 97 A7 8B 67 6D 9F 00 38 3A 19 2D .L;.O...gm..8:.-
004041D0 01 4A FE A5 4B 3F 00 B6 0E 1B 00 2B C7 00 08 CA .J..K?.....+....
004041E0 00 1E 52 41 7D 49 32 E1 C0 27 DA 92 77 16 77 E0 ..RA}I2..'..w.w.
004041F0 40 1C D1 DC E4 2C 67 D7 C7 C1 F0 00 C1 AF 00 81 @....,g.........
00404200 38 F8 00 6F B0 A2 45 AA 4C 1E CF 00 7C FF 1F 11 8..o..E.L...|...
00404210 C6 09 86 88 F6 65 00 9C 99 82 37 1F 70 39 00 F1 .....e....7.p9..
00404220 5F 0A 87 8B 91 30 68 76 1C E5 F5 75 0F 10 67 FD _....0hv...u..g.
00404230 AF 0B B4 FF 44 1C 77 44 FF D0 5A BC 0B FF 00 52 ....D.wD..Z....R
00404240 73 E4 0B B1 65 8F 97 00 ED 00 5F 00 96 FF 00 CA s...e....._.....
00404250 1F 5E FF D6 FD 9A A1 F6 64 B5 C1 0E 74 AA C4 00 .^......d...t...
00404260 70 5A 6F 7A 3E 00 7B AD 9F FF A8 D9 00 EF 65 F8 pZoz>.{.......e.
00404270 A8 00 05 C3 59 00 D5 A6 17 2E 60 85 01 00 FC 0B ....Y.....`.....
00404280 18 C2 7C 91 5E 0B EF 04 03 9F 42 3C FF 7B 98 54 ..|.^.....B<.{.T
00404290 3E DF 6D E6 CD FF 41 B7 95 1C D1 9F 1D 02 23 C9 >.m...A.......#.
004042A0 FF DE 65 2D D8 B7 69 57 FE 2A 00 00 92 03 FF 68 ..e-..iW.*.....h
004042B0 4E 7F 4A F0 21 C3 47 1E 40 BD C5 DD 8D 6E 2E B1 N.J.!.G.@....n..
004042C0 08 00 0C 76 B8 47 FF 00 0C 72 5B A1 FC A3 4B 80 ...v.G...r[...K.
004042D0 C1 FE 05 26 42 A7 5C 71 79 FA 05 10 46 7D 09 DF ...&B.\qy...F}..
004042E0 0B 58 00 11 46 9A 00 FB 21 45 10 03 BD FA EB 57 .X..F...!E.....W
004042F0 10 4D 8A 00 2D A3 00 55 BD ED 33 1D 00 D5 2A 38 .M..-..U..3...*8
00404300 04 6C 8A 06 00 E5 08 B1 B2 A9 09 DF C0 08 53 EE .l............S.
00404310 2B C1 C9 A4 FD 9D 21 6D 00 42 69 89 00 00 31 2D +.....!m.Bi...1-
00404320 AF 6E 3F 7C 0F 23 EB 00 F1 07 00 43 7F FF 0D E3 .n?|.#.....C....
00404330 14 E3 00 98 83 58 69 A6 00 AF DD 90 62 B5 7D 3A .....Xi.....b.}:
00404340 8F 7C 40 7A 92 7B BC 01 F6 FE 00 EF 03 E2 46 C8 .|@z.{........F.
00404350 74 B3 BA 30 00 46 00 89 22 30 AB AA 5D FF 4E AB t..0.F.."0..].N.
00404360 FB D7 E0 68 00 24 08 00 F5 00 5B 00 6F 21 00 41 ...h.$....[.o!.A
00404370 4C 61 00 56 CC 5E 37 82 85 D8 C4 23 A4 B6 44 DB La.V.^7....#..D.
00404380 BE 52 A0 FF C5 19 12 00 6E 0C 00 20 9D D7 2F E0 .R......n.. ../.
00404390 5C CD 64 81 B1 F8 13 67 24 A0 53 88 96 48 30 41 \.d....g$.S..H0A
004043A0 83 39 23 00 00 58 00 CA 21 73 13 BD 1B B7 1B 6C .9#..X..!s.....l
004043B0 3E 5F 00 A4 10 B6 62 00 00 63 B8 6B 91 D2 22 70 >_....b..c.k.."p
004043C0 00 AF 1B 9C A0 97 00 C6 F9 FC B0 8F FF E8 70 3E ..............p>
004043D0 FF 94 85 D7 42 ED B8 27 36 B0 C5 02 E2 74 CA 08 ....B..'6....t..
004043E0 A3 4C 62 7E 00 21 A4 32 5D 86 8E A8 A0 49 90 22 .Lb~.!.2]....I."
004043F0 D3 F2 8F 92 32 53 15 92 C4 28 A2 81 92 4F FC 43 ....2S...(...O.C
00404400 E7 00 C5 1D 27 4C C6 AE 69 54 A2 80 00 2F 00 47 ....'L..iT.../.G
00404410 A2 69 56 26 00 B0 DD 30 00 80 E4 61 00 7C F6 89 .iV&...0...a.|..
00404420 08 16 74 4B 00 89 AA DD 00 18 87 03 EB 24 35 00 ..tK.........$5.
00404430 E8 AA B4 95 C4 20 00 FF 4B B7 00 A8 23 C9 6C 14 ..... ..K...#.l.
00404440 00 81 59 46 7E AD 3E 96 37 BF FF FF 49 09 D4 00 ..YF~.>.7...I...
00404450 BD B6 4D 3A 00 49 0B BB DC 18 68 EC 5A 25 09 00 ..M:.I....h.Z%..
00404460 1D 84 6E D8 10 BD 0A 00 41 49 97 C3 00 FF 32 0C ..n.....AI....2.
00404470 D1 B1 C3 4A DD 15 32 FC 9F DA A1 00 11 B8 46 B5 ...J..2.......F.
00404480 CD F8 F6 4B 8F 5C 4D 73 B3 86 2F A3 7A AF 43 BF ...K.\Ms../.z.C.
00404490 00 C7 0D AC 2F FA 54 AD 38 EE 00 00 9F B1 00 41 ..../.T.8......A
004044A0 B6 00 4E 35 00 88 8D 06 3A 16 10 87 00 17 38 66 ..N5....:.....8f
004044B0 CB C9 FF F6 46 81 72 02 00 00 00 00 FF 00 1E 22 ....F.r........"
004044C0 35 69 FF 45 00 75 BD 8E E7 9B 92 00 C2 0F D1 AE 5i.E.u..........
004044D0 19 47 00 D6 AF 66 00 D2 29 A0 2D 33 F7 62 6C 80 .G...f..).-3.bl.
004044E0 00 B0 F4 00 1E D5 F9 02 E7 BA 7C 00 CD EF E3 00 ..........|.....
004044F0 3B E8 96 4F 36 A4 FF CB BE FF 60 D2 79 FD 97 C0 ;..O6.....`.y...
00404500 01 EE C7 AB 49 1D FF A3 26 C0 DF FB B6 8B 00 54 ....I...&......T
00404510 00 3E C0 0F EB 00 40 F2 62 14 00 1A 0A 7C 23 C0 .>....@.b....|#.
00404520 7E F0 A9 9D 15 11 A4 C8 F5 18 04 51 8C 75 0F 1D ~..........Q.u..
00404530 B8 A3 FF A4 66 A7 AE A0 03 3D BC 87 02 B4 00 F8 ....f....=......
00404540 51 CA B9 6B A7 F3 5B 17 B1 31 E4 07 46 00 FF E7 Q..k..[..1..F...
00404550 00 FF C2 00 E5 00 6B AE 00 77 08 E3 49 F2 1F 18 ......k..w..I...
00404560 09 58 8E 7A 62 8D DA 00 10 FF 38 39 C3 69 D3 87 .X.zb.....89.i..
00404570 96 86 D5 FF 00 84 B1 8F 42 84 A2 FF BA 21 D0 00 ........B....!..
00404580 E6 6F AB 74 8B 1E B8 45 B8 AD 00 FF 89 80 09 C2 .o.t...E........
00404590 BA 06 13 00 0C 37 CC E4 37 E8 6B 42 6C 00 1B 01 .....7..7.kBl...
004045A0 42 00 50 00 EA 4E DC 2A C6 04 CB B7 79 26 FD 9D B.P..N.*....y&..
004045B0 48 E6 98 B4 00 05 93 00 A9 00 00 52 00 67 AC 20 H..........R.g. 
004045C0 CF 8A 00 AA B8 C7 8B 00 25 FF 66 00 57 2A 44 C3 ........%.f.W*D.
004045D0 60 52 67 6B AA 5C FF F8 AA CC A2 66 AE 8A 98 0F `Rgk.\.....f....
004045E0 00 FE 00 00 21 E8 BF D8 D7 00 1B 00 9A 2D 37 C2 ....!........-7.
004045F0 01 00 E1 7B 30 B3 FF 81 38 8F 94 EB 00 D8 3D FF ...{0...8.....=.
00404600 C8 00 D4 5E 32 C6 EB 04 C2 CE 9D A4 74 2C 86 6E ...^2.......t,.n
00404610 00 53 A2 FE 18 D3 D4 E8 37 80 05 E1 C6 B9 9D 7F .S......7.......
00404620 9D 91 75 FA D1 98 FA F1 CF 85 A3 00 DF 88 6F 04 ..u...........o.
00404630 4C A0 65 11 1E BE 3A BD 48 11 04 A7 3B 5E 94 91 L.e...:.H...;^..
00404640 0D C8 00 A8 FF 9F E7 5B 00 6F E2 2C 28 34 96 99 .......[.o.,(4..
00404650 2E 3F 6A 47 59 F7 00 1D 76 C4 72 00 00 16 44 50 .?jGY...v.r...DP
00404660 00 12 DF 2C C0 D9 64 A5 3B 8B ED 8F 99 8B 62 00 ...,..d.;.....b.
00404670 60 2C DF C6 DA E0 04 B0 FA 22 E9 21 CB C8 74 E6 `,.......".!..t.
00404680 4E 2E 37 29 54 7F 04 00 02 3A 00 A9 E7 35 FF AD N.7)T....:...5..
00404690 00 3A 6C FF 1F 3E 00 F8 1F F7 C4 F2 14 E7 5C F9 .:l..>........\.
004046A0 A1 00 99 67 64 00 FF 8A 00 48 1D 37 57 C3 F3 05 ...gd....H.7W...
004046B0 F8 30 0B 00 1C 2A 00 34 00 A1 B4 95 86 DF CF EF .0...*.4........
004046C0 A0 86 D2 27 00 BC FF 08 00 84 00 74 81 9E DD F6 ...'.......t....
004046D0 00 FE 08 9F 45 40 6A 80 BD 9A 05 FF 00 00 00 00 ....E@j.........
004046E0 9D 00 FF 36 6B 9D 00 4E E3 3E F0 04 FD 1F 03 FF ...6k..N.>......
004046F0 75 E3 7F 83 22 6C A0 78 9F 00 BC 72 38 43 00 57 u..."l.x...r8C.W
00404700 D6 DE 00 CC F2 F7 6D A3 59 4D ED E7 8B 97 33 E8 ......m.YM....3.
00404710 00 F6 FF 00 C4 8B C0 D2 08 53 19 03 10 45 92 00 .........S...E..
00404720 C5 9E 17 41 18 85 0B 68 F0 11 AB E3 FF FF EF F8 ...A...h........
00404730 00 41 00 60 73 D9 C3 BC 4C 38 00 C0 F5 97 61 25 .A.`s...L8....a%
00404740 9A E6 09 15 DF FD B4 00 FF C3 B3 C6 FF 00 00 4F ...............O
00404750 DC 60 F1 DC 00 F4 DE 13 B6 1A 00 FF 30 00 5A 04 .`..........0.Z.
00404760 D9 29 CA 21 03 AB 6C 92 00 04 8A 68 07 00 0D 00 .).!..l....h....
00404770 D6 F0 6B FF FE 1C 4E E4 5C 8D F2 7A 83 4F 7A 0B ..k...N.\..z.Oz.
00404780 84 D4 27 9C 9B 92 D9 8C 00 82 00 00 95 FF C9 D8 ..'.............
00404790 FF 16 3C 6E 6D 0E 82 1F 27 7E 94 D4 00 0E 1C 46 ..<nm...'~.....F
004047A0 FB FF 53 11 8A 83 1A D6 DC F7 6A 31 5F F6 9B 7C ..S.......j1_..|
004047B0 E9 CA E3 1C 0A 60 FE 23 94 DA FD ED 41 39 D7 71 .....`.#....A9.q
004047C0 83 BF 00 00 12 BD 82 7E FF 3A 49 22 18 58 00 B3 .......~.:I".X..
004047D0 1E 06 00 68 EF 00 D5 5F 71 FF 64 FD FF 00 52 6E ...h..._q.d...Rn
004047E0 7B 34 67 CF F5 FF 21 A7 5B 33 7C 00 6A 88 00 A3 {4g...!.[3|.j...
004047F0 E1 9A 4C 0F 42 00 1F 24 00 2E 63 00 E2 24 86 2B ..L.B..$..c..$.+
00404800 1E D1 A4 CC 00 00 00 EB 13 9A 74 00 34 00 93 4C ..........t.4..L
00404810 06 61 AB 00 87 C6 00 65 00 00 12 C9 00 00 5B 0A .a.....e......[.
00404820 1D B3 DF 29 1F 07 00 40 7F 2D 00 EB D8 F8 CF FF ...)...@.-......
00404830 8D 27 AC EE CB 6E 40 D8 D2 9D FC 29 6C 00 F2 3C .'...n@....)l..<
00404840 23 22 00 A5 1A 3A FF ED 9B 5A 5F 1F 00 FF 5D 68 #"...:...Z_...]h
00404850 00 93 CD 79 4A 1A 1C 0C FF A8 0E 00 38 0A A1 C5 ...yJ.......8...
00404860 00 20 2C 11 6F 8E 84 89 5E 30 B2 0F A5 8B 08 38 . ,.o...^0.....8
00404870 3F 00 7D DF BF E7 30 E8 00 7B 00 01 16 00 CA 48 ?.}...0..{.....H
00404880 69 67 00 4C 57 0F 58 D3 17 02 68 51 EA F7 0F 00 ig.LW.X...hQ....
00404890 88 00 01 8A 23 40 FF 41 85 C9 7D C7 72 F1 34 00 ....#@.A..}.r.4.
004048A0 4A D3 FF 3F 87 34 43 E2 FF 84 32 FE 6D B9 0F AC J..?.4C...2.m...
004048B0 DB B1 00 00 00 00 4F 3A 5A A4 F6 73 34 A4 29 02 ......O:Z..s4.).
004048C0 48 00 00 00 00 DC 13 33 8D 04 6E 80 C1 F9 6E 60 H......3..n...n`
004048D0 22 71 E9 60 FB 4E B6 21 35 67 C5 EF 02 77 E7 23 "q.`.N.!5g...w.#
004048E0 A1 FF 0C 83 61 DD FF 64 2C 00 6F 5C C0 87 49 C7 ....a..d,.o\..I.
004048F0 39 46 99 39 78 13 DC DE 41 0B D8 00 3D 70 95 60 9F.9x...A...=p.`
00404900 00 C8 74 BA 00 C0 00 1B A3 F8 17 7E A1 40 07 C2 ..t........~.@..
00404910 67 53 00 49 34 10 EF FF 0C 35 B3 4D 0D 78 82 A7 gS.I4....5.M.x..
00404920 A3 E0 74 E9 36 00 43 42 59 00 E9 2D C0 FE 00 27 ..t.6.CBY..-...'
00404930 04 CD 23 4C D1 EE 85 17 AF 19 35 0A E0 58 59 78 ..#L......5..XYx
00404940 EC B0 B2 AD 00 00 AF BA DA 3E 77 00 23 D3 BB FF .........>w.#...
00404950 94 00 00 6A 51 00 3D C9 A9 DF 42 8A 0A F4 85 61 ...jQ.=...B....a
00404960 96 A4 D1 15 98 4E 61 3B C5 68 A6 11 BF 83 ED 36 .....Na;.h.....6
00404970 30 A7 65 16 69 DA 43 2C B4 5A 1C F5 9B 51 00 FB 0.e.i.C,.Z...Q..
00404980 FF 6E EA 7D 49 DF 00 FF 00 63 57 0C 8A 1C 00 29 .n.}I....cW....)
00404990 4D 88 65 7E D7 3C C2 75 FE C7 C8 8E AF 26 4E D2 M.e~.<.u.....&N.
004049A0 02 46 1A 8D C8 F3 02 34 52 1A 42 55 BD 43 4F 00 .F.....4R.BU.CO.
004049B0 00 1A 07 00 12 EF 10 08 00 00 AB 00 3F E2 F0 00 ............?...
004049C0 14 F9 0A 70 7A 21 DD 69 04 86 8F 14 00 1C 91 00 ...pz!.i........
004049D0 38 0C 3E AA 6A D0 94 7E 9A 9A 31 FD 13 A7 0E AA 8.>.j..~..1.....
004049E0 7E 1C 40 1F AE 15 D2 21 A7 40 81 E9 2D 00 F5 29 ~.@....!.@..-..)
004049F0 00 39 F3 A4 4B 9D 20 3E FF 1C F6 A9 97 38 92 EF .9..K. >.....8..
00404A00 FF 62 73 34 20 BA 16 00 61 86 00 BB 81 FD 00 FB .bs4 ...a.......
00404A10 75 C6 A9 39 1C F4 00 C3 8A DB 2C 5B 6E DF 00 AD u..9......,[n...
00404A20 03 22 9A 01 37 00 FE 21 00 0B 12 20 30 DF 20 08 ."..7..!... 0. .
00404A30 8C C6 1F 01 00 C9 01 93 5C 2C C3 00 FF 61 CD CF ........\,...a..
00404A40 FF 76 0A B9 04 09 B6 E1 91 07 E1 71 3A FF 00 D7 .v.........q:...
00404A50 7F D9 2E 20 5D F4 96 22 60 81 9C C6 6E 54 7F 2A ... ].."`...nT.*
00404A60 17 E0 98 6E 31 01 C0 EB BB BE 13 C6 46 71 05 C2 ...n1.......Fq..
00404A70 AE 1C 18 00 5C ED 6C 17 00 80 4F 66 E2 46 9D 24 ....\.l...Of.F.$
00404A80 7C 00 5B 8B 37 B1 C8 D1 68 7C E2 00 00 2B 56 66 |.[.7...h|...+Vf
00404A90 FE 00 94 00 D8 80 77 DD 80 F2 81 6D 00 00 86 33 ......w....m...3
00404AA0 99 84 3C A8 E0 36 87 00 0E E4 69 D0 DA FF 23 A2 ..<..6....i...#.
00404AB0 46 87 13 98 B8 67 D1 F0 6A FF 80 CD 7A 1A 0F 75 F....g..j...z..u
00404AC0 EC 41 00 10 18 21 51 B1 38 A1 03 00 38 E4 7A 93 .A...!Q.8...8.z.
00404AD0 45 C1 28 B8 01 22 A0 45 A8 F7 FD 00 10 85 AC BA E.(..".E........
00404AE0 75 E0 5B 87 D8 63 00 F0 22 40 B9 88 8F 06 12 86 u.[..c.."@......
00404AF0 00 A7 39 FF 00 FF 06 8B 00 13 09 75 FB 4E CE 76 ..9........u.N.v
00404B00 66 E0 16 B7 00 56 FF EC 2B 00 00 7F 5D 00 AC 1B f....V..+...]...
00404B10 FF F3 FF 9C 18 FF 5B 61 28 71 83 54 16 0D 50 82 ......[a(q.T..P.
00404B20 FC 74 DF 50 70 F9 5F E3 0F 04 DB 00 00 F6 38 06 .t.Pp._.......8.
00404B30 F7 30 97 5A 38 E8 00 94 00 C2 21 B1 91 00 D7 00 .0.Z8.....!.....
00404B40 FF 2A 11 2B 78 FB F3 A3 85 19 00 4E A3 54 66 4B .*.+x......N.TfK
00404B50 00 03 BC 18 30 FA 11 CB A3 00 E7 B3 5C 00 87 7D ....0.......\..}
00404B60 97 EC 00 3A 1E 7C EB E9 EC 26 00 5F 00 C7 82 C6 ...:.|...&._....
00404B70 6E 1B 00 6B B3 D6 01 8A 5E 00 AB B1 47 00 97 32 n..k....^...G..2
00404B80 E7 22 E0 CE D0 3D 00 5C D8 EC FF 41 4E 98 9E 54 ."...=.\...AN..T
00404B90 DF C8 D3 E3 CB 00 00 16 00 8D 47 00 2F D1 BF 81 ..........G./...
00404BA0 0A 1C 11 D5 00 33 00 00 A4 20 30 3B 41 6B 2E 7F .....3... 0;Ak..
00404BB0 81 5B C4 3E 48 00 CE 65 54 E7 3E A6 98 D0 32 00 .[.>H..eT.>...2.
00404BC0 00 58 D7 00 D3 00 00 2A C1 2B 00 FA C9 16 8F 06 .X.....*.+......
00404BD0 A9 40 FF 00 8F 54 71 8D F5 41 67 36 FF 00 10 51 .@...Tq..Ag6...Q
00404BE0 87 03 00 00 83 A7 06 C4 D4 06 00 05 D7 3E AE D1 .............>..
00404BF0 5A FF 3D 06 F1 D7 56 00 28 1B 02 EB 26 49 00 45 Z.=...V.(...&I.E
00404C00 00 62 00 44 B5 0D 05 84 3C 67 4E E6 8B 2D 4F FF .b.D....<gN..-O.
00404C10 79 87 36 F7 09 A4 83 F8 69 87 31 00 14 FF 5C 00 y.6.....i.1...\.
00404C20 90 73 87 00 00 03 31 FF C0 C0 00 B8 EF 00 16 73 .s....1........s
00404C30 FC 74 4E 00 19 FF 2E 7A DB 80 D4 00 58 87 C5 04 .tN....z....X...
00404C40 64 9C 00 88 2F 13 A5 1D 5D 0F 6B 0D 23 BF D0 04 d.../...].k.#...
00404C50 8A 1C 80 EA 99 88 FF B2 B2 FF 46 3A 2C B1 00 A8 ..........F:,...
00404C60 00 3D 0D 49 9C FF 14 7C DF 34 00 56 D4 C3 14 CE .=.I...|.4.V....
00404C70 95 51 0F F4 9E 44 00 34 52 1B 00 B0 C7 D1 DC FF .Q...D.4R.......
00404C80 10 01 2E 00 5F 00 65 FF 18 99 6A B7 50 0A 04 C4 ...._.e...j.P...
00404C90 00 B1 7F 31 FB 66 00 9F CA FF FB 38 2C AE 01 8D ...1.f.....8,...
00404CA0 7F 00 8D 6D 73 AD 00 45 E4 55 D0 AB 5C 7A EE FF ...ms..E.U..\z..
00404CB0 86 00 7A 3A D9 5C 00 0E B2 CE 01 E2 84 45 EF 0A ..z:.\.......E..
00404CC0 E8 5A 40 00 4C FF 43 1B 00 0C 05 FF 21 52 D2 8E .Z@.L.C.....!R..
00404CD0 00 40 60 23 00 FA ED 39 00 EF DE 22 70 E0 7E FD .@`#...9..."p.~.
00404CE0 C5 CC 4B 25 2E FF C8 79 FF 96 E7 6F 73 B4 C3 E4 ..K%...y...os...
00404CF0 00 9A DE CD 0D A7 BC FF 60 FB 95 42 E4 00 02 12 ........`..B....
00404D00 0E E0 29 00 B8 7E 58 0E 77 F8 7E 26 5E F7 AF 26 ..)..~X.w.~&^..&
00404D10 CA F4 00 FB F5 8D FF 3E 19 18 F3 10 72 EB 60 43 .......>....r.`C
00404D20 00 AF FF 3D 00 13 2A A5 1A CC 00 39 75 AF E9 73 ...=..*....9u..s
00404D30 B0 00 FB 66 C3 48 4F 8C B3 75 3E 62 0B 53 A9 6F ...f.HO..u>b.S.o
00404D40 E4 06 00 3C E5 00 80 3A 66 17 24 46 00 1A FC DB ...<...:f.$F....
00404D50 19 B7 E0 83 A0 08 EB 2C E0 84 49 AA 9E 88 9D 32 .......,..I....2
00404D60 00 00 85 E1 00 5C 02 64 1C 2C 97 BC EA A5 22 C0 .....\.d.,....".
00404D70 20 00 57 1B 02 33 8C 00 F0 98 82 32 C9 D5 00 03  .W..3.....2....
00404D80 7C 60 77 DD 60 0C A7 60 43 7D DB 00 00 7B 00 72 |`w.`..`C}...{.r
00404D90 00 B7 07 EF 7A 2D 75 06 87 44 08 00 FF 22 33 C4 ....z-u..D..."3.
00404DA0 00 12 BE 00 E4 F0 38 D0 21 A4 04 61 00 96 00 93 ......8.!..a....
00404DB0 68 BE 83 4D 0F C0 6F 43 D9 FF A5 97 B2 09 C1 00 h..M..oC........
00404DC0 47 E6 65 3A 85 C7 3E 70 91 00 FF 76 00 B4 CB 3A G.e:..>p...v...:
00404DD0 C5 59 F1 50 00 00 C8 B5 C1 CD 9E DB 18 FF F1 85 .Y.P............
00404DE0 82 E1 3F B6 BB 00 00 86 E0 8D 98 FF 00 00 8A 00 ..?.............
00404DF0 B5 0C 60 77 9F FE 2C 6F 8F 6F FF 00 A3 37 C3 7D ..`w..,o.o...7.}
00404E00 6F A0 33 38 FF 00 92 FF 00 41 20 5D 11 4B 00 1E o.38.....A ].K..
00404E10 48 6A 00 38 3B 39 C8 07 83 48 A3 00 7E 77 8B EE Hj.8;9...H..~w..
00404E20 13 CD 3C BC 60 63 07 5F DB 38 57 57 E4 6A CD 83 ..<.`c._.8WW.j..
00404E30 22 00 E9 0B D8 FF 7B BF 3E F8 BA 50 6F A1 58 A3 ".....{.>..Po.X.
00404E40 C1 FF 1D C3 99 56 9C 04 FF 85 C3 6F 84 B4 00 CE .....V.....o....
00404E50 17 C5 1C 47 39 00 4F B7 3A F0 C9 BF 00 48 68 4E ...G9.O.:....HhN
00404E60 0A FF DD 57 FF 00 00 FE 26 5A 7C E5 41 00 97 FF ...W....&Z|.A...
00404E70 04 00 A3 9E AB 00 1F B6 B3 FE EF 58 64 DF 8B 26 ...........Xd..&
00404E80 C8 3D 00 B8 FB FF 23 C7 4C FF 08 FF F0 C4 66 DE .=....#.L.....f.
00404E90 DE 00 2A FF AA F8 05 B9 00 00 34 FC EC 05 B0 DD ..*.......4.....
00404EA0 DB 67 99 00 FD E9 FE 00 67 DD C6 8D C2 00 89 27 .g......g......'
00404EB0 42 1B 01 9D 00 11 7E F6 FF C2 D4 F2 65 20 61 04 B.....~.....e a.
00404EC0 18 F8 CC 1B 3A CF EF 97 8E B8 E0 00 21 47 D7 FD ....:.......!G..
00404ED0 BD 00 FF 9F 1D 3D 99 FF C0 B0 00 00 FA 08 47 FF .....=........G.
00404EE0 BE 53 54 71 20 C4 29 EB 47 5C B1 24 2A 00 07 0B .STq .).G\.$*...
00404EF0 54 57 15 66 79 56 A1 64 99 FC F9 6C 81 A3 CB D9 TW.fyV.d...l....
00404F00 6D D0 01 75 13 22 1E 87 7A 26 7B FF DE 37 D5 6F m..u."..z&{..7.o
00404F10 A9 8A 76 C0 38 3C FB FE EB 20 10 FE 21 A8 72 28 ..v.8<... ..!.r(
00404F20 00 FF 00 9E FF 82 0A C0 44 AB ED 8A 79 0F 5A FF ........D...y.Z.
00404F30 13 6E 00 A2 FF FD FF 03 45 49 00 AC 54 E8 00 49 .n......EI..T..I
00404F40 5C 8E 69 C4 5F 44 AF E7 F7 74 9A 71 91 CE C4 34 \.i._D...t.q...4
00404F50 49 FF F3 A6 EB 8E 7C D1 F5 F1 C9 B8 BD 47 00 00 I.....|......G..
00404F60 00 01 08 72 95 FF AC 2F 5B 0B 5C 46 00 B0 63 E8 ...r.../[.\F..c.
00404F70 3C 4F 00 F3 3D 00 A1 FF 7E 9B 1D C9 49 2A 02 BC <O..=...~...I*..
00404F80 23 7E 06 02 20 C2 FF 00 B8 AF 00 8B 00 09 26 10 #~.. .........&.
00404F90 E5 35 DD 3E 3E 2D AF ED 3C 99 68 15 E7 7F A7 14 .5.>>-..<.h.....
00404FA0 46 A5 CE 77 00 50 0B BB 74 BE 83 0D 58 F4 F3 74 F..w.P..t...X..t
00404FB0 FB 27 AB 00 4F FF A3 AB FF 77 6D D1 00 B3 FF 88 .'..O....wm.....
00404FC0 FD 00 00 52 1C EC 00 98 FF 01 31 B6 F3 4E E1 BD ...R......1..N..
00404FD0 32 AB E2 F4 34 05 33 2A 00 00 64 F0 08 C2 49 E6 2...4.3*..d...I.
00404FE0 22 FF FC 75 13 A0 D5 1D 1E 7B 46 48 F6 EA 13 5C "..u.....{FH...\
00404FF0 24 9C 60 55 00 F0 FF 81 00 C7 7F 10 27 00 E8 20 $.`U........'.. 
00405000 40 5A 00 2A F5 C1 01 D2 97 35 7A 00 00 AB 24 6D @Z.*.....5z...$m
00405010 44 01 DA 14 11 00 74 00 00 5F 81 33 08 A2 08 88 D.....t.._.3....
00405020 92 9E 00 91 D7 0E 00 03 09 6E B6 07 C6 51 CA 00 .........n...Q..
00405030 CF 02 2A A3 00 FA F4 45 EC 99 93 C6 F0 9C C5 0B ..*....E........
00405040 00 B4 07 74 60 3A 5B 8D E1 F3 34 29 DC D1 D0 3A ...t`:[...4)...:
00405050 11 BB 8F EA 07 4F 00 28 61 52 73 9E 01 15 2E A6 .....O.(aRs.....
00405060 FF 13 70 E9 28 00 0E 56 F4 CE 7A 83 B9 00 F5 3D ..p.(..V..z....=
00405070 BA 81 82 00 3E 49 97 E2 FC 18 13 2B E1 C8 47 39 ....>I.....+..G9
00405080 CE 09 C9 15 BD 00 91 C6 DF FB F4 B3 E4 18 1E 2B ...............+
00405090 E3 8A 07 26 8F 07 00 18 13 10 53 00 43 10 BD 00 ...&......S.C...
004050A0 81 E4 AE FD FA 36 F9 32 16 FF 0C CF FF 00 FF 2A .....6.2.......*
004050B0 FF 3F 4B 93 00 1F C2 2E C8 21 23 0A 02 00 9C C0 .?K......!#.....
004050C0 18 D3 BF 8D F7 80 00 1D AE EB DE 1C 19 30 00 00 .............0..
004050D0 37 FE 38 CC 84 13 11 7D CA 4A A2 3A 05 18 71 C0 7.8....}.J.:..q.
004050E0 BF 1F 0C 75 9E 01 33 00 FD 68 17 C6 19 87 FD 47 ...u..3..h.....G
004050F0 DE 93 80 B1 28 0B FF 56 C3 EF CB 3D A1 F5 E2 00 ....(..V...=....
00405100 00 CB FF 1C 1B F7 06 90 E1 DF 22 87 45 00 A9 31 ..........".E..1
00405110 00 A6 00 83 81 80 00 A0 BE 69 CF 07 B5 3B 1E F2 .........i...;..
00405120 04 C7 00 26 17 B7 C4 1B 00 6E EC 72 93 60 2F 91 ...&.....n.r.`/.
00405130 30 3C F6 E1 00 FF 05 BF 54 00 6A 78 09 6F DB 67 0<......T.jx.o.g
00405140 FC F8 82 28 22 D3 77 00 48 F2 00 09 00 BF B2 07 ...(".w.H.......
00405150 96 0F FF 0D CA 27 48 86 DF C7 B6 01 C3 45 E3 C9 .....'H......E..
00405160 34 2C FF AC 78 68 51 1B 74 70 00 58 7B 00 A9 52 4,..xhQ.tp.X{..R
00405170 60 AA 3B E4 AD 64 EC 02 21 00 97 F5 5C 0F 79 00 `.;..d..!...\.y.
00405180 00 36 B5 00 C3 24 7D 41 00 A3 A0 1F 00 8A 10 80 .6...$}A........
00405190 F7 48 3D 27 14 E5 1D 30 00 87 7E 08 A4 36 FF 74 .H='...0..~..6.t
004051A0 A3 D5 BF F2 79 39 6C E1 8B F7 A0 98 DB 9E 00 5A ....y9l........Z
004051B0 C9 26 30 04 67 E6 0E 00 27 3E 6C 31 38 19 08 DC .&0.g...'>l18...
004051C0 00 5B C3 B3 3C A4 C2 BB 53 00 FE 58 B9 0A 0E 21 .[..<...S..X...!
004051D0 36 41 FF 04 B6 3C F7 B0 A3 1F 87 FB F0 B3 01 16 6A...<..........
004051E0 00 99 FF 0B E4 5F FF 53 8C C1 00 04 68 38 19 A0 ....._.S....h8..
004051F0 A2 04 0B 29 9A 35 00 DB 8B 92 B9 00 00 81 CB 57 ...).5.........W
00405200 52 81 3E 8D FF 42 67 BC 7C 77 20 DA 00 8C 18 A9 R.>..Bg.|w .....
00405210 00 37 6E 16 3A 87 FF C6 6E 55 41 1C 72 30 28 9A .7n.:...nUA.r0(.
00405220 E4 82 DC CE FB 82 FF 22 65 FA 13 AF C5 18 13 00 ......."e.......
00405230 D9 00 4D B3 E1 79 0E ED E4 A3 8D A3 83 EF 3D A3 ..M..y........=.
00405240 A9 31 00 C8 D5 D1 ED E0 00 26 07 4E D7 70 25 14 .1.......&.N.p%.
00405250 4B FF C6 FF BB 7E DC 9F 7F 0B F2 5E 00 5C 92 21 K....~.....^.\.!
00405260 00 34 37 48 78 81 10 B2 DE C0 BB 5E 3F 17 6A 1D .47Hx......^?.j.
00405270 00 62 FF CC 00 64 82 49 FD BE 00 6B 9E 9C 39 00 .b...d.I...k..9.
00405280 8F 94 E2 C7 00 00 FC F7 CA 6B F3 E2 35 FF 0D 00 .........k..5...
00405290 00 9E B3 BD FA D3 D3 AF E3 57 18 00 51 00 17 00 .........W..Q...
004052A0 4B 41 80 00 30 37 FF 24 2C E0 6D 4D 00 FF F0 96 KA..07.$,.mM....
004052B0 00 00 74 FC 13 FF 87 1E 1B B9 59 93 FF FE F9 82 ..t.......Y.....
004052C0 11 45 9B 23 00 62 65 DF 87 E3 00 C7 26 80 BB 37 .E.#.be.....&..7
004052D0 CF 0C 2C 36 F1 58 6B D8 00 FF A1 B7 4E FF 2D F9 ..,6.Xk.....N.-.
004052E0 D1 42 8D FF D1 E3 C3 3C 73 88 1B C8 8F 91 FF 34 .B.....<s......4
004052F0 1A 00 5B 9A 00 0F FF 00 E4 73 A9 18 04 FF 7F A0 ..[......s......
00405300 00 5E D9 9B 5A ED 08 42 F7 00 CD 53 45 23 2F 00 .^..Z..B...SE#/.
00405310 4E 82 F7 7F 28 00 8E 00 CC 00 F2 00 F0 C6 00 62 N...(..........b
00405320 3A 90 00 DA ED 2C 1E 06 EF 90 D1 FF D4 48 46 4C :....,.......HFL
00405330 B4 63 02 A1 AF C3 33 82 61 B1 C8 20 4C BD 1E 79 .c....3.a.. L..y
00405340 72 03 A4 00 FB 00 0E 03 0A F7 F4 36 A0 65 BD BE r..........6.e..
00405350 00 CC 00 31 42 00 A4 30 27 00 B0 00 E5 70 7C 01 ...1B..0'....p|.
00405360 73 10 4C B4 00 0C 00 A8 D0 C7 00 70 50 FE B9 6A s.L........pP..j
00405370 37 8B 02 8C FF 8A 4F 8F 56 00 76 3A 72 6F FF 77 7.....O.V.v:ro.w
00405380 59 02 52 00 4B 20 B3 FE 15 A1 D6 F3 71 9B 8A FF Y.R.K ......q...
00405390 F6 26 8E A5 7A CA 02 01 61 7B 02 76 6A FF 5C 7A .&..z...a{.vj.\z
004053A0 EC 00 32 AE BB 16 35 C6 74 F9 2C 1B 00 00 F1 80 ..2...5.t.,.....
004053B0 7E 00 00 7C C0 B4 00 CD 9D 00 30 F2 C7 74 FF C0 ~..|......0..t..
004053C0 36 27 CA 10 67 31 0F 90 00 95 E7 00 52 95 4E F1 6'..g1......R.N.
004053D0 7F 98 8F 72 C7 49 5E FB A9 4A 00 37 2B 78 3F 7C ...r.I^..J.7+x?|
004053E0 28 74 06 2E 96 6C 44 00 FC B7 68 96 67 BA 15 00 (t...lD...h.g...
004053F0 FE 00 AF C2 3E C1 00 70 0C 9A 93 46 00 27 73 A4 ....>..p...F.'s.
00405400 89 3E 25 91 BF 79 00 9F 66 45 29 00 87 B6 8F AF .>%..y..fE).....
00405410 91 FF 30 1B 77 AB F0 9B 33 99 29 52 17 E8 54 3B ..0.w...3.)R..T;
00405420 0C 40 77 10 85 FD 56 3C 20 B2 D8 08 00 A2 04 64 .@w...V< ......d
00405430 3E C7 FF 53 0F AD 86 00 EB 97 E7 48 00 2F 8A F7 >..S.......H./..
00405440 80 00 AB 00 08 A9 9C 00 38 5A DA 00 E1 A9 7F E9 ........8Z......
00405450 C0 E2 06 03 3A 00 F3 C9 A9 4C 00 00 54 9E 1C E8 ....:....L..T...
00405460 BF 43 09 CA E9 C4 44 3C D1 D4 C7 22 EA 2B 92 43 .C....D<...".+.C
00405470 BF C8 EE 05 00 30 E8 FF 00 00 00 AC 64 C8 BD D0 .....0......d...
00405480 17 3F 20 CC AF E8 21 C2 3D 59 54 B5 08 DB FF A3 .? ...!.=YT.....
00405490 82 A2 E8 13 00 8F DF 4F 78 00 C9 17 00 93 18 0E .......Ox.......
004054A0 1A 7C 8B 90 8D 60 C1 D4 40 6C F6 00 52 C5 6A 63 .|...`..@l..R.jc
004054B0 01 B7 73 A7 E4 A5 00 30 4C 55 A7 73 1C 89 1C 00 ..s....0LU.s....
004054C0 7D D8 F5 49 7C 1D D4 D5 03 FF 00 5E BC 51 60 BC }..I|......^.Q`.
004054D0 3C 30 E4 62 73 60 C3 7C 00 00 6F 8E 81 8F 00 DD <0.bs`.|..o.....
004054E0 00 FF 36 43 F5 E2 9D 83 15 9B 39 45 DA B0 FF 4D ..6C......9E...M
004054F0 40 00 CD 63 00 98 32 00 FA FF B4 73 34 86 23 C7 @..c..2....s4.#.
00405500 90 62 BE 9D 5E 43 3F CA 08 2E 2A 03 60 E1 52 C0 .b..^C?...*.`.R.
00405510 A4 DC 3D 25 F8 40 00 03 46 2E 24 1F 32 2F 89 FF ..=%.@..F.$.2/..
00405520 00 00 0A AD 2B 79 54 87 09 B1 00 F0 30 F3 A4 3C ....+yT.....0..<
00405530 41 00 3D 49 40 1C 00 A5 00 53 67 E2 13 00 C1 26 A.=I@....Sg....&
00405540 C3 CC 3F 7A FF 58 80 83 39 FF 85 A5 96 00 50 00 ..?z.X..9.....P.
00405550 00 60 00 A8 04 78 00 DF 4C 35 63 C7 05 C1 00 C5 .`...x..L5c.....
00405560 F9 09 11 93 40 23 15 00 6E C1 11 F0 00 59 38 A0 ....@#..n....Y8.
00405570 C0 B6 2A 00 21 0E 72 00 C6 47 00 8A 89 26 18 B9 ..*.!.r..G...&..
00405580 91 9F 00 00 00 FF 6E 78 3D 38 7B 49 8C 26 EB AA ......nx=8{I.&..
00405590 FF C9 E1 20 C5 32 97 83 B1 10 3C B3 09 04 87 2E ... .2....<.....
004055A0 7B 54 18 14 86 D0 FD 2C C3 00 4F C9 78 EF 99 93 {T.....,..O.x...
004055B0 D1 0E 00 26 10 5B FF 3F 72 E7 68 00 38 11 9C B0 ...&.[.?r.h.8...
004055C0 00 00 F8 63 00 66 C9 B7 83 0A 54 C3 BA 54 61 FA ...c.f....T..Ta.
004055D0 FF B5 17 4F 00 A8 00 37 E1 84 12 B1 FF 58 00 10 ...O...7.....X..
004055E0 0C 3B F6 44 51 90 F6 00 40 78 1D 40 00 B5 C4 00 .;.DQ...@x.@....
004055F0 D3 52 00 00 9F 8F 00 2F D5 FF 18 A0 E7 00 08 C8 .R...../........
00405600 D3 F9 ED F5 08 04 3F C6 A1 13 ED 20 9F AC 77 92 ......?.... ..w.
00405610 C2 8B 46 8C 40 9B AF CC 75 CB 00 02 11 B9 1E 10 ..F.@...u.......
00405620 7E 34 5D C2 0C 7A 78 52 00 08 FF 00 40 DE FB 9B ~4]..zxR....@...
00405630 00 00 3C B3 DC D4 FF BF 00 0D 91 A0 06 00 A2 3D ..<............=
00405640 DE F7 F7 33 ED FF 6D 86 08 00 27 9F 49 8B 6C 5A ...3..m...'.I.lZ
00405650 85 9D C6 F6 6E 25 B0 FA E0 AA 8C 64 00 82 03 E9 ....n%.....d....
00405660 53 8F BD 4A 28 16 F4 D9 F8 0D 82 FD 1E A3 0D 12 S..J(...........
00405670 64 F4 27 28 CD FF ED 0E 00 6E F6 FF BF 91 D5 D3 d.'(.....n......
00405680 00 69 00 1C DD D0 54 5D 52 FF 00 40 27 FF F8 C9 .i....T]R..@'...
00405690 00 64 E3 52 3C CD 39 6D E4 BF 03 31 A2 85 E9 AC .d.R<.9m...1....
004056A0 65 42 32 EA 73 D0 03 00 FF 00 72 96 E2 00 CB 8D eB2.s.....r.....
004056B0 79 00 00 2E E3 2F 6C F8 F5 EE 0A 00 31 9B C5 00 y..../l.....1...
004056C0 59 A6 FE 50 82 13 B7 C7 61 86 00 EA A9 5F 2E 08 Y..P....a...._..
004056D0 80 8B 6D 1B FF A9 A7 C1 E5 FF 5E 44 E0 AF 90 D9 ..m.......^D....
004056E0 00 00 E2 8F 00 F4 3F C6 0C 18 00 7C 0D 0D FF C0 ......?....|....
004056F0 F4 FF 03 9E D8 FF 08 72 90 18 C5 FE 06 38 91 FD .......r.....8..
00405700 95 FF FF 06 0E 87 E1 6E 20 82 28 60 FF 48 B5 DF .......n .(`.H..
00405710 00 B8 78 3C FD F4 FF B2 BA 7C E1 00 36 DA 8D C0 ..x<.....|..6...
00405720 A6 39 FA D5 D1 0C A6 00 F9 C0 82 C9 4F E6 BF 00 .9..........O...
00405730 00 AB AB 9F C0 6C 09 00 23 D7 4D 73 43 FD F1 64 .....l..#.MsC..d
00405740 C6 5D 60 68 E8 FF 02 FF 0B 00 AE 42 B1 46 11 EA .]`h.......B.F..
00405750 01 57 00 86 4F 87 7D 2F DE 72 00 F6 5C 87 6A FF .W..O.}/.r..\.j.
00405760 FF C7 78 00 46 18 A3 04 F7 8A 96 F5 62 8F 7C 83 ..x.F.......b.|.
00405770 00 C6 FE FD FF 00 00 2E FF 1E 2B 36 1F 00 83 ED ..........+6....
00405780 1C 63 9C 81 00 12 05 00 D8 1C 57 AC 46 00 84 25 .c........W.F..%
00405790 14 8C DE 00 3E 37 40 00 C0 F2 2E 13 E4 FF 47 CC ....>7@.......G.
004057A0 81 6B A2 C1 C0 4F CB 00 79 08 5A 9B F7 BC B6 00 .k...O..y.Z.....
004057B0 22 00 6F FD C5 DF AC 00 97 A6 A2 62 48 A3 00 A7 ".o........bH...
004057C0 73 5F A7 B8 6F 9B 72 BD 34 80 92 51 5A 28 30 18 s_..o.r.4..QZ(0.
004057D0 C5 2B 6F 86 35 71 C1 1A 5C DC 62 DC 00 04 6F 26 .+o.5q..\.b...o&
004057E0 00 B7 76 DC 0C B8 BF 43 C2 45 E8 73 0A FF 53 8A ..v....C.E.s..S.
004057F0 8C 9F BE 40 F0 F4 E1 00 D3 7F 98 F8 D9 7F 05 9D ...@............
00405800 00 40 52 00 D7 4F 00 9A 91 FF 5F ED 3E E1 84 4C .@R..O...._.>..L
00405810 40 D4 FD E1 CA E5 97 C7 F7 95 00 00 00 9B B2 1C @...............
00405820 B1 D4 FC FF EE 1F 00 00 DD 00 32 3D 2B D7 12 00 ..........2=+...
00405830 E9 BF DE CF 32 2D C8 FF 16 DE F9 E2 2B 71 E8 8B ....2-......+q..
00405840 B4 00 93 59 3E 82 E7 22 D6 E2 72 EE F2 00 4C A1 ...Y>.."..r...L.
00405850 82 4E 30 36 18 6F 8E CC DB BF E3 F0 12 41 23 6A .N06.o.......A#j
00405860 E6 D6 A8 07 E4 62 20 00 0A 00 F4 00 C5 FF CD 2F .....b ......../
00405870 6D 87 F8 FF 44 48 F5 B1 41 12 93 98 97 8C D7 0B m...DH..A.......
00405880 0C FF E2 01 00 00 00 0E E9 79 AF 00 FF 2D 18 FE .........y...-..
00405890 A4 D4 2D 84 2D 00 6A 10 FF FF 99 0F 93 C6 BA 47 ..-.-.j........G
004058A0 A9 89 E3 80 77 B0 0D ED 00 A5 3D DB F8 D4 44 24 ....w.....=...D$
004058B0 C4 FF E2 F0 00 EC 46 0A 00 60 38 00 00 FF 2C 00 ......F..`8...,.
004058C0 8D 00 20 FB 91 49 F2 3A 38 19 37 8E FF 4B E3 00 .. ..I.:8.7..K..
004058D0 67 41 AE 9F EE 44 FF 4C 66 3D C4 66 0C 7F F4 E1 gA...D.Lf=.f....
004058E0 F8 95 31 78 23 41 04 62 DE 80 04 04 D1 C5 9E DC ..1x#A.b........
004058F0 8E 42 D7 65 EE C2 5F 7F E4 F9 61 29 F7 09 6F 3A .B.e.._...a)..o:
00405900 0A 27 82 FF 59 4B D5 A3 C8 0D 25 C5 D1 23 80 00 .'..YK....%..#..
00405910 FF 00 0A D6 87 F9 43 0E 00 17 88 00 82 4C 89 33 ......C......L.3
00405920 00 75 A2 5E 05 FE A0 05 2E 95 81 C6 1E 00 1F 00 .u.^............
00405930 FE 00 CB FF 4C FF 09 34 17 00 31 44 4C AF 00 8B ....L..4..1DL...
00405940 33 94 6F FF 11 E0 FF 87 00 FF E2 08 38 24 FF EF 3.o.........8$..
00405950 43 2E C7 F0 92 BD 00 E0 74 FF FD FF 0A 09 5F 36 C.......t....._6
00405960 1B 78 93 00 CF 69 D9 00 00 9F 4C 7F BE BB FF D7 .x...i....L.....
00405970 00 25 1F 47 D4 36 14 00 FF 5C CD 10 C6 8F BC 84 .%.G.6...\......
00405980 8F 00 E1 60 00 F2 4A 8C 17 5B 85 E0 FE 87 5C E3 ...`..J..[....\.
00405990 B3 16 57 9E 00 00 7C 08 75 EF D1 E3 CA 66 02 15 ..W...|.u....f..
004059A0 53 BD 22 7F C1 1C 00 AC FD 3A 54 00 B7 6A 1B 9C S."......:T..j..
004059B0 8D 57 45 1B 49 FF 00 0F 08 26 05 35 9D 84 14 A7 .WE.I....&.5....
004059C0 4E 6B C5 72 8A F0 3F E5 AE 00 00 2B 00 DF 00 5A Nk.r..?....+...Z
004059D0 40 0C 78 6D 00 8B BF 48 73 04 53 01 38 D6 A1 86 @.xm...Hs.S.8...
004059E0 C0 FF 6C 0A A5 00 4C 7D 1C 9D F3 A2 1C 01 F4 2F ..l...L}......./
004059F0 48 4E 00 01 61 01 02 31 00 F0 00 D0 7C F2 23 35 HN..a..1....|.#5
00405A00 35 6F 88 D6 FF 1E 9E AD 33 C8 00 F1 08 F8 B8 3A 5o......3......:
00405A10 9A 05 00 F0 47 23 C2 77 FF 1A 45 00 27 00 F0 89 ....G#.w..E.'...
00405A20 7E 6C 00 00 08 91 17 00 E7 FF 22 DB 16 D9 83 11 ~l........".....
00405A30 CC 99 8E B1 98 00 3B 0E 4B 2A C9 82 41 1E FE 56 ......;.K*..A..V
00405A40 BF 19 26 23 90 00 B9 D3 DB 33 95 A1 11 DB 68 95 ..&#.....3....h.
00405A50 DC 00 D1 FF 55 D2 E8 1C 02 03 FD DD FF FF 3D 8C ....U.........=.
00405A60 BF 66 3B D1 F9 6E 8F 85 00 F0 A8 9C 06 00 C2 75 .f;..n.........u
00405A70 EE 8C DA 6C 00 90 08 45 33 1A 3B AA 4B 83 91 00 ...l...E3.;.K...
00405A80 FF 08 D8 3B 1C 09 19 BD 1E 85 03 17 46 FF F0 4C ...;........F..L
00405A90 CC 0C 43 19 2A 00 09 93 00 00 56 65 7F 34 00 58 ..C.*.....Ve.4.X
00405AA0 00 4A 42 CF 08 87 9D E6 C0 0E D0 F7 3F 10 DF 43 .JB.........?..C
00405AB0 71 ED 39 78 93 C4 97 C4 F0 DB FF 9B 20 15 DB A4 q.9x........ ...
00405AC0 00 C4 13 FE 00 BF 14 00 BE D2 FF B8 00 9B 71 FF ..............q.
00405AD0 2D 16 E9 00 CC F0 69 D7 00 AA F0 66 C6 F1 CE 9F -.....i....f....
00405AE0 FD 33 FF E4 AE 37 20 10 07 60 4D 00 51 00 42 CB .3...7 ..`M.Q.B.
00405AF0 00 E6 47 11 61 8B 5A C0 FF F8 00 38 42 00 46 4F ..G.a.Z....8B.FO
00405B00 00 D4 0A AB DC 58 F8 00 00 63 9B F8 A1 99 FF AC .....X...c......
00405B10 14 D6 0E 8E 00 BA 69 FF BF 91 7A 12 60 F6 00 50 ......i...z.`..P
00405B20 9B 41 FF 28 BE D4 95 0F 41 C0 58 30 EA FF F6 77 .A.(....A.X0...w
00405B30 0E E7 4D 62 19 F2 9A C7 FF 3B 94 BF DE 84 71 FA ..Mb.....;....q.
00405B40 27 64 1C 84 1A 17 80 95 3A 5E 9E 3A F6 26 BE 37 'd......:^.:.&.7
00405B50 E8 85 02 00 29 FF 41 00 58 CE 8B B0 E9 8F 03 DA ....).A.X.......
00405B60 EB 68 08 00 FF A0 C9 32 A3 0A 8C D0 2C E3 14 3D .h.....2....,..=
00405B70 E4 7D B8 CA FE 14 B9 50 00 CB 00 B4 29 00 A0 29 .}.....P....)..)
00405B80 6C 13 19 0E 3A 28 B9 1E A9 54 4D 1C E6 F9 D5 37 l...:(...TM....7
00405B90 86 B1 66 C6 41 E7 29 08 00 00 CB 42 1C 00 14 3C ..f.A.)....B...<
00405BA0 00 EA 39 42 08 F3 D4 A9 69 23 D3 3F FE 85 5C BC ..9B....i#.?..\.
00405BB0 00 44 65 00 77 FF AD A7 0A F4 00 A3 B8 13 B4 62 .De.w..........b
00405BC0 5F 12 25 B0 45 BD 98 03 00 20 B4 62 59 18 EC 00 _.%.E.... .bY...
00405BD0 53 00 96 77 41 00 41 42 D2 EB A9 42 1B 00 73 2A S..wA.AB...B..s*
00405BE0 68 6C 83 00 48 FF 00 06 00 19 C6 85 D2 DB 24 FF hl..H.........$.
00405BF0 D2 89 FF CF D3 D5 A1 44 40 01 19 E2 EB 91 00 D4 .......D@.......
00405C00 D7 69 15 39 00 14 24 00 DB 88 00 FF 00 62 9C 39 .i.9..$......b.9
00405C10 0C 71 65 A0 FC 00 00 E8 FF 79 7B 14 98 82 FC 98 .qe......y{.....
00405C20 F8 FF 13 35 00 07 02 09 DD 00 08 55 E4 F0 A1 CF ...5.......U....
00405C30 77 00 64 ED B4 73 FF 95 7C E7 E0 11 FE 00 7D FC w.d..s..|.....}.
00405C40 00 DD A8 00 13 84 C9 53 73 D8 E0 00 38 00 AA 92 .......Ss...8...
00405C50 BE 8C 99 82 B9 6D EF 00 FF 1D FF CD A2 00 22 86 .....m........".
00405C60 FF 10 FF 95 01 CE E2 88 97 41 21 B9 70 9F F1 FF .........A!.p...
00405C70 E7 4C 63 00 02 1B 68 BB 40 01 FF EC DA 14 2E 34 .Lc...h.@......4
00405C80 C8 80 00 00 77 8E 6E BF 0C DB 45 61 DA 33 51 00 ....w.n...Ea.3Q.
00405C90 15 D8 08 94 86 63 FF C2 F0 69 14 C4 00 8E 99 2E .....c...i......
00405CA0 82 49 37 E7 BD 3E 9C 0D 0D 7C 38 00 3B 00 70 20 .I7..>...|8.;.p 
00405CB0 17 B0 C2 E5 C7 4F 22 38 C6 00 61 FF C3 3A 00 AB .....O"8..a..:..
00405CC0 FF DD D4 D1 F9 1E 99 B9 A2 00 FF B1 00 83 68 02 ..............h.
00405CD0 FF 00 00 66 0F DB 00 21 6A FF 70 71 E1 1A 98 B9 ...f...!j.pq....
00405CE0 57 A4 06 9D 1D 5C 56 7F 05 65 00 F1 A0 D0 D0 38 W....\V..e.....8
00405CF0 9F 11 4B C1 8E E9 3A 26 DD DB F0 5C 5F DF 15 0B ..K...:&...\_...
00405D00 48 7D E5 F7 00 FF 25 D6 CF 68 00 00 3B 09 28 A1 H}....%..h..;.(.
00405D10 6D 75 08 17 C0 2C 2B 1F 93 5A 37 00 F0 6F 00 69 mu...,+..Z7..o.i
00405D20 FF 00 9C 3B DE BE 42 F8 20 A5 5F E5 ED 7C 00 61 ...;..B. ._..|.a
00405D30 6B F8 C3 AA 00 7E 26 2E 00 00 00 F6 23 80 FF 90 k....~&.....#...
00405D40 00 00 00 BF 00 B7 18 00 9A 09 6D 64 C5 B9 9E 10 ..........md....
00405D50 FE C0 89 F5 F2 7C 64 F1 7F 3D E1 04 00 FF 00 D7 .....|d..=......
00405D60 17 57 00 68 CE 39 DB 0D EC CE 26 CD FC 00 07 C1 .W.h.9....&.....
00405D70 B1 12 25 F4 D5 0A 27 20 39 F1 6F D5 DF 13 FF 00 ..%...' 9.o.....
00405D80 2A 23 43 DF 17 46 48 68 C1 71 72 22 3B 6A 00 00 *#C..FHh.qr";j..
00405D90 00 1C 26 C2 4B A9 3B 35 B4 00 C8 43 C7 C7 15 82 ..&.K.;5...C....
00405DA0 97 50 30 95 9E E2 57 3F 6A DD E5 FE 80 70 00 78 .P0...W?j....p.x
00405DB0 D7 6A 82 30 8A 93 D6 4E 95 36 6C D6 F4 0C 7B 42 .j.0...N.6l...{B
00405DC0 38 8E 5E 0A D8 96 67 04 6C D2 B2 DF DB 37 F1 6C 8.^...g.l....7.l
00405DD0 58 59 8F 73 14 63 46 C8 84 37 E3 01 27 B3 9C CE XY.s.cF..7..'...
00405DE0 00 4C EF 44 0C F8 33 00 1F 04 98 78 00 DC 99 F8 .L.D..3....x....
00405DF0 65 FF CB 4E 43 B6 91 04 AB 14 E7 00 FB 83 03 81 e..NC...........
00405E00 4C 9F 35 43 69 8D 00 1C 95 D6 00 BD A7 5C C1 00 L.5Ci........\..
00405E10 00 F3 73 00 4D 7B 71 A1 71 33 00 E3 FE E6 00 00 ..s.M{q.q3......
00405E20 D9 FE 40 DC E5 7E 7E 0D 61 00 00 AF 87 00 83 BD ..@..~~.a.......
00405E30 40 83 DE 80 91 22 02 55 43 AE 00 72 E5 0B 8D 00 @....".UC..r....
00405E40 13 F2 1A 17 43 A3 44 08 ED 31 9F 00 90 CE 00 3B ....C.D..1.....;
00405E50 61 22 28 6E 50 00 38 00 86 5C 8C B2 8F B1 AB FC a"(nP.8..\......
00405E60 B9 11 8A 1A 9C A5 6D 5D 61 A6 70 64 0D EB D2 FF ......m]a.pd....
00405E70 00 18 00 75 82 22 CE 00 96 4C F6 00 BD 00 9D E3 ...u."...L......
00405E80 8F 1D 39 3A 21 51 D7 40 00 77 00 00 88 00 15 65 ..9:!Q.@.w.....e
00405E90 D2 92 D4 83 30 FF A3 00 0F B5 C6 9A B6 44 38 42 ....0........D8B
00405EA0 1C 00 2E 01 BE 00 F1 00 43 0B 60 E0 33 FB FB CB ........C.`.3...
00405EB0 62 AF 30 A5 18 00 C0 F4 EF FB 00 F2 C2 70 FF C2 b.0..........p..
00405EC0 40 60 A0 D2 BB ED 4D 56 EF C8 04 30 FF CC 9D 3C @`....MV...0...<
00405ED0 06 31 00 61 F9 08 0F 65 03 58 C1 F3 96 40 AC E3 .1.a...e.X...@..
00405EE0 1B 00 AE 00 D1 FF A0 E1 DC 00 F4 09 7E 14 A6 FD ............~...
00405EF0 ED 79 89 6E 00 BC FE D9 0D 76 BB 00 30 FB 20 BC .y.n.....v..0. .
00405F00 DC 79 E3 18 3A E3 D8 FD 00 49 78 FF 0F 01 0E 10 .y..:....Ix.....
00405F10 1F 02 C6 FF 7A 05 20 DF 00 53 FE DB 0F E4 6D 3A ....z. ..S....m:
00405F20 18 F6 32 BB F3 01 FF 3C 13 6D 46 00 00 06 12 FF ..2....<.mF.....
00405F30 08 91 6A 0E 05 A2 55 12 D1 DD 4F 00 04 75 D9 00 ..j...U...O..u..
00405F40 1A 1E EC DA 00 13 4B 6E 21 33 27 00 55 C5 00 20 ......Kn!3'.U.. 
00405F50 1C C3 7E 51 79 01 0B 96 B1 C4 EA 4F 40 C5 94 60 ..~Qy......O@..`
00405F60 FA B9 CF 00 4E 37 BF D7 3C EF FE 70 78 06 76 00 ....N7..<..px.v.
00405F70 9B 66 2D 00 28 B5 3A 00 8A 00 C5 5C AF B7 00 00 .f-.(.:....\....
00405F80 D1 FF D6 39 11 08 A9 AA 32 5A 2C 18 98 74 20 B3 ...9....2Z,..t .
00405F90 87 B7 00 49 29 88 CB 3C 00 49 D5 D1 02 B9 32 F7 ...I)..<.I....2.
00405FA0 D4 00 09 CA 40 47 44 00 00 B4 00 CE 80 00 FF 00 ....@GD.........
00405FB0 37 C4 50 08 17 34 88 61 1C 1C 19 ED FD 56 B4 61 7.P..4.a.....V.a
00405FC0 C4 51 2F E4 C5 00 00 D7 6E 8F 7E C6 E2 86 A6 55 .Q/.....n.~....U
00405FD0 00 00 D1 D4 39 F7 B6 00 E6 84 0E 00 E8 FF C7 7D ....9..........}
00405FE0 02 E1 2D 00 42 06 91 9B CE 93 00 00 00 24 64 12 ..-.B........$d.
00405FF0 07 CC 85 0E 00 63 89 FF 3D A8 7D FA 10 71 5B 00 .....c..=.}..q[.
00406000 E8 F9 FF 88 B3 4A 01 2C 07 C1 18 87 90 85 D5 00 .....J.,........
00406010 8E 65 F6 14 9B 9F A7 FF C4 74 63 EE 92 EB 00 74 .e.......tc....t
00406020 72 FF 00 00 00 4E B2 FF 66 5A 5D 04 FF 00 82 42 r....N..fZ]....B
00406030 29 38 3E 8F 00 98 86 5A B0 00 00 C1 C2 9C 4E AC )8>....Z......N.
00406040 52 00 E9 62 A7 DF EC 08 04 67 FF 00 00 6B D2 77 R..b.....g...k.w
00406050 A7 8C 34 FF 00 7A 83 C9 E7 F0 8A 23 11 C0 C6 52 ..4..z.....#...R
00406060 F0 E6 FF 90 EC D2 B7 00 97 15 C1 1A A6 00 7F 17 ................
00406070 DE 00 7E 3C C1 F7 43 36 FA 50 40 44 00 04 2E 1C ..~<..C6.P@D....
00406080 BD EC AE 00 2F 64 8A 02 00 FE 04 00 AF 00 41 78 ..../d........Ax
00406090 E7 2C B6 24 F8 00 02 B6 4F 16 9A D9 82 BC CC 97 .,.$....O.......
004060A0 39 39 03 00 38 1A F8 F1 76 5C 61 C0 4C 33 00 F7 99..8...v\a.L3..
004060B0 00 AD 70 1C 8C AA 42 5B 58 58 3D 21 B4 9E 65 D7 ..p...B[XX=!..e.
004060C0 08 66 5B BB FF 63 4C 72 16 F3 4A 6F 5C 5A 5D 96 .f[..cLr..Jo\Z].
004060D0 EA E6 00 38 D6 EA EE 90 D9 7C C8 D9 D4 00 6F D4 ...8.....|....o.
004060E0 C7 85 19 00 8D 0A 8E 59 00 09 FE 64 B1 FE 7F E3 .......Y...d....
004060F0 00 12 0B 32 60 AB B7 30 FE 1B 44 14 FF 00 63 70 ...2`..0..D...cp
00406100 E3 0C 23 00 E4 C5 A2 5D C5 00 92 B8 C1 18 29 57 ..#....]......)W
00406110 FC 00 2F B0 7E 28 31 00 00 E6 03 A3 EF 0E B7 D9 ../.~(1.........
00406120 FD 38 75 9C 38 AE A3 5A CC 4D 40 29 DC 00 70 41 .8u.8..Z.M@)..pA
00406130 FF 00 19 09 00 C7 C8 0A 61 00 F8 A8 E0 7F 85 63 ........a......c
00406140 11 B4 EF 00 D2 EA 63 EF 22 83 6C 7C B0 F7 BD 8B ......c.".l|....
00406150 00 FF 88 FF 32 B5 00 80 00 3E E3 BE 43 21 38 C2 ....2....>..C!8.
00406160 5E A4 8D 44 BB 2C 00 FF 50 00 61 4E E4 12 F4 83 ^..D.,..P.aN....
00406170 28 DA 23 00 54 00 6F 6C 61 00 2B 17 00 C2 B3 BD (.#.T.ola.+.....
00406180 41 13 A2 01 18 B9 1C 00 39 8D 00 6B 02 4E 91 60 A.......9..k.N.`
00406190 5A BB FF FF 5A 28 00 43 A3 0D 23 E0 BB 40 BD C3 Z...Z(.C..#..@..
004061A0 05 C3 63 38 42 BD 68 FF 00 FF 0E C1 DF 2C 81 02 ..c8B.h......,..
004061B0 80 D2 50 81 00 8E 00 FF 69 C4 17 00 FF 3E 78 C5 ..P.....i....>x.
004061C0 CB 00 EC 4B 00 0B 49 28 81 D4 DE 00 A8 D2 20 E5 ...K..I(...... .
004061D0 67 4E FA D2 1C 77 D9 EC FF 08 EC 34 57 F3 0C C3 gN...w.....4W...
004061E0 00 00 00 A9 53 D5 B6 8D F9 A5 2E 73 B3 00 59 C4 ....S......s..Y.
004061F0 00 BA 39 EC 71 00 E7 00 48 D3 3F 13 CC 06 AA CC ..9.q...H.?.....
00406200 58 05 00 F3 0C 53 23 41 43 E0 74 F9 85 40 6F 17 X....S#AC.t..@o.
00406210 02 E7 0F 1B 1D AA FF 90 83 52 F3 C3 9D BF A2 75 .........R.....u
00406220 00 1C A2 85 4C C5 FF F5 07 BC 31 00 BA 20 00 E0 ....L.....1.. ..
00406230 0D 3D 70 C1 3C BD 0B 00 00 F2 00 00 8E E0 F0 00 .=p.<...........
00406240 00 00 A9 FE 00 31 7E 28 74 54 36 96 EC FF 5A E9 .....1~(tT6...Z.
00406250 D2 E5 CF F7 00 F3 18 2D 43 FB FE FF 38 E8 CA F5 .......-C...8...
00406260 C9 2E 4C 7C 1B 47 89 00 00 B4 EF 41 0B E0 4C 1B ..L|.G.....A..L.
00406270 2C 0A BF 8E 57 86 C3 FD FF 6C 93 8B 00 8E 6C 00 ,...W....l....l.
00406280 29 4A 75 07 62 00 FA 60 D2 9A 00 E2 CF 44 CB 32 )Ju.b..`.....D.2
00406290 F7 12 F3 FE 1F 1E 1C F8 21 BD C9 7C 3F 81 21 2F ........!..|?.!/
004062A0 46 1C ED A0 48 FF 08 E6 00 39 01 00 A5 52 00 61 F...H....9...R.a
004062B0 E1 C6 E8 24 E9 A5 0A 13 41 48 44 06 00 93 36 FF ...$....AHD...6.
004062C0 EB 62 A2 62 00 C6 00 12 6D 74 E3 D2 FF 63 01 B6 .b.b....mt...c..
004062D0 E1 87 47 00 EF C6 72 D7 62 60 FF A4 6C E3 00 14 ..G...r.b`..l...
004062E0 87 88 53 12 CE CD C0 78 00 60 4B CD D7 0C 23 00 ..S....x.`K...#.
004062F0 6A 95 05 BC 02 47 9F 00 9C 0A 63 5C 66 90 CE FF j....G....c\f...
00406300 FF 80 0C 9A 34 FF 01 C3 F0 51 A5 2B 29 42 0C BF ....4....Q.+)B..
00406310 01 00 0E 8E 90 27 40 A1 31 FF FC 00 02 DB B0 9D .....'@.1.......
00406320 7A 45 DA 0C F9 9C B0 8B 43 53 C9 83 00 62 56 00 zE......CS...bV.
00406330 1A F3 01 90 00 E0 A4 09 C5 FF 84 80 00 80 80 00 ................
00406340 24 00 27 6D 00 3C E4 AE BF DE 33 FF 42 80 38 00 $.'m.<....3.B.8.
00406350 08 36 7B 80 00 FF 45 87 86 EE 64 CB 89 00 00 6C .6{...E...d....l
00406360 63 DB 91 00 00 00 2D 00 FE 18 7B 79 0B 70 5B B8 c.....-...{y.p[.
00406370 E3 29 DC 52 2D 02 00 76 EE C0 FF F3 00 42 41 1D .).R-..v.....BA.
00406380 48 00 DF 93 01 DC EE 00 EB C3 00 52 07 1B 85 C4 H..........R....
00406390 BC A4 00 EC D0 C1 00 55 70 70 59 22 FC 04 21 50 .......UppY"..!P
004063A0 D0 FF 81 FF F9 A9 96 47 A2 2E 29 56 9B 00 C2 86 .......G..)V....
004063B0 3B 59 BB 73 62 9E 00 A0 66 18 C2 00 72 26 3B 00 ;Y.sb...f...r&;.
004063C0 ED 21 C9 DD 44 4D 36 8D DC FF D8 37 C0 F5 00 62 .!..DM6....7...b
004063D0 A4 74 00 FF 16 F0 F5 AA C1 F8 86 10 77 0E 90 00 .t..........w...
004063E0 FF 00 2A 00 FC 00 F9 14 20 DE 00 FF E5 69 9A A3 ..*..... ....i..
004063F0 56 85 FF 94 F0 49 ED D1 30 20 2C 7C 50 06 5D 00 V....I..0 ,|P.].
00406400 C0 E3 F6 F9 1A A1 27 FC BD E7 00 72 17 98 00 0F ......'....r....
00406410 03 00 AF D4 45 9F 3E 00 41 30 44 29 4E E3 CC E0 ....E.>.A0D)N...
00406420 AA 30 15 AD D9 2A 1B C4 C0 00 42 D9 1C 80 74 58 .0...*....B...tX
00406430 00 3B 58 02 10 4B 35 0F 92 C8 FF 69 28 27 79 4A .;X..K5....i('yJ
00406440 00 4F D9 00 8F 00 B0 00 FF BE C8 4F 69 20 77 D9 .O.........Oi w.
00406450 74 00 1C 99 00 00 71 7B 00 62 0A 31 10 00 FF 1A t.....q{.b.1....
00406460 F7 5F 72 46 03 A8 11 FE 03 80 00 03 FF 00 0A C7 ._rF............
00406470 15 00 FF 9B F8 86 CF 4C 00 4D 18 C9 36 DC 51 00 .......L.M..6.Q.
00406480 1F 1F 00 57 00 40 3B 0A D8 FF E0 4F 64 AA AE 00 ...W.@;....Od...
00406490 49 0C 41 70 A1 B4 3B F2 9B BC 5E D8 00 3E BF 95 I.Ap..;...^..>..
004064A0 EC 00 4C 4C 36 8A 7C 00 0B 1A FF 38 7A 41 1F 6E ..LL6.|....8zA.n
004064B0 DF BB EF C8 C3 6D A1 00 FE 16 00 BC 4F D5 0E 00 .....m......O...
004064C0 82 5D 00 00 BD 38 28 27 66 80 3D 00 4D E4 00 D7 .]...8('f.=.M...
004064D0 9F 02 B6 00 07 B4 A5 F8 F1 CF 18 FF A6 C3 4F 83 ..............O.
004064E0 90 00 A9 1E 9B 38 AD 5C 2B BB 00 E2 C7 8C CD EA .....8.\+.......
004064F0 0C AB 78 00 B0 5D 14 ED CD FF 42 58 59 87 51 86 ..x..]....BXY.Q.
00406500 D6 0D ED F7 C8 2E D1 0A 54 BF 18 00 6F AD FF F0 ........T...o...
00406510 00 23 F1 50 48 6E FF EA AE A8 76 9A 17 00 FF E7 .#.PHn....v.....
00406520 00 13 9B 81 00 17 DA D7 58 EE 59 05 0B 9F DD 9C ........X.Y.....
00406530 BB 57 45 C7 47 F9 34 5A 76 1D C0 E8 6C 00 00 08 .WE.G.4Zv...l...
00406540 F7 8C 59 A5 5B 99 FF F7 A1 FF 3E 33 2E 18 98 A2 ..Y.[.....>3....
00406550 00 BC EC FF 3C F5 F6 4F 2C 17 39 38 C0 0B 3E 70 ....<..O,.98..>p
00406560 18 D3 F3 3B 60 00 10 73 41 02 CF FF FC AA 2B 6E ...;`..sA.....+n
00406570 07 84 74 2F B5 E1 DD 00 EB 6C 00 98 9B BF A5 26 ..t/.....l.....&
00406580 49 E0 00 93 41 3B 00 09 9C D8 00 EA 11 00 BA 9C I...A;..........
00406590 AE 00 40 E4 9E E9 23 B0 7C 54 4D 4A 6A 73 B3 9B ..@...#.|TMJjs..
004065A0 52 18 75 FF 7A 00 62 00 04 D9 5E 53 51 97 7B D8 R.u.z.b...^SQ.{.
004065B0 43 DB 7A A5 3E 10 00 00 BD 5C 07 75 6E 0A 96 7F C.z.>....\.un...
004065C0 80 40 B3 42 BD 00 99 72 AF 6F 33 08 31 00 A7 E4 .@.B...r.o3.1...
004065D0 ED 52 E5 00 E1 1F 00 17 00 00 38 44 0E 66 00 C8 .R........8D.f..
004065E0 00 FF F9 02 BE E9 AF 89 6F 00 95 20 4B 52 E2 FA ........o.. KR..
004065F0 06 FD 59 DA D4 43 C4 4F A1 00 00 4A B2 1E 44 3A ..Y..C.O...J..D:
00406600 00 00 00 00 00 00 00 00 00 00 00 00 00 00 00 00 ................
00406610 00 00 00 00 00 00 00 00 00 00 00 00 00 00 00 00 ................
00406620 00 00 00 00 00 00 00 00 00 00 00 00 00 00 00 00 ................
00406630 00 00 00 00 00 00 00 00 00 00 00 00 00 00 00 00 ................
00406640 00 00 00 00 00 00 00 00 00 00 00 00 00 00 00 00 ................
00406650 00 00 00 00 00 00 00 00 00 00 00 00 00 00 00 00 ................
00406660 00 00 00 00 00 00 00 00 00 00 00 00 00 00 00 00 ................
00406670 00 00 00 00 00 00 00 00 00 00 00 00 00 00 00 00 ................
00406680 00 00 00 00 00 00 00 00 00 00 00 00 00 00 00 00 ................
00406690 00 00 00 00 00 00 00 00 00 00 00 00 00 00 00 00 ................
004066A0 00 00 00 00 00 00 00 00 00 00 00 00 00 00 00 00 ................
004066B0 00 00 00 00 00 00 00 00 00 00 00 00 00 00 00 00 ................
004066C0 00 00 00 00 00 00 00 00 00 00 00 00 00 00 00 00 ................
004066D0 00 00 00 00 00 00 00 00 00 00 00 00 00 00 00 00 ................
004066E0 00 00 00 00 00 00 00 00 00 00 00 00 00 00 00 00 ................
004066F0 00 00 00 00 00 00 00 00 00 00 00 00 00 00 00 00 ................
00406700 00 00 00 00 00 00 00 00 00 00 00 00 00 00 00 00 ................
00406710 00 00 00 00 00 00 00 00 00 00 00 00 00 00 00 00 ................
00406720 00 00 00 00 00 00 00 00 00 00 00 00 00 00 00 00 ................
00406730 00 00 00 00 00 00 00 00 00 00 00 00 00 00 00 00 ................
00406740 00 00 00 00 00 00 00 00 00 00 00 00 00 00 00 00 ................
00406750 00 00 00 00 00 00 00 00 00 00 00 00 00 00 00 00 ................
00406760 00 00 00 00 00 00 00 00 00 00 00 00 00 00 00 00 ................
00406770 00 00 00 00 00 00 00 00 00 00 00 00 00 00 00 00 ................
00406780 00 00 00 00 00 00 00 00 00 00 00 00 00 00 00 00 ................
00406790 00 00 00 00 00 00 00 00 00 00 00 00 00 00 00 00 ................
004067A0 00 00 00 00 00 00 00 00 00 00 00 00 00 00 00 00 ................
004067B0 00 00 00 00 00 00 00 00 00 00 00 00 00 00 00 00 ................
004067C0 00 00 00 00 00 00 00 00 00 00 00 00 00 00 00 00 ................
004067D0 00 00 00 00 00 00 00 00 00 00 00 00 00 00 00 00 ................
004067E0 00 00 00 00 00 00 00 00 00 00 00 00 00 00 00 00 ................
004067F0 00 00 00 00 00 00 00 00 00 00 00 00 00 00 00 00 ................
00406800 00 00 00 00 00 00 00 00 00 00 00 00 00 00 00 00 ................
00406810 00 00 00 00 00 00 00 00 00 00 00 00 00 00 00 00 ................
00406820 00 00 00 00 00 00 00 00 00 00 00 00 00 00 00 00 ................
00406830 00 00 00 00 00 00 00 00 00 00 00 00 00 00 00 00 ................
00406840 00 00 00 00 00 00 00 00 00 00 00 00 00 00 00 00 ................
00406850 00 00 00 00 00 00 00 00 00 00 00 00 00 00 00 00 ................
00406860 00 00 00 00 00 00 00 00 00 00 00 00 00 00 00 00 ................
00406870 00 00 00 00 00 00 00 00 00 00 00 00 00 00 00 00 ................
00406880 00 00 00 00 00 00 00 00 00 00 00 00 00 00 00 00 ................
00406890 00 00 00 00 00 00 00 00 00 00 00 00 00 00 00 00 ................
004068A0 00 00 00 00 00 00 00 00 00 00 00 00 00 00 00 00 ................
004068B0 00 00 00 00 00 00 00 00 00 00 00 00 00 00 00 00 ................
004068C0 00 00 00 00 00 00 00 00 00 00 00 00 00 00 00 00 ................
004068D0 00 00 00 00 00 00 00 00 00 00 00 00 00 00 00 00 ................
004068E0 00 00 00 00 00 00 00 00 00 00 00 00 00 00 00 00 ................
004068F0 00 00 00 00 00 00 00 00 00 00 00 00 00 00 00 00 ................
00406900 00 00 00 00 00 00 00 00 00 00 00 00 00 00 00 00 ................
00406910 00 00 00 00 00 00 00 00 00 00 00 00 00 00 00 00 ................
00406920 00 00 00 00 00 00 00 00 00 00 00 00 00 00 00 00 ................
00406930 00 00 00 00 00 00 00 00 00 00 00 00 00 00 00 00 ................
00406940 00 00 00 00 00 00 00 00 00 00 00 00 00 00 00 00 ................
00406950 00 00 00 00 00 00 00 00 00 00 00 00 00 00 00 00 ................
00406960 00 00 00 00 00 00 00 00 00 00 00 00 00 00 00 00 ................
00406970 00 00 00 00 00 00 00 00 00 00 00 00 00 00 00 00 ................
00406980 00 00 00 00 00 00 00 00 00 00 00 00 00 00 00 00 ................
00406990 00 00 00 00 00 00 00 00 00 00 00 00 00 00 00 00 ................
004069A0 00 00 00 00 00 00 00 00 00 00 00 00 00 00 00 00 ................
004069B0 00 00 00 00 00 00 00 00 00 00 00 00 00 00 00 00 ................
004069C0 00 00 00 00 00 00 00 00 00 00 00 00 00 00 00 00 ................
004069D0 00 00 00 00 00 00 00 00 00 00 00 00 00 00 00 00 ................
004069E0 00 00 00 00 00 00 00 00 00 00 00 00 00 00 00 00 ................
004069F0 00 00 00 00 00 00 00 00 00 00 00 00 00 00 00 00 ................
00406A00 00 00 00 00 00 00 00 00 00 00 00 00 00 00 00 00 ................
00406A10 00 00 00 00 00 00 00 00 00 00 00 00 00 00 00 00 ................
00406A20 00 00 00 00 00 00 00 00 00 00 00 00 00 00 00 00 ................
00406A30 00 00 00 00 00 00 00 00 00 00 00 00 00 00 00 00 ................
00406A40 00 00 00 00 00 00 00 00 00 00 00 00 00 00 00 00 ................
00406A50 00 00 00 00 00 00 00 00 00 00 00 00 00 00 00 00 ................
00406A60 00 00 00 00 00 00 00 00 00 00 00 00 00 00 00 00 ................
00406A70 00 00 00 00 00 00 00 00 00 00 00 00 00 00 00 00 ................
00406A80 00 00 00 00 00 00 00 00 00 00 00 00 00 00 00 00 ................
00406A90 00 00 00 00 00 00 00 00 00 00 00 00 00 00 00 00 ................
00406AA0 00 00 00 00 00 00 00 00 00 00 00 00 00 00 00 00 ................
00406AB0 00 00 00 00 00 00 00 00 00 00 00 00 00 00 00 00 ................
00406AC0 00 00 00 00 00 00 00 00 00 00 00 00 00 00 00 00 ................
00406AD0 00 00 00 00 00 00 00 00 00 00 00 00 00 00 00 00 ................
00406AE0 00 00 00 00 00 00 00 00 00 00 00 00 00 00 00 00 ................
00406AF0 00 00 00 00 00 00 00 00 00 00 00 00 00 00 00 00 ................
00406B00 00 00 00 00 00 00 00 00 00 00 00 00 00 00 00 00 ................
00406B10 00 00 00 00 00 00 00 00 00 00 00 00 00 00 00 00 ................
00406B20 00 00 00 00 00 00 00 00 00 00 00 00 00 00 00 00 ................
00406B30 00 00 00 00 00 00 00 00 00 00 00 00 00 00 00 00 ................
00406B40 00 00 00 00 00 00 00 00 00 00 00 00 00 00 00 00 ................
00406B50 00 00 00 00 00 00 00 00 00 00 00 00 00 00 00 00 ................
00406B60 00 00 00 00 00 00 00 00 00 00 00 00 00 00 00 00 ................
00406B70 00 00 00 00 00 00 00 00 00 00 00 00 00 00 00 00 ................
00406B80 00 00 00 00 00 00 00 00 00 00 00 00 00 00 00 00 ................
00406B90 00 00 00 00 00 00 00 00 00 00 00 00 00 00 00 00 ................
00406BA0 00 00 00 00 00 00 00 00 00 00 00 00 00 00 00 00 ................
00406BB0 00 00 00 00 00 00 00 00 00 00 00 00 00 00 00 00 ................
00406BC0 00 00 00 00 00 00 00 00 00 00 00 00 00 00 00 00 ................
00406BD0 00 00 00 00 00 00 00 00 00 00 00 00 00 00 00 00 ................
00406BE0 00 00 00 00 00 00 00 00 00 00 00 00 00 00 00 00 ................
00406BF0 00 00 00 00 00 00 00 00 00 00 00 00 00 00 00 00 ................
00406C00 00 00 00 00 00 00 00 00 00 00 00 00 00 00 00 00 ................
00406C10 00 00 00 00 00 00 00 00 00 00 00 00 00 00 00 00 ................
00406C20 00 00 00 00 00 00 00 00 00 00 00 00 00 00 00 00 ................
00406C30 00 00 00 00 00 00 00 00 00 00 00 00 00 00 00 00 ................
00406C40 00 00 00 00 00 00 00 00 00 00 00 00 00 00 00 00 ................
00406C50 00 00 00 00 00 00 00 00 00 00 00 00 00 00 00 00 ................
00406C60 00 00 00 00 00 00 00 00 00 00 00 00 00 00 00 00 ................
00406C70 00 00 00 00 00 00 00 00 00 00 00 00 00 00 00 00 ................
00406C80 00 00 00 00 00 00 00 00 00 00 00 00 00 00 00 00 ................
00406C90 00 00 00 00 00 00 00 00 00 00 00 00 00 00 00 00 ................
00406CA0 00 00 00 00 00 00 00 00 00 00 00 00 00 00 00 00 ................
00406CB0 00 00 00 00 00 00 00 00 00 00 00 00 00 00 00 00 ................
00406CC0 00 00 00 00 00 00 00 00 00 00 00 00 00 00 00 00 ................
00406CD0 00 00 00 00 00 00 00 00 00 00 00 00 00 00 00 00 ................
00406CE0 00 00 00 00 00 00 00 00 00 00 00 00 00 00 00 00 ................
00406CF0 00 00 00 00 00 00 00 00 00 00 00 00 00 00 00 00 ................
00406D00 00 00 00 00 00 00 00 00 00 00 00 00 00 00 00 00 ................
00406D10 00 00 00 00 00 00 00 00 00 00 00 00 00 00 00 00 ................
00406D20 00 00 00 00 00 00 00 00 00 00 00 00 00 00 00 00 ................
00406D30 00 00 00 00 00 00 00 00 00 00 00 00 00 00 00 00 ................
00406D40 00 00 00 00 00 00 00 00 00 00 00 00 00 00 00 00 ................
00406D50 00 00 00 00 00 00 00 00 00 00 00 00 00 00 00 00 ................
00406D60 00 00 00 00 00 00 00 00 00 00 00 00 00 00 00 00 ................
00406D70 00 00 00 00 00 00 00 00 00 00 00 00 00 00 00 00 ................
00406D80 00 00 00 00 00 00 00 00 00 00 00 00 00 00 00 00 ................
00406D90 00 00 00 00 00 00 00 00 00 00 00 00 00 00 00 00 ................
00406DA0 00 00 00 00 00 00 00 00 00 00 00 00 00 00 00 00 ................
00406DB0 00 00 00 00 00 00 00 00 00 00 00 00 00 00 00 00 ................
00406DC0 00 00 00 00 00 00 00 00 00 00 00 00 00 00 00 00 ................
00406DD0 00 00 00 00 00 00 00 00 00 00 00 00 00 00 00 00 ................
00406DE0 00 00 00 00 00 00 00 00 00 00 00 00 00 00 00 00 ................
00406DF0 00 00 00 00 00 00 00 00 00 00 00 00 00 00 00 00 ................
00406E00 00 00 00 00 00 00 00 00 00 00 00 00 00 00 00 00 ................
00406E10 00 00 00 00 00 00 00 00 00 00 00 00 00 00 00 00 ................
00406E20 00 00 00 00 00 00 00 00 00 00 00 00 00 00 00 00 ................
00406E30 00 00 00 00 00 00 00 00 00 00 00 00 00 00 00 00 ................
00406E40 00 00 00 00 00 00 00 00 00 00 00 00 00 00 00 00 ................
00406E50 00 00 00 00 00 00 00 00 00 00 00 00 00 00 00 00 ................
00406E60 00 00 00 00 00 00 00 00 00 00 00 00 00 00 00 00 ................
00406E70 00 00 00 00 00 00 00 00 00 00 00 00 00 00 00 00 ................
00406E80 00 00 00 00 00 00 00 00 00 00 00 00 00 00 00 00 ................
00406E90 00 00 00 00 00 00 00 00 00 00 00 00 00 00 00 00 ................
00406EA0 00 00 00 00 00 00 00 00 00 00 00 00 00 00 00 00 ................
00406EB0 00 00 00 00 00 00 00 00 00 00 00 00 00 00 00 00 ................
00406EC0 00 00 00 00 00 00 00 00 00 00 00 00 00 00 00 00 ................
00406ED0 00 00 00 00 00 00 00 00 00 00 00 00 00 00 00 00 ................
00406EE0 00 00 00 00 00 00 00 00 00 00 00 00 00 00 00 00 ................
00406EF0 00 00 00 00 00 00 00 00 00 00 00 00 00 00 00 00 ................
00406F00 00 00 00 00 00 00 00 00 00 00 00 00 00 00 00 00 ................
00406F10 00 00 00 00 00 00 00 00 00 00 00 00 00 00 00 00 ................
00406F20 00 00 00 00 00 00 00 00 00 00 00 00 00 00 00 00 ................
00406F30 00 00 00 00 00 00 00 00 00 00 00 00 00 00 00 00 ................
00406F40 00 00 00 00 00 00 00 00 00 00 00 00 00 00 00 00 ................
00406F50 00 00 00 00 00 00 00 00 00 00 00 00 00 00 00 00 ................
00406F60 00 00 00 00 00 00 00 00 00 00 00 00 00 00 00 00 ................
00406F70 00 00 00 00 00 00 00 00 00 00 00 00 00 00 00 00 ................
00406F80 00 00 00 00 00 00 00 00 00 00 00 00 00 00 00 00 ................
00406F90 00 00 00 00 00 00 00 00 00 00 00 00 00 00 00 00 ................
00406FA0 00 00 00 00 00 00 00 00 00 00 00 00 00 00 00 00 ................
00406FB0 00 00 00 00 00 00 00 00 00 00 00 00 00 00 00 00 ................
00406FC0 00 00 00 00 00 00 00 00 00 00 00 00 00 00 00 00 ................
00406FD0 00 00 00 00 00 00 00 00 00 00 00 00 00 00 00 00 ................
00406FE0 00 00 00 00 00 00 00 00 00 00 00 00 00 00 00 00 ................
00406FF0 00 00 00 00 00 00 00 00 00 00 00 00 00 00 00 00 ................
00407000 00 00 00 00 00 00 00 00 00 00 00 00 00 00 00 00 ................
00407010 00 00 00 00 00 00 00 00 00 00 00 00 00 00 00 00 ................
00407020 00 00 00 00 00 00 00 00 00 00 00 00 00 00 00 00 ................
00407030 00 00 00 00 00 00 00 00 00 00 00 00 00 00 00 00 ................
00407040 00 00 00 00 00 00 00 00 00 00 00 00 00 00 00 00 ................
00407050 00 00 00 00 00 00 00 00 00 00 00 00 00 00 00 00 ................
00407060 00 00 00 00 00 00 00 00 00 00 00 00 00 00 00 00 ................
00407070 00 00 00 00 00 00 00 00 00 00 00 00 00 00 00 00 ................
00407080 00 00 00 00 00 00 00 00 00 00 00 00 00 00 00 00 ................
00407090 00 00 00 00 00 00 00 00 00 00 00 00 00 00 00 00 ................
004070A0 00 00 00 00 00 00 00 00 00 00 00 00 00 00 00 00 ................
004070B0 00 00 00 00 00 00 00 00 00 00 00 00 00 00 00 00 ................
004070C0 00 00 00 00 00 00 00 00 00 00 00 00 00 00 00 00 ................
004070D0 00 00 00 00 00 00 00 00 00 00 00 00 00 00 00 00 ................
004070E0 00 00 00 00 00 00 00 00 00 00 00 00 00 00 00 00 ................
004070F0 00 00 00 00 00 00 00 00 00 00 00 00 00 00 00 00 ................
00407100 00 00 00 00 00 00 00 00 00 00 00 00 00 00 00 00 ................
00407110 00 00 00 00 00 00 00 00 00 00 00 00 00 00 00 00 ................
00407120 00 00 00 00 00 00 00 00 00 00 00 00 00 00 00 00 ................
00407130 00 00 00 00 00 00 00 00 00 00 00 00 00 00 00 00 ................
00407140 00 00 00 00 00 00 00 00 00 00 00 00 00 00 00 00 ................
00407150 00 00 00 00 00 00 00 00 00 00 00 00 00 00 00 00 ................
00407160 00 00 00 00 00 00 00 00 00 00 00 00 00 00 00 00 ................
00407170 00 00 00 00 00 00 00 00 00 00 00 00 00 00 00 00 ................
00407180 00 00 00 00 00 00 00 00 00 00 00 00 00 00 00 00 ................
00407190 00 00 00 00 00 00 00 00 00 00 00 00 00 00 00 00 ................
004071A0 00 00 00 00 00 00 00 00 00 00 00 00 00 00 00 00 ................
004071B0 00 00 00 00 00 00 00 00 00 00 00 00 00 00 00 00 ................
004071C0 00 00 00 00 00 00 00 00 00 00 00 00 00 00 00 00 ................
004071D0 00 00 00 00 00 00 00 00 00 00 00 00 00 00 00 00 ................
004071E0 00 00 00 00 00 00 00 00 00 00 00 00 00 00 00 00 ................
004071F0 00 00 00 00 00 00 00 00 00 00 00 00 00 00 00 00 ................
00407200 00 00 00 00 00 00 00 00 00 00 00 00 00 00 00 00 ................
00407210 00 00 00 00 00 00 00 00 00 00 00 00 00 00 00 00 ................
00407220 00 00 00 00 00 00 00 00 00 00 00 00 00 00 00 00 ................
00407230 00 00 00 00 00 00 00 00 00 00 00 00 00 00 00 00 ................
00407240 00 00 00 00 00 00 00 00 00 00 00 00 00 00 00 00 ................
00407250 00 00 00 00 00 00 00 00 00 00 00 00 00 00 00 00 ................
00407260 00 00 00 00 00 00 00 00 00 00 00 00 00 00 00 00 ................
00407270 00 00 00 00 00 00 00 00 00 00 00 00 00 00 00 00 ................
00407280 00 00 00 00 00 00 00 00 00 00 00 00 00 00 00 00 ................
00407290 00 00 00 00 00 00 00 00 00 00 00 00 00 00 00 00 ................
004072A0 00 00 00 00 00 00 00 00 00 00 00 00 00 00 00 00 ................
004072B0 00 00 00 00 00 00 00 00 00 00 00 00 00 00 00 00 ................
004072C0 00 00 00 00 00 00 00 00 00 00 00 00 00 00 00 00 ................
004072D0 00 00 00 00 00 00 00 00 00 00 00 00 00 00 00 00 ................
004072E0 00 00 00 00 00 00 00 00 00 00 00 00 00 00 00 00 ................
004072F0 00 00 00 00 00 00 00 00 00 00 00 00 00 00 00 00 ................
00407300 00 00 00 00 00 00 00 00 00 00 00 00 00 00 00 00 ................
00407310 00 00 00 00 00 00 00 00 00 00 00 00 00 00 00 00 ................
00407320 00 00 00 00 00 00 00 00 00 00 00 00 00 00 00 00 ................
00407330 00 00 00 00 00 00 00 00 00 00 00 00 00 00 00 00 ................
00407340 00 00 00 00 00 00 00 00 00 00 00 00 00 00 00 00 ................
00407350 00 00 00 00 00 00 00 00 00 00 00 00 00 00 00 00 ................
00407360 00 00 00 00 00 00 00 00 00 00 00 00 00 00 00 00 ................
00407370 00 00 00 00 00 00 00 00 00 00 00 00 00 00 00 00 ................
00407380 00 00 00 00 00 00 00 00 00 00 00 00 00 00 00 00 ................
00407390 00 00 00 00 00 00 00 00 00 00 00 00 00 00 00 00 ................
004073A0 00 00 00 00 00 00 00 00 00 00 00 00 00 00 00 00 ................
004073B0 00 00 00 00 00 00 00 00 00 00 00 00 00 00 00 00 ................
004073C0 00 00 00 00 00 00 00 00 00 00 00 00 00 00 00 00 ................
004073D0 00 00 00 00 00 00 00 00 00 00 00 00 00 00 00 00 ................
004073E0 00 00 00 00 00 00 00 00 00 00 00 00 00 00 00 00 ................
004073F0 00 00 00 00 00 00 00 00 00 00 00 00 00 00 00 00 ................
00407400 00 00 00 00 00 00 00 00 00 00 00 00 00 00 00 00 ................
00407410 00 00 00 00 00 00 00 00 00 00 00 00 00 00 00 00 ................
00407420 00 00 00 00 00 00 00 00 00 00 00 00 00 00 00 00 ................
00407430 00 00 00 00 00 00 00 00 00 00 00 00 00 00 00 00 ................
00407440 00 00 00 00 00 00 00 00 00 00 00 00 00 00 00 00 ................
00407450 00 00 00 00 00 00 00 00 00 00 00 00 00 00 00 00 ................
00407460 00 00 00 00 00 00 00 00 00 00 00 00 00 00 00 00 ................
00407470 00 00 00 00 00 00 00 00 00 00 00 00 00 00 00 00 ................
00407480 00 00 00 00 00 00 00 00 00 00 00 00 00 00 00 00 ................
00407490 00 00 00 00 00 00 00 00 00 00 00 00 00 00 00 00 ................
004074A0 00 00 00 00 00 00 00 00 00 00 00 00 00 00 00 00 ................
004074B0 00 00 00 00 00 00 00 00 00 00 00 00 00 00 00 00 ................
004074C0 00 00 00 00 00 00 00 00 00 00 00 00 00 00 00 00 ................
004074D0 00 00 00 00 00 00 00 00 00 00 00 00 00 00 00 00 ................
004074E0 00 00 00 00 00 00 00 00 00 00 00 00 00 00 00 00 ................
004074F0 00 00 00 00 00 00 00 00 00 00 00 00 00 00 00 00 ................
00407500 00 00 00 00 00 00 00 00 00 00 00 00 00 00 00 00 ................
00407510 00 00 00 00 00 00 00 00 00 00 00 00 00 00 00 00 ................
00407520 00 00 00 00 00 00 00 00 00 00 00 00 00 00 00 00 ................
00407530 00 00 00 00 00 00 00 00 00 00 00 00 00 00 00 00 ................
00407540 00 00 00 00 00 00 00 00 00 00 00 00 00 00 00 00 ................
00407550 00 00 00 00 00 00 00 00 00 00 00 00 00 00 00 00 ................
00407560 00 00 00 00 00 00 00 00 00 00 00 00 00 00 00 00 ................
00407570 00 00 00 00 00 00 00 00 00 00 00 00 00 00 00 00 ................
00407580 00 00 00 00 00 00 00 00 00 00 00 00 00 00 00 00 ................
00407590 00 00 00 00 00 00 00 00 00 00 00 00 00 00 00 00 ................
004075A0 00 00 00 00 00 00 00 00 00 00 00 00 00 00 00 00 ................
004075B0 00 00 00 00 00 00 00 00 00 00 00 00 00 00 00 00 ................
004075C0 00 00 00 00 00 00 00 00 00 00 00 00 00 00 00 00 ................
004075D0 00 00 00 00 00 00 00 00 00 00 00 00 00 00 00 00 ................
004075E0 00 00 00 00 00 00 00 00 00 00 00 00 00 00 00 00 ................
004075F0 00 00 00 00 00 00 00 00 00 00 00 00 00 00 00 00 ................
00407600 00 00 00 00 00 00 00 00 00 00 00 00 00 00 00 00 ................
00407610 00 00 00 00 00 00 00 00 00 00 00 00 00 00 00 00 ................
00407620 00 00 00 00 00 00 00 00 00 00 00 00 00 00 00 00 ................
00407630 00 00 00 00 00 00 00 00 00 00 00 00 00 00 00 00 ................
00407640 00 00 00 00 00 00 00 00 00 00 00 00 00 00 00 00 ................
00407650 00 00 00 00 00 00 00 00 00 00 00 00 00 00 00 00 ................
00407660 00 00 00 00 00 00 00 00 00 00 00 00 00 00 00 00 ................
00407670 00 00 00 00 00 00 00 00 00 00 00 00 00 00 00 00 ................
00407680 00 00 00 00 00 00 00 00 00 00 00 00 00 00 00 00 ................
00407690 00 00 00 00 00 00 00 00 00 00 00 00 00 00 00 00 ................
004076A0 00 00 00 00 00 00 00 00 00 00 00 00 00 00 00 00 ................
004076B0 00 00 00 00 00 00 00 00 00 00 00 00 00 00 00 00 ................
004076C0 00 00 00 00 00 00 00 00 00 00 00 00 00 00 00 00 ................
004076D0 00 00 00 00 00 00 00 00 00 00 00 00 00 00 00 00 ................
004076E0 00 00 00 00 00 00 00 00 00 00 00 00 00 00 00 00 ................
004076F0 00 00 00 00 00 00 00 00 00 00 00 00 00 00 00 00 ................
00407700 00 00 00 00 00 00 00 00 00 00 00 00 00 00 00 00 ................
00407710 00 00 00 00 00 00 00 00 00 00 00 00 00 00 00 00 ................
00407720 00 00 00 00 00 00 00 00 00 00 00 00 00 00 00 00 ................
00407730 00 00 00 00 00 00 00 00 00 00 00 00 00 00 00 00 ................
00407740 00 00 00 00 00 00 00 00 00 00 00 00 00 00 00 00 ................
00407750 00 00 00 00 00 00 00 00 00 00 00 00 00 00 00 00 ................
00407760 00 00 00 00 00 00 00 00 00 00 00 00 00 00 00 00 ................
00407770 00 00 00 00 00 00 00 00 00 00 00 00 00 00 00 00 ................
00407780 00 00 00 00 00 00 00 00 00 00 00 00 00 00 00 00 ................
00407790 00 00 00 00 00 00 00 00 00 00 00 00 00 00 00 00 ................
004077A0 00 00 00 00 00 00 00 00 00 00 00 00 00 00 00 00 ................
004077B0 00 00 00 00 00 00 00 00 00 00 00 00 00 00 00 00 ................
004077C0 00 00 00 00 00 00 00 00 00 00 00 00 00 00 00 00 ................
004077D0 00 00 00 00 00 00 00 00 00 00 00 00 00 00 00 00 ................
004077E0 00 00 00 00 00 00 00 00 00 00 00 00 00 00 00 00 ................
004077F0 00 00 00 00 00 00 00 00 00 00 00 00 00 00 00 00 ................
00407800 00 00 00 00 00 00 00 00 00 00 00 00 00 00 00 00 ................
00407810 00 00 00 00 00 00 00 00 00 00 00 00 00 00 00 00 ................
00407820 00 00 00 00 00 00 00 00 00 00 00 00 00 00 00 00 ................
00407830 00 00 00 00 00 00 00 00 00 00 00 00 00 00 00 00 ................
00407840 00 00 00 00 00 00 00 00 00 00 00 00 00 00 00 00 ................
00407850 00 00 00 00 00 00 00 00 00 00 00 00 00 00 00 00 ................
00407860 00 00 00 00 00 00 00 00 00 00 00 00 00 00 00 00 ................
00407870 00 00 00 00 00 00 00 00 00 00 00 00 00 00 00 00 ................
00407880 00 00 00 00 00 00 00 00 00 00 00 00 00 00 00 00 ................
00407890 00 00 00 00 00 00 00 00 00 00 00 00 00 00 00 00 ................
004078A0 00 00 00 00 00 00 00 00 00 00 00 00 00 00 00 00 ................
004078B0 00 00 00 00 00 00 00 00 00 00 00 00 00 00 00 00 ................
004078C0 00 00 00 00 00 00 00 00 00 00 00 00 00 00 00 00 ................
004078D0 00 00 00 00 00 00 00 00 00 00 00 00 00 00 00 00 ................
004078E0 00 00 00 00 00 00 00 00 00 00 00 00 00 00 00 00 ................
004078F0 00 00 00 00 00 00 00 00 00 00 00 00 00 00 00 00 ................
00407900 00 00 00 00 00 00 00 00 00 00 00 00 00 00 00 00 ................
00407910 00 00 00 00 00 00 00 00 00 00 00 00 00 00 00 00 ................
00407920 00 00 00 00 00 00 00 00 00 00 00 00 00 00 00 00 ................
00407930 00 00 00 00 00 00 00 00 00 00 00 00 00 00 00 00 ................
00407940 00 00 00 00 00 00 00 00 00 00 00 00 00 00 00 00 ................
00407950 00 00 00 00 00 00 00 00 00 00 00 00 00 00 00 00 ................
00407960 00 00 00 00 00 00 00 00 00 00 00 00 00 00 00 00 ................
00407970 00 00 00 00 00 00 00 00 00 00 00 00 00 00 00 00 ................
00407980 00 00 00 00 00 00 00 00 00 00 00 00 00 00 00 00 ................
00407990 00 00 00 00 00 00 00 00 00 00 00 00 00 00 00 00 ................
004079A0 00 00 00 00 00 00 00 00 00 00 00 00 00 00 00 00 ................
004079B0 00 00 00 00 00 00 00 00 00 00 00 00 00 00 00 00 ................
004079C0 00 00 00 00 00 00 00 00 00 00 00 00 00 00 00 00 ................
004079D0 00 00 00 00 00 00 00 00 00 00 00 00 00 00 00 00 ................
004079E0 00 00 00 00 00 00 00 00 00 00 00 00 00 00 00 00 ................
004079F0 00 00 00 00 00 00 00 00 00 00 00 00 00 00 00 00 ................
00407A00 00 00 00 00 00 00 00 00 00 00 00 00 00 00 00 00 ................
00407A10 00 00 00 00 00 00 00 00 00 00 00 00 00 00 00 00 ................
00407A20 00 00 00 00 00 00 00 00 00 00 00 00 00 00 00 00 ................
00407A30 00 00 00 00 00 00 00 00 00 00 00 00 00 00 00 00 ................
00407A40 00 00 00 00 00 00 00 00 00 00 00 00 00 00 00 00 ................
00407A50 00 00 00 00 00 00 00 00 00 00 00 00 00 00 00 00 ................
00407A60 00 00 00 00 00 00 00 00 00 00 00 00 00 00 00 00 ................
00407A70 00 00 00 00 00 00 00 00 00 00 00 00 00 00 00 00 ................
00407A80 00 00 00 00 00 00 00 00 00 00 00 00 00 00 00 00 ................
00407A90 00 00 00 00 00 00 00 00 00 00 00 00 00 00 00 00 ................
00407AA0 00 00 00 00 00 00 00 00 00 00 00 00 00 00 00 00 ................
00407AB0 00 00 00 00 00 00 00 00 00 00 00 00 00 00 00 00 ................
00407AC0 00 00 00 00 00 00 00 00 00 00 00 00 00 00 00 00 ................
00407AD0 00 00 00 00 00 00 00 00 00 00 00 00 00 00 00 00 ................
00407AE0 00 00 00 00 00 00 00 00 00 00 00 00 00 00 00 00 ................
00407AF0 00 00 00 00 00 00 00 00 00 00 00 00 00 00 00 00 ................
00407B00 00 00 00 00 00 00 00 00 00 00 00 00 00 00 00 00 ................
00407B10 00 00 00 00 00 00 00 00 00 00 00 00 00 00 00 00 ................
00407B20 00 00 00 00 00 00 00 00 00 00 00 00 00 00 00 00 ................
00407B30 00 00 00 00 00 00 00 00 00 00 00 00 00 00 00 00 ................
00407B40 00 00 00 00 00 00 00 00 00 00 00 00 00 00 00 00 ................
00407B50 00 00 00 00 00 00 00 00 00 00 00 00 00 00 00 00 ................
00407B60 00 00 00 00 00 00 00 00 00 00 00 00 00 00 00 00 ................
00407B70 00 00 00 00 00 00 00 00 00 00 00 00 00 00 00 00 ................
00407B80 00 00 00 00 00 00 00 00 00 00 00 00 00 00 00 00 ................
00407B90 00 00 00 00 00 00 00 00 00 00 00 00 00 00 00 00 ................
00407BA0 00 00 00 00 00 00 00 00 00 00 00 00 00 00 00 00 ................
00407BB0 00 00 00 00 00 00 00 00 00 00 00 00 00 00 00 00 ................
00407BC0 00 00 00 00 00 00 00 00 00 00 00 00 00 00 00 00 ................
00407BD0 00 00 00 00 00 00 00 00 00 00 00 00 00 00 00 00 ................
00407BE0 00 00 00 00 00 00 00 00 00 00 00 00 00 00 00 00 ................
00407BF0 00 00 00 00 00 00 00 00 00 00 00 00 00 00 00 00 ................
00407C00 00 00 00 00 00 00 00 00 00 00 00 00 00 00 00 00 ................
00407C10 00 00 00 00 00 00 00 00 00 00 00 00 00 00 00 00 ................
00407C20 00 00 00 00 00 00 00 00 00 00 00 00 00 00 00 00 ................
00407C30 00 00 00 00 00 00 00 00 00 00 00 00 00 00 00 00 ................
00407C40 00 00 00 00 00 00 00 00 00 00 00 00 00 00 00 00 ................
00407C50 00 00 00 00 00 00 00 00 00 00 00 00 00 00 00 00 ................
00407C60 00 00 00 00 00 00 00 00 00 00 00 00 00 00 00 00 ................
00407C70 00 00 00 00 00 00 00 00 00 00 00 00 00 00 00 00 ................
00407C80 00 00 00 00 00 00 00 00 00 00 00 00 00 00 00 00 ................
00407C90 00 00 00 00 00 00 00 00 00 00 00 00 00 00 00 00 ................
00407CA0 00 00 00 00 00 00 00 00 00 00 00 00 00 00 00 00 ................
00407CB0 00 00 00 00 00 00 00 00 00 00 00 00 00 00 00 00 ................
00407CC0 00 00 00 00 00 00 00 00 00 00 00 00 00 00 00 00 ................
00407CD0 00 00 00 00 00 00 00 00 00 00 00 00 00 00 00 00 ................
00407CE0 00 00 00 00 00 00 00 00 00 00 00 00 00 00 00 00 ................
00407CF0 00 00 00 00 00 00 00 00 00 00 00 00 00 00 00 00 ................
00407D00 00 00 00 00 00 00 00 00 00 00 00 00 00 00 00 00 ................
00407D10 00 00 00 00 00 00 00 00 00 00 00 00 00 00 00 00 ................
00407D20 00 00 00 00 00 00 00 00 00 00 00 00 00 00 00 00 ................
00407D30 00 00 00 00 00 00 00 00 00 00 00 00 00 00 00 00 ................
00407D40 00 00 00 00 00 00 00 00 00 00 00 00 00 00 00 00 ................
00407D50 00 00 00 00 00 00 00 00 00 00 00 00 00 00 00 00 ................
00407D60 00 00 00 00 00 00 00 00 00 00 00 00 00 00 00 00 ................
00407D70 00 00 00 00 00 00 00 00 00 00 00 00 00 00 00 00 ................
00407D80 00 00 00 00 00 00 00 00 00 00 00 00 00 00 00 00 ................
00407D90 00 00 00 00 00 00 00 00 00 00 00 00 00 00 00 00 ................
00407DA0 00 00 00 00 00 00 00 00 00 00 00 00 00 00 00 00 ................
00407DB0 00 00 00 00 00 00 00 00 00 00 00 00 00 00 00 00 ................
00407DC0 00 00 00 00 00 00 00 00 00 00 00 00 00 00 00 00 ................
00407DD0 00 00 00 00 00 00 00 00 00 00 00 00 00 00 00 00 ................
00407DE0 00 00 00 00 00 00 00 00 00 00 00 00 00 00 00 00 ................
00407DF0 00 00 00 00 00 00 00 00 00 00 00 00 00 00 00 00 ................
00407E00 00 00 00 00 00 00 00 00 00 00 00 00 00 00 00 00 ................
00407E10 00 00 00 00 00 00 00 00 00 00 00 00 00 00 00 00 ................
00407E20 00 00 00 00 00 00 00 00 00 00 00 00 00 00 00 00 ................
00407E30 00 00 00 00 00 00 00 00 00 00 00 00 00 00 00 00 ................
00407E40 00 00 00 00 00 00 00 00 00 00 00 00 00 00 00 00 ................
00407E50 00 00 00 00 00 00 00 00 00 00 00 00 00 00 00 00 ................
00407E60 00 00 00 00 00 00 00 00 00 00 00 00 00 00 00 00 ................
00407E70 00 00 00 00 00 00 00 00 00 00 00 00 00 00 00 00 ................
00407E80 00 00 00 00 00 00 00 00 00 00 00 00 00 00 00 00 ................
00407E90 00 00 00 00 00 00 00 00 00 00 00 00 00 00 00 00 ................
00407EA0 00 00 00 00 00 00 00 00 00 00 00 00 00 00 00 00 ................
00407EB0 00 00 00 00 00 00 00 00 00 00 00 00 00 00 00 00 ................
00407EC0 00 00 00 00 00 00 00 00 00 00 00 00 00 00 00 00 ................
00407ED0 00 00 00 00 00 00 00 00 00 00 00 00 00 00 00 00 ................
00407EE0 00 00 00 00 00 00 00 00 00 00 00 00 00 00 00 00 ................
00407EF0 00 00 00 00 00 00 00 00 00 00 00 00 00 00 00 00 ................
00407F00 00 00 00 00 00 00 00 00 00 00 00 00 00 00 00 00 ................
00407F10 00 00 00 00 00 00 00 00 00 00 00 00 00 00 00 00 ................
00407F20 00 00 00 00 00 00 00 00 00 00 00 00 00 00 00 00 ................
00407F30 00 00 00 00 00 00 00 00 00 00 00 00 00 00 00 00 ................
00407F40 00 00 00 00 00 00 00 00 00 00 00 00 00 00 00 00 ................
00407F50 00 00 00 00 00 00 00 00 00 00 00 00 00 00 00 00 ................
00407F60 00 00 00 00 00 00 00 00 00 00 00 00 00 00 00 00 ................
00407F70 00 00 00 00 00 00 00 00 00 00 00 00 00 00 00 00 ................
00407F80 00 00 00 00 00 00 00 00 00 00 00 00 00 00 00 00 ................
00407F90 00 00 00 00 00 00 00 00 00 00 00 00 00 00 00 00 ................
00407FA0 00 00 00 00 00 00 00 00 00 00 00 00 00 00 00 00 ................
00407FB0 00 00 00 00 00 00 00 00 00 00 00 00 00 00 00 00 ................
00407FC0 00 00 00 00 00 00 00 00 00 00 00 00 00 00 00 00 ................
00407FD0 00 00 00 00 00 00 00 00 00 00 00 00 00 00 00 00 ................
00407FE0 00 00 00 00 00 00 00 00 00 00 00 00 00 00 00 00 ................
00407FF0 00 00 00 00 00 00 00 00 00 00 00 00 00 00 00 00 ................
00408000 00 00 00 00 00 00 00 00 00 00 00 00 00 00 00 00 ................
00408010 00 00 00 00 00 00 00 00 00 00 00 00 00 00 00 00 ................
00408020 00 00 00 00 00 00 00 00 00 00 00 00 00 00 00 00 ................
00408030 00 00 00 00 00 00 00 00 00 00 00 00 00 00 00 00 ................
00408040 00 00 00 00 00 00 00 00 00 00 00 00 00 00 00 00 ................
00408050 00 00 00 00 00 00 00 00 00 00 00 00 00 00 00 00 ................
00408060 00 00 00 00 00 00 00 00 00 00 00 00 00 00 00 00 ................
00408070 00 00 00 00 00 00 00 00 00 00 00 00 00 00 00 00 ................
00408080 00 00 00 00 00 00 00 00 00 00 00 00 00 00 00 00 ................
00408090 00 00 00 00 00 00 00 00 00 00 00 00 00 00 00 00 ................
004080A0 00 00 00 00 00 00 00 00 00 00 00 00 00 00 00 00 ................
004080B0 00 00 00 00 00 00 00 00 00 00 00 00 00 00 00 00 ................
004080C0 00 00 00 00 00 00 00 00 00 00 00 00 00 00 00 00 ................
004080D0 00 00 00 00 00 00 00 00 00 00 00 00 00 00 00 00 ................
004080E0 00 00 00 00 00 00 00 00 00 00 00 00 00 00 00 00 ................
004080F0 00 00 00 00 00 00 00 00 00 00 00 00 00 00 00 00 ................
00408100 00 00 00 00 00 00 00 00 00 00 00 00 00 00 00 00 ................
00408110 00 00 00 00 00 00 00 00 00 00 00 00 00 00 00 00 ................
00408120 00 00 00 00 00 00 00 00 00 00 00 00 00 00 00 00 ................
00408130 00 00 00 00 00 00 00 00 00 00 00 00 00 00 00 00 ................
00408140 00 00 00 00 00 00 00 00 00 00 00 00 00 00 00 00 ................
00408150 00 00 00 00 00 00 00 00 00 00 00 00 00 00 00 00 ................
00408160 00 00 00 00 00 00 00 00 00 00 00 00 00 00 00 00 ................
00408170 00 00 00 00 00 00 00 00 00 00 00 00 00 00 00 00 ................
00408180 00 00 00 00 00 00 00 00 00 00 00 00 00 00 00 00 ................
00408190 00 00 00 00 00 00 00 00 00 00 00 00 00 00 00 00 ................
004081A0 00 00 00 00 00 00 00 00 00 00 00 00 00 00 00 00 ................
004081B0 00 00 00 00 00 00 00 00 00 00 00 00 00 00 00 00 ................
004081C0 00 00 00 00 00 00 00 00 00 00 00 00 00 00 00 00 ................
004081D0 00 00 00 00 00 00 00 00 00 00 00 00 00 00 00 00 ................
004081E0 00 00 00 00 00 00 00 00 00 00 00 00 00 00 00 00 ................
004081F0 00 00 00 00 00 00 00 00 00 00 00 00 00 00 00 00 ................
00408200 00 00 00 00 00 00 00 00 00 00 00 00 00 00 00 00 ................
00408210 00 00 00 00 00 00 00 00 00 00 00 00 00 00 00 00 ................
00408220 00 00 00 00 00 00 00 00 00 00 00 00 00 00 00 00 ................
00408230 00 00 00 00 00 00 00 00 00 00 00 00 00 00 00 00 ................
00408240 00 00 00 00 00 00 00 00 00 00 00 00 00 00 00 00 ................
00408250 00 00 00 00 00 00 00 00 00 00 00 00 00 00 00 00 ................
00408260 00 00 00 00 00 00 00 00 00 00 00 00 00 00 00 00 ................
00408270 00 00 00 00 00 00 00 00 00 00 00 00 00 00 00 00 ................
00408280 00 00 00 00 00 00 00 00 00 00 00 00 00 00 00 00 ................
00408290 00 00 00 00 00 00 00 00 00 00 00 00 00 00 00 00 ................
004082A0 00 00 00 00 00 00 00 00 00 00 00 00 00 00 00 00 ................
004082B0 00 00 00 00 00 00 00 00 00 00 00 00 00 00 00 00 ................
004082C0 00 00 00 00 00 00 00 00 00 00 00 00 00 00 00 00 ................
004082D0 00 00 00 00 00 00 00 00 00 00 00 00 00 00 00 00 ................
004082E0 00 00 00 00 00 00 00 00 00 00 00 00 00 00 00 00 ................
004082F0 00 00 00 00 00 00 00 00 00 00 00 00 00 00 00 00 ................
00408300 00 00 00 00 00 00 00 00 00 00 00 00 00 00 00 00 ................
00408310 00 00 00 00 00 00 00 00 00 00 00 00 00 00 00 00 ................
00408320 00 00 00 00 00 00 00 00 00 00 00 00 00 00 00 00 ................
00408330 00 00 00 00 00 00 00 00 00 00 00 00 00 00 00 00 ................
00408340 00 00 00 00 00 00 00 00 00 00 00 00 00 00 00 00 ................
00408350 00 00 00 00 00 00 00 00 00 00 00 00 00 00 00 00 ................
00408360 00 00 00 00 00 00 00 00 00 00 00 00 00 00 00 00 ................
00408370 00 00 00 00 00 00 00 00 00 00 00 00 00 00 00 00 ................
00408380 00 00 00 00 00 00 00 00 00 00 00 00 00 00 00 00 ................
00408390 00 00 00 00 00 00 00 00 00 00 00 00 00 00 00 00 ................
004083A0 00 00 00 00 00 00 00 00 00 00 00 00 00 00 00 00 ................
004083B0 00 00 00 00 00 00 00 00 00 00 00 00 00 00 00 00 ................
004083C0 00 00 00 00 00 00 00 00 00 00 00 00 00 00 00 00 ................
004083D0 00 00 00 00 00 00 00 00 00 00 00 00 00 00 00 00 ................
004083E0 00 00 00 00 00 00 00 00 00 00 00 00 00 00 00 00 ................
004083F0 00 00 00 00 00 00 00 00 00 00 00 00 00 00 00 00 ................
00408400 00 00 00 00 00 00 00 00 00 00 00 00 00 00 00 00 ................
00408410 00 00 00 00 00 00 00 00 00 00 00 00 00 00 00 00 ................
00408420 00 00 00 00 00 00 00 00 00 00 00 00 00 00 00 00 ................
00408430 00 00 00 00 00 00 00 00 00 00 00 00 00 00 00 00 ................
00408440 00 00 00 00 00 00 00 00 00 00 00 00 00 00 00 00 ................
00408450 00 00 00 00 00 00 00 00 00 00 00 00 00 00 00 00 ................
00408460 00 00 00 00 00 00 00 00 00 00 00 00 00 00 00 00 ................
00408470 00 00 00 00 00 00 00 00 00 00 00 00 00 00 00 00 ................
00408480 00 00 00 00 00 00 00 00 00 00 00 00 00 00 00 00 ................
00408490 00 00 00 00 00 00 00 00 00 00 00 00 00 00 00 00 ................
004084A0 00 00 00 00 00 00 00 00 00 00 00 00 00 00 00 00 ................
004084B0 00 00 00 00 00 00 00 00 00 00 00 00 00 00 00 00 ................
004084C0 00 00 00 00 00 00 00 00 00 00 00 00 00 00 00 00 ................
004084D0 00 00 00 00 00 00 00 00 00 00 00 00 00 00 00 00 ................
004084E0 00 00 00 00 00 00 00 00 00 00 00 00 00 00 00 00 ................
004084F0 00 00 00 00 00 00 00 00 00 00 00 00 00 00 00 00 ................
00408500 00 00 00 00 00 00 00 00 00 00 00 00 00 00 00 00 ................
00408510 00 00 00 00 00 00 00 00 00 00 00 00 00 00 00 00 ................
00408520 00 00 00 00 00 00 00 00 00 00 00 00 00 00 00 00 ................
00408530 00 00 00 00 00 00 00 00 00 00 00 00 00 00 00 00 ................
00408540 00 00 00 00 00 00 00 00 00 00 00 00 00 00 00 00 ................
00408550 00 00 00 00 00 00 00 00 00 00 00 00 00 00 00 00 ................
00408560 00 00 00 00 00 00 00 00 00 00 00 00 00 00 00 00 ................
00408570 00 00 00 00 00 00 00 00 00 00 00 00 00 00 00 00 ................
00408580 00 00 00 00 00 00 00 00 00 00 00 00 00 00 00 00 ................
00408590 00 00 00 00 00 00 00 00 00 00 00 00 00 00 00 00 ................
004085A0 00 00 00 00 00 00 00 00 00 00 00 00 00 00 00 00 ................
004085B0 00 00 00 00 00 00 00 00 00 00 00 00 00 00 00 00 ................
004085C0 00 00 00 00 00 00 00 00 00 00 00 00 00 00 00 00 ................
004085D0 00 00 00 00 00 00 00 00 00 00 00 00 00 00 00 00 ................
004085E0 00 00 00 00 00 00 00 00 00 00 00 00 00 00 00 00 ................
004085F0 00 00 00 00 00 00 00 00 00 00 00 00 00 00 00 00 ................
00408600 00 00 00 00 00 00 00 00 00 00 00 00 00 00 00 00 ................
00408610 00 00 00 00 00 00 00 00 00 00 00 00 00 00 00 00 ................
00408620 00 00 00 00 00 00 00 00 00 00 00 00 00 00 00 00 ................
00408630 00 00 00 00 00 00 00 00 00 00 00 00 00 00 00 00 ................
00408640 00 00 00 00 00 00 00 00 00 00 00 00 00 00 00 00 ................
00408650 00 00 00 00 00 00 00 00 00 00 00 00 00 00 00 00 ................
00408660 00 00 00 00 00 00 00 00 00 00 00 00 00 00 00 00 ................
00408670 00 00 00 00 00 00 00 00 00 00 00 00 00 00 00 00 ................
00408680 00 00 00 00 00 00 00 00 00 00 00 00 00 00 00 00 ................
00408690 00 00 00 00 00 00 00 00 00 00 00 00 00 00 00 00 ................
004086A0 00 00 00 00 00 00 00 00 00 00 00 00 00 00 00 00 ................
004086B0 00 00 00 00 00 00 00 00 00 00 00 00 00 00 00 00 ................
004086C0 00 00 00 00 00 00 00 00 00 00 00 00 00 00 00 00 ................
004086D0 00 00 00 00 00 00 00 00 00 00 00 00 00 00 00 00 ................
004086E0 00 00 00 00 00 00 00 00 00 00 00 00 00 00 00 00 ................
004086F0 00 00 00 00 00 00 00 00 00 00 00 00 00 00 00 00 ................
00408700 00 00 00 00 00 00 00 00 00 00 00 00 00 00 00 00 ................
00408710 00 00 00 00 00 00 00 00 00 00 00 00 00 00 00 00 ................
00408720 00 00 00 00 00 00 00 00 00 00 00 00 00 00 00 00 ................
00408730 00 00 00 00 00 00 00 00 00 00 00 00 00 00 00 00 ................
00408740 00 00 00 00 00 00 00 00 00 00 00 00 00 00 00 00 ................
00408750 00 00 00 00 00 00 00 00 00 00 00 00 00 00 00 00 ................
00408760 00 00 00 00 00 00 00 00 00 00 00 00 00 00 00 00 ................
00408770 00 00 00 00 00 00 00 00 00 00 00 00 00 00 00 00 ................
00408780 00 00 00 00 00 00 00 00 00 00 00 00 00 00 00 00 ................
00408790 00 00 00 00 00 00 00 00 00 00 00 00 00 00 00 00 ................
004087A0 00 00 00 00 00 00 00 00 00 00 00 00 00 00 00 00 ................
004087B0 00 00 00 00 00 00 00 00 00 00 00 00 00 00 00 00 ................
004087C0 00 00 00 00 00 00 00 00 00 00 00 00 00 00 00 00 ................
004087D0 00 00 00 00 00 00 00 00 00 00 00 00 00 00 00 00 ................
004087E0 00 00 00 00 00 00 00 00 00 00 00 00 00 00 00 00 ................
004087F0 00 00 00 00 00 00 00 00 00 00 00 00 00 00 00 00 ................
00408800 00 00 00 00 00 00 00 00 00 00 00 00 00 00 00 00 ................
00408810 00 00 00 00 00 00 00 00 00 00 00 00 00 00 00 00 ................
00408820 00 00 00 00 00 00 00 00 00 00 00 00 00 00 00 00 ................
00408830 00 00 00 00 00 00 00 00 00 00 00 00 00 00 00 00 ................
00408840 00 00 00 00 00 00 00 00 00 00 00 00 00 00 00 00 ................
00408850 00 00 00 00 00 00 00 00 00 00 00 00 00 00 00 00 ................
00408860 00 00 00 00 00 00 00 00 00 00 00 00 00 00 00 00 ................
00408870 00 00 00 00 00 00 00 00 00 00 00 00 00 00 00 00 ................
00408880 00 00 00 00 00 00 00 00 00 00 00 00 00 00 00 00 ................
00408890 00 00 00 00 00 00 00 00 00 00 00 00 00 00 00 00 ................
004088A0 00 00 00 00 00 00 00 00 00 00 00 00 00 00 00 00 ................
004088B0 00 00 00 00 00 00 00 00 00 00 00 00 00 00 00 00 ................
004088C0 00 00 00 00 00 00 00 00 00 00 00 00 00 00 00 00 ................
004088D0 00 00 00 00 00 00 00 00 00 00 00 00 00 00 00 00 ................
004088E0 00 00 00 00 00 00 00 00 00 00 00 00 00 00 00 00 ................
004088F0 00 00 00 00 00 00 00 00 00 00 00 00 00 00 00 00 ................
00408900 00 00 00 00 00 00 00 00 00 00 00 00 00 00 00 00 ................
00408910 00 00 00 00 00 00 00 00 00 00 00 00 00 00 00 00 ................
00408920 00 00 00 00 00 00 00 00 00 00 00 00 00 00 00 00 ................
00408930 00 00 00 00 00 00 00 00 00 00 00 00 00 00 00 00 ................
00408940 00 00 00 00 00 00 00 00 00 00 00 00 00 00 00 00 ................
00408950 00 00 00 00 00 00 00 00 00 00 00 00 00 00 00 00 ................
00408960 00 00 00 00 00 00 00 00 00 00 00 00 00 00 00 00 ................
00408970 00 00 00 00 00 00 00 00 00 00 00 00 00 00 00 00 ................
00408980 00 00 00 00 00 00 00 00 00 00 00 00 00 00 00 00 ................
00408990 00 00 00 00 00 00 00 00 00 00 00 00 00 00 00 00 ................
004089A0 00 00 00 00 00 00 00 00 00 00 00 00 00 00 00 00 ................
004089B0 00 00 00 00 00 00 00 00 00 00 00 00 00 00 00 00 ................
004089C0 00 00 00 00 00 00 00 00 00 00 00 00 00 00 00 00 ................
004089D0 00 00 00 00 00 00 00 00 00 00 00 00 00 00 00 00 ................
004089E0 00 00 00 00 00 00 00 00 00 00 00 00 00 00 00 00 ................
004089F0 00 00 00 00 00 00 00 00 00 00 00 00 00 00 00 00 ................
00408A00 00 00 00 00 00 00 00 00 00 00 00 00 00 00 00 00 ................
00408A10 00 00 00 00 00 00 00 00 00 00 00 00 00 00 00 00 ................
00408A20 00 00 00 00 00 00 00 00 00 00 00 00 00 00 00 00 ................
00408A30 00 00 00 00 00 00 00 00 00 00 00 00 00 00 00 00 ................
00408A40 00 00 00 00 00 00 00 00 00 00 00 00 00 00 00 00 ................
00408A50 00 00 00 00 00 00 00 00 00 00 00 00 00 00 00 00 ................
00408A60 00 00 00 00 00 00 00 00 00 00 00 00 00 00 00 00 ................
00408A70 00 00 00 00 00 00 00 00 00 00 00 00 00 00 00 00 ................
00408A80 00 00 00 00 00 00 00 00 00 00 00 00 00 00 00 00 ................
00408A90 00 00 00 00 00 00 00 00 00 00 00 00 00 00 00 00 ................
00408AA0 00 00 00 00 00 00 00 00 00 00 00 00 00 00 00 00 ................
00408AB0 00 00 00 00 00 00 00 00 00 00 00 00 00 00 00 00 ................
00408AC0 00 00 00 00 00 00 00 00 00 00 00 00 00 00 00 00 ................
00408AD0 00 00 00 00 00 00 00 00 00 00 00 00 00 00 00 00 ................
00408AE0 00 00 00 00 00 00 00 00 00 00 00 00 00 00 00 00 ................
00408AF0 00 00 00 00 00 00 00 00 00 00 00 00 00 00 00 00 ................
00408B00 00 00 00 00 00 00 00 00 00 00 00 00 00 00 00 00 ................
00408B10 00 00 00 00 00 00 00 00 00 00 00 00 00 00 00 00 ................
00408B20 00 00 00 00 00 00 00 00 00 00 00 00 00 00 00 00 ................
00408B30 00 00 00 00 00 00 00 00 00 00 00 00 00 00 00 00 ................
00408B40 00 00 00 00 00 00 00 00 00 00 00 00 00 00 00 00 ................
00408B50 00 00 00 00 00 00 00 00 00 00 00 00 00 00 00 00 ................
00408B60 00 00 00 00 00 00 00 00 00 00 00 00 00 00 00 00 ................
00408B70 00 00 00 00 00 00 00 00 00 00 00 00 00 00 00 00 ................
00408B80 00 00 00 00 00 00 00 00 00 00 00 00 00 00 00 00 ................
00408B90 00 00 00 00 00 00 00 00 00 00 00 00 00 00 00 00 ................
00408BA0 00 00 00 00 00 00 00 00 00 00 00 00 00 00 00 00 ................
00408BB0 00 00 00 00 00 00 00 00 00 00 00 00 00 00 00 00 ................
00408BC0 00 00 00 00 00 00 00 00 00 00 00 00 00 00 00 00 ................
00408BD0 00 00 00 00 00 00 00 00 00 00 00 00 00 00 00 00 ................
00408BE0 00 00 00 00 00 00 00 00 00 00 00 00 00 00 00 00 ................
00408BF0 00 00 00 00 00 00 00 00 00 00 00 00 00 00 00 00 ................
00408C00 00 00 00 00 00 00 00 00 00 00 00 00 00 00 00 00 ................
00408C10 00 00 00 00 00 00 00 00 00 00 00 00 00 00 00 00 ................
00408C20 00 00 00 00 00 00 00 00 00 00 00 00 00 00 00 00 ................
00408C30 00 00 00 00 00 00 00 00 00 00 00 00 00 00 00 00 ................
00408C40 00 00 00 00 00 00 00 00 00 00 00 00 00 00 00 00 ................
00408C50 00 00 00 00 00 00 00 00 00 00 00 00 00 00 00 00 ................
00408C60 00 00 00 00 00 00 00 00 00 00 00 00 00 00 00 00 ................
00408C70 00 00 00 00 00 00 00 00 00 00 00 00 00 00 00 00 ................
00408C80 00 00 00 00 00 00 00 00 00 00 00 00 00 00 00 00 ................
00408C90 00 00 00 00 00 00 00 00 00 00 00 00 00 00 00 00 ................
00408CA0 00 00 00 00 00 00 00 00 00 00 00 00 00 00 00 00 ................
00408CB0 00 00 00 00 00 00 00 00 00 00 00 00 00 00 00 00 ................
00408CC0 00 00 00 00 00 00 00 00 00 00 00 00 00 00 00 00 ................
00408CD0 00 00 00 00 00 00 00 00 00 00 00 00 00 00 00 00 ................
00408CE0 00 00 00 00 00 00 00 00 00 00 00 00 00 00 00 00 ................
00408CF0 00 00 00 00 00 00 00 00 00 00 00 00 00 00 00 00 ................
00408D00 00 00 00 00 00 00 00 00 00 00 00 00 00 00 00 00 ................
00408D10 00 00 00 00 00 00 00 00 00 00 00 00 00 00 00 00 ................
00408D20 00 00 00 00 00 00 00 00 00 00 00 00 00 00 00 00 ................
00408D30 00 00 00 00 00 00 00 00 00 00 00 00 00 00 00 00 ................
00408D40 00 00 00 00 00 00 00 00 00 00 00 00 00 00 00 00 ................
00408D50 00 00 00 00 00 00 00 00 00 00 00 00 00 00 00 00 ................
00408D60 00 00 00 00 00 00 00 00 00 00 00 00 00 00 00 00 ................
00408D70 00 00 00 00 00 00 00 00 00 00 00 00 00 00 00 00 ................
00408D80 00 00 00 00 00 00 00 00 00 00 00 00 00 00 00 00 ................
00408D90 00 00 00 00 00 00 00 00 00 00 00 00 00 00 00 00 ................
00408DA0 00 00 00 00 00 00 00 00 00 00 00 00 00 00 00 00 ................
00408DB0 00 00 00 00 00 00 00 00 00 00 00 00 00 00 00 00 ................
00408DC0 00 00 00 00 00 00 00 00 00 00 00 00 00 00 00 00 ................
00408DD0 00 00 00 00 00 00 00 00 00 00 00 00 00 00 00 00 ................
00408DE0 00 00 00 00 00 00 00 00 00 00 00 00 00 00 00 00 ................
00408DF0 00 00 00 00 00 00 00 00 00 00 00 00 00 00 00 00 ................
00408E00 00 00 00 00 00 00 00 00 00 00 00 00 00 00 00 00 ................
00408E10 00 00 00 00 00 00 00 00 00 00 00 00 00 00 00 00 ................
00408E20 00 00 00 00 00 00 00 00 00 00 00 00 00 00 00 00 ................
00408E30 00 00 00 00 00 00 00 00 00 00 00 00 00 00 00 00 ................
00408E40 00 00 00 00 00 00 00 00 00 00 00 00 00 00 00 00 ................
00408E50 00 00 00 00 00 00 00 00 00 00 00 00 00 00 00 00 ................
00408E60 00 00 00 00 00 00 00 00 00 00 00 00 00 00 00 00 ................
00408E70 00 00 00 00 00 00 00 00 00 00 00 00 00 00 00 00 ................
00408E80 00 00 00 00 00 00 00 00 00 00 00 00 00 00 00 00 ................
00408E90 00 00 00 00 00 00 00 00 00 00 00 00 00 00 00 00 ................
00408EA0 00 00 00 00 00 00 00 00 00 00 00 00 00 00 00 00 ................
00408EB0 00 00 00 00 00 00 00 00 00 00 00 00 00 00 00 00 ................
00408EC0 00 00 00 00 00 00 00 00 00 00 00 00 00 00 00 00 ................
00408ED0 00 00 00 00 00 00 00 00 00 00 00 00 00 00 00 00 ................
00408EE0 00 00 00 00 00 00 00 00 00 00 00 00 00 00 00 00 ................
00408EF0 00 00 00 00 00 00 00 00 00 00 00 00 00 00 00 00 ................
00408F00 00 00 00 00 00 00 00 00 00 00 00 00 00 00 00 00 ................
00408F10 00 00 00 00 00 00 00 00 00 00 00 00 00 00 00 00 ................
00408F20 00 00 00 00 00 00 00 00 00 00 00 00 00 00 00 00 ................
00408F30 00 00 00 00 00 00 00 00 00 00 00 00 00 00 00 00 ................
00408F40 00 00 00 00 00 00 00 00 00 00 00 00 00 00 00 00 ................
00408F50 00 00 00 00 00 00 00 00 00 00 00 00 00 00 00 00 ................
00408F60 00 00 00 00 00 00 00 00 00 00 00 00 00 00 00 00 ................
00408F70 00 00 00 00 00 00 00 00 00 00 00 00 00 00 00 00 ................
00408F80 00 00 00 00 00 00 00 00 00 00 00 00 00 00 00 00 ................
00408F90 00 00 00 00 00 00 00 00 00 00 00 00 00 00 00 00 ................
00408FA0 00 00 00 00 00 00 00 00 00 00 00 00 00 00 00 00 ................
00408FB0 00 00 00 00 00 00 00 00 00 00 00 00 00 00 00 00 ................
00408FC0 00 00 00 00 00 00 00 00 00 00 00 00 00 00 00 00 ................
00408FD0 00 00 00 00 00 00 00 00 00 00 00 00 00 00 00 00 ................
00408FE0 00 00 00 00 00 00 00 00 00 00 00 00 00 00 00 00 ................
00408FF0 00 00 00 00 00 00 00 00 00 00 00 00 00 00 00 00 ................
00409000 00 00 00 00 00 00 00 00 00 00 00 00 00 00 00 00 ................
00409010 00 00 00 00 00 00 00 00 00 00 00 00 00 00 00 00 ................
00409020 00 00 00 00 00 00 00 00 00 00 00 00 00 00 00 00 ................
00409030 00 00 00 00 00 00 00 00 00 00 00 00 00 00 00 00 ................
00409040 00 00 00 00 00 00 00 00 00 00 00 00 00 00 00 00 ................
00409050 00 00 00 00 00 00 00 00 00 00 00 00 00 00 00 00 ................
00409060 00 00 00 00 00 00 00 00 00 00 00 00 00 00 00 00 ................
00409070 00 00 00 00 00 00 00 00 00 00 00 00 00 00 00 00 ................
00409080 00 00 00 00 00 00 00 00 00 00 00 00 00 00 00 00 ................
00409090 00 00 00 00 00 00 00 00 00 00 00 00 00 00 00 00 ................
004090A0 00 00 00 00 00 00 00 00 00 00 00 00 00 00 00 00 ................
004090B0 00 00 00 00 00 00 00 00 00 00 00 00 00 00 00 00 ................
004090C0 00 00 00 00 00 00 00 00 00 00 00 00 00 00 00 00 ................
004090D0 00 00 00 00 00 00 00 00 00 00 00 00 00 00 00 00 ................
004090E0 00 00 00 00 00 00 00 00 00 00 00 00 00 00 00 00 ................
004090F0 00 00 00 00 00 00 00 00 00 00 00 00 00 00 00 00 ................
00409100 00 00 00 00 00 00 00 00 00 00 00 00 00 00 00 00 ................
00409110 00 00 00 00 00 00 00 00 00 00 00 00 00 00 00 00 ................
00409120 00 00 00 00 00 00 00 00 00 00 00 00 00 00 00 00 ................
00409130 00 00 00 00 00 00 00 00 00 00 00 00 00 00 00 00 ................
00409140 00 00 00 00 00 00 00 00 00 00 00 00 00 00 00 00 ................
00409150 00 00 00 00 00 00 00 00 00 00 00 00 00 00 00 00 ................
00409160 00 00 00 00 00 00 00 00 00 00 00 00 00 00 00 00 ................
00409170 00 00 00 00 00 00 00 00 00 00 00 00 00 00 00 00 ................
00409180 00 00 00 00 00 00 00 00 00 00 00 00 00 00 00 00 ................
00409190 00 00 00 00 00 00 00 00 00 00 00 00 00 00 00 00 ................
004091A0 00 00 00 00 00 00 00 00 00 00 00 00 00 00 00 00 ................
004091B0 00 00 00 00 00 00 00 00 00 00 00 00 00 00 00 00 ................
004091C0 00 00 00 00 00 00 00 00 00 00 00 00 00 00 00 00 ................
004091D0 00 00 00 00 00 00 00 00 00 00 00 00 00 00 00 00 ................
004091E0 00 00 00 00 00 00 00 00 00 00 00 00 00 00 00 00 ................
004091F0 00 00 00 00 00 00 00 00 00 00 00 00 00 00 00 00 ................
00409200 00 00 00 00 00 00 00 00 00 00 00 00 00 00 00 00 ................
00409210 00 00 00 00 00 00 00 00 00 00 00 00 00 00 00 00 ................
00409220 00 00 00 00 00 00 00 00 00 00 00 00 00 00 00 00 ................
00409230 00 00 00 00 00 00 00 00 00 00 00 00 00 00 00 00 ................
00409240 00 00 00 00 00 00 00 00 00 00 00 00 00 00 00 00 ................
00409250 00 00 00 00 00 00 00 00 00 00 00 00 00 00 00 00 ................
00409260 00 00 00 00 00 00 00 00 00 00 00 00 00 00 00 00 ................
00409270 00 00 00 00 00 00 00 00 00 00 00 00 00 00 00 00 ................
00409280 00 00 00 00 00 00 00 00 00 00 00 00 00 00 00 00 ................
00409290 00 00 00 00 00 00 00 00 00 00 00 00 00 00 00 00 ................
004092A0 00 00 00 00 00 00 00 00 00 00 00 00 00 00 00 00 ................
004092B0 00 00 00 00 00 00 00 00 00 00 00 00 00 00 00 00 ................
004092C0 00 00 00 00 00 00 00 00 00 00 00 00 00 00 00 00 ................
004092D0 00 00 00 00 00 00 00 00 00 00 00 00 00 00 00 00 ................
004092E0 00 00 00 00 00 00 00 00 00 00 00 00 00 00 00 00 ................
004092F0 00 00 00 00 00 00 00 00 00 00 00 00 00 00 00 00 ................
00409300 00 00 00 00 00 00 00 00 00 00 00 00 00 00 00 00 ................
00409310 00 00 00 00 00 00 00 00 00 00 00 00 00 00 00 00 ................
00409320 00 00 00 00 00 00 00 00 00 00 00 00 00 00 00 00 ................
00409330 00 00 00 00 00 00 00 00 00 00 00 00 00 00 00 00 ................
00409340 00 00 00 00 00 00 00 00 00 00 00 00 00 00 00 00 ................
00409350 00 00 00 00 00 00 00 00 00 00 00 00 00 00 00 00 ................
00409360 00 00 00 00 00 00 00 00 00 00 00 00 00 00 00 00 ................
00409370 00 00 00 00 00 00 00 00 00 00 00 00 00 00 00 00 ................
00409380 00 00 00 00 00 00 00 00 00 00 00 00 00 00 00 00 ................
00409390 00 00 00 00 00 00 00 00 00 00 00 00 00 00 00 00 ................
004093A0 00 00 00 00 00 00 00 00 00 00 00 00 00 00 00 00 ................
004093B0 00 00 00 00 00 00 00 00 00 00 00 00 00 00 00 00 ................
004093C0 00 00 00 00 00 00 00 00 00 00 00 00 00 00 00 00 ................
004093D0 00 00 00 00 00 00 00 00 00 00 00 00 00 00 00 00 ................
004093E0 00 00 00 00 00 00 00 00 00 00 00 00 00 00 00 00 ................
004093F0 00 00 00 00 00 00 00 00 00 00 00 00 00 00 00 00 ................
00409400 00 00 00 00 00 00 00 00 00 00 00 00 00 00 00 00 ................
00409410 00 00 00 00 00 00 00 00 00 00 00 00 00 00 00 00 ................
00409420 00 00 00 00 00 00 00 00 00 00 00 00 00 00 00 00 ................
00409430 00 00 00 00 00 00 00 00 00 00 00 00 00 00 00 00 ................
00409440 00 00 00 00 00 00 00 00 00 00 00 00 00 00 00 00 ................
00409450 00 00 00 00 00 00 00 00 00 00 00 00 00 00 00 00 ................
00409460 00 00 00 00 00 00 00 00 00 00 00 00 00 00 00 00 ................
00409470 00 00 00 00 00 00 00 00 00 00 00 00 00 00 00 00 ................
00409480 00 00 00 00 00 00 00 00 00 00 00 00 00 00 00 00 ................
00409490 00 00 00 00 00 00 00 00 00 00 00 00 00 00 00 00 ................
004094A0 00 00 00 00 00 00 00 00 00 00 00 00 00 00 00 00 ................
004094B0 00 00 00 00 00 00 00 00 00 00 00 00 00 00 00 00 ................
004094C0 00 00 00 00 00 00 00 00 00 00 00 00 00 00 00 00 ................
004094D0 00 00 00 00 00 00 00 00 00 00 00 00 00 00 00 00 ................
004094E0 00 00 00 00 00 00 00 00 00 00 00 00 00 00 00 00 ................
004094F0 00 00 00 00 00 00 00 00 00 00 00 00 00 00 00 00 ................
00409500 00 00 00 00 00 00 00 00 00 00 00 00 00 00 00 00 ................
00409510 00 00 00 00 00 00 00 00 00 00 00 00 00 00 00 00 ................
00409520 00 00 00 00 00 00 00 00 00 00 00 00 00 00 00 00 ................
00409530 00 00 00 00 00 00 00 00 00 00 00 00 00 00 00 00 ................
00409540 00 00 00 00 00 00 00 00 00 00 00 00 00 00 00 00 ................
00409550 00 00 00 00 00 00 00 00 00 00 00 00 00 00 00 00 ................
00409560 00 00 00 00 00 00 00 00 00 00 00 00 00 00 00 00 ................
00409570 00 00 00 00 00 00 00 00 00 00 00 00 00 00 00 00 ................
00409580 00 00 00 00 00 00 00 00 00 00 00 00 00 00 00 00 ................
00409590 00 00 00 00 00 00 00 00 00 00 00 00 00 00 00 00 ................
004095A0 00 00 00 00 00 00 00 00 00 00 00 00 00 00 00 00 ................
004095B0 00 00 00 00 00 00 00 00 00 00 00 00 00 00 00 00 ................
004095C0 00 00 00 00 00 00 00 00 00 00 00 00 00 00 00 00 ................
004095D0 00 00 00 00 00 00 00 00 00 00 00 00 00 00 00 00 ................
004095E0 00 00 00 00 00 00 00 00 00 00 00 00 00 00 00 00 ................
004095F0 00 00 00 00 00 00 00 00 00 00 00 00 00 00 00 00 ................
00409600 00 00 00 00 00 00 00 00 00 00 00 00 00 00 00 00 ................
00409610 00 00 00 00 00 00 00 00 00 00 00 00 00 00 00 00 ................
00409620 00 00 00 00 00 00 00 00 00 00 00 00 00 00 00 00 ................
00409630 00 00 00 00 00 00 00 00 00 00 00 00 00 00 00 00 ................
00409640 00 00 00 00 00 00 00 00 00 00 00 00 00 00 00 00 ................
00409650 00 00 00 00 00 00 00 00 00 00 00 00 00 00 00 00 ................
00409660 00 00 00 00 00 00 00 00 00 00 00 00 00 00 00 00 ................
00409670 00 00 00 00 00 00 00 00 00 00 00 00 00 00 00 00 ................
00409680 00 00 00 00 00 00 00 00 00 00 00 00 00 00 00 00 ................
00409690 00 00 00 00 00 00 00 00 00 00 00 00 00 00 00 00 ................
004096A0 00 00 00 00 00 00 00 00 00 00 00 00 00 00 00 00 ................
004096B0 00 00 00 00 00 00 00 00 00 00 00 00 00 00 00 00 ................
004096C0 00 00 00 00 00 00 00 00 00 00 00 00 00 00 00 00 ................
004096D0 00 00 00 00 00 00 00 00 00 00 00 00 00 00 00 00 ................
004096E0 00 00 00 00 00 00 00 00 00 00 00 00 00 00 00 00 ................
004096F0 00 00 00 00 00 00 00 00 00 00 00 00 00 00 00 00 ................
00409700 00 00 00 00 00 00 00 00 00 00 00 00 00 00 00 00 ................
00409710 00 00 00 00 00 00 00 00 00 00 00 00 00 00 00 00 ................
00409720 00 00 00 00 00 00 00 00 00 00 00 00 00 00 00 00 ................
00409730 00 00 00 00 00 00 00 00 00 00 00 00 00 00 00 00 ................
00409740 00 00 00 00 00 00 00 00 00 00 00 00 00 00 00 00 ................
00409750 00 00 00 00 00 00 00 00 00 00 00 00 00 00 00 00 ................
00409760 00 00 00 00 00 00 00 00 00 00 00 00 00 00 00 00 ................
00409770 00 00 00 00 00 00 00 00 00 00 00 00 00 00 00 00 ................
00409780 00 00 00 00 00 00 00 00 00 00 00 00 00 00 00 00 ................
00409790 00 00 00 00 00 00 00 00 00 00 00 00 00 00 00 00 ................
004097A0 00 00 00 00 00 00 00 00 00 00 00 00 00 00 00 00 ................
004097B0 00 00 00 00 00 00 00 00 00 00 00 00 00 00 00 00 ................
004097C0 00 00 00 00 00 00 00 00 00 00 00 00 00 00 00 00 ................
004097D0 00 00 00 00 00 00 00 00 00 00 00 00 00 00 00 00 ................
004097E0 00 00 00 00 00 00 00 00 00 00 00 00 00 00 00 00 ................
004097F0 00 00 00 00 00 00 00 00 00 00 00 00 00 00 00 00 ................
00409800 00 00 00 00 00 00 00 00 00 00 00 00 00 00 00 00 ................
00409810 00 00 00 00 00 00 00 00 00 00 00 00 00 00 00 00 ................
00409820 00 00 00 00 00 00 00 00 00 00 00 00 00 00 00 00 ................
00409830 00 00 00 00 00 00 00 00 00 00 00 00 00 00 00 00 ................
00409840 00 00 00 00 00 00 00 00 00 00 00 00 00 00 00 00 ................
00409850 00 00 00 00 00 00 00 00 00 00 00 00 00 00 00 00 ................
00409860 00 00 00 00 00 00 00 00 00 00 00 00 00 00 00 00 ................
00409870 00 00 00 00 00 00 00 00 00 00 00 00 00 00 00 00 ................
00409880 00 00 00 00 00 00 00 00 00 00 00 00 00 00 00 00 ................
00409890 00 00 00 00 00 00 00 00 00 00 00 00 00 00 00 00 ................
004098A0 00 00 00 00 00 00 00 00 00 00 00 00 00 00 00 00 ................
004098B0 00 00 00 00 00 00 00 00 00 00 00 00 00 00 00 00 ................
004098C0 00 00 00 00 00 00 00 00 00 00 00 00 00 00 00 00 ................
004098D0 00 00 00 00 00 00 00 00 00 00 00 00 00 00 00 00 ................
004098E0 00 00 00 00 00 00 00 00 00 00 00 00 00 00 00 00 ................
004098F0 00 00 00 00 00 00 00 00 00 00 00 00 00 00 00 00 ................
00409900 00 00 00 00 00 00 00 00 00 00 00 00 00 00 00 00 ................
00409910 00 00 00 00 00 00 00 00 00 00 00 00 00 00 00 00 ................
00409920 00 00 00 00 00 00 00 00 00 00 00 00 00 00 00 00 ................
00409930 00 00 00 00 00 00 00 00 00 00 00 00 00 00 00 00 ................
00409940 00 00 00 00 00 00 00 00 00 00 00 00 00 00 00 00 ................
00409950 00 00 00 00 00 00 00 00 00 00 00 00 00 00 00 00 ................
00409960 00 00 00 00 00 00 00 00 00 00 00 00 00 00 00 00 ................
00409970 00 00 00 00 00 00 00 00 00 00 00 00 00 00 00 00 ................
00409980 00 00 00 00 00 00 00 00 00 00 00 00 00 00 00 00 ................
00409990 00 00 00 00 00 00 00 00 00 00 00 00 00 00 00 00 ................
004099A0 00 00 00 00 00 00 00 00 00 00 00 00 00 00 00 00 ................
004099B0 00 00 00 00 00 00 00 00 00 00 00 00 00 00 00 00 ................
004099C0 00 00 00 00 00 00 00 00 00 00 00 00 00 00 00 00 ................
004099D0 00 00 00 00 00 00 00 00 00 00 00 00 00 00 00 00 ................
004099E0 00 00 00 00 00 00 00 00 00 00 00 00 00 00 00 00 ................
004099F0 00 00 00 00 00 00 00 00 00 00 00 00 00 00 00 00 ................
00409A00 00 00 00 00 00 00 00 00 00 00 00 00 00 00 00 00 ................
00409A10 00 00 00 00 00 00 00 00 00 00 00 00 00 00 00 00 ................
00409A20 00 00 00 00 00 00 00 00 00 00 00 00 00 00 00 00 ................
00409A30 00 00 00 00 00 00 00 00 00 00 00 00 00 00 00 00 ................
00409A40 00 00 00 00 00 00 00 00 00 00 00 00 00 00 00 00 ................
00409A50 00 00 00 00 00 00 00 00 00 00 00 00 00 00 00 00 ................
00409A60 00 00 00 00 00 00 00 00 00 00 00 00 00 00 00 00 ................
00409A70 00 00 00 00 00 00 00 00 00 00 00 00 00 00 00 00 ................
00409A80 00 00 00 00 00 00 00 00 00 00 00 00 00 00 00 00 ................
00409A90 00 00 00 00 00 00 00 00 00 00 00 00 00 00 00 00 ................
00409AA0 00 00 00 00 00 00 00 00 00 00 00 00 00 00 00 00 ................
00409AB0 00 00 00 00 00 00 00 00 00 00 00 00 00 00 00 00 ................
00409AC0 00 00 00 00 00 00 00 00 00 00 00 00 00 00 00 00 ................
00409AD0 00 00 00 00 00 00 00 00 00 00 00 00 00 00 00 00 ................
00409AE0 00 00 00 00 00 00 00 00 00 00 00 00 00 00 00 00 ................
00409AF0 00 00 00 00 00 00 00 00 00 00 00 00 00 00 00 00 ................
00409B00 00 00 00 00 00 00 00 00 00 00 00 00 00 00 00 00 ................
00409B10 00 00 00 00 00 00 00 00 00 00 00 00 00 00 00 00 ................
00409B20 00 00 00 00 00 00 00 00 00 00 00 00 00 00 00 00 ................
00409B30 00 00 00 00 00 00 00 00 00 00 00 00 00 00 00 00 ................
00409B40 00 00 00 00 00 00 00 00 00 00 00 00 00 00 00 00 ................
00409B50 00 00 00 00 00 00 00 00 00 00 00 00 00 00 00 00 ................
00409B60 00 00 00 00 00 00 00 00 00 00 00 00 00 00 00 00 ................
00409B70 00 00 00 00 00 00 00 00 00 00 00 00 00 00 00 00 ................
00409B80 00 00 00 00 00 00 00 00 00 00 00 00 00 00 00 00 ................
00409B90 00 00 00 00 00 00 00 00 00 00 00 00 00 00 00 00 ................
00409BA0 00 00 00 00 00 00 00 00 00 00 00 00 00 00 00 00 ................
00409BB0 00 00 00 00 00 00 00 00 00 00 00 00 00 00 00 00 ................
00409BC0 00 00 00 00 00 00 00 00 00 00 00 00 00 00 00 00 ................
00409BD0 00 00 00 00 00 00 00 00 00 00 00 00 00 00 00 00 ................
00409BE0 00 00 00 00 00 00 00 00 00 00 00 00 00 00 00 00 ................
00409BF0 00 00 00 00 00 00 00 00 00 00 00 00 00 00 00 00 ................
00409C00 00 00 00 00 00 00 00 00 00 00 00 00 00 00 00 00 ................
00409C10 00 00 00 00 00 00 00 00 00 00 00 00 00 00 00 00 ................
00409C20 00 00 00 00 00 00 00 00 00 00 00 00 00 00 00 00 ................
00409C30 00 00 00 00 00 00 00 00 00 00 00 00 00 00 00 00 ................
00409C40 00 00 00 00 00 00 00 00 00 00 00 00 00 00 00 00 ................
00409C50 00 00 00 00 00 00 00 00 00 00 00 00 00 00 00 00 ................
00409C60 00 00 00 00 00 00 00 00 00 00 00 00 00 00 00 00 ................
00409C70 00 00 00 00 00 00 00 00 00 00 00 00 00 00 00 00 ................
00409C80 00 00 00 00 00 00 00 00 00 00 00 00 00 00 00 00 ................
00409C90 00 00 00 00 00 00 00 00 00 00 00 00 00 00 00 00 ................
00409CA0 00 00 00 00 00 00 00 00 00 00 00 00 00 00 00 00 ................
00409CB0 00 00 00 00 00 00 00 00 00 00 00 00 00 00 00 00 ................
00409CC0 00 00 00 00 00 00 00 00 00 00 00 00 00 00 00 00 ................
00409CD0 00 00 00 00 00 00 00 00 00 00 00 00 00 00 00 00 ................
00409CE0 00 00 00 00 00 00 00 00 00 00 00 00 00 00 00 00 ................
00409CF0 00 00 00 00 00 00 00 00 00 00 00 00 00 00 00 00 ................
00409D00 00 00 00 00 00 00 00 00 00 00 00 00 00 00 00 00 ................
00409D10 00 00 00 00 00 00 00 00 00 00 00 00 00 00 00 00 ................
00409D20 00 00 00 00 00 00 00 00 00 00 00 00 00 00 00 00 ................
00409D30 00 00 00 00 00 00 00 00 00 00 00 00 00 00 00 00 ................
00409D40 00 00 00 00 00 00 00 00 00 00 00 00 00 00 00 00 ................
00409D50 00 00 00 00 00 00 00 00 00 00 00 00 00 00 00 00 ................
00409D60 00 00 00 00 00 00 00 00 00 00 00 00 00 00 00 00 ................
00409D70 00 00 00 00 00 00 00 00 00 00 00 00 00 00 00 00 ................
00409D80 00 00 00 00 00 00 00 00 00 00 00 00 00 00 00 00 ................
00409D90 00 00 00 00 00 00 00 00 00 00 00 00 00 00 00 00 ................
00409DA0 00 00 00 00 00 00 00 00 00 00 00 00 00 00 00 00 ................
00409DB0 00 00 00 00 00 00 00 00 00 00 00 00 00 00 00 00 ................
00409DC0 00 00 00 00 00 00 00 00 00 00 00 00 00 00 00 00 ................
00409DD0 00 00 00 00 00 00 00 00 00 00 00 00 00 00 00 00 ................
00409DE0 00 00 00 00 00 00 00 00 00 00 00 00 00 00 00 00 ................
00409DF0 00 00 00 00 00 00 00 00 00 00 00 00 00 00 00 00 ................
00409E00 00 00 00 00 00 00 00 00 00 00 00 00 00 00 00 00 ................
00409E10 00 00 00 00 00 00 00 00 00 00 00 00 00 00 00 00 ................
00409E20 00 00 00 00 00 00 00 00 00 00 00 00 00 00 00 00 ................
00409E30 00 00 00 00 00 00 00 00 00 00 00 00 00 00 00 00 ................
00409E40 00 00 00 00 00 00 00 00 00 00 00 00 00 00 00 00 ................
00409E50 00 00 00 00 00 00 00 00 00 00 00 00 00 00 00 00 ................
00409E60 00 00 00 00 00 00 00 00 00 00 00 00 00 00 00 00 ................
00409E70 00 00 00 00 00 00 00 00 00 00 00 00 00 00 00 00 ................
00409E80 00 00 00 00 00 00 00 00 00 00 00 00 00 00 00 00 ................
00409E90 00 00 00 00 00 00 00 00 00 00 00 00 00 00 00 00 ................
00409EA0 00 00 00 00 00 00 00 00 00 00 00 00 00 00 00 00 ................
00409EB0 00 00 00 00 00 00 00 00 00 00 00 00 00 00 00 00 ................
00409EC0 00 00 00 00 00 00 00 00 00 00 00 00 00 00 00 00 ................
00409ED0 00 00 00 00 00 00 00 00 00 00 00 00 00 00 00 00 ................
00409EE0 00 00 00 00 00 00 00 00 00 00 00 00 00 00 00 00 ................
00409EF0 00 00 00 00 00 00 00 00 00 00 00 00 00 00 00 00 ................
00409F00 00 00 00 00 00 00 00 00 00 00 00 00 00 00 00 00 ................
00409F10 00 00 00 00 00 00 00 00 00 00 00 00 00 00 00 00 ................
00409F20 00 00 00 00 00 00 00 00 00 00 00 00 00 00 00 00 ................
00409F30 00 00 00 00 00 00 00 00 00 00 00 00 00 00 00 00 ................
00409F40 00 00 00 00 00 00 00 00 00 00 00 00 00 00 00 00 ................
00409F50 00 00 00 00 00 00 00 00 00 00 00 00 00 00 00 00 ................
00409F60 00 00 00 00 00 00 00 00 00 00 00 00 00 00 00 00 ................
00409F70 00 00 00 00 00 00 00 00 00 00 00 00 00 00 00 00 ................
00409F80 00 00 00 00 00 00 00 00 00 00 00 00 00 00 00 00 ................
00409F90 00 00 00 00 00 00 00 00 00 00 00 00 00 00 00 00 ................
00409FA0 00 00 00 00 00 00 00 00 00 00 00 00 00 00 00 00 ................
00409FB0 00 00 00 00 00 00 00 00 00 00 00 00 00 00 00 00 ................
00409FC0 00 00 00 00 00 00 00 00 00 00 00 00 00 00 00 00 ................
00409FD0 00 00 00 00 00 00 00 00 00 00 00 00 00 00 00 00 ................
00409FE0 00 00 00 00 00 00 00 00 00 00 00 00 00 00 00 00 ................
00409FF0 00 00 00 00 00 00 00 00 00 00 00 00 00 00 00 00 ................
0040A000 00 00 00 00 00 00 00 00 00 00 00 00 00 00 00 00 ................
0040A010 00 00 00 00 00 00 00 00 00 00 00 00 00 00 00 00 ................
0040A020 00 00 00 00 00 00 00 00 00 00 00 00 00 00 00 00 ................
0040A030 00 00 00 00 00 00 00 00 00 00 00 00 00 00 00 00 ................
0040A040 00 00 00 00 00 00 00 00 00 00 00 00 00 00 00 00 ................
0040A050 00 00 00 00 00 00 00 00 00 00 00 00 00 00 00 00 ................
0040A060 00 00 00 00 00 00 00 00 00 00 00 00 00 00 00 00 ................
0040A070 00 00 00 00 00 00 00 00 00 00 00 00 00 00 00 00 ................
0040A080 00 00 00 00 00 00 00 00 00 00 00 00 00 00 00 00 ................
0040A090 00 00 00 00 00 00 00 00 00 00 00 00 00 00 00 00 ................
0040A0A0 00 00 00 00 00 00 00 00 00 00 00 00 00 00 00 00 ................
0040A0B0 00 00 00 00 00 00 00 00 00 00 00 00 00 00 00 00 ................
0040A0C0 00 00 00 00 00 00 00 00 00 00 00 00 00 00 00 00 ................
0040A0D0 00 00 00 00 00 00 00 00 00 00 00 00 00 00 00 00 ................
0040A0E0 00 00 00 00 00 00 00 00 00 00 00 00 00 00 00 00 ................
0040A0F0 00 00 00 00 00 00 00 00 00 00 00 00 00 00 00 00 ................
0040A100 00 00 00 00 00 00 00 00 00 00 00 00 00 00 00 00 ................
0040A110 00 00 00 00 00 00 00 00 00 00 00 00 00 00 00 00 ................
0040A120 00 00 00 00 00 00 00 00 00 00 00 00 00 00 00 00 ................
0040A130 00 00 00 00 00 00 00 00 00 00 00 00 00 00 00 00 ................
0040A140 00 00 00 00 00 00 00 00 00 00 00 00 00 00 00 00 ................
0040A150 00 00 00 00 00 00 00 00 00 00 00 00 00 00 00 00 ................
0040A160 00 00 00 00 00 00 00 00 00 00 00 00 00 00 00 00 ................
0040A170 00 00 00 00 00 00 00 00 00 00 00 00 00 00 00 00 ................
0040A180 00 00 00 00 00 00 00 00 00 00 00 00 00 00 00 00 ................
0040A190 00 00 00 00 00 00 00 00 00 00 00 00 00 00 00 00 ................
0040A1A0 00 00 00 00 00 00 00 00 00 00 00 00 00 00 00 00 ................
0040A1B0 00 00 00 00 00 00 00 00 00 00 00 00 00 00 00 00 ................
0040A1C0 00 00 00 00 00 00 00 00 00 00 00 00 00 00 00 00 ................
0040A1D0 00 00 00 00 00 00 00 00 00 00 00 00 00 00 00 00 ................
0040A1E0 00 00 00 00 00 00 00 00 00 00 00 00 00 00 00 00 ................
0040A1F0 00 00 00 00 00 00 00 00 00 00 00 00 00 00 00 00 ................
0040A200 00 00 00 00 00 00 00 00 00 00 00 00 00 00 00 00 ................
0040A210 00 00 00 00 00 00 00 00 00 00 00 00 00 00 00 00 ................
0040A220 00 00 00 00 00 00 00 00 00 00 00 00 00 00 00 00 ................
0040A230 00 00 00 00 00 00 00 00 00 00 00 00 00 00 00 00 ................
0040A240 00 00 00 00 00 00 00 00 00 00 00 00 00 00 00 00 ................
0040A250 00 00 00 00 00 00 00 00 00 00 00 00 00 00 00 00 ................
0040A260 00 00 00 00 00 00 00 00 00 00 00 00 00 00 00 00 ................
0040A270 00 00 00 00 00 00 00 00 00 00 00 00 00 00 00 00 ................
0040A280 00 00 00 00 00 00 00 00 00 00 00 00 00 00 00 00 ................
0040A290 00 00 00 00 00 00 00 00 00 00 00 00 00 00 00 00 ................
0040A2A0 00 00 00 00 00 00 00 00 00 00 00 00 00 00 00 00 ................
0040A2B0 00 00 00 00 00 00 00 00 00 00 00 00 00 00 00 00 ................
0040A2C0 00 00 00 00 00 00 00 00 00 00 00 00 00 00 00 00 ................
0040A2D0 00 00 00 00 00 00 00 00 00 00 00 00 00 00 00 00 ................
0040A2E0 00 00 00 00 00 00 00 00 00 00 00 00 00 00 00 00 ................
0040A2F0 00 00 00 00 00 00 00 00 00 00 00 00 00 00 00 00 ................
0040A300 00 00 00 00 00 00 00 00 00 00 00 00 00 00 00 00 ................
0040A310 00 00 00 00 00 00 00 00 00 00 00 00 00 00 00 00 ................
0040A320 00 00 00 00 00 00 00 00 00 00 00 00 00 00 00 00 ................
0040A330 00 00 00 00 00 00 00 00 00 00 00 00 00 00 00 00 ................
0040A340 00 00 00 00 00 00 00 00 00 00 00 00 00 00 00 00 ................
0040A350 00 00 00 00 00 00 00 00 00 00 00 00 00 00 00 00 ................
0040A360 00 00 00 00 00 00 00 00 00 00 00 00 00 00 00 00 ................
0040A370 00 00 00 00 00 00 00 00 00 00 00 00 00 00 00 00 ................
0040A380 00 00 00 00 00 00 00 00 00 00 00 00 00 00 00 00 ................
0040A390 00 00 00 00 00 00 00 00 00 00 00 00 00 00 00 00 ................
0040A3A0 00 00 00 00 00 00 00 00 00 00 00 00 00 00 00 00 ................
0040A3B0 00 00 00 00 00 00 00 00 00 00 00 00 00 00 00 00 ................
0040A3C0 00 00 00 00 00 00 00 00 00 00 00 00 00 00 00 00 ................
0040A3D0 00 00 00 00 00 00 00 00 00 00 00 00 00 00 00 00 ................
0040A3E0 00 00 00 00 00 00 00 00 00 00 00 00 00 00 00 00 ................
0040A3F0 00 00 00 00 00 00 00 00 00 00 00 00 00 00 00 00 ................
0040A400 00 00 00 00 00 00 00 00 00 00 00 00 00 00 00 00 ................
0040A410 00 00 00 00 00 00 00 00 00 00 00 00 00 00 00 00 ................
0040A420 00 00 00 00 00 00 00 00 00 00 00 00 00 00 00 00 ................
0040A430 00 00 00 00 00 00 00 00 00 00 00 00 00 00 00 00 ................
0040A440 00 00 00 00 00 00 00 00 00 00 00 00 00 00 00 00 ................
0040A450 00 00 00 00 00 00 00 00 00 00 00 00 00 00 00 00 ................
0040A460 00 00 00 00 00 00 00 00 00 00 00 00 00 00 00 00 ................
0040A470 00 00 00 00 00 00 00 00 00 00 00 00 00 00 00 00 ................
0040A480 00 00 00 00 00 00 00 00 00 00 00 00 00 00 00 00 ................
0040A490 00 00 00 00 00 00 00 00 00 00 00 00 00 00 00 00 ................
0040A4A0 00 00 00 00 00 00 00 00 00 00 00 00 00 00 00 00 ................
0040A4B0 00 00 00 00 00 00 00 00 00 00 00 00 00 00 00 00 ................
0040A4C0 00 00 00 00 00 00 00 00 00 00 00 00 00 00 00 00 ................
0040A4D0 00 00 00 00 00 00 00 00 00 00 00 00 00 00 00 00 ................
0040A4E0 00 00 00 00 00 00 00 00 00 00 00 00 00 00 00 00 ................
0040A4F0 00 00 00 00 00 00 00 00 00 00 00 00 00 00 00 00 ................
0040A500 00 00 00 00 00 00 00 00 00 00 00 00 00 00 00 00 ................
0040A510 00 00 00 00 00 00 00 00 00 00 00 00 00 00 00 00 ................
0040A520 00 00 00 00 00 00 00 00 00 00 00 00 00 00 00 00 ................
0040A530 00 00 00 00 00 00 00 00 00 00 00 00 00 00 00 00 ................
0040A540 00 00 00 00 00 00 00 00 00 00 00 00 00 00 00 00 ................
0040A550 00 00 00 00 00 00 00 00 00 00 00 00 00 00 00 00 ................
0040A560 00 00 00 00 00 00 00 00 00 00 00 00 00 00 00 00 ................
0040A570 00 00 00 00 00 00 00 00 00 00 00 00 00 00 00 00 ................
0040A580 00 00 00 00 00 00 00 00 00 00 00 00 00 00 00 00 ................
0040A590 00 00 00 00 00 00 00 00 00 00 00 00 00 00 00 00 ................
0040A5A0 00 00 00 00 00 00 00 00 00 00 00 00 00 00 00 00 ................
0040A5B0 00 00 00 00 00 00 00 00 00 00 00 00 00 00 00 00 ................
0040A5C0 00 00 00 00 00 00 00 00 00 00 00 00 00 00 00 00 ................
0040A5D0 00 00 00 00 00 00 00 00 00 00 00 00 00 00 00 00 ................
0040A5E0 00 00 00 00 00 00 00 00 00 00 00 00 00 00 00 00 ................
0040A5F0 00 00 00 00 00 00 00 00 00 00 00 00 00 00 00 00 ................
0040A600 00 00 00 00 00 00 00 00 00 00 00 00 00 00 00 00 ................
0040A610 00 00 00 00 00 00 00 00 00 00 00 00 00 00 00 00 ................
0040A620 00 00 00 00 00 00 00 00 00 00 00 00 00 00 00 00 ................
0040A630 00 00 00 00 00 00 00 00 00 00 00 00 00 00 00 00 ................
0040A640 00 00 00 00 00 00 00 00 00 00 00 00 00 00 00 00 ................
0040A650 00 00 00 00 00 00 00 00 00 00 00 00 00 00 00 00 ................
0040A660 00 00 00 00 00 00 00 00 00 00 00 00 00 00 00 00 ................
0040A670 00 00 00 00 00 00 00 00 00 00 00 00 00 00 00 00 ................
0040A680 00 00 00 00 00 00 00 00 00 00 00 00 00 00 00 00 ................
0040A690 00 00 00 00 00 00 00 00 00 00 00 00 00 00 00 00 ................
0040A6A0 00 00 00 00 00 00 00 00 00 00 00 00 00 00 00 00 ................
0040A6B0 00 00 00 00 00 00 00 00 00 00 00 00 00 00 00 00 ................
0040A6C0 00 00 00 00 00 00 00 00 00 00 00 00 00 00 00 00 ................
0040A6D0 00 00 00 00 00 00 00 00 00 00 00 00 00 00 00 00 ................
0040A6E0 00 00 00 00 00 00 00 00 00 00 00 00 00 00 00 00 ................
0040A6F0 00 00 00 00 00 00 00 00 00 00 00 00 00 00 00 00 ................
0040A700 00 00 00 00 00 00 00 00 00 00 00 00 00 00 00 00 ................
0040A710 00 00 00 00 00 00 00 00 00 00 00 00 00 00 00 00 ................
0040A720 00 00 00 00 00 00 00 00 00 00 00 00 00 00 00 00 ................
0040A730 00 00 00 00 00 00 00 00 00 00 00 00 00 00 00 00 ................
0040A740 00 00 00 00 00 00 00 00 00 00 00 00 00 00 00 00 ................
0040A750 00 00 00 00 00 00 00 00 00 00 00 00 00 00 00 00 ................
0040A760 00 00 00 00 00 00 00 00 00 00 00 00 00 00 00 00 ................
0040A770 00 00 00 00 00 00 00 00 00 00 00 00 00 00 00 00 ................
0040A780 00 00 00 00 00 00 00 00 00 00 00 00 00 00 00 00 ................
0040A790 00 00 00 00 00 00 00 00 00 00 00 00 00 00 00 00 ................
0040A7A0 00 00 00 00 00 00 00 00 00 00 00 00 00 00 00 00 ................
0040A7B0 00 00 00 00 00 00 00 00 00 00 00 00 00 00 00 00 ................
0040A7C0 00 00 00 00 00 00 00 00 00 00 00 00 00 00 00 00 ................
0040A7D0 00 00 00 00 00 00 00 00 00 00 00 00 00 00 00 00 ................
0040A7E0 00 00 00 00 00 00 00 00 00 00 00 00 00 00 00 00 ................
0040A7F0 00 00 00 00 00 00 00 00 00 00 00 00 00 00 00 00 ................
0040A800 00 00 00 00 00 00 00 00 00 00 00 00 00 00 00 00 ................
0040A810 00 00 00 00 00 00 00 00 00 00 00 00 00 00 00 00 ................
0040A820 00 00 00 00 00 00 00 00 00 00 00 00 00 00 00 00 ................
0040A830 00 00 00 00 00 00 00 00 00 00 00 00 00 00 00 00 ................
0040A840 00 00 00 00 00 00 00 00 00 00 00 00 00 00 00 00 ................
0040A850 00 00 00 00 00 00 00 00 00 00 00 00 00 00 00 00 ................
0040A860 00 00 00 00 00 00 00 00 00 00 00 00 00 00 00 00 ................
0040A870 00 00 00 00 00 00 00 00 00 00 00 00 00 00 00 00 ................
0040A880 00 00 00 00 00 00 00 00 00 00 00 00 00 00 00 00 ................
0040A890 00 00 00 00 00 00 00 00 00 00 00 00 00 00 00 00 ................
0040A8A0 00 00 00 00 00 00 00 00 00 00 00 00 00 00 00 00 ................
0040A8B0 00 00 00 00 00 00 00 00 00 00 00 00 00 00 00 00 ................
0040A8C0 00 00 00 00 00 00 00 00 00 00 00 00 00 00 00 00 ................
0040A8D0 00 00 00 00 00 00 00 00 00 00 00 00 00 00 00 00 ................
0040A8E0 00 00 00 00 00 00 00 00 00 00 00 00 00 00 00 00 ................
0040A8F0 00 00 00 00 00 00 00 00 00 00 00 00 00 00 00 00 ................
0040A900 00 00 00 00 00 00 00 00 00 00 00 00 00 00 00 00 ................
0040A910 00 00 00 00 00 00 00 00 00 00 00 00 00 00 00 00 ................
0040A920 00 00 00 00 00 00 00 00 00 00 00 00 00 00 00 00 ................
0040A930 00 00 00 00 00 00 00 00 00 00 00 00 00 00 00 00 ................
0040A940 00 00 00 00 00 00 00 00 00 00 00 00 00 00 00 00 ................
0040A950 00 00 00 00 00 00 00 00 00 00 00 00 00 00 00 00 ................
0040A960 00 00 00 00 00 00 00 00 00 00 00 00 00 00 00 00 ................
0040A970 00 00 00 00 00 00 00 00 00 00 00 00 00 00 00 00 ................
0040A980 00 00 00 00 00 00 00 00 00 00 00 00 00 00 00 00 ................
0040A990 00 00 00 00 00 00 00 00 00 00 00 00 00 00 00 00 ................
0040A9A0 00 00 00 00 00 00 00 00 00 00 00 00 00 00 00 00 ................
0040A9B0 00 00 00 00 00 00 00 00 00 00 00 00 00 00 00 00 ................
0040A9C0 00 00 00 00 00 00 00 00 00 00 00 00 00 00 00 00 ................
0040A9D0 00 00 00 00 00 00 00 00 00 00 00 00 00 00 00 00 ................
0040A9E0 00 00 00 00 00 00 00 00 00 00 00 00 00 00 00 00 ................
0040A9F0 00 00 00 00 00 00 00 00 00 00 00 00 00 00 00 00 ................
0040AA00 00 00 00 00 00 00 00 00 00 00 00 00 00 00 00 00 ................
0040AA10 00 00 00 00 00 00 00 00 00 00 00 00 00 00 00 00 ................
0040AA20 00 00 00 00 00 00 00 00 00 00 00 00 00 00 00 00 ................
0040AA30 00 00 00 00 00 00 00 00 00 00 00 00 00 00 00 00 ................
0040AA40 00 00 00 00 00 00 00 00 00 00 00 00 00 00 00 00 ................
0040AA50 00 00 00 00 00 00 00 00 00 00 00 00 00 00 00 00 ................
0040AA60 00 00 00 00 00 00 00 00 00 00 00 00 00 00 00 00 ................
0040AA70 00 00 00 00 00 00 00 00 00 00 00 00 00 00 00 00 ................
0040AA80 00 00 00 00 00 00 00 00 00 00 00 00 00 00 00 00 ................
0040AA90 00 00 00 00 00 00 00 00 00 00 00 00 00 00 00 00 ................
0040AAA0 00 00 00 00 00 00 00 00 00 00 00 00 00 00 00 00 ................
0040AAB0 00 00 00 00 00 00 00 00 00 00 00 00 00 00 00 00 ................
0040AAC0 00 00 00 00 00 00 00 00 00 00 00 00 00 00 00 00 ................
0040AAD0 00 00 00 00 00 00 00 00 00 00 00 00 00 00 00 00 ................
0040AAE0 00 00 00 00 00 00 00 00 00 00 00 00 00 00 00 00 ................
0040AAF0 00 00 00 00 00 00 00 00 00 00 00 00 00 00 00 00 ................
0040AB00 00 00 00 00 00 00 00 00 00 00 00 00 00 00 00 00 ................
0040AB10 00 00 00 00 00 00 00 00 00 00 00 00 00 00 00 00 ................
0040AB20 00 00 00 00 00 00 00 00 00 00 00 00 00 00 00 00 ................
0040AB30 00 00 00 00 00 00 00 00 00 00 00 00 00 00 00 00 ................
0040AB40 00 00 00 00 00 00 00 00 00 00 00 00 00 00 00 00 ................
0040AB50 00 00 00 00 00 00 00 00 00 00 00 00 00 00 00 00 ................
0040AB60 00 00 00 00 00 00 00 00 00 00 00 00 00 00 00 00 ................
0040AB70 00 00 00 00 00 00 00 00 00 00 00 00 00 00 00 00 ................
0040AB80 00 00 00 00 00 00 00 00 00 00 00 00 00 00 00 00 ................
0040AB90 00 00 00 00 00 00 00 00 00 00 00 00 00 00 00 00 ................
0040ABA0 00 00 00 00 00 00 00 00 00 00 00 00 00 00 00 00 ................
0040ABB0 00 00 00 00 00 00 00 00 00 00 00 00 00 00 00 00 ................
0040ABC0 00 00 00 00 00 00 00 00 00 00 00 00 00 00 00 00 ................
0040ABD0 00 00 00 00 00 00 00 00 00 00 00 00 00 00 00 00 ................
0040ABE0 00 00 00 00 00 00 00 00 00 00 00 00 00 00 00 00 ................
0040ABF0 00 00 00 00 00 00 00 00 00 00 00 00 00 00 00 00 ................
0040AC00 00 00 00 00 00 00 00 00 00 00 00 00 00 00 00 00 ................
0040AC10 00 00 00 00 00 00 00 00 00 00 00 00 00 00 00 00 ................
0040AC20 00 00 00 00 00 00 00 00 00 00 00 00 00 00 00 00 ................
0040AC30 00 00 00 00 00 00 00 00 00 00 00 00 00 00 00 00 ................
0040AC40 00 00 00 00 00 00 00 00 00 00 00 00 00 00 00 00 ................
0040AC50 00 00 00 00 00 00 00 00 00 00 00 00 00 00 00 00 ................
0040AC60 00 00 00 00 00 00 00 00 00 00 00 00 00 00 00 00 ................
0040AC70 00 00 00 00 00 00 00 00 00 00 00 00 00 00 00 00 ................
0040AC80 00 00 00 00 00 00 00 00 00 00 00 00 00 00 00 00 ................
0040AC90 00 00 00 00 00 00 00 00 00 00 00 00 00 00 00 00 ................
0040ACA0 00 00 00 00 00 00 00 00 00 00 00 00 00 00 00 00 ................
0040ACB0 00 00 00 00 00 00 00 00 00 00 00 00 00 00 00 00 ................
0040ACC0 00 00 00 00 00 00 00 00 00 00 00 00 00 00 00 00 ................
0040ACD0 00 00 00 00 00 00 00 00 00 00 00 00 00 00 00 00 ................
0040ACE0 00 00 00 00 00 00 00 00 00 00 00 00 00 00 00 00 ................
0040ACF0 00 00 00 00 00 00 00 00 00 00 00 00 00 00 00 00 ................
0040AD00 00 00 00 00 00 00 00 00 00 00 00 00 00 00 00 00 ................
0040AD10 00 00 00 00 00 00 00 00 00 00 00 00 00 00 00 00 ................
0040AD20 00 00 00 00 00 00 00 00 00 00 00 00 00 00 00 00 ................
0040AD30 00 00 00 00 00 00 00 00 00 00 00 00 00 00 00 00 ................
0040AD40 00 00 00 00 00 00 00 00 00 00 00 00 00 00 00 00 ................
0040AD50 00 00 00 00 00 00 00 00 00 00 00 00 00 00 00 00 ................
0040AD60 00 00 00 00 00 00 00 00 00 00 00 00 00 00 00 00 ................
0040AD70 00 00 00 00 00 00 00 00 00 00 00 00 00 00 00 00 ................
0040AD80 00 00 00 00 00 00 00 00 00 00 00 00 00 00 00 00 ................
0040AD90 00 00 00 00 00 00 00 00 00 00 00 00 00 00 00 00 ................
0040ADA0 00 00 00 00 00 00 00 00 00 00 00 00 00 00 00 00 ................
0040ADB0 00 00 00 00 00 00 00 00 00 00 00 00 00 00 00 00 ................
0040ADC0 00 00 00 00 00 00 00 00 00 00 00 00 00 00 00 00 ................
0040ADD0 00 00 00 00 00 00 00 00 00 00 00 00 00 00 00 00 ................
0040ADE0 00 00 00 00 00 00 00 00 00 00 00 00 00 00 00 00 ................
0040ADF0 00 00 00 00 00 00 00 00 00 00 00 00 00 00 00 00 ................
0040AE00 00 00 00 00 00 00 00 00 00 00 00 00 00 00 00 00 ................
0040AE10 00 00 00 00 00 00 00 00 00 00 00 00 00 00 00 00 ................
0040AE20 00 00 00 00 00 00 00 00 00 00 00 00 00 00 00 00 ................
0040AE30 00 00 00 00 00 00 00 00 00 00 00 00 00 00 00 00 ................
0040AE40 00 00 00 00 00 00 00 00 00 00 00 00 00 00 00 00 ................
0040AE50 00 00 00 00 00 00 00 00 00 00 00 00 00 00 00 00 ................
0040AE60 00 00 00 00 00 00 00 00 00 00 00 00 00 00 00 00 ................
0040AE70 00 00 00 00 00 00 00 00 00 00 00 00 00 00 00 00 ................
0040AE80 00 00 00 00 00 00 00 00 00 00 00 00 00 00 00 00 ................
0040AE90 00 00 00 00 00 00 00 00 00 00 00 00 00 00 00 00 ................
0040AEA0 00 00 00 00 00 00 00 00 00 00 00 00 00 00 00 00 ................
0040AEB0 00 00 00 00 00 00 00 00 00 00 00 00 00 00 00 00 ................
0040AEC0 00 00 00 00 00 00 00 00 00 00 00 00 00 00 00 00 ................
0040AED0 00 00 00 00 00 00 00 00 00 00 00 00 00 00 00 00 ................
0040AEE0 00 00 00 00 00 00 00 00 00 00 00 00 00 00 00 00 ................
0040AEF0 00 00 00 00 00 00 00 00 00 00 00 00 00 00 00 00 ................
0040AF00 00 00 00 00 00 00 00 00 00 00 00 00 00 00 00 00 ................
0040AF10 00 00 00 00 00 00 00 00 00 00 00 00 00 00 00 00 ................
0040AF20 00 00 00 00 00 00 00 00 00 00 00 00 00 00 00 00 ................
0040AF30 00 00 00 00 00 00 00 00 00 00 00 00 00 00 00 00 ................
0040AF40 00 00 00 00 00 00 00 00 00 00 00 00 00 00 00 00 ................
0040AF50 00 00 00 00 00 00 00 00 00 00 00 00 00 00 00 00 ................
0040AF60 00 00 00 00 00 00 00 00 00 00 00 00 00 00 00 00 ................
0040AF70 00 00 00 00 00 00 00 00 00 00 00 00 00 00 00 00 ................
0040AF80 00 00 00 00 00 00 00 00 00 00 00 00 00 00 00 00 ................
0040AF90 00 00 00 00 00 00 00 00 00 00 00 00 00 00 00 00 ................
0040AFA0 00 00 00 00 00 00 00 00 00 00 00 00 00 00 00 00 ................
0040AFB0 00 00 00 00 00 00 00 00 00 00 00 00 00 00 00 00 ................
0040AFC0 00 00 00 00 00 00 00 00 00 00 00 00 00 00 00 00 ................
0040AFD0 00 00 00 00 00 00 00 00 00 00 00 00 00 00 00 00 ................
0040AFE0 00 00 00 00 00 00 00 00 00 00 00 00 00 00 00 00 ................
0040AFF0 00 00 00 00 00 00 00 00 00 00 00 00 00 00 00 00 ................
0040B000 00 00 00 00 00 00 00 00 00 00 00 00 00 00 00 00 ................
0040B010 00 00 00 00 00 00 00 00 00 00 00 00 00 00 00 00 ................
0040B020 00 00 00 00 00 00 00 00 00 00 00 00 00 00 00 00 ................
0040B030 00 00 00 00 00 00 00 00 00 00 00 00 00 00 00 00 ................
0040B040 00 00 00 00 00 00 00 00 00 00 00 00 00 00 00 00 ................
0040B050 00 00 00 00 00 00 00 00 00 00 00 00 00 00 00 00 ................
0040B060 00 00 00 00 00 00 00 00 00 00 00 00 00 00 00 00 ................
0040B070 00 00 00 00 00 00 00 00 00 00 00 00 00 00 00 00 ................
0040B080 00 00 00 00 00 00 00 00 00 00 00 00 00 00 00 00 ................
0040B090 00 00 00 00 00 00 00 00 00 00 00 00 00 00 00 00 ................
0040B0A0 00 00 00 00 00 00 00 00 00 00 00 00 00 00 00 00 ................
0040B0B0 00 00 00 00 00 00 00 00 00 00 00 00 00 00 00 00 ................
0040B0C0 00 00 00 00 00 00 00 00 00 00 00 00 00 00 00 00 ................
0040B0D0 00 00 00 00 00 00 00 00 00 00 00 00 00 00 00 00 ................
0040B0E0 00 00 00 00 00 00 00 00 00 00 00 00 00 00 00 00 ................
0040B0F0 00 00 00 00 00 00 00 00 00 00 00 00 00 00 00 00 ................
0040B100 00 00 00 00 00 00 00 00 00 00 00 00 00 00 00 00 ................
0040B110 00 00 00 00 00 00 00 00 00 00 00 00 00 00 00 00 ................
0040B120 00 00 00 00 00 00 00 00 00 00 00 00 00 00 00 00 ................
0040B130 00 00 00 00 00 00 00 00 00 00 00 00 00 00 00 00 ................
0040B140 00 00 00 00 00 00 00 00 00 00 00 00 00 00 00 00 ................
0040B150 00 00 00 00 00 00 00 00 00 00 00 00 00 00 00 00 ................
0040B160 00 00 00 00 00 00 00 00 00 00 00 00 00 00 00 00 ................
0040B170 00 00 00 00 00 00 00 00 00 00 00 00 00 00 00 00 ................
0040B180 00 00 00 00 00 00 00 00 00 00 00 00 00 00 00 00 ................
0040B190 00 00 00 00 00 00 00 00 00 00 00 00 00 00 00 00 ................
0040B1A0 00 00 00 00 00 00 00 00 00 00 00 00 00 00 00 00 ................
0040B1B0 00 00 00 00 00 00 00 00 00 00 00 00 00 00 00 00 ................
0040B1C0 00 00 00 00 00 00 00 00 00 00 00 00 00 00 00 00 ................
0040B1D0 00 00 00 00 00 00 00 00 00 00 00 00 00 00 00 00 ................
0040B1E0 00 00 00 00 00 00 00 00 00 00 00 00 00 00 00 00 ................
0040B1F0 00 00 00 00 00 00 00 00 00 00 00 00 00 00 00 00 ................
0040B200 00 00 00 00 00 00 00 00 00 00 00 00 00 00 00 00 ................
0040B210 00 00 00 00 00 00 00 00 00 00 00 00 00 00 00 00 ................
0040B220 00 00 00 00 00 00 00 00 00 00 00 00 00 00 00 00 ................
0040B230 00 00 00 00 00 00 00 00 00 00 00 00 00 00 00 00 ................
0040B240 00 00 00 00 00 00 00 00 00 00 00 00 00 00 00 00 ................
0040B250 00 00 00 00 00 00 00 00 00 00 00 00 00 00 00 00 ................
0040B260 00 00 00 00 00 00 00 00 00 00 00 00 00 00 00 00 ................
0040B270 00 00 00 00 00 00 00 00 00 00 00 00 00 00 00 00 ................
0040B280 00 00 00 00 00 00 00 00 00 00 00 00 00 00 00 00 ................
0040B290 00 00 00 00 00 00 00 00 00 00 00 00 00 00 00 00 ................
0040B2A0 00 00 00 00 00 00 00 00 00 00 00 00 00 00 00 00 ................
0040B2B0 00 00 00 00 00 00 00 00 00 00 00 00 00 00 00 00 ................
0040B2C0 00 00 00 00 00 00 00 00 00 00 00 00 00 00 00 00 ................
0040B2D0 00 00 00 00 00 00 00 00 00 00 00 00 00 00 00 00 ................
0040B2E0 00 00 00 00 00 00 00 00 00 00 00 00 00 00 00 00 ................
0040B2F0 00 00 00 00 00 00 00 00 00 00 00 00 00 00 00 00 ................
0040B300 00 00 00 00 00 00 00 00 00 00 00 00 00 00 00 00 ................
0040B310 00 00 00 00 00 00 00 00 00 00 00 00 00 00 00 00 ................
0040B320 00 00 00 00 00 00 00 00 00 00 00 00 00 00 00 00 ................
0040B330 00 00 00 00 00 00 00 00 00 00 00 00 00 00 00 00 ................
0040B340 00 00 00 00 00 00 00 00 00 00 00 00 00 00 00 00 ................
0040B350 00 00 00 00 00 00 00 00 00 00 00 00 00 00 00 00 ................
0040B360 00 00 00 00 00 00 00 00 00 00 00 00 00 00 00 00 ................
0040B370 00 00 00 00 00 00 00 00 00 00 00 00 00 00 00 00 ................
0040B380 00 00 00 00 00 00 00 00 00 00 00 00 00 00 00 00 ................
0040B390 00 00 00 00 00 00 00 00 00 00 00 00 00 00 00 00 ................
0040B3A0 00 00 00 00 00 00 00 00 00 00 00 00 00 00 00 00 ................
0040B3B0 00 00 00 00 00 00 00 00 00 00 00 00 00 00 00 00 ................
0040B3C0 00 00 00 00 00 00 00 00 00 00 00 00 00 00 00 00 ................
0040B3D0 00 00 00 00 00 00 00 00 00 00 00 00 00 00 00 00 ................
0040B3E0 00 00 00 00 00 00 00 00 00 00 00 00 00 00 00 00 ................
0040B3F0 00 00 00 00 00 00 00 00 00 00 00 00 00 00 00 00 ................
0040B400 00 00 00 00 00 00 00 00 00 00 00 00 00 00 00 00 ................
0040B410 00 00 00 00 00 00 00 00 00 00 00 00 00 00 00 00 ................
0040B420 00 00 00 00 00 00 00 00 00 00 00 00 00 00 00 00 ................
0040B430 00 00 00 00 00 00 00 00 00 00 00 00 00 00 00 00 ................
0040B440 00 00 00 00 00 00 00 00 00 00 00 00 00 00 00 00 ................
0040B450 00 00 00 00 00 00 00 00 00 00 00 00 00 00 00 00 ................
0040B460 00 00 00 00 00 00 00 00 00 00 00 00 00 00 00 00 ................
0040B470 00 00 00 00 00 00 00 00 00 00 00 00 00 00 00 00 ................
0040B480 00 00 00 00 00 00 00 00 00 00 00 00 00 00 00 00 ................
0040B490 00 00 00 00 00 00 00 00 00 00 00 00 00 00 00 00 ................
0040B4A0 00 00 00 00 00 00 00 00 00 00 00 00 00 00 00 00 ................
0040B4B0 00 00 00 00 00 00 00 00 00 00 00 00 00 00 00 00 ................
0040B4C0 00 00 00 00 00 00 00 00 00 00 00 00 00 00 00 00 ................
0040B4D0 00 00 00 00 00 00 00 00 00 00 00 00 00 00 00 00 ................
0040B4E0 00 00 00 00 00 00 00 00 00 00 00 00 00 00 00 00 ................
0040B4F0 00 00 00 00 00 00 00 00 00 00 00 00 00 00 00 00 ................
0040B500 00 00 00 00 00 00 00 00 00 00 00 00 00 00 00 00 ................
0040B510 00 00 00 00 00 00 00 00 00 00 00 00 00 00 00 00 ................
0040B520 00 00 00 00 00 00 00 00 00 00 00 00 00 00 00 00 ................
0040B530 00 00 00 00 00 00 00 00 00 00 00 00 00 00 00 00 ................
0040B540 00 00 00 00 00 00 00 00 00 00 00 00 00 00 00 00 ................
0040B550 00 00 00 00 00 00 00 00 00 00 00 00 00 00 00 00 ................
0040B560 00 00 00 00 00 00 00 00 00 00 00 00 00 00 00 00 ................
0040B570 00 00 00 00 00 00 00 00 00 00 00 00 00 00 00 00 ................
0040B580 00 00 00 00 00 00 00 00 00 00 00 00 00 00 00 00 ................
0040B590 00 00 00 00 00 00 00 00 00 00 00 00 00 00 00 00 ................
0040B5A0 00 00 00 00 00 00 00 00 00 00 00 00 00 00 00 00 ................
0040B5B0 00 00 00 00 00 00 00 00 00 00 00 00 00 00 00 00 ................
0040B5C0 00 00 00 00 00 00 00 00 00 00 00 00 00 00 00 00 ................
0040B5D0 00 00 00 00 00 00 00 00 00 00 00 00 00 00 00 00 ................
0040B5E0 00 00 00 00 00 00 00 00 00 00 00 00 00 00 00 00 ................
0040B5F0 00 00 00 00 00 00 00 00 00 00 00 00 00 00 00 00 ................
0040B600 00 00 00 00 00 00 00 00 00 00 00 00 00 00 00 00 ................
0040B610 00 00 00 00 00 00 00 00 00 00 00 00 00 00 00 00 ................
0040B620 00 00 00 00 00 00 00 00 00 00 00 00 00 00 00 00 ................
0040B630 00 00 00 00 00 00 00 00 00 00 00 00 00 00 00 00 ................
0040B640 00 00 00 00 00 00 00 00 00 00 00 00 00 00 00 00 ................
0040B650 00 00 00 00 00 00 00 00 00 00 00 00 00 00 00 00 ................
0040B660 00 00 00 00 00 00 00 00 00 00 00 00 00 00 00 00 ................
0040B670 00 00 00 00 00 00 00 00 00 00 00 00 00 00 00 00 ................
0040B680 00 00 00 00 00 00 00 00 00 00 00 00 00 00 00 00 ................
0040B690 00 00 00 00 00 00 00 00 00 00 00 00 00 00 00 00 ................
0040B6A0 00 00 00 00 00 00 00 00 00 00 00 00 00 00 00 00 ................
0040B6B0 00 00 00 00 00 00 00 00 00 00 00 00 00 00 00 00 ................
0040B6C0 00 00 00 00 00 00 00 00 00 00 00 00 00 00 00 00 ................
0040B6D0 00 00 00 00 00 00 00 00 00 00 00 00 00 00 00 00 ................
0040B6E0 00 00 00 00 00 00 00 00 00 00 00 00 00 00 00 00 ................
0040B6F0 00 00 00 00 00 00 00 00 00 00 00 00 00 00 00 00 ................
0040B700 00 00 00 00 00 00 00 00 00 00 00 00 00 00 00 00 ................
0040B710 00 00 00 00 00 00 00 00 00 00 00 00 00 00 00 00 ................
0040B720 00 00 00 00 00 00 00 00 00 00 00 00 00 00 00 00 ................
0040B730 00 00 00 00 00 00 00 00 00 00 00 00 00 00 00 00 ................
0040B740 00 00 00 00 00 00 00 00 00 00 00 00 00 00 00 00 ................
0040B750 00 00 00 00 00 00 00 00 00 00 00 00 00 00 00 00 ................
0040B760 00 00 00 00 00 00 00 00 00 00 00 00 00 00 00 00 ................
0040B770 00 00 00 00 00 00 00 00 00 00 00 00 00 00 00 00 ................
0040B780 00 00 00 00 00 00 00 00 00 00 00 00 00 00 00 00 ................
0040B790 00 00 00 00 00 00 00 00 00 00 00 00 00 00 00 00 ................
0040B7A0 00 00 00 00 00 00 00 00 00 00 00 00 00 00 00 00 ................
0040B7B0 00 00 00 00 00 00 00 00 00 00 00 00 00 00 00 00 ................
0040B7C0 00 00 00 00 00 00 00 00 00 00 00 00 00 00 00 00 ................
0040B7D0 00 00 00 00 00 00 00 00 00 00 00 00 00 00 00 00 ................
0040B7E0 00 00 00 00 00 00 00 00 00 00 00 00 00 00 00 00 ................
0040B7F0 00 00 00 00 00 00 00 00 00 00 00 00 00 00 00 00 ................
0040B800 00 00 00 00 00 00 00 00 00 00 00 00 00 00 00 00 ................
0040B810 00 00 00 00 00 00 00 00 00 00 00 00 00 00 00 00 ................
0040B820 00 00 00 00 00 00 00 00 00 00 00 00 00 00 00 00 ................
0040B830 00 00 00 00 00 00 00 00 00 00 00 00 00 00 00 00 ................
0040B840 00 00 00 00 00 00 00 00 00 00 00 00 00 00 00 00 ................
0040B850 00 00 00 00 00 00 00 00 00 00 00 00 00 00 00 00 ................
0040B860 00 00 00 00 00 00 00 00 00 00 00 00 00 00 00 00 ................
0040B870 00 00 00 00 00 00 00 00 00 00 00 00 00 00 00 00 ................
0040B880 00 00 00 00 00 00 00 00 00 00 00 00 00 00 00 00 ................
0040B890 00 00 00 00 00 00 00 00 00 00 00 00 00 00 00 00 ................
0040B8A0 00 00 00 00 00 00 00 00 00 00 00 00 00 00 00 00 ................
0040B8B0 00 00 00 00 00 00 00 00 00 00 00 00 00 00 00 00 ................
0040B8C0 00 00 00 00 00 00 00 00 00 00 00 00 00 00 00 00 ................
0040B8D0 00 00 00 00 00 00 00 00 00 00 00 00 00 00 00 00 ................
0040B8E0 00 00 00 00 00 00 00 00 00 00 00 00 00 00 00 00 ................
0040B8F0 00 00 00 00 00 00 00 00 00 00 00 00 00 00 00 00 ................
0040B900 00 00 00 00 00 00 00 00 00 00 00 00 00 00 00 00 ................
0040B910 00 00 00 00 00 00 00 00 00 00 00 00 00 00 00 00 ................
0040B920 00 00 00 00 00 00 00 00 00 00 00 00 00 00 00 00 ................
0040B930 00 00 00 00 00 00 00 00 00 00 00 00 00 00 00 00 ................
0040B940 00 00 00 00 00 00 00 00 00 00 00 00 00 00 00 00 ................
0040B950 00 00 00 00 00 00 00 00 00 00 00 00 00 00 00 00 ................
0040B960 00 00 00 00 00 00 00 00 00 00 00 00 00 00 00 00 ................
0040B970 00 00 00 00 00 00 00 00 00 00 00 00 00 00 00 00 ................
0040B980 00 00 00 00 00 00 00 00 00 00 00 00 00 00 00 00 ................
0040B990 00 00 00 00 00 00 00 00 00 00 00 00 00 00 00 00 ................
0040B9A0 00 00 00 00 00 00 00 00 00 00 00 00 00 00 00 00 ................
0040B9B0 00 00 00 00 00 00 00 00 00 00 00 00 00 00 00 00 ................
0040B9C0 00 00 00 00 00 00 00 00 00 00 00 00 00 00 00 00 ................
0040B9D0 00 00 00 00 00 00 00 00 00 00 00 00 00 00 00 00 ................
0040B9E0 00 00 00 00 00 00 00 00 00 00 00 00 00 00 00 00 ................
0040B9F0 00 00 00 00 00 00 00 00 00 00 00 00 00 00 00 00 ................
0040BA00 00 00 00 00 00 00 00 00 00 00 00 00 00 00 00 00 ................
0040BA10 00 00 00 00 00 00 00 00 00 00 00 00 00 00 00 00 ................
0040BA20 00 00 00 00 00 00 00 00 00 00 00 00 00 00 00 00 ................
0040BA30 00 00 00 00 00 00 00 00 00 00 00 00 00 00 00 00 ................
0040BA40 00 00 00 00 00 00 00 00 00 00 00 00 00 00 00 00 ................
0040BA50 00 00 00 00 00 00 00 00 00 00 00 00 00 00 00 00 ................
0040BA60 00 00 00 00 00 00 00 00 00 00 00 00 00 00 00 00 ................
0040BA70 00 00 00 00 00 00 00 00 00 00 00 00 00 00 00 00 ................
0040BA80 00 00 00 00 00 00 00 00 00 00 00 00 00 00 00 00 ................
0040BA90 00 00 00 00 00 00 00 00 00 00 00 00 00 00 00 00 ................
0040BAA0 00 00 00 00 00 00 00 00 00 00 00 00 00 00 00 00 ................
0040BAB0 00 00 00 00 00 00 00 00 00 00 00 00 00 00 00 00 ................
0040BAC0 00 00 00 00 00 00 00 00 00 00 00 00 00 00 00 00 ................
0040BAD0 00 00 00 00 00 00 00 00 00 00 00 00 00 00 00 00 ................
0040BAE0 00 00 00 00 00 00 00 00 00 00 00 00 00 00 00 00 ................
0040BAF0 00 00 00 00 00 00 00 00 00 00 00 00 00 00 00 00 ................
0040BB00 00 00 00 00 00 00 00 00 00 00 00 00 00 00 00 00 ................
0040BB10 00 00 00 00 00 00 00 00 00 00 00 00 00 00 00 00 ................
0040BB20 00 00 00 00 00 00 00 00 00 00 00 00 00 00 00 00 ................
0040BB30 00 00 00 00 00 00 00 00 00 00 00 00 00 00 00 00 ................
0040BB40 00 00 00 00 00 00 00 00 00 00 00 00 00 00 00 00 ................
0040BB50 00 00 00 00 00 00 00 00 00 00 00 00 00 00 00 00 ................
0040BB60 00 00 00 00 00 00 00 00 00 00 00 00 00 00 00 00 ................
0040BB70 00 00 00 00 00 00 00 00 00 00 00 00 00 00 00 00 ................
0040BB80 00 00 00 00 00 00 00 00 00 00 00 00 00 00 00 00 ................
0040BB90 00 00 00 00 00 00 00 00 00 00 00 00 00 00 00 00 ................
0040BBA0 00 00 00 00 00 00 00 00 00 00 00 00 00 00 00 00 ................
0040BBB0 00 00 00 00 00 00 00 00 00 00 00 00 00 00 00 00 ................
0040BBC0 00 00 00 00 00 00 00 00 00 00 00 00 00 00 00 00 ................
0040BBD0 00 00 00 00 00 00 00 00 00 00 00 00 00 00 00 00 ................
0040BBE0 00 00 00 00 00 00 00 00 00 00 00 00 00 00 00 00 ................
0040BBF0 00 00 00 00 00 00 00 00 00 00 00 00 00 00 00 00 ................
0040BC00 00 00 00 00 00 00 00 00 00 00 00 00 00 00 00 00 ................
0040BC10 00 00 00 00 00 00 00 00 00 00 00 00 00 00 00 00 ................
0040BC20 00 00 00 00 00 00 00 00 00 00 00 00 00 00 00 00 ................
0040BC30 00 00 00 00 00 00 00 00 00 00 00 00 00 00 00 00 ................
0040BC40 00 00 00 00 00 00 00 00 00 00 00 00 00 00 00 00 ................
0040BC50 00 00 00 00 00 00 00 00 00 00 00 00 00 00 00 00 ................
0040BC60 00 00 00 00 00 00 00 00 00 00 00 00 00 00 00 00 ................
0040BC70 00 00 00 00 00 00 00 00 00 00 00 00 00 00 00 00 ................
0040BC80 00 00 00 00 00 00 00 00 00 00 00 00 00 00 00 00 ................
0040BC90 00 00 00 00 00 00 00 00 00 00 00 00 00 00 00 00 ................
0040BCA0 00 00 00 00 00 00 00 00 00 00 00 00 00 00 00 00 ................
0040BCB0 00 00 00 00 00 00 00 00 00 00 00 00 00 00 00 00 ................
0040BCC0 00 00 00 00 00 00 00 00 00 00 00 00 00 00 00 00 ................
0040BCD0 00 00 00 00 00 00 00 00 00 00 00 00 00 00 00 00 ................
0040BCE0 00 00 00 00 00 00 00 00 00 00 00 00 00 00 00 00 ................
0040BCF0 00 00 00 00 00 00 00 00 00 00 00 00 00 00 00 00 ................
0040BD00 00 00 00 00 00 00 00 00 00 00 00 00 00 00 00 00 ................
0040BD10 00 00 00 00 00 00 00 00 00 00 00 00 00 00 00 00 ................
0040BD20 00 00 00 00 00 00 00 00 00 00 00 00 00 00 00 00 ................
0040BD30 00 00 00 00 00 00 00 00 00 00 00 00 00 00 00 00 ................
0040BD40 00 00 00 00 00 00 00 00 00 00 00 00 00 00 00 00 ................
0040BD50 00 00 00 00 00 00 00 00 00 00 00 00 00 00 00 00 ................
0040BD60 00 00 00 00 00 00 00 00 00 00 00 00 00 00 00 00 ................
0040BD70 00 00 00 00 00 00 00 00 00 00 00 00 00 00 00 00 ................
0040BD80 00 00 00 00 00 00 00 00 00 00 00 00 00 00 00 00 ................
0040BD90 00 00 00 00 00 00 00 00 00 00 00 00 00 00 00 00 ................
0040BDA0 00 00 00 00 00 00 00 00 00 00 00 00 00 00 00 00 ................
0040BDB0 00 00 00 00 00 00 00 00 00 00 00 00 00 00 00 00 ................
0040BDC0 00 00 00 00 00 00 00 00 00 00 00 00 00 00 00 00 ................
0040BDD0 00 00 00 00 00 00 00 00 00 00 00 00 00 00 00 00 ................
0040BDE0 00 00 00 00 00 00 00 00 00 00 00 00 00 00 00 00 ................
0040BDF0 00 00 00 00 00 00 00 00 00 00 00 00 00 00 00 00 ................
0040BE00 00 00 00 00 00 00 00 00 00 00 00 00 00 00 00 00 ................
0040BE10 00 00 00 00 00 00 00 00 00 00 00 00 00 00 00 00 ................
0040BE20 00 00 00 00 00 00 00 00 00 00 00 00 00 00 00 00 ................
0040BE30 00 00 00 00 00 00 00 00 00 00 00 00 00 00 00 00 ................
0040BE40 00 00 00 00 00 00 00 00 00 00 00 00 00 00 00 00 ................
0040BE50 00 00 00 00 00 00 00 00 00 00 00 00 00 00 00 00 ................
0040BE60 00 00 00 00 00 00 00 00 00 00 00 00 00 00 00 00 ................
0040BE70 00 00 00 00 00 00 00 00 00 00 00 00 00 00 00 00 ................
0040BE80 00 00 00 00 00 00 00 00 00 00 00 00 00 00 00 00 ................
0040BE90 00 00 00 00 00 00 00 00 00 00 00 00 00 00 00 00 ................
0040BEA0 00 00 00 00 00 00 00 00 00 00 00 00 00 00 00 00 ................
0040BEB0 00 00 00 00 00 00 00 00 00 00 00 00 00 00 00 00 ................
0040BEC0 00 00 00 00 00 00 00 00 00 00 00 00 00 00 00 00 ................
0040BED0 00 00 00 00 00 00 00 00 00 00 00 00 00 00 00 00 ................
0040BEE0 00 00 00 00 00 00 00 00 00 00 00 00 00 00 00 00 ................
0040BEF0 00 00 00 00 00 00 00 00 00 00 00 00 00 00 00 00 ................
0040BF00 00 00 00 00 00 00 00 00 00 00 00 00 00 00 00 00 ................
0040BF10 00 00 00 00 00 00 00 00 00 00 00 00 00 00 00 00 ................
0040BF20 00 00 00 00 00 00 00 00 00 00 00 00 00 00 00 00 ................
0040BF30 00 00 00 00 00 00 00 00 00 00 00 00 00 00 00 00 ................
0040BF40 00 00 00 00 00 00 00 00 00 00 00 00 00 00 00 00 ................
0040BF50 00 00 00 00 00 00 00 00 00 00 00 00 00 00 00 00 ................
0040BF60 00 00 00 00 00 00 00 00 00 00 00 00 00 00 00 00 ................
0040BF70 00 00 00 00 00 00 00 00 00 00 00 00 00 00 00 00 ................
0040BF80 00 00 00 00 00 00 00 00 00 00 00 00 00 00 00 00 ................
0040BF90 00 00 00 00 00 00 00 00 00 00 00 00 00 00 00 00 ................
0040BFA0 00 00 00 00 00 00 00 00 00 00 00 00 00 00 00 00 ................
0040BFB0 00 00 00 00 00 00 00 00 00 00 00 00 00 00 00 00 ................
0040BFC0 00 00 00 00 00 00 00 00 00 00 00 00 00 00 00 00 ................
0040BFD0 00 00 00 00 00 00 00 00 00 00 00 00 00 00 00 00 ................
0040BFE0 00 00 00 00 00 00 00 00 00 00 00 00 00 00 00 00 ................
0040BFF0 00 00 00 00 00 00 00 00 00 00 00 00 00 00 00 00 ................
0040C000 00 00 00 00 00 00 00 00 00 00 00 00 00 00 00 00 ................
0040C010 00 00 00 00 00 00 00 00 00 00 00 00 00 00 00 00 ................
0040C020 00 00 00 00 00 00 00 00 00 00 00 00 00 00 00 00 ................
0040C030 00 00 00 00 00 00 00 00 00 00 00 00 00 00 00 00 ................
0040C040 00 00 00 00 00 00 00 00 00 00 00 00 00 00 00 00 ................
0040C050 00 00 00 00 00 00 00 00 00 00 00 00 00 00 00 00 ................
0040C060 00 00 00 00 00 00 00 00 00 00 00 00 00 00 00 00 ................
0040C070 00 00 00 00 00 00 00 00 00 00 00 00 00 00 00 00 ................
0040C080 00 00 00 00 00 00 00 00 00 00 00 00 00 00 00 00 ................
0040C090 00 00 00 00 00 00 00 00 00 00 00 00 00 00 00 00 ................
0040C0A0 00 00 00 00 00 00 00 00 00 00 00 00 00 00 00 00 ................
0040C0B0 00 00 00 00 00 00 00 00 00 00 00 00 00 00 00 00 ................
0040C0C0 00 00 00 00 00 00 00 00 00 00 00 00 00 00 00 00 ................
0040C0D0 00 00 00 00 00 00 00 00 00 00 00 00 00 00 00 00 ................
0040C0E0 00 00 00 00 00 00 00 00 00 00 00 00 00 00 00 00 ................
0040C0F0 00 00 00 00 00 00 00 00 00 00 00 00 00 00 00 00 ................
0040C100 00 00 00 00 00 00 00 00 00 00 00 00 00 00 00 00 ................
0040C110 00 00 00 00 00 00 00 00 00 00 00 00 00 00 00 00 ................
0040C120 00 00 00 00 00 00 00 00 00 00 00 00 00 00 00 00 ................
0040C130 00 00 00 00 00 00 00 00 00 00 00 00 00 00 00 00 ................
0040C140 00 00 00 00 00 00 00 00 00 00 00 00 00 00 00 00 ................
0040C150 00 00 00 00 00 00 00 00 00 00 00 00 00 00 00 00 ................
0040C160 00 00 00 00 00 00 00 00 00 00 00 00 00 00 00 00 ................
0040C170 00 00 00 00 00 00 00 00 00 00 00 00 00 00 00 00 ................
0040C180 00 00 00 00 00 00 00 00 00 00 00 00 00 00 00 00 ................
0040C190 00 00 00 00 00 00 00 00 00 00 00 00 00 00 00 00 ................
0040C1A0 00 00 00 00 00 00 00 00 00 00 00 00 00 00 00 00 ................
0040C1B0 00 00 00 00 00 00 00 00 00 00 00 00 00 00 00 00 ................
0040C1C0 00 00 00 00 00 00 00 00 00 00 00 00 00 00 00 00 ................
0040C1D0 00 00 00 00 00 00 00 00 00 00 00 00 00 00 00 00 ................
0040C1E0 00 00 00 00 00 00 00 00 00 00 00 00 00 00 00 00 ................
0040C1F0 00 00 00 00 00 00 00 00 00 00 00 00 00 00 00 00 ................
0040C200 00 00 00 00 00 00 00 00 00 00 00 00 00 00 00 00 ................
0040C210 00 00 00 00 00 00 00 00 00 00 00 00 00 00 00 00 ................
0040C220 00 00 00 00 00 00 00 00 00 00 00 00 00 00 00 00 ................
0040C230 00 00 00 00 00 00 00 00 00 00 00 00 00 00 00 00 ................
0040C240 00 00 00 00 00 00 00 00 00 00 00 00 00 00 00 00 ................
0040C250 00 00 00 00 00 00 00 00 00 00 00 00 00 00 00 00 ................
0040C260 00 00 00 00 00 00 00 00 00 00 00 00 00 00 00 00 ................
0040C270 00 00 00 00 00 00 00 00 00 00 00 00 00 00 00 00 ................
0040C280 00 00 00 00 00 00 00 00 00 00 00 00 00 00 00 00 ................
0040C290 00 00 00 00 00 00 00 00 00 00 00 00 00 00 00 00 ................
0040C2A0 00 00 00 00 00 00 00 00 00 00 00 00 00 00 00 00 ................
0040C2B0 00 00 00 00 00 00 00 00 00 00 00 00 00 00 00 00 ................
0040C2C0 00 00 00 00 00 00 00 00 00 00 00 00 00 00 00 00 ................
0040C2D0 00 00 00 00 00 00 00 00 00 00 00 00 00 00 00 00 ................
0040C2E0 00 00 00 00 00 00 00 00 00 00 00 00 00 00 00 00 ................
0040C2F0 00 00 00 00 00 00 00 00 00 00 00 00 00 00 00 00 ................
0040C300 00 00 00 00 00 00 00 00 00 00 00 00 00 00 00 00 ................
0040C310 00 00 00 00 00 00 00 00 00 00 00 00 00 00 00 00 ................
0040C320 00 00 00 00 00 00 00 00 00 00 00 00 00 00 00 00 ................
0040C330 00 00 00 00 00 00 00 00 00 00 00 00 00 00 00 00 ................
0040C340 00 00 00 00 00 00 00 00 00 00 00 00 00 00 00 00 ................
0040C350 00 00 00 00 00 00 00 00 00 00 00 00 00 00 00 00 ................
0040C360 00 00 00 00 00 00 00 00 00 00 00 00 00 00 00 00 ................
0040C370 00 00 00 00 00 00 00 00 00 00 00 00 00 00 00 00 ................
0040C380 00 00 00 00 00 00 00 00 00 00 00 00 00 00 00 00 ................
0040C390 00 00 00 00 00 00 00 00 00 00 00 00 00 00 00 00 ................
0040C3A0 00 00 00 00 00 00 00 00 00 00 00 00 00 00 00 00 ................
0040C3B0 00 00 00 00 00 00 00 00 00 00 00 00 00 00 00 00 ................
0040C3C0 00 00 00 00 00 00 00 00 00 00 00 00 00 00 00 00 ................
0040C3D0 00 00 00 00 00 00 00 00 00 00 00 00 00 00 00 00 ................
0040C3E0 00 00 00 00 00 00 00 00 00 00 00 00 00 00 00 00 ................
0040C3F0 00 00 00 00 00 00 00 00 00 00 00 00 00 00 00 00 ................
0040C400 00 00 00 00 00 00 00 00 00 00 00 00 00 00 00 00 ................
0040C410 00 00 00 00 00 00 00 00 00 00 00 00 00 00 00 00 ................
0040C420 00 00 00 00 00 00 00 00 00 00 00 00 00 00 00 00 ................
0040C430 00 00 00 00 00 00 00 00 00 00 00 00 00 00 00 00 ................
0040C440 00 00 00 00 00 00 00 00 00 00 00 00 00 00 00 00 ................
0040C450 00 00 00 00 00 00 00 00 00 00 00 00 00 00 00 00 ................
0040C460 00 00 00 00 00 00 00 00 00 00 00 00 00 00 00 00 ................
0040C470 00 00 00 00 00 00 00 00 00 00 00 00 00 00 00 00 ................
0040C480 00 00 00 00 00 00 00 00 00 00 00 00 00 00 00 00 ................
0040C490 00 00 00 00 00 00 00 00 00 00 00 00 00 00 00 00 ................
0040C4A0 00 00 00 00 00 00 00 00 00 00 00 00 00 00 00 00 ................
0040C4B0 00 00 00 00 00 00 00 00 00 00 00 00 00 00 00 00 ................
0040C4C0 00 00 00 00 00 00 00 00 00 00 00 00 00 00 00 00 ................
0040C4D0 00 00 00 00 00 00 00 00 00 00 00 00 00 00 00 00 ................
0040C4E0 00 00 00 00 00 00 00 00 00 00 00 00 00 00 00 00 ................
0040C4F0 00 00 00 00 00 00 00 00 00 00 00 00 00 00 00 00 ................
0040C500 00 00 00 00 00 00 00 00 00 00 00 00 00 00 00 00 ................
0040C510 00 00 00 00 00 00 00 00 00 00 00 00 00 00 00 00 ................
0040C520 00 00 00 00 00 00 00 00 00 00 00 00 00 00 00 00 ................
0040C530 00 00 00 00 00 00 00 00 00 00 00 00 00 00 00 00 ................
0040C540 00 00 00 00 00 00 00 00 00 00 00 00 00 00 00 00 ................
0040C550 00 00 00 00 00 00 00 00 00 00 00 00 00 00 00 00 ................
0040C560 00 00 00 00 00 00 00 00 00 00 00 00 00 00 00 00 ................
0040C570 00 00 00 00 00 00 00 00 00 00 00 00 00 00 00 00 ................
0040C580 00 00 00 00 00 00 00 00 00 00 00 00 00 00 00 00 ................
0040C590 00 00 00 00 00 00 00 00 00 00 00 00 00 00 00 00 ................
0040C5A0 00 00 00 00 00 00 00 00 00 00 00 00 00 00 00 00 ................
0040C5B0 00 00 00 00 00 00 00 00 00 00 00 00 00 00 00 00 ................
0040C5C0 00 00 00 00 00 00 00 00 00 00 00 00 00 00 00 00 ................
0040C5D0 00 00 00 00 00 00 00 00 00 00 00 00 00 00 00 00 ................
0040C5E0 00 00 00 00 00 00 00 00 00 00 00 00 00 00 00 00 ................
0040C5F0 00 00 00 00 00 00 00 00 00 00 00 00 00 00 00 00 ................
0040C600 00 00 00 00 00 00 00 00 00 00 00 00 00 00 00 00 ................
0040C610 00 00 00 00 00 00 00 00 00 00 00 00 00 00 00 00 ................
0040C620 00 00 00 00 00 00 00 00 00 00 00 00 00 00 00 00 ................
0040C630 00 00 00 00 00 00 00 00 00 00 00 00 00 00 00 00 ................
0040C640 00 00 00 00 00 00 00 00 00 00 00 00 00 00 00 00 ................
0040C650 00 00 00 00 00 00 00 00 00 00 00 00 00 00 00 00 ................
0040C660 00 00 00 00 00 00 00 00 00 00 00 00 00 00 00 00 ................
0040C670 00 00 00 00 00 00 00 00 00 00 00 00 00 00 00 00 ................
0040C680 00 00 00 00 00 00 00 00 00 00 00 00 00 00 00 00 ................
0040C690 00 00 00 00 00 00 00 00 00 00 00 00 00 00 00 00 ................
0040C6A0 00 00 00 00 00 00 00 00 00 00 00 00 00 00 00 00 ................
0040C6B0 00 00 00 00 00 00 00 00 00 00 00 00 00 00 00 00 ................
0040C6C0 00 00 00 00 00 00 00 00 00 00 00 00 00 00 00 00 ................
0040C6D0 00 00 00 00 00 00 00 00 00 00 00 00 00 00 00 00 ................
0040C6E0 00 00 00 00 00 00 00 00 00 00 00 00 00 00 00 00 ................
0040C6F0 00 00 00 00 00 00 00 00 00 00 00 00 00 00 00 00 ................
0040C700 00 00 00 00 00 00 00 00 00 00 00 00 00 00 00 00 ................
0040C710 00 00 00 00 00 00 00 00 00 00 00 00 00 00 00 00 ................
0040C720 00 00 00 00 00 00 00 00 00 00 00 00 00 00 00 00 ................
0040C730 00 00 00 00 00 00 00 00 00 00 00 00 00 00 00 00 ................
0040C740 00 00 00 00 00 00 00 00 00 00 00 00 00 00 00 00 ................
0040C750 00 00 00 00 00 00 00 00 00 00 00 00 00 00 00 00 ................
0040C760 00 00 00 00 00 00 00 00 00 00 00 00 00 00 00 00 ................
0040C770 00 00 00 00 00 00 00 00 00 00 00 00 00 00 00 00 ................
0040C780 00 00 00 00 00 00 00 00 00 00 00 00 00 00 00 00 ................
0040C790 00 00 00 00 00 00 00 00 00 00 00 00 00 00 00 00 ................
0040C7A0 00 00 00 00 00 00 00 00 00 00 00 00 00 00 00 00 ................
0040C7B0 00 00 00 00 00 00 00 00 00 00 00 00 00 00 00 00 ................
0040C7C0 00 00 00 00 00 00 00 00 00 00 00 00 00 00 00 00 ................
0040C7D0 00 00 00 00 00 00 00 00 00 00 00 00 00 00 00 00 ................
0040C7E0 00 00 00 00 00 00 00 00 00 00 00 00 00 00 00 00 ................
0040C7F0 00 00 00 00 00 00 00 00 00 00 00 00 00 00 00 00 ................
0040C800 00 00 00 00 00 00 00 00 00 00 00 00 00 00 00 00 ................
0040C810 00 00 00 00 00 00 00 00 00 00 00 00 00 00 00 00 ................
0040C820 00 00 00 00 00 00 00 00 00 00 00 00 00 00 00 00 ................
0040C830 00 00 00 00 00 00 00 00 00 00 00 00 00 00 00 00 ................
0040C840 00 00 00 00 00 00 00 00 00 00 00 00 00 00 00 00 ................
0040C850 00 00 00 00 00 00 00 00 00 00 00 00 00 00 00 00 ................
0040C860 00 00 00 00 00 00 00 00 00 00 00 00 00 00 00 00 ................
0040C870 00 00 00 00 00 00 00 00 00 00 00 00 00 00 00 00 ................
0040C880 00 00 00 00 00 00 00 00 00 00 00 00 00 00 00 00 ................
0040C890 00 00 00 00 00 00 00 00 00 00 00 00 00 00 00 00 ................
0040C8A0 00 00 00 00 00 00 00 00 00 00 00 00 00 00 00 00 ................
0040C8B0 00 00 00 00 00 00 00 00 00 00 00 00 00 00 00 00 ................
0040C8C0 00 00 00 00 00 00 00 00 00 00 00 00 00 00 00 00 ................
0040C8D0 00 00 00 00 00 00 00 00 00 00 00 00 00 00 00 00 ................
0040C8E0 00 00 00 00 00 00 00 00 00 00 00 00 00 00 00 00 ................
0040C8F0 00 00 00 00 00 00 00 00 00 00 00 00 00 00 00 00 ................
0040C900 00 00 00 00 00 00 00 00 00 00 00 00 00 00 00 00 ................
0040C910 00 00 00 00 00 00 00 00 00 00 00 00 00 00 00 00 ................
0040C920 00 00 00 00 00 00 00 00 00 00 00 00 00 00 00 00 ................
0040C930 00 00 00 00 00 00 00 00 00 00 00 00 00 00 00 00 ................
0040C940 00 00 00 00 00 00 00 00 00 00 00 00 00 00 00 00 ................
0040C950 00 00 00 00 00 00 00 00 00 00 00 00 00 00 00 00 ................
0040C960 00 00 00 00 00 00 00 00 00 00 00 00 00 00 00 00 ................
0040C970 00 00 00 00 00 00 00 00 00 00 00 00 00 00 00 00 ................
0040C980 00 00 00 00 00 00 00 00 00 00 00 00 00 00 00 00 ................
0040C990 00 00 00 00 00 00 00 00 00 00 00 00 00 00 00 00 ................
0040C9A0 00 00 00 00 00 00 00 00 00 00 00 00 00 00 00 00 ................
0040C9B0 00 00 00 00 00 00 00 00 00 00 00 00 00 00 00 00 ................
0040C9C0 00 00 00 00 00 00 00 00 00 00 00 00 00 00 00 00 ................
0040C9D0 00 00 00 00 00 00 00 00 00 00 00 00 00 00 00 00 ................
0040C9E0 00 00 00 00 00 00 00 00 00 00 00 00 00 00 00 00 ................
0040C9F0 00 00 00 00 00 00 00 00 00 00 00 00 00 00 00 00 ................
0040CA00 00 00 00 00 00 00 00 00 00 00 00 00 00 00 00 00 ................
0040CA10 00 00 00 00 00 00 00 00 00 00 00 00 00 00 00 00 ................
0040CA20 00 00 00 00 00 00 00 00 00 00 00 00 00 00 00 00 ................
0040CA30 00 00 00 00 00 00 00 00 00 00 00 00 00 00 00 00 ................
0040CA40 00 00 00 00 00 00 00 00 00 00 00 00 00 00 00 00 ................
0040CA50 00 00 00 00 00 00 00 00 00 00 00 00 00 00 00 00 ................
0040CA60 00 00 00 00 00 00 00 00 00 00 00 00 00 00 00 00 ................
0040CA70 00 00 00 00 00 00 00 00 00 00 00 00 00 00 00 00 ................
0040CA80 00 00 00 00 00 00 00 00 00 00 00 00 00 00 00 00 ................
0040CA90 00 00 00 00 00 00 00 00 00 00 00 00 00 00 00 00 ................
0040CAA0 00 00 00 00 00 00 00 00 00 00 00 00 00 00 00 00 ................
0040CAB0 00 00 00 00 00 00 00 00 00 00 00 00 00 00 00 00 ................
0040CAC0 00 00 00 00 00 00 00 00 00 00 00 00 00 00 00 00 ................
0040CAD0 00 00 00 00 00 00 00 00 00 00 00 00 00 00 00 00 ................
0040CAE0 00 00 00 00 00 00 00 00 00 00 00 00 00 00 00 00 ................
0040CAF0 00 00 00 00 00 00 00 00 00 00 00 00 00 00 00 00 ................
0040CB00 00 00 00 00 00 00 00 00 00 00 00 00 00 00 00 00 ................
0040CB10 00 00 00 00 00 00 00 00 00 00 00 00 00 00 00 00 ................
0040CB20 00 00 00 00 00 00 00 00 00 00 00 00 00 00 00 00 ................
0040CB30 00 00 00 00 00 00 00 00 00 00 00 00 00 00 00 00 ................
0040CB40 00 00 00 00 00 00 00 00 00 00 00 00 00 00 00 00 ................
0040CB50 00 00 00 00 00 00 00 00 00 00 00 00 00 00 00 00 ................
0040CB60 00 00 00 00 00 00 00 00 00 00 00 00 00 00 00 00 ................
0040CB70 00 00 00 00 00 00 00 00 00 00 00 00 00 00 00 00 ................
0040CB80 00 00 00 00 00 00 00 00 00 00 00 00 00 00 00 00 ................
0040CB90 00 00 00 00 00 00 00 00 00 00 00 00 00 00 00 00 ................
0040CBA0 00 00 00 00 00 00 00 00 00 00 00 00 00 00 00 00 ................
0040CBB0 00 00 00 00 00 00 00 00 00 00 00 00 00 00 00 00 ................
0040CBC0 00 00 00 00 00 00 00 00 00 00 00 00 00 00 00 00 ................
0040CBD0 00 00 00 00 00 00 00 00 00 00 00 00 00 00 00 00 ................
0040CBE0 00 00 00 00 00 00 00 00 00 00 00 00 00 00 00 00 ................
0040CBF0 00 00 00 00 00 00 00 00 00 00 00 00 00 00 00 00 ................
0040CC00 00 00 00 00 00 00 00 00 00 00 00 00 00 00 00 00 ................
0040CC10 00 00 00 00 00 00 00 00 00 00 00 00 00 00 00 00 ................
0040CC20 00 00 00 00 00 00 00 00 00 00 00 00 00 00 00 00 ................
0040CC30 00 00 00 00 00 00 00 00 00 00 00 00 00 00 00 00 ................
0040CC40 00 00 00 00 00 00 00 00 00 00 00 00 00 00 00 00 ................
0040CC50 00 00 00 00 00 00 00 00 00 00 00 00 00 00 00 00 ................
0040CC60 00 00 00 00 00 00 00 00 00 00 00 00 00 00 00 00 ................
0040CC70 00 00 00 00 00 00 00 00 00 00 00 00 00 00 00 00 ................
0040CC80 00 00 00 00 00 00 00 00 00 00 00 00 00 00 00 00 ................
0040CC90 00 00 00 00 00 00 00 00 00 00 00 00 00 00 00 00 ................
0040CCA0 00 00 00 00 00 00 00 00 00 00 00 00 00 00 00 00 ................
0040CCB0 00 00 00 00 00 00 00 00 00 00 00 00 00 00 00 00 ................
0040CCC0 00 00 00 00 00 00 00 00 00 00 00 00 00 00 00 00 ................
0040CCD0 00 00 00 00 00 00 00 00 00 00 00 00 00 00 00 00 ................
0040CCE0 00 00 00 00 00 00 00 00 00 00 00 00 00 00 00 00 ................
0040CCF0 00 00 00 00 00 00 00 00 00 00 00 00 00 00 00 00 ................
0040CD00 00 00 00 00 00 00 00 00 00 00 00 00 00 00 00 00 ................
0040CD10 00 00 00 00 00 00 00 00 00 00 00 00 00 00 00 00 ................
0040CD20 00 00 00 00 00 00 00 00 00 00 00 00 00 00 00 00 ................
0040CD30 00 00 00 00 00 00 00 00 00 00 00 00 00 00 00 00 ................
0040CD40 00 00 00 00 00 00 00 00 00 00 00 00 00 00 00 00 ................
0040CD50 00 00 00 00 00 00 00 00 00 00 00 00 00 00 00 00 ................
0040CD60 00 00 00 00 00 00 00 00 00 00 00 00 00 00 00 00 ................
0040CD70 00 00 00 00 00 00 00 00 00 00 00 00 00 00 00 00 ................
0040CD80 00 00 00 00 00 00 00 00 00 00 00 00 00 00 00 00 ................
0040CD90 00 00 00 00 00 00 00 00 00 00 00 00 00 00 00 00 ................
0040CDA0 00 00 00 00 00 00 00 00 00 00 00 00 00 00 00 00 ................
0040CDB0 00 00 00 00 00 00 00 00 00 00 00 00 00 00 00 00 ................
0040CDC0 00 00 00 00 00 00 00 00 00 00 00 00 00 00 00 00 ................
0040CDD0 00 00 00 00 00 00 00 00 00 00 00 00 00 00 00 00 ................
0040CDE0 00 00 00 00 00 00 00 00 00 00 00 00 00 00 00 00 ................
0040CDF0 00 00 00 00 00 00 00 00 00 00 00 00 00 00 00 00 ................
0040CE00 00 00 00 00 00 00 00 00 00 00 00 00 00 00 00 00 ................
0040CE10 00 00 00 00 00 00 00 00 00 00 00 00 00 00 00 00 ................
0040CE20 00 00 00 00 00 00 00 00 00 00 00 00 00 00 00 00 ................
0040CE30 00 00 00 00 00 00 00 00 00 00 00 00 00 00 00 00 ................
0040CE40 00 00 00 00 00 00 00 00 00 00 00 00 00 00 00 00 ................
0040CE50 00 00 00 00 00 00 00 00 00 00 00 00 00 00 00 00 ................
0040CE60 00 00 00 00 00 00 00 00 00 00 00 00 00 00 00 00 ................
0040CE70 00 00 00 00 00 00 00 00 00 00 00 00 00 00 00 00 ................
0040CE80 00 00 00 00 00 00 00 00 00 00 00 00 00 00 00 00 ................
0040CE90 00 00 00 00 00 00 00 00 00 00 00 00 00 00 00 00 ................
0040CEA0 00 00 00 00 00 00 00 00 00 00 00 00 00 00 00 00 ................
0040CEB0 00 00 00 00 00 00 00 00 00 00 00 00 00 00 00 00 ................
0040CEC0 00 00 00 00 00 00 00 00 00 00 00 00 00 00 00 00 ................
0040CED0 00 00 00 00 00 00 00 00 00 00 00 00 00 00 00 00 ................
0040CEE0 00 00 00 00 00 00 00 00 00 00 00 00 00 00 00 00 ................
0040CEF0 00 00 00 00 00 00 00 00 00 00 00 00 00 00 00 00 ................
0040CF00 00 00 00 00 00 00 00 00 00 00 00 00 00 00 00 00 ................
0040CF10 00 00 00 00 00 00 00 00 00 00 00 00 00 00 00 00 ................
0040CF20 00 00 00 00 00 00 00 00 00 00 00 00 00 00 00 00 ................
0040CF30 00 00 00 00 00 00 00 00 00 00 00 00 00 00 00 00 ................
0040CF40 00 00 00 00 00 00 00 00 00 00 00 00 00 00 00 00 ................
0040CF50 00 00 00 00 00 00 00 00 00 00 00 00 00 00 00 00 ................
0040CF60 00 00 00 00 00 00 00 00 00 00 00 00 00 00 00 00 ................
0040CF70 00 00 00 00 00 00 00 00 00 00 00 00 00 00 00 00 ................
0040CF80 00 00 00 00 00 00 00 00 00 00 00 00 00 00 00 00 ................
0040CF90 00 00 00 00 00 00 00 00 00 00 00 00 00 00 00 00 ................
0040CFA0 00 00 00 00 00 00 00 00 00 00 00 00 00 00 00 00 ................
0040CFB0 00 00 00 00 00 00 00 00 00 00 00 00 00 00 00 00 ................
0040CFC0 00 00 00 00 00 00 00 00 00 00 00 00 00 00 00 00 ................
0040CFD0 00 00 00 00 00 00 00 00 00 00 00 00 00 00 00 00 ................
0040CFE0 00 00 00 00 00 00 00 00 00 00 00 00 00 00 00 00 ................
0040CFF0 00 00 00 00 00 00 00 00 00 00 00 00 00 00 00 00 ................
0040D000 00 00 00 00 00 00 00 00 00 00 00 00 00 00 00 00 ................
0040D010 00 00 00 00 00 00 00 00 00 00 00 00 00 00 00 00 ................
0040D020 00 00 00 00 00 00 00 00 00 00 00 00 00 00 00 00 ................
0040D030 00 00 00 00 00 00 00 00 00 00 00 00 00 00 00 00 ................
0040D040 00 00 00 00 00 00 00 00 00 00 00 00 00 00 00 00 ................
0040D050 00 00 00 00 00 00 00 00 00 00 00 00 00 00 00 00 ................
0040D060 00 00 00 00 00 00 00 00 00 00 00 00 00 00 00 00 ................
0040D070 00 00 00 00 00 00 00 00 00 00 00 00 00 00 00 00 ................
0040D080 00 00 00 00 00 00 00 00 00 00 00 00 00 00 00 00 ................
0040D090 00 00 00 00 00 00 00 00 00 00 00 00 00 00 00 00 ................
0040D0A0 00 00 00 00 00 00 00 00 00 00 00 00 00 00 00 00 ................
0040D0B0 00 00 00 00 00 00 00 00 00 00 00 00 00 00 00 00 ................
0040D0C0 00 00 00 00 00 00 00 00 00 00 00 00 00 00 00 00 ................
0040D0D0 00 00 00 00 00 00 00 00 00 00 00 00 00 00 00 00 ................
0040D0E0 00 00 00 00 00 00 00 00 00 00 00 00 00 00 00 00 ................
0040D0F0 00 00 00 00 00 00 00 00 00 00 00 00 00 00 00 00 ................
0040D100 00 00 00 00 00 00 00 00 00 00 00 00 00 00 00 00 ................
0040D110 00 00 00 00 00 00 00 00 00 00 00 00 00 00 00 00 ................
0040D120 00 00 00 00 00 00 00 00 00 00 00 00 00 00 00 00 ................
0040D130 00 00 00 00 00 00 00 00 00 00 00 00 00 00 00 00 ................
0040D140 00 00 00 00 00 00 00 00 00 00 00 00 00 00 00 00 ................
0040D150 00 00 00 00 00 00 00 00 00 00 00 00 00 00 00 00 ................
0040D160 00 00 00 00 00 00 00 00 00 00 00 00 00 00 00 00 ................
0040D170 00 00 00 00 00 00 00 00 00 00 00 00 00 00 00 00 ................
0040D180 00 00 00 00 00 00 00 00 00 00 00 00 00 00 00 00 ................
0040D190 00 00 00 00 00 00 00 00 00 00 00 00 00 00 00 00 ................
0040D1A0 00 00 00 00 00 00 00 00 00 00 00 00 00 00 00 00 ................
0040D1B0 00 00 00 00 00 00 00 00 00 00 00 00 00 00 00 00 ................
0040D1C0 00 00 00 00 00 00 00 00 00 00 00 00 00 00 00 00 ................
0040D1D0 00 00 00 00 00 00 00 00 00 00 00 00 00 00 00 00 ................
0040D1E0 00 00 00 00 00 00 00 00 00 00 00 00 00 00 00 00 ................
0040D1F0 00 00 00 00 00 00 00 00 00 00 00 00 00 00 00 00 ................
0040D200 00 00 00 00 00 00 00 00 00 00 00 00 00 00 00 00 ................
0040D210 00 00 00 00 00 00 00 00 00 00 00 00 00 00 00 00 ................
0040D220 00 00 00 00 00 00 00 00 00 00 00 00 00 00 00 00 ................
0040D230 00 00 00 00 00 00 00 00 00 00 00 00 00 00 00 00 ................
0040D240 00 00 00 00 00 00 00 00 00 00 00 00 00 00 00 00 ................
0040D250 00 00 00 00 00 00 00 00 00 00 00 00 00 00 00 00 ................
0040D260 00 00 00 00 00 00 00 00 00 00 00 00 00 00 00 00 ................
0040D270 00 00 00 00 00 00 00 00 00 00 00 00 00 00 00 00 ................
0040D280 00 00 00 00 00 00 00 00 00 00 00 00 00 00 00 00 ................
0040D290 00 00 00 00 00 00 00 00 00 00 00 00 00 00 00 00 ................
0040D2A0 00 00 00 00 00 00 00 00 00 00 00 00 00 00 00 00 ................
0040D2B0 00 00 00 00 00 00 00 00 00 00 00 00 00 00 00 00 ................
0040D2C0 00 00 00 00 00 00 00 00 00 00 00 00 00 00 00 00 ................
0040D2D0 00 00 00 00 00 00 00 00 00 00 00 00 00 00 00 00 ................
0040D2E0 00 00 00 00 00 00 00 00 00 00 00 00 00 00 00 00 ................
0040D2F0 00 00 00 00 00 00 00 00 00 00 00 00 00 00 00 00 ................
0040D300 00 00 00 00 00 00 00 00 00 00 00 00 00 00 00 00 ................
0040D310 00 00 00 00 00 00 00 00 00 00 00 00 00 00 00 00 ................
0040D320 00 00 00 00 00 00 00 00 00 00 00 00 00 00 00 00 ................
0040D330 00 00 00 00 00 00 00 00 00 00 00 00 00 00 00 00 ................
0040D340 00 00 00 00 00 00 00 00 00 00 00 00 00 00 00 00 ................
0040D350 00 00 00 00 00 00 00 00 00 00 00 00 00 00 00 00 ................
0040D360 00 00 00 00 00 00 00 00 00 00 00 00 00 00 00 00 ................
0040D370 00 00 00 00 00 00 00 00 00 00 00 00 00 00 00 00 ................
0040D380 00 00 00 00 00 00 00 00 00 00 00 00 00 00 00 00 ................
0040D390 00 00 00 00 00 00 00 00 00 00 00 00 00 00 00 00 ................
0040D3A0 00 00 00 00 00 00 00 00 00 00 00 00 00 00 00 00 ................
0040D3B0 00 00 00 00 00 00 00 00 00 00 00 00 00 00 00 00 ................
0040D3C0 00 00 00 00 00 00 00 00 00 00 00 00 00 00 00 00 ................
0040D3D0 00 00 00 00 00 00 00 00 00 00 00 00 00 00 00 00 ................
0040D3E0 00 00 00 00 00 00 00 00 00 00 00 00 00 00 00 00 ................
0040D3F0 00 00 00 00 00 00 00 00 00 00 00 00 00 00 00 00 ................
0040D400 00 00 00 00 00 00 00 00 00 00 00 00 00 00 00 00 ................
0040D410 00 00 00 00 00 00 00 00 00 00 00 00 00 00 00 00 ................
0040D420 00 00 00 00 00 00 00 00 00 00 00 00 00 00 00 00 ................
0040D430 00 00 00 00 00 00 00 00 00 00 00 00 00 00 00 00 ................
0040D440 00 00 00 00 00 00 00 00 00 00 00 00 00 00 00 00 ................
0040D450 00 00 00 00 00 00 00 00 00 00 00 00 00 00 00 00 ................
0040D460 00 00 00 00 00 00 00 00 00 00 00 00 00 00 00 00 ................
0040D470 00 00 00 00 00 00 00 00 00 00 00 00 00 00 00 00 ................
0040D480 00 00 00 00 00 00 00 00 00 00 00 00 00 00 00 00 ................
0040D490 00 00 00 00 00 00 00 00 00 00 00 00 00 00 00 00 ................
0040D4A0 00 00 00 00 00 00 00 00 00 00 00 00 00 00 00 00 ................
0040D4B0 00 00 00 00 00 00 00 00 00 00 00 00 00 00 00 00 ................
0040D4C0 00 00 00 00 00 00 00 00 00 00 00 00 00 00 00 00 ................
0040D4D0 00 00 00 00 00 00 00 00 00 00 00 00 00 00 00 00 ................
0040D4E0 00 00 00 00 00 00 00 00 00 00 00 00 00 00 00 00 ................
0040D4F0 00 00 00 00 00 00 00 00 00 00 00 00 00 00 00 00 ................
0040D500 00 00 00 00 00 00 00 00 00 00 00 00 00 00 00 00 ................
0040D510 00 00 00 00 00 00 00 00 00 00 00 00 00 00 00 00 ................
0040D520 00 00 00 00 00 00 00 00 00 00 00 00 00 00 00 00 ................
0040D530 00 00 00 00 00 00 00 00 00 00 00 00 00 00 00 00 ................
0040D540 00 00 00 00 00 00 00 00 00 00 00 00 00 00 00 00 ................
0040D550 00 00 00 00 00 00 00 00 00 00 00 00 00 00 00 00 ................
0040D560 00 00 00 00 00 00 00 00 00 00 00 00 00 00 00 00 ................
0040D570 00 00 00 00 00 00 00 00 00 00 00 00 00 00 00 00 ................
0040D580 00 00 00 00 00 00 00 00 00 00 00 00 00 00 00 00 ................
0040D590 00 00 00 00 00 00 00 00 00 00 00 00 00 00 00 00 ................
0040D5A0 00 00 00 00 00 00 00 00 00 00 00 00 00 00 00 00 ................
0040D5B0 00 00 00 00 00 00 00 00 00 00 00 00 00 00 00 00 ................
0040D5C0 00 00 00 00 00 00 00 00 00 00 00 00 00 00 00 00 ................
0040D5D0 00 00 00 00 00 00 00 00 00 00 00 00 00 00 00 00 ................
0040D5E0 00 00 00 00 00 00 00 00 00 00 00 00 00 00 00 00 ................
0040D5F0 00 00 00 00 00 00 00 00 00 00 00 00 00 00 00 00 ................
0040D600 00 00 00 00 00 00 00 00 00 00 00 00 00 00 00 00 ................
0040D610 00 00 00 00 00 00 00 00 00 00 00 00 00 00 00 00 ................
0040D620 00 00 00 00 00 00 00 00 00 00 00 00 00 00 00 00 ................
0040D630 00 00 00 00 00 00 00 00 00 00 00 00 00 00 00 00 ................
0040D640 00 00 00 00 00 00 00 00 00 00 00 00 00 00 00 00 ................
0040D650 00 00 00 00 00 00 00 00 00 00 00 00 00 00 00 00 ................
0040D660 00 00 00 00 00 00 00 00 00 00 00 00 00 00 00 00 ................
0040D670 00 00 00 00 00 00 00 00 00 00 00 00 00 00 00 00 ................
0040D680 00 00 00 00 00 00 00 00 00 00 00 00 00 00 00 00 ................
0040D690 00 00 00 00 00 00 00 00 00 00 00 00 00 00 00 00 ................
0040D6A0 00 00 00 00 00 00 00 00 00 00 00 00 00 00 00 00 ................
0040D6B0 00 00 00 00 00 00 00 00 00 00 00 00 00 00 00 00 ................
0040D6C0 00 00 00 00 00 00 00 00 00 00 00 00 00 00 00 00 ................
0040D6D0 00 00 00 00 00 00 00 00 00 00 00 00 00 00 00 00 ................
0040D6E0 00 00 00 00 00 00 00 00 00 00 00 00 00 00 00 00 ................
0040D6F0 00 00 00 00 00 00 00 00 00 00 00 00 00 00 00 00 ................
0040D700 00 00 00 00 00 00 00 00 00 00 00 00 00 00 00 00 ................
0040D710 00 00 00 00 00 00 00 00 00 00 00 00 00 00 00 00 ................
0040D720 00 00 00 00 00 00 00 00 00 00 00 00 00 00 00 00 ................
0040D730 00 00 00 00 00 00 00 00 00 00 00 00 00 00 00 00 ................
0040D740 00 00 00 00 00 00 00 00 00 00 00 00 00 00 00 00 ................
0040D750 00 00 00 00 00 00 00 00 00 00 00 00 00 00 00 00 ................
0040D760 00 00 00 00 00 00 00 00 00 00 00 00 00 00 00 00 ................
0040D770 00 00 00 00 00 00 00 00 00 00 00 00 00 00 00 00 ................
0040D780 00 00 00 00 00 00 00 00 00 00 00 00 00 00 00 00 ................
0040D790 00 00 00 00 00 00 00 00 00 00 00 00 00 00 00 00 ................
0040D7A0 00 00 00 00 00 00 00 00 00 00 00 00 00 00 00 00 ................
0040D7B0 00 00 00 00 00 00 00 00 00 00 00 00 00 00 00 00 ................
0040D7C0 00 00 00 00 00 00 00 00 00 00 00 00 00 00 00 00 ................
0040D7D0 00 00 00 00 00 00 00 00 00 00 00 00 00 00 00 00 ................
0040D7E0 00 00 00 00 00 00 00 00 00 00 00 00 00 00 00 00 ................
0040D7F0 00 00 00 00 00 00 00 00 00 00 00 00 00 00 00 00 ................
0040D800 00 00 00 00 00 00 00 00 00 00 00 00 00 00 00 00 ................
0040D810 00 00 00 00 00 00 00 00 00 00 00 00 00 00 00 00 ................
0040D820 00 00 00 00 00 00 00 00 00 00 00 00 00 00 00 00 ................
0040D830 00 00 00 00 00 00 00 00 00 00 00 00 00 00 00 00 ................
0040D840 00 00 00 00 00 00 00 00 00 00 00 00 00 00 00 00 ................
0040D850 00 00 00 00 00 00 00 00 00 00 00 00 00 00 00 00 ................
0040D860 00 00 00 00 00 00 00 00 00 00 00 00 00 00 00 00 ................
0040D870 00 00 00 00 00 00 00 00 00 00 00 00 00 00 00 00 ................
0040D880 00 00 00 00 00 00 00 00 00 00 00 00 00 00 00 00 ................
0040D890 00 00 00 00 00 00 00 00 00 00 00 00 00 00 00 00 ................
0040D8A0 00 00 00 00 00 00 00 00 00 00 00 00 00 00 00 00 ................
0040D8B0 00 00 00 00 00 00 00 00 00 00 00 00 00 00 00 00 ................
0040D8C0 00 00 00 00 00 00 00 00 00 00 00 00 00 00 00 00 ................
0040D8D0 00 00 00 00 00 00 00 00 00 00 00 00 00 00 00 00 ................
0040D8E0 00 00 00 00 00 00 00 00 00 00 00 00 00 00 00 00 ................
0040D8F0 00 00 00 00 00 00 00 00 00 00 00 00 00 00 00 00 ................
0040D900 00 00 00 00 00 00 00 00 00 00 00 00 00 00 00 00 ................
0040D910 00 00 00 00 00 00 00 00 00 00 00 00 00 00 00 00 ................
0040D920 00 00 00 00 00 00 00 00 00 00 00 00 00 00 00 00 ................
0040D930 00 00 00 00 00 00 00 00 00 00 00 00 00 00 00 00 ................
0040D940 00 00 00 00 00 00 00 00 00 00 00 00 00 00 00 00 ................
0040D950 00 00 00 00 00 00 00 00 00 00 00 00 00 00 00 00 ................
0040D960 00 00 00 00 00 00 00 00 00 00 00 00 00 00 00 00 ................
0040D970 00 00 00 00 00 00 00 00 00 00 00 00 00 00 00 00 ................
0040D980 00 00 00 00 00 00 00 00 00 00 00 00 00 00 00 00 ................
0040D990 00 00 00 00 00 00 00 00 00 00 00 00 00 00 00 00 ................
0040D9A0 00 00 00 00 00 00 00 00 00 00 00 00 00 00 00 00 ................
0040D9B0 00 00 00 00 00 00 00 00 00 00 00 00 00 00 00 00 ................
0040D9C0 00 00 00 00 00 00 00 00 00 00 00 00 00 00 00 00 ................
0040D9D0 00 00 00 00 00 00 00 00 00 00 00 00 00 00 00 00 ................
0040D9E0 00 00 00 00 00 00 00 00 00 00 00 00 00 00 00 00 ................
0040D9F0 00 00 00 00 00 00 00 00 00 00 00 00 00 00 00 00 ................
0040DA00 00 00 00 00 00 00 00 00 00 00 00 00 00 00 00 00 ................
0040DA10 00 00 00 00 00 00 00 00 00 00 00 00 00 00 00 00 ................
0040DA20 00 00 00 00 00 00 00 00 00 00 00 00 00 00 00 00 ................
0040DA30 00 00 00 00 00 00 00 00 00 00 00 00 00 00 00 00 ................
0040DA40 00 00 00 00 00 00 00 00 00 00 00 00 00 00 00 00 ................
0040DA50 00 00 00 00 00 00 00 00 00 00 00 00 00 00 00 00 ................
0040DA60 00 00 00 00 00 00 00 00 00 00 00 00 00 00 00 00 ................
0040DA70 00 00 00 00 00 00 00 00 00 00 00 00 00 00 00 00 ................
0040DA80 00 00 00 00 00 00 00 00 00 00 00 00 00 00 00 00 ................
0040DA90 00 00 00 00 00 00 00 00 00 00 00 00 00 00 00 00 ................
0040DAA0 00 00 00 00 00 00 00 00 00 00 00 00 00 00 00 00 ................
0040DAB0 00 00 00 00 00 00 00 00 00 00 00 00 00 00 00 00 ................
0040DAC0 00 00 00 00 00 00 00 00 00 00 00 00 00 00 00 00 ................
0040DAD0 00 00 00 00 00 00 00 00 00 00 00 00 00 00 00 00 ................
0040DAE0 00 00 00 00 00 00 00 00 00 00 00 00 00 00 00 00 ................
0040DAF0 00 00 00 00 00 00 00 00 00 00 00 00 00 00 00 00 ................
0040DB00 00 00 00 00 00 00 00 00 00 00 00 00 00 00 00 00 ................
0040DB10 00 00 00 00 00 00 00 00 00 00 00 00 00 00 00 00 ................
0040DB20 00 00 00 00 00 00 00 00 00 00 00 00 00 00 00 00 ................
0040DB30 00 00 00 00 00 00 00 00 00 00 00 00 00 00 00 00 ................
0040DB40 00 00 00 00 00 00 00 00 00 00 00 00 00 00 00 00 ................
0040DB50 00 00 00 00 00 00 00 00 00 00 00 00 00 00 00 00 ................
0040DB60 00 00 00 00 00 00 00 00 00 00 00 00 00 00 00 00 ................
0040DB70 00 00 00 00 00 00 00 00 00 00 00 00 00 00 00 00 ................
0040DB80 00 00 00 00 00 00 00 00 00 00 00 00 00 00 00 00 ................
0040DB90 00 00 00 00 00 00 00 00 00 00 00 00 00 00 00 00 ................
0040DBA0 00 00 00 00 00 00 00 00 00 00 00 00 00 00 00 00 ................
0040DBB0 00 00 00 00 00 00 00 00 00 00 00 00 00 00 00 00 ................
0040DBC0 00 00 00 00 00 00 00 00 00 00 00 00 00 00 00 00 ................
0040DBD0 00 00 00 00 00 00 00 00 00 00 00 00 00 00 00 00 ................
0040DBE0 00 00 00 00 00 00 00 00 00 00 00 00 00 00 00 00 ................
0040DBF0 00 00 00 00 00 00 00 00 00 00 00 00 00 00 00 00 ................
0040DC00 00 00 00 00 00 00 00 00 00 00 00 00 00 00 00 00 ................
0040DC10 00 00 00 00 00 00 00 00 00 00 00 00 00 00 00 00 ................
0040DC20 00 00 00 00 00 00 00 00 00 00 00 00 00 00 00 00 ................
0040DC30 00 00 00 00 00 00 00 00 00 00 00 00 00 00 00 00 ................
0040DC40 00 00 00 00 00 00 00 00 00 00 00 00 00 00 00 00 ................
0040DC50 00 00 00 00 00 00 00 00 00 00 00 00 00 00 00 00 ................
0040DC60 00 00 00 00 00 00 00 00 00 00 00 00 00 00 00 00 ................
0040DC70 00 00 00 00 00 00 00 00 00 00 00 00 00 00 00 00 ................
0040DC80 00 00 00 00 00 00 00 00 00 00 00 00 00 00 00 00 ................
0040DC90 00 00 00 00 00 00 00 00 00 00 00 00 00 00 00 00 ................
0040DCA0 00 00 00 00 00 00 00 00 00 00 00 00 00 00 00 00 ................
0040DCB0 00 00 00 00 00 00 00 00 00 00 00 00 00 00 00 00 ................
0040DCC0 00 00 00 00 00 00 00 00 00 00 00 00 00 00 00 00 ................
0040DCD0 00 00 00 00 00 00 00 00 00 00 00 00 00 00 00 00 ................
0040DCE0 00 00 00 00 00 00 00 00 00 00 00 00 00 00 00 00 ................
0040DCF0 00 00 00 00 00 00 00 00 00 00 00 00 00 00 00 00 ................
0040DD00 00 00 00 00 00 00 00 00 00 00 00 00 00 00 00 00 ................
0040DD10 00 00 00 00 00 00 00 00 00 00 00 00 00 00 00 00 ................
0040DD20 00 00 00 00 00 00 00 00 00 00 00 00 00 00 00 00 ................
0040DD30 00 00 00 00 00 00 00 00 00 00 00 00 00 00 00 00 ................
0040DD40 00 00 00 00 00 00 00 00 00 00 00 00 00 00 00 00 ................
0040DD50 00 00 00 00 00 00 00 00 00 00 00 00 00 00 00 00 ................
0040DD60 00 00 00 00 00 00 00 00 00 00 00 00 00 00 00 00 ................
0040DD70 00 00 00 00 00 00 00 00 00 00 00 00 00 00 00 00 ................
0040DD80 00 00 00 00 00 00 00 00 00 00 00 00 00 00 00 00 ................
0040DD90 00 00 00 00 00 00 00 00 00 00 00 00 00 00 00 00 ................
0040DDA0 00 00 00 00 00 00 00 00 00 00 00 00 00 00 00 00 ................
0040DDB0 00 00 00 00 00 00 00 00 00 00 00 00 00 00 00 00 ................
0040DDC0 00 00 00 00 00 00 00 00 00 00 00 00 00 00 00 00 ................
0040DDD0 00 00 00 00 00 00 00 00 00 00 00 00 00 00 00 00 ................
0040DDE0 00 00 00 00 00 00 00 00 00 00 00 00 00 00 00 00 ................
0040DDF0 00 00 00 00 00 00 00 00 00 00 00 00 00 00 00 00 ................
0040DE00 00 00 00 00 00 00 00 00 00 00 00 00 00 00 00 00 ................
0040DE10 00 00 00 00 00 00 00 00 00 00 00 00 00 00 00 00 ................
0040DE20 00 00 00 00 00 00 00 00 00 00 00 00 00 00 00 00 ................
0040DE30 00 00 00 00 00 00 00 00 00 00 00 00 00 00 00 00 ................
0040DE40 00 00 00 00 00 00 00 00 00 00 00 00 00 00 00 00 ................
0040DE50 00 00 00 00 00 00 00 00 00 00 00 00 00 00 00 00 ................
0040DE60 00 00 00 00 00 00 00 00 00 00 00 00 00 00 00 00 ................
0040DE70 00 00 00 00 00 00 00 00 00 00 00 00 00 00 00 00 ................
0040DE80 00 00 00 00 00 00 00 00 00 00 00 00 00 00 00 00 ................
0040DE90 00 00 00 00 00 00 00 00 00 00 00 00 00 00 00 00 ................
0040DEA0 00 00 00 00 00 00 00 00 00 00 00 00 00 00 00 00 ................
0040DEB0 00 00 00 00 00 00 00 00 00 00 00 00 00 00 00 00 ................
0040DEC0 00 00 00 00 00 00 00 00 00 00 00 00 00 00 00 00 ................
0040DED0 00 00 00 00 00 00 00 00 00 00 00 00 00 00 00 00 ................
0040DEE0 00 00 00 00 00 00 00 00 00 00 00 00 00 00 00 00 ................
0040DEF0 00 00 00 00 00 00 00 00 00 00 00 00 00 00 00 00 ................
0040DF00 00 00 00 00 00 00 00 00 00 00 00 00 00 00 00 00 ................
0040DF10 00 00 00 00 00 00 00 00 00 00 00 00 00 00 00 00 ................
0040DF20 00 00 00 00 00 00 00 00 00 00 00 00 00 00 00 00 ................
0040DF30 00 00 00 00 00 00 00 00 00 00 00 00 00 00 00 00 ................
0040DF40 00 00 00 00 00 00 00 00 00 00 00 00 00 00 00 00 ................
0040DF50 00 00 00 00 00 00 00 00 00 00 00 00 00 00 00 00 ................
0040DF60 00 00 00 00 00 00 00 00 00 00 00 00 00 00 00 00 ................
0040DF70 00 00 00 00 00 00 00 00 00 00 00 00 00 00 00 00 ................
0040DF80 00 00 00 00 00 00 00 00 00 00 00 00 00 00 00 00 ................
0040DF90 00 00 00 00 00 00 00 00 00 00 00 00 00 00 00 00 ................
0040DFA0 00 00 00 00 00 00 00 00 00 00 00 00 00 00 00 00 ................
0040DFB0 00 00 00 00 00 00 00 00 00 00 00 00 00 00 00 00 ................
0040DFC0 00 00 00 00 00 00 00 00 00 00 00 00 00 00 00 00 ................
0040DFD0 00 00 00 00 00 00 00 00 00 00 00 00 00 00 00 00 ................
0040DFE0 00 00 00 00 00 00 00 00 00 00 00 00 00 00 00 00 ................
0040DFF0 00 00 00 00 00 00 00 00 00 00 00 00 00 00 00 00 ................
0040E000 00 00 00 00 00 00 00 00 00 00 00 00 00 00 00 00 ................
0040E010 00 00 00 00 00 00 00 00 00 00 00 00 00 00 00 00 ................
0040E020 00 00 00 00 00 00 00 00 00 00 00 00 00 00 00 00 ................
0040E030 00 00 00 00 00 00 00 00 00 00 00 00 00 00 00 00 ................
0040E040 00 00 00 00 00 00 00 00 00 00 00 00 00 00 00 00 ................
0040E050 00 00 00 00 00 00 00 00 00 00 00 00 00 00 00 00 ................
0040E060 00 00 00 00 00 00 00 00 00 00 00 00 00 00 00 00 ................
0040E070 00 00 00 00 00 00 00 00 00 00 00 00 00 00 00 00 ................
0040E080 00 00 00 00 00 00 00 00 00 00 00 00 00 00 00 00 ................
0040E090 00 00 00 00 00 00 00 00 00 00 00 00 00 00 00 00 ................
0040E0A0 00 00 00 00 00 00 00 00 00 00 00 00 00 00 00 00 ................
0040E0B0 00 00 00 00 00 00 00 00 00 00 00 00 00 00 00 00 ................
0040E0C0 00 00 00 00 00 00 00 00 00 00 00 00 00 00 00 00 ................
0040E0D0 00 00 00 00 00 00 00 00 00 00 00 00 00 00 00 00 ................
0040E0E0 00 00 00 00 00 00 00 00 00 00 00 00 00 00 00 00 ................
0040E0F0 00 00 00 00 00 00 00 00 00 00 00 00 00 00 00 00 ................
0040E100 00 00 00 00 00 00 00 00 00 00 00 00 00 00 00 00 ................
0040E110 00 00 00 00 00 00 00 00 00 00 00 00 00 00 00 00 ................
0040E120 00 00 00 00 00 00 00 00 00 00 00 00 00 00 00 00 ................
0040E130 00 00 00 00 00 00 00 00 00 00 00 00 00 00 00 00 ................
0040E140 00 00 00 00 00 00 00 00 00 00 00 00 00 00 00 00 ................
0040E150 00 00 00 00 00 00 00 00 00 00 00 00 00 00 00 00 ................
0040E160 00 00 00 00 00 00 00 00 00 00 00 00 00 00 00 00 ................
0040E170 00 00 00 00 00 00 00 00 00 00 00 00 00 00 00 00 ................
0040E180 00 00 00 00 00 00 00 00 00 00 00 00 00 00 00 00 ................
0040E190 00 00 00 00 00 00 00 00 00 00 00 00 00 00 00 00 ................
0040E1A0 00 00 00 00 00 00 00 00 00 00 00 00 00 00 00 00 ................
0040E1B0 00 00 00 00 00 00 00 00 00 00 00 00 00 00 00 00 ................
0040E1C0 00 00 00 00 00 00 00 00 00 00 00 00 00 00 00 00 ................
0040E1D0 00 00 00 00 00 00 00 00 00 00 00 00 00 00 00 00 ................
0040E1E0 00 00 00 00 00 00 00 00 00 00 00 00 00 00 00 00 ................
0040E1F0 00 00 00 00 00 00 00 00 00 00 00 00 00 00 00 00 ................
0040E200 00 00 00 00 00 00 00 00 00 00 00 00 00 00 00 00 ................
0040E210 00 00 00 00 00 00 00 00 00 00 00 00 00 00 00 00 ................
0040E220 00 00 00 00 00 00 00 00 00 00 00 00 00 00 00 00 ................
0040E230 00 00 00 00 00 00 00 00 00 00 00 00 00 00 00 00 ................
0040E240 00 00 00 00 00 00 00 00 00 00 00 00 00 00 00 00 ................
0040E250 00 00 00 00 00 00 00 00 00 00 00 00 00 00 00 00 ................
0040E260 00 00 00 00 00 00 00 00 00 00 00 00 00 00 00 00 ................
0040E270 00 00 00 00 00 00 00 00 00 00 00 00 00 00 00 00 ................
0040E280 00 00 00 00 00 00 00 00 00 00 00 00 00 00 00 00 ................
0040E290 00 00 00 00 00 00 00 00 00 00 00 00 00 00 00 00 ................
0040E2A0 00 00 00 00 00 00 00 00 00 00 00 00 00 00 00 00 ................
0040E2B0 00 00 00 00 00 00 00 00 00 00 00 00 00 00 00 00 ................
0040E2C0 00 00 00 00 00 00 00 00 00 00 00 00 00 00 00 00 ................
0040E2D0 00 00 00 00 00 00 00 00 00 00 00 00 00 00 00 00 ................
0040E2E0 00 00 00 00 00 00 00 00 00 00 00 00 00 00 00 00 ................
0040E2F0 00 00 00 00 00 00 00 00 00 00 00 00 00 00 00 00 ................
0040E300 00 00 00 00 00 00 00 00 00 00 00 00 00 00 00 00 ................
0040E310 00 00 00 00 00 00 00 00 00 00 00 00 00 00 00 00 ................
0040E320 00 00 00 00 00 00 00 00 00 00 00 00 00 00 00 00 ................
0040E330 00 00 00 00 00 00 00 00 00 00 00 00 00 00 00 00 ................
0040E340 00 00 00 00 00 00 00 00 00 00 00 00 00 00 00 00 ................
0040E350 00 00 00 00 00 00 00 00 00 00 00 00 00 00 00 00 ................
0040E360 00 00 00 00 00 00 00 00 00 00 00 00 00 00 00 00 ................
0040E370 00 00 00 00 00 00 00 00 00 00 00 00 00 00 00 00 ................
0040E380 00 00 00 00 00 00 00 00 00 00 00 00 00 00 00 00 ................
0040E390 00 00 00 00 00 00 00 00 00 00 00 00 00 00 00 00 ................
0040E3A0 00 00 00 00 00 00 00 00 00 00 00 00 00 00 00 00 ................
0040E3B0 00 00 00 00 00 00 00 00 00 00 00 00 00 00 00 00 ................
0040E3C0 00 00 00 00 00 00 00 00 00 00 00 00 00 00 00 00 ................
0040E3D0 00 00 00 00 00 00 00 00 00 00 00 00 00 00 00 00 ................
0040E3E0 00 00 00 00 00 00 00 00 00 00 00 00 00 00 00 00 ................
0040E3F0 00 00 00 00 00 00 00 00 00 00 00 00 00 00 00 00 ................
0040E400 00 00 00 00 00 00 00 00 00 00 00 00 00 00 00 00 ................
0040E410 00 00 00 00 00 00 00 00 00 00 00 00 00 00 00 00 ................
0040E420 00 00 00 00 00 00 00 00 00 00 00 00 00 00 00 00 ................
0040E430 00 00 00 00 00 00 00 00 00 00 00 00 00 00 00 00 ................
0040E440 00 00 00 00 00 00 00 00 00 00 00 00 00 00 00 00 ................
0040E450 00 00 00 00 00 00 00 00 00 00 00 00 00 00 00 00 ................
0040E460 00 00 00 00 00 00 00 00 00 00 00 00 00 00 00 00 ................
0040E470 00 00 00 00 00 00 00 00 00 00 00 00 00 00 00 00 ................
0040E480 00 00 00 00 00 00 00 00 00 00 00 00 00 00 00 00 ................
0040E490 00 00 00 00 00 00 00 00 00 00 00 00 00 00 00 00 ................
0040E4A0 00 00 00 00 00 00 00 00 00 00 00 00 00 00 00 00 ................
0040E4B0 00 00 00 00 00 00 00 00 00 00 00 00 00 00 00 00 ................
0040E4C0 00 00 00 00 00 00 00 00 00 00 00 00 00 00 00 00 ................
0040E4D0 00 00 00 00 00 00 00 00 00 00 00 00 00 00 00 00 ................
0040E4E0 00 00 00 00 00 00 00 00 00 00 00 00 00 00 00 00 ................
0040E4F0 00 00 00 00 00 00 00 00 00 00 00 00 00 00 00 00 ................
0040E500 00 00 00 00 00 00 00 00 00 00 00 00 00 00 00 00 ................
0040E510 00 00 00 00 00 00 00 00 00 00 00 00 00 00 00 00 ................
0040E520 00 00 00 00 00 00 00 00 00 00 00 00 00 00 00 00 ................
0040E530 00 00 00 00 00 00 00 00 00 00 00 00 00 00 00 00 ................
0040E540 00 00 00 00 00 00 00 00 00 00 00 00 00 00 00 00 ................
0040E550 00 00 00 00 00 00 00 00 00 00 00 00 00 00 00 00 ................
0040E560 00 00 00 00 00 00 00 00 00 00 00 00 00 00 00 00 ................
0040E570 00 00 00 00 00 00 00 00 00 00 00 00 00 00 00 00 ................
0040E580 00 00 00 00 00 00 00 00 00 00 00 00 00 00 00 00 ................
0040E590 00 00 00 00 00 00 00 00 00 00 00 00 00 00 00 00 ................
0040E5A0 00 00 00 00 00 00 00 00 00 00 00 00 00 00 00 00 ................
0040E5B0 00 00 00 00 00 00 00 00 00 00 00 00 00 00 00 00 ................
0040E5C0 00 00 00 00 00 00 00 00 00 00 00 00 00 00 00 00 ................
0040E5D0 00 00 00 00 00 00 00 00 00 00 00 00 00 00 00 00 ................
0040E5E0 00 00 00 00 00 00 00 00 00 00 00 00 00 00 00 00 ................
0040E5F0 00 00 00 00 00 00 00 00 00 00 00 00 00 00 00 00 ................
0040E600 00 00 00 00 00 00 00 00 00 00 00 00 00 00 00 00 ................
0040E610 00 00 00 00 00 00 00 00 00 00 00 00 00 00 00 00 ................
0040E620 00 00 00 00 00 00 00 00 00 00 00 00 00 00 00 00 ................
0040E630 00 00 00 00 00 00 00 00 00 00 00 00 00 00 00 00 ................
0040E640 00 00 00 00 00 00 00 00 00 00 00 00 00 00 00 00 ................
0040E650 00 00 00 00 00 00 00 00 00 00 00 00 00 00 00 00 ................
0040E660 00 00 00 00 00 00 00 00 00 00 00 00 00 00 00 00 ................
0040E670 00 00 00 00 00 00 00 00 00 00 00 00 00 00 00 00 ................
0040E680 00 00 00 00 00 00 00 00 00 00 00 00 00 00 00 00 ................
0040E690 00 00 00 00 00 00 00 00 00 00 00 00 00 00 00 00 ................
0040E6A0 00 00 00 00 00 00 00 00 00 00 00 00 00 00 00 00 ................
0040E6B0 00 00 00 00 00 00 00 00 00 00 00 00 00 00 00 00 ................
0040E6C0 00 00 00 00 00 00 00 00 00 00 00 00 00 00 00 00 ................
0040E6D0 00 00 00 00 00 00 00 00 00 00 00 00 00 00 00 00 ................
0040E6E0 00 00 00 00 00 00 00 00 00 00 00 00 00 00 00 00 ................
0040E6F0 00 00 00 00 00 00 00 00 00 00 00 00 00 00 00 00 ................
0040E700 00 00 00 00 00 00 00 00 00 00 00 00 00 00 00 00 ................
0040E710 00 00 00 00 00 00 00 00 00 00 00 00 00 00 00 00 ................
0040E720 00 00 00 00 00 00 00 00 00 00 00 00 00 00 00 00 ................
0040E730 00 00 00 00 00 00 00 00 00 00 00 00 00 00 00 00 ................
0040E740 00 00 00 00 00 00 00 00 00 00 00 00 00 00 00 00 ................
0040E750 00 00 00 00 00 00 00 00 00 00 00 00 00 00 00 00 ................
0040E760 00 00 00 00 00 00 00 00 00 00 00 00 00 00 00 00 ................
0040E770 00 00 00 00 00 00 00 00 00 00 00 00 00 00 00 00 ................
0040E780 00 00 00 00 00 00 00 00 00 00 00 00 00 00 00 00 ................
0040E790 00 00 00 00 00 00 00 00 00 00 00 00 00 00 00 00 ................
0040E7A0 00 00 00 00 00 00 00 00 00 00 00 00 00 00 00 00 ................
0040E7B0 00 00 00 00 00 00 00 00 00 00 00 00 00 00 00 00 ................
0040E7C0 00 00 00 00 00 00 00 00 00 00 00 00 00 00 00 00 ................
0040E7D0 00 00 00 00 00 00 00 00 00 00 00 00 00 00 00 00 ................
0040E7E0 00 00 00 00 00 00 00 00 00 00 00 00 00 00 00 00 ................
0040E7F0 00 00 00 00 00 00 00 00 00 00 00 00 00 00 00 00 ................
0040E800 00 00 00 00 00 00 00 00 00 00 00 00 00 00 00 00 ................
0040E810 00 00 00 00 00 00 00 00 00 00 00 00 00 00 00 00 ................
0040E820 00 00 00 00 00 00 00 00 00 00 00 00 00 00 00 00 ................
0040E830 00 00 00 00 00 00 00 00 00 00 00 00 00 00 00 00 ................
0040E840 00 00 00 00 00 00 00 00 00 00 00 00 00 00 00 00 ................
0040E850 00 00 00 00 00 00 00 00 00 00 00 00 00 00 00 00 ................
0040E860 00 00 00 00 00 00 00 00 00 00 00 00 00 00 00 00 ................
0040E870 00 00 00 00 00 00 00 00 00 00 00 00 00 00 00 00 ................
0040E880 00 00 00 00 00 00 00 00 00 00 00 00 00 00 00 00 ................
0040E890 00 00 00 00 00 00 00 00 00 00 00 00 00 00 00 00 ................
0040E8A0 00 00 00 00 00 00 00 00 00 00 00 00 00 00 00 00 ................
0040E8B0 00 00 00 00 00 00 00 00 00 00 00 00 00 00 00 00 ................
0040E8C0 00 00 00 00 00 00 00 00 00 00 00 00 00 00 00 00 ................
0040E8D0 00 00 00 00 00 00 00 00 00 00 00 00 00 00 00 00 ................
0040E8E0 00 00 00 00 00 00 00 00 00 00 00 00 00 00 00 00 ................
0040E8F0 00 00 00 00 00 00 00 00 00 00 00 00 00 00 00 00 ................
0040E900 00 00 00 00 00 00 00 00 00 00 00 00 00 00 00 00 ................
0040E910 00 00 00 00 00 00 00 00 00 00 00 00 00 00 00 00 ................
0040E920 00 00 00 00 00 00 00 00 00 00 00 00 00 00 00 00 ................
0040E930 00 00 00 00 00 00 00 00 00 00 00 00 00 00 00 00 ................
0040E940 00 00 00 00 00 00 00 00 00 00 00 00 00 00 00 00 ................
0040E950 00 00 00 00 00 00 00 00 00 00 00 00 00 00 00 00 ................
0040E960 00 00 00 00 00 00 00 00 00 00 00 00 00 00 00 00 ................
0040E970 00 00 00 00 00 00 00 00 00 00 00 00 00 00 00 00 ................
0040E980 00 00 00 00 00 00 00 00 00 00 00 00 00 00 00 00 ................
0040E990 00 00 00 00 00 00 00 00 00 00 00 00 00 00 00 00 ................
0040E9A0 00 00 00 00 00 00 00 00 00 00 00 00 00 00 00 00 ................
0040E9B0 00 00 00 00 00 00 00 00 00 00 00 00 00 00 00 00 ................
0040E9C0 00 00 00 00 00 00 00 00 00 00 00 00 00 00 00 00 ................
0040E9D0 00 00 00 00 00 00 00 00 00 00 00 00 00 00 00 00 ................
0040E9E0 00 00 00 00 00 00 00 00 00 00 00 00 00 00 00 00 ................
0040E9F0 00 00 00 00 00 00 00 00 00 00 00 00 00 00 00 00 ................
0040EA00 00 00 00 00 00 00 00 00 00 00 00 00 00 00 00 00 ................
0040EA10 00 00 00 00 00 00 00 00 00 00 00 00 00 00 00 00 ................
0040EA20 00 00 00 00 00 00 00 00 00 00 00 00 00 00 00 00 ................
0040EA30 00 00 00 00 00 00 00 00 00 00 00 00 00 00 00 00 ................
0040EA40 00 00 00 00 00 00 00 00 00 00 00 00 00 00 00 00 ................
0040EA50 00 00 00 00 00 00 00 00 00 00 00 00 00 00 00 00 ................
0040EA60 00 00 00 00 00 00 00 00 00 00 00 00 00 00 00 00 ................
0040EA70 00 00 00 00 00 00 00 00 00 00 00 00 00 00 00 00 ................
0040EA80 00 00 00 00 00 00 00 00 00 00 00 00 00 00 00 00 ................
0040EA90 00 00 00 00 00 00 00 00 00 00 00 00 00 00 00 00 ................
0040EAA0 00 00 00 00 00 00 00 00 00 00 00 00 00 00 00 00 ................
0040EAB0 00 00 00 00 00 00 00 00 00 00 00 00 00 00 00 00 ................
0040EAC0 00 00 00 00 00 00 00 00 00 00 00 00 00 00 00 00 ................
0040EAD0 00 00 00 00 00 00 00 00 00 00 00 00 00 00 00 00 ................
0040EAE0 00 00 00 00 00 00 00 00 00 00 00 00 00 00 00 00 ................
0040EAF0 00 00 00 00 00 00 00 00 00 00 00 00 00 00 00 00 ................
0040EB00 00 00 00 00 00 00 00 00 00 00 00 00 00 00 00 00 ................
0040EB10 00 00 00 00 00 00 00 00 00 00 00 00 00 00 00 00 ................
0040EB20 00 00 00 00 00 00 00 00 00 00 00 00 00 00 00 00 ................
0040EB30 00 00 00 00 00 00 00 00 00 00 00 00 00 00 00 00 ................
0040EB40 00 00 00 00 00 00 00 00 00 00 00 00 00 00 00 00 ................
0040EB50 00 00 00 00 00 00 00 00 00 00 00 00 00 00 00 00 ................
0040EB60 00 00 00 00 00 00 00 00 00 00 00 00 00 00 00 00 ................
0040EB70 00 00 00 00 00 00 00 00 00 00 00 00 00 00 00 00 ................
0040EB80 00 00 00 00 00 00 00 00 00 00 00 00 00 00 00 00 ................
0040EB90 00 00 00 00 00 00 00 00 00 00 00 00 00 00 00 00 ................
0040EBA0 00 00 00 00 00 00 00 00 00 00 00 00 00 00 00 00 ................
0040EBB0 00 00 00 00 00 00 00 00 00 00 00 00 00 00 00 00 ................
0040EBC0 00 00 00 00 00 00 00 00 00 00 00 00 00 00 00 00 ................
0040EBD0 00 00 00 00 00 00 00 00 00 00 00 00 00 00 00 00 ................
0040EBE0 00 00 00 00 00 00 00 00 00 00 00 00 00 00 00 00 ................
0040EBF0 00 00 00 00 00 00 00 00 00 00 00 00 00 00 00 00 ................
0040EC00 00 00 00 00 00 00 00 00 00 00 00 00 00 00 00 00 ................
0040EC10 00 00 00 00 00 00 00 00 00 00 00 00 00 00 00 00 ................
0040EC20 00 00 00 00 00 00 00 00 00 00 00 00 00 00 00 00 ................
0040EC30 00 00 00 00 00 00 00 00 00 00 00 00 00 00 00 00 ................
0040EC40 00 00 00 00 00 00 00 00 00 00 00 00 00 00 00 00 ................
0040EC50 00 00 00 00 00 00 00 00 00 00 00 00 00 00 00 00 ................
0040EC60 00 00 00 00 00 00 00 00 00 00 00 00 00 00 00 00 ................
0040EC70 00 00 00 00 00 00 00 00 00 00 00 00 00 00 00 00 ................
0040EC80 00 00 00 00 00 00 00 00 00 00 00 00 00 00 00 00 ................
0040EC90 00 00 00 00 00 00 00 00 00 00 00 00 00 00 00 00 ................
0040ECA0 00 00 00 00 00 00 00 00 00 00 00 00 00 00 00 00 ................
0040ECB0 00 00 00 00 00 00 00 00 00 00 00 00 00 00 00 00 ................
0040ECC0 00 00 00 00 00 00 00 00 00 00 00 00 00 00 00 00 ................
0040ECD0 00 00 00 00 00 00 00 00 00 00 00 00 00 00 00 00 ................
0040ECE0 00 00 00 00 00 00 00 00 00 00 00 00 00 00 00 00 ................
0040ECF0 00 00 00 00 00 00 00 00 00 00 00 00 00 00 00 00 ................
0040ED00 00 00 00 00 00 00 00 00 00 00 00 00 00 00 00 00 ................
0040ED10 00 00 00 00 00 00 00 00 00 00 00 00 00 00 00 00 ................
0040ED20 00 00 00 00 00 00 00 00 00 00 00 00 00 00 00 00 ................
0040ED30 00 00 00 00 00 00 00 00 00 00 00 00 00 00 00 00 ................
0040ED40 00 00 00 00 00 00 00 00 00 00 00 00 00 00 00 00 ................
0040ED50 00 00 00 00 00 00 00 00 00 00 00 00 00 00 00 00 ................
0040ED60 00 00 00 00 00 00 00 00 00 00 00 00 00 00 00 00 ................
0040ED70 00 00 00 00 00 00 00 00 00 00 00 00 00 00 00 00 ................
0040ED80 00 00 00 00 00 00 00 00 00 00 00 00 00 00 00 00 ................
0040ED90 00 00 00 00 00 00 00 00 00 00 00 00 00 00 00 00 ................
0040EDA0 00 00 00 00 00 00 00 00 00 00 00 00 00 00 00 00 ................
0040EDB0 00 00 00 00 00 00 00 00 00 00 00 00 00 00 00 00 ................
0040EDC0 00 00 00 00 00 00 00 00 00 00 00 00 00 00 00 00 ................
0040EDD0 00 00 00 00 00 00 00 00 00 00 00 00 00 00 00 00 ................
0040EDE0 00 00 00 00 00 00 00 00 00 00 00 00 00 00 00 00 ................
0040EDF0 00 00 00 00 00 00 00 00 00 00 00 00 00 00 00 00 ................
0040EE00 00 00 00 00 00 00 00 00 00 00 00 00 00 00 00 00 ................
0040EE10 00 00 00 00 00 00 00 00 00 00 00 00 00 00 00 00 ................
0040EE20 00 00 00 00 00 00 00 00 00 00 00 00 00 00 00 00 ................
0040EE30 00 00 00 00 00 00 00 00 00 00 00 00 00 00 00 00 ................
0040EE40 00 00 00 00 00 00 00 00 00 00 00 00 00 00 00 00 ................
0040EE50 00 00 00 00 00 00 00 00 00 00 00 00 00 00 00 00 ................
0040EE60 00 00 00 00 00 00 00 00 00 00 00 00 00 00 00 00 ................
0040EE70 00 00 00 00 00 00 00 00 00 00 00 00 00 00 00 00 ................
0040EE80 00 00 00 00 00 00 00 00 00 00 00 00 00 00 00 00 ................
0040EE90 00 00 00 00 00 00 00 00 00 00 00 00 00 00 00 00 ................
0040EEA0 00 00 00 00 00 00 00 00 00 00 00 00 00 00 00 00 ................
0040EEB0 00 00 00 00 00 00 00 00 00 00 00 00 00 00 00 00 ................
0040EEC0 00 00 00 00 00 00 00 00 00 00 00 00 00 00 00 00 ................
0040EED0 00 00 00 00 00 00 00 00 00 00 00 00 00 00 00 00 ................
0040EEE0 00 00 00 00 00 00 00 00 00 00 00 00 00 00 00 00 ................
0040EEF0 00 00 00 00 00 00 00 00 00 00 00 00 00 00 00 00 ................
0040EF00 00 00 00 00 00 00 00 00 00 00 00 00 00 00 00 00 ................
0040EF10 00 00 00 00 00 00 00 00 00 00 00 00 00 00 00 00 ................
0040EF20 00 00 00 00 00 00 00 00 00 00 00 00 00 00 00 00 ................
0040EF30 00 00 00 00 00 00 00 00 00 00 00 00 00 00 00 00 ................
0040EF40 00 00 00 00 00 00 00 00 00 00 00 00 00 00 00 00 ................
0040EF50 00 00 00 00 00 00 00 00 00 00 00 00 00 00 00 00 ................
0040EF60 00 00 00 00 00 00 00 00 00 00 00 00 00 00 00 00 ................
0040EF70 00 00 00 00 00 00 00 00 00 00 00 00 00 00 00 00 ................
0040EF80 00 00 00 00 00 00 00 00 00 00 00 00 00 00 00 00 ................
0040EF90 00 00 00 00 00 00 00 00 00 00 00 00 00 00 00 00 ................
0040EFA0 00 00 00 00 00 00 00 00 00 00 00 00 00 00 00 00 ................
0040EFB0 00 00 00 00 00 00 00 00 00 00 00 00 00 00 00 00 ................
0040EFC0 00 00 00 00 00 00 00 00 00 00 00 00 00 00 00 00 ................
0040EFD0 00 00 00 00 00 00 00 00 00 00 00 00 00 00 00 00 ................
0040EFE0 00 00 00 00 00 00 00 00 00 00 00 00 00 00 00 00 ................
0040EFF0 00 00 00 00 00 00 00 00 00 00 00 00 00 00 00 00 ................
0040F000 A8 F2 00 00 C0 F2 00 00 D0 F2 00 00 E8 F2 00 00 ................
0040F010 F6 F2 00 00 0C F3 00 00 24 F3 00 00 30 F3 00 00 ........$...0...
0040F020 42 F3 00 00 52 F3 00 00 62 F3 00 00 72 F3 00 00 B...R...b...r...
0040F030 8C F3 00 00 9A F3 00 00 AC F3 00 00 BC F3 00 00 ................
0040F040 D0 F3 00 00 DC F3 00 00 F2 F3 00 00 04 F4 00 00 ................
0040F050 1A F4 00 00 28 F4 00 00 36 F4 00 00 44 F4 00 00 ....(...6...D...
0040F060 52 F4 00 00 64 F4 00 00 76 F4 00 00 8E F4 00 00 R...d...v.......
0040F070 9C F4 00 00 AC F4 00 00 BA F4 00 00 D2 F4 00 00 ................
0040F080 F0 F4 00 00 FE F4 00 00 0E F5 00 00 1A F5 00 00 ................
0040F090 2E F5 00 00 3C F5 00 00 48 F5 00 00 5E F5 00 00 ....<...H...^...
0040F0A0 72 F5 00 00 7E F5 00 00 00 00 00 00 9C F5 00 00 r...~...........
0040F0B0 AA F5 00 00 B6 F5 00 00 C2 F5 00 00 D4 F5 00 00 ................
0040F0C0 E4 F5 00 00 FA F5 00 00 08 F6 00 00 10 F6 00 00 ................
0040F0D0 1E F6 00 00 30 F6 00 00 3C F6 00 00 4C F6 00 00 ....0...<...L...
0040F0E0 5A F6 00 00 68 F6 00 00 7C F6 00 00 8E F6 00 00 Z...h...|.......
0040F0F0 A0 F6 00 00 AE F6 00 00 C0 F6 00 00 CE F6 00 00 ................
0040F100 E4 F6 00 00 F0 F6 00 00 02 F7 00 00 12 F7 00 00 ................
0040F110 26 F7 00 00 34 F7 00 00 46 F7 00 00 56 F7 00 00 &...4...F...V...
0040F120 64 F7 00 00 72 F7 00 00 7E F7 00 00 90 F7 00 00 d...r...~.......
0040F130 00 00 00 00 00 00 00 00 74 F1 00 00 00 00 00 00 ........t.......
0040F140 00 00 00 00 8E F5 00 00 00 F0 00 00 20 F2 00 00 ............ ...
0040F150 00 00 00 00 00 00 00 00 A0 F7 00 00 AC F0 00 00 ................
0040F160 00 00 00 00 00 00 00 00 00 00 00 00 00 00 00 00 ................
0040F170 00 00 00 00 A8 F2 00 00 C0 F2 00 00 D0 F2 00 00 ................
0040F180 E8 F2 00 00 F6 F2 00 00 0C F3 00 00 24 F3 00 00 ............$...
0040F190 30 F3 00 00 42 F3 00 00 52 F3 00 00 62 F3 00 00 0...B...R...b...
0040F1A0 72 F3 00 00 8C F3 00 00 9A F3 00 00 AC F3 00 00 r...............
0040F1B0 BC F3 00 00 D0 F3 00 00 DC F3 00 00 F2 F3 00 00 ................
0040F1C0 04 F4 00 00 1A F4 00 00 28 F4 00 00 36 F4 00 00 ........(...6...
0040F1D0 44 F4 00 00 52 F4 00 00 64 F4 00 00 76 F4 00 00 D...R...d...v...
0040F1E0 8E F4 00 00 9C F4 00 00 AC F4 00 00 BA F4 00 00 ................
0040F1F0 D2 F4 00 00 F0 F4 00 00 FE F4 00 00 0E F5 00 00 ................
0040F200 1A F5 00 00 2E F5 00 00 3C F5 00 00 48 F5 00 00 ........<...H...
0040F210 5E F5 00 00 72 F5 00 00 7E F5 00 00 00 00 00 00 ^...r...~.......
0040F220 9C F5 00 00 AA F5 00 00 B6 F5 00 00 C2 F5 00 00 ................
0040F230 D4 F5 00 00 E4 F5 00 00 FA F5 00 00 08 F6 00 00 ................
0040F240 10 F6 00 00 1E F6 00 00 30 F6 00 00 3C F6 00 00 ........0...<...
0040F250 4C F6 00 00 5A F6 00 00 68 F6 00 00 7C F6 00 00 L...Z...h...|...
0040F260 8E F6 00 00 A0 F6 00 00 AE F6 00 00 C0 F6 00 00 ................
0040F270 CE F6 00 00 E4 F6 00 00 F0 F6 00 00 02 F7 00 00 ................
0040F280 12 F7 00 00 26 F7 00 00 34 F7 00 00 46 F7 00 00 ....&...4...F...
0040F290 56 F7 00 00 64 F7 00 00 72 F7 00 00 7E F7 00 00 V...d...r...~...
0040F2A0 90 F7 00 00 00 00 00 00 24 00 44 65 6C 65 74 65 ........$.Delete
0040F2B0 43 72 69 74 69 63 61 6C 53 65 63 74 69 6F 6E 00 CriticalSection.
0040F2C0 29 00 56 69 72 74 75 61 6C 41 6C 6C 6F 63 00 00 ).VirtualAlloc..
0040F2D0 2D 00 45 6E 74 65 72 43 72 69 74 69 63 61 6C 53 -.EnterCriticalS
0040F2E0 65 63 74 69 6F 6E 00 00 32 00 48 65 61 70 52 65 ection..2.HeapRe
0040F2F0 41 6C 6C 6F 63 00 38 00 47 65 74 4D 6F 64 75 6C Alloc.8.GetModul
0040F300 65 46 69 6C 65 4E 61 6D 65 41 00 00 3A 00 44 65 eFileNameA..:.De
0040F310 6C 65 74 65 43 72 69 74 69 63 61 6C 53 65 63 74 leteCriticalSect
0040F320 69 6F 6E 00 3E 00 48 65 61 70 46 72 65 65 00 00 ion.>.HeapFree..
0040F330 40 00 53 65 74 46 69 6C 65 50 6F 69 6E 74 65 72 @.SetFilePointer
0040F340 00 00 41 00 47 65 74 4C 61 73 74 45 72 72 6F 72 ..A.GetLastError
0040F350 00 00 47 00 47 65 74 56 65 72 73 69 6F 6E 45 78 ..G.GetVersionEx
0040F360 41 00 4D 00 47 65 74 54 69 63 6B 43 6F 75 6E 74 A.M.GetTickCount
0040F370 00 00 50 00 47 65 74 53 79 73 74 65 6D 54 69 6D ..P.GetSystemTim
0040F380 65 41 73 46 69 6C 65 54 69 6D 65 00 55 00 43 72 eAsFileTime.U.Cr
0040F390 65 61 74 65 46 69 6C 65 57 00 56 00 47 65 74 50 eateFileW.V.GetP
0040F3A0 72 6F 63 41 64 64 72 65 73 73 00 00 5C 00 53 65 rocAddress..\.Se
0040F3B0 74 4C 61 73 74 45 72 72 6F 72 00 00 62 00 54 65 tLastError..b.Te
0040F3C0 72 6D 69 6E 61 74 65 50 72 6F 63 65 73 73 00 00 rminateProcess..
0040F3D0 67 00 4C 6F 63 61 6C 46 72 65 65 00 68 00 4D 75 g.LocalFree.h.Mu
0040F3E0 6C 74 69 42 79 74 65 54 6F 57 69 64 65 43 68 61 ltiByteToWideCha
0040F3F0 72 00 6D 00 47 65 74 53 74 61 72 74 75 70 49 6E r.m.GetStartupIn
0040F400 66 6F 41 00 71 00 4D 75 6C 74 69 42 79 74 65 54 foA.q.MultiByteT
0040F410 6F 57 69 64 65 43 68 61 72 00 75 00 48 65 61 70 oWideChar.u.Heap
0040F420 52 65 41 6C 6C 6F 63 00 79 00 48 65 61 70 44 65 ReAlloc.y.HeapDe
0040F430 73 74 72 6F 79 00 7D 00 43 6C 6F 73 65 48 61 6E stroy.}.CloseHan
0040F440 64 6C 65 00 7E 00 56 69 72 74 75 61 6C 46 72 65 dle.~.VirtualFre
0040F450 65 00 80 00 47 65 74 50 72 6F 63 41 64 64 72 65 e...GetProcAddre
0040F460 73 73 00 00 83 00 47 65 74 50 72 6F 63 41 64 64 ss....GetProcAdd
0040F470 72 65 73 73 00 00 85 00 44 65 6C 65 74 65 43 72 ress....DeleteCr
0040F480 69 74 69 63 61 6C 53 65 63 74 69 6F 6E 00 88 00 iticalSection...
0040F490 45 78 69 74 50 72 6F 63 65 73 73 00 8A 00 43 72 ExitProcess...Cr
0040F4A0 65 61 74 65 54 68 72 65 61 64 00 00 8B 00 43 72 eateThread....Cr
0040F4B0 65 61 74 65 46 69 6C 65 57 00 8D 00 44 65 6C 65 eateFileW...Dele
0040F4C0 74 65 43 72 69 74 69 63 61 6C 53 65 63 74 69 6F teCriticalSectio
0040F4D0 6E 00 93 00 53 65 74 55 6E 68 61 6E 64 6C 65 64 n...SetUnhandled
0040F4E0 45 78 63 65 70 74 69 6F 6E 46 69 6C 74 65 72 00 ExceptionFilter.
0040F4F0 95 00 4C 6F 63 61 6C 41 6C 6C 6F 63 00 00 96 00 ..LocalAlloc....
0040F500 53 65 74 4C 61 73 74 45 72 72 6F 72 00 00 97 00 SetLastError....
0040F510 4C 6F 63 61 6C 46 72 65 65 00 9A 00 47 65 74 43 LocalFree...GetC
0040F520 75 72 72 65 6E 74 50 72 6F 63 65 73 73 00 9E 00 urrentProcess...
0040F530 48 65 61 70 52 65 41 6C 6C 6F 63 00 A4 00 57 72 HeapReAlloc...Wr
0040F540 69 74 65 46 69 6C 65 00 A7 00 57 61 69 74 46 6F iteFile...WaitFo
0040F550 72 53 69 6E 67 6C 65 4F 62 6A 65 63 74 00 AB 00 rSingleObject...
0040F560 47 65 74 4D 6F 64 75 6C 65 48 61 6E 64 6C 65 41 GetModuleHandleA
0040F570 00 00 AE 00 57 72 69 74 65 46 69 6C 65 00 B2 00 ....WriteFile...
0040F580 47 65 74 56 65 72 73 69 6F 6E 45 78 41 00 4B 45 GetVersionExA.KE
0040F590 52 4E 45 4C 33 32 2E 44 4C 4C 00 00 1C 00 4D 65 RNEL32.DLL....Me
0040F5A0 73 73 61 67 65 42 6F 78 57 00 1E 00 57 69 6E 48 ssageBoxW...WinH
0040F5B0 65 6C 70 57 00 00 1F 00 47 65 74 57 69 6E 64 6F elpW....GetWindo
0040F5C0 77 00 23 00 43 61 6C 6C 57 69 6E 64 6F 77 50 72 w.#.CallWindowPr
0040F5D0 6F 63 57 00 26 00 53 65 6E 64 4D 65 73 73 61 67 ocW.&.SendMessag
0040F5E0 65 41 00 00 27 00 43 72 65 61 74 65 44 69 61 6C eA..'.CreateDial
0040F5F0 6F 67 50 61 72 61 6D 57 00 00 2C 00 47 65 74 4B ogParamW..,.GetK
0040F600 65 79 53 74 61 74 65 00 30 00 47 65 74 44 43 00 eyState.0.GetDC.
0040F610 35 00 4C 6F 61 64 53 74 72 69 6E 67 57 00 3B 00 5.LoadStringW.;.
0040F620 44 65 66 57 69 6E 64 6F 77 50 72 6F 63 57 00 00 DefWindowProcW..
0040F630 41 00 77 73 70 72 69 6E 74 66 41 00 42 00 47 65 A.wsprintfA.B.Ge
0040F640 74 43 75 72 73 6F 72 50 6F 73 00 00 47 00 4C 6F tCursorPos..G.Lo
0040F650 61 64 53 74 72 69 6E 67 57 00 4C 00 53 68 6F 77 adStringW.L.Show
0040F660 57 69 6E 64 6F 77 00 00 4E 00 44 69 73 70 61 74 Window..N.Dispat
0040F670 63 68 4D 65 73 73 61 67 65 41 00 00 51 00 52 65 chMessageA..Q.Re
0040F680 6C 65 61 73 65 43 61 70 74 75 72 65 00 00 54 00 leaseCapture..T.
0040F690 4D 61 70 57 69 6E 64 6F 77 50 6F 69 6E 74 73 00 MapWindowPoints.
0040F6A0 55 00 4C 6F 61 64 53 74 72 69 6E 67 57 00 59 00 U.LoadStringW.Y.
0040F6B0 53 65 74 57 69 6E 64 6F 77 4C 6F 6E 67 57 00 00 SetWindowLongW..
0040F6C0 5C 00 47 65 74 53 79 73 43 6F 6C 6F 72 00 5E 00 \.GetSysColor.^.
0040F6D0 49 73 44 6C 67 42 75 74 74 6F 6E 43 68 65 63 6B IsDlgButtonCheck
0040F6E0 65 64 00 00 62 00 47 65 74 50 61 72 65 6E 74 00 ed..b.GetParent.
0040F6F0 68 00 43 61 6C 6C 57 69 6E 64 6F 77 50 72 6F 63 h.CallWindowProc
0040F700 57 00 6D 00 47 65 74 43 6C 69 65 6E 74 52 65 63 W.m.GetClientRec
0040F710 74 00 73 00 54 72 61 6E 73 6C 61 74 65 4D 65 73 t.s.TranslateMes
0040F720 73 61 67 65 00 00 79 00 4C 6F 61 64 53 74 72 69 sage..y.LoadStri
0040F730 6E 67 57 00 7B 00 43 68 65 63 6B 44 6C 67 42 75 ngW.{.CheckDlgBu
0040F740 74 74 6F 6E 00 00 80 00 47 65 74 57 69 6E 64 6F tton....GetWindo
0040F750 77 52 65 63 74 00 86 00 53 65 74 43 61 70 74 75 wRect...SetCaptu
0040F760 72 65 00 00 89 00 47 65 74 4D 65 73 73 61 67 65 re....GetMessage
0040F770 57 00 8E 00 4B 69 6C 6C 54 69 6D 65 72 00 8F 00 W...KillTimer...
0040F780 53 65 74 57 69 6E 64 6F 77 4C 6F 6E 67 57 00 00 SetWindowLongW..
0040F790 92 00 47 65 74 43 6C 69 65 6E 74 52 65 63 74 00 ..GetClientRect.
0040F7A0 55 53 45 52 33 32 2E 44 4C 4C 00 00 00 00 00 00 USER32.DLL......
0040F7B0 00 00 00 00 00 00 00 00 00 00 00 00 00 00 00 00 ................
0040F7C0 00 00 00 00 00 00 00 00 00 00 00 00 00 00 00 00 ................
0040F7D0 00 00 00 00 00 00 00 00 00 00 00 00 00 00 00 00 ................
0040F7E0 00 00 00 00 00 00 00 00 00 00 00 00 00 00 00 00 ................
0040F7F0 00 00 00 00 00 00 00 00 00 00 00 00 00 00 00 00 ................
0040F800 00 00 00 00 00 00 00 00 00 00 00 00 00 00 00 00 ................
0040F810 00 00 00 00 00 00 00 00 00 00 00 00 00 00 00 00 ................
0040F820 00 00 00 00 00 00 00 00 00 00 00 00 00 00 00 00 ................
0040F830 00 00 00 00 00 00 00 00 00 00 00 00 00 00 00 00 ................
0040F840 00 00 00 00 00 00 00 00 00 00 00 00 00 00 00 00 ................
0040F850 00 00 00 00 00 00 00 00 00 00 00 00 00 00 00 00 ................
0040F860 00 00 00 00 00 00 00 00 00 00 00 00 00 00 00 00 ................
0040F870 00 00 00 00 00 00 00 00 00 00 00 00 00 00 00 00 ................
0040F880 00 00 00 00 00 00 00 00 00 00 00 00 00 00 00 00 ................
0040F890 00 00 00 00 00 00 00 00 00 00 00 00 00 00 00 00 ................
0040F8A0 00 00 00 00 00 00 00 00 00 00 00 00 00 00 00 00 ................
0040F8B0 00 00 00 00 00 00 00 00 00 00 00 00 00 00 00 00 ................
0040F8C0 00 00 00 00 00 00 00 00 00 00 00 00 00 00 00 00 ................
0040F8D0 00 00 00 00 00 00 00 00 00 00 00 00 00 00 00 00 ................
0040F8E0 00 00 00 00 00 00 00 00 00 00 00 00 00 00 00 00 ................
0040F8F0 00 00 00 00 00 00 00 00 00 00 00 00 00 00 00 00 ................
0040F900 00 00 00 00 00 00 00 00 00 00 00 00 00 00 00 00 ................
0040F910 00 00 00 00 00 00 00 00 00 00 00 00 00 00 00 00 ................
0040F920 00 00 00 00 00 00 00 00 00 00 00 00 00 00 00 00 ................
0040F930 00 00 00 00 00 00 00 00 00 00 00 00 00 00 00 00 ................
0040F940 00 00 00 00 00 00 00 00 00 00 00 00 00 00 00 00 ................
0040F950 00 00 00 00 00 00 00 00 00 00 00 00 00 00 00 00 ................
0040F960 00 00 00 00 00 00 00 00 00 00 00 00 00 00 00 00 ................
0040F970 00 00 00 00 00 00 00 00 00 00 00 00 00 00 00 00 ................
0040F980 00 00 00 00 00 00 00 00 00 00 00 00 00 00 00 00 ................
0040F990 00 00 00 00 00 00 00 00 00 00 00 00 00 00 00 00 ................
0040F9A0 00 00 00 00 00 00 00 00 00 00 00 00 00 00 00 00 ................
0040F9B0 00 00 00 00 00 00 00 00 00 00 00 00 00 00 00 00 ................
0040F9C0 00 00 00 00 00 00 00 00 00 00 00 00 00 00 00 00 ................
0040F9D0 00 00 00 00 00 00 00 00 00 00 00 00 00 00 00 00 ................
0040F9E0 00 00 00 00 00 00 00 00 00 00 00 00 00 00 00 00 ................
0040F9F0 00 00 00 00 00 00 00 00 00 00 00 00 00 00 00 00 ................
0040FA00 00 00 00 00 00 00 00 00 00 00 00 00 00 00 00 00 ................
0040FA10 00 00 00 00 00 00 00 00 00 00 00 00 00 00 00 00 ................
0040FA20 00 00 00 00 00 00 00 00 00 00 00 00 00 00 00 00 ................
0040FA30 00 00 00 00 00 00 00 00 00 00 00 00 00 00 00 00 ................
0040FA40 00 00 00 00 00 00 00 00 00 00 00 00 00 00 00 00 ................
0040FA50 00 00 00 00 00 00 00 00 00 00 00 00 00 00 00 00 ................
0040FA60 00 00 00 00 00 00 00 00 00 00 00 00 00 00 00 00 ................
0040FA70 00 00 00 00 00 00 00 00 00 00 00 00 00 00 00 00 ................
0040FA80 00 00 00 00 00 00 00 00 00 00 00 00 00 00 00 00 ................
0040FA90 00 00 00 00 00 00 00 00 00 00 00 00 00 00 00 00 ................
0040FAA0 00 00 00 00 00 00 00 00 00 00 00 00 00 00 00 00 ................
0040FAB0 00 00 00 00 00 00 00 00 00 00 00 00 00 00 00 00 ................
0040FAC0 00 00 00 00 00 00 00 00 00 00 00 00 00 00 00 00 ................
0040FAD0 00 00 00 00 00 00 00 00 00 00 00 00 00 00 00 00 ................
0040FAE0 00 00 00 00 00 00 00 00 00 00 00 00 00 00 00 00 ................
0040FAF0 00 00 00 00 00 00 00 00 00 00 00 00 00 00 00 00 ................
0040FB00 00 00 00 00 00 00 00 00 00 00 00 00 00 00 00 00 ................
0040FB10 00 00 00 00 00 00 00 00 00 00 00 00 00 00 00 00 ................
0040FB20 00 00 00 00 00 00 00 00 00 00 00 00 00 00 00 00 ................
0040FB30 00 00 00 00 00 00 00 00 00 00 00 00 00 00 00 00 ................
0040FB40 00 00 00 00 00 00 00 00 00 00 00 00 00 00 00 00 ................
0040FB50 00 00 00 00 00 00 00 00 00 00 00 00 00 00 00 00 ................
0040FB60 00 00 00 00 00 00 00 00 00 00 00 00 00 00 00 00 ................
0040FB70 00 00 00 00 00 00 00 00 00 00 00 00 00 00 00 00 ................
0040FB80 00 00 00 00 00 00 00 00 00 00 00 00 00 00 00 00 ................
0040FB90 00 00 00 00 00 00 00 00 00 00 00 00 00 00 00 00 ................
0040FBA0 00 00 00 00 00 00 00 00 00 00 00 00 00 00 00 00 ................
0040FBB0 00 00 00 00 00 00 00 00 00 00 00 00 00 00 00 00 ................
0040FBC0 00 00 00 00 00 00 00 00 00 00 00 00 00 00 00 00 ................
0040FBD0 00 00 00 00 00 00 00 00 00 00 00 00 00 00 00 00 ................
0040FBE0 00 00 00 00 00 00 00 00 00 00 00 00 00 00 00 00 ................
0040FBF0 00 00 00 00 00 00 00 00 00 00 00 00 00 00 00 00 ................
0040FC00 00 00 00 00 00 00 00 00 00 00 00 00 00 00 00 00 ................
0040FC10 00 00 00 00 00 00 00 00 00 00 00 00 00 00 00 00 ................
0040FC20 00 00 00 00 00 00 00 00 00 00 00 00 00 00 00 00 ................
0040FC30 00 00 00 00 00 00 00 00 00 00 00 00 00 00 00 00 ................
0040FC40 00 00 00 00 00 00 00 00 00 00 00 00 00 00 00 00 ................
0040FC50 00 00 00 00 00 00 00 00 00 00 00 00 00 00 00 00 ................
0040FC60 00 00 00 00 00 00 00 00 00 00 00 00 00 00 00 00 ................
0040FC70 00 00 00 00 00 00 00 00 00 00 00 00 00 00 00 00 ................
0040FC80 00 00 00 00 00 00 00 00 00 00 00 00 00 00 00 00 ................
0040FC90 00 00 00 00 00 00 00 00 00 00 00 00 00 00 00 00 ................
0040FCA0 00 00 00 00 00 00 00 00 00 00 00 00 00 00 00 00 ................
0040FCB0 00 00 00 00 00 00 00 00 00 00 00 00 00 00 00 00 ................
0040FCC0 00 00 00 00 00 00 00 00 00 00 00 00 00 00 00 00 ................
0040FCD0 00 00 00 00 00 00 00 00 00 00 00 00 00 00 00 00 ................
0040FCE0 00 00 00 00 00 00 00 00 00 00 00 00 00 00 00 00 ................
0040FCF0 00 00 00 00 00 00 00 00 00 00 00 00 00 00 00 00 ................
0040FD00 00 00 00 00 00 00 00 00 00 00 00 00 00 00 00 00 ................
0040FD10 00 00 00 00 00 00 00 00 00 00 00 00 00 00 00 00 ................
0040FD20 00 00 00 00 00 00 00 00 00 00 00 00 00 00 00 00 ................
0040FD30 00 00 00 00 00 00 00 00 00 00 00 00 00 00 00 00 ................
0040FD40 00 00 00 00 00 00 00 00 00 00 00 00 00 00 00 00 ................
0040FD50 00 00 00 00 00 00 00 00 00 00 00 00 00 00 00 00 ................
0040FD60 00 00 00 00 00 00 00 00 00 00 00 00 00 00 00 00 ................
0040FD70 00 00 00 00 00 00 00 00 00 00 00 00 00 00 00 00 ................
0040FD80 00 00 00 00 00 00 00 00 00 00 00 00 00 00 00 00 ................
0040FD90 00 00 00 00 00 00 00 00 00 00 00 00 00 00 00 00 ................
0040FDA0 00 00 00 00 00 00 00 00 00 00 00 00 00 00 00 00 ................
0040FDB0 00 00 00 00 00 00 00 00 00 00 00 00 00 00 00 00 ................
0040FDC0 00 00 00 00 00 00 00 00 00 00 00 00 00 00 00 00 ................
0040FDD0 00 00 00 00 00 00 00 00 00 00 00 00 00 00 00 00 ................
0040FDE0 00 00 00 00 00 00 00 00 00 00 00 00 00 00 00 00 ................
0040FDF0 00 00 00 00 00 00 00 00 00 00 00 00 00 00 00 00 ................
0040FE00 00 00 00 00 00 00 00 00 00 00 00 00 00 00 00 00 ................
0040FE10 00 00 00 00 00 00 00 00 00 00 00 00 00 00 00 00 ................
0040FE20 00 00 00 00 00 00 00 00 00 00 00 00 00 00 00 00 ................
0040FE30 00 00 00 00 00 00 00 00 00 00 00 00 00 00 00 00 ................
0040FE40 00 00 00 00 00 00 00 00 00 00 00 00 00 00 00 00 ................
0040FE50 00 00 00 00 00 00 00 00 00 00 00 00 00 00 00 00 ................
0040FE60 00 00 00 00 00 00 00 00 00 00 00 00 00 00 00 00 ................
0040FE70 00 00 00 00 00 00 00 00 00 00 00 00 00 00 00 00 ................
0040FE80 00 00 00 00 00 00 00 00 00 00 00 00 00 00 00 00 ................
0040FE90 00 00 00 00 00 00 00 00 00 00 00 00 00 00 00 00 ................
0040FEA0 00 00 00 00 00 00 00 00 00 00 00 00 00 00 00 00 ................
0040FEB0 00 00 00 00 00 00 00 00 00 00 00 00 00 00 00 00 ................
0040FEC0 00 00 00 00 00 00 00 00 00 00 00 00 00 00 00 00 ................
0040FED0 00 00 00 00 00 00 00 00 00 00 00 00 00 00 00 00 ................
0040FEE0 00 00 00 00 00 00 00 00 00 00 00 00 00 00 00 00 ................
0040FEF0 00 00 00 00 00 00 00 00 00 00 00 00 00 00 00 00 ................
0040FF00 00 00 00 00 00 00 00 00 00 00 00 00 00 00 00 00 ................
0040FF10 00 00 00 00 00 00 00 00 00 00 00 00 00 00 00 00 ................
0040FF20 00 00 00 00 00 00 00 00 00 00 00 00 00 00 00 00 ................
0040FF30 00 00 00 00 00 00 00 00 00 00 00 00 00 00 00 00 ................
0040FF40 00 00 00 00 00 00 00 00 00 00 00 00 00 00 00 00 ................
0040FF50 00 00 00 00 00 00 00 00 00 00 00 00 00 00 00 00 ................
0040FF60 00 00 00 00 00 00 00 00 00 00 00 00 00 00 00 00 ................
0040FF70 00 00 00 00 00 00 00 00 00 00 00 00 00 00 00 00 ................
0040FF80 00 00 00 00 00 00 00 00 00 00 00 00 00 00 00 00 ................
0040FF90 00 00 00 00 00 00 00 00 00 00 00 00 00 00 00 00 ................
0040FFA0 00 00 00 00 00 00 00 00 00 00 00 00 00 00 00 00 ................
0040FFB0 00 00 00 00 00 00 00 00 00 00 00 00 00 00 00 00 ................
0040FFC0 00 00 00 00 00 00 00 00 00 00 00 00 00 00 00 00 ................
0040FFD0 00 00 00 00 00 00 00 00 00 00 00 00 00 00 00 00 ................
0040FFE0 00 00 00 00 00 00 00 00 00 00 00 00 00 00 00 00 ................
0040FFF0 00 00 00 00 00 00 00 00 00 00 00 00 00 00 00 00 ................
00410000 00 00 00 00 00 00 00 00 00 00 00 00 00 00 03 00 ................
00410010 03 00 00 00 28 00 00 80 0E 00 00 00 40 00 00 80 ....(.......@...
00410020 10 00 00 00 58 00 00 80 00 00 00 00 00 00 00 00 ....X...........
00410030 00 00 00 00 00 00 01 00 01 00 00 00 70 00 00 80 ............p...
00410040 00 00 00 00 00 00 00 00 00 00 00 00 00 00 01 00 ................
00410050 A9 3A 00 00 88 00 00 80 00 00 00 00 00 00 00 00 .:..............
00410060 00 00 00 00 00 00 01 00 B4 2A 00 00 A0 00 00 80 .........*......
00410070 00 00 00 00 00 00 00 00 00 00 00 00 00 00 01 00 ................
00410080 19 04 00 00 B8 00 00 00 00 00 00 00 00 00 00 00 ................
00410090 00 00 00 00 00 00 01 00 19 04 00 00 C8 00 00 00 ................
004100A0 00 00 00 00 00 00 00 00 00 00 00 00 00 00 01 00 ................
004100B0 19 04 00 00 D8 00 00 00 E8 00 01 00 A8 08 00 00 ................
004100C0 00 00 00 00 00 00 00 00 90 09 01 00 14 00 00 00 ................
004100D0 00 00 00 00 00 00 00 00 A4 09 01 00 EC 02 00 00 ................
004100E0 00 00 00 00 00 00 00 00 28 00 00 00 20 00 00 00 ........(... ...
004100F0 40 00 00 00 01 00 08 00 00 00 00 00 00 04 00 00 @...............
00410100 00 00 00 00 00 00 00 00 00 00 00 00 00 00 00 00 ................
00410110 00 00 00 00 00 00 80 00 00 80 00 00 00 80 80 00 ................
00410120 80 00 00 00 80 00 80 00 80 80 00 00 C0 C0 C0 00 ................
00410130 C0 DC C0 00 F0 CA A6 00 00 20 40 00 00 20 60 00 ......... @.. `.
00410140 00 20 80 00 00 20 A0 00 00 20 C0 00 00 20 E0 00 . ... ... ... ..
00410150 00 40 00 00 00 40 20 00 00 40 40 00 00 40 60 00 .@...@ ..@@..@`.
00410160 00 40 80 00 00 40 A0 00 00 40 C0 00 00 40 E0 00 .@...@...@...@..
00410170 00 60 00 00 00 60 20 00 00 60 40 00 00 60 60 00 .`...` ..`@..``.
00410180 00 60 80 00 00 60 A0 00 00 60 C0 00 00 60 E0 00 .`...`...`...`..
00410190 00 80 00 00 00 80 20 00 00 80 40 00 00 80 60 00 ...... ...@...`.
004101A0 00 80 80 00 00 80 A0 00 00 80 C0 00 00 80 E0 00 ................
004101B0 00 A0 00 00 00 A0 20 00 00 A0 40 00 00 A0 60 00 ...... ...@...`.
004101C0 00 A0 80 00 00 A0 A0 00 00 A0 C0 00 00 A0 E0 00 ................
004101D0 00 C0 00 00 00 C0 20 00 00 C0 40 00 00 C0 60 00 ...... ...@...`.
004101E0 00 C0 80 00 00 C0 A0 00 00 C0 C0 00 00 C0 E0 00 ................
004101F0 00 E0 00 00 00 E0 20 00 00 E0 40 00 00 E0 60 00 ...... ...@...`.
00410200 00 E0 80 00 00 E0 A0 00 00 E0 C0 00 00 E0 E0 00 ................
00410210 40 00 00 00 40 00 20 00 40 00 40 00 40 00 60 00 @...@. .@.@.@.`.
00410220 40 00 80 00 40 00 A0 00 40 00 C0 00 40 00 E0 00 @...@...@...@...
00410230 40 20 00 00 40 20 20 00 40 20 40 00 40 20 60 00 @ ..@  .@ @.@ `.
00410240 40 20 80 00 40 20 A0 00 40 20 C0 00 40 20 E0 00 @ ..@ ..@ ..@ ..
00410250 40 40 00 00 40 40 20 00 40 40 40 00 40 40 60 00 @@..@@ .@@@.@@`.
00410260 40 40 80 00 40 40 A0 00 40 40 C0 00 40 40 E0 00 @@..@@..@@..@@..
00410270 40 60 00 00 40 60 20 00 40 60 40 00 40 60 60 00 @`..@` .@`@.@``.
00410280 40 60 80 00 40 60 A0 00 40 60 C0 00 40 60 E0 00 @`..@`..@`..@`..
00410290 40 80 00 00 40 80 20 00 40 80 40 00 40 80 60 00 @...@. .@.@.@.`.
004102A0 40 80 80 00 40 80 A0 00 40 80 C0 00 40 80 E0 00 @...@...@...@...
004102B0 40 A0 00 00 40 A0 20 00 40 A0 40 00 40 A0 60 00 @...@. .@.@.@.`.
004102C0 40 A0 80 00 40 A0 A0 00 40 A0 C0 00 40 A0 E0 00 @...@...@...@...
004102D0 40 C0 00 00 40 C0 20 00 40 C0 40 00 40 C0 60 00 @...@. .@.@.@.`.
004102E0 40 C0 80 00 40 C0 A0 00 40 C0 C0 00 40 C0 E0 00 @...@...@...@...
004102F0 40 E0 00 00 40 E0 20 00 40 E0 40 00 40 E0 60 00 @...@. .@.@.@.`.
00410300 40 E0 80 00 40 E0 A0 00 40 E0 C0 00 40 E0 E0 00 @...@...@...@...
00410310 80 00 00 00 80 00 20 00 80 00 40 00 80 00 60 00 ...... ...@...`.
00410320 80 00 80 00 80 00 A0 00 80 00 C0 00 80 00 E0 00 ................
00410330 80 20 00 00 80 20 20 00 80 20 40 00 80 20 60 00 . ...  .. @.. `.
00410340 80 20 80 00 80 20 A0 00 80 20 C0 00 80 20 E0 00 . ... ... ... ..
00410350 80 40 00 00 80 40 20 00 80 40 40 00 80 40 60 00 .@...@ ..@@..@`.
00410360 80 40 80 00 80 40 A0 00 80 40 C0 00 80 40 E0 00 .@...@...@...@..
00410370 80 60 00 00 80 60 20 00 80 60 40 00 80 60 60 00 .`...` ..`@..``.
00410380 80 60 80 00 80 60 A0 00 80 60 C0 00 80 60 E0 00 .`...`...`...`..
00410390 80 80 00 00 80 80 20 00 80 80 40 00 80 80 60 00 ...... ...@...`.
004103A0 80 80 80 00 80 80 A0 00 80 80 C0 00 80 80 E0 00 ................
004103B0 80 A0 00 00 80 A0 20 00 80 A0 40 00 80 A0 60 00 ...... ...@...`.
004103C0 80 A0 80 00 80 A0 A0 00 80 A0 C0 00 80 A0 E0 00 ................
004103D0 80 C0 00 00 80 C0 20 00 80 C0 40 00 80 C0 60 00 ...... ...@...`.
004103E0 80 C0 80 00 80 C0 A0 00 80 C0 C0 00 80 C0 E0 00 ................
004103F0 80 E0 00 00 80 E0 20 00 80 E0 40 00 80 E0 60 00 ...... ...@...`.
00410400 80 E0 80 00 80 E0 A0 00 80 E0 C0 00 80 E0 E0 00 ................
00410410 C0 00 00 00 C0 00 20 00 C0 00 40 00 C0 00 60 00 ...... ...@...`.
00410420 C0 00 80 00 C0 00 A0 00 C0 00 C0 00 C0 00 E0 00 ................
00410430 C0 20 00 00 C0 20 20 00 C0 20 40 00 C0 20 60 00 . ...  .. @.. `.
00410440 C0 20 80 00 C0 20 A0 00 C0 20 C0 00 C0 20 E0 00 . ... ... ... ..
00410450 C0 40 00 00 C0 40 20 00 C0 40 40 00 C0 40 60 00 .@...@ ..@@..@`.
00410460 C0 40 80 00 C0 40 A0 00 C0 40 C0 00 C0 40 E0 00 .@...@...@...@..
00410470 C0 60 00 00 C0 60 20 00 C0 60 40 00 C0 60 60 00 .`...` ..`@..``.
00410480 C0 60 80 00 C0 60 A0 00 C0 60 C0 00 C0 60 E0 00 .`...`...`...`..
00410490 C0 80 00 00 C0 80 20 00 C0 80 40 00 C0 80 60 00 ...... ...@...`.
004104A0 C0 80 80 00 C0 80 A0 00 C0 80 C0 00 C0 80 E0 00 ................
004104B0 C0 A0 00 00 C0 A0 20 00 C0 A0 40 00 C0 A0 60 00 ...... ...@...`.
004104C0 C0 A0 80 00 C0 A0 A0 00 C0 A0 C0 00 C0 A0 E0 00 ................
004104D0 C0 C0 00 00 C0 C0 20 00 C0 C0 40 00 C0 C0 60 00 ...... ...@...`.
004104E0 C0 C0 80 00 C0 C0 A0 00 F0 FB FF 00 A4 A0 A0 00 ................
004104F0 80 80 80 00 00 00 FF 00 00 FF 00 00 00 FF FF 00 ................
00410500 FF 00 00 00 FF 00 FF 00 FF FF 00 00 FF FF FF 00 ................
00410510 00 00 00 00 00 00 00 00 00 00 00 00 00 00 00 00 ................
00410520 00 00 00 00 00 00 00 00 00 00 00 00 00 00 00 00 ................
00410530 00 00 00 00 00 00 ED A3 9A 9A 92 92 92 92 92 92 ................
00410540 92 92 92 92 92 92 92 92 92 92 92 92 92 92 92 00 ................
00410550 00 00 00 00 00 00 ED F6 07 09 09 09 09 09 09 09 ................
00410560 09 09 EC 09 09 EC EC EC EC EB EB EB EB EB 92 00 ................
00410570 00 00 00 00 00 00 ED F6 F6 F6 F6 F6 F6 F6 F6 F6 ................
00410580 F6 F6 F6 F6 F6 F6 F6 F6 09 09 09 09 09 EB 92 00 ................
00410590 00 00 00 00 00 00 ED F6 F6 F6 F6 F6 F6 F6 F6 F6 ................
004105A0 F6 F6 F6 F6 F6 F6 F6 F6 F6 F6 09 09 09 EB 92 00 ................
004105B0 00 00 00 00 00 00 ED F6 F6 F5 F5 ED ED EC EC EC ................
004105C0 E3 E3 E3 E3 E3 E3 E3 E3 E3 E3 F6 F6 09 EB 92 00 ................
004105D0 00 00 00 00 00 00 ED FF FF F5 FF FF FF F6 EC F6 ................
004105E0 F6 EC FF E3 F6 F6 EC FF E3 F6 F6 F6 F6 EB 92 00 ................
004105F0 00 00 00 00 00 00 ED FF FF F5 FF FF FF FF ED FF ................
00410600 FF EC FF E3 F6 F6 EC FF E3 F6 F6 F6 F6 EC 92 00 ................
00410610 00 00 00 00 00 00 ED FF FF F5 F5 F5 F5 F5 F5 ED ................
00410620 FF EC FF E3 F6 F6 EC FF E3 F6 F6 F6 F6 EC 92 00 ................
00410630 00 00 00 00 00 00 ED FF FF 09 FF FF FF FF F5 FF ................
00410640 FF ED FF E3 EC EC EC FF E3 F6 F6 F6 F6 EC 92 00 ................
00410650 00 00 00 00 00 00 ED FF FF 09 FF FF FF FF F5 FF ................
00410660 FF F5 FF E3 FF FF EC FF E3 F6 F6 F6 F6 EC 92 00 ................
00410670 00 00 00 00 00 00 ED FF FF 09 09 09 09 09 F5 F5 ................
00410680 FF F5 F5 E3 FF FF EC FF E3 F6 F6 F6 F6 EC 92 00 ................
00410690 00 00 00 00 00 00 ED FF FF 09 FF FF FF FF 09 FF ................
004106A0 FF FF FF FF FF FF ED ED E3 F6 F6 F6 F6 09 92 00 ................
004106B0 00 00 00 00 00 00 ED 08 08 ED 07 07 07 ED ED 08 ................
004106C0 FF FF FF F5 FF FF FF FF FF FF F6 F6 F6 09 92 00 ................
004106D0 00 00 00 00 00 00 F7 F7 F5 07 07 08 08 F6 08 ED ................
004106E0 EC 09 F5 F5 F5 F5 F5 F5 ED FF FF F6 F6 EC 92 00 ................
004106F0 00 19 18 AC 08 08 FF FF FF F6 F6 F6 F6 F6 08 07 ................
00410700 F6 FF FF 09 FF FF FF FF F5 FF FF FF F6 09 92 00 ................
00410710 00 19 B5 08 FF FF FF FF F6 F6 B5 1A 1A F6 F6 07 ................
00410720 F6 FF FF 09 FF FF FF FF F5 FF FF FF FF 09 92 00 ................
00410730 00 19 07 AC FF 08 B4 B4 B4 AB 22 1A 6B F6 F6 ED ..........".k...
00410740 F5 09 09 09 09 09 09 F5 F5 FF FF FF FF 09 92 00 ................
00410750 00 19 08 62 FF FF 08 B4 B4 62 1A 6C AB B5 F6 07 ...b.....b.l....
00410760 08 FF FF 09 FF FF FF FF F5 FF FF FF FF 09 92 00 ................
00410770 00 19 08 19 F6 FF FF 08 6B 1A 22 08 FF F6 F6 07 ........k.".....
00410780 08 FF FF 09 FF FF FF FF 09 FF FF FF FF 09 92 00 ................
00410790 00 21 08 19 07 FF FF 08 22 22 6B B4 F5 F6 F6 07 .!......""k.....
004107A0 F5 09 09 09 09 09 09 09 09 FF FF FF FF 09 92 00 ................
004107B0 00 21 08 19 AC FF F6 22 1A B5 F6 B4 B4 B4 F6 08 .!....."........
004107C0 08 FF FF 09 FF FF FF FF 09 FF FF FF FF 09 92 00 ................
004107D0 00 21 08 AC B4 FF 63 62 6C FF FF FF FF FF FF 08 .!....cbl.......
004107E0 08 FF FF 09 FF FF FF FF 07 09 09 09 09 09 92 00 ................
004107F0 00 61 08 B4 B4 FF FF FF FF FF FF FF FF FF FF F6 .a..............
00410800 07 09 09 09 09 09 09 ED A3 A3 9B 9A 9A 9A 92 00 ................
00410810 00 61 08 B5 B4 08 08 08 08 08 08 F5 B5 08 6B FF .a............k.
00410820 FF FF FF FF FF FF FF ED 09 09 09 09 09 92 F6 00 ................
00410830 00 61 B5 F6 B5 B5 B5 B5 B5 B5 B5 B5 B5 F6 61 FF .a............a.
00410840 FF FF FF FF FF FF FF ED F6 F6 09 09 92 F6 F6 00 ................
00410850 00 61 61 08 F6 08 BD BD BD BD BD BD B5 F6 61 F6 .aa...........a.
00410860 09 09 09 FF FF FF FF F5 F6 F6 09 92 F6 F6 00 00 ................
00410870 00 00 61 61 B5 08 F6 F6 F6 F6 F6 F6 F6 F6 61 FF ..aa..........a.
00410880 FF FF FF FF FF FF FF F5 F6 F6 9A F6 F6 00 00 00 ................
00410890 00 00 00 61 61 61 61 61 61 61 61 61 61 61 61 FF ...aaaaaaaaaaaa.
004108A0 FF FF FF FF FF FF FF F5 F6 9B F6 F6 00 00 00 00 ................
004108B0 00 00 00 00 00 00 07 FF FF FF FF FF FF FF FF FF ................
004108C0 FF FF FF FF FF FF FF F5 A4 F6 F6 00 00 00 00 00 ................
004108D0 00 00 00 00 00 00 07 07 07 07 07 F5 F5 F5 F5 F5 ................
004108E0 F5 F5 F5 F5 F5 F5 F5 F5 F6 F6 00 00 00 00 00 00 ................
004108F0 00 00 00 00 00 00 00 00 00 00 00 00 00 00 00 00 ................
00410900 00 00 00 00 00 00 00 00 00 00 00 00 00 00 00 00 ................
00410910 FF FF FF FF FC 00 00 01 FC 00 00 01 FC 00 00 01 ................
00410920 FC 00 00 01 FC 00 00 01 FC 00 00 01 FC 00 00 01 ................
00410930 FC 00 00 01 FC 00 00 01 FC 00 00 01 FC 00 00 01 ................
00410940 FC 00 00 01 C0 00 00 01 C0 00 00 01 80 00 00 01 ................
00410950 80 00 00 01 80 00 00 01 80 00 00 01 80 00 00 01 ................
00410960 80 00 00 01 80 00 00 01 80 00 00 01 80 00 00 01 ................
00410970 80 00 00 01 80 00 00 01 80 00 00 03 C0 00 00 07 ................
00410980 E0 00 00 0F FC 00 00 1F FC 00 00 3F FF FF FF FF ...........?....
00410990 00 00 01 00 01 00 20 20 08 00 00 00 00 00 A8 08 ......  ........
004109A0 00 00 01 00 EC 02 34 00 00 00 56 00 53 00 5F 00 ......4...V.S._.
004109B0 56 00 45 00 52 00 53 00 49 00 4F 00 4E 00 5F 00 V.E.R.S.I.O.N._.
004109C0 49 00 4E 00 46 00 4F 00 00 00 00 00 BD 04 EF FE I.N.F.O.........
004109D0 00 00 01 00 68 E4 82 5F 68 E4 82 5F 68 E4 82 5F ....h.._h.._h.._
004109E0 68 E4 82 5F 68 E4 00 00 00 00 00 00 04 00 04 00 h.._h...........
004109F0 01 00 00 00 00 00 00 00 00 00 00 00 00 00 00 00 ................
00410A00 4C 02 00 00 00 00 53 00 74 00 72 00 69 00 6E 00 L.....S.t.r.i.n.
00410A10 67 00 46 00 69 00 6C 00 65 00 49 00 6E 00 66 00 g.F.i.l.e.I.n.f.
00410A20 6F 00 00 00 28 02 00 00 00 00 30 00 38 00 30 00 o...(.....0.8.0.
00410A30 30 00 30 00 34 00 42 00 30 00 00 00 44 00 12 00 0.0.4.B.0...D...
00410A40 01 00 43 00 6F 00 6D 00 70 00 61 00 6E 00 79 00 ..C.o.m.p.a.n.y.
00410A50 4E 00 61 00 6D 00 65 00 00 00 00 00 6D 00 74 00 N.a.m.e.....m.t.
00410A60 6A 00 71 00 78 00 37 00 61 00 46 00 52 00 48 00 j.q.x.7.a.F.R.H.
00410A70 6C 00 68 00 51 00 33 00 43 00 47 00 50 00 00 00 l.h.Q.3.C.G.P...
00410A80 44 00 0D 00 01 00 46 00 69 00 6C 00 65 00 44 00 D.....F.i.l.e.D.
00410A90 65 00 73 00 63 00 72 00 69 00 70 00 74 00 69 00 e.s.c.r.i.p.t.i.
00410AA0 6F 00 6E 00 00 00 00 00 73 00 64 00 55 00 55 00 o.n.....s.d.U.U.
00410AB0 53 00 74 00 49 00 65 00 31 00 4E 00 6E 00 69 00 S.t.I.e.1.N.n.i.
00410AC0 00 00 00 00 48 00 14 00 01 00 46 00 69 00 6C 00 ....H.....F.i.l.
00410AD0 65 00 56 00 65 00 72 00 73 00 69 00 6F 00 6E 00 e.V.e.r.s.i.o.n.
00410AE0 00 00 00 00 66 00 65 00 61 00 4F 00 46 00 6E 00 ....f.e.a.O.F.n.
00410AF0 6D 00 61 00 4B 00 6D 00 4D 00 6B 00 76 00 57 00 m.a.K.m.M.k.v.W.
00410B00 74 00 4A 00 65 00 47 00 68 00 00 00 38 00 0C 00 t.J.e.G.h...8...
00410B10 01 00 49 00 6E 00 74 00 65 00 72 00 6E 00 61 00 ..I.n.t.e.r.n.a.
00410B20 6C 00 4E 00 61 00 6D 00 65 00 00 00 31 00 66 00 l.N.a.m.e...1.f.
00410B30 54 00 56 00 66 00 6A 00 56 00 47 00 73 00 52 00 T.V.f.j.V.G.s.R.
00410B40 57 00 00 00 44 00 10 00 01 00 4C 00 65 00 67 00 W...D.....L.e.g.
00410B50 61 00 6C 00 43 00 6F 00 70 00 79 00 72 00 69 00 a.l.C.o.p.y.r.i.
00410B60 67 00 68 00 74 00 00 00 69 00 65 00 56 00 6B 00 g.h.t...i.e.V.k.
00410B70 31 00 69 00 4D 00 71 00 74 00 44 00 65 00 4B 00 1.i.M.q.t.D.e.K.
00410B80 62 00 72 00 67 00 00 00 40 00 0C 00 01 00 4F 00 b.r.g...@.....O.
00410B90 72 00 69 00 67 00 69 00 6E 00 61 00 6C 00 46 00 r.i.g.i.n.a.l.F.
00410BA0 69 00 6C 00 65 00 6E 00 61 00 6D 00 65 00 00 00 i.l.e.n.a.m.e...
00410BB0 65 00 78 00 6C 00 72 00 69 00 58 00 77 00 78 00 e.x.l.r.i.X.w.x.
00410BC0 57 00 57 00 67 00 00 00 40 00 10 00 01 00 50 00 W.W.g...@.....P.
00410BD0 72 00 6F 00 64 00 75 00 63 00 74 00 4E 00 61 00 r.o.d.u.c.t.N.a.
00410BE0 6D 00 65 00 00 00 00 00 4C 00 49 00 55 00 67 00 m.e.....L.I.U.g.
00410BF0 67 00 58 00 38 00 77 00 75 00 44 00 52 00 49 00 g.X.8.w.u.D.R.I.
00410C00 4B 00 61 00 4A 00 00 00 44 00 10 00 01 00 50 00 K.a.J...D.....P.
00410C10 72 00 6F 00 64 00 75 00 63 00 74 00 56 00 65 00 r.o.d.u.c.t.V.e.
00410C20 72 00 73 00 69 00 6F 00 6E 00 00 00 56 00 63 00 r.s.i.o.n...V.c.
00410C30 76 00 6B 00 59 00 42 00 55 00 75 00 6F 00 64 00 v.k.Y.B.U.u.o.d.
00410C40 6E 00 42 00 44 00 72 00 75 00 00 00 44 00 00 00 n.B.D.r.u...D...
00410C50 00 00 56 00 61 00 72 00 46 00 69 00 6C 00 65 00 ..V.a.r.F.i.l.e.
00410C60 49 00 6E 00 66 00 6F 00 00 00 00 00 24 00 04 00 I.n.f.o.....$...
00410C70 00 00 54 00 72 00 61 00 6E 00 73 00 6C 00 61 00 ..T.r.a.n.s.l.a.
00410C80 74 00 69 00 6F 00 6E 00 00 00 00 00 00 08 B0 04 t.i.o.n.........
00410C90 00 00 00 00 00 00 00 00 00 00 00 00 00 00 00 00 ................
00410CA0 00 00 00 00 00 00 00 00 00 00 00 00 00 00 00 00 ................
00410CB0 00 00 00 00 00 00 00 00 00 00 00 00 00 00 00 00 ................
00410CC0 00 00 00 00 00 00 00 00 00 00 00 00 00 00 00 00 ................
00410CD0 00 00 00 00 00 00 00 00 00 00 00 00 00 00 00 00 ................
00410CE0 00 00 00 00 00 00 00 00 00 00 00 00 00 00 00 00 ................
00410CF0 00 00 00 00 00 00 00 00 00 00 00 00 00 00 00 00 ................
00410D00 00 00 00 00 00 00 00 00 00 00 00 00 00 00 00 00 ................
00410D10 00 00 00 00 00 00 00 00 00 00 00 00 00 00 00 00 ................
00410D20 00 00 00 00 00 00 00 00 00 00 00 00 00 00 00 00 ................
00410D30 00 00 00 00 00 00 00 00 00 00 00 00 00 00 00 00 ................
00410D40 00 00 00 00 00 00 00 00 00 00 00 00 00 00 00 00 ................
00410D50 00 00 00 00 00 00 00 00 00 00 00 00 00 00 00 00 ................
00410D60 00 00 00 00 00 00 00 00 00 00 00 00 00 00 00 00 ................
00410D70 00 00 00 00 00 00 00 00 00 00 00 00 00 00 00 00 ................
00410D80 00 00 00 00 00 00 00 00 00 00 00 00 00 00 00 00 ................
00410D90 00 00 00 00 00 00 00 00 00 00 00 00 00 00 00 00 ................
00410DA0 00 00 00 00 00 00 00 00 00 00 00 00 00 00 00 00 ................
00410DB0 00 00 00 00 00 00 00 00 00 00 00 00 00 00 00 00 ................
00410DC0 00 00 00 00 00 00 00 00 00 00 00 00 00 00 00 00 ................
00410DD0 00 00 00 00 00 00 00 00 00 00 00 00 00 00 00 00 ................
00410DE0 00 00 00 00 00 00 00 00 00 00 00 00 00 00 00 00 ................
00410DF0 00 00 00 00 00 00 00 00 00 00 00 00 00 00 00 00 ................
00410E00 00 00 00 00 00 00 00 00 00 00 00 00 00 00 00 00 ................
00410E10 00 00 00 00 00 00 00 00 00 00 00 00 00 00 00 00 ................
00410E20 00 00 00 00 00 00 00 00 00 00 00 00 00 00 00 00 ................
00410E30 00 00 00 00 00 00 00 00 00 00 00 00 00 00 00 00 ................
00410E40 00 00 00 00 00 00 00 00 00 00 00 00 00 00 00 00 ................
00410E50 00 00 00 00 00 00 00 00 00 00 00 00 00 00 00 00 ................
00410E60 00 00 00 00 00 00 00 00 00 00 00 00 00 00 00 00 ................
00410E70 00 00 00 00 00 00 00 00 00 00 00 00 00 00 00 00 ................
00410E80 00 00 00 00 00 00 00 00 00 00 00 00 00 00 00 00 ................
00410E90 00 00 00 00 00 00 00 00 00 00 00 00 00 00 00 00 ................
00410EA0 00 00 00 00 00 00 00 00 00 00 00 00 00 00 00 00 ................
00410EB0 00 00 00 00 00 00 00 00 00 00 00 00 00 00 00 00 ................
00410EC0 00 00 00 00 00 00 00 00 00 00 00 00 00 00 00 00 ................
00410ED0 00 00 00 00 00 00 00 00 00 00 00 00 00 00 00 00 ................
00410EE0 00 00 00 00 00 00 00 00 00 00 00 00 00 00 00 00 ................
00410EF0 00 00 00 00 00 00 00 00 00 00 00 00 00 00 00 00 ................
00410F00 00 00 00 00 00 00 00 00 00 00 00 00 00 00 00 00 ................
00410F10 00 00 00 00 00 00 00 00 00 00 00 00 00 00 00 00 ................
00410F20 00 00 00 00 00 00 00 00 00 00 00 00 00 00 00 00 ................
00410F30 00 00 00 00 00 00 00 00 00 00 00 00 00 00 00 00 ................
00410F40 00 00 00 00 00 00 00 00 00 00 00 00 00 00 00 00 ................
00410F50 00 00 00 00 00 00 00 00 00 00 00 00 00 00 00 00 ................
00410F60 00 00 00 00 00 00 00 00 00 00 00 00 00 00 00 00 ................
00410F70 00 00 00 00 00 00 00 00 00 00 00 00 00 00 00 00 ................
00410F80 00 00 00 00 00 00 00 00 00 00 00 00 00 00 00 00 ................
00410F90 00 00 00 00 00 00 00 00 00 00 00 00 00 00 00 00 ................
00410FA0 00 00 00 00 00 00 00 00 00 00 00 00 00 00 00 00 ................
00410FB0 00 00 00 00 00 00 00 00 00 00 00 00 00 00 00 00 ................
00410FC0 00 00 00 00 00 00 00 00 00 00 00 00 00 00 00 00 ................
00410FD0 00 00 00 00 00 00 00 00 00 00 00 00 00 00 00 00 ................
00410FE0 00 00 00 00 00 00 00 00 00 00 00 00 00 00 00 00 ................
00410FF0 00 00 00 00 00 00 00 00 00 00 00 00 00 00 00 00 ................
