00400000 00 00 00 00 00 00 00 00 00 00 00 00 00 00 00 00 ................
00400010 00 00 00 00 00 00 00 00 00 00 00 00 00 00 00 00 ................
00400020 00 00 00 00 00 00 00 00 00 00 00 00 00 00 00 00 ................
00400030 00 00 00 00 00 00 00 00 00 00 00 00 00 00 00 00 ................
00400040 00 00 00 00 00 00 00 00 00 00 00 00 00 00 00 00 ................
00400050 00 00 00 00 00 00 00 00 00 00 00 00 00 00 00 00 ................
00400060 00 00 00 00 00 00 00 00 00 00 00 00 00 00 00 00 ................
00400070 00 00 00 00 00 00 00 00 00 00 00 00 00 00 00 00 ................
00400080 00 00 00 00 00 00 00 00 00 00 00 00 00 00 00 00 ................
00400090 00 00 00 00 00 00 00 00 00 00 00 00 00 00 00 00 ................
004000A0 00 00 00 00 00 00 00 00 00 00 00 00 00 00 00 00 ................
004000B0 00 00 00 00 00 00 00 00 00 00 00 00 00 00 00 00 ................
004000C0 00 00 00 00 00 00 00 00 00 00 00 00 00 00 00 00 ................
004000D0 00 00 00 00 00 00 00 00 00 00 00 00 00 00 00 00 ................
004000E0 00 00 00 00 00 00 00 00 00 00 00 00 00 00 00 00 ................
004000F0 00 00 00 00 00 00 00 00 00 00 00 00 00 00 00 00 ................
00400100 00 00 00 00 00 00 00 00 00 00 00 00 00 00 00 00 ................
00400110 00 00 00 00 00 00 00 00 00 00 00 00 00 00 00 00 ................
00400120 00 00 00 00 00 00 00 00 00 00 00 00 00 00 00 00 ................
00400130 00 00 00 00 00 00 00 00 00 00 00 00 00 00 00 00 ................
00400140 00 00 00 00 00 00 00 00 00 00 00 00 00 00 00 00 ................
00400150 00 00 00 00 00 00 00 00 00 00 00 00 00 00 00 00 ................
00400160 00 00 00 00 00 00 00 00 00 00 00 00 00 00 00 00 ................
00400170 00 00 00 00 00 00 00 00 00 00 00 00 00 00 00 00 ................
00400180 00 00 00 00 00 00 00 00 00 00 00 00 00 00 00 00 ................
00400190 00 00 00 00 00 00 00 00 00 00 00 00 00 00 00 00 ................
004001A0 00 00 00 00 00 00 00 00 00 00 00 00 00 00 00 00 ................
004001B0 00 00 00 00 00 00 00 00 00 00 00 00 00 00 00 00 ................
004001C0 00 00 00 00 00 00 00 00 00 00 00 00 00 00 00 00 ................
004001D0 00 00 00 00 00 00 00 00 00 00 00 00 00 00 00 00 ................
004001E0 00 00 00 00 00 00 00 00 00 00 00 00 00 00 00 00 ................
004001F0 00 00 00 00 00 00 00 00 00 00 00 00 00 00 00 00 ................
00400200 00 00 00 00 00 00 00 00 00 00 00 00 00 00 00 00 ................
00400210 00 00 00 00 00 00 00 00 00 00 00 00 00 00 00 00 ................
00400220 00 00 00 00 00 00 00 00 00 00 00 00 00 00 00 00 ................
00400230 00 00 00 00 00 00 00 00 00 00 00 00 00 00 00 00 ................
00400240 00 00 00 00 00 00 00 00 00 00 00 00 00 00 00 00 ................
00400250 00 00 00 00 00 00 00 00 00 00 00 00 00 00 00 00 ................
00400260 00 00 00 00 00 00 00 00 00 00 00 00 00 00 00 00 ................
00400270 00 00 00 00 00 00 00 00 00 00 00 00 00 00 00 00 ................
00400280 00 00 00 00 00 00 00 00 00 00 00 00 00 00 00 00 ................
00400290 00 00 00 00 00 00 00 00 00 00 00 00 00 00 00 00 ................
004002A0 00 00 00 00 00 00 00 00 00 00 00 00 00 00 00 00 ................
004002B0 00 00 00 00 00 00 00 00 00 00 00 00 00 00 00 00 ................
004002C0 00 00 00 00 00 00 00 00 00 00 00 00 00 00 00 00 ................
004002D0 00 00 00 00 00 00 00 00 00 00 00 00 00 00 00 00 ................
004002E0 00 00 00 00 00 00 00 00 00 00 00 00 00 00 00 00 ................
004002F0 00 00 00 00 00 00 00 00 00 00 00 00 00 00 00 00 ................
00400300 00 00 00 00 00 00 00 00 00 00 00 00 00 00 00 00 ................
00400310 00 00 00 00 00 00 00 00 00 00 00 00 00 00 00 00 ................
00400320 00 00 00 00 00 00 00 00 00 00 00 00 00 00 00 00 ................
00400330 00 00 00 00 00 00 00 00 00 00 00 00 00 00 00 00 ................
00400340 00 00 00 00 00 00 00 00 00 00 00 00 00 00 00 00 ................
00400350 00 00 00 00 00 00 00 00 00 00 00 00 00 00 00 00 ................
00400360 00 00 00 00 00 00 00 00 00 00 00 00 00 00 00 00 ................
00400370 00 00 00 00 00 00 00 00 00 00 00 00 00 00 00 00 ................
00400380 00 00 00 00 00 00 00 00 00 00 00 00 00 00 00 00 ................
00400390 00 00 00 00 00 00 00 00 00 00 00 00 00 00 00 00 ................
004003A0 00 00 00 00 00 00 00 00 00 00 00 00 00 00 00 00 ................
004003B0 00 00 00 00 00 00 00 00 00 00 00 00 00 00 00 00 ................
004003C0 00 00 00 00 00 00 00 00 00 00 00 00 00 00 00 00 ................
004003D0 00 00 00 00 00 00 00 00 00 00 00 00 00 00 00 00 ................
004003E0 00 00 00 00 00 00 00 00 00 00 00 00 00 00 00 00 ................
004003F0 00 00 00 00 00 00 00 00 00 00 00 00 00 00 00 00 ................
00400400 00 00 00 00 00 00 00 00 00 00 00 00 00 00 00 00 ................
00400410 00 00 00 00 00 00 00 00 00 00 00 00 00 00 00 00 ................
00400420 00 00 00 00 00 00 00 00 00 00 00 00 00 00 00 00 ................
00400430 00 00 00 00 00 00 00 00 00 00 00 00 00 00 00 00 ................
00400440 00 00 00 00 00 00 00 00 00 00 00 00 00 00 00 00 ................
00400450 00 00 00 00 00 00 00 00 00 00 00 00 00 00 00 00 ................
00400460 00 00 00 00 00 00 00 00 00 00 00 00 00 00 00 00 ................
00400470 00 00 00 00 00 00 00 00 00 00 00 00 00 00 00 00 ................
00400480 00 00 00 00 00 00 00 00 00 00 00 00 00 00 00 00 ................
00400490 00 00 00 00 00 00 00 00 00 00 00 00 00 00 00 00 ................
004004A0 00 00 00 00 00 00 00 00 00 00 00 00 00 00 00 00 ................
004004B0 00 00 00 00 00 00 00 00 00 00 00 00 00 00 00 00 ................
004004C0 00 00 00 00 00 00 00 00 00 00 00 00 00 00 00 00 ................
004004D0 00 00 00 00 00 00 00 00 00 00 00 00 00 00 00 00 ................
004004E0 00 00 00 00 00 00 00 00 00 00 00 00 00 00 00 00 ................
004004F0 00 00 00 00 00 00 00 00 00 00 00 00 00 00 00 00 ................
00400500 00 00 00 00 00 00 00 00 00 00 00 00 00 00 00 00 ................
00400510 00 00 00 00 00 00 00 00 00 00 00 00 00 00 00 00 ................
00400520 00 00 00 00 00 00 00 00 00 00 00 00 00 00 00 00 ................
00400530 00 00 00 00 00 00 00 00 00 00 00 00 00 00 00 00 ................
00400540 00 00 00 00 00 00 00 00 00 00 00 00 00 00 00 00 ................
00400550 00 00 00 00 00 00 00 00 00 00 00 00 00 00 00 00 ................
00400560 00 00 00 00 00 00 00 00 00 00 00 00 00 00 00 00 ................
00400570 00 00 00 00 00 00 00 00 00 00 00 00 00 00 00 00 ................
00400580 00 00 00 00 00 00 00 00 00 00 00 00 00 00 00 00 ................
00400590 00 00 00 00 00 00 00 00 00 00 00 00 00 00 00 00 ................
004005A0 00 00 00 00 00 00 00 00 00 00 00 00 00 00 00 00 ................
004005B0 00 00 00 00 00 00 00 00 00 00 00 00 00 00 00 00 ................
004005C0 00 00 00 00 00 00 00 00 00 00 00 00 00 00 00 00 ................
004005D0 00 00 00 00 00 00 00 00 00 00 00 00 00 00 00 00 ................
004005E0 00 00 00 00 00 00 00 00 00 00 00 00 00 00 00 00 ................
004005F0 00 00 00 00 00 00 00 00 00 00 00 00 00 00 00 00 ................
00400600 00 00 00 00 00 00 00 00 00 00 00 00 00 00 00 00 ................
00400610 00 00 00 00 00 00 00 00 00 00 00 00 00 00 00 00 ................
00400620 00 00 00 00 00 00 00 00 00 00 00 00 00 00 00 00 ................
00400630 00 00 00 00 00 00 00 00 00 00 00 00 00 00 00 00 ................
00400640 00 00 00 00 00 00 00 00 00 00 00 00 00 00 00 00 ................
00400650 00 00 00 00 00 00 00 00 00 00 00 00 00 00 00 00 ................
00400660 00 00 00 00 00 00 00 00 00 00 00 00 00 00 00 00 ................
00400670 00 00 00 00 00 00 00 00 00 00 00 00 00 00 00 00 ................
00400680 00 00 00 00 00 00 00 00 00 00 00 00 00 00 00 00 ................
00400690 00 00 00 00 00 00 00 00 00 00 00 00 00 00 00 00 ................
004006A0 00 00 00 00 00 00 00 00 00 00 00 00 00 00 00 00 ................
004006B0 00 00 00 00 00 00 00 00 00 00 00 00 00 00 00 00 ................
004006C0 00 00 00 00 00 00 00 00 00 00 00 00 00 00 00 00 ................
004006D0 00 00 00 00 00 00 00 00 00 00 00 00 00 00 00 00 ................
004006E0 00 00 00 00 00 00 00 00 00 00 00 00 00 00 00 00 ................
004006F0 00 00 00 00 00 00 00 00 00 00 00 00 00 00 00 00 ................
00400700 00 00 00 00 00 00 00 00 00 00 00 00 00 00 00 00 ................
00400710 00 00 00 00 00 00 00 00 00 00 00 00 00 00 00 00 ................
00400720 00 00 00 00 00 00 00 00 00 00 00 00 00 00 00 00 ................
00400730 00 00 00 00 00 00 00 00 00 00 00 00 00 00 00 00 ................
00400740 00 00 00 00 00 00 00 00 00 00 00 00 00 00 00 00 ................
00400750 00 00 00 00 00 00 00 00 00 00 00 00 00 00 00 00 ................
00400760 00 00 00 00 00 00 00 00 00 00 00 00 00 00 00 00 ................
00400770 00 00 00 00 00 00 00 00 00 00 00 00 00 00 00 00 ................
00400780 00 00 00 00 00 00 00 00 00 00 00 00 00 00 00 00 ................
00400790 00 00 00 00 00 00 00 00 00 00 00 00 00 00 00 00 ................
004007A0 00 00 00 00 00 00 00 00 00 00 00 00 00 00 00 00 ................
004007B0 00 00 00 00 00 00 00 00 00 00 00 00 00 00 00 00 ................
004007C0 00 00 00 00 00 00 00 00 00 00 00 00 00 00 00 00 ................
004007D0 00 00 00 00 00 00 00 00 00 00 00 00 00 00 00 00 ................
004007E0 00 00 00 00 00 00 00 00 00 00 00 00 00 00 00 00 ................
004007F0 00 00 00 00 00 00 00 00 00 00 00 00 00 00 00 00 ................
00400800 00 00 00 00 00 00 00 00 00 00 00 00 00 00 00 00 ................
00400810 00 00 00 00 00 00 00 00 00 00 00 00 00 00 00 00 ................
00400820 00 00 00 00 00 00 00 00 00 00 00 00 00 00 00 00 ................
00400830 00 00 00 00 00 00 00 00 00 00 00 00 00 00 00 00 ................
00400840 00 00 00 00 00 00 00 00 00 00 00 00 00 00 00 00 ................
00400850 00 00 00 00 00 00 00 00 00 00 00 00 00 00 00 00 ................
00400860 00 00 00 00 00 00 00 00 00 00 00 00 00 00 00 00 ................
00400870 00 00 00 00 00 00 00 00 00 00 00 00 00 00 00 00 ................
00400880 00 00 00 00 00 00 00 00 00 00 00 00 00 00 00 00 ................
00400890 00 00 00 00 00 00 00 00 00 00 00 00 00 00 00 00 ................
004008A0 00 00 00 00 00 00 00 00 00 00 00 00 00 00 00 00 ................
004008B0 00 00 00 00 00 00 00 00 00 00 00 00 00 00 00 00 ................
004008C0 00 00 00 00 00 00 00 00 00 00 00 00 00 00 00 00 ................
004008D0 00 00 00 00 00 00 00 00 00 00 00 00 00 00 00 00 ................
004008E0 00 00 00 00 00 00 00 00 00 00 00 00 00 00 00 00 ................
004008F0 00 00 00 00 00 00 00 00 00 00 00 00 00 00 00 00 ................
00400900 00 00 00 00 00 00 00 00 00 00 00 00 00 00 00 00 ................
00400910 00 00 00 00 00 00 00 00 00 00 00 00 00 00 00 00 ................
00400920 00 00 00 00 00 00 00 00 00 00 00 00 00 00 00 00 ................
00400930 00 00 00 00 00 00 00 00 00 00 00 00 00 00 00 00 ................
00400940 00 00 00 00 00 00 00 00 00 00 00 00 00 00 00 00 ................
00400950 00 00 00 00 00 00 00 00 00 00 00 00 00 00 00 00 ................
00400960 00 00 00 00 00 00 00 00 00 00 00 00 00 00 00 00 ................
00400970 00 00 00 00 00 00 00 00 00 00 00 00 00 00 00 00 ................
00400980 00 00 00 00 00 00 00 00 00 00 00 00 00 00 00 00 ................
00400990 00 00 00 00 00 00 00 00 00 00 00 00 00 00 00 00 ................
004009A0 00 00 00 00 00 00 00 00 00 00 00 00 00 00 00 00 ................
004009B0 00 00 00 00 00 00 00 00 00 00 00 00 00 00 00 00 ................
004009C0 00 00 00 00 00 00 00 00 00 00 00 00 00 00 00 00 ................
004009D0 00 00 00 00 00 00 00 00 00 00 00 00 00 00 00 00 ................
004009E0 00 00 00 00 00 00 00 00 00 00 00 00 00 00 00 00 ................
004009F0 00 00 00 00 00 00 00 00 00 00 00 00 00 00 00 00 ................
00400A00 00 00 00 00 00 00 00 00 00 00 00 00 00 00 00 00 ................
00400A10 00 00 00 00 00 00 00 00 00 00 00 00 00 00 00 00 ................
00400A20 00 00 00 00 00 00 00 00 00 00 00 00 00 00 00 00 ................
00400A30 00 00 00 00 00 00 00 00 00 00 00 00 00 00 00 00 ................
00400A40 00 00 00 00 00 00 00 00 00 00 00 00 00 00 00 00 ................
00400A50 00 00 00 00 00 00 00 00 00 00 00 00 00 00 00 00 ................
00400A60 00 00 00 00 00 00 00 00 00 00 00 00 00 00 00 00 ................
00400A70 00 00 00 00 00 00 00 00 00 00 00 00 00 00 00 00 ................
00400A80 00 00 00 00 00 00 00 00 00 00 00 00 00 00 00 00 ................
00400A90 00 00 00 00 00 00 00 00 00 00 00 00 00 00 00 00 ................
00400AA0 00 00 00 00 00 00 00 00 00 00 00 00 00 00 00 00 ................
00400AB0 00 00 00 00 00 00 00 00 00 00 00 00 00 00 00 00 ................
00400AC0 00 00 00 00 00 00 00 00 00 00 00 00 00 00 00 00 ................
00400AD0 00 00 00 00 00 00 00 00 00 00 00 00 00 00 00 00 ................
00400AE0 00 00 00 00 00 00 00 00 00 00 00 00 00 00 00 00 ................
00400AF0 00 00 00 00 00 00 00 00 00 00 00 00 00 00 00 00 ................
00400B00 00 00 00 00 00 00 00 00 00 00 00 00 00 00 00 00 ................
00400B10 00 00 00 00 00 00 00 00 00 00 00 00 00 00 00 00 ................
00400B20 00 00 00 00 00 00 00 00 00 00 00 00 00 00 00 00 ................
00400B30 00 00 00 00 00 00 00 00 00 00 00 00 00 00 00 00 ................
00400B40 00 00 00 00 00 00 00 00 00 00 00 00 00 00 00 00 ................
00400B50 00 00 00 00 00 00 00 00 00 00 00 00 00 00 00 00 ................
00400B60 00 00 00 00 00 00 00 00 00 00 00 00 00 00 00 00 ................
00400B70 00 00 00 00 00 00 00 00 00 00 00 00 00 00 00 00 ................
00400B80 00 00 00 00 00 00 00 00 00 00 00 00 00 00 00 00 ................
00400B90 00 00 00 00 00 00 00 00 00 00 00 00 00 00 00 00 ................
00400BA0 00 00 00 00 00 00 00 00 00 00 00 00 00 00 00 00 ................
00400BB0 00 00 00 00 00 00 00 00 00 00 00 00 00 00 00 00 ................
00400BC0 00 00 00 00 00 00 00 00 00 00 00 00 00 00 00 00 ................
00400BD0 00 00 00 00 00 00 00 00 00 00 00 00 00 00 00 00 ................
00400BE0 00 00 00 00 00 00 00 00 00 00 00 00 00 00 00 00 ................
00400BF0 00 00 00 00 00 00 00 00 00 00 00 00 00 00 00 00 ................
00400C00 00 00 00 00 00 00 00 00 00 00 00 00 00 00 00 00 ................
00400C10 00 00 00 00 00 00 00 00 00 00 00 00 00 00 00 00 ................
00400C20 00 00 00 00 00 00 00 00 00 00 00 00 00 00 00 00 ................
00400C30 00 00 00 00 00 00 00 00 00 00 00 00 00 00 00 00 ................
00400C40 00 00 00 00 00 00 00 00 00 00 00 00 00 00 00 00 ................
00400C50 00 00 00 00 00 00 00 00 00 00 00 00 00 00 00 00 ................
00400C60 00 00 00 00 00 00 00 00 00 00 00 00 00 00 00 00 ................
00400C70 00 00 00 00 00 00 00 00 00 00 00 00 00 00 00 00 ................
00400C80 00 00 00 00 00 00 00 00 00 00 00 00 00 00 00 00 ................
00400C90 00 00 00 00 00 00 00 00 00 00 00 00 00 00 00 00 ................
00400CA0 00 00 00 00 00 00 00 00 00 00 00 00 00 00 00 00 ................
00400CB0 00 00 00 00 00 00 00 00 00 00 00 00 00 00 00 00 ................
00400CC0 00 00 00 00 00 00 00 00 00 00 00 00 00 00 00 00 ................
00400CD0 00 00 00 00 00 00 00 00 00 00 00 00 00 00 00 00 ................
00400CE0 00 00 00 00 00 00 00 00 00 00 00 00 00 00 00 00 ................
00400CF0 00 00 00 00 00 00 00 00 00 00 00 00 00 00 00 00 ................
00400D00 00 00 00 00 00 00 00 00 00 00 00 00 00 00 00 00 ................
00400D10 00 00 00 00 00 00 00 00 00 00 00 00 00 00 00 00 ................
00400D20 00 00 00 00 00 00 00 00 00 00 00 00 00 00 00 00 ................
00400D30 00 00 00 00 00 00 00 00 00 00 00 00 00 00 00 00 ................
00400D40 00 00 00 00 00 00 00 00 00 00 00 00 00 00 00 00 ................
00400D50 00 00 00 00 00 00 00 00 00 00 00 00 00 00 00 00 ................
00400D60 00 00 00 00 00 00 00 00 00 00 00 00 00 00 00 00 ................
00400D70 00 00 00 00 00 00 00 00 00 00 00 00 00 00 00 00 ................
00400D80 00 00 00 00 00 00 00 00 00 00 00 00 00 00 00 00 ................
00400D90 00 00 00 00 00 00 00 00 00 00 00 00 00 00 00 00 ................
00400DA0 00 00 00 00 00 00 00 00 00 00 00 00 00 00 00 00 ................
00400DB0 00 00 00 00 00 00 00 00 00 00 00 00 00 00 00 00 ................
00400DC0 00 00 00 00 00 00 00 00 00 00 00 00 00 00 00 00 ................
00400DD0 00 00 00 00 00 00 00 00 00 00 00 00 00 00 00 00 ................
00400DE0 00 00 00 00 00 00 00 00 00 00 00 00 00 00 00 00 ................
00400DF0 00 00 00 00 00 00 00 00 00 00 00 00 00 00 00 00 ................
00400E00 00 00 00 00 00 00 00 00 00 00 00 00 00 00 00 00 ................
00400E10 00 00 00 00 00 00 00 00 00 00 00 00 00 00 00 00 ................
00400E20 00 00 00 00 00 00 00 00 00 00 00 00 00 00 00 00 ................
00400E30 00 00 00 00 00 00 00 00 00 00 00 00 00 00 00 00 ................
00400E40 00 00 00 00 00 00 00 00 00 00 00 00 00 00 00 00 ................
00400E50 00 00 00 00 00 00 00 00 00 00 00 00 00 00 00 00 ................
00400E60 00 00 00 00 00 00 00 00 00 00 00 00 00 00 00 00 ................
00400E70 00 00 00 00 00 00 00 00 00 00 00 00 00 00 00 00 ................
00400E80 00 00 00 00 00 00 00 00 00 00 00 00 00 00 00 00 ................
00400E90 00 00 00 00 00 00 00 00 00 00 00 00 00 00 00 00 ................
00400EA0 00 00 00 00 00 00 00 00 00 00 00 00 00 00 00 00 ................
00400EB0 00 00 00 00 00 00 00 00 00 00 00 00 00 00 00 00 ................
00400EC0 00 00 00 00 00 00 00 00 00 00 00 00 00 00 00 00 ................
00400ED0 00 00 00 00 00 00 00 00 00 00 00 00 00 00 00 00 ................
00400EE0 00 00 00 00 00 00 00 00 00 00 00 00 00 00 00 00 ................
00400EF0 00 00 00 00 00 00 00 00 00 00 00 00 00 00 00 00 ................
00400F00 00 00 00 00 00 00 00 00 00 00 00 00 00 00 00 00 ................
00400F10 00 00 00 00 00 00 00 00 00 00 00 00 00 00 00 00 ................
00400F20 00 00 00 00 00 00 00 00 00 00 00 00 00 00 00 00 ................
00400F30 00 00 00 00 00 00 00 00 00 00 00 00 00 00 00 00 ................
00400F40 00 00 00 00 00 00 00 00 00 00 00 00 00 00 00 00 ................
00400F50 00 00 00 00 00 00 00 00 00 00 00 00 00 00 00 00 ................
00400F60 00 00 00 00 00 00 00 00 00 00 00 00 00 00 00 00 ................
00400F70 00 00 00 00 00 00 00 00 00 00 00 00 00 00 00 00 ................
00400F80 00 00 00 00 00 00 00 00 00 00 00 00 00 00 00 00 ................
00400F90 00 00 00 00 00 00 00 00 00 00 00 00 00 00 00 00 ................
00400FA0 00 00 00 00 00 00 00 00 00 00 00 00 00 00 00 00 ................
00400FB0 00 00 00 00 00 00 00 00 00 00 00 00 00 00 00 00 ................
00400FC0 00 00 00 00 00 00 00 00 00 00 00 00 00 00 00 00 ................
00400FD0 00 00 00 00 00 00 00 00 00 00 00 00 00 00 00 00 ................
00400FE0 00 00 00 00 00 00 00 00 00 00 00 00 00 00 00 00 ................
00400FF0 00 00 00 00 00 00 00 00 00 00 00 00 00 00 00 00 ................
00401000 74 FF 74 FF FF 74 FF FF 34 08 8B DE 0B F1 8B F3 t.t..t..4.......
00401010 4B 47 0B F8 47 0B F9 43 4E 8B F3 59 0F 8C 1E 03 KG..G..CN..Y....
00401020 00 00 8D 1B 8D 00 0F 8D 14 03 00 00 FF 25 FF FF .............%..
00401030 74 25 25 4F 0B F2 47 8B CB C1 E0 03 0B DF 41 0B t%%O..G.......A.
00401040 DF 49 0B DE 8B F8 42 8B CA 46 8B F1 0B FE 64 FF .I....B..F....d.
00401050 30 0B FB 0F 8E 8F 01 00 00 F3 57 5F 0F 8F 86 01 0.........W_....
00401060 00 00 FF 25 E8 E8 4A 41 4A 42 81 C0 DF 63 3C 2E ...%..JAJB...c<.
00401070 4E 0A F2 81 F8 7A C6 F5 72 75 EE 4F 47 0B D1 48 N....z..ru.OG..H
00401080 0B C7 4F 8B D8 0F 88 5F 02 00 00 76 00 F2 0F 89 ..O...._...v....
00401090 56 02 00 00 74 E8 74 E8 FF E8 74 74             V...t.t...tt   

l0040109C:
	dec	ebx
	or	ebx,edx
	inc	esi
	dec	ecx
	inc	ebx
	dec	ecx
	or	edi,ebx
	dec	edi
	mov	edi,ebx
	or	ecx,ebx
	inc	ebx
	dec	ecx
	mov	edi,eax
	dec	ecx
	mov	ebx,esi
	jbe	00401185

l004010B7:
	push	ecx
	pop	ecx
	lea	edx,[edx]
	ja	00401185

l004010C1:
	jz	004010C2

l004010C2:
	jmp	eax

l004010C3:
	call	503F853C
004010C4             74 74 FF 4F 46 0B DA 8B D3 47 0B FE     tt.OF....G..
004010D0 8B FA 0F B6 C0 4F 0B D9 8B D3 47 8B D6 0B DA 8B .....O....G.....
004010E0 D0 4B 46 0F 8E 88 02 00 00 53 5B 52 5A 0F 8F 7E .KF......S[RZ..~
004010F0 02 00 00 FF E8 FF FF FF FF E8 25 0B D0 46 4F 43 ..........%..FOC
00401100 8B D7 42 8B F8 0B FB 43 8B FA 46 0B D8 4E 46 8B ..B....C..F..NF.
00401110 D9 0F 88 FC 01 00 00 F2 0F 89 F5 01 00 00 25 FF ..............%.
00401120 FF 25 74 FF E8 FF 0B F0 4B 8B D3 49 8B F9 43 83 .%t.....K..I..C.
00401130 E0 03 47 4F 46 0B F3 8B C8 0B FE 43 8B F8 42 0B ..GOF......C..B.
00401140 F2 0F 88 EC FE FF FF F2 7D 00 0F 89 E3 FE FF FF ........}.......
00401150 25 74 74 E8 74 25 0B F3 B5 87 46 2A FE 0B CA 32 %tt.t%....F*...2
00401160 D9 8A DC 0B DA 8B FB 8B D6 4B 0B DF 47 0F 8C A2 .........K..G...
00401170 02 00 00 E9 00 00 00 00 0F 8D 97 02 00 00 E8 25 ...............%
00401180 FF 74 FF FF FF                                  .t...          

l00401185:
	dec	ebx
	or	esi,edx
	mov	edi,edx
	dec	esi
	mov	esi,ebx
	dec	edi
	inc	edi
	or	ebx,ecx
	mov	ecx,ebx
	mov	cl,dh
	mov	bh,71
	mov	edi,esi
	inc	ebx
	jle	0040125B

l004011A0:
	jmp	004011A5

l004011A5:
	lea	ebx,[ebx]
	jg	0040125B

l004011AD:
	jmp	eax
004011AF                                              74                t
004011B0 E8 E8 25 FF E8 8B DA 43 4E 8B F2 4B 0B FE 8B F2 ..%....CN..K....
004011C0 0B F9 43 0B D0 47 4F 0B F3 8B DE 46 81 E9 EE EE ..C..GO....F....
004011D0 EE EE 8B F8 0F 8E 21 FF FF FF F2 0F 8F 1A FF FF ......!.........
004011E0 FF 74 E8 E8 25 E8 25 E8 4B 8B D1 4B 0B DF 4E 47 .t..%.%.K..K..NG
004011F0 4B 41 0B D6 4F 0B DA 42 0B FB 49 0F 88 6F 02 00 KA..O..B..I..o..
00401200 00 8B FF 8D 36 0F 89 65 02 00 00 74 74 74 74 25 ....6..e...tttt%
00401210 25 0B C1 47 0B D0 8B F3 43 49 0B C7 49 47 49 0B %..G....CI..IGI.
00401220 C6 41 4F 41 4A E9 CB 02 00 00 47 8B DF 0B F9 8B .AOAJ.....G.....
00401230 F1 43 49 F7 D0 8B C8 0B D0 41 4B 0B CB 8B CA 47 .CI......AK....G
00401240 0B FE 4F 42 8B FE 0F 84 DA FE FF FF 8B DB 90 0F ..OB............
00401250 85 D1 FE FF FF E8 FF FF FF FF 74                ..........t    

l0040125B:
	sub	bh,dh
	sub	cl,bl
	mov	esi,ebx
	add	ch,dl
	sub	bl,cl
	mov	cl,EB
	inc	esi
	mov	bh,2F
	or	bl,bh
	inc	edi
	mov	ch,bl
	inc	ebx
	xor	bh,bl
	inc	edi
	js	004014BE

l00401279:
	rep	
	lea	eax,[eax]
	jns	004014BE
	call	E865FB86
	call	5A1F1DD3
	mov	edi,ebx
	inc	edi
	dec	esi
	inc	ebx
	or	ebx,eax
	dec	ebx
	inc	edi
	dec	ebx
	mov	ebx,edx
	dec	edx
	and	ecx,EEEEEEEE
	mov	ebx,esi
	or	ebx,eax
	dec	edx
	inc	edx
	jle	004011B5
	nop	
	jg	004011B5
	push	dword ptr [eax+ebp*8-18]

fn004012B6()
	or	esi,ebx
	mov	ecx,eax
	or	ebx,eax
	mov	edi,ebx
	inc	ebx
	dec	edi
	mov	edi,ebx
	or	edi,eax
	inc	ecx
	dec	ecx
	mov	ecx,esi
	inc	edi
	or	esi,edi
	inc	esi
	mov	edi,ecx
	dec	edi
	inc	edi
	jle	0040109C

l004012D6:
	jmp	004012DC
004012DB                                  07                        .   

l004012DC:
	jg	0040109C

l004012E2:
	call	7540120C
	jz	0040130E
	and	eax,4AD00B41
	or	eax,edx
	inc	edi
	dec	esi
	or	esi,ebx
	inc	esi
	dec	eax
	mov	eax,esi
	dec	edx
	mov	eax,esp
	mov	ebx,esi
	or	esi,eax
	mov	edx,ecx
	dec	edx
	jz	0040122A
	repne	
	jnz	0040122A
	call	4E658788
	or	edx,edi
	or	ecx,ecx
	jz	0040131B
	ret	
	inc	ebx
	dec	esi
	inc	eax
	or	edx,eax
	dec	ecx
	mov	ecx,edi
	dec	esi
	or	edi,edx
	dec	ebx
	inc	edx
	mov	esi,ecx
	jpe	00401211
	lea	eax,[eax]
	jpo	00401211
	and	eax,25747474
	and	eax,0B47FF74
	lock	
	dec	ebx
	mov	edx,esi
	inc	edx
	or	edi,esi
	dec	edx
	mov	edx,eax
	inc	ebx
	dec	edi
	mov	edi,eax
	inc	edx
	shl	eax,03
	dec	esi
	or	edi,ebx
	mov	edi,edx
	inc	edi
	or	ebx,esi
	mov	edi,ecx
	jbe	00401448
	lea	edx,[edx]
	ja	00401448
	call	26291359
	dec	esi
	or	ebx,ecx
	mov	edx,eax
	or	edi,ecx
	inc	edx
	or	ebx,eax
	mov	esi,ecx
	dec	ebx
	or	ebx,edx
	push	dword ptr [eax+ecx]
	mov	edx,eax
	inc	edx
	or	edx,esi
	dec	esi
	or	ebx,edx
	inc	esi
	jz	004013F5
	push	eax
	pop	eax
	jnz	004013F5
	jz	004013B9
	jmp	eax
	and	eax,43257474
	or	edx,esi
	dec	edx
	mov	esi,ecx
	dec	ebx
	mov	ecx,[ecx]
	dec	ebx
	or	esi,ebx
	dec	esi
	or	ebx,edi
	mov	esi,ecx
	inc	edi
	mov	ebx,ecx
	inc	esi
	or	edx,esi
	inc	edi
	mov	edx,eax
	jpe	004013C0
	lea	ecx,[ecx]
	jns	004013BA
	jpo	004013C0
	jz	004013BD
	jz	004013A8
	dec	edi
	mov	esi,edi
	push	dword ptr [ecx+08]
	mov	ebx,ecx
	dec	ebx
	or	ebx,esi
	mov	ebx,edi
	or	edi,ecx
	mov	edx,ebx
	or	edi,edx
	dec	ebx
	mov	edx,edi
	dec	ebx
	mov	ebx,esi
	inc	ebx
	mov	ebx,esi
	dec	edx
	jl	00401288
	push	edi
	pop	edi
	mov	edx,edx
	jge	00401288
	call	25B513DA
	jz	00401468
	call	47381F44
	dec	ebx
	or	edx,esi
	mov	ebx,eax
	inc	edi
	dec	edi
	pop	ecx
	inc	edi
	dec	edx
	mov	ebx,ecx
	dec	edx
	mov	ebx,edi
	jbe	0040139A
	rep	
	lea	esi,[esi]
	ja	0040139A
	and	eax,25FF25FF
	jz	00401421
	ret	
	mov	edx,esi
	inc	esi
	mov	ecx,edx
	inc	ebx
	mov	esi,ebx
	or	esi,edx
	dec	edi
	mov	edi,esi
	mov	eax,6F53274B
	dec	esi
	inc	edx
	dec	edi
	inc	edx
	dec	ebx
	or	ebx,edx
	mov	edx,eax
	dec	ebx
	or	edx,esi
	jbe	00401066
	lea	esi,[esi]
	repne	
	ja	00401066
	call	4B65FC6E
	inc	edx
	dec	edx
	mov	edi,ebx
	inc	ebx
	or	ebx,edx
	inc	esi
	or	eax,10
	or	ebx,edx
	mov	edi,ebx
	dec	esi
	inc	esi
	mov	edx,ecx
	inc	edx
	jc	004010C7
	lea	ecx,[ecx]
	jnc	004010C7
	jz	00401492
	call	D0CC145A
	dec	esi
	or	ecx,eax
	dec	esi
	pop	ecx
	inc	esi
	or	ebx,ecx
	inc	ebx
	mov	edx,eax
	inc	edx
	mov	edx,ebx
	dec	edi
	inc	edi
	or	edx,ecx
	mov	esi,ebx
	jbe	00401491
	push	edx
	pop	edx
	rep	
	ja	00401491
	call	4F288991
	inc	edi
	or	ebx,esi
	mov	ebx,ecx
	dec	ebx
	inc	edi
	shl	eax,01
	mov	edi,eax
	dec	esi
	or	esi,ebx
	dec	edx
	mov	esi,ecx
	or	ebx,esi
	inc	ebx
	mov	ebx,esi
	dec	ebx
	mov	ebx,esi
	jbe	00401007
	repne	
	ja	00401007
	call	FF653A31
	jz	00401508

l004014BE:
	dec	ecx
	or	ch,bh
	xor	bh,ch
	sub	bh,dl
	or	esi,eax
	dec	ebx
	inc	edi
	or	ebx,esi
	mov	edi,ecx
	mov	bl,al
	xor	ch,dl
	mov	ecx,ebx
	or	bl,bh
	or	ecx,ebx
	xor	ch,cl
	or	ecx,edi
	mov	bl,bh
	sub	ch,dh
	mov	bl,A0
	jz	00401156
	rep	
	jnz	00401156
	push	dword ptr [esp+esi*2+74]
	and	eax,FAE8E8FF
	or	al,[eax]
	add	[eax+70],dh
	xor	esi,[ebx]
	cmpsd	
	push	ds
	enter	9693,CE
	outsd	
	sbb	[esi],cl
	stosd	
	sub	ebp,[ebx]
	sub	ebx,[esi]
	mov	ds,[esi+29179A4E]
	xchg	eax,esp
	sub	ebp,[ebx]
	xchg	eax,esi
	enter	3C93,3F
	xchg	eax,esp
	sub	ebp,[ebx]
	push	ds
	illegal	
	lahf	
	xchg	eax,esi
	rcl	byte ptr [ebx+9DC533DB],01
	sub	ebp,[ebx]
	sbb	al,D0
	das	
	push	ss
	outsb	
	sub	esp,[edi+3E661E97]
	xchg	eax,esi
	push	ds
	cmpsb	
	wait	
	xchg	eax,esi
	mov	al,[92B93C93]
	sub	ebp,[ebx]
	xor	esi,[eax-59]
	jo	004015B5
	sub	dh,[ebx]
	jpo	004014D9
	sub	ebp,[ebx]
	sub	bl,[ebx+18]
	sar	byte ptr [ebx],01
	fistp	dword ptr [eax]
	shl	byte ptr [edi],01
	fstp	tword ptr [ebp+B32BBD2B]
	adc	ecx,edx
	retf	
	dec	ebx
	xor	edi,[esi]
	xchg	eax,ebp
	sub	ebp,[ebx]
	mov	bl,E1
	sub	dh,[edi+66]
	illegal	
	cwde	
	nop	
	sub	ebp,[ebx]
	sub	bl,[ebx+18]
	shl	byte ptr [edi],01
	illegal	
	adc	ecx,edx
	retf	
	dec	ebx
	cmp	al,4B
	sub	ebp,[ebx]
	sub	esi,[eax-59]
	sub	dh,[ebx]
	cmpsd	
	jo	00401560
	xor	esp,[edi+edx*4]
	sub	ebp,[ebx]
	sub	bl,[ebx-3D]
	cld	
	xchg	eax,edi
	sub	ebp,[ebx]
	sub	ebx,[edx+2B92AE17]
	sub	esp,ebx
	xchg	eax,ebx
	sub	ebp,[ebx]
	sub	edi,[esp+ebx*4]
	nop	
	sub	ebp,[ebx]
	illegal	
	mov	bl,13
	retf	4BCB
	xor	ecx,[ebx]
	xchg	eax,ebp
	sub	ebp,[ebx]
	mov	bl,B2
	xor	ebp,[eax+51]
	cmp	al,3D
	xchg	eax,edi
	sub	ebp,[ebx]
	sub	ch,[edx]
	jo	0040162C
	xor	esi,[ebx]
	xor	ebx,[edx+2B948A10]
	sub	edi,ebp
	cmp	al,CA
	nop	
	sub	ebp,[ebx]
	xor	eax,ebp
	xchg	eax,ebp
	sub	ebp,[ebx]
	jle	00401630
	mov	al,[95D2338D]
	sub	ebp,[ebx]
	cmp	al,95
	xchg	eax,esp
	sub	ebp,[ebx]
	inc	dword ptr [ebx+esi-66]
	pop	ss
	ficom	word ptr [ebp+5C862B2B]
	cmp	al,3A
	sub	ebp,[ebx]
	sub	eax,[ebx+edx*8]
	push	esp
	dec	ebx
	xchg	eax,ebx
	illegal	
	pop	ecx
	sub	ebp,[ebx]
	sub	esi,[ebx]
	cmpsd	
	cmpsd	
	xor	ebp,[edx]
	cmpsd	
	cmpsd	
	sub	ch,[edx]
	mov	al,[83D11A93]
	sub	ah,[eax+8FD11A9B]
	xchg	eax,ecx
	push	ds
	popa	
	outsb	
	and	eax,C9CA63A0
	into	
	pop	esp
	push	ebp
	lahf	
	sub	eax,eax
	push	ds
	aas	
	push	ss
	push	edi
	das	
	mov	cl,C2
	cmp	al,40
	sub	[edx],ebp
	sub	dh,[eax+70]
	sub	dh,[ebx]
	jo	0040165A
	rcr	byte ptr [esi],3F
	mov	cl,C2
	push	ds
	test	al,9F
	mov	bh,1E
	mov	[ebx+2B],bh
	sub	ebp,[ebx]
	push	ds
	into	
	lahf	
	push	ds
	mov	byte ptr [edi+3E9FA61E],95
	push	edi
	push	ds
	ror	dword ptr [edi+EEA0526E],01
	illegal	
	jo	0040168C
	cmpsd	
	jo	00401686
	sub	dh,[eax+33]
	xchg	eax,esp
	sub	ebp,[ebx]
	mov	bl,54
	jns	004016AA
	and	al,DB
	xor	ebx,[eax+2A2B2B97]
	pop	ebx
	push	ds
	sar	byte ptr [ebx],01
	pop	esp
	push	ebp
	xchg	eax,edi
	sub	eax,eax
	push	ds
	aas	
	push	ss
	push	edi
	daa	
	sbb	al,dl
	das	
	fist	dword ptr [eax+ebp*4]
	lahf	
	sub	ch,[edx]
	sub	ebp,[ebx]
	cmp	al,08
	xchg	eax,ebp
	sub	ebp,[ebx]
	cmpsd	
	sub	ch,[edx]
	jo	004016BC
	xchg	eax,esi
	imul	ebp,[edi+1E],6B
	jnc	0040162F
	push	esp
	sbb	al,D0
	pop	ebx
	sub	ah,[eax+332BBD33]
	rcl	[esi+D01C2B2B],cl
	inc	edi
	push	ds
	enter	964B,CE
	outsd	
	adc	al,56
	mov	edx,[ebx+ebp+9FCE1E2B]
	xchg	eax,esi
	enter	3C4B,77
	nop	
	sub	ebp,[ebx]
	sub	ah,[edi+703333A7]
	xor	eax,edi
	xchg	eax,esp
	sub	ebp,[ebx]
	push	2B2BA82B
	cmpsb	
	popf	
	stosd	
	das	
	nop	
	cmpsb	
	xchg	eax,ecx
	push	ss
	and	ebp,[edx+D4D495A2]
	add	[esi],bl
	push	eax
	out	94,al
	rcr	dword ptr [esi],22
	cmp	al,8B
	xchg	eax,esp
	sub	ebp,[ebx]
	xor	esi,[eax+2A]
	cmpsd	
	jo	00401725
	xor	esp,[edi+332FA02A]
	scasb	
	sub	ch,[edx]
	sub	bh,dh
	push	ss
	imul	ebp,[ebx],90E6109A
	sub	ebp,[ebx]
	push	ss
	push	esi
	xchg	[esi],edx
	scasb	
	lahf	
	sub	ebx,[edx+2A299D10]
	sub	cl,dl
	leave	
	into	
	pop	esp
	push	ebp
	xchg	eax,edi
	sub	eax,eax
	push	ds
	aas	
	mov	cl,C2
	push	ds
	enter	3C93,C5
	xchg	eax,edx
	sub	ebp,[ebx]
	jo	0040179A
	xor	ebp,[edx]
	sub	al,cl
	ret	A01E
	xchg	eax,ebx
	push	ds
	sub	[esi],ebx
	fcomp	dword ptr [edi+149BC01E]
	push	esp
	inc	ebp
	xchg	eax,edi
	sub	ebp,[ebx]
	cmp	al,A9
	xchg	eax,edx
	sub	ebp,[ebx]
	adc	al,3C
	inc	ebp
	xchg	eax,edi
	sub	ebp,[ebx]
	inc	esp
	sbb	eax,8624AB5D
	xchg	eax,ebp
	pop	ecx
	inc	ebp
	jmp	00401774
	pop	ebp
	inc	ebp
	push	ebx
	int	03
	cmp	al,C6
	xchg	eax,edx
	sub	ebp,[ebx]
	xor	ebp,[edx]
	sub	dh,[ebx]
	call	far 2B96:2710
	sub	ebx,[esi]
	shl	byte ptr [ebx],01
	retf	CEC9
	pop	esp
	push	ebp
	wait	
	sub	eax,eax
	push	ds
	aas	
	mov	byte ptr [esi],D8
	lahf	
	push	ds
	enter	3C93,9C
	xchg	eax,ebp
	sub	ebp,[ebx]
	cmp	al,48
	xchg	eax,esp
	sub	ebp,[ebx]
	jo	004017BD
	sub	dh,[eax+70]
	xor	ebp,ebx
	xchg	eax,ebp
	sub	ebp,[ebx]
	push	ds
	illegal	
	lahf	
	xchg	eax,esi
	ror	byte ptr [ebx+2A],01
	cmpsb	
	ja	004017C6
	cmpsb	
	xchg	eax,ebx
	illegal	
	in	al,dx
	xchg	eax,ecx
	sub	ebp,[ebx]
	int	03
	push	ss
	push	esi
	jnc	00401785
	sahf	
	pop	esp
	call	far 2B93:8810
	sub	ebp,[edx]
	mov	al,[47A02A33]
	cmp	al,95
	xchg	eax,ecx
	sub	ebp,[ebx]
	sub	ch,[edx]
	xor	esi,[eax+33]
	sbb	dl,al
	dec	edi
	sub	ah,[esi+8FA62A63]
	sub	ah,[esi+8FA62A63]
	sub	ah,[esi+92AB338F]
	sub	ebp,[ebx]
	xor	edx,[eax-70]
	sub	ebp,[ebx]
	xor	ebx,[edi+1C2B2B95]
	ror	byte ptr [ebx-49],01
	push	ds
	cwde	
	jpo	00401815
	sub	ebp,[ebx]
	sbb	al,D4
	xchg	eax,ebx
	sub	ah,[eax+4BA02A4F]
	xor	eax,[ebx]
	xchg	eax,edx
	sub	ebp,[ebx]
	push	ds
	enter	9647,CE
	outsd	
	cmp	al,FF
	xchg	eax,edx
	sub	ebp,[ebx]
	cmpsd	
	xor	esp,[edi+332A7033]
	jle	00401849
	test	ecx,2B96873C
	sub	edx,[ebp+1D90A045]
	adc	ecx,66564585
	pop	esp
	aam	33
	cmp	[edx],ebp
	sub	ch,[edx]
	xchg	[ebx+esi+32],bl
	sub	ch,[edx]
	sub	ah,[ebp+AF7E5625]
	ja	004018A9
	cmp	al,69
	nop	
	sub	ebp,[ebx]
	sub	dh,[eax+70]
	cmpsd	
	cmpsd	
	sub	bl,[edx+2B976815]
	sub	ecx,edx
	leave	
	into	
	pop	esp
	push	ebp
	xchg	eax,ebx
	sub	eax,eax
	push	ds
	aas	
	mov	byte ptr [edi+2B7B801E],2B
	sub	ebx,[esi]
	lds	ebx,[edi+56164D1E]
	lahf	
	push	ds
	lds	ebx,[edi+503C851E]
	xchg	eax,esi
	sub	ebp,[ebx]
	cmpsd	
	jo	00401815
	jo	0040189A
	fld	tword ptr [edx]
	mov	al,[950A3347]
	sub	ebp,[ebx]
	lahf	
	sub	ah,[eax+A02ADB37]
	inc	edi
	xor	ebx,[esi-6C]
	sub	ebp,[ebx]
	and	dl,al
	das	
	wait	
	sub	ebp,[ebx]
	sub	ebx,[edx+2A2ACE17]
	sub	ch,[edx]
	mov	al,[91EF334B]
	sub	ebp,[ebx]
	sub	ah,[eax+4BA02A4F]
	xor	ebp,[esi]
	xchg	eax,edi
	sub	ebp,[ebx]
	push	ds
	enter	9647,CE
	outsd	
	sbb	dh,cl
	sub	dword ptr [edx],A6
	arpl	[esp+ebx*4],bx
	sub	ch,[edx]
	sub	ch,[edx]
	jo	00401862
	xor	esi,[eax+70]
	xor	edi,[esi]
	wait	
	rcl	[ebx+esi-66],cl
	push	esp
	dec	ebx
	call	far 1493:E29A
	cmp	al,D8
	int	2B
	sub	ebx,[esi+1C3FA05C]
	ror	byte ptr [ebx+2F],01
	mov	bl,2B
	sub	ebp,[ebx]
	sub	ebx,[edx]
	shr	byte ptr [edi],01
	mov	bl,B4
	inc	edi
	mov	[23D01A59],eax
	mov	bl,5F
	pop	edi
	pop	edi
	pop	edi
	cmp	al,6F
	xchg	eax,edi
	sub	ebp,[ebx]
	cmpsd	
	xor	esi,[eax+70]
	xor	esi,[eax+70]
	push	ds
	shl	[edi-6A],cl
	push	ebp
	int	03
	call	far 1ED3:9FE2
	ror	[edi+971E5596],cl
	adc	edx,[esi+2A673C55]
	sub	ch,[edx]
	xchg	eax,ebp
	jmp	004018E4
	push	ss
	push	ecx
	xchg	eax,edi
	aam	6E
	fsubr	dword ptr [edi]
	cmp	al,88
	sub	ch,[edx]
	sub	dh,[ebx]
	xor	esp,[edi+A27070A7]
	xchg	eax,edx
	sub	ah,[eax+3E2BBD9F]
	jz	004018F1
	sub	ebx,[eax]
	shl	byte ptr [edi],01
	fld	tword ptr [edx]
	mov	al,[13B3DB9F]
	retf	4BCB
	xor	edx,[edx+B32A2A2A]
	leave	
	push	edi
	and	bh,[ecx]
	illegal	
	jl	004018E4
	sub	ebp,[ebx]
	sub	bl,[ebx+2A]
	mov	al,[CA13B393]
	retf	
	dec	ebx
	cmp	al,51
	nop	
	sub	ebp,[ebx]
	sub	dh,[ebx]
	jo	00401998
	push	ds
	rcr	byte ptr [ebx+852A4060],01
	pusha	
	push	esp
	push	ebx
	test	[eax-5B],bh
	xor	al,01
	xchg	[eax+edx*8],ebx
	wait	
	inc	bp
	and	ah,[eax+8CD71D9F]
	sub	bl,[B7138D77]
	mov	[edx],gs
	adc	edx,[edi+5C9EDC8D]
	mov	al,[555CCE40]
	lahf	
	sub	eax,eax
	push	ds
	aas	
	cmp	al,1B
	sub	[edx],ch
	sub	dh,[ebx]
	xor	esi,[eax+2A]
	cmpsd	
	jo	004019CE
	mov	byte ptr [ebx],BB
	sub	[edx],ch
	sub	cl,dh
	in	al,dx
	sub	ebx,[ebx+C01E2B2B]
	inc	ebx
	push	ds
	rcr	byte ptr [edi+5C],01
	push	ds
	daa	
	push	ss
	push	ecx
	wait	
	mov	bl,2B
	imul	ebp,[ebx],2B
	sbb	al,DF
	ja	004019B0
	sbb	bh,bl
	ja	004019B4
	les	ebx,[edi+eax*8]
	ja	004019B9
	sbb	bh,al
	ja	004019BD
	lds	edi,[ebp+A7B63E2A]
	sub	ch,[edx]
	xor	esi,[ebx]
	sub	bl,[esi]
	test	[esi-15],esp
	outsb	
	inc	esi
	call	far 2B95:DF10
	sub	ecx,esi
	pop	esp
	push	ebp
	xchg	eax,edi
	sub	eax,eax
	push	ds
	aas	
	mov	ebp,7B2BB36B
	sub	ebp,[ebx]
	sbb	al,dl
	lahf	
	fstp	tword ptr [ebp+93D0182B]
	fstp	tword ptr [esi+ebp*4]
	xchg	eax,esi
	sub	ebp,[ebx]
	sub	dh,[ebx]
	sub	dh,[ebx]
	xor	eax,eax
	push	ds
	aas	
	push	ss
	push	edi
	pop	edi
	mov	byte ptr [ebp+1E649A2B],53
	adc	al,34
	sub	ch,[ebx]
	sub	ebp,[ebx]
	mov	ebp,95403C94
	sub	ebp,[ebx]
	push	cs
	dec	esp
	pop	ebx
	dec	esi
	xchg	eax,edi
	ja	00401A7B
	xchg	eax,edi
	ja	00401A79
	push	esp
	cmp	al,E5
	xchg	eax,ebp
	sub	ebp,[ebx]
	xor	esi,[ebx]
	cmpsd	
	xor	ebx,ebx
	mov	bl,13
	retf	4BCB
	xor	ebx,[ecx+ebp+FEB32A2A]
	mov	bl,96
	daa	
	illegal	
	jle	00401A79
	sub	ebp,[ebx]
	fist	dword ptr [esi-40]
	push	ds
	aas	
	rol	edx,1E
	fcomp	dword ptr [ebx+1E9FA01E]
	test	al,93
	idiv	dword ptr es:[esi+esi*2]
	nop	
	sub	ebp,[ebx]
	jo	00401A9C
	xor	esi,[ebx]
	cmpsd	
	sub	ah,[edi+977A129A]
	sub	ebp,[ebx]
	retf	CEC9
	pop	esp
	push	ebp
	xchg	eax,ebx
	sub	eax,eax
	push	ds
	aas	
	push	ss
	push	edi
	das	
	mov	cl,C2
	push	ds
	rcl	byte ptr [ebx+1E6F6B96],01
	rcl	byte ptr [ebx+96A36B1E],55
	push	ds
	and	ebx,[esi]
	mov	ebx,94413C8B
	sub	ebp,[ebx]
	sub	ch,[edx]
	cmpsd	
	sub	ah,[edi+4633DB2A]
	sub	ch,[edx]
	sub	ch,[edx]
	pop	ebx
	ret	
	cld	
	xchg	eax,edi
	sub	ebp,[ebx]
	sub	ebx,[edx+2A2D3F17]
	sub	ah,bl
	xchg	eax,esi
	sub	ebp,[ebx]
	sub	esp,[esi+45]
	mov	cl,19
	xor	esi,[ecx+5344331F]
	movsd	
	sub	al,1E
	shl	byte ptr [ebx],01
	sbb	al,D0
	inc	ebx
	push	ds
	sar	byte ptr [edi],01
	cmp	al,3F
	sub	[edx],ch
	sub	bh,[eax+esi]
	sub	[edx],ch
	sub	dh,[eax+70]
	xor	esp,[edi+5C66D2A6]
	xor	edi,[edx+28]
	sub	ch,[edx]
	call	far 2A2D:4916
	sub	ah,[esi-15]
	xor	esi,[ebp+28]
	sub	ch,[edx]
	call	far 2A2D:3716
	sub	ah,dh
	xchg	eax,ebp
	aam	FB
	wait	
	xor	eax,[ebp+852A2A28]
	jmp	00401AAD
	and	bh,[332A2A2D]
	jo	00401B80
	xor	ebp,[edx]
	cmpsd	
	xor	ebx,[ebp+edx*2-61]
	sub	eax,eax
	push	ds
	aas	
	retf	
	push	ds
	mov	al,[93A81E9F]
	das	
	in	eax,AB
	dec	si
	mul	esi
	xchg	eax,ebp
	xor	esi,[edx]
	das	
	sub	ch,[edx]
	clc	
	cmpsd	
	cmpsd	
	sub	dh,[eax+70]
	sub	dh,[ebx]
	sub	bh,[esi-30]
	xchg	[eax+edx*8],ebx
	lahf	
	sbb	al,D0
	and	ebp,[ebx+9A2B9BA8]
	pop	ss
	mov	[edi],ebp
	sub	ch,[edx]
	call	far 1C9B:D0E1
	shr	byte ptr [edi],01
	push	ds
	mov	al,[9A291E93]
	loope	00401B23
	test	[esi],bh
	fcom	double ptr [esi]
	test	al,9F
	popf	
	movsd	
	js	00401B83
	push	esi
	inc	bp
	in	al,dx
	popf	
	sub	ebp,[ebx]
	sub	esp,[edx]
	and	al,96
	inc	ebx
	xchg	eax,esi
	dec	esp
	xchg	eax,ebx
	cmpsd	
	cmpsd	
	sub	ch,[edx]
	xor	esp,[edi+4D962A33]
	push	ds
	pop	ebp
	not	dword ptr es:[esi+3D162FA0]
	popf	
	and	cl,[ebp+1E]
	pop	ebp
	idiv	dword ptr es:[esi]
	popf	
	push	ds
	fcomp	dword ptr [edi+5A3CF726]
	sub	ch,cs:[edx]
	push	ds
	shr	byte ptr [edi],01
	jl	00401B70
	and	edx,[esi]
	jmp	00401B41
	jl	00401B76
	lahf	
	push	ss
	test	al,9F
	sub	edi,[edi]
	sub	ch,cs:[edx]
	cmpsd	
	cmpsd	
	sub	ch,[edx]
	sub	bl,bl
	sbb	al,dl
	xchg	eax,ebx
	fstp	tword ptr [ebp+CA13B32A]
	retf	
	dec	ebx
	xor	edx,[ebx]
	das	
	sub	ch,[edx]
	mov	bl,EF
	lahf	
	push	ecx
	cmpsb	
	illegal	
	std	
	sub	[edx],ebp
	sub	ch,[edx]
	pop	ebx
	push	ds
	shr	byte ptr [edi],01
	pop	esp
	push	ebp
	lahf	
	sub	edi,[esp+ebp*4]
	xchg	eax,esi
	sub	ebp,[ebx]
	cmpsd	
	jo	00401C0C
	xor	esp,[edi+3FA02A70]
	sub	ah,[eax+1633C637]
	sub	ch,cs:[edx]
	and	dl,al
	das	
	xchg	eax,ebx
	sub	ebp,[ebx]
	sub	esp,[edi+3BA02A85]
	sub	ah,[eax+37A02A27]
	mov	byte ptr [ebx],62
	xchg	eax,esi
	sub	ebp,[ebx]
	sbb	al,D0
	aaa	
	sub	ah,[eax+37A02A23]
	mov	byte ptr [ebx],A8
	sub	[edx],ch
	sub	ah,[edx]
	shr	byte ptr [edi],01
	xchg	eax,edi
	sub	ebp,[ebx]
	sub	ebx,[edx+2A2FC117]
	sub	bh,[ecx+edx*8]
	das	
	sub	ch,[edx]
	sub	ch,[edx]
	cmpsd	
	jo	00401C62
	jo	00401C6D
	jmp	dword ptr [eax]
	sub	ch,[edx]
	push	ds
	fstsw	word ptr [ebx+66]
	jmp	00401C79
	xchg	eax,ebx
	push	esp
	jmp	00401BD1
	xchg	eax,esp
	push	ss
	push	esp
	xchg	eax,ebp
	mov	cl,16
	insb	
	sub	esp,[eax+2D156025]
	illegal	
	outsb	
	rcl	byte ptr [ebx+2810109A],01
	sub	ch,[edx]
	push	ds
	illegal	
	cmp	dword ptr [esp+ebx],28
	sub	ch,[edx]
	cmp	al,AF
	sub	[edx],ch
	sub	bh,[esi]
	sub	[edx],ch
	sub	dh,[eax+33]
	xor	esi,[ebx]
	cmpsd	
	xor	esp,[edi+1E2596A7]
	rol	[ebx+1E2FD81C],cl
	enter	669F,5C
	cmp	al,03
	das	
	sub	ch,[edx]
	les	ebx,[esi]
	cdq	
	xchg	eax,esi
	pop	ebp
	jmp	00401CCA
	xchg	eax,ecx
	push	esp
	jmp	00401C22
	xchg	eax,esp
	aam	AB
	insb	
	sub	esp,[eax+2D156020]
	illegal	
	outsb	
	push	esi
	call	far 2A2F:BB10
	sub	bh,[ebx+ebx*8]
	das	
	sub	ch,[edx]
	xor	esi,[ebx]
	sub	dh,[eax+1E]
	scasb	
	wait	
	xchg	eax,esi
	test	al,93
	cmp	al,D7
	sub	eax,FCF82A2A
	sub	ebp,[ebx]
	sub	ebp,[ebx+2B6086A7]
	sub	ebp,[ebx]
	stosd	
	fld	tword ptr [edx]
	mov	al,[2CF3332F]
	sub	ch,[edx]
	cmp	al,73
	sub	eax,D0962A2A
	xchg	eax,ebx
	sbb	[ebx-6B],ch
	fstp	tword ptr [edi+eax*4]
	sub	eax,2A702A2A
	sub	ah,[edi+33337033]
	dec	esi
	xchg	eax,edi
	ja	00401C86
	inc	esi
	dec	ecx
	push	esp
	dec	esi
	xchg	eax,edi
	ja	00401D3D
	push	esp
	call	far DC18:543E
	xchg	eax,esp
	adc	al,2C
	jcxz	00401D17
	xchg	eax,ecx
	sub	ebx,[edx+2A288A10]
	sub	al,bl
	dec	esi
	xchg	[edi-3D],esi
	jmp	00401D4B
	lodsd	
	and	ebp,[edx]
	sub	bl,bl
	mov	dword ptr [ebx+4BCBCA13],2A2E7A33
	sub	dh,[ebx+516833B2]
	cmp	al,CE
	and	ebp,[edx]
	sub	dh,[ebx]
	xor	esi,[eax+70]
	xor	esp,[edi+B327D01A]
	pop	edi
	pop	edi
	pop	edi
	pop	edi
	sbb	dl,al
	cmp	esi,[ebx+2B2B612B]
	sbb	dl,al
	xor	esi,[ebx+2B2B612B]
	sbb	dl,al
	aaa	
	mov	bl,8A
	illegal	
	jz	00401D7F
	sbb	dl,al
	aas	
	push	ds
	ror	byte ptr [ebx-6A],01
	imul	ebp,[edi+1E],D3
	fistp	dword ptr [eax+ebx*8]
	dec	edi
	mov	ebp,4FA02A6B
	sub	ah,[eax+2B25334B]
	sub	ebp,[ebx]
	push	ds
	ror	byte ptr [ebx+1E],01
	push	ebx
	cmp	al,88
	sub	al,2A
	sub	ah,[edi+1C332AA7]
	scasd	
	ja	00401D0C
	mov	ah,5C
	push	ebp
	xchg	eax,ebx
	sub	edi,[ebp+CA13B32A]
	retf	
	dec	ebx
	xor	ebp,ebx
	sub	eax,B1B32A2A
	mov	byte ptr [ebp+3533DBD5],2F
	sub	ch,[edx]
	sub	bl,[ebx+1E]
	rcl	byte ptr [ebx+2B93555C],01
	rcr	byte ptr [esi],3F
	mov	bl,2B
	stosd	
	sub	ebp,[ebx]
	sbb	al,dl
	lahf	
	fistp	dword ptr [eax]
	rcl	byte ptr [ebx+2B1C3CDB],01
	sub	ebp,[ebx]
	sub	ch,[edx]
	cmpsd	
	sub	ch,[edx]
	cmpsd	
	cmpsd	
	xor	ecx,[edx+2A]
	sub	ch,[edx]
	push	ds
	fmul	dword ptr [ebx+1E]
	aam	6F
	push	ds
	xlat	
	xchg	eax,esp
	jnc	00401D64
	push	esp
	sbb	al,D0
	pop	edi
	push	ds
	enter	2A4B,A0
	pop	edi
	sub	ah,[eax+DA33C65B]
	and	ebp,[edx]
	sub	al,dh
	xor	esp,[eax+23]
	sub	ch,[edx]
	push	ds
	push	esi
	xchg	eax,esi
	imul	ebp,[edi+2A],BB
	cmp	al,FB
	sub	ch,cs:[edx]
	sub	ch,[edx]
	jo	00401E22
	cmpsd	
	jo	00401E2E
	jo	00401E27
	mov	al,[23D01893]
	illegal	
	adc	ecx,edx
	retf	
	dec	ebx
	xor	edx,esp
	sub	eax,C9B32A2A
	push	edi
	and	bh,[ecx]
	illegal	
	mov	dh,2F
	sub	ch,[edx]
	sub	bl,[ebx-43]
	xchg	eax,esp
	sbb	al,dl
	and	ebx,ebx
	sbb	al,dl
	daa	
	illegal	
	adc	ecx,edx
	retf	
	dec	ebx
	xor	ecx,[ebx+B32A2A2D]
	xchg	[esi+ebx*4+983CDBE4],ah
	and	ch,[edx]
	sub	dh,[eax+70]
	sub	dh,[eax-59]
	xor	esi,[ebx]
	mov	ebp,CA13B32A
	retf	
	dec	ebx
	xor	edx,[ebp+B32A2A2D]
	illegal	
	xchg	eax,esi
	daa	
	illegal	
	ja	00401E84
	sub	ch,[edx]
	sub	bl,[ebx+5C]
	push	ebp
	xchg	eax,ebx
	sub	eax,eax
	push	ds
	aas	
	push	ss
	push	edi
	das	
	sbb	al,dl
	das	
	fld	tword ptr [edx]
	mov	al,[9FD0189B]
	cmp	al,D6
	sub	[edx],ch
	sub	dh,[eax-59]
	sub	dh,[ebx]
	sub	ch,[edx]
	cmpsd	
	jo	00401E99
	inc	esi
	jle	00401E3E
	lahf	
	xchg	eax,esi
	into	
	outsd	
	sbb	[esi],cl
	or	ebp,[ebx]
	sub	ebp,[ebx]
	push	ds
	mov	ds,[esi]
	fcom	dword ptr [ebx+179A4E9E]
	dec	edx
	sub	ch,cs:[edx]
	outsb	
	fcomp	dword ptr [edi+2E41179A]
	sub	ch,[edx]
	xchg	eax,esi
	enter	3E93,A0
	push	ds
	ficom	word ptr [edi+1E933C16]
	outsd	
	xor	esi,[ebx]
	sub	dh,[eax+70]
	sub	bh,ch
	xchg	eax,esi
	inc	esp
	push	esp
	push	ebp
	xchg	eax,esi
	and	cl,[edx+44]
	adc	al,54
	inc	ebp
	xchg	eax,edi
	sub	ebp,[ebx]
	adc	al,2C
	inc	ebp
	xchg	eax,edi
	sub	ebp,[ebx]
	call	far 2A23:A110
	sub	bl,[esi]
	rcl	byte ptr [ebx+1E9FD81E],01
	rcr	byte ptr [ebx+9B649364],CA
	leave	
	cmp	al,64
	das	
	sub	ch,[edx]
	cmpsd	
	sub	dh,[eax-59]
	jo	00401E90
	push	ss
	push	ecx
	xchg	eax,ebx
	jbe	00401E89
	loop	00401E82
	call	far 14B1:23E2
	xor	ch,[edx]
	call	far 9F33:54B1
	and	bl,[ebx+16]
	and	ebp,[edi]
	mov	al,[966E9692]
	test	al,93
	xchg	eax,esp
	adc	byte ptr [esi],51
	xchg	eax,ebp
	push	ss
	cmp	al,95
	sahf	
	pop	esp
	mov	al,[97CE964C]
	push	ss
	scasb	
	xchg	eax,edi
	xchg	eax,ebx
	cmp	al,D8
	sub	ch,cs:[edx]
	sub	dh,[ebx]
	sub	ah,[edi+7533332A]
	sub	al,2A
	sub	dh,[ebx+ACBF4522]
	illegal	
	xlat	
	sub	ch,cs:[edx]
	sub	bl,[ebx+1E]
	shr	byte ptr [edi],01
	pop	esp
	push	ebp
	xchg	eax,ebx
	sub	eax,eax
	push	ds
	aas	
	push	ss
	push	edi
	and	eax,esi
	rol	edx,1E
	rcr	byte ptr [edi+2A2E333C],01
	sub	dh,[eax+33]
	jo	00401F7F
	sub	dh,[ebx]
	sub	al,al
	push	ds
	aas	
	sub	ah,[eax+B32ABD93]
	adc	ecx,edx
	retf	
	dec	ebx
	xor	esi,[edi]
	and	ebp,[edx]
	sub	dh,[ebx+40177E36]
	illegal	
	xchg	eax,ecx
	sub	ch,cs:[edx]
	sub	bl,[ebx+5C]
	push	ebp
	xchg	eax,edi
	sub	eax,eax
	push	ds
	aas	
	push	ss
	push	edi
	cmp	edi,[ecx]
	sub	[edx],ebp
	sub	dh,[eax+70]
	sub	dh,[eax+1E]
	push	edx
	retf	5CC9
	push	ebp
	lahf	
	sub	eax,eax
	push	ds
	aas	
	ret	EB66
	push	ds
	fcomp	dword ptr [edi+2693A81E]
	std	
	retf	555C
	xchg	eax,ebx
	sub	edi,[ecx+edx]
	and	[edx],ebp
	sub	ch,[edx]
	sub	ah,[edi+2AA72A2A]
	sub	ah,[esi+47A02AC7]
	sub	ah,[eax+2D06334B]
	sub	ch,[edx]
	call	far 1491:DEE2
	push	esi
	and	ebp,[ebx]
	sub	ebp,[ebx]
	cmp	al,4E
	and	ch,[edx]
	sub	al,ah
	push	ds
	illegal	
	xchg	[esi+DE1E47D0],edx
	lahf	
	xchg	eax,esi
	fmul	dword ptr [ebx+2A]
	cmpsb	
	wait	
	illegal	
	cmp	al,F3
	and	ch,[edx]
	sub	dh,[ebx]
	jo	0040201B
	xor	esi,[eax+33]
	jo	00401FEC
	and	eax,7425FFFF
	jmp	dword ptr [0B47F18B]
	repne	
	mov	cl,FC
	xor	bl,cl
	or	ecx,esi
	mov	al,ah
	or	ch,ah
	mov	ebx,eax
	sub	dl,ah
	or	ebx,eax
	mov	al,ah
	sub	dl,al
	inc	edi
	or	bl,dh
	push	40
	dec	ebx
	jo	00402254
	xchg	eax,eax
	rep	
	jno	00402254
	illegal	
	call	2A654628
	rep	
	xor	bl,ah
	inc	ecx
	mov	dh,dl
	xor	bl,bh
	sub	cl,ch
	or	ebx,ecx
	xor	ch,al
	add	bh,dl
	inc	ecx
	mov	dl,bh
	or	edi,esi
	add	bl,al
	or	bh,cl
	or	ecx,eax
	inc	ebx
	add	dh,al
	or	edi,esi
	inc	esi
	jpe	004024EF
	nop	
	lea	esi,[esi]
	jpo	004024EF
	and	eax,7474FF74
	and	eax,C80B25FF
	sub	bl,bh
	or	edi,edx
	xor	cl,dh
	sub	cl,ah
	mov	ecx,eax
	mov	bl,al
	dec	edi
	inc	ecx
	or	dh,dl
	dec	edi
	inc	ecx
	sub	bh,bl
	mov	edx,esi
	mov	[esp-08],eax
	mov	ch,dl
	dec	edi
	mov	ecx,ebx
	dec	edi
	jc	00402223
	repne	
	rep	
	jnc	00402223
	call	263F950A
	or	cl,dh
	sub	cl,dl
	add	cl,al
	mov	ch,bh
	mov	ch,BE
	xor	ch,al
	neg	bl
	mov	cl,4B
	add	cl,dl
	xor	cl,al
	or	ecx,edx
	inc	esi
	sub	ch,ah
	dec	esi
	js	004021F4
	lea	ecx,[ecx]
	jns	004021F4
	call	E8B52037
	sub	bh,ch
	or	edi,ebx
	inc	esi
	add	bl,al
	or	esi,eax
	or	bh,ah
	mov	bh,CA
	sub	bh,al
	mov	edi,eax
	add	bl,ch
	sub	bl,ah
	xor	bh,cl
	or	edi,ebx
	sub	bl,dl
	or	ebx,esi
	sub	bh,ch
	inc	edi
	pop	edx
	jc	00402853
	rep	
	mov	ch,ch
	jnc	00402853
	push	dword ptr [esp+esi*2-18]
	sub	ch,dh
	mov	cl,ch
	sub	ch,bh
	or	ecx,edx
	mov	ecx,esi
	xor	ch,dh
	mov	ch,bl
	mov	ch,2F
	or	ecx,edi
	or	ch,dl
	add	ch,bl
	sub	cl,ch
	inc	edi
	mov	ch,85
	or	esi,ebx
	jle	0040254D
	jmp	00402120
	xor	[edi],ecx
	pop	dword ptr [edi]
	add	al,00
	add	[25E87425],ah
	illegal	
	and	eax,00E8C28B
	add	[eax],al
	add	[ecx+02],cl
	sti	
	or	ecx,eax
	xor	dl,bh
	or	ch,bh
	inc	esi
	or	edx,eax
	mov	eax,esi
	inc	edi
	mov	ch,AE
	mov	edi,esi
	pop	ecx
	dec	edi
	mov	al,ch
	mov	esi,ecx
	xor	bl,bh
	dec	ebx
	jle	0040215D
	xchg	bl,bl
	jg	0040215D
	and	eax,7425E8E8
	and	eax,0BF0324B
	shl	byte ptr [edx+49C5025A],01
	xor	al,dh
	mov	ah,dl
	or	esi,ecx
	or	al,cl
	mov	bh,FD
	inc	ebx
	mov	ah,dl
	mov	dh,dl
	jl	00402519
	mov	eax,eax
	xchg	edx,edx
	jge	00402519
	and	eax,7425FF74
	and	eax,A4B4E825
	sub	ah,bh
	mov	bh,4C
	dec	ecx
	mov	ebx,eax
	xor	ch,al
	dec	ecx
	or	ch,bh
	mov	ch,2F
	mov	esi,eax
	mov	bl,1D
	mov	esi,edx
	or	cl,ah
	inc	ecx
	xor	ch,al
	inc	esi
	jc	004029C8
	jmp	004021B6
	xchg	eax,edx
	rep	
	jnc	004029C8
	jz	004021E4
	illegal	
	call	028C18D1
	cli	
	add	ch,bl
	or	bl,bh
	xor	bh,dh
	sub	bh,ah
	dec	ecx
	sub	bh,dh
	xor	bl,ch
	mov	cl,A1
	mov	bl,[edi]
	or	esi,eax
	add	ch,ah
	xor	cl,bl
	jo	0040247D
	jg	004021E6
	jnc	004021E8
	jno	0040247D
	and	eax,2574E825
	and	eax,B54EEC8A
	adc	al,8A
	jmp	far 4693:B546
	or	ch,dh
	sub	cl,ah
	mov	ch,cl
	dec	esi
	mov	bh,bl
	add	cl,dh
	mov	cl,ah
	mov	ecx,ebx
	jo	004028B0
	jmp	00402219
	jno	004028B0
	jz	00402246
	push	dword ptr [edx+eax-22]
	inc	ecx
	xor	dh,bh
	mov	dl,cl
	mov	ebx,edi
	add	cl,bh
	sub	dl,cl
	mov	bh,C6
	xor	dh,al
	mov	edx,eax
	or	bl,cl
	mov	ah,C6
	mov	ch,cl
	mov	cl,32
	mov	esi,edx
	mov	ch,dl
	jo	004026FE
	lea	ebx,[ebx]
	jno	004026FE
	call	0B3F47C9
	mov	dword ptr [ebx],B1DD0AF0
	ror	dword ptr [edx],C2
	dec	edx
	mov	cl,ch
	inc	ecx
	mov	dh,CC
	inc	eax
	xor	ch,al
	mov	ah,ch
	add	al,ah
	or	ecx,ebx
	sub	ah,bl
	inc	edx
	inc	eax
	mov	ebx,eax
	or	edx,edi
	jbe	004023B8
	mov	edx,edx
	repne	
	ja	004023B8
	jmp	dword ptr [E82525FF]
	and	eax,8BDF2AE8
	fidiv	word ptr [edi+2AF802D3]
	cli	
	inc	esi
	mov	bh,dh
	or	ebx,ecx
	sub	bl,ch
	or	bl,al
	mov	ebx,ecx
	inc	edi
	cmp	eax,0032FECB
	jnz	00402166
	mov	ebx,eax
	add	bh,dh
	sub	bl,ch
	mov	bl,ah
	jl	00402820
	rep	
	mov	ecx,ecx
	jge	00402820
	jz	004022C6
	jz	004022EE
	sub	bl,al
	mov	bl,4A
	inc	edi
	or	bh,ch
	mov	bh,al
	or	bl,dl
	push	dword ptr [edx+08]
	sub	bh,cl
	add	bl,ah
	mov	bl,cl
	mov	edi,ebx
	sub	bl,cl
	or	bl,bh
	mov	bl,al
	or	ebx,ecx
	xor	bl,bh
	or	ebx,edx
	inc	ebx
	lea	eax,[eax+78]
	jbe	00402641
	jmp	004022FA
	push	ecx
	pop	ecx
	ja	00402641
	call	E9290B7B
	call	331FAE80
	int	0A
	enter	CA8A,81
	lock	
	add	[ecx+F4B792B9],dl
	inc	ebx
	or	ebx,esi
	sub	bl,ch
	mov	ch,74
	mov	ebx,esi
	dec	ecx
	mov	esi,ebx
	xor	ch,bl
	inc	esi
	or	ecx,edi
	js	00402932
	repne	
	rep	
	jns	00402932
	call	32660C25
	jmp	far EC02:06B5
	mov	ch,C4
	or	cl,bh
	mov	ecx,eax
	or	esi,edi
	dec	esi
	or	esi,ecx
	inc	esi
	sub	ecx,4D5393FC
	dec	esi
	or	esi,ecx
	or	esi,ecx
	or	esi,eax
	or	esi,edx
	cmp	ecx,B2AC6C04
	jnz	00402942
	inc	edi
	jz	004027BE
	mov	edx,edx
	jnz	004027BE
	call	8B2922F1
	jmp	far FC02:44B5
	sub	bl,cl
	or	cl,bh
	sub	edx,6E41DD04
	or	cl,al
	mov	ebx,edx
	mov	bh,E9
	mov	ebx,ecx
	xor	bl,ah
	mov	cl,49
	xor	cl,dh
	or	edi,eax
	inc	esi
	mov	cl,B7
	mov	eax,[edx]
	jc	00402028
	mov	ebx,ebx
	mov	ecx,ecx
	jnc	00402028
	jmp	eax
	illegal	
	and	eax,00682574
	xor	[eax],al
	add	[edx],ch
	in	eax,02
	illegal	
	cli	
	add	al,bl
	xor	bh,dh
	or	edi,ecx
	add	al,ch
	or	cl,dl
	mov	dl,66
	or	bh,bl
	mov	eax,edx
	or	al,ah
	sub	bh,bl
	js	0040212E
	rep	
	nop	
	jns	0040212E
	jz	0040245B
	call	EB730C60
	mov	ch,44
	add	ch,dl
	or	ecx,edi
	mov	cl,bl
	mov	ch,A9
	mov	ch,ah
	dec	esi
	dec	eax
	mov	esi,eax
	mov	cl,DC
	dec	ecx
	sub	cl,bl
	or	cl,dl
	dec	ecx
	jbe	0040233C
	jl	0040240C
	nop	
	ja	0040233C
	call	E9284A00
	inc	dword ptr [esi+46]
	mov	edi,edx
	mov	esi,ebx
	mov	esi,eax
	add	eax,ebx
	or	bh,bl
	mov	edi,ecx
	sub	bl,ah
	xor	bl,cl
	or	edi,esi
	add	bh,ch
	or	bh,ch
	mov	ebx,edx
	jl	00402A5D
	xchg	bl,bl
	lea	eax,[eax]
	jge	00402A5D
	call	25B5236D
	dec	dword ptr [esi-73]
	nop	
	clc	
	add	[eax],al
	add	[edx],dh
	fimul	word ptr [edx+8BDA32DA]
	fimul	word ptr [ebx]
	dec	byte ptr [edx+0BFA02FB]
	illegal	
	clc	
	add	bl,dl
	mov	edi,ecx
	or	ebx,esi
	mov	esi,edx
	jc	004022C9
	push	ecx
	pop	ecx
	jnc	004022C9
	jz	00402462
	and	eax,F28BE8FF
	or	ch,bl
	sub	cl,bl
	or	ecx,edi
	sub	cl,ah
	xor	cl,bl
	or	ecx,esi
	inc	esi
	or	ecx,eax
	inc	ecx
	dec	ecx
	mov	ch,20
	add	bl,A0
	add	ch,al
	mov	ecx,edx
	mov	cl,bh
	sub	ch,ah
	mov	ch,bh
	mov	ch,2F
	jle	00402965
	lea	ebx,[ebx]
	mov	eax,eax
	jg	00402965
	call	E92849DB
	jz	0040252C
	mov	cl,56
	sub	bl,ch
	inc	edi
	or	ch,bl
	add	bh,ch
	xor	bh,al
	sub	edx,91BE22D0
	add	bl,al
	inc	esi
	dec	ecx
	mov	bl,2C
	xor	bl,ch
	or	bh,dh
	dec	edi
	mov	bl,dl
	inc	ecx
	jz	00402586
	lea	eax,[eax]
	mov	bl,bl
	jnz	00402586
	call	E8654A11
	jmp	dword ptr [02006A25]
	hlt	
	mov	bh,bl
	or	dh,ah
	mov	ch,47
	dec	edi
	xor	bh,ch
	dec	edi
	inc	edx
	or	dh,ch
	mov	edx,esi
	mov	bl,50
	or	cl,al
	jpe	00402617
	repne	
	push	edi
	pop	edi
	jpo	00402617
	call	4765998E
	dec	edx
	xor	bl,ch
	mov	edx,eax
	mov	ah,4C
	inc	esi
	dec	eax
	or	ah,bl
	shr	ecx,0F
	mov	esi,ecx
	xor	al,bh
	mov	bl,FC
	add	ah,bl
	inc	eax
	mov	ebx,esi
	dec	ebx
	or	eax,esi
	or	al,bl
	jbe	004027F0
	rep	
	ja	004027F0
	jz	0040252F
	jz	00402531
	push	dword ptr [esp+esi*2+25]
	dec	ecx
	sub	cl,bl
	mov	cl,7F
	dec	esi
	or	cl,bh
	mov	cl,dh
	add	ch,bl
	xor	cl,ch
	inc	edx
	mov	cl,85
	add	ch,cl
	mov	cl,bh
	mov	ecx,edi
	or	ecx,eax
	or	ch,bh
	xor	ch,ah
	or	esi,eax
	mov	cl,ch
	add	ch,bh
	jl	004023EA
	rep	
	nop	
	jge	004023EA
	illegal	
	and	eax,FF74FFFF
	call	C8CB22B4
	mov	edi,edx
	dec	esi
	add	bl,dh
	mov	ebx,eax
	or	bh,dh
	mov	edi,esi
	inc	esi
	mov	cl,24
	or	edi,eax
	xor	cl,ah
	xor	cl,dh
	mov	ebx,esi
	mov	ch,D3
	inc	edi
	or	ch,al
	inc	ecx
	jo	0040237C
	jge	004025AE
	rep	
	jno	0040237C
	jmp	dword ptr [74FFFFE8]
	or	esi,eax
	add	ah,bl
	sub	edx,00000512
	xor	bh,dh
	inc	esi
	or	ah,dl
	mov	ecx,esi
	or	ebx,edx
	add	cl,ah
	mov	ah,dl
	xor	ch,bl
	or	eax,edi
	add	bh,bl
	jz	0040218E
	repne	
	push	eax
	pop	eax
	jnz	0040218E
	and	eax,FFFFFFFF
	and	eax,8AFE8BE8
	illegal	
	mov	edx,edi
	movzx	edx,al
	dec	esi
	add	bl,ah
	inc	edi
	add	bh,cl
	xor	bl,al
	inc	edi
	or	esi,edi
	sub	bl,dl
	inc	ebx
	jc	00402670
	jmp	0040260D
	imul	esi,[ebx+61],74
	call	E9284B3A
	and	eax,0AF22AFF
	aam	8B
	sti	
	xor	dl,al
	inc	ebx
	sub	cl,bl
	or	ebx,eax
	call	eax
	or	dh,bl
	sub	dl,ch
	mov	dh,ch
	inc	edx
	xor	ch,bh
	js	00402061
	lea	edx,[edx]
	jns	00402061
	call	02B49B41
	std	
	mov	bl,bh
	or	bl,ah
	add	bl,dh
	mov	ebx,edi
	dec	esi
	mov	bl,DD
	or	edi,ebx
	or	bl,ch
	dec	edi
	add	bl,cl
	xor	bl,cl
	add	bh,al
	inc	ebx
	mov	bh,6B
	or	esi,edi
	dec	esi
	jl	0040278D
	nop	
	jge	0040278D
	jmp	dword ptr [FD8AE8E8]
	or	edi,ebx
	or	bl,bh
	sub	bl,al
	or	bh,dl
	movzx	ebx,ah
	dec	edi
	inc	edi
	mov	edi,edx
	shr	eax,10
	dec	edi
	dec	edi
	mov	edi,edx
	inc	esi
	dec	edi
	inc	esi
	add	eax,edx
	js	00402419
	lea	ecx,[ecx]
	jns	00402419
	illegal	
	call	0B4026A1
	fimul	word ptr [edx+0BFA0BE7]
	illegal	
	mov	bl,30
	mov	dl,7F
	mov	dl,al
	pop	eax
	sub	dh,bh
	mov	dl,4E
	xor	dh,al
	inc	edx
	mov	bh,BE
	mov	dh,bl
	mov	dl,D0
	or	edx,ecx
	jz	004025EE
	repne	
	jnz	004025EE
	jz	004026F3
	call	0B1A2947
	fld	dword ptr [ebx]
	inc	eax
	cmp	al,B7
	into	
	xor	bl,al
	or	esi,eax
	mov	bl,ED
	or	bh,al
	dec	edi
	mov	edi,eax
	or	esi,edi
	dec	edi
	add	bl,dl
	xor	bl,cl
	jbe	00402449
	rep	
	xchg	cl,cl
	ja	00402449
	and	eax,4F25FFE8
	mov	bl,9D
	inc	ebx
	mov	eax,ebx
	add	cl,ch
	dec	esi
	pop	edi
	mov	cl,F6
	mov	cl,bl
	or	bh,ch
	dec	ebx
	sub	bh,al
	inc	eax
	mov	ecx,esi
	jz	00402A90
	jmp	0040271F
	jnz	00402A90
	jz	0040274C
	jz	0040274E
	and	eax,8BFF74E8
	mov	byte ptr [edi-50],2E
	xor	dl,ch
	or	esi,ecx
	mov	ebx,ecx
	xor	cl,dh
	mov	ecx,edi
	or	cl,ch
	add	bh,cl
	sub	bh,dh
	xor	dl,ah
	inc	esi
	ret	
	add	dl,ch
	jl	004028DF
	repne	
	jge	004028DF
	jmp	eax
	jmp	eax
	jmp	eax
	jz	004027D1
	or	al,ch
	inc	ebx
	sub	al,dh
	inc	eax
	add	ah,cl
	xor	ah,bh
	mov	eax,ecx
	push	edx
	add	ch,dl
	inc	esi
	mov	ecx,eax
	sub	bh,dl
	mov	cl,dl
	inc	ecx
	mov	al,ah
	xor	ah,cl
	mov	bl,9B
	mov	esi,ebx
	jbe	004025BB
	nop	
	ja	004025BB
	and	eax,32FF25E8
	inc	byte ptr [ebx+DA2A08C0]
	mov	bh,ch
	add	bl,al
	or	bl,cl
	xor	bh,dh
	mov	esi,ecx
	add	bh,dh
	inc	esi
	sub	bh,dh
	dec	ebx
	mov	bl,72
	jz	00402996
	ja	004027AE
	mov	bh,bh
	jnz	00402996
	push	dword ptr [ebp-18]
	and	eax,0225FFE8
	illegal	
	illegal	
	inc	esi
	mov	ecx,edi
	mov	ch,bh
	mov	bh,CA
	or	bl,bh
	mov	ah,ch
	or	dh,ch
	xor	bh,bl
	or	ebx,edx
	dec	edx
	mov	dl,bh
	mov	ah,84
	inc	edi
	mov	esi,edi
	mov	dl,ch
	dec	ecx
	jbe	0040272D
	repne	
	ja	0040272D
	call	25B52715
	xor	al,bh
	inc	edi
	mov	esi,edx
	xor	dh,ch
	or	edx,ecx
	sub	bh,bl
	mov	al,bl
	mov	esi,ecx
	mov	dh,A3
	shl	ecx,0F
	inc	edx
	sub	dh,bh
	dec	esi
	or	al,dl
	dec	esi
	jl	004028FC
	rep	
	nop	
	jge	004028FC
	jz	00402803
	and	eax,FFFFE8E8
	inc	ebx
	or	bl,dh
	mov	edi,eax
	or	esi,ebx
	or	ebx,esi
	mov	bh,8F
	mov	bh,ah
	xor	bh,bl
	mov	bl,ED
	mov	edi,ecx
	mov	bh,16
	add	bl,cl
	or	ebx,ecx
	xor	bh,dl
	push	ecx
	pop	eax
	dec	edi
	jz	00402A32
	push	eax
	pop	eax
	jnz	00402A32
	jmp	dword ptr [FF74E874]
	push	dword ptr [ebx+F832438E]
	or	esi,ecx
	add	bh,cl
	sub	bl,dh
	mov	bh,2F
	mov	ebx,eax
	sub	bh,bl
	mov	bh,D7
	add	bh,bl
	add	edx,ecx
	or	ebx,edx
	dec	ecx
	or	esi,ebx
	or	bl,al
	js	004024B8
	repne	
	jns	004024B8
	and	eax,E825FFE8
	call	22F573C9
	mov	ah,bh
	dec	ebx
	mov	cl,14
	add	edx,00000512
	or	esi,edx
	or	bh,cl
	mov	bl,bh
	sub	ch,dh
	inc	ebx
	mov	ecx,eax
	jle	0040275D
	jo	004028A6
	jg	0040275D
	jz	00402922
	call	2B0D339B
	jmp	2B0BB306
	into	
	inc	esi
	or	cl,ch
	xor	ch,dh
	mov	[edx],bh
	sub	cl,ch
	inc	esi
	mov	esi,edx
	or	ecx,edx
	or	ch,bh
	or	esi,edi
	jz	004020F7
	lea	edx,[edx]
	jnz	004020F7
	call	E93F4EDD
	push	dword ptr [edx+FA0A4EC4]
	mov	al,bl
	xor	bh,ch
	add	dl,bl
	xor	cl,dl
	inc	edi
	mov	al,47
	or	edx,ecx
	add	al,bh
	inc	edi
	sub	al,bl
	add	ah,cl
	xor	al,dh
	dec	esi
	inc	ecx
	sub	bh,ch
	xor	bl,al
	add	bl,al
	sub	bh,dh
	mov	ah,dh
	mov	ah,F4
	sub	al,ah
	or	eax,edx
	mov	bl,90
	sub	bl,bh
	xor	ah,cl
	sub	dl,cl
	mov	dh,ED
	mov	dh,dl
	push	dword ptr [ecx]
	add	ah,dl
	or	esi,ebx
	dec	ebx
	jle	004026A1
	rep	
	jg	004026A1
	and	eax,FFFFFFFF
	and	eax,CC2ACC02
	mov	cl,al
	or	ebx,edx
	inc	ecx
	mov	cl,dl
	mov	ebx,edi
	inc	esi
	xor	bh,bl
	mov	bh,1C
	or	bl,dh
	add	ch,cl
	xor	cl,dl
	dec	ecx
	mov	cl,58
	dec	ebx
	mov	ch,al
	xor	ch,dl
	jpe	004021C2
	repne	
	mov	ebx,ebx
	jpo	004021C2
	jmp	eax
	call	0C0E5BDC
	illegal	
	dec	esi
	xor	ch,cl
	xor	bl,CB
	sub	ch,al
	mov	esi,ecx
	mov	ch,20
	or	cl,bl
	mov	cl,EE
	or	ch,dh
	or	ecx,ebx
	add	cl,bl
	xor	cl,dh
	or	esi,edi
	mov	cl,dh
	sub	cl,dl
	or	ecx,edi
	add	cl,ch
	jle	00402A00
	push	edx
	pop	edx
	jg	00402A00
	and	eax,FFE8FF25
	mov	eax,[eax]
	mov	ebx,edx
	dec	ebx
	mov	bh,74
	inc	esi
	sub	bh,dh
	or	bh,ch
	inc	edi
	or	bl,cl
	mov	bh,D8
	add	bl,dh
	mov	esi,ecx
	xor	bl,bh
	mov	bl,dl
	add	eax,ecx
	xor	bl,dl
	jz	00402AC5
	repne	
	jnz	00402AC5
	jz	004029AA
	call	FFB5293B
	call	F2F8ECF6
	wait	
	mov	ecx,2AFD0A92
	iret	
	mov	ecx,edi
	add	bh,dh
	mov	bl,6A
	inc	ebx
	add	ch,dl
	dec	esi
	add	bl,bh
	xor	bh,bl
	sub	ch,bh
	inc	ebx
	add	bl,dl
	or	cl,al
	inc	ebx
	or	esi,eax
	jz	00402309
	nop	
	rep	
	jnz	00402309
	call	E93F9E72
	call	4F28DF77
	mov	cl,CA
	or	ecx,esi
	inc	esi
	mov	ecx,esi
	rol	bl,00
	inc	ecx
	dec	esi
	add	ch,bh
	or	ecx,eax
	add	cl,al
	xor	ch,ah
	dec	ecx
	xor	cl,bl
	or	ch,bl
	mov	cl,11
	jbe	00402096
	nop	
	ja	00402096
	illegal	
	and	eax,2525FF74
	add	bl,dl
	xor	bh,cl
	add	bh,dh
	or	bh,dh
	inc	ebx
	sub	bh,bl
	add	bh,al
	xor	bl,cl
	sub	bl,ah
	inc	edi
	add	bh,dl
	mov	ebx,edi
	mov	bl,bh
	sub	bl,cl
	jo	004026D0
	nop	
	jno	004026D0
	and	eax,02E8E874
	fdiv	dword ptr [edx]
	fadd	dword ptr [edi+32]
	stc	
	mov	bl,50
	dec	edi
	or	bh,cl
	sub	bl,ah
	add	eax,0032FD94
	inc	edi
	or	bh,ah
	mov	bl,dl
	mov	bl,E4
	inc	ebx
	or	bh,cl
	jo	0040228C
	xchg	esi,esi
	jno	0040228C
	and	eax,FFFF2525
	and	eax,8AFD2A25
	lds	ecx,[ecx+0B]
	illegal	
	mov	ecx,edx
	mov	al,E2
	add	bh,dh
	or	esi,eax
	mov	al,dh
	mov	ch,C6
	mov	al,cl
	or	al,dh
	add	cl,ch
	dec	eax
	dec	eax
	mov	ch,85
	dec	ecx
	inc	ebx
	or	ebx,edx
	jl	00402884
	push	eax
	pop	eax
	jz	00402ABB
	jge	00402884
	and	eax,4325FF25
	mov	bh,ah
	sub	bl,ah
	xor	bh,ch
	mov	bh,16
	or	bh,bl
	mov	bl,dh
	xor	bl,dl
	mov	bh,8C
	sub	bl,cl
	dec	esi
	push	dword ptr [eax+10]
	mov	esi,eax
	xor	bh,dh
	jo	004020C3
	push	ecx
	pop	ecx
	jno	004020C3
	jz	00402AEF
	illegal	
	inc	dword ptr [eax]
	add	[eax],al
	add	[eax],al
	add	[eax],al
	add	[eax],al
	add	[eax],al
	add	[eax],al
	add	[eax],al
	add	[eax],al
	add	[eax],al
	add	[eax],al
	add	[eax],al
	add	[eax],al
	add	[eax],al
	add	[eax],al
	add	[eax],al
	add	[eax],al
	add	[eax],al
	add	[eax],al
	add	[eax],al
	add	[eax],al
	add	[eax],al
	add	[eax],al
	add	[eax],al
	add	[eax],al
	add	[eax],al
	add	[eax],al
	add	[eax],al
	add	[eax],al
	add	[eax],al
	add	[eax],al
	add	[eax],al
	add	[eax],al
	add	[eax],al
	add	[eax],al
	add	[eax],al
	add	[eax],al
	add	[eax],al
	add	[eax],al
	add	[eax],al
	add	[eax],al
	add	[eax],al
	add	[eax],al
	add	[eax],al
	add	[eax],al
	add	[eax],al
	add	[eax],al
	add	[eax],al
	add	[eax],al
	add	[eax],al
	add	[eax],al
	add	[eax],al
	add	[eax],al
	add	[eax],al
	add	[eax],al
	add	[eax],al
	add	[eax],al
	add	[eax],al
	add	[eax],al
	add	[eax],al
	add	[eax],al
	add	[eax],al
	add	[eax],al
	add	[eax],al
	add	[eax],al
	add	[eax],al
	add	[eax],al
	add	[eax],al
	add	[eax],al
	add	[eax],al
	add	[eax],al
	add	[eax],al
	add	[eax],al
	add	[eax],al
	add	[eax],al
	add	[eax],al
	add	[eax],al
	add	[eax],al
	add	[eax],al
	add	[eax],al
	add	[eax],al
	add	[eax],al
	add	[eax],al
	add	[eax],al
	add	[eax],al
	add	[eax],al
	add	[eax],al
	add	[eax],al
	add	[eax],al
	add	[eax],al
	add	[eax],al
	add	[eax],al
	add	[eax],al
	add	[eax],al
	add	[eax],al
	add	[eax],al
	add	[eax],al
	add	[eax],al
	add	[eax],al
	add	[eax],al
	add	[eax],al
	add	[eax],al
	add	[eax],al
	add	[eax],al
	add	[eax],al
	add	[eax],al
	add	[eax],al
	add	[eax],al
	add	[eax],al
	add	[eax],al
	add	[eax],al
	add	[eax],al
	add	[eax],al
	add	[eax],al
	add	[eax],al
	add	[eax],al
	add	[eax],al
	add	[eax],al
	add	[eax],al
	add	[eax],al
	add	[eax],al
	add	[eax],al
	add	[eax],al
	add	[eax],al
	add	[eax],al
	add	[eax],al
	add	[eax],al
	add	[eax],al
	add	[eax],al
	add	[eax],al
	add	[eax],al
	add	[eax],al
	add	[eax],al
	add	[eax],al
	add	[eax],al
	add	[eax],al
	add	[eax],al
	add	[eax],al
	add	[eax],al
	add	[eax],al
	add	[eax],al
	add	[eax],al
	add	[eax],al
	add	[eax],al
	add	[eax],al
	add	[eax],al
	add	[eax],al
	add	[eax],al
	add	[eax],al
	add	[eax],al
	add	[eax],al
	add	[eax],al
	add	[eax],al
	add	[eax],al
	add	[eax],al
	add	[eax],al
	add	[eax],al
	add	[eax],al
	add	[eax],al
	add	[eax],al
	add	[eax],al
	add	[eax],al
	add	[eax],al
	add	[eax],al
	add	[eax],al
	add	[eax],al
	add	[eax],al
	add	[eax],al
	add	[eax],al
	add	[eax],al
	add	[eax],al
	add	[eax],al
	add	[eax],al
	add	[eax],al
	add	[eax],al
	add	[eax],al
	add	[eax],al
	add	[eax],al
	add	[eax],al
	add	[eax],al
	add	[eax],al
	add	[eax],al
	add	[eax],al
	add	[eax],al
	add	[eax],al
	add	[eax],al
	add	[eax],al
	add	[eax],al
	add	[eax],al
	add	[eax],al
	add	[eax],al
	add	[eax],al
	add	[eax],al
	add	[eax],al
	add	[eax],al
	add	[eax],al
	add	[eax],al
	add	[eax],al
	add	[eax],al
	add	[eax],al
	add	[eax],al
	add	[eax],al
	add	[eax],al
	add	[eax],al
	add	[eax],al
	add	[eax],al
	add	[eax],al
	add	[eax],al
	add	[eax],al
	add	[eax],al
	add	[eax],al
	add	[eax],al
	add	[eax],al
	add	[eax],al
	add	[eax],al
	add	[eax],al
	add	[eax],al
	add	[eax],al
	add	[eax],al
	add	[eax],al
	add	[eax],al
	add	[eax],al
	add	[eax],al
	add	[eax],al
	add	[eax],al
	add	[eax],al
	add	[eax],al
	add	[eax],al
	add	[eax],al
	add	[eax],al
	add	[eax],al
	add	[eax],al
	add	[eax],al
	add	[eax],al
	add	[eax],al
	add	[eax],al
	add	[eax],al
	add	[eax],al
	add	[eax],al
	add	[eax],al
	add	[eax],al
	add	[eax],al
	add	[eax],al
	add	[eax],al
	add	[eax],al
	add	[eax],al
	add	[eax],al
	add	[eax],al
	add	[eax],al
	add	[eax],al
	add	[eax],al
	add	[eax],al
	add	[eax],al
	add	[eax],al
	add	[eax],al
	add	[eax],al
	add	[eax],al
	add	[eax],al
	add	[eax],al
	add	[eax],al
	add	[eax],al
	add	[eax],al
	add	[eax],al
	add	[eax],al
	add	[eax],al
	add	[eax],al
	add	[eax],al
	add	[eax],al
	add	[eax],al
	add	[eax],al
	add	[eax],al
	add	[eax],al
	add	[eax],al
	add	[eax],al
	add	[eax],al
	add	[eax],al
	add	[eax],al
	add	[eax],al
	add	[eax],al
	add	[eax],al
	add	[eax],al
	add	[eax],al
	add	[eax],al
	add	[eax],al
	add	[eax],al
	add	[eax],al
	add	[eax],al
	add	[eax],al
	add	[eax],al
	add	[eax],al
	add	[eax],al
	add	[eax],al
	add	[eax],al
	add	[eax],al
	add	[eax],al
	add	[eax],al
	add	[eax],al
	add	[eax],al
	add	[eax],al
	add	[eax],al
	add	[eax],al
	add	[eax],al
	add	[eax],al
	add	[eax],al
	add	[eax],al
	add	[eax],al
	add	[eax],al
	add	[eax],al
	add	[eax],al
	add	[eax],al
	add	[eax],al
	add	[eax],al
	add	[eax],al
	add	[eax],al
	add	[eax],al
	add	[eax],al
	add	[eax],al
	add	[eax],al
	add	[eax],al
	add	[eax],al
	add	[eax],al
	add	[eax],al
	add	[eax],al
	add	[eax],al
	add	[eax],al
	add	[eax],al
	add	[eax],al
	add	[eax],al
	add	[eax],al
	add	[eax],al
	add	[eax],al
	add	[eax],al
	add	[eax],al
	add	[eax],al
	add	[eax],al
	add	[eax],al
	add	[eax],al
	add	[eax],al
	add	[eax],al
	add	[eax],al
	add	[eax],al
	add	[eax],al
	add	[eax],al
	add	[eax],al
	add	[eax],al
	add	[eax],al
	add	[eax],al
	add	[eax],al
	add	[eax],al
	add	[eax],al
	add	[eax],al
	add	[eax],al
	add	[eax],al
	add	[eax],al
	add	[eax],al
	add	[eax],al
	add	[eax],al
	add	[eax],al
	add	[eax],al
	add	[eax],al
	add	[eax],al
	add	[eax],al
	add	[eax],al
	add	[eax],al
	add	[eax],al
	add	[eax],al
	add	[eax],al
	add	[eax],al
	add	[eax],al
	add	[eax],al
	add	[eax],al
	add	[eax],al
	add	[eax],al
	add	[eax],al
	add	[eax],al
	add	[eax],al
	add	[eax],al
	add	[eax],al
	add	[eax],al
	add	[eax],al
	add	[eax],al
	add	[eax],al
	add	[eax],al
	add	[eax],al
	add	[eax],al
	add	[eax],al
	add	[eax],al
	add	[eax],al
	add	[eax],al
	add	[eax],al
	add	[eax],al
	add	[eax],al
	add	[eax],al
	add	[eax],al
	add	[eax],al
	add	[eax],al
	add	[eax],al
	add	[eax],al
	add	[eax],al
	add	[eax],al
	add	[eax],al
	add	[eax],al
	add	[eax],al
	add	[eax],al
	add	[eax],al
	add	[eax],al
	add	[eax],al
	add	[eax],al
	add	[eax],al
	add	[eax],al
	add	[eax],al
	add	[eax],al
	add	[eax],al
	add	[eax],al
	add	[eax],al
	add	[eax],al
	add	[eax],al
	add	[eax],al
	add	[eax],al
	add	[eax],al
	add	[eax],al
	add	[eax],al
	add	[eax],al
	add	[eax],al
	add	[eax],al
	add	[eax],al
	add	[eax],al
	add	[eax],al
	add	[eax],al
	add	[eax],al
	add	[eax],al
	add	[eax],al
	add	[eax],al
	add	[eax],al
	add	[eax],al
	add	[eax],al
	add	[eax],al
	add	[eax],al
	add	[eax],al
	add	[eax],al
	add	[eax],al
	add	[eax],al
	add	[eax],al
	add	[eax],al
	add	[eax],al
	add	[eax],al
	add	[eax],al
	add	[eax],al
	add	[eax],al
	add	[eax],al
	add	[eax],al
	add	[eax],al
	add	[eax],al
	add	[eax],al
	add	[eax],al
	add	[eax],al
	add	[eax],al
	add	[eax],al
	add	[eax],al
	add	[eax],al
	add	[eax],al
	add	[eax],al
	add	[eax],al
	add	[eax],al
	add	[eax],al
	add	[eax],al
	add	[eax],al
	add	[eax],al
	add	[eax],al
	add	[eax],al
	add	[eax],al
	add	[eax],al
	add	[eax],al
	add	[eax],al
	add	[eax],al
	add	[eax],al
	add	[eax],al
	add	[eax],al
	add	[eax],al
	add	[eax],al
	add	[eax],al
	add	[eax],al
	add	[eax],al
	add	[eax],al
	add	[eax],al
	add	[eax],al
	add	[eax],al
	add	[eax],al
	add	[eax],al
	add	[eax],al
	add	[eax],al
	add	[eax],al
	add	[eax],al
	add	[eax],al
	add	[eax],al
	add	[eax],al
	add	[eax],al
	add	[eax],al
	add	[eax],al
	add	[eax],al
	add	[eax],al
	add	[eax],al
	add	[eax],al
	add	[eax],al
	add	[eax],al
	add	[eax],al
	add	[eax],al
	add	[eax],al
	add	[eax],al
	add	[eax],al
	add	[eax],al
	add	[eax],al
	add	[eax],al
	add	[eax],al
	add	[eax],al
	add	[eax],al
	add	[eax],al
	add	[eax],al
	add	[eax],al
	add	[eax],al
	add	[eax],al
	add	[eax],al
	add	[eax],al
	add	[eax],al
	add	[eax],al
	add	[eax],al
	add	[eax],al
	add	[eax],al
	add	[eax],al
	add	[eax],al
	add	[eax],al
	add	[eax],al
	add	[eax],al
	add	[eax],al
	add	[eax],al
	add	[eax],al
	add	[eax],al
	add	[eax],al
	add	[eax],al
	add	[eax],al
	add	[eax],al
	add	[eax],al
	add	[eax],al
	add	[eax],al
	add	[eax],al
	add	[eax],al
	add	[eax],al
	add	[eax],al
	add	[eax],al
	add	[eax],al
	add	[eax],al
	add	[eax],al
	add	[eax],al
	add	[eax],al
	add	[eax],al
	add	[eax],al
	add	[eax],al
	add	[eax],al
	add	[eax],al
	add	[eax],al
	add	[eax],al
	add	[eax],al
	add	[eax],al
	add	[eax],al
	add	[eax],al
	add	[eax],al
	add	[eax],al
	add	[eax],al
	add	[eax],al
	add	[eax],al
	add	[eax],al
	add	[eax],al
	add	[eax],al
	add	[eax],al
	add	[eax],al
	add	[eax],al
	add	[eax],al
	add	[eax],al
	add	[eax],al
	add	[eax],al
	add	[eax],al
	add	[eax],al
	add	[eax],al
	add	[eax],al
	add	[eax],al
	add	[eax],al
	add	[eax],al
	add	[eax],al
	add	[eax],al
	add	[eax],al
	add	[eax],al
	add	[eax],al
	add	[eax],al
	add	[eax],al
	add	[eax],al
	add	[eax],al
	add	[eax],al
	add	[eax],al
	add	[eax],al
	add	[eax],al
	add	[eax],al
	add	[eax],al
	add	[eax],al
	add	[eax],al
	add	[eax],al
	add	[eax],al
	add	[eax],al
	add	[eax],al
	add	[eax],al
	add	[eax],al
	add	[eax],al
	add	[eax],al
	add	[eax],al
	add	[eax],al
	add	[eax],al
	add	[eax],al
	add	[eax],al
	add	[eax],al
	add	[eax],al
	add	[eax],al
	add	[eax],al
	add	[eax],al
	add	[eax],al
	add	[eax],al
	add	[eax],al
	add	[eax],al
	add	[eax],al
	add	[eax],al
	add	[eax],al
	add	[eax],al
	add	[eax],al
	add	[eax],al
	add	[eax],al
	add	[eax],al
	add	[eax],al
	add	[eax],al
	add	[eax],al
	add	[eax],al
	add	[eax],al
	add	[eax],al
	add	[eax],al
	add	[eax],al
	add	[eax],al
	add	[eax],al
	add	[eax],al
	add	[eax],al
	add	[eax],al
00403000 50 47 00 D1 C1 DE 96 2E 00 F1 7B 02 F6 B9 00 ED PG........{.....
00403010 4D 1F 1C C1 1C FF 0B B2 25 61 AF 45 1D 8D 4C 00 M.......%a.E..L.
00403020 7C 11 36 08 FD 0B CF 00 C2 00 07 61 D5 01 8F 00 |.6........a....
00403030 60 AA FF E0 66 FF D6 00 9E 07 69 70 00 00 74 00 `...f.....ip..t.
00403040 5F C8 79 00 D3 00 13 3A 89 C3 00 21 E2 EB 4E 30 _.y....:...!..N0
00403050 32 93 05 21 E6 39 00 BE 86 00 F8 D4 7C 2E 6A C2 2..!.9......|.j.
00403060 16 DE FA EB FF 0D D5 AA 25 C7 AF 2D 59 9C 79 79 ........%..-Y.yy
00403070 00 00 00 7F D8 B6 D2 A4 FF CE 6B 4D F3 00 3D D0 ..........kM..=.
00403080 48 00 A1 31 48 5F C1 06 F1 D2 02 A0 08 68 C1 CE H..1H_.......h..
00403090 8B 00 4F 27 55 FB B0 0A D1 0C 04 CE 93 3D FF F0 ..O'U........=..
004030A0 06 26 45 00 8F 4F 01 00 20 5B 00 DD 07 B9 78 B0 .&E..O.. [....x.
004030B0 00 00 38 00 1C 59 C9 4F 9A 99 A9 F5 37 10 1A B0 ..8..Y.O....7...
004030C0 00 00 5E F3 A4 F5 41 A1 06 97 CD 45 BD ED 42 20 ..^...A....E..B 
004030D0 47 1F 50 B3 C1 00 EE 3D 78 2C 00 C8 1B C5 FD 7D G.P....=x,.....}
004030E0 E4 39 DB 8E 5A 7E 7F 00 12 C8 FF 81 40 00 07 6F .9..Z~......@..o
004030F0 36 00 95 F6 8E A6 6E 21 35 00 A1 E0 DF 37 1B DC 6.....n!5....7..
00403100 A3 13 D1 13 00 35 00 D3 00 80 50 E7 7B E5 00 F1 .....5....P.{...
00403110 D4 DD 33 12 DE 38 48 C8 67 00 01 F2 C9 CF FF E1 ..3..8H.g.......
00403120 1B 8F 00 A3 A0 E3 38 5B 08 B0 6D FF 8F 52 8A 30 ......8[..m..R.0
00403130 00 F7 3F 00 92 80 D9 F9 7F FB 00 F7 9D 95 3E 42 ..?...........>B
00403140 82 1B 27 00 CF 99 D8 40 C3 39 00 18 8E FC 00 05 ..'....@.9......
00403150 2E F2 3C 0D F8 A0 19 00 00 8E 01 7C 37 8E C5 C2 ..<........|7...
00403160 7B 00 0D C1 87 B8 ED A0 5A 1F 80 C1 97 1F 0E 9C {.......Z.......
00403170 3E 40 58 00 32 FF FF C0 B0 00 42 80 82 2E F3 80 >@X.2.....B.....
00403180 19 AF 9F 7D 04 BD AF 32 99 CB CF 04 5A 40 00 8B ...}...2....Z@..
00403190 C8 F7 EB 00 22 D6 24 00 9A A8 CE C5 C4 00 CF F5 ....".$.........
004031A0 B7 81 8D 15 D9 23 D7 06 00 43 BC CA 02 86 7B F0 .....#...C....{.
004031B0 63 01 9A 7D C4 90 75 3D 00 14 00 5C 91 FA 00 7C c..}..u=...\...|
004031C0 33 00 2A FF 2D FF E3 FE B5 00 BD 57 DE 08 A1 00 3.*.-......W....
004031D0 EA E1 58 7F 89 00 91 04 72 00 2A 64 C0 79 7D FD ..X.....r.*d.y}.
004031E0 95 87 00 81 00 3C 08 6B 2D 58 02 14 C1 8F 90 95 .....<.k-X......
004031F0 32 B3 02 FF DF 8F 23 70 A6 03 D3 79 FB CD 1D 00 2.....#p...y....
00403200 E1 36 7C B0 67 BA B7 33 8C A8 F2 58 E1 48 D8 7C .6|.g..3...X.H.|
00403210 81 00 97 B3 74 76 A6 24 30 CE 00 99 37 0B 34 5B ....tv.$0...7.4[
00403220 04 E1 18 AF B6 51 02 ED FF 62 27 95 AA FF 43 12 .....Q...b'...C.
00403230 71 C8 26 E8 0B DF A3 7F B6 CB 00 E2 FF 00 2D 08 q.&...........-.
00403240 99 EE C6 EC 00 F2 02 00 69 0E A3 C3 8B AB 04 8B ........i.......
00403250 31 9A 3A 08 FF 00 B8 0D C4 79 9C 90 1D 2A 30 B9 1.:......y...*0.
00403260 C8 96 00 50 60 B6 DA 55 42 06 04 91 F8 A8 56 81 ...P`..UB.....V.
00403270 DC 1D 85 F8 EC 6D 02 65 01 39 DA EE 28 2E F3 FF .....m.e.9..(...
00403280 DF 35 86 62 FF DD 30 3E F6 60 6F 00 5C 83 00 69 .5.b..0>.`o.\..i
00403290 2F 05 53 33 18 3D FF 6D 82 CA CE 00 0E 3E FF B9 /.S3.=.m.....>..
004032A0 A7 3C AF 4D 29 78 0E DE A0 B0 D0 16 01 10 B8 58 .<.M)x.........X
004032B0 1B 00 53 01 F8 A7 9D 00 00 97 83 94 CD 1E 4D 6A ..S...........Mj
004032C0 D6 64 82 88 00 EE 89 D1 5F 6A 7C F0 21 6F 02 30 .d......_j|.!o.0
004032D0 40 45 47 3A 21 3E FF E1 B4 00 C9 D6 F0 AB 8F E9 @EG:!>..........
004032E0 57 03 B1 00 0B 32 BF 84 00 49 A4 0D C7 F3 1F 48 W....2...I.....H
004032F0 8F 3A 79 94 98 D2 8B 81 13 00 C3 CD 08 B4 E5 BF .:y.............
00403300 F0 17 8F 89 00 E2 AC F6 4E AD EE C6 CA 4B D3 DF ........N....K..
00403310 FF BF 30 00 47 47 D6 F4 90 14 FF 24 B8 20 18 00 ..0.GG.....$. ..
00403320 86 00 7A 9F 00 A1 9A D3 41 FF A2 70 7C B5 2A D5 ..z.....A..p|.*.
00403330 CD 77 29 E0 21 17 14 63 13 2F 84 97 08 AA D4 6F .w).!..c./.....o
00403340 E6 16 62 F3 00 97 0C 2C 8D 42 AC 00 14 7C AC 3B ..b....,.B...|.;
00403350 00 43 8A FD 00 A3 4A 61 24 52 BD 4C E4 B5 27 5B .C....Ja$R.L..'[
00403360 76 02 00 00 26 01 A6 FF 00 52 EC A1 85 72 C7 44 v...&....R...r.D
00403370 B3 48 C0 60 E9 00 0C 58 E3 B1 C2 77 FF 3A EE 80 .H.`...X...w.:..
00403380 C4 A8 72 00 FF FF 0D 73 66 9F 9D ED F7 01 96 44 ..r....sf......D
00403390 73 8E F9 22 20 1E 10 FF 20 20 94 6F 0C A4 25 E5 s.." ...  .o..%.
004033A0 77 00 B4 9F 95 D8 6E 36 CC 96 59 00 02 A1 C1 A7 w.....n6..Y.....
004033B0 48 01 E8 57 A8 00 00 2E E3 6C 3B 30 98 84 85 54 H..W.....l;0...T
004033C0 00 0B 4C CD B1 05 11 C1 A9 00 D6 AA FC 53 66 2D ..L..........Sf-
004033D0 67 20 18 47 5C 06 1B 08 7B A7 00 CF 00 75 DD B4 g .G\...{....u..
004033E0 85 43 FF 3E 17 0A 52 FB 0E 59 40 89 02 82 CE 4A .C.>..R..Y@....J
004033F0 38 51 D1 0B 81 2A 47 85 C3 E9 75 AA 83 85 72 00 8Q...*G...u...r.
00403400 EF 00 FF 12 8F 40 E6 00 01 D2 83 95 87 02 2E FF .....@..........
00403410 E8 4E 6B 74 50 EC F5 00 E4 E0 FF D9 1F FF FB 00 .NktP...........
00403420 33 FA EF 78 BF F0 62 22 FF AC 4E B9 0F 00 55 0E 3..x..b"..N...U.
00403430 00 74 33 9D 06 58 1B 00 25 00 81 B5 80 DD F6 FF .t3..X..%.......
00403440 0F 28 F3 00 BA 46 41 CB 06 80 02 16 DC FF 00 D1 .(...FA.........
00403450 00 63 C9 7C 3F 8C 0F 2C F0 B0 B6 E7 17 A1 F8 03 .c.|?..,........
00403460 FF B8 EF 00 CD D1 78 96 BF 46 FF E2 00 24 EF 40 ......x..F...$.@
00403470 80 48 2A 3F 7F 39 A8 39 DC F8 98 92 00 29 FF 26 .H*?.9.9.....).&
00403480 92 41 27 8D 0B 83 00 00 3D 10 D0 4C 00 00 23 BB .A'.....=..L..#.
00403490 5E A2 3A 6B 30 39 C2 B5 00 84 BB A3 3C 00 EC D3 ^.:k09......<...
004034A0 00 26 C1 C5 FF F7 38 16 00 C7 F0 4E 46 BC 06 52 .&....8....NF..R
004034B0 3D 3C F0 D8 25 00 00 90 AC 00 5E 65 42 29 00 92 =<..%.....^eB)..
004034C0 69 E4 33 18 00 73 A0 CA 81 38 70 E3 EE 00 03 00 i.3..s...8p.....
004034D0 68 D7 74 5B 4D 72 1F CF DA 7A 2E 00 17 29 FD D3 h.t[Mr...z...)..
004034E0 18 52 3F 00 2F DA D3 D7 5C 00 6B 63 36 1B E4 F6 .R?./...\.kc6...
004034F0 85 40 7B D5 9F 50 69 28 9B E7 0C E7 4C F7 09 F7 .@{..Pi(....L...
00403500 73 FF BF BE 00 8B F0 02 6B FF 68 1C 00 E0 10 A4 s.......k.h.....
00403510 00 58 E7 85 76 FF ED 07 F7 66 3A 1E 00 D1 A6 A3 .X..v....f:.....
00403520 E7 DD 63 FD 78 B7 81 B0 CC C1 3E 83 78 BE C3 25 ..c.x.....>.x..%
00403530 BF 20 EF C7 40 99 9E 77 00 7F BE F4 C0 97 24 82 . ..@..w......$.
00403540 0A FC 89 32 28 7F FF 3E 0A E3 3A 00 12 00 00 00 ...2(..>..:.....
00403550 05 1D 83 40 DB 47 21 00 E6 8F 9F 5A 00 9D 79 00 ...@.G!....Z..y.
00403560 81 8E 5F E6 08 56 F1 36 0A C5 05 4B CE DB 00 00 .._..V.6...K....
00403570 00 15 8A FF 08 2A 16 ED DD 9D B8 E1 C9 AB F2 5F .....*........._
00403580 71 77 B0 20 FF 5B 4D BC 68 00 F2 77 3B FD 00 48 qw. .[M.h..w;..H
00403590 F3 47 06 FD CA FF FD E2 AE 81 92 BA BE 3B EF 3A .G...........;.:
004035A0 4F 00 43 44 E0 1D FF 3F C1 DE C4 75 E5 B8 00 5D O.CD...?...u...]
004035B0 21 AC F3 EB E0 01 67 00 87 00 EA 39 FD 15 38 18 !.....g....9..8.
004035C0 FE CC 9D 4F D7 28 28 00 C1 A9 00 86 78 C7 5C 7F ...O.((.....x.\.
004035D0 78 C3 64 A1 01 F7 AD 26 A9 CA 83 CE EA 76 18 B9 x.d....&.....v..
004035E0 46 86 11 05 3F 00 CD 74 11 C8 00 7C 5D 70 7F 7C F...?..t...|]p.|
004035F0 31 A6 6C D3 71 7F C7 49 32 59 00 3E 39 00 A1 E1 1.l.q..I2Y.>9...
00403600 42 01 9B 3C 0F 39 00 05 00 39 77 F7 2F 87 A7 00 B..<.9...9w./...
00403610 4D D2 80 C7 A4 61 24 A0 59 06 75 70 FF 93 1A 7A M....a$.Y.up...z
00403620 72 F2 59 59 53 3C 8B 00 3C 00 9E 01 D7 D0 82 80 r.YYS<..<.......
00403630 B1 5B 0C B1 53 B2 BB 85 3F AD 13 9F 87 32 18 03 .[..S...?....2..
00403640 FF 96 FD 64 CB C9 A8 EF 0C A2 60 A1 00 4E 2E C2 ...d......`..N..
00403650 3F 50 00 3B 88 D5 CD 01 00 74 49 5B AA 63 10 2C ?P.;.....tI[.c.,
00403660 FF 79 4C 16 00 1F AE 1D D1 39 7A FF 50 FF 34 8C .yL......9z.P.4.
00403670 35 A7 00 A9 D2 CC EF 9F BA E8 FF 0D 38 E4 F1 64 5...........8..d
00403680 00 06 FF 3B 6D E6 69 AC 48 E5 9E 57 02 E8 49 CF ...;m.i.H..W..I.
00403690 6C 00 E7 CE 9C 00 C9 10 2A 8E 20 FF FE CF E4 00 l.......*. .....
004036A0 49 00 00 26 EC 7A 34 6B 36 BF E4 66 FE 6F 91 05 I..&.z4k6..f.o..
004036B0 D1 FF 00 D6 00 86 31 59 E6 00 6E 13 1B 89 08 42 ......1Y..n....B
004036C0 02 7E 24 C1 3C FF DB 04 82 50 39 BA BB AC 92 30 .~$.<....P9....0
004036D0 00 A6 D0 FA E0 7A 43 2E 20 FF 74 D2 FF 89 00 FB .....zC. .t.....
004036E0 C5 03 9C FF 00 D5 9B DF F5 84 39 23 38 FF EC F6 ..........9#8...
004036F0 C8 8C C8 00 FF 40 17 6C 00 B3 78 05 50 ED 0F E2 .....@.l..x.P...
00403700 BE B1 00 5C 76 0A CF 73 00 40 B4 89 B0 EC DD D0 ...\v..s.@......
00403710 78 06 A7 00 D2 E2 24 00 52 DC 20 5A F3 39 00 29 x.....$.R. Z.9.)
00403720 BB 56 36 90 E7 40 10 80 00 98 28 37 00 86 71 98 .V6..@....(7..q.
00403730 68 F5 F3 00 40 8B F8 79 95 F8 00 00 00 FF 81 58 h...@..y.......X
00403740 9F 12 E0 58 15 9D 16 00 8E BD 28 32 9C 77 E5 95 ...X......(2.w..
00403750 FB 00 12 DE FF AD A5 FC 37 9B 4B 8B 5E D5 64 08 ........7.K.^.d.
00403760 00 C3 C8 F2 22 F0 2D 78 67 41 5C 81 78 04 0D 04 ....".-xgA\.x...
00403770 00 D5 91 E4 A1 FB 81 4E 43 53 00 70 67 30 F9 22 .......NCS.pg0."
00403780 B7 D5 0B 14 A4 00 FF C0 DD 74 66 82 4F 4D 0E 62 .........tf.OM.b
00403790 2D 87 DF FF 6E 1E 2A C7 36 B0 E1 8B 7C 03 C9 00 -...n.*.6...|...
004037A0 B0 BB 20 C5 00 56 5F 41 27 EA AF F1 00 D9 6B E3 .. ..V_A'.....k.
004037B0 67 64 DF 85 00 1D 0B B1 84 00 F1 9F A9 4A C6 63 gd...........J.c
004037C0 37 98 3D D0 D4 AC 00 ED B0 00 31 14 20 FF CD 3B 7.=.......1. ..;
004037D0 1E 00 B4 25 26 F1 0E 00 64 00 B0 84 30 8B 8F 9B ...%&...d...0...
004037E0 EC 2B E8 B1 37 17 6C CC 2E F4 F4 00 AE 00 EF FF .+..7.l.........
004037F0 70 00 58 46 68 06 18 85 F5 15 AB ED BE 40 8F FA p.XFh........@..
00403800 B1 B3 71 59 CF 45 FC D2 D0 CE 19 15 A1 15 7B 05 ..qY.E........{.
00403810 41 82 00 9D 93 B2 70 80 60 BD A3 0D 7F 40 DA 65 A.....p.`....@.e
00403820 E1 C1 01 00 38 C1 3C 73 00 BC 10 FE 38 CF E1 7C ....8.<s....8..|
00403830 DC 44 FD 87 00 76 7A 00 FF 6C 68 50 23 A5 7A B7 .D...vz..lhP#.z.
00403840 6C E5 30 46 87 5E FD 88 C5 58 77 86 FF C1 FF 89 l.0F.^...Xw.....
00403850 37 A3 FA 28 03 B8 B3 3D 0D CC 5C 00 FF 00 1B 00 7..(...=..\.....
00403860 79 00 7F D8 2F 6A 0F 11 3E DE E6 E4 00 FA 37 E7 y.../j..>.....7.
00403870 D0 90 5C 00 59 0F 50 FD A7 5B F4 62 C5 D3 3B 00 ..\.Y.P..[.b..;.
00403880 08 9F 00 B8 16 AF 18 58 7A DB 12 10 E7 00 0A 6D .......Xz......m
00403890 29 D3 C6 46 45 1A 94 DE FF 00 A2 8A EF D4 56 E2 )..FE.........V.
004038A0 DE CB 00 71 32 1C 7A 00 94 E6 BC E1 38 00 86 10 ...q2.z.....8...
004038B0 00 8E C6 3B 00 35 04 4C 0B 2C E9 FF 37 08 76 C0 ...;.5.L.,..7.v.
004038C0 E0 00 63 13 A3 33 7C FF 88 07 C3 AA 00 E1 A1 5D ..c..3|........]
004038D0 D8 14 9F 1F EF 2E 39 FB 2C 74 9B 00 7A FF 00 F5 ......9.,t..z...
004038E0 15 20 2D 8E 11 FC FF 40 F2 87 ED 8A 47 00 A6 9E . -....@....G...
004038F0 FD 62 00 9E C1 2B 10 2F 1A 00 BA 00 FF 59 FF 2E .b...+./.....Y..
00403900 1F C1 1A 00 00 7F B9 14 10 FF FF FF 41 A9 42 FF ............A.B.
00403910 3E 14 99 DB 7E 29 AF 3B 0B 97 2E FF 1C 9E FF AA >...~).;........
00403920 00 77 58 00 33 27 9B 25 BF 4B 79 00 F5 00 CF 00 .wX.3'.%.Ky.....
00403930 19 00 1C CC 92 B1 5F 20 CA 1C 38 C4 14 41 A6 00 ......_ ..8..A..
00403940 B8 EF 13 18 D5 19 7A 00 18 23 84 FC 3C 66 3A 4B ......z..#..<f:K
00403950 DB 00 9E 6C 78 8A 18 00 C9 FF FF 6D FE A3 16 98 ...lx......m....
00403960 94 E2 DE E0 1C 48 39 F5 89 39 93 12 74 00 80 5A .....H9..9..t..Z
00403970 9B 9E BA C5 2F E9 00 15 20 2B 87 7A CA 3B FF 00 ..../... +.z.;..
00403980 B3 17 20 00 1F E4 91 62 F4 59 00 51 C4 3C 9A 68 .. ....b.Y.Q.<.h
00403990 F4 00 77 F0 74 C0 DB C4 8E A4 0F FF 1F 9B F0 E6 ..w.t...........
004039A0 E7 6C 00 69 08 D7 7D 53 BC 81 7A 66 29 61 55 70 .l.i..}S..zf)aUp
004039B0 73 00 43 25 2D D8 37 9B 6E 04 00 8F 11 CB 56 5D s.C%-.7.n.....V]
004039C0 8E D0 E2 FF EC 9B 80 43 3A DB B2 00 00 39 6E 9F .......C:....9n.
004039D0 B7 22 FF CC 74 3F 70 90 FF 34 FE 8B 09 27 9C DD ."..t?p..4...'..
004039E0 C6 F8 2C A1 E0 2E 11 BD 00 00 55 02 FF E4 DA 00 ..,.......U.....
004039F0 09 7B FF 4C 86 95 4B 00 61 9A 0C BD FF 96 44 06 .{.L..K.a.....D.
00403A00 91 83 0E 2C 2A 43 E3 00 75 40 3B 00 35 E0 09 00 ...,*C..u@;.5...
00403A10 89 B8 00 3C 0C F9 61 83 72 52 40 DC 96 2B 3A 5C ...<..a.rR@..+:\
00403A20 B4 FF 13 5C E4 C2 88 95 A6 0F 80 9C 00 11 13 75 ...\...........u
00403A30 D1 FC 96 B0 43 82 0D 14 69 89 00 1F DF CE 00 12 ....C...i.......
00403A40 2B 71 FF 48 53 E1 F8 20 F3 ED 13 F1 00 FD 00 C4 +q.HS.. ........
00403A50 91 57 00 FF 01 B9 A7 FE 1A CE FF 00 BD 36 24 C5 .W...........6$.
00403A60 A2 F1 93 00 9C FF DB 3B EB 2F FF 2C 28 8A 4B 00 .......;./.,(.K.
00403A70 4B F7 16 90 9B 85 05 00 31 A6 BE 17 27 43 F1 00 K.......1...'C..
00403A80 2E A1 96 67 41 B3 FF 48 00 0C 43 5C 00 ED 28 BE ...gA..H..C\..(.
00403A90 42 56 FB A2 90 DE BF B0 FF CB 7E 74 67 02 DF AE BV........~tg...
00403AA0 91 BD 00 00 C6 10 58 EF 54 75 01 9F 04 D8 35 4E ......X.Tu....5N
00403AB0 00 72 D6 FF 51 60 00 0F 00 7A C2 81 4C C3 1A 1A .r..Q`...z..L...
00403AC0 E8 ED 31 A3 00 BA B3 2C E7 A7 8C A2 F1 00 00 69 ..1....,.......i
00403AD0 8A 08 D4 DD 7A 00 8E 00 C0 00 7B 8D 83 C3 2D 78 ....z.....{...-x
00403AE0 00 FF 39 1E 4C E8 00 81 30 31 E8 79 52 94 EF 8D ..9.L...01.yR...
00403AF0 00 02 55 00 54 FF 77 00 39 A8 00 AB 1A 46 E7 32 ..U.T.w.9....F.2
00403B00 81 30 00 42 C0 62 E9 15 2F 85 00 01 32 81 59 75 .0.B.b../...2.Yu
00403B10 AE 00 FF 8E A0 1D C2 CC E8 A4 18 14 1E 9C FD 00 ................
00403B20 0D 2F F4 1B 00 8D 8A 00 18 E7 7F F0 00 4C CB 00 ./...........L..
00403B30 47 69 6E A1 C8 44 3E 88 4D 00 77 45 A8 A0 72 42 Gin..D>.M.wE..rB
00403B40 00 88 BE 21 87 C0 FB 00 43 00 42 00 B7 32 00 00 ...!....C.B..2..
00403B50 46 CE C1 41 F2 74 1F 00 44 11 11 D6 00 CC 81 07 F..A.t..D.......
00403B60 00 B9 00 C3 00 09 81 02 D4 35 C5 F0 AD FF 2C 37 .........5....,7
00403B70 00 E0 00 F1 0A 6F 00 D0 03 6F 77 AA 8F 87 00 02 .....o...ow.....
00403B80 17 00 E4 16 00 2A 40 40 6F 6C B1 AF 1B EE DA EF .....*@@ol......
00403B90 CF F6 B9 00 43 84 10 D9 C6 A3 39 18 C3 00 E0 EF ....C.....9.....
00403BA0 00 47 81 8E 00 FA 55 72 00 00 E0 80 8E 00 21 DD .G....Ur......!.
00403BB0 B5 59 5D 12 F8 A0 0F 00 E2 C8 FF 00 36 66 80 84 .Y].........6f..
00403BC0 34 EA 13 BA EC 1C 4A 19 FF 00 AE 00 FC 4A 0D 00 4.....J......J..
00403BD0 FF FF 74 EE CE FF E7 00 26 40 C5 51 46 40 D3 00 ..t.....&@.QF@..
00403BE0 4A A2 E3 F8 78 5D 41 F9 C5 4D C0 00 E1 86 2F C5 J...x]A..M..../.
00403BF0 6B F7 3A 20 11 31 24 8F 27 40 6F 77 02 2D F1 D5 k.: .1$.'@ow.-..
00403C00 51 75 C0 00 67 BC DB 68 48 E3 E4 75 54 29 00 39 Qu..g..hH..uT).9
00403C10 00 25 A1 3F 13 20 FF A5 E4 B6 82 20 2C D4 28 45 .%.?. ..... ,.(E
00403C20 00 C3 7C 25 85 04 00 62 CE 5E 66 25 38 12 00 9D ..|%...b.^f%8...
00403C30 24 00 01 FF 35 C7 9F 96 FF 37 D8 21 B0 04 BA DF $...5....7.!....
00403C40 53 30 00 F0 D0 44 00 63 1B E9 00 C8 45 66 00 18 S0...D.c....Ef..
00403C50 64 00 76 0C 63 91 E1 74 A9 7A 02 4F 16 0A 1C 9B d.v.c..t.z.O....
00403C60 06 00 2F 00 BB 6D 29 51 03 41 67 70 7D 99 36 A7 ../..m)Q.Agp}.6.
00403C70 DE 32 61 85 00 93 00 CC F1 AA 70 20 02 86 F2 00 .2a.......p ....
00403C80 19 10 DB C5 44 29 42 81 72 00 2C 69 3A 0F 3F 88 ....D)B.r.,i:.?.
00403C90 0E B2 63 64 17 F7 5C D0 4D E5 EF 5F 00 0D BA 1C ..cd..\.M.._....
00403CA0 79 53 00 A3 60 9F D1 A6 45 0C EB FA 00 29 F5 32 yS..`...E....).2
00403CB0 81 72 50 58 7A AA 40 86 FF 21 37 36 B3 08 E0 F8 .rPXz.@..!76....
00403CC0 BE 6F DC 00 3D A0 82 B5 00 36 00 0F F1 5C FF 65 .o..=....6...\.e
00403CD0 00 86 FB 23 C2 04 F2 FF C6 91 DE 61 FB 44 5E 7D ...#.......a.D^}
00403CE0 5A 70 00 00 00 24 0E 6D 0C FF D6 3C 5C 00 02 00 Zp...$.m...<\...
00403CF0 05 90 C0 42 01 FD 82 31 FF A0 00 00 B7 B8 FA 3E ...B...1.......>
00403D00 EC 32 A7 FB 48 6F 13 7C EE 4D 00 3C 5A F9 8E 06 .2..Ho.|.M.<Z...
00403D10 87 FF 21 96 F9 B5 E4 64 76 71 46 E7 00 31 D0 3C ..!....dvqF..1.<
00403D20 00 C1 79 A4 2D 00 B6 3B C4 D2 08 33 91 1F 0E 00 ..y.-..;...3....
00403D30 83 51 31 22 66 24 45 D9 EB 21 0D 65 E0 00 1A A4 .Q1"f$E..!.e....
00403D40 00 00 12 04 AD EA 0B A9 E0 4C 1D 17 18 0F 00 03 .........L......
00403D50 E2 03 AF D0 84 00 FF 8E DC 2D 57 3A 1F 21 04 00 .........-W:.!..
00403D60 EB 00 2E 84 BA B0 04 3C 01 BD 83 FF 89 2C 03 F8 .......<.....,..
00403D70 79 47 BD 00 00 4B 88 E5 C7 43 86 C1 63 B3 81 A2 yG...K...C..c...
00403D80 00 0D 00 2C FF 6E 7C C0 02 00 A0 FF B1 49 0C 00 ...,.n|......I..
00403D90 0B 11 E0 38 DD 5E 6F 20 C6 FE A0 0E 10 00 E2 FE ...8.^o ........
00403DA0 FF FF 77 C0 30 F1 44 19 42 60 F7 CB 00 FE 20 21 ..w.0.D.B`.... !
00403DB0 00 5A 6B 91 AB 00 3D 64 CC 92 00 AF 7D D5 CD CD .Zk...=d....}...
00403DC0 48 00 46 00 64 0E DB 16 1A 96 D1 9E BD 72 AE 85 H.F.d........r..
00403DD0 40 D3 6F 4F 5C 4F 00 A0 99 40 00 F9 D8 FD 00 49 @.oO\O...@.....I
00403DE0 9F 90 14 FF DB EE 25 FF 8B E4 44 21 35 23 00 45 ......%...D!5#.E
00403DF0 8D 0C 84 00 01 FF 38 FF 00 B8 C6 34 B9 A1 62 9C ......8....4..b.
00403E00 84 54 7A BF 07 CF 00 18 72 94 69 DC 63 A5 FC C1 .Tz.....r.i.c...
00403E10 A8 49 7C AB 00 47 D8 53 53 0B 29 84 C9 57 00 79 .I|..G.SS.)..W.y
00403E20 0C 4B C9 D1 30 93 20 EF 00 CC A5 91 DC 9A 0D EB .K..0. .........
00403E30 00 00 28 6E 8D B7 0C C4 6A 48 00 CE BE 00 A8 FF ..(n....jH......
00403E40 00 61 D1 3D 66 0F A9 01 00 00 00 66 1D E7 90 15 .a.=f......f....
00403E50 17 00 00 12 14 C6 5B 21 95 FF 65 39 84 99 B8 7C ......[!..e9...|
00403E60 C6 46 34 6F 0F 1F 71 2F A0 53 36 6F B1 FF EE 4B .F4o..q/.S6o...K
00403E70 66 78 A8 00 BA 35 A8 00 C1 EB E3 03 81 00 4C C0 fx...5........L.
00403E80 3C 18 DF 2F 48 EE 5A 7F 1B 0C 1E F3 B4 A2 2D FF <../H.Z.......-.
00403E90 A1 CE C4 E0 EC BE 36 D0 00 0E 04 00 CB F6 00 FF ......6.........
00403EA0 6F 6A 0A 00 1D 73 04 29 C8 B6 FF 00 34 04 10 7C oj...s.)....4..|
00403EB0 69 87 BD 65 E4 F9 8B 00 37 24 11 F2 81 C0 BA 05 i..e....7$......
00403EC0 92 0E 32 66 00 65 39 00 69 5B 13 23 BD 2D 91 64 ..2f.e9.i[.#.-.d
00403ED0 00 DD 44 0D 5F 64 80 00 D5 DF 96 40 50 C0 AD 00 ..D._d.....@P...
00403EE0 96 DB 00 A1 09 C7 EE 02 E4 28 FF 04 36 06 8A 9C .........(..6...
00403EF0 81 C5 89 A3 FF 00 D3 4C 4F 98 07 E9 C7 1B 64 70 .......LO.....dp
00403F00 95 16 EC 1E D4 FF 02 7C 2E 44 1E BF 2E 00 EB E6 .......|.D......
00403F10 FF FF 81 00 A5 A4 27 36 7B B4 B6 A7 25 C1 00 BB ......'6{...%...
00403F20 37 00 EF AC A3 3F 00 58 82 EF 62 D5 7F A3 F4 C6 7....?.X..b.....
00403F30 5C EB 4D 09 8E 04 00 C0 BF 92 00 C5 97 E8 EA 6F \.M............o
00403F40 94 89 F1 64 EB 3A 51 14 5D 88 31 31 7E 7C 78 87 ...d.:Q.].11~|x.
00403F50 77 DA A0 F2 7C 00 5E 5B 4D 12 C7 3A 77 B5 3C FF w...|.^[M..:w.<.
00403F60 00 BD D1 00 C4 FF 81 60 FF CD FF 60 D2 68 67 D9 .......`...`.hg.
00403F70 B2 59 3B 4D D3 D2 00 15 3C 10 30 CF 72 C8 79 83 .Y;M....<.0.r.y.
00403F80 AB DC 42 FF 47 00 53 60 00 05 7C D2 B2 B4 E7 9E ..B.G.S`..|.....
00403F90 16 04 00 76 5B 80 E0 CE 80 41 00 6C C9 BA 19 97 ...v[....A.l....
00403FA0 FD 0F FF 4A 82 7A DA 4F DF A4 00 CC 27 00 00 00 ...J.z.O....'...
00403FB0 1A 00 F7 0E B8 C0 00 00 D6 94 41 A6 33 82 4C 8E ..........A.3.L.
00403FC0 51 A7 B1 C2 70 12 57 21 00 F1 DC 00 29 38 C1 A9 Q...p.W!....)8..
00403FD0 59 10 88 D2 D7 FF 00 B8 EC 14 00 4A 0A 6A 0C 11 Y..........J.j..
00403FE0 00 64 E0 AF FE 92 00 1B 0E 47 84 F9 31 7E 49 8D .d.......G..1~I.
00403FF0 00 89 00 67 4E 60 17 0E BD 1D 19 32 22 00 DB D8 ...gN`.....2"...
00404000 58 06 39 B2 47 00 1C 0A 81 00 00 23 3F 7E 7C 0C X.9.G......#?~|.
00404010 36 82 BD 68 10 03 D6 18 E5 9F F0 C7 4A FC FF 12 6..h........J...
00404020 00 F4 00 8B 0B FF 8E 32 D6 00 21 B7 3C 4D A1 36 .......2..!.<M.6
00404030 33 40 00 3E B9 F6 2F CD 96 2A EB 06 89 FF C7 AC 3@.>../..*......
00404040 F5 30 4A FF 1A FF FE 87 FF 03 69 FE E1 00 38 0F .0J.......i...8.
00404050 AD 8A 28 14 C1 C7 E8 EA 44 0E 9E 00 00 1D 1F 8A ..(.....D.......
00404060 BC EF 9D 09 0C 47 F2 85 74 6C FF 36 00 00 26 00 .....G..tl.6..&.
00404070 7D F6 D8 87 76 FF D3 D0 00 D6 DD FF 39 ED D8 E1 }...v.......9...
00404080 2F C9 25 07 FF 21 70 EC 7D ED 08 00 08 E3 5D 00 /.%..!p.}.....].
00404090 D0 5D 21 BE 7E 00 BE E0 BD D7 7E 26 97 C3 1C 00 .]!.~.....~&....
004040A0 F7 00 DA 12 77 56 28 AD 00 8D 00 FF 83 7E 06 00 ....wV(......~..
004040B0 FC 7B B5 A0 F1 70 28 C2 04 C0 33 4F 80 3E B8 7B .{...p(...3O.>.{
004040C0 1F 9C FF 0F FD 00 93 CE 19 EB FF 4A FF 8A F1 1E ...........J....
004040D0 E8 40 0C 00 6F C0 34 DB 00 00 00 0D F5 03 6E DD .@..o.4.......n.
004040E0 00 D9 3E 41 26 07 5A 1E 5E D0 9C 19 4E 7C 65 A3 ..>A&.Z.^...N|e.
004040F0 64 CD FF 81 05 FF E5 E6 01 00 E3 F9 E4 13 0E 6F d..............o
00404100 B7 A6 16 90 4F 27 04 00 DA 0C 46 E5 38 B2 00 8C ....O'....F.8...
00404110 00 8C 54 00 88 C1 47 DF FF FF 00 97 70 00 C7 6E ..T...G.....p..n
00404120 7D F9 77 0C 1A 00 43 12 C4 FD 65 17 00 FF 03 00 }.w...C...e.....
00404130 AE DA 00 BB C7 38 45 DB CE 22 64 EC 57 E0 47 E3 .....8E.."d.W.G.
00404140 A2 56 FF 84 E0 00 DD 00 6A 3B 6F 08 74 8B 24 3B .V......j;o.t.$;
00404150 5A BE F0 7A 00 65 D9 26 60 0B A9 65 44 0C 8C 00 Z..z.e.&`..eD...
00404160 86 27 42 51 4D FF C3 8E 25 32 48 77 00 05 00 7D .'BQM...%2Hw...}
00404170 81 45 00 00 E3 3D CF 00 7F 78 80 8C 84 28 70 58 .E...=...x...(pX
00404180 00 20 B5 61 FF FE 61 70 00 17 A1 E5 30 62 F4 76 . .a..ap....0b.v
00404190 50 E1 A8 0B FF 4E 98 E8 13 21 71 83 00 00 8A 07 P....N...!q.....
004041A0 FF 18 F6 10 0B 12 C4 02 AB 17 DE 37 00 F6 AC A6 ...........7....
004041B0 9F D1 82 2B 42 38 CE E6 FF 82 86 00 46 53 CF AA ...+B8......FS..
004041C0 01 EE B9 C2 00 4B 17 CB 1C A6 2C 1D FD 05 68 00 .....K....,...h.
004041D0 00 4E A0 E1 8B 00 FF DF BD 00 D1 F8 09 FA 4B 36 .N............K6
004041E0 57 A9 00 29 F9 81 C4 E7 F0 06 44 46 00 1F 83 FF W..)......DF....
004041F0 45 40 27 00 2D 2D 4F 80 FF B0 47 CC 24 FF 8B 00 E@'.--O...G.$...
00404200 DA F3 A8 62 4A B2 00 69 08 BD 00 06 DA A5 FF 07 ...bJ..i........
00404210 00 37 C7 32 31 00 58 90 1E FF FA 4D 38 A0 BF F3 .7.21.X....M8...
00404220 11 1A FF 72 00 27 90 81 F6 00 3B 2D AC 29 8D FF ...r.'....;-.)..
00404230 58 00 83 FF 00 32 07 6C 61 80 48 42 EB DF 57 7E X....2.la.HB..W~
00404240 07 6F 49 60 5F 7E C1 00 CE 00 2F EE 3B 47 88 FF .oI`_~..../.;G..
00404250 EE BF B6 DB F3 62 1F B1 DD 7F F3 45 A8 00 00 6B .....b.....E...k
00404260 AA 0B ED AA B4 00 9F B9 00 DF B2 71 53 BA 43 07 ...........qS.C.
00404270 20 E3 62 C7 B9 E3 EE FF 3D B5 08 5A CB 00 2C 00  .b.....=..Z..,.
00404280 5E E5 A4 13 00 E7 B5 95 D7 81 51 10 D4 01 03 F8 ^.........Q.....
00404290 FF D4 B8 18 C2 6C 2A 05 FF 46 C6 6C A6 00 FF 3E .....l*..F.l...>
004042A0 9E 45 91 1F BD D1 00 C0 A9 81 39 5C FF 2B 0B E9 .E........9\.+..
004042B0 7A 00 37 98 01 25 0E 00 3F 63 00 25 FD 04 10 3E z.7..%..?c.%...>
004042C0 94 00 C1 E2 B5 37 7A 16 62 D1 CF BC 7D C2 DF 00 .....7z.b...}...
004042D0 0D E0 1D 12 10 1B B1 B7 C5 F9 54 48 DD 25 FF C5 ..........TH.%..
004042E0 00 A2 F7 02 4B 03 FF C8 6A B8 90 E4 E4 D4 00 00 ....K...j.......
004042F0 66 48 A8 98 C6 31 04 E3 55 FF 22 62 13 DA 71 00 fH...1..U."b..q.
00404300 30 8F 18 B8 7E B4 C0 A8 5F 69 1D FF 90 82 D6 7C 0...~..._i.....|
00404310 78 A6 FF 0B CC C8 B8 C8 E3 41 F5 85 00 50 62 64 x........A...Pbd
00404320 A6 0C D0 69 04 75 C2 CA 72 19 CD 06 8B 44 EB F3 ...i.u..r....D..
00404330 00 54 48 9B 06 3C F3 3C C8 B1 90 E0 DE AD 27 88 .TH..<.<......'.
00404340 00 87 FF 8F 5C BD F9 34 E6 E9 39 37 6C 00 28 A4 ....\..4..97l.(.
00404350 32 45 19 6B FF 52 FF 53 08 00 3D 00 06 98 7D E5 2E.k.R.S..=...}.
00404360 D0 43 05 91 84 E3 02 00 30 F1 77 00 5A 82 CB 91 .C......0.w.Z...
00404370 3E 19 08 0A FE 13 00 40 8F 00 DC 99 E4 4A 87 E8 >......@.....J..
00404380 40 FC DE 4C 00 9F F6 DF 1C C3 6A 00 3C 17 14 A2 @..L......j.<...
00404390 FE F3 03 E3 00 40 2F C0 5E EC FF 01 F1 A0 20 49 .....@/.^..... I
004043A0 00 D0 4E 63 F9 3C 5C 78 75 00 92 AC D0 00 7B 43 ..Nc.<\xu.....{C
004043B0 B2 19 93 B3 7B 00 C9 24 B3 17 1E 00 00 4F 5C 00 ....{..$.....O\.
004043C0 BF 6C DD EE 00 57 05 0C 12 54 FA FF 3E FF FF 67 .l...W...T..>..g
004043D0 9E 41 E1 C5 75 2E 16 BE D0 A3 F7 C8 E2 73 F2 45 .A..u........s.E
004043E0 C9 DB 19 14 DA EF EE 1E 37 8C 74 36 FE 75 D3 37 ........7.t6.u.7
004043F0 75 FB 30 00 BA BA FF BD FB F0 1C 5A AB 89 00 00 u.0........Z....
00404400 11 00 98 43 5A EC 6C E0 C6 6A 40 60 68 F8 C3 DE ...CZ.l..j@`h...
00404410 59 0F 7F E9 00 7E 30 8D 15 89 D4 16 A5 41 75 EB Y....~0......Au.
00404420 14 8C 3D 34 B5 23 00 35 F3 00 BB BF D1 83 30 0F ..=4.#.5......0.
00404430 1B 70 CF 4C CF 10 8F 37 18 3A 50 99 28 FF FE 8E .p.L...7.:P.(...
00404440 11 00 CA 4B E7 3A C6 0A 67 00 7B 71 99 0C 93 00 ...K.:..g.{q....
00404450 EB 22 EC AD 1B 97 4B 22 A0 0A 83 7C 90 00 D3 5E ."....K"...|...^
00404460 4A 7A A5 3B 86 7E 69 58 77 0B 73 DF 02 61 BC 00 Jz.;.~iXw.s..a..
00404470 2F 10 FF 78 89 A4 3C 89 87 28 66 18 7F FF BC 55 /..x..<..(f....U
00404480 D0 8A F6 C7 4A 44 9B 42 DE D5 95 1F FF 0B FE 4D ....JD.B.......M
00404490 00 41 B9 00 FB 05 F7 D0 F6 59 D7 00 F0 C8 EB 4A .A.......Y.....J
004044A0 28 C2 19 00 C8 00 49 80 DD 56 5F 7F 45 B3 EB 64 (.....I..V_.E..d
004044B0 A4 73 2C 1C 01 4A FE 08 2F 17 CD 97 E6 8A 7C 6A .s,..J../.....|j
004044C0 98 80 A1 51 6D CA EC 00 D2 FF 64 40 F5 F9 3D 18 ...Qm.....d@..=.
004044D0 62 BF CA 2F 00 FE B1 86 1C 32 1D D8 E6 00 24 22 b../.....2....$"
004044E0 B7 76 F1 8C F7 2E 10 81 A6 FF 35 A3 00 15 4B D5 .v........5...K.
004044F0 24 89 00 5A CD 0C 38 46 74 58 CC 30 52 00 00 FF $..Z..8FtX.0R...
00404500 73 00 B4 66 00 08 FF 99 A4 40 AC 00 B4 E1 3E 4D s..f.....@....>M
00404510 35 FF B1 00 C8 FF 74 F6 3B 6E 1A 7B 66 00 99 BD 5.....t.;n.{f...
00404520 AB 1D A6 C7 00 D1 FF 5B C3 18 28 00 53 2C 2F D6 .......[..(.S,/.
00404530 36 0E BF 00 F1 00 AF 13 DA 51 9F 3D B0 59 B7 00 6........Q.=.Y..
00404540 DC CE F2 A5 8E 13 E2 20 C1 21 3B 93 F6 A5 FF 90 ....... .!;.....
00404550 F2 C4 7E 9F 14 D2 06 E0 8B 0B D0 12 A8 EB 88 51 ..~............Q
00404560 6D 12 D2 5A CD E5 9F 00 83 7F 86 D5 4F 76 8E 21 m..Z........Ov.!
00404570 A8 D9 5F 09 0D 24 9D FF D9 7F 43 85 CE CF 16 DE .._..$....C.....
00404580 BE E0 D9 24 EE E1 D7 40 03 09 29 F9 F6 01 DA EF ...$...@..).....
00404590 F9 78 CC F5 C0 E8 2C CC 8B B9 A2 18 FF 12 3E D1 .x....,.......>.
004045A0 00 BE 47 7F C9 67 FF 14 CB EB 57 6B 61 F6 00 00 ..G..g....Wka...
004045B0 00 01 B1 F6 00 91 CD 61 26 18 AF E6 C9 8C 00 94 .......a&.......
004045C0 0E 62 A2 62 FF F9 3D 00 1F 83 6D D8 D4 A1 5E B1 .b.b..=...m...^.
004045D0 AD 3B 00 60 09 F2 E5 03 DD 44 80 07 44 00 71 56 .;.`.....D..D.qV
004045E0 AE B3 7C C2 00 1F FB FE 5D 3A 66 40 00 45 B3 7D ..|.....]:f@.E.}
004045F0 00 DD C9 78 D7 14 C0 00 A8 F2 00 00 00 FF 0C F0 ...x............
00404600 B8 86 00 06 C1 BB 00 F8 00 33 36 3D 00 25 EF D7 .........36=.%..
00404610 FA E0 50 4C 0D A9 2E 00 91 60 94 41 B2 0C A0 C1 ..PL.....`.A....
00404620 A4 1F 5A D2 54 FF FD 00 B9 21 13 00 0B A1 F3 46 ..Z.T....!.....F
00404630 00 91 A7 30 BE 83 92 EF DA 74 75 58 CC 00 B7 D9 ...0.....tuX....
00404640 1B 07 3A 69 00 69 FF 00 50 45 FF E0 FF 09 CD 7D ..:i.i..PE.....}
00404650 9C 5C 26 FB 5F CA FF 42 E7 24 1E 61 FF 00 F3 00 .\&._..B.$.a....
00404660 0C 2C 30 E1 C1 7E 83 C7 11 51 B7 2D C3 6C DC 17 .,0..~...Q.-.l..
00404670 C1 FA A5 00 00 00 06 00 5F 4B 82 EF 89 9C 9B 3B ........_K.....;
00404680 05 EB DA 77 94 B7 3B C1 FF FF 29 E4 7D E5 00 00 ...w..;...).}...
00404690 9C 2A 00 B8 03 26 1F 42 00 24 5F D2 6E 00 5E D4 .*...&.B.$_.n.^.
004046A0 F2 F6 45 17 4A FF 33 DF C6 FF 58 00 00 02 3A 00 ..E.J.3...X...:.
004046B0 04 9B D1 03 C2 96 84 CE 83 8E A1 AA 35 47 00 CF ............5G..
004046C0 56 DF B3 5E F6 3B 8F 0C B2 EB A6 98 33 E4 40 E7 V..^.;......3.@.
004046D0 D7 21 FD 64 E2 10 02 D1 2C 98 CC 27 FF 4D 66 E4 .!.d....,..'.Mf.
004046E0 D9 00 C6 00 A6 39 00 F9 00 00 1A F1 FF 23 EB 00 .....9.......#..
004046F0 FF 1C 00 9A 74 58 FE 79 07 9E DF 7C A3 71 00 87 ....tX.y...|.q..
00404700 66 EC 2B 3F 01 06 A2 06 43 C6 5E BF 12 70 EC A7 f.+?....C.^..p..
00404710 16 58 FF 0C 00 41 00 16 5D 05 0A 89 0B B1 3A 00 .X...A..].....:.
00404720 FD 30 CD FF FF 88 04 3E 94 01 F2 31 6A B1 44 03 .0.....>...1j.D.
00404730 40 3A 9C 00 24 CD FF 28 13 D0 E0 4F B1 EC D4 18 @:..$..(...O....
00404740 E9 04 89 34 59 06 00 F1 46 45 36 FB 49 4E 00 18 ...4Y...FE6.IN..
00404750 46 FF FF 3A 00 9D 58 A0 71 6E 01 00 71 2F CD 00 F..:..X.qn..q/..
00404760 0E 02 01 11 AB 8C 31 FF 84 68 39 FF FF F7 8D 48 ......1..h9....H
00404770 1F 8F FF 8A 2C 84 78 8C 00 22 F9 FD C7 7C 0F 5D ....,.x.."...|.]
00404780 3C 8F B9 5C 17 29 28 30 33 AF B2 6C 7E 1B 84 36 <..\.)(03..l~..6
00404790 C5 7F CB 18 B9 22 7F 91 81 81 CC 9B 55 5C 37 08 ....."......U\7.
004047A0 00 00 22 FD 3A 8F E0 39 EF FC FF C5 52 42 FF 4B ..".:..9....RB.K
004047B0 9D 01 AC 13 E0 4F E7 1C FF 4B 2B 54 33 31 C1 65 .....O...K+T31.e
004047C0 C4 00 00 93 C3 FF 0F 15 07 77 A4 91 6F C2 0F 44 .........w..o..D
004047D0 CB 19 00 00 C4 67 2D E6 ED C3 03 00 70 58 DF 94 .....g-.....pX..
004047E0 CF 14 1B 9D 56 FF 15 3A 00 48 FF 71 2C B0 AD A3 ....V..:.H.q,...
004047F0 E4 FF B5 6C F4 FE 1B 60 7B 0B 00 DC 93 D4 B7 79 ...l...`{......y
00404800 64 4B 30 8E 6C 4E 08 05 54 8A E7 D0 2D 57 00 80 dK0.lN..T...-W..
00404810 02 C0 FF FF 0C F3 78 13 8C 13 29 6B 95 3F C9 EB ......x...)k.?..
00404820 08 B0 00 00 4C 6E 00 D7 9B 4B 00 9B 00 D8 16 43 ....Ln...K.....C
00404830 B6 EE 26 9B 7F 00 78 83 95 88 82 00 00 81 4C C2 ..&...x.......L.
00404840 65 FF 9B 9A E9 C6 00 E3 C9 3C E1 62 2E 30 AA 5D e........<.b.0.]
00404850 9C D1 DF 0D FA FD 59 DD 69 0C AB B1 8C 28 B4 00 ......Y.i....(..
00404860 03 C0 F3 2D 36 B0 AE 76 00 08 00 1B BA 18 17 D8 ...-6..v........
00404870 00 00 36 2C CB E8 BF 57 9B 17 76 C9 DE DB 1B 77 ..6,...W..v....w
00404880 00 46 FF 58 C0 B8 4D 94 AE 7A A8 4C 1F B3 EE 38 .F.X..M..z.L...8
00404890 30 04 00 AE 00 3F EB 62 8E 04 D1 C4 C1 B8 31 F3 0....?.b......1.
004048A0 B0 00 77 BC DE 00 20 00 AF 12 3C C7 FC 70 00 08 ..w... ...<..p..
004048B0 40 3A FF 17 F1 FF 18 25 7E 6F DE 8C 92 00 50 E2 @:.....%~o....P.
004048C0 10 BB 9F 02 2D FF 85 01 C1 FF C1 FF 00 BE 04 FF ....-...........
004048D0 00 07 88 40 BE BC 67 56 FC 96 5E FF 19 4B F2 2F ...@..gV..^..K./
004048E0 85 2C C4 3B E3 F6 D4 42 02 4D 83 79 26 EC 3B 9C .,.;...B.M.y&.;.
004048F0 0D 6E 9E 00 61 1C 58 D7 FF A7 0A 4C 00 33 FC 27 .n..a.X....L.3.'
00404900 FD BE 00 9F 4B 98 54 EB DF 00 90 A8 A5 00 A4 6E ....K.T........n
00404910 D2 3B CA 7C 2D 79 E1 DC 02 03 00 00 88 97 9D 07 .;.|-y..........
00404920 20 48 00 D7 C2 27 03 F5 A8 33 9B B9 93 3E FF D4  H...'...3...>..
00404930 53 00 91 00 1D 07 32 FF EC 50 FF FF 4F 67 C5 7C S.....2..P..Og.|
00404940 FF FF C2 04 5C 83 81 62 BC FF 00 F4 10 24 CF D3 ....\..b.....$..
00404950 02 FF 00 0A FF D2 20 1A 00 87 FF A3 00 CD 4F 74 ...... .......Ot
00404960 00 F6 A8 C8 6B 01 54 00 A0 93 52 BC BF 22 30 6F ....k.T...R.."0o
00404970 F2 00 81 47 E2 E6 A7 BC FF F9 4E 0D 00 02 B2 5A ...G......N....Z
00404980 8D EE 70 81 87 01 30 F5 3C 6F A5 00 D2 E8 4F 14 ..p...0.<o....O.
00404990 DB 0C E5 D2 82 B0 D0 22 B5 A9 61 13 26 0E E0 11 ......."..a.&...
004049A0 68 50 6C 4C 2D 00 E8 35 32 20 54 DF 58 BF 53 00 hPlL-..52 T.X.S.
004049B0 AD B0 B9 BA 7F FC DE FF 45 FB A0 9C DA 9D BA 9F ........E.......
004049C0 74 9A F9 97 70 00 72 00 95 9B FF FF A3 C6 1E B0 t...p.r.........
004049D0 00 50 08 D3 BB F1 00 04 21 7D 88 98 C1 3C 3C 00 .P......!}...<<.
004049E0 00 16 7D 00 02 81 20 00 BA 01 00 00 8E 79 50 8B ..}... ......yP.
004049F0 C9 F2 00 00 20 2C C8 5C 00 99 18 FF 04 A6 65 B7 .... ,.\......e.
00404A00 FE 63 00 00 52 00 1C 6C 1E FF 09 06 88 9A 00 AE .c..R..l........
00404A10 CF 1F 2A 00 2F 93 64 50 71 92 32 FC F1 BA 40 FF ..*./.dPq.2...@.
00404A20 B2 05 F6 FB 00 7C EC 00 FC 00 89 36 4C BA 63 F3 .....|.....6L.c.
00404A30 0A 9B 81 0A 01 F9 24 06 12 00 13 0E 98 00 00 D3 ......$.........
00404A40 00 57 C4 FF C4 E3 6D F8 98 05 AD DF 00 77 12 58 .W....m......w.X
00404A50 4B C6 00 73 84 5D 39 00 9A 00 B9 D2 54 00 64 0F K..s.]9.....T.d.
00404A60 27 91 96 01 FC E7 0C 43 00 BC 96 41 14 5B 00 B8 '......C...A.[..
00404A70 22 FF 30 FF FF E1 3A B0 1F AF FF A9 E3 1D 72 00 ".0...:.......r.
00404A80 A2 F7 98 FF 2C F8 35 A3 13 7E 72 44 38 B7 70 00 ....,.5..~rD8.p.
00404A90 9B FC 24 09 E3 BB BC 1F 61 69 68 EF 5C BD 9B 2D ..$.....aih.\..-
00404AA0 82 E9 22 23 02 78 46 27 CF 67 61 F2 3A F9 CE 00 .."#.xF'.ga.:...
00404AB0 F3 00 DE 39 ED C1 00 00 AA DD 04 5E 52 72 49 FF ...9.......^RrI.
00404AC0 FA DB 8D 00 1F B2 C0 00 24 D2 C4 22 00 56 58 48 ........$..".VXH
00404AD0 FE B0 4A CC C3 76 DC 93 A6 00 30 E0 35 5F 7A F6 ..J..v....0.5_z.
00404AE0 2B A6 97 A1 00 15 84 76 7F A7 FF 46 B1 00 6A B8 +......v...F..j.
00404AF0 32 1F 13 FD 00 00 12 66 FF 6B 36 F8 00 4C 0C 24 2......f.k6..L.$
00404B00 A3 A7 07 FF C4 88 00 D6 F3 13 17 9C AE FE 00 6A ...............j
00404B10 4F 41 42 26 67 F8 28 99 78 5F F4 00 00 00 41 00 OAB&g.(.x_....A.
00404B20 95 67 FF B0 39 F6 D6 00 38 28 17 0A 5E 8D 89 94 .g..9...8(..^...
00404B30 E7 94 37 92 B1 C5 F3 DB FE DB A0 A1 F6 6F AB C1 ..7..........o..
00404B40 09 A1 AD 54 15 17 66 6F A3 A5 2E 8E B0 50 06 6D ...T..fo.....P.m
00404B50 4F 00 39 CA 18 85 58 46 3B 00 DE 68 18 A1 69 83 O.9...XF;..h..i.
00404B60 10 F9 FB 49 6B E9 8A D9 91 5D 00 F0 00 65 CB 3D ...Ik....]...e.=
00404B70 BE 1B 3D 70 FF 9C 46 EA 00 41 FF F9 DE AB 00 FF ..=p..F..A......
00404B80 28 85 9B 41 64 DB 30 04 2E D2 1C 21 F1 49 2E 9C (..Ad.0....!.I..
00404B90 4C 8D 8A C7 1A 00 96 1F 00 22 C1 17 FF 54 46 FF L........"...TF.
00404BA0 B9 67 93 AE 75 99 4C 00 41 DB 00 AD 15 C6 C8 00 .g..u.L.A.......
00404BB0 00 5D 09 9D E9 1C 00 9F C8 DC 73 8C 05 1D D0 C7 .]........s.....
00404BC0 00 53 53 70 5E 2E CD EC 36 00 69 82 B6 D5 00 FA .SSp^...6.i.....
00404BD0 F1 AA 01 00 E1 E3 03 C5 00 32 05 EF 76 FA 79 D5 .........2..v.y.
00404BE0 00 6F CD 00 D8 27 9D 09 86 FC 0C 00 CF 17 B7 1B .o...'..........
00404BF0 8F E0 72 1C 83 B0 3D 00 80 E6 2E 00 00 00 23 DE ..r...=.......#.
00404C00 D5 00 96 FA 6A 89 C1 B5 FF 17 D7 FF 97 1E 48 AB ....j.........H.
00404C10 1F 88 FF 52 36 D7 18 E4 12 71 00 CC 30 C1 9A FD ...R6....q..0...
00404C20 AB 00 00 29 A8 C8 92 78 00 C5 FF DE 0F 96 A7 20 ...)...x....... 
00404C30 00 49 83 98 31 EC 70 8D 12 00 C5 06 00 73 45 CE .I..1.p......sE.
00404C40 16 3A EA 3F E7 B8 F8 17 22 14 29 00 E8 3D 6C D9 .:.?....".)..=l.
00404C50 CE F4 9A 3B 57 4A 1E 00 11 FF A2 00 FF 00 FF 62 ...;WJ.........b
00404C60 A1 A8 43 8B 2A 31 34 E4 00 1F 00 40 22 47 EC CF ..C.*14....@"G..
00404C70 0B 00 00 16 00 EF 8C 55 4B D8 EF BA 42 D2 87 98 .......UK...B...
00404C80 B5 00 4B F5 FB DE 13 D4 91 A2 FF 44 00 C0 CA 44 ..K........D...D
00404C90 88 14 FF 00 82 B2 D0 56 E6 90 5F 24 49 CE 1C 00 .......V.._$I...
00404CA0 E6 00 01 25 00 CF 00 27 A7 B7 00 00 81 69 71 8D ...%...'.....iq.
00404CB0 20 C4 CF 1C 51 EF 9D 7F FF 6F EF FF 00 43 E0 DD  ...Q....o...C..
00404CC0 19 00 E0 ED 00 66 34 08 8A 00 3A 53 2D 9D 80 DA .....f4...:S-...
00404CD0 00 FF 2B 19 EB 99 53 00 37 8A 4F BC FF 83 F1 00 ..+...S.7.O.....
00404CE0 A0 9E 00 7F 00 06 B9 0A 7C 00 50 5C 00 1C B6 70 ........|.P\...p
00404CF0 18 5D 2E 24 62 C5 26 AF 00 00 C2 0A 28 A7 77 50 .].$b.&.....(.wP
00404D00 22 00 85 2B C3 00 D8 15 4F 00 AD 73 5E 00 EF CF "..+....O..s^...
00404D10 00 FF 7E D0 45 7F 32 91 18 80 DE FC D5 00 A0 18 ..~.E.2.........
00404D20 00 F1 A3 99 23 F9 0E BC 9E D8 01 83 5D 56 D5 02 ....#.......]V..
00404D30 70 87 08 28 38 CC 00 F0 71 57 0D 73 00 34 EB 8C p..(8...qW.s.4..
00404D40 2E 6B 00 E9 E3 33 15 CE 00 EE 90 78 72 00 85 83 .k...3.....xr...
00404D50 50 FF FF 00 33 FD 96 6C 20 00 3F 63 6D 21 3C 3A P...3..l .?cm!<:
00404D60 92 FD 69 AF A9 AF FF 45 81 00 4E 71 4C FF 26 FF ..i....E..NqL.&.
00404D70 00 03 1D F2 EF B7 FF FF B2 D9 82 70 2C FF 2F 10 ...........p,./.
00404D80 14 0E 42 39 BC 7B 40 08 EA ED 15 CD E0 59 BD 24 ..B9.{@......Y.$
00404D90 00 49 4D 00 EF E7 38 FF FF 4F CA EA E1 27 00 73 .IM...8..O...'.s
00404DA0 96 96 76 B0 F3 00 28 4C 71 70 E9 37 06 B3 5E FF ..v...(Lqp.7..^.
00404DB0 48 6E 50 00 C7 8D 00 59 D9 40 76 40 61 00 34 BC HnP....Y.@v@a.4.
00404DC0 E5 AD 19 DD E3 9E F2 B1 21 C9 8E B2 B4 FD 9A D8 ........!.......
00404DD0 66 02 5F DB BF 00 7A D6 A5 EC 01 FC 88 3B 61 6C f._...z......;al
00404DE0 D3 8E 80 01 E3 5B D1 CC 00 21 41 99 81 CA 00 70 .....[...!A....p
00404DF0 69 C1 26 A5 00 34 BF E5 4D D6 29 72 0D 14 0B 68 i.&..4..M.)r...h
00404E00 09 48 00 97 73 41 2D 51 75 A5 84 00 00 00 37 1F .H..sA-Qu.....7.
00404E10 34 00 17 65 93 FC 39 5E 33 DE CE 9E B3 4F 31 F6 4..e..9^3....O1.
00404E20 17 21 FF AF E1 00 0A 00 00 61 78 ED B2 63 1D 00 .!.......ax..c..
00404E30 C6 AB 3D 6D 03 91 79 CD 23 F9 48 2F 33 6B 96 52 ..=m..y.#.H/3k.R
00404E40 00 76 40 46 00 9D E0 46 AE F4 1D 00 99 9F A4 3E .v@F...F.......>
00404E50 00 81 3A 00 9E F0 FC C3 81 60 B4 AD 41 FF 9D FE ..:......`..A...
00404E60 B9 EF 00 1B 95 00 D5 B8 85 0D FF 29 C9 38 4D E5 ...........).8M.
00404E70 F5 43 91 C3 EC 00 00 54 C7 FF 40 FF 38 5C F4 E7 .C.....T..@.8\..
00404E80 89 BE E1 70 ED 3C 2A 73 99 5D 26 04 73 00 F6 00 ...p.<*s.]&.s...
00404E90 E0 72 08 FF 00 E2 11 C0 9C E0 E0 BB FF FF BA 2F .r............./
00404EA0 29 81 04 B1 47 C8 BE 00 60 9B FD C9 AB D0 D3 B0 )...G...`.......
00404EB0 B6 F5 E3 0D D6 78 11 CA 5F 8A F4 31 07 6D EB 62 .....x.._..1.m.b
00404EC0 6E 30 7F 35 D8 00 FF 07 91 00 C5 78 00 5E FD 1F n0.5.......x.^..
00404ED0 4F 78 3A 00 2E 34 EC A4 D8 D4 27 86 00 4B 33 B1 Ox:..4....'..K3.
00404EE0 8B 69 35 B0 1D C6 2A 00 F7 43 C0 F8 96 F2 B0 48 .i5...*..C.....H
00404EF0 05 00 A0 7C 3B FF 06 8A 03 9A F2 89 A0 82 C1 50 ...|;..........P
00404F00 01 3D FD 0A E1 1C FF 1A 5F EB 3E 0D 54 83 91 C9 .=......_.>.T...
00404F10 33 B9 13 05 47 3C E3 C2 00 28 67 50 33 93 00 11 3...G<...(gP3...
00404F20 6A 03 10 D0 FF D6 53 01 1A C0 4F 7F 6A FE E1 00 j.....S...O.j...
00404F30 00 00 35 0E 88 B9 08 76 D2 10 A3 00 4C 42 B3 D7 ..5....v....LB..
00404F40 00 00 EF A3 A4 67 D4 00 77 A9 0F 6B 71 02 FF 6F .....g..w..kq..o
00404F50 7E 27 10 03 75 4B FD 09 53 C4 00 AC B5 21 C5 FF ~'..uK..S....!..
00404F60 41 64 1A 85 00 FD AF 7E 8C 05 99 AC D2 55 0E 92 Ad.....~.....U..
00404F70 F6 00 00 65 4A 39 01 FF 75 E8 5D C5 62 CC 00 00 ...eJ9..u.].b...
00404F80 E9 1C 1F 48 74 6A D1 BC 72 FF 35 DE 80 C2 42 B7 ...Htj..r.5...B.
00404F90 FF EF 70 CB D0 63 E7 0E FF 13 84 00 00 D3 C0 FA ..p..c..........
00404FA0 ED 37 4B B3 96 FF FC 00 12 7A 00 FF CC 1F 58 20 .7K......z....X 
00404FB0 A1 B8 61 A2 43 66 50 00 2D 0A 86 0C 35 93 02 54 ..a.CfP.-...5..T
00404FC0 00 C8 00 1C 20 5C 9F 16 F0 3F A1 C5 00 F8 F7 0C .... \...?......
00404FD0 60 68 00 D3 14 3C 9A 3C 36 13 DE 59 00 00 A7 1D `h...<.<6..Y....
00404FE0 00 38 8D 00 65 FF 1F 2C DA 6A A4 09 B5 FE 5C 06 .8..e..,.j....\.
00404FF0 04 F2 AA 6A 50 00 84 18 78 13 21 7F 00 CB F0 11 ...jP...x.!.....
00405000 43 99 18 35 9D E8 00 18 55 C6 FA EF F5 00 E1 FF C..5....U.......
00405010 E1 2E 01 12 F8 7E 5E BA 96 B9 FC 00 FE 9C 7F 45 .....~^........E
00405020 00 07 CE 30 30 00 AE BF 1C FF 4D FF C9 E0 EE B8 ...00.....M.....
00405030 AA DA EF 88 7C 5D 24 FF 59 FF CE DB 10 02 97 00 ....|]$.Y.......
00405040 04 00 4B E0 01 E1 87 FF EE B0 E8 2B 7E FF 9D 00 ..K........+~...
00405050 10 57 B4 00 BD 00 00 BD 44 82 E6 E2 5E 7E 47 B9 .W......D...^~G.
00405060 B5 00 EF 81 C0 00 6E FA 27 03 00 C1 29 D4 00 00 ......n.'...)...
00405070 73 4D 2D 00 F6 FB C3 78 00 8E 5D 82 00 00 ED E8 sM-....x..].....
00405080 D1 7E 07 00 BB C5 00 0A 2E F2 1E B1 99 93 EB 71 .~.............q
00405090 D2 B1 FF 63 B2 02 4D 00 BB 26 FF C3 62 E6 A5 D2 ...c..M..&..b...
004050A0 8D CE 63 2A 00 00 AC 00 FF 3F D0 00 00 F9 FF C9 ..c*.....?......
004050B0 C5 0C 77 B4 0C 9E 98 19 B8 C8 74 EC D4 DF DC 04 ..w.......t.....
004050C0 00 6C 00 3F 4B 00 C4 03 EB BC B1 1F A3 3A E2 00 .l.?K........:..
004050D0 75 50 A8 F6 00 1D 2E E4 56 93 86 DA 00 03 26 09 uP......V.....&.
004050E0 B8 00 CA 35 D9 94 F7 66 00 EF D8 33 AE 00 F5 00 ...5...f...3....
004050F0 FB E8 64 C0 22 00 CF 79 38 C1 94 B8 80 50 07 84 ..d."..y8....P..
00405100 00 00 00 EF 00 CE 12 55 27 99 80 2C 93 2D BF 0F .......U'..,.-..
00405110 7A 2F 7B 26 00 08 07 6C 8D 00 E8 37 BF 1A 3A 26 z/{&...l...7..:&
00405120 4E CA FF D8 FF 97 5D B3 D3 38 00 DD 94 04 40 F3 N.....]..8....@.
00405130 D3 22 0F 00 B1 00 4B FB B6 C0 CE 67 B6 57 D2 50 ."....K....g.W.P
00405140 19 FF 00 FF 96 7F 41 00 8C 08 99 9F EB FD 7B A0 ......A.......{.
00405150 4E 8F 98 F8 86 00 1A FF FF 00 70 01 E5 88 05 00 N.........p.....
00405160 D3 C8 26 2C FF 4B 33 DC 2C 00 A8 93 11 75 17 1A ..&,.K3.,....u..
00405170 FB 53 00 67 F0 A2 85 21 FF 00 6C B6 00 9D CB 35 .S.g...!..l....5
00405180 A9 DB AD 1B 00 86 88 00 00 17 7F C4 CC B9 12 20 ............... 
00405190 E3 74 F4 3A 02 4C 82 00 EC 00 66 E5 CE 00 3B 26 .t.:.L....f...;&
004051A0 56 BF 2C BC DE 12 6E E4 39 FA 8B 9C BF 34 0B 70 V.,...n.9....4.p
004051B0 20 CF 43 93 9B B8 18 81 44 38 ED A0 92 A5 FE 1C  .C.....D8......
004051C0 C6 57 7A 00 EC E0 00 0D FF FF 00 81 70 71 10 70 .Wz.........pq.p
004051D0 00 D3 F2 8B BC 00 FF B8 94 58 E6 FF 77 D4 56 5B .........X..w.V[
004051E0 00 11 DD D8 D8 1E FF 4C 02 88 00 83 61 CB FB 38 .......L....a..8
004051F0 8D 51 45 5D 3C 95 6E 43 A3 00 96 2F EF 31 B5 1E .QE]<.nC.../.1..
00405200 22 36 10 94 82 EB EF 7A CE 03 BD 00 56 FA EE B6 "6.....z....V...
00405210 83 FD 1A F6 4A 98 82 0A FA 1D C8 00 CC FE 56 72 ....J.........Vr
00405220 F1 45 49 F7 86 1D BB 00 00 35 FF 52 EF D9 0A 5B .EI......5.R...[
00405230 00 28 D1 00 AA CC 55 06 01 4C 92 02 1B 00 60 69 .(....U..L....`i
00405240 FF 06 C6 00 AD E6 46 00 11 C6 C2 B0 61 2B 07 00 ......F.....a+..
00405250 DF 9C 00 07 18 B2 A7 44 00 F5 3D 00 73 00 72 D7 .......D..=.s.r.
00405260 45 32 26 DA BD E6 E3 51 17 B3 19 7E B8 E4 41 06 E2&....Q...~..A.
00405270 12 A9 08 00 FF A3 26 02 B9 EF 90 03 78 70 71 E0 ......&.....xpq.
00405280 9E 84 00 81 F6 EC 00 79 AC D5 FF 4E 07 0E 54 B0 .......y...N..T.
00405290 FB 61 D1 4A FF C8 CF E6 09 87 60 D3 A3 FF C7 9E .a.J......`.....
004052A0 D7 A2 0B 76 19 A2 00 00 00 5D ED D0 3E DA 10 00 ...v.....]..>...
004052B0 CD 11 93 5F 00 78 62 43 07 09 00 A6 37 00 9E 51 ..._.xbC....7..Q
004052C0 20 DE CF 15 99 6D BC 0A BC 90 C6 00 B1 69 A2 25  ....m.......i.%
004052D0 58 F7 E9 B7 E0 FD 50 82 C2 E8 E0 75 40 57 D9 13 X.....P....u@W..
004052E0 00 1A B2 C3 6A 00 7C 5A 12 70 39 00 72 11 61 7E ....j.|Z.p9.r.a~
004052F0 0B 90 99 D7 60 E0 10 E2 68 27 00 B7 B7 1E 00 00 ....`...h'......
00405300 FE 29 81 D7 96 6E 83 48 A8 00 00 00 63 82 35 6C .)...n.H....c.5l
00405310 F6 E8 46 74 06 7B C1 F3 D9 89 A8 00 02 C3 BD 00 ..Ft.{..........
00405320 32 29 00 94 6E 53 31 A7 0F 49 19 6C 82 2A 8E 07 2)..nS1..I.l.*..
00405330 65 E9 54 00 00 62 05 02 00 0C 4D D6 37 EF 2D A1 e.T..b....M.7.-.
00405340 7F 7E 00 B6 48 F7 66 3B 00 8A 67 EB 62 13 8B 7C .~..H.f;..g.b..|
00405350 33 34 A3 B0 41 79 86 BA DB DC B0 EF 56 EE 00 28 34..Ay......V..(
00405360 A5 3E 19 41 96 0E 46 8C EF 01 78 F4 58 00 7B 17 .>.A..F...x.X.{.
00405370 86 97 60 B1 FF A5 73 C1 51 CD B0 94 25 4E 15 BA ..`...s.Q...%N..
00405380 7F 83 1E EC 00 D3 70 19 5F 7F 4F FA 2A 4A 65 CB ......p._.O.*Je.
00405390 7F FA 36 8D 1F 40 00 C6 E3 EC A2 36 00 00 5C A4 ..6..@.....6..\.
004053A0 3D D2 56 B6 6C F4 24 DC 05 36 C5 73 1B F8 42 C8 =.V.l.$..6.s..B.
004053B0 2B 43 00 47 00 0E 00 92 11 46 FF 52 0B 4C 03 1F +C.G.....F.R.L..
004053C0 00 F8 37 93 B1 88 98 0C 5E 62 B7 50 28 66 00 51 ..7.....^b.P(f.Q
004053D0 00 9C 24 F3 99 3D D6 43 AA 0E FC 3B 93 DF 41 28 ..$..=.C...;..A(
004053E0 47 1B CA 80 6C 64 5C 7F B3 00 80 EE F8 17 BA FF G...ld\.........
004053F0 00 05 02 B0 F1 C2 87 5C 9C E7 EF FF B8 0D 07 52 .......\.......R
00405400 26 E9 30 E0 50 00 FB 93 98 8B 68 B5 B0 3F 39 0A &.0.P.....h..?9.
00405410 DE 44 00 07 FF E1 6E 60 00 81 E3 FF 6C F7 1E 00 .D....n`....l...
00405420 BA 31 A2 55 FF 73 AE FA 00 00 A2 C2 82 74 EC 8D .1.U.s.......t..
00405430 DE 82 15 E9 85 76 DE DB D8 00 26 08 90 02 A3 91 .....v....&.....
00405440 6D D3 F1 34 00 AA DA 4C 75 C7 DC B1 05 85 B1 A6 m..4...Lu.......
00405450 63 C1 20 A2 EA 71 FD 99 3D 11 7C FF 40 04 E9 4A c. ..q..=.|.@..J
00405460 20 54 9C FC 66 E1 9E 1B 64 11 FB 00 4F 1F 5A 3A  T..f...d...O.Z:
00405470 E7 00 0E C1 63 18 5C 9B CB 48 27 00 00 00 99 9C ....c.\..H'.....
00405480 FB 00 AD 28 50 EF 83 1A 11 00 A1 39 C9 1A EC D9 ...(P......9....
00405490 BF 15 FF 21 B9 D7 CC 18 33 E9 EC 2C 5E 9C 9A 87 ...!....3..,^...
004054A0 00 07 BE E1 8E 65 00 0C 76 E9 00 10 42 00 05 B1 .....e..v...B...
004054B0 EB 00 9E E8 00 9C 1F C6 E5 7C 93 4F 01 00 71 2D .........|.O..q-
004054C0 E7 99 3F 00 66 8B A0 DB 59 00 5E 61 00 DC C8 02 ..?.f...Y.^a....
004054D0 9F 1C C5 18 FF 0B 5F 48 64 13 00 27 2E 00 00 E7 ......_Hd..'....
004054E0 D4 B4 17 F4 ED F0 01 71 92 F6 A7 14 8F 7C 00 BD .......q.....|..
004054F0 01 B8 0E 31 FC 10 92 FF B8 00 C6 D6 81 96 EF 04 ...1............
00405500 00 2B 6E A4 F9 67 E6 F7 32 7B 70 00 00 E5 05 E3 .+n..g..2{p.....
00405510 22 0C 80 2D 35 2F 24 95 00 92 00 3B 50 FF 04 E9 "..-5/$....;P...
00405520 63 F7 81 C7 78 5E 00 52 F4 80 7F AC 80 AD 16 F2 c...x^.R........
00405530 D1 C1 A7 91 D8 00 4C CF 2B FF 70 0F 0A 80 0C 93 ......L.+.p.....
00405540 3C C7 30 A6 F5 A0 00 00 7C CA 85 BF AA 6A FF C1 <.0.....|....j..
00405550 F5 D3 67 32 A8 74 48 AF C4 99 80 7F 7E 1E ED 52 ..g2.tH.....~..R
00405560 F3 5A D9 1D 00 9E DD 2C B8 7A 9E 58 D9 41 FF 49 .Z.....,.z.X.A.I
00405570 F1 FF 13 2D BC 08 EC 8B B8 37 84 35 39 D0 FF 00 ...-.....7.59...
00405580 00 D3 87 40 CB E2 50 BD DD 8F E8 00 E9 FE DC 60 ...@..P........`
00405590 33 7C FF 00 08 4B 23 C9 23 5B FB 41 80 00 D9 F8 3|...K#.#[.A....
004055A0 DB 5C 4D 00 00 F2 10 80 E4 59 F7 00 01 8A 4B CB .\M......Y....K.
004055B0 59 CC FD 29 00 28 21 00 5C 56 89 FF F9 A7 7D A5 Y..).(!.\V....}.
004055C0 1F 00 9B 00 13 7C A0 C4 51 00 D7 00 58 00 88 6F .....|..Q...X..o
004055D0 6B 00 7E 1E 01 D4 95 09 A2 D3 FF 8D 2C 9A 00 00 k.~.........,...
004055E0 5F EF A1 08 98 72 AB 07 00 7F 0A E7 00 58 00 88 _....r.......X..
004055F0 B7 8B 00 A9 00 49 00 00 7E EF 79 F8 00 3D F3 13 .....I..~.y..=..
00405600 3C 8F 68 3A EB 87 25 00 80 62 14 B7 AD 00 0E 18 <.h:..%..b......
00405610 61 85 C1 3A 88 DA 55 D8 A0 00 F1 68 00 82 26 00 a..:..U....h..&.
00405620 00 FF 3E 71 3D 90 C8 00 66 75 9A FF E5 98 24 01 ..>q=...fu....$.
00405630 48 00 0F 4B 00 10 9A F0 87 FE B3 1D 91 85 4F C9 H..K..........O.
00405640 06 55 00 0B 64 0F 7D 83 70 49 E3 81 EE 85 8C 73 .U..d.}.pI.....s
00405650 1E 72 FB 9E E6 72 B4 80 A2 38 4D 89 59 02 F0 0A .r...r...8M.Y...
00405660 00 A9 B0 80 DA A0 19 02 9B 9D 20 D6 63 07 7F F1 .......... .c...
00405670 70 49 58 EB 40 5C 7C FA 99 FF FF 09 94 23 1C 37 pIX.@\|......#.7
00405680 A9 F6 00 29 47 3C C0 00 FD 6E 37 54 36 AF 3E C5 ...)G<...n7T6.>.
00405690 54 BD A3 FF 00 47 00 D2 3F 00 00 EF 04 00 41 AC T....G..?.....A.
004056A0 2F 00 7F 65 00 97 02 81 52 D8 41 02 F3 31 40 6F /..e....R.A..1@o
004056B0 12 1B 22 00 E3 08 CD 29 FC 9E 93 34 6B 66 07 3F .."....)...4kf.?
004056C0 58 62 00 EA 12 DB 01 25 ED 99 83 D9 FF A0 CB F8 Xb.....%........
004056D0 E3 D4 1B 9E 13 81 24 0D D7 1A 1B 00 47 29 9F 00 ......$.....G)..
004056E0 FF FF E0 5A 8A ED F0 91 0A C3 02 00 FF 8F 87 BA ...Z............
004056F0 E7 97 FE 03 F3 6E F7 9C 00 19 24 28 ED 1E 5E 42 .....n....$(..^B
00405700 5E FE CA 43 EB F7 ED 14 90 8C 43 1B FF 04 0C 69 ^..C......C....i
00405710 73 84 FF FF DF B5 69 D1 26 00 FF 26 27 00 F6 7C s.....i.&..&'..|
00405720 00 00 AC E6 C4 A8 81 00 38 FF 37 00 D0 00 A6 13 ........8.7.....
00405730 70 AD 13 00 27 23 8A 55 1C 70 D4 60 EF A6 A7 30 p...'#.U.p.`...0
00405740 2D 89 BF 58 33 0D 00 D2 09 F6 5D 15 BF FF 12 F2 -..X3.....].....
00405750 78 92 00 1D 14 FF 3E 78 EF 2C 06 FF 51 FF 7E FF x.....>x.,..Q.~.
00405760 17 6B 00 DF 65 56 00 04 3D FE F4 00 71 82 18 93 .k..eV..=...q...
00405770 00 D3 54 23 D8 AE BE 43 83 6C 80 00 01 F1 8B 50 ..T#...C.l.....P
00405780 9F 80 84 4A EA 4F 6D 79 E1 7E 67 7B 41 00 47 89 ...J.Omy.~g{A.G.
00405790 00 01 89 00 14 6A E3 77 F6 73 45 00 C0 26 7D C4 .....j.w.sE..&}.
004057A0 0B 22 21 A7 C2 02 FF 9B 1A B9 30 FF ED FF FF 40 ."!.......0....@
004057B0 57 FE 21 95 ED D1 86 1C 16 00 E0 0E 22 26 9C 40 W.!........."&.@
004057C0 0B 9C 82 32 06 88 82 5A 31 A2 64 68 00 68 36 00 ...2...Z1.dh.h6.
004057D0 00 21 85 ED 27 78 D1 A2 1B B5 00 96 05 2B 47 39 .!..'x.......+G9
004057E0 F9 00 02 BD 47 28 DE C0 8C 6C 05 00 AA C5 31 10 ....G(...l....1.
004057F0 FC BE E4 78 18 2A E4 C6 FF 29 10 1E A0 00 4A 10 ...x.*...)....J.
00405800 BB 9E 00 BF 7B B1 90 42 59 92 9C 2E A3 6C 00 51 ....{..BY....l.Q
00405810 60 FF 00 ED D7 F6 02 57 A1 52 92 5F 87 B0 BE E7 `......W.R._....
00405820 A8 FF 12 D8 31 AA 03 76 0F 62 02 A3 9C 00 48 00 ....1..v.b....H.
00405830 3A FF 4A 85 FB F2 41 15 DF 7A 4C 07 8D 81 CD DF :.J...A..zL.....
00405840 0B FF 00 D5 BA 60 10 99 E2 85 8C 6F 32 8E 98 F9 .....`.....o2...
00405850 C3 01 34 61 84 70 C1 F0 3D 12 41 1D B3 6E 1C 00 ..4a.p..=.A..n..
00405860 01 0C 42 0E 23 22 00 00 8C C2 69 83 3C 24 78 06 ..B.#"....i.<$x.
00405870 D5 00 2A 16 00 71 5C 07 FF 83 8C 19 BA E1 C3 CB ..*..q\.........
00405880 F9 01 D8 2C 9B AD FF 59 69 9F 8F 00 00 02 3A 00 ...,...Yi.....:.
00405890 28 44 F3 0E 69 46 EA D6 D5 48 F7 23 7C 20 1C 72 (D..iF...H.#| .r
004058A0 AB 1D DC 6A 7E CC 00 FD 08 CD F8 92 B0 FF E3 34 ...j~..........4
004058B0 1C 43 AB FF 75 FF EC 4B 8C 40 00 C0 44 43 CA 5E .C..u..K.@..DC.^
004058C0 C5 E1 DB 18 00 34 5E E9 EF 91 96 3C B6 C0 7C F3 .....4^....<..|.
004058D0 00 93 D2 B9 00 00 6B A3 BA E7 E5 D0 00 C7 40 54 ......k.......@T
004058E0 CC 52 00 28 7F 71 8B 20 00 20 45 08 CF 79 E6 00 .R.(.q. . E..y..
004058F0 54 37 11 6F 4A 87 4D BB 88 03 10 97 51 EB B6 20 T7.oJ.M.....Q.. 
00405900 F0 FB 07 93 28 81 14 3C E8 63 00 4F 5B 3D 26 17 ....(..<.c.O[=&.
00405910 CA 67 74 00 A9 96 8C A0 00 AC 7B F3 C9 2F 00 0D .gt.......{../..
00405920 00 E7 70 00 4C B7 90 52 6C 64 81 E2 98 01 34 6C ..p.L..Rld....4l
00405930 4E 89 B0 26 63 D8 B7 6C 74 C9 00 FF D2 3B AE 8C N..&c..lt....;..
00405940 C2 00 32 AD 6C 13 C1 E1 B6 24 75 65 D0 D4 D2 56 ..2.l....$ue...V
00405950 00 17 73 12 00 22 00 69 BF F9 40 D8 89 00 88 BE ..s..".i..@.....
00405960 E9 58 F1 8F 6F 30 B4 81 00 15 2C AA E3 FD 40 9D .X..o0....,...@.
00405970 6C 24 62 D7 40 12 00 E2 B1 8E 97 CD 28 CF DA 8B l$b.@.......(...
00405980 7C B1 5F AE 9E C9 CF 00 00 F4 94 A3 27 DF 00 39 |._.........'..9
00405990 C0 00 07 2E 36 00 FF 00 E5 B7 04 C9 8D 90 B1 00 ....6...........
004059A0 80 53 A7 81 E4 C8 F1 9B 65 74 BF 69 B3 3D 58 A1 .S......et.i.=X.
004059B0 CF AD 7F D6 FF 2E 15 00 70 06 F2 44 34 64 7B 80 ........p..D4d{.
004059C0 31 F4 3C 64 ED D8 43 5D 01 54 E7 00 B7 E7 FC A5 1.<d..C].T......
004059D0 3D 00 D1 9F 00 DC FF 09 1B 00 0C 66 81 00 A4 2B =..........f...+
004059E0 00 2B 52 3C BD 9E F4 5F 33 6D 2C C0 BB D9 00 C8 .+R<..._3m,.....
004059F0 F1 18 00 E1 11 00 6E 21 E5 98 1C 80 AC 49 3F 98 ......n!.....I?.
00405A00 FC 00 36 92 31 40 41 A2 0C 4A 92 D4 20 52 FD C0 ..6.1@A..J.. R..
00405A10 48 67 51 D2 A7 51 AE FF 8F E4 01 40 FF F1 77 18 HgQ..Q.....@..w.
00405A20 08 E7 77 BA 09 6F 0B 61 D3 C1 8A FB FF 9F 31 A8 ..w..o.a......1.
00405A30 AC AF 79 60 60 C1 00 FF FF 94 40 24 7C 7B E2 32 ..y``.....@$|{.2
00405A40 C6 9C 24 05 00 0B 00 E0 0F 33 4D C4 48 2E F6 20 ..$......3M.H.. 
00405A50 D0 62 B3 39 EB 78 BD D5 16 81 B5 DE B7 25 AB 21 .b.9.x.......%.!
00405A60 20 6C 00 34 9B 00 D6 EF 00 52 5C 25 19 00 07 AF  l.4.....R\%....
00405A70 00 00 43 70 3C 5B 47 A5 A1 A8 BE D4 36 03 4E 99 ..Cp<[G.....6.N.
00405A80 6D 00 00 18 F6 AB ED 04 33 FF 66 98 2D 31 F6 17 m.......3.f.-1..
00405A90 22 60 2C 23 92 FB 6F 12 FF A3 06 14 78 77 43 00 "`,#..o.....xwC.
00405AA0 80 1C 43 04 00 BA 1D 61 FF C8 C6 11 03 00 01 12 ..C....a........
00405AB0 33 37 6E DC 54 72 BC 59 42 00 C9 00 92 F6 99 00 37n.Tr.YB.......
00405AC0 00 00 CC EB 7F BC 00 6F 03 00 05 4E 80 FB 00 FF .......o...N....
00405AD0 20 90 9D DB 3E 00 00 32 F7 60 8E A4 3C 83 07 02  ...>..2.`..<...
00405AE0 DE 00 81 88 DB 60 00 91 63 94 00 81 C7 1A D1 5A .....`..c......Z
00405AF0 98 D8 6C 1B B1 C8 9A 1B B2 84 C7 FF EE E4 00 19 ..l.............
00405B00 78 2A 4A 00 7B 08 00 41 0B 87 00 45 E6 3C BF 41 x*J.{..A...E.<.A
00405B10 EF 80 C3 B2 4A 00 25 77 3F 00 6A 00 00 46 AF 2A ....J.%w?.j..F.*
00405B20 00 FE C0 0F 00 89 82 1F 4F 36 3E B4 5F 12 51 00 ........O6>._.Q.
00405B30 80 00 21 00 56 97 13 53 F8 89 A1 56 E2 29 8F B8 ..!.V..S...V.)..
00405B40 12 E6 B0 A5 00 C9 82 C4 04 10 00 8B 73 FF 49 FF ............s.I.
00405B50 00 E3 3F B0 E7 20 96 00 73 F1 60 5E 00 0C E3 23 ..?.. ..s.`^...#
00405B60 FC 4D 15 22 56 C0 91 B8 00 FF 0D 24 3A 46 50 0E .M."V......$:FP.
00405B70 00 00 E1 C1 A3 63 65 C2 CA 2A 10 64 05 26 93 C2 .....ce..*.d.&..
00405B80 4F F6 FC E7 DD 43 12 FF FF 64 B2 20 19 00 FF FF O....C...d. ....
00405B90 74 08 0F 11 27 60 20 C1 22 FF 50 5D 93 0A EF C0 t...'` .".P]....
00405BA0 01 FF 67 C0 20 60 95 11 FD 32 91 F7 0F 86 F7 5E ..g. `...2.....^
00405BB0 2E 68 89 C6 FF 4C CE 6F 08 0D 35 F3 FF 3C 72 D1 .h...L.o..5..<r.
00405BC0 00 8F 00 83 6E D0 9B ED 84 39 DA 00 2C 04 00 7D ....n....9..,..}
00405BD0 BD 12 74 DA 7E AD 11 0B 19 20 FB 54 E6 00 6E A7 ..t.~.... .T..n.
00405BE0 FF AB 00 00 63 E3 20 0F 00 E6 AA 1D 98 AD 67 8D ....c. .......g.
00405BF0 FF 00 59 7D 09 E6 A6 00 4E 08 00 00 94 75 E1 8F ..Y}....N....u..
00405C00 33 33 00 AA FC 48 F7 00 00 4E 9B 58 C0 08 92 D8 33...H...N.X....
00405C10 7E 45 1E 00 1E 0C E3 B2 83 4F 68 7D 00 FF 00 E3 ~E.......Oh}....
00405C20 52 24 DB 46 CE F5 A2 00 34 91 F8 A6 7D 5A 8F 0F R$.F....4...}Z..
00405C30 00 00 A2 9C 24 E3 29 15 E8 EA E0 0A FF 64 00 C3 ....$.)......d..
00405C40 04 8A 88 A1 00 C6 D5 C5 F8 00 00 00 C7 61 D2 36 .............a.6
00405C50 D5 ED 3C FF 46 AD 3B F1 C1 B8 13 00 A2 20 0C 82 ..<.F.;...... ..
00405C60 00 44 1E F2 99 00 E1 0E EC F7 B8 B5 5E EF 90 00 .D..........^...
00405C70 57 D6 98 E2 17 D5 DF 27 78 32 F0 54 82 BE B8 30 W......'x2.T...0
00405C80 8D EF F0 5D D4 91 7A 88 06 37 00 1C 30 3A BE 08 ...]..z..7..0:..
00405C90 5F 58 37 5F B1 34 8B E1 26 00 EA D4 B0 C4 08 EC _X7_.4..&.......
00405CA0 05 72 0F 92 F6 FF 60 FE 00 41 C7 F5 5E A6 FF AB .r....`..A..^...
00405CB0 87 99 8B 97 4E 0B 30 9A 61 51 F0 E4 17 B6 6F 9B ....N.0.aQ....o.
00405CC0 BA 94 A3 BA BE 7A 5A BE 87 1A 00 F6 30 39 12 14 .....zZ.....09..
00405CD0 63 39 27 6F 53 00 FC 0F BD C9 84 F0 00 AB 00 F6 c9'oS...........
00405CE0 97 B2 BD FB CF D1 00 A6 0B FF 03 D4 70 00 C0 A6 ............p...
00405CF0 71 9A E0 25 26 ED 46 00 BD 07 36 30 FF E1 FE 00 q..%&.F...60....
00405D00 DB 0C 2D 05 5C 40 E6 00 1C A0 DA 7E 00 64 20 D9 ..-.\@.....~.d .
00405D10 0F A1 CF 13 00 43 92 83 9C 00 04 00 7D 3B 94 03 .....C......};..
00405D20 24 F8 00 35 C8 C8 FF 0C 21 BC 3C 88 38 3C A0 44 $..5....!.<.8<.D
00405D30 97 82 20 1D 57 5B 4C 2D B5 3C 00 61 3F 12 24 9B .. .W[L-.<.a?.$.
00405D40 83 22 00 1B C2 73 FF CD 00 00 83 F8 22 00 66 6F ."...s......".fo
00405D50 DD 18 11 62 8E B0 00 85 8C 07 50 AE 92 1E 89 D5 ...b......P.....
00405D60 45 00 66 3B FF 8C B5 B1 00 00 4F 00 E8 6E B3 C6 E.f;......O..n..
00405D70 78 DA 45 EE EB 39 5D FC 4C D4 37 00 2E E7 5A C5 x.E..9].L.7...Z.
00405D80 09 69 61 75 B4 7E 02 35 00 18 D8 10 00 E0 08 09 .iau.~.5........
00405D90 00 71 AA 87 02 1F 00 A6 5E 08 9B 3B 0F 31 00 00 .q......^..;.1..
00405DA0 C6 26 48 ED 00 02 F0 D1 61 A0 D8 E4 00 A9 4D 86 .&H.....a.....M.
00405DB0 03 8D 00 E1 34 F7 47 00 AF 48 0A 73 3F 00 FF 46 ....4.G..H.s?..F
00405DC0 00 8F 00 51 28 F3 ED 5D 56 CA FF AB EB C2 4F E0 ...Q(..]V.....O.
00405DD0 00 57 AC BC ED A8 41 CA F0 30 E9 AB 00 0F D7 00 .W....A..0......
00405DE0 7C D8 A8 18 7E D8 EF 14 BF 02 CA CE 66 09 30 9D |...~.......f.0.
00405DF0 75 00 BA C4 46 98 CD F0 AB 0E 44 41 F1 76 FF 56 u...F.....DA.v.V
00405E00 B8 7A 25 FE CE 4C 00 73 0A FE 26 04 FD 0E 42 AB .z%..L.s..&...B.
00405E10 CD FF 95 94 04 CA 00 00 DC 7C E0 DF F8 D8 A1 46 .........|.....F
00405E20 7D 00 97 BF 21 BF EE 00 41 85 25 2A 00 4C 8D 48 }...!...A.%*.L.H
00405E30 10 DA 7E 06 5A CF 87 55 3E AB A1 16 C9 E1 EB 00 ..~.Z..U>.......
00405E40 4B 97 91 C9 00 6E 11 E7 7E A3 16 C3 7B C1 FF 17 K....n..~...{...
00405E50 6C 5D 60 1A 08 10 99 27 00 0B 34 68 17 DC F4 65 l]`....'..4h...e
00405E60 D6 19 71 F0 74 16 16 FF D2 EF 9E B8 00 00 DE 0B ..q.t...........
00405E70 0E C9 FE 03 F3 19 7D 20 00 EF 00 D0 E4 00 87 D9 ......} ........
00405E80 3F 7C 00 9B 38 F7 63 1C 8D 80 15 60 64 D0 00 95 ?|..8.c....`d...
00405E90 0D 4C 7A CD 00 BD 77 3E F7 0F 73 35 08 41 51 10 .Lz...w>..s5.AQ.
00405EA0 A5 A2 84 FE FF ED 91 CF 92 FF 12 E6 6F 77 00 80 ............ow..
00405EB0 00 66 F4 8F BA 56 03 00 70 DF AC FF BA 7A 88 9D .f...V..p....z..
00405EC0 CD 74 4D B6 72 F9 1F 00 4E 00 2D 34 0B FF D2 3C .tM.r...N.-4...<
00405ED0 FB 3B BF 08 62 01 D7 01 96 65 00 C9 3A 9F 2E B2 .;..b....e..:...
00405EE0 00 0B CB 07 1C 37 6C C9 00 A4 29 FF 35 E3 F2 C7 .....7l...).5...
00405EF0 36 B6 1E 0F C6 FD 23 39 83 86 00 1C 32 99 9F 32 6.....#9....2..2
00405F00 5B BE 00 F8 5C 8C 00 28 00 00 57 00 79 9C 00 9E [...\..(..W.y...
00405F10 00 AC 9F D9 2B EB 0E 1D E1 53 6F 02 00 4E EC 83 ....+....So..N..
00405F20 FF 91 40 FB 3F A3 C0 1E ED 27 A1 92 F2 1A 19 00 ..@.?....'......
00405F30 10 6F 00 09 77 74 76 2B C1 00 00 00 00 10 FC FF .o..wtv+........
00405F40 2F 57 83 17 59 A5 DE FF 24 7E 63 29 9D 32 BA F0 /W..Y...$~c).2..
00405F50 93 00 0D 03 AB 00 FF FF 7C 03 98 22 FF 1C 31 5E ........|.."..1^
00405F60 04 E7 40 81 6C DC A5 00 34 09 22 0A 3A 43 60 00 ..@.l...4.".:C`.
00405F70 E6 43 D9 12 00 89 00 7D E0 FF 00 A4 10 AF 00 1D .C.....}........
00405F80 00 FE 58 D8 49 00 F7 D8 18 A1 FF 61 A0 00 40 1E ..X.I......a..@.
00405F90 00 6E 34 DD 5F 1D DC 00 09 9F 1F 30 EA E3 38 83 .n4._......0..8.
00405FA0 31 08 5F 16 4E C2 1D 24 FD CF 54 97 00 FA 54 00 1._.N..$..T...T.
00405FB0 7E 20 F2 75 3D 03 93 86 FF 61 13 65 E7 5A 7B 80 ~ .u=....a.e.Z{.
00405FC0 52 5C 0E 88 EF AA 39 44 3A 51 9E 19 00 40 E4 FF R\....9D:Q...@..
00405FD0 D8 00 96 EF 33 00 AA 7F 00 39 00 8A FF 1D 00 B1 ....3....9......
00405FE0 00 90 26 EB AE 88 03 CB 13 5E 92 08 56 C2 FF A9 ..&......^..V...
00405FF0 C1 26 28 44 D1 0F 97 B9 00 C0 5F C3 E4 C0 F5 00 .&(D......_.....
00406000 8A C6 71 FE 00 00 C7 49 09 68 08 00 C1 9D F1 F6 ..q....I.h......
00406010 5F 38 10 76 71 A2 FF 00 00 43 38 00 C8 57 DF 51 _8.vq....C8..W.Q
00406020 B6 00 B2 88 72 69 00 7F A3 77 F0 07 72 C3 C7 77 ....ri...w..r..w
00406030 E8 0C CE 8B 86 71 B1 36 F7 B6 F1 C9 38 00 98 21 .....q.6....8..!
00406040 01 00 F8 90 00 1B E1 40 35 17 24 D2 62 06 27 B4 .......@5.$.b.'.
00406050 91 41 7D 87 FA BE 7B F1 BD EE 81 FE FF A6 57 6F .A}...{.......Wo
00406060 FF D3 B4 96 15 FF FF 00 7B 41 B7 4B 05 20 E1 27 ........{A.K. .'
00406070 B4 7E 00 B3 B8 00 01 90 00 13 AF 52 00 DB C2 A0 .~.........R....
00406080 00 30 2C 07 00 FB 0F DB A8 F0 8E 6E DA 00 32 D0 .0,........n..2.
00406090 5A 37 11 00 62 E2 05 7F C0 F8 07 47 00 D2 20 5E Z7..b......G.. ^
004060A0 C5 FB A5 E3 CF 1B FE EF 00 FD 4B C2 63 00 0F 27 ..........K.c..'
004060B0 DF BA 97 C6 61 20 3A 00 00 00 B0 00 FF 7F 6F C0 ....a :.......o.
004060C0 00 9A 16 8A 34 00 F6 31 D8 00 57 00 82 00 7F 2B ....4..1..W....+
004060D0 C9 00 FF F2 00 9F 24 4A FF 0A 8F 6F 00 00 03 45 ......$J...o...E
004060E0 73 46 F7 4F FF 16 A5 7A F6 39 00 52 C6 32 D8 D2 sF.O...z.9.R.2..
004060F0 03 4E E9 00 21 EA 2C 08 F8 FD 0D FB 73 00 01 E0 .N..!.,.....s...
00406100 9E BC 00 2A 00 30 D8 AD F2 00 96 7E F2 79 A8 ED ...*.0.....~.y..
00406110 07 23 82 9D 71 00 10 84 E9 C1 00 00 05 8E 00 00 .#..q...........
00406120 38 D1 EF 6F C3 79 C9 0E D9 CF 29 18 F3 FC F1 00 8..o.y....).....
00406130 62 4E 40 00 5A C1 87 BF E9 58 80 6E 6B 46 5F 06 bN@.Z....X.nkF_.
00406140 1C 46 00 B0 00 69 1A EB 55 E1 2C 00 00 8F 00 EA .F...i..U.,.....
00406150 18 AB 81 0B 38 A2 88 71 FF 20 94 00 C0 00 FF DA ....8..q. ......
00406160 2E E1 AC FF FC 3B 6A 34 10 9E 69 CE 1F 8B FF 00 .....;j4..i.....
00406170 F9 D5 5B 39 C4 3E 7D 17 22 00 C5 07 00 06 00 01 ..[9.>}.".......
00406180 E9 87 43 B7 52 83 94 F0 00 80 0F C8 1B B1 54 1E ..C.R.........T.
00406190 AD 86 15 18 00 F5 D3 FF 00 56 96 1E B8 EB AD E5 .........V......
004061A0 7D 00 C4 BD 9E DF 00 BD 22 00 7F 0F 2C E0 73 4C }......."...,.sL
004061B0 1E C1 DA A5 00 E0 91 AA FF 03 D5 67 08 05 91 8E ...........g....
004061C0 E6 00 A6 00 48 4A C1 0A 3C 20 A3 39 20 2C FF 00 ....HJ..< .9 ,..
004061D0 32 FF 6D 43 87 01 26 83 00 88 8C 00 36 45 00 3C 2.mC..&.....6E.<
004061E0 00 3C 21 7A 6B FF F6 DF EF 53 00 00 00 92 FF FF .<!zk....S......
004061F0 BB A0 26 0C 72 2F 42 82 50 00 04 FF 00 D9 83 D8 ..&.r/B.P.......
00406200 E2 A6 56 C7 DB 7E 69 85 AF FA 64 00 2B EE BD FF ..V..~i...d.+...
00406210 92 CE 72 BB 09 9E 00 57 91 FD 64 12 30 60 58 00 ..r....W..d.0`X.
00406220 2E 31 75 00 64 00 39 4D 34 D0 4D 8E 78 8E 2A FF .1u.d.9M4.M.x.*.
00406230 9B FF 72 FE 1A 00 00 49 54 58 A0 AB EA A9 01 16 ..r....ITX......
00406240 00 00 23 6A 37 B9 0C 0B CE 1D F6 A5 E9 E2 48 EC ..#j7.........H.
00406250 04 C0 B9 7E BB 00 34 2E A0 EB 81 00 70 77 5A 0D ...~..4.....pwZ.
00406260 32 15 AE 37 1D 85 53 79 0A 3C CC 6E 19 70 D6 F1 2..7..Sy.<.n.p..
00406270 39 D3 00 00 00 85 18 67 F8 DD 00 BB CC 36 D9 AC 9......g.....6..
00406280 A3 FA 7F 98 0E 4B 87 EF 60 FF 22 C9 80 9A FF A0 .....K..`.".....
00406290 C6 00 30 74 C4 3B 9F 91 BF 4E 17 3A 00 89 2E A7 ..0t.;...N.:....
004062A0 EA 0E 0A 00 92 00 8D 3A EF 9B 00 8F 3A 00 00 76 .......:....:..v
004062B0 F8 C7 8D 0A 5F 43 F4 FF 99 06 C8 60 44 02 D6 E5 ...._C.....`D...
004062C0 5A DE DB 00 9B 6C 27 50 00 6F 00 AE 72 00 90 25 Z....l'P.o..r..%
004062D0 00 83 CC 7C 00 40 72 62 0B FF FF 65 83 41 B6 15 ...|.@rb...e.A..
004062E0 36 2A D8 C3 48 14 2D 13 8B 36 45 78 FF BF 00 63 6*..H.-..6Ex...c
004062F0 6B 9B B3 5B B5 26 79 8E 06 3A 38 CD E4 8C 64 66 k..[.&y..:8...df
00406300 00 4F 83 68 33 DD D0 B1 2D 20 58 3A BE 07 00 32 .O.h3...- X:...2
00406310 D4 5C B8 DF 87 22 00 00 00 C4 81 10 E5 51 B8 CE .\...".......Q..
00406320 C8 C6 0F 55 A8 85 EF E9 FF B8 D0 58 00 7B 83 86 ...U.......X.{..
00406330 42 52 FD 00 17 AF 40 80 5C 6A A0 00 0A 54 71 00 BR....@.\j...Tq.
00406340 87 FE 57 B2 30 B8 7A 77 0D 16 41 22 98 C5 04 4E ..W.0.zw..A"...N
00406350 6C AD 00 39 00 6A 00 B4 00 00 98 5B AD 10 F9 00 l..9.j.....[....
00406360 E1 00 D5 82 3A 85 B5 00 14 FF 2F 13 00 07 FD 42 ....:...../....B
00406370 D7 E8 99 4A F8 4C 01 AE F1 80 E0 22 A0 7F DE EC ...J.L....."....
00406380 D4 E7 88 1D 18 AD 60 8F 26 D1 F3 8F 31 C4 D9 49 ......`.&...1..I
00406390 6C 86 21 7C A4 00 F8 00 56 00 5A E4 82 94 50 00 l.!|....V.Z...P.
004063A0 D3 8B 45 00 75 00 A6 36 2B FF 97 00 86 3D 9F 00 ..E.u..6+....=..
004063B0 98 86 85 00 F4 FC 00 C7 6C 30 00 E7 BC BA EB 27 ........l0.....'
004063C0 AF 16 47 9E F6 8B 3A 02 FF C8 FF C9 00 67 00 58 ..G...:......g.X
004063D0 D0 10 38 1E 00 C6 19 B5 DB 10 FD 3C 7A 05 16 00 ..8........<z...
004063E0 84 3C 30 62 D7 83 47 FF 00 FA 92 BA 5A 35 32 FA .<0b..G.....Z52.
004063F0 00 88 7F C6 FC 00 58 F5 00 E8 2E 1B D4 00 00 3B ......X........;
00406400 8B 2E 00 3F 4C D8 EF C5 C6 74 00 00 75 00 B6 B1 ...?L....t..u...
00406410 02 FC 00 4E F0 F5 5E 00 00 A3 00 D7 FD 10 19 46 ...N..^........F
00406420 8F FF 00 BF 33 E0 00 1F F1 0D 82 D3 5F 87 72 3C ....3......._.r<
00406430 7B 11 ED 54 00 ED 46 58 00 E5 D7 66 8E 00 ED FF {..T..FX...f....
00406440 5B 14 00 B5 FF 08 56 95 76 0C 5E 9D 9E 00 C4 43 [.....V.v.^....C
00406450 1A 0C 00 00 22 00 7F A3 00 31 71 AB 77 00 F3 E0 ...."....1q.w...
00406460 61 46 6F FF 53 2A 86 22 03 59 53 7C 88 52 7D 7E aFo.S*.".YS|.R}~
00406470 9C D0 39 58 F1 00 1E 68 54 47 DF E2 B3 CF 35 BF ..9X...hTG....5.
00406480 00 02 CB C9 00 91 C4 04 6A D3 15 6C E1 63 10 00 ........j..l.c..
00406490 3E BA 8D 00 A7 13 DF FF E5 C7 88 E9 00 57 00 37 >............W.7
004064A0 71 00 FF 00 7D E3 C7 36 10 6C 00 53 7A 22 BF 0B q...}..6.l.Sz"..
004064B0 00 00 A0 E7 33 D8 47 7D 00 DD 00 FF EE F8 BA DD ....3.G}........
004064C0 00 0F 32 64 CE 00 F0 72 FF 00 0D 78 7B 1F BF 22 ..2d...r...x{.."
004064D0 00 00 81 16 00 9E 99 54 4C F8 23 B8 D6 72 6C DD .......TL.#..rl.
004064E0 E1 94 CF 4B 14 00 00 00 5C C9 3C AB 43 00 4A 05 ...K....\.<.C.J.
004064F0 E8 F2 25 75 B8 35 00 C0 00 00 D2 E2 2E 81 45 31 ..%u.5........E1
00406500 7F 77 20 02 00 E4 87 07 B3 50 00 1F F3 69 20 6B .w ......P...i k
00406510 FF BD A3 78 00 31 73 AA 5A 00 02 C3 D6 A2 B1 FD ...x.1s.Z.......
00406520 00 23 30 D1 A4 00 FF 0B 4B 18 E8 EE 96 67 FF 01 .#0.....K....g..
00406530 F8 00 6E 4C 0C 7A 47 F5 99 FF 3F 00 17 D3 A0 47 ..nL.zG...?....G
00406540 0A 1D 7B E4 58 A8 02 BF 00 00 6A F4 00 0C ED 89 ..{.X.....j.....
00406550 FF D1 27 AE FF B3 B7 52 00 26 88 C7 64 70 13 E3 ..'....R.&..dp..
00406560 4D B3 0C 11 AC B8 28 3C 00 F9 BD B8 F2 C1 84 BF M.....(<........
00406570 18 46 B1 FD B4 CF 39 34 51 A6 00 20 6B D7 BD 04 .F....94Q.. k...
00406580 A0 44 00 82 77 FF 0E 1F 98 FF 2A 42 00 01 41 00 .D..w.....*B..A.
00406590 3D 0A CC 61 74 7C 47 93 49 00 6E 0A E3 04 1B 80 =..at|G.I.n.....
004065A0 5D 0C 83 9A 7F 6B 9B B2 7A 8D 00 FF CA FF 93 11 ]....k..z.......
004065B0 EF FE F8 01 5D 24 DF AC 86 6A D0 D9 A3 72 AE 90 ....]$...j...r..
004065C0 65 73 00 98 1A 00 8F A8 00 77 0B 4E 34 33 FF 93 es.......w.N43..
004065D0 00 00 FC 95 FF BF 2D 1A D6 34 B9 F0 F7 E4 AE 00 ......-..4......
004065E0 66 8D 76 00 F0 BA E0 36 A5 D0 FF 36 5E CD 05 7F f.v....6...6^...
004065F0 5A 00 01 00 48 40 D3 00 CC 32 B6 1B A1 6E EF 00 Z...H@...2...n..
00406600 00 00 00 00 00 00 00 00 00 00 00 00 00 00 00 00 ................
00406610 00 00 00 00 00 00 00 00 00 00 00 00 00 00 00 00 ................
00406620 00 00 00 00 00 00 00 00 00 00 00 00 00 00 00 00 ................
00406630 00 00 00 00 00 00 00 00 00 00 00 00 00 00 00 00 ................
00406640 00 00 00 00 00 00 00 00 00 00 00 00 00 00 00 00 ................
00406650 00 00 00 00 00 00 00 00 00 00 00 00 00 00 00 00 ................
00406660 00 00 00 00 00 00 00 00 00 00 00 00 00 00 00 00 ................
00406670 00 00 00 00 00 00 00 00 00 00 00 00 00 00 00 00 ................
00406680 00 00 00 00 00 00 00 00 00 00 00 00 00 00 00 00 ................
00406690 00 00 00 00 00 00 00 00 00 00 00 00 00 00 00 00 ................
004066A0 00 00 00 00 00 00 00 00 00 00 00 00 00 00 00 00 ................
004066B0 00 00 00 00 00 00 00 00 00 00 00 00 00 00 00 00 ................
004066C0 00 00 00 00 00 00 00 00 00 00 00 00 00 00 00 00 ................
004066D0 00 00 00 00 00 00 00 00 00 00 00 00 00 00 00 00 ................
004066E0 00 00 00 00 00 00 00 00 00 00 00 00 00 00 00 00 ................
004066F0 00 00 00 00 00 00 00 00 00 00 00 00 00 00 00 00 ................
00406700 00 00 00 00 00 00 00 00 00 00 00 00 00 00 00 00 ................
00406710 00 00 00 00 00 00 00 00 00 00 00 00 00 00 00 00 ................
00406720 00 00 00 00 00 00 00 00 00 00 00 00 00 00 00 00 ................
00406730 00 00 00 00 00 00 00 00 00 00 00 00 00 00 00 00 ................
00406740 00 00 00 00 00 00 00 00 00 00 00 00 00 00 00 00 ................
00406750 00 00 00 00 00 00 00 00 00 00 00 00 00 00 00 00 ................
00406760 00 00 00 00 00 00 00 00 00 00 00 00 00 00 00 00 ................
00406770 00 00 00 00 00 00 00 00 00 00 00 00 00 00 00 00 ................
00406780 00 00 00 00 00 00 00 00 00 00 00 00 00 00 00 00 ................
00406790 00 00 00 00 00 00 00 00 00 00 00 00 00 00 00 00 ................
004067A0 00 00 00 00 00 00 00 00 00 00 00 00 00 00 00 00 ................
004067B0 00 00 00 00 00 00 00 00 00 00 00 00 00 00 00 00 ................
004067C0 00 00 00 00 00 00 00 00 00 00 00 00 00 00 00 00 ................
004067D0 00 00 00 00 00 00 00 00 00 00 00 00 00 00 00 00 ................
004067E0 00 00 00 00 00 00 00 00 00 00 00 00 00 00 00 00 ................
004067F0 00 00 00 00 00 00 00 00 00 00 00 00 00 00 00 00 ................
00406800 00 00 00 00 00 00 00 00 00 00 00 00 00 00 00 00 ................
00406810 00 00 00 00 00 00 00 00 00 00 00 00 00 00 00 00 ................
00406820 00 00 00 00 00 00 00 00 00 00 00 00 00 00 00 00 ................
00406830 00 00 00 00 00 00 00 00 00 00 00 00 00 00 00 00 ................
00406840 00 00 00 00 00 00 00 00 00 00 00 00 00 00 00 00 ................
00406850 00 00 00 00 00 00 00 00 00 00 00 00 00 00 00 00 ................
00406860 00 00 00 00 00 00 00 00 00 00 00 00 00 00 00 00 ................
00406870 00 00 00 00 00 00 00 00 00 00 00 00 00 00 00 00 ................
00406880 00 00 00 00 00 00 00 00 00 00 00 00 00 00 00 00 ................
00406890 00 00 00 00 00 00 00 00 00 00 00 00 00 00 00 00 ................
004068A0 00 00 00 00 00 00 00 00 00 00 00 00 00 00 00 00 ................
004068B0 00 00 00 00 00 00 00 00 00 00 00 00 00 00 00 00 ................
004068C0 00 00 00 00 00 00 00 00 00 00 00 00 00 00 00 00 ................
004068D0 00 00 00 00 00 00 00 00 00 00 00 00 00 00 00 00 ................
004068E0 00 00 00 00 00 00 00 00 00 00 00 00 00 00 00 00 ................
004068F0 00 00 00 00 00 00 00 00 00 00 00 00 00 00 00 00 ................
00406900 00 00 00 00 00 00 00 00 00 00 00 00 00 00 00 00 ................
00406910 00 00 00 00 00 00 00 00 00 00 00 00 00 00 00 00 ................
00406920 00 00 00 00 00 00 00 00 00 00 00 00 00 00 00 00 ................
00406930 00 00 00 00 00 00 00 00 00 00 00 00 00 00 00 00 ................
00406940 00 00 00 00 00 00 00 00 00 00 00 00 00 00 00 00 ................
00406950 00 00 00 00 00 00 00 00 00 00 00 00 00 00 00 00 ................
00406960 00 00 00 00 00 00 00 00 00 00 00 00 00 00 00 00 ................
00406970 00 00 00 00 00 00 00 00 00 00 00 00 00 00 00 00 ................
00406980 00 00 00 00 00 00 00 00 00 00 00 00 00 00 00 00 ................
00406990 00 00 00 00 00 00 00 00 00 00 00 00 00 00 00 00 ................
004069A0 00 00 00 00 00 00 00 00 00 00 00 00 00 00 00 00 ................
004069B0 00 00 00 00 00 00 00 00 00 00 00 00 00 00 00 00 ................
004069C0 00 00 00 00 00 00 00 00 00 00 00 00 00 00 00 00 ................
004069D0 00 00 00 00 00 00 00 00 00 00 00 00 00 00 00 00 ................
004069E0 00 00 00 00 00 00 00 00 00 00 00 00 00 00 00 00 ................
004069F0 00 00 00 00 00 00 00 00 00 00 00 00 00 00 00 00 ................
00406A00 00 00 00 00 00 00 00 00 00 00 00 00 00 00 00 00 ................
00406A10 00 00 00 00 00 00 00 00 00 00 00 00 00 00 00 00 ................
00406A20 00 00 00 00 00 00 00 00 00 00 00 00 00 00 00 00 ................
00406A30 00 00 00 00 00 00 00 00 00 00 00 00 00 00 00 00 ................
00406A40 00 00 00 00 00 00 00 00 00 00 00 00 00 00 00 00 ................
00406A50 00 00 00 00 00 00 00 00 00 00 00 00 00 00 00 00 ................
00406A60 00 00 00 00 00 00 00 00 00 00 00 00 00 00 00 00 ................
00406A70 00 00 00 00 00 00 00 00 00 00 00 00 00 00 00 00 ................
00406A80 00 00 00 00 00 00 00 00 00 00 00 00 00 00 00 00 ................
00406A90 00 00 00 00 00 00 00 00 00 00 00 00 00 00 00 00 ................
00406AA0 00 00 00 00 00 00 00 00 00 00 00 00 00 00 00 00 ................
00406AB0 00 00 00 00 00 00 00 00 00 00 00 00 00 00 00 00 ................
00406AC0 00 00 00 00 00 00 00 00 00 00 00 00 00 00 00 00 ................
00406AD0 00 00 00 00 00 00 00 00 00 00 00 00 00 00 00 00 ................
00406AE0 00 00 00 00 00 00 00 00 00 00 00 00 00 00 00 00 ................
00406AF0 00 00 00 00 00 00 00 00 00 00 00 00 00 00 00 00 ................
00406B00 00 00 00 00 00 00 00 00 00 00 00 00 00 00 00 00 ................
00406B10 00 00 00 00 00 00 00 00 00 00 00 00 00 00 00 00 ................
00406B20 00 00 00 00 00 00 00 00 00 00 00 00 00 00 00 00 ................
00406B30 00 00 00 00 00 00 00 00 00 00 00 00 00 00 00 00 ................
00406B40 00 00 00 00 00 00 00 00 00 00 00 00 00 00 00 00 ................
00406B50 00 00 00 00 00 00 00 00 00 00 00 00 00 00 00 00 ................
00406B60 00 00 00 00 00 00 00 00 00 00 00 00 00 00 00 00 ................
00406B70 00 00 00 00 00 00 00 00 00 00 00 00 00 00 00 00 ................
00406B80 00 00 00 00 00 00 00 00 00 00 00 00 00 00 00 00 ................
00406B90 00 00 00 00 00 00 00 00 00 00 00 00 00 00 00 00 ................
00406BA0 00 00 00 00 00 00 00 00 00 00 00 00 00 00 00 00 ................
00406BB0 00 00 00 00 00 00 00 00 00 00 00 00 00 00 00 00 ................
00406BC0 00 00 00 00 00 00 00 00 00 00 00 00 00 00 00 00 ................
00406BD0 00 00 00 00 00 00 00 00 00 00 00 00 00 00 00 00 ................
00406BE0 00 00 00 00 00 00 00 00 00 00 00 00 00 00 00 00 ................
00406BF0 00 00 00 00 00 00 00 00 00 00 00 00 00 00 00 00 ................
00406C00 00 00 00 00 00 00 00 00 00 00 00 00 00 00 00 00 ................
00406C10 00 00 00 00 00 00 00 00 00 00 00 00 00 00 00 00 ................
00406C20 00 00 00 00 00 00 00 00 00 00 00 00 00 00 00 00 ................
00406C30 00 00 00 00 00 00 00 00 00 00 00 00 00 00 00 00 ................
00406C40 00 00 00 00 00 00 00 00 00 00 00 00 00 00 00 00 ................
00406C50 00 00 00 00 00 00 00 00 00 00 00 00 00 00 00 00 ................
00406C60 00 00 00 00 00 00 00 00 00 00 00 00 00 00 00 00 ................
00406C70 00 00 00 00 00 00 00 00 00 00 00 00 00 00 00 00 ................
00406C80 00 00 00 00 00 00 00 00 00 00 00 00 00 00 00 00 ................
00406C90 00 00 00 00 00 00 00 00 00 00 00 00 00 00 00 00 ................
00406CA0 00 00 00 00 00 00 00 00 00 00 00 00 00 00 00 00 ................
00406CB0 00 00 00 00 00 00 00 00 00 00 00 00 00 00 00 00 ................
00406CC0 00 00 00 00 00 00 00 00 00 00 00 00 00 00 00 00 ................
00406CD0 00 00 00 00 00 00 00 00 00 00 00 00 00 00 00 00 ................
00406CE0 00 00 00 00 00 00 00 00 00 00 00 00 00 00 00 00 ................
00406CF0 00 00 00 00 00 00 00 00 00 00 00 00 00 00 00 00 ................
00406D00 00 00 00 00 00 00 00 00 00 00 00 00 00 00 00 00 ................
00406D10 00 00 00 00 00 00 00 00 00 00 00 00 00 00 00 00 ................
00406D20 00 00 00 00 00 00 00 00 00 00 00 00 00 00 00 00 ................
00406D30 00 00 00 00 00 00 00 00 00 00 00 00 00 00 00 00 ................
00406D40 00 00 00 00 00 00 00 00 00 00 00 00 00 00 00 00 ................
00406D50 00 00 00 00 00 00 00 00 00 00 00 00 00 00 00 00 ................
00406D60 00 00 00 00 00 00 00 00 00 00 00 00 00 00 00 00 ................
00406D70 00 00 00 00 00 00 00 00 00 00 00 00 00 00 00 00 ................
00406D80 00 00 00 00 00 00 00 00 00 00 00 00 00 00 00 00 ................
00406D90 00 00 00 00 00 00 00 00 00 00 00 00 00 00 00 00 ................
00406DA0 00 00 00 00 00 00 00 00 00 00 00 00 00 00 00 00 ................
00406DB0 00 00 00 00 00 00 00 00 00 00 00 00 00 00 00 00 ................
00406DC0 00 00 00 00 00 00 00 00 00 00 00 00 00 00 00 00 ................
00406DD0 00 00 00 00 00 00 00 00 00 00 00 00 00 00 00 00 ................
00406DE0 00 00 00 00 00 00 00 00 00 00 00 00 00 00 00 00 ................
00406DF0 00 00 00 00 00 00 00 00 00 00 00 00 00 00 00 00 ................
00406E00 00 00 00 00 00 00 00 00 00 00 00 00 00 00 00 00 ................
00406E10 00 00 00 00 00 00 00 00 00 00 00 00 00 00 00 00 ................
00406E20 00 00 00 00 00 00 00 00 00 00 00 00 00 00 00 00 ................
00406E30 00 00 00 00 00 00 00 00 00 00 00 00 00 00 00 00 ................
00406E40 00 00 00 00 00 00 00 00 00 00 00 00 00 00 00 00 ................
00406E50 00 00 00 00 00 00 00 00 00 00 00 00 00 00 00 00 ................
00406E60 00 00 00 00 00 00 00 00 00 00 00 00 00 00 00 00 ................
00406E70 00 00 00 00 00 00 00 00 00 00 00 00 00 00 00 00 ................
00406E80 00 00 00 00 00 00 00 00 00 00 00 00 00 00 00 00 ................
00406E90 00 00 00 00 00 00 00 00 00 00 00 00 00 00 00 00 ................
00406EA0 00 00 00 00 00 00 00 00 00 00 00 00 00 00 00 00 ................
00406EB0 00 00 00 00 00 00 00 00 00 00 00 00 00 00 00 00 ................
00406EC0 00 00 00 00 00 00 00 00 00 00 00 00 00 00 00 00 ................
00406ED0 00 00 00 00 00 00 00 00 00 00 00 00 00 00 00 00 ................
00406EE0 00 00 00 00 00 00 00 00 00 00 00 00 00 00 00 00 ................
00406EF0 00 00 00 00 00 00 00 00 00 00 00 00 00 00 00 00 ................
00406F00 00 00 00 00 00 00 00 00 00 00 00 00 00 00 00 00 ................
00406F10 00 00 00 00 00 00 00 00 00 00 00 00 00 00 00 00 ................
00406F20 00 00 00 00 00 00 00 00 00 00 00 00 00 00 00 00 ................
00406F30 00 00 00 00 00 00 00 00 00 00 00 00 00 00 00 00 ................
00406F40 00 00 00 00 00 00 00 00 00 00 00 00 00 00 00 00 ................
00406F50 00 00 00 00 00 00 00 00 00 00 00 00 00 00 00 00 ................
00406F60 00 00 00 00 00 00 00 00 00 00 00 00 00 00 00 00 ................
00406F70 00 00 00 00 00 00 00 00 00 00 00 00 00 00 00 00 ................
00406F80 00 00 00 00 00 00 00 00 00 00 00 00 00 00 00 00 ................
00406F90 00 00 00 00 00 00 00 00 00 00 00 00 00 00 00 00 ................
00406FA0 00 00 00 00 00 00 00 00 00 00 00 00 00 00 00 00 ................
00406FB0 00 00 00 00 00 00 00 00 00 00 00 00 00 00 00 00 ................
00406FC0 00 00 00 00 00 00 00 00 00 00 00 00 00 00 00 00 ................
00406FD0 00 00 00 00 00 00 00 00 00 00 00 00 00 00 00 00 ................
00406FE0 00 00 00 00 00 00 00 00 00 00 00 00 00 00 00 00 ................
00406FF0 00 00 00 00 00 00 00 00 00 00 00 00 00 00 00 00 ................
00407000 00 00 00 00 00 00 00 00 00 00 00 00 00 00 00 00 ................
00407010 00 00 00 00 00 00 00 00 00 00 00 00 00 00 00 00 ................
00407020 00 00 00 00 00 00 00 00 00 00 00 00 00 00 00 00 ................
00407030 00 00 00 00 00 00 00 00 00 00 00 00 00 00 00 00 ................
00407040 00 00 00 00 00 00 00 00 00 00 00 00 00 00 00 00 ................
00407050 00 00 00 00 00 00 00 00 00 00 00 00 00 00 00 00 ................
00407060 00 00 00 00 00 00 00 00 00 00 00 00 00 00 00 00 ................
00407070 00 00 00 00 00 00 00 00 00 00 00 00 00 00 00 00 ................
00407080 00 00 00 00 00 00 00 00 00 00 00 00 00 00 00 00 ................
00407090 00 00 00 00 00 00 00 00 00 00 00 00 00 00 00 00 ................
004070A0 00 00 00 00 00 00 00 00 00 00 00 00 00 00 00 00 ................
004070B0 00 00 00 00 00 00 00 00 00 00 00 00 00 00 00 00 ................
004070C0 00 00 00 00 00 00 00 00 00 00 00 00 00 00 00 00 ................
004070D0 00 00 00 00 00 00 00 00 00 00 00 00 00 00 00 00 ................
004070E0 00 00 00 00 00 00 00 00 00 00 00 00 00 00 00 00 ................
004070F0 00 00 00 00 00 00 00 00 00 00 00 00 00 00 00 00 ................
00407100 00 00 00 00 00 00 00 00 00 00 00 00 00 00 00 00 ................
00407110 00 00 00 00 00 00 00 00 00 00 00 00 00 00 00 00 ................
00407120 00 00 00 00 00 00 00 00 00 00 00 00 00 00 00 00 ................
00407130 00 00 00 00 00 00 00 00 00 00 00 00 00 00 00 00 ................
00407140 00 00 00 00 00 00 00 00 00 00 00 00 00 00 00 00 ................
00407150 00 00 00 00 00 00 00 00 00 00 00 00 00 00 00 00 ................
00407160 00 00 00 00 00 00 00 00 00 00 00 00 00 00 00 00 ................
00407170 00 00 00 00 00 00 00 00 00 00 00 00 00 00 00 00 ................
00407180 00 00 00 00 00 00 00 00 00 00 00 00 00 00 00 00 ................
00407190 00 00 00 00 00 00 00 00 00 00 00 00 00 00 00 00 ................
004071A0 00 00 00 00 00 00 00 00 00 00 00 00 00 00 00 00 ................
004071B0 00 00 00 00 00 00 00 00 00 00 00 00 00 00 00 00 ................
004071C0 00 00 00 00 00 00 00 00 00 00 00 00 00 00 00 00 ................
004071D0 00 00 00 00 00 00 00 00 00 00 00 00 00 00 00 00 ................
004071E0 00 00 00 00 00 00 00 00 00 00 00 00 00 00 00 00 ................
004071F0 00 00 00 00 00 00 00 00 00 00 00 00 00 00 00 00 ................
00407200 00 00 00 00 00 00 00 00 00 00 00 00 00 00 00 00 ................
00407210 00 00 00 00 00 00 00 00 00 00 00 00 00 00 00 00 ................
00407220 00 00 00 00 00 00 00 00 00 00 00 00 00 00 00 00 ................
00407230 00 00 00 00 00 00 00 00 00 00 00 00 00 00 00 00 ................
00407240 00 00 00 00 00 00 00 00 00 00 00 00 00 00 00 00 ................
00407250 00 00 00 00 00 00 00 00 00 00 00 00 00 00 00 00 ................
00407260 00 00 00 00 00 00 00 00 00 00 00 00 00 00 00 00 ................
00407270 00 00 00 00 00 00 00 00 00 00 00 00 00 00 00 00 ................
00407280 00 00 00 00 00 00 00 00 00 00 00 00 00 00 00 00 ................
00407290 00 00 00 00 00 00 00 00 00 00 00 00 00 00 00 00 ................
004072A0 00 00 00 00 00 00 00 00 00 00 00 00 00 00 00 00 ................
004072B0 00 00 00 00 00 00 00 00 00 00 00 00 00 00 00 00 ................
004072C0 00 00 00 00 00 00 00 00 00 00 00 00 00 00 00 00 ................
004072D0 00 00 00 00 00 00 00 00 00 00 00 00 00 00 00 00 ................
004072E0 00 00 00 00 00 00 00 00 00 00 00 00 00 00 00 00 ................
004072F0 00 00 00 00 00 00 00 00 00 00 00 00 00 00 00 00 ................
00407300 00 00 00 00 00 00 00 00 00 00 00 00 00 00 00 00 ................
00407310 00 00 00 00 00 00 00 00 00 00 00 00 00 00 00 00 ................
00407320 00 00 00 00 00 00 00 00 00 00 00 00 00 00 00 00 ................
00407330 00 00 00 00 00 00 00 00 00 00 00 00 00 00 00 00 ................
00407340 00 00 00 00 00 00 00 00 00 00 00 00 00 00 00 00 ................
00407350 00 00 00 00 00 00 00 00 00 00 00 00 00 00 00 00 ................
00407360 00 00 00 00 00 00 00 00 00 00 00 00 00 00 00 00 ................
00407370 00 00 00 00 00 00 00 00 00 00 00 00 00 00 00 00 ................
00407380 00 00 00 00 00 00 00 00 00 00 00 00 00 00 00 00 ................
00407390 00 00 00 00 00 00 00 00 00 00 00 00 00 00 00 00 ................
004073A0 00 00 00 00 00 00 00 00 00 00 00 00 00 00 00 00 ................
004073B0 00 00 00 00 00 00 00 00 00 00 00 00 00 00 00 00 ................
004073C0 00 00 00 00 00 00 00 00 00 00 00 00 00 00 00 00 ................
004073D0 00 00 00 00 00 00 00 00 00 00 00 00 00 00 00 00 ................
004073E0 00 00 00 00 00 00 00 00 00 00 00 00 00 00 00 00 ................
004073F0 00 00 00 00 00 00 00 00 00 00 00 00 00 00 00 00 ................
00407400 00 00 00 00 00 00 00 00 00 00 00 00 00 00 00 00 ................
00407410 00 00 00 00 00 00 00 00 00 00 00 00 00 00 00 00 ................
00407420 00 00 00 00 00 00 00 00 00 00 00 00 00 00 00 00 ................
00407430 00 00 00 00 00 00 00 00 00 00 00 00 00 00 00 00 ................
00407440 00 00 00 00 00 00 00 00 00 00 00 00 00 00 00 00 ................
00407450 00 00 00 00 00 00 00 00 00 00 00 00 00 00 00 00 ................
00407460 00 00 00 00 00 00 00 00 00 00 00 00 00 00 00 00 ................
00407470 00 00 00 00 00 00 00 00 00 00 00 00 00 00 00 00 ................
00407480 00 00 00 00 00 00 00 00 00 00 00 00 00 00 00 00 ................
00407490 00 00 00 00 00 00 00 00 00 00 00 00 00 00 00 00 ................
004074A0 00 00 00 00 00 00 00 00 00 00 00 00 00 00 00 00 ................
004074B0 00 00 00 00 00 00 00 00 00 00 00 00 00 00 00 00 ................
004074C0 00 00 00 00 00 00 00 00 00 00 00 00 00 00 00 00 ................
004074D0 00 00 00 00 00 00 00 00 00 00 00 00 00 00 00 00 ................
004074E0 00 00 00 00 00 00 00 00 00 00 00 00 00 00 00 00 ................
004074F0 00 00 00 00 00 00 00 00 00 00 00 00 00 00 00 00 ................
00407500 00 00 00 00 00 00 00 00 00 00 00 00 00 00 00 00 ................
00407510 00 00 00 00 00 00 00 00 00 00 00 00 00 00 00 00 ................
00407520 00 00 00 00 00 00 00 00 00 00 00 00 00 00 00 00 ................
00407530 00 00 00 00 00 00 00 00 00 00 00 00 00 00 00 00 ................
00407540 00 00 00 00 00 00 00 00 00 00 00 00 00 00 00 00 ................
00407550 00 00 00 00 00 00 00 00 00 00 00 00 00 00 00 00 ................
00407560 00 00 00 00 00 00 00 00 00 00 00 00 00 00 00 00 ................
00407570 00 00 00 00 00 00 00 00 00 00 00 00 00 00 00 00 ................
00407580 00 00 00 00 00 00 00 00 00 00 00 00 00 00 00 00 ................
00407590 00 00 00 00 00 00 00 00 00 00 00 00 00 00 00 00 ................
004075A0 00 00 00 00 00 00 00 00 00 00 00 00 00 00 00 00 ................
004075B0 00 00 00 00 00 00 00 00 00 00 00 00 00 00 00 00 ................
004075C0 00 00 00 00 00 00 00 00 00 00 00 00 00 00 00 00 ................
004075D0 00 00 00 00 00 00 00 00 00 00 00 00 00 00 00 00 ................
004075E0 00 00 00 00 00 00 00 00 00 00 00 00 00 00 00 00 ................
004075F0 00 00 00 00 00 00 00 00 00 00 00 00 00 00 00 00 ................
00407600 00 00 00 00 00 00 00 00 00 00 00 00 00 00 00 00 ................
00407610 00 00 00 00 00 00 00 00 00 00 00 00 00 00 00 00 ................
00407620 00 00 00 00 00 00 00 00 00 00 00 00 00 00 00 00 ................
00407630 00 00 00 00 00 00 00 00 00 00 00 00 00 00 00 00 ................
00407640 00 00 00 00 00 00 00 00 00 00 00 00 00 00 00 00 ................
00407650 00 00 00 00 00 00 00 00 00 00 00 00 00 00 00 00 ................
00407660 00 00 00 00 00 00 00 00 00 00 00 00 00 00 00 00 ................
00407670 00 00 00 00 00 00 00 00 00 00 00 00 00 00 00 00 ................
00407680 00 00 00 00 00 00 00 00 00 00 00 00 00 00 00 00 ................
00407690 00 00 00 00 00 00 00 00 00 00 00 00 00 00 00 00 ................
004076A0 00 00 00 00 00 00 00 00 00 00 00 00 00 00 00 00 ................
004076B0 00 00 00 00 00 00 00 00 00 00 00 00 00 00 00 00 ................
004076C0 00 00 00 00 00 00 00 00 00 00 00 00 00 00 00 00 ................
004076D0 00 00 00 00 00 00 00 00 00 00 00 00 00 00 00 00 ................
004076E0 00 00 00 00 00 00 00 00 00 00 00 00 00 00 00 00 ................
004076F0 00 00 00 00 00 00 00 00 00 00 00 00 00 00 00 00 ................
00407700 00 00 00 00 00 00 00 00 00 00 00 00 00 00 00 00 ................
00407710 00 00 00 00 00 00 00 00 00 00 00 00 00 00 00 00 ................
00407720 00 00 00 00 00 00 00 00 00 00 00 00 00 00 00 00 ................
00407730 00 00 00 00 00 00 00 00 00 00 00 00 00 00 00 00 ................
00407740 00 00 00 00 00 00 00 00 00 00 00 00 00 00 00 00 ................
00407750 00 00 00 00 00 00 00 00 00 00 00 00 00 00 00 00 ................
00407760 00 00 00 00 00 00 00 00 00 00 00 00 00 00 00 00 ................
00407770 00 00 00 00 00 00 00 00 00 00 00 00 00 00 00 00 ................
00407780 00 00 00 00 00 00 00 00 00 00 00 00 00 00 00 00 ................
00407790 00 00 00 00 00 00 00 00 00 00 00 00 00 00 00 00 ................
004077A0 00 00 00 00 00 00 00 00 00 00 00 00 00 00 00 00 ................
004077B0 00 00 00 00 00 00 00 00 00 00 00 00 00 00 00 00 ................
004077C0 00 00 00 00 00 00 00 00 00 00 00 00 00 00 00 00 ................
004077D0 00 00 00 00 00 00 00 00 00 00 00 00 00 00 00 00 ................
004077E0 00 00 00 00 00 00 00 00 00 00 00 00 00 00 00 00 ................
004077F0 00 00 00 00 00 00 00 00 00 00 00 00 00 00 00 00 ................
00407800 00 00 00 00 00 00 00 00 00 00 00 00 00 00 00 00 ................
00407810 00 00 00 00 00 00 00 00 00 00 00 00 00 00 00 00 ................
00407820 00 00 00 00 00 00 00 00 00 00 00 00 00 00 00 00 ................
00407830 00 00 00 00 00 00 00 00 00 00 00 00 00 00 00 00 ................
00407840 00 00 00 00 00 00 00 00 00 00 00 00 00 00 00 00 ................
00407850 00 00 00 00 00 00 00 00 00 00 00 00 00 00 00 00 ................
00407860 00 00 00 00 00 00 00 00 00 00 00 00 00 00 00 00 ................
00407870 00 00 00 00 00 00 00 00 00 00 00 00 00 00 00 00 ................
00407880 00 00 00 00 00 00 00 00 00 00 00 00 00 00 00 00 ................
00407890 00 00 00 00 00 00 00 00 00 00 00 00 00 00 00 00 ................
004078A0 00 00 00 00 00 00 00 00 00 00 00 00 00 00 00 00 ................
004078B0 00 00 00 00 00 00 00 00 00 00 00 00 00 00 00 00 ................
004078C0 00 00 00 00 00 00 00 00 00 00 00 00 00 00 00 00 ................
004078D0 00 00 00 00 00 00 00 00 00 00 00 00 00 00 00 00 ................
004078E0 00 00 00 00 00 00 00 00 00 00 00 00 00 00 00 00 ................
004078F0 00 00 00 00 00 00 00 00 00 00 00 00 00 00 00 00 ................
00407900 00 00 00 00 00 00 00 00 00 00 00 00 00 00 00 00 ................
00407910 00 00 00 00 00 00 00 00 00 00 00 00 00 00 00 00 ................
00407920 00 00 00 00 00 00 00 00 00 00 00 00 00 00 00 00 ................
00407930 00 00 00 00 00 00 00 00 00 00 00 00 00 00 00 00 ................
00407940 00 00 00 00 00 00 00 00 00 00 00 00 00 00 00 00 ................
00407950 00 00 00 00 00 00 00 00 00 00 00 00 00 00 00 00 ................
00407960 00 00 00 00 00 00 00 00 00 00 00 00 00 00 00 00 ................
00407970 00 00 00 00 00 00 00 00 00 00 00 00 00 00 00 00 ................
00407980 00 00 00 00 00 00 00 00 00 00 00 00 00 00 00 00 ................
00407990 00 00 00 00 00 00 00 00 00 00 00 00 00 00 00 00 ................
004079A0 00 00 00 00 00 00 00 00 00 00 00 00 00 00 00 00 ................
004079B0 00 00 00 00 00 00 00 00 00 00 00 00 00 00 00 00 ................
004079C0 00 00 00 00 00 00 00 00 00 00 00 00 00 00 00 00 ................
004079D0 00 00 00 00 00 00 00 00 00 00 00 00 00 00 00 00 ................
004079E0 00 00 00 00 00 00 00 00 00 00 00 00 00 00 00 00 ................
004079F0 00 00 00 00 00 00 00 00 00 00 00 00 00 00 00 00 ................
00407A00 00 00 00 00 00 00 00 00 00 00 00 00 00 00 00 00 ................
00407A10 00 00 00 00 00 00 00 00 00 00 00 00 00 00 00 00 ................
00407A20 00 00 00 00 00 00 00 00 00 00 00 00 00 00 00 00 ................
00407A30 00 00 00 00 00 00 00 00 00 00 00 00 00 00 00 00 ................
00407A40 00 00 00 00 00 00 00 00 00 00 00 00 00 00 00 00 ................
00407A50 00 00 00 00 00 00 00 00 00 00 00 00 00 00 00 00 ................
00407A60 00 00 00 00 00 00 00 00 00 00 00 00 00 00 00 00 ................
00407A70 00 00 00 00 00 00 00 00 00 00 00 00 00 00 00 00 ................
00407A80 00 00 00 00 00 00 00 00 00 00 00 00 00 00 00 00 ................
00407A90 00 00 00 00 00 00 00 00 00 00 00 00 00 00 00 00 ................
00407AA0 00 00 00 00 00 00 00 00 00 00 00 00 00 00 00 00 ................
00407AB0 00 00 00 00 00 00 00 00 00 00 00 00 00 00 00 00 ................
00407AC0 00 00 00 00 00 00 00 00 00 00 00 00 00 00 00 00 ................
00407AD0 00 00 00 00 00 00 00 00 00 00 00 00 00 00 00 00 ................
00407AE0 00 00 00 00 00 00 00 00 00 00 00 00 00 00 00 00 ................
00407AF0 00 00 00 00 00 00 00 00 00 00 00 00 00 00 00 00 ................
00407B00 00 00 00 00 00 00 00 00 00 00 00 00 00 00 00 00 ................
00407B10 00 00 00 00 00 00 00 00 00 00 00 00 00 00 00 00 ................
00407B20 00 00 00 00 00 00 00 00 00 00 00 00 00 00 00 00 ................
00407B30 00 00 00 00 00 00 00 00 00 00 00 00 00 00 00 00 ................
00407B40 00 00 00 00 00 00 00 00 00 00 00 00 00 00 00 00 ................
00407B50 00 00 00 00 00 00 00 00 00 00 00 00 00 00 00 00 ................
00407B60 00 00 00 00 00 00 00 00 00 00 00 00 00 00 00 00 ................
00407B70 00 00 00 00 00 00 00 00 00 00 00 00 00 00 00 00 ................
00407B80 00 00 00 00 00 00 00 00 00 00 00 00 00 00 00 00 ................
00407B90 00 00 00 00 00 00 00 00 00 00 00 00 00 00 00 00 ................
00407BA0 00 00 00 00 00 00 00 00 00 00 00 00 00 00 00 00 ................
00407BB0 00 00 00 00 00 00 00 00 00 00 00 00 00 00 00 00 ................
00407BC0 00 00 00 00 00 00 00 00 00 00 00 00 00 00 00 00 ................
00407BD0 00 00 00 00 00 00 00 00 00 00 00 00 00 00 00 00 ................
00407BE0 00 00 00 00 00 00 00 00 00 00 00 00 00 00 00 00 ................
00407BF0 00 00 00 00 00 00 00 00 00 00 00 00 00 00 00 00 ................
00407C00 00 00 00 00 00 00 00 00 00 00 00 00 00 00 00 00 ................
00407C10 00 00 00 00 00 00 00 00 00 00 00 00 00 00 00 00 ................
00407C20 00 00 00 00 00 00 00 00 00 00 00 00 00 00 00 00 ................
00407C30 00 00 00 00 00 00 00 00 00 00 00 00 00 00 00 00 ................
00407C40 00 00 00 00 00 00 00 00 00 00 00 00 00 00 00 00 ................
00407C50 00 00 00 00 00 00 00 00 00 00 00 00 00 00 00 00 ................
00407C60 00 00 00 00 00 00 00 00 00 00 00 00 00 00 00 00 ................
00407C70 00 00 00 00 00 00 00 00 00 00 00 00 00 00 00 00 ................
00407C80 00 00 00 00 00 00 00 00 00 00 00 00 00 00 00 00 ................
00407C90 00 00 00 00 00 00 00 00 00 00 00 00 00 00 00 00 ................
00407CA0 00 00 00 00 00 00 00 00 00 00 00 00 00 00 00 00 ................
00407CB0 00 00 00 00 00 00 00 00 00 00 00 00 00 00 00 00 ................
00407CC0 00 00 00 00 00 00 00 00 00 00 00 00 00 00 00 00 ................
00407CD0 00 00 00 00 00 00 00 00 00 00 00 00 00 00 00 00 ................
00407CE0 00 00 00 00 00 00 00 00 00 00 00 00 00 00 00 00 ................
00407CF0 00 00 00 00 00 00 00 00 00 00 00 00 00 00 00 00 ................
00407D00 00 00 00 00 00 00 00 00 00 00 00 00 00 00 00 00 ................
00407D10 00 00 00 00 00 00 00 00 00 00 00 00 00 00 00 00 ................
00407D20 00 00 00 00 00 00 00 00 00 00 00 00 00 00 00 00 ................
00407D30 00 00 00 00 00 00 00 00 00 00 00 00 00 00 00 00 ................
00407D40 00 00 00 00 00 00 00 00 00 00 00 00 00 00 00 00 ................
00407D50 00 00 00 00 00 00 00 00 00 00 00 00 00 00 00 00 ................
00407D60 00 00 00 00 00 00 00 00 00 00 00 00 00 00 00 00 ................
00407D70 00 00 00 00 00 00 00 00 00 00 00 00 00 00 00 00 ................
00407D80 00 00 00 00 00 00 00 00 00 00 00 00 00 00 00 00 ................
00407D90 00 00 00 00 00 00 00 00 00 00 00 00 00 00 00 00 ................
00407DA0 00 00 00 00 00 00 00 00 00 00 00 00 00 00 00 00 ................
00407DB0 00 00 00 00 00 00 00 00 00 00 00 00 00 00 00 00 ................
00407DC0 00 00 00 00 00 00 00 00 00 00 00 00 00 00 00 00 ................
00407DD0 00 00 00 00 00 00 00 00 00 00 00 00 00 00 00 00 ................
00407DE0 00 00 00 00 00 00 00 00 00 00 00 00 00 00 00 00 ................
00407DF0 00 00 00 00 00 00 00 00 00 00 00 00 00 00 00 00 ................
00407E00 00 00 00 00 00 00 00 00 00 00 00 00 00 00 00 00 ................
00407E10 00 00 00 00 00 00 00 00 00 00 00 00 00 00 00 00 ................
00407E20 00 00 00 00 00 00 00 00 00 00 00 00 00 00 00 00 ................
00407E30 00 00 00 00 00 00 00 00 00 00 00 00 00 00 00 00 ................
00407E40 00 00 00 00 00 00 00 00 00 00 00 00 00 00 00 00 ................
00407E50 00 00 00 00 00 00 00 00 00 00 00 00 00 00 00 00 ................
00407E60 00 00 00 00 00 00 00 00 00 00 00 00 00 00 00 00 ................
00407E70 00 00 00 00 00 00 00 00 00 00 00 00 00 00 00 00 ................
00407E80 00 00 00 00 00 00 00 00 00 00 00 00 00 00 00 00 ................
00407E90 00 00 00 00 00 00 00 00 00 00 00 00 00 00 00 00 ................
00407EA0 00 00 00 00 00 00 00 00 00 00 00 00 00 00 00 00 ................
00407EB0 00 00 00 00 00 00 00 00 00 00 00 00 00 00 00 00 ................
00407EC0 00 00 00 00 00 00 00 00 00 00 00 00 00 00 00 00 ................
00407ED0 00 00 00 00 00 00 00 00 00 00 00 00 00 00 00 00 ................
00407EE0 00 00 00 00 00 00 00 00 00 00 00 00 00 00 00 00 ................
00407EF0 00 00 00 00 00 00 00 00 00 00 00 00 00 00 00 00 ................
00407F00 00 00 00 00 00 00 00 00 00 00 00 00 00 00 00 00 ................
00407F10 00 00 00 00 00 00 00 00 00 00 00 00 00 00 00 00 ................
00407F20 00 00 00 00 00 00 00 00 00 00 00 00 00 00 00 00 ................
00407F30 00 00 00 00 00 00 00 00 00 00 00 00 00 00 00 00 ................
00407F40 00 00 00 00 00 00 00 00 00 00 00 00 00 00 00 00 ................
00407F50 00 00 00 00 00 00 00 00 00 00 00 00 00 00 00 00 ................
00407F60 00 00 00 00 00 00 00 00 00 00 00 00 00 00 00 00 ................
00407F70 00 00 00 00 00 00 00 00 00 00 00 00 00 00 00 00 ................
00407F80 00 00 00 00 00 00 00 00 00 00 00 00 00 00 00 00 ................
00407F90 00 00 00 00 00 00 00 00 00 00 00 00 00 00 00 00 ................
00407FA0 00 00 00 00 00 00 00 00 00 00 00 00 00 00 00 00 ................
00407FB0 00 00 00 00 00 00 00 00 00 00 00 00 00 00 00 00 ................
00407FC0 00 00 00 00 00 00 00 00 00 00 00 00 00 00 00 00 ................
00407FD0 00 00 00 00 00 00 00 00 00 00 00 00 00 00 00 00 ................
00407FE0 00 00 00 00 00 00 00 00 00 00 00 00 00 00 00 00 ................
00407FF0 00 00 00 00 00 00 00 00 00 00 00 00 00 00 00 00 ................
00408000 00 00 00 00 00 00 00 00 00 00 00 00 00 00 00 00 ................
00408010 00 00 00 00 00 00 00 00 00 00 00 00 00 00 00 00 ................
00408020 00 00 00 00 00 00 00 00 00 00 00 00 00 00 00 00 ................
00408030 00 00 00 00 00 00 00 00 00 00 00 00 00 00 00 00 ................
00408040 00 00 00 00 00 00 00 00 00 00 00 00 00 00 00 00 ................
00408050 00 00 00 00 00 00 00 00 00 00 00 00 00 00 00 00 ................
00408060 00 00 00 00 00 00 00 00 00 00 00 00 00 00 00 00 ................
00408070 00 00 00 00 00 00 00 00 00 00 00 00 00 00 00 00 ................
00408080 00 00 00 00 00 00 00 00 00 00 00 00 00 00 00 00 ................
00408090 00 00 00 00 00 00 00 00 00 00 00 00 00 00 00 00 ................
004080A0 00 00 00 00 00 00 00 00 00 00 00 00 00 00 00 00 ................
004080B0 00 00 00 00 00 00 00 00 00 00 00 00 00 00 00 00 ................
004080C0 00 00 00 00 00 00 00 00 00 00 00 00 00 00 00 00 ................
004080D0 00 00 00 00 00 00 00 00 00 00 00 00 00 00 00 00 ................
004080E0 00 00 00 00 00 00 00 00 00 00 00 00 00 00 00 00 ................
004080F0 00 00 00 00 00 00 00 00 00 00 00 00 00 00 00 00 ................
00408100 00 00 00 00 00 00 00 00 00 00 00 00 00 00 00 00 ................
00408110 00 00 00 00 00 00 00 00 00 00 00 00 00 00 00 00 ................
00408120 00 00 00 00 00 00 00 00 00 00 00 00 00 00 00 00 ................
00408130 00 00 00 00 00 00 00 00 00 00 00 00 00 00 00 00 ................
00408140 00 00 00 00 00 00 00 00 00 00 00 00 00 00 00 00 ................
00408150 00 00 00 00 00 00 00 00 00 00 00 00 00 00 00 00 ................
00408160 00 00 00 00 00 00 00 00 00 00 00 00 00 00 00 00 ................
00408170 00 00 00 00 00 00 00 00 00 00 00 00 00 00 00 00 ................
00408180 00 00 00 00 00 00 00 00 00 00 00 00 00 00 00 00 ................
00408190 00 00 00 00 00 00 00 00 00 00 00 00 00 00 00 00 ................
004081A0 00 00 00 00 00 00 00 00 00 00 00 00 00 00 00 00 ................
004081B0 00 00 00 00 00 00 00 00 00 00 00 00 00 00 00 00 ................
004081C0 00 00 00 00 00 00 00 00 00 00 00 00 00 00 00 00 ................
004081D0 00 00 00 00 00 00 00 00 00 00 00 00 00 00 00 00 ................
004081E0 00 00 00 00 00 00 00 00 00 00 00 00 00 00 00 00 ................
004081F0 00 00 00 00 00 00 00 00 00 00 00 00 00 00 00 00 ................
00408200 00 00 00 00 00 00 00 00 00 00 00 00 00 00 00 00 ................
00408210 00 00 00 00 00 00 00 00 00 00 00 00 00 00 00 00 ................
00408220 00 00 00 00 00 00 00 00 00 00 00 00 00 00 00 00 ................
00408230 00 00 00 00 00 00 00 00 00 00 00 00 00 00 00 00 ................
00408240 00 00 00 00 00 00 00 00 00 00 00 00 00 00 00 00 ................
00408250 00 00 00 00 00 00 00 00 00 00 00 00 00 00 00 00 ................
00408260 00 00 00 00 00 00 00 00 00 00 00 00 00 00 00 00 ................
00408270 00 00 00 00 00 00 00 00 00 00 00 00 00 00 00 00 ................
00408280 00 00 00 00 00 00 00 00 00 00 00 00 00 00 00 00 ................
00408290 00 00 00 00 00 00 00 00 00 00 00 00 00 00 00 00 ................
004082A0 00 00 00 00 00 00 00 00 00 00 00 00 00 00 00 00 ................
004082B0 00 00 00 00 00 00 00 00 00 00 00 00 00 00 00 00 ................
004082C0 00 00 00 00 00 00 00 00 00 00 00 00 00 00 00 00 ................
004082D0 00 00 00 00 00 00 00 00 00 00 00 00 00 00 00 00 ................
004082E0 00 00 00 00 00 00 00 00 00 00 00 00 00 00 00 00 ................
004082F0 00 00 00 00 00 00 00 00 00 00 00 00 00 00 00 00 ................
00408300 00 00 00 00 00 00 00 00 00 00 00 00 00 00 00 00 ................
00408310 00 00 00 00 00 00 00 00 00 00 00 00 00 00 00 00 ................
00408320 00 00 00 00 00 00 00 00 00 00 00 00 00 00 00 00 ................
00408330 00 00 00 00 00 00 00 00 00 00 00 00 00 00 00 00 ................
00408340 00 00 00 00 00 00 00 00 00 00 00 00 00 00 00 00 ................
00408350 00 00 00 00 00 00 00 00 00 00 00 00 00 00 00 00 ................
00408360 00 00 00 00 00 00 00 00 00 00 00 00 00 00 00 00 ................
00408370 00 00 00 00 00 00 00 00 00 00 00 00 00 00 00 00 ................
00408380 00 00 00 00 00 00 00 00 00 00 00 00 00 00 00 00 ................
00408390 00 00 00 00 00 00 00 00 00 00 00 00 00 00 00 00 ................
004083A0 00 00 00 00 00 00 00 00 00 00 00 00 00 00 00 00 ................
004083B0 00 00 00 00 00 00 00 00 00 00 00 00 00 00 00 00 ................
004083C0 00 00 00 00 00 00 00 00 00 00 00 00 00 00 00 00 ................
004083D0 00 00 00 00 00 00 00 00 00 00 00 00 00 00 00 00 ................
004083E0 00 00 00 00 00 00 00 00 00 00 00 00 00 00 00 00 ................
004083F0 00 00 00 00 00 00 00 00 00 00 00 00 00 00 00 00 ................
00408400 00 00 00 00 00 00 00 00 00 00 00 00 00 00 00 00 ................
00408410 00 00 00 00 00 00 00 00 00 00 00 00 00 00 00 00 ................
00408420 00 00 00 00 00 00 00 00 00 00 00 00 00 00 00 00 ................
00408430 00 00 00 00 00 00 00 00 00 00 00 00 00 00 00 00 ................
00408440 00 00 00 00 00 00 00 00 00 00 00 00 00 00 00 00 ................
00408450 00 00 00 00 00 00 00 00 00 00 00 00 00 00 00 00 ................
00408460 00 00 00 00 00 00 00 00 00 00 00 00 00 00 00 00 ................
00408470 00 00 00 00 00 00 00 00 00 00 00 00 00 00 00 00 ................
00408480 00 00 00 00 00 00 00 00 00 00 00 00 00 00 00 00 ................
00408490 00 00 00 00 00 00 00 00 00 00 00 00 00 00 00 00 ................
004084A0 00 00 00 00 00 00 00 00 00 00 00 00 00 00 00 00 ................
004084B0 00 00 00 00 00 00 00 00 00 00 00 00 00 00 00 00 ................
004084C0 00 00 00 00 00 00 00 00 00 00 00 00 00 00 00 00 ................
004084D0 00 00 00 00 00 00 00 00 00 00 00 00 00 00 00 00 ................
004084E0 00 00 00 00 00 00 00 00 00 00 00 00 00 00 00 00 ................
004084F0 00 00 00 00 00 00 00 00 00 00 00 00 00 00 00 00 ................
00408500 00 00 00 00 00 00 00 00 00 00 00 00 00 00 00 00 ................
00408510 00 00 00 00 00 00 00 00 00 00 00 00 00 00 00 00 ................
00408520 00 00 00 00 00 00 00 00 00 00 00 00 00 00 00 00 ................
00408530 00 00 00 00 00 00 00 00 00 00 00 00 00 00 00 00 ................
00408540 00 00 00 00 00 00 00 00 00 00 00 00 00 00 00 00 ................
00408550 00 00 00 00 00 00 00 00 00 00 00 00 00 00 00 00 ................
00408560 00 00 00 00 00 00 00 00 00 00 00 00 00 00 00 00 ................
00408570 00 00 00 00 00 00 00 00 00 00 00 00 00 00 00 00 ................
00408580 00 00 00 00 00 00 00 00 00 00 00 00 00 00 00 00 ................
00408590 00 00 00 00 00 00 00 00 00 00 00 00 00 00 00 00 ................
004085A0 00 00 00 00 00 00 00 00 00 00 00 00 00 00 00 00 ................
004085B0 00 00 00 00 00 00 00 00 00 00 00 00 00 00 00 00 ................
004085C0 00 00 00 00 00 00 00 00 00 00 00 00 00 00 00 00 ................
004085D0 00 00 00 00 00 00 00 00 00 00 00 00 00 00 00 00 ................
004085E0 00 00 00 00 00 00 00 00 00 00 00 00 00 00 00 00 ................
004085F0 00 00 00 00 00 00 00 00 00 00 00 00 00 00 00 00 ................
00408600 00 00 00 00 00 00 00 00 00 00 00 00 00 00 00 00 ................
00408610 00 00 00 00 00 00 00 00 00 00 00 00 00 00 00 00 ................
00408620 00 00 00 00 00 00 00 00 00 00 00 00 00 00 00 00 ................
00408630 00 00 00 00 00 00 00 00 00 00 00 00 00 00 00 00 ................
00408640 00 00 00 00 00 00 00 00 00 00 00 00 00 00 00 00 ................
00408650 00 00 00 00 00 00 00 00 00 00 00 00 00 00 00 00 ................
00408660 00 00 00 00 00 00 00 00 00 00 00 00 00 00 00 00 ................
00408670 00 00 00 00 00 00 00 00 00 00 00 00 00 00 00 00 ................
00408680 00 00 00 00 00 00 00 00 00 00 00 00 00 00 00 00 ................
00408690 00 00 00 00 00 00 00 00 00 00 00 00 00 00 00 00 ................
004086A0 00 00 00 00 00 00 00 00 00 00 00 00 00 00 00 00 ................
004086B0 00 00 00 00 00 00 00 00 00 00 00 00 00 00 00 00 ................
004086C0 00 00 00 00 00 00 00 00 00 00 00 00 00 00 00 00 ................
004086D0 00 00 00 00 00 00 00 00 00 00 00 00 00 00 00 00 ................
004086E0 00 00 00 00 00 00 00 00 00 00 00 00 00 00 00 00 ................
004086F0 00 00 00 00 00 00 00 00 00 00 00 00 00 00 00 00 ................
00408700 00 00 00 00 00 00 00 00 00 00 00 00 00 00 00 00 ................
00408710 00 00 00 00 00 00 00 00 00 00 00 00 00 00 00 00 ................
00408720 00 00 00 00 00 00 00 00 00 00 00 00 00 00 00 00 ................
00408730 00 00 00 00 00 00 00 00 00 00 00 00 00 00 00 00 ................
00408740 00 00 00 00 00 00 00 00 00 00 00 00 00 00 00 00 ................
00408750 00 00 00 00 00 00 00 00 00 00 00 00 00 00 00 00 ................
00408760 00 00 00 00 00 00 00 00 00 00 00 00 00 00 00 00 ................
00408770 00 00 00 00 00 00 00 00 00 00 00 00 00 00 00 00 ................
00408780 00 00 00 00 00 00 00 00 00 00 00 00 00 00 00 00 ................
00408790 00 00 00 00 00 00 00 00 00 00 00 00 00 00 00 00 ................
004087A0 00 00 00 00 00 00 00 00 00 00 00 00 00 00 00 00 ................
004087B0 00 00 00 00 00 00 00 00 00 00 00 00 00 00 00 00 ................
004087C0 00 00 00 00 00 00 00 00 00 00 00 00 00 00 00 00 ................
004087D0 00 00 00 00 00 00 00 00 00 00 00 00 00 00 00 00 ................
004087E0 00 00 00 00 00 00 00 00 00 00 00 00 00 00 00 00 ................
004087F0 00 00 00 00 00 00 00 00 00 00 00 00 00 00 00 00 ................
00408800 00 00 00 00 00 00 00 00 00 00 00 00 00 00 00 00 ................
00408810 00 00 00 00 00 00 00 00 00 00 00 00 00 00 00 00 ................
00408820 00 00 00 00 00 00 00 00 00 00 00 00 00 00 00 00 ................
00408830 00 00 00 00 00 00 00 00 00 00 00 00 00 00 00 00 ................
00408840 00 00 00 00 00 00 00 00 00 00 00 00 00 00 00 00 ................
00408850 00 00 00 00 00 00 00 00 00 00 00 00 00 00 00 00 ................
00408860 00 00 00 00 00 00 00 00 00 00 00 00 00 00 00 00 ................
00408870 00 00 00 00 00 00 00 00 00 00 00 00 00 00 00 00 ................
00408880 00 00 00 00 00 00 00 00 00 00 00 00 00 00 00 00 ................
00408890 00 00 00 00 00 00 00 00 00 00 00 00 00 00 00 00 ................
004088A0 00 00 00 00 00 00 00 00 00 00 00 00 00 00 00 00 ................
004088B0 00 00 00 00 00 00 00 00 00 00 00 00 00 00 00 00 ................
004088C0 00 00 00 00 00 00 00 00 00 00 00 00 00 00 00 00 ................
004088D0 00 00 00 00 00 00 00 00 00 00 00 00 00 00 00 00 ................
004088E0 00 00 00 00 00 00 00 00 00 00 00 00 00 00 00 00 ................
004088F0 00 00 00 00 00 00 00 00 00 00 00 00 00 00 00 00 ................
00408900 00 00 00 00 00 00 00 00 00 00 00 00 00 00 00 00 ................
00408910 00 00 00 00 00 00 00 00 00 00 00 00 00 00 00 00 ................
00408920 00 00 00 00 00 00 00 00 00 00 00 00 00 00 00 00 ................
00408930 00 00 00 00 00 00 00 00 00 00 00 00 00 00 00 00 ................
00408940 00 00 00 00 00 00 00 00 00 00 00 00 00 00 00 00 ................
00408950 00 00 00 00 00 00 00 00 00 00 00 00 00 00 00 00 ................
00408960 00 00 00 00 00 00 00 00 00 00 00 00 00 00 00 00 ................
00408970 00 00 00 00 00 00 00 00 00 00 00 00 00 00 00 00 ................
00408980 00 00 00 00 00 00 00 00 00 00 00 00 00 00 00 00 ................
00408990 00 00 00 00 00 00 00 00 00 00 00 00 00 00 00 00 ................
004089A0 00 00 00 00 00 00 00 00 00 00 00 00 00 00 00 00 ................
004089B0 00 00 00 00 00 00 00 00 00 00 00 00 00 00 00 00 ................
004089C0 00 00 00 00 00 00 00 00 00 00 00 00 00 00 00 00 ................
004089D0 00 00 00 00 00 00 00 00 00 00 00 00 00 00 00 00 ................
004089E0 00 00 00 00 00 00 00 00 00 00 00 00 00 00 00 00 ................
004089F0 00 00 00 00 00 00 00 00 00 00 00 00 00 00 00 00 ................
00408A00 00 00 00 00 00 00 00 00 00 00 00 00 00 00 00 00 ................
00408A10 00 00 00 00 00 00 00 00 00 00 00 00 00 00 00 00 ................
00408A20 00 00 00 00 00 00 00 00 00 00 00 00 00 00 00 00 ................
00408A30 00 00 00 00 00 00 00 00 00 00 00 00 00 00 00 00 ................
00408A40 00 00 00 00 00 00 00 00 00 00 00 00 00 00 00 00 ................
00408A50 00 00 00 00 00 00 00 00 00 00 00 00 00 00 00 00 ................
00408A60 00 00 00 00 00 00 00 00 00 00 00 00 00 00 00 00 ................
00408A70 00 00 00 00 00 00 00 00 00 00 00 00 00 00 00 00 ................
00408A80 00 00 00 00 00 00 00 00 00 00 00 00 00 00 00 00 ................
00408A90 00 00 00 00 00 00 00 00 00 00 00 00 00 00 00 00 ................
00408AA0 00 00 00 00 00 00 00 00 00 00 00 00 00 00 00 00 ................
00408AB0 00 00 00 00 00 00 00 00 00 00 00 00 00 00 00 00 ................
00408AC0 00 00 00 00 00 00 00 00 00 00 00 00 00 00 00 00 ................
00408AD0 00 00 00 00 00 00 00 00 00 00 00 00 00 00 00 00 ................
00408AE0 00 00 00 00 00 00 00 00 00 00 00 00 00 00 00 00 ................
00408AF0 00 00 00 00 00 00 00 00 00 00 00 00 00 00 00 00 ................
00408B00 00 00 00 00 00 00 00 00 00 00 00 00 00 00 00 00 ................
00408B10 00 00 00 00 00 00 00 00 00 00 00 00 00 00 00 00 ................
00408B20 00 00 00 00 00 00 00 00 00 00 00 00 00 00 00 00 ................
00408B30 00 00 00 00 00 00 00 00 00 00 00 00 00 00 00 00 ................
00408B40 00 00 00 00 00 00 00 00 00 00 00 00 00 00 00 00 ................
00408B50 00 00 00 00 00 00 00 00 00 00 00 00 00 00 00 00 ................
00408B60 00 00 00 00 00 00 00 00 00 00 00 00 00 00 00 00 ................
00408B70 00 00 00 00 00 00 00 00 00 00 00 00 00 00 00 00 ................
00408B80 00 00 00 00 00 00 00 00 00 00 00 00 00 00 00 00 ................
00408B90 00 00 00 00 00 00 00 00 00 00 00 00 00 00 00 00 ................
00408BA0 00 00 00 00 00 00 00 00 00 00 00 00 00 00 00 00 ................
00408BB0 00 00 00 00 00 00 00 00 00 00 00 00 00 00 00 00 ................
00408BC0 00 00 00 00 00 00 00 00 00 00 00 00 00 00 00 00 ................
00408BD0 00 00 00 00 00 00 00 00 00 00 00 00 00 00 00 00 ................
00408BE0 00 00 00 00 00 00 00 00 00 00 00 00 00 00 00 00 ................
00408BF0 00 00 00 00 00 00 00 00 00 00 00 00 00 00 00 00 ................
00408C00 00 00 00 00 00 00 00 00 00 00 00 00 00 00 00 00 ................
00408C10 00 00 00 00 00 00 00 00 00 00 00 00 00 00 00 00 ................
00408C20 00 00 00 00 00 00 00 00 00 00 00 00 00 00 00 00 ................
00408C30 00 00 00 00 00 00 00 00 00 00 00 00 00 00 00 00 ................
00408C40 00 00 00 00 00 00 00 00 00 00 00 00 00 00 00 00 ................
00408C50 00 00 00 00 00 00 00 00 00 00 00 00 00 00 00 00 ................
00408C60 00 00 00 00 00 00 00 00 00 00 00 00 00 00 00 00 ................
00408C70 00 00 00 00 00 00 00 00 00 00 00 00 00 00 00 00 ................
00408C80 00 00 00 00 00 00 00 00 00 00 00 00 00 00 00 00 ................
00408C90 00 00 00 00 00 00 00 00 00 00 00 00 00 00 00 00 ................
00408CA0 00 00 00 00 00 00 00 00 00 00 00 00 00 00 00 00 ................
00408CB0 00 00 00 00 00 00 00 00 00 00 00 00 00 00 00 00 ................
00408CC0 00 00 00 00 00 00 00 00 00 00 00 00 00 00 00 00 ................
00408CD0 00 00 00 00 00 00 00 00 00 00 00 00 00 00 00 00 ................
00408CE0 00 00 00 00 00 00 00 00 00 00 00 00 00 00 00 00 ................
00408CF0 00 00 00 00 00 00 00 00 00 00 00 00 00 00 00 00 ................
00408D00 00 00 00 00 00 00 00 00 00 00 00 00 00 00 00 00 ................
00408D10 00 00 00 00 00 00 00 00 00 00 00 00 00 00 00 00 ................
00408D20 00 00 00 00 00 00 00 00 00 00 00 00 00 00 00 00 ................
00408D30 00 00 00 00 00 00 00 00 00 00 00 00 00 00 00 00 ................
00408D40 00 00 00 00 00 00 00 00 00 00 00 00 00 00 00 00 ................
00408D50 00 00 00 00 00 00 00 00 00 00 00 00 00 00 00 00 ................
00408D60 00 00 00 00 00 00 00 00 00 00 00 00 00 00 00 00 ................
00408D70 00 00 00 00 00 00 00 00 00 00 00 00 00 00 00 00 ................
00408D80 00 00 00 00 00 00 00 00 00 00 00 00 00 00 00 00 ................
00408D90 00 00 00 00 00 00 00 00 00 00 00 00 00 00 00 00 ................
00408DA0 00 00 00 00 00 00 00 00 00 00 00 00 00 00 00 00 ................
00408DB0 00 00 00 00 00 00 00 00 00 00 00 00 00 00 00 00 ................
00408DC0 00 00 00 00 00 00 00 00 00 00 00 00 00 00 00 00 ................
00408DD0 00 00 00 00 00 00 00 00 00 00 00 00 00 00 00 00 ................
00408DE0 00 00 00 00 00 00 00 00 00 00 00 00 00 00 00 00 ................
00408DF0 00 00 00 00 00 00 00 00 00 00 00 00 00 00 00 00 ................
00408E00 00 00 00 00 00 00 00 00 00 00 00 00 00 00 00 00 ................
00408E10 00 00 00 00 00 00 00 00 00 00 00 00 00 00 00 00 ................
00408E20 00 00 00 00 00 00 00 00 00 00 00 00 00 00 00 00 ................
00408E30 00 00 00 00 00 00 00 00 00 00 00 00 00 00 00 00 ................
00408E40 00 00 00 00 00 00 00 00 00 00 00 00 00 00 00 00 ................
00408E50 00 00 00 00 00 00 00 00 00 00 00 00 00 00 00 00 ................
00408E60 00 00 00 00 00 00 00 00 00 00 00 00 00 00 00 00 ................
00408E70 00 00 00 00 00 00 00 00 00 00 00 00 00 00 00 00 ................
00408E80 00 00 00 00 00 00 00 00 00 00 00 00 00 00 00 00 ................
00408E90 00 00 00 00 00 00 00 00 00 00 00 00 00 00 00 00 ................
00408EA0 00 00 00 00 00 00 00 00 00 00 00 00 00 00 00 00 ................
00408EB0 00 00 00 00 00 00 00 00 00 00 00 00 00 00 00 00 ................
00408EC0 00 00 00 00 00 00 00 00 00 00 00 00 00 00 00 00 ................
00408ED0 00 00 00 00 00 00 00 00 00 00 00 00 00 00 00 00 ................
00408EE0 00 00 00 00 00 00 00 00 00 00 00 00 00 00 00 00 ................
00408EF0 00 00 00 00 00 00 00 00 00 00 00 00 00 00 00 00 ................
00408F00 00 00 00 00 00 00 00 00 00 00 00 00 00 00 00 00 ................
00408F10 00 00 00 00 00 00 00 00 00 00 00 00 00 00 00 00 ................
00408F20 00 00 00 00 00 00 00 00 00 00 00 00 00 00 00 00 ................
00408F30 00 00 00 00 00 00 00 00 00 00 00 00 00 00 00 00 ................
00408F40 00 00 00 00 00 00 00 00 00 00 00 00 00 00 00 00 ................
00408F50 00 00 00 00 00 00 00 00 00 00 00 00 00 00 00 00 ................
00408F60 00 00 00 00 00 00 00 00 00 00 00 00 00 00 00 00 ................
00408F70 00 00 00 00 00 00 00 00 00 00 00 00 00 00 00 00 ................
00408F80 00 00 00 00 00 00 00 00 00 00 00 00 00 00 00 00 ................
00408F90 00 00 00 00 00 00 00 00 00 00 00 00 00 00 00 00 ................
00408FA0 00 00 00 00 00 00 00 00 00 00 00 00 00 00 00 00 ................
00408FB0 00 00 00 00 00 00 00 00 00 00 00 00 00 00 00 00 ................
00408FC0 00 00 00 00 00 00 00 00 00 00 00 00 00 00 00 00 ................
00408FD0 00 00 00 00 00 00 00 00 00 00 00 00 00 00 00 00 ................
00408FE0 00 00 00 00 00 00 00 00 00 00 00 00 00 00 00 00 ................
00408FF0 00 00 00 00 00 00 00 00 00 00 00 00 00 00 00 00 ................
00409000 00 00 00 00 00 00 00 00 00 00 00 00 00 00 00 00 ................
00409010 00 00 00 00 00 00 00 00 00 00 00 00 00 00 00 00 ................
00409020 00 00 00 00 00 00 00 00 00 00 00 00 00 00 00 00 ................
00409030 00 00 00 00 00 00 00 00 00 00 00 00 00 00 00 00 ................
00409040 00 00 00 00 00 00 00 00 00 00 00 00 00 00 00 00 ................
00409050 00 00 00 00 00 00 00 00 00 00 00 00 00 00 00 00 ................
00409060 00 00 00 00 00 00 00 00 00 00 00 00 00 00 00 00 ................
00409070 00 00 00 00 00 00 00 00 00 00 00 00 00 00 00 00 ................
00409080 00 00 00 00 00 00 00 00 00 00 00 00 00 00 00 00 ................
00409090 00 00 00 00 00 00 00 00 00 00 00 00 00 00 00 00 ................
004090A0 00 00 00 00 00 00 00 00 00 00 00 00 00 00 00 00 ................
004090B0 00 00 00 00 00 00 00 00 00 00 00 00 00 00 00 00 ................
004090C0 00 00 00 00 00 00 00 00 00 00 00 00 00 00 00 00 ................
004090D0 00 00 00 00 00 00 00 00 00 00 00 00 00 00 00 00 ................
004090E0 00 00 00 00 00 00 00 00 00 00 00 00 00 00 00 00 ................
004090F0 00 00 00 00 00 00 00 00 00 00 00 00 00 00 00 00 ................
00409100 00 00 00 00 00 00 00 00 00 00 00 00 00 00 00 00 ................
00409110 00 00 00 00 00 00 00 00 00 00 00 00 00 00 00 00 ................
00409120 00 00 00 00 00 00 00 00 00 00 00 00 00 00 00 00 ................
00409130 00 00 00 00 00 00 00 00 00 00 00 00 00 00 00 00 ................
00409140 00 00 00 00 00 00 00 00 00 00 00 00 00 00 00 00 ................
00409150 00 00 00 00 00 00 00 00 00 00 00 00 00 00 00 00 ................
00409160 00 00 00 00 00 00 00 00 00 00 00 00 00 00 00 00 ................
00409170 00 00 00 00 00 00 00 00 00 00 00 00 00 00 00 00 ................
00409180 00 00 00 00 00 00 00 00 00 00 00 00 00 00 00 00 ................
00409190 00 00 00 00 00 00 00 00 00 00 00 00 00 00 00 00 ................
004091A0 00 00 00 00 00 00 00 00 00 00 00 00 00 00 00 00 ................
004091B0 00 00 00 00 00 00 00 00 00 00 00 00 00 00 00 00 ................
004091C0 00 00 00 00 00 00 00 00 00 00 00 00 00 00 00 00 ................
004091D0 00 00 00 00 00 00 00 00 00 00 00 00 00 00 00 00 ................
004091E0 00 00 00 00 00 00 00 00 00 00 00 00 00 00 00 00 ................
004091F0 00 00 00 00 00 00 00 00 00 00 00 00 00 00 00 00 ................
00409200 00 00 00 00 00 00 00 00 00 00 00 00 00 00 00 00 ................
00409210 00 00 00 00 00 00 00 00 00 00 00 00 00 00 00 00 ................
00409220 00 00 00 00 00 00 00 00 00 00 00 00 00 00 00 00 ................
00409230 00 00 00 00 00 00 00 00 00 00 00 00 00 00 00 00 ................
00409240 00 00 00 00 00 00 00 00 00 00 00 00 00 00 00 00 ................
00409250 00 00 00 00 00 00 00 00 00 00 00 00 00 00 00 00 ................
00409260 00 00 00 00 00 00 00 00 00 00 00 00 00 00 00 00 ................
00409270 00 00 00 00 00 00 00 00 00 00 00 00 00 00 00 00 ................
00409280 00 00 00 00 00 00 00 00 00 00 00 00 00 00 00 00 ................
00409290 00 00 00 00 00 00 00 00 00 00 00 00 00 00 00 00 ................
004092A0 00 00 00 00 00 00 00 00 00 00 00 00 00 00 00 00 ................
004092B0 00 00 00 00 00 00 00 00 00 00 00 00 00 00 00 00 ................
004092C0 00 00 00 00 00 00 00 00 00 00 00 00 00 00 00 00 ................
004092D0 00 00 00 00 00 00 00 00 00 00 00 00 00 00 00 00 ................
004092E0 00 00 00 00 00 00 00 00 00 00 00 00 00 00 00 00 ................
004092F0 00 00 00 00 00 00 00 00 00 00 00 00 00 00 00 00 ................
00409300 00 00 00 00 00 00 00 00 00 00 00 00 00 00 00 00 ................
00409310 00 00 00 00 00 00 00 00 00 00 00 00 00 00 00 00 ................
00409320 00 00 00 00 00 00 00 00 00 00 00 00 00 00 00 00 ................
00409330 00 00 00 00 00 00 00 00 00 00 00 00 00 00 00 00 ................
00409340 00 00 00 00 00 00 00 00 00 00 00 00 00 00 00 00 ................
00409350 00 00 00 00 00 00 00 00 00 00 00 00 00 00 00 00 ................
00409360 00 00 00 00 00 00 00 00 00 00 00 00 00 00 00 00 ................
00409370 00 00 00 00 00 00 00 00 00 00 00 00 00 00 00 00 ................
00409380 00 00 00 00 00 00 00 00 00 00 00 00 00 00 00 00 ................
00409390 00 00 00 00 00 00 00 00 00 00 00 00 00 00 00 00 ................
004093A0 00 00 00 00 00 00 00 00 00 00 00 00 00 00 00 00 ................
004093B0 00 00 00 00 00 00 00 00 00 00 00 00 00 00 00 00 ................
004093C0 00 00 00 00 00 00 00 00 00 00 00 00 00 00 00 00 ................
004093D0 00 00 00 00 00 00 00 00 00 00 00 00 00 00 00 00 ................
004093E0 00 00 00 00 00 00 00 00 00 00 00 00 00 00 00 00 ................
004093F0 00 00 00 00 00 00 00 00 00 00 00 00 00 00 00 00 ................
00409400 00 00 00 00 00 00 00 00 00 00 00 00 00 00 00 00 ................
00409410 00 00 00 00 00 00 00 00 00 00 00 00 00 00 00 00 ................
00409420 00 00 00 00 00 00 00 00 00 00 00 00 00 00 00 00 ................
00409430 00 00 00 00 00 00 00 00 00 00 00 00 00 00 00 00 ................
00409440 00 00 00 00 00 00 00 00 00 00 00 00 00 00 00 00 ................
00409450 00 00 00 00 00 00 00 00 00 00 00 00 00 00 00 00 ................
00409460 00 00 00 00 00 00 00 00 00 00 00 00 00 00 00 00 ................
00409470 00 00 00 00 00 00 00 00 00 00 00 00 00 00 00 00 ................
00409480 00 00 00 00 00 00 00 00 00 00 00 00 00 00 00 00 ................
00409490 00 00 00 00 00 00 00 00 00 00 00 00 00 00 00 00 ................
004094A0 00 00 00 00 00 00 00 00 00 00 00 00 00 00 00 00 ................
004094B0 00 00 00 00 00 00 00 00 00 00 00 00 00 00 00 00 ................
004094C0 00 00 00 00 00 00 00 00 00 00 00 00 00 00 00 00 ................
004094D0 00 00 00 00 00 00 00 00 00 00 00 00 00 00 00 00 ................
004094E0 00 00 00 00 00 00 00 00 00 00 00 00 00 00 00 00 ................
004094F0 00 00 00 00 00 00 00 00 00 00 00 00 00 00 00 00 ................
00409500 00 00 00 00 00 00 00 00 00 00 00 00 00 00 00 00 ................
00409510 00 00 00 00 00 00 00 00 00 00 00 00 00 00 00 00 ................
00409520 00 00 00 00 00 00 00 00 00 00 00 00 00 00 00 00 ................
00409530 00 00 00 00 00 00 00 00 00 00 00 00 00 00 00 00 ................
00409540 00 00 00 00 00 00 00 00 00 00 00 00 00 00 00 00 ................
00409550 00 00 00 00 00 00 00 00 00 00 00 00 00 00 00 00 ................
00409560 00 00 00 00 00 00 00 00 00 00 00 00 00 00 00 00 ................
00409570 00 00 00 00 00 00 00 00 00 00 00 00 00 00 00 00 ................
00409580 00 00 00 00 00 00 00 00 00 00 00 00 00 00 00 00 ................
00409590 00 00 00 00 00 00 00 00 00 00 00 00 00 00 00 00 ................
004095A0 00 00 00 00 00 00 00 00 00 00 00 00 00 00 00 00 ................
004095B0 00 00 00 00 00 00 00 00 00 00 00 00 00 00 00 00 ................
004095C0 00 00 00 00 00 00 00 00 00 00 00 00 00 00 00 00 ................
004095D0 00 00 00 00 00 00 00 00 00 00 00 00 00 00 00 00 ................
004095E0 00 00 00 00 00 00 00 00 00 00 00 00 00 00 00 00 ................
004095F0 00 00 00 00 00 00 00 00 00 00 00 00 00 00 00 00 ................
00409600 00 00 00 00 00 00 00 00 00 00 00 00 00 00 00 00 ................
00409610 00 00 00 00 00 00 00 00 00 00 00 00 00 00 00 00 ................
00409620 00 00 00 00 00 00 00 00 00 00 00 00 00 00 00 00 ................
00409630 00 00 00 00 00 00 00 00 00 00 00 00 00 00 00 00 ................
00409640 00 00 00 00 00 00 00 00 00 00 00 00 00 00 00 00 ................
00409650 00 00 00 00 00 00 00 00 00 00 00 00 00 00 00 00 ................
00409660 00 00 00 00 00 00 00 00 00 00 00 00 00 00 00 00 ................
00409670 00 00 00 00 00 00 00 00 00 00 00 00 00 00 00 00 ................
00409680 00 00 00 00 00 00 00 00 00 00 00 00 00 00 00 00 ................
00409690 00 00 00 00 00 00 00 00 00 00 00 00 00 00 00 00 ................
004096A0 00 00 00 00 00 00 00 00 00 00 00 00 00 00 00 00 ................
004096B0 00 00 00 00 00 00 00 00 00 00 00 00 00 00 00 00 ................
004096C0 00 00 00 00 00 00 00 00 00 00 00 00 00 00 00 00 ................
004096D0 00 00 00 00 00 00 00 00 00 00 00 00 00 00 00 00 ................
004096E0 00 00 00 00 00 00 00 00 00 00 00 00 00 00 00 00 ................
004096F0 00 00 00 00 00 00 00 00 00 00 00 00 00 00 00 00 ................
00409700 00 00 00 00 00 00 00 00 00 00 00 00 00 00 00 00 ................
00409710 00 00 00 00 00 00 00 00 00 00 00 00 00 00 00 00 ................
00409720 00 00 00 00 00 00 00 00 00 00 00 00 00 00 00 00 ................
00409730 00 00 00 00 00 00 00 00 00 00 00 00 00 00 00 00 ................
00409740 00 00 00 00 00 00 00 00 00 00 00 00 00 00 00 00 ................
00409750 00 00 00 00 00 00 00 00 00 00 00 00 00 00 00 00 ................
00409760 00 00 00 00 00 00 00 00 00 00 00 00 00 00 00 00 ................
00409770 00 00 00 00 00 00 00 00 00 00 00 00 00 00 00 00 ................
00409780 00 00 00 00 00 00 00 00 00 00 00 00 00 00 00 00 ................
00409790 00 00 00 00 00 00 00 00 00 00 00 00 00 00 00 00 ................
004097A0 00 00 00 00 00 00 00 00 00 00 00 00 00 00 00 00 ................
004097B0 00 00 00 00 00 00 00 00 00 00 00 00 00 00 00 00 ................
004097C0 00 00 00 00 00 00 00 00 00 00 00 00 00 00 00 00 ................
004097D0 00 00 00 00 00 00 00 00 00 00 00 00 00 00 00 00 ................
004097E0 00 00 00 00 00 00 00 00 00 00 00 00 00 00 00 00 ................
004097F0 00 00 00 00 00 00 00 00 00 00 00 00 00 00 00 00 ................
00409800 00 00 00 00 00 00 00 00 00 00 00 00 00 00 00 00 ................
00409810 00 00 00 00 00 00 00 00 00 00 00 00 00 00 00 00 ................
00409820 00 00 00 00 00 00 00 00 00 00 00 00 00 00 00 00 ................
00409830 00 00 00 00 00 00 00 00 00 00 00 00 00 00 00 00 ................
00409840 00 00 00 00 00 00 00 00 00 00 00 00 00 00 00 00 ................
00409850 00 00 00 00 00 00 00 00 00 00 00 00 00 00 00 00 ................
00409860 00 00 00 00 00 00 00 00 00 00 00 00 00 00 00 00 ................
00409870 00 00 00 00 00 00 00 00 00 00 00 00 00 00 00 00 ................
00409880 00 00 00 00 00 00 00 00 00 00 00 00 00 00 00 00 ................
00409890 00 00 00 00 00 00 00 00 00 00 00 00 00 00 00 00 ................
004098A0 00 00 00 00 00 00 00 00 00 00 00 00 00 00 00 00 ................
004098B0 00 00 00 00 00 00 00 00 00 00 00 00 00 00 00 00 ................
004098C0 00 00 00 00 00 00 00 00 00 00 00 00 00 00 00 00 ................
004098D0 00 00 00 00 00 00 00 00 00 00 00 00 00 00 00 00 ................
004098E0 00 00 00 00 00 00 00 00 00 00 00 00 00 00 00 00 ................
004098F0 00 00 00 00 00 00 00 00 00 00 00 00 00 00 00 00 ................
00409900 00 00 00 00 00 00 00 00 00 00 00 00 00 00 00 00 ................
00409910 00 00 00 00 00 00 00 00 00 00 00 00 00 00 00 00 ................
00409920 00 00 00 00 00 00 00 00 00 00 00 00 00 00 00 00 ................
00409930 00 00 00 00 00 00 00 00 00 00 00 00 00 00 00 00 ................
00409940 00 00 00 00 00 00 00 00 00 00 00 00 00 00 00 00 ................
00409950 00 00 00 00 00 00 00 00 00 00 00 00 00 00 00 00 ................
00409960 00 00 00 00 00 00 00 00 00 00 00 00 00 00 00 00 ................
00409970 00 00 00 00 00 00 00 00 00 00 00 00 00 00 00 00 ................
00409980 00 00 00 00 00 00 00 00 00 00 00 00 00 00 00 00 ................
00409990 00 00 00 00 00 00 00 00 00 00 00 00 00 00 00 00 ................
004099A0 00 00 00 00 00 00 00 00 00 00 00 00 00 00 00 00 ................
004099B0 00 00 00 00 00 00 00 00 00 00 00 00 00 00 00 00 ................
004099C0 00 00 00 00 00 00 00 00 00 00 00 00 00 00 00 00 ................
004099D0 00 00 00 00 00 00 00 00 00 00 00 00 00 00 00 00 ................
004099E0 00 00 00 00 00 00 00 00 00 00 00 00 00 00 00 00 ................
004099F0 00 00 00 00 00 00 00 00 00 00 00 00 00 00 00 00 ................
00409A00 00 00 00 00 00 00 00 00 00 00 00 00 00 00 00 00 ................
00409A10 00 00 00 00 00 00 00 00 00 00 00 00 00 00 00 00 ................
00409A20 00 00 00 00 00 00 00 00 00 00 00 00 00 00 00 00 ................
00409A30 00 00 00 00 00 00 00 00 00 00 00 00 00 00 00 00 ................
00409A40 00 00 00 00 00 00 00 00 00 00 00 00 00 00 00 00 ................
00409A50 00 00 00 00 00 00 00 00 00 00 00 00 00 00 00 00 ................
00409A60 00 00 00 00 00 00 00 00 00 00 00 00 00 00 00 00 ................
00409A70 00 00 00 00 00 00 00 00 00 00 00 00 00 00 00 00 ................
00409A80 00 00 00 00 00 00 00 00 00 00 00 00 00 00 00 00 ................
00409A90 00 00 00 00 00 00 00 00 00 00 00 00 00 00 00 00 ................
00409AA0 00 00 00 00 00 00 00 00 00 00 00 00 00 00 00 00 ................
00409AB0 00 00 00 00 00 00 00 00 00 00 00 00 00 00 00 00 ................
00409AC0 00 00 00 00 00 00 00 00 00 00 00 00 00 00 00 00 ................
00409AD0 00 00 00 00 00 00 00 00 00 00 00 00 00 00 00 00 ................
00409AE0 00 00 00 00 00 00 00 00 00 00 00 00 00 00 00 00 ................
00409AF0 00 00 00 00 00 00 00 00 00 00 00 00 00 00 00 00 ................
00409B00 00 00 00 00 00 00 00 00 00 00 00 00 00 00 00 00 ................
00409B10 00 00 00 00 00 00 00 00 00 00 00 00 00 00 00 00 ................
00409B20 00 00 00 00 00 00 00 00 00 00 00 00 00 00 00 00 ................
00409B30 00 00 00 00 00 00 00 00 00 00 00 00 00 00 00 00 ................
00409B40 00 00 00 00 00 00 00 00 00 00 00 00 00 00 00 00 ................
00409B50 00 00 00 00 00 00 00 00 00 00 00 00 00 00 00 00 ................
00409B60 00 00 00 00 00 00 00 00 00 00 00 00 00 00 00 00 ................
00409B70 00 00 00 00 00 00 00 00 00 00 00 00 00 00 00 00 ................
00409B80 00 00 00 00 00 00 00 00 00 00 00 00 00 00 00 00 ................
00409B90 00 00 00 00 00 00 00 00 00 00 00 00 00 00 00 00 ................
00409BA0 00 00 00 00 00 00 00 00 00 00 00 00 00 00 00 00 ................
00409BB0 00 00 00 00 00 00 00 00 00 00 00 00 00 00 00 00 ................
00409BC0 00 00 00 00 00 00 00 00 00 00 00 00 00 00 00 00 ................
00409BD0 00 00 00 00 00 00 00 00 00 00 00 00 00 00 00 00 ................
00409BE0 00 00 00 00 00 00 00 00 00 00 00 00 00 00 00 00 ................
00409BF0 00 00 00 00 00 00 00 00 00 00 00 00 00 00 00 00 ................
00409C00 00 00 00 00 00 00 00 00 00 00 00 00 00 00 00 00 ................
00409C10 00 00 00 00 00 00 00 00 00 00 00 00 00 00 00 00 ................
00409C20 00 00 00 00 00 00 00 00 00 00 00 00 00 00 00 00 ................
00409C30 00 00 00 00 00 00 00 00 00 00 00 00 00 00 00 00 ................
00409C40 00 00 00 00 00 00 00 00 00 00 00 00 00 00 00 00 ................
00409C50 00 00 00 00 00 00 00 00 00 00 00 00 00 00 00 00 ................
00409C60 00 00 00 00 00 00 00 00 00 00 00 00 00 00 00 00 ................
00409C70 00 00 00 00 00 00 00 00 00 00 00 00 00 00 00 00 ................
00409C80 00 00 00 00 00 00 00 00 00 00 00 00 00 00 00 00 ................
00409C90 00 00 00 00 00 00 00 00 00 00 00 00 00 00 00 00 ................
00409CA0 00 00 00 00 00 00 00 00 00 00 00 00 00 00 00 00 ................
00409CB0 00 00 00 00 00 00 00 00 00 00 00 00 00 00 00 00 ................
00409CC0 00 00 00 00 00 00 00 00 00 00 00 00 00 00 00 00 ................
00409CD0 00 00 00 00 00 00 00 00 00 00 00 00 00 00 00 00 ................
00409CE0 00 00 00 00 00 00 00 00 00 00 00 00 00 00 00 00 ................
00409CF0 00 00 00 00 00 00 00 00 00 00 00 00 00 00 00 00 ................
00409D00 00 00 00 00 00 00 00 00 00 00 00 00 00 00 00 00 ................
00409D10 00 00 00 00 00 00 00 00 00 00 00 00 00 00 00 00 ................
00409D20 00 00 00 00 00 00 00 00 00 00 00 00 00 00 00 00 ................
00409D30 00 00 00 00 00 00 00 00 00 00 00 00 00 00 00 00 ................
00409D40 00 00 00 00 00 00 00 00 00 00 00 00 00 00 00 00 ................
00409D50 00 00 00 00 00 00 00 00 00 00 00 00 00 00 00 00 ................
00409D60 00 00 00 00 00 00 00 00 00 00 00 00 00 00 00 00 ................
00409D70 00 00 00 00 00 00 00 00 00 00 00 00 00 00 00 00 ................
00409D80 00 00 00 00 00 00 00 00 00 00 00 00 00 00 00 00 ................
00409D90 00 00 00 00 00 00 00 00 00 00 00 00 00 00 00 00 ................
00409DA0 00 00 00 00 00 00 00 00 00 00 00 00 00 00 00 00 ................
00409DB0 00 00 00 00 00 00 00 00 00 00 00 00 00 00 00 00 ................
00409DC0 00 00 00 00 00 00 00 00 00 00 00 00 00 00 00 00 ................
00409DD0 00 00 00 00 00 00 00 00 00 00 00 00 00 00 00 00 ................
00409DE0 00 00 00 00 00 00 00 00 00 00 00 00 00 00 00 00 ................
00409DF0 00 00 00 00 00 00 00 00 00 00 00 00 00 00 00 00 ................
00409E00 00 00 00 00 00 00 00 00 00 00 00 00 00 00 00 00 ................
00409E10 00 00 00 00 00 00 00 00 00 00 00 00 00 00 00 00 ................
00409E20 00 00 00 00 00 00 00 00 00 00 00 00 00 00 00 00 ................
00409E30 00 00 00 00 00 00 00 00 00 00 00 00 00 00 00 00 ................
00409E40 00 00 00 00 00 00 00 00 00 00 00 00 00 00 00 00 ................
00409E50 00 00 00 00 00 00 00 00 00 00 00 00 00 00 00 00 ................
00409E60 00 00 00 00 00 00 00 00 00 00 00 00 00 00 00 00 ................
00409E70 00 00 00 00 00 00 00 00 00 00 00 00 00 00 00 00 ................
00409E80 00 00 00 00 00 00 00 00 00 00 00 00 00 00 00 00 ................
00409E90 00 00 00 00 00 00 00 00 00 00 00 00 00 00 00 00 ................
00409EA0 00 00 00 00 00 00 00 00 00 00 00 00 00 00 00 00 ................
00409EB0 00 00 00 00 00 00 00 00 00 00 00 00 00 00 00 00 ................
00409EC0 00 00 00 00 00 00 00 00 00 00 00 00 00 00 00 00 ................
00409ED0 00 00 00 00 00 00 00 00 00 00 00 00 00 00 00 00 ................
00409EE0 00 00 00 00 00 00 00 00 00 00 00 00 00 00 00 00 ................
00409EF0 00 00 00 00 00 00 00 00 00 00 00 00 00 00 00 00 ................
00409F00 00 00 00 00 00 00 00 00 00 00 00 00 00 00 00 00 ................
00409F10 00 00 00 00 00 00 00 00 00 00 00 00 00 00 00 00 ................
00409F20 00 00 00 00 00 00 00 00 00 00 00 00 00 00 00 00 ................
00409F30 00 00 00 00 00 00 00 00 00 00 00 00 00 00 00 00 ................
00409F40 00 00 00 00 00 00 00 00 00 00 00 00 00 00 00 00 ................
00409F50 00 00 00 00 00 00 00 00 00 00 00 00 00 00 00 00 ................
00409F60 00 00 00 00 00 00 00 00 00 00 00 00 00 00 00 00 ................
00409F70 00 00 00 00 00 00 00 00 00 00 00 00 00 00 00 00 ................
00409F80 00 00 00 00 00 00 00 00 00 00 00 00 00 00 00 00 ................
00409F90 00 00 00 00 00 00 00 00 00 00 00 00 00 00 00 00 ................
00409FA0 00 00 00 00 00 00 00 00 00 00 00 00 00 00 00 00 ................
00409FB0 00 00 00 00 00 00 00 00 00 00 00 00 00 00 00 00 ................
00409FC0 00 00 00 00 00 00 00 00 00 00 00 00 00 00 00 00 ................
00409FD0 00 00 00 00 00 00 00 00 00 00 00 00 00 00 00 00 ................
00409FE0 00 00 00 00 00 00 00 00 00 00 00 00 00 00 00 00 ................
00409FF0 00 00 00 00 00 00 00 00 00 00 00 00 00 00 00 00 ................
0040A000 00 00 00 00 00 00 00 00 00 00 00 00 00 00 00 00 ................
0040A010 00 00 00 00 00 00 00 00 00 00 00 00 00 00 00 00 ................
0040A020 00 00 00 00 00 00 00 00 00 00 00 00 00 00 00 00 ................
0040A030 00 00 00 00 00 00 00 00 00 00 00 00 00 00 00 00 ................
0040A040 00 00 00 00 00 00 00 00 00 00 00 00 00 00 00 00 ................
0040A050 00 00 00 00 00 00 00 00 00 00 00 00 00 00 00 00 ................
0040A060 00 00 00 00 00 00 00 00 00 00 00 00 00 00 00 00 ................
0040A070 00 00 00 00 00 00 00 00 00 00 00 00 00 00 00 00 ................
0040A080 00 00 00 00 00 00 00 00 00 00 00 00 00 00 00 00 ................
0040A090 00 00 00 00 00 00 00 00 00 00 00 00 00 00 00 00 ................
0040A0A0 00 00 00 00 00 00 00 00 00 00 00 00 00 00 00 00 ................
0040A0B0 00 00 00 00 00 00 00 00 00 00 00 00 00 00 00 00 ................
0040A0C0 00 00 00 00 00 00 00 00 00 00 00 00 00 00 00 00 ................
0040A0D0 00 00 00 00 00 00 00 00 00 00 00 00 00 00 00 00 ................
0040A0E0 00 00 00 00 00 00 00 00 00 00 00 00 00 00 00 00 ................
0040A0F0 00 00 00 00 00 00 00 00 00 00 00 00 00 00 00 00 ................
0040A100 00 00 00 00 00 00 00 00 00 00 00 00 00 00 00 00 ................
0040A110 00 00 00 00 00 00 00 00 00 00 00 00 00 00 00 00 ................
0040A120 00 00 00 00 00 00 00 00 00 00 00 00 00 00 00 00 ................
0040A130 00 00 00 00 00 00 00 00 00 00 00 00 00 00 00 00 ................
0040A140 00 00 00 00 00 00 00 00 00 00 00 00 00 00 00 00 ................
0040A150 00 00 00 00 00 00 00 00 00 00 00 00 00 00 00 00 ................
0040A160 00 00 00 00 00 00 00 00 00 00 00 00 00 00 00 00 ................
0040A170 00 00 00 00 00 00 00 00 00 00 00 00 00 00 00 00 ................
0040A180 00 00 00 00 00 00 00 00 00 00 00 00 00 00 00 00 ................
0040A190 00 00 00 00 00 00 00 00 00 00 00 00 00 00 00 00 ................
0040A1A0 00 00 00 00 00 00 00 00 00 00 00 00 00 00 00 00 ................
0040A1B0 00 00 00 00 00 00 00 00 00 00 00 00 00 00 00 00 ................
0040A1C0 00 00 00 00 00 00 00 00 00 00 00 00 00 00 00 00 ................
0040A1D0 00 00 00 00 00 00 00 00 00 00 00 00 00 00 00 00 ................
0040A1E0 00 00 00 00 00 00 00 00 00 00 00 00 00 00 00 00 ................
0040A1F0 00 00 00 00 00 00 00 00 00 00 00 00 00 00 00 00 ................
0040A200 00 00 00 00 00 00 00 00 00 00 00 00 00 00 00 00 ................
0040A210 00 00 00 00 00 00 00 00 00 00 00 00 00 00 00 00 ................
0040A220 00 00 00 00 00 00 00 00 00 00 00 00 00 00 00 00 ................
0040A230 00 00 00 00 00 00 00 00 00 00 00 00 00 00 00 00 ................
0040A240 00 00 00 00 00 00 00 00 00 00 00 00 00 00 00 00 ................
0040A250 00 00 00 00 00 00 00 00 00 00 00 00 00 00 00 00 ................
0040A260 00 00 00 00 00 00 00 00 00 00 00 00 00 00 00 00 ................
0040A270 00 00 00 00 00 00 00 00 00 00 00 00 00 00 00 00 ................
0040A280 00 00 00 00 00 00 00 00 00 00 00 00 00 00 00 00 ................
0040A290 00 00 00 00 00 00 00 00 00 00 00 00 00 00 00 00 ................
0040A2A0 00 00 00 00 00 00 00 00 00 00 00 00 00 00 00 00 ................
0040A2B0 00 00 00 00 00 00 00 00 00 00 00 00 00 00 00 00 ................
0040A2C0 00 00 00 00 00 00 00 00 00 00 00 00 00 00 00 00 ................
0040A2D0 00 00 00 00 00 00 00 00 00 00 00 00 00 00 00 00 ................
0040A2E0 00 00 00 00 00 00 00 00 00 00 00 00 00 00 00 00 ................
0040A2F0 00 00 00 00 00 00 00 00 00 00 00 00 00 00 00 00 ................
0040A300 00 00 00 00 00 00 00 00 00 00 00 00 00 00 00 00 ................
0040A310 00 00 00 00 00 00 00 00 00 00 00 00 00 00 00 00 ................
0040A320 00 00 00 00 00 00 00 00 00 00 00 00 00 00 00 00 ................
0040A330 00 00 00 00 00 00 00 00 00 00 00 00 00 00 00 00 ................
0040A340 00 00 00 00 00 00 00 00 00 00 00 00 00 00 00 00 ................
0040A350 00 00 00 00 00 00 00 00 00 00 00 00 00 00 00 00 ................
0040A360 00 00 00 00 00 00 00 00 00 00 00 00 00 00 00 00 ................
0040A370 00 00 00 00 00 00 00 00 00 00 00 00 00 00 00 00 ................
0040A380 00 00 00 00 00 00 00 00 00 00 00 00 00 00 00 00 ................
0040A390 00 00 00 00 00 00 00 00 00 00 00 00 00 00 00 00 ................
0040A3A0 00 00 00 00 00 00 00 00 00 00 00 00 00 00 00 00 ................
0040A3B0 00 00 00 00 00 00 00 00 00 00 00 00 00 00 00 00 ................
0040A3C0 00 00 00 00 00 00 00 00 00 00 00 00 00 00 00 00 ................
0040A3D0 00 00 00 00 00 00 00 00 00 00 00 00 00 00 00 00 ................
0040A3E0 00 00 00 00 00 00 00 00 00 00 00 00 00 00 00 00 ................
0040A3F0 00 00 00 00 00 00 00 00 00 00 00 00 00 00 00 00 ................
0040A400 00 00 00 00 00 00 00 00 00 00 00 00 00 00 00 00 ................
0040A410 00 00 00 00 00 00 00 00 00 00 00 00 00 00 00 00 ................
0040A420 00 00 00 00 00 00 00 00 00 00 00 00 00 00 00 00 ................
0040A430 00 00 00 00 00 00 00 00 00 00 00 00 00 00 00 00 ................
0040A440 00 00 00 00 00 00 00 00 00 00 00 00 00 00 00 00 ................
0040A450 00 00 00 00 00 00 00 00 00 00 00 00 00 00 00 00 ................
0040A460 00 00 00 00 00 00 00 00 00 00 00 00 00 00 00 00 ................
0040A470 00 00 00 00 00 00 00 00 00 00 00 00 00 00 00 00 ................
0040A480 00 00 00 00 00 00 00 00 00 00 00 00 00 00 00 00 ................
0040A490 00 00 00 00 00 00 00 00 00 00 00 00 00 00 00 00 ................
0040A4A0 00 00 00 00 00 00 00 00 00 00 00 00 00 00 00 00 ................
0040A4B0 00 00 00 00 00 00 00 00 00 00 00 00 00 00 00 00 ................
0040A4C0 00 00 00 00 00 00 00 00 00 00 00 00 00 00 00 00 ................
0040A4D0 00 00 00 00 00 00 00 00 00 00 00 00 00 00 00 00 ................
0040A4E0 00 00 00 00 00 00 00 00 00 00 00 00 00 00 00 00 ................
0040A4F0 00 00 00 00 00 00 00 00 00 00 00 00 00 00 00 00 ................
0040A500 00 00 00 00 00 00 00 00 00 00 00 00 00 00 00 00 ................
0040A510 00 00 00 00 00 00 00 00 00 00 00 00 00 00 00 00 ................
0040A520 00 00 00 00 00 00 00 00 00 00 00 00 00 00 00 00 ................
0040A530 00 00 00 00 00 00 00 00 00 00 00 00 00 00 00 00 ................
0040A540 00 00 00 00 00 00 00 00 00 00 00 00 00 00 00 00 ................
0040A550 00 00 00 00 00 00 00 00 00 00 00 00 00 00 00 00 ................
0040A560 00 00 00 00 00 00 00 00 00 00 00 00 00 00 00 00 ................
0040A570 00 00 00 00 00 00 00 00 00 00 00 00 00 00 00 00 ................
0040A580 00 00 00 00 00 00 00 00 00 00 00 00 00 00 00 00 ................
0040A590 00 00 00 00 00 00 00 00 00 00 00 00 00 00 00 00 ................
0040A5A0 00 00 00 00 00 00 00 00 00 00 00 00 00 00 00 00 ................
0040A5B0 00 00 00 00 00 00 00 00 00 00 00 00 00 00 00 00 ................
0040A5C0 00 00 00 00 00 00 00 00 00 00 00 00 00 00 00 00 ................
0040A5D0 00 00 00 00 00 00 00 00 00 00 00 00 00 00 00 00 ................
0040A5E0 00 00 00 00 00 00 00 00 00 00 00 00 00 00 00 00 ................
0040A5F0 00 00 00 00 00 00 00 00 00 00 00 00 00 00 00 00 ................
0040A600 00 00 00 00 00 00 00 00 00 00 00 00 00 00 00 00 ................
0040A610 00 00 00 00 00 00 00 00 00 00 00 00 00 00 00 00 ................
0040A620 00 00 00 00 00 00 00 00 00 00 00 00 00 00 00 00 ................
0040A630 00 00 00 00 00 00 00 00 00 00 00 00 00 00 00 00 ................
0040A640 00 00 00 00 00 00 00 00 00 00 00 00 00 00 00 00 ................
0040A650 00 00 00 00 00 00 00 00 00 00 00 00 00 00 00 00 ................
0040A660 00 00 00 00 00 00 00 00 00 00 00 00 00 00 00 00 ................
0040A670 00 00 00 00 00 00 00 00 00 00 00 00 00 00 00 00 ................
0040A680 00 00 00 00 00 00 00 00 00 00 00 00 00 00 00 00 ................
0040A690 00 00 00 00 00 00 00 00 00 00 00 00 00 00 00 00 ................
0040A6A0 00 00 00 00 00 00 00 00 00 00 00 00 00 00 00 00 ................
0040A6B0 00 00 00 00 00 00 00 00 00 00 00 00 00 00 00 00 ................
0040A6C0 00 00 00 00 00 00 00 00 00 00 00 00 00 00 00 00 ................
0040A6D0 00 00 00 00 00 00 00 00 00 00 00 00 00 00 00 00 ................
0040A6E0 00 00 00 00 00 00 00 00 00 00 00 00 00 00 00 00 ................
0040A6F0 00 00 00 00 00 00 00 00 00 00 00 00 00 00 00 00 ................
0040A700 00 00 00 00 00 00 00 00 00 00 00 00 00 00 00 00 ................
0040A710 00 00 00 00 00 00 00 00 00 00 00 00 00 00 00 00 ................
0040A720 00 00 00 00 00 00 00 00 00 00 00 00 00 00 00 00 ................
0040A730 00 00 00 00 00 00 00 00 00 00 00 00 00 00 00 00 ................
0040A740 00 00 00 00 00 00 00 00 00 00 00 00 00 00 00 00 ................
0040A750 00 00 00 00 00 00 00 00 00 00 00 00 00 00 00 00 ................
0040A760 00 00 00 00 00 00 00 00 00 00 00 00 00 00 00 00 ................
0040A770 00 00 00 00 00 00 00 00 00 00 00 00 00 00 00 00 ................
0040A780 00 00 00 00 00 00 00 00 00 00 00 00 00 00 00 00 ................
0040A790 00 00 00 00 00 00 00 00 00 00 00 00 00 00 00 00 ................
0040A7A0 00 00 00 00 00 00 00 00 00 00 00 00 00 00 00 00 ................
0040A7B0 00 00 00 00 00 00 00 00 00 00 00 00 00 00 00 00 ................
0040A7C0 00 00 00 00 00 00 00 00 00 00 00 00 00 00 00 00 ................
0040A7D0 00 00 00 00 00 00 00 00 00 00 00 00 00 00 00 00 ................
0040A7E0 00 00 00 00 00 00 00 00 00 00 00 00 00 00 00 00 ................
0040A7F0 00 00 00 00 00 00 00 00 00 00 00 00 00 00 00 00 ................
0040A800 00 00 00 00 00 00 00 00 00 00 00 00 00 00 00 00 ................
0040A810 00 00 00 00 00 00 00 00 00 00 00 00 00 00 00 00 ................
0040A820 00 00 00 00 00 00 00 00 00 00 00 00 00 00 00 00 ................
0040A830 00 00 00 00 00 00 00 00 00 00 00 00 00 00 00 00 ................
0040A840 00 00 00 00 00 00 00 00 00 00 00 00 00 00 00 00 ................
0040A850 00 00 00 00 00 00 00 00 00 00 00 00 00 00 00 00 ................
0040A860 00 00 00 00 00 00 00 00 00 00 00 00 00 00 00 00 ................
0040A870 00 00 00 00 00 00 00 00 00 00 00 00 00 00 00 00 ................
0040A880 00 00 00 00 00 00 00 00 00 00 00 00 00 00 00 00 ................
0040A890 00 00 00 00 00 00 00 00 00 00 00 00 00 00 00 00 ................
0040A8A0 00 00 00 00 00 00 00 00 00 00 00 00 00 00 00 00 ................
0040A8B0 00 00 00 00 00 00 00 00 00 00 00 00 00 00 00 00 ................
0040A8C0 00 00 00 00 00 00 00 00 00 00 00 00 00 00 00 00 ................
0040A8D0 00 00 00 00 00 00 00 00 00 00 00 00 00 00 00 00 ................
0040A8E0 00 00 00 00 00 00 00 00 00 00 00 00 00 00 00 00 ................
0040A8F0 00 00 00 00 00 00 00 00 00 00 00 00 00 00 00 00 ................
0040A900 00 00 00 00 00 00 00 00 00 00 00 00 00 00 00 00 ................
0040A910 00 00 00 00 00 00 00 00 00 00 00 00 00 00 00 00 ................
0040A920 00 00 00 00 00 00 00 00 00 00 00 00 00 00 00 00 ................
0040A930 00 00 00 00 00 00 00 00 00 00 00 00 00 00 00 00 ................
0040A940 00 00 00 00 00 00 00 00 00 00 00 00 00 00 00 00 ................
0040A950 00 00 00 00 00 00 00 00 00 00 00 00 00 00 00 00 ................
0040A960 00 00 00 00 00 00 00 00 00 00 00 00 00 00 00 00 ................
0040A970 00 00 00 00 00 00 00 00 00 00 00 00 00 00 00 00 ................
0040A980 00 00 00 00 00 00 00 00 00 00 00 00 00 00 00 00 ................
0040A990 00 00 00 00 00 00 00 00 00 00 00 00 00 00 00 00 ................
0040A9A0 00 00 00 00 00 00 00 00 00 00 00 00 00 00 00 00 ................
0040A9B0 00 00 00 00 00 00 00 00 00 00 00 00 00 00 00 00 ................
0040A9C0 00 00 00 00 00 00 00 00 00 00 00 00 00 00 00 00 ................
0040A9D0 00 00 00 00 00 00 00 00 00 00 00 00 00 00 00 00 ................
0040A9E0 00 00 00 00 00 00 00 00 00 00 00 00 00 00 00 00 ................
0040A9F0 00 00 00 00 00 00 00 00 00 00 00 00 00 00 00 00 ................
0040AA00 00 00 00 00 00 00 00 00 00 00 00 00 00 00 00 00 ................
0040AA10 00 00 00 00 00 00 00 00 00 00 00 00 00 00 00 00 ................
0040AA20 00 00 00 00 00 00 00 00 00 00 00 00 00 00 00 00 ................
0040AA30 00 00 00 00 00 00 00 00 00 00 00 00 00 00 00 00 ................
0040AA40 00 00 00 00 00 00 00 00 00 00 00 00 00 00 00 00 ................
0040AA50 00 00 00 00 00 00 00 00 00 00 00 00 00 00 00 00 ................
0040AA60 00 00 00 00 00 00 00 00 00 00 00 00 00 00 00 00 ................
0040AA70 00 00 00 00 00 00 00 00 00 00 00 00 00 00 00 00 ................
0040AA80 00 00 00 00 00 00 00 00 00 00 00 00 00 00 00 00 ................
0040AA90 00 00 00 00 00 00 00 00 00 00 00 00 00 00 00 00 ................
0040AAA0 00 00 00 00 00 00 00 00 00 00 00 00 00 00 00 00 ................
0040AAB0 00 00 00 00 00 00 00 00 00 00 00 00 00 00 00 00 ................
0040AAC0 00 00 00 00 00 00 00 00 00 00 00 00 00 00 00 00 ................
0040AAD0 00 00 00 00 00 00 00 00 00 00 00 00 00 00 00 00 ................
0040AAE0 00 00 00 00 00 00 00 00 00 00 00 00 00 00 00 00 ................
0040AAF0 00 00 00 00 00 00 00 00 00 00 00 00 00 00 00 00 ................
0040AB00 00 00 00 00 00 00 00 00 00 00 00 00 00 00 00 00 ................
0040AB10 00 00 00 00 00 00 00 00 00 00 00 00 00 00 00 00 ................
0040AB20 00 00 00 00 00 00 00 00 00 00 00 00 00 00 00 00 ................
0040AB30 00 00 00 00 00 00 00 00 00 00 00 00 00 00 00 00 ................
0040AB40 00 00 00 00 00 00 00 00 00 00 00 00 00 00 00 00 ................
0040AB50 00 00 00 00 00 00 00 00 00 00 00 00 00 00 00 00 ................
0040AB60 00 00 00 00 00 00 00 00 00 00 00 00 00 00 00 00 ................
0040AB70 00 00 00 00 00 00 00 00 00 00 00 00 00 00 00 00 ................
0040AB80 00 00 00 00 00 00 00 00 00 00 00 00 00 00 00 00 ................
0040AB90 00 00 00 00 00 00 00 00 00 00 00 00 00 00 00 00 ................
0040ABA0 00 00 00 00 00 00 00 00 00 00 00 00 00 00 00 00 ................
0040ABB0 00 00 00 00 00 00 00 00 00 00 00 00 00 00 00 00 ................
0040ABC0 00 00 00 00 00 00 00 00 00 00 00 00 00 00 00 00 ................
0040ABD0 00 00 00 00 00 00 00 00 00 00 00 00 00 00 00 00 ................
0040ABE0 00 00 00 00 00 00 00 00 00 00 00 00 00 00 00 00 ................
0040ABF0 00 00 00 00 00 00 00 00 00 00 00 00 00 00 00 00 ................
0040AC00 00 00 00 00 00 00 00 00 00 00 00 00 00 00 00 00 ................
0040AC10 00 00 00 00 00 00 00 00 00 00 00 00 00 00 00 00 ................
0040AC20 00 00 00 00 00 00 00 00 00 00 00 00 00 00 00 00 ................
0040AC30 00 00 00 00 00 00 00 00 00 00 00 00 00 00 00 00 ................
0040AC40 00 00 00 00 00 00 00 00 00 00 00 00 00 00 00 00 ................
0040AC50 00 00 00 00 00 00 00 00 00 00 00 00 00 00 00 00 ................
0040AC60 00 00 00 00 00 00 00 00 00 00 00 00 00 00 00 00 ................
0040AC70 00 00 00 00 00 00 00 00 00 00 00 00 00 00 00 00 ................
0040AC80 00 00 00 00 00 00 00 00 00 00 00 00 00 00 00 00 ................
0040AC90 00 00 00 00 00 00 00 00 00 00 00 00 00 00 00 00 ................
0040ACA0 00 00 00 00 00 00 00 00 00 00 00 00 00 00 00 00 ................
0040ACB0 00 00 00 00 00 00 00 00 00 00 00 00 00 00 00 00 ................
0040ACC0 00 00 00 00 00 00 00 00 00 00 00 00 00 00 00 00 ................
0040ACD0 00 00 00 00 00 00 00 00 00 00 00 00 00 00 00 00 ................
0040ACE0 00 00 00 00 00 00 00 00 00 00 00 00 00 00 00 00 ................
0040ACF0 00 00 00 00 00 00 00 00 00 00 00 00 00 00 00 00 ................
0040AD00 00 00 00 00 00 00 00 00 00 00 00 00 00 00 00 00 ................
0040AD10 00 00 00 00 00 00 00 00 00 00 00 00 00 00 00 00 ................
0040AD20 00 00 00 00 00 00 00 00 00 00 00 00 00 00 00 00 ................
0040AD30 00 00 00 00 00 00 00 00 00 00 00 00 00 00 00 00 ................
0040AD40 00 00 00 00 00 00 00 00 00 00 00 00 00 00 00 00 ................
0040AD50 00 00 00 00 00 00 00 00 00 00 00 00 00 00 00 00 ................
0040AD60 00 00 00 00 00 00 00 00 00 00 00 00 00 00 00 00 ................
0040AD70 00 00 00 00 00 00 00 00 00 00 00 00 00 00 00 00 ................
0040AD80 00 00 00 00 00 00 00 00 00 00 00 00 00 00 00 00 ................
0040AD90 00 00 00 00 00 00 00 00 00 00 00 00 00 00 00 00 ................
0040ADA0 00 00 00 00 00 00 00 00 00 00 00 00 00 00 00 00 ................
0040ADB0 00 00 00 00 00 00 00 00 00 00 00 00 00 00 00 00 ................
0040ADC0 00 00 00 00 00 00 00 00 00 00 00 00 00 00 00 00 ................
0040ADD0 00 00 00 00 00 00 00 00 00 00 00 00 00 00 00 00 ................
0040ADE0 00 00 00 00 00 00 00 00 00 00 00 00 00 00 00 00 ................
0040ADF0 00 00 00 00 00 00 00 00 00 00 00 00 00 00 00 00 ................
0040AE00 00 00 00 00 00 00 00 00 00 00 00 00 00 00 00 00 ................
0040AE10 00 00 00 00 00 00 00 00 00 00 00 00 00 00 00 00 ................
0040AE20 00 00 00 00 00 00 00 00 00 00 00 00 00 00 00 00 ................
0040AE30 00 00 00 00 00 00 00 00 00 00 00 00 00 00 00 00 ................
0040AE40 00 00 00 00 00 00 00 00 00 00 00 00 00 00 00 00 ................
0040AE50 00 00 00 00 00 00 00 00 00 00 00 00 00 00 00 00 ................
0040AE60 00 00 00 00 00 00 00 00 00 00 00 00 00 00 00 00 ................
0040AE70 00 00 00 00 00 00 00 00 00 00 00 00 00 00 00 00 ................
0040AE80 00 00 00 00 00 00 00 00 00 00 00 00 00 00 00 00 ................
0040AE90 00 00 00 00 00 00 00 00 00 00 00 00 00 00 00 00 ................
0040AEA0 00 00 00 00 00 00 00 00 00 00 00 00 00 00 00 00 ................
0040AEB0 00 00 00 00 00 00 00 00 00 00 00 00 00 00 00 00 ................
0040AEC0 00 00 00 00 00 00 00 00 00 00 00 00 00 00 00 00 ................
0040AED0 00 00 00 00 00 00 00 00 00 00 00 00 00 00 00 00 ................
0040AEE0 00 00 00 00 00 00 00 00 00 00 00 00 00 00 00 00 ................
0040AEF0 00 00 00 00 00 00 00 00 00 00 00 00 00 00 00 00 ................
0040AF00 00 00 00 00 00 00 00 00 00 00 00 00 00 00 00 00 ................
0040AF10 00 00 00 00 00 00 00 00 00 00 00 00 00 00 00 00 ................
0040AF20 00 00 00 00 00 00 00 00 00 00 00 00 00 00 00 00 ................
0040AF30 00 00 00 00 00 00 00 00 00 00 00 00 00 00 00 00 ................
0040AF40 00 00 00 00 00 00 00 00 00 00 00 00 00 00 00 00 ................
0040AF50 00 00 00 00 00 00 00 00 00 00 00 00 00 00 00 00 ................
0040AF60 00 00 00 00 00 00 00 00 00 00 00 00 00 00 00 00 ................
0040AF70 00 00 00 00 00 00 00 00 00 00 00 00 00 00 00 00 ................
0040AF80 00 00 00 00 00 00 00 00 00 00 00 00 00 00 00 00 ................
0040AF90 00 00 00 00 00 00 00 00 00 00 00 00 00 00 00 00 ................
0040AFA0 00 00 00 00 00 00 00 00 00 00 00 00 00 00 00 00 ................
0040AFB0 00 00 00 00 00 00 00 00 00 00 00 00 00 00 00 00 ................
0040AFC0 00 00 00 00 00 00 00 00 00 00 00 00 00 00 00 00 ................
0040AFD0 00 00 00 00 00 00 00 00 00 00 00 00 00 00 00 00 ................
0040AFE0 00 00 00 00 00 00 00 00 00 00 00 00 00 00 00 00 ................
0040AFF0 00 00 00 00 00 00 00 00 00 00 00 00 00 00 00 00 ................
0040B000 00 00 00 00 00 00 00 00 00 00 00 00 00 00 00 00 ................
0040B010 00 00 00 00 00 00 00 00 00 00 00 00 00 00 00 00 ................
0040B020 00 00 00 00 00 00 00 00 00 00 00 00 00 00 00 00 ................
0040B030 00 00 00 00 00 00 00 00 00 00 00 00 00 00 00 00 ................
0040B040 00 00 00 00 00 00 00 00 00 00 00 00 00 00 00 00 ................
0040B050 00 00 00 00 00 00 00 00 00 00 00 00 00 00 00 00 ................
0040B060 00 00 00 00 00 00 00 00 00 00 00 00 00 00 00 00 ................
0040B070 00 00 00 00 00 00 00 00 00 00 00 00 00 00 00 00 ................
0040B080 00 00 00 00 00 00 00 00 00 00 00 00 00 00 00 00 ................
0040B090 00 00 00 00 00 00 00 00 00 00 00 00 00 00 00 00 ................
0040B0A0 00 00 00 00 00 00 00 00 00 00 00 00 00 00 00 00 ................
0040B0B0 00 00 00 00 00 00 00 00 00 00 00 00 00 00 00 00 ................
0040B0C0 00 00 00 00 00 00 00 00 00 00 00 00 00 00 00 00 ................
0040B0D0 00 00 00 00 00 00 00 00 00 00 00 00 00 00 00 00 ................
0040B0E0 00 00 00 00 00 00 00 00 00 00 00 00 00 00 00 00 ................
0040B0F0 00 00 00 00 00 00 00 00 00 00 00 00 00 00 00 00 ................
0040B100 00 00 00 00 00 00 00 00 00 00 00 00 00 00 00 00 ................
0040B110 00 00 00 00 00 00 00 00 00 00 00 00 00 00 00 00 ................
0040B120 00 00 00 00 00 00 00 00 00 00 00 00 00 00 00 00 ................
0040B130 00 00 00 00 00 00 00 00 00 00 00 00 00 00 00 00 ................
0040B140 00 00 00 00 00 00 00 00 00 00 00 00 00 00 00 00 ................
0040B150 00 00 00 00 00 00 00 00 00 00 00 00 00 00 00 00 ................
0040B160 00 00 00 00 00 00 00 00 00 00 00 00 00 00 00 00 ................
0040B170 00 00 00 00 00 00 00 00 00 00 00 00 00 00 00 00 ................
0040B180 00 00 00 00 00 00 00 00 00 00 00 00 00 00 00 00 ................
0040B190 00 00 00 00 00 00 00 00 00 00 00 00 00 00 00 00 ................
0040B1A0 00 00 00 00 00 00 00 00 00 00 00 00 00 00 00 00 ................
0040B1B0 00 00 00 00 00 00 00 00 00 00 00 00 00 00 00 00 ................
0040B1C0 00 00 00 00 00 00 00 00 00 00 00 00 00 00 00 00 ................
0040B1D0 00 00 00 00 00 00 00 00 00 00 00 00 00 00 00 00 ................
0040B1E0 00 00 00 00 00 00 00 00 00 00 00 00 00 00 00 00 ................
0040B1F0 00 00 00 00 00 00 00 00 00 00 00 00 00 00 00 00 ................
0040B200 00 00 00 00 00 00 00 00 00 00 00 00 00 00 00 00 ................
0040B210 00 00 00 00 00 00 00 00 00 00 00 00 00 00 00 00 ................
0040B220 00 00 00 00 00 00 00 00 00 00 00 00 00 00 00 00 ................
0040B230 00 00 00 00 00 00 00 00 00 00 00 00 00 00 00 00 ................
0040B240 00 00 00 00 00 00 00 00 00 00 00 00 00 00 00 00 ................
0040B250 00 00 00 00 00 00 00 00 00 00 00 00 00 00 00 00 ................
0040B260 00 00 00 00 00 00 00 00 00 00 00 00 00 00 00 00 ................
0040B270 00 00 00 00 00 00 00 00 00 00 00 00 00 00 00 00 ................
0040B280 00 00 00 00 00 00 00 00 00 00 00 00 00 00 00 00 ................
0040B290 00 00 00 00 00 00 00 00 00 00 00 00 00 00 00 00 ................
0040B2A0 00 00 00 00 00 00 00 00 00 00 00 00 00 00 00 00 ................
0040B2B0 00 00 00 00 00 00 00 00 00 00 00 00 00 00 00 00 ................
0040B2C0 00 00 00 00 00 00 00 00 00 00 00 00 00 00 00 00 ................
0040B2D0 00 00 00 00 00 00 00 00 00 00 00 00 00 00 00 00 ................
0040B2E0 00 00 00 00 00 00 00 00 00 00 00 00 00 00 00 00 ................
0040B2F0 00 00 00 00 00 00 00 00 00 00 00 00 00 00 00 00 ................
0040B300 00 00 00 00 00 00 00 00 00 00 00 00 00 00 00 00 ................
0040B310 00 00 00 00 00 00 00 00 00 00 00 00 00 00 00 00 ................
0040B320 00 00 00 00 00 00 00 00 00 00 00 00 00 00 00 00 ................
0040B330 00 00 00 00 00 00 00 00 00 00 00 00 00 00 00 00 ................
0040B340 00 00 00 00 00 00 00 00 00 00 00 00 00 00 00 00 ................
0040B350 00 00 00 00 00 00 00 00 00 00 00 00 00 00 00 00 ................
0040B360 00 00 00 00 00 00 00 00 00 00 00 00 00 00 00 00 ................
0040B370 00 00 00 00 00 00 00 00 00 00 00 00 00 00 00 00 ................
0040B380 00 00 00 00 00 00 00 00 00 00 00 00 00 00 00 00 ................
0040B390 00 00 00 00 00 00 00 00 00 00 00 00 00 00 00 00 ................
0040B3A0 00 00 00 00 00 00 00 00 00 00 00 00 00 00 00 00 ................
0040B3B0 00 00 00 00 00 00 00 00 00 00 00 00 00 00 00 00 ................
0040B3C0 00 00 00 00 00 00 00 00 00 00 00 00 00 00 00 00 ................
0040B3D0 00 00 00 00 00 00 00 00 00 00 00 00 00 00 00 00 ................
0040B3E0 00 00 00 00 00 00 00 00 00 00 00 00 00 00 00 00 ................
0040B3F0 00 00 00 00 00 00 00 00 00 00 00 00 00 00 00 00 ................
0040B400 00 00 00 00 00 00 00 00 00 00 00 00 00 00 00 00 ................
0040B410 00 00 00 00 00 00 00 00 00 00 00 00 00 00 00 00 ................
0040B420 00 00 00 00 00 00 00 00 00 00 00 00 00 00 00 00 ................
0040B430 00 00 00 00 00 00 00 00 00 00 00 00 00 00 00 00 ................
0040B440 00 00 00 00 00 00 00 00 00 00 00 00 00 00 00 00 ................
0040B450 00 00 00 00 00 00 00 00 00 00 00 00 00 00 00 00 ................
0040B460 00 00 00 00 00 00 00 00 00 00 00 00 00 00 00 00 ................
0040B470 00 00 00 00 00 00 00 00 00 00 00 00 00 00 00 00 ................
0040B480 00 00 00 00 00 00 00 00 00 00 00 00 00 00 00 00 ................
0040B490 00 00 00 00 00 00 00 00 00 00 00 00 00 00 00 00 ................
0040B4A0 00 00 00 00 00 00 00 00 00 00 00 00 00 00 00 00 ................
0040B4B0 00 00 00 00 00 00 00 00 00 00 00 00 00 00 00 00 ................
0040B4C0 00 00 00 00 00 00 00 00 00 00 00 00 00 00 00 00 ................
0040B4D0 00 00 00 00 00 00 00 00 00 00 00 00 00 00 00 00 ................
0040B4E0 00 00 00 00 00 00 00 00 00 00 00 00 00 00 00 00 ................
0040B4F0 00 00 00 00 00 00 00 00 00 00 00 00 00 00 00 00 ................
0040B500 00 00 00 00 00 00 00 00 00 00 00 00 00 00 00 00 ................
0040B510 00 00 00 00 00 00 00 00 00 00 00 00 00 00 00 00 ................
0040B520 00 00 00 00 00 00 00 00 00 00 00 00 00 00 00 00 ................
0040B530 00 00 00 00 00 00 00 00 00 00 00 00 00 00 00 00 ................
0040B540 00 00 00 00 00 00 00 00 00 00 00 00 00 00 00 00 ................
0040B550 00 00 00 00 00 00 00 00 00 00 00 00 00 00 00 00 ................
0040B560 00 00 00 00 00 00 00 00 00 00 00 00 00 00 00 00 ................
0040B570 00 00 00 00 00 00 00 00 00 00 00 00 00 00 00 00 ................
0040B580 00 00 00 00 00 00 00 00 00 00 00 00 00 00 00 00 ................
0040B590 00 00 00 00 00 00 00 00 00 00 00 00 00 00 00 00 ................
0040B5A0 00 00 00 00 00 00 00 00 00 00 00 00 00 00 00 00 ................
0040B5B0 00 00 00 00 00 00 00 00 00 00 00 00 00 00 00 00 ................
0040B5C0 00 00 00 00 00 00 00 00 00 00 00 00 00 00 00 00 ................
0040B5D0 00 00 00 00 00 00 00 00 00 00 00 00 00 00 00 00 ................
0040B5E0 00 00 00 00 00 00 00 00 00 00 00 00 00 00 00 00 ................
0040B5F0 00 00 00 00 00 00 00 00 00 00 00 00 00 00 00 00 ................
0040B600 00 00 00 00 00 00 00 00 00 00 00 00 00 00 00 00 ................
0040B610 00 00 00 00 00 00 00 00 00 00 00 00 00 00 00 00 ................
0040B620 00 00 00 00 00 00 00 00 00 00 00 00 00 00 00 00 ................
0040B630 00 00 00 00 00 00 00 00 00 00 00 00 00 00 00 00 ................
0040B640 00 00 00 00 00 00 00 00 00 00 00 00 00 00 00 00 ................
0040B650 00 00 00 00 00 00 00 00 00 00 00 00 00 00 00 00 ................
0040B660 00 00 00 00 00 00 00 00 00 00 00 00 00 00 00 00 ................
0040B670 00 00 00 00 00 00 00 00 00 00 00 00 00 00 00 00 ................
0040B680 00 00 00 00 00 00 00 00 00 00 00 00 00 00 00 00 ................
0040B690 00 00 00 00 00 00 00 00 00 00 00 00 00 00 00 00 ................
0040B6A0 00 00 00 00 00 00 00 00 00 00 00 00 00 00 00 00 ................
0040B6B0 00 00 00 00 00 00 00 00 00 00 00 00 00 00 00 00 ................
0040B6C0 00 00 00 00 00 00 00 00 00 00 00 00 00 00 00 00 ................
0040B6D0 00 00 00 00 00 00 00 00 00 00 00 00 00 00 00 00 ................
0040B6E0 00 00 00 00 00 00 00 00 00 00 00 00 00 00 00 00 ................
0040B6F0 00 00 00 00 00 00 00 00 00 00 00 00 00 00 00 00 ................
0040B700 00 00 00 00 00 00 00 00 00 00 00 00 00 00 00 00 ................
0040B710 00 00 00 00 00 00 00 00 00 00 00 00 00 00 00 00 ................
0040B720 00 00 00 00 00 00 00 00 00 00 00 00 00 00 00 00 ................
0040B730 00 00 00 00 00 00 00 00 00 00 00 00 00 00 00 00 ................
0040B740 00 00 00 00 00 00 00 00 00 00 00 00 00 00 00 00 ................
0040B750 00 00 00 00 00 00 00 00 00 00 00 00 00 00 00 00 ................
0040B760 00 00 00 00 00 00 00 00 00 00 00 00 00 00 00 00 ................
0040B770 00 00 00 00 00 00 00 00 00 00 00 00 00 00 00 00 ................
0040B780 00 00 00 00 00 00 00 00 00 00 00 00 00 00 00 00 ................
0040B790 00 00 00 00 00 00 00 00 00 00 00 00 00 00 00 00 ................
0040B7A0 00 00 00 00 00 00 00 00 00 00 00 00 00 00 00 00 ................
0040B7B0 00 00 00 00 00 00 00 00 00 00 00 00 00 00 00 00 ................
0040B7C0 00 00 00 00 00 00 00 00 00 00 00 00 00 00 00 00 ................
0040B7D0 00 00 00 00 00 00 00 00 00 00 00 00 00 00 00 00 ................
0040B7E0 00 00 00 00 00 00 00 00 00 00 00 00 00 00 00 00 ................
0040B7F0 00 00 00 00 00 00 00 00 00 00 00 00 00 00 00 00 ................
0040B800 00 00 00 00 00 00 00 00 00 00 00 00 00 00 00 00 ................
0040B810 00 00 00 00 00 00 00 00 00 00 00 00 00 00 00 00 ................
0040B820 00 00 00 00 00 00 00 00 00 00 00 00 00 00 00 00 ................
0040B830 00 00 00 00 00 00 00 00 00 00 00 00 00 00 00 00 ................
0040B840 00 00 00 00 00 00 00 00 00 00 00 00 00 00 00 00 ................
0040B850 00 00 00 00 00 00 00 00 00 00 00 00 00 00 00 00 ................
0040B860 00 00 00 00 00 00 00 00 00 00 00 00 00 00 00 00 ................
0040B870 00 00 00 00 00 00 00 00 00 00 00 00 00 00 00 00 ................
0040B880 00 00 00 00 00 00 00 00 00 00 00 00 00 00 00 00 ................
0040B890 00 00 00 00 00 00 00 00 00 00 00 00 00 00 00 00 ................
0040B8A0 00 00 00 00 00 00 00 00 00 00 00 00 00 00 00 00 ................
0040B8B0 00 00 00 00 00 00 00 00 00 00 00 00 00 00 00 00 ................
0040B8C0 00 00 00 00 00 00 00 00 00 00 00 00 00 00 00 00 ................
0040B8D0 00 00 00 00 00 00 00 00 00 00 00 00 00 00 00 00 ................
0040B8E0 00 00 00 00 00 00 00 00 00 00 00 00 00 00 00 00 ................
0040B8F0 00 00 00 00 00 00 00 00 00 00 00 00 00 00 00 00 ................
0040B900 00 00 00 00 00 00 00 00 00 00 00 00 00 00 00 00 ................
0040B910 00 00 00 00 00 00 00 00 00 00 00 00 00 00 00 00 ................
0040B920 00 00 00 00 00 00 00 00 00 00 00 00 00 00 00 00 ................
0040B930 00 00 00 00 00 00 00 00 00 00 00 00 00 00 00 00 ................
0040B940 00 00 00 00 00 00 00 00 00 00 00 00 00 00 00 00 ................
0040B950 00 00 00 00 00 00 00 00 00 00 00 00 00 00 00 00 ................
0040B960 00 00 00 00 00 00 00 00 00 00 00 00 00 00 00 00 ................
0040B970 00 00 00 00 00 00 00 00 00 00 00 00 00 00 00 00 ................
0040B980 00 00 00 00 00 00 00 00 00 00 00 00 00 00 00 00 ................
0040B990 00 00 00 00 00 00 00 00 00 00 00 00 00 00 00 00 ................
0040B9A0 00 00 00 00 00 00 00 00 00 00 00 00 00 00 00 00 ................
0040B9B0 00 00 00 00 00 00 00 00 00 00 00 00 00 00 00 00 ................
0040B9C0 00 00 00 00 00 00 00 00 00 00 00 00 00 00 00 00 ................
0040B9D0 00 00 00 00 00 00 00 00 00 00 00 00 00 00 00 00 ................
0040B9E0 00 00 00 00 00 00 00 00 00 00 00 00 00 00 00 00 ................
0040B9F0 00 00 00 00 00 00 00 00 00 00 00 00 00 00 00 00 ................
0040BA00 00 00 00 00 00 00 00 00 00 00 00 00 00 00 00 00 ................
0040BA10 00 00 00 00 00 00 00 00 00 00 00 00 00 00 00 00 ................
0040BA20 00 00 00 00 00 00 00 00 00 00 00 00 00 00 00 00 ................
0040BA30 00 00 00 00 00 00 00 00 00 00 00 00 00 00 00 00 ................
0040BA40 00 00 00 00 00 00 00 00 00 00 00 00 00 00 00 00 ................
0040BA50 00 00 00 00 00 00 00 00 00 00 00 00 00 00 00 00 ................
0040BA60 00 00 00 00 00 00 00 00 00 00 00 00 00 00 00 00 ................
0040BA70 00 00 00 00 00 00 00 00 00 00 00 00 00 00 00 00 ................
0040BA80 00 00 00 00 00 00 00 00 00 00 00 00 00 00 00 00 ................
0040BA90 00 00 00 00 00 00 00 00 00 00 00 00 00 00 00 00 ................
0040BAA0 00 00 00 00 00 00 00 00 00 00 00 00 00 00 00 00 ................
0040BAB0 00 00 00 00 00 00 00 00 00 00 00 00 00 00 00 00 ................
0040BAC0 00 00 00 00 00 00 00 00 00 00 00 00 00 00 00 00 ................
0040BAD0 00 00 00 00 00 00 00 00 00 00 00 00 00 00 00 00 ................
0040BAE0 00 00 00 00 00 00 00 00 00 00 00 00 00 00 00 00 ................
0040BAF0 00 00 00 00 00 00 00 00 00 00 00 00 00 00 00 00 ................
0040BB00 00 00 00 00 00 00 00 00 00 00 00 00 00 00 00 00 ................
0040BB10 00 00 00 00 00 00 00 00 00 00 00 00 00 00 00 00 ................
0040BB20 00 00 00 00 00 00 00 00 00 00 00 00 00 00 00 00 ................
0040BB30 00 00 00 00 00 00 00 00 00 00 00 00 00 00 00 00 ................
0040BB40 00 00 00 00 00 00 00 00 00 00 00 00 00 00 00 00 ................
0040BB50 00 00 00 00 00 00 00 00 00 00 00 00 00 00 00 00 ................
0040BB60 00 00 00 00 00 00 00 00 00 00 00 00 00 00 00 00 ................
0040BB70 00 00 00 00 00 00 00 00 00 00 00 00 00 00 00 00 ................
0040BB80 00 00 00 00 00 00 00 00 00 00 00 00 00 00 00 00 ................
0040BB90 00 00 00 00 00 00 00 00 00 00 00 00 00 00 00 00 ................
0040BBA0 00 00 00 00 00 00 00 00 00 00 00 00 00 00 00 00 ................
0040BBB0 00 00 00 00 00 00 00 00 00 00 00 00 00 00 00 00 ................
0040BBC0 00 00 00 00 00 00 00 00 00 00 00 00 00 00 00 00 ................
0040BBD0 00 00 00 00 00 00 00 00 00 00 00 00 00 00 00 00 ................
0040BBE0 00 00 00 00 00 00 00 00 00 00 00 00 00 00 00 00 ................
0040BBF0 00 00 00 00 00 00 00 00 00 00 00 00 00 00 00 00 ................
0040BC00 00 00 00 00 00 00 00 00 00 00 00 00 00 00 00 00 ................
0040BC10 00 00 00 00 00 00 00 00 00 00 00 00 00 00 00 00 ................
0040BC20 00 00 00 00 00 00 00 00 00 00 00 00 00 00 00 00 ................
0040BC30 00 00 00 00 00 00 00 00 00 00 00 00 00 00 00 00 ................
0040BC40 00 00 00 00 00 00 00 00 00 00 00 00 00 00 00 00 ................
0040BC50 00 00 00 00 00 00 00 00 00 00 00 00 00 00 00 00 ................
0040BC60 00 00 00 00 00 00 00 00 00 00 00 00 00 00 00 00 ................
0040BC70 00 00 00 00 00 00 00 00 00 00 00 00 00 00 00 00 ................
0040BC80 00 00 00 00 00 00 00 00 00 00 00 00 00 00 00 00 ................
0040BC90 00 00 00 00 00 00 00 00 00 00 00 00 00 00 00 00 ................
0040BCA0 00 00 00 00 00 00 00 00 00 00 00 00 00 00 00 00 ................
0040BCB0 00 00 00 00 00 00 00 00 00 00 00 00 00 00 00 00 ................
0040BCC0 00 00 00 00 00 00 00 00 00 00 00 00 00 00 00 00 ................
0040BCD0 00 00 00 00 00 00 00 00 00 00 00 00 00 00 00 00 ................
0040BCE0 00 00 00 00 00 00 00 00 00 00 00 00 00 00 00 00 ................
0040BCF0 00 00 00 00 00 00 00 00 00 00 00 00 00 00 00 00 ................
0040BD00 00 00 00 00 00 00 00 00 00 00 00 00 00 00 00 00 ................
0040BD10 00 00 00 00 00 00 00 00 00 00 00 00 00 00 00 00 ................
0040BD20 00 00 00 00 00 00 00 00 00 00 00 00 00 00 00 00 ................
0040BD30 00 00 00 00 00 00 00 00 00 00 00 00 00 00 00 00 ................
0040BD40 00 00 00 00 00 00 00 00 00 00 00 00 00 00 00 00 ................
0040BD50 00 00 00 00 00 00 00 00 00 00 00 00 00 00 00 00 ................
0040BD60 00 00 00 00 00 00 00 00 00 00 00 00 00 00 00 00 ................
0040BD70 00 00 00 00 00 00 00 00 00 00 00 00 00 00 00 00 ................
0040BD80 00 00 00 00 00 00 00 00 00 00 00 00 00 00 00 00 ................
0040BD90 00 00 00 00 00 00 00 00 00 00 00 00 00 00 00 00 ................
0040BDA0 00 00 00 00 00 00 00 00 00 00 00 00 00 00 00 00 ................
0040BDB0 00 00 00 00 00 00 00 00 00 00 00 00 00 00 00 00 ................
0040BDC0 00 00 00 00 00 00 00 00 00 00 00 00 00 00 00 00 ................
0040BDD0 00 00 00 00 00 00 00 00 00 00 00 00 00 00 00 00 ................
0040BDE0 00 00 00 00 00 00 00 00 00 00 00 00 00 00 00 00 ................
0040BDF0 00 00 00 00 00 00 00 00 00 00 00 00 00 00 00 00 ................
0040BE00 00 00 00 00 00 00 00 00 00 00 00 00 00 00 00 00 ................
0040BE10 00 00 00 00 00 00 00 00 00 00 00 00 00 00 00 00 ................
0040BE20 00 00 00 00 00 00 00 00 00 00 00 00 00 00 00 00 ................
0040BE30 00 00 00 00 00 00 00 00 00 00 00 00 00 00 00 00 ................
0040BE40 00 00 00 00 00 00 00 00 00 00 00 00 00 00 00 00 ................
0040BE50 00 00 00 00 00 00 00 00 00 00 00 00 00 00 00 00 ................
0040BE60 00 00 00 00 00 00 00 00 00 00 00 00 00 00 00 00 ................
0040BE70 00 00 00 00 00 00 00 00 00 00 00 00 00 00 00 00 ................
0040BE80 00 00 00 00 00 00 00 00 00 00 00 00 00 00 00 00 ................
0040BE90 00 00 00 00 00 00 00 00 00 00 00 00 00 00 00 00 ................
0040BEA0 00 00 00 00 00 00 00 00 00 00 00 00 00 00 00 00 ................
0040BEB0 00 00 00 00 00 00 00 00 00 00 00 00 00 00 00 00 ................
0040BEC0 00 00 00 00 00 00 00 00 00 00 00 00 00 00 00 00 ................
0040BED0 00 00 00 00 00 00 00 00 00 00 00 00 00 00 00 00 ................
0040BEE0 00 00 00 00 00 00 00 00 00 00 00 00 00 00 00 00 ................
0040BEF0 00 00 00 00 00 00 00 00 00 00 00 00 00 00 00 00 ................
0040BF00 00 00 00 00 00 00 00 00 00 00 00 00 00 00 00 00 ................
0040BF10 00 00 00 00 00 00 00 00 00 00 00 00 00 00 00 00 ................
0040BF20 00 00 00 00 00 00 00 00 00 00 00 00 00 00 00 00 ................
0040BF30 00 00 00 00 00 00 00 00 00 00 00 00 00 00 00 00 ................
0040BF40 00 00 00 00 00 00 00 00 00 00 00 00 00 00 00 00 ................
0040BF50 00 00 00 00 00 00 00 00 00 00 00 00 00 00 00 00 ................
0040BF60 00 00 00 00 00 00 00 00 00 00 00 00 00 00 00 00 ................
0040BF70 00 00 00 00 00 00 00 00 00 00 00 00 00 00 00 00 ................
0040BF80 00 00 00 00 00 00 00 00 00 00 00 00 00 00 00 00 ................
0040BF90 00 00 00 00 00 00 00 00 00 00 00 00 00 00 00 00 ................
0040BFA0 00 00 00 00 00 00 00 00 00 00 00 00 00 00 00 00 ................
0040BFB0 00 00 00 00 00 00 00 00 00 00 00 00 00 00 00 00 ................
0040BFC0 00 00 00 00 00 00 00 00 00 00 00 00 00 00 00 00 ................
0040BFD0 00 00 00 00 00 00 00 00 00 00 00 00 00 00 00 00 ................
0040BFE0 00 00 00 00 00 00 00 00 00 00 00 00 00 00 00 00 ................
0040BFF0 00 00 00 00 00 00 00 00 00 00 00 00 00 00 00 00 ................
0040C000 00 00 00 00 00 00 00 00 00 00 00 00 00 00 00 00 ................
0040C010 00 00 00 00 00 00 00 00 00 00 00 00 00 00 00 00 ................
0040C020 00 00 00 00 00 00 00 00 00 00 00 00 00 00 00 00 ................
0040C030 00 00 00 00 00 00 00 00 00 00 00 00 00 00 00 00 ................
0040C040 00 00 00 00 00 00 00 00 00 00 00 00 00 00 00 00 ................
0040C050 00 00 00 00 00 00 00 00 00 00 00 00 00 00 00 00 ................
0040C060 00 00 00 00 00 00 00 00 00 00 00 00 00 00 00 00 ................
0040C070 00 00 00 00 00 00 00 00 00 00 00 00 00 00 00 00 ................
0040C080 00 00 00 00 00 00 00 00 00 00 00 00 00 00 00 00 ................
0040C090 00 00 00 00 00 00 00 00 00 00 00 00 00 00 00 00 ................
0040C0A0 00 00 00 00 00 00 00 00 00 00 00 00 00 00 00 00 ................
0040C0B0 00 00 00 00 00 00 00 00 00 00 00 00 00 00 00 00 ................
0040C0C0 00 00 00 00 00 00 00 00 00 00 00 00 00 00 00 00 ................
0040C0D0 00 00 00 00 00 00 00 00 00 00 00 00 00 00 00 00 ................
0040C0E0 00 00 00 00 00 00 00 00 00 00 00 00 00 00 00 00 ................
0040C0F0 00 00 00 00 00 00 00 00 00 00 00 00 00 00 00 00 ................
0040C100 00 00 00 00 00 00 00 00 00 00 00 00 00 00 00 00 ................
0040C110 00 00 00 00 00 00 00 00 00 00 00 00 00 00 00 00 ................
0040C120 00 00 00 00 00 00 00 00 00 00 00 00 00 00 00 00 ................
0040C130 00 00 00 00 00 00 00 00 00 00 00 00 00 00 00 00 ................
0040C140 00 00 00 00 00 00 00 00 00 00 00 00 00 00 00 00 ................
0040C150 00 00 00 00 00 00 00 00 00 00 00 00 00 00 00 00 ................
0040C160 00 00 00 00 00 00 00 00 00 00 00 00 00 00 00 00 ................
0040C170 00 00 00 00 00 00 00 00 00 00 00 00 00 00 00 00 ................
0040C180 00 00 00 00 00 00 00 00 00 00 00 00 00 00 00 00 ................
0040C190 00 00 00 00 00 00 00 00 00 00 00 00 00 00 00 00 ................
0040C1A0 00 00 00 00 00 00 00 00 00 00 00 00 00 00 00 00 ................
0040C1B0 00 00 00 00 00 00 00 00 00 00 00 00 00 00 00 00 ................
0040C1C0 00 00 00 00 00 00 00 00 00 00 00 00 00 00 00 00 ................
0040C1D0 00 00 00 00 00 00 00 00 00 00 00 00 00 00 00 00 ................
0040C1E0 00 00 00 00 00 00 00 00 00 00 00 00 00 00 00 00 ................
0040C1F0 00 00 00 00 00 00 00 00 00 00 00 00 00 00 00 00 ................
0040C200 00 00 00 00 00 00 00 00 00 00 00 00 00 00 00 00 ................
0040C210 00 00 00 00 00 00 00 00 00 00 00 00 00 00 00 00 ................
0040C220 00 00 00 00 00 00 00 00 00 00 00 00 00 00 00 00 ................
0040C230 00 00 00 00 00 00 00 00 00 00 00 00 00 00 00 00 ................
0040C240 00 00 00 00 00 00 00 00 00 00 00 00 00 00 00 00 ................
0040C250 00 00 00 00 00 00 00 00 00 00 00 00 00 00 00 00 ................
0040C260 00 00 00 00 00 00 00 00 00 00 00 00 00 00 00 00 ................
0040C270 00 00 00 00 00 00 00 00 00 00 00 00 00 00 00 00 ................
0040C280 00 00 00 00 00 00 00 00 00 00 00 00 00 00 00 00 ................
0040C290 00 00 00 00 00 00 00 00 00 00 00 00 00 00 00 00 ................
0040C2A0 00 00 00 00 00 00 00 00 00 00 00 00 00 00 00 00 ................
0040C2B0 00 00 00 00 00 00 00 00 00 00 00 00 00 00 00 00 ................
0040C2C0 00 00 00 00 00 00 00 00 00 00 00 00 00 00 00 00 ................
0040C2D0 00 00 00 00 00 00 00 00 00 00 00 00 00 00 00 00 ................
0040C2E0 00 00 00 00 00 00 00 00 00 00 00 00 00 00 00 00 ................
0040C2F0 00 00 00 00 00 00 00 00 00 00 00 00 00 00 00 00 ................
0040C300 00 00 00 00 00 00 00 00 00 00 00 00 00 00 00 00 ................
0040C310 00 00 00 00 00 00 00 00 00 00 00 00 00 00 00 00 ................
0040C320 00 00 00 00 00 00 00 00 00 00 00 00 00 00 00 00 ................
0040C330 00 00 00 00 00 00 00 00 00 00 00 00 00 00 00 00 ................
0040C340 00 00 00 00 00 00 00 00 00 00 00 00 00 00 00 00 ................
0040C350 00 00 00 00 00 00 00 00 00 00 00 00 00 00 00 00 ................
0040C360 00 00 00 00 00 00 00 00 00 00 00 00 00 00 00 00 ................
0040C370 00 00 00 00 00 00 00 00 00 00 00 00 00 00 00 00 ................
0040C380 00 00 00 00 00 00 00 00 00 00 00 00 00 00 00 00 ................
0040C390 00 00 00 00 00 00 00 00 00 00 00 00 00 00 00 00 ................
0040C3A0 00 00 00 00 00 00 00 00 00 00 00 00 00 00 00 00 ................
0040C3B0 00 00 00 00 00 00 00 00 00 00 00 00 00 00 00 00 ................
0040C3C0 00 00 00 00 00 00 00 00 00 00 00 00 00 00 00 00 ................
0040C3D0 00 00 00 00 00 00 00 00 00 00 00 00 00 00 00 00 ................
0040C3E0 00 00 00 00 00 00 00 00 00 00 00 00 00 00 00 00 ................
0040C3F0 00 00 00 00 00 00 00 00 00 00 00 00 00 00 00 00 ................
0040C400 00 00 00 00 00 00 00 00 00 00 00 00 00 00 00 00 ................
0040C410 00 00 00 00 00 00 00 00 00 00 00 00 00 00 00 00 ................
0040C420 00 00 00 00 00 00 00 00 00 00 00 00 00 00 00 00 ................
0040C430 00 00 00 00 00 00 00 00 00 00 00 00 00 00 00 00 ................
0040C440 00 00 00 00 00 00 00 00 00 00 00 00 00 00 00 00 ................
0040C450 00 00 00 00 00 00 00 00 00 00 00 00 00 00 00 00 ................
0040C460 00 00 00 00 00 00 00 00 00 00 00 00 00 00 00 00 ................
0040C470 00 00 00 00 00 00 00 00 00 00 00 00 00 00 00 00 ................
0040C480 00 00 00 00 00 00 00 00 00 00 00 00 00 00 00 00 ................
0040C490 00 00 00 00 00 00 00 00 00 00 00 00 00 00 00 00 ................
0040C4A0 00 00 00 00 00 00 00 00 00 00 00 00 00 00 00 00 ................
0040C4B0 00 00 00 00 00 00 00 00 00 00 00 00 00 00 00 00 ................
0040C4C0 00 00 00 00 00 00 00 00 00 00 00 00 00 00 00 00 ................
0040C4D0 00 00 00 00 00 00 00 00 00 00 00 00 00 00 00 00 ................
0040C4E0 00 00 00 00 00 00 00 00 00 00 00 00 00 00 00 00 ................
0040C4F0 00 00 00 00 00 00 00 00 00 00 00 00 00 00 00 00 ................
0040C500 00 00 00 00 00 00 00 00 00 00 00 00 00 00 00 00 ................
0040C510 00 00 00 00 00 00 00 00 00 00 00 00 00 00 00 00 ................
0040C520 00 00 00 00 00 00 00 00 00 00 00 00 00 00 00 00 ................
0040C530 00 00 00 00 00 00 00 00 00 00 00 00 00 00 00 00 ................
0040C540 00 00 00 00 00 00 00 00 00 00 00 00 00 00 00 00 ................
0040C550 00 00 00 00 00 00 00 00 00 00 00 00 00 00 00 00 ................
0040C560 00 00 00 00 00 00 00 00 00 00 00 00 00 00 00 00 ................
0040C570 00 00 00 00 00 00 00 00 00 00 00 00 00 00 00 00 ................
0040C580 00 00 00 00 00 00 00 00 00 00 00 00 00 00 00 00 ................
0040C590 00 00 00 00 00 00 00 00 00 00 00 00 00 00 00 00 ................
0040C5A0 00 00 00 00 00 00 00 00 00 00 00 00 00 00 00 00 ................
0040C5B0 00 00 00 00 00 00 00 00 00 00 00 00 00 00 00 00 ................
0040C5C0 00 00 00 00 00 00 00 00 00 00 00 00 00 00 00 00 ................
0040C5D0 00 00 00 00 00 00 00 00 00 00 00 00 00 00 00 00 ................
0040C5E0 00 00 00 00 00 00 00 00 00 00 00 00 00 00 00 00 ................
0040C5F0 00 00 00 00 00 00 00 00 00 00 00 00 00 00 00 00 ................
0040C600 00 00 00 00 00 00 00 00 00 00 00 00 00 00 00 00 ................
0040C610 00 00 00 00 00 00 00 00 00 00 00 00 00 00 00 00 ................
0040C620 00 00 00 00 00 00 00 00 00 00 00 00 00 00 00 00 ................
0040C630 00 00 00 00 00 00 00 00 00 00 00 00 00 00 00 00 ................
0040C640 00 00 00 00 00 00 00 00 00 00 00 00 00 00 00 00 ................
0040C650 00 00 00 00 00 00 00 00 00 00 00 00 00 00 00 00 ................
0040C660 00 00 00 00 00 00 00 00 00 00 00 00 00 00 00 00 ................
0040C670 00 00 00 00 00 00 00 00 00 00 00 00 00 00 00 00 ................
0040C680 00 00 00 00 00 00 00 00 00 00 00 00 00 00 00 00 ................
0040C690 00 00 00 00 00 00 00 00 00 00 00 00 00 00 00 00 ................
0040C6A0 00 00 00 00 00 00 00 00 00 00 00 00 00 00 00 00 ................
0040C6B0 00 00 00 00 00 00 00 00 00 00 00 00 00 00 00 00 ................
0040C6C0 00 00 00 00 00 00 00 00 00 00 00 00 00 00 00 00 ................
0040C6D0 00 00 00 00 00 00 00 00 00 00 00 00 00 00 00 00 ................
0040C6E0 00 00 00 00 00 00 00 00 00 00 00 00 00 00 00 00 ................
0040C6F0 00 00 00 00 00 00 00 00 00 00 00 00 00 00 00 00 ................
0040C700 00 00 00 00 00 00 00 00 00 00 00 00 00 00 00 00 ................
0040C710 00 00 00 00 00 00 00 00 00 00 00 00 00 00 00 00 ................
0040C720 00 00 00 00 00 00 00 00 00 00 00 00 00 00 00 00 ................
0040C730 00 00 00 00 00 00 00 00 00 00 00 00 00 00 00 00 ................
0040C740 00 00 00 00 00 00 00 00 00 00 00 00 00 00 00 00 ................
0040C750 00 00 00 00 00 00 00 00 00 00 00 00 00 00 00 00 ................
0040C760 00 00 00 00 00 00 00 00 00 00 00 00 00 00 00 00 ................
0040C770 00 00 00 00 00 00 00 00 00 00 00 00 00 00 00 00 ................
0040C780 00 00 00 00 00 00 00 00 00 00 00 00 00 00 00 00 ................
0040C790 00 00 00 00 00 00 00 00 00 00 00 00 00 00 00 00 ................
0040C7A0 00 00 00 00 00 00 00 00 00 00 00 00 00 00 00 00 ................
0040C7B0 00 00 00 00 00 00 00 00 00 00 00 00 00 00 00 00 ................
0040C7C0 00 00 00 00 00 00 00 00 00 00 00 00 00 00 00 00 ................
0040C7D0 00 00 00 00 00 00 00 00 00 00 00 00 00 00 00 00 ................
0040C7E0 00 00 00 00 00 00 00 00 00 00 00 00 00 00 00 00 ................
0040C7F0 00 00 00 00 00 00 00 00 00 00 00 00 00 00 00 00 ................
0040C800 00 00 00 00 00 00 00 00 00 00 00 00 00 00 00 00 ................
0040C810 00 00 00 00 00 00 00 00 00 00 00 00 00 00 00 00 ................
0040C820 00 00 00 00 00 00 00 00 00 00 00 00 00 00 00 00 ................
0040C830 00 00 00 00 00 00 00 00 00 00 00 00 00 00 00 00 ................
0040C840 00 00 00 00 00 00 00 00 00 00 00 00 00 00 00 00 ................
0040C850 00 00 00 00 00 00 00 00 00 00 00 00 00 00 00 00 ................
0040C860 00 00 00 00 00 00 00 00 00 00 00 00 00 00 00 00 ................
0040C870 00 00 00 00 00 00 00 00 00 00 00 00 00 00 00 00 ................
0040C880 00 00 00 00 00 00 00 00 00 00 00 00 00 00 00 00 ................
0040C890 00 00 00 00 00 00 00 00 00 00 00 00 00 00 00 00 ................
0040C8A0 00 00 00 00 00 00 00 00 00 00 00 00 00 00 00 00 ................
0040C8B0 00 00 00 00 00 00 00 00 00 00 00 00 00 00 00 00 ................
0040C8C0 00 00 00 00 00 00 00 00 00 00 00 00 00 00 00 00 ................
0040C8D0 00 00 00 00 00 00 00 00 00 00 00 00 00 00 00 00 ................
0040C8E0 00 00 00 00 00 00 00 00 00 00 00 00 00 00 00 00 ................
0040C8F0 00 00 00 00 00 00 00 00 00 00 00 00 00 00 00 00 ................
0040C900 00 00 00 00 00 00 00 00 00 00 00 00 00 00 00 00 ................
0040C910 00 00 00 00 00 00 00 00 00 00 00 00 00 00 00 00 ................
0040C920 00 00 00 00 00 00 00 00 00 00 00 00 00 00 00 00 ................
0040C930 00 00 00 00 00 00 00 00 00 00 00 00 00 00 00 00 ................
0040C940 00 00 00 00 00 00 00 00 00 00 00 00 00 00 00 00 ................
0040C950 00 00 00 00 00 00 00 00 00 00 00 00 00 00 00 00 ................
0040C960 00 00 00 00 00 00 00 00 00 00 00 00 00 00 00 00 ................
0040C970 00 00 00 00 00 00 00 00 00 00 00 00 00 00 00 00 ................
0040C980 00 00 00 00 00 00 00 00 00 00 00 00 00 00 00 00 ................
0040C990 00 00 00 00 00 00 00 00 00 00 00 00 00 00 00 00 ................
0040C9A0 00 00 00 00 00 00 00 00 00 00 00 00 00 00 00 00 ................
0040C9B0 00 00 00 00 00 00 00 00 00 00 00 00 00 00 00 00 ................
0040C9C0 00 00 00 00 00 00 00 00 00 00 00 00 00 00 00 00 ................
0040C9D0 00 00 00 00 00 00 00 00 00 00 00 00 00 00 00 00 ................
0040C9E0 00 00 00 00 00 00 00 00 00 00 00 00 00 00 00 00 ................
0040C9F0 00 00 00 00 00 00 00 00 00 00 00 00 00 00 00 00 ................
0040CA00 00 00 00 00 00 00 00 00 00 00 00 00 00 00 00 00 ................
0040CA10 00 00 00 00 00 00 00 00 00 00 00 00 00 00 00 00 ................
0040CA20 00 00 00 00 00 00 00 00 00 00 00 00 00 00 00 00 ................
0040CA30 00 00 00 00 00 00 00 00 00 00 00 00 00 00 00 00 ................
0040CA40 00 00 00 00 00 00 00 00 00 00 00 00 00 00 00 00 ................
0040CA50 00 00 00 00 00 00 00 00 00 00 00 00 00 00 00 00 ................
0040CA60 00 00 00 00 00 00 00 00 00 00 00 00 00 00 00 00 ................
0040CA70 00 00 00 00 00 00 00 00 00 00 00 00 00 00 00 00 ................
0040CA80 00 00 00 00 00 00 00 00 00 00 00 00 00 00 00 00 ................
0040CA90 00 00 00 00 00 00 00 00 00 00 00 00 00 00 00 00 ................
0040CAA0 00 00 00 00 00 00 00 00 00 00 00 00 00 00 00 00 ................
0040CAB0 00 00 00 00 00 00 00 00 00 00 00 00 00 00 00 00 ................
0040CAC0 00 00 00 00 00 00 00 00 00 00 00 00 00 00 00 00 ................
0040CAD0 00 00 00 00 00 00 00 00 00 00 00 00 00 00 00 00 ................
0040CAE0 00 00 00 00 00 00 00 00 00 00 00 00 00 00 00 00 ................
0040CAF0 00 00 00 00 00 00 00 00 00 00 00 00 00 00 00 00 ................
0040CB00 00 00 00 00 00 00 00 00 00 00 00 00 00 00 00 00 ................
0040CB10 00 00 00 00 00 00 00 00 00 00 00 00 00 00 00 00 ................
0040CB20 00 00 00 00 00 00 00 00 00 00 00 00 00 00 00 00 ................
0040CB30 00 00 00 00 00 00 00 00 00 00 00 00 00 00 00 00 ................
0040CB40 00 00 00 00 00 00 00 00 00 00 00 00 00 00 00 00 ................
0040CB50 00 00 00 00 00 00 00 00 00 00 00 00 00 00 00 00 ................
0040CB60 00 00 00 00 00 00 00 00 00 00 00 00 00 00 00 00 ................
0040CB70 00 00 00 00 00 00 00 00 00 00 00 00 00 00 00 00 ................
0040CB80 00 00 00 00 00 00 00 00 00 00 00 00 00 00 00 00 ................
0040CB90 00 00 00 00 00 00 00 00 00 00 00 00 00 00 00 00 ................
0040CBA0 00 00 00 00 00 00 00 00 00 00 00 00 00 00 00 00 ................
0040CBB0 00 00 00 00 00 00 00 00 00 00 00 00 00 00 00 00 ................
0040CBC0 00 00 00 00 00 00 00 00 00 00 00 00 00 00 00 00 ................
0040CBD0 00 00 00 00 00 00 00 00 00 00 00 00 00 00 00 00 ................
0040CBE0 00 00 00 00 00 00 00 00 00 00 00 00 00 00 00 00 ................
0040CBF0 00 00 00 00 00 00 00 00 00 00 00 00 00 00 00 00 ................
0040CC00 00 00 00 00 00 00 00 00 00 00 00 00 00 00 00 00 ................
0040CC10 00 00 00 00 00 00 00 00 00 00 00 00 00 00 00 00 ................
0040CC20 00 00 00 00 00 00 00 00 00 00 00 00 00 00 00 00 ................
0040CC30 00 00 00 00 00 00 00 00 00 00 00 00 00 00 00 00 ................
0040CC40 00 00 00 00 00 00 00 00 00 00 00 00 00 00 00 00 ................
0040CC50 00 00 00 00 00 00 00 00 00 00 00 00 00 00 00 00 ................
0040CC60 00 00 00 00 00 00 00 00 00 00 00 00 00 00 00 00 ................
0040CC70 00 00 00 00 00 00 00 00 00 00 00 00 00 00 00 00 ................
0040CC80 00 00 00 00 00 00 00 00 00 00 00 00 00 00 00 00 ................
0040CC90 00 00 00 00 00 00 00 00 00 00 00 00 00 00 00 00 ................
0040CCA0 00 00 00 00 00 00 00 00 00 00 00 00 00 00 00 00 ................
0040CCB0 00 00 00 00 00 00 00 00 00 00 00 00 00 00 00 00 ................
0040CCC0 00 00 00 00 00 00 00 00 00 00 00 00 00 00 00 00 ................
0040CCD0 00 00 00 00 00 00 00 00 00 00 00 00 00 00 00 00 ................
0040CCE0 00 00 00 00 00 00 00 00 00 00 00 00 00 00 00 00 ................
0040CCF0 00 00 00 00 00 00 00 00 00 00 00 00 00 00 00 00 ................
0040CD00 00 00 00 00 00 00 00 00 00 00 00 00 00 00 00 00 ................
0040CD10 00 00 00 00 00 00 00 00 00 00 00 00 00 00 00 00 ................
0040CD20 00 00 00 00 00 00 00 00 00 00 00 00 00 00 00 00 ................
0040CD30 00 00 00 00 00 00 00 00 00 00 00 00 00 00 00 00 ................
0040CD40 00 00 00 00 00 00 00 00 00 00 00 00 00 00 00 00 ................
0040CD50 00 00 00 00 00 00 00 00 00 00 00 00 00 00 00 00 ................
0040CD60 00 00 00 00 00 00 00 00 00 00 00 00 00 00 00 00 ................
0040CD70 00 00 00 00 00 00 00 00 00 00 00 00 00 00 00 00 ................
0040CD80 00 00 00 00 00 00 00 00 00 00 00 00 00 00 00 00 ................
0040CD90 00 00 00 00 00 00 00 00 00 00 00 00 00 00 00 00 ................
0040CDA0 00 00 00 00 00 00 00 00 00 00 00 00 00 00 00 00 ................
0040CDB0 00 00 00 00 00 00 00 00 00 00 00 00 00 00 00 00 ................
0040CDC0 00 00 00 00 00 00 00 00 00 00 00 00 00 00 00 00 ................
0040CDD0 00 00 00 00 00 00 00 00 00 00 00 00 00 00 00 00 ................
0040CDE0 00 00 00 00 00 00 00 00 00 00 00 00 00 00 00 00 ................
0040CDF0 00 00 00 00 00 00 00 00 00 00 00 00 00 00 00 00 ................
0040CE00 00 00 00 00 00 00 00 00 00 00 00 00 00 00 00 00 ................
0040CE10 00 00 00 00 00 00 00 00 00 00 00 00 00 00 00 00 ................
0040CE20 00 00 00 00 00 00 00 00 00 00 00 00 00 00 00 00 ................
0040CE30 00 00 00 00 00 00 00 00 00 00 00 00 00 00 00 00 ................
0040CE40 00 00 00 00 00 00 00 00 00 00 00 00 00 00 00 00 ................
0040CE50 00 00 00 00 00 00 00 00 00 00 00 00 00 00 00 00 ................
0040CE60 00 00 00 00 00 00 00 00 00 00 00 00 00 00 00 00 ................
0040CE70 00 00 00 00 00 00 00 00 00 00 00 00 00 00 00 00 ................
0040CE80 00 00 00 00 00 00 00 00 00 00 00 00 00 00 00 00 ................
0040CE90 00 00 00 00 00 00 00 00 00 00 00 00 00 00 00 00 ................
0040CEA0 00 00 00 00 00 00 00 00 00 00 00 00 00 00 00 00 ................
0040CEB0 00 00 00 00 00 00 00 00 00 00 00 00 00 00 00 00 ................
0040CEC0 00 00 00 00 00 00 00 00 00 00 00 00 00 00 00 00 ................
0040CED0 00 00 00 00 00 00 00 00 00 00 00 00 00 00 00 00 ................
0040CEE0 00 00 00 00 00 00 00 00 00 00 00 00 00 00 00 00 ................
0040CEF0 00 00 00 00 00 00 00 00 00 00 00 00 00 00 00 00 ................
0040CF00 00 00 00 00 00 00 00 00 00 00 00 00 00 00 00 00 ................
0040CF10 00 00 00 00 00 00 00 00 00 00 00 00 00 00 00 00 ................
0040CF20 00 00 00 00 00 00 00 00 00 00 00 00 00 00 00 00 ................
0040CF30 00 00 00 00 00 00 00 00 00 00 00 00 00 00 00 00 ................
0040CF40 00 00 00 00 00 00 00 00 00 00 00 00 00 00 00 00 ................
0040CF50 00 00 00 00 00 00 00 00 00 00 00 00 00 00 00 00 ................
0040CF60 00 00 00 00 00 00 00 00 00 00 00 00 00 00 00 00 ................
0040CF70 00 00 00 00 00 00 00 00 00 00 00 00 00 00 00 00 ................
0040CF80 00 00 00 00 00 00 00 00 00 00 00 00 00 00 00 00 ................
0040CF90 00 00 00 00 00 00 00 00 00 00 00 00 00 00 00 00 ................
0040CFA0 00 00 00 00 00 00 00 00 00 00 00 00 00 00 00 00 ................
0040CFB0 00 00 00 00 00 00 00 00 00 00 00 00 00 00 00 00 ................
0040CFC0 00 00 00 00 00 00 00 00 00 00 00 00 00 00 00 00 ................
0040CFD0 00 00 00 00 00 00 00 00 00 00 00 00 00 00 00 00 ................
0040CFE0 00 00 00 00 00 00 00 00 00 00 00 00 00 00 00 00 ................
0040CFF0 00 00 00 00 00 00 00 00 00 00 00 00 00 00 00 00 ................
0040D000 00 00 00 00 00 00 00 00 00 00 00 00 00 00 00 00 ................
0040D010 00 00 00 00 00 00 00 00 00 00 00 00 00 00 00 00 ................
0040D020 00 00 00 00 00 00 00 00 00 00 00 00 00 00 00 00 ................
0040D030 00 00 00 00 00 00 00 00 00 00 00 00 00 00 00 00 ................
0040D040 00 00 00 00 00 00 00 00 00 00 00 00 00 00 00 00 ................
0040D050 00 00 00 00 00 00 00 00 00 00 00 00 00 00 00 00 ................
0040D060 00 00 00 00 00 00 00 00 00 00 00 00 00 00 00 00 ................
0040D070 00 00 00 00 00 00 00 00 00 00 00 00 00 00 00 00 ................
0040D080 00 00 00 00 00 00 00 00 00 00 00 00 00 00 00 00 ................
0040D090 00 00 00 00 00 00 00 00 00 00 00 00 00 00 00 00 ................
0040D0A0 00 00 00 00 00 00 00 00 00 00 00 00 00 00 00 00 ................
0040D0B0 00 00 00 00 00 00 00 00 00 00 00 00 00 00 00 00 ................
0040D0C0 00 00 00 00 00 00 00 00 00 00 00 00 00 00 00 00 ................
0040D0D0 00 00 00 00 00 00 00 00 00 00 00 00 00 00 00 00 ................
0040D0E0 00 00 00 00 00 00 00 00 00 00 00 00 00 00 00 00 ................
0040D0F0 00 00 00 00 00 00 00 00 00 00 00 00 00 00 00 00 ................
0040D100 00 00 00 00 00 00 00 00 00 00 00 00 00 00 00 00 ................
0040D110 00 00 00 00 00 00 00 00 00 00 00 00 00 00 00 00 ................
0040D120 00 00 00 00 00 00 00 00 00 00 00 00 00 00 00 00 ................
0040D130 00 00 00 00 00 00 00 00 00 00 00 00 00 00 00 00 ................
0040D140 00 00 00 00 00 00 00 00 00 00 00 00 00 00 00 00 ................
0040D150 00 00 00 00 00 00 00 00 00 00 00 00 00 00 00 00 ................
0040D160 00 00 00 00 00 00 00 00 00 00 00 00 00 00 00 00 ................
0040D170 00 00 00 00 00 00 00 00 00 00 00 00 00 00 00 00 ................
0040D180 00 00 00 00 00 00 00 00 00 00 00 00 00 00 00 00 ................
0040D190 00 00 00 00 00 00 00 00 00 00 00 00 00 00 00 00 ................
0040D1A0 00 00 00 00 00 00 00 00 00 00 00 00 00 00 00 00 ................
0040D1B0 00 00 00 00 00 00 00 00 00 00 00 00 00 00 00 00 ................
0040D1C0 00 00 00 00 00 00 00 00 00 00 00 00 00 00 00 00 ................
0040D1D0 00 00 00 00 00 00 00 00 00 00 00 00 00 00 00 00 ................
0040D1E0 00 00 00 00 00 00 00 00 00 00 00 00 00 00 00 00 ................
0040D1F0 00 00 00 00 00 00 00 00 00 00 00 00 00 00 00 00 ................
0040D200 00 00 00 00 00 00 00 00 00 00 00 00 00 00 00 00 ................
0040D210 00 00 00 00 00 00 00 00 00 00 00 00 00 00 00 00 ................
0040D220 00 00 00 00 00 00 00 00 00 00 00 00 00 00 00 00 ................
0040D230 00 00 00 00 00 00 00 00 00 00 00 00 00 00 00 00 ................
0040D240 00 00 00 00 00 00 00 00 00 00 00 00 00 00 00 00 ................
0040D250 00 00 00 00 00 00 00 00 00 00 00 00 00 00 00 00 ................
0040D260 00 00 00 00 00 00 00 00 00 00 00 00 00 00 00 00 ................
0040D270 00 00 00 00 00 00 00 00 00 00 00 00 00 00 00 00 ................
0040D280 00 00 00 00 00 00 00 00 00 00 00 00 00 00 00 00 ................
0040D290 00 00 00 00 00 00 00 00 00 00 00 00 00 00 00 00 ................
0040D2A0 00 00 00 00 00 00 00 00 00 00 00 00 00 00 00 00 ................
0040D2B0 00 00 00 00 00 00 00 00 00 00 00 00 00 00 00 00 ................
0040D2C0 00 00 00 00 00 00 00 00 00 00 00 00 00 00 00 00 ................
0040D2D0 00 00 00 00 00 00 00 00 00 00 00 00 00 00 00 00 ................
0040D2E0 00 00 00 00 00 00 00 00 00 00 00 00 00 00 00 00 ................
0040D2F0 00 00 00 00 00 00 00 00 00 00 00 00 00 00 00 00 ................
0040D300 00 00 00 00 00 00 00 00 00 00 00 00 00 00 00 00 ................
0040D310 00 00 00 00 00 00 00 00 00 00 00 00 00 00 00 00 ................
0040D320 00 00 00 00 00 00 00 00 00 00 00 00 00 00 00 00 ................
0040D330 00 00 00 00 00 00 00 00 00 00 00 00 00 00 00 00 ................
0040D340 00 00 00 00 00 00 00 00 00 00 00 00 00 00 00 00 ................
0040D350 00 00 00 00 00 00 00 00 00 00 00 00 00 00 00 00 ................
0040D360 00 00 00 00 00 00 00 00 00 00 00 00 00 00 00 00 ................
0040D370 00 00 00 00 00 00 00 00 00 00 00 00 00 00 00 00 ................
0040D380 00 00 00 00 00 00 00 00 00 00 00 00 00 00 00 00 ................
0040D390 00 00 00 00 00 00 00 00 00 00 00 00 00 00 00 00 ................
0040D3A0 00 00 00 00 00 00 00 00 00 00 00 00 00 00 00 00 ................
0040D3B0 00 00 00 00 00 00 00 00 00 00 00 00 00 00 00 00 ................
0040D3C0 00 00 00 00 00 00 00 00 00 00 00 00 00 00 00 00 ................
0040D3D0 00 00 00 00 00 00 00 00 00 00 00 00 00 00 00 00 ................
0040D3E0 00 00 00 00 00 00 00 00 00 00 00 00 00 00 00 00 ................
0040D3F0 00 00 00 00 00 00 00 00 00 00 00 00 00 00 00 00 ................
0040D400 00 00 00 00 00 00 00 00 00 00 00 00 00 00 00 00 ................
0040D410 00 00 00 00 00 00 00 00 00 00 00 00 00 00 00 00 ................
0040D420 00 00 00 00 00 00 00 00 00 00 00 00 00 00 00 00 ................
0040D430 00 00 00 00 00 00 00 00 00 00 00 00 00 00 00 00 ................
0040D440 00 00 00 00 00 00 00 00 00 00 00 00 00 00 00 00 ................
0040D450 00 00 00 00 00 00 00 00 00 00 00 00 00 00 00 00 ................
0040D460 00 00 00 00 00 00 00 00 00 00 00 00 00 00 00 00 ................
0040D470 00 00 00 00 00 00 00 00 00 00 00 00 00 00 00 00 ................
0040D480 00 00 00 00 00 00 00 00 00 00 00 00 00 00 00 00 ................
0040D490 00 00 00 00 00 00 00 00 00 00 00 00 00 00 00 00 ................
0040D4A0 00 00 00 00 00 00 00 00 00 00 00 00 00 00 00 00 ................
0040D4B0 00 00 00 00 00 00 00 00 00 00 00 00 00 00 00 00 ................
0040D4C0 00 00 00 00 00 00 00 00 00 00 00 00 00 00 00 00 ................
0040D4D0 00 00 00 00 00 00 00 00 00 00 00 00 00 00 00 00 ................
0040D4E0 00 00 00 00 00 00 00 00 00 00 00 00 00 00 00 00 ................
0040D4F0 00 00 00 00 00 00 00 00 00 00 00 00 00 00 00 00 ................
0040D500 00 00 00 00 00 00 00 00 00 00 00 00 00 00 00 00 ................
0040D510 00 00 00 00 00 00 00 00 00 00 00 00 00 00 00 00 ................
0040D520 00 00 00 00 00 00 00 00 00 00 00 00 00 00 00 00 ................
0040D530 00 00 00 00 00 00 00 00 00 00 00 00 00 00 00 00 ................
0040D540 00 00 00 00 00 00 00 00 00 00 00 00 00 00 00 00 ................
0040D550 00 00 00 00 00 00 00 00 00 00 00 00 00 00 00 00 ................
0040D560 00 00 00 00 00 00 00 00 00 00 00 00 00 00 00 00 ................
0040D570 00 00 00 00 00 00 00 00 00 00 00 00 00 00 00 00 ................
0040D580 00 00 00 00 00 00 00 00 00 00 00 00 00 00 00 00 ................
0040D590 00 00 00 00 00 00 00 00 00 00 00 00 00 00 00 00 ................
0040D5A0 00 00 00 00 00 00 00 00 00 00 00 00 00 00 00 00 ................
0040D5B0 00 00 00 00 00 00 00 00 00 00 00 00 00 00 00 00 ................
0040D5C0 00 00 00 00 00 00 00 00 00 00 00 00 00 00 00 00 ................
0040D5D0 00 00 00 00 00 00 00 00 00 00 00 00 00 00 00 00 ................
0040D5E0 00 00 00 00 00 00 00 00 00 00 00 00 00 00 00 00 ................
0040D5F0 00 00 00 00 00 00 00 00 00 00 00 00 00 00 00 00 ................
0040D600 00 00 00 00 00 00 00 00 00 00 00 00 00 00 00 00 ................
0040D610 00 00 00 00 00 00 00 00 00 00 00 00 00 00 00 00 ................
0040D620 00 00 00 00 00 00 00 00 00 00 00 00 00 00 00 00 ................
0040D630 00 00 00 00 00 00 00 00 00 00 00 00 00 00 00 00 ................
0040D640 00 00 00 00 00 00 00 00 00 00 00 00 00 00 00 00 ................
0040D650 00 00 00 00 00 00 00 00 00 00 00 00 00 00 00 00 ................
0040D660 00 00 00 00 00 00 00 00 00 00 00 00 00 00 00 00 ................
0040D670 00 00 00 00 00 00 00 00 00 00 00 00 00 00 00 00 ................
0040D680 00 00 00 00 00 00 00 00 00 00 00 00 00 00 00 00 ................
0040D690 00 00 00 00 00 00 00 00 00 00 00 00 00 00 00 00 ................
0040D6A0 00 00 00 00 00 00 00 00 00 00 00 00 00 00 00 00 ................
0040D6B0 00 00 00 00 00 00 00 00 00 00 00 00 00 00 00 00 ................
0040D6C0 00 00 00 00 00 00 00 00 00 00 00 00 00 00 00 00 ................
0040D6D0 00 00 00 00 00 00 00 00 00 00 00 00 00 00 00 00 ................
0040D6E0 00 00 00 00 00 00 00 00 00 00 00 00 00 00 00 00 ................
0040D6F0 00 00 00 00 00 00 00 00 00 00 00 00 00 00 00 00 ................
0040D700 00 00 00 00 00 00 00 00 00 00 00 00 00 00 00 00 ................
0040D710 00 00 00 00 00 00 00 00 00 00 00 00 00 00 00 00 ................
0040D720 00 00 00 00 00 00 00 00 00 00 00 00 00 00 00 00 ................
0040D730 00 00 00 00 00 00 00 00 00 00 00 00 00 00 00 00 ................
0040D740 00 00 00 00 00 00 00 00 00 00 00 00 00 00 00 00 ................
0040D750 00 00 00 00 00 00 00 00 00 00 00 00 00 00 00 00 ................
0040D760 00 00 00 00 00 00 00 00 00 00 00 00 00 00 00 00 ................
0040D770 00 00 00 00 00 00 00 00 00 00 00 00 00 00 00 00 ................
0040D780 00 00 00 00 00 00 00 00 00 00 00 00 00 00 00 00 ................
0040D790 00 00 00 00 00 00 00 00 00 00 00 00 00 00 00 00 ................
0040D7A0 00 00 00 00 00 00 00 00 00 00 00 00 00 00 00 00 ................
0040D7B0 00 00 00 00 00 00 00 00 00 00 00 00 00 00 00 00 ................
0040D7C0 00 00 00 00 00 00 00 00 00 00 00 00 00 00 00 00 ................
0040D7D0 00 00 00 00 00 00 00 00 00 00 00 00 00 00 00 00 ................
0040D7E0 00 00 00 00 00 00 00 00 00 00 00 00 00 00 00 00 ................
0040D7F0 00 00 00 00 00 00 00 00 00 00 00 00 00 00 00 00 ................
0040D800 00 00 00 00 00 00 00 00 00 00 00 00 00 00 00 00 ................
0040D810 00 00 00 00 00 00 00 00 00 00 00 00 00 00 00 00 ................
0040D820 00 00 00 00 00 00 00 00 00 00 00 00 00 00 00 00 ................
0040D830 00 00 00 00 00 00 00 00 00 00 00 00 00 00 00 00 ................
0040D840 00 00 00 00 00 00 00 00 00 00 00 00 00 00 00 00 ................
0040D850 00 00 00 00 00 00 00 00 00 00 00 00 00 00 00 00 ................
0040D860 00 00 00 00 00 00 00 00 00 00 00 00 00 00 00 00 ................
0040D870 00 00 00 00 00 00 00 00 00 00 00 00 00 00 00 00 ................
0040D880 00 00 00 00 00 00 00 00 00 00 00 00 00 00 00 00 ................
0040D890 00 00 00 00 00 00 00 00 00 00 00 00 00 00 00 00 ................
0040D8A0 00 00 00 00 00 00 00 00 00 00 00 00 00 00 00 00 ................
0040D8B0 00 00 00 00 00 00 00 00 00 00 00 00 00 00 00 00 ................
0040D8C0 00 00 00 00 00 00 00 00 00 00 00 00 00 00 00 00 ................
0040D8D0 00 00 00 00 00 00 00 00 00 00 00 00 00 00 00 00 ................
0040D8E0 00 00 00 00 00 00 00 00 00 00 00 00 00 00 00 00 ................
0040D8F0 00 00 00 00 00 00 00 00 00 00 00 00 00 00 00 00 ................
0040D900 00 00 00 00 00 00 00 00 00 00 00 00 00 00 00 00 ................
0040D910 00 00 00 00 00 00 00 00 00 00 00 00 00 00 00 00 ................
0040D920 00 00 00 00 00 00 00 00 00 00 00 00 00 00 00 00 ................
0040D930 00 00 00 00 00 00 00 00 00 00 00 00 00 00 00 00 ................
0040D940 00 00 00 00 00 00 00 00 00 00 00 00 00 00 00 00 ................
0040D950 00 00 00 00 00 00 00 00 00 00 00 00 00 00 00 00 ................
0040D960 00 00 00 00 00 00 00 00 00 00 00 00 00 00 00 00 ................
0040D970 00 00 00 00 00 00 00 00 00 00 00 00 00 00 00 00 ................
0040D980 00 00 00 00 00 00 00 00 00 00 00 00 00 00 00 00 ................
0040D990 00 00 00 00 00 00 00 00 00 00 00 00 00 00 00 00 ................
0040D9A0 00 00 00 00 00 00 00 00 00 00 00 00 00 00 00 00 ................
0040D9B0 00 00 00 00 00 00 00 00 00 00 00 00 00 00 00 00 ................
0040D9C0 00 00 00 00 00 00 00 00 00 00 00 00 00 00 00 00 ................
0040D9D0 00 00 00 00 00 00 00 00 00 00 00 00 00 00 00 00 ................
0040D9E0 00 00 00 00 00 00 00 00 00 00 00 00 00 00 00 00 ................
0040D9F0 00 00 00 00 00 00 00 00 00 00 00 00 00 00 00 00 ................
0040DA00 00 00 00 00 00 00 00 00 00 00 00 00 00 00 00 00 ................
0040DA10 00 00 00 00 00 00 00 00 00 00 00 00 00 00 00 00 ................
0040DA20 00 00 00 00 00 00 00 00 00 00 00 00 00 00 00 00 ................
0040DA30 00 00 00 00 00 00 00 00 00 00 00 00 00 00 00 00 ................
0040DA40 00 00 00 00 00 00 00 00 00 00 00 00 00 00 00 00 ................
0040DA50 00 00 00 00 00 00 00 00 00 00 00 00 00 00 00 00 ................
0040DA60 00 00 00 00 00 00 00 00 00 00 00 00 00 00 00 00 ................
0040DA70 00 00 00 00 00 00 00 00 00 00 00 00 00 00 00 00 ................
0040DA80 00 00 00 00 00 00 00 00 00 00 00 00 00 00 00 00 ................
0040DA90 00 00 00 00 00 00 00 00 00 00 00 00 00 00 00 00 ................
0040DAA0 00 00 00 00 00 00 00 00 00 00 00 00 00 00 00 00 ................
0040DAB0 00 00 00 00 00 00 00 00 00 00 00 00 00 00 00 00 ................
0040DAC0 00 00 00 00 00 00 00 00 00 00 00 00 00 00 00 00 ................
0040DAD0 00 00 00 00 00 00 00 00 00 00 00 00 00 00 00 00 ................
0040DAE0 00 00 00 00 00 00 00 00 00 00 00 00 00 00 00 00 ................
0040DAF0 00 00 00 00 00 00 00 00 00 00 00 00 00 00 00 00 ................
0040DB00 00 00 00 00 00 00 00 00 00 00 00 00 00 00 00 00 ................
0040DB10 00 00 00 00 00 00 00 00 00 00 00 00 00 00 00 00 ................
0040DB20 00 00 00 00 00 00 00 00 00 00 00 00 00 00 00 00 ................
0040DB30 00 00 00 00 00 00 00 00 00 00 00 00 00 00 00 00 ................
0040DB40 00 00 00 00 00 00 00 00 00 00 00 00 00 00 00 00 ................
0040DB50 00 00 00 00 00 00 00 00 00 00 00 00 00 00 00 00 ................
0040DB60 00 00 00 00 00 00 00 00 00 00 00 00 00 00 00 00 ................
0040DB70 00 00 00 00 00 00 00 00 00 00 00 00 00 00 00 00 ................
0040DB80 00 00 00 00 00 00 00 00 00 00 00 00 00 00 00 00 ................
0040DB90 00 00 00 00 00 00 00 00 00 00 00 00 00 00 00 00 ................
0040DBA0 00 00 00 00 00 00 00 00 00 00 00 00 00 00 00 00 ................
0040DBB0 00 00 00 00 00 00 00 00 00 00 00 00 00 00 00 00 ................
0040DBC0 00 00 00 00 00 00 00 00 00 00 00 00 00 00 00 00 ................
0040DBD0 00 00 00 00 00 00 00 00 00 00 00 00 00 00 00 00 ................
0040DBE0 00 00 00 00 00 00 00 00 00 00 00 00 00 00 00 00 ................
0040DBF0 00 00 00 00 00 00 00 00 00 00 00 00 00 00 00 00 ................
0040DC00 00 00 00 00 00 00 00 00 00 00 00 00 00 00 00 00 ................
0040DC10 00 00 00 00 00 00 00 00 00 00 00 00 00 00 00 00 ................
0040DC20 00 00 00 00 00 00 00 00 00 00 00 00 00 00 00 00 ................
0040DC30 00 00 00 00 00 00 00 00 00 00 00 00 00 00 00 00 ................
0040DC40 00 00 00 00 00 00 00 00 00 00 00 00 00 00 00 00 ................
0040DC50 00 00 00 00 00 00 00 00 00 00 00 00 00 00 00 00 ................
0040DC60 00 00 00 00 00 00 00 00 00 00 00 00 00 00 00 00 ................
0040DC70 00 00 00 00 00 00 00 00 00 00 00 00 00 00 00 00 ................
0040DC80 00 00 00 00 00 00 00 00 00 00 00 00 00 00 00 00 ................
0040DC90 00 00 00 00 00 00 00 00 00 00 00 00 00 00 00 00 ................
0040DCA0 00 00 00 00 00 00 00 00 00 00 00 00 00 00 00 00 ................
0040DCB0 00 00 00 00 00 00 00 00 00 00 00 00 00 00 00 00 ................
0040DCC0 00 00 00 00 00 00 00 00 00 00 00 00 00 00 00 00 ................
0040DCD0 00 00 00 00 00 00 00 00 00 00 00 00 00 00 00 00 ................
0040DCE0 00 00 00 00 00 00 00 00 00 00 00 00 00 00 00 00 ................
0040DCF0 00 00 00 00 00 00 00 00 00 00 00 00 00 00 00 00 ................
0040DD00 00 00 00 00 00 00 00 00 00 00 00 00 00 00 00 00 ................
0040DD10 00 00 00 00 00 00 00 00 00 00 00 00 00 00 00 00 ................
0040DD20 00 00 00 00 00 00 00 00 00 00 00 00 00 00 00 00 ................
0040DD30 00 00 00 00 00 00 00 00 00 00 00 00 00 00 00 00 ................
0040DD40 00 00 00 00 00 00 00 00 00 00 00 00 00 00 00 00 ................
0040DD50 00 00 00 00 00 00 00 00 00 00 00 00 00 00 00 00 ................
0040DD60 00 00 00 00 00 00 00 00 00 00 00 00 00 00 00 00 ................
0040DD70 00 00 00 00 00 00 00 00 00 00 00 00 00 00 00 00 ................
0040DD80 00 00 00 00 00 00 00 00 00 00 00 00 00 00 00 00 ................
0040DD90 00 00 00 00 00 00 00 00 00 00 00 00 00 00 00 00 ................
0040DDA0 00 00 00 00 00 00 00 00 00 00 00 00 00 00 00 00 ................
0040DDB0 00 00 00 00 00 00 00 00 00 00 00 00 00 00 00 00 ................
0040DDC0 00 00 00 00 00 00 00 00 00 00 00 00 00 00 00 00 ................
0040DDD0 00 00 00 00 00 00 00 00 00 00 00 00 00 00 00 00 ................
0040DDE0 00 00 00 00 00 00 00 00 00 00 00 00 00 00 00 00 ................
0040DDF0 00 00 00 00 00 00 00 00 00 00 00 00 00 00 00 00 ................
0040DE00 00 00 00 00 00 00 00 00 00 00 00 00 00 00 00 00 ................
0040DE10 00 00 00 00 00 00 00 00 00 00 00 00 00 00 00 00 ................
0040DE20 00 00 00 00 00 00 00 00 00 00 00 00 00 00 00 00 ................
0040DE30 00 00 00 00 00 00 00 00 00 00 00 00 00 00 00 00 ................
0040DE40 00 00 00 00 00 00 00 00 00 00 00 00 00 00 00 00 ................
0040DE50 00 00 00 00 00 00 00 00 00 00 00 00 00 00 00 00 ................
0040DE60 00 00 00 00 00 00 00 00 00 00 00 00 00 00 00 00 ................
0040DE70 00 00 00 00 00 00 00 00 00 00 00 00 00 00 00 00 ................
0040DE80 00 00 00 00 00 00 00 00 00 00 00 00 00 00 00 00 ................
0040DE90 00 00 00 00 00 00 00 00 00 00 00 00 00 00 00 00 ................
0040DEA0 00 00 00 00 00 00 00 00 00 00 00 00 00 00 00 00 ................
0040DEB0 00 00 00 00 00 00 00 00 00 00 00 00 00 00 00 00 ................
0040DEC0 00 00 00 00 00 00 00 00 00 00 00 00 00 00 00 00 ................
0040DED0 00 00 00 00 00 00 00 00 00 00 00 00 00 00 00 00 ................
0040DEE0 00 00 00 00 00 00 00 00 00 00 00 00 00 00 00 00 ................
0040DEF0 00 00 00 00 00 00 00 00 00 00 00 00 00 00 00 00 ................
0040DF00 00 00 00 00 00 00 00 00 00 00 00 00 00 00 00 00 ................
0040DF10 00 00 00 00 00 00 00 00 00 00 00 00 00 00 00 00 ................
0040DF20 00 00 00 00 00 00 00 00 00 00 00 00 00 00 00 00 ................
0040DF30 00 00 00 00 00 00 00 00 00 00 00 00 00 00 00 00 ................
0040DF40 00 00 00 00 00 00 00 00 00 00 00 00 00 00 00 00 ................
0040DF50 00 00 00 00 00 00 00 00 00 00 00 00 00 00 00 00 ................
0040DF60 00 00 00 00 00 00 00 00 00 00 00 00 00 00 00 00 ................
0040DF70 00 00 00 00 00 00 00 00 00 00 00 00 00 00 00 00 ................
0040DF80 00 00 00 00 00 00 00 00 00 00 00 00 00 00 00 00 ................
0040DF90 00 00 00 00 00 00 00 00 00 00 00 00 00 00 00 00 ................
0040DFA0 00 00 00 00 00 00 00 00 00 00 00 00 00 00 00 00 ................
0040DFB0 00 00 00 00 00 00 00 00 00 00 00 00 00 00 00 00 ................
0040DFC0 00 00 00 00 00 00 00 00 00 00 00 00 00 00 00 00 ................
0040DFD0 00 00 00 00 00 00 00 00 00 00 00 00 00 00 00 00 ................
0040DFE0 00 00 00 00 00 00 00 00 00 00 00 00 00 00 00 00 ................
0040DFF0 00 00 00 00 00 00 00 00 00 00 00 00 00 00 00 00 ................
0040E000 00 00 00 00 00 00 00 00 00 00 00 00 00 00 00 00 ................
0040E010 00 00 00 00 00 00 00 00 00 00 00 00 00 00 00 00 ................
0040E020 00 00 00 00 00 00 00 00 00 00 00 00 00 00 00 00 ................
0040E030 00 00 00 00 00 00 00 00 00 00 00 00 00 00 00 00 ................
0040E040 00 00 00 00 00 00 00 00 00 00 00 00 00 00 00 00 ................
0040E050 00 00 00 00 00 00 00 00 00 00 00 00 00 00 00 00 ................
0040E060 00 00 00 00 00 00 00 00 00 00 00 00 00 00 00 00 ................
0040E070 00 00 00 00 00 00 00 00 00 00 00 00 00 00 00 00 ................
0040E080 00 00 00 00 00 00 00 00 00 00 00 00 00 00 00 00 ................
0040E090 00 00 00 00 00 00 00 00 00 00 00 00 00 00 00 00 ................
0040E0A0 00 00 00 00 00 00 00 00 00 00 00 00 00 00 00 00 ................
0040E0B0 00 00 00 00 00 00 00 00 00 00 00 00 00 00 00 00 ................
0040E0C0 00 00 00 00 00 00 00 00 00 00 00 00 00 00 00 00 ................
0040E0D0 00 00 00 00 00 00 00 00 00 00 00 00 00 00 00 00 ................
0040E0E0 00 00 00 00 00 00 00 00 00 00 00 00 00 00 00 00 ................
0040E0F0 00 00 00 00 00 00 00 00 00 00 00 00 00 00 00 00 ................
0040E100 00 00 00 00 00 00 00 00 00 00 00 00 00 00 00 00 ................
0040E110 00 00 00 00 00 00 00 00 00 00 00 00 00 00 00 00 ................
0040E120 00 00 00 00 00 00 00 00 00 00 00 00 00 00 00 00 ................
0040E130 00 00 00 00 00 00 00 00 00 00 00 00 00 00 00 00 ................
0040E140 00 00 00 00 00 00 00 00 00 00 00 00 00 00 00 00 ................
0040E150 00 00 00 00 00 00 00 00 00 00 00 00 00 00 00 00 ................
0040E160 00 00 00 00 00 00 00 00 00 00 00 00 00 00 00 00 ................
0040E170 00 00 00 00 00 00 00 00 00 00 00 00 00 00 00 00 ................
0040E180 00 00 00 00 00 00 00 00 00 00 00 00 00 00 00 00 ................
0040E190 00 00 00 00 00 00 00 00 00 00 00 00 00 00 00 00 ................
0040E1A0 00 00 00 00 00 00 00 00 00 00 00 00 00 00 00 00 ................
0040E1B0 00 00 00 00 00 00 00 00 00 00 00 00 00 00 00 00 ................
0040E1C0 00 00 00 00 00 00 00 00 00 00 00 00 00 00 00 00 ................
0040E1D0 00 00 00 00 00 00 00 00 00 00 00 00 00 00 00 00 ................
0040E1E0 00 00 00 00 00 00 00 00 00 00 00 00 00 00 00 00 ................
0040E1F0 00 00 00 00 00 00 00 00 00 00 00 00 00 00 00 00 ................
0040E200 00 00 00 00 00 00 00 00 00 00 00 00 00 00 00 00 ................
0040E210 00 00 00 00 00 00 00 00 00 00 00 00 00 00 00 00 ................
0040E220 00 00 00 00 00 00 00 00 00 00 00 00 00 00 00 00 ................
0040E230 00 00 00 00 00 00 00 00 00 00 00 00 00 00 00 00 ................
0040E240 00 00 00 00 00 00 00 00 00 00 00 00 00 00 00 00 ................
0040E250 00 00 00 00 00 00 00 00 00 00 00 00 00 00 00 00 ................
0040E260 00 00 00 00 00 00 00 00 00 00 00 00 00 00 00 00 ................
0040E270 00 00 00 00 00 00 00 00 00 00 00 00 00 00 00 00 ................
0040E280 00 00 00 00 00 00 00 00 00 00 00 00 00 00 00 00 ................
0040E290 00 00 00 00 00 00 00 00 00 00 00 00 00 00 00 00 ................
0040E2A0 00 00 00 00 00 00 00 00 00 00 00 00 00 00 00 00 ................
0040E2B0 00 00 00 00 00 00 00 00 00 00 00 00 00 00 00 00 ................
0040E2C0 00 00 00 00 00 00 00 00 00 00 00 00 00 00 00 00 ................
0040E2D0 00 00 00 00 00 00 00 00 00 00 00 00 00 00 00 00 ................
0040E2E0 00 00 00 00 00 00 00 00 00 00 00 00 00 00 00 00 ................
0040E2F0 00 00 00 00 00 00 00 00 00 00 00 00 00 00 00 00 ................
0040E300 00 00 00 00 00 00 00 00 00 00 00 00 00 00 00 00 ................
0040E310 00 00 00 00 00 00 00 00 00 00 00 00 00 00 00 00 ................
0040E320 00 00 00 00 00 00 00 00 00 00 00 00 00 00 00 00 ................
0040E330 00 00 00 00 00 00 00 00 00 00 00 00 00 00 00 00 ................
0040E340 00 00 00 00 00 00 00 00 00 00 00 00 00 00 00 00 ................
0040E350 00 00 00 00 00 00 00 00 00 00 00 00 00 00 00 00 ................
0040E360 00 00 00 00 00 00 00 00 00 00 00 00 00 00 00 00 ................
0040E370 00 00 00 00 00 00 00 00 00 00 00 00 00 00 00 00 ................
0040E380 00 00 00 00 00 00 00 00 00 00 00 00 00 00 00 00 ................
0040E390 00 00 00 00 00 00 00 00 00 00 00 00 00 00 00 00 ................
0040E3A0 00 00 00 00 00 00 00 00 00 00 00 00 00 00 00 00 ................
0040E3B0 00 00 00 00 00 00 00 00 00 00 00 00 00 00 00 00 ................
0040E3C0 00 00 00 00 00 00 00 00 00 00 00 00 00 00 00 00 ................
0040E3D0 00 00 00 00 00 00 00 00 00 00 00 00 00 00 00 00 ................
0040E3E0 00 00 00 00 00 00 00 00 00 00 00 00 00 00 00 00 ................
0040E3F0 00 00 00 00 00 00 00 00 00 00 00 00 00 00 00 00 ................
0040E400 00 00 00 00 00 00 00 00 00 00 00 00 00 00 00 00 ................
0040E410 00 00 00 00 00 00 00 00 00 00 00 00 00 00 00 00 ................
0040E420 00 00 00 00 00 00 00 00 00 00 00 00 00 00 00 00 ................
0040E430 00 00 00 00 00 00 00 00 00 00 00 00 00 00 00 00 ................
0040E440 00 00 00 00 00 00 00 00 00 00 00 00 00 00 00 00 ................
0040E450 00 00 00 00 00 00 00 00 00 00 00 00 00 00 00 00 ................
0040E460 00 00 00 00 00 00 00 00 00 00 00 00 00 00 00 00 ................
0040E470 00 00 00 00 00 00 00 00 00 00 00 00 00 00 00 00 ................
0040E480 00 00 00 00 00 00 00 00 00 00 00 00 00 00 00 00 ................
0040E490 00 00 00 00 00 00 00 00 00 00 00 00 00 00 00 00 ................
0040E4A0 00 00 00 00 00 00 00 00 00 00 00 00 00 00 00 00 ................
0040E4B0 00 00 00 00 00 00 00 00 00 00 00 00 00 00 00 00 ................
0040E4C0 00 00 00 00 00 00 00 00 00 00 00 00 00 00 00 00 ................
0040E4D0 00 00 00 00 00 00 00 00 00 00 00 00 00 00 00 00 ................
0040E4E0 00 00 00 00 00 00 00 00 00 00 00 00 00 00 00 00 ................
0040E4F0 00 00 00 00 00 00 00 00 00 00 00 00 00 00 00 00 ................
0040E500 00 00 00 00 00 00 00 00 00 00 00 00 00 00 00 00 ................
0040E510 00 00 00 00 00 00 00 00 00 00 00 00 00 00 00 00 ................
0040E520 00 00 00 00 00 00 00 00 00 00 00 00 00 00 00 00 ................
0040E530 00 00 00 00 00 00 00 00 00 00 00 00 00 00 00 00 ................
0040E540 00 00 00 00 00 00 00 00 00 00 00 00 00 00 00 00 ................
0040E550 00 00 00 00 00 00 00 00 00 00 00 00 00 00 00 00 ................
0040E560 00 00 00 00 00 00 00 00 00 00 00 00 00 00 00 00 ................
0040E570 00 00 00 00 00 00 00 00 00 00 00 00 00 00 00 00 ................
0040E580 00 00 00 00 00 00 00 00 00 00 00 00 00 00 00 00 ................
0040E590 00 00 00 00 00 00 00 00 00 00 00 00 00 00 00 00 ................
0040E5A0 00 00 00 00 00 00 00 00 00 00 00 00 00 00 00 00 ................
0040E5B0 00 00 00 00 00 00 00 00 00 00 00 00 00 00 00 00 ................
0040E5C0 00 00 00 00 00 00 00 00 00 00 00 00 00 00 00 00 ................
0040E5D0 00 00 00 00 00 00 00 00 00 00 00 00 00 00 00 00 ................
0040E5E0 00 00 00 00 00 00 00 00 00 00 00 00 00 00 00 00 ................
0040E5F0 00 00 00 00 00 00 00 00 00 00 00 00 00 00 00 00 ................
0040E600 00 00 00 00 00 00 00 00 00 00 00 00 00 00 00 00 ................
0040E610 00 00 00 00 00 00 00 00 00 00 00 00 00 00 00 00 ................
0040E620 00 00 00 00 00 00 00 00 00 00 00 00 00 00 00 00 ................
0040E630 00 00 00 00 00 00 00 00 00 00 00 00 00 00 00 00 ................
0040E640 00 00 00 00 00 00 00 00 00 00 00 00 00 00 00 00 ................
0040E650 00 00 00 00 00 00 00 00 00 00 00 00 00 00 00 00 ................
0040E660 00 00 00 00 00 00 00 00 00 00 00 00 00 00 00 00 ................
0040E670 00 00 00 00 00 00 00 00 00 00 00 00 00 00 00 00 ................
0040E680 00 00 00 00 00 00 00 00 00 00 00 00 00 00 00 00 ................
0040E690 00 00 00 00 00 00 00 00 00 00 00 00 00 00 00 00 ................
0040E6A0 00 00 00 00 00 00 00 00 00 00 00 00 00 00 00 00 ................
0040E6B0 00 00 00 00 00 00 00 00 00 00 00 00 00 00 00 00 ................
0040E6C0 00 00 00 00 00 00 00 00 00 00 00 00 00 00 00 00 ................
0040E6D0 00 00 00 00 00 00 00 00 00 00 00 00 00 00 00 00 ................
0040E6E0 00 00 00 00 00 00 00 00 00 00 00 00 00 00 00 00 ................
0040E6F0 00 00 00 00 00 00 00 00 00 00 00 00 00 00 00 00 ................
0040E700 00 00 00 00 00 00 00 00 00 00 00 00 00 00 00 00 ................
0040E710 00 00 00 00 00 00 00 00 00 00 00 00 00 00 00 00 ................
0040E720 00 00 00 00 00 00 00 00 00 00 00 00 00 00 00 00 ................
0040E730 00 00 00 00 00 00 00 00 00 00 00 00 00 00 00 00 ................
0040E740 00 00 00 00 00 00 00 00 00 00 00 00 00 00 00 00 ................
0040E750 00 00 00 00 00 00 00 00 00 00 00 00 00 00 00 00 ................
0040E760 00 00 00 00 00 00 00 00 00 00 00 00 00 00 00 00 ................
0040E770 00 00 00 00 00 00 00 00 00 00 00 00 00 00 00 00 ................
0040E780 00 00 00 00 00 00 00 00 00 00 00 00 00 00 00 00 ................
0040E790 00 00 00 00 00 00 00 00 00 00 00 00 00 00 00 00 ................
0040E7A0 00 00 00 00 00 00 00 00 00 00 00 00 00 00 00 00 ................
0040E7B0 00 00 00 00 00 00 00 00 00 00 00 00 00 00 00 00 ................
0040E7C0 00 00 00 00 00 00 00 00 00 00 00 00 00 00 00 00 ................
0040E7D0 00 00 00 00 00 00 00 00 00 00 00 00 00 00 00 00 ................
0040E7E0 00 00 00 00 00 00 00 00 00 00 00 00 00 00 00 00 ................
0040E7F0 00 00 00 00 00 00 00 00 00 00 00 00 00 00 00 00 ................
0040E800 00 00 00 00 00 00 00 00 00 00 00 00 00 00 00 00 ................
0040E810 00 00 00 00 00 00 00 00 00 00 00 00 00 00 00 00 ................
0040E820 00 00 00 00 00 00 00 00 00 00 00 00 00 00 00 00 ................
0040E830 00 00 00 00 00 00 00 00 00 00 00 00 00 00 00 00 ................
0040E840 00 00 00 00 00 00 00 00 00 00 00 00 00 00 00 00 ................
0040E850 00 00 00 00 00 00 00 00 00 00 00 00 00 00 00 00 ................
0040E860 00 00 00 00 00 00 00 00 00 00 00 00 00 00 00 00 ................
0040E870 00 00 00 00 00 00 00 00 00 00 00 00 00 00 00 00 ................
0040E880 00 00 00 00 00 00 00 00 00 00 00 00 00 00 00 00 ................
0040E890 00 00 00 00 00 00 00 00 00 00 00 00 00 00 00 00 ................
0040E8A0 00 00 00 00 00 00 00 00 00 00 00 00 00 00 00 00 ................
0040E8B0 00 00 00 00 00 00 00 00 00 00 00 00 00 00 00 00 ................
0040E8C0 00 00 00 00 00 00 00 00 00 00 00 00 00 00 00 00 ................
0040E8D0 00 00 00 00 00 00 00 00 00 00 00 00 00 00 00 00 ................
0040E8E0 00 00 00 00 00 00 00 00 00 00 00 00 00 00 00 00 ................
0040E8F0 00 00 00 00 00 00 00 00 00 00 00 00 00 00 00 00 ................
0040E900 00 00 00 00 00 00 00 00 00 00 00 00 00 00 00 00 ................
0040E910 00 00 00 00 00 00 00 00 00 00 00 00 00 00 00 00 ................
0040E920 00 00 00 00 00 00 00 00 00 00 00 00 00 00 00 00 ................
0040E930 00 00 00 00 00 00 00 00 00 00 00 00 00 00 00 00 ................
0040E940 00 00 00 00 00 00 00 00 00 00 00 00 00 00 00 00 ................
0040E950 00 00 00 00 00 00 00 00 00 00 00 00 00 00 00 00 ................
0040E960 00 00 00 00 00 00 00 00 00 00 00 00 00 00 00 00 ................
0040E970 00 00 00 00 00 00 00 00 00 00 00 00 00 00 00 00 ................
0040E980 00 00 00 00 00 00 00 00 00 00 00 00 00 00 00 00 ................
0040E990 00 00 00 00 00 00 00 00 00 00 00 00 00 00 00 00 ................
0040E9A0 00 00 00 00 00 00 00 00 00 00 00 00 00 00 00 00 ................
0040E9B0 00 00 00 00 00 00 00 00 00 00 00 00 00 00 00 00 ................
0040E9C0 00 00 00 00 00 00 00 00 00 00 00 00 00 00 00 00 ................
0040E9D0 00 00 00 00 00 00 00 00 00 00 00 00 00 00 00 00 ................
0040E9E0 00 00 00 00 00 00 00 00 00 00 00 00 00 00 00 00 ................
0040E9F0 00 00 00 00 00 00 00 00 00 00 00 00 00 00 00 00 ................
0040EA00 00 00 00 00 00 00 00 00 00 00 00 00 00 00 00 00 ................
0040EA10 00 00 00 00 00 00 00 00 00 00 00 00 00 00 00 00 ................
0040EA20 00 00 00 00 00 00 00 00 00 00 00 00 00 00 00 00 ................
0040EA30 00 00 00 00 00 00 00 00 00 00 00 00 00 00 00 00 ................
0040EA40 00 00 00 00 00 00 00 00 00 00 00 00 00 00 00 00 ................
0040EA50 00 00 00 00 00 00 00 00 00 00 00 00 00 00 00 00 ................
0040EA60 00 00 00 00 00 00 00 00 00 00 00 00 00 00 00 00 ................
0040EA70 00 00 00 00 00 00 00 00 00 00 00 00 00 00 00 00 ................
0040EA80 00 00 00 00 00 00 00 00 00 00 00 00 00 00 00 00 ................
0040EA90 00 00 00 00 00 00 00 00 00 00 00 00 00 00 00 00 ................
0040EAA0 00 00 00 00 00 00 00 00 00 00 00 00 00 00 00 00 ................
0040EAB0 00 00 00 00 00 00 00 00 00 00 00 00 00 00 00 00 ................
0040EAC0 00 00 00 00 00 00 00 00 00 00 00 00 00 00 00 00 ................
0040EAD0 00 00 00 00 00 00 00 00 00 00 00 00 00 00 00 00 ................
0040EAE0 00 00 00 00 00 00 00 00 00 00 00 00 00 00 00 00 ................
0040EAF0 00 00 00 00 00 00 00 00 00 00 00 00 00 00 00 00 ................
0040EB00 00 00 00 00 00 00 00 00 00 00 00 00 00 00 00 00 ................
0040EB10 00 00 00 00 00 00 00 00 00 00 00 00 00 00 00 00 ................
0040EB20 00 00 00 00 00 00 00 00 00 00 00 00 00 00 00 00 ................
0040EB30 00 00 00 00 00 00 00 00 00 00 00 00 00 00 00 00 ................
0040EB40 00 00 00 00 00 00 00 00 00 00 00 00 00 00 00 00 ................
0040EB50 00 00 00 00 00 00 00 00 00 00 00 00 00 00 00 00 ................
0040EB60 00 00 00 00 00 00 00 00 00 00 00 00 00 00 00 00 ................
0040EB70 00 00 00 00 00 00 00 00 00 00 00 00 00 00 00 00 ................
0040EB80 00 00 00 00 00 00 00 00 00 00 00 00 00 00 00 00 ................
0040EB90 00 00 00 00 00 00 00 00 00 00 00 00 00 00 00 00 ................
0040EBA0 00 00 00 00 00 00 00 00 00 00 00 00 00 00 00 00 ................
0040EBB0 00 00 00 00 00 00 00 00 00 00 00 00 00 00 00 00 ................
0040EBC0 00 00 00 00 00 00 00 00 00 00 00 00 00 00 00 00 ................
0040EBD0 00 00 00 00 00 00 00 00 00 00 00 00 00 00 00 00 ................
0040EBE0 00 00 00 00 00 00 00 00 00 00 00 00 00 00 00 00 ................
0040EBF0 00 00 00 00 00 00 00 00 00 00 00 00 00 00 00 00 ................
0040EC00 00 00 00 00 00 00 00 00 00 00 00 00 00 00 00 00 ................
0040EC10 00 00 00 00 00 00 00 00 00 00 00 00 00 00 00 00 ................
0040EC20 00 00 00 00 00 00 00 00 00 00 00 00 00 00 00 00 ................
0040EC30 00 00 00 00 00 00 00 00 00 00 00 00 00 00 00 00 ................
0040EC40 00 00 00 00 00 00 00 00 00 00 00 00 00 00 00 00 ................
0040EC50 00 00 00 00 00 00 00 00 00 00 00 00 00 00 00 00 ................
0040EC60 00 00 00 00 00 00 00 00 00 00 00 00 00 00 00 00 ................
0040EC70 00 00 00 00 00 00 00 00 00 00 00 00 00 00 00 00 ................
0040EC80 00 00 00 00 00 00 00 00 00 00 00 00 00 00 00 00 ................
0040EC90 00 00 00 00 00 00 00 00 00 00 00 00 00 00 00 00 ................
0040ECA0 00 00 00 00 00 00 00 00 00 00 00 00 00 00 00 00 ................
0040ECB0 00 00 00 00 00 00 00 00 00 00 00 00 00 00 00 00 ................
0040ECC0 00 00 00 00 00 00 00 00 00 00 00 00 00 00 00 00 ................
0040ECD0 00 00 00 00 00 00 00 00 00 00 00 00 00 00 00 00 ................
0040ECE0 00 00 00 00 00 00 00 00 00 00 00 00 00 00 00 00 ................
0040ECF0 00 00 00 00 00 00 00 00 00 00 00 00 00 00 00 00 ................
0040ED00 00 00 00 00 00 00 00 00 00 00 00 00 00 00 00 00 ................
0040ED10 00 00 00 00 00 00 00 00 00 00 00 00 00 00 00 00 ................
0040ED20 00 00 00 00 00 00 00 00 00 00 00 00 00 00 00 00 ................
0040ED30 00 00 00 00 00 00 00 00 00 00 00 00 00 00 00 00 ................
0040ED40 00 00 00 00 00 00 00 00 00 00 00 00 00 00 00 00 ................
0040ED50 00 00 00 00 00 00 00 00 00 00 00 00 00 00 00 00 ................
0040ED60 00 00 00 00 00 00 00 00 00 00 00 00 00 00 00 00 ................
0040ED70 00 00 00 00 00 00 00 00 00 00 00 00 00 00 00 00 ................
0040ED80 00 00 00 00 00 00 00 00 00 00 00 00 00 00 00 00 ................
0040ED90 00 00 00 00 00 00 00 00 00 00 00 00 00 00 00 00 ................
0040EDA0 00 00 00 00 00 00 00 00 00 00 00 00 00 00 00 00 ................
0040EDB0 00 00 00 00 00 00 00 00 00 00 00 00 00 00 00 00 ................
0040EDC0 00 00 00 00 00 00 00 00 00 00 00 00 00 00 00 00 ................
0040EDD0 00 00 00 00 00 00 00 00 00 00 00 00 00 00 00 00 ................
0040EDE0 00 00 00 00 00 00 00 00 00 00 00 00 00 00 00 00 ................
0040EDF0 00 00 00 00 00 00 00 00 00 00 00 00 00 00 00 00 ................
0040EE00 00 00 00 00 00 00 00 00 00 00 00 00 00 00 00 00 ................
0040EE10 00 00 00 00 00 00 00 00 00 00 00 00 00 00 00 00 ................
0040EE20 00 00 00 00 00 00 00 00 00 00 00 00 00 00 00 00 ................
0040EE30 00 00 00 00 00 00 00 00 00 00 00 00 00 00 00 00 ................
0040EE40 00 00 00 00 00 00 00 00 00 00 00 00 00 00 00 00 ................
0040EE50 00 00 00 00 00 00 00 00 00 00 00 00 00 00 00 00 ................
0040EE60 00 00 00 00 00 00 00 00 00 00 00 00 00 00 00 00 ................
0040EE70 00 00 00 00 00 00 00 00 00 00 00 00 00 00 00 00 ................
0040EE80 00 00 00 00 00 00 00 00 00 00 00 00 00 00 00 00 ................
0040EE90 00 00 00 00 00 00 00 00 00 00 00 00 00 00 00 00 ................
0040EEA0 00 00 00 00 00 00 00 00 00 00 00 00 00 00 00 00 ................
0040EEB0 00 00 00 00 00 00 00 00 00 00 00 00 00 00 00 00 ................
0040EEC0 00 00 00 00 00 00 00 00 00 00 00 00 00 00 00 00 ................
0040EED0 00 00 00 00 00 00 00 00 00 00 00 00 00 00 00 00 ................
0040EEE0 00 00 00 00 00 00 00 00 00 00 00 00 00 00 00 00 ................
0040EEF0 00 00 00 00 00 00 00 00 00 00 00 00 00 00 00 00 ................
0040EF00 00 00 00 00 00 00 00 00 00 00 00 00 00 00 00 00 ................
0040EF10 00 00 00 00 00 00 00 00 00 00 00 00 00 00 00 00 ................
0040EF20 00 00 00 00 00 00 00 00 00 00 00 00 00 00 00 00 ................
0040EF30 00 00 00 00 00 00 00 00 00 00 00 00 00 00 00 00 ................
0040EF40 00 00 00 00 00 00 00 00 00 00 00 00 00 00 00 00 ................
0040EF50 00 00 00 00 00 00 00 00 00 00 00 00 00 00 00 00 ................
0040EF60 00 00 00 00 00 00 00 00 00 00 00 00 00 00 00 00 ................
0040EF70 00 00 00 00 00 00 00 00 00 00 00 00 00 00 00 00 ................
0040EF80 00 00 00 00 00 00 00 00 00 00 00 00 00 00 00 00 ................
0040EF90 00 00 00 00 00 00 00 00 00 00 00 00 00 00 00 00 ................
0040EFA0 00 00 00 00 00 00 00 00 00 00 00 00 00 00 00 00 ................
0040EFB0 00 00 00 00 00 00 00 00 00 00 00 00 00 00 00 00 ................
0040EFC0 00 00 00 00 00 00 00 00 00 00 00 00 00 00 00 00 ................
0040EFD0 00 00 00 00 00 00 00 00 00 00 00 00 00 00 00 00 ................
0040EFE0 00 00 00 00 00 00 00 00 00 00 00 00 00 00 00 00 ................
0040EFF0 00 00 00 00 00 00 00 00 00 00 00 00 00 00 00 00 ................
0040F000 18 F3 00 00 30 F3 00 00 40 F3 00 00 4C F3 00 00 ....0...@...L...
0040F010 62 F3 00 00 74 F3 00 00 84 F3 00 00 98 F3 00 00 b...t...........
0040F020 A4 F3 00 00 B0 F3 00 00 BE F3 00 00 D4 F3 00 00 ................
0040F030 E4 F3 00 00 F2 F3 00 00 FE F3 00 00 10 F4 00 00 ................
0040F040 26 F4 00 00 34 F4 00 00 44 F4 00 00 52 F4 00 00 &...4...D...R...
0040F050 5E F4 00 00 72 F4 00 00 7E F4 00 00 8E F4 00 00 ^...r...~.......
0040F060 A0 F4 00 00 B6 F4 00 00 D2 F4 00 00 DE F4 00 00 ................
0040F070 EA F4 00 00 F6 F4 00 00 08 F5 00 00 18 F5 00 00 ................
0040F080 26 F5 00 00 3C F5 00 00 4C F5 00 00 5C F5 00 00 &...<...L...\...
0040F090 68 F5 00 00 76 F5 00 00 82 F5 00 00 98 F5 00 00 h...v...........
0040F0A0 A4 F5 00 00 B0 F5 00 00 C4 F5 00 00 D0 F5 00 00 ................
0040F0B0 DE F5 00 00 F8 F5 00 00 08 F6 00 00 22 F6 00 00 ............"...
0040F0C0 38 F6 00 00 00 00 00 00 56 F6 00 00 6E F6 00 00 8.......V...n...
0040F0D0 7C F6 00 00 8A F6 00 00 96 F6 00 00 A8 F6 00 00 |...............
0040F0E0 BA F6 00 00 CA F6 00 00 D8 F6 00 00 EC F6 00 00 ................
0040F0F0 FA F6 00 00 0E F7 00 00 22 F7 00 00 30 F7 00 00 ........"...0...
0040F100 46 F7 00 00 5A F7 00 00 6A F7 00 00 78 F7 00 00 F...Z...j...x...
0040F110 84 F7 00 00 90 F7 00 00 A6 F7 00 00 B6 F7 00 00 ................
0040F120 CA F7 00 00 D2 F7 00 00 E4 F7 00 00 F0 F7 00 00 ................
0040F130 FC F7 00 00 0E F8 00 00 1A F8 00 00 2E F8 00 00 ................
0040F140 3E F8 00 00 4C F8 00 00 5E F8 00 00 6A F8 00 00 >...L...^...j...
0040F150 7A F8 00 00 8A F8 00 00 9E F8 00 00 AA F8 00 00 z...............
0040F160 B6 F8 00 00 C8 F8 00 00 00 00 00 00 00 00 00 00 ................
0040F170 AC F1 00 00 00 00 00 00 00 00 00 00 48 F6 00 00 ............H...
0040F180 00 F0 00 00 74 F2 00 00 00 00 00 00 00 00 00 00 ....t...........
0040F190 D6 F8 00 00 C8 F0 00 00 00 00 00 00 00 00 00 00 ................
0040F1A0 00 00 00 00 00 00 00 00 00 00 00 00 18 F3 00 00 ................
0040F1B0 30 F3 00 00 40 F3 00 00 4C F3 00 00 62 F3 00 00 0...@...L...b...
0040F1C0 74 F3 00 00 84 F3 00 00 98 F3 00 00 A4 F3 00 00 t...............
0040F1D0 B0 F3 00 00 BE F3 00 00 D4 F3 00 00 E4 F3 00 00 ................
0040F1E0 F2 F3 00 00 FE F3 00 00 10 F4 00 00 26 F4 00 00 ............&...
0040F1F0 34 F4 00 00 44 F4 00 00 52 F4 00 00 5E F4 00 00 4...D...R...^...
0040F200 72 F4 00 00 7E F4 00 00 8E F4 00 00 A0 F4 00 00 r...~...........
0040F210 B6 F4 00 00 D2 F4 00 00 DE F4 00 00 EA F4 00 00 ................
0040F220 F6 F4 00 00 08 F5 00 00 18 F5 00 00 26 F5 00 00 ............&...
0040F230 3C F5 00 00 4C F5 00 00 5C F5 00 00 68 F5 00 00 <...L...\...h...
0040F240 76 F5 00 00 82 F5 00 00 98 F5 00 00 A4 F5 00 00 v...............
0040F250 B0 F5 00 00 C4 F5 00 00 D0 F5 00 00 DE F5 00 00 ................
0040F260 F8 F5 00 00 08 F6 00 00 22 F6 00 00 38 F6 00 00 ........"...8...
0040F270 00 00 00 00 56 F6 00 00 6E F6 00 00 7C F6 00 00 ....V...n...|...
0040F280 8A F6 00 00 96 F6 00 00 A8 F6 00 00 BA F6 00 00 ................
0040F290 CA F6 00 00 D8 F6 00 00 EC F6 00 00 FA F6 00 00 ................
0040F2A0 0E F7 00 00 22 F7 00 00 30 F7 00 00 46 F7 00 00 ...."...0...F...
0040F2B0 5A F7 00 00 6A F7 00 00 78 F7 00 00 84 F7 00 00 Z...j...x.......
0040F2C0 90 F7 00 00 A6 F7 00 00 B6 F7 00 00 CA F7 00 00 ................
0040F2D0 D2 F7 00 00 E4 F7 00 00 F0 F7 00 00 FC F7 00 00 ................
0040F2E0 0E F8 00 00 1A F8 00 00 2E F8 00 00 3E F8 00 00 ............>...
0040F2F0 4C F8 00 00 5E F8 00 00 6A F8 00 00 7A F8 00 00 L...^...j...z...
0040F300 8A F8 00 00 9E F8 00 00 AA F8 00 00 B6 F8 00 00 ................
0040F310 C8 F8 00 00 00 00 00 00 11 00 44 65 6C 65 74 65 ..........Delete
0040F320 43 72 69 74 69 63 61 6C 53 65 63 74 69 6F 6E 00 CriticalSection.
0040F330 14 00 56 69 72 74 75 61 6C 41 6C 6C 6F 63 00 00 ..VirtualAlloc..
0040F340 19 00 6C 73 74 72 6C 65 6E 57 00 00 1C 00 57 69 ..lstrlenW....Wi
0040F350 64 65 43 68 61 72 54 6F 4D 75 6C 74 69 42 79 74 deCharToMultiByt
0040F360 65 00 22 00 53 65 74 46 69 6C 65 50 6F 69 6E 74 e.".SetFilePoint
0040F370 65 72 00 00 28 00 43 72 65 61 74 65 54 68 72 65 er..(.CreateThre
0040F380 61 64 00 00 2C 00 47 65 74 4D 6F 64 75 6C 65 48 ad..,.GetModuleH
0040F390 61 6E 64 6C 65 41 00 00 2D 00 6C 73 74 72 63 6D andleA..-.lstrcm
0040F3A0 70 69 57 00 31 00 48 65 61 70 41 6C 6C 6F 63 00 piW.1.HeapAlloc.
0040F3B0 35 00 46 72 65 65 4C 69 62 72 61 72 79 00 38 00 5.FreeLibrary.8.
0040F3C0 4D 75 6C 74 69 42 79 74 65 54 6F 57 69 64 65 43 MultiByteToWideC
0040F3D0 68 61 72 00 3E 00 56 69 72 74 75 61 6C 41 6C 6C har.>.VirtualAll
0040F3E0 6F 63 00 00 40 00 46 72 65 65 4C 69 62 72 61 72 oc..@.FreeLibrar
0040F3F0 79 00 42 00 52 65 61 64 46 69 6C 65 00 00 45 00 y.B.ReadFile..E.
0040F400 47 65 74 43 6F 6D 6D 61 6E 64 4C 69 6E 65 41 00 GetCommandLineA.
0040F410 4A 00 57 69 64 65 43 68 61 72 54 6F 4D 75 6C 74 J.WideCharToMult
0040F420 69 42 79 74 65 00 50 00 56 69 72 74 75 61 6C 46 iByte.P.VirtualF
0040F430 72 65 65 00 56 00 56 69 72 74 75 61 6C 41 6C 6C ree.V.VirtualAll
0040F440 6F 63 00 00 59 00 46 72 65 65 4C 69 62 72 61 72 oc..Y.FreeLibrar
0040F450 79 00 5A 00 48 65 61 70 46 72 65 65 00 00 60 00 y.Z.HeapFree..`.
0040F460 47 65 74 4D 6F 64 75 6C 65 48 61 6E 64 6C 65 57 GetModuleHandleW
0040F470 00 00 66 00 57 72 69 74 65 46 69 6C 65 00 68 00 ..f.WriteFile.h.
0040F480 56 69 72 74 75 61 6C 41 6C 6C 6F 63 00 00 6E 00 VirtualAlloc..n.
0040F490 47 65 74 43 6F 6D 6D 61 6E 64 4C 69 6E 65 57 00 GetCommandLineW.
0040F4A0 72 00 47 65 74 43 75 72 72 65 6E 74 50 72 6F 63 r.GetCurrentProc
0040F4B0 65 73 73 49 64 00 76 00 55 6E 68 61 6E 64 6C 65 essId.v.Unhandle
0040F4C0 64 45 78 63 65 70 74 69 6F 6E 46 69 6C 74 65 72 dExceptionFilter
0040F4D0 00 00 77 00 53 65 74 45 76 65 6E 74 00 00 78 00 ..w.SetEvent..x.
0040F4E0 48 65 61 70 46 72 65 65 00 00 7D 00 6C 73 74 72 HeapFree..}.lstr
0040F4F0 6C 65 6E 57 00 00 82 00 47 65 74 53 74 61 72 74 lenW....GetStart
0040F500 75 70 49 6E 66 6F 57 00 83 00 4C 6F 61 64 4C 69 upInfoW...LoadLi
0040F510 62 72 61 72 79 41 00 00 84 00 48 65 61 70 52 65 braryA....HeapRe
0040F520 41 6C 6C 6F 63 00 85 00 47 65 74 43 75 72 72 65 Alloc...GetCurre
0040F530 6E 74 50 72 6F 63 65 73 73 49 64 00 88 00 56 69 ntProcessId...Vi
0040F540 72 74 75 61 6C 41 6C 6C 6F 63 00 00 8B 00 4C 6F rtualAlloc....Lo
0040F550 61 64 4C 69 62 72 61 72 79 41 00 00 91 00 53 65 adLibraryA....Se
0040F560 74 45 76 65 6E 74 00 00 93 00 43 72 65 61 74 65 tEvent....Create
0040F570 46 69 6C 65 57 00 98 00 53 65 74 45 76 65 6E 74 FileW...SetEvent
0040F580 00 00 9C 00 57 61 69 74 46 6F 72 53 69 6E 67 6C ....WaitForSingl
0040F590 65 4F 62 6A 65 63 74 00 9F 00 48 65 61 70 46 72 eObject...HeapFr
0040F5A0 65 65 00 00 A0 00 57 72 69 74 65 46 69 6C 65 00 ee....WriteFile.
0040F5B0 A4 00 54 65 72 6D 69 6E 61 74 65 50 72 6F 63 65 ..TerminateProce
0040F5C0 73 73 00 00 A7 00 48 65 61 70 46 72 65 65 00 00 ss....HeapFree..
0040F5D0 AC 00 48 65 61 70 52 65 41 6C 6C 6F 63 00 B2 00 ..HeapReAlloc...
0040F5E0 51 75 65 72 79 50 65 72 66 6F 72 6D 61 6E 63 65 QueryPerformance
0040F5F0 43 6F 75 6E 74 65 72 00 B4 00 56 69 72 74 75 61 Counter...Virtua
0040F600 6C 41 6C 6C 6F 63 00 00 B5 00 51 75 65 72 79 50 lAlloc....QueryP
0040F610 65 72 66 6F 72 6D 61 6E 63 65 43 6F 75 6E 74 65 erformanceCounte
0040F620 72 00 BB 00 4D 75 6C 74 69 42 79 74 65 54 6F 57 r...MultiByteToW
0040F630 69 64 65 43 68 61 72 00 C0 00 56 69 72 74 75 61 ideChar...Virtua
0040F640 6C 41 6C 6C 6F 63 00 00 4B 45 52 4E 45 4C 33 32 lAlloc..KERNEL32
0040F650 2E 44 4C 4C 00 00 16 00 53 79 73 74 65 6D 50 61 .DLL....SystemPa
0040F660 72 61 6D 65 74 65 72 73 49 6E 66 6F 57 00 18 00 rametersInfoW...
0040F670 4F 66 66 73 65 74 52 65 63 74 00 00 1D 00 47 65 OffsetRect....Ge
0040F680 74 4D 65 73 73 61 67 65 57 00 21 00 44 72 61 77 tMessageW.!.Draw
0040F690 54 65 78 74 57 00 22 00 45 6E 61 62 6C 65 4D 65 TextW.".EnableMe
0040F6A0 6E 75 49 74 65 6D 00 00 23 00 47 65 74 57 69 6E nuItem..#.GetWin
0040F6B0 64 6F 77 4C 6F 6E 67 57 00 00 28 00 47 65 74 57 dowLongW..(.GetW
0040F6C0 69 6E 64 6F 77 52 65 63 74 00 2C 00 4D 65 73 73 indowRect.,.Mess
0040F6D0 61 67 65 42 65 65 70 00 30 00 47 65 74 53 79 73 ageBeep.0.GetSys
0040F6E0 74 65 6D 4D 65 74 72 69 63 73 00 00 32 00 46 69 temMetrics..2.Fi
0040F6F0 6E 64 57 69 6E 64 6F 77 57 00 33 00 44 69 73 70 ndWindowW.3.Disp
0040F700 61 74 63 68 4D 65 73 73 61 67 65 41 00 00 39 00 atchMessageA..9.
0040F710 49 73 44 69 61 6C 6F 67 4D 65 73 73 61 67 65 57 IsDialogMessageW
0040F720 00 00 3E 00 47 65 74 53 79 73 43 6F 6C 6F 72 00 ..>.GetSysColor.
0040F730 42 00 53 65 74 46 6F 72 65 67 72 6F 75 6E 64 57 B.SetForegroundW
0040F740 69 6E 64 6F 77 00 46 00 54 72 61 6E 73 6C 61 74 indow.F.Translat
0040F750 65 4D 65 73 73 61 67 65 00 00 4A 00 44 65 73 74 eMessage..J.Dest
0040F760 72 6F 79 57 69 6E 64 6F 77 00 50 00 47 65 74 4D royWindow.P.GetM
0040F770 65 73 73 61 67 65 57 00 53 00 4C 6F 61 64 49 63 essageW.S.LoadIc
0040F780 6F 6E 57 00 57 00 49 73 49 63 6F 6E 69 63 00 00 onW.W.IsIconic..
0040F790 58 00 43 72 65 61 74 65 44 69 61 6C 6F 67 50 61 X.CreateDialogPa
0040F7A0 72 61 6D 57 00 00 5E 00 50 6F 73 74 4D 65 73 73 ramW..^.PostMess
0040F7B0 61 67 65 57 00 00 61 00 52 65 67 69 73 74 65 72 ageW..a.Register
0040F7C0 43 6C 61 73 73 45 78 57 00 00 64 00 47 65 74 44 ClassExW..d.GetD
0040F7D0 43 00 67 00 43 68 65 63 6B 44 6C 67 42 75 74 74 C.g.CheckDlgButt
0040F7E0 6F 6E 00 00 6A 00 43 6F 70 79 52 65 63 74 00 00 on..j.CopyRect..
0040F7F0 70 00 4B 69 6C 6C 54 69 6D 65 72 00 74 00 50 6F p.KillTimer.t.Po
0040F800 73 74 51 75 69 74 4D 65 73 73 61 67 65 00 76 00 stQuitMessage.v.
0040F810 77 73 70 72 69 6E 74 66 41 00 79 00 54 72 61 6E wsprintfA.y.Tran
0040F820 73 6C 61 74 65 4D 65 73 73 61 67 65 00 00 7C 00 slateMessage..|.
0040F830 44 65 73 74 72 6F 79 57 69 6E 64 6F 77 00 80 00 DestroyWindow...
0040F840 4C 6F 61 64 43 75 72 73 6F 72 57 00 83 00 47 65 LoadCursorW...Ge
0040F850 74 57 69 6E 64 6F 77 4C 6F 6E 67 57 00 00 85 00 tWindowLongW....
0040F860 45 6E 64 50 61 69 6E 74 00 00 86 00 47 65 74 43 EndPaint....GetC
0040F870 6C 69 65 6E 74 52 65 63 74 00 8A 00 47 65 74 57 lientRect...GetW
0040F880 69 6E 64 6F 77 52 65 63 74 00 8D 00 47 65 74 44 indowRect...GetD
0040F890 65 73 6B 74 6F 70 57 69 6E 64 6F 77 00 00 8E 00 esktopWindow....
0040F8A0 77 73 70 72 69 6E 74 66 57 00 92 00 52 65 6C 65 wsprintfW...Rele
0040F8B0 61 73 65 44 43 00 95 00 49 6E 76 61 6C 69 64 61 aseDC...Invalida
0040F8C0 74 65 52 65 63 74 00 00 9B 00 46 69 6E 64 57 69 teRect....FindWi
0040F8D0 6E 64 6F 77 57 00 55 53 45 52 33 32 2E 44 4C 4C ndowW.USER32.DLL
0040F8E0 00 00 00 00 00 00 00 00 00 00 00 00 00 00 00 00 ................
0040F8F0 00 00 00 00 00 00 00 00 00 00 00 00 00 00 00 00 ................
0040F900 00 00 00 00 00 00 00 00 00 00 00 00 00 00 00 00 ................
0040F910 00 00 00 00 00 00 00 00 00 00 00 00 00 00 00 00 ................
0040F920 00 00 00 00 00 00 00 00 00 00 00 00 00 00 00 00 ................
0040F930 00 00 00 00 00 00 00 00 00 00 00 00 00 00 00 00 ................
0040F940 00 00 00 00 00 00 00 00 00 00 00 00 00 00 00 00 ................
0040F950 00 00 00 00 00 00 00 00 00 00 00 00 00 00 00 00 ................
0040F960 00 00 00 00 00 00 00 00 00 00 00 00 00 00 00 00 ................
0040F970 00 00 00 00 00 00 00 00 00 00 00 00 00 00 00 00 ................
0040F980 00 00 00 00 00 00 00 00 00 00 00 00 00 00 00 00 ................
0040F990 00 00 00 00 00 00 00 00 00 00 00 00 00 00 00 00 ................
0040F9A0 00 00 00 00 00 00 00 00 00 00 00 00 00 00 00 00 ................
0040F9B0 00 00 00 00 00 00 00 00 00 00 00 00 00 00 00 00 ................
0040F9C0 00 00 00 00 00 00 00 00 00 00 00 00 00 00 00 00 ................
0040F9D0 00 00 00 00 00 00 00 00 00 00 00 00 00 00 00 00 ................
0040F9E0 00 00 00 00 00 00 00 00 00 00 00 00 00 00 00 00 ................
0040F9F0 00 00 00 00 00 00 00 00 00 00 00 00 00 00 00 00 ................
0040FA00 00 00 00 00 00 00 00 00 00 00 00 00 00 00 00 00 ................
0040FA10 00 00 00 00 00 00 00 00 00 00 00 00 00 00 00 00 ................
0040FA20 00 00 00 00 00 00 00 00 00 00 00 00 00 00 00 00 ................
0040FA30 00 00 00 00 00 00 00 00 00 00 00 00 00 00 00 00 ................
0040FA40 00 00 00 00 00 00 00 00 00 00 00 00 00 00 00 00 ................
0040FA50 00 00 00 00 00 00 00 00 00 00 00 00 00 00 00 00 ................
0040FA60 00 00 00 00 00 00 00 00 00 00 00 00 00 00 00 00 ................
0040FA70 00 00 00 00 00 00 00 00 00 00 00 00 00 00 00 00 ................
0040FA80 00 00 00 00 00 00 00 00 00 00 00 00 00 00 00 00 ................
0040FA90 00 00 00 00 00 00 00 00 00 00 00 00 00 00 00 00 ................
0040FAA0 00 00 00 00 00 00 00 00 00 00 00 00 00 00 00 00 ................
0040FAB0 00 00 00 00 00 00 00 00 00 00 00 00 00 00 00 00 ................
0040FAC0 00 00 00 00 00 00 00 00 00 00 00 00 00 00 00 00 ................
0040FAD0 00 00 00 00 00 00 00 00 00 00 00 00 00 00 00 00 ................
0040FAE0 00 00 00 00 00 00 00 00 00 00 00 00 00 00 00 00 ................
0040FAF0 00 00 00 00 00 00 00 00 00 00 00 00 00 00 00 00 ................
0040FB00 00 00 00 00 00 00 00 00 00 00 00 00 00 00 00 00 ................
0040FB10 00 00 00 00 00 00 00 00 00 00 00 00 00 00 00 00 ................
0040FB20 00 00 00 00 00 00 00 00 00 00 00 00 00 00 00 00 ................
0040FB30 00 00 00 00 00 00 00 00 00 00 00 00 00 00 00 00 ................
0040FB40 00 00 00 00 00 00 00 00 00 00 00 00 00 00 00 00 ................
0040FB50 00 00 00 00 00 00 00 00 00 00 00 00 00 00 00 00 ................
0040FB60 00 00 00 00 00 00 00 00 00 00 00 00 00 00 00 00 ................
0040FB70 00 00 00 00 00 00 00 00 00 00 00 00 00 00 00 00 ................
0040FB80 00 00 00 00 00 00 00 00 00 00 00 00 00 00 00 00 ................
0040FB90 00 00 00 00 00 00 00 00 00 00 00 00 00 00 00 00 ................
0040FBA0 00 00 00 00 00 00 00 00 00 00 00 00 00 00 00 00 ................
0040FBB0 00 00 00 00 00 00 00 00 00 00 00 00 00 00 00 00 ................
0040FBC0 00 00 00 00 00 00 00 00 00 00 00 00 00 00 00 00 ................
0040FBD0 00 00 00 00 00 00 00 00 00 00 00 00 00 00 00 00 ................
0040FBE0 00 00 00 00 00 00 00 00 00 00 00 00 00 00 00 00 ................
0040FBF0 00 00 00 00 00 00 00 00 00 00 00 00 00 00 00 00 ................
0040FC00 00 00 00 00 00 00 00 00 00 00 00 00 00 00 00 00 ................
0040FC10 00 00 00 00 00 00 00 00 00 00 00 00 00 00 00 00 ................
0040FC20 00 00 00 00 00 00 00 00 00 00 00 00 00 00 00 00 ................
0040FC30 00 00 00 00 00 00 00 00 00 00 00 00 00 00 00 00 ................
0040FC40 00 00 00 00 00 00 00 00 00 00 00 00 00 00 00 00 ................
0040FC50 00 00 00 00 00 00 00 00 00 00 00 00 00 00 00 00 ................
0040FC60 00 00 00 00 00 00 00 00 00 00 00 00 00 00 00 00 ................
0040FC70 00 00 00 00 00 00 00 00 00 00 00 00 00 00 00 00 ................
0040FC80 00 00 00 00 00 00 00 00 00 00 00 00 00 00 00 00 ................
0040FC90 00 00 00 00 00 00 00 00 00 00 00 00 00 00 00 00 ................
0040FCA0 00 00 00 00 00 00 00 00 00 00 00 00 00 00 00 00 ................
0040FCB0 00 00 00 00 00 00 00 00 00 00 00 00 00 00 00 00 ................
0040FCC0 00 00 00 00 00 00 00 00 00 00 00 00 00 00 00 00 ................
0040FCD0 00 00 00 00 00 00 00 00 00 00 00 00 00 00 00 00 ................
0040FCE0 00 00 00 00 00 00 00 00 00 00 00 00 00 00 00 00 ................
0040FCF0 00 00 00 00 00 00 00 00 00 00 00 00 00 00 00 00 ................
0040FD00 00 00 00 00 00 00 00 00 00 00 00 00 00 00 00 00 ................
0040FD10 00 00 00 00 00 00 00 00 00 00 00 00 00 00 00 00 ................
0040FD20 00 00 00 00 00 00 00 00 00 00 00 00 00 00 00 00 ................
0040FD30 00 00 00 00 00 00 00 00 00 00 00 00 00 00 00 00 ................
0040FD40 00 00 00 00 00 00 00 00 00 00 00 00 00 00 00 00 ................
0040FD50 00 00 00 00 00 00 00 00 00 00 00 00 00 00 00 00 ................
0040FD60 00 00 00 00 00 00 00 00 00 00 00 00 00 00 00 00 ................
0040FD70 00 00 00 00 00 00 00 00 00 00 00 00 00 00 00 00 ................
0040FD80 00 00 00 00 00 00 00 00 00 00 00 00 00 00 00 00 ................
0040FD90 00 00 00 00 00 00 00 00 00 00 00 00 00 00 00 00 ................
0040FDA0 00 00 00 00 00 00 00 00 00 00 00 00 00 00 00 00 ................
0040FDB0 00 00 00 00 00 00 00 00 00 00 00 00 00 00 00 00 ................
0040FDC0 00 00 00 00 00 00 00 00 00 00 00 00 00 00 00 00 ................
0040FDD0 00 00 00 00 00 00 00 00 00 00 00 00 00 00 00 00 ................
0040FDE0 00 00 00 00 00 00 00 00 00 00 00 00 00 00 00 00 ................
0040FDF0 00 00 00 00 00 00 00 00 00 00 00 00 00 00 00 00 ................
0040FE00 00 00 00 00 00 00 00 00 00 00 00 00 00 00 00 00 ................
0040FE10 00 00 00 00 00 00 00 00 00 00 00 00 00 00 00 00 ................
0040FE20 00 00 00 00 00 00 00 00 00 00 00 00 00 00 00 00 ................
0040FE30 00 00 00 00 00 00 00 00 00 00 00 00 00 00 00 00 ................
0040FE40 00 00 00 00 00 00 00 00 00 00 00 00 00 00 00 00 ................
0040FE50 00 00 00 00 00 00 00 00 00 00 00 00 00 00 00 00 ................
0040FE60 00 00 00 00 00 00 00 00 00 00 00 00 00 00 00 00 ................
0040FE70 00 00 00 00 00 00 00 00 00 00 00 00 00 00 00 00 ................
0040FE80 00 00 00 00 00 00 00 00 00 00 00 00 00 00 00 00 ................
0040FE90 00 00 00 00 00 00 00 00 00 00 00 00 00 00 00 00 ................
0040FEA0 00 00 00 00 00 00 00 00 00 00 00 00 00 00 00 00 ................
0040FEB0 00 00 00 00 00 00 00 00 00 00 00 00 00 00 00 00 ................
0040FEC0 00 00 00 00 00 00 00 00 00 00 00 00 00 00 00 00 ................
0040FED0 00 00 00 00 00 00 00 00 00 00 00 00 00 00 00 00 ................
0040FEE0 00 00 00 00 00 00 00 00 00 00 00 00 00 00 00 00 ................
0040FEF0 00 00 00 00 00 00 00 00 00 00 00 00 00 00 00 00 ................
0040FF00 00 00 00 00 00 00 00 00 00 00 00 00 00 00 00 00 ................
0040FF10 00 00 00 00 00 00 00 00 00 00 00 00 00 00 00 00 ................
0040FF20 00 00 00 00 00 00 00 00 00 00 00 00 00 00 00 00 ................
0040FF30 00 00 00 00 00 00 00 00 00 00 00 00 00 00 00 00 ................
0040FF40 00 00 00 00 00 00 00 00 00 00 00 00 00 00 00 00 ................
0040FF50 00 00 00 00 00 00 00 00 00 00 00 00 00 00 00 00 ................
0040FF60 00 00 00 00 00 00 00 00 00 00 00 00 00 00 00 00 ................
0040FF70 00 00 00 00 00 00 00 00 00 00 00 00 00 00 00 00 ................
0040FF80 00 00 00 00 00 00 00 00 00 00 00 00 00 00 00 00 ................
0040FF90 00 00 00 00 00 00 00 00 00 00 00 00 00 00 00 00 ................
0040FFA0 00 00 00 00 00 00 00 00 00 00 00 00 00 00 00 00 ................
0040FFB0 00 00 00 00 00 00 00 00 00 00 00 00 00 00 00 00 ................
0040FFC0 00 00 00 00 00 00 00 00 00 00 00 00 00 00 00 00 ................
0040FFD0 00 00 00 00 00 00 00 00 00 00 00 00 00 00 00 00 ................
0040FFE0 00 00 00 00 00 00 00 00 00 00 00 00 00 00 00 00 ................
0040FFF0 00 00 00 00 00 00 00 00 00 00 00 00 00 00 00 00 ................
00410000 00 00 00 00 00 00 00 00 00 00 00 00 00 00 03 00 ................
00410010 03 00 00 00 28 00 00 80 0E 00 00 00 40 00 00 80 ....(.......@...
00410020 10 00 00 00 58 00 00 80 00 00 00 00 00 00 00 00 ....X...........
00410030 00 00 00 00 00 00 01 00 01 00 00 00 70 00 00 80 ............p...
00410040 00 00 00 00 00 00 00 00 00 00 00 00 00 00 01 00 ................
00410050 C0 DC 00 00 88 00 00 80 00 00 00 00 00 00 00 00 ................
00410060 00 00 00 00 00 00 01 00 06 A7 00 00 A0 00 00 80 ................
00410070 00 00 00 00 00 00 00 00 00 00 00 00 00 00 01 00 ................
00410080 19 04 00 00 B8 00 00 00 00 00 00 00 00 00 00 00 ................
00410090 00 00 00 00 00 00 01 00 19 04 00 00 C8 00 00 00 ................
004100A0 00 00 00 00 00 00 00 00 00 00 00 00 00 00 01 00 ................
004100B0 19 04 00 00 D8 00 00 00 E8 00 01 00 A8 08 00 00 ................
004100C0 00 00 00 00 00 00 00 00 90 09 01 00 14 00 00 00 ................
004100D0 00 00 00 00 00 00 00 00 A4 09 01 00 F0 02 00 00 ................
004100E0 00 00 00 00 00 00 00 00 28 00 00 00 20 00 00 00 ........(... ...
004100F0 40 00 00 00 01 00 08 00 00 00 00 00 00 04 00 00 @...............
00410100 00 00 00 00 00 00 00 00 00 00 00 00 00 00 00 00 ................
00410110 00 00 00 00 00 00 80 00 00 80 00 00 00 80 80 00 ................
00410120 80 00 00 00 80 00 80 00 80 80 00 00 C0 C0 C0 00 ................
00410130 C0 DC C0 00 F0 CA A6 00 00 20 40 00 00 20 60 00 ......... @.. `.
00410140 00 20 80 00 00 20 A0 00 00 20 C0 00 00 20 E0 00 . ... ... ... ..
00410150 00 40 00 00 00 40 20 00 00 40 40 00 00 40 60 00 .@...@ ..@@..@`.
00410160 00 40 80 00 00 40 A0 00 00 40 C0 00 00 40 E0 00 .@...@...@...@..
00410170 00 60 00 00 00 60 20 00 00 60 40 00 00 60 60 00 .`...` ..`@..``.
00410180 00 60 80 00 00 60 A0 00 00 60 C0 00 00 60 E0 00 .`...`...`...`..
00410190 00 80 00 00 00 80 20 00 00 80 40 00 00 80 60 00 ...... ...@...`.
004101A0 00 80 80 00 00 80 A0 00 00 80 C0 00 00 80 E0 00 ................
004101B0 00 A0 00 00 00 A0 20 00 00 A0 40 00 00 A0 60 00 ...... ...@...`.
004101C0 00 A0 80 00 00 A0 A0 00 00 A0 C0 00 00 A0 E0 00 ................
004101D0 00 C0 00 00 00 C0 20 00 00 C0 40 00 00 C0 60 00 ...... ...@...`.
004101E0 00 C0 80 00 00 C0 A0 00 00 C0 C0 00 00 C0 E0 00 ................
004101F0 00 E0 00 00 00 E0 20 00 00 E0 40 00 00 E0 60 00 ...... ...@...`.
00410200 00 E0 80 00 00 E0 A0 00 00 E0 C0 00 00 E0 E0 00 ................
00410210 40 00 00 00 40 00 20 00 40 00 40 00 40 00 60 00 @...@. .@.@.@.`.
00410220 40 00 80 00 40 00 A0 00 40 00 C0 00 40 00 E0 00 @...@...@...@...
00410230 40 20 00 00 40 20 20 00 40 20 40 00 40 20 60 00 @ ..@  .@ @.@ `.
00410240 40 20 80 00 40 20 A0 00 40 20 C0 00 40 20 E0 00 @ ..@ ..@ ..@ ..
00410250 40 40 00 00 40 40 20 00 40 40 40 00 40 40 60 00 @@..@@ .@@@.@@`.
00410260 40 40 80 00 40 40 A0 00 40 40 C0 00 40 40 E0 00 @@..@@..@@..@@..
00410270 40 60 00 00 40 60 20 00 40 60 40 00 40 60 60 00 @`..@` .@`@.@``.
00410280 40 60 80 00 40 60 A0 00 40 60 C0 00 40 60 E0 00 @`..@`..@`..@`..
00410290 40 80 00 00 40 80 20 00 40 80 40 00 40 80 60 00 @...@. .@.@.@.`.
004102A0 40 80 80 00 40 80 A0 00 40 80 C0 00 40 80 E0 00 @...@...@...@...
004102B0 40 A0 00 00 40 A0 20 00 40 A0 40 00 40 A0 60 00 @...@. .@.@.@.`.
004102C0 40 A0 80 00 40 A0 A0 00 40 A0 C0 00 40 A0 E0 00 @...@...@...@...
004102D0 40 C0 00 00 40 C0 20 00 40 C0 40 00 40 C0 60 00 @...@. .@.@.@.`.
004102E0 40 C0 80 00 40 C0 A0 00 40 C0 C0 00 40 C0 E0 00 @...@...@...@...
004102F0 40 E0 00 00 40 E0 20 00 40 E0 40 00 40 E0 60 00 @...@. .@.@.@.`.
00410300 40 E0 80 00 40 E0 A0 00 40 E0 C0 00 40 E0 E0 00 @...@...@...@...
00410310 80 00 00 00 80 00 20 00 80 00 40 00 80 00 60 00 ...... ...@...`.
00410320 80 00 80 00 80 00 A0 00 80 00 C0 00 80 00 E0 00 ................
00410330 80 20 00 00 80 20 20 00 80 20 40 00 80 20 60 00 . ...  .. @.. `.
00410340 80 20 80 00 80 20 A0 00 80 20 C0 00 80 20 E0 00 . ... ... ... ..
00410350 80 40 00 00 80 40 20 00 80 40 40 00 80 40 60 00 .@...@ ..@@..@`.
00410360 80 40 80 00 80 40 A0 00 80 40 C0 00 80 40 E0 00 .@...@...@...@..
00410370 80 60 00 00 80 60 20 00 80 60 40 00 80 60 60 00 .`...` ..`@..``.
00410380 80 60 80 00 80 60 A0 00 80 60 C0 00 80 60 E0 00 .`...`...`...`..
00410390 80 80 00 00 80 80 20 00 80 80 40 00 80 80 60 00 ...... ...@...`.
004103A0 80 80 80 00 80 80 A0 00 80 80 C0 00 80 80 E0 00 ................
004103B0 80 A0 00 00 80 A0 20 00 80 A0 40 00 80 A0 60 00 ...... ...@...`.
004103C0 80 A0 80 00 80 A0 A0 00 80 A0 C0 00 80 A0 E0 00 ................
004103D0 80 C0 00 00 80 C0 20 00 80 C0 40 00 80 C0 60 00 ...... ...@...`.
004103E0 80 C0 80 00 80 C0 A0 00 80 C0 C0 00 80 C0 E0 00 ................
004103F0 80 E0 00 00 80 E0 20 00 80 E0 40 00 80 E0 60 00 ...... ...@...`.
00410400 80 E0 80 00 80 E0 A0 00 80 E0 C0 00 80 E0 E0 00 ................
00410410 C0 00 00 00 C0 00 20 00 C0 00 40 00 C0 00 60 00 ...... ...@...`.
00410420 C0 00 80 00 C0 00 A0 00 C0 00 C0 00 C0 00 E0 00 ................
00410430 C0 20 00 00 C0 20 20 00 C0 20 40 00 C0 20 60 00 . ...  .. @.. `.
00410440 C0 20 80 00 C0 20 A0 00 C0 20 C0 00 C0 20 E0 00 . ... ... ... ..
00410450 C0 40 00 00 C0 40 20 00 C0 40 40 00 C0 40 60 00 .@...@ ..@@..@`.
00410460 C0 40 80 00 C0 40 A0 00 C0 40 C0 00 C0 40 E0 00 .@...@...@...@..
00410470 C0 60 00 00 C0 60 20 00 C0 60 40 00 C0 60 60 00 .`...` ..`@..``.
00410480 C0 60 80 00 C0 60 A0 00 C0 60 C0 00 C0 60 E0 00 .`...`...`...`..
00410490 C0 80 00 00 C0 80 20 00 C0 80 40 00 C0 80 60 00 ...... ...@...`.
004104A0 C0 80 80 00 C0 80 A0 00 C0 80 C0 00 C0 80 E0 00 ................
004104B0 C0 A0 00 00 C0 A0 20 00 C0 A0 40 00 C0 A0 60 00 ...... ...@...`.
004104C0 C0 A0 80 00 C0 A0 A0 00 C0 A0 C0 00 C0 A0 E0 00 ................
004104D0 C0 C0 00 00 C0 C0 20 00 C0 C0 40 00 C0 C0 60 00 ...... ...@...`.
004104E0 C0 C0 80 00 C0 C0 A0 00 F0 FB FF 00 A4 A0 A0 00 ................
004104F0 80 80 80 00 00 00 FF 00 00 FF 00 00 00 FF FF 00 ................
00410500 FF 00 00 00 FF 00 FF 00 FF FF 00 00 FF FF FF 00 ................
00410510 00 00 00 00 00 00 00 00 00 00 00 00 00 00 00 00 ................
00410520 00 00 00 00 00 00 00 00 00 00 00 00 00 00 00 00 ................
00410530 00 00 00 00 00 00 ED A3 9A 9A 92 92 92 92 92 92 ................
00410540 92 92 92 92 92 92 92 92 92 92 92 92 92 92 92 00 ................
00410550 00 00 00 00 00 00 ED F6 07 09 09 09 09 09 09 09 ................
00410560 09 09 EC 09 09 EC EC EC EC EB EB EB EB EB 92 00 ................
00410570 00 00 00 00 00 00 ED F6 F6 F6 F6 F6 F6 F6 F6 F6 ................
00410580 F6 F6 F6 F6 F6 F6 F6 F6 09 09 09 09 09 EB 92 00 ................
00410590 00 00 00 00 00 00 ED F6 F6 F6 F6 F6 F6 F6 F6 F6 ................
004105A0 F6 F6 F6 F6 F6 F6 F6 F6 F6 F6 09 09 09 EB 92 00 ................
004105B0 00 00 00 00 00 00 ED F6 F6 F5 F5 ED ED EC EC EC ................
004105C0 E3 E3 E3 E3 E3 E3 E3 E3 E3 E3 F6 F6 09 EB 92 00 ................
004105D0 00 00 00 00 00 00 ED FF FF F5 FF FF FF F6 EC F6 ................
004105E0 F6 EC FF E3 F6 F6 EC FF E3 F6 F6 F6 F6 EB 92 00 ................
004105F0 00 00 00 00 00 00 ED FF FF F5 FF FF FF FF ED FF ................
00410600 FF EC FF E3 F6 F6 EC FF E3 F6 F6 F6 F6 EC 92 00 ................
00410610 00 00 00 00 00 00 ED FF FF F5 F5 F5 F5 F5 F5 ED ................
00410620 FF EC FF E3 F6 F6 EC FF E3 F6 F6 F6 F6 EC 92 00 ................
00410630 00 00 00 00 00 00 ED FF FF 09 FF FF FF FF F5 FF ................
00410640 FF ED FF E3 EC EC EC FF E3 F6 F6 F6 F6 EC 92 00 ................
00410650 00 00 00 00 00 00 ED FF FF 09 FF FF FF FF F5 FF ................
00410660 FF F5 FF E3 FF FF EC FF E3 F6 F6 F6 F6 EC 92 00 ................
00410670 00 00 00 00 00 00 ED FF FF 09 09 09 09 09 F5 F5 ................
00410680 FF F5 F5 E3 FF FF EC FF E3 F6 F6 F6 F6 EC 92 00 ................
00410690 00 00 00 00 00 00 ED FF FF 09 FF FF FF FF 09 FF ................
004106A0 FF FF FF FF FF FF ED ED E3 F6 F6 F6 F6 09 92 00 ................
004106B0 00 00 00 00 00 00 ED 08 08 ED 07 07 07 ED ED 08 ................
004106C0 FF FF FF F5 FF FF FF FF FF FF F6 F6 F6 09 92 00 ................
004106D0 00 00 00 00 00 00 F7 F7 F5 07 07 08 08 F6 08 ED ................
004106E0 EC 09 F5 F5 F5 F5 F5 F5 ED FF FF F6 F6 EC 92 00 ................
004106F0 00 19 18 AC 08 08 FF FF FF F6 F6 F6 F6 F6 08 07 ................
00410700 F6 FF FF 09 FF FF FF FF F5 FF FF FF F6 09 92 00 ................
00410710 00 19 B5 08 FF FF FF FF F6 F6 B5 1A 1A F6 F6 07 ................
00410720 F6 FF FF 09 FF FF FF FF F5 FF FF FF FF 09 92 00 ................
00410730 00 19 07 AC FF 08 B4 B4 B4 AB 22 1A 6B F6 F6 ED ..........".k...
00410740 F5 09 09 09 09 09 09 F5 F5 FF FF FF FF 09 92 00 ................
00410750 00 19 08 62 FF FF 08 B4 B4 62 1A 6C AB B5 F6 07 ...b.....b.l....
00410760 08 FF FF 09 FF FF FF FF F5 FF FF FF FF 09 92 00 ................
00410770 00 19 08 19 F6 FF FF 08 6B 1A 22 08 FF F6 F6 07 ........k.".....
00410780 08 FF FF 09 FF FF FF FF 09 FF FF FF FF 09 92 00 ................
00410790 00 21 08 19 07 FF FF 08 22 22 6B B4 F5 F6 F6 07 .!......""k.....
004107A0 F5 09 09 09 09 09 09 09 09 FF FF FF FF 09 92 00 ................
004107B0 00 21 08 19 AC FF F6 22 1A B5 F6 B4 B4 B4 F6 08 .!....."........
004107C0 08 FF FF 09 FF FF FF FF 09 FF FF FF FF 09 92 00 ................
004107D0 00 21 08 AC B4 FF 63 62 6C FF FF FF FF FF FF 08 .!....cbl.......
004107E0 08 FF FF 09 FF FF FF FF 07 09 09 09 09 09 92 00 ................
004107F0 00 61 08 B4 B4 FF FF FF FF FF FF FF FF FF FF F6 .a..............
00410800 07 09 09 09 09 09 09 ED A3 A3 9B 9A 9A 9A 92 00 ................
00410810 00 61 08 B5 B4 08 08 08 08 08 08 F5 B5 08 6B FF .a............k.
00410820 FF FF FF FF FF FF FF ED 09 09 09 09 09 92 F6 00 ................
00410830 00 61 B5 F6 B5 B5 B5 B5 B5 B5 B5 B5 B5 F6 61 FF .a............a.
00410840 FF FF FF FF FF FF FF ED F6 F6 09 09 92 F6 F6 00 ................
00410850 00 61 61 08 F6 08 BD BD BD BD BD BD B5 F6 61 F6 .aa...........a.
00410860 09 09 09 FF FF FF FF F5 F6 F6 09 92 F6 F6 00 00 ................
00410870 00 00 61 61 B5 08 F6 F6 F6 F6 F6 F6 F6 F6 61 FF ..aa..........a.
00410880 FF FF FF FF FF FF FF F5 F6 F6 9A F6 F6 00 00 00 ................
00410890 00 00 00 61 61 61 61 61 61 61 61 61 61 61 61 FF ...aaaaaaaaaaaa.
004108A0 FF FF FF FF FF FF FF F5 F6 9B F6 F6 00 00 00 00 ................
004108B0 00 00 00 00 00 00 07 FF FF FF FF FF FF FF FF FF ................
004108C0 FF FF FF FF FF FF FF F5 A4 F6 F6 00 00 00 00 00 ................
004108D0 00 00 00 00 00 00 07 07 07 07 07 F5 F5 F5 F5 F5 ................
004108E0 F5 F5 F5 F5 F5 F5 F5 F5 F6 F6 00 00 00 00 00 00 ................
004108F0 00 00 00 00 00 00 00 00 00 00 00 00 00 00 00 00 ................
00410900 00 00 00 00 00 00 00 00 00 00 00 00 00 00 00 00 ................
00410910 FF FF FF FF FC 00 00 01 FC 00 00 01 FC 00 00 01 ................
00410920 FC 00 00 01 FC 00 00 01 FC 00 00 01 FC 00 00 01 ................
00410930 FC 00 00 01 FC 00 00 01 FC 00 00 01 FC 00 00 01 ................
00410940 FC 00 00 01 C0 00 00 01 C0 00 00 01 80 00 00 01 ................
00410950 80 00 00 01 80 00 00 01 80 00 00 01 80 00 00 01 ................
00410960 80 00 00 01 80 00 00 01 80 00 00 01 80 00 00 01 ................
00410970 80 00 00 01 80 00 00 01 80 00 00 03 C0 00 00 07 ................
00410980 E0 00 00 0F FC 00 00 1F FC 00 00 3F FF FF FF FF ...........?....
00410990 00 00 01 00 01 00 20 20 08 00 00 00 00 00 A8 08 ......  ........
004109A0 00 00 01 00 F0 02 34 00 00 00 56 00 53 00 5F 00 ......4...V.S._.
004109B0 56 00 45 00 52 00 53 00 49 00 4F 00 4E 00 5F 00 V.E.R.S.I.O.N._.
004109C0 49 00 4E 00 46 00 4F 00 00 00 00 00 BD 04 EF FE I.N.F.O.........
004109D0 00 00 01 00 98 62 DD 75 98 62 DD 75 98 62 DD 75 .....b.u.b.u.b.u
004109E0 98 62 DD 75 98 62 00 00 00 00 00 00 04 00 04 00 .b.u.b..........
004109F0 01 00 00 00 00 00 00 00 00 00 00 00 00 00 00 00 ................
00410A00 50 02 00 00 00 00 53 00 74 00 72 00 69 00 6E 00 P.....S.t.r.i.n.
00410A10 67 00 46 00 69 00 6C 00 65 00 49 00 6E 00 66 00 g.F.i.l.e.I.n.f.
00410A20 6F 00 00 00 2C 02 00 00 00 00 30 00 38 00 30 00 o...,.....0.8.0.
00410A30 30 00 30 00 34 00 42 00 30 00 00 00 40 00 0F 00 0.0.4.B.0...@...
00410A40 01 00 43 00 6F 00 6D 00 70 00 61 00 6E 00 79 00 ..C.o.m.p.a.n.y.
00410A50 4E 00 61 00 6D 00 65 00 00 00 00 00 46 00 35 00 N.a.m.e.....F.5.
00410A60 42 00 31 00 6F 00 6D 00 69 00 79 00 62 00 62 00 B.1.o.m.i.y.b.b.
00410A70 52 00 42 00 35 00 47 00 00 00 00 00 40 00 0C 00 R.B.5.G.....@...
00410A80 01 00 46 00 69 00 6C 00 65 00 44 00 65 00 73 00 ..F.i.l.e.D.e.s.
00410A90 63 00 72 00 69 00 70 00 74 00 69 00 6F 00 6E 00 c.r.i.p.t.i.o.n.
00410AA0 00 00 00 00 66 00 46 00 49 00 36 00 6C 00 35 00 ....f.F.I.6.l.5.
00410AB0 41 00 4F 00 6F 00 4B 00 73 00 00 00 44 00 12 00 A.O.o.K.s...D...
00410AC0 01 00 46 00 69 00 6C 00 65 00 56 00 65 00 72 00 ..F.i.l.e.V.e.r.
00410AD0 73 00 69 00 6F 00 6E 00 00 00 00 00 76 00 6E 00 s.i.o.n.....v.n.
00410AE0 49 00 56 00 34 00 4C 00 72 00 73 00 36 00 6F 00 I.V.4.L.r.s.6.o.
00410AF0 4C 00 37 00 6B 00 70 00 77 00 68 00 4E 00 00 00 L.7.k.p.w.h.N...
00410B00 3C 00 0D 00 01 00 49 00 6E 00 74 00 65 00 72 00 <.....I.n.t.e.r.
00410B10 6E 00 61 00 6C 00 4E 00 61 00 6D 00 65 00 00 00 n.a.l.N.a.m.e...
00410B20 4C 00 6E 00 54 00 41 00 38 00 58 00 56 00 79 00 L.n.T.A.8.X.V.y.
00410B30 6B 00 76 00 66 00 63 00 00 00 00 00 48 00 11 00 k.v.f.c.....H...
00410B40 01 00 4C 00 65 00 67 00 61 00 6C 00 43 00 6F 00 ..L.e.g.a.l.C.o.
00410B50 70 00 79 00 72 00 69 00 67 00 68 00 74 00 00 00 p.y.r.i.g.h.t...
00410B60 73 00 74 00 6E 00 64 00 63 00 4F 00 49 00 31 00 s.t.n.d.c.O.I.1.
00410B70 41 00 41 00 6A 00 34 00 46 00 6B 00 70 00 6A 00 A.A.j.4.F.k.p.j.
00410B80 00 00 00 00 40 00 0C 00 01 00 4F 00 72 00 69 00 ....@.....O.r.i.
00410B90 67 00 69 00 6E 00 61 00 6C 00 46 00 69 00 6C 00 g.i.n.a.l.F.i.l.
00410BA0 65 00 6E 00 61 00 6D 00 65 00 00 00 54 00 62 00 e.n.a.m.e...T.b.
00410BB0 64 00 56 00 71 00 76 00 77 00 6F 00 50 00 42 00 d.V.q.v.w.o.P.B.
00410BC0 4C 00 00 00 44 00 12 00 01 00 50 00 72 00 6F 00 L...D.....P.r.o.
00410BD0 64 00 75 00 63 00 74 00 4E 00 61 00 6D 00 65 00 d.u.c.t.N.a.m.e.
00410BE0 00 00 00 00 44 00 54 00 70 00 4E 00 44 00 6E 00 ....D.T.p.N.D.n.
00410BF0 50 00 6A 00 68 00 47 00 35 00 46 00 35 00 74 00 P.j.h.G.5.F.5.t.
00410C00 74 00 47 00 66 00 00 00 48 00 12 00 01 00 50 00 t.G.f...H.....P.
00410C10 72 00 6F 00 64 00 75 00 63 00 74 00 56 00 65 00 r.o.d.u.c.t.V.e.
00410C20 72 00 73 00 69 00 6F 00 6E 00 00 00 79 00 6E 00 r.s.i.o.n...y.n.
00410C30 37 00 4D 00 63 00 51 00 74 00 52 00 62 00 75 00 7.M.c.Q.t.R.b.u.
00410C40 51 00 37 00 78 00 43 00 6E 00 63 00 6A 00 00 00 Q.7.x.C.n.c.j...
00410C50 44 00 00 00 00 00 56 00 61 00 72 00 46 00 69 00 D.....V.a.r.F.i.
00410C60 6C 00 65 00 49 00 6E 00 66 00 6F 00 00 00 00 00 l.e.I.n.f.o.....
00410C70 24 00 04 00 00 00 54 00 72 00 61 00 6E 00 73 00 $.....T.r.a.n.s.
00410C80 6C 00 61 00 74 00 69 00 6F 00 6E 00 00 00 00 00 l.a.t.i.o.n.....
00410C90 00 08 B0 04 00 00 00 00 00 00 00 00 00 00 00 00 ................
00410CA0 00 00 00 00 00 00 00 00 00 00 00 00 00 00 00 00 ................
00410CB0 00 00 00 00 00 00 00 00 00 00 00 00 00 00 00 00 ................
00410CC0 00 00 00 00 00 00 00 00 00 00 00 00 00 00 00 00 ................
00410CD0 00 00 00 00 00 00 00 00 00 00 00 00 00 00 00 00 ................
00410CE0 00 00 00 00 00 00 00 00 00 00 00 00 00 00 00 00 ................
00410CF0 00 00 00 00 00 00 00 00 00 00 00 00 00 00 00 00 ................
00410D00 00 00 00 00 00 00 00 00 00 00 00 00 00 00 00 00 ................
00410D10 00 00 00 00 00 00 00 00 00 00 00 00 00 00 00 00 ................
00410D20 00 00 00 00 00 00 00 00 00 00 00 00 00 00 00 00 ................
00410D30 00 00 00 00 00 00 00 00 00 00 00 00 00 00 00 00 ................
00410D40 00 00 00 00 00 00 00 00 00 00 00 00 00 00 00 00 ................
00410D50 00 00 00 00 00 00 00 00 00 00 00 00 00 00 00 00 ................
00410D60 00 00 00 00 00 00 00 00 00 00 00 00 00 00 00 00 ................
00410D70 00 00 00 00 00 00 00 00 00 00 00 00 00 00 00 00 ................
00410D80 00 00 00 00 00 00 00 00 00 00 00 00 00 00 00 00 ................
00410D90 00 00 00 00 00 00 00 00 00 00 00 00 00 00 00 00 ................
00410DA0 00 00 00 00 00 00 00 00 00 00 00 00 00 00 00 00 ................
00410DB0 00 00 00 00 00 00 00 00 00 00 00 00 00 00 00 00 ................
00410DC0 00 00 00 00 00 00 00 00 00 00 00 00 00 00 00 00 ................
00410DD0 00 00 00 00 00 00 00 00 00 00 00 00 00 00 00 00 ................
00410DE0 00 00 00 00 00 00 00 00 00 00 00 00 00 00 00 00 ................
00410DF0 00 00 00 00 00 00 00 00 00 00 00 00 00 00 00 00 ................
00410E00 00 00 00 00 00 00 00 00 00 00 00 00 00 00 00 00 ................
00410E10 00 00 00 00 00 00 00 00 00 00 00 00 00 00 00 00 ................
00410E20 00 00 00 00 00 00 00 00 00 00 00 00 00 00 00 00 ................
00410E30 00 00 00 00 00 00 00 00 00 00 00 00 00 00 00 00 ................
00410E40 00 00 00 00 00 00 00 00 00 00 00 00 00 00 00 00 ................
00410E50 00 00 00 00 00 00 00 00 00 00 00 00 00 00 00 00 ................
00410E60 00 00 00 00 00 00 00 00 00 00 00 00 00 00 00 00 ................
00410E70 00 00 00 00 00 00 00 00 00 00 00 00 00 00 00 00 ................
00410E80 00 00 00 00 00 00 00 00 00 00 00 00 00 00 00 00 ................
00410E90 00 00 00 00 00 00 00 00 00 00 00 00 00 00 00 00 ................
00410EA0 00 00 00 00 00 00 00 00 00 00 00 00 00 00 00 00 ................
00410EB0 00 00 00 00 00 00 00 00 00 00 00 00 00 00 00 00 ................
00410EC0 00 00 00 00 00 00 00 00 00 00 00 00 00 00 00 00 ................
00410ED0 00 00 00 00 00 00 00 00 00 00 00 00 00 00 00 00 ................
00410EE0 00 00 00 00 00 00 00 00 00 00 00 00 00 00 00 00 ................
00410EF0 00 00 00 00 00 00 00 00 00 00 00 00 00 00 00 00 ................
00410F00 00 00 00 00 00 00 00 00 00 00 00 00 00 00 00 00 ................
00410F10 00 00 00 00 00 00 00 00 00 00 00 00 00 00 00 00 ................
00410F20 00 00 00 00 00 00 00 00 00 00 00 00 00 00 00 00 ................
00410F30 00 00 00 00 00 00 00 00 00 00 00 00 00 00 00 00 ................
00410F40 00 00 00 00 00 00 00 00 00 00 00 00 00 00 00 00 ................
00410F50 00 00 00 00 00 00 00 00 00 00 00 00 00 00 00 00 ................
00410F60 00 00 00 00 00 00 00 00 00 00 00 00 00 00 00 00 ................
00410F70 00 00 00 00 00 00 00 00 00 00 00 00 00 00 00 00 ................
00410F80 00 00 00 00 00 00 00 00 00 00 00 00 00 00 00 00 ................
00410F90 00 00 00 00 00 00 00 00 00 00 00 00 00 00 00 00 ................
00410FA0 00 00 00 00 00 00 00 00 00 00 00 00 00 00 00 00 ................
00410FB0 00 00 00 00 00 00 00 00 00 00 00 00 00 00 00 00 ................
00410FC0 00 00 00 00 00 00 00 00 00 00 00 00 00 00 00 00 ................
00410FD0 00 00 00 00 00 00 00 00 00 00 00 00 00 00 00 00 ................
00410FE0 00 00 00 00 00 00 00 00 00 00 00 00 00 00 00 00 ................
00410FF0 00 00 00 00 00 00 00 00 00 00 00 00 00 00 00 00 ................
