00400000 00 00 00 00 00 00 00 00 00 00 00 00 00 00 00 00 ................
00400010 00 00 00 00 00 00 00 00 00 00 00 00 00 00 00 00 ................
00400020 00 00 00 00 00 00 00 00 00 00 00 00 00 00 00 00 ................
00400030 00 00 00 00 00 00 00 00 00 00 00 00 00 00 00 00 ................
00400040 00 00 00 00 00 00 00 00 00 00 00 00 00 00 00 00 ................
00400050 00 00 00 00 00 00 00 00 00 00 00 00 00 00 00 00 ................
00400060 00 00 00 00 00 00 00 00 00 00 00 00 00 00 00 00 ................
00400070 00 00 00 00 00 00 00 00 00 00 00 00 00 00 00 00 ................
00400080 00 00 00 00 00 00 00 00 00 00 00 00 00 00 00 00 ................
00400090 00 00 00 00 00 00 00 00 00 00 00 00 00 00 00 00 ................
004000A0 00 00 00 00 00 00 00 00 00 00 00 00 00 00 00 00 ................
004000B0 00 00 00 00 00 00 00 00 00 00 00 00 00 00 00 00 ................
004000C0 00 00 00 00 00 00 00 00 00 00 00 00 00 00 00 00 ................
004000D0 00 00 00 00 00 00 00 00 00 00 00 00 00 00 00 00 ................
004000E0 00 00 00 00 00 00 00 00 00 00 00 00 00 00 00 00 ................
004000F0 00 00 00 00 00 00 00 00 00 00 00 00 00 00 00 00 ................
00400100 00 00 00 00 00 00 00 00 00 00 00 00 00 00 00 00 ................
00400110 00 00 00 00 00 00 00 00 00 00 00 00 00 00 00 00 ................
00400120 00 00 00 00 00 00 00 00 00 00 00 00 00 00 00 00 ................
00400130 00 00 00 00 00 00 00 00 00 00 00 00 00 00 00 00 ................
00400140 00 00 00 00 00 00 00 00 00 00 00 00 00 00 00 00 ................
00400150 00 00 00 00 00 00 00 00 00 00 00 00 00 00 00 00 ................
00400160 00 00 00 00 00 00 00 00 00 00 00 00 00 00 00 00 ................
00400170 00 00 00 00 00 00 00 00 00 00 00 00 00 00 00 00 ................
00400180 00 00 00 00 00 00 00 00 00 00 00 00 00 00 00 00 ................
00400190 00 00 00 00 00 00 00 00 00 00 00 00 00 00 00 00 ................
004001A0 00 00 00 00 00 00 00 00 00 00 00 00 00 00 00 00 ................
004001B0 00 00 00 00 00 00 00 00 00 00 00 00 00 00 00 00 ................
004001C0 00 00 00 00 00 00 00 00 00 00 00 00 00 00 00 00 ................
004001D0 00 00 00 00 00 00 00 00 00 00 00 00 00 00 00 00 ................
004001E0 00 00 00 00 00 00 00 00 00 00 00 00 00 00 00 00 ................
004001F0 00 00 00 00 00 00 00 00 00 00 00 00 00 00 00 00 ................
00400200 00 00 00 00 00 00 00 00 00 00 00 00 00 00 00 00 ................
00400210 00 00 00 00 00 00 00 00 00 00 00 00 00 00 00 00 ................
00400220 00 00 00 00 00 00 00 00 00 00 00 00 00 00 00 00 ................
00400230 00 00 00 00 00 00 00 00 00 00 00 00 00 00 00 00 ................
00400240 00 00 00 00 00 00 00 00 00 00 00 00 00 00 00 00 ................
00400250 00 00 00 00 00 00 00 00 00 00 00 00 00 00 00 00 ................
00400260 00 00 00 00 00 00 00 00 00 00 00 00 00 00 00 00 ................
00400270 00 00 00 00 00 00 00 00 00 00 00 00 00 00 00 00 ................
00400280 00 00 00 00 00 00 00 00 00 00 00 00 00 00 00 00 ................
00400290 00 00 00 00 00 00 00 00 00 00 00 00 00 00 00 00 ................
004002A0 00 00 00 00 00 00 00 00 00 00 00 00 00 00 00 00 ................
004002B0 00 00 00 00 00 00 00 00 00 00 00 00 00 00 00 00 ................
004002C0 00 00 00 00 00 00 00 00 00 00 00 00 00 00 00 00 ................
004002D0 00 00 00 00 00 00 00 00 00 00 00 00 00 00 00 00 ................
004002E0 00 00 00 00 00 00 00 00 00 00 00 00 00 00 00 00 ................
004002F0 00 00 00 00 00 00 00 00 00 00 00 00 00 00 00 00 ................
00400300 00 00 00 00 00 00 00 00 00 00 00 00 00 00 00 00 ................
00400310 00 00 00 00 00 00 00 00 00 00 00 00 00 00 00 00 ................
00400320 00 00 00 00 00 00 00 00 00 00 00 00 00 00 00 00 ................
00400330 00 00 00 00 00 00 00 00 00 00 00 00 00 00 00 00 ................
00400340 00 00 00 00 00 00 00 00 00 00 00 00 00 00 00 00 ................
00400350 00 00 00 00 00 00 00 00 00 00 00 00 00 00 00 00 ................
00400360 00 00 00 00 00 00 00 00 00 00 00 00 00 00 00 00 ................
00400370 00 00 00 00 00 00 00 00 00 00 00 00 00 00 00 00 ................
00400380 00 00 00 00 00 00 00 00 00 00 00 00 00 00 00 00 ................
00400390 00 00 00 00 00 00 00 00 00 00 00 00 00 00 00 00 ................
004003A0 00 00 00 00 00 00 00 00 00 00 00 00 00 00 00 00 ................
004003B0 00 00 00 00 00 00 00 00 00 00 00 00 00 00 00 00 ................
004003C0 00 00 00 00 00 00 00 00 00 00 00 00 00 00 00 00 ................
004003D0 00 00 00 00 00 00 00 00 00 00 00 00 00 00 00 00 ................
004003E0 00 00 00 00 00 00 00 00 00 00 00 00 00 00 00 00 ................
004003F0 00 00 00 00 00 00 00 00 00 00 00 00 00 00 00 00 ................
00400400 00 00 00 00 00 00 00 00 00 00 00 00 00 00 00 00 ................
00400410 00 00 00 00 00 00 00 00 00 00 00 00 00 00 00 00 ................
00400420 00 00 00 00 00 00 00 00 00 00 00 00 00 00 00 00 ................
00400430 00 00 00 00 00 00 00 00 00 00 00 00 00 00 00 00 ................
00400440 00 00 00 00 00 00 00 00 00 00 00 00 00 00 00 00 ................
00400450 00 00 00 00 00 00 00 00 00 00 00 00 00 00 00 00 ................
00400460 00 00 00 00 00 00 00 00 00 00 00 00 00 00 00 00 ................
00400470 00 00 00 00 00 00 00 00 00 00 00 00 00 00 00 00 ................
00400480 00 00 00 00 00 00 00 00 00 00 00 00 00 00 00 00 ................
00400490 00 00 00 00 00 00 00 00 00 00 00 00 00 00 00 00 ................
004004A0 00 00 00 00 00 00 00 00 00 00 00 00 00 00 00 00 ................
004004B0 00 00 00 00 00 00 00 00 00 00 00 00 00 00 00 00 ................
004004C0 00 00 00 00 00 00 00 00 00 00 00 00 00 00 00 00 ................
004004D0 00 00 00 00 00 00 00 00 00 00 00 00 00 00 00 00 ................
004004E0 00 00 00 00 00 00 00 00 00 00 00 00 00 00 00 00 ................
004004F0 00 00 00 00 00 00 00 00 00 00 00 00 00 00 00 00 ................
00400500 00 00 00 00 00 00 00 00 00 00 00 00 00 00 00 00 ................
00400510 00 00 00 00 00 00 00 00 00 00 00 00 00 00 00 00 ................
00400520 00 00 00 00 00 00 00 00 00 00 00 00 00 00 00 00 ................
00400530 00 00 00 00 00 00 00 00 00 00 00 00 00 00 00 00 ................
00400540 00 00 00 00 00 00 00 00 00 00 00 00 00 00 00 00 ................
00400550 00 00 00 00 00 00 00 00 00 00 00 00 00 00 00 00 ................
00400560 00 00 00 00 00 00 00 00 00 00 00 00 00 00 00 00 ................
00400570 00 00 00 00 00 00 00 00 00 00 00 00 00 00 00 00 ................
00400580 00 00 00 00 00 00 00 00 00 00 00 00 00 00 00 00 ................
00400590 00 00 00 00 00 00 00 00 00 00 00 00 00 00 00 00 ................
004005A0 00 00 00 00 00 00 00 00 00 00 00 00 00 00 00 00 ................
004005B0 00 00 00 00 00 00 00 00 00 00 00 00 00 00 00 00 ................
004005C0 00 00 00 00 00 00 00 00 00 00 00 00 00 00 00 00 ................
004005D0 00 00 00 00 00 00 00 00 00 00 00 00 00 00 00 00 ................
004005E0 00 00 00 00 00 00 00 00 00 00 00 00 00 00 00 00 ................
004005F0 00 00 00 00 00 00 00 00 00 00 00 00 00 00 00 00 ................
00400600 00 00 00 00 00 00 00 00 00 00 00 00 00 00 00 00 ................
00400610 00 00 00 00 00 00 00 00 00 00 00 00 00 00 00 00 ................
00400620 00 00 00 00 00 00 00 00 00 00 00 00 00 00 00 00 ................
00400630 00 00 00 00 00 00 00 00 00 00 00 00 00 00 00 00 ................
00400640 00 00 00 00 00 00 00 00 00 00 00 00 00 00 00 00 ................
00400650 00 00 00 00 00 00 00 00 00 00 00 00 00 00 00 00 ................
00400660 00 00 00 00 00 00 00 00 00 00 00 00 00 00 00 00 ................
00400670 00 00 00 00 00 00 00 00 00 00 00 00 00 00 00 00 ................
00400680 00 00 00 00 00 00 00 00 00 00 00 00 00 00 00 00 ................
00400690 00 00 00 00 00 00 00 00 00 00 00 00 00 00 00 00 ................
004006A0 00 00 00 00 00 00 00 00 00 00 00 00 00 00 00 00 ................
004006B0 00 00 00 00 00 00 00 00 00 00 00 00 00 00 00 00 ................
004006C0 00 00 00 00 00 00 00 00 00 00 00 00 00 00 00 00 ................
004006D0 00 00 00 00 00 00 00 00 00 00 00 00 00 00 00 00 ................
004006E0 00 00 00 00 00 00 00 00 00 00 00 00 00 00 00 00 ................
004006F0 00 00 00 00 00 00 00 00 00 00 00 00 00 00 00 00 ................
00400700 00 00 00 00 00 00 00 00 00 00 00 00 00 00 00 00 ................
00400710 00 00 00 00 00 00 00 00 00 00 00 00 00 00 00 00 ................
00400720 00 00 00 00 00 00 00 00 00 00 00 00 00 00 00 00 ................
00400730 00 00 00 00 00 00 00 00 00 00 00 00 00 00 00 00 ................
00400740 00 00 00 00 00 00 00 00 00 00 00 00 00 00 00 00 ................
00400750 00 00 00 00 00 00 00 00 00 00 00 00 00 00 00 00 ................
00400760 00 00 00 00 00 00 00 00 00 00 00 00 00 00 00 00 ................
00400770 00 00 00 00 00 00 00 00 00 00 00 00 00 00 00 00 ................
00400780 00 00 00 00 00 00 00 00 00 00 00 00 00 00 00 00 ................
00400790 00 00 00 00 00 00 00 00 00 00 00 00 00 00 00 00 ................
004007A0 00 00 00 00 00 00 00 00 00 00 00 00 00 00 00 00 ................
004007B0 00 00 00 00 00 00 00 00 00 00 00 00 00 00 00 00 ................
004007C0 00 00 00 00 00 00 00 00 00 00 00 00 00 00 00 00 ................
004007D0 00 00 00 00 00 00 00 00 00 00 00 00 00 00 00 00 ................
004007E0 00 00 00 00 00 00 00 00 00 00 00 00 00 00 00 00 ................
004007F0 00 00 00 00 00 00 00 00 00 00 00 00 00 00 00 00 ................
00400800 00 00 00 00 00 00 00 00 00 00 00 00 00 00 00 00 ................
00400810 00 00 00 00 00 00 00 00 00 00 00 00 00 00 00 00 ................
00400820 00 00 00 00 00 00 00 00 00 00 00 00 00 00 00 00 ................
00400830 00 00 00 00 00 00 00 00 00 00 00 00 00 00 00 00 ................
00400840 00 00 00 00 00 00 00 00 00 00 00 00 00 00 00 00 ................
00400850 00 00 00 00 00 00 00 00 00 00 00 00 00 00 00 00 ................
00400860 00 00 00 00 00 00 00 00 00 00 00 00 00 00 00 00 ................
00400870 00 00 00 00 00 00 00 00 00 00 00 00 00 00 00 00 ................
00400880 00 00 00 00 00 00 00 00 00 00 00 00 00 00 00 00 ................
00400890 00 00 00 00 00 00 00 00 00 00 00 00 00 00 00 00 ................
004008A0 00 00 00 00 00 00 00 00 00 00 00 00 00 00 00 00 ................
004008B0 00 00 00 00 00 00 00 00 00 00 00 00 00 00 00 00 ................
004008C0 00 00 00 00 00 00 00 00 00 00 00 00 00 00 00 00 ................
004008D0 00 00 00 00 00 00 00 00 00 00 00 00 00 00 00 00 ................
004008E0 00 00 00 00 00 00 00 00 00 00 00 00 00 00 00 00 ................
004008F0 00 00 00 00 00 00 00 00 00 00 00 00 00 00 00 00 ................
00400900 00 00 00 00 00 00 00 00 00 00 00 00 00 00 00 00 ................
00400910 00 00 00 00 00 00 00 00 00 00 00 00 00 00 00 00 ................
00400920 00 00 00 00 00 00 00 00 00 00 00 00 00 00 00 00 ................
00400930 00 00 00 00 00 00 00 00 00 00 00 00 00 00 00 00 ................
00400940 00 00 00 00 00 00 00 00 00 00 00 00 00 00 00 00 ................
00400950 00 00 00 00 00 00 00 00 00 00 00 00 00 00 00 00 ................
00400960 00 00 00 00 00 00 00 00 00 00 00 00 00 00 00 00 ................
00400970 00 00 00 00 00 00 00 00 00 00 00 00 00 00 00 00 ................
00400980 00 00 00 00 00 00 00 00 00 00 00 00 00 00 00 00 ................
00400990 00 00 00 00 00 00 00 00 00 00 00 00 00 00 00 00 ................
004009A0 00 00 00 00 00 00 00 00 00 00 00 00 00 00 00 00 ................
004009B0 00 00 00 00 00 00 00 00 00 00 00 00 00 00 00 00 ................
004009C0 00 00 00 00 00 00 00 00 00 00 00 00 00 00 00 00 ................
004009D0 00 00 00 00 00 00 00 00 00 00 00 00 00 00 00 00 ................
004009E0 00 00 00 00 00 00 00 00 00 00 00 00 00 00 00 00 ................
004009F0 00 00 00 00 00 00 00 00 00 00 00 00 00 00 00 00 ................
00400A00 00 00 00 00 00 00 00 00 00 00 00 00 00 00 00 00 ................
00400A10 00 00 00 00 00 00 00 00 00 00 00 00 00 00 00 00 ................
00400A20 00 00 00 00 00 00 00 00 00 00 00 00 00 00 00 00 ................
00400A30 00 00 00 00 00 00 00 00 00 00 00 00 00 00 00 00 ................
00400A40 00 00 00 00 00 00 00 00 00 00 00 00 00 00 00 00 ................
00400A50 00 00 00 00 00 00 00 00 00 00 00 00 00 00 00 00 ................
00400A60 00 00 00 00 00 00 00 00 00 00 00 00 00 00 00 00 ................
00400A70 00 00 00 00 00 00 00 00 00 00 00 00 00 00 00 00 ................
00400A80 00 00 00 00 00 00 00 00 00 00 00 00 00 00 00 00 ................
00400A90 00 00 00 00 00 00 00 00 00 00 00 00 00 00 00 00 ................
00400AA0 00 00 00 00 00 00 00 00 00 00 00 00 00 00 00 00 ................
00400AB0 00 00 00 00 00 00 00 00 00 00 00 00 00 00 00 00 ................
00400AC0 00 00 00 00 00 00 00 00 00 00 00 00 00 00 00 00 ................
00400AD0 00 00 00 00 00 00 00 00 00 00 00 00 00 00 00 00 ................
00400AE0 00 00 00 00 00 00 00 00 00 00 00 00 00 00 00 00 ................
00400AF0 00 00 00 00 00 00 00 00 00 00 00 00 00 00 00 00 ................
00400B00 00 00 00 00 00 00 00 00 00 00 00 00 00 00 00 00 ................
00400B10 00 00 00 00 00 00 00 00 00 00 00 00 00 00 00 00 ................
00400B20 00 00 00 00 00 00 00 00 00 00 00 00 00 00 00 00 ................
00400B30 00 00 00 00 00 00 00 00 00 00 00 00 00 00 00 00 ................
00400B40 00 00 00 00 00 00 00 00 00 00 00 00 00 00 00 00 ................
00400B50 00 00 00 00 00 00 00 00 00 00 00 00 00 00 00 00 ................
00400B60 00 00 00 00 00 00 00 00 00 00 00 00 00 00 00 00 ................
00400B70 00 00 00 00 00 00 00 00 00 00 00 00 00 00 00 00 ................
00400B80 00 00 00 00 00 00 00 00 00 00 00 00 00 00 00 00 ................
00400B90 00 00 00 00 00 00 00 00 00 00 00 00 00 00 00 00 ................
00400BA0 00 00 00 00 00 00 00 00 00 00 00 00 00 00 00 00 ................
00400BB0 00 00 00 00 00 00 00 00 00 00 00 00 00 00 00 00 ................
00400BC0 00 00 00 00 00 00 00 00 00 00 00 00 00 00 00 00 ................
00400BD0 00 00 00 00 00 00 00 00 00 00 00 00 00 00 00 00 ................
00400BE0 00 00 00 00 00 00 00 00 00 00 00 00 00 00 00 00 ................
00400BF0 00 00 00 00 00 00 00 00 00 00 00 00 00 00 00 00 ................
00400C00 00 00 00 00 00 00 00 00 00 00 00 00 00 00 00 00 ................
00400C10 00 00 00 00 00 00 00 00 00 00 00 00 00 00 00 00 ................
00400C20 00 00 00 00 00 00 00 00 00 00 00 00 00 00 00 00 ................
00400C30 00 00 00 00 00 00 00 00 00 00 00 00 00 00 00 00 ................
00400C40 00 00 00 00 00 00 00 00 00 00 00 00 00 00 00 00 ................
00400C50 00 00 00 00 00 00 00 00 00 00 00 00 00 00 00 00 ................
00400C60 00 00 00 00 00 00 00 00 00 00 00 00 00 00 00 00 ................
00400C70 00 00 00 00 00 00 00 00 00 00 00 00 00 00 00 00 ................
00400C80 00 00 00 00 00 00 00 00 00 00 00 00 00 00 00 00 ................
00400C90 00 00 00 00 00 00 00 00 00 00 00 00 00 00 00 00 ................
00400CA0 00 00 00 00 00 00 00 00 00 00 00 00 00 00 00 00 ................
00400CB0 00 00 00 00 00 00 00 00 00 00 00 00 00 00 00 00 ................
00400CC0 00 00 00 00 00 00 00 00 00 00 00 00 00 00 00 00 ................
00400CD0 00 00 00 00 00 00 00 00 00 00 00 00 00 00 00 00 ................
00400CE0 00 00 00 00 00 00 00 00 00 00 00 00 00 00 00 00 ................
00400CF0 00 00 00 00 00 00 00 00 00 00 00 00 00 00 00 00 ................
00400D00 00 00 00 00 00 00 00 00 00 00 00 00 00 00 00 00 ................
00400D10 00 00 00 00 00 00 00 00 00 00 00 00 00 00 00 00 ................
00400D20 00 00 00 00 00 00 00 00 00 00 00 00 00 00 00 00 ................
00400D30 00 00 00 00 00 00 00 00 00 00 00 00 00 00 00 00 ................
00400D40 00 00 00 00 00 00 00 00 00 00 00 00 00 00 00 00 ................
00400D50 00 00 00 00 00 00 00 00 00 00 00 00 00 00 00 00 ................
00400D60 00 00 00 00 00 00 00 00 00 00 00 00 00 00 00 00 ................
00400D70 00 00 00 00 00 00 00 00 00 00 00 00 00 00 00 00 ................
00400D80 00 00 00 00 00 00 00 00 00 00 00 00 00 00 00 00 ................
00400D90 00 00 00 00 00 00 00 00 00 00 00 00 00 00 00 00 ................
00400DA0 00 00 00 00 00 00 00 00 00 00 00 00 00 00 00 00 ................
00400DB0 00 00 00 00 00 00 00 00 00 00 00 00 00 00 00 00 ................
00400DC0 00 00 00 00 00 00 00 00 00 00 00 00 00 00 00 00 ................
00400DD0 00 00 00 00 00 00 00 00 00 00 00 00 00 00 00 00 ................
00400DE0 00 00 00 00 00 00 00 00 00 00 00 00 00 00 00 00 ................
00400DF0 00 00 00 00 00 00 00 00 00 00 00 00 00 00 00 00 ................
00400E00 00 00 00 00 00 00 00 00 00 00 00 00 00 00 00 00 ................
00400E10 00 00 00 00 00 00 00 00 00 00 00 00 00 00 00 00 ................
00400E20 00 00 00 00 00 00 00 00 00 00 00 00 00 00 00 00 ................
00400E30 00 00 00 00 00 00 00 00 00 00 00 00 00 00 00 00 ................
00400E40 00 00 00 00 00 00 00 00 00 00 00 00 00 00 00 00 ................
00400E50 00 00 00 00 00 00 00 00 00 00 00 00 00 00 00 00 ................
00400E60 00 00 00 00 00 00 00 00 00 00 00 00 00 00 00 00 ................
00400E70 00 00 00 00 00 00 00 00 00 00 00 00 00 00 00 00 ................
00400E80 00 00 00 00 00 00 00 00 00 00 00 00 00 00 00 00 ................
00400E90 00 00 00 00 00 00 00 00 00 00 00 00 00 00 00 00 ................
00400EA0 00 00 00 00 00 00 00 00 00 00 00 00 00 00 00 00 ................
00400EB0 00 00 00 00 00 00 00 00 00 00 00 00 00 00 00 00 ................
00400EC0 00 00 00 00 00 00 00 00 00 00 00 00 00 00 00 00 ................
00400ED0 00 00 00 00 00 00 00 00 00 00 00 00 00 00 00 00 ................
00400EE0 00 00 00 00 00 00 00 00 00 00 00 00 00 00 00 00 ................
00400EF0 00 00 00 00 00 00 00 00 00 00 00 00 00 00 00 00 ................
00400F00 00 00 00 00 00 00 00 00 00 00 00 00 00 00 00 00 ................
00400F10 00 00 00 00 00 00 00 00 00 00 00 00 00 00 00 00 ................
00400F20 00 00 00 00 00 00 00 00 00 00 00 00 00 00 00 00 ................
00400F30 00 00 00 00 00 00 00 00 00 00 00 00 00 00 00 00 ................
00400F40 00 00 00 00 00 00 00 00 00 00 00 00 00 00 00 00 ................
00400F50 00 00 00 00 00 00 00 00 00 00 00 00 00 00 00 00 ................
00400F60 00 00 00 00 00 00 00 00 00 00 00 00 00 00 00 00 ................
00400F70 00 00 00 00 00 00 00 00 00 00 00 00 00 00 00 00 ................
00400F80 00 00 00 00 00 00 00 00 00 00 00 00 00 00 00 00 ................
00400F90 00 00 00 00 00 00 00 00 00 00 00 00 00 00 00 00 ................
00400FA0 00 00 00 00 00 00 00 00 00 00 00 00 00 00 00 00 ................
00400FB0 00 00 00 00 00 00 00 00 00 00 00 00 00 00 00 00 ................
00400FC0 00 00 00 00 00 00 00 00 00 00 00 00 00 00 00 00 ................
00400FD0 00 00 00 00 00 00 00 00 00 00 00 00 00 00 00 00 ................
00400FE0 00 00 00 00 00 00 00 00 00 00 00 00 00 00 00 00 ................
00400FF0 00 00 00 00 00 00 00 00 00 00 00 00 00 00 00 00 ................
00401000 33 0E C5 36 3E A5                               3..6>.         

l00401006:
	add	ebx,edi
	dec	esi
	add	esi,ebx
	mov	edx,esi
	add	esi,ebx
	add	ecx,ebx
	jo	0040107C

l00401013:
	mov	bh,bh
	xchg	ah,ah
	jno	0040107C

l00401019:
	das	
	xchg	eax,esp
	dec	edx
	test	al,8F

fn0040101D()
	pop	dword ptr [esp-10]

fn0040101E()
	inc	esp
	and	al,F0
	xor	ecx,ebx
	xor	ebx,ecx
	add	eax,esi
	sub	edi,ebx
	sub	esi,ecx
	dec	ecx
	add	ebx,edx
	mov	ebx,edx
	inc	eax
	jbe	00401097

fn00401033()
	mov	al,al
	jpo	00401037

l00401037:
	ja	00401097

l00401039:
	adc	eax,ebp
	xchg	eax,edi
	cld	
	retf	7B23

fn00401040()
	xor	ebx,eax
	xor	dl,bh
	sub	ecx,ebx
	inc	dh
	or	dh,dl
	dec	edi
	inc	dh
	inc	bh
	jc	00401209

fn00401055()
	lea	edi,[edi]
	mov	al,al
	jnc	00401209

l0040105F:
	push	esi
	lahf	
	cmp	[ecx+edx*2+0B],bh

fn00401064()
	or	ebx,eax

fn00401065()
	fmul	dword ptr [esi+2B]
	fimul	word ptr [ebx]
	fisubr	word ptr [ebx]
	illegal	
	add	esi,ebx
	add	edi,ebx
	jmp	004011E7
00401076                   A7 3D BA FB C6 C6                   .=....   

l0040107C:
	add	edi,edx
	sub	ebx,edx
	mov	edx,ebx
	mov	ebx,ecx
	dec	ecx
	add	ebx,ecx
	inc	ecx
	dec	edi
	or	ecx,eax
	call	00401334
	ret	DC40
00401093          40 73 72 04                               @sr.        

fn00401097()
	or	edi,edx
	or	ebx,edi
	inc	esi
	jmp	004013A6

fn004010A1()
	add	esi,ebx
	sub	edi,ecx
	or	edi,ebx
	sub	eax,EEEEEEEE
	xor	edx,edi
	mov	ecx,esi
	jmp	00401064
004010B2       71 FC 4F 66 5D 89 30 0F                     q.Of].0.     

fn004010BA()
	pop	dword ptr [esp-28]
	inc	esi
	mov	ebx,edx
	dec	edi
	mov	edx,ecx
	sub	edx,esi
	sub	ebx,edi
	xor	esi,edi
	dec	ebx
	or	edi,edx
	jbe	004010DB

l004010CF:
	jmp	004010D4

l004010D4:
	ja	004010DB

l004010D6:
	sbb	al,26
	imul	esi,ebp,FE2B91B7

l004010DB:
	mov	bh,91
	sub	edi,esi

l004010DF:
	mov	esi,edx
	inc	ecx
	or	cl,dl
	neg	bh
	mov	ch,bl
	sub	esi,edi
	dec	edx
	jmp	00401230
004010F0 27 50 A9 8F                                     'P..           

fn004010F4()
	pop	dword ptr [esp-10]
	sub	edx,esi
	inc	eax
	mov	ebx,edi
	mov	ecx,edi
	inc	ebx
	call	004012A6
	in	al,dx
	pusha	
	mov	al,dh
	cwde	

fn0040110A()
	dec	esi
	inc	ebx
	inc	ebx
	xor	edi,ebx
	or	esi,edx
	add	edx,eax
	or	ecx,esi
	sub	edx,edi
	mov	eax,[eax+00000090]
	jle	00401006

l00401123:
	jmp	00401128

l00401128:
	repne	
	jg	00401006
	dec	ebx
	and	edx,[edi+D455B99E]
	illegal	

fn00401137()
	lea	esp,[esp+04]
	dec	esi
	mov	ebx,ecx
	or	ebx,edi
	xor	edi,eax
	leave	
	jc	0040128D

l00401149:
	jmp	0040114F
0040114E                                           98                  .

l0040114F:
	repne	
	jnc	0040128D
	xor	dh,[edx+4282613C]

fn0040115C()
	sub	esi,eax
	or	eax,eax
	jz	00401163

l00401162:
	ret	

l00401163:
	dec	ebx
	xor	edi,ebx
	xor	ecx,edx
	add	edx,edi
	sub	ecx,esi
	call	0040126F
	out	dx,ax
	sbb	eax,CF8B4FF8

l00401175:
	dec	edi
	mov	ecx,edi

fn00401178()
	add	ecx,edi
	sub	edi,ecx
	or	edx,eax
	or	edi,edx
	mov	esi,eax
	xor	edi,ecx
	or	edx,esi
	add	ebx,ecx
	call	004010BA

l0040118D:
	lea	ebp,esp
	in	al,BB
	shl	dword ptr [ebx],01

fn00401192()
	xor	ecx,edi
	xor	edx,ecx
	or	edi,ebx
	inc	ecx
	inc	edx
	sub	ebx,ecx
	mov	edi,edx
	xor	esi,ebx
	add	ebx,ecx
	call	00401345
	movsd	
	cld	
	and	eax,05217909
	add	[edi+46F42444],ecx

fn004011AF()
	pop	dword ptr [esp-0C]
	inc	esi

fn004011B4()
	dec	edi
	mov	cl,C1
	xor	ch,dl
	mov	ch,D1
	jmp	00401040
004011C0 A8 FA 11 90 10 CE                               ......         

fn004011C6()
	push	ebp
	mov	ebp,esp
	sub	ebx,ecx
	dec	edi
	add	esi,ebx
	mov	edx,edi
	sub	esi,edi
	sub	ebx,ecx
	or	edx,eax
	dec	ecx
	dec	ebx
	jbe	00401175

l004011DA:
	jmp	004011DF

l004011DF:
	lea	ecx,[ecx]
	ja	00401175

l004011E3:
	mov	esi,[eax+ebp]
	in	eax,dx

fn004011E7()
	add	edi,esi
	or	esi,ecx
	inc	ebx
	inc	ebx
	dec	edi
	inc	ecx
	xor	ecx,eax
	mov	edx,ecx
	sub	ecx,esi
	jpe	0040115C

l004011FB:
	repne	
	lea	dx,[edx]
	jpo	0040115C
	xchg	eax,ecx
	jnc	00401261
	imul	eax,[eax+CD0AFBD1],0B

fn00401209()
	adc	cl,FB
	or	cl,ch
	or	edi,ebx
	not	cl
	dec	ebx
	sub	ebx,ecx
	jo	00401192

l0040121B:
	jnc	0040121D

l0040121D:
	jmp	00401222

l00401222:
	jno	00401192

l00401228:
	dec	edx
	sahf	
	sbb	cl,[eax+0C413A87]

fn00401230()
	inc	ebx
	sub	bh,bl
	mov	ecx,edx
	or	esi,ebx
	sbb	cl,8C
	inc	ebx
	mov	ecx,esi
	call	004011AF
	pop	esi
	inc	ebx
	and	[edx+CF0BB1D8],dh

fn00401248()
	or	ecx,edi

fn0040124A()
	or	esi,ecx
	add	ecx,edi
	xor	ebx,edx
	xor	ecx,edx
	dec	edi
	and	eax,EEEEEEEE
	jl	0040131D

fn0040125E()
	push	cx
	pop	cx
	jge	0040131D

l00401268:
	daa	
	scasd	
	cmpsd	
	stosd	
	mov	es:[24648DF2],al

fn0040126F()
	lea	esp,[esp+04]

fn00401272()
	add	al,49
	sub	ecx,esi
	mov	ecx,edi
	xor	esi,edx
	add	edx,ebx
	inc	esi
	add	ebx,esi
	sub	ebx,esi
	call	00401137
	pop	eax
	cmp	edx,edx
	xlat	
	mov	[C703F61E],eax

fn0040128D()
	add	eax,edi

fn0040128F()
	mov	ebx,edx
	inc	ecx
	add	edi,edx
	sub	edx,ecx
	or	eax,edx
	inc	ebx
	sub	eax,edx
	call	004010F4
	inc	ecx
	and	eax,8DAFEEF8

fn004012A6()
	lea	esp,[esp+04]

fn004012A7()
	and	al,04
	inc	esi
	or	esi,ebx
	or	edi,ebx
	mov	edx,ecx
	add	edi,ebx
	mov	eax,ecx
	mov	ecx,edi
	call	0040101D

fn004012BC()
	push	ss
	sub	esi,[edi-80]

fn004012C0()
	mov	ecx,esi
	xor	ecx,eax
	xor	ebx,eax
	add	ebx,ecx
	inc	edx
	sub	ecx,edi
	mov	ecx,edi
	xor	esi,eax
	js	0040110A

l004012D5:
	mov	ebx,ebx
	jns	0040110A

l004012DD:
	add	eax,0B0488B3
	cmp	al,AA

fn004012E5()
	xchg	[esp],esi
	jmp	004012EE
004012ED                                        A5                    . 

fn004012EE()
	push	ecx
	pop	ecx
	pop	esi
	add	ecx,eax
	add	ebx,eax
	mov	eax,[eax+08]
	add	ecx,ebx
	mov	edx,ecx
	call	0040136C
	std	
	fild	qword ptr [edi]
	ja	00401319

l00401306:
	mov	[4FDF0BB2],al
	inc	edi
	sub	esi,eax
	add	ebx,eax
	inc	ecx
	xor	edi,ebx
	inc	esi
	or	edx,ecx
	jmp	0040138C
00401318                         CE                              .      

l00401319:
	std	
	jc	004012BC

l0040131C:
	adc	al,[ecx-75]

fn0040131D()
	inc	ecx
	mov	ecx,edx

fn0040131F()
	retf	FA03
00401322       0B FE 8B DA 0B D6 46 33 D1 E9 71 FD FF FF   ......F3..q...
00401330 FF 93 29 99                                     ..).           

fn00401334()
	xchg	[esp],esi
	rep	
	pop	esi
	sub	edx,ebx
	sub	edx,ebx
	mov	eax,[eax]
	jmp	00401308
	loop	004012CC
	push	ds
	pop	edi

fn00401345()
	pop	dword ptr [esp-28]
	inc	edx
	xor	edx,edi
	xor	ecx,edi
	sub	edx,eax
	xor	edx,eax
	mov	eax,fs:[00000030]
	js	004012C0
	xchg	cl,cl
	jns	004012C0
	mov	dword ptr ss:[ecx],8F179926

fn0040136C()
	pop	dword ptr [esp-10]
	inc	ebx
	add	edi,ecx
	or	edi,ecx
	dec	ebx
	mov	edx,esi
	jbe	00401248

l0040137E:
	xchg	bx,bx
	ja	00401248

l00401387:
	add	al,17
	sbb	edi,[esi+01]

fn0040138C()
	xor	ecx,edi
	or	ebx,edi
	dec	edx
	inc	ecx
	add	edx,edi
	add	edx,eax
	or	edx,edi
	or	esi,ebx
	sub	ebx,edi
	call	004012E5
	pushf	
	adc	[ebp-15],cl
	push	edx

fn004013A6()
	call	00402109
	js	00401426

l004013AD:
	nop	
	push	ebp
	mov	al,[34F3D637]
	adc	[edx],ecx
	pop	es
	adc	edx,ecx
	pop	ss
	lock	
	lea	eax,[edx+18]
	sub	al,17
	aaa	
	cwde	
	xor	[ebx],edi
	aaa	
	aaa	
	and	al,E0
	push	es
	dec	ebx
	or	cl,bh
	xor	[esp],esp
	or	[edx],ebp
	les	esi,[esi+39]
	retf	C007
004013D7                      C0 37 37 E2 AA C0 EA 07 90        .77......
004013E0 5A 89 E2 B1                                     Z...           

l004013E4:
	pop	es
	cmp	bh,al
	mov	[072A19BF],eax
	sbb	[edx],ebp
	aam	35
	retf	3777
004013F3          03 25 3D 33 37 37 03 DD 2A 77 19 2A C4    .%=377..*w.*.
00401400 98 25 27 37 37 71 93 19 92 C0 EA B4 94 A2 1F 37 .%'77q.........7
00401410 37 03 E1 12 1F 39 30 D4 37 37 37 98 49 3B 37 37 7....90.777.I;77
00401420 7A 11 32 67 33 2A                               z.2g3*         

l00401426:
	adc	fs:[edx],edx
	pop	es
	xor	ecx,[edx]
	mov	ah,98
	sub	esi,fs:[edi]
	aaa	
	shr	bl,CB
	sbb	esi,ds:[378ED374]
	cwde	
	or	[edi],dl
	aaa	
	aaa	
	mov	ss,[edi]
	or	[edx],ebp
	in	al,76
	shr	dl,07
	jbe	004013E4

l0040144C:
	mov	eax,[F9373717]
	jcxz	004014C1

l00401453:
	jnz	00401495

l00401455:
	shr	dword ptr [edx],01
	xchg	eax,esi
	shl	byte ptr [ecx+edx+2A],F4
	sbb	[edi],ch

l00401460:
	aaa	
	push	11
	test	[eax+C0C0C0B2],bl
	shr	dword ptr [ebp-6A],01
	inc	eax
	in	al,6B
	mov	ah,5A
	xor	[edi],ebx
	cmp	dl,bl
	or	al,ah
	add	ebp,[37372301]
	inc	edx
	push	edx
	sbb	[edi+edx],ch
	aaa	
	cwde	
	sbb	ebx,[ebx]
	aaa	
	aaa	
	dec	ebx
	lock	
	push	cs
	add	eax,E04BEAC6
	sub	al,ah
	daa	

l00401495:
	aaa	
	aaa	
	aaa	
	add	esp,[37371B74]
	jbe	00401460

l004014A0:
	jmp	far 2363:9464
004014A5                37 37 98 FF 1B 37 37 98 C9 1B 37      77...77...7
004014B0 37 E1 4D 2F D7 FA 7E 3A 35 DB 37 03 29 11 13 37 7.M/..~:5.7.)..7
004014C0 37                                              7              

l004014C1:
	jmp	004014F0
004014C3          CC 76 12 D3 30 03 29 4F 23 37 37 11 22    .v..0.)O#77."
004014D0 A7 33 2C 98 E0 1F 37 37 FA C1 C8 66 7A AB EA 2B .3,...77...fz..+
004014E0 0D 5F 1E 6F 6C 30 F3 18 3A 94 00 0F 37 37 73 18 ._.ol0..:...77s.

l004014F0:
	xchg	eax,esp
	adc	al,0F
	aaa	
	aaa	
	cwde	
	add	bl,[edi]
	aaa	
	aaa	
	retf	EAD8
004014FD                                        3B A1 2C              ;.,
00401500 82 BF 96 3E 24 E0 7C 76 94 72 33 37 37 C0 74 8E ...>$.|v.r377.t.
00401510 3B 09 2A D4 76 09 2A E4 76 96 15 42 B6 B4 98 9A ;.*.v.*.v..B....
00401520 3B 37 37 63 93 B4 66 7A 6A 11 84 8E 36 96 37 F7 ;77c..fzj...6.7.
00401530 37 37 09 2A 07 76 8E 37 09 2A 17 76 8E C0 98 70 77.*.v.7.*.v...p
00401540 0F 37 37 7A 77 99 92 5B 05 6A 11 84 72 5E 62 11 .77zw..[.j..r^b.
00401550 CA 07 A6 11 4B F7 37 37 37 11 52 07 98 F5 1B 37 ....K.777.R....7
00401560 37 4D DC 4D 1B 3E 18 2C 07 37 6A 11 84 62 98 C3 7M.M.>.,.7j..b..
00401570 BC C0 C0 98 E0 73 E3 29 03 FA 3D 79 16 38 B4 17 .....s.)..=y.8..
00401580 85 94 B6 C0 C0 C0 CB 37 CA 37 37 F2 4E 90 FD 30 .......7.77.N..0
00401590 BC 10 BC 9F 11 EA 07 11 CA 17 C4 ED 35 F3 50 A5 ............5.P.
004015A0 F1 2F 94 5F 0F 37 37 F2 DC 98 C2 23 37 37 F2 E2 ./._.77....#77..
004015B0 20 A5 76 94 19 1B 37 37 5A 31 30 97 1A 13 18 03  .v...77Z10.....
004015C0 29 52 BC C0 C0 C0 EA 94 C0 EA 64 94 25 23 37 37 )R........d.%#77
004015D0 98 33 1B 37 37 C4 DD 09 51 84 E7 34 E7 35 C4 2B .3.77...Q..4.5.+
004015E0 F2 1F 31 D4 C2 E2 2F 3A 3A 69 11 28 98 C9 1B 37 ..1.../::i.(...7
004015F0 37 63 BB 14 43 96 5F C3 F0 11 84 31 24 D4 72 5E 7c..C._....1$.r^
00401600 62 11 2A 07 93 2A 67 98 48 C8 C0 C0 3B A8 12 6A b.*..*g.H...;..j
00401610 F5 7C 0C BE 6A 11 84 31 24 04 72 8E 37 03 FB 11 .|..j..1$.r.7...
00401620 14 39 B8 C0 37 37 37 8E 3B 98 30 3B 37 37 70 1D .9..777.;.0;77p.
00401630 46 86 E2 03 29 2E C0 C0 C0 94 95 BC C0 C0 90 8D F...)...........
00401640 85 78 94 03 25 23 2B 37 37 73 18 90 4D 98 9B C0 .x..%#+77s..M...
00401650 C0 C0 9C C0 09 E6 04 7B 33 52 C7 09 51 B5 37 37 .......{3R..Q.77
00401660 37 11 53 11 0A 17 13 50 03 25 90 3B 37 37 D3 0A 7.S....P.%.;77..
00401670 07 03 25 AC 3B 37 37 33 4A 17 98 74 3B 37 37 98 ..%.;773J..t;77.
00401680 12 1F 37 37 AE E7 02 62 DA 52 00 FE 94 2F 23 37 ..77...b.R.../#7
00401690 37 96 73 FA 13 F9 76 94 24 3B 37 37 C0 74 09 2A 7.s...v.$;77.t.*
004016A0 F4 76 98 85 2F 37 37 77 17 EA E1 FF 90 27 11 6F .v../77w.....'.o
004016B0 F3 34 D3 70 03 29 1B 2F 37 37 52 18 2C 27 37 98 .4.p.)./77R.,'7.
004016C0 A6 BC C0 C0 67 68 DD 25 A1 65 ED 18 2C 27 37 6A ....gh.%.e..,'7j
004016D0 11 84 72 5E 62 11 4A 17 11 70 93 6A 07 98 DE C0 ..r^b.J..p.j....
004016E0 C0 C0 C6 57 AC D7 04 CF 07 2F C0 EA F4 C0 EA E4 ...W...../......
004016F0 C0 EA A4 72 94 8E 33 37 37 19 2A A4 C0 EA D4 C0 ...r..377.*.....
00401700 EA A4 72 94 5F 23 37 37 98 25 C8 C0 C0 5E C0 72 ..r._#77.%...^.r
00401710 5B 81 00 96 60 FF BA E4 01 2A D4 96 04 04 04 04 [...`....*......
00401720 01 2A E4 96 04 04 04 04 01 2A F4 96 37 DF 37 37 .*.......*..7.77
00401730 01 2A 94 96 37 DF 37 37 98 A9 2F 37 37 D7 8E CA .*..7.77../77...
00401740 F8 E3 A4 0A AF 72 94 BC C8 C0 C0 72 94 2D 33 37 .....r.....r.-37
00401750 37 11 30 33 36 C7 C0 F6 E7 72 98 FD 1F 37 37 1F 7.036....r...77.
00401760 8D 66 3F E0 F8 33 54 33 58 33 4C 11 0C F0 A5 33 .f?..3T3X3L....3
00401770 EA C4 31 8C 0F E0 4C 11 0C 98 5F 2B 37 37 F5 AE ..1...L..._+77..
00401780 59 AD DD 2B 9B 2A D4 31 34 0F 9B 2A 07 31 CA 07 Y..+.*.14..*.1..
00401790 37 03 29 37 3B 37 37 11 2A D4 42 3E 52 18 98 9C 7.)7;77.*.B>R...
004017A0 2F 37 37 2D F6 2E A0 44 48 C3 D5 33 37 37 37 F3 /77-...DH..3777.
004017B0 6C 9E FC 94 9E 05 94 78 14 EE D8 98 BB 3B 37 37 l......x.....;77
004017C0 38 EB 24 86 8A 3D 5F 9E 31 DB 37 03 29 C4 37 37 8.$..=_.1.7.).77
004017D0 37 EB 2D CC 76 12 D3 2A 17 03 29 00 BC C0 C0 11 7.-.v..*..).....
004017E0 2E 57 98 70 BC C0 C0 98 34 BC C0 C0 4B 1B D0 1F .W.p....4...K...
004017F0 5E 98 A1 3B 37 37 51 58 74 50 27 A7 50 27 A7 3C ^..;77QXtP'.P'.<
00401800 38 50 27 A7 03 90 70 3C 38 98 25 3B 37 37 A7 AE 8P'...p<8.%;77..
00401810 5A DE 91 C0 EA 77 09 2A 07 76 09 2A 17 76 8E C0 Z....w.*.v.*.v..
00401820 98 0D 1F 37 37 D3 5A 6B A1 CC 9D 09 2A E4 76 96 ...77.Zk....*.v.
00401830 15 42 B6 B4 94 4E 2B 37 37 96 38 7F 54 F8 76 94 .B...N+77.8.T.v.
00401840 47 37 37 37 98 03 C4 C0 C0 EC 4F A1 9C 97 44 31 G777......O...D1
00401850 D2 27 17 03 21 DE 27 37 37 42 3E 52 18 2C 17 37 .'..!.'77B>R.,.7
00401860 6A 98 55 2F 37 37 B9 88 52 1C 11 84 C0 EA 17 8E j.U/77..R.......
00401870 C0 96 15 42 B6 B4 94 57 2B 37 37 96 B0 93 25 68 ...B...W+77...%h
00401880 98 E6 1F 37 37 5B BC C3 0C 11 EA 17 11 BC 03 DD ...77[..........
00401890 4A 7B 98 DC BC C0 C0 31 CA 07 0F 03 2D E0 33 37 J{.....1....-.37
004018A0 37 11 30 F3 6C D9 0F 37 37 37 98 E5 BC C0 C0 24 7.0.l..777.....$
004018B0 76 94 B5 2F C0 6D 31 30 07 11 6E 07 11 6F 98 80 v../.m10..n..o..
004018C0 C8 C0 C0 11 0E F7 F3 34 98 CC BC C0 C0 38 34 23 .......4.....84#
004018D0 EF 3B 31 38 2F 98 88 BC C0 C0 A6 2D 60 2F AF ED .;18/......-`/..
004018E0 5E 11 2A D4 19 2A 54 11 2A 84 90 2B 98 9E 1F 37 ^.*..*T.*..+...7
004018F0 37 16 38 94 03 38 B4 03 03 E1 17 39 98 0A 4E 37 7.8..8.....9..N7
00401900 37 98 7A 1F 37 37 B8 D5 3E 79 0D F0 50 90 8E C0 7.z.77..>y..P...
00401910 96 15 42 B6 B4 94 DA 27 37 37 96 91 96 33 E4 76 ..B....'77...3.v
00401920 94 D3 C0 C0 C0 C0 74 98 7B 1F 37 37 38 73 74 B2 ......t.{.778st.
00401930 90 68 D5 11 0A 07 11 6A 77 98 5A 1F 37 37 85 7A .h.....jw.Z.77.z
00401940 0D 0C 35 F8 73 2F FF 98 45 3B 37 37 AF 74 0D 43 ..5.s/..E;77.t.C
00401950 F4 89 8E 09 2A E4 76 8E 37 8E 37 96 15 42 B6 B4 ....*.v.7.7..B..
00401960 94 7F 27 37 37 96 DD C0 A7 F3 76 94 F4 BC C0 C0 ..'77.....v.....
00401970 C0 74 98 E5 BC C0 C0 EF B2 6E 91 1A 13 18 03 29 .t.......n.....)
00401980 63 3B 37 37 52 18 2C 07 37 98 75 27 37 37 0D 86 c;77R.,.7.u'77..
00401990 EC 80 50 27 A7 3C 38 03 90 38 09 1A 3B 39 D8 67 ..P'.<8..8..;9.g
004019A0 7D 22 3B 03 29 0A BC C0 C0 56 50 67 A7 56 98 E0 }";.)....VPg.V..
004019B0 C8 C0 C0 EA 65 B8 1F 69 62 61 43 33 52 C7 09 51 ....e..ibaC3R..Q
004019C0 35 37 37 37 11 53 13 50 03 25 F8 2F 37 37 33 4A 5777.S.P.%./773J
004019D0 17 98 40 2F 37 37 98 43 1F 37 37 90 CC CC A3 D4 ..@/77.C.77.....
004019E0 A9 98 01 2A A4 96 FC 04 D9 D3 01 2A 84 11 2A B4 ...*.......*..*.
004019F0 33 36 C7 11 16 76 19 0A 44 8E 36 98 81 37 37 37 36...v..D.6..777
00401A00 F5 6D 03 60 09 94 C0 F2 77 76 7A 94 96 37 37 37 .m.`....wvz..777
00401A10 11 32 07 33 2A B4 C0 F2 A7 C0 F2 17 98 79 D0 C0 .2.3*........y..
00401A20 C0 25 74 12 E3 3B BC 19 2A B4 A6 11 0B F7 37 37 .%t..;..*.....77
00401A30 37 19 3A 17 C0 EA 44 C0 EA B4 94 93 D0 C0 C0 11 7.:...D.........
00401A40 4A 64 33 52 C7 C0 F2 66 C0 EA 64 98 D9 D8 C0 C0 Jd3R...f..d.....
00401A50 D7 BA 68 8D 76 94 1F BC C0 C0 C0 74 11 2A C4 18 ..h.v......t.*..
00401A60 2C 17 37 6A 98 75 D0 C0 C0 74 EC B8 17 FE 91 A6 ,.7j.u...t......
00401A70 76 94 8C C8 C0 C0 76 30 6A 11 84 5E 98 E0 27 37 v.....v0j..^..'7
00401A80 37 A0 FC 86 5E 45 F1 CE 77 2C 77 37 6A 11 84 72 7...^E..w,w7j..r
00401A90 11 0A 07 11 4A 17 98 B8 BC C0 C0 11 2A 77 EB 68 ....J.......*w.h
00401AA0 C0 6F EB 38 14 7B 98 86 3B 37 37 BC 6D 1E C5 C0 .o.8.{..;77.m...
00401AB0 EA 44 C0 EA B4 94 21 27 37 37 11 2A B4 11 14 33 .D....!'77.*...3
00401AC0 36 C7 11 36 97 98 20 33 37 37 6C 1B 97 63 77 18 6..6.. 377l..cw.
00401AD0 2C 07 37 6A 11 84 31 24 C4 72 5E 62 11 4A 17 98 ,.7j..1$.r^b.J..
00401AE0 60 BC C0 C0 DF E4 D5 2A 6C 34 0D 0C 6C 14 5A 8D `......*l4..l.Z.
00401AF0 33 78 98 45 27 37 37 49 D5 8D E3 E7 38 5E 11 84 3x.E'77I....8^..
00401B00 31 24 C4 72 5E 62 11 2A 17 33 36 C7 11 6A 17 11 1$.r^b.*.36..j..
00401B10 36 D6 33 2C 98 48 37 37 37 90 61 5C F8 C0 EA B4 6.3,.H777.a\....
00401B20 94 95 33 37 37 C0 EA 44 C0 EA B4 94 A7 2F 37 37 ..377..D...../77
00401B30 11 4A 64 33 52 C7 09 52 57 C0 F2 D7 98 11 27 37 .Jd3R..RW.....'7
00401B40 37 F2 DC 97 C4 85 E8 98 A1 03 2D 4D D8 C0 C0 30 7.........-M...0
00401B50 93 C6 A7 97 19 C6 A7 47 BA 18 2C 17 37 31 24 F4 .......G..,.71$.
00401B60 C0 EA 17 09 2A D4 76 96 15 42 B6 B4 94 AF 2F 37 ....*.v..B..../7
00401B70 37 98 05 D8 C0 C0 CD BD 97 37 7D 7C 96 CC 33 52 7........7}|..3R
00401B80 C7 39 30 B7 3B 37 37 11 52 07 33 4A B4 C0 EA 84 .90.;77.R.3J....
00401B90 C0 EA A4 72 94 F0 BC C0 C0 E0 2A C4 17 37 37 37 ...r......*..777
00401BA0 03 25 5E D0 C0 C0 98 C3 D0 C0 C0 27 A6 40 90 EB .%^........'.@..
00401BB0 60 11 6A 77 FB 17 FB 77 42 3E 18 2C 07 37 6A 11 `.jw...wB>.,.7j.
00401BC0 84 B6 98 08 D8 C0 C0 82 18 3B ED F1 92 A8 AF 5A .........;.....Z
00401BD0 03 E1 07 16 11 22 47 33 2C 11 27 15 33 2C 98 51 ....."G3,.'.3,.Q
00401BE0 D4 C0 C0 98 15 D4 C0 C0 F3 34 98 39 D4 C0 C0 0C .........4.9....
00401BF0 51 34 7B C2 87 61 11 D4 11 F6 B7 33 EC 11 16 57 Q4{..a.....3...W
00401C00 19 0A C4 11 4A 07 F3 18 98 96 D4 C0 C0 7A 98 7F ....J........z..
00401C10 27 37 37 A8 91 8D 4E 8B EE B8 5D 67 19 2A 77 F3 '77...N...]g.*w.
00401C20 6C E0 EA 07 0D 26 5B C0 0D A7 4F 15 A6 5B C0 15 l....&[...O..[..
00401C30 27 4F 98 26 C8 C0 C0 12 BE 01 32 A7 91 BB 31 D4 'O.&......2...1.
00401C40 33 EA 23 33 D3 33 CA 17 3B 63 31 1C 2F 31 98 2F 3.#3.3..;c1./1./
00401C50 13 18 03 29 21 37 37 37 33 52 27 98 80 D0 C0 C0 ...)!7773R'.....
00401C60 B9 9E 7A 0A 2C 61 FF 09 06 A7 34 7A 19 66 A7 34 ..z.,a....4z.f.4
00401C70 09 66 A7 34 6E 8E C0 76 96 15 42 B6 B4 94 7B 3B .f.4n..v..B...{;
00401C80 37 37 96 91 96 33 E4 98 A4 C8 C0 C0 41 A4 37 38 77...3......A.78
00401C90 56 9E 0D C7 F0 A5 90 0F 11 0A 07 F0 A5 98 E8 CC V...............
00401CA0 C0 C0 11 2A C4 98 4C CC C0 C0 E5 98 82 CC 9B BE ...*..L.........
00401CB0 AF 43 31 30 67 31 D2 07 37 03 29 D3 33 37 37 42 .C10g1..7.).377B
00401CC0 3E 52 98 27 CC C0 C0 67 8A 3C C8 6E 69 93 EA 11 >R.'...g.<.ni...
00401CD0 12 27 31 98 17 11 F0 31 1C 17 98 FA C0 C0 C0 03 .'1....1........
00401CE0 E1 1F 03 E1 D4 9E 39 A0 C0 03 9E 38 94 07 98 12 ......9....8....
00401CF0 C0 C0 C0 40 AD 99 2C 96 15 42 B6 B4 94 6D 37 37 ...@..,..B...m77
00401D00 37 96 3E 24 E0 7C 76 94 66 D0 C0 C0 C0 74 C0 EA 7.>$.|v.f....t..
00401D10 17 96 15 42 B6 B4 94 D6 37 37 37 96 E0 6C 86 DA ...B....777..l..
00401D20 98 83 C8 C0 C0 D3 4C 0E 7B 83 E6 36 FE F3 18 94 ......L.{..6....
00401D30 19 2F 37 37 03 31 6C 37 37 37 F3 34 94 C6 2F 37 ./77.1l777.4../7
00401D40 37 03 31 D8 D4 C0 C0 F1 2F 3A 98 9D 37 37 37 41 7.1...../:..777A
00401D50 01 53 82 DF 6A 11 84 96 37 35 37 37 09 2A 07 76 .S..j...7577.*.v
00401D60 09 2A 17 76 98 A9 D0 C0 C0 B0 53 7A 55 22 DE 99 .*.v......SzU"..
00401D70 37 37 37 35 03 25 5C 37 37 37 EB 37 37 37 35 76 7775.%\777.7775v
00401D80 C0 EA C4 94 58 DC C0 C0 98 38 37 37 37 BB 5E 8A ....X....8777.^.
00401D90 63 7C CB 6A 11 84 72 A6 11 6B F7 37 37 37 11 6E c|.j..r..k.777.n
00401DA0 07 11 4C 98 FE D0 C0 C0 F2 AB FC AC 7B 94 4B D8 ..L.........{.K.
00401DB0 C0 C0 52 D9 37 77 37 37 11 6A 54 11 2A 04 18 11 ..R.7w77.jT.*...
00401DC0 E4 31 1C 77 96 37 36 37 37 19 06 A7 34 98 69 BC .1.w.7677...4.i.
00401DD0 C0 C0 86 F6 15 0A 0D E6 27 11 F3 90 33 11 F2 77 ........'...3..w
00401DE0 33 EA 17 11 D2 77 33 CA 17 90 EA 89 98 BE C0 C0 3....w3.........
00401DF0 C0 EB 10 81 16 F5 77 94 38 3B 37 37 6F 34 F2 E0 ......w.8;77o4..
00401E00 03 29 8D 3B 37 37 8D 98 5D E0 C0 C0 94 60 DC C0 .).;77..]....`..
00401E10 C0 93 10 98 53 D4 C0 C0 46 4D BE CA 96 8B 6A 11 ....S...FM....j.
00401E20 84 5E 62 11 EA 17 11 BC 98 1F D0 C0 C0 CC 1D 1D .^b.............
00401E30 EA B8 01 1E 47 90 0F 11 DF D3 EC 03 29 48 37 37 ....G.......)H77
00401E40 37 42 3E 52 98 1D C4 C0 C0 A8 FA 34 25 99 90 03 7B>R.......4%...
00401E50 33 2A 17 09 36 2F 76 C0 EA C4 94 2F DC C0 C0 91 3*..6/v..../....
00401E60 31 BF 37 EA 1D 98 16 BC C0 C0 53 48 32 F3 C0 EA 1.7.......SH2...
00401E70 A4 76 C0 EA 64 94 BC D0 C0 C0 E0 2A C4 77 37 37 .v..d......*.w77
00401E80 37 03 25 89 D0 C0 C0 98 79 C4 C0 C0 B5 3F CB A4 7.%.....y....?..
00401E90 5E 33 38 19 2A 74 C0 EA 94 8E 37 94 15 DC C0 C0 ^38.*t....7.....
00401EA0 19 2A 64 11 4A B4 98 70 C4 C0 C0 E2 F1 4C 62 96 .*d.J..p.....Lb.
00401EB0 15 42 B6 B4 94 4C BC C0 C0 96 C5 07 1C F2 76 94 .B...L........v.
00401EC0 45 D8 C0 C0 C0 74 11 2A C4 18 2C 07 37 6A 98 61 E....t.*..,.7j.a
00401ED0 D8 C0 C0 8F 58 3A 58 7B 11 0A B4 11 3A C7 11 26 ....X:X{....:..&
00401EE0 3B 97 33 38 19 2A 04 11 4A B4 C0 EA 04 C0 EA 74 ;.38.*..J......t
00401EF0 98 76 D4 C0 C0 7F 89 56 99 76 94 BA D8 C0 C0 C0 .v.....V.v......
00401F00 74 18 2C 27 37 6A 11 84 98 76 C4 C0 C0 21 69 72 t.,'7j...v...!ir
00401F10 D0 11 72 07 11 F2 07 90 2B 98 53 C0 C0 C0 11 1E ..r.....+.S.....
00401F20 47 D3 20 03 29 FE C0 C0 C0 C0 EA 17 01 1E 57 C0 G. .).........W.
00401F30 EA 77 98 D0 BC C0 C0 17 3D AD 85 CF 71 18 2C 17 .w......=...q.,.
00401F40 37 6A 11 84 31 24 C4 09 2A C4 76 98 30 D4 C0 C0 7j..1$..*.v.0...
00401F50 FE 82 66 55 BB 30 29 13 18 03 29 6D D8 C0 C0 19 ..fU.0)...)m....
00401F60 2A B4 C4 96 37 37 37 37 01 2A C4 98 B1 E0 C0 C0 *...7777.*......
00401F70 0C 73 B4 C0 0A 1F 36 25 62 11 0A 77 11 EA 07 11 .s....6%b..w....
00401F80 CA 17 F0 A5 11 20 42 98 58 E8 C0 C0 DD 36 EA 14 ..... B.X....6..
00401F90 85 84 EF 38 2C 33 1A 13 18 03 29 41 D8 C0 C0 11 ...8,3....)A....
00401FA0 2A 17 11 0A 07 98 23 C4 C0 C0 D3 FE FB 60 F1 3B *.....#......`.;
00401FB0 5E 11 E0 93 F4 F0 A5 3E 98 A8 E8 C0 C0 2F 6C 98 ^......>...../l.
00401FC0 4F E8 C0 C0 BA B9 5F 09 29 08 D4 15 01 2A 44 C0 O....._.)....*D.
00401FD0 F2 D7 C0 F2 47 C0 F2 D7 C0 F2 47 C0 F2 47 94 8C ....G.....G..G..
00401FE0 BC C0 C0 94 86 C8 C0 C0 94 D3 E8 C0 C0 98 EB CC ................
00401FF0 C0 C0 2B 07 0C 61 41 4D 1E 80 11 32 07 33 2A 17 ..+..aAM...2.3*.
00402000 76 94 C0 BC C0 C0 19 2A C4 31 D3 37 98 1C C8 C0 v......*.1.7....
00402010 C0 1D A3 71 97 EF 96 15 42 B6 B4 94 F2 C8 C0 C0 ...q....B.......
00402020 96 9E 72 2F 2E 76 94 EB D4 C0 C0 C0 74 11 2A 17 ..r/.v......t.*.
00402030 18 2C 17 37 98 53 C8 C0 C0 E9 2E 59 16 75 60 D7 .,.7.S.....Y.u`.
00402040 62 11 FE 33 0C F3 34 98 86 E4 C0 C0 38 34 23 EF b..3..4.....84#.
00402050 3B 98 BA E4 C0 C0 B0 C9 B2 81 86 9F 9D 3C 1E 94 ;............<..
00402060 16 C6 F6 1C                                     ....           

fn00402064()
	xchg	[esp],ecx
	jo	00402069

l00402069:
	pop	ecx
	add	edi,eax
	mov	ebx,eax
	sub	bh,dh
	inc	esi
	dec	esi
	jmp	00402970
00402077                      70 E6 35 6C 58 EB B7 29           p.5lX..)

fn0040207F()
	dec	ch
	or	edx,esi
	inc	cl
	add	cl,B2
	inc	edx
	xor	dl,cl
	or	edx,esi
	sbb	dh,72
	sub	ch,bl
	jbe	00402B27

l00402098:
	push	edi
	pop	edi
	rep	
	ja	00402B27
	dec	ebx
	inc	esi
	push	edx
	push	edx
	sbb	[ebp+4B042464],cl

fn004020A6()
	lea	esp,[esp+04]
	dec	ebx
	sbb	bl,76
	neg	bl
	or	cl,bl
	adc	bh,C7
	call	00402E13
	inc	ebp
	setz	byte ptr [ebp+31FFB2AF]

fn004020C1()
	push	dword ptr [ecx]

fn004020C3()
	sub	dl,cl
	mov	bl,dh
	dec	edx
	or	dh,bl
	xor	eax,edi
	mov	bh,dh
	or	al,bl
	or	dh,dl
	or	edi,ecx
	jmp	0040294B
004020D9                            08 99 47 51 7B 75             ..GQ{u

fn004020DF()
	sbb	cl,CD
	ret	
004020E3          80 D3 51 42 B5 BF 2A F1 80 C1 A3 8A E5    ..QB..*......
004020F0 32 D1 0F 8A 87 0C 00 00 E9 01 00 00 00 6A 0F 8B 2............j..
00402100 7B 0C 00 00 79 C8 31 47 9F                      {...y.1G.      

fn00402109()
	inc	ebx
	mov	eax,edx
	add	bh,15
	mov	bh,dh
	add	dh,al
	adc	ch,EF
	inc	eax
	dec	bh
	dec	bh
	call	00402624
	mov	al,[ABE75531]
	xchg	[edx],al

fn00402126()
	add	bh,dl

fn00402127()
	cli	
	add	edx,00000014
	mov	cl,8E
	mov	bl,cl
	inc	cl
	add	cl,ch
	sbb	ch,70
	neg	bl
	jz	00402EB1

l00402141:
	mov	al,al
	jnz	00402EB1

l00402149:
	pop	eax
	popa	
	test	al,B8
	movsd	
	in	eax,dx
	xor	bh,ah

fn00402151()
	mov	bl,89
	dec	esi
	mov	bh,66
	dec	ebx
	xor	bh,cl
	dec	ebx
	mov	bh,dh
	call	00402593
	inc	esp
	mov	[8D0127AC],eax

fn00402166()
	lea	esp,[esp+04]

fn00402167()
	and	al,04
	dec	bh
	mov	cl,62
	inc	cl
	mov	dh,bh
	add	eax,ecx
	jo	00402A0F

fn0040217A()
	repne	
	repne	
	jno	00402A0F
	cdq	
	sahf	
	popa	
	adc	esp,2B
	pop	esi

fn00402189()
	mov	bl,cl
	neg	bh
	add	esi,edi
	inc	ebx
	xor	bl,ah
	or	bl,dl
	adc	bl,B8
	dec	ebx
	add	bl,ah
	jpe	00402459

l004021A0:
	jmp	004021A5

l004021A5:
	rep	
	jpo	00402459
	stosb	
	mov	eax,[2B41F002]

fn004021B0()
	inc	ecx
	sub	edx,ebx
	or	dh,dl
	sub	ah,dl
	mov	eax,40215998
	inc	edx
	mov	bh,F0
	adc	ch,A7
	xor	bh,cl
	jmp	00402473
004021C9                            CB 7A AC 1F                   .z..  

l004021CD:
	or	ch,ah
	add	dl,3E
	mov	ecx,eax
	or	dl,bh
	or	edx,eax
	sbb	dh,FC
	call	004029F0
	push	ecx

l004021E1:
	repne	
	outsb	

l004021E3:
	outsb	
	push	ebp
	xchg	[ebp+0B042464],ecx

fn004021E6()
	lea	esp,[esp+04]
	or	edx,eax
	neg	bl
	neg	ah
	mov	bl,dh
	inc	edi

fn004021F3()
	xor	ah,al
	jl	004020C1

l004021FB:
	mov	al,al
	jge	004020C1

l00402203:
	ret	7222
00402206                   A5 6E 9F 3E 68                      .n.>h    

fn0040220B()
	dec	esi
	inc	esi
	add	bh,cl
	xor	eax,FFFFFEC8
	inc	bl
	mov	bl,al
	call	0040256B
	dec	edx
	dec	ecx
	jns	004021F3

fn00402221()
	sub	cl,al
	sbb	cl,81
	or	ecx,edx
	dec	dh
	push	00003000
	dec	edx
	mov	bh,71
	sbb	dh,D3
	or	ch,ah
	call	0040267F
	push	esp
	sets	byte ptr [ebp-7C]
	or	[ecx],ecx
	mov	cl,80

fn00402244()
	adc	dl,7E

fn00402245()
	sar	[esi+0B],cl
	illegal	
	not	dl
	add	ecx,edi
	mov	cl,E3
	mov	dh,bl
	dec	ebx
	inc	bl
	call	004020A6
	mov	byte ptr [esi],43
	mov	cl,B1
	add	edi,eax

fn00402260()
	pop	dword ptr [esp-18]
	neg	dh
	sub	dl,bl
	xor	dh,bl
	sub	dh,bl
	rol	bl,06
	or	dl,bh
	add	ecx,esi
	xor	edx,esi
	sbb	dl,68
	call	00402386
	mov	esi,eax
	stc	
	aam	06
	xchg	eax,esp

fn00402283()
	mov	[esp],ecx
	lea	esi,[esi]
	pop	ecx
	sub	dh,dl
	not	bl
	add	ch,ah
	add	edx,edi
	add	dl,dh
	jmp	00402ACB
00402298                         47 DD A9 F8 F8 77 2D            G....w-

l0040229F:
	adc	dl,2A
	mov	dl,cl
	mov	ah,E4
	sub	dl,ch
	inc	edx
	not	ah
	add	ebx,ecx
	adc	cl,90
	xor	bh,dh
	pop	ecx
	call	004027E3
	dec	ebx
	xchg	[eax],esp
	mov	ebp,8DA83D8B

fn004022BF()
	lea	esp,[esp+04]

fn004022C0()
	and	al,04
	mov	ecx,edi
	mov	ch,EA
	add	cl,bh
	sub	bl,dl
	mov	bl,[esi]
	jle	00402600

fn004022D3()
	repne	
	push	di
	pop	di
	jg	00402600
	push	7173E82F

fn004022E3()
	pop	dword ptr [esp-18]
	mov	ebx,eax
	add	dl,AE
	mov	dl,ah
	mov	dh,E0
	mov	edi,eax
	mov	ch,al
	adc	dh,0A
	add	bl,dh
	jmp	00402BCF
004022FE                                           64 5D               d]
00402300 36 62 8C 22                                     6b."           

l00402304:
	jnz	00402358

l00402306:
	mov	bh,dh
	dec	edi
	inc	edi
	dec	bl
	sbb	bh,08
	xor	bl,dh
	sub	ebx,esi
	or	bl,dh
	or	esi,ebx
	jmp	00402B66
0040231C                                     35 8D 8D 84             5...
00402320 8B BB 13 A5                                     ....           

fn00402324()
	xor	bl,ah
	or	bl,al
	or	esi,edi
	dec	edi
	sub	bh,ah
	add	ebx,edx
	jpe	0040254F

fn00402335()
	lea	cx,[ecx]
	mov	eax,eax
	jpo	0040254F

l00402340:
	xchg	[FB751355],ah
	sbb	byte ptr [edi-0A],DF

l00402348:
	neg	bh

fn0040234A()
	sbb	dh,5F
	add	eax,esi
	dec	al
	xor	dl,dh
	add	dh,92
	inc	bl

fn00402358()
	dec	ecx
	jmp	004027BC
0040235E                                           78 B6               x.
00402360 17 7A D6 52 C4 0A DC 33 DE FE C4 F6 D1 8A D9 0A .z.R...3........
00402370 F4 0B D8 F6 D2 0B C1 33 CE E8 0E 09 00 00 63 13 .......3......c.
00402380 39 92 AB C7 6B A1                               9...k.         

fn00402386()
	xchg	[esp],esi
	jmp	0040238E

l0040238E:
	lea	ax,[eax]
	pop	esi
	inc	ecx
	inc	dl
	inc	ecx
	or	dl,ch
	sbb	dh,CA
	jmp	00402A83
004023A0 A0 66 76 CB 00 C2 B8                            .fv....        

fn004023A7()
	adc	bl,B6
	sub	bl,cl
	call	eax
	neg	bl
	xor	ch,cl
	inc	ch
	jmp	00402DD0
004023B9                            8E A6 EA 6E AD                ...n. 

l004023BE:
	dec	esi
	mov	esi,eax
	sub	esi,eax
	mov	bh,ch
	lea	edx,[eax+000000F8]
	sbb	bh,C7
	jmp	00402882
004023D3          A5 D3 4F D4 48 AF                         ..O.H.      

l004023D9:
	xor	ecx,edi
	dec	bh
	dec	ch
	mov	ch,ah
	add	edi,00000269
	adc	ah,63
	neg	bl
	mov	bl,8A
	adc	bh,45
	or	edx,ecx
	jmp	004029CF
004023F8                         50 29 12 AB DC F0               P).... 

fn004023FE()
	add	bl,9D
	neg	dh
	sub	esi,edi
	adc	dh,78
	sbb	dh,D9
	movzx	edx,al
	xor	ebx,esi
	call	004026EA
	add	[esi],ecx
	illegal	
	das	

fn0040241A()
	xor	ecx,ebx
	sbb	bh,05
	xor	dh,ah
	mov	dl,al
	sbb	al,11
	add	cl,35
	sbb	dh,27
	jo	00402221

l00402432:
	xchg	di,di
	jno	00402221

l0040243B:
	and	ah,al
	adc	cl,09

fn00402440()
	lea	esp,[esp+04]
	mov	cl,B2
	mov	ecx,eax
	sbb	bh,7B
	xor	ebx,eax
	mov	bl,DF
	jmp	00402BB7
00402454             86 BA 13 89 D4                          .....      

l00402459:
	mov	bl,24
	or	bh,cl
	not	bl
	add	eax,ecx
	mov	bh,bl
	inc	esi
	mov	bh,AA
	js	004024BC

l00402468:
	xchg	al,al
	repne	
	jns	004024BC
	fdiv	st(0),st(7)
	mov	esp,8B1112B2

fn00402473()
	mov	edx,ecx
	sbb	cl,87
	dec	ecx
	inc	bh
	adc	ch,BD
	not	dh
	xor	eax,4021552B
	inc	bl
	dec	dh
	add	dh,cl
	jc	00402CBD

l00402492:
	mov	edx,edx
	jnc	00402CBD

l0040249A:
	and	al,[edx+esi*2-5E]
	cld	

fn0040249F()
	sbb	bl,89
	inc	ebx
	xor	ebx,edi
	mov	bh,52
	xor	ecx,eax
	mov	ecx,ebx
	or	ecx,ebx
	mov	ecx,edi
	call	00402440

fn004024B4()
	push	es
	insb	
	pop	dword ptr [edx+5E]
	pop	ebx
	and	dword ptr [ebx+0A],D9

fn004024BC()
	or	bl,cl

fn004024BE()
	or	edi,ecx
	xor	esi,eax
	sbb	bl,13
	add	bh,08
	sub	bh,ah
	jmp	0040265D
004024CF                                              5F                _
004024D0 BB 82 DE 86                                     ....           

fn004024D4()
	lea	esp,[esp+04]
	mov	cl,C7
	dec	cl
	sub	ebx,edi
	sub	ch,bh
	mov	ebx,eax
	add	ebx,eax
	xor	ebx,edi
	sbb	ch,AA
	jmp	00402126
004024EE                                           7B 83               {.
004024F0 FA 82 0D                                        ...            

fn004024F3()
	add	bh,F6
	xor	edi,ebx
	add	bh,cl
	add	esi,eax
	add	edi,esi
	dec	edi
	mov	bl,ch
	inc	bl
	mov	bl,al
	add	ebx,ecx
	call	00402C0A
	sub	al,[ecx+18]
	dec	ebx
	xlat	
	xchg	eax,edx
	push	ecx
	pop	eax

fn00402514()
	dec	bl
	push	edi
	or	edx,ebx
	xor	bl,ch
	mov	dh,ch
	xor	cl,ch
	sub	ecx,eax
	add	bh,ch
	call	004025D2
	pop	es
	rep	
	test	[ecx],ecx
	pop	edx

fn0040252D()
	xor	bl,dl
	sbb	bh,85
	mov	bh,A2
	adc	bl,60
	sbb	bh,E2
	neg	bh
	add	bh,B0
	add	eax,08
	mov	bh,95
	jpe	004024F3

l00402546:
	rep	
	jpo	004024F3
	lodsd	
	mov	[esi+3E],cl
	out	dx,ax
	pusha	

fn0040254F()
	adc	bh,73
	add	esi,edi
	add	bh,dh
	mov	bh,52
	mov	bh,dl
	or	esi,eax
	neg	bl
	mov	esi,edi
	neg	bl
	call	00402C5F
	push	cs
	add	al,5C
	pushf	

fn0040256B()
	pop	dword ptr [esp-28]
	add	bh,al
	dec	edi
	mov	edi,esi
	add	bl,dl
	xor	esi,ebx
	mov	ebx,eax
	not	bl
	mov	bl,bh
	dec	esi
	jpe	00402F51

l00402585:
	xchg	ecx,ecx
	jpo	00402F51

l0040258D:
	out	dx,ax
	cmpsb	
	inc	ebp
	mov	ss,[edx+24148796]

fn00402593()
	xchg	[esp],edx

fn00402596()
	push	edx
	pop	edx
	pop	edx
	add	bh,dl
	mov	bl,ah
	pop	edx
	jmp	00402324
004025A3          E1 76 40 11                               .v@.        

fn004025A7()
	mov	ebx,edi
	sub	ecx,E2040A31
	xor	bl,dh
	not	bl
	not	bh
	or	ebx,eax
	dec	bl
	or	ebx,eax

fn004025BB()
	dec	bh
	add	bh,bl
	jc	00402744

fn004025C5()
	repne	
	push	esi
	pop	esi
	jnc	00402744
	aam	BA
	jo	0040260E

fn004025D2()
	lea	esp,[esp+04]
	inc	al
	inc	ecx
	neg	bh
	or	edx,edi
	adc	dl,92
	dec	edx
	add	edx,eax
	or	ecx,edx
	not	ch
	jl	00402BEA

l004025ED:
	jmp	004025F3
004025F2       A8                                          .            

l004025F3:
	xchg	ch,ch
	jge	00402BEA

l004025FB:
	inc	ebp
	jns	004025BB
	add	[eax],ebp

fn00402600()
	dec	dh
	sbb	dl,73
	dec	dh
	or	edx,ebx
	add	ch,al
	mov	ch,AD
	xor	edx,edi
	mov	dl,05
	adc	dh,47
	sbb	dh,17
	call	00402283
	add	al,A9
	les	eax,[edx]
	mov	eax,[8FD67B91]

fn00402624()
	pop	dword ptr [esp-10]

fn00402625()
	inc	esp
	and	al,F0
	add	dl,AA
	inc	bh
	sub	bh,bl
	add	cl,al
	mov	cl,2A
	call	00402B42

l00402638:
	illegal	
	push	ss
	call	44D01C1E
	and	al,DC
	add	dl,ah
	sbb	bl,9B
	dec	ecx
	neg	dl
	pop	esi
	dec	eax
	inc	ch
	or	al,bh
	add	dh,ch
	jmp	00402365
	movsd	
	stc	
	illegal	
	enter	8A64,DE

fn0040265D()
	mov	bl,dh
	mov	bh,cl
	or	edi,edx
	sbb	bh,E9
	adc	bh,D7
	push	dword ptr [eax+10]
	xor	bh,dh
	sub	bh,bl
	xor	esi,ebx
	jmp	00402151
00402677                      79 D4 AF A4 6B 14 FF 45           y...k..E

fn0040267F()
	mov	[esp],edi
	jo	00402684

l00402684:
	pop	edi
	mov	bh,dh
	mov	dh,10
	inc	dh
	add	bh,9B
	add	cl,91
	call	004029AF
	outsd	
	or	ebp,[ebx+eax*4+1A2762B6]
	push	00
	inc	ch
	mov	edi,esi
	mov	bh,73
	add	dl,bh
	not	ch
	sub	edx,ebx
	call	004028F2
	xchg	eax,esp
	pop	es
	pop	esi
	mov	eax,[edx]

fn004026B6()
	add	dh,al

fn004026B7()
	lock	
	or	ebx,edx
	add	bh,28
	not	cl
	sub	ebx,esi
	add	bh,1A
	call	004022BF
	mov	ebp,51C41227
	fcom	st(0),st(3)
	push	ecx

fn004026D1()
	xchg	[esp],ecx
	jmp	004026DA
004026D9                            81                            .     

l004026DA:
	pop	ecx
	sub	ebx,edi
	add	bh,ah
	xor	esi,ebx
	jmp	004023BE
004026E6                   9C C8 7D 2B                         ..}+     

fn004026EA()
	pop	dword ptr [esp-1C]
	mov	edi,eax
	mov	bh,al
	sub	bl,dh
	not	bl
	mov	bl,3C
	jo	0040272E

l004026FA:
	xchg	cx,cx
	mov	cl,cl
	jno	0040272E

l00402701:
	test	eax,7C3BC3C0
	cld	

fn00402707()
	pop	dword ptr [esp-24]
	dec	ebx
	adc	bl,82
	xor	esi,edx
	adc	bh,A4
	xor	bh,bl
	or	esi,ebx
	dec	bl
	jbe	00402EEF

fn00402720()
	repne	
	repne	
	ja	00402EEF
	cmp	dl,bl
	test	eax,ecx
	inc	esi
	scasd	

l0040272E:
	inc	edi
	sub	ebx,esi
	adc	bl,21
	sub	esi,edx
	xor	bl,ah
	xor	bl,al
	call	00402C34
	das	
	jmp	far 2BD7:E751

fn00402744()
	sub	ebx,esi
00402745                DE 80 C3 EF 81 F9 CF F5 FB 1D 0F      ...........
00402750 85 1E 01 00 00                                  .....          

l00402755:
	sub	ecx,edx
	sub	edx,esi
	adc	ah,A9
	xor	ecx,eax
	jz	00402B03

l00402764:
	xchg	bh,bh
	jnz	00402B03

l0040276C:
	fsub	double ptr [806857C3]

fn00402771()
	adc	bh,04

fn00402772()
	xlat	
	add	al,02
	fdivrp	st(6),st(0)
	xlat	
	mov	bl,cl
	or	bh,dl
	adc	bh,C0
	not	bl
	dec	bh
	mov	bh,45
	jmp	004025A7
0040278A                               3A F7 DB F7 5B 87           :...[.

l00402790:
	xor	edi,edx
	dec	edi
	sbb	bh,1E
	dec	esi
	mov	bl,C1
	xor	bh,al
	or	edi,ebx
	sbb	bh,BF
	neg	bh
	add	bl,0F
	jl	0040252D
	lea	edx,[edx]
	lea	di,[edi]
	jge	0040252D
	push	eax
	or	eax,ebx
	jcxz	004027AF
	test	al,33

fn004027BC()
	xor	edi,ecx
	sbb	bl,72
	mov	bl,al
	sbb	bl,9E
	dec	eax
	not	dh
	or	al,bh
	add	bl,25
	xor	ebx,eax
	inc	eax
	jbe	00402D21

l004027D7:
	lea	eax,[eax]
	ja	00402D21

l004027DF:
	pop	ebp
	arpl	[edx+24648DA3],bx

fn004027E3()
	lea	esp,[esp+04]

fn004027E6()
	add	al,FE
	retf	C6FE
004027EB                                  B3 84 03 D0 FE            .....
004027F0 C6 F6 DF 2B D9 8B F7 E9 4C FB FF FF             ...+....L...   
004027FC                                     18 35 4D 35             .5M5
00402800 1E E9 DE D0 8F 44 24 EC F6 D3 03 D7 4A 80 C1 C3 .....D$.....J...
00402810 49 E9 88 FE FF FF B0 C0 CB 1E 64 5A             I.........dZ   

fn0040281C()
	lea	esp,[esp+04]
	add	ebx,esi
	or	ecx,edx
	mov	ebx,esi
	sub	ecx,edi
	or	ch,dl
	inc	bl
	or	ebx,esi
	inc	bh
	jc	00402AE9

l00402836:
	jg	00402838

l00402838:
	mov	edx,edx
	jnc	00402AE9

l00402840:
	out	dx,al
	push	edx
	dec	eax
	xor	al,67
	push	edx
	mov	dl,66

fn00402848()
	adc	dl,39
	dec	dh
	mov	dh,99
	adc	dl,12
	mov	dl,al
	xor	bl,4E
	jbe	0040207F

l0040285D:
	xchg	eax,eax
	repne	
	ja	0040207F
	push	54482BD6
	popa	
	test	byte ptr [edi+F3F32404],58

fn0040286D()
	xchg	[esp],eax
	rep	
	rep	
	pop	eax

l00402873:
	or	edx,ecx
	add	bh,cl
	inc	cl
	jmp	004026B6
0040287E                                           2C C5               ,.
00402880 E6 F8                                           ..             

l00402882:
	mov	esi,ecx
	not	bl
	not	bl
	add	bl,dh
	add	bl,22
	not	bl
	add	esi,ebx
	call	00402ED1
	in	eax,51
	xchg	eax,ecx
	mov	ebx,FD2ADF02

l0040289A:
	add	bl,bh
	sub	bh,ch

fn0040289E()
	add	bl,33
	inc	bh
	sbb	bl,BD
	mov	bh,8D
	add	eax,[eax+3C]
	mov	bl,ah
	mov	esi,edi
	add	bl,bh
	call	004026D1

fn004028B6()
	sub	eax,[ebp+edx+8FCDD971]

fn004028BC()
	pop	dword ptr [esp-1C]

fn004028BD()
	inc	esp
	and	al,E4
	xor	bl,ah
	mov	ecx,eax
	dec	ebx
	mov	[edi],dh
	add	ebx,esi
	mov	ebx,edi
	inc	ebx
	call	00402A4B
	mov	cl,3F
	sub	eax,[ecx+FAF0DD1C]
	xor	edi,eax
	add	eax,edx
	xor	esi,edi
	xor	esi,ebx
	mov	edi,ecx
	or	edi,edx
	jmp	00402D8C
004028EA                               D2 44 CC 69 89 0B           .D.i..
004028F0 35 E8                                           5.             

fn004028F2()
	xchg	[esp],ebx
	jmp	004028FB
004028FA                               A3                          .    

l004028FB:
	pop	ebx
	not	ch
	xor	edx,ecx
	sub	cl,dh
	or	ecx,edi
	jpe	00402F2B

l0040290A:
	xchg	bh,bh
	jmp	00402911

l00402911:
	jpo	00402F2B

l00402917:
	imul	ebp,[edi+ebp*2-3C],55

fn0040291C()
	xchg	[esp],eax
	js	00402921

l00402921:
	pop	eax
	mov	[esp-08],eax
	inc	esi
	add	ebx,ecx
	call	00402F68
	push	2E
	stosb	
	repne	
	or	edi,ebx
	sub	edi,esi
	or	edi,ecx
	dec	edi
	or	esi,ebx
	shr	eax,10
	or	edi,ecx
	jmp	004028D9
	and	dh,[ebx+55]
	illegal	
	sub	ecx,[edi+27]
	in	al,40

fn0040294B()
	inc	eax
	dec	bh
	sub	eax,ecx
	neg	bl
	pop	eax
	or	edi,ecx
	xor	bh,cl
	or	bh,dh
	not	dl
	add	dh,bh
	jo	00402AA4

l00402963:
	rep	
	jno	00402AA4
	add	al,1D
	movsd	
	jbe	00402904
	in	al,03

fn00402970()
	add	esi,ecx
	add	edi,esi
	not	bl
	dec	bh
	adc	bh,AC
	lea	eax,[eax+78]
	mov	bl,1E
	or	bl,ch
	jle	00402790

l00402988:
	lea	ax,[eax]
	jg	0040298D

l0040298D:
	jg	00402790

l00402993:
	pop	edi
	and	eax,0AE73ABD

fn00402998()
	or	dl,ah
	adc	cl,C8
	inc	ecx
	dec	ebx
	mov	ecx,ebx
	add	bl,bh
	call	0040286D
	popf	
	leave	
	sti	
	neg	byte ptr [eax+3C895059]

fn004029AF()
	mov	[esp],edi

fn004029B1()
	and	al,87
	shl	bl,5F
	add	dh,bh
	sub	bl,ah
	inc	ebx
	or	al,ah
	call	004029C2

fn004029C2()
	add	ah,dh
	call	00402F06
	seto	byte ptr [esi+B3914216]

fn004029CF()
	mov	bl,C5
	xor	bl,cl
	mov	ah,91
	or	edx,eax
	mov	dh,52
	inc	dl
	jo	00402514

l004029E1:
	lea	edx,[edx]
	jno	00402514

l004029E9:
	inc	ebx
	pop	dword ptr [eax]
	fstp	dword ptr [edx]
	sbb	ah,[eax+F2241C87]

fn004029F0()
	xchg	[esp],ebx
	repne	

fn004029F4()
	pop	ebx
	dec	cl
	sub	dl,bh
	or	cl,bh
	xor	ecx,eax
	jbe	00402244

l00402A03:
	repne	
	ja	00402244
	inc	edi
	push	edx
	mul	esp
	xor	[eax+E2024ED8],eax

fn00402A0F()
	sbb	al,4E
	add	ah,dl
	add	edx,edi
	dec	dl
	mov	ecx,eax
	add	al,24
	sub	ecx,edi
	or	ah,dh
	call	00402B8E
	cmp	esp,ebp
	test	al,ah

fn00402A2A()
	lea	esp,[esp+04]
	sub	ch,dh
	add	dh,8D
	mov	dl,ch
	or	ecx,eax
	add	dl,al
	dec	edx
	mov	dl,73
	xor	cl,dl
	add	edx,edi
	jmp	00402848
00402A45                0F EF 97 D7 80 CE                     ......    

fn00402A4B()
	xchg	[esp],ecx
	jns	00402A50

l00402A50:
	pop	ecx
	mov	ecx,eax
	neg	bl
	mov	ch,bl
	sub	ebx,edi
	mov	ecx,edx
	add	bl,al
	call	00402D58
	push	ebx
	illegal	
	push	ecx
	in	eax,27

fn00402A67()
	mov	[esp],edi
	rep	
	pop	edi
	or	ecx,edx
	not	dl
	not	dl
	inc	cl
	sbb	dl,9C
	call	0040263E
	mov	al,[8B57355A]
	add	esp,[esi+edi*8+D3DE80C1]

fn00402A83()
	inc	cl
	sbb	dh,D3
	mov	edx,ecx
	or	dh,cl
	mov	dl,54
	sbb	ch,51
	add	ch,dh
	neg	bl
	add	edx,ecx
	call	00402A2A
	jle	00402B15

l00402A9E:
	not	byte ptr [ebx+0DAD5026]

fn00402AA4()
	mov	dh,21
	not	dl
	adc	dl,BB
	adc	bl,01
	sbb	bh,59
	inc	bl
	jl	004023FE

l00402AB7:
	illegal	

fn00402AB9()
	jmp	00402ABE

l00402ABE:
	jge	004023FE

l00402AC4:
	illegal	
	mov	ch,E2
	jnz	00402B1D
	or	[ecx-02],al

fn00402ACB()
	inc	ecx
	dec	dh
	inc	cl
	mov	dl,ch
	neg	cl
	dec	dh
	mov	edx,esi
	or	ecx,eax
	sbb	dl,AD
	call	00402260
	jmp	00402AB7
00402AE4             AE CA 2A A7 03                          ..*..      

fn00402AE9()
	mov	ch,al
	xor	cl,dl
	inc	edi
	sbb	cl,FD
	or	ebx,eax
	inc	bl
	mov	ecx,edi
	dec	ebx
	jmp	00402CD5
00402AFD                                        8F 90 DD              ...
00402B00 C0 26 0C                                        .&.            

fn00402B03()
	inc	ecx
	sub	al,bh
	or	dh,bl
	neg	bh
	dec	ch
	mov	bl,BE
	neg	cl
	mov	ebx,edi
	jz	00402E5F

fn00402B15()
	add	eax,[eax]
	add	[edi+3F850FD2],al

l00402B18:
	xchg	edx,edx
	jnz	00402E5F

fn00402B1D()
	add	eax,[eax]
	add	dl,bh

l00402B20:
	cli	

fn00402B21()
	test	[ecx+3B],al
	fld	tword ptr [edx+02EB32FB]

fn00402B27()
	xor	ch,bl
	add	dl,cl
	add	bl,80
	add	dh,bl
	dec	ecx
	sub	dh,ch
	add	dh,bh
	inc	dl
	jmp	004021CD
00402B3C                                     94 59 52 7F             .YR.
00402B40 B5 2A                                           .*             

fn00402B42()
	lea	esp,[esp+04]
	add	ebx,edi
	xor	dl,ah
	inc	bl
	push	40
	not	bh
	jbe	00402CA6

l00402B56:
	mov	bh,bh
	repne	
	ja	00402CA6
	jl	00402B2C
	or	ebp,ebx
	xchg	eax,ecx
	jpe	00402BAB

fn00402B66()
	dec	edi
	dec	bl
	mov	eax,ecx
	mov	bl,EC
	add	bh,D2
	inc	ebx
	not	bl
	add	edi,ebx
	sbb	bl,17
	inc	edi
	jo	0040289A

l00402B7F:
	jpe	00402B81

l00402B81:
	mov	bh,bh
	jno	0040289A

l00402B89:
	sub	cl,11
	iret	
00402B8D                                        14                    . 

fn00402B8E()
	pop	dword ptr [esp-0C]
	sub	ah,dh
	sub	cl,bl
	dec	edx
	xor	ecx,eax

fn00402B98()
	enter	DA32,02
	fadd	double ptr [eax+8C0F4DD9]
	or	dh,dh
	illegal	

fn00402BA6()
	lea	cx,[ecx]
	xchg	cx,cx
	jge	004021B0

l00402BB2:
	test	dword ptr [edx+68],FB0A11F8

fn00402BB7()
	or	bh,bl

fn00402BB9()
	mov	bl,bh
	dec	bh
	add	bh,al
	dec	ebx
	or	ebx,ecx
	add	ebx,esi
	jmp	00402771
00402BC9                            FD 76 FF 0C 2F C7             .v../.

fn00402BCF()
	add	ch,AB
	sub	ecx,edi
	or	eax,esi
	dec	ebx
	inc	ecx
	add	ch,bl
	add	ch,9D
	call	00402A67
	mov	al,[17F743A5]
	wait	
	xor	eax,EF814A5A

fn00402BEA()
	dec	edx
	sub	edi,00000269
	xor	edx,ebx
	mov	ebx,edi
	mov	ebx,eax
	inc	eax
	or	cl,ch
	add	cl,31
	call	00402166

fn00402C02()
	mov	bh,01
	mov	[AB31CC35],al
	loope	00402B98

fn00402C0A()
	lea	esp,[esp+04]

fn00402C0B()
	and	al,04
	mov	bl,ch
	mov	edi,eax
	add	bh,0D
	or	bl,bh
	mov	eax,[eax]
	dec	bl
	sbb	bl,1D
	js	00402189

l00402C24:
	mov	dh,dh
	xchg	dx,dx
	jns	00402189

l00402C2F:
	mov	cl,4A
	retf	
00402C32       AE 7B                                       .{           

fn00402C34()
	mov	[esp],edi
	repne	
	pop	edi
	not	bh
	sub	bl,ah
	or	bh,bl
	mov	esi,edx
	or	esi,edx
	movzx	ebx,ah
	jz	00402933
	lea	di,[edi]
	mov	dh,dh
	jnz	00402933
	lodsd	
	cmp	dh,[ebp+70932BA4]
	retf	

fn00402C5F()
	lea	esp,[esp+04]
	add	edx,ecx
	xor	ch,bh
	sbb	bl,11
	add	bl,F2
	or	ch,cl
	sbb	bh,FF
	jpe	00402E79

l00402C78:
	lea	ax,[eax]
	jmp	00402C81
00402C80 D5                                              .              

l00402C81:
	jpo	00402E79

l00402C87:
	push	ebp
	stosd	
	aam	66
	sbb	eax,66240487
	xchg	ebx,ebx
	mov	dh,dh
	pop	eax
	mov	ecx,eax
	sub	al,bh
	sub	ecx,edx
	jmp	004023D9
00402CA0 3D 03 94 A1 41 53                               =...AS         

l00402CA6:
	add	bl,al
	dec	edi
	sbb	bl,26
	xor	edi,ebx
	sub	bl,cl
	adc	bl,79
	jmp	0040241A
00402CB8                         A6 33 12 57 36                  .3.W6  

l00402CBD:
	add	ebx,eax
	dec	edx
	dec	ebx
	mov	cl,ch
	mov	dl,bl
	or	ch,bl
	sub	ch,dl
	jmp	00402998
00402CCE                                           3A 65               :e
00402CD0 81 C4 62 CC C9                                  ..b..          

fn00402CD5()
	sbb	bl,B0
	inc	ebx
	sub	ebx,ecx
	add	bl,54
	sbb	bh,56
	adc	cl,CE
	inc	ecx
	add	bl,63
	mov	ebx,eax
	inc	bh
	jmp	00402DF1
00402CF1    C9 82 E6 EE 71                                ....q         

l00402CF6:
	dec	dl
	dec	esi
	mov	dl,bh
	neg	bh
	add	edi,esi
	or	dl,ah
	add	edi,eax
	shl	ecx,0F
	dec	dh
	sbb	al,2F
	js	00402DB0

l00402D11:
	repne	
	xchg	ecx,ecx
	jns	00402DB0
	sti	
	add	ch,cl
	pop	eax
	jcxz	00402D1A
	push	esi

l00402D21:
	mov	bl,5C
	mov	ah,7E
	inc	edx
	or	ah,bl
	shr	ecx,0F
	mov	bh,al
	add	dl,dh
	dec	ebx
	mov	edi,ecx
	sbb	bh,B8
	jo	00402CF6

l00402D37:
	mov	al,al
	jno	00402CF6

l00402D3B:
	in	al,82
	push	8963C99D

fn00402D41()
	mov	[esp],edx

fn00402D42()
	adc	al,24
	repne	
	pop	edx
	neg	dl
	sub	bl,ch
	dec	cl
	mov	ebx,edx
	call	00402804
	clc	
	mov	ch,DA
	pop	ds
	pushf	

fn00402D58()
	pop	dword ptr [esp-28]
	dec	bl
	dec	ecx
	mov	cl,8D
	xor	ebx,edx
	not	bh
	jle	00402E2E

l00402D6B:
	mov	ch,ch
	jmp	00402D73
00402D72       06                                          .            

l00402D73:
	jg	00402E2E

l00402D79:
	retf	EBCA
00402D7C                                     EB 96 70 8A             ..p.
00402D80 D7 8B D1 4F FE CD 0A E7 8A C7 02 D8             ...O........   

fn00402D8C()
	add	eax,ebx
	xor	bh,dh
	mov	bl,bh
	mov	bl,35
	inc	bh
	add	ebx,ecx
	add	bl,ch
	neg	bl
	jpe	0040220B

l00402DA2:
	xchg	dl,dl
	jpo	0040220B

l00402DAA:
	xchg	eax,ebp
	mov	cl,6F
	dec	esp
	mov	[edx],ah

fn00402DB0()
	adc	al,92
	xor	eax,esi
	xor	ah,dl
	sub	al,bl
	not	dh
	add	edx,edi
	mov	eax,esi
	mov	ah,B3
	mov	dh,ch
	call	004021E6
	test	[ecx+DE5926B6],bl
	rep	
	adc	al,[ebx]

l00402DD0:
	add	edi,esi
	or	bl,bh
	adc	dl,77
	adc	bl,A1
	or	edx,eax
	mov	dh,dl
	adc	ch,76
	mov	cl,0A
	add	ch,bh
	call	0040291C
	mov	dword ptr [eax-78],91493955

fn00402DF1()
	mov	ch,cl
	inc	ecx
	sbb	ch,58
	add	ebx,edx
	add	bl,al
	dec	eax
	xor	bl,al
	js	0040249F

l00402E04:
	xchg	bl,bl
	jns	0040249F

l00402E0C:
	lodsd	
	std	
	dec	eax
	xchg	eax,edx
	jg	00402E35
	pop	dword ptr [ecx+5B53240C]

fn00402E13()
	mov	[esp],ecx
	push	ebx
	pop	ebx
	pop	ecx
	mov	bh,31
	or	ch,bh
	sub	ebx,esi
	not	cl
	call	004028BC
	imul	esi,[edx-27],63ABD2A8

fn00402E2E()
	neg	bl
	xor	bl,ch
	or	ebx,edx
	inc	esi

fn00402E35()
	xor	ecx,edi
	neg	bh
	call	0040281C

fn00402E3E()
	pop	ss
	jmp	847AD776
00402E44             7A                                      z          

fn00402E45()
	add	bh,dl
	mov	bh,38
	add	edi,ebx
	push	dword ptr [edx+08]
	add	ebx,eax
	or	esi,ebx
	xor	edi,ecx
	call	00402064
	push	4B
	jg	00402E8F

l00402E5D:
	xchg	[edi-02],cl

fn00402E5F()
	dec	ah

fn00402E60()
	int	03
	or	ecx,edi
	or	esi,ebx
	not	bl
	neg	dh
	inc	esi
	add	bl,B3
	or	dh,ch
	jmp	004020DF
00402E74             96 53 75 61 26                          .Sua&      

l00402E79:
	sbb	bl,0D
	inc	cl
	sbb	ch,31
	xor	ecx,ebx
	dec	ecx
	dec	ch
	call	004024D4
	wait	
	pop	esp

fn00402E8F()
	xlat	
	test	[ebx+2AD7F602],ecx

fn00402E91()
	mov	eax,[edx]
	not	bh
	sub	dl,bh

fn00402E96()
	xlat	
	neg	bl
	xor	ebx,esi
	or	ebx,edi
	add	ecx,eax
	mov	cl,dl
	neg	bh
	sub	esi,edi
	call	00402D41
	xor	cl,[edx-07]

l00402EAC:
	stc	

fn00402EAD()
	daa	
	dec	edx
	mov	cl,7C

fn00402EB1()
	sub	bl,al
	xor	ebx,esi
	add	esi,ecx
	mov	bl,50
	inc	bl
	sub	edi,ebx
	dec	bh
	inc	cl
	inc	esi
	jle	00402E91

l00402EC4:
	jmp	00402ECA
00402EC9                            74                            t     

l00402ECA:
	rep	
	jg	00402E91
	jge	00402EDA
	cmc	
	lea	esp,fs:[esp+04]

fn00402ED1()
	lea	esp,[esp+04]
	mov	ebx,esi
	add	esi,ecx
	dec	bl
	or	bh,ah
	or	esi,edi
	xor	bh,ah
	add	edi,ecx
	sub	bh,dh
	jmp	00402E45
00402EEA                               DB 84 DE 3B C8              ...;.

fn00402EEF()
	sub	bh,ch
	mov	bl,7E
	or	ebx,edi
	mov	esi,ebx
	inc	esi
	or	eax,eax
	jmp	00402304
00402EFF                                              1E                .
00402F00 56 95 E3 2B A5 4C                               V..+.L         

fn00402F06()
	xchg	[esp],ebx
	xchg	ax,ax
	xchg	ecx,ecx
	pop	ebx
	inc	ebx
	dec	ecx
	sub	eax,esi
	add	bl,cl
	jbe	0040229F

l00402F1B:
	mov	ch,ch
	mov	edi,edi
	ja	0040229F

l00402F25:
	cmpsb	
	jpo	00402F50

l00402F28:
	wait	
	outsd	
	jno	00402EAC

l00402F2B:
	add	ch,21

fn00402F2C()
	lds	esp,[ecx]
	xor	ch,bl
	mov	ch,10
	mov	bh,2C
	add	ecx,edi
	mov	bl,2A
	inc	ebx
	mov	ch,bh
	jl	004023A7

fn00402F41()
	mov	eax,eax
	rep	
	jge	004023A7
	xor	edx,[edi-02]
	inc	edi
	repne	
	illegal	

fn00402F50()
	and	al,43

fn00402F51()
	inc	ebx
	mov	bl,47
	add	edi,edx
	mov	ebx,esi
	inc	ebx
	xor	bl,al
	not	eax
	call	00402707
	stosd	
	test	dword ptr [edx],8F1408CE

fn00402F68()
	pop	dword ptr [esp-0C]

fn00402F69()
	inc	esp
	and	al,F4
	not	cl
	inc	edi
	mov	bh,bl
	add	bh,ah
	dec	ecx
	xor	edx,esi
	mov	edx,edi
	or	edx,ebx
	call	004022E3

fn00402F7F()
	cmp	esp,edx
	mov	cl,52
	pop	ebx
	add	[eax],al
	add	[eax],al
	add	[eax],al
	add	[eax],al
	add	[eax],al
	add	[eax],al
	add	[eax],al
	add	[eax],al
	add	[eax],al
	add	[eax],al
	add	[eax],al
	add	[eax],al
	add	[eax],al
	add	[eax],al
	add	[eax],al
	add	[eax],al
	add	[eax],al
	add	[eax],al
	add	[eax],al
	add	[eax],al
	add	[eax],al
	add	[eax],al
	add	[eax],al
	add	[eax],al
	add	[eax],al
	add	[eax],al
	add	[eax],al
	add	[eax],al
	add	[eax],al
	add	[eax],al
	add	[eax],al
	add	[eax],al
	add	[eax],al
	add	[eax],al
	add	[eax],al
	add	[eax],al
	add	[eax],al
	add	[eax],al
	add	[eax],al
	add	[eax],al
	add	[eax],al
	add	[eax],al
	add	[eax],al
	add	[eax],al
	add	[eax],al
	add	[eax],al
	add	[eax],al
	add	[eax],al
	add	[eax],al
	add	[eax],al
	add	[eax],al
	add	[eax],al
	add	[eax],al
	add	[eax],al
	add	[eax],al
	add	[eax],al
	add	[eax],al
	add	[eax],al
	add	[eax],al
	add	[eax],al
	add	[eax],al
	add	[eax],al
00403000 A6 BB 05 31 F2 77 D3 5E 8A 96 D7 8E 90 F0 00 00 ...1.w.^........
00403010 BF A0 00 00 C7 5F 00 D0 00 86 62 95 FD 00 A2 51 ....._....b....Q
00403020 4F CB 54 72                                     O.Tr           

fn00403024()
	call	dword ptr [esi-69]

fn00403025()
	pop	esi
	xchg	eax,edi

l00403027:
	cmp	ch,bh
	mov	sp,ds
	ret	C300
0040302E                                           69 C5               i.
00403030 60 99 0E B8 FF 0A FF C0 7B 00 81 64 00 BC A0 16 `.......{..d....
00403040 E0 DE 00 50 89 CD 5C DD 23 FF 2E 37 34 39 2D 96 ...P..\.#..749-.
00403050 FF 1E A2 30 52 00 00 F9 22 3D 24 C6 38 80 8C 20 ...0R..."=$.8.. 
00403060 F4 8B 5A 63 FD 8B 78 53 A8 4A 4B 3F 00 56 F0 48 ..Zc..xS.JK?.V.H
00403070 FA 08 FF B4 FB 9E DF 87 7A A2 FD 32 14 4F 8F 62 ........z..2.O.b
00403080 BD E2 2E 0E BA F0 A3 86 00 00 E1 62 B1 00 7B 00 ...........b..{.
00403090 A9 5C 06 00 78 00 FF 69 3E C0 BF BC E3 00 00 1E .\..x..i>.......
004030A0 71 E8 B1 C4 26 C5 88 41 07 DF 4C A2 38 A0 EE 20 q...&..A..L.8.. 
004030B0 1F 42 98 00 EB F9 B1 00 6E D0 00 4B 00 F5 75 65 .B......n..K..ue
004030C0 00 63 AF 91 DA CC 6A F7 8F 1A 00 26 9F 35 3C 04 .c....j....&.5<.
004030D0 DA 19 3E 66 80 52 40 F8 1C 20 D2 FF 33 04 DE 33 ..>f.R@.. ..3..3
004030E0 52 00 A1 CF C9 38 FA 09 9B 6B 75 6F 00 5A 00 FE R....8...kuo.Z..
004030F0 B2 00 00 AB 83 00 B1 00 17 F9 D4 EB F5 72 00 EE .............r..
00403100 EC DB 98 00 E2 27 FA 5C A0 26 41 59 38 3A FE FC .....'.\.&AY8:..
00403110 8B CF 8B CF 80 37 0C B7 36 3C 99 13 98 00 1D 04 .....7..6<......
00403120 7C 37 BE 8F 66 00 95 00 3A 00 04 CC 65 26 00 C6 |7..f...:...e&..
00403130 00 C6 EC A8 2B 00 DD E6 D3 AD 0F 83 55 75 74 F8 ....+.......Uut.
00403140 DF 21 00 CC 86 12 FF BA E2 84 06 03 E5 65 67 FF .!...........eg.
00403150 56 33 80 00 50 00 9E 91 00 0B 00 E8 A4 32 62 CD V3..P........2b.
00403160 33 F0 9B E4 82 00 69 C2 31 50 A2 8D 50 00 CE 57 3.....i.1P..P..W
00403170 80 0E 30 28 91 73 0E 00 6F 6F 42 00 A0 00 00 00 ..0(.s..ooB.....
00403180 A7 00 64 DD D7 36 17 9F 54 00 61 00 38 00 C1 00 ..d..6..T.a.8...
00403190 51 B9 CD FF 00 40 4D C0 22 11 1C 6A 20 51 18 FF Q....@M."..j Q..
004031A0 00 00 DC 29 F7 D6 00 67 00 73 54 BA 53 51 E9 70 ...)...g.sT.SQ.p
004031B0 FB 8F 00 3E CD 1D 18 C5 7F 31 3A A0 F9 00 0A 72 ...>.....1:....r
004031C0 BD 1F 0A 79 00 EF 6F 39 B9 FF F3 6C 5F 61 53 99 ...y..o9...l_aS.
004031D0 DB 15 FF C4 3B 07 12 A7 5E 6C 79 BF 21 F7 33 85 ....;...^ly.!.3.
004031E0 3E 96 AD 00 FB 40 EF 34 C8 00 A6 FF 50 06 5B 01 >....@.4....P.[.
004031F0 8B A3 80 ED 00 5F DE 6E 5D 90 9C 00 F8 6C 00 36 ....._.n]....l.6
00403200 B7 B4 D0 DD 53 01 52 44 DB 17 59 E3 81 4E 7E AA ....S.RD..Y..N~.
00403210 15 9F 9B B4 50 1C FF CE 57 00 45 94 5A 47 00 09 ....P...W.E.ZG..
00403220 00 C1 7F B8 98 60 38 9E B9 ED 2E 33 7B 9E F8 60 .....`8....3{..`
00403230 62 FE 0A 2D 98 B5 FF 52 FF 3E C8 44 C9 E6 00 3F b..-...R.>.D...?
00403240 11 02 B5 60 8F 3E 08 38 5B 02 D3 2A 80 2E 45 7F ...`.>.8[..*..E.
00403250 98 AD 84 0E D9 D8 2C 40 7B 00 0D 3D 45 00 21 BC ......,@{..=E.!.
00403260 FE 60 5E DD 0F 39 FF 2F CB 87 4D 2A 13 E0 C8 88 .`^..9./..M*....
00403270 33 70 38 00 72 FE 6E 68 38 BB 90 78 4D 30 60 FA 3p8.r.nh8..xM0`.
00403280 31 65 63 D7 9F 2D 6E A3 6E E2 16 5B BB 47 FF CC 1ec..-n.n..[.G..
00403290 0A 6F 20 82 DE 16 0D 44 00 4D 00 05 31 A0 46 D1 .o ....D.M..1.F.
004032A0 08 F4 AE C2 00 92 00 F0 4D 25 1C A5 F7 95 CF FD ........M%......
004032B0 A5 1E D8 47 EF 07 5A A8 B4 FF F3 35 C5 87 01 7E ...G..Z....5...~
004032C0 09 03 1F 6A A1 5F FF FF 2B D3 A2 20 7A 5D A8 4F ...j._..+.. z].O
004032D0 6F 00 00 74 5D E3 AC 32 22 BC 17 72 A3 77 32 CA o..t]..2"..r.w2.
004032E0 F1 30 00 40 B6 1D 7C F4 9C E7 C3 FE C8 00 4B 00 .0.@..|.......K.
004032F0 FF 71 7A F5 08 00 D9 A5 14 36 FB 93 31 B1 55 8E .qz......6..1.U.
00403300 E4 B6 FC 76 31 4B 3D D6 ED 64 04 97 09 DD 46 C1 ...v1K=..d....F.
00403310 00 AF 4B 54 00 34 82 70 00 3B 0E 76 0C 89 28 3C ..KT.4.p.;.v..(<
00403320 13 9B E9 F5 EA 6F FF 2E 13 2B 00 B3 00 0D 61 30 .....o...+....a0
00403330 A2 D6 82 7A 83 FF 0D 8C 00 72 52 8B 00 81 81 27 ...z.....rR....'
00403340 DD 61 08 9C 9B 58 C5 5F 37 1C E9 11 00 95 02 00 .a...X._7.......
00403350 29 3B 6D 3E F6 66 7E 00 77 49 FF D0 C8 90 BC 7B );m>.f~.wI.....{
00403360 D8 D7 05 F5 60 CF 2C 99 1A 00 B9 4D 93 80 FA 08 ....`.,....M....
00403370 6B 42 FF 98 30 7F 43 73 76 88 30 65 78 30 B4 FF kB..0.Csv.0ex0..
00403380 E8 F8 08 78 6D 07 6C 29 12 26 7F 57 21 00 ED FF ...xm.l).&.W!...
00403390 61 60 DB E2 25 61 F0 78 A6 E6 B9 BC 66 EC 71 90 a`..%a.x....f.q.
004033A0 C5 00 26 EF D1 00 00 B1 4E FF C9 45 00 87 00 FE ..&.....N..E....
004033B0 FF 39 94 23 C0 DE 00 A4 00 3D 01 9F 88 40 15 00 .9.#.....=...@..
004033C0 D4 C7 A2 6B 78 E3 CE 04 B4 6F 86 00 29 00 B9 FF ...kx....o..)...
004033D0 11 71 E0 00 B0 FD 51 A7 00 D3 72 C4 00 96 07 9B .q....Q...r.....
004033E0 AC FB F0 3A 0A A9 E6 FF 00 22 C3 7C F3 6F 1A FF ...:.....".|.o..
004033F0 58 D1 87 BB 5D 27 00 0E 6D 32 21 36 0E 6D BD 98 X...]'..m2!6.m..
00403400 FF 4B 2F BE 36 7F BF FF EF 38 40 47 5C 27 C9 66 .K/.6....8@G\'.f
00403410 01 1D 91 59 00 F8 B2 C2 41 00 3B 6B E7 08 32 7B ...Y....A.;k..2{
00403420 20 74 33 FF F1 F7 FD 81 86 B3 3F 91 82 6B FF C3  t3.......?..k..
00403430 5F 2C 00 00 3B 70 CF E3 00 98 11 3E 72 AC 00 73 _,..;p.....>r..s
00403440 AF 0E 00 90 40 97 91 6F 8F 4C 99 00 D1 00 E0 E8 ....@..o.L......
00403450 2F 71 08 0F AD 07 B7 B0 9E 00 EB F3 00 08 03 08 /q..............
00403460 7F 9B E1 BF 56 00 1A 1C A1 B8 FD 0B 2B BB 94 AC ....V.......+...
00403470 40 E9 FF 8E 24 78 05 02 18 A6 43 87 0D B0 18 00 @...$x....C.....
00403480 6D 00 F9 00 58 12 00 D3 75 7F DA F7 05 90 8C 19 m...X...u.......
00403490 00 BF FF 95 00 EB 57 E3 3A 00 00 08 A4 69 00 CF ......W.:....i..
004034A0 B5 0D FB C1 59 E0 16 46 0A 6C DC ED F6 07 C9 00 ....Y..F.l......
004034B0 11 EB 16 10 79 C5 89 68 00 AC 00 95 6A 3C C1 92 ....y..h....j<..
004034C0 DE 20 FB FF 6C 00 48 D5 86 00 52 B7 BD 60 63 BA . ..l.H...R..`c.
004034D0 18 C6 C2 21 06 35 FD FF 40 1B 00 AC A7 34 00 E3 ...!.5..@....4..
004034E0 2A 0D 52 0A E8 58 40 28 1A D2 FF 00 F9 00 E6 20 *.R..X@(....... 
004034F0 F8 2A 5E 90 28 8D 9B 13 26 E5 BF 00 C9 5A 00 63 .*^.(...&....Z.c
00403500 00 2B 88 00 FF 94 81 0A 97 F1 74 9B 72 00 36 AF .+........t.r.6.
00403510 5C 4E 00 AD 46 7A FE 62 00 48 0E 85 E9 2A 01 E3 \N..Fz.b.H...*..
00403520 80 00 5B 81 23 75 40 70 CD 97 00 D6 85 DC FF F9 ..[.#u@p........
00403530 BF 26 9B F6 FA E0 00 00 E7 EB FF 7D FF 23 37 2E .&.........}.#7.
00403540 2E B3 39 7F 26 FE 3D A0 D7 60 FE B2 BE EF FB 16 ..9.&.=..`......
00403550 C5 DB B0 00 6F 77 2C 83 47 5A 78 A7 8D E5 73 29 ....ow,.GZx...s)
00403560 8B E0 74 FD BB 6D C2 FA 00 0F BF DE 00 4D 96 02 ..t..m.......M..
00403570 BF 7F 00 8D 98 22 C4 CD D4 35 57 E2 49 60 15 7A ....."...5W.I`.z
00403580 EB 46 87 62 E5 0C C9 D2 EB F2 F8 00 29 2C 00 73 .F.b........),.s
00403590 F0 F7 1B 9F 2E 00 A3 CD 79 99 00 FF 43 82 A2 00 ........y...C...
004035A0 CF 00 42 4F F0 F7 16 C3 1A 00 FF 39 00 C9 1B 76 ..BO.......9...v
004035B0 2C 00 80 FB 72 B9 43 63 B3 77 AF FF 00 20 99 47 ,...r.Cc.w... .G
004035C0 AA E4 2E 0C 00 3B 2A 9A 9E 00 FF C7 C0 D5 E6 81 .....;*.........
004035D0 49 BD 35 D0 00 00 01 FF 40 1C 00 13 03 D8 01 44 I.5.....@......D
004035E0 FA 11 EF 00 FF 96 00 00 F3 FF 43 36 CC FF A1 E8 ..........C6....
004035F0 E6 A0 03 33 FF 63 9F B3 4C F9 A9 12 C9 81 00 51 ...3.c..L......Q
00403600 5C 34 3B 10 0D 5C 0B D9 4A 15 34 8D 28 01 A7 12 \4;..\..J.4.(...
00403610 CE 20 0F F0 00 B4 1D 5A 20 FF 8A 00 19 00 D0 F9 . .....Z .......
00403620 3F 00 7D E8 5C 51 0B 53 4C 97 D5 F6 19 4E DF 7F ?.}.\Q.SL....N..
00403630 FF CC 85 FF 3B 82 35 8F F3 FF 80 C1 FA 8F 8C 00 ....;.5.........
00403640 52 53 00 95 AF 35 D2 82 C0 72 81 06 6F DC 53 B3 RS...5...r..o.S.
00403650 CE 00 BD 55 00 2D 74 87 15 3C 3A E8 58 FF 19 36 ...U.-t..<:.X..6
00403660 04 AC 4D 88 D1 00 FF 93 F4 00 71 AC 80 39 16 E9 ..M.......q..9..
00403670 FE A9 20 00 60 00 C6 94 00 A0 4D 80 00 00 D8 B6 .. .`.....M.....
00403680 B8 D9 AB F5 B5 06 00 26 F1 51 80 26 39 E2 AA D8 .......&.Q.&9...
00403690 05 58 35 11 27 6A 51 57 FC 00 8B 2C 91 8A 00 0B .X5.'jQW...,....
004036A0 8C 80 E5 73 8C A3 BF D7 52 84 00 6C 09 AD 1D 1F ...s....R..l....
004036B0 44 ED F0 D8 04 BB 39 F8 26 4C F3 93 00 DE 4F 7E D.....9.&L....O~
004036C0 00 7C 24 00 00 79 D9 59 2D B3 74 84 B4 89 38 B4 .|$..y.Y-.t...8.
004036D0 85 A9 B9 00 70 40 5C 66 00 6B 00 D9 89 A7 60 32 ....p@\f.k....`2
004036E0 4D 5C 5D A5 ED 75 03 7C 00 91 00 C7 D6 FA FF 01 M\]..u.|........
004036F0 00 33 6A 92 C9 B9 97 D0 11 58 5C 41 FF 88 C1 A8 .3j......X\A....
00403700 39 8B C2 58 97 23 8C 00 1A 52 1C C0 B1 06 5F 81 9..X.#...R...._.
00403710 3B 60 01 4D 20 84 FB 29 1C 14 DE A5 5F 42 FF BC ;`.M ..)...._B..
00403720 BB D9 38 4A 07 33 7D 80 3E 00 3E 30 E7 10 05 C0 ..8J.3}.>.>0....
00403730 7B 34 CA AD 40 0B 32 BB D9 85 51 E4 FF F2 CD 00 {4..@.2...Q.....
00403740 30 38 8C 00 9F 12 5B C4 2E EA 5E 53 14 DD 15 97 08....[...^S....
00403750 9C 29 27 70 2C 54 FF DB CD A5 BB 21 32 53 22 40 .)'p,T.....!2S"@
00403760 00 C1 D2 27 61 6A 67 18 A7 00 00 E4 4E 04 30 00 ...'ajg.....N.0.
00403770 E0 A9 D9 7B 5D BD AB 40 10 B1 BE 58 B2 D1 9E 9F ...{]..@...X....
00403780 98 FF 01 68 F8 A1 00 98 FF 6A F9 38 92 27 A9 75 ...h.....j.8.'.u
00403790 D7 19 75 00 00 00 1A 59 F7 FF F8 BC 52 80 00 61 ..u....Y....R..a
004037A0 A0 00 D5 00 3E 1F 84 00 FB 2F EA 43 B8 93 21 3E ....>..../.C..!>
004037B0 00 A5 B5 12 42 10 8A 00 52 49 A5 18 31 98 63 48 ....B...RI..1.cH
004037C0 F7 44 F0 01 FD B1 B1 4B B5 08 83 04 53 1D 00 FF .D.....K....S...
004037D0 63 98 02 08 99 43 31 BD 38 3B 66 00 9E 98 00 52 c....C1.8;f....R
004037E0 AC 17 5D 5D B8 A0 31 33 BF CA 41 CD A7 C1 DB 00 ..]]..13..A.....
004037F0 C2 6E F6 A9 D5 F4 80 53 E5 00 4B E3 CB E0 A5 90 .n.....S..K.....
00403800 FD 29 03 AD 9F D8 CB 4D 01 D1 FF 8D 20 EF 12 82 .).....M.... ...
00403810 7B 29 11 1F AB 2B F7 28 2C 93 26 BF 0C AA 2E 02 {)...+.(,.&.....
00403820 56 61 61 A1 98 FF 61 00 5A 17 8E 4F 6E 8D 9E C7 Vaa...a.Z..On...
00403830 0D 36 2A 46 DE DD 3E 01 E3 04 4D 87 47 7B 6F 00 .6*F..>...M.G{o.
00403840 AE 94 24 FF 55 4C 7F C1 B5 92 00 F7 FD 00 4A 37 ..$.UL........J7
00403850 A0 62 3D A7 E1 33 A0 00 14 30 CB 00 BA 01 D4 BB .b=..3...0......
00403860 DC 33 F9 00 AC 73 2C 9D BB FF E5 00 DE 51 E1 27 .3...s,......Q.'
00403870 06 61 F5 C9 FB 00 E9 00 A3 29 E8 20 75 5F FF A6 .a.......). u_..
00403880 79 37 00 FF 00 2B DD FF 0C A8 00 28 6E 8D F4 17 y7...+.....(n...
00403890 99 A7 8C 8A F6 7A 2F 00 72 CE 00 4A E3 69 CD B8 .....z/.r..J.i..
004038A0 FF 6E B0 63 4C 6C B7 20 B4 FF 06 E7 22 11 23 41 .n.cLl. ....".#A
004038B0 39 C2 06 15 C8 B0 82 02 4E F7 F7 B7 DC 21 7A 70 9.......N....!zp
004038C0 AF 27 13 24 DB 09 D9 21 FF 00 00 72 01 F1 00 00 .'.$...!...r....
004038D0 CD 49 CF 30 7B 70 9B 9E D1 71 5B 65 01 86 07 7E .I.0{p...q[e...~
004038E0 65 02 8C 71 CC BC FD FE 04 9B 59 1D 20 09 95 64 e..q......Y. ..d
004038F0 62 07 35 00 98 82 24 6E 4E 85 45 99 97 36 79 F2 b.5...$nN.E..6y.
00403900 D9 E8 00 37 1D 1B CC 63 6F E3 56 01 A8 82 D9 FB ...7...co.V.....
00403910 8B E3 AB A8 10 8F 16 84 CF 04 72 26 66 47 2D E3 ..........r&fG-.
00403920 E5 23 2A DD 0A D8 57 E2 69 5E 18 10 E1 00 00 F9 .#*...W.i^......
00403930 9F AD 25 46 55 C0 49 1F B1 00 34 9F 29 92 75 2A ..%FU.I...4.).u*
00403940 BD 05 B7 B0 77 34 30 CD 3A A0 00 00 6E 00 08 00 ....w40.:...n...
00403950 E4 4E 00 0E B7 E1 DC 17 25 1D FE 00 68 8C 31 F1 .N......%...h.1.
00403960 F3 3E 92 01 8D FE 8C 9D 2C 6E 3E 29 00 00 17 00 .>......,n>)....
00403970 4B F5 6D 5F A1 FC 78 1D B8 51 00 85 00 E1 C0 E1 K.m_..x..Q......
00403980 E1 02 C8 07 55 FF FF 8B 51 A0 1D BD FF 00 7A 0B ....U...Q.....z.
00403990 37 11 89 64 8F 00 49 04 A4 CF 57 B8 F6 46 35 14 7..d..I...W..F5.
004039A0 50 99 04 FF FF F5 65 01 08 38 45 29 21 05 28 3D P.....e..8E)!.(=
004039B0 65 4F 00 00 39 5E E8 57 19 FF 3F BF 56 33 F1 00 eO..9^.W..?.V3..
004039C0 61 00 BF FF 20 1C FF 65 F2 B8 BC EB 00 5C 16 00 a... ..e.....\..
004039D0 D5 07 08 00 38 2A EC 00 00 D6 14 78 82 30 F2 7B ....8*.....x.0.{
004039E0 B9 31 E7 0C 70 D7 3E A9 5D B7 00 EE 8E 00 22 00 .1..p.>.].....".
004039F0 14 7F 0D 45 6F FF CB BA 80 96 11 E5 30 0A FF 88 ...Eo.......0...
00403A00 CF 84 20 D9 06 43 91 F0 B7 66 B0 C3 E7 83 7B 85 .. ..C...f....{.
00403A10 28 00 BE 3B FF E8 58 E7 B0 20 0C 25 99 F2 00 A0 (..;..X.. .%....
00403A20 6E FF 73 1D 31 C2 5B 00 69 81 CA 06 09 A3 F7 43 n.s.1.[.i......C
00403A30 27 76 72 FF B0 C4 C6 04 60 0E C1 40 97 C1 FF C0 'vr.....`..@....
00403A40 25 CD 00 E5 78 CC A1 00 22 A1 F5 76 18 00 6D 85 %...x..."..v..m.
00403A50 10 E3 4C BF D9 00 C2 E3 83 00 B1 1B A8 D2 10 09 ..L.............
00403A60 9D 64 C9 00 12 74 FF C5 FA 6B 0A 0F 73 00 9D 04 .d...t...k..s...
00403A70 33 FF B4 40 C5 F7 00 00 00 00 07 1F 81 00 2F FF 3..@........../.
00403A80 89 56 61 45 F6 7B AF 0A 00 0A E6 13 62 FD CD 04 .VaE.{......b...
00403A90 AC A5 99 DD C3 6B AD 6D 0C 5A D9 00 2E 7D EF 9C .....k.m.Z...}..
00403AA0 76 34 8E C8 D8 A1 60 16 BD 7F 01 2E B7 60 51 FF v4....`......`Q.
00403AB0 0F FF C6 E0 7F 83 C3 61 FF 1F 00 E6 D7 E2 1E A6 .......a........
00403AC0 51 D3 08 10 1B 82 00 8E 00 A0 BB 45 B0 E5 4B FF Q..........E..K.
00403AD0 BF 27 95 00 5E CC 13 D0 A3 00 B5 27 F6 E4 8E 80 .'..^......'....
00403AE0 B4 46 41 00 FB 02 9B EF 25 FD BE E3 EA DD 1D 8C .FA.....%.......
00403AF0 80 6D 00 00 02 FF 44 ED 3E 56 00 C8 14 3E B7 E9 .m....D.>V...>..
00403B00 60 EB 0D 00 33 E8 8D 42 26 A9 66 FD DA E6 83 AE `...3..B&.f.....
00403B10 00 68 3C D2 00 FD C8 C8 58 32 48 4E A8 F1 00 83 .h<.....X2HN....
00403B20 76 00 63 63 7B A8 40 DF B5 DE DF E3 22 13 08 00 v.cc{.@....."...
00403B30 CC 34 82 8C C1 00 70 FF E4 BF 83 E9 A6 20 FE 63 .4....p...... .c
00403B40 1C 60 E5 FF 00 92 74 33 00 00 8E D2 C5 20 B0 57 .`....t3..... .W
00403B50 4E B7 C6 22 8B E4 8C CE 1E 1E 05 62 B8 DB B7 00 N..".......b....
00403B60 58 00 99 8F 00 00 04 24 00 47 FA 69 20 84 F8 C4 X......$.G.i ...
00403B70 6E CD 20 F2 0C 08 00 8D DC 3A 00 82 C5 87 3D 76 n. ......:....=v
00403B80 9B 40 00 B9 82 73 38 52 B2 00 C8 92 FF 24 FF 4C .@...s8R.....$.L
00403B90 1D 00 0F 60 A0 26 8B 00 49 B1 F2 EE 04 76 00 6C ...`.&..I....v.l
00403BA0 88 39 E6 04 16 C5 D3 C1 95 00 74 5C 1E 1B FE E7 .9........t\....
00403BB0 00 6B CB 00 02 B3 30 A2 D4 4E 13 0A 64 62 00 2C .k....0..N..db.,
00403BC0 08 C8 08 BD B1 58 8D D3 3A 00 32 00 F9 4C E4 31 .....X..:.2..L.1
00403BD0 2A 84 39 FF 44 07 00 00 40 F0 39 05 0F 00 47 00 *.9.D...@.9...G.
00403BE0 60 08 AC B3 00 C7 7C 68 7E 00 CA 0E E6 63 12 00 `.....|h~....c..
00403BF0 00 7B 06 20 4C A6 3E 3B C9 FF 76 10 97 E0 65 8D .{. L.>;..v...e.
00403C00 13 F8 8A 9C 40 22 2D 31 70 25 72 BA F9 36 21 6B ....@"-1p%r..6!k
00403C10 15 83 FF 90 1C 21 D1 CA C7 F2 0E BD 65 00 AC B1 .....!......e...
00403C20 C9 C5 24 4B 6B 3F 8F 9B 5B 21 37 88 2C 32 88 3C ..$Kk?..[!7.,2.<
00403C30 33 50 6E 8A 45 00 40 0B 32 2A 8C D0 97 BD FA 0B 3Pn.E.@.2*......
00403C40 30 FD C4 DE 7A D0 7A 00 5F 65 DF FF 1C 1D 4B 2C 0...z.z._e....K,
00403C50 E1 00 D1 FF EE FF AF 04 6C 79 46 70 80 22 30 00 ........lyFp."0.
00403C60 B5 63 00 DB C0 01 DF 45 1E 23 00 E0 04 2F 00 FF .c.....E.#.../..
00403C70 68 08 F5 F6 00 33 70 B8 20 3C 07 00 AA 5E 17 00 h....3p. <...^..
00403C80 C0 F6 62 6B 68 00 17 3C 25 4C A0 F6 73 FF 1E 83 ..bkh..<%L..s...
00403C90 19 F0 0B F8 B5 00 C3 00 48 18 C6 27 3C 0F 0E 27 ........H..'<..'
00403CA0 3F FF 93 B7 DB 2D F4 5A 33 66 3B 0D 73 0C 00 C4 ?....-.Z3f;.s...
00403CB0 63 D9 10 CE 85 E8 FC 9E 00 F0 98 66 00 0E 00 ED c..........f....
00403CC0 AB 31 9C 6E 6D 65 14 40 FD 6C 08 E8 70 5F 00 05 .1.nme.@.l..p_..
00403CD0 00 00 36 B8 B7 F1 E6 07 90 78 B0 23 A8 3E 23 F4 ..6......x.#.>#.
00403CE0 4D 07 00 4E 96 D6 FF 1C 51 90 33 98 5C CF 62 09 M..N....Q.3.\.b.
00403CF0 CD 84 21 1B 77 76 64 DB 08 00 ED FF 36 00 80 14 ..!.wvd.....6...
00403D00 62 EF 14 02 AF 00 A6 FF 0C C5 51 CD A3 93 A4 00 b.........Q.....
00403D10 B8 FB CE 06 A6 6E 9E 2B 3C EF 1C 24 8B 7C 00 1F .....n.+<..$.|..
00403D20 C8 1F 00 86 0C 93 92 C2 58 8F 7F 00 00 BF D2 00 ........X.......
00403D30 E5 C2 7F 6B 3F FF 93 F8 25 8C FB D1 BC 50 75 73 ...k?...%....Pus
00403D40 10 E7 E7 6F E8 1F 81 B2 F5 7E F4 91 B5 00 00 4A ...o.....~.....J
00403D50 78 FF 00 1F 1F FE D7 8F 71 C8 CC DF 44 F7 61 D9 x.......q...D.a.
00403D60 61 C8 B7 6B 72 6B C4 00 B8 E2 CC 00 CB 36 76 D0 a..krk.......6v.
00403D70 00 00 FF AE 00 ED 4A A5 A2 6E FC 91 7E 06 00 00 ......J..n..~...
00403D80 C7 69 00 A0 A3 00 00 5D 06 80 72 81 6F C4 F0 00 .i.....]..r.o...
00403D90 C0 BF 4F C4 7F A3 3E 00 DB 00 FD 12 EC E7 4D 2F ..O...>.......M/
00403DA0 5F 88 00 96 93 8B A6 DD 30 38 5C E5 20 34 4E 05 _.......08\. 4N.
00403DB0 62 AF 00 05 20 ED B6 9C 78 D7 97 A3 7D 28 00 97 b... ...x...}(..
00403DC0 00 F8 76 6A BA 3E 59 F2 D5 62 F5 0D 3C FA A3 00 ..vj.>Y..b..<...
00403DD0 6F 10 4C F5 1B FF 4C 20 BC 5B D8 F9 07 79 22 F8 o.L...L .[...y".
00403DE0 F0 E3 14 55 9F C2 A9 2D F0 00 F8 95 0D 50 07 FF ...U...-.....P..
00403DF0 5F 00 F6 88 65 18 00 58 F8 73 05 67 CE 89 03 28 _...e..X.s.g...(
00403E00 00 E3 8D F9 00 81 78 C9 D2 EB 94 87 FF C2 02 2C ......x........,
00403E10 39 6C A0 1F A0 1A A1 EE 22 FF 00 00 7A A2 23 70 9l......"...z.#p
00403E20 BF 4E F4 5D EF 93 93 00 D7 CE 41 D2 00 DC 3F 30 .N.]......A...?0
00403E30 B6 71 00 9F 49 00 83 FA F3 68 71 B6 00 C0 9F CB .q..I....hq.....
00403E40 7C AB 34 06 15 9C 16 06 A3 F7 06 B2 B3 00 D4 F6 |.4.............
00403E50 5F E5 40 72 16 F1 12 46 35 50 A8 A2 42 78 C4 3E _.@r...F5P..Bx.>
00403E60 B0 6F E5 00 2F E6 4C 7C 00 8E 0A 3D E6 D3 64 07 .o../.L|...=..d.
00403E70 3D 44 00 E8 09 FF 37 4B 2B 3B 6E 00 FF 2D B3 00 =D....7K+;n..-..
00403E80 55 D9 FF 64 4E 8D 0D 61 E7 B5 C5 02 5F 12 D1 4C U..dN..a...._..L
00403E90 00 51 FE 00 88 00 D2 0F 3C 83 E0 FF A5 EA 9F 61 .Q......<......a
00403EA0 E1 CA D4 00 00 3F 24 76 00 10 FF A9 C9 00 15 D9 .....?$v........
00403EB0 FC 82 12 A8 CC 00 BD B1 1C 61 7A 4A 05 06 18 34 .........azJ...4
00403EC0 F6 BE EB B6 00 F0 4D 82 70 54 7C C2 E1 3E 25 0C ......M.pT|..>%.
00403ED0 80 15 00 9A B4 00 48 1C E7 0F 00 A3 FC 40 D8 67 ......H......@.g
00403EE0 80 72 2E 3C 15 AF 59 FF 28 43 77 00 00 6C 39 4E .r.<..Y.(Cw..l9N
00403EF0 4E E5 11 DE 31 00 00 39 DF D8 FF 4B 00 2D FF E4 N...1..9...K.-..
00403F00 86 6A FF 3C 88 00 EB 16 58 E7 00 FF 85 68 BE 00 .j.<....X....h..
00403F10 AC 79 F2 F0 00 E4 C0 4D 84 00 6F 1F C9 30 00 FF .y.....M..o..0..
00403F20 27 DC 81 F1 E5 00 CC 0C 58 00 1F 0C 0E 01 7C F6 '.......X.....|.
00403F30 00 00 FF 00 31 30 F3 60 4E 4F DD CD 3B 00 97 01 ....10.`NO..;...
00403F40 01 CC FF 34 FF B3 93 9E 50 FF FF 81 7C 20 1C 6F ...4....P...| .o
00403F50 69 AE FF 1F 1A 9F 1D 00 2D 3F 80 71 D0 E4 07 A7 i.......-?.q....
00403F60 00 00 C5 00 F1 00 08 73 E1 B4 2A A3 76 00 F1 5B .......s..*.v..[
00403F70 01 0B 01 15 34 FF 43 77 00 D2 F5 5C FF 35 6D 60 ....4.Cw...\.5m`
00403F80 81 21 99 7F 18 00 DB 00 6E 81 16 F2 0F 9E 37 0D .!......n.....7.
00403F90 E9 45 37 25 D0 39 C3 C0 46 FF 84 D3 06 B4 A1 00 .E7%.9..F.......
00403FA0 00 E6 6F B8 30 EC 0C 80 4E 10 C1 9F 77 2B FF 93 ..o.0...N...w+..
00403FB0 E1 00 A3 06 8C 88 8E 53 18 A9 41 F6 17 1F 00 00 .......S..A.....
00403FC0 00 14 93 C2 18 C0 6B 40 C7 08 B4 A3 FF 66 00 D8 ......k@.....f..
00403FD0 BA 57 58 32 B6 78 00 FF 60 FF 09 29 51 00 EC 00 .WX2.x..`..)Q...
00403FE0 F4 7B 00 93 47 35 38 B2 00 95 6C 15 06 F8 B0 0D .{..G58...l.....
00403FF0 C0 C1 84 7F 6C 76 14 02 FA 7E CC B8 EE A4 F1 8C ....lv...~......
00404000 FF CA 98 42 A0 BC 2D 16 1D FF 23 4B EE E3 A9 88 ...B..-...#K....
00404010 37 6F 40 00 00 23 46 A1 78 98 04 18 42 DF 1A B9 7o@..#F.x...B...
00404020 38 00 FF 80 1F DD A8 FF E8 CF 93 07 CF E0 00 A5 8...............
00404030 5D 80 9E 00 7F 00 72 25 88 62 3F 00 00 31 0A 00 ].....r%.b?..1..
00404040 2A 55 00 38 FF B0 78 E8 C7 9D FF E9 CC E1 00 79 *U.8..x........y
00404050 0D 23 2A D5 06 E7 B7 0E 21 C7 FF BB 00 18 15 9D .#*.....!.......
00404060 2D DF D4 54 38 D7 B3 29 CB CA 2B 9D 07 B1 96 98 -..T8..)..+.....
00404070 87 55 1D 24 4C CE 00 00 4A 79 86 FF 5D 3F 10 D3 .U.$L...Jy..]?..
00404080 00 00 B1 FF AD C4 EA 3C 33 00 00 07 24 00 0C 17 .......<3...$...
00404090 00 C8 00 06 B1 4F F1 3C BF C1 AC 4B 9B 5E 37 07 .....O.<...K.^7.
004040A0 C4 B6 07 04 5D 85 25 FF 5B 71 E1 53 A5 2E 4E E9 ....].%.[q.S..N.
004040B0 37 84 4C 8A 98 3A 99 FF 20 52 00 00 42 E2 6D B1 7.L..:.. R..B.m.
004040C0 59 E1 16 10 2B 86 81 9C FF F7 70 7E 18 32 04 CE Y...+.....p~.2..
004040D0 EA 0E E3 C6 22 3E 82 86 FF C0 AA F8 00 38 5E 00 ....">.......8^.
004040E0 63 D5 CC 00 D9 EF 15 23 0F CF E5 FF 3A 26 52 00 c......#....:&R.
004040F0 00 C8 00 37 32 48 7D 81 FE 00 40 00 00 DB 73 68 ...72H}...@...sh
00404100 E5 88 8B FB A5 E9 EC 6D 01 09 00 F2 FF B1 76 00 .......m......v.
00404110 07 06 0C A5 6D 60 00 17 F4 1C 71 FF 19 61 30 AF ....m`....q..a0.
00404120 12 00 A9 2F 44 A8 06 07 81 95 AD 30 DC FF CE CC .../D......0....
00404130 A0 E8 BB A0 43 09 7C 19 40 89 49 70 19 42 30 EC ....C.|.@.Ip.B0.
00404140 4B 36 58 C0 4E 00 4A 04 21 23 FD FF 1E 56 4D 72 K6X.N.J.!#...VMr
00404150 1B D3 29 0D CC 00 08 46 6E FF AC DF C3 89 B6 8D ..)....Fn.......
00404160 89 F8 A5 C3 B6 24 37 AF DF 9D A9 9D 1F FF A6 00 .....$7.........
00404170 BE AD C7 D4 00 04 00 58 C7 43 65 FF 53 66 10 73 .......X.Ce.Sf.s
00404180 1A 00 6F FF 00 17 5D 26 9C 66 03 0C EB 0B 00 23 ..o...]&.f.....#
00404190 D7 07 02 BF 15 00 4E 7B 54 21 C5 81 91 24 00 70 ......N{T!...$.p
004041A0 74 E1 3B 8F 0C BA A3 30 D1 00 50 00 1A 8F 78 F1 t.;....0..P...x.
004041B0 F5 67 C5 11 56 EB F1 07 B6 00 E9 03 94 FF FF 01 .g..V...........
004041C0 8B FC 00 13 9E 17 9E A8 A4 00 7B 61 04 67 E8 00 ..........{a.g..
004041D0 00 02 60 FF F8 D7 F8 45 64 9B EC 00 FF 49 68 97 ..`....Ed....Ih.
004041E0 3D 26 01 EF 85 6F 03 00 9E 00 1D 98 36 00 5F 40 =&...o......6._@
004041F0 40 EE 02 18 AE 8C 70 03 00 0C E0 F3 37 6C B6 A7 @.....p.....7l..
00404200 56 08 68 00 BF E0 D1 D1 FF D0 02 04 38 CA 03 2F V.h.........8../
00404210 22 FF 33 B4 C6 03 87 77 03 34 51 C8 EB 16 C8 00 ".3....w.4Q.....
00404220 0C 20 30 00 11 E7 89 20 5D 6E 84 64 D2 00 9E 69 . 0.... ]n.d...i
00404230 36 69 8A A3 5E 00 D1 C6 A0 07 DB 68 A7 C7 4B B9 6i..^......h..K.
00404240 61 DE 50 13 0F 00 73 3C 04 54 A9 AD 00 D7 8C 1A a.P...s<.T......
00404250 1C 57 8D 00 19 06 00 BA E0 81 D9 8D 00 12 02 FF .W..............
00404260 DF E8 D2 B0 E0 CC FD 83 98 28 9E D2 00 00 FF 00 .........(......
00404270 65 EA 81 28 00 78 DE 97 65 2B 00 FF 27 5D 6E 13 e..(.x..e+..']n.
00404280 4D C6 FE 00 E2 00 0F 39 9E 14 8E 58 00 07 80 00 M......9...X....
00404290 9D 44 D7 96 FD 4F 00 85 00 D5 36 B6 C5 89 03 38 .D...O....6....8
004042A0 22 02 A5 F5 52 2D CE 88 10 FF F3 00 00 FE 45 D0 "...R-........E.
004042B0 BA 24 07 C6 87 C7 DB 1D 1B 29 3B 14 E6 2B 53 33 .$.......);..+S3
004042C0 83 10 FD 9D FF CD 94 73 D1 9D 01 76 4B A8 B3 5A .......s...vK..Z
004042D0 0C BF F7 03 68 B4 17 AB B8 00 A3 F2 2A 61 12 16 ....h.......*a..
004042E0 F3 88 FF 00 D6 31 00 F8 92 FF 3C 45 00 FF 68 17 .....1....<E..h.
004042F0 05 39 3E 50 35 00 00 FF 85 3E B0 C2 66 47 80 ED .9>P5....>..fG..
00404300 CB 57 84 3A 89 67 26 E7 66 9F 3F C8 94 CD 70 2D .W.:.g&.f.?...p-
00404310 BD 00 F2 58 54 00 D5 1F 9D 66 DA 00 00 20 18 8D ...XT....f... ..
00404320 53 A4 CA C1 64 10 A0 66 35 73 37 00 E8 42 0C BC S...d..f5s7..B..
00404330 CE 00 B4 B8 2A 9F 99 4C 2E 1B FE 48 64 FF 4F 86 ....*..L...Hd.O.
00404340 00 37 49 00 64 B0 E5 73 99 18 40 00 E9 A9 2A 25 .7I.d..s..@...*%
00404350 FF 3E C0 57 F9 D7 33 98 00 F8 17 3D FF E1 94 71 .>.W..3....=...q
00404360 7C 67 DC 43 8F 52 6E 8C 98 FF 1B 95 00 7E 00 DF |g.C.Rn......~..
00404370 7D FB E3 40 D7 D4 00 14 47 9E 9C 14 00 70 00 67 }..@....G....p.g
00404380 04 8F 6C 03 FA FF FF 32 00 23 33 C6 A1 25 81 D8 ..l....2.#3..%..
00404390 3C 30 2C 7A FF FF 13 5E 8E 00 54 CB F8 04 2B 85 <0,z...^..T...+.
004043A0 8E FD FF D3 AC 10 58 91 F9 E7 8E F0 00 4C E1 DA ......X......L..
004043B0 3C 91 FE 8D 7F C1 0D 00 FB 09 C1 60 2F 00 00 61 <..........`/..a
004043C0 AA 3F 5F B4 24 E1 90 06 C9 60 FF 00 9F 89 91 41 .?_.$....`.....A
004043D0 DB 46 9B F4 08 07 76 B0 6C 66 28 70 01 0E E1 50 .F....v.lf(p...P
004043E0 55 5D 3D DF 22 43 41 17 00 85 28 04 C7 22 F5 5C U]=."CA...(..".\
004043F0 C0 E0 01 1F 79 8A B8 54 0C 72 F9 99 4F 24 00 1D ....y..T.r..O$..
00404400 FF 38 B9 CE 48 00 00 00 00 30 FF 7C FF 1C FD 92 .8..H....0.|....
00404410 B9 00 C0 7B 00 FF 7B 84 00 A8 DF E4 F9 F5 F8 68 ...{..{........h
00404420 22 3C 00 A1 00 2E C6 CD C2 DE C5 00 4E 68 48 5E "<..........NhH^
00404430 45 9E 94 A3 93 48 0A 94 7C 0F 12 A8 D4 B0 27 52 E....H..|.....'R
00404440 75 B1 73 76 06 00 82 C3 A8 CB 9C 12 00 65 C3 16 u.sv.........e..
00404450 FF 00 00 EB 00 41 CB 2F 0E 00 5F 39 F2 90 A1 3A .....A./.._9...:
00404460 FF 20 78 E7 DF 98 5E DF 31 69 2F BD 60 AC 30 9B . x...^.1i/.`.0.
00404470 83 D3 07 00 83 A0 AC 36 33 17 18 7A 00 73 00 C1 .......63..z.s..
00404480 00 04 63 DE FF 96 00 B7 C8 3F 00 00 25 B9 1F 2F ..c......?..%../
00404490 CB 38 73 88 0A 0E C7 12 BC 59 F5 3F CF FF 00 67 .8s......Y.?...g
004044A0 07 C7 CD 81 9F 15 FF 87 7A EA 1D E1 62 00 B0 8E ........z...b...
004044B0 FF 7A 00 08 A9 0D C0 B3 0F CC 96 04 F3 8D 67 30 .z............g0
004044C0 8C AA 08 CC 10 91 B1 D5 30 11 0E 00 71 57 7B 50 ........0...qW{P
004044D0 C5 80 7E E4 E0 0A 21 AE C5 54 44 46 E4 7D 97 FF ..~...!..TDF.}..
004044E0 49 83 8A 5F 12 E7 5C FF B1 6C FF E2 3E EB 36 EF I.._..\..l..>.6.
004044F0 BE EC 64 17 35 CF 40 80 83 7B C1 F8 21 DC 00 78 ..d.5.@..{..!..x
00404500 E5 00 1B 52 58 45 94 C9 00 63 FC 6B 9B FF 93 5D ...RXE...c.k...]
00404510 BB 29 3B C1 02 1D DD 8B BD D5 6C 79 00 C1 ED FD .);.......ly....
00404520 79 30 2E 49 C5 F8 6E C0 73 86 F3 40 D0 D2 ED FF y0.I..n.s..@....
00404530 4C 89 6B 36 FF AF AD 68 F6 8C FF 68 00 C2 D6 0E L.k6...h...h....
00404540 30 C8 2C 18 00 D4 B3 65 83 DB FF 51 5E 00 3C 47 0.,....e...Q^.<G
00404550 DD AD 22 00 1A 00 5F 00 1F C9 FA 75 C3 CE FF 97 .."..._....u....
00404560 00 9B BB CC A0 58 10 05 C7 FC 26 D8 AD 3F 83 99 .....X....&..?..
00404570 E7 A8 1E 0D 79 FF 4D B4 CE 09 DA D0 61 CC 58 99 ....y.M.....a.X.
00404580 57 A7 A5 D0 15 2E 24 9D 00 B2 B7 B2 7E 3B 90 50 W.....$.....~;.P
00404590 D2 86 00 FF D5 31 2A 00 DE 5A DD E2 A9 D0 A4 D0 .....1*..Z......
004045A0 21 07 98 BE B1 87 FF B5 F0 5E A0 0E 5E 08 8D DB !........^..^...
004045B0 00 00 C0 1F 94 D5 04 D5 DF 22 3F 00 25 FD 13 F7 ........."?.%...
004045C0 90 88 11 00 64 BA E1 D8 9B 01 8F 9E 1C AE 36 5F ....d.........6_
004045D0 A6 B3 E3 DD 00 6D A7 7C 5F 00 7F 7E 0D 00 5B E1 .....m.|_..~..[.
004045E0 C4 00 D5 1F 4C D5 E1 28 23 02 4B 01 B9 D4 47 9C ....L..(#.K...G.
004045F0 F8 D4 4A 0E D1 81 60 10 00 60 63 AF 00 18 14 62 ..J...`..`c....b
00404600 91 08 FF 9B 4B 83 1D 00 2D 00 E2 2E 01 36 CF C1 ....K...-....6..
00404610 3A 12 00 ED 78 00 D8 C2 FF 88 00 4E 00 6A 88 53 :...x......N.j.S
00404620 01 B4 A2 EE FD 31 8F 18 4F 95 8E 10 05 CF 1B FF .....1..O.......
00404630 FE D2 53 CC 95 30 24 51 64 82 F1 B3 E8 1E 83 1F ..S..0$Qd.......
00404640 99 D1 94 1E 69 D1 DF 00 91 30 DD FF B8 96 00 AC ....i....0......
00404650 BB 46 8E F9 36 0B D7 FD A9 A0 4D 03 8E 00 07 D2 .F..6.....M.....
00404660 18 50 E5 EC 42 38 6E 43 00 00 8A 92 05 8E 11 A2 .P..B8nC........
00404670 00 18 46 EA AB 00 57 78 BF 10 00 D9 FD 08 3E DC ..F...Wx......>.
00404680 42 80 6B 4D A7 00 00 D1 00 5E 00 28 40 0A FF 52 B.kM.....^.(@..R
00404690 0B F6 09 16 A0 D4 2F 86 F3 00 93 D7 00 6D 02 7F ....../......m..
004046A0 0A A3 F3 AE 0E 22 10 D4 9C 12 C5 D8 00 9E 40 87 ....."........@.
004046B0 08 00 4F 1D 84 EC 25 58 31 E9 4F 22 18 56 24 00 ..O...%X1.O".V$.
004046C0 9F 4B B7 04 49 CE 38 FC 54 AB A0 93 4E 00 02 84 .K..I.8.T...N...
004046D0 3F FF FF A3 F3 00 0F 15 F6 66 7E F1 50 0C 11 C5 ?........f~.P...
004046E0 9A 22 B9 F8 03 B1 00 B2 D6 00 40 30 FB 1D FF 9B ."........@0....
004046F0 40 FF B1 7F 5D 2D BA 43 01 0C FF F7 12 00 33 98 @...]-.C......3.
00404700 AB 67 7A 6C FA 4B C2 46 C6 00 00 F1 00 A4 D6 00 .gzl.K.F........
00404710 9E FD 03 D1 40 FF C4 44 18 AF B4 B1 39 40 D7 54 ....@..D....9@.T
00404720 32 EC 33 BB EF BC E3 8E A1 00 62 22 00 74 20 1B 2.3.......b".t .
00404730 1D 5B 0F 00 D7 D4 A0 F3 1A 54 51 00 00 D8 FF F0 .[.......TQ.....
00404740 49 FB B3 08 C0 63 00 18 75 EA E8 C5 3E 44 26 37 I....c..u...>D&7
00404750 F0 2F D0 00 0B E8 EF B2 87 73 FF 69 DB 00 84 CB ./.......s.i....
00404760 7F 60 E5 00 FF 0D B0 98 84 F1 6E 1C 00 5C 78 5D .`........n..\x]
00404770 4F 51 FF BA 92 99 3D 00 F0 9B 00 26 7A A7 EB 4C OQ....=....&z..L
00404780 00 B8 F5 AC 25 00 34 F0 52 FF 1A 8B AE D8 11 7E ....%.4.R......~
00404790 E5 00 4F 84 84 FF 0B 34 CF C1 A6 EB 52 DF BA 21 ..O....4....R..!
004047A0 30 3B 20 E1 70 89 FD 1D C3 53 5A 24 38 EF EE FD 0; .p....SZ$8...
004047B0 3A 8E 04 42 FE 9B F7 D2 4C 41 74 72 7C 00 46 0C :..B....LAtr|.F.
004047C0 FF D5 BB 70 31 C5 E8 26 5F 4B 4D 3F 91 57 42 29 ...p1..&_KM?.WB)
004047D0 9F 8E 2C 8E 7F 62 EF 10 FE 94 9B 6F B5 7B 85 99 ..,..b.....o.{..
004047E0 CE A4 03 B8 FD A3 EF DC 00 74 70 10 D5 0A FD 0A .........tp.....
004047F0 C4 61 03 00 09 77 06 B8 F5 00 96 16 7B 86 FF 8E .a...w......{...
00404800 FF 74 87 6C ED AB E7 FF 8D B3 65 D2 02 B2 FD 25 .t.l......e....%
00404810 E2 C5 69 67 00 30 C5 00 D1 EC CF 16 89 00 83 A8 ..ig.0..........
00404820 FF 86 40 84 0B 00 1E 10 C0 CC 65 0E F9 A8 00 E0 ..@.......e.....
00404830 37 00 2E AC FF A5 35 19 0C BA 2C FA 00 00 C8 00 7.....5...,.....
00404840 DA 06 0B 45 5A D0 08 9C 1D 97 51 B8 00 EC A9 62 ...EZ.....Q....b
00404850 61 20 D0 23 F8 5B 00 FF 24 D0 00 00 25 55 07 41 a .#.[..$...%U.A
00404860 05 9A 1A 20 D8 F8 00 92 AF 00 A2 91 7A D8 E3 09 ... ........z...
00404870 A7 6A 00 87 00 8D 00 74 71 E6 66 00 83 6F 56 64 .j.....tq.f..oVd
00404880 31 B0 90 CB FF 2E FF 16 00 30 F8 A5 07 90 65 0F 1........0....e.
00404890 14 4E F2 00 CE 74 01 7C D9 56 67 B8 BF 00 FF 08 .N...t.|.Vg.....
004048A0 A5 A6 DA 04 F4 0C 00 A2 41 0D 3C 77 D3 EC CF E5 ........A.<w....
004048B0 FF 90 C7 58 2C 57 FF D1 92 10 85 67 FF 63 9C A7 ...X,W.....g.c..
004048C0 FE D4 5F C4 35 FC 9F 71 B7 E7 CD 54 6F 87 6B B3 .._.5..q...To.k.
004048D0 FC 75 D3 89 00 4B 94 5A FF EA 05 54 76 36 1A DF .u...K.Z...Tv6..
004048E0 81 6E 9E 27 D4 D8 15 B0 01 7A B4 FE 8D EB 73 72 .n.'.....z....sr
004048F0 43 8A 00 00 83 00 E7 68 91 7A 00 04 82 9D FA B7 C......h.z......
00404900 D0 42 00 CA A0 93 04 57 10 00 53 D1 2F 55 4F FF .B.....W..S./UO.
00404910 FF B9 7F 7C 10 8B 3C E4 00 13 CD 64 D2 7C 91 74 ...|..<....d.|.t
00404920 2B A0 90 51 F3 64 85 5E FF 6A D2 AE FF 62 A5 C1 +..Q.d.^.j...b..
00404930 9E 00 DD 00 32 FF 74 A6 F0 E4 29 C9 00 BE 64 00 ....2.t...)...d.
00404940 AB F2 28 10 EE 56 42 C9 04 50 FF 0C A8 61 C0 42 ..(..VB..P...a.B
00404950 69 A4 63 07 AE FF FF 00 01 4B E7 D0 4E FC FF 48 i.c......K..N..H
00404960 00 1F 84 BD 54 8C A2 00 17 A7 51 06 00 F2 FF D7 ....T.....Q.....
00404970 E7 3C 16 3F 8E EB A5 00 FF 5D 84 0B B7 98 00 FF .<.?.....]......
00404980 84 9C 00 0E 1F 26 F1 4A 8E FF 20 EE F4 6A 75 00 .....&.J.. ..ju.
00404990 7B 85 D1 36 69 4A 7A F6 00 25 C8 88 45 00 00 4A {..6iJz..%..E..J
004049A0 E8 41 CB FF 0E 00 4D 44 E5 CF 7F 7A 3F C0 73 06 .A....MD...z?.s.
004049B0 FD 6D C4 05 81 00 01 BF 13 84 62 D6 00 00 9B 85 .m........b.....
004049C0 AF 41 82 00 D6 89 E3 5D 76 19 EF 00 2E 7A 4F 3F .A.....]v....zO?
004049D0 5F 5C C0 88 B3 00 87 98 58 8B 3D 1C FC EC A0 88 _\......X.=.....
004049E0 86 4A AB 7F 00 6F C4 81 F6 E0 0C CF E1 BD E0 62 .J...o.........b
004049F0 88 00 1D F8 A5 32 2C 15 36 D4 FD EA FF 00 F7 97 .....2,.6.......
00404A00 7B 00 F1 FF 85 6C B8 01 B1 4D C7 FF 4D 66 6C 00 {....l...M..Mfl.
00404A10 49 49 27 3C 70 00 F0 74 F0 27 3D 00 FA 0D C7 5F II'<p..t.'=...._
00404A20 00 C1 EE 80 34 D4 8E 86 5C 00 0B 89 00 0E 73 80 ....4...\.....s.
00404A30 E0 A7 76 AD 11 03 FC 8A 1F 15 88 D3 B6 9C 4A 00 ..v...........J.
00404A40 00 BA 00 0E FF 46 FF 36 79 22 DC 98 1C D7 50 EC .....F.6y"....P.
00404A50 AD 4D BA F8 00 99 60 20 27 01 F9 00 FF 6F B3 C4 .M....` '....o..
00404A60 00 F7 C6 2D 03 70 1B EE D1 DD 8C 8D 33 82 BC 9D ...-.p......3...
00404A70 8C 97 A4 31 60 97 43 81 7B 05 FF 14 6E DB 7F 13 ...1`.C.{...n...
00404A80 03 77 00 6D 49 DE 2E 91 3B A2 B5 DC 10 67 B0 FF .w.mI...;....g..
00404A90 59 FF 85 00 00 00 4D CD DF FF 63 E3 FB 07 F7 31 Y.....M...c....1
00404AA0 1A 2B 01 45 AD 82 33 09 C7 1E 00 1F 00 A8 1B ED .+.E..3.........
00404AB0 FF 82 D3 00 49 F3 A6 DA 72 00 D1 5C A4 BF 00 0C ....I...r..\....
00404AC0 45 74 2C 00 FF 1C 92 BC AA 80 4E FA 5A CF 00 B6 Et,.......N.Z...
00404AD0 9B 00 41 36 00 AA 00 7F 25 17 D8 C8 00 00 15 98 ..A6....%.......
00404AE0 29 AB 04 B4 B7 F7 9E C5 59 6A 0D 07 08 00 00 BC ).......Yj......
00404AF0 D3 16 FD 69 AE D1 C5 FF 30 EE 4F 54 0D 76 75 EC ...i....0.OT.vu.
00404B00 68 49 13 B4 45 28 6C E0 C0 9E 01 7E 18 81 00 BC hI..E(l....~....
00404B10 50 6E B8 FB 00 15 D9 4A 4C 61 FB F2 97 5F 9A 32 Pn.....JLa..._.2
00404B20 6E DD 32 4D 83 CE 00 83 C0 FF 42 35 E7 E4 60 1F n.2M......B5..`.
00404B30 34 BF 11 7E FE AA E1 FF 00 44 00 00 96 7A 00 11 4..~.....D...z..
00404B40 6A 16 A6 01 B8 A4 D2 00 93 09 2E 93 12 39 3D 00 j............9=.
00404B50 36 ED FF 7C C6 59 3B FF AA E1 9F 4B FF CE DA 5C 6..|.Y;....K...\
00404B60 35 E3 57 04 E8 5D C5 03 00 00 73 4E 12 F2 6C 7A 5.W..]....sN..lz
00404B70 06 7D FB 00 CE 5F 00 9D F7 ED 65 F6 A1 E7 69 62 .}..._....e...ib
00404B80 E2 DD FF 2F AB C4 9A 8F 7C B8 00 00 BB FE 28 9D .../....|.....(.
00404B90 70 FF 15 B8 49 05 C4 C6 B9 00 72 C8 CA 46 AD FF p...I.....r..F..
00404BA0 5C 00 00 05 18 25 81 B9 48 FB CD 47 F3 00 0A 06 \....%..H..G....
00404BB0 42 9C 1F FB 72 6F 10 FF 72 53 8B E4 E7 D9 5C 57 B...ro..rS....\W
00404BC0 95 AD FF FB FF D5 50 8B FF 9D 65 27 00 5A EA 22 ......P...e'.Z."
00404BD0 AB 35 AD D0 1B FB EF 00 17 4C EF CD 72 80 8C C4 .5.......L..r...
00404BE0 BC 4A 9F E0 86 00 40 12 C6 00 03 3C C3 AA 6F 92 .J....@....<..o.
00404BF0 00 00 0E 8A D4 BB 3A 00 7C C8 7A F9 D5 C6 8E 00 ......:.|.z.....
00404C00 C6 C4 B9 54 00 46 00 95 78 0D 01 AF 2B 58 E0 7E ...T.F..x...+X.~
00404C10 74 80 00 00 ED 9E 66 04 E8 5E 00 B1 38 75 41 1A t.....f..^..8uA.
00404C20 00 C8 01 3E 96 D0 F0 04 E6 D7 00 20 00 33 00 BE ...>....... .3..
00404C30 05 1B 32 7C 00 2C 9D 0E F2 00 5B BA 00 A4 C9 00 ..2|.,....[.....
00404C40 BA 23 17 8A 00 FF 41 88 C2 E2 00 00 28 00 00 E8 .#....A.....(...
00404C50 30 3F 7F 20 89 FF EC 27 2B D0 C0 00 8B FF 21 A1 0?. ...'+.....!.
00404C60 53 00 4E 88 DF 16 A1 36 40 07 06 79 8C 16 C5 FF S.N....6@..y....
00404C70 33 B9 00 00 0A 10 FF 00 78 7D CB 00 66 00 00 07 3.......x}..f...
00404C80 D0 24 40 00 00 CD C6 40 14 70 83 B4 8D B2 30 2A .$@....@.p....0*
00404C90 7D 00 8A 9B 94 C6 4E 08 9E 9F E3 96 C6 30 00 BB }.....N......0..
00404CA0 0E 8D F7 82 00 84 6B 44 00 BE 05 D0 11 00 66 3C ......kD......f<
00404CB0 65 8A 39 94 2B C4 C0 40 9C 44 DA 35 2C 46 76 E1 e.9.+..@.D.5,Fv.
00404CC0 29 D1 FF D0 29 C1 70 06 57 A4 FF F3 1E A2 91 14 )...).p.W.......
00404CD0 24 C2 E9 C3 73 00 DC 61 C5 24 95 72 90 64 FB 05 $...s..a.$.r.d..
00404CE0 86 84 5E 2D DD 73 EF A0 A9 2C 01 28 0E 71 B2 72 ..^-.s...,.(.q.r
00404CF0 EA 0F 8B B1 FF D0 6F 00 3C 32 12 62 90 BF 5D 2E ......o.<2.b..].
00404D00 00 B2 65 E1 00 00 AE 00 BA 38 60 44 EC 0E 0C 4E ..e......8`D...N
00404D10 72 4B CF 40 91 AF 2E AC 12 B7 00 63 BE 00 63 25 rK.@.......c..c%
00404D20 4A C7 8E 00 09 77 6B 63 05 34 FF 13 C8 2E 75 22 J....wkc.4....u"
00404D30 46 90 00 4C 00 49 70 00 E4 CD 2E 51 E0 30 32 90 F..L.Ip....Q.02.
00404D40 00 0E EB 57 F0 91 1C 1E 00 00 BE AE 52 00 7D FE ...W........R.}.
00404D50 00 C4 41 CD FF 71 BF 32 72 6C 0C 00 00 9C 0A 86 ..A..q.2rl......
00404D60 BB F3 BD 61 63 6E 2A C7 B2 D5 00 4B 02 63 00 08 ...acn*....K.c..
00404D70 50 EB 00 61 96 75 7F CF BF 00 8A 88 AA FF 00 4B P..a.u.........K
00404D80 1B 96 50 E3 32 49 7B EE 82 7C 23 85 DD 00 00 56 ..P.2I{..|#....V
00404D90 F8 1F 99 96 4F C1 3C 3E EC 7C 4A 00 2C 00 8A 81 ....O.<>.|J.,...
00404DA0 40 3F F6 F4 15 A9 02 00 86 00 C1 16 65 FF 00 00 @?..........e...
00404DB0 1E FF 3D F4 84 FB 00 0A 00 00 B7 00 05 A7 33 C0 ..=...........3.
00404DC0 97 F1 13 3D C7 2F 12 00 FF 0B 75 76 8E B2 55 A6 ...=./....uv..U.
00404DD0 00 B6 E0 95 5B A3 78 EB 00 3F 94 F7 C3 62 D0 B7 ....[.x..?...b..
00404DE0 E7 86 07 0F 00 1B 00 00 FB 73 72 CF 7F 00 79 B3 .........sr...y.
00404DF0 F6 02 7F 7C 06 00 C4 C5 A0 58 72 A2 83 FF 1F BF ...|.....Xr.....
00404E00 00 93 E4 1C F8 70 31 CF D3 00 78 EC E5 B7 03 DA .....p1...x.....
00404E10 74 9D FF D0 9C 00 82 F3 F6 D1 11 AA C5 17 B7 19 t...............
00404E20 00 8D CB BD 00 00 9C EC DC 99 00 C1 6D 50 9A A2 ............mP..
00404E30 09 19 0E E4 E1 CD 86 6C 74 D2 8A 20 80 CD D2 3A .......lt.. ...:
00404E40 0D B0 00 BD 5C 1A 20 00 EC 81 E7 86 FF D6 A0 56 ....\. ........V
00404E50 4A 1A D8 00 88 03 90 BA B7 FD 4E 23 E4 ED EA 1C J.........N#....
00404E60 0C 82 00 7F AB 63 BE 28 10 88 1C 34 4D 06 62 7D .....c.(...4M.b}
00404E70 DA 8C 59 71 C8 12 B8 30 96 0F 6A C7 FF 00 55 24 ..Yq...0..j...U$
00404E80 00 AF 02 92 53 38 BC FF 21 C9 00 BD 01 44 FF 25 ....S8..!....D.%
00404E90 B1 F7 D9 00 B0 FF 87 53 88 96 01 00 FF 75 55 83 .......S.....uU.
00404EA0 70 A3 6C 45 79 F9 00 67 B0 6E 00 99 00 55 18 AC p.lEy..g.n...U..
00404EB0 81 00 00 00 47 A1 C6 00 00 69 31 21 61 00 8F 00 ....G....i1!a...
00404EC0 39 00 9C C7 FF 3B FA E1 75 63 EC 4E CF 69 07 00 9....;..uc.N.i..
00404ED0 00 FB B9 8B C3 42 CC 56 B7 B4 31 0C DB 3C 66 CE .....B.V..1..<f.
00404EE0 61 D0 07 FD 6F 40 3F 27 26 B6 A7 13 B8 25 41 AD a...o@?'&....%A.
00404EF0 FD F9 E4 93 FB AF E6 00 C6 02 C9 06 8F 1B FC 00 ................
00404F00 00 F9 E2 FF 9E D8 90 61 81 EF F0 82 58 40 8E 8E .......a....X@..
00404F10 25 E1 91 0F 82 C1 61 88 00 70 1A 34 84 00 00 82 %.....a..p.4....
00404F20 72 41 65 F2 B9 0D 2E EE 8F DC 54 33 00 84 11 41 rAe.......T3...A
00404F30 F3 00 36 13 00 8C 00 D8 FC DF 00 D5 ED A5 5E 6A ..6...........^j
00404F40 3D 15 90 04 F4 D7 F1 EB C3 02 20 2C 8D 4B 4D 00 =......... ,.KM.
00404F50 79 FF 2E 09 20 88 94 F2 6A 4A 62 13 AF 59 12 ED y... ...jJb..Y..
00404F60 36 01 A2 2E 00 FF 53 46 F6 3F 00 FA 1D 27 AA 00 6.....SF.?...'..
00404F70 1D 32 CC 94 0F EE EF 05 67 60 0C A0 C3 24 5E FF .2......g`...$^.
00404F80 C9 62 10 00 00 A1 B3 39 31 42 92 47 00 FF D1 52 .b.....91B.G...R
00404F90 77 3B 1B 6F 88 BC 78 93 C8 00 C1 1F 16 E1 FF 02 w;.o..x.........
00404FA0 00 BD 9D 00 01 26 6E 6E 8D 1C 00 31 36 47 00 C4 .....&nn...16G..
00404FB0 3C DA D5 04 85 03 86 A3 A0 05 FF 99 5B 0D D5 2D <...........[..-
00404FC0 9B 5C A4 00 00 69 FB 00 82 00 00 1A B1 74 10 F8 .\...i.......t..
00404FD0 F4 FB 71 4F 2F E0 88 C0 73 BE AA EB 21 F7 3A 3F ..qO/...s...!.:?
00404FE0 FF 62 82 17 14 23 05 71 48 00 00 4B 73 3A 1F 29 .b...#.qH..Ks:.)
00404FF0 A2 00 7F D6 35 AF 00 26 6B 50 87 70 00 96 23 C5 ....5..&kP.p..#.
00405000 11 00 9A 21 01 46 E9 DE E8 00 71 00 77 C4 00 0F ...!.F....q.w...
00405010 00 09 85 FF 82 0A 0D FF 93 A8 00 FE 28 53 00 00 ............(S..
00405020 FF C3 8A E6 81 72 43 E6 80 D2 35 7B F7 F2 44 78 .....rC...5{..Dx
00405030 B8 87 E9 F9 34 AA 28 31 AA 66 FF 00 AE 62 B7 95 ....4.(1.f...b..
00405040 98 00 00 E0 09 87 0C E2 00 F6 C1 13 00 EB 9B 4E ...............N
00405050 D9 02 53 A6 67 00 12 15 1A CE 00 B5 8C 81 6D 00 ..S.g.........m.
00405060 5C 81 27 70 91 1B 40 E1 00 00 1F 4D 13 27 15 C9 \.'p..@....M.'..
00405070 4B FF 3A 0C 00 B8 A2 00 41 44 00 EC 90 79 01 38 K.:.....AD...y.8
00405080 50 FF 00 6F 00 FF CF 00 B5 B6 62 A9 00 63 00 31 P..o......b..c.1
00405090 32 C3 65 8D C4 91 F9 B1 FD 76 00 19 05 73 B3 C2 2.e......v...s..
004050A0 00 00 F8 1B E0 00 AA 6D 92 8F 63 FF 89 0B 28 78 .......m..c...(x
004050B0 7E 7D 8E D1 1C 10 E6 00 05 69 87 D9 72 20 DF 58 ~}.......i..r .X
004050C0 1B D7 F1 BD 81 90 B6 00 10 54 70 62 54 00 12 00 .........TpbT...
004050D0 00 00 59 55 00 83 81 97 81 9C 00 D2 FB 00 82 18 ..YU............
004050E0 87 8A 95 15 F8 23 FD D2 E1 FF 85 14 60 73 31 1E .....#......`s1.
004050F0 22 BB 83 90 3F 17 E3 0A F7 90 58 4D 5A 78 00 00 "...?.....XMZx..
00405100 00 9A AB 14 2D 01 1C 12 46 50 CF E3 FA 00 FD 65 ....-...FP.....e
00405110 42 B4 00 00 37 07 A0 26 00 A6 12 FB F4 F3 09 00 B...7..&........
00405120 FF B6 1C 4B 87 22 5F 63 00 FF F8 A0 70 2D FF C0 ...K."_c....p-..
00405130 03 44 00 65 EE 4D 76 35 FD 00 1B D2 75 A8 4D 07 .D.e.Mv5....u.M.
00405140 00 20 CD 06 C0 05 A0 2E A4 AE AF 8C D3 FF A3 D3 . ..............
00405150 D8 47 35 BD FF 09 CF 16 86 EF 52 6C 47 C8 1D FF .G5.......RlG...
00405160 B5 AF B0 FC 00 11 EF 8F FF 34 15 FF 44 95 7E 2C .........4..D.~,
00405170 21 33 F8 68 00 FF BD 9C 0E CE CE F4 61 00 A1 04 !3.h........a...
00405180 8B 00 A1 AF FA B9 DD 6F 85 FF B6 FF 00 D1 21 00 .......o......!.
00405190 0E 81 59 30 74 17 00 53 FF 3C EC F0 88 7B 5E A7 ..Y0t..S.<...{^.
004051A0 90 28 03 D4 00 FF AA F3 EB CA 97 1B E0 FE 00 00 .(..............
004051B0 96 AE 4E A1 55 F0 12 FF 09 28 C7 19 0E 08 00 47 ..N.U....(.....G
004051C0 C5 00 47 7B F7 82 D5 9A C4 00 A2 EC 70 FD FD 69 ..G{........p..i
004051D0 87 00 AC 4C D7 08 A4 4A D3 0B 02 00 00 9A B4 D2 ...L...J........
004051E0 FF F9 30 CD 02 05 0D 0E AF 47 00 FF 9B 8C 90 00 ..0......G......
004051F0 07 1D 9C B0 00 C2 87 CA 48 14 24 B6 42 EB 6C CC ........H.$.B.l.
00405200 D1 B6 00 BE F7 41 FF C2 80 4B FF 40 EA 6E 58 97 .....A...K.@.nX.
00405210 CE 5F AF 08 8E 05 00 A0 86 B1 A5 48 FB 7B F4 11 ._.........H.{..
00405220 00 97 6B 9E FF 40 EA E0 7C B5 D1 85 00 47 B7 CB ..k..@..|....G..
00405230 19 2C 5B A3 FF 81 4E D6 D9 FF 25 72 E9 7B EA 3B .,[...N...%r.{.;
00405240 98 CB 42 A7 85 9C D7 21 60 68 B3 6C 00 1F FF 00 ..B....!`h.l....
00405250 A5 00 00 08 7E 53 F2 4F BD 64 FF D3 FE C7 5F B8 ....~S.O.d...._.
00405260 F7 2D C3 73 A5 4A C5 27 D8 71 45 27 00 CA A6 5A .-.s.J.'.qE'...Z
00405270 D9 89 00 FF 83 00 E1 FF D3 92 FF 00 FC 00 CE E4 ................
00405280 43 FF 00 E1 B1 00 21 2E 0E 00 F8 3C 11 00 85 74 C.....!....<...t
00405290 A0 26 82 C8 D5 90 10 19 01 28 0A FA F2 00 00 7C .&.......(.....|
004052A0 F1 7C A8 5E 61 C0 45 32 1A 6B 87 FF C6 F6 4D FD .|.^a.E2.k....M.
004052B0 00 2C D3 02 75 87 00 38 08 3D 00 E3 FF 00 4C 8E .,..u..8.=....L.
004052C0 60 9C 75 00 6B CC 08 89 3C 00 00 C9 07 01 D0 67 `.u.k...<......g
004052D0 44 DD C9 F4 90 E3 56 2B C5 10 EF 26 FE DA 8F 26 D.....V+...&...&
004052E0 00 08 FF 83 00 DE 91 17 3E 6F FF 67 94 D8 FB 04 ........>o.g....
004052F0 2A AE F9 FF 85 A7 6F F8 A0 08 28 4E F7 E7 E9 D0 *.....o...(N....
00405300 38 3D 00 00 BA DD FD C5 9D 89 32 EE 01 48 0D 39 8=........2..H.9
00405310 48 E0 76 29 FE DE 20 CA 00 C1 D0 52 1B 92 B8 63 H.v).. ....R...c
00405320 12 F0 F4 06 90 DB 65 00 82 40 E9 C7 4D 7C 00 BA ......e..@..M|..
00405330 E2 00 30 71 23 10 04 4D 48 06 BE FF BC 59 16 F3 ..0q#..MH....Y..
00405340 23 FE 79 4C F1 02 00 08 19 1D 1C 71 74 FF 96 B1 #.yL.......qt...
00405350 8D B0 7A 8D 00 43 00 4A 69 D9 66 08 FF CE 00 00 ..z..C.Ji.f.....
00405360 08 00 98 78 09 30 B0 C8 E7 B5 00 72 E4 18 85 92 ...x.0.....r....
00405370 2C F5 1C 0D FF 00 7F 5E E4 FC AF 00 42 87 85 1E ,......^....B...
00405380 02 67 78 EA 65 36 ED 00 0C 4C 50 34 E5 C1 A6 60 .gx.e6...LP4...`
00405390 90 1C 7D 1F 00 5E F0 93 DA C5 86 FF 31 4D 50 B1 ..}..^......1MP.
004053A0 6D C1 D0 00 00 FA 7E 49 E0 86 9A 00 00 09 FF 2B m.....~I.......+
004053B0 C6 00 E2 F6 3C F0 66 0C 00 00 0F EF 2A 8F 52 B1 ....<.f.....*.R.
004053C0 00 61 83 6F 0B D2 9F 00 00 2E F8 2C D9 44 E9 7B .a.o.......,.D.{
004053D0 C8 DF 3A 12 78 5D 88 C2 E0 74 9C 80 FD F6 3F AD ..:.x]...t....?.
004053E0 DF 64 02 32 00 7D 06 60 66 00 00 FF DF 02 DF 1E .d.2.}.`f.......
004053F0 7A 9F CB A7 75 0E F0 CA 76 00 71 06 6A 12 F5 96 z...u...v.q.j...
00405400 B1 46 19 E7 23 9F E2 FF B9 A5 23 C5 64 5C D8 00 .F..#.....#.d\..
00405410 B7 FB CF CF 69 63 D0 A4 80 4E 7B C4 C1 90 1E F4 ....ic...N{.....
00405420 FB C6 79 BA 92 00 48 55 01 79 C4 B9 20 0C 7A FF ..y...HU.y.. .z.
00405430 00 A4 8B F9 27 A8 20 6F 32 0C 6E FF 00 77 14 FF ....'. o2.n..w..
00405440 00 C4 D3 00 98 FE 00 00 35 85 04 DA B8 1F 02 00 ........5.......
00405450 72 A7 21 F0 00 9E 2C 41 6A 87 1E B2 8A 02 FF 0C r.!...,Aj.......
00405460 72 FF C3 68 21 00 54 3D C6 87 2C AA 04 F0 37 CE r..h!.T=..,...7.
00405470 00 31 77 46 87 00 2A 80 60 44 0B C5 53 76 96 CD .1wF..*.`D..Sv..
00405480 00 30 92 00 30 E8 24 35 79 9D 45 00 47 C2 02 59 .0..0.$5y.E.G..Y
00405490 00 E6 8B 48 D5 21 B9 35 DF E9 74 44 EF 38 00 DA ...H.!.5..tD.8..
004054A0 00 62 00 C2 EC C2 00 AF 67 00 7B 96 C8 C9 B7 30 .b......g.{....0
004054B0 A2 55 39 00 00 00 19 F0 03 00 BC 44 64 E6 FF 16 .U9........Dd...
004054C0 ED 69 10 79 00 FA 00 6A FD AC 00 EE 00 AA 4F 19 .i.y...j......O.
004054D0 09 26 B4 1B 30 22 00 0E 94 E3 00 D2 5F A9 2A BD .&..0"......_.*.
004054E0 4E 54 E4 00 F2 F3 D1 FF 9B 00 F1 B1 B4 38 C4 26 NT...........8.&
004054F0 C1 F8 5F 33 08 2D 08 79 EF DF 86 62 FF CB 00 18 .._3.-.y...b....
00405500 E5 97 F8 00 89 3A 93 00 00 1C FB 8A 39 79 4C 79 .....:......9yLy
00405510 7B 29 BA 00 E5 77 00 3D 29 0E 11 2B E9 70 00 36 {)...w.=)..+.p.6
00405520 04 4E 8F FD 86 20 34 68 49 81 FE 1A F9 43 1F 00 .N... 4hI....C..
00405530 30 C2 C5 B0 18 A2 7F C0 73 52 6C 28 78 95 B7 9D 0.......sRl(x...
00405540 13 51 00 80 00 FF 74 F0 A9 68 00 5D 76 2B FF 6C .Q....t..h.]v+.l
00405550 6A BA C3 70 56 63 91 73 73 1E 6B 70 FF DA 18 5E j..pVc.ss.kp...^
00405560 48 BC 14 49 43 FF 6A 00 27 13 F3 66 00 80 F9 D8 H..IC.j.'..f....
00405570 7E 45 92 68 C0 D8 CD 41 72 00 7F 00 00 28 A4 AE ~E.h...Ar....(..
00405580 E1 73 0C 0C 20 22 71 DB 58 AD 7F 6C 87 0F 00 42 .s.. "q.X..l...B
00405590 FF 1F 73 00 18 00 C0 41 5C 00 FF 3A F9 FF 82 BB ..s....A\..:....
004055A0 82 49 57 1C F1 26 79 86 75 FE 78 02 00 48 00 E7 .IW..&y.u.x..H..
004055B0 DB 40 83 00 DB 03 00 52 E3 E4 50 62 00 27 F0 F7 .@.....R..Pb.'..
004055C0 00 8C 9B 26 63 05 E5 88 2C 00 2C 52 10 8E 1A 6E ...&c...,.,R...n
004055D0 DE 60 3A DB DB F1 F5 99 5A FF E8 90 03 A1 0D 00 .`:.....Z.......
004055E0 DC C7 A0 D1 96 7A 7C 8B 3C E5 12 FF 24 9B 22 0A .....z|.<...$.".
004055F0 F0 4D C4 A9 36 11 20 2A 53 F7 A8 FF 79 4C 00 35 .M..6. *S...yL.5
00405600 00 27 41 C8 DB 57 F1 EE 40 BF 00 00 54 82 C6 47 .'A..W..@...T..G
00405610 00 69 B0 10 56 F5 BF 57 58 18 68 65 9A 3D CE 0B .i..V..WX.he.=..
00405620 72 FE 2A 0D 78 7E 00 8E D9 50 00 E4 3B 38 F4 D1 r.*.x~...P..;8..
00405630 86 89 B4 FF FF 1C 00 00 C3 2A D0 27 18 B8 1A 56 .........*.'...V
00405640 00 F3 3D 00 EC 00 24 78 22 AD 6A E9 49 64 04 20 ..=...$x".j.Id. 
00405650 1D 3B 8F 6C 00 EB 0F 8F 58 BD 70 01 EC 88 43 C3 .;.l....X.p...C.
00405660 67 FB 80 9D 8D 68 00 26 18 00 BB 00 C7 42 00 D8 g....h.&.....B..
00405670 FB 3B B8 6F 81 80 08 4B 54 6B 7B D6 18 79 EB 24 .;.o...KTk{..y.$
00405680 A5 A1 00 68 20 A8 3C 00 A3 FC FF 5F 9B 00 3B AA ...h .<...._..;.
00405690 48 B0 8A 51 40 80 F0 8B 00 BD F9 3E 05 91 64 D4 H..Q@......>..d.
004056A0 31 3B 56 1C C1 8C 21 00 83 00 90 3D 76 41 D6 FF 1;V...!....=vA..
004056B0 DF C1 65 61 9E 00 C2 B8 C0 00 67 B3 E4 99 A6 DA ..ea......g.....
004056C0 00 DF A0 00 A2 37 C9 5E 52 58 FF FB 84 00 9F F0 .....7.^RX......
004056D0 94 87 D1 B0 DB C6 F0 6A CD 1F 55 C4 EC 01 2E 00 .......j..U.....
004056E0 81 93 0F 4C 72 37 77 5C 30 78 FD 4C 53 5A BB C0 ...Lr7w\0x.LSZ..
004056F0 6C 45 81 00 0F AC 00 D0 EF 43 FF 33 63 ED 00 1F lE.......C.3c...
00405700 C0 A1 54 F8 00 00 03 E7 FF A1 7A 23 00 EC 61 3C ..T.......z#..a<
00405710 86 D8 82 04 BA 3E F0 00 3F 56 94 64 9E 1C 80 FF .....>..?V.d....
00405720 1B 0F 80 00 00 82 01 22 A1 F4 41 FF 8B C0 60 07 ......."..A...`.
00405730 1D 49 9A C7 C4 C9 E3 1E 01 A7 1F FF 78 00 43 70 .I..........x.Cp
00405740 1A 63 F6 0B CE F7 FF 4F D5 6A 29 FB 00 FB 98 D5 .c.....O.j).....
00405750 13 60 00 99 AB B5 AD 0F B4 00 00 FF FF 00 04 63 .`.............c
00405760 2E 57 58 3B 00 C4 AA 00 00 00 F0 6B 10 E5 BA 3C .WX;.......k...<
00405770 DC 64 30 63 D4 44 17 B2 00 16 6E 00 FF 6A 00 63 .d0c.D....n..j.c
00405780 9E 89 00 1B FB 15 38 60 00 00 AB 56 C2 67 42 B8 ......8`...V.gB.
00405790 7F 00 D2 00 3E 16 3D 86 00 28 25 EC FC DE 1D CF ....>.=..(%.....
004057A0 F0 00 89 80 AD F4 30 0B 3B 00 FF 00 07 2D 4C 7A ......0.;....-Lz
004057B0 8C BF 44 13 3E 00 04 B5 67 B1 00 AB 00 3A 0B 26 ..D.>...g....:.&
004057C0 2F E0 83 00 1C AE A1 45 BC 92 00 B5 5F 47 9D AA /......E...._G..
004057D0 1B C8 93 FC 96 A9 D9 16 00 A8 7C F4 4B 99 71 99 ..........|.K.q.
004057E0 86 FF 6B 6D 85 10 FF 3D BE C5 B8 00 F6 00 FD B8 ..km...=........
004057F0 0E BB EF F9 1F 0C 92 00 00 AE 21 7C F1 DB 73 00 ..........!|..s.
00405800 54 7F FE 66 14 F7 94 02 91 FF 56 5C B0 38 68 00 T..f......V\.8h.
00405810 5A 00 1F FF 88 7A 6F C6 FF 0C BF 04 80 88 3C E3 Z....zo.......<.
00405820 03 A0 AE 77 D8 7B 70 10 67 A2 22 00 64 CE 20 91 ...w.{p.g.".d. .
00405830 17 00 00 00 00 67 FF 86 9C 74 23 52 C8 5E D1 50 .....g...t#R.^.P
00405840 18 19 0B 7D 17 1D C6 FF 34 C3 69 00 B8 78 A3 D6 ...}....4.i..x..
00405850 5D 05 4F 00 38 65 00 2B 08 74 7E B7 0C 3C C2 58 ].O.8e.+.t~..<.X
00405860 90 27 9E 00 2D CD 36 B7 E2 78 0C 9F F4 51 E3 C1 .'..-.6..x...Q..
00405870 00 00 D4 3C C4 2E 61 E1 A3 EE 7B B5 00 00 70 2F ...<..a...{...p/
00405880 44 68 E0 35 FC F9 F5 28 1D A2 4A A6 32 00 00 4B Dh.5...(..J.2..K
00405890 5F 06 AE 90 0A FB 30 E5 14 18 12 BF 59 FF 81 D1 _.....0.....Y...
004058A0 90 25 18 A6 27 F2 10 0E DF 44 C7 72 AA 46 82 00 .%..'....D.r.F..
004058B0 F3 7F 75 A7 28 00 B9 00 25 00 10 8F B4 AA 6B 6B ..u.(...%.....kk
004058C0 DF C1 E8 40 7D 77 B0 B8 00 4A C3 AB 01 F6 7F 00 ...@}w...J......
004058D0 78 AB E0 00 18 2C 7C F9 00 81 00 00 BD AE 12 FA x....,|.........
004058E0 09 00 D1 BF 58 66 E4 FF CC A0 00 27 B4 1D FF 67 ....Xf.....'...g
004058F0 C9 00 1D CE 91 63 76 2B FF BE 1C D8 4C 62 7D 00 .....cv+....Lb}.
00405900 5E 63 00 78 DF BE 00 C7 3D 10 4F 39 DB 48 0B 31 ^c.x....=.O9.H.1
00405910 1D 33 07 04 5B 86 77 E8 DA FD 96 82 D1 A3 0F DB .3..[.w.........
00405920 64 C5 36 9C 0B 04 58 D0 51 91 00 00 7D 00 AC FA d.6...X.Q...}...
00405930 6A 54 66 1A AE 0F 6C D9 1C 92 FF DB 00 68 5E 16 jTf...l......h^.
00405940 DB 00 E8 0D C4 33 2F 53 42 91 23 8B EE 3F C2 4D .....3/SB.#..?.M
00405950 0B 45 4F 6B C7 00 00 B8 6F B6 82 00 F0 A3 B4 FF .EOk....o.......
00405960 00 48 F9 9B D0 00 26 00 6F 5E 5F 00 DF 00 78 11 .H....&.o^_...x.
00405970 78 BD A4 B9 BB 00 4B 00 6C 0C D4 FF FF 7E FF 00 x.....K.l....~..
00405980 00 00 06 79 C8 AB 72 0F B0 D8 AF ED 94 89 00 99 ...y..r.........
00405990 42 D4 62 00 80 E7 34 26 E5 74 00 7F 08 18 EB 00 B.b...4&.t......
004059A0 73 ED 00 D7 13 10 B8 1B 6C AD 6F FF FF 33 80 45 s.......l.o..3.E
004059B0 00 4B AC 07 D4 43 16 38 C6 06 F8 00 83 C0 AD 86 .K...C.8........
004059C0 BA FF 59 37 3C 3E 4E 50 64 00 A8 8C AB 22 2C 0C ..Y7<>NPd....",.
004059D0 00 41 86 B4 03 57 CE 09 4A 48 00 CD A0 2C 1B 16 .A...W..JH...,..
004059E0 B2 C0 F2 00 9C B8 8E 7C C5 6F C9 85 7A FF EE D7 .......|.o..z...
004059F0 68 7F 20 A7 C5 00 B1 2F EF 00 97 E2 36 E0 DF 6E h. ..../....6..n
00405A00 5D FA 3B D2 17 A1 54 ED FF C7 E1 3E 5E 05 42 B2 ].;...T....>^.B.
00405A10 7E 0C D1 3A C8 60 7F 9D 43 5C D8 53 2E BF 4C 0C ~..:.`..C\.S..L.
00405A20 00 6A 67 1C 00 BB 70 9C D5 05 20 F6 99 50 15 04 .jg...p... ..P..
00405A30 E8 32 8C 5C 5F 16 88 C7 1F 81 AD 3E FF 00 4E 74 .2.\_......>..Nt
00405A40 14 00 3B E4 56 5E DD 1C 6F BE 03 A1 E7 EB 4E 00 ..;.V^..o.....N.
00405A50 45 F4 67 2F 2F 00 A7 64 19 C8 FE 8D 1C BD A9 36 E.g//..d.......6
00405A60 29 90 CC 3A A5 6A CA 6B E2 A1 A8 66 FF 00 82 43 )..:.j.k...f...C
00405A70 72 B2 00 DC 73 09 D8 F0 48 78 B3 C7 54 86 DC 1E r...s...Hx..T...
00405A80 A1 A0 35 34 00 00 E1 47 66 87 1B 00 FF DB 9A 2B ..54...Gf......+
00405A90 78 0A C5 00 3B C4 50 A0 93 49 26 BA B8 FF 00 A6 x...;.P..I&.....
00405AA0 8F 3B F9 3C 8C 39 28 01 07 DC D1 88 9F D6 1D DE .;.<.9(.........
00405AB0 AD 47 C1 89 11 00 5E 3C 8A 35 00 F9 3B 5F F4 7B .G....^<.5..;_.{
00405AC0 9E 05 F8 5A A4 6C 51 E5 C1 60 44 19 64 93 FF 76 ...Z.lQ..`D.d..v
00405AD0 1C A0 87 88 ED F8 4E E7 C6 19 D7 DC 85 00 A4 C3 ......N.........
00405AE0 93 90 FF 60 9E 3A B7 85 00 95 B4 00 9C 00 FC DB ...`.:..........
00405AF0 EC 4F 65 00 00 6E 80 B5 DC 00 F8 A5 DF E2 BA DB .Oe..n..........
00405B00 F0 0E 30 00 FD 3B 00 34 CA A0 21 7D A4 58 10 F1 ..0..;.4..!}.X..
00405B10 42 E7 1D B3 12 89 A4 FF 05 00 0B FF FC 3E A1 00 B............>..
00405B20 79 00 3C FF 00 66 42 6F 94 8E FC 64 6C 61 0F D8 y.<..fBo...dla..
00405B30 8F 08 41 46 FA FB B3 DC 00 99 CA 27 1C 6F 4E 76 ..AF.......'.oNv
00405B40 00 00 17 00 EC 00 5C F3 00 00 BE F2 70 93 E4 64 ......\.....p..d
00405B50 17 0C FC CF F3 56 2D 52 9E C0 72 00 60 5A 98 00 .....V-R..r.`Z..
00405B60 75 34 16 FF 26 92 FF 00 00 7A D2 00 00 33 70 00 u4..&....z...3p.
00405B70 00 5B 12 51 00 0D 2B 00 74 C3 63 CF AB 00 98 00 .[.Q..+.t.c.....
00405B80 00 B2 03 C0 01 B8 BD 2E 00 7F 91 B1 BF B5 D2 12 ................
00405B90 27 47 D8 4D C7 10 9E 00 6F 0C AD 08 D1 79 A0 00 'G.M....o....y..
00405BA0 60 E6 CA 89 00 00 00 BD 75 00 00 10 C7 00 61 A6 `.......u.....a.
00405BB0 B6 1D 00 DF 67 21 00 97 E0 00 CF 00 00 00 23 2C ....g!........#,
00405BC0 A3 DB C9 3A 18 18 5C 74 2E C0 5B 5C ED 3C 00 FF ...:..\t..[\.<..
00405BD0 CD 00 BF BF EF DE 47 00 28 84 2A A4 45 B9 7E BF ......G.(.*.E.~.
00405BE0 49 00 C1 9F 88 74 FF 97 00 02 7D 43 27 E2 00 FF I....t....}C'...
00405BF0 F5 A0 25 39 00 F0 DD FF 4F 9D E6 74 62 74 F9 00 ..%9....O..tbt..
00405C00 19 73 8D 16 25 E3 60 60 07 0F 38 BB D6 C1 18 F8 .s..%.``..8.....
00405C10 67 2E EE 13 84 A0 74 3F 4E A0 89 00 A2 8F 70 B3 g.....t?N.....p.
00405C20 41 E1 BE FF 30 00 75 AF 00 22 8B FF 81 00 8B 10 A...0.u.."......
00405C30 FF EF 00 1A 2E 1C 10 CF 4B 01 6F F9 FF 5B 07 B2 ........K.o..[..
00405C40 8A 7F 85 02 32 66 3C 14 8D C6 76 AA 0E D8 D6 00 ....2f<...v.....
00405C50 CA 3C A4 00 40 A7 08 99 1A 01 EA 66 00 92 30 9E .<..@......f..0.
00405C60 FF 80 0C D9 2E 00 BF 85 1A 5A 2C CD 19 F2 0E B7 .........Z,.....
00405C70 56 00 7A 40 FF 58 C4 00 27 00 22 00 F0 00 6F 77 V.z@.X..'."...ow
00405C80 D7 B4 54 00 4B CF 36 AD 5B A5 6F 81 3D 35 64 00 ..T.K.6.[.o.=5d.
00405C90 AC 9B 05 50 F4 00 09 D3 FA 83 7F C6 20 1B FF 9A ...P........ ...
00405CA0 E0 91 28 84 49 0A 7E 32 1E 5D 3F 91 CB 79 22 31 ..(.I.~2.]?..y"1
00405CB0 BD F3 93 19 00 4E C7 00 5C E9 6C D0 93 3C 00 02 .....N..\.l..<..
00405CC0 5B 00 0D 1E E2 0F 00 F8 1C 78 63 78 00 00 BA 0F [........xcx....
00405CD0 00 2A 00 FD 00 59 29 17 14 F2 00 9C 23 FA ED 23 .*...Y).....#..#
00405CE0 78 E8 00 D5 00 AF 3A 78 D3 94 69 00 72 C1 B3 1A x.....:x..i.r...
00405CF0 61 B5 3C F4 C4 A1 70 00 33 CD 25 D9 1B E8 BC F2 a.<...p.3.%.....
00405D00 56 00 88 6D FF 00 8B 40 86 D0 95 04 57 00 F1 00 V..m...@....W...
00405D10 94 C7 77 CA 24 E7 C6 05 59 9F C0 00 1C 28 16 FF ..w.$...Y....(..
00405D20 BA AF 37 CD 78 BF EE 0C 00 00 0B 00 8D 10 DB A3 ..7.x...........
00405D30 83 C6 66 00 07 7F D2 A8 F9 0D 9B FF 24 89 7A FF ..f.........$.z.
00405D40 E7 FE FF FB FF 3A 26 8B 56 80 5C A3 0A 27 E7 60 .....:&.V.\..'.`
00405D50 ED 38 42 40 A0 E4 37 7F B7 2A 82 39 00 0B 00 00 .8B@..7..*.9....
00405D60 0F AF 76 A0 DF FF AD E1 C9 00 F9 E9 9F 12 00 AB ..v.............
00405D70 03 F6 A5 BA 99 7B F8 15 00 00 79 BF DA 00 59 AD .....{....y...Y.
00405D80 D8 4E 00 00 71 2C EF A3 05 A8 32 06 4D A5 00 F4 .N..q,....2.M...
00405D90 A9 3E 7E 6D 0B EE C3 77 EC 65 00 04 5A 98 8B 6D .>~m...w.e..Z..m
00405DA0 CE 05 7D 91 DA 71 5D 1E 70 82 3D C9 94 14 7D 7E ..}..q].p.=...}~
00405DB0 0D 46 27 62 1C F3 4F 49 FF 74 FF F6 66 F0 38 00 .F'b..OI.t..f.8.
00405DC0 CD 25 C5 0E 09 02 00 0C AE D9 31 F7 43 AB 00 7D .%........1.C..}
00405DD0 FF 0E 22 00 46 1A DB 1E 0D 9C D2 E2 CA CD 46 7C ..".F.........F|
00405DE0 77 00 71 91 6B FE F9 2F FF E3 00 00 70 4B 48 26 w.q.k../....pKH&
00405DF0 A0 00 EF 00 84 80 00 BE BD 00 FF 77 8B 83 80 D0 ...........w....
00405E00 13 22 00 37 80 16 27 0C 00 00 3A F4 8B 00 9E 69 .".7..'...:....i
00405E10 B7 00 89 11 82 5F 77 21 9B 6F CE AA 08 A7 04 47 ....._w!.o.....G
00405E20 1A 00 00 00 6C 50 6A 77 03 00 45 00 DC C4 3E 00 ....lPjw..E...>.
00405E30 00 00 90 FF 06 97 43 00 62 B4 FF 23 01 78 C9 82 ......C.b..#.x..
00405E40 36 8D B6 00 48 4A E8 B1 46 67 3E 91 F7 A7 B8 FD 6...HJ..Fg>.....
00405E50 07 58 72 79 32 00 1C B2 FE 94 36 50 E6 6E DF 84 .Xry2.....6P.n..
00405E60 00 7B 43 07 27 0E DC E6 85 01 54 06 E8 1E 00 FF .{C.'.....T.....
00405E70 4A 1C A0 00 00 BF BF E2 8F D2 28 9B A3 9F 7D FF J.........(...}.
00405E80 81 D0 7A 58 04 0B 80 6D 30 0E 42 FC FD 46 58 8A ..zX...m0.B..FX.
00405E90 BE BA FF 3D 82 61 FC C5 74 38 36 BD DE 38 FF 9F ...=.a..t86..8..
00405EA0 00 70 43 36 4D 2C DA 02 CE 87 F0 3C EF 94 2D 07 .pC6M,.....<..-.
00405EB0 6E 00 4C 49 93 D0 00 A8 ED F7 66 0C 11 4D FF 3D n.LI......f..M.=
00405EC0 59 AC A4 C8 11 73 61 08 28 EE FF FF F7 76 19 FF Y....sa.(....v..
00405ED0 CD 48 00 1F EC 19 0D FB FF FB 5D AE 92 DD 3D 0C .H........]...=.
00405EE0 00 7C 8C A4 DF 00 2D 93 67 5C BC 91 00 00 F6 00 .|....-.g\......
00405EF0 F6 FF BD 00 17 9F 8C 8C 53 53 44 3B FC 4B 0F E2 ........SSD;.K..
00405F00 07 80 C5 C4 CF 00 22 50 87 56 6F 00 F0 C0 57 B7 ......"P.Vo...W.
00405F10 49 73 8E 23 1B 07 9F 37 82 00 00 A5 C8 09 F3 3A Is.#...7.......:
00405F20 06 00 34 C6 00 B0 00 BE 71 DD 7C BB CC 5B 1B 3E ..4.....q.|..[.>
00405F30 47 3D D7 04 1B C3 9B F1 00 4B 5E 8F 27 9D 02 4B G=.......K^.'..K
00405F40 8F 88 B0 81 C0 02 00 02 28 33 72 00 9C 02 2A 5D ........(3r...*]
00405F50 85 0B 02 69 C8 5D 2E 66 B0 00 61 DA 00 C5 8F FF ...i.].f..a.....
00405F60 04 BC 13 77 F9 F0 07 A9 C8 06 74 99 00 A4 C3 0E ...w......t.....
00405F70 6D 0C 46 19 77 81 07 F2 89 E3 00 7A A8 BA 00 00 m.F.w......z....
00405F80 FF BF 64 00 1D 06 00 00 98 16 1C 00 E5 C8 00 21 ..d............!
00405F90 F3 71 00 48 01 E9 69 FF 28 78 00 54 FF 00 02 FF .q.H..i.(x.T....
00405FA0 9B 4B 70 C8 8F 8B EB 9E 58 D1 E4 FF FF 45 10 FE .Kp.....X....E..
00405FB0 1C 19 FF 00 6A D3 00 A1 99 FF 00 FF C6 E5 B8 6C ....j..........l
00405FC0 06 60 00 10 1F 20 00 47 52 F5 A5 7F 5E CD 00 44 .`... .GR...^..D
00405FD0 50 00 4F D4 00 04 6A 29 ED 80 1B F7 00 3D FD 9B P.O...j).....=..
00405FE0 A3 9C C4 00 87 DC F3 32 D8 00 FF 39 A7 19 F8 0F .......2...9....
00405FF0 3F 00 00 EB A9 84 E9 FE 00 04 B2 FF 20 22 69 76 ?........... "iv
00406000 F3 7E 44 62 F9 67 6B FF FF 58 15 86 04 6E B7 2C .~Db.gk..X...n.,
00406010 30 FF DF 38 40 8D 98 34 6D 7B 04 99 00 8E 00 20 0..8@..4m{..... 
00406020 7C AF 81 EF 2E E9 C1 98 C0 D6 03 06 FF E0 D5 E7 |...............
00406030 DB 3E 89 68 F3 07 00 CB 00 AB 8A 34 54 D0 FF A2 .>.h.......4T...
00406040 68 00 00 B6 03 48 4F 00 FF BF C0 2C B3 00 EE AB h....HO....,....
00406050 DE 6F 07 00 C1 F1 DF 7C FF B5 FF 24 57 30 30 26 .o.....|...$W00&
00406060 C7 7F DC FF 00 54 EE 00 74 00 D0 8B 69 F0 D3 B7 .....T..t...i...
00406070 C4 52 06 FF F8 61 00 1F 9F 1C 00 EC 81 1E 3F 5F .R...a........?_
00406080 C1 CB FF 2D 0C FF 01 6C 9C 00 79 00 20 54 1A F5 ...-...l..y. T..
00406090 75 00 EA BA 43 C3 67 C3 04 FF D4 4B E9 F3 47 50 u...C.g....K..GP
004060A0 BF 00 17 3A DD 5A 00 FF BF 4F 8D 9C B0 EF 0F 3A ...:.Z...O.....:
004060B0 D2 00 B3 43 84 A8 85 00 E3 0F 4E 00 2F 10 FF DB ...C......N./...
004060C0 00 5E 2A 57 83 A4 35 B7 BC BD 00 96 00 9E 34 2D .^*W..5.......4-
004060D0 00 00 C0 4E 32 68 58 4F 60 00 00 FF 00 7C 00 39 ...N2hXO`....|.9
004060E0 5D C6 F4 36 B8 70 40 BF 4D DA EF 39 A3 67 4F FB ]..6.p@.M..9.gO.
004060F0 A3 05 14 FE B5 40 AF 3C 00 11 19 29 00 DB E4 A8 .....@.<...)....
00406100 E0 61 31 11 75 8E 00 72 E9 BE 07 2B A3 E1 24 38 .a1.u..r...+..$8
00406110 96 DB FF 1B 29 80 19 A3 00 89 BA 00 26 83 02 9C ....).......&...
00406120 08 E4 00 00 C6 72 11 38 02 7B DD 71 0E 67 80 F8 .....r.8.{.q.g..
00406130 80 78 44 B8 BF 2F 94 B2 48 33 70 86 3E 2B 0B FC .xD../..H3p.>+..
00406140 1F 8C 40 EA 00 3E E1 33 00 FF 94 22 1F 00 FB 00 ..@..>.3..."....
00406150 5C 2E 64 FC E1 D4 00 E3 00 62 00 89 73 D7 00 00 \.d......b..s...
00406160 00 00 15 7C 00 F7 1F EB 7C E3 00 00 00 51 FB 45 ...|....|....Q.E
00406170 B5 35 23 1C F6 D8 00 A0 FF 4A FA 0E F0 00 6C 00 .5#......J....l.
00406180 2E 04 FD 20 7D 00 00 88 A0 57 00 51 0B 00 60 C3 ... }....W.Q..`.
00406190 67 7A 0E 49 B9 1E 34 00 00 FC D2 96 0B CE 00 FF gz.I..4.........
004061A0 04 23 00 19 66 72 1C 90 71 0B 6A 6B 3D 3A 00 3F .#..fr..q.jk=:.?
004061B0 50 4F 22 2C 31 FF 00 E6 22 52 33 B8 12 DC 40 4C PO",1..."R3...@L
004061C0 F0 02 6C E6 70 6C FF 7C 00 AB 4C 26 99 00 81 50 ..l.pl.|..L&...P
004061D0 FF 40 1F E8 FF 4D 32 4E 00 4D 92 CF 81 27 2B 00 .@...M2N.M...'+.
004061E0 CC C0 15 30 E3 CF C5 CD CB 7E 1E B3 00 FD A4 AF ...0.....~......
004061F0 00 BC 52 12 FB FF 05 00 00 1E 83 FD 82 08 70 0F ..R...........p.
00406200 FF BB EC 21 72 5C 68 FF 69 CB CF 00 5D BD DA 3C ...!r\h.i...]..<
00406210 00 FB C6 F1 5E 05 24 F0 A8 00 00 30 C0 34 92 62 ....^.$....0.4.b
00406220 FA DE EC 1A A3 0D D1 95 0A DA 1E 80 59 E7 EA F1 ............Y...
00406230 FF 55 7A 14 00 9F 00 30 31 EB 94 1F 08 97 B8 5A .Uz....01......Z
00406240 CF C5 61 46 00 4A C8 A6 6A 4F 37 91 E9 40 37 D1 ..aF.J..jO7..@7.
00406250 84 5A 0B 78 08 8D FD 00 80 01 4A C7 07 49 E4 6C .Z.x......J..I.l
00406260 CD C0 0C 6A 00 B2 00 69 FF 5F E8 21 DA 1A 72 02 ...j...i._.!..r.
00406270 FC 8B DD 76 DC FF 77 26 00 9B CD DF 4D 78 07 35 ...v..w&....Mx.5
00406280 EE 32 D9 C0 57 E4 00 C5 7C 8E 53 43 1D 00 C0 72 .2..W...|.SC...r
00406290 DD D7 EF FF 36 B5 42 BF FA 00 DB FB D4 17 18 F2 ....6.B.........
004062A0 61 17 61 F1 40 4C 68 84 7B E9 BE 3F 42 C8 62 26 a.a.@Lh.{..?B.b&
004062B0 62 74 42 00 00 FB 8C B3 DB 00 FE 42 7D E8 A4 01 btB........B}...
004062C0 7F AE 84 3F C1 C5 FF F3 00 26 74 8E 00 7D 02 E4 ...?.....&t..}..
004062D0 7B 78 48 C6 5E 00 88 FF 26 FE 31 E9 48 6A 12 09 {xH.^...&.1.Hj..
004062E0 15 97 00 ED A9 21 00 39 FB 03 E8 E2 01 3E 63 D2 .....!.9.....>c.
004062F0 00 00 D9 00 00 ED E7 6B 96 05 12 00 E9 E3 1C F6 .......k........
00406300 FF 60 54 37 71 7C F5 8F FD FB 78 CD 00 7E 0E AB .`T7q|....x..~..
00406310 61 BD A8 10 00 62 17 8E D1 91 B6 00 83 09 10 DA a....b..........
00406320 39 97 BE 55 91 A6 00 FB 45 CD 3F 1B 00 53 00 FF 9..U....E.?..S..
00406330 00 00 00 89 70 DC 81 2A B3 65 48 64 6F D8 3E 93 ....p..*.eHdo.>.
00406340 A1 90 00 0D 69 00 C8 5F 00 10 8B 3D 7E 82 24 51 ....i.._...=~.$Q
00406350 3D C2 AF 00 6D 96 20 00 00 45 1B 84 59 BE C7 28 =...m. ..E..Y..(
00406360 D7 50 4B 77 00 6F 41 00 A8 E6 00 04 6B 85 09 14 .PKw.oA.....k...
00406370 60 7C 60 00 70 C5 12 D0 05 00 8C 09 36 0C B6 81 `|`.p.......6...
00406380 02 00 EA A0 45 3D 3E 39 9E 32 A0 A7 B8 E6 F9 36 ....E=>9.2.....6
00406390 97 FE D5 B0 6A E4 0A 1F FA A6 D8 00 63 7E F4 00 ....j.......c~..
004063A0 00 0B 50 01 00 07 58 65 EB 21 00 8D FF 1A B5 BD ..P...Xe.!......
004063B0 FF A7 86 03 B7 D6 54 0E 2B 41 97 00 00 96 EC 3A ......T.+A.....:
004063C0 04 85 A6 C1 FF 39 A3 33 FF 02 00 7C 46 4B 24 7E .....9.3...|FK$~
004063D0 EF 32 AE F2 72 C7 9E 7B 00 59 02 DF 64 98 FF 2D .2..r..{.Y..d..-
004063E0 43 21 BA F9 E8 00 8C 70 09 FF 00 54 EE 0F 03 26 C!.....p...T...&
004063F0 EE 74 19 00 07 EC 8D 08 FF 00 C4 B7 C9 FC 00 FF .t..............
00406400 A8 AC 30 9C C6 5F F9 02 C5 6F DA 00 A6 36 00 A1 ..0.._...o...6..
00406410 E1 24 48 C7 10 00 9D AA 46 83 13 E2 98 83 E2 8E .$H.....F.......
00406420 97 5A 03 82 34 0E 04 DD 00 E0 F3 A2 E4 22 20 00 .Z..4........" .
00406430 11 8E 26 69 13 70 9B 00 41 20 DB F1 4C 78 0A 80 ..&i.p..A ..Lx..
00406440 00 1D 00 56 FA 7E E4 9C 58 F6 DB FD FF 28 B8 EA ...V.~..X....(..
00406450 AE 89 10 67 6C 50 00 00 B6 05 FF 82 80 00 10 00 ...glP..........
00406460 06 D4 F9 5A 63 37 C4 AB AE 00 69 6C 78 40 85 10 ...Zc7....ilx@..
00406470 D8 B4 00 1C 49 43 00 60 12 00 6B FF 15 00 84 41 ....IC.`..k....A
00406480 00 E8 C0 DB 90 4D EB 00 59 60 C7 0F E3 FE BC E1 .....M..Y`......
00406490 3B 00 11 0A 1E F0 78 00 14 00 05 B6 0B 00 00 1B ;.....x.........
004064A0 AA FD 05 88 00 E4 3A C2 FF 0A F7 00 4B 00 58 62 ......:.....K.Xb
004064B0 09 0C 90 3C 1A 77 68 2A FF 1B FF B1 1C FF 9A C6 ...<.wh*........
004064C0 7B B1 00 E6 EF 74 E2 57 31 AB 00 3F F2 1E F7 18 {....t.W1..?....
004064D0 FF 87 71 ED BD A1 EA 13 69 17 CB 2C 9F 41 EF 04 ..q.....i..,.A..
004064E0 10 FC 00 00 00 70 FF 45 30 B6 2D 01 58 33 65 00 .....p.E0.-.X3e.
004064F0 9D 8B 00 65 C1 BB 46 F9 A4 7B 4C C2 05 DF 4F 22 ...e..F..{L...O"
00406500 1B 8F F6 7A 05 00 00 E1 C4 E7 E0 09 C0 93 47 FF ...z..........G.
00406510 CF CC 00 80 EE 3E 00 00 31 FE 4C 4E 3F 34 00 AA .....>..1.LN?4..
00406520 FF D3 00 13 8E 51 4C ED CB 00 FD C7 00 1E F4 31 .....QL........1
00406530 0F FF FF 00 26 8A 7C 62 79 B2 DD F8 96 B2 A0 05 ....&.|by.......
00406540 F0 00 59 5F 90 48 00 42 74 00 A8 DB 7F 18 24 8C ..Y_.H.Bt.....$.
00406550 00 3F 7E 77 31 FF 36 65 E6 00 00 00 05 68 4A FF .?~w1.6e.....hJ.
00406560 BE 0F C7 2F AE C0 38 7D 00 3A 69 13 08 10 72 FB .../..8}.:i...r.
00406570 A5 D7 AF FE 38 41 30 18 57 4F 58 4B 28 3F 00 AC ....8A0.WOXK(?..
00406580 00 FF 3F 46 60 21 AF 23 B3 44 03 A9 E5 00 33 01 ..?F`!.#.D....3.
00406590 9C 00 09 4E BC 8E 00 F9 CD DE DA 24 81 5C 06 4E ...N.......$.\.N
004065A0 FF 58 6F 59 00 31 D6 0D 2A BF 1C 2C CF 75 8D 92 .XoY.1..*..,.u..
004065B0 B7 02 84 A9 EB 16 C5 10 00 FF 1A 08 2F C0 8C 0C ............/...
004065C0 9F 0B 3A 3E ED 5C 82 0D E0 CC D7 05 B2 28 F1 CC ..:>.\.......(..
004065D0 6F 98 74 DD 76 A6 BD 9B 4E 80 74 01 FF C7 57 42 o.t.v...N.t...WB
004065E0 CB B2 6C 98 00 02 6A 3C 16 0B DD 00 8C 9B 57 1F ..l...j<......W.
004065F0 F7 A9 2F D3 44 5C D0 24 18 C5 BE FF 8F 00 BD 16 ../.D\.$........
00406600 00 00 00 00 00 00 00 00 00 00 00 00 00 00 00 00 ................
00406610 00 00 00 00 00 00 00 00 00 00 00 00 00 00 00 00 ................
00406620 00 00 00 00 00 00 00 00 00 00 00 00 00 00 00 00 ................
00406630 00 00 00 00 00 00 00 00 00 00 00 00 00 00 00 00 ................
00406640 00 00 00 00 00 00 00 00 00 00 00 00 00 00 00 00 ................
00406650 00 00 00 00 00 00 00 00 00 00 00 00 00 00 00 00 ................
00406660 00 00 00 00 00 00 00 00 00 00 00 00 00 00 00 00 ................
00406670 00 00 00 00 00 00 00 00 00 00 00 00 00 00 00 00 ................
00406680 00 00 00 00 00 00 00 00 00 00 00 00 00 00 00 00 ................
00406690 00 00 00 00 00 00 00 00 00 00 00 00 00 00 00 00 ................
004066A0 00 00 00 00 00 00 00 00 00 00 00 00 00 00 00 00 ................
004066B0 00 00 00 00 00 00 00 00 00 00 00 00 00 00 00 00 ................
004066C0 00 00 00 00 00 00 00 00 00 00 00 00 00 00 00 00 ................
004066D0 00 00 00 00 00 00 00 00 00 00 00 00 00 00 00 00 ................
004066E0 00 00 00 00 00 00 00 00 00 00 00 00 00 00 00 00 ................
004066F0 00 00 00 00 00 00 00 00 00 00 00 00 00 00 00 00 ................
00406700 00 00 00 00 00 00 00 00 00 00 00 00 00 00 00 00 ................
00406710 00 00 00 00 00 00 00 00 00 00 00 00 00 00 00 00 ................
00406720 00 00 00 00 00 00 00 00 00 00 00 00 00 00 00 00 ................
00406730 00 00 00 00 00 00 00 00 00 00 00 00 00 00 00 00 ................
00406740 00 00 00 00 00 00 00 00 00 00 00 00 00 00 00 00 ................
00406750 00 00 00 00 00 00 00 00 00 00 00 00 00 00 00 00 ................
00406760 00 00 00 00 00 00 00 00 00 00 00 00 00 00 00 00 ................
00406770 00 00 00 00 00 00 00 00 00 00 00 00 00 00 00 00 ................
00406780 00 00 00 00 00 00 00 00 00 00 00 00 00 00 00 00 ................
00406790 00 00 00 00 00 00 00 00 00 00 00 00 00 00 00 00 ................
004067A0 00 00 00 00 00 00 00 00 00 00 00 00 00 00 00 00 ................
004067B0 00 00 00 00 00 00 00 00 00 00 00 00 00 00 00 00 ................
004067C0 00 00 00 00 00 00 00 00 00 00 00 00 00 00 00 00 ................
004067D0 00 00 00 00 00 00 00 00 00 00 00 00 00 00 00 00 ................
004067E0 00 00 00 00 00 00 00 00 00 00 00 00 00 00 00 00 ................
004067F0 00 00 00 00 00 00 00 00 00 00 00 00 00 00 00 00 ................
00406800 00 00 00 00 00 00 00 00 00 00 00 00 00 00 00 00 ................
00406810 00 00 00 00 00 00 00 00 00 00 00 00 00 00 00 00 ................
00406820 00 00 00 00 00 00 00 00 00 00 00 00 00 00 00 00 ................
00406830 00 00 00 00 00 00 00 00 00 00 00 00 00 00 00 00 ................
00406840 00 00 00 00 00 00 00 00 00 00 00 00 00 00 00 00 ................
00406850 00 00 00 00 00 00 00 00 00 00 00 00 00 00 00 00 ................
00406860 00 00 00 00 00 00 00 00 00 00 00 00 00 00 00 00 ................
00406870 00 00 00 00 00 00 00 00 00 00 00 00 00 00 00 00 ................
00406880 00 00 00 00 00 00 00 00 00 00 00 00 00 00 00 00 ................
00406890 00 00 00 00 00 00 00 00 00 00 00 00 00 00 00 00 ................
004068A0 00 00 00 00 00 00 00 00 00 00 00 00 00 00 00 00 ................
004068B0 00 00 00 00 00 00 00 00 00 00 00 00 00 00 00 00 ................
004068C0 00 00 00 00 00 00 00 00 00 00 00 00 00 00 00 00 ................
004068D0 00 00 00 00 00 00 00 00 00 00 00 00 00 00 00 00 ................
004068E0 00 00 00 00 00 00 00 00 00 00 00 00 00 00 00 00 ................
004068F0 00 00 00 00 00 00 00 00 00 00 00 00 00 00 00 00 ................
00406900 00 00 00 00 00 00 00 00 00 00 00 00 00 00 00 00 ................
00406910 00 00 00 00 00 00 00 00 00 00 00 00 00 00 00 00 ................
00406920 00 00 00 00 00 00 00 00 00 00 00 00 00 00 00 00 ................
00406930 00 00 00 00 00 00 00 00 00 00 00 00 00 00 00 00 ................
00406940 00 00 00 00 00 00 00 00 00 00 00 00 00 00 00 00 ................
00406950 00 00 00 00 00 00 00 00 00 00 00 00 00 00 00 00 ................
00406960 00 00 00 00 00 00 00 00 00 00 00 00 00 00 00 00 ................
00406970 00 00 00 00 00 00 00 00 00 00 00 00 00 00 00 00 ................
00406980 00 00 00 00 00 00 00 00 00 00 00 00 00 00 00 00 ................
00406990 00 00 00 00 00 00 00 00 00 00 00 00 00 00 00 00 ................
004069A0 00 00 00 00 00 00 00 00 00 00 00 00 00 00 00 00 ................
004069B0 00 00 00 00 00 00 00 00 00 00 00 00 00 00 00 00 ................
004069C0 00 00 00 00 00 00 00 00 00 00 00 00 00 00 00 00 ................
004069D0 00 00 00 00 00 00 00 00 00 00 00 00 00 00 00 00 ................
004069E0 00 00 00 00 00 00 00 00 00 00 00 00 00 00 00 00 ................
004069F0 00 00 00 00 00 00 00 00 00 00 00 00 00 00 00 00 ................
00406A00 00 00 00 00 00 00 00 00 00 00 00 00 00 00 00 00 ................
00406A10 00 00 00 00 00 00 00 00 00 00 00 00 00 00 00 00 ................
00406A20 00 00 00 00 00 00 00 00 00 00 00 00 00 00 00 00 ................
00406A30 00 00 00 00 00 00 00 00 00 00 00 00 00 00 00 00 ................
00406A40 00 00 00 00 00 00 00 00 00 00 00 00 00 00 00 00 ................
00406A50 00 00 00 00 00 00 00 00 00 00 00 00 00 00 00 00 ................
00406A60 00 00 00 00 00 00 00 00 00 00 00 00 00 00 00 00 ................
00406A70 00 00 00 00 00 00 00 00 00 00 00 00 00 00 00 00 ................
00406A80 00 00 00 00 00 00 00 00 00 00 00 00 00 00 00 00 ................
00406A90 00 00 00 00 00 00 00 00 00 00 00 00 00 00 00 00 ................
00406AA0 00 00 00 00 00 00 00 00 00 00 00 00 00 00 00 00 ................
00406AB0 00 00 00 00 00 00 00 00 00 00 00 00 00 00 00 00 ................
00406AC0 00 00 00 00 00 00 00 00 00 00 00 00 00 00 00 00 ................
00406AD0 00 00 00 00 00 00 00 00 00 00 00 00 00 00 00 00 ................
00406AE0 00 00 00 00 00 00 00 00 00 00 00 00 00 00 00 00 ................
00406AF0 00 00 00 00 00 00 00 00 00 00 00 00 00 00 00 00 ................
00406B00 00 00 00 00 00 00 00 00 00 00 00 00 00 00 00 00 ................
00406B10 00 00 00 00 00 00 00 00 00 00 00 00 00 00 00 00 ................
00406B20 00 00 00 00 00 00 00 00 00 00 00 00 00 00 00 00 ................
00406B30 00 00 00 00 00 00 00 00 00 00 00 00 00 00 00 00 ................
00406B40 00 00 00 00 00 00 00 00 00 00 00 00 00 00 00 00 ................
00406B50 00 00 00 00 00 00 00 00 00 00 00 00 00 00 00 00 ................
00406B60 00 00 00 00 00 00 00 00 00 00 00 00 00 00 00 00 ................
00406B70 00 00 00 00 00 00 00 00 00 00 00 00 00 00 00 00 ................
00406B80 00 00 00 00 00 00 00 00 00 00 00 00 00 00 00 00 ................
00406B90 00 00 00 00 00 00 00 00 00 00 00 00 00 00 00 00 ................
00406BA0 00 00 00 00 00 00 00 00 00 00 00 00 00 00 00 00 ................
00406BB0 00 00 00 00 00 00 00 00 00 00 00 00 00 00 00 00 ................
00406BC0 00 00 00 00 00 00 00 00 00 00 00 00 00 00 00 00 ................
00406BD0 00 00 00 00 00 00 00 00 00 00 00 00 00 00 00 00 ................
00406BE0 00 00 00 00 00 00 00 00 00 00 00 00 00 00 00 00 ................
00406BF0 00 00 00 00 00 00 00 00 00 00 00 00 00 00 00 00 ................
00406C00 00 00 00 00 00 00 00 00 00 00 00 00 00 00 00 00 ................
00406C10 00 00 00 00 00 00 00 00 00 00 00 00 00 00 00 00 ................
00406C20 00 00 00 00 00 00 00 00 00 00 00 00 00 00 00 00 ................
00406C30 00 00 00 00 00 00 00 00 00 00 00 00 00 00 00 00 ................
00406C40 00 00 00 00 00 00 00 00 00 00 00 00 00 00 00 00 ................
00406C50 00 00 00 00 00 00 00 00 00 00 00 00 00 00 00 00 ................
00406C60 00 00 00 00 00 00 00 00 00 00 00 00 00 00 00 00 ................
00406C70 00 00 00 00 00 00 00 00 00 00 00 00 00 00 00 00 ................
00406C80 00 00 00 00 00 00 00 00 00 00 00 00 00 00 00 00 ................
00406C90 00 00 00 00 00 00 00 00 00 00 00 00 00 00 00 00 ................
00406CA0 00 00 00 00 00 00 00 00 00 00 00 00 00 00 00 00 ................
00406CB0 00 00 00 00 00 00 00 00 00 00 00 00 00 00 00 00 ................
00406CC0 00 00 00 00 00 00 00 00 00 00 00 00 00 00 00 00 ................
00406CD0 00 00 00 00 00 00 00 00 00 00 00 00 00 00 00 00 ................
00406CE0 00 00 00 00 00 00 00 00 00 00 00 00 00 00 00 00 ................
00406CF0 00 00 00 00 00 00 00 00 00 00 00 00 00 00 00 00 ................
00406D00 00 00 00 00 00 00 00 00 00 00 00 00 00 00 00 00 ................
00406D10 00 00 00 00 00 00 00 00 00 00 00 00 00 00 00 00 ................
00406D20 00 00 00 00 00 00 00 00 00 00 00 00 00 00 00 00 ................
00406D30 00 00 00 00 00 00 00 00 00 00 00 00 00 00 00 00 ................
00406D40 00 00 00 00 00 00 00 00 00 00 00 00 00 00 00 00 ................
00406D50 00 00 00 00 00 00 00 00 00 00 00 00 00 00 00 00 ................
00406D60 00 00 00 00 00 00 00 00 00 00 00 00 00 00 00 00 ................
00406D70 00 00 00 00 00 00 00 00 00 00 00 00 00 00 00 00 ................
00406D80 00 00 00 00 00 00 00 00 00 00 00 00 00 00 00 00 ................
00406D90 00 00 00 00 00 00 00 00 00 00 00 00 00 00 00 00 ................
00406DA0 00 00 00 00 00 00 00 00 00 00 00 00 00 00 00 00 ................
00406DB0 00 00 00 00 00 00 00 00 00 00 00 00 00 00 00 00 ................
00406DC0 00 00 00 00 00 00 00 00 00 00 00 00 00 00 00 00 ................
00406DD0 00 00 00 00 00 00 00 00 00 00 00 00 00 00 00 00 ................
00406DE0 00 00 00 00 00 00 00 00 00 00 00 00 00 00 00 00 ................
00406DF0 00 00 00 00 00 00 00 00 00 00 00 00 00 00 00 00 ................
00406E00 00 00 00 00 00 00 00 00 00 00 00 00 00 00 00 00 ................
00406E10 00 00 00 00 00 00 00 00 00 00 00 00 00 00 00 00 ................
00406E20 00 00 00 00 00 00 00 00 00 00 00 00 00 00 00 00 ................
00406E30 00 00 00 00 00 00 00 00 00 00 00 00 00 00 00 00 ................
00406E40 00 00 00 00 00 00 00 00 00 00 00 00 00 00 00 00 ................
00406E50 00 00 00 00 00 00 00 00 00 00 00 00 00 00 00 00 ................
00406E60 00 00 00 00 00 00 00 00 00 00 00 00 00 00 00 00 ................
00406E70 00 00 00 00 00 00 00 00 00 00 00 00 00 00 00 00 ................
00406E80 00 00 00 00 00 00 00 00 00 00 00 00 00 00 00 00 ................
00406E90 00 00 00 00 00 00 00 00 00 00 00 00 00 00 00 00 ................
00406EA0 00 00 00 00 00 00 00 00 00 00 00 00 00 00 00 00 ................
00406EB0 00 00 00 00 00 00 00 00 00 00 00 00 00 00 00 00 ................
00406EC0 00 00 00 00 00 00 00 00 00 00 00 00 00 00 00 00 ................
00406ED0 00 00 00 00 00 00 00 00 00 00 00 00 00 00 00 00 ................
00406EE0 00 00 00 00 00 00 00 00 00 00 00 00 00 00 00 00 ................
00406EF0 00 00 00 00 00 00 00 00 00 00 00 00 00 00 00 00 ................
00406F00 00 00 00 00 00 00 00 00 00 00 00 00 00 00 00 00 ................
00406F10 00 00 00 00 00 00 00 00 00 00 00 00 00 00 00 00 ................
00406F20 00 00 00 00 00 00 00 00 00 00 00 00 00 00 00 00 ................
00406F30 00 00 00 00 00 00 00 00 00 00 00 00 00 00 00 00 ................
00406F40 00 00 00 00 00 00 00 00 00 00 00 00 00 00 00 00 ................
00406F50 00 00 00 00 00 00 00 00 00 00 00 00 00 00 00 00 ................
00406F60 00 00 00 00 00 00 00 00 00 00 00 00 00 00 00 00 ................
00406F70 00 00 00 00 00 00 00 00 00 00 00 00 00 00 00 00 ................
00406F80 00 00 00 00 00 00 00 00 00 00 00 00 00 00 00 00 ................
00406F90 00 00 00 00 00 00 00 00 00 00 00 00 00 00 00 00 ................
00406FA0 00 00 00 00 00 00 00 00 00 00 00 00 00 00 00 00 ................
00406FB0 00 00 00 00 00 00 00 00 00 00 00 00 00 00 00 00 ................
00406FC0 00 00 00 00 00 00 00 00 00 00 00 00 00 00 00 00 ................
00406FD0 00 00 00 00 00 00 00 00 00 00 00 00 00 00 00 00 ................
00406FE0 00 00 00 00 00 00 00 00 00 00 00 00 00 00 00 00 ................
00406FF0 00 00 00 00 00 00 00 00 00 00 00 00 00 00 00 00 ................
00407000 00 00 00 00 00 00 00 00 00 00 00 00 00 00 00 00 ................
00407010 00 00 00 00 00 00 00 00 00 00 00 00 00 00 00 00 ................
00407020 00 00 00 00 00 00 00 00 00 00 00 00 00 00 00 00 ................
00407030 00 00 00 00 00 00 00 00 00 00 00 00 00 00 00 00 ................
00407040 00 00 00 00 00 00 00 00 00 00 00 00 00 00 00 00 ................
00407050 00 00 00 00 00 00 00 00 00 00 00 00 00 00 00 00 ................
00407060 00 00 00 00 00 00 00 00 00 00 00 00 00 00 00 00 ................
00407070 00 00 00 00 00 00 00 00 00 00 00 00 00 00 00 00 ................
00407080 00 00 00 00 00 00 00 00 00 00 00 00 00 00 00 00 ................
00407090 00 00 00 00 00 00 00 00 00 00 00 00 00 00 00 00 ................
004070A0 00 00 00 00 00 00 00 00 00 00 00 00 00 00 00 00 ................
004070B0 00 00 00 00 00 00 00 00 00 00 00 00 00 00 00 00 ................
004070C0 00 00 00 00 00 00 00 00 00 00 00 00 00 00 00 00 ................
004070D0 00 00 00 00 00 00 00 00 00 00 00 00 00 00 00 00 ................
004070E0 00 00 00 00 00 00 00 00 00 00 00 00 00 00 00 00 ................
004070F0 00 00 00 00 00 00 00 00 00 00 00 00 00 00 00 00 ................
00407100 00 00 00 00 00 00 00 00 00 00 00 00 00 00 00 00 ................
00407110 00 00 00 00 00 00 00 00 00 00 00 00 00 00 00 00 ................
00407120 00 00 00 00 00 00 00 00 00 00 00 00 00 00 00 00 ................
00407130 00 00 00 00 00 00 00 00 00 00 00 00 00 00 00 00 ................
00407140 00 00 00 00 00 00 00 00 00 00 00 00 00 00 00 00 ................
00407150 00 00 00 00 00 00 00 00 00 00 00 00 00 00 00 00 ................
00407160 00 00 00 00 00 00 00 00 00 00 00 00 00 00 00 00 ................
00407170 00 00 00 00 00 00 00 00 00 00 00 00 00 00 00 00 ................
00407180 00 00 00 00 00 00 00 00 00 00 00 00 00 00 00 00 ................
00407190 00 00 00 00 00 00 00 00 00 00 00 00 00 00 00 00 ................
004071A0 00 00 00 00 00 00 00 00 00 00 00 00 00 00 00 00 ................
004071B0 00 00 00 00 00 00 00 00 00 00 00 00 00 00 00 00 ................
004071C0 00 00 00 00 00 00 00 00 00 00 00 00 00 00 00 00 ................
004071D0 00 00 00 00 00 00 00 00 00 00 00 00 00 00 00 00 ................
004071E0 00 00 00 00 00 00 00 00 00 00 00 00 00 00 00 00 ................
004071F0 00 00 00 00 00 00 00 00 00 00 00 00 00 00 00 00 ................
00407200 00 00 00 00 00 00 00 00 00 00 00 00 00 00 00 00 ................
00407210 00 00 00 00 00 00 00 00 00 00 00 00 00 00 00 00 ................
00407220 00 00 00 00 00 00 00 00 00 00 00 00 00 00 00 00 ................
00407230 00 00 00 00 00 00 00 00 00 00 00 00 00 00 00 00 ................
00407240 00 00 00 00 00 00 00 00 00 00 00 00 00 00 00 00 ................
00407250 00 00 00 00 00 00 00 00 00 00 00 00 00 00 00 00 ................
00407260 00 00 00 00 00 00 00 00 00 00 00 00 00 00 00 00 ................
00407270 00 00 00 00 00 00 00 00 00 00 00 00 00 00 00 00 ................
00407280 00 00 00 00 00 00 00 00 00 00 00 00 00 00 00 00 ................
00407290 00 00 00 00 00 00 00 00 00 00 00 00 00 00 00 00 ................
004072A0 00 00 00 00 00 00 00 00 00 00 00 00 00 00 00 00 ................
004072B0 00 00 00 00 00 00 00 00 00 00 00 00 00 00 00 00 ................
004072C0 00 00 00 00 00 00 00 00 00 00 00 00 00 00 00 00 ................
004072D0 00 00 00 00 00 00 00 00 00 00 00 00 00 00 00 00 ................
004072E0 00 00 00 00 00 00 00 00 00 00 00 00 00 00 00 00 ................
004072F0 00 00 00 00 00 00 00 00 00 00 00 00 00 00 00 00 ................
00407300 00 00 00 00 00 00 00 00 00 00 00 00 00 00 00 00 ................
00407310 00 00 00 00 00 00 00 00 00 00 00 00 00 00 00 00 ................
00407320 00 00 00 00 00 00 00 00 00 00 00 00 00 00 00 00 ................
00407330 00 00 00 00 00 00 00 00 00 00 00 00 00 00 00 00 ................
00407340 00 00 00 00 00 00 00 00 00 00 00 00 00 00 00 00 ................
00407350 00 00 00 00 00 00 00 00 00 00 00 00 00 00 00 00 ................
00407360 00 00 00 00 00 00 00 00 00 00 00 00 00 00 00 00 ................
00407370 00 00 00 00 00 00 00 00 00 00 00 00 00 00 00 00 ................
00407380 00 00 00 00 00 00 00 00 00 00 00 00 00 00 00 00 ................
00407390 00 00 00 00 00 00 00 00 00 00 00 00 00 00 00 00 ................
004073A0 00 00 00 00 00 00 00 00 00 00 00 00 00 00 00 00 ................
004073B0 00 00 00 00 00 00 00 00 00 00 00 00 00 00 00 00 ................
004073C0 00 00 00 00 00 00 00 00 00 00 00 00 00 00 00 00 ................
004073D0 00 00 00 00 00 00 00 00 00 00 00 00 00 00 00 00 ................
004073E0 00 00 00 00 00 00 00 00 00 00 00 00 00 00 00 00 ................
004073F0 00 00 00 00 00 00 00 00 00 00 00 00 00 00 00 00 ................
00407400 00 00 00 00 00 00 00 00 00 00 00 00 00 00 00 00 ................
00407410 00 00 00 00 00 00 00 00 00 00 00 00 00 00 00 00 ................
00407420 00 00 00 00 00 00 00 00 00 00 00 00 00 00 00 00 ................
00407430 00 00 00 00 00 00 00 00 00 00 00 00 00 00 00 00 ................
00407440 00 00 00 00 00 00 00 00 00 00 00 00 00 00 00 00 ................
00407450 00 00 00 00 00 00 00 00 00 00 00 00 00 00 00 00 ................
00407460 00 00 00 00 00 00 00 00 00 00 00 00 00 00 00 00 ................
00407470 00 00 00 00 00 00 00 00 00 00 00 00 00 00 00 00 ................
00407480 00 00 00 00 00 00 00 00 00 00 00 00 00 00 00 00 ................
00407490 00 00 00 00 00 00 00 00 00 00 00 00 00 00 00 00 ................
004074A0 00 00 00 00 00 00 00 00 00 00 00 00 00 00 00 00 ................
004074B0 00 00 00 00 00 00 00 00 00 00 00 00 00 00 00 00 ................
004074C0 00 00 00 00 00 00 00 00 00 00 00 00 00 00 00 00 ................
004074D0 00 00 00 00 00 00 00 00 00 00 00 00 00 00 00 00 ................
004074E0 00 00 00 00 00 00 00 00 00 00 00 00 00 00 00 00 ................
004074F0 00 00 00 00 00 00 00 00 00 00 00 00 00 00 00 00 ................
00407500 00 00 00 00 00 00 00 00 00 00 00 00 00 00 00 00 ................
00407510 00 00 00 00 00 00 00 00 00 00 00 00 00 00 00 00 ................
00407520 00 00 00 00 00 00 00 00 00 00 00 00 00 00 00 00 ................
00407530 00 00 00 00 00 00 00 00 00 00 00 00 00 00 00 00 ................
00407540 00 00 00 00 00 00 00 00 00 00 00 00 00 00 00 00 ................
00407550 00 00 00 00 00 00 00 00 00 00 00 00 00 00 00 00 ................
00407560 00 00 00 00 00 00 00 00 00 00 00 00 00 00 00 00 ................
00407570 00 00 00 00 00 00 00 00 00 00 00 00 00 00 00 00 ................
00407580 00 00 00 00 00 00 00 00 00 00 00 00 00 00 00 00 ................
00407590 00 00 00 00 00 00 00 00 00 00 00 00 00 00 00 00 ................
004075A0 00 00 00 00 00 00 00 00 00 00 00 00 00 00 00 00 ................
004075B0 00 00 00 00 00 00 00 00 00 00 00 00 00 00 00 00 ................
004075C0 00 00 00 00 00 00 00 00 00 00 00 00 00 00 00 00 ................
004075D0 00 00 00 00 00 00 00 00 00 00 00 00 00 00 00 00 ................
004075E0 00 00 00 00 00 00 00 00 00 00 00 00 00 00 00 00 ................
004075F0 00 00 00 00 00 00 00 00 00 00 00 00 00 00 00 00 ................
00407600 00 00 00 00 00 00 00 00 00 00 00 00 00 00 00 00 ................
00407610 00 00 00 00 00 00 00 00 00 00 00 00 00 00 00 00 ................
00407620 00 00 00 00 00 00 00 00 00 00 00 00 00 00 00 00 ................
00407630 00 00 00 00 00 00 00 00 00 00 00 00 00 00 00 00 ................
00407640 00 00 00 00 00 00 00 00 00 00 00 00 00 00 00 00 ................
00407650 00 00 00 00 00 00 00 00 00 00 00 00 00 00 00 00 ................
00407660 00 00 00 00 00 00 00 00 00 00 00 00 00 00 00 00 ................
00407670 00 00 00 00 00 00 00 00 00 00 00 00 00 00 00 00 ................
00407680 00 00 00 00 00 00 00 00 00 00 00 00 00 00 00 00 ................
00407690 00 00 00 00 00 00 00 00 00 00 00 00 00 00 00 00 ................
004076A0 00 00 00 00 00 00 00 00 00 00 00 00 00 00 00 00 ................
004076B0 00 00 00 00 00 00 00 00 00 00 00 00 00 00 00 00 ................
004076C0 00 00 00 00 00 00 00 00 00 00 00 00 00 00 00 00 ................
004076D0 00 00 00 00 00 00 00 00 00 00 00 00 00 00 00 00 ................
004076E0 00 00 00 00 00 00 00 00 00 00 00 00 00 00 00 00 ................
004076F0 00 00 00 00 00 00 00 00 00 00 00 00 00 00 00 00 ................
00407700 00 00 00 00 00 00 00 00 00 00 00 00 00 00 00 00 ................
00407710 00 00 00 00 00 00 00 00 00 00 00 00 00 00 00 00 ................
00407720 00 00 00 00 00 00 00 00 00 00 00 00 00 00 00 00 ................
00407730 00 00 00 00 00 00 00 00 00 00 00 00 00 00 00 00 ................
00407740 00 00 00 00 00 00 00 00 00 00 00 00 00 00 00 00 ................
00407750 00 00 00 00 00 00 00 00 00 00 00 00 00 00 00 00 ................
00407760 00 00 00 00 00 00 00 00 00 00 00 00 00 00 00 00 ................
00407770 00 00 00 00 00 00 00 00 00 00 00 00 00 00 00 00 ................
00407780 00 00 00 00 00 00 00 00 00 00 00 00 00 00 00 00 ................
00407790 00 00 00 00 00 00 00 00 00 00 00 00 00 00 00 00 ................
004077A0 00 00 00 00 00 00 00 00 00 00 00 00 00 00 00 00 ................
004077B0 00 00 00 00 00 00 00 00 00 00 00 00 00 00 00 00 ................
004077C0 00 00 00 00 00 00 00 00 00 00 00 00 00 00 00 00 ................
004077D0 00 00 00 00 00 00 00 00 00 00 00 00 00 00 00 00 ................
004077E0 00 00 00 00 00 00 00 00 00 00 00 00 00 00 00 00 ................
004077F0 00 00 00 00 00 00 00 00 00 00 00 00 00 00 00 00 ................
00407800 00 00 00 00 00 00 00 00 00 00 00 00 00 00 00 00 ................
00407810 00 00 00 00 00 00 00 00 00 00 00 00 00 00 00 00 ................
00407820 00 00 00 00 00 00 00 00 00 00 00 00 00 00 00 00 ................
00407830 00 00 00 00 00 00 00 00 00 00 00 00 00 00 00 00 ................
00407840 00 00 00 00 00 00 00 00 00 00 00 00 00 00 00 00 ................
00407850 00 00 00 00 00 00 00 00 00 00 00 00 00 00 00 00 ................
00407860 00 00 00 00 00 00 00 00 00 00 00 00 00 00 00 00 ................
00407870 00 00 00 00 00 00 00 00 00 00 00 00 00 00 00 00 ................
00407880 00 00 00 00 00 00 00 00 00 00 00 00 00 00 00 00 ................
00407890 00 00 00 00 00 00 00 00 00 00 00 00 00 00 00 00 ................
004078A0 00 00 00 00 00 00 00 00 00 00 00 00 00 00 00 00 ................
004078B0 00 00 00 00 00 00 00 00 00 00 00 00 00 00 00 00 ................
004078C0 00 00 00 00 00 00 00 00 00 00 00 00 00 00 00 00 ................
004078D0 00 00 00 00 00 00 00 00 00 00 00 00 00 00 00 00 ................
004078E0 00 00 00 00 00 00 00 00 00 00 00 00 00 00 00 00 ................
004078F0 00 00 00 00 00 00 00 00 00 00 00 00 00 00 00 00 ................
00407900 00 00 00 00 00 00 00 00 00 00 00 00 00 00 00 00 ................
00407910 00 00 00 00 00 00 00 00 00 00 00 00 00 00 00 00 ................
00407920 00 00 00 00 00 00 00 00 00 00 00 00 00 00 00 00 ................
00407930 00 00 00 00 00 00 00 00 00 00 00 00 00 00 00 00 ................
00407940 00 00 00 00 00 00 00 00 00 00 00 00 00 00 00 00 ................
00407950 00 00 00 00 00 00 00 00 00 00 00 00 00 00 00 00 ................
00407960 00 00 00 00 00 00 00 00 00 00 00 00 00 00 00 00 ................
00407970 00 00 00 00 00 00 00 00 00 00 00 00 00 00 00 00 ................
00407980 00 00 00 00 00 00 00 00 00 00 00 00 00 00 00 00 ................
00407990 00 00 00 00 00 00 00 00 00 00 00 00 00 00 00 00 ................
004079A0 00 00 00 00 00 00 00 00 00 00 00 00 00 00 00 00 ................
004079B0 00 00 00 00 00 00 00 00 00 00 00 00 00 00 00 00 ................
004079C0 00 00 00 00 00 00 00 00 00 00 00 00 00 00 00 00 ................
004079D0 00 00 00 00 00 00 00 00 00 00 00 00 00 00 00 00 ................
004079E0 00 00 00 00 00 00 00 00 00 00 00 00 00 00 00 00 ................
004079F0 00 00 00 00 00 00 00 00 00 00 00 00 00 00 00 00 ................
00407A00 00 00 00 00 00 00 00 00 00 00 00 00 00 00 00 00 ................
00407A10 00 00 00 00 00 00 00 00 00 00 00 00 00 00 00 00 ................
00407A20 00 00 00 00 00 00 00 00 00 00 00 00 00 00 00 00 ................
00407A30 00 00 00 00 00 00 00 00 00 00 00 00 00 00 00 00 ................
00407A40 00 00 00 00 00 00 00 00 00 00 00 00 00 00 00 00 ................
00407A50 00 00 00 00 00 00 00 00 00 00 00 00 00 00 00 00 ................
00407A60 00 00 00 00 00 00 00 00 00 00 00 00 00 00 00 00 ................
00407A70 00 00 00 00 00 00 00 00 00 00 00 00 00 00 00 00 ................
00407A80 00 00 00 00 00 00 00 00 00 00 00 00 00 00 00 00 ................
00407A90 00 00 00 00 00 00 00 00 00 00 00 00 00 00 00 00 ................
00407AA0 00 00 00 00 00 00 00 00 00 00 00 00 00 00 00 00 ................
00407AB0 00 00 00 00 00 00 00 00 00 00 00 00 00 00 00 00 ................
00407AC0 00 00 00 00 00 00 00 00 00 00 00 00 00 00 00 00 ................
00407AD0 00 00 00 00 00 00 00 00 00 00 00 00 00 00 00 00 ................
00407AE0 00 00 00 00 00 00 00 00 00 00 00 00 00 00 00 00 ................
00407AF0 00 00 00 00 00 00 00 00 00 00 00 00 00 00 00 00 ................
00407B00 00 00 00 00 00 00 00 00 00 00 00 00 00 00 00 00 ................
00407B10 00 00 00 00 00 00 00 00 00 00 00 00 00 00 00 00 ................
00407B20 00 00 00 00 00 00 00 00 00 00 00 00 00 00 00 00 ................
00407B30 00 00 00 00 00 00 00 00 00 00 00 00 00 00 00 00 ................
00407B40 00 00 00 00 00 00 00 00 00 00 00 00 00 00 00 00 ................
00407B50 00 00 00 00 00 00 00 00 00 00 00 00 00 00 00 00 ................
00407B60 00 00 00 00 00 00 00 00 00 00 00 00 00 00 00 00 ................
00407B70 00 00 00 00 00 00 00 00 00 00 00 00 00 00 00 00 ................
00407B80 00 00 00 00 00 00 00 00 00 00 00 00 00 00 00 00 ................
00407B90 00 00 00 00 00 00 00 00 00 00 00 00 00 00 00 00 ................
00407BA0 00 00 00 00 00 00 00 00 00 00 00 00 00 00 00 00 ................
00407BB0 00 00 00 00 00 00 00 00 00 00 00 00 00 00 00 00 ................
00407BC0 00 00 00 00 00 00 00 00 00 00 00 00 00 00 00 00 ................
00407BD0 00 00 00 00 00 00 00 00 00 00 00 00 00 00 00 00 ................
00407BE0 00 00 00 00 00 00 00 00 00 00 00 00 00 00 00 00 ................
00407BF0 00 00 00 00 00 00 00 00 00 00 00 00 00 00 00 00 ................
00407C00 00 00 00 00 00 00 00 00 00 00 00 00 00 00 00 00 ................
00407C10 00 00 00 00 00 00 00 00 00 00 00 00 00 00 00 00 ................
00407C20 00 00 00 00 00 00 00 00 00 00 00 00 00 00 00 00 ................
00407C30 00 00 00 00 00 00 00 00 00 00 00 00 00 00 00 00 ................
00407C40 00 00 00 00 00 00 00 00 00 00 00 00 00 00 00 00 ................
00407C50 00 00 00 00 00 00 00 00 00 00 00 00 00 00 00 00 ................
00407C60 00 00 00 00 00 00 00 00 00 00 00 00 00 00 00 00 ................
00407C70 00 00 00 00 00 00 00 00 00 00 00 00 00 00 00 00 ................
00407C80 00 00 00 00 00 00 00 00 00 00 00 00 00 00 00 00 ................
00407C90 00 00 00 00 00 00 00 00 00 00 00 00 00 00 00 00 ................
00407CA0 00 00 00 00 00 00 00 00 00 00 00 00 00 00 00 00 ................
00407CB0 00 00 00 00 00 00 00 00 00 00 00 00 00 00 00 00 ................
00407CC0 00 00 00 00 00 00 00 00 00 00 00 00 00 00 00 00 ................
00407CD0 00 00 00 00 00 00 00 00 00 00 00 00 00 00 00 00 ................
00407CE0 00 00 00 00 00 00 00 00 00 00 00 00 00 00 00 00 ................
00407CF0 00 00 00 00 00 00 00 00 00 00 00 00 00 00 00 00 ................
00407D00 00 00 00 00 00 00 00 00 00 00 00 00 00 00 00 00 ................
00407D10 00 00 00 00 00 00 00 00 00 00 00 00 00 00 00 00 ................
00407D20 00 00 00 00 00 00 00 00 00 00 00 00 00 00 00 00 ................
00407D30 00 00 00 00 00 00 00 00 00 00 00 00 00 00 00 00 ................
00407D40 00 00 00 00 00 00 00 00 00 00 00 00 00 00 00 00 ................
00407D50 00 00 00 00 00 00 00 00 00 00 00 00 00 00 00 00 ................
00407D60 00 00 00 00 00 00 00 00 00 00 00 00 00 00 00 00 ................
00407D70 00 00 00 00 00 00 00 00 00 00 00 00 00 00 00 00 ................
00407D80 00 00 00 00 00 00 00 00 00 00 00 00 00 00 00 00 ................
00407D90 00 00 00 00 00 00 00 00 00 00 00 00 00 00 00 00 ................
00407DA0 00 00 00 00 00 00 00 00 00 00 00 00 00 00 00 00 ................
00407DB0 00 00 00 00 00 00 00 00 00 00 00 00 00 00 00 00 ................
00407DC0 00 00 00 00 00 00 00 00 00 00 00 00 00 00 00 00 ................
00407DD0 00 00 00 00 00 00 00 00 00 00 00 00 00 00 00 00 ................
00407DE0 00 00 00 00 00 00 00 00 00 00 00 00 00 00 00 00 ................
00407DF0 00 00 00 00 00 00 00 00 00 00 00 00 00 00 00 00 ................
00407E00 00 00 00 00 00 00 00 00 00 00 00 00 00 00 00 00 ................
00407E10 00 00 00 00 00 00 00 00 00 00 00 00 00 00 00 00 ................
00407E20 00 00 00 00 00 00 00 00 00 00 00 00 00 00 00 00 ................
00407E30 00 00 00 00 00 00 00 00 00 00 00 00 00 00 00 00 ................
00407E40 00 00 00 00 00 00 00 00 00 00 00 00 00 00 00 00 ................
00407E50 00 00 00 00 00 00 00 00 00 00 00 00 00 00 00 00 ................
00407E60 00 00 00 00 00 00 00 00 00 00 00 00 00 00 00 00 ................
00407E70 00 00 00 00 00 00 00 00 00 00 00 00 00 00 00 00 ................
00407E80 00 00 00 00 00 00 00 00 00 00 00 00 00 00 00 00 ................
00407E90 00 00 00 00 00 00 00 00 00 00 00 00 00 00 00 00 ................
00407EA0 00 00 00 00 00 00 00 00 00 00 00 00 00 00 00 00 ................
00407EB0 00 00 00 00 00 00 00 00 00 00 00 00 00 00 00 00 ................
00407EC0 00 00 00 00 00 00 00 00 00 00 00 00 00 00 00 00 ................
00407ED0 00 00 00 00 00 00 00 00 00 00 00 00 00 00 00 00 ................
00407EE0 00 00 00 00 00 00 00 00 00 00 00 00 00 00 00 00 ................
00407EF0 00 00 00 00 00 00 00 00 00 00 00 00 00 00 00 00 ................
00407F00 00 00 00 00 00 00 00 00 00 00 00 00 00 00 00 00 ................
00407F10 00 00 00 00 00 00 00 00 00 00 00 00 00 00 00 00 ................
00407F20 00 00 00 00 00 00 00 00 00 00 00 00 00 00 00 00 ................
00407F30 00 00 00 00 00 00 00 00 00 00 00 00 00 00 00 00 ................
00407F40 00 00 00 00 00 00 00 00 00 00 00 00 00 00 00 00 ................
00407F50 00 00 00 00 00 00 00 00 00 00 00 00 00 00 00 00 ................
00407F60 00 00 00 00 00 00 00 00 00 00 00 00 00 00 00 00 ................
00407F70 00 00 00 00 00 00 00 00 00 00 00 00 00 00 00 00 ................
00407F80 00 00 00 00 00 00 00 00 00 00 00 00 00 00 00 00 ................
00407F90 00 00 00 00 00 00 00 00 00 00 00 00 00 00 00 00 ................
00407FA0 00 00 00 00 00 00 00 00 00 00 00 00 00 00 00 00 ................
00407FB0 00 00 00 00 00 00 00 00 00 00 00 00 00 00 00 00 ................
00407FC0 00 00 00 00 00 00 00 00 00 00 00 00 00 00 00 00 ................
00407FD0 00 00 00 00 00 00 00 00 00 00 00 00 00 00 00 00 ................
00407FE0 00 00 00 00 00 00 00 00 00 00 00 00 00 00 00 00 ................
00407FF0 00 00 00 00 00 00 00 00 00 00 00 00 00 00 00 00 ................
00408000 00 00 00 00 00 00 00 00 00 00 00 00 00 00 00 00 ................
00408010 00 00 00 00 00 00 00 00 00 00 00 00 00 00 00 00 ................
00408020 00 00 00 00 00 00 00 00 00 00 00 00 00 00 00 00 ................
00408030 00 00 00 00 00 00 00 00 00 00 00 00 00 00 00 00 ................
00408040 00 00 00 00 00 00 00 00 00 00 00 00 00 00 00 00 ................
00408050 00 00 00 00 00 00 00 00 00 00 00 00 00 00 00 00 ................
00408060 00 00 00 00 00 00 00 00 00 00 00 00 00 00 00 00 ................
00408070 00 00 00 00 00 00 00 00 00 00 00 00 00 00 00 00 ................
00408080 00 00 00 00 00 00 00 00 00 00 00 00 00 00 00 00 ................
00408090 00 00 00 00 00 00 00 00 00 00 00 00 00 00 00 00 ................
004080A0 00 00 00 00 00 00 00 00 00 00 00 00 00 00 00 00 ................
004080B0 00 00 00 00 00 00 00 00 00 00 00 00 00 00 00 00 ................
004080C0 00 00 00 00 00 00 00 00 00 00 00 00 00 00 00 00 ................
004080D0 00 00 00 00 00 00 00 00 00 00 00 00 00 00 00 00 ................
004080E0 00 00 00 00 00 00 00 00 00 00 00 00 00 00 00 00 ................
004080F0 00 00 00 00 00 00 00 00 00 00 00 00 00 00 00 00 ................
00408100 00 00 00 00 00 00 00 00 00 00 00 00 00 00 00 00 ................
00408110 00 00 00 00 00 00 00 00 00 00 00 00 00 00 00 00 ................
00408120 00 00 00 00 00 00 00 00 00 00 00 00 00 00 00 00 ................
00408130 00 00 00 00 00 00 00 00 00 00 00 00 00 00 00 00 ................
00408140 00 00 00 00 00 00 00 00 00 00 00 00 00 00 00 00 ................
00408150 00 00 00 00 00 00 00 00 00 00 00 00 00 00 00 00 ................
00408160 00 00 00 00 00 00 00 00 00 00 00 00 00 00 00 00 ................
00408170 00 00 00 00 00 00 00 00 00 00 00 00 00 00 00 00 ................
00408180 00 00 00 00 00 00 00 00 00 00 00 00 00 00 00 00 ................
00408190 00 00 00 00 00 00 00 00 00 00 00 00 00 00 00 00 ................
004081A0 00 00 00 00 00 00 00 00 00 00 00 00 00 00 00 00 ................
004081B0 00 00 00 00 00 00 00 00 00 00 00 00 00 00 00 00 ................
004081C0 00 00 00 00 00 00 00 00 00 00 00 00 00 00 00 00 ................
004081D0 00 00 00 00 00 00 00 00 00 00 00 00 00 00 00 00 ................
004081E0 00 00 00 00 00 00 00 00 00 00 00 00 00 00 00 00 ................
004081F0 00 00 00 00 00 00 00 00 00 00 00 00 00 00 00 00 ................
00408200 00 00 00 00 00 00 00 00 00 00 00 00 00 00 00 00 ................
00408210 00 00 00 00 00 00 00 00 00 00 00 00 00 00 00 00 ................
00408220 00 00 00 00 00 00 00 00 00 00 00 00 00 00 00 00 ................
00408230 00 00 00 00 00 00 00 00 00 00 00 00 00 00 00 00 ................
00408240 00 00 00 00 00 00 00 00 00 00 00 00 00 00 00 00 ................
00408250 00 00 00 00 00 00 00 00 00 00 00 00 00 00 00 00 ................
00408260 00 00 00 00 00 00 00 00 00 00 00 00 00 00 00 00 ................
00408270 00 00 00 00 00 00 00 00 00 00 00 00 00 00 00 00 ................
00408280 00 00 00 00 00 00 00 00 00 00 00 00 00 00 00 00 ................
00408290 00 00 00 00 00 00 00 00 00 00 00 00 00 00 00 00 ................
004082A0 00 00 00 00 00 00 00 00 00 00 00 00 00 00 00 00 ................
004082B0 00 00 00 00 00 00 00 00 00 00 00 00 00 00 00 00 ................
004082C0 00 00 00 00 00 00 00 00 00 00 00 00 00 00 00 00 ................
004082D0 00 00 00 00 00 00 00 00 00 00 00 00 00 00 00 00 ................
004082E0 00 00 00 00 00 00 00 00 00 00 00 00 00 00 00 00 ................
004082F0 00 00 00 00 00 00 00 00 00 00 00 00 00 00 00 00 ................
00408300 00 00 00 00 00 00 00 00 00 00 00 00 00 00 00 00 ................
00408310 00 00 00 00 00 00 00 00 00 00 00 00 00 00 00 00 ................
00408320 00 00 00 00 00 00 00 00 00 00 00 00 00 00 00 00 ................
00408330 00 00 00 00 00 00 00 00 00 00 00 00 00 00 00 00 ................
00408340 00 00 00 00 00 00 00 00 00 00 00 00 00 00 00 00 ................
00408350 00 00 00 00 00 00 00 00 00 00 00 00 00 00 00 00 ................
00408360 00 00 00 00 00 00 00 00 00 00 00 00 00 00 00 00 ................
00408370 00 00 00 00 00 00 00 00 00 00 00 00 00 00 00 00 ................
00408380 00 00 00 00 00 00 00 00 00 00 00 00 00 00 00 00 ................
00408390 00 00 00 00 00 00 00 00 00 00 00 00 00 00 00 00 ................
004083A0 00 00 00 00 00 00 00 00 00 00 00 00 00 00 00 00 ................
004083B0 00 00 00 00 00 00 00 00 00 00 00 00 00 00 00 00 ................
004083C0 00 00 00 00 00 00 00 00 00 00 00 00 00 00 00 00 ................
004083D0 00 00 00 00 00 00 00 00 00 00 00 00 00 00 00 00 ................
004083E0 00 00 00 00 00 00 00 00 00 00 00 00 00 00 00 00 ................
004083F0 00 00 00 00 00 00 00 00 00 00 00 00 00 00 00 00 ................
00408400 00 00 00 00 00 00 00 00 00 00 00 00 00 00 00 00 ................
00408410 00 00 00 00 00 00 00 00 00 00 00 00 00 00 00 00 ................
00408420 00 00 00 00 00 00 00 00 00 00 00 00 00 00 00 00 ................
00408430 00 00 00 00 00 00 00 00 00 00 00 00 00 00 00 00 ................
00408440 00 00 00 00 00 00 00 00 00 00 00 00 00 00 00 00 ................
00408450 00 00 00 00 00 00 00 00 00 00 00 00 00 00 00 00 ................
00408460 00 00 00 00 00 00 00 00 00 00 00 00 00 00 00 00 ................
00408470 00 00 00 00 00 00 00 00 00 00 00 00 00 00 00 00 ................
00408480 00 00 00 00 00 00 00 00 00 00 00 00 00 00 00 00 ................
00408490 00 00 00 00 00 00 00 00 00 00 00 00 00 00 00 00 ................
004084A0 00 00 00 00 00 00 00 00 00 00 00 00 00 00 00 00 ................
004084B0 00 00 00 00 00 00 00 00 00 00 00 00 00 00 00 00 ................
004084C0 00 00 00 00 00 00 00 00 00 00 00 00 00 00 00 00 ................
004084D0 00 00 00 00 00 00 00 00 00 00 00 00 00 00 00 00 ................
004084E0 00 00 00 00 00 00 00 00 00 00 00 00 00 00 00 00 ................
004084F0 00 00 00 00 00 00 00 00 00 00 00 00 00 00 00 00 ................
00408500 00 00 00 00 00 00 00 00 00 00 00 00 00 00 00 00 ................
00408510 00 00 00 00 00 00 00 00 00 00 00 00 00 00 00 00 ................
00408520 00 00 00 00 00 00 00 00 00 00 00 00 00 00 00 00 ................
00408530 00 00 00 00 00 00 00 00 00 00 00 00 00 00 00 00 ................
00408540 00 00 00 00 00 00 00 00 00 00 00 00 00 00 00 00 ................
00408550 00 00 00 00 00 00 00 00 00 00 00 00 00 00 00 00 ................
00408560 00 00 00 00 00 00 00 00 00 00 00 00 00 00 00 00 ................
00408570 00 00 00 00 00 00 00 00 00 00 00 00 00 00 00 00 ................
00408580 00 00 00 00 00 00 00 00 00 00 00 00 00 00 00 00 ................
00408590 00 00 00 00 00 00 00 00 00 00 00 00 00 00 00 00 ................
004085A0 00 00 00 00 00 00 00 00 00 00 00 00 00 00 00 00 ................
004085B0 00 00 00 00 00 00 00 00 00 00 00 00 00 00 00 00 ................
004085C0 00 00 00 00 00 00 00 00 00 00 00 00 00 00 00 00 ................
004085D0 00 00 00 00 00 00 00 00 00 00 00 00 00 00 00 00 ................
004085E0 00 00 00 00 00 00 00 00 00 00 00 00 00 00 00 00 ................
004085F0 00 00 00 00 00 00 00 00 00 00 00 00 00 00 00 00 ................
00408600 00 00 00 00 00 00 00 00 00 00 00 00 00 00 00 00 ................
00408610 00 00 00 00 00 00 00 00 00 00 00 00 00 00 00 00 ................
00408620 00 00 00 00 00 00 00 00 00 00 00 00 00 00 00 00 ................
00408630 00 00 00 00 00 00 00 00 00 00 00 00 00 00 00 00 ................
00408640 00 00 00 00 00 00 00 00 00 00 00 00 00 00 00 00 ................
00408650 00 00 00 00 00 00 00 00 00 00 00 00 00 00 00 00 ................
00408660 00 00 00 00 00 00 00 00 00 00 00 00 00 00 00 00 ................
00408670 00 00 00 00 00 00 00 00 00 00 00 00 00 00 00 00 ................
00408680 00 00 00 00 00 00 00 00 00 00 00 00 00 00 00 00 ................
00408690 00 00 00 00 00 00 00 00 00 00 00 00 00 00 00 00 ................
004086A0 00 00 00 00 00 00 00 00 00 00 00 00 00 00 00 00 ................
004086B0 00 00 00 00 00 00 00 00 00 00 00 00 00 00 00 00 ................
004086C0 00 00 00 00 00 00 00 00 00 00 00 00 00 00 00 00 ................
004086D0 00 00 00 00 00 00 00 00 00 00 00 00 00 00 00 00 ................
004086E0 00 00 00 00 00 00 00 00 00 00 00 00 00 00 00 00 ................
004086F0 00 00 00 00 00 00 00 00 00 00 00 00 00 00 00 00 ................
00408700 00 00 00 00 00 00 00 00 00 00 00 00 00 00 00 00 ................
00408710 00 00 00 00 00 00 00 00 00 00 00 00 00 00 00 00 ................
00408720 00 00 00 00 00 00 00 00 00 00 00 00 00 00 00 00 ................
00408730 00 00 00 00 00 00 00 00 00 00 00 00 00 00 00 00 ................
00408740 00 00 00 00 00 00 00 00 00 00 00 00 00 00 00 00 ................
00408750 00 00 00 00 00 00 00 00 00 00 00 00 00 00 00 00 ................
00408760 00 00 00 00 00 00 00 00 00 00 00 00 00 00 00 00 ................
00408770 00 00 00 00 00 00 00 00 00 00 00 00 00 00 00 00 ................
00408780 00 00 00 00 00 00 00 00 00 00 00 00 00 00 00 00 ................
00408790 00 00 00 00 00 00 00 00 00 00 00 00 00 00 00 00 ................
004087A0 00 00 00 00 00 00 00 00 00 00 00 00 00 00 00 00 ................
004087B0 00 00 00 00 00 00 00 00 00 00 00 00 00 00 00 00 ................
004087C0 00 00 00 00 00 00 00 00 00 00 00 00 00 00 00 00 ................
004087D0 00 00 00 00 00 00 00 00 00 00 00 00 00 00 00 00 ................
004087E0 00 00 00 00 00 00 00 00 00 00 00 00 00 00 00 00 ................
004087F0 00 00 00 00 00 00 00 00 00 00 00 00 00 00 00 00 ................
00408800 00 00 00 00 00 00 00 00 00 00 00 00 00 00 00 00 ................
00408810 00 00 00 00 00 00 00 00 00 00 00 00 00 00 00 00 ................
00408820 00 00 00 00 00 00 00 00 00 00 00 00 00 00 00 00 ................
00408830 00 00 00 00 00 00 00 00 00 00 00 00 00 00 00 00 ................
00408840 00 00 00 00 00 00 00 00 00 00 00 00 00 00 00 00 ................
00408850 00 00 00 00 00 00 00 00 00 00 00 00 00 00 00 00 ................
00408860 00 00 00 00 00 00 00 00 00 00 00 00 00 00 00 00 ................
00408870 00 00 00 00 00 00 00 00 00 00 00 00 00 00 00 00 ................
00408880 00 00 00 00 00 00 00 00 00 00 00 00 00 00 00 00 ................
00408890 00 00 00 00 00 00 00 00 00 00 00 00 00 00 00 00 ................
004088A0 00 00 00 00 00 00 00 00 00 00 00 00 00 00 00 00 ................
004088B0 00 00 00 00 00 00 00 00 00 00 00 00 00 00 00 00 ................
004088C0 00 00 00 00 00 00 00 00 00 00 00 00 00 00 00 00 ................
004088D0 00 00 00 00 00 00 00 00 00 00 00 00 00 00 00 00 ................
004088E0 00 00 00 00 00 00 00 00 00 00 00 00 00 00 00 00 ................
004088F0 00 00 00 00 00 00 00 00 00 00 00 00 00 00 00 00 ................
00408900 00 00 00 00 00 00 00 00 00 00 00 00 00 00 00 00 ................
00408910 00 00 00 00 00 00 00 00 00 00 00 00 00 00 00 00 ................
00408920 00 00 00 00 00 00 00 00 00 00 00 00 00 00 00 00 ................
00408930 00 00 00 00 00 00 00 00 00 00 00 00 00 00 00 00 ................
00408940 00 00 00 00 00 00 00 00 00 00 00 00 00 00 00 00 ................
00408950 00 00 00 00 00 00 00 00 00 00 00 00 00 00 00 00 ................
00408960 00 00 00 00 00 00 00 00 00 00 00 00 00 00 00 00 ................
00408970 00 00 00 00 00 00 00 00 00 00 00 00 00 00 00 00 ................
00408980 00 00 00 00 00 00 00 00 00 00 00 00 00 00 00 00 ................
00408990 00 00 00 00 00 00 00 00 00 00 00 00 00 00 00 00 ................
004089A0 00 00 00 00 00 00 00 00 00 00 00 00 00 00 00 00 ................
004089B0 00 00 00 00 00 00 00 00 00 00 00 00 00 00 00 00 ................
004089C0 00 00 00 00 00 00 00 00 00 00 00 00 00 00 00 00 ................
004089D0 00 00 00 00 00 00 00 00 00 00 00 00 00 00 00 00 ................
004089E0 00 00 00 00 00 00 00 00 00 00 00 00 00 00 00 00 ................
004089F0 00 00 00 00 00 00 00 00 00 00 00 00 00 00 00 00 ................
00408A00 00 00 00 00 00 00 00 00 00 00 00 00 00 00 00 00 ................
00408A10 00 00 00 00 00 00 00 00 00 00 00 00 00 00 00 00 ................
00408A20 00 00 00 00 00 00 00 00 00 00 00 00 00 00 00 00 ................
00408A30 00 00 00 00 00 00 00 00 00 00 00 00 00 00 00 00 ................
00408A40 00 00 00 00 00 00 00 00 00 00 00 00 00 00 00 00 ................
00408A50 00 00 00 00 00 00 00 00 00 00 00 00 00 00 00 00 ................
00408A60 00 00 00 00 00 00 00 00 00 00 00 00 00 00 00 00 ................
00408A70 00 00 00 00 00 00 00 00 00 00 00 00 00 00 00 00 ................
00408A80 00 00 00 00 00 00 00 00 00 00 00 00 00 00 00 00 ................
00408A90 00 00 00 00 00 00 00 00 00 00 00 00 00 00 00 00 ................
00408AA0 00 00 00 00 00 00 00 00 00 00 00 00 00 00 00 00 ................
00408AB0 00 00 00 00 00 00 00 00 00 00 00 00 00 00 00 00 ................
00408AC0 00 00 00 00 00 00 00 00 00 00 00 00 00 00 00 00 ................
00408AD0 00 00 00 00 00 00 00 00 00 00 00 00 00 00 00 00 ................
00408AE0 00 00 00 00 00 00 00 00 00 00 00 00 00 00 00 00 ................
00408AF0 00 00 00 00 00 00 00 00 00 00 00 00 00 00 00 00 ................
00408B00 00 00 00 00 00 00 00 00 00 00 00 00 00 00 00 00 ................
00408B10 00 00 00 00 00 00 00 00 00 00 00 00 00 00 00 00 ................
00408B20 00 00 00 00 00 00 00 00 00 00 00 00 00 00 00 00 ................
00408B30 00 00 00 00 00 00 00 00 00 00 00 00 00 00 00 00 ................
00408B40 00 00 00 00 00 00 00 00 00 00 00 00 00 00 00 00 ................
00408B50 00 00 00 00 00 00 00 00 00 00 00 00 00 00 00 00 ................
00408B60 00 00 00 00 00 00 00 00 00 00 00 00 00 00 00 00 ................
00408B70 00 00 00 00 00 00 00 00 00 00 00 00 00 00 00 00 ................
00408B80 00 00 00 00 00 00 00 00 00 00 00 00 00 00 00 00 ................
00408B90 00 00 00 00 00 00 00 00 00 00 00 00 00 00 00 00 ................
00408BA0 00 00 00 00 00 00 00 00 00 00 00 00 00 00 00 00 ................
00408BB0 00 00 00 00 00 00 00 00 00 00 00 00 00 00 00 00 ................
00408BC0 00 00 00 00 00 00 00 00 00 00 00 00 00 00 00 00 ................
00408BD0 00 00 00 00 00 00 00 00 00 00 00 00 00 00 00 00 ................
00408BE0 00 00 00 00 00 00 00 00 00 00 00 00 00 00 00 00 ................
00408BF0 00 00 00 00 00 00 00 00 00 00 00 00 00 00 00 00 ................
00408C00 00 00 00 00 00 00 00 00 00 00 00 00 00 00 00 00 ................
00408C10 00 00 00 00 00 00 00 00 00 00 00 00 00 00 00 00 ................
00408C20 00 00 00 00 00 00 00 00 00 00 00 00 00 00 00 00 ................
00408C30 00 00 00 00 00 00 00 00 00 00 00 00 00 00 00 00 ................
00408C40 00 00 00 00 00 00 00 00 00 00 00 00 00 00 00 00 ................
00408C50 00 00 00 00 00 00 00 00 00 00 00 00 00 00 00 00 ................
00408C60 00 00 00 00 00 00 00 00 00 00 00 00 00 00 00 00 ................
00408C70 00 00 00 00 00 00 00 00 00 00 00 00 00 00 00 00 ................
00408C80 00 00 00 00 00 00 00 00 00 00 00 00 00 00 00 00 ................
00408C90 00 00 00 00 00 00 00 00 00 00 00 00 00 00 00 00 ................
00408CA0 00 00 00 00 00 00 00 00 00 00 00 00 00 00 00 00 ................
00408CB0 00 00 00 00 00 00 00 00 00 00 00 00 00 00 00 00 ................
00408CC0 00 00 00 00 00 00 00 00 00 00 00 00 00 00 00 00 ................
00408CD0 00 00 00 00 00 00 00 00 00 00 00 00 00 00 00 00 ................
00408CE0 00 00 00 00 00 00 00 00 00 00 00 00 00 00 00 00 ................
00408CF0 00 00 00 00 00 00 00 00 00 00 00 00 00 00 00 00 ................
00408D00 00 00 00 00 00 00 00 00 00 00 00 00 00 00 00 00 ................
00408D10 00 00 00 00 00 00 00 00 00 00 00 00 00 00 00 00 ................
00408D20 00 00 00 00 00 00 00 00 00 00 00 00 00 00 00 00 ................
00408D30 00 00 00 00 00 00 00 00 00 00 00 00 00 00 00 00 ................
00408D40 00 00 00 00 00 00 00 00 00 00 00 00 00 00 00 00 ................
00408D50 00 00 00 00 00 00 00 00 00 00 00 00 00 00 00 00 ................
00408D60 00 00 00 00 00 00 00 00 00 00 00 00 00 00 00 00 ................
00408D70 00 00 00 00 00 00 00 00 00 00 00 00 00 00 00 00 ................
00408D80 00 00 00 00 00 00 00 00 00 00 00 00 00 00 00 00 ................
00408D90 00 00 00 00 00 00 00 00 00 00 00 00 00 00 00 00 ................
00408DA0 00 00 00 00 00 00 00 00 00 00 00 00 00 00 00 00 ................
00408DB0 00 00 00 00 00 00 00 00 00 00 00 00 00 00 00 00 ................
00408DC0 00 00 00 00 00 00 00 00 00 00 00 00 00 00 00 00 ................
00408DD0 00 00 00 00 00 00 00 00 00 00 00 00 00 00 00 00 ................
00408DE0 00 00 00 00 00 00 00 00 00 00 00 00 00 00 00 00 ................
00408DF0 00 00 00 00 00 00 00 00 00 00 00 00 00 00 00 00 ................
00408E00 00 00 00 00 00 00 00 00 00 00 00 00 00 00 00 00 ................
00408E10 00 00 00 00 00 00 00 00 00 00 00 00 00 00 00 00 ................
00408E20 00 00 00 00 00 00 00 00 00 00 00 00 00 00 00 00 ................
00408E30 00 00 00 00 00 00 00 00 00 00 00 00 00 00 00 00 ................
00408E40 00 00 00 00 00 00 00 00 00 00 00 00 00 00 00 00 ................
00408E50 00 00 00 00 00 00 00 00 00 00 00 00 00 00 00 00 ................
00408E60 00 00 00 00 00 00 00 00 00 00 00 00 00 00 00 00 ................
00408E70 00 00 00 00 00 00 00 00 00 00 00 00 00 00 00 00 ................
00408E80 00 00 00 00 00 00 00 00 00 00 00 00 00 00 00 00 ................
00408E90 00 00 00 00 00 00 00 00 00 00 00 00 00 00 00 00 ................
00408EA0 00 00 00 00 00 00 00 00 00 00 00 00 00 00 00 00 ................
00408EB0 00 00 00 00 00 00 00 00 00 00 00 00 00 00 00 00 ................
00408EC0 00 00 00 00 00 00 00 00 00 00 00 00 00 00 00 00 ................
00408ED0 00 00 00 00 00 00 00 00 00 00 00 00 00 00 00 00 ................
00408EE0 00 00 00 00 00 00 00 00 00 00 00 00 00 00 00 00 ................
00408EF0 00 00 00 00 00 00 00 00 00 00 00 00 00 00 00 00 ................
00408F00 00 00 00 00 00 00 00 00 00 00 00 00 00 00 00 00 ................
00408F10 00 00 00 00 00 00 00 00 00 00 00 00 00 00 00 00 ................
00408F20 00 00 00 00 00 00 00 00 00 00 00 00 00 00 00 00 ................
00408F30 00 00 00 00 00 00 00 00 00 00 00 00 00 00 00 00 ................
00408F40 00 00 00 00 00 00 00 00 00 00 00 00 00 00 00 00 ................
00408F50 00 00 00 00 00 00 00 00 00 00 00 00 00 00 00 00 ................
00408F60 00 00 00 00 00 00 00 00 00 00 00 00 00 00 00 00 ................
00408F70 00 00 00 00 00 00 00 00 00 00 00 00 00 00 00 00 ................
00408F80 00 00 00 00 00 00 00 00 00 00 00 00 00 00 00 00 ................
00408F90 00 00 00 00 00 00 00 00 00 00 00 00 00 00 00 00 ................
00408FA0 00 00 00 00 00 00 00 00 00 00 00 00 00 00 00 00 ................
00408FB0 00 00 00 00 00 00 00 00 00 00 00 00 00 00 00 00 ................
00408FC0 00 00 00 00 00 00 00 00 00 00 00 00 00 00 00 00 ................
00408FD0 00 00 00 00 00 00 00 00 00 00 00 00 00 00 00 00 ................
00408FE0 00 00 00 00 00 00 00 00 00 00 00 00 00 00 00 00 ................
00408FF0 00 00 00 00 00 00 00 00 00 00 00 00 00 00 00 00 ................
00409000 00 00 00 00 00 00 00 00 00 00 00 00 00 00 00 00 ................
00409010 00 00 00 00 00 00 00 00 00 00 00 00 00 00 00 00 ................
00409020 00 00 00 00 00 00 00 00 00 00 00 00 00 00 00 00 ................
00409030 00 00 00 00 00 00 00 00 00 00 00 00 00 00 00 00 ................
00409040 00 00 00 00 00 00 00 00 00 00 00 00 00 00 00 00 ................
00409050 00 00 00 00 00 00 00 00 00 00 00 00 00 00 00 00 ................
00409060 00 00 00 00 00 00 00 00 00 00 00 00 00 00 00 00 ................
00409070 00 00 00 00 00 00 00 00 00 00 00 00 00 00 00 00 ................
00409080 00 00 00 00 00 00 00 00 00 00 00 00 00 00 00 00 ................
00409090 00 00 00 00 00 00 00 00 00 00 00 00 00 00 00 00 ................
004090A0 00 00 00 00 00 00 00 00 00 00 00 00 00 00 00 00 ................
004090B0 00 00 00 00 00 00 00 00 00 00 00 00 00 00 00 00 ................
004090C0 00 00 00 00 00 00 00 00 00 00 00 00 00 00 00 00 ................
004090D0 00 00 00 00 00 00 00 00 00 00 00 00 00 00 00 00 ................
004090E0 00 00 00 00 00 00 00 00 00 00 00 00 00 00 00 00 ................
004090F0 00 00 00 00 00 00 00 00 00 00 00 00 00 00 00 00 ................
00409100 00 00 00 00 00 00 00 00 00 00 00 00 00 00 00 00 ................
00409110 00 00 00 00 00 00 00 00 00 00 00 00 00 00 00 00 ................
00409120 00 00 00 00 00 00 00 00 00 00 00 00 00 00 00 00 ................
00409130 00 00 00 00 00 00 00 00 00 00 00 00 00 00 00 00 ................
00409140 00 00 00 00 00 00 00 00 00 00 00 00 00 00 00 00 ................
00409150 00 00 00 00 00 00 00 00 00 00 00 00 00 00 00 00 ................
00409160 00 00 00 00 00 00 00 00 00 00 00 00 00 00 00 00 ................
00409170 00 00 00 00 00 00 00 00 00 00 00 00 00 00 00 00 ................
00409180 00 00 00 00 00 00 00 00 00 00 00 00 00 00 00 00 ................
00409190 00 00 00 00 00 00 00 00 00 00 00 00 00 00 00 00 ................
004091A0 00 00 00 00 00 00 00 00 00 00 00 00 00 00 00 00 ................
004091B0 00 00 00 00 00 00 00 00 00 00 00 00 00 00 00 00 ................
004091C0 00 00 00 00 00 00 00 00 00 00 00 00 00 00 00 00 ................
004091D0 00 00 00 00 00 00 00 00 00 00 00 00 00 00 00 00 ................
004091E0 00 00 00 00 00 00 00 00 00 00 00 00 00 00 00 00 ................
004091F0 00 00 00 00 00 00 00 00 00 00 00 00 00 00 00 00 ................
00409200 00 00 00 00 00 00 00 00 00 00 00 00 00 00 00 00 ................
00409210 00 00 00 00 00 00 00 00 00 00 00 00 00 00 00 00 ................
00409220 00 00 00 00 00 00 00 00 00 00 00 00 00 00 00 00 ................
00409230 00 00 00 00 00 00 00 00 00 00 00 00 00 00 00 00 ................
00409240 00 00 00 00 00 00 00 00 00 00 00 00 00 00 00 00 ................
00409250 00 00 00 00 00 00 00 00 00 00 00 00 00 00 00 00 ................
00409260 00 00 00 00 00 00 00 00 00 00 00 00 00 00 00 00 ................
00409270 00 00 00 00 00 00 00 00 00 00 00 00 00 00 00 00 ................
00409280 00 00 00 00 00 00 00 00 00 00 00 00 00 00 00 00 ................
00409290 00 00 00 00 00 00 00 00 00 00 00 00 00 00 00 00 ................
004092A0 00 00 00 00 00 00 00 00 00 00 00 00 00 00 00 00 ................
004092B0 00 00 00 00 00 00 00 00 00 00 00 00 00 00 00 00 ................
004092C0 00 00 00 00 00 00 00 00 00 00 00 00 00 00 00 00 ................
004092D0 00 00 00 00 00 00 00 00 00 00 00 00 00 00 00 00 ................
004092E0 00 00 00 00 00 00 00 00 00 00 00 00 00 00 00 00 ................
004092F0 00 00 00 00 00 00 00 00 00 00 00 00 00 00 00 00 ................
00409300 00 00 00 00 00 00 00 00 00 00 00 00 00 00 00 00 ................
00409310 00 00 00 00 00 00 00 00 00 00 00 00 00 00 00 00 ................
00409320 00 00 00 00 00 00 00 00 00 00 00 00 00 00 00 00 ................
00409330 00 00 00 00 00 00 00 00 00 00 00 00 00 00 00 00 ................
00409340 00 00 00 00 00 00 00 00 00 00 00 00 00 00 00 00 ................
00409350 00 00 00 00 00 00 00 00 00 00 00 00 00 00 00 00 ................
00409360 00 00 00 00 00 00 00 00 00 00 00 00 00 00 00 00 ................
00409370 00 00 00 00 00 00 00 00 00 00 00 00 00 00 00 00 ................
00409380 00 00 00 00 00 00 00 00 00 00 00 00 00 00 00 00 ................
00409390 00 00 00 00 00 00 00 00 00 00 00 00 00 00 00 00 ................
004093A0 00 00 00 00 00 00 00 00 00 00 00 00 00 00 00 00 ................
004093B0 00 00 00 00 00 00 00 00 00 00 00 00 00 00 00 00 ................
004093C0 00 00 00 00 00 00 00 00 00 00 00 00 00 00 00 00 ................
004093D0 00 00 00 00 00 00 00 00 00 00 00 00 00 00 00 00 ................
004093E0 00 00 00 00 00 00 00 00 00 00 00 00 00 00 00 00 ................
004093F0 00 00 00 00 00 00 00 00 00 00 00 00 00 00 00 00 ................
00409400 00 00 00 00 00 00 00 00 00 00 00 00 00 00 00 00 ................
00409410 00 00 00 00 00 00 00 00 00 00 00 00 00 00 00 00 ................
00409420 00 00 00 00 00 00 00 00 00 00 00 00 00 00 00 00 ................
00409430 00 00 00 00 00 00 00 00 00 00 00 00 00 00 00 00 ................
00409440 00 00 00 00 00 00 00 00 00 00 00 00 00 00 00 00 ................
00409450 00 00 00 00 00 00 00 00 00 00 00 00 00 00 00 00 ................
00409460 00 00 00 00 00 00 00 00 00 00 00 00 00 00 00 00 ................
00409470 00 00 00 00 00 00 00 00 00 00 00 00 00 00 00 00 ................
00409480 00 00 00 00 00 00 00 00 00 00 00 00 00 00 00 00 ................
00409490 00 00 00 00 00 00 00 00 00 00 00 00 00 00 00 00 ................
004094A0 00 00 00 00 00 00 00 00 00 00 00 00 00 00 00 00 ................
004094B0 00 00 00 00 00 00 00 00 00 00 00 00 00 00 00 00 ................
004094C0 00 00 00 00 00 00 00 00 00 00 00 00 00 00 00 00 ................
004094D0 00 00 00 00 00 00 00 00 00 00 00 00 00 00 00 00 ................
004094E0 00 00 00 00 00 00 00 00 00 00 00 00 00 00 00 00 ................
004094F0 00 00 00 00 00 00 00 00 00 00 00 00 00 00 00 00 ................
00409500 00 00 00 00 00 00 00 00 00 00 00 00 00 00 00 00 ................
00409510 00 00 00 00 00 00 00 00 00 00 00 00 00 00 00 00 ................
00409520 00 00 00 00 00 00 00 00 00 00 00 00 00 00 00 00 ................
00409530 00 00 00 00 00 00 00 00 00 00 00 00 00 00 00 00 ................
00409540 00 00 00 00 00 00 00 00 00 00 00 00 00 00 00 00 ................
00409550 00 00 00 00 00 00 00 00 00 00 00 00 00 00 00 00 ................
00409560 00 00 00 00 00 00 00 00 00 00 00 00 00 00 00 00 ................
00409570 00 00 00 00 00 00 00 00 00 00 00 00 00 00 00 00 ................
00409580 00 00 00 00 00 00 00 00 00 00 00 00 00 00 00 00 ................
00409590 00 00 00 00 00 00 00 00 00 00 00 00 00 00 00 00 ................
004095A0 00 00 00 00 00 00 00 00 00 00 00 00 00 00 00 00 ................
004095B0 00 00 00 00 00 00 00 00 00 00 00 00 00 00 00 00 ................
004095C0 00 00 00 00 00 00 00 00 00 00 00 00 00 00 00 00 ................
004095D0 00 00 00 00 00 00 00 00 00 00 00 00 00 00 00 00 ................
004095E0 00 00 00 00 00 00 00 00 00 00 00 00 00 00 00 00 ................
004095F0 00 00 00 00 00 00 00 00 00 00 00 00 00 00 00 00 ................
00409600 00 00 00 00 00 00 00 00 00 00 00 00 00 00 00 00 ................
00409610 00 00 00 00 00 00 00 00 00 00 00 00 00 00 00 00 ................
00409620 00 00 00 00 00 00 00 00 00 00 00 00 00 00 00 00 ................
00409630 00 00 00 00 00 00 00 00 00 00 00 00 00 00 00 00 ................
00409640 00 00 00 00 00 00 00 00 00 00 00 00 00 00 00 00 ................
00409650 00 00 00 00 00 00 00 00 00 00 00 00 00 00 00 00 ................
00409660 00 00 00 00 00 00 00 00 00 00 00 00 00 00 00 00 ................
00409670 00 00 00 00 00 00 00 00 00 00 00 00 00 00 00 00 ................
00409680 00 00 00 00 00 00 00 00 00 00 00 00 00 00 00 00 ................
00409690 00 00 00 00 00 00 00 00 00 00 00 00 00 00 00 00 ................
004096A0 00 00 00 00 00 00 00 00 00 00 00 00 00 00 00 00 ................
004096B0 00 00 00 00 00 00 00 00 00 00 00 00 00 00 00 00 ................
004096C0 00 00 00 00 00 00 00 00 00 00 00 00 00 00 00 00 ................
004096D0 00 00 00 00 00 00 00 00 00 00 00 00 00 00 00 00 ................
004096E0 00 00 00 00 00 00 00 00 00 00 00 00 00 00 00 00 ................
004096F0 00 00 00 00 00 00 00 00 00 00 00 00 00 00 00 00 ................
00409700 00 00 00 00 00 00 00 00 00 00 00 00 00 00 00 00 ................
00409710 00 00 00 00 00 00 00 00 00 00 00 00 00 00 00 00 ................
00409720 00 00 00 00 00 00 00 00 00 00 00 00 00 00 00 00 ................
00409730 00 00 00 00 00 00 00 00 00 00 00 00 00 00 00 00 ................
00409740 00 00 00 00 00 00 00 00 00 00 00 00 00 00 00 00 ................
00409750 00 00 00 00 00 00 00 00 00 00 00 00 00 00 00 00 ................
00409760 00 00 00 00 00 00 00 00 00 00 00 00 00 00 00 00 ................
00409770 00 00 00 00 00 00 00 00 00 00 00 00 00 00 00 00 ................
00409780 00 00 00 00 00 00 00 00 00 00 00 00 00 00 00 00 ................
00409790 00 00 00 00 00 00 00 00 00 00 00 00 00 00 00 00 ................
004097A0 00 00 00 00 00 00 00 00 00 00 00 00 00 00 00 00 ................
004097B0 00 00 00 00 00 00 00 00 00 00 00 00 00 00 00 00 ................
004097C0 00 00 00 00 00 00 00 00 00 00 00 00 00 00 00 00 ................
004097D0 00 00 00 00 00 00 00 00 00 00 00 00 00 00 00 00 ................
004097E0 00 00 00 00 00 00 00 00 00 00 00 00 00 00 00 00 ................
004097F0 00 00 00 00 00 00 00 00 00 00 00 00 00 00 00 00 ................
00409800 00 00 00 00 00 00 00 00 00 00 00 00 00 00 00 00 ................
00409810 00 00 00 00 00 00 00 00 00 00 00 00 00 00 00 00 ................
00409820 00 00 00 00 00 00 00 00 00 00 00 00 00 00 00 00 ................
00409830 00 00 00 00 00 00 00 00 00 00 00 00 00 00 00 00 ................
00409840 00 00 00 00 00 00 00 00 00 00 00 00 00 00 00 00 ................
00409850 00 00 00 00 00 00 00 00 00 00 00 00 00 00 00 00 ................
00409860 00 00 00 00 00 00 00 00 00 00 00 00 00 00 00 00 ................
00409870 00 00 00 00 00 00 00 00 00 00 00 00 00 00 00 00 ................
00409880 00 00 00 00 00 00 00 00 00 00 00 00 00 00 00 00 ................
00409890 00 00 00 00 00 00 00 00 00 00 00 00 00 00 00 00 ................
004098A0 00 00 00 00 00 00 00 00 00 00 00 00 00 00 00 00 ................
004098B0 00 00 00 00 00 00 00 00 00 00 00 00 00 00 00 00 ................
004098C0 00 00 00 00 00 00 00 00 00 00 00 00 00 00 00 00 ................
004098D0 00 00 00 00 00 00 00 00 00 00 00 00 00 00 00 00 ................
004098E0 00 00 00 00 00 00 00 00 00 00 00 00 00 00 00 00 ................
004098F0 00 00 00 00 00 00 00 00 00 00 00 00 00 00 00 00 ................
00409900 00 00 00 00 00 00 00 00 00 00 00 00 00 00 00 00 ................
00409910 00 00 00 00 00 00 00 00 00 00 00 00 00 00 00 00 ................
00409920 00 00 00 00 00 00 00 00 00 00 00 00 00 00 00 00 ................
00409930 00 00 00 00 00 00 00 00 00 00 00 00 00 00 00 00 ................
00409940 00 00 00 00 00 00 00 00 00 00 00 00 00 00 00 00 ................
00409950 00 00 00 00 00 00 00 00 00 00 00 00 00 00 00 00 ................
00409960 00 00 00 00 00 00 00 00 00 00 00 00 00 00 00 00 ................
00409970 00 00 00 00 00 00 00 00 00 00 00 00 00 00 00 00 ................
00409980 00 00 00 00 00 00 00 00 00 00 00 00 00 00 00 00 ................
00409990 00 00 00 00 00 00 00 00 00 00 00 00 00 00 00 00 ................
004099A0 00 00 00 00 00 00 00 00 00 00 00 00 00 00 00 00 ................
004099B0 00 00 00 00 00 00 00 00 00 00 00 00 00 00 00 00 ................
004099C0 00 00 00 00 00 00 00 00 00 00 00 00 00 00 00 00 ................
004099D0 00 00 00 00 00 00 00 00 00 00 00 00 00 00 00 00 ................
004099E0 00 00 00 00 00 00 00 00 00 00 00 00 00 00 00 00 ................
004099F0 00 00 00 00 00 00 00 00 00 00 00 00 00 00 00 00 ................
00409A00 00 00 00 00 00 00 00 00 00 00 00 00 00 00 00 00 ................
00409A10 00 00 00 00 00 00 00 00 00 00 00 00 00 00 00 00 ................
00409A20 00 00 00 00 00 00 00 00 00 00 00 00 00 00 00 00 ................
00409A30 00 00 00 00 00 00 00 00 00 00 00 00 00 00 00 00 ................
00409A40 00 00 00 00 00 00 00 00 00 00 00 00 00 00 00 00 ................
00409A50 00 00 00 00 00 00 00 00 00 00 00 00 00 00 00 00 ................
00409A60 00 00 00 00 00 00 00 00 00 00 00 00 00 00 00 00 ................
00409A70 00 00 00 00 00 00 00 00 00 00 00 00 00 00 00 00 ................
00409A80 00 00 00 00 00 00 00 00 00 00 00 00 00 00 00 00 ................
00409A90 00 00 00 00 00 00 00 00 00 00 00 00 00 00 00 00 ................
00409AA0 00 00 00 00 00 00 00 00 00 00 00 00 00 00 00 00 ................
00409AB0 00 00 00 00 00 00 00 00 00 00 00 00 00 00 00 00 ................
00409AC0 00 00 00 00 00 00 00 00 00 00 00 00 00 00 00 00 ................
00409AD0 00 00 00 00 00 00 00 00 00 00 00 00 00 00 00 00 ................
00409AE0 00 00 00 00 00 00 00 00 00 00 00 00 00 00 00 00 ................
00409AF0 00 00 00 00 00 00 00 00 00 00 00 00 00 00 00 00 ................
00409B00 00 00 00 00 00 00 00 00 00 00 00 00 00 00 00 00 ................
00409B10 00 00 00 00 00 00 00 00 00 00 00 00 00 00 00 00 ................
00409B20 00 00 00 00 00 00 00 00 00 00 00 00 00 00 00 00 ................
00409B30 00 00 00 00 00 00 00 00 00 00 00 00 00 00 00 00 ................
00409B40 00 00 00 00 00 00 00 00 00 00 00 00 00 00 00 00 ................
00409B50 00 00 00 00 00 00 00 00 00 00 00 00 00 00 00 00 ................
00409B60 00 00 00 00 00 00 00 00 00 00 00 00 00 00 00 00 ................
00409B70 00 00 00 00 00 00 00 00 00 00 00 00 00 00 00 00 ................
00409B80 00 00 00 00 00 00 00 00 00 00 00 00 00 00 00 00 ................
00409B90 00 00 00 00 00 00 00 00 00 00 00 00 00 00 00 00 ................
00409BA0 00 00 00 00 00 00 00 00 00 00 00 00 00 00 00 00 ................
00409BB0 00 00 00 00 00 00 00 00 00 00 00 00 00 00 00 00 ................
00409BC0 00 00 00 00 00 00 00 00 00 00 00 00 00 00 00 00 ................
00409BD0 00 00 00 00 00 00 00 00 00 00 00 00 00 00 00 00 ................
00409BE0 00 00 00 00 00 00 00 00 00 00 00 00 00 00 00 00 ................
00409BF0 00 00 00 00 00 00 00 00 00 00 00 00 00 00 00 00 ................
00409C00 00 00 00 00 00 00 00 00 00 00 00 00 00 00 00 00 ................
00409C10 00 00 00 00 00 00 00 00 00 00 00 00 00 00 00 00 ................
00409C20 00 00 00 00 00 00 00 00 00 00 00 00 00 00 00 00 ................
00409C30 00 00 00 00 00 00 00 00 00 00 00 00 00 00 00 00 ................
00409C40 00 00 00 00 00 00 00 00 00 00 00 00 00 00 00 00 ................
00409C50 00 00 00 00 00 00 00 00 00 00 00 00 00 00 00 00 ................
00409C60 00 00 00 00 00 00 00 00 00 00 00 00 00 00 00 00 ................
00409C70 00 00 00 00 00 00 00 00 00 00 00 00 00 00 00 00 ................
00409C80 00 00 00 00 00 00 00 00 00 00 00 00 00 00 00 00 ................
00409C90 00 00 00 00 00 00 00 00 00 00 00 00 00 00 00 00 ................
00409CA0 00 00 00 00 00 00 00 00 00 00 00 00 00 00 00 00 ................
00409CB0 00 00 00 00 00 00 00 00 00 00 00 00 00 00 00 00 ................
00409CC0 00 00 00 00 00 00 00 00 00 00 00 00 00 00 00 00 ................
00409CD0 00 00 00 00 00 00 00 00 00 00 00 00 00 00 00 00 ................
00409CE0 00 00 00 00 00 00 00 00 00 00 00 00 00 00 00 00 ................
00409CF0 00 00 00 00 00 00 00 00 00 00 00 00 00 00 00 00 ................
00409D00 00 00 00 00 00 00 00 00 00 00 00 00 00 00 00 00 ................
00409D10 00 00 00 00 00 00 00 00 00 00 00 00 00 00 00 00 ................
00409D20 00 00 00 00 00 00 00 00 00 00 00 00 00 00 00 00 ................
00409D30 00 00 00 00 00 00 00 00 00 00 00 00 00 00 00 00 ................
00409D40 00 00 00 00 00 00 00 00 00 00 00 00 00 00 00 00 ................
00409D50 00 00 00 00 00 00 00 00 00 00 00 00 00 00 00 00 ................
00409D60 00 00 00 00 00 00 00 00 00 00 00 00 00 00 00 00 ................
00409D70 00 00 00 00 00 00 00 00 00 00 00 00 00 00 00 00 ................
00409D80 00 00 00 00 00 00 00 00 00 00 00 00 00 00 00 00 ................
00409D90 00 00 00 00 00 00 00 00 00 00 00 00 00 00 00 00 ................
00409DA0 00 00 00 00 00 00 00 00 00 00 00 00 00 00 00 00 ................
00409DB0 00 00 00 00 00 00 00 00 00 00 00 00 00 00 00 00 ................
00409DC0 00 00 00 00 00 00 00 00 00 00 00 00 00 00 00 00 ................
00409DD0 00 00 00 00 00 00 00 00 00 00 00 00 00 00 00 00 ................
00409DE0 00 00 00 00 00 00 00 00 00 00 00 00 00 00 00 00 ................
00409DF0 00 00 00 00 00 00 00 00 00 00 00 00 00 00 00 00 ................
00409E00 00 00 00 00 00 00 00 00 00 00 00 00 00 00 00 00 ................
00409E10 00 00 00 00 00 00 00 00 00 00 00 00 00 00 00 00 ................
00409E20 00 00 00 00 00 00 00 00 00 00 00 00 00 00 00 00 ................
00409E30 00 00 00 00 00 00 00 00 00 00 00 00 00 00 00 00 ................
00409E40 00 00 00 00 00 00 00 00 00 00 00 00 00 00 00 00 ................
00409E50 00 00 00 00 00 00 00 00 00 00 00 00 00 00 00 00 ................
00409E60 00 00 00 00 00 00 00 00 00 00 00 00 00 00 00 00 ................
00409E70 00 00 00 00 00 00 00 00 00 00 00 00 00 00 00 00 ................
00409E80 00 00 00 00 00 00 00 00 00 00 00 00 00 00 00 00 ................
00409E90 00 00 00 00 00 00 00 00 00 00 00 00 00 00 00 00 ................
00409EA0 00 00 00 00 00 00 00 00 00 00 00 00 00 00 00 00 ................
00409EB0 00 00 00 00 00 00 00 00 00 00 00 00 00 00 00 00 ................
00409EC0 00 00 00 00 00 00 00 00 00 00 00 00 00 00 00 00 ................
00409ED0 00 00 00 00 00 00 00 00 00 00 00 00 00 00 00 00 ................
00409EE0 00 00 00 00 00 00 00 00 00 00 00 00 00 00 00 00 ................
00409EF0 00 00 00 00 00 00 00 00 00 00 00 00 00 00 00 00 ................
00409F00 00 00 00 00 00 00 00 00 00 00 00 00 00 00 00 00 ................
00409F10 00 00 00 00 00 00 00 00 00 00 00 00 00 00 00 00 ................
00409F20 00 00 00 00 00 00 00 00 00 00 00 00 00 00 00 00 ................
00409F30 00 00 00 00 00 00 00 00 00 00 00 00 00 00 00 00 ................
00409F40 00 00 00 00 00 00 00 00 00 00 00 00 00 00 00 00 ................
00409F50 00 00 00 00 00 00 00 00 00 00 00 00 00 00 00 00 ................
00409F60 00 00 00 00 00 00 00 00 00 00 00 00 00 00 00 00 ................
00409F70 00 00 00 00 00 00 00 00 00 00 00 00 00 00 00 00 ................
00409F80 00 00 00 00 00 00 00 00 00 00 00 00 00 00 00 00 ................
00409F90 00 00 00 00 00 00 00 00 00 00 00 00 00 00 00 00 ................
00409FA0 00 00 00 00 00 00 00 00 00 00 00 00 00 00 00 00 ................
00409FB0 00 00 00 00 00 00 00 00 00 00 00 00 00 00 00 00 ................
00409FC0 00 00 00 00 00 00 00 00 00 00 00 00 00 00 00 00 ................
00409FD0 00 00 00 00 00 00 00 00 00 00 00 00 00 00 00 00 ................
00409FE0 00 00 00 00 00 00 00 00 00 00 00 00 00 00 00 00 ................
00409FF0 00 00 00 00 00 00 00 00 00 00 00 00 00 00 00 00 ................
0040A000 00 00 00 00 00 00 00 00 00 00 00 00 00 00 00 00 ................
0040A010 00 00 00 00 00 00 00 00 00 00 00 00 00 00 00 00 ................
0040A020 00 00 00 00 00 00 00 00 00 00 00 00 00 00 00 00 ................
0040A030 00 00 00 00 00 00 00 00 00 00 00 00 00 00 00 00 ................
0040A040 00 00 00 00 00 00 00 00 00 00 00 00 00 00 00 00 ................
0040A050 00 00 00 00 00 00 00 00 00 00 00 00 00 00 00 00 ................
0040A060 00 00 00 00 00 00 00 00 00 00 00 00 00 00 00 00 ................
0040A070 00 00 00 00 00 00 00 00 00 00 00 00 00 00 00 00 ................
0040A080 00 00 00 00 00 00 00 00 00 00 00 00 00 00 00 00 ................
0040A090 00 00 00 00 00 00 00 00 00 00 00 00 00 00 00 00 ................
0040A0A0 00 00 00 00 00 00 00 00 00 00 00 00 00 00 00 00 ................
0040A0B0 00 00 00 00 00 00 00 00 00 00 00 00 00 00 00 00 ................
0040A0C0 00 00 00 00 00 00 00 00 00 00 00 00 00 00 00 00 ................
0040A0D0 00 00 00 00 00 00 00 00 00 00 00 00 00 00 00 00 ................
0040A0E0 00 00 00 00 00 00 00 00 00 00 00 00 00 00 00 00 ................
0040A0F0 00 00 00 00 00 00 00 00 00 00 00 00 00 00 00 00 ................
0040A100 00 00 00 00 00 00 00 00 00 00 00 00 00 00 00 00 ................
0040A110 00 00 00 00 00 00 00 00 00 00 00 00 00 00 00 00 ................
0040A120 00 00 00 00 00 00 00 00 00 00 00 00 00 00 00 00 ................
0040A130 00 00 00 00 00 00 00 00 00 00 00 00 00 00 00 00 ................
0040A140 00 00 00 00 00 00 00 00 00 00 00 00 00 00 00 00 ................
0040A150 00 00 00 00 00 00 00 00 00 00 00 00 00 00 00 00 ................
0040A160 00 00 00 00 00 00 00 00 00 00 00 00 00 00 00 00 ................
0040A170 00 00 00 00 00 00 00 00 00 00 00 00 00 00 00 00 ................
0040A180 00 00 00 00 00 00 00 00 00 00 00 00 00 00 00 00 ................
0040A190 00 00 00 00 00 00 00 00 00 00 00 00 00 00 00 00 ................
0040A1A0 00 00 00 00 00 00 00 00 00 00 00 00 00 00 00 00 ................
0040A1B0 00 00 00 00 00 00 00 00 00 00 00 00 00 00 00 00 ................
0040A1C0 00 00 00 00 00 00 00 00 00 00 00 00 00 00 00 00 ................
0040A1D0 00 00 00 00 00 00 00 00 00 00 00 00 00 00 00 00 ................
0040A1E0 00 00 00 00 00 00 00 00 00 00 00 00 00 00 00 00 ................
0040A1F0 00 00 00 00 00 00 00 00 00 00 00 00 00 00 00 00 ................
0040A200 00 00 00 00 00 00 00 00 00 00 00 00 00 00 00 00 ................
0040A210 00 00 00 00 00 00 00 00 00 00 00 00 00 00 00 00 ................
0040A220 00 00 00 00 00 00 00 00 00 00 00 00 00 00 00 00 ................
0040A230 00 00 00 00 00 00 00 00 00 00 00 00 00 00 00 00 ................
0040A240 00 00 00 00 00 00 00 00 00 00 00 00 00 00 00 00 ................
0040A250 00 00 00 00 00 00 00 00 00 00 00 00 00 00 00 00 ................
0040A260 00 00 00 00 00 00 00 00 00 00 00 00 00 00 00 00 ................
0040A270 00 00 00 00 00 00 00 00 00 00 00 00 00 00 00 00 ................
0040A280 00 00 00 00 00 00 00 00 00 00 00 00 00 00 00 00 ................
0040A290 00 00 00 00 00 00 00 00 00 00 00 00 00 00 00 00 ................
0040A2A0 00 00 00 00 00 00 00 00 00 00 00 00 00 00 00 00 ................
0040A2B0 00 00 00 00 00 00 00 00 00 00 00 00 00 00 00 00 ................
0040A2C0 00 00 00 00 00 00 00 00 00 00 00 00 00 00 00 00 ................
0040A2D0 00 00 00 00 00 00 00 00 00 00 00 00 00 00 00 00 ................
0040A2E0 00 00 00 00 00 00 00 00 00 00 00 00 00 00 00 00 ................
0040A2F0 00 00 00 00 00 00 00 00 00 00 00 00 00 00 00 00 ................
0040A300 00 00 00 00 00 00 00 00 00 00 00 00 00 00 00 00 ................
0040A310 00 00 00 00 00 00 00 00 00 00 00 00 00 00 00 00 ................
0040A320 00 00 00 00 00 00 00 00 00 00 00 00 00 00 00 00 ................
0040A330 00 00 00 00 00 00 00 00 00 00 00 00 00 00 00 00 ................
0040A340 00 00 00 00 00 00 00 00 00 00 00 00 00 00 00 00 ................
0040A350 00 00 00 00 00 00 00 00 00 00 00 00 00 00 00 00 ................
0040A360 00 00 00 00 00 00 00 00 00 00 00 00 00 00 00 00 ................
0040A370 00 00 00 00 00 00 00 00 00 00 00 00 00 00 00 00 ................
0040A380 00 00 00 00 00 00 00 00 00 00 00 00 00 00 00 00 ................
0040A390 00 00 00 00 00 00 00 00 00 00 00 00 00 00 00 00 ................
0040A3A0 00 00 00 00 00 00 00 00 00 00 00 00 00 00 00 00 ................
0040A3B0 00 00 00 00 00 00 00 00 00 00 00 00 00 00 00 00 ................
0040A3C0 00 00 00 00 00 00 00 00 00 00 00 00 00 00 00 00 ................
0040A3D0 00 00 00 00 00 00 00 00 00 00 00 00 00 00 00 00 ................
0040A3E0 00 00 00 00 00 00 00 00 00 00 00 00 00 00 00 00 ................
0040A3F0 00 00 00 00 00 00 00 00 00 00 00 00 00 00 00 00 ................
0040A400 00 00 00 00 00 00 00 00 00 00 00 00 00 00 00 00 ................
0040A410 00 00 00 00 00 00 00 00 00 00 00 00 00 00 00 00 ................
0040A420 00 00 00 00 00 00 00 00 00 00 00 00 00 00 00 00 ................
0040A430 00 00 00 00 00 00 00 00 00 00 00 00 00 00 00 00 ................
0040A440 00 00 00 00 00 00 00 00 00 00 00 00 00 00 00 00 ................
0040A450 00 00 00 00 00 00 00 00 00 00 00 00 00 00 00 00 ................
0040A460 00 00 00 00 00 00 00 00 00 00 00 00 00 00 00 00 ................
0040A470 00 00 00 00 00 00 00 00 00 00 00 00 00 00 00 00 ................
0040A480 00 00 00 00 00 00 00 00 00 00 00 00 00 00 00 00 ................
0040A490 00 00 00 00 00 00 00 00 00 00 00 00 00 00 00 00 ................
0040A4A0 00 00 00 00 00 00 00 00 00 00 00 00 00 00 00 00 ................
0040A4B0 00 00 00 00 00 00 00 00 00 00 00 00 00 00 00 00 ................
0040A4C0 00 00 00 00 00 00 00 00 00 00 00 00 00 00 00 00 ................
0040A4D0 00 00 00 00 00 00 00 00 00 00 00 00 00 00 00 00 ................
0040A4E0 00 00 00 00 00 00 00 00 00 00 00 00 00 00 00 00 ................
0040A4F0 00 00 00 00 00 00 00 00 00 00 00 00 00 00 00 00 ................
0040A500 00 00 00 00 00 00 00 00 00 00 00 00 00 00 00 00 ................
0040A510 00 00 00 00 00 00 00 00 00 00 00 00 00 00 00 00 ................
0040A520 00 00 00 00 00 00 00 00 00 00 00 00 00 00 00 00 ................
0040A530 00 00 00 00 00 00 00 00 00 00 00 00 00 00 00 00 ................
0040A540 00 00 00 00 00 00 00 00 00 00 00 00 00 00 00 00 ................
0040A550 00 00 00 00 00 00 00 00 00 00 00 00 00 00 00 00 ................
0040A560 00 00 00 00 00 00 00 00 00 00 00 00 00 00 00 00 ................
0040A570 00 00 00 00 00 00 00 00 00 00 00 00 00 00 00 00 ................
0040A580 00 00 00 00 00 00 00 00 00 00 00 00 00 00 00 00 ................
0040A590 00 00 00 00 00 00 00 00 00 00 00 00 00 00 00 00 ................
0040A5A0 00 00 00 00 00 00 00 00 00 00 00 00 00 00 00 00 ................
0040A5B0 00 00 00 00 00 00 00 00 00 00 00 00 00 00 00 00 ................
0040A5C0 00 00 00 00 00 00 00 00 00 00 00 00 00 00 00 00 ................
0040A5D0 00 00 00 00 00 00 00 00 00 00 00 00 00 00 00 00 ................
0040A5E0 00 00 00 00 00 00 00 00 00 00 00 00 00 00 00 00 ................
0040A5F0 00 00 00 00 00 00 00 00 00 00 00 00 00 00 00 00 ................
0040A600 00 00 00 00 00 00 00 00 00 00 00 00 00 00 00 00 ................
0040A610 00 00 00 00 00 00 00 00 00 00 00 00 00 00 00 00 ................
0040A620 00 00 00 00 00 00 00 00 00 00 00 00 00 00 00 00 ................
0040A630 00 00 00 00 00 00 00 00 00 00 00 00 00 00 00 00 ................
0040A640 00 00 00 00 00 00 00 00 00 00 00 00 00 00 00 00 ................
0040A650 00 00 00 00 00 00 00 00 00 00 00 00 00 00 00 00 ................
0040A660 00 00 00 00 00 00 00 00 00 00 00 00 00 00 00 00 ................
0040A670 00 00 00 00 00 00 00 00 00 00 00 00 00 00 00 00 ................
0040A680 00 00 00 00 00 00 00 00 00 00 00 00 00 00 00 00 ................
0040A690 00 00 00 00 00 00 00 00 00 00 00 00 00 00 00 00 ................
0040A6A0 00 00 00 00 00 00 00 00 00 00 00 00 00 00 00 00 ................
0040A6B0 00 00 00 00 00 00 00 00 00 00 00 00 00 00 00 00 ................
0040A6C0 00 00 00 00 00 00 00 00 00 00 00 00 00 00 00 00 ................
0040A6D0 00 00 00 00 00 00 00 00 00 00 00 00 00 00 00 00 ................
0040A6E0 00 00 00 00 00 00 00 00 00 00 00 00 00 00 00 00 ................
0040A6F0 00 00 00 00 00 00 00 00 00 00 00 00 00 00 00 00 ................
0040A700 00 00 00 00 00 00 00 00 00 00 00 00 00 00 00 00 ................
0040A710 00 00 00 00 00 00 00 00 00 00 00 00 00 00 00 00 ................
0040A720 00 00 00 00 00 00 00 00 00 00 00 00 00 00 00 00 ................
0040A730 00 00 00 00 00 00 00 00 00 00 00 00 00 00 00 00 ................
0040A740 00 00 00 00 00 00 00 00 00 00 00 00 00 00 00 00 ................
0040A750 00 00 00 00 00 00 00 00 00 00 00 00 00 00 00 00 ................
0040A760 00 00 00 00 00 00 00 00 00 00 00 00 00 00 00 00 ................
0040A770 00 00 00 00 00 00 00 00 00 00 00 00 00 00 00 00 ................
0040A780 00 00 00 00 00 00 00 00 00 00 00 00 00 00 00 00 ................
0040A790 00 00 00 00 00 00 00 00 00 00 00 00 00 00 00 00 ................
0040A7A0 00 00 00 00 00 00 00 00 00 00 00 00 00 00 00 00 ................
0040A7B0 00 00 00 00 00 00 00 00 00 00 00 00 00 00 00 00 ................
0040A7C0 00 00 00 00 00 00 00 00 00 00 00 00 00 00 00 00 ................
0040A7D0 00 00 00 00 00 00 00 00 00 00 00 00 00 00 00 00 ................
0040A7E0 00 00 00 00 00 00 00 00 00 00 00 00 00 00 00 00 ................
0040A7F0 00 00 00 00 00 00 00 00 00 00 00 00 00 00 00 00 ................
0040A800 00 00 00 00 00 00 00 00 00 00 00 00 00 00 00 00 ................
0040A810 00 00 00 00 00 00 00 00 00 00 00 00 00 00 00 00 ................
0040A820 00 00 00 00 00 00 00 00 00 00 00 00 00 00 00 00 ................
0040A830 00 00 00 00 00 00 00 00 00 00 00 00 00 00 00 00 ................
0040A840 00 00 00 00 00 00 00 00 00 00 00 00 00 00 00 00 ................
0040A850 00 00 00 00 00 00 00 00 00 00 00 00 00 00 00 00 ................
0040A860 00 00 00 00 00 00 00 00 00 00 00 00 00 00 00 00 ................
0040A870 00 00 00 00 00 00 00 00 00 00 00 00 00 00 00 00 ................
0040A880 00 00 00 00 00 00 00 00 00 00 00 00 00 00 00 00 ................
0040A890 00 00 00 00 00 00 00 00 00 00 00 00 00 00 00 00 ................
0040A8A0 00 00 00 00 00 00 00 00 00 00 00 00 00 00 00 00 ................
0040A8B0 00 00 00 00 00 00 00 00 00 00 00 00 00 00 00 00 ................
0040A8C0 00 00 00 00 00 00 00 00 00 00 00 00 00 00 00 00 ................
0040A8D0 00 00 00 00 00 00 00 00 00 00 00 00 00 00 00 00 ................
0040A8E0 00 00 00 00 00 00 00 00 00 00 00 00 00 00 00 00 ................
0040A8F0 00 00 00 00 00 00 00 00 00 00 00 00 00 00 00 00 ................
0040A900 00 00 00 00 00 00 00 00 00 00 00 00 00 00 00 00 ................
0040A910 00 00 00 00 00 00 00 00 00 00 00 00 00 00 00 00 ................
0040A920 00 00 00 00 00 00 00 00 00 00 00 00 00 00 00 00 ................
0040A930 00 00 00 00 00 00 00 00 00 00 00 00 00 00 00 00 ................
0040A940 00 00 00 00 00 00 00 00 00 00 00 00 00 00 00 00 ................
0040A950 00 00 00 00 00 00 00 00 00 00 00 00 00 00 00 00 ................
0040A960 00 00 00 00 00 00 00 00 00 00 00 00 00 00 00 00 ................
0040A970 00 00 00 00 00 00 00 00 00 00 00 00 00 00 00 00 ................
0040A980 00 00 00 00 00 00 00 00 00 00 00 00 00 00 00 00 ................
0040A990 00 00 00 00 00 00 00 00 00 00 00 00 00 00 00 00 ................
0040A9A0 00 00 00 00 00 00 00 00 00 00 00 00 00 00 00 00 ................
0040A9B0 00 00 00 00 00 00 00 00 00 00 00 00 00 00 00 00 ................
0040A9C0 00 00 00 00 00 00 00 00 00 00 00 00 00 00 00 00 ................
0040A9D0 00 00 00 00 00 00 00 00 00 00 00 00 00 00 00 00 ................
0040A9E0 00 00 00 00 00 00 00 00 00 00 00 00 00 00 00 00 ................
0040A9F0 00 00 00 00 00 00 00 00 00 00 00 00 00 00 00 00 ................
0040AA00 00 00 00 00 00 00 00 00 00 00 00 00 00 00 00 00 ................
0040AA10 00 00 00 00 00 00 00 00 00 00 00 00 00 00 00 00 ................
0040AA20 00 00 00 00 00 00 00 00 00 00 00 00 00 00 00 00 ................
0040AA30 00 00 00 00 00 00 00 00 00 00 00 00 00 00 00 00 ................
0040AA40 00 00 00 00 00 00 00 00 00 00 00 00 00 00 00 00 ................
0040AA50 00 00 00 00 00 00 00 00 00 00 00 00 00 00 00 00 ................
0040AA60 00 00 00 00 00 00 00 00 00 00 00 00 00 00 00 00 ................
0040AA70 00 00 00 00 00 00 00 00 00 00 00 00 00 00 00 00 ................
0040AA80 00 00 00 00 00 00 00 00 00 00 00 00 00 00 00 00 ................
0040AA90 00 00 00 00 00 00 00 00 00 00 00 00 00 00 00 00 ................
0040AAA0 00 00 00 00 00 00 00 00 00 00 00 00 00 00 00 00 ................
0040AAB0 00 00 00 00 00 00 00 00 00 00 00 00 00 00 00 00 ................
0040AAC0 00 00 00 00 00 00 00 00 00 00 00 00 00 00 00 00 ................
0040AAD0 00 00 00 00 00 00 00 00 00 00 00 00 00 00 00 00 ................
0040AAE0 00 00 00 00 00 00 00 00 00 00 00 00 00 00 00 00 ................
0040AAF0 00 00 00 00 00 00 00 00 00 00 00 00 00 00 00 00 ................
0040AB00 00 00 00 00 00 00 00 00 00 00 00 00 00 00 00 00 ................
0040AB10 00 00 00 00 00 00 00 00 00 00 00 00 00 00 00 00 ................
0040AB20 00 00 00 00 00 00 00 00 00 00 00 00 00 00 00 00 ................
0040AB30 00 00 00 00 00 00 00 00 00 00 00 00 00 00 00 00 ................
0040AB40 00 00 00 00 00 00 00 00 00 00 00 00 00 00 00 00 ................
0040AB50 00 00 00 00 00 00 00 00 00 00 00 00 00 00 00 00 ................
0040AB60 00 00 00 00 00 00 00 00 00 00 00 00 00 00 00 00 ................
0040AB70 00 00 00 00 00 00 00 00 00 00 00 00 00 00 00 00 ................
0040AB80 00 00 00 00 00 00 00 00 00 00 00 00 00 00 00 00 ................
0040AB90 00 00 00 00 00 00 00 00 00 00 00 00 00 00 00 00 ................
0040ABA0 00 00 00 00 00 00 00 00 00 00 00 00 00 00 00 00 ................
0040ABB0 00 00 00 00 00 00 00 00 00 00 00 00 00 00 00 00 ................
0040ABC0 00 00 00 00 00 00 00 00 00 00 00 00 00 00 00 00 ................
0040ABD0 00 00 00 00 00 00 00 00 00 00 00 00 00 00 00 00 ................
0040ABE0 00 00 00 00 00 00 00 00 00 00 00 00 00 00 00 00 ................
0040ABF0 00 00 00 00 00 00 00 00 00 00 00 00 00 00 00 00 ................
0040AC00 00 00 00 00 00 00 00 00 00 00 00 00 00 00 00 00 ................
0040AC10 00 00 00 00 00 00 00 00 00 00 00 00 00 00 00 00 ................
0040AC20 00 00 00 00 00 00 00 00 00 00 00 00 00 00 00 00 ................
0040AC30 00 00 00 00 00 00 00 00 00 00 00 00 00 00 00 00 ................
0040AC40 00 00 00 00 00 00 00 00 00 00 00 00 00 00 00 00 ................
0040AC50 00 00 00 00 00 00 00 00 00 00 00 00 00 00 00 00 ................
0040AC60 00 00 00 00 00 00 00 00 00 00 00 00 00 00 00 00 ................
0040AC70 00 00 00 00 00 00 00 00 00 00 00 00 00 00 00 00 ................
0040AC80 00 00 00 00 00 00 00 00 00 00 00 00 00 00 00 00 ................
0040AC90 00 00 00 00 00 00 00 00 00 00 00 00 00 00 00 00 ................
0040ACA0 00 00 00 00 00 00 00 00 00 00 00 00 00 00 00 00 ................
0040ACB0 00 00 00 00 00 00 00 00 00 00 00 00 00 00 00 00 ................
0040ACC0 00 00 00 00 00 00 00 00 00 00 00 00 00 00 00 00 ................
0040ACD0 00 00 00 00 00 00 00 00 00 00 00 00 00 00 00 00 ................
0040ACE0 00 00 00 00 00 00 00 00 00 00 00 00 00 00 00 00 ................
0040ACF0 00 00 00 00 00 00 00 00 00 00 00 00 00 00 00 00 ................
0040AD00 00 00 00 00 00 00 00 00 00 00 00 00 00 00 00 00 ................
0040AD10 00 00 00 00 00 00 00 00 00 00 00 00 00 00 00 00 ................
0040AD20 00 00 00 00 00 00 00 00 00 00 00 00 00 00 00 00 ................
0040AD30 00 00 00 00 00 00 00 00 00 00 00 00 00 00 00 00 ................
0040AD40 00 00 00 00 00 00 00 00 00 00 00 00 00 00 00 00 ................
0040AD50 00 00 00 00 00 00 00 00 00 00 00 00 00 00 00 00 ................
0040AD60 00 00 00 00 00 00 00 00 00 00 00 00 00 00 00 00 ................
0040AD70 00 00 00 00 00 00 00 00 00 00 00 00 00 00 00 00 ................
0040AD80 00 00 00 00 00 00 00 00 00 00 00 00 00 00 00 00 ................
0040AD90 00 00 00 00 00 00 00 00 00 00 00 00 00 00 00 00 ................
0040ADA0 00 00 00 00 00 00 00 00 00 00 00 00 00 00 00 00 ................
0040ADB0 00 00 00 00 00 00 00 00 00 00 00 00 00 00 00 00 ................
0040ADC0 00 00 00 00 00 00 00 00 00 00 00 00 00 00 00 00 ................
0040ADD0 00 00 00 00 00 00 00 00 00 00 00 00 00 00 00 00 ................
0040ADE0 00 00 00 00 00 00 00 00 00 00 00 00 00 00 00 00 ................
0040ADF0 00 00 00 00 00 00 00 00 00 00 00 00 00 00 00 00 ................
0040AE00 00 00 00 00 00 00 00 00 00 00 00 00 00 00 00 00 ................
0040AE10 00 00 00 00 00 00 00 00 00 00 00 00 00 00 00 00 ................
0040AE20 00 00 00 00 00 00 00 00 00 00 00 00 00 00 00 00 ................
0040AE30 00 00 00 00 00 00 00 00 00 00 00 00 00 00 00 00 ................
0040AE40 00 00 00 00 00 00 00 00 00 00 00 00 00 00 00 00 ................
0040AE50 00 00 00 00 00 00 00 00 00 00 00 00 00 00 00 00 ................
0040AE60 00 00 00 00 00 00 00 00 00 00 00 00 00 00 00 00 ................
0040AE70 00 00 00 00 00 00 00 00 00 00 00 00 00 00 00 00 ................
0040AE80 00 00 00 00 00 00 00 00 00 00 00 00 00 00 00 00 ................
0040AE90 00 00 00 00 00 00 00 00 00 00 00 00 00 00 00 00 ................
0040AEA0 00 00 00 00 00 00 00 00 00 00 00 00 00 00 00 00 ................
0040AEB0 00 00 00 00 00 00 00 00 00 00 00 00 00 00 00 00 ................
0040AEC0 00 00 00 00 00 00 00 00 00 00 00 00 00 00 00 00 ................
0040AED0 00 00 00 00 00 00 00 00 00 00 00 00 00 00 00 00 ................
0040AEE0 00 00 00 00 00 00 00 00 00 00 00 00 00 00 00 00 ................
0040AEF0 00 00 00 00 00 00 00 00 00 00 00 00 00 00 00 00 ................
0040AF00 00 00 00 00 00 00 00 00 00 00 00 00 00 00 00 00 ................
0040AF10 00 00 00 00 00 00 00 00 00 00 00 00 00 00 00 00 ................
0040AF20 00 00 00 00 00 00 00 00 00 00 00 00 00 00 00 00 ................
0040AF30 00 00 00 00 00 00 00 00 00 00 00 00 00 00 00 00 ................
0040AF40 00 00 00 00 00 00 00 00 00 00 00 00 00 00 00 00 ................
0040AF50 00 00 00 00 00 00 00 00 00 00 00 00 00 00 00 00 ................
0040AF60 00 00 00 00 00 00 00 00 00 00 00 00 00 00 00 00 ................
0040AF70 00 00 00 00 00 00 00 00 00 00 00 00 00 00 00 00 ................
0040AF80 00 00 00 00 00 00 00 00 00 00 00 00 00 00 00 00 ................
0040AF90 00 00 00 00 00 00 00 00 00 00 00 00 00 00 00 00 ................
0040AFA0 00 00 00 00 00 00 00 00 00 00 00 00 00 00 00 00 ................
0040AFB0 00 00 00 00 00 00 00 00 00 00 00 00 00 00 00 00 ................
0040AFC0 00 00 00 00 00 00 00 00 00 00 00 00 00 00 00 00 ................
0040AFD0 00 00 00 00 00 00 00 00 00 00 00 00 00 00 00 00 ................
0040AFE0 00 00 00 00 00 00 00 00 00 00 00 00 00 00 00 00 ................
0040AFF0 00 00 00 00 00 00 00 00 00 00 00 00 00 00 00 00 ................
0040B000 00 00 00 00 00 00 00 00 00 00 00 00 00 00 00 00 ................
0040B010 00 00 00 00 00 00 00 00 00 00 00 00 00 00 00 00 ................
0040B020 00 00 00 00 00 00 00 00 00 00 00 00 00 00 00 00 ................
0040B030 00 00 00 00 00 00 00 00 00 00 00 00 00 00 00 00 ................
0040B040 00 00 00 00 00 00 00 00 00 00 00 00 00 00 00 00 ................
0040B050 00 00 00 00 00 00 00 00 00 00 00 00 00 00 00 00 ................
0040B060 00 00 00 00 00 00 00 00 00 00 00 00 00 00 00 00 ................
0040B070 00 00 00 00 00 00 00 00 00 00 00 00 00 00 00 00 ................
0040B080 00 00 00 00 00 00 00 00 00 00 00 00 00 00 00 00 ................
0040B090 00 00 00 00 00 00 00 00 00 00 00 00 00 00 00 00 ................
0040B0A0 00 00 00 00 00 00 00 00 00 00 00 00 00 00 00 00 ................
0040B0B0 00 00 00 00 00 00 00 00 00 00 00 00 00 00 00 00 ................
0040B0C0 00 00 00 00 00 00 00 00 00 00 00 00 00 00 00 00 ................
0040B0D0 00 00 00 00 00 00 00 00 00 00 00 00 00 00 00 00 ................
0040B0E0 00 00 00 00 00 00 00 00 00 00 00 00 00 00 00 00 ................
0040B0F0 00 00 00 00 00 00 00 00 00 00 00 00 00 00 00 00 ................
0040B100 00 00 00 00 00 00 00 00 00 00 00 00 00 00 00 00 ................
0040B110 00 00 00 00 00 00 00 00 00 00 00 00 00 00 00 00 ................
0040B120 00 00 00 00 00 00 00 00 00 00 00 00 00 00 00 00 ................
0040B130 00 00 00 00 00 00 00 00 00 00 00 00 00 00 00 00 ................
0040B140 00 00 00 00 00 00 00 00 00 00 00 00 00 00 00 00 ................
0040B150 00 00 00 00 00 00 00 00 00 00 00 00 00 00 00 00 ................
0040B160 00 00 00 00 00 00 00 00 00 00 00 00 00 00 00 00 ................
0040B170 00 00 00 00 00 00 00 00 00 00 00 00 00 00 00 00 ................
0040B180 00 00 00 00 00 00 00 00 00 00 00 00 00 00 00 00 ................
0040B190 00 00 00 00 00 00 00 00 00 00 00 00 00 00 00 00 ................
0040B1A0 00 00 00 00 00 00 00 00 00 00 00 00 00 00 00 00 ................
0040B1B0 00 00 00 00 00 00 00 00 00 00 00 00 00 00 00 00 ................
0040B1C0 00 00 00 00 00 00 00 00 00 00 00 00 00 00 00 00 ................
0040B1D0 00 00 00 00 00 00 00 00 00 00 00 00 00 00 00 00 ................
0040B1E0 00 00 00 00 00 00 00 00 00 00 00 00 00 00 00 00 ................
0040B1F0 00 00 00 00 00 00 00 00 00 00 00 00 00 00 00 00 ................
0040B200 00 00 00 00 00 00 00 00 00 00 00 00 00 00 00 00 ................
0040B210 00 00 00 00 00 00 00 00 00 00 00 00 00 00 00 00 ................
0040B220 00 00 00 00 00 00 00 00 00 00 00 00 00 00 00 00 ................
0040B230 00 00 00 00 00 00 00 00 00 00 00 00 00 00 00 00 ................
0040B240 00 00 00 00 00 00 00 00 00 00 00 00 00 00 00 00 ................
0040B250 00 00 00 00 00 00 00 00 00 00 00 00 00 00 00 00 ................
0040B260 00 00 00 00 00 00 00 00 00 00 00 00 00 00 00 00 ................
0040B270 00 00 00 00 00 00 00 00 00 00 00 00 00 00 00 00 ................
0040B280 00 00 00 00 00 00 00 00 00 00 00 00 00 00 00 00 ................
0040B290 00 00 00 00 00 00 00 00 00 00 00 00 00 00 00 00 ................
0040B2A0 00 00 00 00 00 00 00 00 00 00 00 00 00 00 00 00 ................
0040B2B0 00 00 00 00 00 00 00 00 00 00 00 00 00 00 00 00 ................
0040B2C0 00 00 00 00 00 00 00 00 00 00 00 00 00 00 00 00 ................
0040B2D0 00 00 00 00 00 00 00 00 00 00 00 00 00 00 00 00 ................
0040B2E0 00 00 00 00 00 00 00 00 00 00 00 00 00 00 00 00 ................
0040B2F0 00 00 00 00 00 00 00 00 00 00 00 00 00 00 00 00 ................
0040B300 00 00 00 00 00 00 00 00 00 00 00 00 00 00 00 00 ................
0040B310 00 00 00 00 00 00 00 00 00 00 00 00 00 00 00 00 ................
0040B320 00 00 00 00 00 00 00 00 00 00 00 00 00 00 00 00 ................
0040B330 00 00 00 00 00 00 00 00 00 00 00 00 00 00 00 00 ................
0040B340 00 00 00 00 00 00 00 00 00 00 00 00 00 00 00 00 ................
0040B350 00 00 00 00 00 00 00 00 00 00 00 00 00 00 00 00 ................
0040B360 00 00 00 00 00 00 00 00 00 00 00 00 00 00 00 00 ................
0040B370 00 00 00 00 00 00 00 00 00 00 00 00 00 00 00 00 ................
0040B380 00 00 00 00 00 00 00 00 00 00 00 00 00 00 00 00 ................
0040B390 00 00 00 00 00 00 00 00 00 00 00 00 00 00 00 00 ................
0040B3A0 00 00 00 00 00 00 00 00 00 00 00 00 00 00 00 00 ................
0040B3B0 00 00 00 00 00 00 00 00 00 00 00 00 00 00 00 00 ................
0040B3C0 00 00 00 00 00 00 00 00 00 00 00 00 00 00 00 00 ................
0040B3D0 00 00 00 00 00 00 00 00 00 00 00 00 00 00 00 00 ................
0040B3E0 00 00 00 00 00 00 00 00 00 00 00 00 00 00 00 00 ................
0040B3F0 00 00 00 00 00 00 00 00 00 00 00 00 00 00 00 00 ................
0040B400 00 00 00 00 00 00 00 00 00 00 00 00 00 00 00 00 ................
0040B410 00 00 00 00 00 00 00 00 00 00 00 00 00 00 00 00 ................
0040B420 00 00 00 00 00 00 00 00 00 00 00 00 00 00 00 00 ................
0040B430 00 00 00 00 00 00 00 00 00 00 00 00 00 00 00 00 ................
0040B440 00 00 00 00 00 00 00 00 00 00 00 00 00 00 00 00 ................
0040B450 00 00 00 00 00 00 00 00 00 00 00 00 00 00 00 00 ................
0040B460 00 00 00 00 00 00 00 00 00 00 00 00 00 00 00 00 ................
0040B470 00 00 00 00 00 00 00 00 00 00 00 00 00 00 00 00 ................
0040B480 00 00 00 00 00 00 00 00 00 00 00 00 00 00 00 00 ................
0040B490 00 00 00 00 00 00 00 00 00 00 00 00 00 00 00 00 ................
0040B4A0 00 00 00 00 00 00 00 00 00 00 00 00 00 00 00 00 ................
0040B4B0 00 00 00 00 00 00 00 00 00 00 00 00 00 00 00 00 ................
0040B4C0 00 00 00 00 00 00 00 00 00 00 00 00 00 00 00 00 ................
0040B4D0 00 00 00 00 00 00 00 00 00 00 00 00 00 00 00 00 ................
0040B4E0 00 00 00 00 00 00 00 00 00 00 00 00 00 00 00 00 ................
0040B4F0 00 00 00 00 00 00 00 00 00 00 00 00 00 00 00 00 ................
0040B500 00 00 00 00 00 00 00 00 00 00 00 00 00 00 00 00 ................
0040B510 00 00 00 00 00 00 00 00 00 00 00 00 00 00 00 00 ................
0040B520 00 00 00 00 00 00 00 00 00 00 00 00 00 00 00 00 ................
0040B530 00 00 00 00 00 00 00 00 00 00 00 00 00 00 00 00 ................
0040B540 00 00 00 00 00 00 00 00 00 00 00 00 00 00 00 00 ................
0040B550 00 00 00 00 00 00 00 00 00 00 00 00 00 00 00 00 ................
0040B560 00 00 00 00 00 00 00 00 00 00 00 00 00 00 00 00 ................
0040B570 00 00 00 00 00 00 00 00 00 00 00 00 00 00 00 00 ................
0040B580 00 00 00 00 00 00 00 00 00 00 00 00 00 00 00 00 ................
0040B590 00 00 00 00 00 00 00 00 00 00 00 00 00 00 00 00 ................
0040B5A0 00 00 00 00 00 00 00 00 00 00 00 00 00 00 00 00 ................
0040B5B0 00 00 00 00 00 00 00 00 00 00 00 00 00 00 00 00 ................
0040B5C0 00 00 00 00 00 00 00 00 00 00 00 00 00 00 00 00 ................
0040B5D0 00 00 00 00 00 00 00 00 00 00 00 00 00 00 00 00 ................
0040B5E0 00 00 00 00 00 00 00 00 00 00 00 00 00 00 00 00 ................
0040B5F0 00 00 00 00 00 00 00 00 00 00 00 00 00 00 00 00 ................
0040B600 00 00 00 00 00 00 00 00 00 00 00 00 00 00 00 00 ................
0040B610 00 00 00 00 00 00 00 00 00 00 00 00 00 00 00 00 ................
0040B620 00 00 00 00 00 00 00 00 00 00 00 00 00 00 00 00 ................
0040B630 00 00 00 00 00 00 00 00 00 00 00 00 00 00 00 00 ................
0040B640 00 00 00 00 00 00 00 00 00 00 00 00 00 00 00 00 ................
0040B650 00 00 00 00 00 00 00 00 00 00 00 00 00 00 00 00 ................
0040B660 00 00 00 00 00 00 00 00 00 00 00 00 00 00 00 00 ................
0040B670 00 00 00 00 00 00 00 00 00 00 00 00 00 00 00 00 ................
0040B680 00 00 00 00 00 00 00 00 00 00 00 00 00 00 00 00 ................
0040B690 00 00 00 00 00 00 00 00 00 00 00 00 00 00 00 00 ................
0040B6A0 00 00 00 00 00 00 00 00 00 00 00 00 00 00 00 00 ................
0040B6B0 00 00 00 00 00 00 00 00 00 00 00 00 00 00 00 00 ................
0040B6C0 00 00 00 00 00 00 00 00 00 00 00 00 00 00 00 00 ................
0040B6D0 00 00 00 00 00 00 00 00 00 00 00 00 00 00 00 00 ................
0040B6E0 00 00 00 00 00 00 00 00 00 00 00 00 00 00 00 00 ................
0040B6F0 00 00 00 00 00 00 00 00 00 00 00 00 00 00 00 00 ................
0040B700 00 00 00 00 00 00 00 00 00 00 00 00 00 00 00 00 ................
0040B710 00 00 00 00 00 00 00 00 00 00 00 00 00 00 00 00 ................
0040B720 00 00 00 00 00 00 00 00 00 00 00 00 00 00 00 00 ................
0040B730 00 00 00 00 00 00 00 00 00 00 00 00 00 00 00 00 ................
0040B740 00 00 00 00 00 00 00 00 00 00 00 00 00 00 00 00 ................
0040B750 00 00 00 00 00 00 00 00 00 00 00 00 00 00 00 00 ................
0040B760 00 00 00 00 00 00 00 00 00 00 00 00 00 00 00 00 ................
0040B770 00 00 00 00 00 00 00 00 00 00 00 00 00 00 00 00 ................
0040B780 00 00 00 00 00 00 00 00 00 00 00 00 00 00 00 00 ................
0040B790 00 00 00 00 00 00 00 00 00 00 00 00 00 00 00 00 ................
0040B7A0 00 00 00 00 00 00 00 00 00 00 00 00 00 00 00 00 ................
0040B7B0 00 00 00 00 00 00 00 00 00 00 00 00 00 00 00 00 ................
0040B7C0 00 00 00 00 00 00 00 00 00 00 00 00 00 00 00 00 ................
0040B7D0 00 00 00 00 00 00 00 00 00 00 00 00 00 00 00 00 ................
0040B7E0 00 00 00 00 00 00 00 00 00 00 00 00 00 00 00 00 ................
0040B7F0 00 00 00 00 00 00 00 00 00 00 00 00 00 00 00 00 ................
0040B800 00 00 00 00 00 00 00 00 00 00 00 00 00 00 00 00 ................
0040B810 00 00 00 00 00 00 00 00 00 00 00 00 00 00 00 00 ................
0040B820 00 00 00 00 00 00 00 00 00 00 00 00 00 00 00 00 ................
0040B830 00 00 00 00 00 00 00 00 00 00 00 00 00 00 00 00 ................
0040B840 00 00 00 00 00 00 00 00 00 00 00 00 00 00 00 00 ................
0040B850 00 00 00 00 00 00 00 00 00 00 00 00 00 00 00 00 ................
0040B860 00 00 00 00 00 00 00 00 00 00 00 00 00 00 00 00 ................
0040B870 00 00 00 00 00 00 00 00 00 00 00 00 00 00 00 00 ................
0040B880 00 00 00 00 00 00 00 00 00 00 00 00 00 00 00 00 ................
0040B890 00 00 00 00 00 00 00 00 00 00 00 00 00 00 00 00 ................
0040B8A0 00 00 00 00 00 00 00 00 00 00 00 00 00 00 00 00 ................
0040B8B0 00 00 00 00 00 00 00 00 00 00 00 00 00 00 00 00 ................
0040B8C0 00 00 00 00 00 00 00 00 00 00 00 00 00 00 00 00 ................
0040B8D0 00 00 00 00 00 00 00 00 00 00 00 00 00 00 00 00 ................
0040B8E0 00 00 00 00 00 00 00 00 00 00 00 00 00 00 00 00 ................
0040B8F0 00 00 00 00 00 00 00 00 00 00 00 00 00 00 00 00 ................
0040B900 00 00 00 00 00 00 00 00 00 00 00 00 00 00 00 00 ................
0040B910 00 00 00 00 00 00 00 00 00 00 00 00 00 00 00 00 ................
0040B920 00 00 00 00 00 00 00 00 00 00 00 00 00 00 00 00 ................
0040B930 00 00 00 00 00 00 00 00 00 00 00 00 00 00 00 00 ................
0040B940 00 00 00 00 00 00 00 00 00 00 00 00 00 00 00 00 ................
0040B950 00 00 00 00 00 00 00 00 00 00 00 00 00 00 00 00 ................
0040B960 00 00 00 00 00 00 00 00 00 00 00 00 00 00 00 00 ................
0040B970 00 00 00 00 00 00 00 00 00 00 00 00 00 00 00 00 ................
0040B980 00 00 00 00 00 00 00 00 00 00 00 00 00 00 00 00 ................
0040B990 00 00 00 00 00 00 00 00 00 00 00 00 00 00 00 00 ................
0040B9A0 00 00 00 00 00 00 00 00 00 00 00 00 00 00 00 00 ................
0040B9B0 00 00 00 00 00 00 00 00 00 00 00 00 00 00 00 00 ................
0040B9C0 00 00 00 00 00 00 00 00 00 00 00 00 00 00 00 00 ................
0040B9D0 00 00 00 00 00 00 00 00 00 00 00 00 00 00 00 00 ................
0040B9E0 00 00 00 00 00 00 00 00 00 00 00 00 00 00 00 00 ................
0040B9F0 00 00 00 00 00 00 00 00 00 00 00 00 00 00 00 00 ................
0040BA00 00 00 00 00 00 00 00 00 00 00 00 00 00 00 00 00 ................
0040BA10 00 00 00 00 00 00 00 00 00 00 00 00 00 00 00 00 ................
0040BA20 00 00 00 00 00 00 00 00 00 00 00 00 00 00 00 00 ................
0040BA30 00 00 00 00 00 00 00 00 00 00 00 00 00 00 00 00 ................
0040BA40 00 00 00 00 00 00 00 00 00 00 00 00 00 00 00 00 ................
0040BA50 00 00 00 00 00 00 00 00 00 00 00 00 00 00 00 00 ................
0040BA60 00 00 00 00 00 00 00 00 00 00 00 00 00 00 00 00 ................
0040BA70 00 00 00 00 00 00 00 00 00 00 00 00 00 00 00 00 ................
0040BA80 00 00 00 00 00 00 00 00 00 00 00 00 00 00 00 00 ................
0040BA90 00 00 00 00 00 00 00 00 00 00 00 00 00 00 00 00 ................
0040BAA0 00 00 00 00 00 00 00 00 00 00 00 00 00 00 00 00 ................
0040BAB0 00 00 00 00 00 00 00 00 00 00 00 00 00 00 00 00 ................
0040BAC0 00 00 00 00 00 00 00 00 00 00 00 00 00 00 00 00 ................
0040BAD0 00 00 00 00 00 00 00 00 00 00 00 00 00 00 00 00 ................
0040BAE0 00 00 00 00 00 00 00 00 00 00 00 00 00 00 00 00 ................
0040BAF0 00 00 00 00 00 00 00 00 00 00 00 00 00 00 00 00 ................
0040BB00 00 00 00 00 00 00 00 00 00 00 00 00 00 00 00 00 ................
0040BB10 00 00 00 00 00 00 00 00 00 00 00 00 00 00 00 00 ................
0040BB20 00 00 00 00 00 00 00 00 00 00 00 00 00 00 00 00 ................
0040BB30 00 00 00 00 00 00 00 00 00 00 00 00 00 00 00 00 ................
0040BB40 00 00 00 00 00 00 00 00 00 00 00 00 00 00 00 00 ................
0040BB50 00 00 00 00 00 00 00 00 00 00 00 00 00 00 00 00 ................
0040BB60 00 00 00 00 00 00 00 00 00 00 00 00 00 00 00 00 ................
0040BB70 00 00 00 00 00 00 00 00 00 00 00 00 00 00 00 00 ................
0040BB80 00 00 00 00 00 00 00 00 00 00 00 00 00 00 00 00 ................
0040BB90 00 00 00 00 00 00 00 00 00 00 00 00 00 00 00 00 ................
0040BBA0 00 00 00 00 00 00 00 00 00 00 00 00 00 00 00 00 ................
0040BBB0 00 00 00 00 00 00 00 00 00 00 00 00 00 00 00 00 ................
0040BBC0 00 00 00 00 00 00 00 00 00 00 00 00 00 00 00 00 ................
0040BBD0 00 00 00 00 00 00 00 00 00 00 00 00 00 00 00 00 ................
0040BBE0 00 00 00 00 00 00 00 00 00 00 00 00 00 00 00 00 ................
0040BBF0 00 00 00 00 00 00 00 00 00 00 00 00 00 00 00 00 ................
0040BC00 00 00 00 00 00 00 00 00 00 00 00 00 00 00 00 00 ................
0040BC10 00 00 00 00 00 00 00 00 00 00 00 00 00 00 00 00 ................
0040BC20 00 00 00 00 00 00 00 00 00 00 00 00 00 00 00 00 ................
0040BC30 00 00 00 00 00 00 00 00 00 00 00 00 00 00 00 00 ................
0040BC40 00 00 00 00 00 00 00 00 00 00 00 00 00 00 00 00 ................
0040BC50 00 00 00 00 00 00 00 00 00 00 00 00 00 00 00 00 ................
0040BC60 00 00 00 00 00 00 00 00 00 00 00 00 00 00 00 00 ................
0040BC70 00 00 00 00 00 00 00 00 00 00 00 00 00 00 00 00 ................
0040BC80 00 00 00 00 00 00 00 00 00 00 00 00 00 00 00 00 ................
0040BC90 00 00 00 00 00 00 00 00 00 00 00 00 00 00 00 00 ................
0040BCA0 00 00 00 00 00 00 00 00 00 00 00 00 00 00 00 00 ................
0040BCB0 00 00 00 00 00 00 00 00 00 00 00 00 00 00 00 00 ................
0040BCC0 00 00 00 00 00 00 00 00 00 00 00 00 00 00 00 00 ................
0040BCD0 00 00 00 00 00 00 00 00 00 00 00 00 00 00 00 00 ................
0040BCE0 00 00 00 00 00 00 00 00 00 00 00 00 00 00 00 00 ................
0040BCF0 00 00 00 00 00 00 00 00 00 00 00 00 00 00 00 00 ................
0040BD00 00 00 00 00 00 00 00 00 00 00 00 00 00 00 00 00 ................
0040BD10 00 00 00 00 00 00 00 00 00 00 00 00 00 00 00 00 ................
0040BD20 00 00 00 00 00 00 00 00 00 00 00 00 00 00 00 00 ................
0040BD30 00 00 00 00 00 00 00 00 00 00 00 00 00 00 00 00 ................
0040BD40 00 00 00 00 00 00 00 00 00 00 00 00 00 00 00 00 ................
0040BD50 00 00 00 00 00 00 00 00 00 00 00 00 00 00 00 00 ................
0040BD60 00 00 00 00 00 00 00 00 00 00 00 00 00 00 00 00 ................
0040BD70 00 00 00 00 00 00 00 00 00 00 00 00 00 00 00 00 ................
0040BD80 00 00 00 00 00 00 00 00 00 00 00 00 00 00 00 00 ................
0040BD90 00 00 00 00 00 00 00 00 00 00 00 00 00 00 00 00 ................
0040BDA0 00 00 00 00 00 00 00 00 00 00 00 00 00 00 00 00 ................
0040BDB0 00 00 00 00 00 00 00 00 00 00 00 00 00 00 00 00 ................
0040BDC0 00 00 00 00 00 00 00 00 00 00 00 00 00 00 00 00 ................
0040BDD0 00 00 00 00 00 00 00 00 00 00 00 00 00 00 00 00 ................
0040BDE0 00 00 00 00 00 00 00 00 00 00 00 00 00 00 00 00 ................
0040BDF0 00 00 00 00 00 00 00 00 00 00 00 00 00 00 00 00 ................
0040BE00 00 00 00 00 00 00 00 00 00 00 00 00 00 00 00 00 ................
0040BE10 00 00 00 00 00 00 00 00 00 00 00 00 00 00 00 00 ................
0040BE20 00 00 00 00 00 00 00 00 00 00 00 00 00 00 00 00 ................
0040BE30 00 00 00 00 00 00 00 00 00 00 00 00 00 00 00 00 ................
0040BE40 00 00 00 00 00 00 00 00 00 00 00 00 00 00 00 00 ................
0040BE50 00 00 00 00 00 00 00 00 00 00 00 00 00 00 00 00 ................
0040BE60 00 00 00 00 00 00 00 00 00 00 00 00 00 00 00 00 ................
0040BE70 00 00 00 00 00 00 00 00 00 00 00 00 00 00 00 00 ................
0040BE80 00 00 00 00 00 00 00 00 00 00 00 00 00 00 00 00 ................
0040BE90 00 00 00 00 00 00 00 00 00 00 00 00 00 00 00 00 ................
0040BEA0 00 00 00 00 00 00 00 00 00 00 00 00 00 00 00 00 ................
0040BEB0 00 00 00 00 00 00 00 00 00 00 00 00 00 00 00 00 ................
0040BEC0 00 00 00 00 00 00 00 00 00 00 00 00 00 00 00 00 ................
0040BED0 00 00 00 00 00 00 00 00 00 00 00 00 00 00 00 00 ................
0040BEE0 00 00 00 00 00 00 00 00 00 00 00 00 00 00 00 00 ................
0040BEF0 00 00 00 00 00 00 00 00 00 00 00 00 00 00 00 00 ................
0040BF00 00 00 00 00 00 00 00 00 00 00 00 00 00 00 00 00 ................
0040BF10 00 00 00 00 00 00 00 00 00 00 00 00 00 00 00 00 ................
0040BF20 00 00 00 00 00 00 00 00 00 00 00 00 00 00 00 00 ................
0040BF30 00 00 00 00 00 00 00 00 00 00 00 00 00 00 00 00 ................
0040BF40 00 00 00 00 00 00 00 00 00 00 00 00 00 00 00 00 ................
0040BF50 00 00 00 00 00 00 00 00 00 00 00 00 00 00 00 00 ................
0040BF60 00 00 00 00 00 00 00 00 00 00 00 00 00 00 00 00 ................
0040BF70 00 00 00 00 00 00 00 00 00 00 00 00 00 00 00 00 ................
0040BF80 00 00 00 00 00 00 00 00 00 00 00 00 00 00 00 00 ................
0040BF90 00 00 00 00 00 00 00 00 00 00 00 00 00 00 00 00 ................
0040BFA0 00 00 00 00 00 00 00 00 00 00 00 00 00 00 00 00 ................
0040BFB0 00 00 00 00 00 00 00 00 00 00 00 00 00 00 00 00 ................
0040BFC0 00 00 00 00 00 00 00 00 00 00 00 00 00 00 00 00 ................
0040BFD0 00 00 00 00 00 00 00 00 00 00 00 00 00 00 00 00 ................
0040BFE0 00 00 00 00 00 00 00 00 00 00 00 00 00 00 00 00 ................
0040BFF0 00 00 00 00 00 00 00 00 00 00 00 00 00 00 00 00 ................
0040C000 00 00 00 00 00 00 00 00 00 00 00 00 00 00 00 00 ................
0040C010 00 00 00 00 00 00 00 00 00 00 00 00 00 00 00 00 ................
0040C020 00 00 00 00 00 00 00 00 00 00 00 00 00 00 00 00 ................
0040C030 00 00 00 00 00 00 00 00 00 00 00 00 00 00 00 00 ................
0040C040 00 00 00 00 00 00 00 00 00 00 00 00 00 00 00 00 ................
0040C050 00 00 00 00 00 00 00 00 00 00 00 00 00 00 00 00 ................
0040C060 00 00 00 00 00 00 00 00 00 00 00 00 00 00 00 00 ................
0040C070 00 00 00 00 00 00 00 00 00 00 00 00 00 00 00 00 ................
0040C080 00 00 00 00 00 00 00 00 00 00 00 00 00 00 00 00 ................
0040C090 00 00 00 00 00 00 00 00 00 00 00 00 00 00 00 00 ................
0040C0A0 00 00 00 00 00 00 00 00 00 00 00 00 00 00 00 00 ................
0040C0B0 00 00 00 00 00 00 00 00 00 00 00 00 00 00 00 00 ................
0040C0C0 00 00 00 00 00 00 00 00 00 00 00 00 00 00 00 00 ................
0040C0D0 00 00 00 00 00 00 00 00 00 00 00 00 00 00 00 00 ................
0040C0E0 00 00 00 00 00 00 00 00 00 00 00 00 00 00 00 00 ................
0040C0F0 00 00 00 00 00 00 00 00 00 00 00 00 00 00 00 00 ................
0040C100 00 00 00 00 00 00 00 00 00 00 00 00 00 00 00 00 ................
0040C110 00 00 00 00 00 00 00 00 00 00 00 00 00 00 00 00 ................
0040C120 00 00 00 00 00 00 00 00 00 00 00 00 00 00 00 00 ................
0040C130 00 00 00 00 00 00 00 00 00 00 00 00 00 00 00 00 ................
0040C140 00 00 00 00 00 00 00 00 00 00 00 00 00 00 00 00 ................
0040C150 00 00 00 00 00 00 00 00 00 00 00 00 00 00 00 00 ................
0040C160 00 00 00 00 00 00 00 00 00 00 00 00 00 00 00 00 ................
0040C170 00 00 00 00 00 00 00 00 00 00 00 00 00 00 00 00 ................
0040C180 00 00 00 00 00 00 00 00 00 00 00 00 00 00 00 00 ................
0040C190 00 00 00 00 00 00 00 00 00 00 00 00 00 00 00 00 ................
0040C1A0 00 00 00 00 00 00 00 00 00 00 00 00 00 00 00 00 ................
0040C1B0 00 00 00 00 00 00 00 00 00 00 00 00 00 00 00 00 ................
0040C1C0 00 00 00 00 00 00 00 00 00 00 00 00 00 00 00 00 ................
0040C1D0 00 00 00 00 00 00 00 00 00 00 00 00 00 00 00 00 ................
0040C1E0 00 00 00 00 00 00 00 00 00 00 00 00 00 00 00 00 ................
0040C1F0 00 00 00 00 00 00 00 00 00 00 00 00 00 00 00 00 ................
0040C200 00 00 00 00 00 00 00 00 00 00 00 00 00 00 00 00 ................
0040C210 00 00 00 00 00 00 00 00 00 00 00 00 00 00 00 00 ................
0040C220 00 00 00 00 00 00 00 00 00 00 00 00 00 00 00 00 ................
0040C230 00 00 00 00 00 00 00 00 00 00 00 00 00 00 00 00 ................
0040C240 00 00 00 00 00 00 00 00 00 00 00 00 00 00 00 00 ................
0040C250 00 00 00 00 00 00 00 00 00 00 00 00 00 00 00 00 ................
0040C260 00 00 00 00 00 00 00 00 00 00 00 00 00 00 00 00 ................
0040C270 00 00 00 00 00 00 00 00 00 00 00 00 00 00 00 00 ................
0040C280 00 00 00 00 00 00 00 00 00 00 00 00 00 00 00 00 ................
0040C290 00 00 00 00 00 00 00 00 00 00 00 00 00 00 00 00 ................
0040C2A0 00 00 00 00 00 00 00 00 00 00 00 00 00 00 00 00 ................
0040C2B0 00 00 00 00 00 00 00 00 00 00 00 00 00 00 00 00 ................
0040C2C0 00 00 00 00 00 00 00 00 00 00 00 00 00 00 00 00 ................
0040C2D0 00 00 00 00 00 00 00 00 00 00 00 00 00 00 00 00 ................
0040C2E0 00 00 00 00 00 00 00 00 00 00 00 00 00 00 00 00 ................
0040C2F0 00 00 00 00 00 00 00 00 00 00 00 00 00 00 00 00 ................
0040C300 00 00 00 00 00 00 00 00 00 00 00 00 00 00 00 00 ................
0040C310 00 00 00 00 00 00 00 00 00 00 00 00 00 00 00 00 ................
0040C320 00 00 00 00 00 00 00 00 00 00 00 00 00 00 00 00 ................
0040C330 00 00 00 00 00 00 00 00 00 00 00 00 00 00 00 00 ................
0040C340 00 00 00 00 00 00 00 00 00 00 00 00 00 00 00 00 ................
0040C350 00 00 00 00 00 00 00 00 00 00 00 00 00 00 00 00 ................
0040C360 00 00 00 00 00 00 00 00 00 00 00 00 00 00 00 00 ................
0040C370 00 00 00 00 00 00 00 00 00 00 00 00 00 00 00 00 ................
0040C380 00 00 00 00 00 00 00 00 00 00 00 00 00 00 00 00 ................
0040C390 00 00 00 00 00 00 00 00 00 00 00 00 00 00 00 00 ................
0040C3A0 00 00 00 00 00 00 00 00 00 00 00 00 00 00 00 00 ................
0040C3B0 00 00 00 00 00 00 00 00 00 00 00 00 00 00 00 00 ................
0040C3C0 00 00 00 00 00 00 00 00 00 00 00 00 00 00 00 00 ................
0040C3D0 00 00 00 00 00 00 00 00 00 00 00 00 00 00 00 00 ................
0040C3E0 00 00 00 00 00 00 00 00 00 00 00 00 00 00 00 00 ................
0040C3F0 00 00 00 00 00 00 00 00 00 00 00 00 00 00 00 00 ................
0040C400 00 00 00 00 00 00 00 00 00 00 00 00 00 00 00 00 ................
0040C410 00 00 00 00 00 00 00 00 00 00 00 00 00 00 00 00 ................
0040C420 00 00 00 00 00 00 00 00 00 00 00 00 00 00 00 00 ................
0040C430 00 00 00 00 00 00 00 00 00 00 00 00 00 00 00 00 ................
0040C440 00 00 00 00 00 00 00 00 00 00 00 00 00 00 00 00 ................
0040C450 00 00 00 00 00 00 00 00 00 00 00 00 00 00 00 00 ................
0040C460 00 00 00 00 00 00 00 00 00 00 00 00 00 00 00 00 ................
0040C470 00 00 00 00 00 00 00 00 00 00 00 00 00 00 00 00 ................
0040C480 00 00 00 00 00 00 00 00 00 00 00 00 00 00 00 00 ................
0040C490 00 00 00 00 00 00 00 00 00 00 00 00 00 00 00 00 ................
0040C4A0 00 00 00 00 00 00 00 00 00 00 00 00 00 00 00 00 ................
0040C4B0 00 00 00 00 00 00 00 00 00 00 00 00 00 00 00 00 ................
0040C4C0 00 00 00 00 00 00 00 00 00 00 00 00 00 00 00 00 ................
0040C4D0 00 00 00 00 00 00 00 00 00 00 00 00 00 00 00 00 ................
0040C4E0 00 00 00 00 00 00 00 00 00 00 00 00 00 00 00 00 ................
0040C4F0 00 00 00 00 00 00 00 00 00 00 00 00 00 00 00 00 ................
0040C500 00 00 00 00 00 00 00 00 00 00 00 00 00 00 00 00 ................
0040C510 00 00 00 00 00 00 00 00 00 00 00 00 00 00 00 00 ................
0040C520 00 00 00 00 00 00 00 00 00 00 00 00 00 00 00 00 ................
0040C530 00 00 00 00 00 00 00 00 00 00 00 00 00 00 00 00 ................
0040C540 00 00 00 00 00 00 00 00 00 00 00 00 00 00 00 00 ................
0040C550 00 00 00 00 00 00 00 00 00 00 00 00 00 00 00 00 ................
0040C560 00 00 00 00 00 00 00 00 00 00 00 00 00 00 00 00 ................
0040C570 00 00 00 00 00 00 00 00 00 00 00 00 00 00 00 00 ................
0040C580 00 00 00 00 00 00 00 00 00 00 00 00 00 00 00 00 ................
0040C590 00 00 00 00 00 00 00 00 00 00 00 00 00 00 00 00 ................
0040C5A0 00 00 00 00 00 00 00 00 00 00 00 00 00 00 00 00 ................
0040C5B0 00 00 00 00 00 00 00 00 00 00 00 00 00 00 00 00 ................
0040C5C0 00 00 00 00 00 00 00 00 00 00 00 00 00 00 00 00 ................
0040C5D0 00 00 00 00 00 00 00 00 00 00 00 00 00 00 00 00 ................
0040C5E0 00 00 00 00 00 00 00 00 00 00 00 00 00 00 00 00 ................
0040C5F0 00 00 00 00 00 00 00 00 00 00 00 00 00 00 00 00 ................
0040C600 00 00 00 00 00 00 00 00 00 00 00 00 00 00 00 00 ................
0040C610 00 00 00 00 00 00 00 00 00 00 00 00 00 00 00 00 ................
0040C620 00 00 00 00 00 00 00 00 00 00 00 00 00 00 00 00 ................
0040C630 00 00 00 00 00 00 00 00 00 00 00 00 00 00 00 00 ................
0040C640 00 00 00 00 00 00 00 00 00 00 00 00 00 00 00 00 ................
0040C650 00 00 00 00 00 00 00 00 00 00 00 00 00 00 00 00 ................
0040C660 00 00 00 00 00 00 00 00 00 00 00 00 00 00 00 00 ................
0040C670 00 00 00 00 00 00 00 00 00 00 00 00 00 00 00 00 ................
0040C680 00 00 00 00 00 00 00 00 00 00 00 00 00 00 00 00 ................
0040C690 00 00 00 00 00 00 00 00 00 00 00 00 00 00 00 00 ................
0040C6A0 00 00 00 00 00 00 00 00 00 00 00 00 00 00 00 00 ................
0040C6B0 00 00 00 00 00 00 00 00 00 00 00 00 00 00 00 00 ................
0040C6C0 00 00 00 00 00 00 00 00 00 00 00 00 00 00 00 00 ................
0040C6D0 00 00 00 00 00 00 00 00 00 00 00 00 00 00 00 00 ................
0040C6E0 00 00 00 00 00 00 00 00 00 00 00 00 00 00 00 00 ................
0040C6F0 00 00 00 00 00 00 00 00 00 00 00 00 00 00 00 00 ................
0040C700 00 00 00 00 00 00 00 00 00 00 00 00 00 00 00 00 ................
0040C710 00 00 00 00 00 00 00 00 00 00 00 00 00 00 00 00 ................
0040C720 00 00 00 00 00 00 00 00 00 00 00 00 00 00 00 00 ................
0040C730 00 00 00 00 00 00 00 00 00 00 00 00 00 00 00 00 ................
0040C740 00 00 00 00 00 00 00 00 00 00 00 00 00 00 00 00 ................
0040C750 00 00 00 00 00 00 00 00 00 00 00 00 00 00 00 00 ................
0040C760 00 00 00 00 00 00 00 00 00 00 00 00 00 00 00 00 ................
0040C770 00 00 00 00 00 00 00 00 00 00 00 00 00 00 00 00 ................
0040C780 00 00 00 00 00 00 00 00 00 00 00 00 00 00 00 00 ................
0040C790 00 00 00 00 00 00 00 00 00 00 00 00 00 00 00 00 ................
0040C7A0 00 00 00 00 00 00 00 00 00 00 00 00 00 00 00 00 ................
0040C7B0 00 00 00 00 00 00 00 00 00 00 00 00 00 00 00 00 ................
0040C7C0 00 00 00 00 00 00 00 00 00 00 00 00 00 00 00 00 ................
0040C7D0 00 00 00 00 00 00 00 00 00 00 00 00 00 00 00 00 ................
0040C7E0 00 00 00 00 00 00 00 00 00 00 00 00 00 00 00 00 ................
0040C7F0 00 00 00 00 00 00 00 00 00 00 00 00 00 00 00 00 ................
0040C800 00 00 00 00 00 00 00 00 00 00 00 00 00 00 00 00 ................
0040C810 00 00 00 00 00 00 00 00 00 00 00 00 00 00 00 00 ................
0040C820 00 00 00 00 00 00 00 00 00 00 00 00 00 00 00 00 ................
0040C830 00 00 00 00 00 00 00 00 00 00 00 00 00 00 00 00 ................
0040C840 00 00 00 00 00 00 00 00 00 00 00 00 00 00 00 00 ................
0040C850 00 00 00 00 00 00 00 00 00 00 00 00 00 00 00 00 ................
0040C860 00 00 00 00 00 00 00 00 00 00 00 00 00 00 00 00 ................
0040C870 00 00 00 00 00 00 00 00 00 00 00 00 00 00 00 00 ................
0040C880 00 00 00 00 00 00 00 00 00 00 00 00 00 00 00 00 ................
0040C890 00 00 00 00 00 00 00 00 00 00 00 00 00 00 00 00 ................
0040C8A0 00 00 00 00 00 00 00 00 00 00 00 00 00 00 00 00 ................
0040C8B0 00 00 00 00 00 00 00 00 00 00 00 00 00 00 00 00 ................
0040C8C0 00 00 00 00 00 00 00 00 00 00 00 00 00 00 00 00 ................
0040C8D0 00 00 00 00 00 00 00 00 00 00 00 00 00 00 00 00 ................
0040C8E0 00 00 00 00 00 00 00 00 00 00 00 00 00 00 00 00 ................
0040C8F0 00 00 00 00 00 00 00 00 00 00 00 00 00 00 00 00 ................
0040C900 00 00 00 00 00 00 00 00 00 00 00 00 00 00 00 00 ................
0040C910 00 00 00 00 00 00 00 00 00 00 00 00 00 00 00 00 ................
0040C920 00 00 00 00 00 00 00 00 00 00 00 00 00 00 00 00 ................
0040C930 00 00 00 00 00 00 00 00 00 00 00 00 00 00 00 00 ................
0040C940 00 00 00 00 00 00 00 00 00 00 00 00 00 00 00 00 ................
0040C950 00 00 00 00 00 00 00 00 00 00 00 00 00 00 00 00 ................
0040C960 00 00 00 00 00 00 00 00 00 00 00 00 00 00 00 00 ................
0040C970 00 00 00 00 00 00 00 00 00 00 00 00 00 00 00 00 ................
0040C980 00 00 00 00 00 00 00 00 00 00 00 00 00 00 00 00 ................
0040C990 00 00 00 00 00 00 00 00 00 00 00 00 00 00 00 00 ................
0040C9A0 00 00 00 00 00 00 00 00 00 00 00 00 00 00 00 00 ................
0040C9B0 00 00 00 00 00 00 00 00 00 00 00 00 00 00 00 00 ................
0040C9C0 00 00 00 00 00 00 00 00 00 00 00 00 00 00 00 00 ................
0040C9D0 00 00 00 00 00 00 00 00 00 00 00 00 00 00 00 00 ................
0040C9E0 00 00 00 00 00 00 00 00 00 00 00 00 00 00 00 00 ................
0040C9F0 00 00 00 00 00 00 00 00 00 00 00 00 00 00 00 00 ................
0040CA00 00 00 00 00 00 00 00 00 00 00 00 00 00 00 00 00 ................
0040CA10 00 00 00 00 00 00 00 00 00 00 00 00 00 00 00 00 ................
0040CA20 00 00 00 00 00 00 00 00 00 00 00 00 00 00 00 00 ................
0040CA30 00 00 00 00 00 00 00 00 00 00 00 00 00 00 00 00 ................
0040CA40 00 00 00 00 00 00 00 00 00 00 00 00 00 00 00 00 ................
0040CA50 00 00 00 00 00 00 00 00 00 00 00 00 00 00 00 00 ................
0040CA60 00 00 00 00 00 00 00 00 00 00 00 00 00 00 00 00 ................
0040CA70 00 00 00 00 00 00 00 00 00 00 00 00 00 00 00 00 ................
0040CA80 00 00 00 00 00 00 00 00 00 00 00 00 00 00 00 00 ................
0040CA90 00 00 00 00 00 00 00 00 00 00 00 00 00 00 00 00 ................
0040CAA0 00 00 00 00 00 00 00 00 00 00 00 00 00 00 00 00 ................
0040CAB0 00 00 00 00 00 00 00 00 00 00 00 00 00 00 00 00 ................
0040CAC0 00 00 00 00 00 00 00 00 00 00 00 00 00 00 00 00 ................
0040CAD0 00 00 00 00 00 00 00 00 00 00 00 00 00 00 00 00 ................
0040CAE0 00 00 00 00 00 00 00 00 00 00 00 00 00 00 00 00 ................
0040CAF0 00 00 00 00 00 00 00 00 00 00 00 00 00 00 00 00 ................
0040CB00 00 00 00 00 00 00 00 00 00 00 00 00 00 00 00 00 ................
0040CB10 00 00 00 00 00 00 00 00 00 00 00 00 00 00 00 00 ................
0040CB20 00 00 00 00 00 00 00 00 00 00 00 00 00 00 00 00 ................
0040CB30 00 00 00 00 00 00 00 00 00 00 00 00 00 00 00 00 ................
0040CB40 00 00 00 00 00 00 00 00 00 00 00 00 00 00 00 00 ................
0040CB50 00 00 00 00 00 00 00 00 00 00 00 00 00 00 00 00 ................
0040CB60 00 00 00 00 00 00 00 00 00 00 00 00 00 00 00 00 ................
0040CB70 00 00 00 00 00 00 00 00 00 00 00 00 00 00 00 00 ................
0040CB80 00 00 00 00 00 00 00 00 00 00 00 00 00 00 00 00 ................
0040CB90 00 00 00 00 00 00 00 00 00 00 00 00 00 00 00 00 ................
0040CBA0 00 00 00 00 00 00 00 00 00 00 00 00 00 00 00 00 ................
0040CBB0 00 00 00 00 00 00 00 00 00 00 00 00 00 00 00 00 ................
0040CBC0 00 00 00 00 00 00 00 00 00 00 00 00 00 00 00 00 ................
0040CBD0 00 00 00 00 00 00 00 00 00 00 00 00 00 00 00 00 ................
0040CBE0 00 00 00 00 00 00 00 00 00 00 00 00 00 00 00 00 ................
0040CBF0 00 00 00 00 00 00 00 00 00 00 00 00 00 00 00 00 ................
0040CC00 00 00 00 00 00 00 00 00 00 00 00 00 00 00 00 00 ................
0040CC10 00 00 00 00 00 00 00 00 00 00 00 00 00 00 00 00 ................
0040CC20 00 00 00 00 00 00 00 00 00 00 00 00 00 00 00 00 ................
0040CC30 00 00 00 00 00 00 00 00 00 00 00 00 00 00 00 00 ................
0040CC40 00 00 00 00 00 00 00 00 00 00 00 00 00 00 00 00 ................
0040CC50 00 00 00 00 00 00 00 00 00 00 00 00 00 00 00 00 ................
0040CC60 00 00 00 00 00 00 00 00 00 00 00 00 00 00 00 00 ................
0040CC70 00 00 00 00 00 00 00 00 00 00 00 00 00 00 00 00 ................
0040CC80 00 00 00 00 00 00 00 00 00 00 00 00 00 00 00 00 ................
0040CC90 00 00 00 00 00 00 00 00 00 00 00 00 00 00 00 00 ................
0040CCA0 00 00 00 00 00 00 00 00 00 00 00 00 00 00 00 00 ................
0040CCB0 00 00 00 00 00 00 00 00 00 00 00 00 00 00 00 00 ................
0040CCC0 00 00 00 00 00 00 00 00 00 00 00 00 00 00 00 00 ................
0040CCD0 00 00 00 00 00 00 00 00 00 00 00 00 00 00 00 00 ................
0040CCE0 00 00 00 00 00 00 00 00 00 00 00 00 00 00 00 00 ................
0040CCF0 00 00 00 00 00 00 00 00 00 00 00 00 00 00 00 00 ................
0040CD00 00 00 00 00 00 00 00 00 00 00 00 00 00 00 00 00 ................
0040CD10 00 00 00 00 00 00 00 00 00 00 00 00 00 00 00 00 ................
0040CD20 00 00 00 00 00 00 00 00 00 00 00 00 00 00 00 00 ................
0040CD30 00 00 00 00 00 00 00 00 00 00 00 00 00 00 00 00 ................
0040CD40 00 00 00 00 00 00 00 00 00 00 00 00 00 00 00 00 ................
0040CD50 00 00 00 00 00 00 00 00 00 00 00 00 00 00 00 00 ................
0040CD60 00 00 00 00 00 00 00 00 00 00 00 00 00 00 00 00 ................
0040CD70 00 00 00 00 00 00 00 00 00 00 00 00 00 00 00 00 ................
0040CD80 00 00 00 00 00 00 00 00 00 00 00 00 00 00 00 00 ................
0040CD90 00 00 00 00 00 00 00 00 00 00 00 00 00 00 00 00 ................
0040CDA0 00 00 00 00 00 00 00 00 00 00 00 00 00 00 00 00 ................
0040CDB0 00 00 00 00 00 00 00 00 00 00 00 00 00 00 00 00 ................
0040CDC0 00 00 00 00 00 00 00 00 00 00 00 00 00 00 00 00 ................
0040CDD0 00 00 00 00 00 00 00 00 00 00 00 00 00 00 00 00 ................
0040CDE0 00 00 00 00 00 00 00 00 00 00 00 00 00 00 00 00 ................
0040CDF0 00 00 00 00 00 00 00 00 00 00 00 00 00 00 00 00 ................
0040CE00 00 00 00 00 00 00 00 00 00 00 00 00 00 00 00 00 ................
0040CE10 00 00 00 00 00 00 00 00 00 00 00 00 00 00 00 00 ................
0040CE20 00 00 00 00 00 00 00 00 00 00 00 00 00 00 00 00 ................
0040CE30 00 00 00 00 00 00 00 00 00 00 00 00 00 00 00 00 ................
0040CE40 00 00 00 00 00 00 00 00 00 00 00 00 00 00 00 00 ................
0040CE50 00 00 00 00 00 00 00 00 00 00 00 00 00 00 00 00 ................
0040CE60 00 00 00 00 00 00 00 00 00 00 00 00 00 00 00 00 ................
0040CE70 00 00 00 00 00 00 00 00 00 00 00 00 00 00 00 00 ................
0040CE80 00 00 00 00 00 00 00 00 00 00 00 00 00 00 00 00 ................
0040CE90 00 00 00 00 00 00 00 00 00 00 00 00 00 00 00 00 ................
0040CEA0 00 00 00 00 00 00 00 00 00 00 00 00 00 00 00 00 ................
0040CEB0 00 00 00 00 00 00 00 00 00 00 00 00 00 00 00 00 ................
0040CEC0 00 00 00 00 00 00 00 00 00 00 00 00 00 00 00 00 ................
0040CED0 00 00 00 00 00 00 00 00 00 00 00 00 00 00 00 00 ................
0040CEE0 00 00 00 00 00 00 00 00 00 00 00 00 00 00 00 00 ................
0040CEF0 00 00 00 00 00 00 00 00 00 00 00 00 00 00 00 00 ................
0040CF00 00 00 00 00 00 00 00 00 00 00 00 00 00 00 00 00 ................
0040CF10 00 00 00 00 00 00 00 00 00 00 00 00 00 00 00 00 ................
0040CF20 00 00 00 00 00 00 00 00 00 00 00 00 00 00 00 00 ................
0040CF30 00 00 00 00 00 00 00 00 00 00 00 00 00 00 00 00 ................
0040CF40 00 00 00 00 00 00 00 00 00 00 00 00 00 00 00 00 ................
0040CF50 00 00 00 00 00 00 00 00 00 00 00 00 00 00 00 00 ................
0040CF60 00 00 00 00 00 00 00 00 00 00 00 00 00 00 00 00 ................
0040CF70 00 00 00 00 00 00 00 00 00 00 00 00 00 00 00 00 ................
0040CF80 00 00 00 00 00 00 00 00 00 00 00 00 00 00 00 00 ................
0040CF90 00 00 00 00 00 00 00 00 00 00 00 00 00 00 00 00 ................
0040CFA0 00 00 00 00 00 00 00 00 00 00 00 00 00 00 00 00 ................
0040CFB0 00 00 00 00 00 00 00 00 00 00 00 00 00 00 00 00 ................
0040CFC0 00 00 00 00 00 00 00 00 00 00 00 00 00 00 00 00 ................
0040CFD0 00 00 00 00 00 00 00 00 00 00 00 00 00 00 00 00 ................
0040CFE0 00 00 00 00 00 00 00 00 00 00 00 00 00 00 00 00 ................
0040CFF0 00 00 00 00 00 00 00 00 00 00 00 00 00 00 00 00 ................
0040D000 00 00 00 00 00 00 00 00 00 00 00 00 00 00 00 00 ................
0040D010 00 00 00 00 00 00 00 00 00 00 00 00 00 00 00 00 ................
0040D020 00 00 00 00 00 00 00 00 00 00 00 00 00 00 00 00 ................
0040D030 00 00 00 00 00 00 00 00 00 00 00 00 00 00 00 00 ................
0040D040 00 00 00 00 00 00 00 00 00 00 00 00 00 00 00 00 ................
0040D050 00 00 00 00 00 00 00 00 00 00 00 00 00 00 00 00 ................
0040D060 00 00 00 00 00 00 00 00 00 00 00 00 00 00 00 00 ................
0040D070 00 00 00 00 00 00 00 00 00 00 00 00 00 00 00 00 ................
0040D080 00 00 00 00 00 00 00 00 00 00 00 00 00 00 00 00 ................
0040D090 00 00 00 00 00 00 00 00 00 00 00 00 00 00 00 00 ................
0040D0A0 00 00 00 00 00 00 00 00 00 00 00 00 00 00 00 00 ................
0040D0B0 00 00 00 00 00 00 00 00 00 00 00 00 00 00 00 00 ................
0040D0C0 00 00 00 00 00 00 00 00 00 00 00 00 00 00 00 00 ................
0040D0D0 00 00 00 00 00 00 00 00 00 00 00 00 00 00 00 00 ................
0040D0E0 00 00 00 00 00 00 00 00 00 00 00 00 00 00 00 00 ................
0040D0F0 00 00 00 00 00 00 00 00 00 00 00 00 00 00 00 00 ................
0040D100 00 00 00 00 00 00 00 00 00 00 00 00 00 00 00 00 ................
0040D110 00 00 00 00 00 00 00 00 00 00 00 00 00 00 00 00 ................
0040D120 00 00 00 00 00 00 00 00 00 00 00 00 00 00 00 00 ................
0040D130 00 00 00 00 00 00 00 00 00 00 00 00 00 00 00 00 ................
0040D140 00 00 00 00 00 00 00 00 00 00 00 00 00 00 00 00 ................
0040D150 00 00 00 00 00 00 00 00 00 00 00 00 00 00 00 00 ................
0040D160 00 00 00 00 00 00 00 00 00 00 00 00 00 00 00 00 ................
0040D170 00 00 00 00 00 00 00 00 00 00 00 00 00 00 00 00 ................
0040D180 00 00 00 00 00 00 00 00 00 00 00 00 00 00 00 00 ................
0040D190 00 00 00 00 00 00 00 00 00 00 00 00 00 00 00 00 ................
0040D1A0 00 00 00 00 00 00 00 00 00 00 00 00 00 00 00 00 ................
0040D1B0 00 00 00 00 00 00 00 00 00 00 00 00 00 00 00 00 ................
0040D1C0 00 00 00 00 00 00 00 00 00 00 00 00 00 00 00 00 ................
0040D1D0 00 00 00 00 00 00 00 00 00 00 00 00 00 00 00 00 ................
0040D1E0 00 00 00 00 00 00 00 00 00 00 00 00 00 00 00 00 ................
0040D1F0 00 00 00 00 00 00 00 00 00 00 00 00 00 00 00 00 ................
0040D200 00 00 00 00 00 00 00 00 00 00 00 00 00 00 00 00 ................
0040D210 00 00 00 00 00 00 00 00 00 00 00 00 00 00 00 00 ................
0040D220 00 00 00 00 00 00 00 00 00 00 00 00 00 00 00 00 ................
0040D230 00 00 00 00 00 00 00 00 00 00 00 00 00 00 00 00 ................
0040D240 00 00 00 00 00 00 00 00 00 00 00 00 00 00 00 00 ................
0040D250 00 00 00 00 00 00 00 00 00 00 00 00 00 00 00 00 ................
0040D260 00 00 00 00 00 00 00 00 00 00 00 00 00 00 00 00 ................
0040D270 00 00 00 00 00 00 00 00 00 00 00 00 00 00 00 00 ................
0040D280 00 00 00 00 00 00 00 00 00 00 00 00 00 00 00 00 ................
0040D290 00 00 00 00 00 00 00 00 00 00 00 00 00 00 00 00 ................
0040D2A0 00 00 00 00 00 00 00 00 00 00 00 00 00 00 00 00 ................
0040D2B0 00 00 00 00 00 00 00 00 00 00 00 00 00 00 00 00 ................
0040D2C0 00 00 00 00 00 00 00 00 00 00 00 00 00 00 00 00 ................
0040D2D0 00 00 00 00 00 00 00 00 00 00 00 00 00 00 00 00 ................
0040D2E0 00 00 00 00 00 00 00 00 00 00 00 00 00 00 00 00 ................
0040D2F0 00 00 00 00 00 00 00 00 00 00 00 00 00 00 00 00 ................
0040D300 00 00 00 00 00 00 00 00 00 00 00 00 00 00 00 00 ................
0040D310 00 00 00 00 00 00 00 00 00 00 00 00 00 00 00 00 ................
0040D320 00 00 00 00 00 00 00 00 00 00 00 00 00 00 00 00 ................
0040D330 00 00 00 00 00 00 00 00 00 00 00 00 00 00 00 00 ................
0040D340 00 00 00 00 00 00 00 00 00 00 00 00 00 00 00 00 ................
0040D350 00 00 00 00 00 00 00 00 00 00 00 00 00 00 00 00 ................
0040D360 00 00 00 00 00 00 00 00 00 00 00 00 00 00 00 00 ................
0040D370 00 00 00 00 00 00 00 00 00 00 00 00 00 00 00 00 ................
0040D380 00 00 00 00 00 00 00 00 00 00 00 00 00 00 00 00 ................
0040D390 00 00 00 00 00 00 00 00 00 00 00 00 00 00 00 00 ................
0040D3A0 00 00 00 00 00 00 00 00 00 00 00 00 00 00 00 00 ................
0040D3B0 00 00 00 00 00 00 00 00 00 00 00 00 00 00 00 00 ................
0040D3C0 00 00 00 00 00 00 00 00 00 00 00 00 00 00 00 00 ................
0040D3D0 00 00 00 00 00 00 00 00 00 00 00 00 00 00 00 00 ................
0040D3E0 00 00 00 00 00 00 00 00 00 00 00 00 00 00 00 00 ................
0040D3F0 00 00 00 00 00 00 00 00 00 00 00 00 00 00 00 00 ................
0040D400 00 00 00 00 00 00 00 00 00 00 00 00 00 00 00 00 ................
0040D410 00 00 00 00 00 00 00 00 00 00 00 00 00 00 00 00 ................
0040D420 00 00 00 00 00 00 00 00 00 00 00 00 00 00 00 00 ................
0040D430 00 00 00 00 00 00 00 00 00 00 00 00 00 00 00 00 ................
0040D440 00 00 00 00 00 00 00 00 00 00 00 00 00 00 00 00 ................
0040D450 00 00 00 00 00 00 00 00 00 00 00 00 00 00 00 00 ................
0040D460 00 00 00 00 00 00 00 00 00 00 00 00 00 00 00 00 ................
0040D470 00 00 00 00 00 00 00 00 00 00 00 00 00 00 00 00 ................
0040D480 00 00 00 00 00 00 00 00 00 00 00 00 00 00 00 00 ................
0040D490 00 00 00 00 00 00 00 00 00 00 00 00 00 00 00 00 ................
0040D4A0 00 00 00 00 00 00 00 00 00 00 00 00 00 00 00 00 ................
0040D4B0 00 00 00 00 00 00 00 00 00 00 00 00 00 00 00 00 ................
0040D4C0 00 00 00 00 00 00 00 00 00 00 00 00 00 00 00 00 ................
0040D4D0 00 00 00 00 00 00 00 00 00 00 00 00 00 00 00 00 ................
0040D4E0 00 00 00 00 00 00 00 00 00 00 00 00 00 00 00 00 ................
0040D4F0 00 00 00 00 00 00 00 00 00 00 00 00 00 00 00 00 ................
0040D500 00 00 00 00 00 00 00 00 00 00 00 00 00 00 00 00 ................
0040D510 00 00 00 00 00 00 00 00 00 00 00 00 00 00 00 00 ................
0040D520 00 00 00 00 00 00 00 00 00 00 00 00 00 00 00 00 ................
0040D530 00 00 00 00 00 00 00 00 00 00 00 00 00 00 00 00 ................
0040D540 00 00 00 00 00 00 00 00 00 00 00 00 00 00 00 00 ................
0040D550 00 00 00 00 00 00 00 00 00 00 00 00 00 00 00 00 ................
0040D560 00 00 00 00 00 00 00 00 00 00 00 00 00 00 00 00 ................
0040D570 00 00 00 00 00 00 00 00 00 00 00 00 00 00 00 00 ................
0040D580 00 00 00 00 00 00 00 00 00 00 00 00 00 00 00 00 ................
0040D590 00 00 00 00 00 00 00 00 00 00 00 00 00 00 00 00 ................
0040D5A0 00 00 00 00 00 00 00 00 00 00 00 00 00 00 00 00 ................
0040D5B0 00 00 00 00 00 00 00 00 00 00 00 00 00 00 00 00 ................
0040D5C0 00 00 00 00 00 00 00 00 00 00 00 00 00 00 00 00 ................
0040D5D0 00 00 00 00 00 00 00 00 00 00 00 00 00 00 00 00 ................
0040D5E0 00 00 00 00 00 00 00 00 00 00 00 00 00 00 00 00 ................
0040D5F0 00 00 00 00 00 00 00 00 00 00 00 00 00 00 00 00 ................
0040D600 00 00 00 00 00 00 00 00 00 00 00 00 00 00 00 00 ................
0040D610 00 00 00 00 00 00 00 00 00 00 00 00 00 00 00 00 ................
0040D620 00 00 00 00 00 00 00 00 00 00 00 00 00 00 00 00 ................
0040D630 00 00 00 00 00 00 00 00 00 00 00 00 00 00 00 00 ................
0040D640 00 00 00 00 00 00 00 00 00 00 00 00 00 00 00 00 ................
0040D650 00 00 00 00 00 00 00 00 00 00 00 00 00 00 00 00 ................
0040D660 00 00 00 00 00 00 00 00 00 00 00 00 00 00 00 00 ................
0040D670 00 00 00 00 00 00 00 00 00 00 00 00 00 00 00 00 ................
0040D680 00 00 00 00 00 00 00 00 00 00 00 00 00 00 00 00 ................
0040D690 00 00 00 00 00 00 00 00 00 00 00 00 00 00 00 00 ................
0040D6A0 00 00 00 00 00 00 00 00 00 00 00 00 00 00 00 00 ................
0040D6B0 00 00 00 00 00 00 00 00 00 00 00 00 00 00 00 00 ................
0040D6C0 00 00 00 00 00 00 00 00 00 00 00 00 00 00 00 00 ................
0040D6D0 00 00 00 00 00 00 00 00 00 00 00 00 00 00 00 00 ................
0040D6E0 00 00 00 00 00 00 00 00 00 00 00 00 00 00 00 00 ................
0040D6F0 00 00 00 00 00 00 00 00 00 00 00 00 00 00 00 00 ................
0040D700 00 00 00 00 00 00 00 00 00 00 00 00 00 00 00 00 ................
0040D710 00 00 00 00 00 00 00 00 00 00 00 00 00 00 00 00 ................
0040D720 00 00 00 00 00 00 00 00 00 00 00 00 00 00 00 00 ................
0040D730 00 00 00 00 00 00 00 00 00 00 00 00 00 00 00 00 ................
0040D740 00 00 00 00 00 00 00 00 00 00 00 00 00 00 00 00 ................
0040D750 00 00 00 00 00 00 00 00 00 00 00 00 00 00 00 00 ................
0040D760 00 00 00 00 00 00 00 00 00 00 00 00 00 00 00 00 ................
0040D770 00 00 00 00 00 00 00 00 00 00 00 00 00 00 00 00 ................
0040D780 00 00 00 00 00 00 00 00 00 00 00 00 00 00 00 00 ................
0040D790 00 00 00 00 00 00 00 00 00 00 00 00 00 00 00 00 ................
0040D7A0 00 00 00 00 00 00 00 00 00 00 00 00 00 00 00 00 ................
0040D7B0 00 00 00 00 00 00 00 00 00 00 00 00 00 00 00 00 ................
0040D7C0 00 00 00 00 00 00 00 00 00 00 00 00 00 00 00 00 ................
0040D7D0 00 00 00 00 00 00 00 00 00 00 00 00 00 00 00 00 ................
0040D7E0 00 00 00 00 00 00 00 00 00 00 00 00 00 00 00 00 ................
0040D7F0 00 00 00 00 00 00 00 00 00 00 00 00 00 00 00 00 ................
0040D800 00 00 00 00 00 00 00 00 00 00 00 00 00 00 00 00 ................
0040D810 00 00 00 00 00 00 00 00 00 00 00 00 00 00 00 00 ................
0040D820 00 00 00 00 00 00 00 00 00 00 00 00 00 00 00 00 ................
0040D830 00 00 00 00 00 00 00 00 00 00 00 00 00 00 00 00 ................
0040D840 00 00 00 00 00 00 00 00 00 00 00 00 00 00 00 00 ................
0040D850 00 00 00 00 00 00 00 00 00 00 00 00 00 00 00 00 ................
0040D860 00 00 00 00 00 00 00 00 00 00 00 00 00 00 00 00 ................
0040D870 00 00 00 00 00 00 00 00 00 00 00 00 00 00 00 00 ................
0040D880 00 00 00 00 00 00 00 00 00 00 00 00 00 00 00 00 ................
0040D890 00 00 00 00 00 00 00 00 00 00 00 00 00 00 00 00 ................
0040D8A0 00 00 00 00 00 00 00 00 00 00 00 00 00 00 00 00 ................
0040D8B0 00 00 00 00 00 00 00 00 00 00 00 00 00 00 00 00 ................
0040D8C0 00 00 00 00 00 00 00 00 00 00 00 00 00 00 00 00 ................
0040D8D0 00 00 00 00 00 00 00 00 00 00 00 00 00 00 00 00 ................
0040D8E0 00 00 00 00 00 00 00 00 00 00 00 00 00 00 00 00 ................
0040D8F0 00 00 00 00 00 00 00 00 00 00 00 00 00 00 00 00 ................
0040D900 00 00 00 00 00 00 00 00 00 00 00 00 00 00 00 00 ................
0040D910 00 00 00 00 00 00 00 00 00 00 00 00 00 00 00 00 ................
0040D920 00 00 00 00 00 00 00 00 00 00 00 00 00 00 00 00 ................
0040D930 00 00 00 00 00 00 00 00 00 00 00 00 00 00 00 00 ................
0040D940 00 00 00 00 00 00 00 00 00 00 00 00 00 00 00 00 ................
0040D950 00 00 00 00 00 00 00 00 00 00 00 00 00 00 00 00 ................
0040D960 00 00 00 00 00 00 00 00 00 00 00 00 00 00 00 00 ................
0040D970 00 00 00 00 00 00 00 00 00 00 00 00 00 00 00 00 ................
0040D980 00 00 00 00 00 00 00 00 00 00 00 00 00 00 00 00 ................
0040D990 00 00 00 00 00 00 00 00 00 00 00 00 00 00 00 00 ................
0040D9A0 00 00 00 00 00 00 00 00 00 00 00 00 00 00 00 00 ................
0040D9B0 00 00 00 00 00 00 00 00 00 00 00 00 00 00 00 00 ................
0040D9C0 00 00 00 00 00 00 00 00 00 00 00 00 00 00 00 00 ................
0040D9D0 00 00 00 00 00 00 00 00 00 00 00 00 00 00 00 00 ................
0040D9E0 00 00 00 00 00 00 00 00 00 00 00 00 00 00 00 00 ................
0040D9F0 00 00 00 00 00 00 00 00 00 00 00 00 00 00 00 00 ................
0040DA00 00 00 00 00 00 00 00 00 00 00 00 00 00 00 00 00 ................
0040DA10 00 00 00 00 00 00 00 00 00 00 00 00 00 00 00 00 ................
0040DA20 00 00 00 00 00 00 00 00 00 00 00 00 00 00 00 00 ................
0040DA30 00 00 00 00 00 00 00 00 00 00 00 00 00 00 00 00 ................
0040DA40 00 00 00 00 00 00 00 00 00 00 00 00 00 00 00 00 ................
0040DA50 00 00 00 00 00 00 00 00 00 00 00 00 00 00 00 00 ................
0040DA60 00 00 00 00 00 00 00 00 00 00 00 00 00 00 00 00 ................
0040DA70 00 00 00 00 00 00 00 00 00 00 00 00 00 00 00 00 ................
0040DA80 00 00 00 00 00 00 00 00 00 00 00 00 00 00 00 00 ................
0040DA90 00 00 00 00 00 00 00 00 00 00 00 00 00 00 00 00 ................
0040DAA0 00 00 00 00 00 00 00 00 00 00 00 00 00 00 00 00 ................
0040DAB0 00 00 00 00 00 00 00 00 00 00 00 00 00 00 00 00 ................
0040DAC0 00 00 00 00 00 00 00 00 00 00 00 00 00 00 00 00 ................
0040DAD0 00 00 00 00 00 00 00 00 00 00 00 00 00 00 00 00 ................
0040DAE0 00 00 00 00 00 00 00 00 00 00 00 00 00 00 00 00 ................
0040DAF0 00 00 00 00 00 00 00 00 00 00 00 00 00 00 00 00 ................
0040DB00 00 00 00 00 00 00 00 00 00 00 00 00 00 00 00 00 ................
0040DB10 00 00 00 00 00 00 00 00 00 00 00 00 00 00 00 00 ................
0040DB20 00 00 00 00 00 00 00 00 00 00 00 00 00 00 00 00 ................
0040DB30 00 00 00 00 00 00 00 00 00 00 00 00 00 00 00 00 ................
0040DB40 00 00 00 00 00 00 00 00 00 00 00 00 00 00 00 00 ................
0040DB50 00 00 00 00 00 00 00 00 00 00 00 00 00 00 00 00 ................
0040DB60 00 00 00 00 00 00 00 00 00 00 00 00 00 00 00 00 ................
0040DB70 00 00 00 00 00 00 00 00 00 00 00 00 00 00 00 00 ................
0040DB80 00 00 00 00 00 00 00 00 00 00 00 00 00 00 00 00 ................
0040DB90 00 00 00 00 00 00 00 00 00 00 00 00 00 00 00 00 ................
0040DBA0 00 00 00 00 00 00 00 00 00 00 00 00 00 00 00 00 ................
0040DBB0 00 00 00 00 00 00 00 00 00 00 00 00 00 00 00 00 ................
0040DBC0 00 00 00 00 00 00 00 00 00 00 00 00 00 00 00 00 ................
0040DBD0 00 00 00 00 00 00 00 00 00 00 00 00 00 00 00 00 ................
0040DBE0 00 00 00 00 00 00 00 00 00 00 00 00 00 00 00 00 ................
0040DBF0 00 00 00 00 00 00 00 00 00 00 00 00 00 00 00 00 ................
0040DC00 00 00 00 00 00 00 00 00 00 00 00 00 00 00 00 00 ................
0040DC10 00 00 00 00 00 00 00 00 00 00 00 00 00 00 00 00 ................
0040DC20 00 00 00 00 00 00 00 00 00 00 00 00 00 00 00 00 ................
0040DC30 00 00 00 00 00 00 00 00 00 00 00 00 00 00 00 00 ................
0040DC40 00 00 00 00 00 00 00 00 00 00 00 00 00 00 00 00 ................
0040DC50 00 00 00 00 00 00 00 00 00 00 00 00 00 00 00 00 ................
0040DC60 00 00 00 00 00 00 00 00 00 00 00 00 00 00 00 00 ................
0040DC70 00 00 00 00 00 00 00 00 00 00 00 00 00 00 00 00 ................
0040DC80 00 00 00 00 00 00 00 00 00 00 00 00 00 00 00 00 ................
0040DC90 00 00 00 00 00 00 00 00 00 00 00 00 00 00 00 00 ................
0040DCA0 00 00 00 00 00 00 00 00 00 00 00 00 00 00 00 00 ................
0040DCB0 00 00 00 00 00 00 00 00 00 00 00 00 00 00 00 00 ................
0040DCC0 00 00 00 00 00 00 00 00 00 00 00 00 00 00 00 00 ................
0040DCD0 00 00 00 00 00 00 00 00 00 00 00 00 00 00 00 00 ................
0040DCE0 00 00 00 00 00 00 00 00 00 00 00 00 00 00 00 00 ................
0040DCF0 00 00 00 00 00 00 00 00 00 00 00 00 00 00 00 00 ................
0040DD00 00 00 00 00 00 00 00 00 00 00 00 00 00 00 00 00 ................
0040DD10 00 00 00 00 00 00 00 00 00 00 00 00 00 00 00 00 ................
0040DD20 00 00 00 00 00 00 00 00 00 00 00 00 00 00 00 00 ................
0040DD30 00 00 00 00 00 00 00 00 00 00 00 00 00 00 00 00 ................
0040DD40 00 00 00 00 00 00 00 00 00 00 00 00 00 00 00 00 ................
0040DD50 00 00 00 00 00 00 00 00 00 00 00 00 00 00 00 00 ................
0040DD60 00 00 00 00 00 00 00 00 00 00 00 00 00 00 00 00 ................
0040DD70 00 00 00 00 00 00 00 00 00 00 00 00 00 00 00 00 ................
0040DD80 00 00 00 00 00 00 00 00 00 00 00 00 00 00 00 00 ................
0040DD90 00 00 00 00 00 00 00 00 00 00 00 00 00 00 00 00 ................
0040DDA0 00 00 00 00 00 00 00 00 00 00 00 00 00 00 00 00 ................
0040DDB0 00 00 00 00 00 00 00 00 00 00 00 00 00 00 00 00 ................
0040DDC0 00 00 00 00 00 00 00 00 00 00 00 00 00 00 00 00 ................
0040DDD0 00 00 00 00 00 00 00 00 00 00 00 00 00 00 00 00 ................
0040DDE0 00 00 00 00 00 00 00 00 00 00 00 00 00 00 00 00 ................
0040DDF0 00 00 00 00 00 00 00 00 00 00 00 00 00 00 00 00 ................
0040DE00 00 00 00 00 00 00 00 00 00 00 00 00 00 00 00 00 ................
0040DE10 00 00 00 00 00 00 00 00 00 00 00 00 00 00 00 00 ................
0040DE20 00 00 00 00 00 00 00 00 00 00 00 00 00 00 00 00 ................
0040DE30 00 00 00 00 00 00 00 00 00 00 00 00 00 00 00 00 ................
0040DE40 00 00 00 00 00 00 00 00 00 00 00 00 00 00 00 00 ................
0040DE50 00 00 00 00 00 00 00 00 00 00 00 00 00 00 00 00 ................
0040DE60 00 00 00 00 00 00 00 00 00 00 00 00 00 00 00 00 ................
0040DE70 00 00 00 00 00 00 00 00 00 00 00 00 00 00 00 00 ................
0040DE80 00 00 00 00 00 00 00 00 00 00 00 00 00 00 00 00 ................
0040DE90 00 00 00 00 00 00 00 00 00 00 00 00 00 00 00 00 ................
0040DEA0 00 00 00 00 00 00 00 00 00 00 00 00 00 00 00 00 ................
0040DEB0 00 00 00 00 00 00 00 00 00 00 00 00 00 00 00 00 ................
0040DEC0 00 00 00 00 00 00 00 00 00 00 00 00 00 00 00 00 ................
0040DED0 00 00 00 00 00 00 00 00 00 00 00 00 00 00 00 00 ................
0040DEE0 00 00 00 00 00 00 00 00 00 00 00 00 00 00 00 00 ................
0040DEF0 00 00 00 00 00 00 00 00 00 00 00 00 00 00 00 00 ................
0040DF00 00 00 00 00 00 00 00 00 00 00 00 00 00 00 00 00 ................
0040DF10 00 00 00 00 00 00 00 00 00 00 00 00 00 00 00 00 ................
0040DF20 00 00 00 00 00 00 00 00 00 00 00 00 00 00 00 00 ................
0040DF30 00 00 00 00 00 00 00 00 00 00 00 00 00 00 00 00 ................
0040DF40 00 00 00 00 00 00 00 00 00 00 00 00 00 00 00 00 ................
0040DF50 00 00 00 00 00 00 00 00 00 00 00 00 00 00 00 00 ................
0040DF60 00 00 00 00 00 00 00 00 00 00 00 00 00 00 00 00 ................
0040DF70 00 00 00 00 00 00 00 00 00 00 00 00 00 00 00 00 ................
0040DF80 00 00 00 00 00 00 00 00 00 00 00 00 00 00 00 00 ................
0040DF90 00 00 00 00 00 00 00 00 00 00 00 00 00 00 00 00 ................
0040DFA0 00 00 00 00 00 00 00 00 00 00 00 00 00 00 00 00 ................
0040DFB0 00 00 00 00 00 00 00 00 00 00 00 00 00 00 00 00 ................
0040DFC0 00 00 00 00 00 00 00 00 00 00 00 00 00 00 00 00 ................
0040DFD0 00 00 00 00 00 00 00 00 00 00 00 00 00 00 00 00 ................
0040DFE0 00 00 00 00 00 00 00 00 00 00 00 00 00 00 00 00 ................
0040DFF0 00 00 00 00 00 00 00 00 00 00 00 00 00 00 00 00 ................
0040E000 00 00 00 00 00 00 00 00 00 00 00 00 00 00 00 00 ................
0040E010 00 00 00 00 00 00 00 00 00 00 00 00 00 00 00 00 ................
0040E020 00 00 00 00 00 00 00 00 00 00 00 00 00 00 00 00 ................
0040E030 00 00 00 00 00 00 00 00 00 00 00 00 00 00 00 00 ................
0040E040 00 00 00 00 00 00 00 00 00 00 00 00 00 00 00 00 ................
0040E050 00 00 00 00 00 00 00 00 00 00 00 00 00 00 00 00 ................
0040E060 00 00 00 00 00 00 00 00 00 00 00 00 00 00 00 00 ................
0040E070 00 00 00 00 00 00 00 00 00 00 00 00 00 00 00 00 ................
0040E080 00 00 00 00 00 00 00 00 00 00 00 00 00 00 00 00 ................
0040E090 00 00 00 00 00 00 00 00 00 00 00 00 00 00 00 00 ................
0040E0A0 00 00 00 00 00 00 00 00 00 00 00 00 00 00 00 00 ................
0040E0B0 00 00 00 00 00 00 00 00 00 00 00 00 00 00 00 00 ................
0040E0C0 00 00 00 00 00 00 00 00 00 00 00 00 00 00 00 00 ................
0040E0D0 00 00 00 00 00 00 00 00 00 00 00 00 00 00 00 00 ................
0040E0E0 00 00 00 00 00 00 00 00 00 00 00 00 00 00 00 00 ................
0040E0F0 00 00 00 00 00 00 00 00 00 00 00 00 00 00 00 00 ................
0040E100 00 00 00 00 00 00 00 00 00 00 00 00 00 00 00 00 ................
0040E110 00 00 00 00 00 00 00 00 00 00 00 00 00 00 00 00 ................
0040E120 00 00 00 00 00 00 00 00 00 00 00 00 00 00 00 00 ................
0040E130 00 00 00 00 00 00 00 00 00 00 00 00 00 00 00 00 ................
0040E140 00 00 00 00 00 00 00 00 00 00 00 00 00 00 00 00 ................
0040E150 00 00 00 00 00 00 00 00 00 00 00 00 00 00 00 00 ................
0040E160 00 00 00 00 00 00 00 00 00 00 00 00 00 00 00 00 ................
0040E170 00 00 00 00 00 00 00 00 00 00 00 00 00 00 00 00 ................
0040E180 00 00 00 00 00 00 00 00 00 00 00 00 00 00 00 00 ................
0040E190 00 00 00 00 00 00 00 00 00 00 00 00 00 00 00 00 ................
0040E1A0 00 00 00 00 00 00 00 00 00 00 00 00 00 00 00 00 ................
0040E1B0 00 00 00 00 00 00 00 00 00 00 00 00 00 00 00 00 ................
0040E1C0 00 00 00 00 00 00 00 00 00 00 00 00 00 00 00 00 ................
0040E1D0 00 00 00 00 00 00 00 00 00 00 00 00 00 00 00 00 ................
0040E1E0 00 00 00 00 00 00 00 00 00 00 00 00 00 00 00 00 ................
0040E1F0 00 00 00 00 00 00 00 00 00 00 00 00 00 00 00 00 ................
0040E200 00 00 00 00 00 00 00 00 00 00 00 00 00 00 00 00 ................
0040E210 00 00 00 00 00 00 00 00 00 00 00 00 00 00 00 00 ................
0040E220 00 00 00 00 00 00 00 00 00 00 00 00 00 00 00 00 ................
0040E230 00 00 00 00 00 00 00 00 00 00 00 00 00 00 00 00 ................
0040E240 00 00 00 00 00 00 00 00 00 00 00 00 00 00 00 00 ................
0040E250 00 00 00 00 00 00 00 00 00 00 00 00 00 00 00 00 ................
0040E260 00 00 00 00 00 00 00 00 00 00 00 00 00 00 00 00 ................
0040E270 00 00 00 00 00 00 00 00 00 00 00 00 00 00 00 00 ................
0040E280 00 00 00 00 00 00 00 00 00 00 00 00 00 00 00 00 ................
0040E290 00 00 00 00 00 00 00 00 00 00 00 00 00 00 00 00 ................
0040E2A0 00 00 00 00 00 00 00 00 00 00 00 00 00 00 00 00 ................
0040E2B0 00 00 00 00 00 00 00 00 00 00 00 00 00 00 00 00 ................
0040E2C0 00 00 00 00 00 00 00 00 00 00 00 00 00 00 00 00 ................
0040E2D0 00 00 00 00 00 00 00 00 00 00 00 00 00 00 00 00 ................
0040E2E0 00 00 00 00 00 00 00 00 00 00 00 00 00 00 00 00 ................
0040E2F0 00 00 00 00 00 00 00 00 00 00 00 00 00 00 00 00 ................
0040E300 00 00 00 00 00 00 00 00 00 00 00 00 00 00 00 00 ................
0040E310 00 00 00 00 00 00 00 00 00 00 00 00 00 00 00 00 ................
0040E320 00 00 00 00 00 00 00 00 00 00 00 00 00 00 00 00 ................
0040E330 00 00 00 00 00 00 00 00 00 00 00 00 00 00 00 00 ................
0040E340 00 00 00 00 00 00 00 00 00 00 00 00 00 00 00 00 ................
0040E350 00 00 00 00 00 00 00 00 00 00 00 00 00 00 00 00 ................
0040E360 00 00 00 00 00 00 00 00 00 00 00 00 00 00 00 00 ................
0040E370 00 00 00 00 00 00 00 00 00 00 00 00 00 00 00 00 ................
0040E380 00 00 00 00 00 00 00 00 00 00 00 00 00 00 00 00 ................
0040E390 00 00 00 00 00 00 00 00 00 00 00 00 00 00 00 00 ................
0040E3A0 00 00 00 00 00 00 00 00 00 00 00 00 00 00 00 00 ................
0040E3B0 00 00 00 00 00 00 00 00 00 00 00 00 00 00 00 00 ................
0040E3C0 00 00 00 00 00 00 00 00 00 00 00 00 00 00 00 00 ................
0040E3D0 00 00 00 00 00 00 00 00 00 00 00 00 00 00 00 00 ................
0040E3E0 00 00 00 00 00 00 00 00 00 00 00 00 00 00 00 00 ................
0040E3F0 00 00 00 00 00 00 00 00 00 00 00 00 00 00 00 00 ................
0040E400 00 00 00 00 00 00 00 00 00 00 00 00 00 00 00 00 ................
0040E410 00 00 00 00 00 00 00 00 00 00 00 00 00 00 00 00 ................
0040E420 00 00 00 00 00 00 00 00 00 00 00 00 00 00 00 00 ................
0040E430 00 00 00 00 00 00 00 00 00 00 00 00 00 00 00 00 ................
0040E440 00 00 00 00 00 00 00 00 00 00 00 00 00 00 00 00 ................
0040E450 00 00 00 00 00 00 00 00 00 00 00 00 00 00 00 00 ................
0040E460 00 00 00 00 00 00 00 00 00 00 00 00 00 00 00 00 ................
0040E470 00 00 00 00 00 00 00 00 00 00 00 00 00 00 00 00 ................
0040E480 00 00 00 00 00 00 00 00 00 00 00 00 00 00 00 00 ................
0040E490 00 00 00 00 00 00 00 00 00 00 00 00 00 00 00 00 ................
0040E4A0 00 00 00 00 00 00 00 00 00 00 00 00 00 00 00 00 ................
0040E4B0 00 00 00 00 00 00 00 00 00 00 00 00 00 00 00 00 ................
0040E4C0 00 00 00 00 00 00 00 00 00 00 00 00 00 00 00 00 ................
0040E4D0 00 00 00 00 00 00 00 00 00 00 00 00 00 00 00 00 ................
0040E4E0 00 00 00 00 00 00 00 00 00 00 00 00 00 00 00 00 ................
0040E4F0 00 00 00 00 00 00 00 00 00 00 00 00 00 00 00 00 ................
0040E500 00 00 00 00 00 00 00 00 00 00 00 00 00 00 00 00 ................
0040E510 00 00 00 00 00 00 00 00 00 00 00 00 00 00 00 00 ................
0040E520 00 00 00 00 00 00 00 00 00 00 00 00 00 00 00 00 ................
0040E530 00 00 00 00 00 00 00 00 00 00 00 00 00 00 00 00 ................
0040E540 00 00 00 00 00 00 00 00 00 00 00 00 00 00 00 00 ................
0040E550 00 00 00 00 00 00 00 00 00 00 00 00 00 00 00 00 ................
0040E560 00 00 00 00 00 00 00 00 00 00 00 00 00 00 00 00 ................
0040E570 00 00 00 00 00 00 00 00 00 00 00 00 00 00 00 00 ................
0040E580 00 00 00 00 00 00 00 00 00 00 00 00 00 00 00 00 ................
0040E590 00 00 00 00 00 00 00 00 00 00 00 00 00 00 00 00 ................
0040E5A0 00 00 00 00 00 00 00 00 00 00 00 00 00 00 00 00 ................
0040E5B0 00 00 00 00 00 00 00 00 00 00 00 00 00 00 00 00 ................
0040E5C0 00 00 00 00 00 00 00 00 00 00 00 00 00 00 00 00 ................
0040E5D0 00 00 00 00 00 00 00 00 00 00 00 00 00 00 00 00 ................
0040E5E0 00 00 00 00 00 00 00 00 00 00 00 00 00 00 00 00 ................
0040E5F0 00 00 00 00 00 00 00 00 00 00 00 00 00 00 00 00 ................
0040E600 00 00 00 00 00 00 00 00 00 00 00 00 00 00 00 00 ................
0040E610 00 00 00 00 00 00 00 00 00 00 00 00 00 00 00 00 ................
0040E620 00 00 00 00 00 00 00 00 00 00 00 00 00 00 00 00 ................
0040E630 00 00 00 00 00 00 00 00 00 00 00 00 00 00 00 00 ................
0040E640 00 00 00 00 00 00 00 00 00 00 00 00 00 00 00 00 ................
0040E650 00 00 00 00 00 00 00 00 00 00 00 00 00 00 00 00 ................
0040E660 00 00 00 00 00 00 00 00 00 00 00 00 00 00 00 00 ................
0040E670 00 00 00 00 00 00 00 00 00 00 00 00 00 00 00 00 ................
0040E680 00 00 00 00 00 00 00 00 00 00 00 00 00 00 00 00 ................
0040E690 00 00 00 00 00 00 00 00 00 00 00 00 00 00 00 00 ................
0040E6A0 00 00 00 00 00 00 00 00 00 00 00 00 00 00 00 00 ................
0040E6B0 00 00 00 00 00 00 00 00 00 00 00 00 00 00 00 00 ................
0040E6C0 00 00 00 00 00 00 00 00 00 00 00 00 00 00 00 00 ................
0040E6D0 00 00 00 00 00 00 00 00 00 00 00 00 00 00 00 00 ................
0040E6E0 00 00 00 00 00 00 00 00 00 00 00 00 00 00 00 00 ................
0040E6F0 00 00 00 00 00 00 00 00 00 00 00 00 00 00 00 00 ................
0040E700 00 00 00 00 00 00 00 00 00 00 00 00 00 00 00 00 ................
0040E710 00 00 00 00 00 00 00 00 00 00 00 00 00 00 00 00 ................
0040E720 00 00 00 00 00 00 00 00 00 00 00 00 00 00 00 00 ................
0040E730 00 00 00 00 00 00 00 00 00 00 00 00 00 00 00 00 ................
0040E740 00 00 00 00 00 00 00 00 00 00 00 00 00 00 00 00 ................
0040E750 00 00 00 00 00 00 00 00 00 00 00 00 00 00 00 00 ................
0040E760 00 00 00 00 00 00 00 00 00 00 00 00 00 00 00 00 ................
0040E770 00 00 00 00 00 00 00 00 00 00 00 00 00 00 00 00 ................
0040E780 00 00 00 00 00 00 00 00 00 00 00 00 00 00 00 00 ................
0040E790 00 00 00 00 00 00 00 00 00 00 00 00 00 00 00 00 ................
0040E7A0 00 00 00 00 00 00 00 00 00 00 00 00 00 00 00 00 ................
0040E7B0 00 00 00 00 00 00 00 00 00 00 00 00 00 00 00 00 ................
0040E7C0 00 00 00 00 00 00 00 00 00 00 00 00 00 00 00 00 ................
0040E7D0 00 00 00 00 00 00 00 00 00 00 00 00 00 00 00 00 ................
0040E7E0 00 00 00 00 00 00 00 00 00 00 00 00 00 00 00 00 ................
0040E7F0 00 00 00 00 00 00 00 00 00 00 00 00 00 00 00 00 ................
0040E800 00 00 00 00 00 00 00 00 00 00 00 00 00 00 00 00 ................
0040E810 00 00 00 00 00 00 00 00 00 00 00 00 00 00 00 00 ................
0040E820 00 00 00 00 00 00 00 00 00 00 00 00 00 00 00 00 ................
0040E830 00 00 00 00 00 00 00 00 00 00 00 00 00 00 00 00 ................
0040E840 00 00 00 00 00 00 00 00 00 00 00 00 00 00 00 00 ................
0040E850 00 00 00 00 00 00 00 00 00 00 00 00 00 00 00 00 ................
0040E860 00 00 00 00 00 00 00 00 00 00 00 00 00 00 00 00 ................
0040E870 00 00 00 00 00 00 00 00 00 00 00 00 00 00 00 00 ................
0040E880 00 00 00 00 00 00 00 00 00 00 00 00 00 00 00 00 ................
0040E890 00 00 00 00 00 00 00 00 00 00 00 00 00 00 00 00 ................
0040E8A0 00 00 00 00 00 00 00 00 00 00 00 00 00 00 00 00 ................
0040E8B0 00 00 00 00 00 00 00 00 00 00 00 00 00 00 00 00 ................
0040E8C0 00 00 00 00 00 00 00 00 00 00 00 00 00 00 00 00 ................
0040E8D0 00 00 00 00 00 00 00 00 00 00 00 00 00 00 00 00 ................
0040E8E0 00 00 00 00 00 00 00 00 00 00 00 00 00 00 00 00 ................
0040E8F0 00 00 00 00 00 00 00 00 00 00 00 00 00 00 00 00 ................
0040E900 00 00 00 00 00 00 00 00 00 00 00 00 00 00 00 00 ................
0040E910 00 00 00 00 00 00 00 00 00 00 00 00 00 00 00 00 ................
0040E920 00 00 00 00 00 00 00 00 00 00 00 00 00 00 00 00 ................
0040E930 00 00 00 00 00 00 00 00 00 00 00 00 00 00 00 00 ................
0040E940 00 00 00 00 00 00 00 00 00 00 00 00 00 00 00 00 ................
0040E950 00 00 00 00 00 00 00 00 00 00 00 00 00 00 00 00 ................
0040E960 00 00 00 00 00 00 00 00 00 00 00 00 00 00 00 00 ................
0040E970 00 00 00 00 00 00 00 00 00 00 00 00 00 00 00 00 ................
0040E980 00 00 00 00 00 00 00 00 00 00 00 00 00 00 00 00 ................
0040E990 00 00 00 00 00 00 00 00 00 00 00 00 00 00 00 00 ................
0040E9A0 00 00 00 00 00 00 00 00 00 00 00 00 00 00 00 00 ................
0040E9B0 00 00 00 00 00 00 00 00 00 00 00 00 00 00 00 00 ................
0040E9C0 00 00 00 00 00 00 00 00 00 00 00 00 00 00 00 00 ................
0040E9D0 00 00 00 00 00 00 00 00 00 00 00 00 00 00 00 00 ................
0040E9E0 00 00 00 00 00 00 00 00 00 00 00 00 00 00 00 00 ................
0040E9F0 00 00 00 00 00 00 00 00 00 00 00 00 00 00 00 00 ................
0040EA00 00 00 00 00 00 00 00 00 00 00 00 00 00 00 00 00 ................
0040EA10 00 00 00 00 00 00 00 00 00 00 00 00 00 00 00 00 ................
0040EA20 00 00 00 00 00 00 00 00 00 00 00 00 00 00 00 00 ................
0040EA30 00 00 00 00 00 00 00 00 00 00 00 00 00 00 00 00 ................
0040EA40 00 00 00 00 00 00 00 00 00 00 00 00 00 00 00 00 ................
0040EA50 00 00 00 00 00 00 00 00 00 00 00 00 00 00 00 00 ................
0040EA60 00 00 00 00 00 00 00 00 00 00 00 00 00 00 00 00 ................
0040EA70 00 00 00 00 00 00 00 00 00 00 00 00 00 00 00 00 ................
0040EA80 00 00 00 00 00 00 00 00 00 00 00 00 00 00 00 00 ................
0040EA90 00 00 00 00 00 00 00 00 00 00 00 00 00 00 00 00 ................
0040EAA0 00 00 00 00 00 00 00 00 00 00 00 00 00 00 00 00 ................
0040EAB0 00 00 00 00 00 00 00 00 00 00 00 00 00 00 00 00 ................
0040EAC0 00 00 00 00 00 00 00 00 00 00 00 00 00 00 00 00 ................
0040EAD0 00 00 00 00 00 00 00 00 00 00 00 00 00 00 00 00 ................
0040EAE0 00 00 00 00 00 00 00 00 00 00 00 00 00 00 00 00 ................
0040EAF0 00 00 00 00 00 00 00 00 00 00 00 00 00 00 00 00 ................
0040EB00 00 00 00 00 00 00 00 00 00 00 00 00 00 00 00 00 ................
0040EB10 00 00 00 00 00 00 00 00 00 00 00 00 00 00 00 00 ................
0040EB20 00 00 00 00 00 00 00 00 00 00 00 00 00 00 00 00 ................
0040EB30 00 00 00 00 00 00 00 00 00 00 00 00 00 00 00 00 ................
0040EB40 00 00 00 00 00 00 00 00 00 00 00 00 00 00 00 00 ................
0040EB50 00 00 00 00 00 00 00 00 00 00 00 00 00 00 00 00 ................
0040EB60 00 00 00 00 00 00 00 00 00 00 00 00 00 00 00 00 ................
0040EB70 00 00 00 00 00 00 00 00 00 00 00 00 00 00 00 00 ................
0040EB80 00 00 00 00 00 00 00 00 00 00 00 00 00 00 00 00 ................
0040EB90 00 00 00 00 00 00 00 00 00 00 00 00 00 00 00 00 ................
0040EBA0 00 00 00 00 00 00 00 00 00 00 00 00 00 00 00 00 ................
0040EBB0 00 00 00 00 00 00 00 00 00 00 00 00 00 00 00 00 ................
0040EBC0 00 00 00 00 00 00 00 00 00 00 00 00 00 00 00 00 ................
0040EBD0 00 00 00 00 00 00 00 00 00 00 00 00 00 00 00 00 ................
0040EBE0 00 00 00 00 00 00 00 00 00 00 00 00 00 00 00 00 ................
0040EBF0 00 00 00 00 00 00 00 00 00 00 00 00 00 00 00 00 ................
0040EC00 00 00 00 00 00 00 00 00 00 00 00 00 00 00 00 00 ................
0040EC10 00 00 00 00 00 00 00 00 00 00 00 00 00 00 00 00 ................
0040EC20 00 00 00 00 00 00 00 00 00 00 00 00 00 00 00 00 ................
0040EC30 00 00 00 00 00 00 00 00 00 00 00 00 00 00 00 00 ................
0040EC40 00 00 00 00 00 00 00 00 00 00 00 00 00 00 00 00 ................
0040EC50 00 00 00 00 00 00 00 00 00 00 00 00 00 00 00 00 ................
0040EC60 00 00 00 00 00 00 00 00 00 00 00 00 00 00 00 00 ................
0040EC70 00 00 00 00 00 00 00 00 00 00 00 00 00 00 00 00 ................
0040EC80 00 00 00 00 00 00 00 00 00 00 00 00 00 00 00 00 ................
0040EC90 00 00 00 00 00 00 00 00 00 00 00 00 00 00 00 00 ................
0040ECA0 00 00 00 00 00 00 00 00 00 00 00 00 00 00 00 00 ................
0040ECB0 00 00 00 00 00 00 00 00 00 00 00 00 00 00 00 00 ................
0040ECC0 00 00 00 00 00 00 00 00 00 00 00 00 00 00 00 00 ................
0040ECD0 00 00 00 00 00 00 00 00 00 00 00 00 00 00 00 00 ................
0040ECE0 00 00 00 00 00 00 00 00 00 00 00 00 00 00 00 00 ................
0040ECF0 00 00 00 00 00 00 00 00 00 00 00 00 00 00 00 00 ................
0040ED00 00 00 00 00 00 00 00 00 00 00 00 00 00 00 00 00 ................
0040ED10 00 00 00 00 00 00 00 00 00 00 00 00 00 00 00 00 ................
0040ED20 00 00 00 00 00 00 00 00 00 00 00 00 00 00 00 00 ................
0040ED30 00 00 00 00 00 00 00 00 00 00 00 00 00 00 00 00 ................
0040ED40 00 00 00 00 00 00 00 00 00 00 00 00 00 00 00 00 ................
0040ED50 00 00 00 00 00 00 00 00 00 00 00 00 00 00 00 00 ................
0040ED60 00 00 00 00 00 00 00 00 00 00 00 00 00 00 00 00 ................
0040ED70 00 00 00 00 00 00 00 00 00 00 00 00 00 00 00 00 ................
0040ED80 00 00 00 00 00 00 00 00 00 00 00 00 00 00 00 00 ................
0040ED90 00 00 00 00 00 00 00 00 00 00 00 00 00 00 00 00 ................
0040EDA0 00 00 00 00 00 00 00 00 00 00 00 00 00 00 00 00 ................
0040EDB0 00 00 00 00 00 00 00 00 00 00 00 00 00 00 00 00 ................
0040EDC0 00 00 00 00 00 00 00 00 00 00 00 00 00 00 00 00 ................
0040EDD0 00 00 00 00 00 00 00 00 00 00 00 00 00 00 00 00 ................
0040EDE0 00 00 00 00 00 00 00 00 00 00 00 00 00 00 00 00 ................
0040EDF0 00 00 00 00 00 00 00 00 00 00 00 00 00 00 00 00 ................
0040EE00 00 00 00 00 00 00 00 00 00 00 00 00 00 00 00 00 ................
0040EE10 00 00 00 00 00 00 00 00 00 00 00 00 00 00 00 00 ................
0040EE20 00 00 00 00 00 00 00 00 00 00 00 00 00 00 00 00 ................
0040EE30 00 00 00 00 00 00 00 00 00 00 00 00 00 00 00 00 ................
0040EE40 00 00 00 00 00 00 00 00 00 00 00 00 00 00 00 00 ................
0040EE50 00 00 00 00 00 00 00 00 00 00 00 00 00 00 00 00 ................
0040EE60 00 00 00 00 00 00 00 00 00 00 00 00 00 00 00 00 ................
0040EE70 00 00 00 00 00 00 00 00 00 00 00 00 00 00 00 00 ................
0040EE80 00 00 00 00 00 00 00 00 00 00 00 00 00 00 00 00 ................
0040EE90 00 00 00 00 00 00 00 00 00 00 00 00 00 00 00 00 ................
0040EEA0 00 00 00 00 00 00 00 00 00 00 00 00 00 00 00 00 ................
0040EEB0 00 00 00 00 00 00 00 00 00 00 00 00 00 00 00 00 ................
0040EEC0 00 00 00 00 00 00 00 00 00 00 00 00 00 00 00 00 ................
0040EED0 00 00 00 00 00 00 00 00 00 00 00 00 00 00 00 00 ................
0040EEE0 00 00 00 00 00 00 00 00 00 00 00 00 00 00 00 00 ................
0040EEF0 00 00 00 00 00 00 00 00 00 00 00 00 00 00 00 00 ................
0040EF00 00 00 00 00 00 00 00 00 00 00 00 00 00 00 00 00 ................
0040EF10 00 00 00 00 00 00 00 00 00 00 00 00 00 00 00 00 ................
0040EF20 00 00 00 00 00 00 00 00 00 00 00 00 00 00 00 00 ................
0040EF30 00 00 00 00 00 00 00 00 00 00 00 00 00 00 00 00 ................
0040EF40 00 00 00 00 00 00 00 00 00 00 00 00 00 00 00 00 ................
0040EF50 00 00 00 00 00 00 00 00 00 00 00 00 00 00 00 00 ................
0040EF60 00 00 00 00 00 00 00 00 00 00 00 00 00 00 00 00 ................
0040EF70 00 00 00 00 00 00 00 00 00 00 00 00 00 00 00 00 ................
0040EF80 00 00 00 00 00 00 00 00 00 00 00 00 00 00 00 00 ................
0040EF90 00 00 00 00 00 00 00 00 00 00 00 00 00 00 00 00 ................
0040EFA0 00 00 00 00 00 00 00 00 00 00 00 00 00 00 00 00 ................
0040EFB0 00 00 00 00 00 00 00 00 00 00 00 00 00 00 00 00 ................
0040EFC0 00 00 00 00 00 00 00 00 00 00 00 00 00 00 00 00 ................
0040EFD0 00 00 00 00 00 00 00 00 00 00 00 00 00 00 00 00 ................
0040EFE0 00 00 00 00 00 00 00 00 00 00 00 00 00 00 00 00 ................
0040EFF0 00 00 00 00 00 00 00 00 00 00 00 00 00 00 00 00 ................
0040F000 F8 F2 00 00 0E F3 00 00 1E F3 00 00 30 F3 00 00 ............0...
0040F010 42 F3 00 00 52 F3 00 00 62 F3 00 00 7A F3 00 00 B...R...b...z...
0040F020 8A F3 00 00 96 F3 00 00 B2 F3 00 00 BE F3 00 00 ................
0040F030 CC F3 00 00 DE F3 00 00 F0 F3 00 00 04 F4 00 00 ................
0040F040 10 F4 00 00 28 F4 00 00 34 F4 00 00 4A F4 00 00 ....(...4...J...
0040F050 58 F4 00 00 66 F4 00 00 7E F4 00 00 8A F4 00 00 X...f...~.......
0040F060 98 F4 00 00 A0 F4 00 00 B6 F4 00 00 C6 F4 00 00 ................
0040F070 D2 F4 00 00 DE F4 00 00 F2 F4 00 00 0A F5 00 00 ................
0040F080 18 F5 00 00 24 F5 00 00 34 F5 00 00 40 F5 00 00 ....$...4...@...
0040F090 00 00 00 00 62 F5 00 00 70 F5 00 00 7C F5 00 00 ....b...p...|...
0040F0A0 8A F5 00 00 98 F5 00 00 A6 F5 00 00 B2 F5 00 00 ................
0040F0B0 C6 F5 00 00 D8 F5 00 00 EA F5 00 00 F6 F5 00 00 ................
0040F0C0 04 F6 00 00 12 F6 00 00 1E F6 00 00 2C F6 00 00 ............,...
0040F0D0 3A F6 00 00 46 F6 00 00 52 F6 00 00 66 F6 00 00 :...F...R...f...
0040F0E0 70 F6 00 00 84 F6 00 00 92 F6 00 00 A8 F6 00 00 p...............
0040F0F0 B4 F6 00 00 C4 F6 00 00 D8 F6 00 00 E4 F6 00 00 ................
0040F100 F2 F6 00 00 02 F7 00 00 14 F7 00 00 22 F7 00 00 ............"...
0040F110 32 F7 00 00 44 F7 00 00 52 F7 00 00 5E F7 00 00 2...D...R...^...
0040F120 6A F7 00 00 7E F7 00 00 8C F7 00 00 A0 F7 00 00 j...~...........
0040F130 AA F7 00 00 BA F7 00 00 CA F7 00 00 DC F7 00 00 ................
0040F140 EC F7 00 00 00 F8 00 00 0C F8 00 00 18 F8 00 00 ................
0040F150 24 F8 00 00 34 F8 00 00 00 00 00 00 00 00 00 00 $...4...........
0040F160 9C F1 00 00 00 00 00 00 00 00 00 00 54 F5 00 00 ............T...
0040F170 00 F0 00 00 30 F2 00 00 00 00 00 00 00 00 00 00 ....0...........
0040F180 46 F8 00 00 94 F0 00 00 00 00 00 00 00 00 00 00 F...............
0040F190 00 00 00 00 00 00 00 00 00 00 00 00 F8 F2 00 00 ................
0040F1A0 0E F3 00 00 1E F3 00 00 30 F3 00 00 42 F3 00 00 ........0...B...
0040F1B0 52 F3 00 00 62 F3 00 00 7A F3 00 00 8A F3 00 00 R...b...z.......
0040F1C0 96 F3 00 00 B2 F3 00 00 BE F3 00 00 CC F3 00 00 ................
0040F1D0 DE F3 00 00 F0 F3 00 00 04 F4 00 00 10 F4 00 00 ................
0040F1E0 28 F4 00 00 34 F4 00 00 4A F4 00 00 58 F4 00 00 (...4...J...X...
0040F1F0 66 F4 00 00 7E F4 00 00 8A F4 00 00 98 F4 00 00 f...~...........
0040F200 A0 F4 00 00 B6 F4 00 00 C6 F4 00 00 D2 F4 00 00 ................
0040F210 DE F4 00 00 F2 F4 00 00 0A F5 00 00 18 F5 00 00 ................
0040F220 24 F5 00 00 34 F5 00 00 40 F5 00 00 00 00 00 00 $...4...@.......
0040F230 62 F5 00 00 70 F5 00 00 7C F5 00 00 8A F5 00 00 b...p...|.......
0040F240 98 F5 00 00 A6 F5 00 00 B2 F5 00 00 C6 F5 00 00 ................
0040F250 D8 F5 00 00 EA F5 00 00 F6 F5 00 00 04 F6 00 00 ................
0040F260 12 F6 00 00 1E F6 00 00 2C F6 00 00 3A F6 00 00 ........,...:...
0040F270 46 F6 00 00 52 F6 00 00 66 F6 00 00 70 F6 00 00 F...R...f...p...
0040F280 84 F6 00 00 92 F6 00 00 A8 F6 00 00 B4 F6 00 00 ................
0040F290 C4 F6 00 00 D8 F6 00 00 E4 F6 00 00 F2 F6 00 00 ................
0040F2A0 02 F7 00 00 14 F7 00 00 22 F7 00 00 32 F7 00 00 ........"...2...
0040F2B0 44 F7 00 00 52 F7 00 00 5E F7 00 00 6A F7 00 00 D...R...^...j...
0040F2C0 7E F7 00 00 8C F7 00 00 A0 F7 00 00 AA F7 00 00 ~...............
0040F2D0 BA F7 00 00 CA F7 00 00 DC F7 00 00 EC F7 00 00 ................
0040F2E0 00 F8 00 00 0C F8 00 00 18 F8 00 00 24 F8 00 00 ............$...
0040F2F0 34 F8 00 00 00 00 00 00 23 00 4D 75 6C 74 69 42 4.......#.MultiB
0040F300 79 74 65 54 6F 57 69 64 65 43 68 61 72 00 24 00 yteToWideChar.$.
0040F310 56 69 72 74 75 61 6C 41 6C 6C 6F 63 00 00 25 00 VirtualAlloc..%.
0040F320 47 65 74 43 6F 6D 6D 61 6E 64 4C 69 6E 65 57 00 GetCommandLineW.
0040F330 27 00 53 65 74 46 69 6C 65 50 6F 69 6E 74 65 72 '.SetFilePointer
0040F340 00 00 28 00 56 69 72 74 75 61 6C 41 6C 6C 6F 63 ..(.VirtualAlloc
0040F350 00 00 2E 00 56 69 72 74 75 61 6C 41 6C 6C 6F 63 ....VirtualAlloc
0040F360 00 00 31 00 49 6E 74 65 72 6C 6F 63 6B 65 64 44 ..1.InterlockedD
0040F370 65 63 72 65 6D 65 6E 74 00 00 32 00 56 69 72 74 ecrement..2.Virt
0040F380 75 61 6C 41 6C 6C 6F 63 00 00 35 00 52 65 61 64 ualAlloc..5.Read
0040F390 46 69 6C 65 00 00 37 00 55 6E 68 61 6E 64 6C 65 File..7.Unhandle
0040F3A0 64 45 78 63 65 70 74 69 6F 6E 46 69 6C 74 65 72 dExceptionFilter
0040F3B0 00 00 3A 00 6C 73 74 72 6C 65 6E 57 00 00 40 00 ..:.lstrlenW..@.
0040F3C0 46 72 65 65 4C 69 62 72 61 72 79 00 44 00 47 65 FreeLibrary.D.Ge
0040F3D0 74 43 6F 6D 6D 61 6E 64 4C 69 6E 65 41 00 48 00 tCommandLineA.H.
0040F3E0 53 65 74 46 69 6C 65 50 6F 69 6E 74 65 72 00 00 SetFilePointer..
0040F3F0 4C 00 54 65 72 6D 69 6E 61 74 65 50 72 6F 63 65 L.TerminateProce
0040F400 73 73 00 00 51 00 6C 73 74 72 63 70 79 57 00 00 ss..Q.lstrcpyW..
0040F410 57 00 44 65 6C 65 74 65 43 72 69 74 69 63 61 6C W.DeleteCritical
0040F420 53 65 63 74 69 6F 6E 00 58 00 48 65 61 70 46 72 Section.X.HeapFr
0040F430 65 65 00 00 5B 00 47 65 74 43 75 72 72 65 6E 74 ee..[.GetCurrent
0040F440 54 68 72 65 61 64 49 64 00 00 61 00 48 65 61 70 ThreadId..a.Heap
0040F450 44 65 73 74 72 6F 79 00 64 00 48 65 61 70 52 65 Destroy.d.HeapRe
0040F460 41 6C 6C 6F 63 00 68 00 49 6E 74 65 72 6C 6F 63 Alloc.h.Interloc
0040F470 6B 65 64 49 6E 63 72 65 6D 65 6E 74 00 00 6E 00 kedIncrement..n.
0040F480 48 65 61 70 46 72 65 65 00 00 73 00 46 72 65 65 HeapFree..s.Free
0040F490 4C 69 62 72 61 72 79 00 76 00 53 6C 65 65 70 00 Library.v.Sleep.
0040F4A0 7A 00 47 65 74 4D 6F 64 75 6C 65 46 69 6C 65 4E z.GetModuleFileN
0040F4B0 61 6D 65 41 00 00 7D 00 56 69 72 74 75 61 6C 41 ameA..}.VirtualA
0040F4C0 6C 6C 6F 63 00 00 80 00 6C 73 74 72 6C 65 6E 57 lloc....lstrlenW
0040F4D0 00 00 86 00 6C 73 74 72 63 6D 70 69 57 00 89 00 ....lstrcmpiW...
0040F4E0 47 65 74 4D 6F 64 75 6C 65 48 61 6E 64 6C 65 57 GetModuleHandleW
0040F4F0 00 00 8B 00 45 6E 74 65 72 43 72 69 74 69 63 61 ....EnterCritica
0040F500 6C 53 65 63 74 69 6F 6E 00 00 8F 00 45 78 69 74 lSection....Exit
0040F510 50 72 6F 63 65 73 73 00 93 00 48 65 61 70 46 72 Process...HeapFr
0040F520 65 65 00 00 96 00 47 65 74 4C 61 73 74 45 72 72 ee....GetLastErr
0040F530 6F 72 00 00 9B 00 6C 73 74 72 63 70 79 57 00 00 or....lstrcpyW..
0040F540 9E 00 47 65 74 43 75 72 72 65 6E 74 50 72 6F 63 ..GetCurrentProc
0040F550 65 73 73 00 4B 45 52 4E 45 4C 33 32 2E 44 4C 4C ess.KERNEL32.DLL
0040F560 00 00 00 00 4C 6F 61 64 53 74 72 69 6E 67 41 00 ....LoadStringA.
0040F570 03 00 4C 6F 61 64 49 63 6F 6E 57 00 06 00 44 65 ..LoadIconW...De
0040F580 73 74 72 6F 79 49 63 6F 6E 00 0A 00 4C 6F 61 64 stroyIcon...Load
0040F590 43 75 72 73 6F 72 57 00 0F 00 46 69 6E 64 57 69 CursorW...FindWi
0040F5A0 6E 64 6F 77 57 00 14 00 4C 6F 61 64 49 63 6F 6E ndowW...LoadIcon
0040F5B0 57 00 17 00 4C 6F 61 64 41 63 63 65 6C 65 72 61 W...LoadAccelera
0040F5C0 74 6F 72 73 57 00 19 00 45 6E 61 62 6C 65 4D 65 torsW...EnableMe
0040F5D0 6E 75 49 74 65 6D 00 00 1A 00 43 61 6C 6C 57 69 nuItem....CallWi
0040F5E0 6E 64 6F 77 50 72 6F 63 57 00 1D 00 47 65 74 57 ndowProcW...GetW
0040F5F0 69 6E 64 6F 77 00 23 00 47 65 74 4B 65 79 53 74 indow.#.GetKeySt
0040F600 61 74 65 00 29 00 47 65 74 4D 65 73 73 61 67 65 ate.).GetMessage
0040F610 57 00 2B 00 4C 6F 61 64 49 63 6F 6E 57 00 2D 00 W.+.LoadIconW.-.
0040F620 47 65 74 4D 65 73 73 61 67 65 57 00 32 00 4C 6F GetMessageW.2.Lo
0040F630 61 64 53 74 72 69 6E 67 57 00 34 00 50 74 49 6E adStringW.4.PtIn
0040F640 52 65 63 74 00 00 36 00 77 73 70 72 69 6E 74 66 Rect..6.wsprintf
0040F650 57 00 37 00 52 65 67 69 73 74 65 72 43 6C 61 73 W.7.RegisterClas
0040F660 73 45 78 57 00 00 3B 00 47 65 74 4D 65 6E 75 00 sExW..;.GetMenu.
0040F670 3F 00 54 72 61 6E 73 6C 61 74 65 4D 65 73 73 61 ?.TranslateMessa
0040F680 67 65 00 00 42 00 47 65 74 44 6C 67 49 74 65 6D ge..B.GetDlgItem
0040F690 00 00 48 00 43 72 65 61 74 65 44 69 61 6C 6F 67 ..H.CreateDialog
0040F6A0 50 61 72 61 6D 57 00 00 4C 00 57 69 6E 48 65 6C ParamW..L.WinHel
0040F6B0 70 57 00 00 52 00 50 65 65 6B 4D 65 73 73 61 67 pW..R.PeekMessag
0040F6C0 65 57 00 00 58 00 52 65 67 69 73 74 65 72 43 6C eW..X.RegisterCl
0040F6D0 61 73 73 45 78 57 00 00 5B 00 46 69 6C 6C 52 65 assExW..[.FillRe
0040F6E0 63 74 00 00 61 00 53 65 74 43 61 70 74 75 72 65 ct..a.SetCapture
0040F6F0 00 00 64 00 47 65 74 43 75 72 73 6F 72 50 6F 73 ..d.GetCursorPos
0040F700 00 00 66 00 53 63 72 65 65 6E 54 6F 43 6C 69 65 ..f.ScreenToClie
0040F710 6E 74 00 00 6B 00 44 65 73 74 72 6F 79 49 63 6F nt..k.DestroyIco
0040F720 6E 00 6D 00 47 65 74 44 6C 67 43 74 72 6C 49 44 n.m.GetDlgCtrlID
0040F730 00 00 70 00 45 6E 61 62 6C 65 4D 65 6E 75 49 74 ..p.EnableMenuIt
0040F740 65 6D 00 00 74 00 4C 6F 61 64 53 74 72 69 6E 67 em..t.LoadString
0040F750 57 00 75 00 77 73 70 72 69 6E 74 66 57 00 7B 00 W.u.wsprintfW.{.
0040F760 49 73 57 69 6E 64 6F 77 00 00 7C 00 44 69 73 70 IsWindow..|.Disp
0040F770 61 74 63 68 4D 65 73 73 61 67 65 41 00 00 81 00 atchMessageA....
0040F780 4D 65 73 73 61 67 65 42 6F 78 57 00 83 00 47 65 MessageBoxW...Ge
0040F790 74 53 79 73 74 65 6D 4D 65 74 72 69 63 73 00 00 tSystemMetrics..
0040F7A0 87 00 53 65 74 52 65 63 74 00 88 00 55 70 64 61 ..SetRect...Upda
0040F7B0 74 65 57 69 6E 64 6F 77 00 00 8C 00 47 65 74 43 teWindow....GetC
0040F7C0 75 72 73 6F 72 50 6F 73 00 00 90 00 52 65 67 69 ursorPos....Regi
0040F7D0 73 74 65 72 43 6C 61 73 73 57 00 00 92 00 50 65 sterClassW....Pe
0040F7E0 65 6B 4D 65 73 73 61 67 65 57 00 00 96 00 52 65 ekMessageW....Re
0040F7F0 67 69 73 74 65 72 43 6C 61 73 73 45 78 57 00 00 gisterClassExW..
0040F800 99 00 77 73 70 72 69 6E 74 66 57 00 9F 00 49 73 ..wsprintfW...Is
0040F810 57 69 6E 64 6F 77 00 00 A5 00 53 65 74 46 6F 63 Window....SetFoc
0040F820 75 73 00 00 A8 00 55 70 64 61 74 65 57 69 6E 64 us....UpdateWind
0040F830 6F 77 00 00 A9 00 49 6E 76 61 6C 69 64 61 74 65 ow....Invalidate
0040F840 52 65 63 74 00 00 55 53 45 52 33 32 2E 44 4C 4C Rect..USER32.DLL
0040F850 00 00 00 00 00 00 00 00 00 00 00 00 00 00 00 00 ................
0040F860 00 00 00 00 00 00 00 00 00 00 00 00 00 00 00 00 ................
0040F870 00 00 00 00 00 00 00 00 00 00 00 00 00 00 00 00 ................
0040F880 00 00 00 00 00 00 00 00 00 00 00 00 00 00 00 00 ................
0040F890 00 00 00 00 00 00 00 00 00 00 00 00 00 00 00 00 ................
0040F8A0 00 00 00 00 00 00 00 00 00 00 00 00 00 00 00 00 ................
0040F8B0 00 00 00 00 00 00 00 00 00 00 00 00 00 00 00 00 ................
0040F8C0 00 00 00 00 00 00 00 00 00 00 00 00 00 00 00 00 ................
0040F8D0 00 00 00 00 00 00 00 00 00 00 00 00 00 00 00 00 ................
0040F8E0 00 00 00 00 00 00 00 00 00 00 00 00 00 00 00 00 ................
0040F8F0 00 00 00 00 00 00 00 00 00 00 00 00 00 00 00 00 ................
0040F900 00 00 00 00 00 00 00 00 00 00 00 00 00 00 00 00 ................
0040F910 00 00 00 00 00 00 00 00 00 00 00 00 00 00 00 00 ................
0040F920 00 00 00 00 00 00 00 00 00 00 00 00 00 00 00 00 ................
0040F930 00 00 00 00 00 00 00 00 00 00 00 00 00 00 00 00 ................
0040F940 00 00 00 00 00 00 00 00 00 00 00 00 00 00 00 00 ................
0040F950 00 00 00 00 00 00 00 00 00 00 00 00 00 00 00 00 ................
0040F960 00 00 00 00 00 00 00 00 00 00 00 00 00 00 00 00 ................
0040F970 00 00 00 00 00 00 00 00 00 00 00 00 00 00 00 00 ................
0040F980 00 00 00 00 00 00 00 00 00 00 00 00 00 00 00 00 ................
0040F990 00 00 00 00 00 00 00 00 00 00 00 00 00 00 00 00 ................
0040F9A0 00 00 00 00 00 00 00 00 00 00 00 00 00 00 00 00 ................
0040F9B0 00 00 00 00 00 00 00 00 00 00 00 00 00 00 00 00 ................
0040F9C0 00 00 00 00 00 00 00 00 00 00 00 00 00 00 00 00 ................
0040F9D0 00 00 00 00 00 00 00 00 00 00 00 00 00 00 00 00 ................
0040F9E0 00 00 00 00 00 00 00 00 00 00 00 00 00 00 00 00 ................
0040F9F0 00 00 00 00 00 00 00 00 00 00 00 00 00 00 00 00 ................
0040FA00 00 00 00 00 00 00 00 00 00 00 00 00 00 00 00 00 ................
0040FA10 00 00 00 00 00 00 00 00 00 00 00 00 00 00 00 00 ................
0040FA20 00 00 00 00 00 00 00 00 00 00 00 00 00 00 00 00 ................
0040FA30 00 00 00 00 00 00 00 00 00 00 00 00 00 00 00 00 ................
0040FA40 00 00 00 00 00 00 00 00 00 00 00 00 00 00 00 00 ................
0040FA50 00 00 00 00 00 00 00 00 00 00 00 00 00 00 00 00 ................
0040FA60 00 00 00 00 00 00 00 00 00 00 00 00 00 00 00 00 ................
0040FA70 00 00 00 00 00 00 00 00 00 00 00 00 00 00 00 00 ................
0040FA80 00 00 00 00 00 00 00 00 00 00 00 00 00 00 00 00 ................
0040FA90 00 00 00 00 00 00 00 00 00 00 00 00 00 00 00 00 ................
0040FAA0 00 00 00 00 00 00 00 00 00 00 00 00 00 00 00 00 ................
0040FAB0 00 00 00 00 00 00 00 00 00 00 00 00 00 00 00 00 ................
0040FAC0 00 00 00 00 00 00 00 00 00 00 00 00 00 00 00 00 ................
0040FAD0 00 00 00 00 00 00 00 00 00 00 00 00 00 00 00 00 ................
0040FAE0 00 00 00 00 00 00 00 00 00 00 00 00 00 00 00 00 ................
0040FAF0 00 00 00 00 00 00 00 00 00 00 00 00 00 00 00 00 ................
0040FB00 00 00 00 00 00 00 00 00 00 00 00 00 00 00 00 00 ................
0040FB10 00 00 00 00 00 00 00 00 00 00 00 00 00 00 00 00 ................
0040FB20 00 00 00 00 00 00 00 00 00 00 00 00 00 00 00 00 ................
0040FB30 00 00 00 00 00 00 00 00 00 00 00 00 00 00 00 00 ................
0040FB40 00 00 00 00 00 00 00 00 00 00 00 00 00 00 00 00 ................
0040FB50 00 00 00 00 00 00 00 00 00 00 00 00 00 00 00 00 ................
0040FB60 00 00 00 00 00 00 00 00 00 00 00 00 00 00 00 00 ................
0040FB70 00 00 00 00 00 00 00 00 00 00 00 00 00 00 00 00 ................
0040FB80 00 00 00 00 00 00 00 00 00 00 00 00 00 00 00 00 ................
0040FB90 00 00 00 00 00 00 00 00 00 00 00 00 00 00 00 00 ................
0040FBA0 00 00 00 00 00 00 00 00 00 00 00 00 00 00 00 00 ................
0040FBB0 00 00 00 00 00 00 00 00 00 00 00 00 00 00 00 00 ................
0040FBC0 00 00 00 00 00 00 00 00 00 00 00 00 00 00 00 00 ................
0040FBD0 00 00 00 00 00 00 00 00 00 00 00 00 00 00 00 00 ................
0040FBE0 00 00 00 00 00 00 00 00 00 00 00 00 00 00 00 00 ................
0040FBF0 00 00 00 00 00 00 00 00 00 00 00 00 00 00 00 00 ................
0040FC00 00 00 00 00 00 00 00 00 00 00 00 00 00 00 00 00 ................
0040FC10 00 00 00 00 00 00 00 00 00 00 00 00 00 00 00 00 ................
0040FC20 00 00 00 00 00 00 00 00 00 00 00 00 00 00 00 00 ................
0040FC30 00 00 00 00 00 00 00 00 00 00 00 00 00 00 00 00 ................
0040FC40 00 00 00 00 00 00 00 00 00 00 00 00 00 00 00 00 ................
0040FC50 00 00 00 00 00 00 00 00 00 00 00 00 00 00 00 00 ................
0040FC60 00 00 00 00 00 00 00 00 00 00 00 00 00 00 00 00 ................
0040FC70 00 00 00 00 00 00 00 00 00 00 00 00 00 00 00 00 ................
0040FC80 00 00 00 00 00 00 00 00 00 00 00 00 00 00 00 00 ................
0040FC90 00 00 00 00 00 00 00 00 00 00 00 00 00 00 00 00 ................
0040FCA0 00 00 00 00 00 00 00 00 00 00 00 00 00 00 00 00 ................
0040FCB0 00 00 00 00 00 00 00 00 00 00 00 00 00 00 00 00 ................
0040FCC0 00 00 00 00 00 00 00 00 00 00 00 00 00 00 00 00 ................
0040FCD0 00 00 00 00 00 00 00 00 00 00 00 00 00 00 00 00 ................
0040FCE0 00 00 00 00 00 00 00 00 00 00 00 00 00 00 00 00 ................
0040FCF0 00 00 00 00 00 00 00 00 00 00 00 00 00 00 00 00 ................
0040FD00 00 00 00 00 00 00 00 00 00 00 00 00 00 00 00 00 ................
0040FD10 00 00 00 00 00 00 00 00 00 00 00 00 00 00 00 00 ................
0040FD20 00 00 00 00 00 00 00 00 00 00 00 00 00 00 00 00 ................
0040FD30 00 00 00 00 00 00 00 00 00 00 00 00 00 00 00 00 ................
0040FD40 00 00 00 00 00 00 00 00 00 00 00 00 00 00 00 00 ................
0040FD50 00 00 00 00 00 00 00 00 00 00 00 00 00 00 00 00 ................
0040FD60 00 00 00 00 00 00 00 00 00 00 00 00 00 00 00 00 ................
0040FD70 00 00 00 00 00 00 00 00 00 00 00 00 00 00 00 00 ................
0040FD80 00 00 00 00 00 00 00 00 00 00 00 00 00 00 00 00 ................
0040FD90 00 00 00 00 00 00 00 00 00 00 00 00 00 00 00 00 ................
0040FDA0 00 00 00 00 00 00 00 00 00 00 00 00 00 00 00 00 ................
0040FDB0 00 00 00 00 00 00 00 00 00 00 00 00 00 00 00 00 ................
0040FDC0 00 00 00 00 00 00 00 00 00 00 00 00 00 00 00 00 ................
0040FDD0 00 00 00 00 00 00 00 00 00 00 00 00 00 00 00 00 ................
0040FDE0 00 00 00 00 00 00 00 00 00 00 00 00 00 00 00 00 ................
0040FDF0 00 00 00 00 00 00 00 00 00 00 00 00 00 00 00 00 ................
0040FE00 00 00 00 00 00 00 00 00 00 00 00 00 00 00 00 00 ................
0040FE10 00 00 00 00 00 00 00 00 00 00 00 00 00 00 00 00 ................
0040FE20 00 00 00 00 00 00 00 00 00 00 00 00 00 00 00 00 ................
0040FE30 00 00 00 00 00 00 00 00 00 00 00 00 00 00 00 00 ................
0040FE40 00 00 00 00 00 00 00 00 00 00 00 00 00 00 00 00 ................
0040FE50 00 00 00 00 00 00 00 00 00 00 00 00 00 00 00 00 ................
0040FE60 00 00 00 00 00 00 00 00 00 00 00 00 00 00 00 00 ................
0040FE70 00 00 00 00 00 00 00 00 00 00 00 00 00 00 00 00 ................
0040FE80 00 00 00 00 00 00 00 00 00 00 00 00 00 00 00 00 ................
0040FE90 00 00 00 00 00 00 00 00 00 00 00 00 00 00 00 00 ................
0040FEA0 00 00 00 00 00 00 00 00 00 00 00 00 00 00 00 00 ................
0040FEB0 00 00 00 00 00 00 00 00 00 00 00 00 00 00 00 00 ................
0040FEC0 00 00 00 00 00 00 00 00 00 00 00 00 00 00 00 00 ................
0040FED0 00 00 00 00 00 00 00 00 00 00 00 00 00 00 00 00 ................
0040FEE0 00 00 00 00 00 00 00 00 00 00 00 00 00 00 00 00 ................
0040FEF0 00 00 00 00 00 00 00 00 00 00 00 00 00 00 00 00 ................
0040FF00 00 00 00 00 00 00 00 00 00 00 00 00 00 00 00 00 ................
0040FF10 00 00 00 00 00 00 00 00 00 00 00 00 00 00 00 00 ................
0040FF20 00 00 00 00 00 00 00 00 00 00 00 00 00 00 00 00 ................
0040FF30 00 00 00 00 00 00 00 00 00 00 00 00 00 00 00 00 ................
0040FF40 00 00 00 00 00 00 00 00 00 00 00 00 00 00 00 00 ................
0040FF50 00 00 00 00 00 00 00 00 00 00 00 00 00 00 00 00 ................
0040FF60 00 00 00 00 00 00 00 00 00 00 00 00 00 00 00 00 ................
0040FF70 00 00 00 00 00 00 00 00 00 00 00 00 00 00 00 00 ................
0040FF80 00 00 00 00 00 00 00 00 00 00 00 00 00 00 00 00 ................
0040FF90 00 00 00 00 00 00 00 00 00 00 00 00 00 00 00 00 ................
0040FFA0 00 00 00 00 00 00 00 00 00 00 00 00 00 00 00 00 ................
0040FFB0 00 00 00 00 00 00 00 00 00 00 00 00 00 00 00 00 ................
0040FFC0 00 00 00 00 00 00 00 00 00 00 00 00 00 00 00 00 ................
0040FFD0 00 00 00 00 00 00 00 00 00 00 00 00 00 00 00 00 ................
0040FFE0 00 00 00 00 00 00 00 00 00 00 00 00 00 00 00 00 ................
0040FFF0 00 00 00 00 00 00 00 00 00 00 00 00 00 00 00 00 ................
00410000 00 00 00 00 00 00 00 00 00 00 00 00 00 00 03 00 ................
00410010 03 00 00 00 28 00 00 80 0E 00 00 00 40 00 00 80 ....(.......@...
00410020 10 00 00 00 58 00 00 80 00 00 00 00 00 00 00 00 ....X...........
00410030 00 00 00 00 00 00 01 00 01 00 00 00 70 00 00 80 ............p...
00410040 00 00 00 00 00 00 00 00 00 00 00 00 00 00 01 00 ................
00410050 51 04 00 00 88 00 00 80 00 00 00 00 00 00 00 00 Q...............
00410060 00 00 00 00 00 00 01 00 90 8B 00 00 A0 00 00 80 ................
00410070 00 00 00 00 00 00 00 00 00 00 00 00 00 00 01 00 ................
00410080 19 04 00 00 B8 00 00 00 00 00 00 00 00 00 00 00 ................
00410090 00 00 00 00 00 00 01 00 19 04 00 00 C8 00 00 00 ................
004100A0 00 00 00 00 00 00 00 00 00 00 00 00 00 00 01 00 ................
004100B0 19 04 00 00 D8 00 00 00 E8 00 01 00 A8 08 00 00 ................
004100C0 00 00 00 00 00 00 00 00 90 09 01 00 14 00 00 00 ................
004100D0 00 00 00 00 00 00 00 00 A4 09 01 00 F0 02 00 00 ................
004100E0 00 00 00 00 00 00 00 00 28 00 00 00 20 00 00 00 ........(... ...
004100F0 40 00 00 00 01 00 08 00 00 00 00 00 00 04 00 00 @...............
00410100 00 00 00 00 00 00 00 00 00 00 00 00 00 00 00 00 ................
00410110 00 00 00 00 00 00 80 00 00 80 00 00 00 80 80 00 ................
00410120 80 00 00 00 80 00 80 00 80 80 00 00 C0 C0 C0 00 ................
00410130 C0 DC C0 00 F0 CA A6 00 00 20 40 00 00 20 60 00 ......... @.. `.
00410140 00 20 80 00 00 20 A0 00 00 20 C0 00 00 20 E0 00 . ... ... ... ..
00410150 00 40 00 00 00 40 20 00 00 40 40 00 00 40 60 00 .@...@ ..@@..@`.
00410160 00 40 80 00 00 40 A0 00 00 40 C0 00 00 40 E0 00 .@...@...@...@..
00410170 00 60 00 00 00 60 20 00 00 60 40 00 00 60 60 00 .`...` ..`@..``.
00410180 00 60 80 00 00 60 A0 00 00 60 C0 00 00 60 E0 00 .`...`...`...`..
00410190 00 80 00 00 00 80 20 00 00 80 40 00 00 80 60 00 ...... ...@...`.
004101A0 00 80 80 00 00 80 A0 00 00 80 C0 00 00 80 E0 00 ................
004101B0 00 A0 00 00 00 A0 20 00 00 A0 40 00 00 A0 60 00 ...... ...@...`.
004101C0 00 A0 80 00 00 A0 A0 00 00 A0 C0 00 00 A0 E0 00 ................
004101D0 00 C0 00 00 00 C0 20 00 00 C0 40 00 00 C0 60 00 ...... ...@...`.
004101E0 00 C0 80 00 00 C0 A0 00 00 C0 C0 00 00 C0 E0 00 ................
004101F0 00 E0 00 00 00 E0 20 00 00 E0 40 00 00 E0 60 00 ...... ...@...`.
00410200 00 E0 80 00 00 E0 A0 00 00 E0 C0 00 00 E0 E0 00 ................
00410210 40 00 00 00 40 00 20 00 40 00 40 00 40 00 60 00 @...@. .@.@.@.`.
00410220 40 00 80 00 40 00 A0 00 40 00 C0 00 40 00 E0 00 @...@...@...@...
00410230 40 20 00 00 40 20 20 00 40 20 40 00 40 20 60 00 @ ..@  .@ @.@ `.
00410240 40 20 80 00 40 20 A0 00 40 20 C0 00 40 20 E0 00 @ ..@ ..@ ..@ ..
00410250 40 40 00 00 40 40 20 00 40 40 40 00 40 40 60 00 @@..@@ .@@@.@@`.
00410260 40 40 80 00 40 40 A0 00 40 40 C0 00 40 40 E0 00 @@..@@..@@..@@..
00410270 40 60 00 00 40 60 20 00 40 60 40 00 40 60 60 00 @`..@` .@`@.@``.
00410280 40 60 80 00 40 60 A0 00 40 60 C0 00 40 60 E0 00 @`..@`..@`..@`..
00410290 40 80 00 00 40 80 20 00 40 80 40 00 40 80 60 00 @...@. .@.@.@.`.
004102A0 40 80 80 00 40 80 A0 00 40 80 C0 00 40 80 E0 00 @...@...@...@...
004102B0 40 A0 00 00 40 A0 20 00 40 A0 40 00 40 A0 60 00 @...@. .@.@.@.`.
004102C0 40 A0 80 00 40 A0 A0 00 40 A0 C0 00 40 A0 E0 00 @...@...@...@...
004102D0 40 C0 00 00 40 C0 20 00 40 C0 40 00 40 C0 60 00 @...@. .@.@.@.`.
004102E0 40 C0 80 00 40 C0 A0 00 40 C0 C0 00 40 C0 E0 00 @...@...@...@...
004102F0 40 E0 00 00 40 E0 20 00 40 E0 40 00 40 E0 60 00 @...@. .@.@.@.`.
00410300 40 E0 80 00 40 E0 A0 00 40 E0 C0 00 40 E0 E0 00 @...@...@...@...
00410310 80 00 00 00 80 00 20 00 80 00 40 00 80 00 60 00 ...... ...@...`.
00410320 80 00 80 00 80 00 A0 00 80 00 C0 00 80 00 E0 00 ................
00410330 80 20 00 00 80 20 20 00 80 20 40 00 80 20 60 00 . ...  .. @.. `.
00410340 80 20 80 00 80 20 A0 00 80 20 C0 00 80 20 E0 00 . ... ... ... ..
00410350 80 40 00 00 80 40 20 00 80 40 40 00 80 40 60 00 .@...@ ..@@..@`.
00410360 80 40 80 00 80 40 A0 00 80 40 C0 00 80 40 E0 00 .@...@...@...@..
00410370 80 60 00 00 80 60 20 00 80 60 40 00 80 60 60 00 .`...` ..`@..``.
00410380 80 60 80 00 80 60 A0 00 80 60 C0 00 80 60 E0 00 .`...`...`...`..
00410390 80 80 00 00 80 80 20 00 80 80 40 00 80 80 60 00 ...... ...@...`.
004103A0 80 80 80 00 80 80 A0 00 80 80 C0 00 80 80 E0 00 ................
004103B0 80 A0 00 00 80 A0 20 00 80 A0 40 00 80 A0 60 00 ...... ...@...`.
004103C0 80 A0 80 00 80 A0 A0 00 80 A0 C0 00 80 A0 E0 00 ................
004103D0 80 C0 00 00 80 C0 20 00 80 C0 40 00 80 C0 60 00 ...... ...@...`.
004103E0 80 C0 80 00 80 C0 A0 00 80 C0 C0 00 80 C0 E0 00 ................
004103F0 80 E0 00 00 80 E0 20 00 80 E0 40 00 80 E0 60 00 ...... ...@...`.
00410400 80 E0 80 00 80 E0 A0 00 80 E0 C0 00 80 E0 E0 00 ................
00410410 C0 00 00 00 C0 00 20 00 C0 00 40 00 C0 00 60 00 ...... ...@...`.
00410420 C0 00 80 00 C0 00 A0 00 C0 00 C0 00 C0 00 E0 00 ................
00410430 C0 20 00 00 C0 20 20 00 C0 20 40 00 C0 20 60 00 . ...  .. @.. `.
00410440 C0 20 80 00 C0 20 A0 00 C0 20 C0 00 C0 20 E0 00 . ... ... ... ..
00410450 C0 40 00 00 C0 40 20 00 C0 40 40 00 C0 40 60 00 .@...@ ..@@..@`.
00410460 C0 40 80 00 C0 40 A0 00 C0 40 C0 00 C0 40 E0 00 .@...@...@...@..
00410470 C0 60 00 00 C0 60 20 00 C0 60 40 00 C0 60 60 00 .`...` ..`@..``.
00410480 C0 60 80 00 C0 60 A0 00 C0 60 C0 00 C0 60 E0 00 .`...`...`...`..
00410490 C0 80 00 00 C0 80 20 00 C0 80 40 00 C0 80 60 00 ...... ...@...`.
004104A0 C0 80 80 00 C0 80 A0 00 C0 80 C0 00 C0 80 E0 00 ................
004104B0 C0 A0 00 00 C0 A0 20 00 C0 A0 40 00 C0 A0 60 00 ...... ...@...`.
004104C0 C0 A0 80 00 C0 A0 A0 00 C0 A0 C0 00 C0 A0 E0 00 ................
004104D0 C0 C0 00 00 C0 C0 20 00 C0 C0 40 00 C0 C0 60 00 ...... ...@...`.
004104E0 C0 C0 80 00 C0 C0 A0 00 F0 FB FF 00 A4 A0 A0 00 ................
004104F0 80 80 80 00 00 00 FF 00 00 FF 00 00 00 FF FF 00 ................
00410500 FF 00 00 00 FF 00 FF 00 FF FF 00 00 FF FF FF 00 ................
00410510 00 00 00 00 00 00 00 00 00 00 00 00 00 00 00 00 ................
00410520 00 00 00 00 00 00 00 00 00 00 00 00 00 00 00 00 ................
00410530 00 00 00 00 00 00 ED A3 9A 9A 92 92 92 92 92 92 ................
00410540 92 92 92 92 92 92 92 92 92 92 92 92 92 92 92 00 ................
00410550 00 00 00 00 00 00 ED F6 07 09 09 09 09 09 09 09 ................
00410560 09 09 EC 09 09 EC EC EC EC EB EB EB EB EB 92 00 ................
00410570 00 00 00 00 00 00 ED F6 F6 F6 F6 F6 F6 F6 F6 F6 ................
00410580 F6 F6 F6 F6 F6 F6 F6 F6 09 09 09 09 09 EB 92 00 ................
00410590 00 00 00 00 00 00 ED F6 F6 F6 F6 F6 F6 F6 F6 F6 ................
004105A0 F6 F6 F6 F6 F6 F6 F6 F6 F6 F6 09 09 09 EB 92 00 ................
004105B0 00 00 00 00 00 00 ED F6 F6 F5 F5 ED ED EC EC EC ................
004105C0 E3 E3 E3 E3 E3 E3 E3 E3 E3 E3 F6 F6 09 EB 92 00 ................
004105D0 00 00 00 00 00 00 ED FF FF F5 FF FF FF F6 EC F6 ................
004105E0 F6 EC FF E3 F6 F6 EC FF E3 F6 F6 F6 F6 EB 92 00 ................
004105F0 00 00 00 00 00 00 ED FF FF F5 FF FF FF FF ED FF ................
00410600 FF EC FF E3 F6 F6 EC FF E3 F6 F6 F6 F6 EC 92 00 ................
00410610 00 00 00 00 00 00 ED FF FF F5 F5 F5 F5 F5 F5 ED ................
00410620 FF EC FF E3 F6 F6 EC FF E3 F6 F6 F6 F6 EC 92 00 ................
00410630 00 00 00 00 00 00 ED FF FF 09 FF FF FF FF F5 FF ................
00410640 FF ED FF E3 EC EC EC FF E3 F6 F6 F6 F6 EC 92 00 ................
00410650 00 00 00 00 00 00 ED FF FF 09 FF FF FF FF F5 FF ................
00410660 FF F5 FF E3 FF FF EC FF E3 F6 F6 F6 F6 EC 92 00 ................
00410670 00 00 00 00 00 00 ED FF FF 09 09 09 09 09 F5 F5 ................
00410680 FF F5 F5 E3 FF FF EC FF E3 F6 F6 F6 F6 EC 92 00 ................
00410690 00 00 00 00 00 00 ED FF FF 09 FF FF FF FF 09 FF ................
004106A0 FF FF FF FF FF FF ED ED E3 F6 F6 F6 F6 09 92 00 ................
004106B0 00 00 00 00 00 00 ED 08 08 ED 07 07 07 ED ED 08 ................
004106C0 FF FF FF F5 FF FF FF FF FF FF F6 F6 F6 09 92 00 ................
004106D0 00 00 00 00 00 00 F7 F7 F5 07 07 08 08 F6 08 ED ................
004106E0 EC 09 F5 F5 F5 F5 F5 F5 ED FF FF F6 F6 EC 92 00 ................
004106F0 00 19 18 AC 08 08 FF FF FF F6 F6 F6 F6 F6 08 07 ................
00410700 F6 FF FF 09 FF FF FF FF F5 FF FF FF F6 09 92 00 ................
00410710 00 19 B5 08 FF FF FF FF F6 F6 B5 1A 1A F6 F6 07 ................
00410720 F6 FF FF 09 FF FF FF FF F5 FF FF FF FF 09 92 00 ................
00410730 00 19 07 AC FF 08 B4 B4 B4 AB 22 1A 6B F6 F6 ED ..........".k...
00410740 F5 09 09 09 09 09 09 F5 F5 FF FF FF FF 09 92 00 ................
00410750 00 19 08 62 FF FF 08 B4 B4 62 1A 6C AB B5 F6 07 ...b.....b.l....
00410760 08 FF FF 09 FF FF FF FF F5 FF FF FF FF 09 92 00 ................
00410770 00 19 08 19 F6 FF FF 08 6B 1A 22 08 FF F6 F6 07 ........k.".....
00410780 08 FF FF 09 FF FF FF FF 09 FF FF FF FF 09 92 00 ................
00410790 00 21 08 19 07 FF FF 08 22 22 6B B4 F5 F6 F6 07 .!......""k.....
004107A0 F5 09 09 09 09 09 09 09 09 FF FF FF FF 09 92 00 ................
004107B0 00 21 08 19 AC FF F6 22 1A B5 F6 B4 B4 B4 F6 08 .!....."........
004107C0 08 FF FF 09 FF FF FF FF 09 FF FF FF FF 09 92 00 ................
004107D0 00 21 08 AC B4 FF 63 62 6C FF FF FF FF FF FF 08 .!....cbl.......
004107E0 08 FF FF 09 FF FF FF FF 07 09 09 09 09 09 92 00 ................
004107F0 00 61 08 B4 B4 FF FF FF FF FF FF FF FF FF FF F6 .a..............
00410800 07 09 09 09 09 09 09 ED A3 A3 9B 9A 9A 9A 92 00 ................
00410810 00 61 08 B5 B4 08 08 08 08 08 08 F5 B5 08 6B FF .a............k.
00410820 FF FF FF FF FF FF FF ED 09 09 09 09 09 92 F6 00 ................
00410830 00 61 B5 F6 B5 B5 B5 B5 B5 B5 B5 B5 B5 F6 61 FF .a............a.
00410840 FF FF FF FF FF FF FF ED F6 F6 09 09 92 F6 F6 00 ................
00410850 00 61 61 08 F6 08 BD BD BD BD BD BD B5 F6 61 F6 .aa...........a.
00410860 09 09 09 FF FF FF FF F5 F6 F6 09 92 F6 F6 00 00 ................
00410870 00 00 61 61 B5 08 F6 F6 F6 F6 F6 F6 F6 F6 61 FF ..aa..........a.
00410880 FF FF FF FF FF FF FF F5 F6 F6 9A F6 F6 00 00 00 ................
00410890 00 00 00 61 61 61 61 61 61 61 61 61 61 61 61 FF ...aaaaaaaaaaaa.
004108A0 FF FF FF FF FF FF FF F5 F6 9B F6 F6 00 00 00 00 ................
004108B0 00 00 00 00 00 00 07 FF FF FF FF FF FF FF FF FF ................
004108C0 FF FF FF FF FF FF FF F5 A4 F6 F6 00 00 00 00 00 ................
004108D0 00 00 00 00 00 00 07 07 07 07 07 F5 F5 F5 F5 F5 ................
004108E0 F5 F5 F5 F5 F5 F5 F5 F5 F6 F6 00 00 00 00 00 00 ................
004108F0 00 00 00 00 00 00 00 00 00 00 00 00 00 00 00 00 ................
00410900 00 00 00 00 00 00 00 00 00 00 00 00 00 00 00 00 ................
00410910 FF FF FF FF FC 00 00 01 FC 00 00 01 FC 00 00 01 ................
00410920 FC 00 00 01 FC 00 00 01 FC 00 00 01 FC 00 00 01 ................
00410930 FC 00 00 01 FC 00 00 01 FC 00 00 01 FC 00 00 01 ................
00410940 FC 00 00 01 C0 00 00 01 C0 00 00 01 80 00 00 01 ................
00410950 80 00 00 01 80 00 00 01 80 00 00 01 80 00 00 01 ................
00410960 80 00 00 01 80 00 00 01 80 00 00 01 80 00 00 01 ................
00410970 80 00 00 01 80 00 00 01 80 00 00 03 C0 00 00 07 ................
00410980 E0 00 00 0F FC 00 00 1F FC 00 00 3F FF FF FF FF ...........?....
00410990 00 00 01 00 01 00 20 20 08 00 00 00 00 00 A8 08 ......  ........
004109A0 00 00 01 00 F0 02 34 00 00 00 56 00 53 00 5F 00 ......4...V.S._.
004109B0 56 00 45 00 52 00 53 00 49 00 4F 00 4E 00 5F 00 V.E.R.S.I.O.N._.
004109C0 49 00 4E 00 46 00 4F 00 00 00 00 00 BD 04 EF FE I.N.F.O.........
004109D0 00 00 01 00 CE CB C9 8B CE CB C9 8B CE CB C9 8B ................
004109E0 CE CB C9 8B CE CB 00 00 00 00 00 00 04 00 04 00 ................
004109F0 01 00 00 00 00 00 00 00 00 00 00 00 00 00 00 00 ................
00410A00 50 02 00 00 00 00 53 00 74 00 72 00 69 00 6E 00 P.....S.t.r.i.n.
00410A10 67 00 46 00 69 00 6C 00 65 00 49 00 6E 00 66 00 g.F.i.l.e.I.n.f.
00410A20 6F 00 00 00 2C 02 00 00 00 00 30 00 38 00 30 00 o...,.....0.8.0.
00410A30 30 00 30 00 34 00 42 00 30 00 00 00 3C 00 0D 00 0.0.4.B.0...<...
00410A40 01 00 43 00 6F 00 6D 00 70 00 61 00 6E 00 79 00 ..C.o.m.p.a.n.y.
00410A50 4E 00 61 00 6D 00 65 00 00 00 00 00 51 00 70 00 N.a.m.e.....Q.p.
00410A60 49 00 64 00 59 00 59 00 79 00 33 00 59 00 74 00 I.d.Y.Y.y.3.Y.t.
00410A70 38 00 42 00 00 00 00 00 44 00 0E 00 01 00 46 00 8.B.....D.....F.
00410A80 69 00 6C 00 65 00 44 00 65 00 73 00 63 00 72 00 i.l.e.D.e.s.c.r.
00410A90 69 00 70 00 74 00 69 00 6F 00 6E 00 00 00 00 00 i.p.t.i.o.n.....
00410AA0 76 00 73 00 52 00 75 00 33 00 4E 00 6A 00 78 00 v.s.R.u.3.N.j.x.
00410AB0 56 00 68 00 50 00 45 00 53 00 00 00 3C 00 0E 00 V.h.P.E.S...<...
00410AC0 01 00 46 00 69 00 6C 00 65 00 56 00 65 00 72 00 ..F.i.l.e.V.e.r.
00410AD0 73 00 69 00 6F 00 6E 00 00 00 00 00 73 00 49 00 s.i.o.n.....s.I.
00410AE0 4C 00 56 00 70 00 6F 00 32 00 42 00 6B 00 69 00 L.V.p.o.2.B.k.i.
00410AF0 36 00 6B 00 48 00 00 00 3C 00 0E 00 01 00 49 00 6.k.H...<.....I.
00410B00 6E 00 74 00 65 00 72 00 6E 00 61 00 6C 00 4E 00 n.t.e.r.n.a.l.N.
00410B10 61 00 6D 00 65 00 00 00 62 00 4F 00 4C 00 68 00 a.m.e...b.O.L.h.
00410B20 6E 00 64 00 42 00 49 00 4D 00 49 00 79 00 47 00 n.d.B.I.M.I.y.G.
00410B30 43 00 00 00 4C 00 13 00 01 00 4C 00 65 00 67 00 C...L.....L.e.g.
00410B40 61 00 6C 00 43 00 6F 00 70 00 79 00 72 00 69 00 a.l.C.o.p.y.r.i.
00410B50 67 00 68 00 74 00 00 00 51 00 57 00 69 00 6F 00 g.h.t...Q.W.i.o.
00410B60 4D 00 57 00 55 00 4A 00 70 00 33 00 42 00 6E 00 M.W.U.J.p.3.B.n.
00410B70 33 00 67 00 66 00 43 00 57 00 33 00 00 00 00 00 3.g.f.C.W.3.....
00410B80 4C 00 11 00 01 00 4F 00 72 00 69 00 67 00 69 00 L.....O.r.i.g.i.
00410B90 6E 00 61 00 6C 00 46 00 69 00 6C 00 65 00 6E 00 n.a.l.F.i.l.e.n.
00410BA0 61 00 6D 00 65 00 00 00 43 00 76 00 31 00 51 00 a.m.e...C.v.1.Q.
00410BB0 41 00 75 00 76 00 41 00 6F 00 33 00 4C 00 72 00 A.u.v.A.o.3.L.r.
00410BC0 62 00 70 00 71 00 4D 00 00 00 00 00 44 00 11 00 b.p.q.M.....D...
00410BD0 01 00 50 00 72 00 6F 00 64 00 75 00 63 00 74 00 ..P.r.o.d.u.c.t.
00410BE0 4E 00 61 00 6D 00 65 00 00 00 00 00 6A 00 68 00 N.a.m.e.....j.h.
00410BF0 54 00 47 00 76 00 42 00 6A 00 64 00 72 00 46 00 T.G.v.B.j.d.r.F.
00410C00 67 00 50 00 45 00 67 00 45 00 65 00 00 00 00 00 g.P.E.g.E.e.....
00410C10 40 00 0D 00 01 00 50 00 72 00 6F 00 64 00 75 00 @.....P.r.o.d.u.
00410C20 63 00 74 00 56 00 65 00 72 00 73 00 69 00 6F 00 c.t.V.e.r.s.i.o.
00410C30 6E 00 00 00 67 00 43 00 68 00 4A 00 6B 00 4D 00 n...g.C.h.J.k.M.
00410C40 57 00 32 00 59 00 54 00 49 00 54 00 00 00 00 00 W.2.Y.T.I.T.....
00410C50 44 00 00 00 00 00 56 00 61 00 72 00 46 00 69 00 D.....V.a.r.F.i.
00410C60 6C 00 65 00 49 00 6E 00 66 00 6F 00 00 00 00 00 l.e.I.n.f.o.....
00410C70 24 00 04 00 00 00 54 00 72 00 61 00 6E 00 73 00 $.....T.r.a.n.s.
00410C80 6C 00 61 00 74 00 69 00 6F 00 6E 00 00 00 00 00 l.a.t.i.o.n.....
00410C90 00 08 B0 04 00 00 00 00 00 00 00 00 00 00 00 00 ................
00410CA0 00 00 00 00 00 00 00 00 00 00 00 00 00 00 00 00 ................
00410CB0 00 00 00 00 00 00 00 00 00 00 00 00 00 00 00 00 ................
00410CC0 00 00 00 00 00 00 00 00 00 00 00 00 00 00 00 00 ................
00410CD0 00 00 00 00 00 00 00 00 00 00 00 00 00 00 00 00 ................
00410CE0 00 00 00 00 00 00 00 00 00 00 00 00 00 00 00 00 ................
00410CF0 00 00 00 00 00 00 00 00 00 00 00 00 00 00 00 00 ................
00410D00 00 00 00 00 00 00 00 00 00 00 00 00 00 00 00 00 ................
00410D10 00 00 00 00 00 00 00 00 00 00 00 00 00 00 00 00 ................
00410D20 00 00 00 00 00 00 00 00 00 00 00 00 00 00 00 00 ................
00410D30 00 00 00 00 00 00 00 00 00 00 00 00 00 00 00 00 ................
00410D40 00 00 00 00 00 00 00 00 00 00 00 00 00 00 00 00 ................
00410D50 00 00 00 00 00 00 00 00 00 00 00 00 00 00 00 00 ................
00410D60 00 00 00 00 00 00 00 00 00 00 00 00 00 00 00 00 ................
00410D70 00 00 00 00 00 00 00 00 00 00 00 00 00 00 00 00 ................
00410D80 00 00 00 00 00 00 00 00 00 00 00 00 00 00 00 00 ................
00410D90 00 00 00 00 00 00 00 00 00 00 00 00 00 00 00 00 ................
00410DA0 00 00 00 00 00 00 00 00 00 00 00 00 00 00 00 00 ................
00410DB0 00 00 00 00 00 00 00 00 00 00 00 00 00 00 00 00 ................
00410DC0 00 00 00 00 00 00 00 00 00 00 00 00 00 00 00 00 ................
00410DD0 00 00 00 00 00 00 00 00 00 00 00 00 00 00 00 00 ................
00410DE0 00 00 00 00 00 00 00 00 00 00 00 00 00 00 00 00 ................
00410DF0 00 00 00 00 00 00 00 00 00 00 00 00 00 00 00 00 ................
00410E00 00 00 00 00 00 00 00 00 00 00 00 00 00 00 00 00 ................
00410E10 00 00 00 00 00 00 00 00 00 00 00 00 00 00 00 00 ................
00410E20 00 00 00 00 00 00 00 00 00 00 00 00 00 00 00 00 ................
00410E30 00 00 00 00 00 00 00 00 00 00 00 00 00 00 00 00 ................
00410E40 00 00 00 00 00 00 00 00 00 00 00 00 00 00 00 00 ................
00410E50 00 00 00 00 00 00 00 00 00 00 00 00 00 00 00 00 ................
00410E60 00 00 00 00 00 00 00 00 00 00 00 00 00 00 00 00 ................
00410E70 00 00 00 00 00 00 00 00 00 00 00 00 00 00 00 00 ................
00410E80 00 00 00 00 00 00 00 00 00 00 00 00 00 00 00 00 ................
00410E90 00 00 00 00 00 00 00 00 00 00 00 00 00 00 00 00 ................
00410EA0 00 00 00 00 00 00 00 00 00 00 00 00 00 00 00 00 ................
00410EB0 00 00 00 00 00 00 00 00 00 00 00 00 00 00 00 00 ................
00410EC0 00 00 00 00 00 00 00 00 00 00 00 00 00 00 00 00 ................
00410ED0 00 00 00 00 00 00 00 00 00 00 00 00 00 00 00 00 ................
00410EE0 00 00 00 00 00 00 00 00 00 00 00 00 00 00 00 00 ................
00410EF0 00 00 00 00 00 00 00 00 00 00 00 00 00 00 00 00 ................
00410F00 00 00 00 00 00 00 00 00 00 00 00 00 00 00 00 00 ................
00410F10 00 00 00 00 00 00 00 00 00 00 00 00 00 00 00 00 ................
00410F20 00 00 00 00 00 00 00 00 00 00 00 00 00 00 00 00 ................
00410F30 00 00 00 00 00 00 00 00 00 00 00 00 00 00 00 00 ................
00410F40 00 00 00 00 00 00 00 00 00 00 00 00 00 00 00 00 ................
00410F50 00 00 00 00 00 00 00 00 00 00 00 00 00 00 00 00 ................
00410F60 00 00 00 00 00 00 00 00 00 00 00 00 00 00 00 00 ................
00410F70 00 00 00 00 00 00 00 00 00 00 00 00 00 00 00 00 ................
00410F80 00 00 00 00 00 00 00 00 00 00 00 00 00 00 00 00 ................
00410F90 00 00 00 00 00 00 00 00 00 00 00 00 00 00 00 00 ................
00410FA0 00 00 00 00 00 00 00 00 00 00 00 00 00 00 00 00 ................
00410FB0 00 00 00 00 00 00 00 00 00 00 00 00 00 00 00 00 ................
00410FC0 00 00 00 00 00 00 00 00 00 00 00 00 00 00 00 00 ................
00410FD0 00 00 00 00 00 00 00 00 00 00 00 00 00 00 00 00 ................
00410FE0 00 00 00 00 00 00 00 00 00 00 00 00 00 00 00 00 ................
00410FF0 00 00 00 00 00 00 00 00 00 00 00 00 00 00 00 00 ................
00411000 
...end of image
