00400000 00 00 00 00 00 00 00 00 00 00 00 00 00 00 00 00 ................
00400010 00 00 00 00 00 00 00 00 00 00 00 00 00 00 00 00 ................
00400020 00 00 00 00 00 00 00 00 00 00 00 00 00 00 00 00 ................
00400030 00 00 00 00 00 00 00 00 00 00 00 00 00 00 00 00 ................
00400040 00 00 00 00 00 00 00 00 00 00 00 00 00 00 00 00 ................
00400050 00 00 00 00 00 00 00 00 00 00 00 00 00 00 00 00 ................
00400060 00 00 00 00 00 00 00 00 00 00 00 00 00 00 00 00 ................
00400070 00 00 00 00 00 00 00 00 00 00 00 00 00 00 00 00 ................
00400080 00 00 00 00 00 00 00 00 00 00 00 00 00 00 00 00 ................
00400090 00 00 00 00 00 00 00 00 00 00 00 00 00 00 00 00 ................
004000A0 00 00 00 00 00 00 00 00 00 00 00 00 00 00 00 00 ................
004000B0 00 00 00 00 00 00 00 00 00 00 00 00 00 00 00 00 ................
004000C0 00 00 00 00 00 00 00 00 00 00 00 00 00 00 00 00 ................
004000D0 00 00 00 00 00 00 00 00 00 00 00 00 00 00 00 00 ................
004000E0 00 00 00 00 00 00 00 00 00 00 00 00 00 00 00 00 ................
004000F0 00 00 00 00 00 00 00 00 00 00 00 00 00 00 00 00 ................
00400100 00 00 00 00 00 00 00 00 00 00 00 00 00 00 00 00 ................
00400110 00 00 00 00 00 00 00 00 00 00 00 00 00 00 00 00 ................
00400120 00 00 00 00 00 00 00 00 00 00 00 00 00 00 00 00 ................
00400130 00 00 00 00 00 00 00 00 00 00 00 00 00 00 00 00 ................
00400140 00 00 00 00 00 00 00 00 00 00 00 00 00 00 00 00 ................
00400150 00 00 00 00 00 00 00 00 00 00 00 00 00 00 00 00 ................
00400160 00 00 00 00 00 00 00 00 00 00 00 00 00 00 00 00 ................
00400170 00 00 00 00 00 00 00 00 00 00 00 00 00 00 00 00 ................
00400180 00 00 00 00 00 00 00 00 00 00 00 00 00 00 00 00 ................
00400190 00 00 00 00 00 00 00 00 00 00 00 00 00 00 00 00 ................
004001A0 00 00 00 00 00 00 00 00 00 00 00 00 00 00 00 00 ................
004001B0 00 00 00 00 00 00 00 00 00 00 00 00 00 00 00 00 ................
004001C0 00 00 00 00 00 00 00 00 00 00 00 00 00 00 00 00 ................
004001D0 00 00 00 00 00 00 00 00 00 00 00 00 00 00 00 00 ................
004001E0 00 00 00 00 00 00 00 00 00 00 00 00 00 00 00 00 ................
004001F0 00 00 00 00 00 00 00 00 00 00 00 00 00 00 00 00 ................
00400200 00 00 00 00 00 00 00 00 00 00 00 00 00 00 00 00 ................
00400210 00 00 00 00 00 00 00 00 00 00 00 00 00 00 00 00 ................
00400220 00 00 00 00 00 00 00 00 00 00 00 00 00 00 00 00 ................
00400230 00 00 00 00 00 00 00 00 00 00 00 00 00 00 00 00 ................
00400240 00 00 00 00 00 00 00 00 00 00 00 00 00 00 00 00 ................
00400250 00 00 00 00 00 00 00 00 00 00 00 00 00 00 00 00 ................
00400260 00 00 00 00 00 00 00 00 00 00 00 00 00 00 00 00 ................
00400270 00 00 00 00 00 00 00 00 00 00 00 00 00 00 00 00 ................
00400280 00 00 00 00 00 00 00 00 00 00 00 00 00 00 00 00 ................
00400290 00 00 00 00 00 00 00 00 00 00 00 00 00 00 00 00 ................
004002A0 00 00 00 00 00 00 00 00 00 00 00 00 00 00 00 00 ................
004002B0 00 00 00 00 00 00 00 00 00 00 00 00 00 00 00 00 ................
004002C0 00 00 00 00 00 00 00 00 00 00 00 00 00 00 00 00 ................
004002D0 00 00 00 00 00 00 00 00 00 00 00 00 00 00 00 00 ................
004002E0 00 00 00 00 00 00 00 00 00 00 00 00 00 00 00 00 ................
004002F0 00 00 00 00 00 00 00 00 00 00 00 00 00 00 00 00 ................
00400300 00 00 00 00 00 00 00 00 00 00 00 00 00 00 00 00 ................
00400310 00 00 00 00 00 00 00 00 00 00 00 00 00 00 00 00 ................
00400320 00 00 00 00 00 00 00 00 00 00 00 00 00 00 00 00 ................
00400330 00 00 00 00 00 00 00 00 00 00 00 00 00 00 00 00 ................
00400340 00 00 00 00 00 00 00 00 00 00 00 00 00 00 00 00 ................
00400350 00 00 00 00 00 00 00 00 00 00 00 00 00 00 00 00 ................
00400360 00 00 00 00 00 00 00 00 00 00 00 00 00 00 00 00 ................
00400370 00 00 00 00 00 00 00 00 00 00 00 00 00 00 00 00 ................
00400380 00 00 00 00 00 00 00 00 00 00 00 00 00 00 00 00 ................
00400390 00 00 00 00 00 00 00 00 00 00 00 00 00 00 00 00 ................
004003A0 00 00 00 00 00 00 00 00 00 00 00 00 00 00 00 00 ................
004003B0 00 00 00 00 00 00 00 00 00 00 00 00 00 00 00 00 ................
004003C0 00 00 00 00 00 00 00 00 00 00 00 00 00 00 00 00 ................
004003D0 00 00 00 00 00 00 00 00 00 00 00 00 00 00 00 00 ................
004003E0 00 00 00 00 00 00 00 00 00 00 00 00 00 00 00 00 ................
004003F0 00 00 00 00 00 00 00 00 00 00 00 00 00 00 00 00 ................
00400400 00 00 00 00 00 00 00 00 00 00 00 00 00 00 00 00 ................
00400410 00 00 00 00 00 00 00 00 00 00 00 00 00 00 00 00 ................
00400420 00 00 00 00 00 00 00 00 00 00 00 00 00 00 00 00 ................
00400430 00 00 00 00 00 00 00 00 00 00 00 00 00 00 00 00 ................
00400440 00 00 00 00 00 00 00 00 00 00 00 00 00 00 00 00 ................
00400450 00 00 00 00 00 00 00 00 00 00 00 00 00 00 00 00 ................
00400460 00 00 00 00 00 00 00 00 00 00 00 00 00 00 00 00 ................
00400470 00 00 00 00 00 00 00 00 00 00 00 00 00 00 00 00 ................
00400480 00 00 00 00 00 00 00 00 00 00 00 00 00 00 00 00 ................
00400490 00 00 00 00 00 00 00 00 00 00 00 00 00 00 00 00 ................
004004A0 00 00 00 00 00 00 00 00 00 00 00 00 00 00 00 00 ................
004004B0 00 00 00 00 00 00 00 00 00 00 00 00 00 00 00 00 ................
004004C0 00 00 00 00 00 00 00 00 00 00 00 00 00 00 00 00 ................
004004D0 00 00 00 00 00 00 00 00 00 00 00 00 00 00 00 00 ................
004004E0 00 00 00 00 00 00 00 00 00 00 00 00 00 00 00 00 ................
004004F0 00 00 00 00 00 00 00 00 00 00 00 00 00 00 00 00 ................
00400500 00 00 00 00 00 00 00 00 00 00 00 00 00 00 00 00 ................
00400510 00 00 00 00 00 00 00 00 00 00 00 00 00 00 00 00 ................
00400520 00 00 00 00 00 00 00 00 00 00 00 00 00 00 00 00 ................
00400530 00 00 00 00 00 00 00 00 00 00 00 00 00 00 00 00 ................
00400540 00 00 00 00 00 00 00 00 00 00 00 00 00 00 00 00 ................
00400550 00 00 00 00 00 00 00 00 00 00 00 00 00 00 00 00 ................
00400560 00 00 00 00 00 00 00 00 00 00 00 00 00 00 00 00 ................
00400570 00 00 00 00 00 00 00 00 00 00 00 00 00 00 00 00 ................
00400580 00 00 00 00 00 00 00 00 00 00 00 00 00 00 00 00 ................
00400590 00 00 00 00 00 00 00 00 00 00 00 00 00 00 00 00 ................
004005A0 00 00 00 00 00 00 00 00 00 00 00 00 00 00 00 00 ................
004005B0 00 00 00 00 00 00 00 00 00 00 00 00 00 00 00 00 ................
004005C0 00 00 00 00 00 00 00 00 00 00 00 00 00 00 00 00 ................
004005D0 00 00 00 00 00 00 00 00 00 00 00 00 00 00 00 00 ................
004005E0 00 00 00 00 00 00 00 00 00 00 00 00 00 00 00 00 ................
004005F0 00 00 00 00 00 00 00 00 00 00 00 00 00 00 00 00 ................
00400600 00 00 00 00 00 00 00 00 00 00 00 00 00 00 00 00 ................
00400610 00 00 00 00 00 00 00 00 00 00 00 00 00 00 00 00 ................
00400620 00 00 00 00 00 00 00 00 00 00 00 00 00 00 00 00 ................
00400630 00 00 00 00 00 00 00 00 00 00 00 00 00 00 00 00 ................
00400640 00 00 00 00 00 00 00 00 00 00 00 00 00 00 00 00 ................
00400650 00 00 00 00 00 00 00 00 00 00 00 00 00 00 00 00 ................
00400660 00 00 00 00 00 00 00 00 00 00 00 00 00 00 00 00 ................
00400670 00 00 00 00 00 00 00 00 00 00 00 00 00 00 00 00 ................
00400680 00 00 00 00 00 00 00 00 00 00 00 00 00 00 00 00 ................
00400690 00 00 00 00 00 00 00 00 00 00 00 00 00 00 00 00 ................
004006A0 00 00 00 00 00 00 00 00 00 00 00 00 00 00 00 00 ................
004006B0 00 00 00 00 00 00 00 00 00 00 00 00 00 00 00 00 ................
004006C0 00 00 00 00 00 00 00 00 00 00 00 00 00 00 00 00 ................
004006D0 00 00 00 00 00 00 00 00 00 00 00 00 00 00 00 00 ................
004006E0 00 00 00 00 00 00 00 00 00 00 00 00 00 00 00 00 ................
004006F0 00 00 00 00 00 00 00 00 00 00 00 00 00 00 00 00 ................
00400700 00 00 00 00 00 00 00 00 00 00 00 00 00 00 00 00 ................
00400710 00 00 00 00 00 00 00 00 00 00 00 00 00 00 00 00 ................
00400720 00 00 00 00 00 00 00 00 00 00 00 00 00 00 00 00 ................
00400730 00 00 00 00 00 00 00 00 00 00 00 00 00 00 00 00 ................
00400740 00 00 00 00 00 00 00 00 00 00 00 00 00 00 00 00 ................
00400750 00 00 00 00 00 00 00 00 00 00 00 00 00 00 00 00 ................
00400760 00 00 00 00 00 00 00 00 00 00 00 00 00 00 00 00 ................
00400770 00 00 00 00 00 00 00 00 00 00 00 00 00 00 00 00 ................
00400780 00 00 00 00 00 00 00 00 00 00 00 00 00 00 00 00 ................
00400790 00 00 00 00 00 00 00 00 00 00 00 00 00 00 00 00 ................
004007A0 00 00 00 00 00 00 00 00 00 00 00 00 00 00 00 00 ................
004007B0 00 00 00 00 00 00 00 00 00 00 00 00 00 00 00 00 ................
004007C0 00 00 00 00 00 00 00 00 00 00 00 00 00 00 00 00 ................
004007D0 00 00 00 00 00 00 00 00 00 00 00 00 00 00 00 00 ................
004007E0 00 00 00 00 00 00 00 00 00 00 00 00 00 00 00 00 ................
004007F0 00 00 00 00 00 00 00 00 00 00 00 00 00 00 00 00 ................
00400800 00 00 00 00 00 00 00 00 00 00 00 00 00 00 00 00 ................
00400810 00 00 00 00 00 00 00 00 00 00 00 00 00 00 00 00 ................
00400820 00 00 00 00 00 00 00 00 00 00 00 00 00 00 00 00 ................
00400830 00 00 00 00 00 00 00 00 00 00 00 00 00 00 00 00 ................
00400840 00 00 00 00 00 00 00 00 00 00 00 00 00 00 00 00 ................
00400850 00 00 00 00 00 00 00 00 00 00 00 00 00 00 00 00 ................
00400860 00 00 00 00 00 00 00 00 00 00 00 00 00 00 00 00 ................
00400870 00 00 00 00 00 00 00 00 00 00 00 00 00 00 00 00 ................
00400880 00 00 00 00 00 00 00 00 00 00 00 00 00 00 00 00 ................
00400890 00 00 00 00 00 00 00 00 00 00 00 00 00 00 00 00 ................
004008A0 00 00 00 00 00 00 00 00 00 00 00 00 00 00 00 00 ................
004008B0 00 00 00 00 00 00 00 00 00 00 00 00 00 00 00 00 ................
004008C0 00 00 00 00 00 00 00 00 00 00 00 00 00 00 00 00 ................
004008D0 00 00 00 00 00 00 00 00 00 00 00 00 00 00 00 00 ................
004008E0 00 00 00 00 00 00 00 00 00 00 00 00 00 00 00 00 ................
004008F0 00 00 00 00 00 00 00 00 00 00 00 00 00 00 00 00 ................
00400900 00 00 00 00 00 00 00 00 00 00 00 00 00 00 00 00 ................
00400910 00 00 00 00 00 00 00 00 00 00 00 00 00 00 00 00 ................
00400920 00 00 00 00 00 00 00 00 00 00 00 00 00 00 00 00 ................
00400930 00 00 00 00 00 00 00 00 00 00 00 00 00 00 00 00 ................
00400940 00 00 00 00 00 00 00 00 00 00 00 00 00 00 00 00 ................
00400950 00 00 00 00 00 00 00 00 00 00 00 00 00 00 00 00 ................
00400960 00 00 00 00 00 00 00 00 00 00 00 00 00 00 00 00 ................
00400970 00 00 00 00 00 00 00 00 00 00 00 00 00 00 00 00 ................
00400980 00 00 00 00 00 00 00 00 00 00 00 00 00 00 00 00 ................
00400990 00 00 00 00 00 00 00 00 00 00 00 00 00 00 00 00 ................
004009A0 00 00 00 00 00 00 00 00 00 00 00 00 00 00 00 00 ................
004009B0 00 00 00 00 00 00 00 00 00 00 00 00 00 00 00 00 ................
004009C0 00 00 00 00 00 00 00 00 00 00 00 00 00 00 00 00 ................
004009D0 00 00 00 00 00 00 00 00 00 00 00 00 00 00 00 00 ................
004009E0 00 00 00 00 00 00 00 00 00 00 00 00 00 00 00 00 ................
004009F0 00 00 00 00 00 00 00 00 00 00 00 00 00 00 00 00 ................
00400A00 00 00 00 00 00 00 00 00 00 00 00 00 00 00 00 00 ................
00400A10 00 00 00 00 00 00 00 00 00 00 00 00 00 00 00 00 ................
00400A20 00 00 00 00 00 00 00 00 00 00 00 00 00 00 00 00 ................
00400A30 00 00 00 00 00 00 00 00 00 00 00 00 00 00 00 00 ................
00400A40 00 00 00 00 00 00 00 00 00 00 00 00 00 00 00 00 ................
00400A50 00 00 00 00 00 00 00 00 00 00 00 00 00 00 00 00 ................
00400A60 00 00 00 00 00 00 00 00 00 00 00 00 00 00 00 00 ................
00400A70 00 00 00 00 00 00 00 00 00 00 00 00 00 00 00 00 ................
00400A80 00 00 00 00 00 00 00 00 00 00 00 00 00 00 00 00 ................
00400A90 00 00 00 00 00 00 00 00 00 00 00 00 00 00 00 00 ................
00400AA0 00 00 00 00 00 00 00 00 00 00 00 00 00 00 00 00 ................
00400AB0 00 00 00 00 00 00 00 00 00 00 00 00 00 00 00 00 ................
00400AC0 00 00 00 00 00 00 00 00 00 00 00 00 00 00 00 00 ................
00400AD0 00 00 00 00 00 00 00 00 00 00 00 00 00 00 00 00 ................
00400AE0 00 00 00 00 00 00 00 00 00 00 00 00 00 00 00 00 ................
00400AF0 00 00 00 00 00 00 00 00 00 00 00 00 00 00 00 00 ................
00400B00 00 00 00 00 00 00 00 00 00 00 00 00 00 00 00 00 ................
00400B10 00 00 00 00 00 00 00 00 00 00 00 00 00 00 00 00 ................
00400B20 00 00 00 00 00 00 00 00 00 00 00 00 00 00 00 00 ................
00400B30 00 00 00 00 00 00 00 00 00 00 00 00 00 00 00 00 ................
00400B40 00 00 00 00 00 00 00 00 00 00 00 00 00 00 00 00 ................
00400B50 00 00 00 00 00 00 00 00 00 00 00 00 00 00 00 00 ................
00400B60 00 00 00 00 00 00 00 00 00 00 00 00 00 00 00 00 ................
00400B70 00 00 00 00 00 00 00 00 00 00 00 00 00 00 00 00 ................
00400B80 00 00 00 00 00 00 00 00 00 00 00 00 00 00 00 00 ................
00400B90 00 00 00 00 00 00 00 00 00 00 00 00 00 00 00 00 ................
00400BA0 00 00 00 00 00 00 00 00 00 00 00 00 00 00 00 00 ................
00400BB0 00 00 00 00 00 00 00 00 00 00 00 00 00 00 00 00 ................
00400BC0 00 00 00 00 00 00 00 00 00 00 00 00 00 00 00 00 ................
00400BD0 00 00 00 00 00 00 00 00 00 00 00 00 00 00 00 00 ................
00400BE0 00 00 00 00 00 00 00 00 00 00 00 00 00 00 00 00 ................
00400BF0 00 00 00 00 00 00 00 00 00 00 00 00 00 00 00 00 ................
00400C00 00 00 00 00 00 00 00 00 00 00 00 00 00 00 00 00 ................
00400C10 00 00 00 00 00 00 00 00 00 00 00 00 00 00 00 00 ................
00400C20 00 00 00 00 00 00 00 00 00 00 00 00 00 00 00 00 ................
00400C30 00 00 00 00 00 00 00 00 00 00 00 00 00 00 00 00 ................
00400C40 00 00 00 00 00 00 00 00 00 00 00 00 00 00 00 00 ................
00400C50 00 00 00 00 00 00 00 00 00 00 00 00 00 00 00 00 ................
00400C60 00 00 00 00 00 00 00 00 00 00 00 00 00 00 00 00 ................
00400C70 00 00 00 00 00 00 00 00 00 00 00 00 00 00 00 00 ................
00400C80 00 00 00 00 00 00 00 00 00 00 00 00 00 00 00 00 ................
00400C90 00 00 00 00 00 00 00 00 00 00 00 00 00 00 00 00 ................
00400CA0 00 00 00 00 00 00 00 00 00 00 00 00 00 00 00 00 ................
00400CB0 00 00 00 00 00 00 00 00 00 00 00 00 00 00 00 00 ................
00400CC0 00 00 00 00 00 00 00 00 00 00 00 00 00 00 00 00 ................
00400CD0 00 00 00 00 00 00 00 00 00 00 00 00 00 00 00 00 ................
00400CE0 00 00 00 00 00 00 00 00 00 00 00 00 00 00 00 00 ................
00400CF0 00 00 00 00 00 00 00 00 00 00 00 00 00 00 00 00 ................
00400D00 00 00 00 00 00 00 00 00 00 00 00 00 00 00 00 00 ................
00400D10 00 00 00 00 00 00 00 00 00 00 00 00 00 00 00 00 ................
00400D20 00 00 00 00 00 00 00 00 00 00 00 00 00 00 00 00 ................
00400D30 00 00 00 00 00 00 00 00 00 00 00 00 00 00 00 00 ................
00400D40 00 00 00 00 00 00 00 00 00 00 00 00 00 00 00 00 ................
00400D50 00 00 00 00 00 00 00 00 00 00 00 00 00 00 00 00 ................
00400D60 00 00 00 00 00 00 00 00 00 00 00 00 00 00 00 00 ................
00400D70 00 00 00 00 00 00 00 00 00 00 00 00 00 00 00 00 ................
00400D80 00 00 00 00 00 00 00 00 00 00 00 00 00 00 00 00 ................
00400D90 00 00 00 00 00 00 00 00 00 00 00 00 00 00 00 00 ................
00400DA0 00 00 00 00 00 00 00 00 00 00 00 00 00 00 00 00 ................
00400DB0 00 00 00 00 00 00 00 00 00 00 00 00 00 00 00 00 ................
00400DC0 00 00 00 00 00 00 00 00 00 00 00 00 00 00 00 00 ................
00400DD0 00 00 00 00 00 00 00 00 00 00 00 00 00 00 00 00 ................
00400DE0 00 00 00 00 00 00 00 00 00 00 00 00 00 00 00 00 ................
00400DF0 00 00 00 00 00 00 00 00 00 00 00 00 00 00 00 00 ................
00400E00 00 00 00 00 00 00 00 00 00 00 00 00 00 00 00 00 ................
00400E10 00 00 00 00 00 00 00 00 00 00 00 00 00 00 00 00 ................
00400E20 00 00 00 00 00 00 00 00 00 00 00 00 00 00 00 00 ................
00400E30 00 00 00 00 00 00 00 00 00 00 00 00 00 00 00 00 ................
00400E40 00 00 00 00 00 00 00 00 00 00 00 00 00 00 00 00 ................
00400E50 00 00 00 00 00 00 00 00 00 00 00 00 00 00 00 00 ................
00400E60 00 00 00 00 00 00 00 00 00 00 00 00 00 00 00 00 ................
00400E70 00 00 00 00 00 00 00 00 00 00 00 00 00 00 00 00 ................
00400E80 00 00 00 00 00 00 00 00 00 00 00 00 00 00 00 00 ................
00400E90 00 00 00 00 00 00 00 00 00 00 00 00 00 00 00 00 ................
00400EA0 00 00 00 00 00 00 00 00 00 00 00 00 00 00 00 00 ................
00400EB0 00 00 00 00 00 00 00 00 00 00 00 00 00 00 00 00 ................
00400EC0 00 00 00 00 00 00 00 00 00 00 00 00 00 00 00 00 ................
00400ED0 00 00 00 00 00 00 00 00 00 00 00 00 00 00 00 00 ................
00400EE0 00 00 00 00 00 00 00 00 00 00 00 00 00 00 00 00 ................
00400EF0 00 00 00 00 00 00 00 00 00 00 00 00 00 00 00 00 ................
00400F00 00 00 00 00 00 00 00 00 00 00 00 00 00 00 00 00 ................
00400F10 00 00 00 00 00 00 00 00 00 00 00 00 00 00 00 00 ................
00400F20 00 00 00 00 00 00 00 00 00 00 00 00 00 00 00 00 ................
00400F30 00 00 00 00 00 00 00 00 00 00 00 00 00 00 00 00 ................
00400F40 00 00 00 00 00 00 00 00 00 00 00 00 00 00 00 00 ................
00400F50 00 00 00 00 00 00 00 00 00 00 00 00 00 00 00 00 ................
00400F60 00 00 00 00 00 00 00 00 00 00 00 00 00 00 00 00 ................
00400F70 00 00 00 00 00 00 00 00 00 00 00 00 00 00 00 00 ................
00400F80 00 00 00 00 00 00 00 00 00 00 00 00 00 00 00 00 ................
00400F90 00 00 00 00 00 00 00 00 00 00 00 00 00 00 00 00 ................
00400FA0 00 00 00 00 00 00 00 00 00 00 00 00 00 00 00 00 ................
00400FB0 00 00 00 00 00 00 00 00 00 00 00 00 00 00 00 00 ................
00400FC0 00 00 00 00 00 00 00 00 00 00 00 00 00 00 00 00 ................
00400FD0 00 00 00 00 00 00 00 00 00 00 00 00 00 00 00 00 ................
00400FE0 00 00 00 00 00 00 00 00 00 00 00 00 00 00 00 00 ................
00400FF0 00 00 00 00 00 00 00 00 00 00 00 00 00 00 00 00 ................
00401000 FC 97 93 B1 08 35 91                            .....5.        

fn00401007()
	mov	edx,esi
	xor	edx,eax
	mov	dl,3D
	dec	esi
	xor	esi,ebx
	or	bl,ah
	or	edi,esi
	neg	dh
	dec	ebx
	jmp	0040113C
0040101C                                     EF 96 F9 9A             ....
00401020 68 9B                                           h.             

fn00401022()
	inc	edi
	add	edx,eax
	mov	edx,ecx
	inc	edi
	or	edi,edx
	or	ebx,ecx
	add	edx,ebx
	inc	edx
	call	004010BE
	sbb	dh,al
	sar	dword ptr [esi],5E
	mov	cl,87

fn0040103A()
	xchg	[esp],edi

fn0040103B()
	cmp	al,24
	mov	dx,dx
	xchg	edi,edi
	pop	edi
	xor	edx,eax
	add	ebx,esi
	mov	bl,bh
	mov	bl,B0
	call	004010DC
	outsd	
	test	[ecx-35],ah
	inc	esi
	pop	dword ptr gs:[esp-14]

fn00401056()
	pop	dword ptr [esp-14]

fn0040105A()
	xor	edi,ebx
	leave	
	dec	ecx
	sub	edx,edi
	mov	eax,ebx
	sub	ecx,ebx
	dec	edi
	dec	esi
	mov	ecx,edx
	jbe	004010F6

fn0040106E()
	jmp	00401074
00401073          ED                                        .           

l00401074:
	rep	
	ja	004010F6
	mov	esi,D328D993
	xchg	dh,ah

fn0040107E()
	push	ebp
	mov	ebp,esp
	xor	ebx,eax
	xor	edx,esi
	dec	esi
	mov	edx,edi
	or	edx,eax
	dec	esi
	or	edi,eax
	sub	esi,edi
	jl	00401154

l00401095:
	xchg	bh,bh
	repne	
	jge	00401154
	aam	B8
	mov	ecx,8F0334B3

fn004010A4()
	pop	dword ptr [esp-2C]
	add	esi,ecx
	or	ebx,esi
	sub	esi,edx
	add	edi,ecx
	dec	esi
	inc	esi
	inc	edi
	or	edi,ecx
	call	00401056
	and	ebp,[ecx]
	loope	004010D3

fn004010BE()
	lea	esp,[esp+04]
	or	edx,ebx
	mov	edx,eax
	add	ebx,edx
	dec	edi
	sub	ebx,edi
	mov	ebx,edi
	xor	esi,eax
	add	edx,ebx
	add	bh,dh

fn004010D3()
	jmp	00401007
004010D8                         69 D3 9C EA                     i...   

fn004010DC()
	pop	dword ptr [esp-28]
	xor	edx,ebx
	or	esi,edx
	or	edx,ebx
	mov	edi,ecx
	or	ebx,edi
	or	bl,dh
	dec	esi
	dec	esi
	add	esi,ecx
	jmp	00401116
004010F2       31 6B 94 D6                                 1k..         

fn004010F6()
	or	esi,edi
	xor	ecx,esi
	inc	ecx
	add	ebx,ecx
	mov	ebx,edx
	mov	esi,ebx
	or	edi,edx
	xor	ebx,edx
	sub	ecx,eax
	dec	edi
	jbe	0040112F
	xchg	dl,dl
	ja	0040112F
	into	
	xchg	esi,esi
	rol	eax,01
	and	[03DE2B88],ecx

l00401116:
	sub	ebx,esi
	add	edx,esi
	mov	esi,ebx
	or	edi,esi
	or	ebx,esi
	or	edx,eax
	dec	esi
	dec	edi
	call	004010A4
	in	eax,94
	xchg	eax,ebx
	mov	ch,19
	and	al,[ebx]

fn0040112F()
	add	esi,ebx

l00401130:
	rep	
	sub	ebx,ecx
	or	ebx,ecx
	add	edx,ecx
	inc	edx
	inc	edx
	inc	eax
	jmp	0040116A

l0040113C:
	add	dh,dl
	xor	ebx,edi
	add	edi,edx
	inc	esi
	or	edi,ecx
	mov	dh,25
	call	0040103A
	adc	esi,[esp+ecx*8]
	aam	7F
	inc	eax
	and	[ebx+2B],al

l00401154:
	sub	ebx,eax

fn00401155()
	fmul	dword ptr [ebx+0BF733D8]
	cli	
	inc	esi
	dec	esi
	or	edi,eax
	jmp	00401022
00401165                9F D8 2C C7 1F                        ..,..     

l0040116A:
	call	00402765
	fdivr	double ptr [ebp+1CD04DA0]
	sub	[ecx+58792560],eax
	and	eax,7B25D87B
	add	al,EC
	or	al,0F
	and	al,24
	adc	eax,A72A51DD
	jmp	246435AC
00401190 EF 90 26 24 24 CF 3D BB AD BB C1 7C 01 18 48 7C ..&$$.=....|..H|
004011A0 DC 29 24 24 24 39 D6 8A 92 EC 8A 90 EC D7 CC 76 .)$$$9.........v
004011B0 1F 91 6B 1C EF C3 29 24 24 F0 67 BA 1F D7 CB 5C ..k...)$$.g....\
004011C0 5A 7D 91 53 14 91 7B 10 91 A3 0C F9 C8 91 CD EF Z}.S..{.........
004011D0 0B 0D 24 24 2D 93 7C 2A 75 A9 E8 20 59 5A 7D 91 ..$$-.|*u.. YZ}.
004011E0 83 0C 29 81 60 EF 5B 27 24 24 E5 11 CA 75 B7 29 ..).`.['$$...u.)
004011F0 DF 0E 24 24 24 1D F7 29 FC 29 FF 29 FE 91 CE F9 ..$$$..).).)....
00401200 C8 EF BC 29 24 24 A4 29 DE 29 01 BC A6 32 82 81 ...)$$.).)...2..
00401210 CF E6 10 24 5B 91 F0 F1 E4 5E 52 88 80 95 AB B8 ...$[....^R.....
00401220 27 CF E6 28 24 5B 91 F0 A9 E8 F4 25 7B 0C 93 6B '..($[.....%{..k
00401230 1C 54 EF D7 2B 24 24 F9 6E 6A 5C 64 BC 51 EC 26 .T..+$$.nj\d.Q.&
00401240 11 24 24 25 D4 93 6B F4 54 93 6B F8 54 6E 24 6E .$$%..k.T.k.Tn$n
00401250 24 6C 8C 85 84 04 EC C9 24 24 24 EF 16 11 24 24 $l......$$$...$$
00401260 5C F7 A5 94 10 27 5F 29 64 60 91 5B 0C 91 64 9C \....'_)d`.[..d.
00401270 29 E6 91 1C 91 74 44 29 F6 EF E1 0F 24 24 74 F1 )....tD)....$$t.
00401280 6F 9D 18 97 39 01 C8 B9 26 EC DD 0D 24 24 79 FA o...9...&...$$y.
00401290 39 CF EC B2 0D 24 24 EF 58 28 24 24 3B 26 25 E0 9....$$.X($$;&%.
004012A0 82 81 CF E6 14 24 5B 91 F0 59 91 53 10 91 83 0C .....$[..Y.S....
004012B0 EF 3E 0E 24 24 EF A9 0C 24 24 01 D4 8A FB 05 2B .>.$$...$$.....+
004012C0 55 D1 54 57 EC EB 0D 24 24 91 69 10 29 6B 04 25 U.TW...$$.i.)k.%
004012D0 79 48 25 79 0C 54 EC 99 0F 24 24 7F EF 3F 27 24 yH%y.T...$$..?'$
004012E0 24 5A 87 DE B4 EB D7 37 0C 37 14 85 82 CF E6 10 $Z.....7.7......
004012F0 24 5B EF 0B 27 24 24 AF B3 CF AC E6 0C 24 5B 91 $[..'$$......$[.
00401300 F0 59 88 91 1B 34 24 24 24 91 56 10 91 FE EF C1 .Y...4$$$.V.....
00401310 0E 24 24 82 0A D2 8A 8A C7 25 79 40 25 79 5C 25 .$$......%y@%y\%
00401320 79 40 25 79 40 EC B7 0E 24 24 EC 51 26 24 24 EC y@%y@...$$.Q&$$.
00401330 88 2A 24 24 EF 68 27 24 24 E8 56 39 C0 07 65 93 .*$$.h'$$.V9..e.
00401340 C1 A4 24 24 24 91 41 11 01 15 A8 74 29 24 24 29 ..$$$.A....t)$$)
00401350 83 0C EF 82 29 24 24 EF DA 28 24 24 40 7A ED EA ....)$$..($$@z..
00401360 AA 7A CE F9 91 79 14 29 7B 0C 91 A1 14 29 A3 0C .z...y.){....)..
00401370 EF 38 29 24 24 B3 AF 24 24 24 A4 15 A8 75 28 24 .8)$$..$$$...u($
00401380 24 3B 24 24 24 A4 EF 7D 28 24 24 C7 86 1F 98 45 $;$$$..}($$....E
00401390 E2 CD 9B 91 EB B9 27 5A 91 1D 31 F4 F9 C8 82 EF ......'Z..1.....
004013A0 C0 2A 24 24 1E 47 FB 53 C7 E2 99 B1 C1 FF D4 01 .*$$.G.S........
004013B0 28 48 01 28 48 02 E7 01 28 48 15 F1 D9 EF DD 0C (H.(H...(H......
004013C0 24 24 2E E2 74 AF D8 D4 A7 EF 53 7E 24 24 11 CF $$..t.....S~$$..
004013D0 15 AB 93 27 24 24 8F 6B 04 20 6C 24 24 24 24 95 ...'$$.k. l$$$$.
004013E0 6B 20 6C 22 C8 6B 29 95 6B 1C 6C D0 D0 D0 D0 EF k l".k).k.l.....
004013F0 D8 28 24 24 49 50 71 52 80 7E A9 E9 2C 4F 11 CF .($$IPqR.~..,O..
00401400 7B 47 25 7B EC 25 7B D8 EC 73 27 24 24 91 53 04 {G%{.%{..s'$$.S.
00401410 91 67 60 91 68 27 2C EF F8 0F 24 24 F2 20 7C 12 .g`.h',...$$. |.
00401420 D2 F1 01 57 91 69 18 29 6B D8 91 51 10 29 53 04 ...W.i.)k..Q.)S.
00401430 25 79 14 EF 8E 22 25 25 A9 5B BD AD 33 5B 91 F0 %y..."%%.[..3[..
00401440 A9 E8 D0 59 6E 24 15 37 91 CC A7 07 25 24 24 24 ...Yn$.7....%$$$
00401450 6E 27 EF 35 0C 24 24 EF 54 25 25 25 FB B3 D0 49 n'.5.$$.T%%%...I
00401460 7D 39 E4 91 53 10 91 A3 0C F9 AE 85 CF E6 0C 24 }9..S..........$
00401470 EF 53 27 24 24 5F 48 DB 52 1B EE CD 98 8F 6B 04 .S'$$_H.R.....k.
00401480 88 91 13 34 24 24 24 8F 67 0C 25 7B 00 25 7B 04 ...4$$$.g.%{.%{.
00401490 EC 2E 2B 24 24 91 83 D8 EF FC 20 25 25 4D 8B D1 ..+$$..... %%M..
004014A0 BF 2E F7 A9 E7 A1 A9 1F A1 15 AB B8 2B 24 24 91 ............+$$.
004014B0 6B 0C 91 53 10 91 5B 14 EF 2E 22 25 25 F4 0A 6C k..S..[..."%%..l
004014C0 71 1E EC E0 DF 29 64 60 91 4C 54 8F 53 00 6E 64 q....)d`.LT.S.nd
004014D0 25 7B 00 25 7B 04 F1 38 16 4D 1A CE 91 F0 84 91 %{.%{..8.M......
004014E0 7B 10 91 A3 0C 20 B6 A4 EF BD 23 25 25 58 07 D4 {.... ....#%%X..
004014F0 04 B2 39 CF 67 EC 51 2B 24 24 19 CF EC 68 2B 24 ..9.g.Q+$$...h+$
00401500 24 76 F6 EF 2E 0C 24 24 30 01 C2 41 EC 83 0D 24 $v....$$0..A...$
00401510 24 91 6B 04 91 CC 29 64 60 91 64 2C 29 E7 8F 6B $.k...)d`.d,)..k
00401520 D4 EF B8 2A 24 24 2E D6 F1 BF 36 FC BA 02 25 7B ...*$$....6...%{
00401530 F8 25 7B 08 59 EC 21 24 24 24 8F 6B 08 25 7B 1C .%{.Y.!$$$.k.%{.
00401540 25 7B 08 59 EC 69 29 24 24 EF 57 0D 24 24 69 10 %{.Y.i)$$.W.$$i.
00401550 7F 77 3F 20 93 E6 8F 6B FC 91 6B F0 F1 2B EF 71 .w? ...k..k..+.q
00401560 22 25 25 4C E7 EC 15 E7 04 15 15 DD 0C EF 5A 22 "%%L..........Z"
00401570 25 25 FE 0F A4 92 83 E6 0C 24 5B 91 F0 6C 24 A4 %%.......$[..l$.
00401580 24 24 93 6B 10 54 93 6B 0C 54 6E 25 6C 8C 85 84 $$.k.T.k.Tn%l...
00401590 04 EF E6 2A 24 24 05 79 5C E2 B8 95 27 82 29 7B ...*$$.y\...'.){
004015A0 20 A9 EE 0E 1D FE 91 CE F9 C8 EF D6 24 24 24 91  ...........$$$.
004015B0 53 10 F9 C8 EF 02 24 24 24 EF E9 24 24 24 28 ED S.....$$$..$$$(.
004015C0 B6 0E 5B 91 F0 59 5A 7D 91 A3 10 88 91 43 34 24 ..[..YZ}.....C4$
004015D0 24 24 91 81 10 91 59 10 EF 00 27 24 24 2A E2 78 $$....Y...'$$*.x
004015E0 3C B5 31 D1 15 AB AA 24 24 24 EC 29 25 25 25 EF <.1....$$$.)%%%.
004015F0 C5 23 25 25 B0 D7 EC 15 A8 3A 0D 24 24 F1 6E 3D .#%%.....:.$$.n=
00401600 86 FF CA BF 16 CF D3 5A 7D 91 6B 10 31 6B 18 8F .......Z}.k.1k..
00401610 6B 10 8F 6B 1C A4 A3 14 24 78 A0 15 BA 6B 14 8F k..k....$x...k..
00401620 6B 20 EF E9 0D 24 24 82 CB DA A0 96 D3 9F 91 6B k ...$$........k
00401630 20 CF E6 0C 24 5B 91 F0 A9 E8 1C 59 F1 CF F6 BF  ...$[.....Y....
00401640 27 5C B2 BF 15 DD 2A 15 DD 1C 8A A7 ED 25 15 8A '\....*......%..
00401650 E7 EC 10 A9 1C 29 15 AB E6 2A 24 24 EF BA 2A 24 .....)...*$$..*$
00401660 24 3E E3 E8 97 EF DD 8F 83 19 CF EF 53 26 24 24 $>..........S&$$
00401670 97 4C E7 04 0C B0 EF 2C 26 24 24 FD 26 8F 9B A6 .L.....,&$$.&...
00401680 CE 91 6B 20 2F 6B 1C A9 E4 0E 2F 6B 10 A9 A3 10 ..k /k..../k....
00401690 24 15 AB 87 0D 24 24 91 6B 1C 85 EF 24 20 25 25 $....$$.k...$ %%
004016A0 B7 3C 57 6E A8 2D 74 A5 B1 A9 62 24 15 AB E9 20 .<Wn.-t...b$... 
004016B0 25 25 A9 E9 18 A9 A1 10 24 15 AB 79 27 24 24 85 %%......$..y'$$.
004016C0 82 81 CF EF DC 26 24 24 73 98 39 8D A3 EC 79 29 .....&$$s.9...y)
004016D0 24 24 16 E4 79 1D 15 AB E1 20 25 25 AE EF AD 21 $$..y.... %%...!
004016E0 25 25 EC 13 22 25 25 EF FA 22 25 25 48 DD E7 F0 %%.."%%.."%%H...
004016F0 79 F4 39 E4 EC 50 29 24 24 15 A9 FB 22 25 25 B9 y.9..P)$$..."%%.
00401700 26 67 B4 14 F1 CD 3A 8E FF 7C 91 83 D8 29 81 60 &g....:..|...).`
00401710 93 81 3C 25 79 5C 95 6B 00 25 79 5C EF 1C 21 25 ..<%y\.k.%y\..!%
00401720 25 71 9B C5 2E 76 FF 19 38 91 4D 40 29 E6 91 28 %q...v..8.M@)..(
00401730 8C 29 E6 EF 30 2A 24 24 F1 26 39 E4 7F A9 EA 28 .)..0*$$.&9....(
00401740 67 EF 1B 2A 24 24 55 60 88 72 F1 28 91 16 39 E4 g..*$$U`.r.(..9.
00401750 61 D9 15 AB 89 2A 24 24 81 CF E6 28 24 EF 3A 26 a....*$$...($.:&
00401760 24 24 BC D2 31 9B 63 6E 25 6C 8C 85 84 04 EC 91 $$..1.cn%l......
00401770 21 25 25 6C 8A 59 26 66 54 EC CD 2B 24 24 25 D4 !%%l.Y&fT..+$$%.
00401780 91 6B 0C CF EF F2 23 25 25 5D 5A 21 0F CA 3C 15 .k....#%%]Z!..<.
00401790 A8 6C 29 24 24 29 83 0C EF 5A 29 24 24 91 51 28 .l)$$)...Z)$$.Q(
004017A0 A9 EF 0C 91 F9 A9 EA 0C EF 9D 2B 24 24 EF 96 22 ..........+$$.."
004017B0 25 25 A9 8B 2F 47 11 A4 EC 91 79 10 F1 2B EF 6C %%../G....y..+.l
004017C0 26 24 24 91 6A 40 61 CD 15 AB 81 26 24 24 25 7B &$$.j@a....&$$%{
004017D0 0C 95 6A 3C 25 7B 14 EF 4C 26 24 24 D1 D0 FC CF ..j<%{..L&$$....
004017E0 92 B8 54 25 7B 20 EC 01 26 24 24 EF DC 22 25 25 ..T%{ ..&$$.."%%
004017F0 29 6B 0C 93 64 26 54 25 7B 20 EC CD 26 24 24 EF )k..d&T%{ ..&$$.
00401800 C8 22 25 25 70 30 D3 FD 6C 8C 85 84 04 EC F0 1E ."%%p0..l.......
00401810 25 25 6C 82 E8 1D F2 54 EC 2C 2B 24 24 25 D4 6E %%l....T.,+$$%.n
00401820 27 93 6B 1C 54 EF C7 27 24 24 3A F2 00 C6 A1 CA '.k.T..'$$:.....
00401830 42 2D 91 69 10 29 6B 0C 54 EC ED 1F 25 25 8F 6B B-.i.)k.T...%%.k
00401840 20 A9 61 24 15 A8 3E 21 25 25 91 39 EF 1A 21 25  .a$..>!%%.9..!%
00401850 25 EF 12 21 25 25 53 FF BB 06 86 12 41 54 EC 06 %..!%%S.....AT..
00401860 28 24 24 25 D4 25 7B 0C 6C 8C 85 84 04 EC 90 1E ($$%.%{.l.......
00401870 25 25 6C 1D D6 70 9F 54 EC CC 28 24 24 25 D4 EF %%l..p.T..($$%..
00401880 AE 23 25 25 39 19 FE F8 9A 86 75 D1 5B 91 F0 5A .#%%9.....u.[..Z
00401890 7D 91 7B 0C 91 22 91 53 10 EF DE 27 24 24 65 C7 }.{..".S...'$$e.
004018A0 65 66 76 EC 4E 20 25 25 63 24 A3 24 24 79 12 A4 efv.N %%c$.$$y..
004018B0 20 2B 79 0E A9 1C A5 15 8D DB 1E 25 25 67 67 EF  +y........%%gg.
004018C0 D2 1E 25 25 E3 E2 90 7E 95 6B F8 6C D0 D0 D0 D0 ..%%...~.k.l....
004018D0 95 6B F4 6C 24 3A 24 24 95 6B EC 6C 24 3A 24 24 .k.l$:$$.k.l$:$$
004018E0 95 6B 08 6C 06 AC BF 30 95 6B F0 91 6B 04 EF D6 .k.l...0.k..k...
004018F0 21 25 25 BC F7 AE 01 F1 6E 25 6C 8C 85 84 04 EC !%%.....n%l.....
00401900 1E 1F 25 25 6C 09 31 A8 DB 54 EC 3A 28 24 24 25 ..%%l.1..T.:($$%
00401910 D4 EF 11 1F 25 25 6A A7 B1 90 6C 8C 85 84 04 EC ....%%j...l.....
00401920 FE 1F 25 25 6C E7 32 FC F7 54 EC 1A 28 24 24 25 ..%%l.2..T..($$%
00401930 D4 91 6B F4 EF 8F 27 24 24 86 41 AB 0A B2 55 E3 ..k...'$$.A...U.
00401940 8E CE D6 CC 7F AE 29 D7 E7 E6 29 93 4F 25 EF 54 ......)...).O%.T
00401950 21 25 25 07 81 5C E5 1D 6B 20 14 24 24 24 15 A8 !%%..\..k .$$$..
00401960 4A 21 25 25 25 7B 04 EC 75 28 24 24 25 7B 00 25 J!%%%{..u($$%{.%
00401970 7B 04 EC 29 20 25 25 EF 92 23 25 25 F9 E4 C4 8B {..) %%..#%%....
00401980 E6 28 24 5B 91 F0 59 5A 7D 91 83 0C 91 D9 EF 89 .($[..YZ}.......
00401990 26 24 24 98 4A F9 AC 47 5B 91 F0 6E 64 6C 24 34 &$$.J..G[..ndl$4
004019A0 24 24 93 6B 10 54 6E 24 93 6B 0C 54 EF BA 23 25 $$.k.Tn$.k.T..#%
004019B0 25 0B 86 66 2D FE 79 BE 2D 85 82 CF E6 10 24 5B %..f-.y.-.....$[
004019C0 91 F0 EF BF 1E 25 25 24 F4 BD 4A 93 6B F8 54 6C .....%%$..J.k.Tl
004019D0 8C 85 84 04 EC 4B 1F 25 25 6C 19 77 11 B7 54 EF .....K.%%l.w..T.
004019E0 7E 1C 25 25 00 5F 3C D8 22 FC 25 A8 93 50 48 E4 ~.%%._<.".%..PH.
004019F0 57 8F 58 48 E4 93 58 48 E4 56 6E 25 54 6C 8C 85 W.XH..XH.Vn%Tl..
00401A00 84 04 F1 9C 7D 0C 67 59 C4 0A 1D E0 39 E4 F1 2A ....}.gY....9..*
00401A10 E7 E4 0D 36 27 67 A4 5F 24 7B FB EF 7A 27 24 24 ...6'g._${..z'$$
00401A20 64 72 FA A3 95 6A 40 F1 0E 91 3A 61 F6 15 AB 94 dr...j@...:a....
00401A30 23 25 25 85 EF DB 1D 25 25 00 18 83 0F 26 24 AD #%%....%%....&$.
00401A40 EF 68 1C 25 25 26 D6 7B 2B 8E 1A 6A 16 D6 E9 EF .h.%%&.{+..j....
00401A50 C2 1E 25 25 DC 7B 29 F5 91 5B 14 A9 E7 A1 EF 69 ..%%.{)..[.....i
00401A60 1E 25 25 A9 EF A1 B0 57 8E CE A4 F7 19 26 D2 D6 .%%....W.....&..
00401A70 E4 EF CE 22 25 25 6A 05 6A D3 6C 75 EC A3 1C 25 ..."%%j.j.lu...%
00401A80 25 6C B1 6C 29 F8 54 EC DF 26 24 24 54 E9 5B 91 %l.l).T..&$$T.[.
00401A90 F0 EF 2E 1D 25 25 81 12 4F 1C 81 DF 24 14 24 24 ....%%..O...$.$$
00401AA0 91 5B FC 91 6B D0 CF 91 F8 A9 EA 14 6C 24 64 24 .[..k.......l$d$
00401AB0 24 8F 50 48 E4 EF 36 25 25 25 5B B3 48 FB 0E FD $.PH..6%%%[.H...
00401AC0 29 06 CF E6 28 24 5B 91 F0 A9 E8 F8 93 6B 20 54 )...($[......k T
00401AD0 A7 A3 10 25 25 24 24 15 8D BD 24 24 24 25 7B 10 ...%%$$...$$$%{.
00401AE0 EF 8C 24 24 24 8B 9F F4 9F A4 15 AB 58 21 25 25 ..$$$.......X!%%
00401AF0 29 81 28 A9 A1 28 0C 15 8D C4 20 25 25 85 82 EF ).(..(.... %%...
00401B00 60 26 24 24 DA F8 B7 28 F0 0A 74 F0 36 27 A9 E7 `&$$...(..t.6'..
00401B10 26 8A A9 5F 24 15 AB AE 26 24 24 3B A6 1E 54 51 &.._$...&$$;..TQ
00401B20 61 6B 0C 15 AB 49 20 25 25 91 66 3C EF 2D 20 25 ak...I %%.f<.- %
00401B30 25 EF 18 20 25 25 7D C1 A9 1D 58 17 F4 91 6B 14 %.. %%}...X...k.
00401B40 3B DB 25 16 3B E7 CC 17 33 76 07 9A 18 8F 6B 14 ;.%.;...3v....k.
00401B50 39 D6 1D 7B 10 8E 68 3F 25 8E 48 3E 8C 88 3F 25 9..{..h?%.H>..?%
00401B60 EF 8A 27 24 24 06 D0 A7 45 B0 B7 C8 6C 6E 24 EF ..'$$...E...ln$.
00401B70 F7 20 25 25 6E 24 93 6B F8 54 25 7B 10 54 6C 8C . %%n$.k.T%{.Tl.
00401B80 85 84 04 EC 7A 1D 25 25 6C 82 E8 1D F2 EF D1 20 ....z.%%l...... 
00401B90 25 25 52 21 69 B7 3B A6 1E 54 51 61 E9 15 AB BD %%R!i.;..TQa....
00401BA0 21 25 25 91 4D 48 29 E6 7F 15 DD 10 4C EF 9D 21 !%%.MH).....L..!
00401BB0 25 25 01 24 7D 53 F1 6E 25 6C 8C 85 84 04 EC 61 %%.$}S.n%l.....a
00401BC0 1D 25 25 6C E0 10 EA 79 54 EC 9D 27 24 24 EF 25 .%%l...yT..'$$.%
00401BD0 27 24 24 4A 0F 5F 8B EE 03 3A 25 7B EC 6E 24 EC '$$J._...:%{.n$.
00401BE0 B8 23 25 25 8F 6B D8 91 83 04 29 81 60 EF F9 24 .#%%.k....).`..$
00401BF0 24 24 13 ED 96 68 31 5B 10 29 81 60 93 C1 C4 24 $$...h1[.).`...$
00401C00 24 24 91 41 91 53 0C 11 01 15 A8 F2 22 25 25 61 $$.A.S......"%%a
00401C10 53 10 EF 9C 21 25 25 36 AF 6D 5F 21 20 A9 E8 20 S...!%%6.m_! .. 
00401C20 93 6B 20 54 25 7B 14 93 6B 10 54 93 6B 0C 54 F1 .k T%{..k.T.k.T.
00401C30 AA 59 B9 F8 06 0F 09 6F 8D 91 4C 3C 8F 53 20 91 .Y.....o..L<.S .
00401C40 83 10 39 CF EF 16 27 24 24 57 91 12 29 CE EF DF ..9...'$$W..)...
00401C50 23 25 25 3E E6 42 C6 0E EC C7 FA 25 25 6C B1 6C #%%>.B.....%%l.l
00401C60 29 F8 54 EC 03 24 24 24 25 D4 CF E6 0C 24 5B 91 ).T..$$$%....$[.
00401C70 F0 F1 AE 95 73 0A BF 24 4A 02 E7 01 28 48 02 E7 ....s..$J...(H..
00401C80 15 F1 E7 93 4F 27 A7 1F 41 EC B8 27 15 AB 3E 1D ....O'..A..'..>.
00401C90 25 25 EF 28 FB 25 25 D3 ED 68 18 E8 00 9A C3 1D %%.(.%%..h......
00401CA0 6B 20 28 24 24 24 78 12 54 25 7B D8 EC 64 FA 25 k ($$$x.T%{..d.%
00401CB0 25 EF C7 20 25 25 25 7B 08 54 25 7B D8 EC D0 23 %.. %%%{.T%{...#
00401CC0 25 25 EF 94 20 25 25 D3 33 7C 61 8C 28 3E 4F 11 %%.. %%.3|a.(>O.
00401CD0 CF 15 AB 8A 22 25 25 81 CF E6 10 24 EF B1 21 25 ...."%%....$..!%
00401CE0 25 9E B8 9D F7 A7 E9 44 27 24 24 91 81 10 29 83 %......D'$$...).
00401CF0 04 25 7B F0 25 7B 08 59 EC AF FB 25 25 1D 6B 20 .%{.%{.Y...%%.k 
00401D00 0C 24 24 24 15 A8 39 1C 25 25 25 7B F4 EF 40 1C .$$$..9.%%%{..@.
00401D10 25 25 B6 A8 A1 26 30 29 61 29 A3 0C 27 3D A9 EA %%...&0)a)..'=..
00401D20 26 A9 EF 26 11 CF EF E5 23 25 25 6F BC 78 D3 E9 &..&....#%%o.x..
00401D30 F7 A2 E9 31 A0 48 2C 8F A0 48 40 87 CF E6 0C 24 ...1.H,..H@....$
00401D40 81 CF E6 0C 24 5B 91 F0 A9 E8 20 59 5A 7D 91 6B ....$[.... YZ}.k
00401D50 0C EF 17 FB 25 25 73 F8 C8 54 86 61 53 20 15 A6 ....%%s..T.aS ..
00401D60 0B 22 25 25 85 82 81 CF EF 92 FB 25 25 35 D3 33 ."%%.......%%5.3
00401D70 1B 70 6C BA 25 48 39 54 EC CC 25 25 25 25 D4 93 .pl.%H9T..%%%%..
00401D80 6B F8 54 EF 96 21 25 25 31 51 14 05 16 91 BF 59 k.T..!%%1Q.....Y
00401D90 EC A5 F8 25 25 91 E9 29 64 60 25 74 38 59 EC 04 ...%%..)d`%t8Y..
00401DA0 21 25 25 EF F6 20 25 25 4D A2 9A C7 A5 98 A9 E9 !%%.. %%M.......
00401DB0 10 91 56 10 91 16 EF 9B 1F 25 25 91 4E 34 39 E4 ..V......%%.N49.
00401DC0 EF 50 23 25 25 E7 E4 0D EF 65 23 25 25 79 99 6B .P#%%....e#%%y.k
00401DD0 07 B4 25 D4 91 6B 20 CF E6 10 24 5B 91 F0 25 7B ..%..k ...$[..%{
00401DE0 0C EF 16 21 25 25 09 C9 BA CF 91 7B 0C 91 22 15 ...!%%.....{..".
00401DF0 BA 83 17 EF 9B 1C 25 25 A9 A3 10 0E 15 A6 B3 1D ......%%........
00401E00 25 25 91 E9 39 D6 EF 0B F9 25 25 34 75 D9 57 45 %%..9....%%4u.WE
00401E10 29 E7 8F 6B D0 91 83 04 25 7B D0 25 7B D4 59 EC )..k....%{.%{.Y.
00401E20 C2 1D 25 25 EF 8A 25 25 25 6E 48 A4 F1 D9 4D 8D ..%%..%%%nH...M.
00401E30 72 08 CC 87 AF                                  r....          

fn00401E35()
	lea	esp,[esp+04]
	inc	edi
	not	eax
	sub	ebx,ecx
	or	bh,cl
	add	ebx,edx
	call	00402BEC
	stc	
	popf	
	and	[ebp+4B6805BF],bl

fn00401E4E()
	dec	ebx
	sub	bh,cl
	neg	bl
	or	edi,ebx
	mov	eax,[edx]
	xor	ecx,edi
	mov	bl,2D
	add	edx,esi
	jmp	004023E7
00401E62       08 84 51 E5 6E F3                           ..Q.n.       

fn00401E68()
	add	edi,ecx
	or	bh,al
	mov	bh,al
	or	edi,esi
	xor	bl,ch
	mov	bh,88
	xor	bh,ch
	sub	ebx,ecx
	call	0040242A
	mov	esi,E77DAE0C
	xchg	eax,edi
	movsd	

fn00401E84()
	xchg	[esp],edx
	xchg	bl,bl
	pop	edx
	add	edi,esi
	or	edi,esi
	dec	esi
	jo	00401F98

l00401E95:
	jmp	00401E9B
00401E9A                               AE                          .    

l00401E9B:
	jno	00401F98

l00401EA1:
	xchg	eax,edx
	nop	
	dec	eax
	jc	00401EB3

l00401EA7:
	or	[esi],esp

fn00401EA9()
	xor	dl,dh
	or	bh,al
	mov	ah,ch
	mov	eax,edi
	or	ebx,ecx

fn00401EB3()
	xor	dh,bl
	add	bl,al
	or	esi,ecx
	or	dh,dl
	jmp	00402A68
00401EC0 97 A8 34 26 78 1E 37                            ..4&x.7        

fn00401EC7()
	xor	ebx,esi
	mov	cl,dh
	mov	dh,cl
	sub	ecx,edx
	dec	esi
	mov	bh,ch
	inc	edi
	call	00402851
	push	ecx
	cmp	edx,eax
	dec	edi
	scasd	

fn00401EDD()
	sub	edx,ebx
	neg	bh
	xor	edx,eax
	add	eax,esi
	add	esi,ecx
	sub	eax,edx
	xor	esi,edx
	add	edi,eax

fn00401EED()
	dec	ecx
	jmp	00402290
00401EF3          B1 8A 03 D9 B6 BF BA EF                   ........    

fn00401EFB()
	mov	[esp],ecx
	xchg	cx,cx
	pop	ecx
	mov	al,BA
	mov	ah,49
	neg	ch
	sub	eax,edi
	neg	bh
	jmp	00402530
00401F11    AB 52 07 AA 0F 84 23                          .R....#       

l00401F18:
	mov	bh,dl
	or	bh,cl
	or	esi,ecx
	add	bh,dh
	add	bl,dh
	sub	bl,dl
	call	0040205C
	pop	ds
	outsd	
	sbb	eax,C419C9BD
	movsd	

fn00401F31()
	mov	edi,ecx
	neg	bl
	add	esi,edx
	or	edi,esi
	neg	bl
	xor	bl,dl
	sub	bh,ah
	mov	eax,[eax]
	add	esi,ebx
	call	00402B5F
	pop	ss
	loopne	00401FC5

l00401F4B:
	int	03

fn00401F4D()
	lea	esp,[esp+04]
	mov	[ecx],al
	mov	dh,dl
	mov	dh,E3
	mov	dh,6D
	dec	esi
	call	00402317
	add	dl,66
	stosb	

fn00401F63()
	add	edi,esi
	or	eax,esi
	inc	ebx
	dec	esi
	sub	ebx,edx
	add	bl,bh
	sub	dh,bl
	call	00402616

fn00401F73()
	add	[ebp-03],bh

fn00401F74()
	jge	00401F73

fn00401F76()
	rol	dword ptr [edi],01
	inc	ebx
	sub	ch,[esi+DAF6406A]

fn00401F7B()
	push	40
	neg	dl

fn00401F7F()
	dec	edi
	mov	eax,ebx
	mov	dl,bl
	xor	esi,edx
	neg	dh
	add	cl,al
	dec	esi
	call	00401EFB

fn00401F90()
	mov	dword ptr [esi+06A85109],F933AABA

fn00401F98()
	xor	edi,ecx

fn00401F9A()
	mov	esi,ebx
	dec	edi
	or	esi,edi
	add	eax,edx
	inc	edi
	or	edi,edx

fn00401FA3()
	cli	

fn00401FA4()
	call	004023C3

fn00401FA9()
	aaa	
	inc	edx
	illegal	
	out	07,al
	lds	edi,[ebp+10]

fn00401FB1()
	or	ebx,edi
	xor	ebx,eax
	xor	al,bl
	xor	esi,ebx
	or	eax,edx
	inc	ebx
	call	00402786
	test	[B76336A2],edx

fn00401FC5()
	arpl	[edi+FB0211D4],bx

fn00401FC9()
	add	bh,bl

fn00401FCB()
	mov	bl,1E
	push	dword ptr [edx+08]
	dec	ebx
	sub	bl,dh
	sub	ebx,eax
	js	004029C2

fn00401FDB()
	push	di
	pop	di
	jns	004029C2

l00401FE5:
	push	ecx
	mov	eax,[ebp+47A7CD36]

fn00401FEC()
	inc	esi
	xor	edi,edx
	sub	ecx,ebx
	xor	ebx,esi
	mov	cl,ch
	or	ch,bh
	xor	edx,esi
	add	bl,ch
	call	004025EF
	js	00401FA3

fn00402002()
	aas	
	loopne	00401F8E
	or	al,24
	ja	00402009
	pop	ecx
	mov	dh,F6
	mov	dl,D3
	or	esi,ebx
	neg	dh
	xor	esi,edi
	inc	edx
	xor	esi,ecx
	jmp	004027E1
	js	00401FDE
	jg	0040207E
	push	ss

fn00402021()
	xor	bh,ah
	dec	esi
	dec	edi
	mov	bh,EA
	xor	bl,ch
	add	esi,ecx
	xor	bl,dl
	mov	bh,ah
	add	bl,cl
	or	esi,ecx
	call	00401E35
	mov	[106D6EF0],al
	ror	dword ptr [edi+03F02444],01

fn0040203E()
	pop	dword ptr [esp-10]
	add	edx,edi

fn00402043()
	xlat	
	inc	esi
	mov	dl,cl
	xor	ebx,2CB5B4AD
	xor	esi,edi
	sub	ah,cl
	mov	dh,93
	jmp	00402B45
00402058                         3D 97 A3 BC                     =...   

fn0040205C()
	pop	dword ptr [esp-14]
	sub	bl,al
	inc	esi
	mov	bh,7D
	mov	bh,F7
	mov	esi,edi
	sub	bh,dh
	add	edi,ecx
	xor	bh,al
	inc	edi
	jmp	00402940
00402075                72 B0 CA E4 F8 72 A1 62 02 FD 02      r....r.b...
00402080 FD 0B F7 8A FB 0A DE 0A DC 43 32 FB 2B D8 E9 7D .........C2.+..}
00402090 09 00 00 C9 DD 39 A2 CB                         .....9..       

fn00402098()
	xor	esi,eax
	inc	edi
	or	bh,ah
	add	bh,ch
	or	edi,ebx
	sub	ebx,edi
	add	bl,bh
	lea	eax,[eax+78]
	neg	bl
	xor	edi,ecx
	js	00401F18

l004020B2:
	jle	004020B4

l004020B4:
	jz	004020B6

l004020B6:
	jns	00401F18

l004020BC:
	daa	
	shl	ebx,cl
	sub	dl,[ebx+FA814E4E]

fn004020C1()
	dec	esi
	dec	esi
	cmp	edx,52D8CBDB
	jnz	0040216C

l004020CF:
	dec	esi
	mov	bh,ah
	mov	dh,4B
	dec	ecx
	or	ch,bh
	sub	ecx,edx
	jo	00402518

l004020DF:
	push	dx
	pop	dx
	jno	00402518

l004020E9:
	xor	al,B3
	push	cs
	inc	edx
	mov	dl,77
	lahf	
	ret	

fn004020F1()
	pop	dword ptr [esp-0C]
	xor	bh,bl
	or	bh,dl
	xor	eax,FFFFFEC8
	sub	edi,esi
	xor	bl,dh
	xor	esi,edx
	mov	bl,dh
	jz	00402021

l0040210C:
	mov	ah,ah
	jnz	00402021

l00402113:
	inc	dword ptr [ecx+EF4232B2]

fn00402114()
	xor	dword ptr [edx+2DEF4232],D302F32B

l00402119:
	sub	eax,D302F32B

l0040211A:
	sub	esi,ebx
	add	dl,bl

fn0040211E()
	or	dh,al
	add	dl,ch
	add	dh,al
	dec	edx
	mov	dh,09
	not	ah
	jo	00402ABB

fn0040212F()
	mov	edi,edi
	jno	00402ABB

l00402137:
	call	03734494

fn0040213B()
	add	ebx,eax
	mov	esi,ecx
	xor	edx,ebx
	add	ch,ah
	sub	dh,bh
	inc	edi
	mov	dl,CA
	or	cl,al
	add	ebx,ecx
	jmp	004024C0
00402151    06 AD FE FF 21 15 C8                          ....!..       

fn00402158()
	xchg	[esp],esi
	push	di
	pop	di
	lea	eax,[eax]
	pop	esi
	add	edx,ebx
	add	dh,bh
	sub	ah,cl
	mov	edx,edi
	or	al,cl

fn0040216C()
	mov	al,BF
	add	ah,ch
	jpe	004028AC

fn00402176()
	mov	al,al
	jpo	004028AC

l0040217E:
	das	
	and	[edi],esp
	mov	esi,[ebx+1C]
	jnz	00402113

fn00402185()
	lea	esp,[esp+04]

l00402186:
	and	al,04

fn00402189()
	dec	ebx
	xor	bh,cl
	add	al,ch
	add	al,ch
	pop	edi
	xor	eax,ecx
	add	al,dl
	add	eax,edi
	jmp	00401FB1
0040219C                                     82 F7 A3 4A             ...J
004021A0 F2 DA 70                                        ..p            

l004021A3:
	xor	edi,edx
	mov	bl,cl
	inc	edi
	sub	bh,bl
	or	ebx,edx
	or	esi,edx
	inc	esi
	mov	bl,4F
	inc	esi
	neg	bh
	call	004029F7
	pop	ebx
	inc	eax
	in	eax,dx
	insd	
	cmp	dl,[eax+ebp*8+F22BDEF6]

fn004021C0()
	neg	dh
	sub	esi,edx
	add	esi,ecx
	or	esi,ecx
	or	dh,ah
	xor	edx,esi
	inc	edx
	sub	dh,cl
	call	00402AA0
	or	dh,[edx-48]
	pop	ecx
	popf	
	mov	es,[ecx+esi*8+C72AFA2A]

fn004021DC()
	sub	bh,dl
	sub	al,bh

fn004021E0()
	shr	ecx,0F
	dec	esi
	xor	dl,cl
	xor	al,cl
	jc	00402966

fn004021EE()
	jmp	004021F3

l004021F3:
	xchg	ch,ch
	jnc	00402966

l004021FB:
	illegal	
	stc	
	xlat	
	mov	ah,2A

fn00402200()
	sub	dl,dh
	mov	ah,al
	mov	ebx,2CB5B813
	or	eax,ebx
	or	ah,bl
	dec	edx
	neg	dh
	dec	esi
	sub	ah,dh
	mov	dl,B6
	jmp	00402899
0040221A                               35 B2 40 3B DB 93           5.@;..
00402220 F9 00                                           ..             

l00402222:
	mov	esi,edx
	neg	dh
	mov	dh,bh
	mov	edx,ebx
	sub	esi,edx
	dec	esi
	mov	esi,ebx
	mov	esi,edi
	xor	esi,ebx
	jl	00402B1C

l00402239:
	jns	0040223B

l0040223B:
	mov	esi,esi
	jge	00402B1C

l00402243:
	cmp	[ecx-63],ecx
	illegal	

fn00402247()
	pop	dword ptr [esp-28]
	xor	bl,ch
	sub	bh,ah
	inc	esi
	xor	bl,al
	or	bh,al
	inc	edi
	sub	ebx,edi
	inc	edi
	mov	esi,edx
	js	0040244A

l00402260:
	xchg	dl,dl
	jns	0040244A

fn00402265()
	add	[eax],eax
	add	al,dl

l00402268:
	sar	byte ptr [esi],01

fn00402269()
	mov	ds:[ebx+3E9E68CB],edx

fn00402270()
	xchg	[esp],ecx
	jmp	00402279
00402278                         29                              )      

fn00402279()
	repne	
	pop	ecx
	add	bh,ch
	mov	edi,ecx
	mov	bl,DE
	sub	bl,bh
	mov	esi,ecx
	mov	bh,8B
	call	0040297A
	jno	0040226C
	in	al,0A

l00402290:
	or	dl,cl
	xor	ebx,ecx
	mov	al,12
	mov	esi,ecx
	dec	eax
	sub	dl,ah
	add	bl,ch
	mov	al,C6
	xor	esi,eax
	jpe	004021DC

l004022A7:
	lea	ebx,[ebx]
	jpo	004021DC

l004022AF:
	push	ds
	sti	
	sar	byte ptr [ebx+F0AE05BC],03

l004022B7:
	add	ebx,ecx

fn004022B8()
	fldcw	word ptr [ebx]
	illegal	
	neg	bh
	sub	ebx,edx
	dec	ebx
	xor	esi,edi
	add	ebx,edx
	or	bh,ah
	call	004020F1

fn004022CB()
	jo	00402265

l004022CD:
	fimul	word ptr [eax]
	mov	dh,B0
	mov	edx,D00BF033

fn004022D2()
	xor	esi,eax
	or	edx,eax

fn004022D6()
	mov	edx,edi
	neg	dl
	dec	esi
	sub	edx,eax
	mov	dl,33
	sub	dh,ch
	jbe	0040274F

fn004022E7()
	jz	004022E9

l004022E9:
	ja	0040274F

l004022EF:
	add	[eax],eax
	call	27CA885A

fn004022F4()
	mov	ah,[edi]
	mov	dh,cl
	xor	esi,ebx
	xor	edx,edi
	dec	esi
	mov	dh,B9
	inc	esi
	mov	edx,ecx
	dec	esi
	jpe	00402A31

l00402309:
	push	eax
	pop	eax
	jpo	00402A31

l00402311:
	popa	
	fisubr	word ptr [esi]
	mov	dh,8E

fn00402317()
	pop	dword ptr [esp-34]
	sub	edx,edi
	or	dh,dl
	mov	dh,48
	add	edx,edi
	dec	edx
	dec	esi
	mov	dl,bh
	jz	004029AA

l0040232D:
	push	esi
	pop	esi
	xchg	edx,edx
	jnz	004029AA

l00402337:
	pop	esi
	stc	
	and	ecx,ebp
	mov	dword ptr [edi],DC24448F

fn0040233D()
	pop	dword ptr [esp-24]
	dec	esi
	or	esi,eax
	xor	esi,edx
	add	dl,cl
	inc	esi
	mov	esi,ebx
	call	00402AF5

fn00402350()
	xor	byte ptr [426EB4AA],33

fn00402355()
	inc	edx
	xor	eax,esi

fn00402357()
	mov	byte ptr [ebx],C3
	add	edi,ecx
	inc	edi
	sub	al,bh
	add	edx,eax
	sub	esi,edx
	xor	bh,dh
	mov	esi,edx
	call	00402185
	illegal	
	cmp	al,[ebp+D8B6ACC7]

fn00402372()
	mov	dh,D8
	dec	esi
	or	eax,edx
	or	bh,al
	add	bh,bl
	add	ecx,000002CE
	mov	dh,cl
	add	bl,al
	mov	ah,ch
	jmp	00402668
0040238C                                     1B 3A A0 19             .:..
00402390 24 5F                                           $_             

fn00402392()
	lea	esp,[esp+04]
	or	edi,ebx
	mov	dh,F0
	dec	edi
	xor	dl,ah
	xor	edx,edi
	movzx	edx,al
	neg	bh
	dec	ebx
	jmp	004028E6
004023AA                               8B 82 30 D7 2B F2           ..0.+.
004023B0 5A 2A D8 8B F9 2B FE 33 DA E9 BF FC FF FF 25 11 Z*...+.3......%.
004023C0 AD 73 3F                                        .s?            

fn004023C3()
	lea	esp,[esp+04]
	sub	esi,edi
	add	eax,ebx
	inc	ebx
	sub	bh,bl
	add	bh,ch
	neg	bh
	add	bh,ah
	jz	004022B7

l004023DA:
	xchg	cl,cl
	jnz	004022B7

l004023E2:
	imul	edi,[eax+4A2F3557],D8034CB1

fn004023E7()
	dec	edx
	mov	cl,4C
	add	ebx,eax
	add	bl,bh
	add	cl,ah
	or	bl,ch
	xor	ebx,eax
	or	ecx,edx
	push	00
	add	ch,bh
	jo	00401EC7

fn00402400()
	ja	00402402

l00402402:
	jno	00401EC7

l00402408:
	sub	edx,ecx
	clc	
	pop	dword ptr [edi-09]
	ret	

l0040240F:
	or	eax,ebx
	add	edi,eax
	xor	ebx,eax
	add	bl,cl
	or	edx,edi
	mov	ecx,eax
	inc	ebx
	add	cl,dl
	xor	dh,cl
	ret	
00402421    E8 70 00 00 00 98 DB 15 FC                    .p.......     

fn0040242A()
	xchg	[esp],ebx
	xchg	dl,dl
	push	ebx
	pop	ebx
	pop	ebx
	neg	bl
	inc	ebx
	mov	bl,cl
	mov	bh,cl
	inc	ebx
	add	ebx,esi
	sub	bl,dl
	jmp	00401FC9
00402443          84 84 C4 00 E0 41 38                      .....A8     

l0040244A:
	mov	bh,B1
	or	ebx,esi
	mov	bh,D8
	xor	ebx,eax
	or	ebx,eax
	add	esi,edi
	xor	esi,edi
	call	00402463
	mov	eax,[eax+F720ECE1]

fn00402463()
	mov	[esp],edi
	rep	
	pop	edi
	push	dword ptr [eax+10]
	mov	esi,eax
	add	bh,ch
	neg	bl
	neg	bh
	jmp	004025C7
	call	far 448F:8A7E

fn0040247C()
	pop	dword ptr [esp-10]
	add	eax,ecx
	mov	eax,esi
	xor	ah,bh
	mov	bh,CD
	inc	edx
	add	dl,dh
	jmp	00402C14
00402490 6F C3 74 03 68 2B 8D 64 24 04 33 F7 33 C6 43 48 o.t.h+.d$.3.3.CH
004024A0 8A E2 33 F9 8A E1 F6 D8 0F 8C 04 02 00 00 8D 00 ..3.............
004024B0 66 8D 09 0F                                     f...           

l004024B4:
	lea	edi,ecx
	add	[eax],eax
	add	[ecx],al
	ror	[esi+3999CFBC],cl

l004024C0:
	add	edx,esi
	or	ebx,eax
	mov	[esp-08],eax
	xor	ch,bl
	add	dh,cl
	xor	ch,bh
	add	ebx,eax
	or	ebx,ecx
	sub	edi,ecx
	add	ecx,esi
	jmp	00401FEC
004024DB                                  5E 60 C6 FD 96            ^`...
004024E0 EC                                              .              

fn004024E1()
	xor	edi,esi
	dec	esi
	mov	bl,dh
	sub	cl,dh
	sub	bl,cl
	inc	ebx
	xor	bh,ch
	add	ecx,edi
	xor	cl,dl
	add	ecx,esi
	call	00402727
	add	[edx+8E1FDD54],ch
	jpo	00402546

l004024FF:
	inc	esi
	add	dh,ah
	add	dl,dh
	inc	esi
	add	esi,ecx
	or	edx,eax
	neg	dh
	call	00401F4D
	jpe	004024B4

l00402512:
	mov	cl,36
	xchg	eax,edx
	sbb	ecx,gs:[ebx+2A]

fn00402518()
	sub	al,dl

fn00402519()
	ret	F003
0040251C                                     2A D7 32 D1             *.2.
00402520 8B C3 48 8A C1 42 E9 E4 FE FF FF                ..H..B.....    
0040252B                                  8D 3B E9 F0 8B            .;...

fn00402530()
	dec	eax
	dec	eax
	push	00003000
	neg	ah
	neg	al
	xor	eax,esi
	xor	ecx,edx
	xor	ebx,edi
	dec	ecx
	dec	ebx
	jc	00402BC9

l00402549:
	mov	ecx,ecx
	mov	ch,ch
	jnc	00402BC9

l00402553:
	pop	ds
	dec	edi
	cmpsb	
	lodsb	

fn00402557()
	xor	dl,al
	xor	dh,ch
	xor	ah,EE
	mov	edx,eax
	mov	dh,ah
	sub	dl,bh
	mov	edx,edi
	add	edx,edi
	sub	esi,eax
	xor	esi,edx
	jmp	004021C0
00402571    16 E8 EF 9B BA B6 F2                          .......       

fn00402578()
	xchg	[esp],edi
	mov	di,di
	mov	si,si
	pop	edi
	sub	bl,dl
	dec	edi
	mov	bh,CB
	call	004026B7
	pop	ebx
	imul	ecx,[ebx+B2255C19],AD

fn00402594()
	neg	bh
	neg	cl
	add	cl,dh
	mov	esi,ebx
	add	ebx,ecx
	or	esi,eax
	jmp	004024E1
004025A5                48                                    H         

l004025A6:
	fidivr	word ptr [esi+CC766553]

fn004025AC()
	neg	dh
	xor	esi,eax
	mov	al,83
	inc	edx
	inc	edx
	xor	esi,edx

fn004025B6()
	dec	eax
	sub	edx,edi
	inc	eax
	jmp	004022F4
004025BF                                              59                Y
004025C0 BA 69 46 72 AA D0 7D 03 F8 32 F8 32 DA 33 FE F6 .iFr..}..2.2.3..
004025D0 DF 33 F1 03 F1 02 DC 02 DA 03 F1 0F 82 CD FD FF .3..............
004025E0 FF 52 5A 0F 83 C5 FD FF FF 26 ED 47 73 C4 7B    .RZ......&.Gs.{

fn004025EF()
	pop	dword ptr [esp-20]
	sub	edx,esi
	sub	ch,dh
	mov	ecx,eax
	or	edi,eax
	or	edx,eax
	sub	ah,dh
	js	00402355

l00402605:
	lea	edx,[edx]
	mov	dh,dh
	jns	00402355

l0040260F:
	and	esp,[edx+74]
	cmpsb	
	loopne	004025B6

l00402615:
	jno	004025A6

fn00402616()
	pop	dword ptr [esp-0C]
	mov	cl,4E
	mov	ah,cl
	dec	ebx
	mov	dh,DB
	mov	dl,bl
	add	al,ch
	jc	00402AD6
	push	eax
	pop	eax
	jnc	00402AD6
	mov	byte ptr [ecx],8A
	mov	[4BD58A37],al

fn00402638()
	mov	dl,ch
	dec	ebx
	xor	dh,cl
	sub	dl,ah
	add	edx,esi
	mov	dl,al
	call	00402B81
	fistp	qword ptr [ecx]
	illegal	
	cmp	al,ah
	illegal	
	mov	dh,dl
	sub	edx,eax
	xor	dl,dh
	dec	edx
	mov	edx,ebx
	mov	dh,dl
	add	dh,cl
	jmp	004028FE
	movsb	
	mov	dh,al
	movsb	
	pop	esp
	xor	dh,es:[ebx]

l00402668:
	xor	edx,eax
	mov	eax,ecx
	sub	bh,ch
	neg	bh
	mov	ebx,ecx
	inc	edx
	xor	dh,bh
	push	ecx
	sub	dl,ch
	sub	bl,ch
	jz	00402BA1

l00402680:
	rep	
	jnz	00402BA1
	mov	ebx,BE8BC276

fn0040268C()
	sub	ebx,ecx
	sub	bl,cl
	inc	ebx
	lea	edx,[eax+000000F8]
	xor	bh,al
	inc	ebx
	sub	bl,dl
	jc	00401E68

l004026A2:
	jmp	004026A8
004026A7                      FB                                .       

l004026A8:
	jnc	00401E68

l004026AE:
	outsd	
	mov	[edx+67],ecx
	or	dl,ah
	dec	ecx
	add	esi,eax

fn004026B7()
	xchg	[esp],eax
	js	004026BC

l004026BC:
	pop	eax
	or	esi,ebx
	add	bl,bh
	xor	bh,ah
	xor	bh,cl
	neg	bl
	neg	bl
	sub	bl,cl
	jc	00402800

l004026D1:
	jnz	004026D3

l004026D3:
	xchg	ch,ch
	jnc	00402800

l004026DB:
	outsb	
	stosb	
	movsd	
	push	ebx
	sbb	eax,0424648D

fn004026E3()
	lea	esp,[esp+04]

fn004026E7()
	sub	eax,ebx
	sub	eax,ebx
	xor	esi,edx
	mov	edx,eax
	sub	ah,ch
	call	00402158

fn004026F6()
	lock	
	illegal	
	adc	[eax-58],esi
	lodsd	
	les	ebp,[edx]

fn004026FD()
	sub	ah,cl
	sub	eax,esi
	mov	dh,al
	neg	dh
	mov	bh,E0
	mov	bh,bl
	mov	dl,ch
	dec	esi
	add	edx,edi
	xor	esi,edx
	jc	00402200

l00402716:
	jmp	0040271B

l0040271B:
	jnc	00402200

l00402721:
	xchg	eax,ebx
	les	edx,ebp
	stosb	
	cmp	[ebx+0424648D],eax

fn00402727()
	lea	esp,[esp+04]
	xor	bl,bh
	add	edx,0000002C
	xor	ch,dl
	neg	bl
	dec	edi
	sub	bh,dl
	add	esi,edi
	jl	0040286A

l00402742:
	repne	
	mov	cl,cl
	jge	0040286A
	mov	dword ptr [eax+F13287D0],034AC48A

fn0040274F()
	xor	dh,cl
	mov	al,ah
	dec	edx
	add	edx,eax
	add	dl,bh
	sub	esi,edi
	or	edx,edi
	jmp	004024FF
00402761    57 17 BD 7C                                   W..|          

fn00402765()
	sub	ecx,eax
	mov	ch,bl
	xor	bh,bl
	or	dh,dl
	xor	ecx,eax
	or	dh,ch
	add	edi,esi
	mov	ecx,ebx
	add	dh,bl
	sub	esi,ecx
	jmp	00401F7B
0040277E                                           37 22               7"
00402780 5D 3E 6B 18 7C 89                               ]>k.|.         

fn00402786()
	pop	dword ptr [esp-10]
	sub	bh,ah
	xor	al,bh
	mov	dh,37
	dec	eax
	neg	al
	call	0040233D
	pop	es
	illegal	
	popa	
	iret	
	insb	
	int	2B

fn0040279F()
	sub	esi,edx
	mov	bh,4E
	sub	esi,edi
	mov	bh,C6
	mov	bh,al
	or	bl,bh
	mov	bh,D9
	sub	esi,edi
	jmp	0040268C
004027B4             92 7B 39 37 F1                          .{97.      

l004027B9:
	mov	dh,cl
	add	ah,4C
	mov	dh,bh
	xor	dl,ch
	mov	dl,cl
	inc	esi
	sub	dh,al
	inc	esi
	mov	edx,esi
	mov	dh,bl
	jc	00402557

l004027D2:
	repne	
	jnc	00402557
	loop	004027BA
	mov	al,[04E382D3]
	pop	edi
	inc	edx
	xor	dl,dh
	mov	edx,ecx
	inc	ecx
	inc	edx
	mov	dh,CD
	or	edx,ebx
	inc	esi
	jl	0040264F
	mov	eax,eax
	jge	0040264F
	test	eax,B46B493F

fn00402800()
	or	bl,ch
	add	bl,al
	add	eax,[eax+3C]
	or	esi,edi
	or	bl,cl
	mov	bh,EC
	dec	ebx
	jbe	0040279F

l00402810:
	mov	bl,bl
	ja	0040279F

l00402814:
	pushf	
	and	al,FD
	dec	esp
	xchg	eax,ecx

fn0040281A()
	xor	bh,al
	or	bh,ah
	xor	bl,ch
	xor	bh,ah
	mov	ebx,ecx
	add	edi,edx
	xor	edi,ecx
	inc	esi
	call	00402270
	push	4F
	stc	
	das	
	adc	edx,[eax+DD8AFB2B]

fn00402834()
	sub	edi,ebx
	mov	bl,ch

fn00402838()
	xor	bh,bl
	or	eax,eax
	jnz	00401EED

fn00402842()
	inc	edi
	dec	esi
	jo	0040281A

fn00402846()
	mov	dl,dl
	jno	0040281A

l0040284A:
	push	ebp
	dec	edx
	out	42,al
	mov	ebx,648DD00B

fn00402851()
	lea	esp,[esp+04]
	sub	cl,bl
	mov	bh,C2
	neg	bh
	sub	cl,dh
	inc	edx
	call	eax
	jmp	0040213B
00402865                D4 F4 DD C8 31                        ....1     

l0040286A:
	inc	ecx
	or	cl,bl
	sub	cl,al
	neg	ch
	xor	bl,ah
	neg	bl
	jmp	00401E4E
0040287A                               2A 13 05 2B                 *..+ 

fn0040287E()
	pop	dword ptr [esp-18]
	or	edx,ecx
	add	esi,edi
	dec	edx
	mov	ah,bl
	add	bh,dl
	inc	edi
	jmp	004029DC
00402891    FD 7B 55 14 58 FB B6 30                       .{U.X..0      

l00402899:
	xor	dl,ah
	dec	esi
	add	eax,ebx
	dec	edx
	neg	ah
	mov	al,cl
	call	0040203E
	adc	[ebp+D00BBCEE],al

fn004028AC()
	or	edx,eax

fn004028AE()
	dec	edx
	add	al,ah
	sub	dl,al
	xor	eax,edi
	mov	dh,ch
	or	edx,edi
	jmp	004025AC
004028BE                                           90 6F               .o
004028C0 26 5B A8 65                                     &[.e           

l004028C4:
	neg	bh
	add	bl,ah
	add	esi,edx
	xor	bh,ch
	mov	bh,dl
	mov	esi,ebx
	jo	00401F31

l004028D6:
	xchg	bh,bh
	jno	00401F31

l004028DE:
	xchg	[edi+51F0483F],eax
	or	edi,edx

fn004028E6()
	xor	esi,edx
	dec	edi
	mov	esi,edx
	dec	edi
	mov	bh,F2
	neg	bl
	xor	edi,ecx
	mov	bl,al
	jmp	00402A84

fn004028F5()
	mov	eax,[ecx]
	add	[eax],al
004028F9                            90                            .     

l004028FA:
	xchg	eax,edi
	jpo	004028FA

l004028FD:
	lea	esi,[edx]
	rol	dword ptr [edx+46],01
	xor	dh,cl
	mov	edx,edi
	mov	dh,bh
	dec	edx
	jmp	00402638
0040290E                                           F6 15               ..
00402910 CA B8 0B FB 0A E3 2A DF 02 F1                   ......*...     

fn0040291A()
	or	esi,ebx
	add	bl,cl
	sub	al,dh
	call	0040247C
	inc	edi
	jz	004028F5

l00402928:
	dec	ebx
	call	87A06997

fn0040292D()
	xchg	[esp],edi
	repne	
	pop	edi
	neg	al
	sub	al,dh
	shl	ecx,0F
	jmp	00402912
	sub	eax,1998451D

l00402940:
	mov	bl,ch
	xor	ebx,ecx
	add	eax,08
	mov	bh,5F
	add	edi,ebx
	xor	bh,ah
	inc	ebx
	sub	bl,ch
	js	004028C4

l00402956:
	mov	ax,ax
	jns	004028C4

l0040295F:
	sbb	ebp,eax
	adc	dh,[ebx+eax*4+50]
	pop	ebp

fn00402966()
	mov	dl,cl
	dec	eax
	add	dl,bh
	mov	bl,cl
	xor	ebx,edx
	or	al,ah
	call	0040292D
	pop	edx
	cmp	ebp,[esi-3E]
	mov	[esp],esi
	push	eax
	pop	eax
	pop	esi
	inc	ebx
	add	ebx,edx
	mov	eax,ecx
	or	esi,ebx
	mov	ebx,esi
	call	00402578

fn0040298E()
	jmp	0040291A
00402990 A4 51                                           .Q             

fn00402992()
	xchg	[esp],edi
	rep	
	pop	edi
	inc	edi
	or	esi,edx
	neg	dl
	xor	dh,cl
	call	00402004
	ja	0040293C
	arpl	ax,bx
	stosd	
	xor	bl,[ebx+ecx-10]

l004029AA:
	or	esi,eax
	mov	esi,edi
	inc	edx
	add	esi,edx
	mov	esi,edi
	or	dl,ah
	add	edx,edi
	xor	edx,ebx
	call	00402992
	or	[ecx-21],edx
	mov	cl,[ebx]

fn004029C2()
	or	esi,eax

fn004029C3()
	lock	
	sub	bl,dh
	inc	edi
	mov	edi,edx
	neg	bh
	dec	edi
	mov	ebx,esi
	mov	edi,ecx
	jmp	00402098
004029D5                D7 2D 0F FF 69 9C 90                  .-..i..   

l004029DC:
	dec	esi
	neg	al
	add	edi,edx
	neg	dl
	pop	eax
	add	edi,edx
	add	edx,esi
	neg	bl
	mov	bl,8A
	neg	bh
	call	00402392
	inc	esp
	xchg	eax,ecx
	and	ebx,[ebx+CC24448F]

fn004029F7()
	pop	dword ptr [esp-34]
	or	esi,ecx
	xor	ebx,esi
	dec	esi
	add	eax,ecx
	or	esi,edx
	call	00402247
	mov	[7F49FBF0],al
	and	al,73
	xor	bh,cl
	add	bl,ah
	neg	bl
	mov	bh,4B
	add	edx,ecx
	dec	edi
	mov	bh,46
	jl	00402594

l00402A23:
	rep	
	mov	al,al
	jge	00402594
	xor	[ecx],esp
	fldcw	word ptr [eax+eax-76]

fn00402A31()
	mov	dh,dl
	mov	dl,dh
	mov	dh,5F
	inc	edx
	xor	edx,ebx
	rol	ah,18
	dec	edx
	add	edx,edi
	xor	esi,edi
	jmp	0040211A
00402A47                      2A F8 B6 EC                       *...    

fn00402A4B()
	sub	ecx,000002CE
	xor	eax,ebx
	add	ebx,edi
	mov	ah,C7
	xor	eax,esi
	inc	edx
	mov	bl,ch
	mov	edx,ebx
	jmp	00401EA9
00402A63          28 98 24 5D C2                            (.$].       

fn00402A68()
	add	dl,al
	or	esi,eax
	mov	ebx,eax
	mov	ah,CD
	add	bl,ah
	add	bl,ah
	inc	edx
	or	eax,edx
	jmp	004026FD
00402A7C                                     14 58 1E E0             .X..
00402A80 A0 C5 50 2D                                     ..P-           

l00402A84:
	mov	bh,al
	movzx	ebx,ah
	mov	edi,esi
	inc	esi
	inc	edi
	mov	edi,ecx
	inc	edi
	dec	esi
	shr	eax,10
	mov	edi,esi
	call	00401E84
	rol	byte ptr [edi+8FCB5A05],44

fn00402AA0()
	pop	dword ptr [esp-34]

fn00402AA2()
	and	al,CC
	sub	edx,eax
	sub	ah,C9
	mov	dl,EC
	add	edx,ecx
	or	edx,edi
	xor	dh,ch
	jmp	004022D2
00402AB6                   D3 8E BD 3D EF                      ...=.    

fn00402ABB()
	mov	dl,37
	sub	dl,ah
	neg	dh
	mov	dh,18
	add	dl,cl
	xor	dh,ch
	mov	dl,E5
	mov	dl,2C
	call	00402C35
	enter	317E,8F
	pop	esp
	mov	eax,46D80359

fn00402AD6()
	pop	ecx
	add	ebx,eax
	inc	esi
	xor	ah,dh
	sub	ebx,edx
	or	ebx,edx
	xor	bl,al
	mov	ebx,edi
	jl	00401EDD

l00402AEA:
	rep	
	jge	00401EDD
	cmpsd	
	mov	dh,FD
	jns	00402A83

fn00402AF5()
	lea	esp,[esp+04]
	add	bl,ch
	or	edx,ecx
	neg	ah
	mov	edx,esi
	add	bl,bh
	jbe	00402372
	lea	bx,[ebx]
	jmp	00402B11
	ja	00402372
	mov	bh,B7
	pushf	
	add	ebp,esi

fn00402B1C()
	add	esi,ecx
	inc	esi
	sub	edx,AD273425
	dec	esi
	mov	esi,eax
	or	esi,edi
	mov	esi,ebx
	dec	esi
	xor	esi,ecx
	sub	esi,ecx
	js	004020C1

l00402B37:
	jg	00402B39

l00402B39:
	jns	004020C1

l00402B3F:
	sbb	cs:[edi+8B021A86],ebp

fn00402B45()
	mov	eax,ebx

fn00402B46()
	ret	
00402B47                      32 C1 B2 FD 8B D3 8A D7 8A        2........
00402B50 E1 32 D4 E8 8B FB FF FF CD 10 EF 71 3B A2 39    .2.........q;.9

fn00402B5F()
	pop	dword ptr [esp-10]
	neg	bl
	inc	esi
	add	bh,al
	dec	edi
	xor	ebx,edx
	jz	004021A3

l00402B71:
	push	eax
	pop	eax
	xchg	al,al
	jnz	004021A3

l00402B7B:
	mov	[BAD5DFB5],eax
	and	[ecx+01E92434],ecx

fn00402B81()
	mov	[esp],esi
	jmp	00402B8A

fn00402B86()
	add	[eax],al
	add	[edi],cl
00402B89                            0F                            .     

fn00402B8A()
	lea	eax,[eax]
	pop	esi
	add	dh,dl
	dec	esi
	or	edx,eax
	xor	edx,esi
	mov	dh,cl
	jmp	00402222
00402B9B                                  68 56 73 20 FA            hVs .
00402BA0 15                                              .              

fn00402BA1()
	mov	ah,D8
	or	edx,ebx
	neg	dh
	or	al,dl
	or	al,cl
	inc	eax
	add	eax,ebx
	mov	eax,ebx
	or	dh,ch
	or	ebx,eax
	jl	00402A4B

l00402BBA:
	jns	00402BBC

l00402BBC:
	jge	00402A4B

l00402BC2:
	and	ebp,ebp
	mov	esp,C453AAF2

fn00402BC9()
	add	cl,bh
	inc	ecx
	mov	dl,bh
	call	00402BD3

fn00402BD3()
	xor	esi,ecx
	xor	ch,dh
	sub	ah,ch
	mov	edx,eax
	sub	bh,dl
	xor	ecx,eax
	jmp	00401F63
00402BE4             9A 36 05 8C 19 35 53 72                 .6...5Sr   

fn00402BEC()
	pop	dword ptr [esp-0C]
	inc	ebx
	mov	edi,esi
	or	bh,ah
	dec	edi
	dec	ebx
	or	bh,cl
	xor	bh,dh
	mov	edi,esi
	jz	00402834

l00402C03:
	jnz	00402C05

l00402C05:
	jmp	00402C0A

l00402C0A:
	jnz	00402834

l00402C10:
	or	eax,B4DF5A2B

fn00402C14()
	mov	ah,78

fn00402C15()
	js	00402C42
	ret	
	xor	bh,al
	mov	bl,dh
	add	bh,dl
	mov	dh,ch
	mov	bl,ch
	push	dword ptr [ecx]
	neg	dh
	or	al,ch
	call	0040287E
	illegal	
	cld	
	sub	eax,43B0FE7C

fn00402C35()
	lea	esp,[esp+04]
	or	dl,bl
	or	edx,ecx
	or	esi,edi
	sub	esi,edi
	xor	dh,dl

l00402C42:
	repne	
	mov	dh,ah
	xor	edx,eax
	jmp	004027B9
00402C4C                                     9B B5 10 25             ...%
00402C50 CC 15 B3 02 00 00 00 00 00 00 00 00 00 00 00 00 ................
00402C60 00 00 00 00 00 00 00 00 00 00 00 00 00 00 00 00 ................
00402C70 00 00 00 00 00 00 00 00 00 00 00 00 00 00 00 00 ................
00402C80 00 00 00 00 00 00 00 00 00 00 00 00 00 00 00 00 ................
00402C90 00 00 00 00 00 00 00 00 00 00 00 00 00 00 00 00 ................
00402CA0 00 00 00 00 00 00 00 00 00 00 00 00 00 00 00 00 ................
00402CB0 00 00 00 00 00 00 00 00 00 00 00 00 00 00 00 00 ................
00402CC0 00 00 00 00 00 00 00 00 00 00 00 00 00 00 00 00 ................
00402CD0 00 00 00 00 00 00 00 00 00 00 00 00 00 00 00 00 ................
00402CE0 00 00 00 00 00 00 00 00 00 00 00 00 00 00 00 00 ................
00402CF0 00 00 00 00 00 00 00 00 00 00 00 00 00 00 00 00 ................
00402D00 00 00 00 00 00 00 00 00 00 00 00 00 00 00 00 00 ................
00402D10 00 00 00 00 00 00 00 00 00 00 00 00 00 00 00 00 ................
00402D20 00 00 00 00 00 00 00 00 00 00 00 00 00 00 00 00 ................
00402D30 00 00 00 00 00 00 00 00 00 00 00 00 00 00 00 00 ................
00402D40 00 00 00 00 00 00 00 00 00 00 00 00 00 00 00 00 ................
00402D50 00 00 00 00 00 00 00 00 00 00 00 00 00 00 00 00 ................
00402D60 00 00 00 00 00 00 00 00 00 00 00 00 00 00 00 00 ................
00402D70 00 00 00 00 00 00 00 00 00 00 00 00 00 00 00 00 ................
00402D80 00 00 00 00 00 00 00 00 00 00 00 00 00 00 00 00 ................
00402D90 00 00 00 00 00 00 00 00 00 00 00 00 00 00 00 00 ................
00402DA0 00 00 00 00 00 00 00 00 00 00 00 00 00 00 00 00 ................
00402DB0 00 00 00 00 00 00 00 00 00 00 00 00 00 00 00 00 ................
00402DC0 00 00 00 00 00 00 00 00 00 00 00 00 00 00 00 00 ................
00402DD0 00 00 00 00 00 00 00 00 00 00 00 00 00 00 00 00 ................
00402DE0 00 00 00 00 00 00 00 00 00 00 00 00 00 00 00 00 ................
00402DF0 00 00 00 00 00 00 00 00 00 00 00 00 00 00 00 00 ................
00402E00 00 00 00 00 00 00 00 00 00 00 00 00 00 00 00 00 ................
00402E10 00 00 00 00 00 00 00 00 00 00 00 00 00 00 00 00 ................
00402E20 00 00 00 00 00 00 00 00 00 00 00 00 00 00 00 00 ................
00402E30 00 00 00 00 00 00 00 00 00 00 00 00 00 00 00 00 ................
00402E40 00 00 00 00 00 00 00 00 00 00 00 00 00 00 00 00 ................
00402E50 00 00 00 00 00 00 00 00 00 00 00 00 00 00 00 00 ................
00402E60 00 00 00 00 00 00 00 00 00 00 00 00 00 00 00 00 ................
00402E70 00 00 00 00 00 00 00 00 00 00 00 00 00 00 00 00 ................
00402E80 00 00 00 00 00 00 00 00 00 00 00 00 00 00 00 00 ................
00402E90 00 00 00 00 00 00 00 00 00 00 00 00 00 00 00 00 ................
00402EA0 00 00 00 00 00 00 00 00 00 00 00 00 00 00 00 00 ................
00402EB0 00 00 00 00 00 00 00 00 00 00 00 00 00 00 00 00 ................
00402EC0 00 00 00 00 00 00 00 00 00 00 00 00 00 00 00 00 ................
00402ED0 00 00 00 00 00 00 00 00 00 00 00 00 00 00 00 00 ................
00402EE0 00 00 00 00 00 00 00 00 00 00 00 00 00 00 00 00 ................
00402EF0 00 00 00 00 00 00 00 00 00 00 00 00 00 00 00 00 ................
00402F00 00 00 00 00 00 00 00 00 00 00 00 00 00 00 00 00 ................
00402F10 00 00 00 00 00 00 00 00 00 00 00 00 00 00 00 00 ................
00402F20 00 00 00 00 00 00 00 00 00 00 00 00 00 00 00 00 ................
00402F30 00 00 00 00 00 00 00 00 00 00 00 00 00 00 00 00 ................
00402F40 00 00 00 00 00 00 00 00 00 00 00 00 00 00 00 00 ................
00402F50 00 00 00 00 00 00 00 00 00 00 00 00 00 00 00 00 ................
00402F60 00 00 00 00 00 00 00 00 00 00 00 00 00 00 00 00 ................
00402F70 00 00 00 00 00 00 00 00 00 00 00 00 00 00 00 00 ................
00402F80 00 00 00 00 00 00 00 00 00 00 00 00 00 00 00 00 ................
00402F90 00 00 00 00 00 00 00 00 00 00 00 00 00 00 00 00 ................
00402FA0 00 00 00 00 00 00 00 00 00 00 00 00 00 00 00 00 ................
00402FB0 00 00 00 00 00 00 00 00 00 00 00 00 00 00 00 00 ................
00402FC0 00 00 00 00 00 00 00 00 00 00 00 00 00 00 00 00 ................
00402FD0 00 00 00 00 00 00 00 00 00 00 00 00 00 00 00 00 ................
00402FE0 00 00 00 00 00 00 00 00 00 00 00 00 00 00 00 00 ................
00402FF0 00 00 00 00 00 00 00 00 00 00 00 00 00 00 00 00 ................
00403000 84 A8 2B 8D 00 FF FF 67 38 05 00 01 63 00 03 E3 ..+....g8...c...
00403010 E2 00 49 CE 8B AD 73 64 19 1E AC 27 04 43 55 EF ..I...sd...'.CU.
00403020 77 60 00 64 7B 83 65 07 09 FF 46 5F 90 FF 00 9F w`.d{.e...F_....
00403030 54 AC 88 EF BD 00 00 0D 57 00 7D 7A 00 C3 20 00 T.......W.}z.. .
00403040 CA 80 2A 78 E0 0C BB FF 83 16 FE 00 96 00 49 BE ..*x..........I.
00403050 53 EA 2D 2C FA 73 2C 3C E2 B3 C8 00 83 A9 00 77 S.-,.s,<.......w
00403060 40 81 0E A1 00 BF 00 DF AB 23 FE A2 00 40 B7 00 @........#...@..
00403070 00 00 44 E1 DF 12 91 8C C9 FF 8E FF 10 64 DB 58 ..D..........d.X
00403080 9C CB 27 FC D4 FF C5 00 20 00 18 00 00 57 BE 2B ..'..... ....W.+
00403090 76 ED 7A 1A C4 F1 00 00 64 D5 9D 1B D8 00 45 7B v.z.....d.....E{
004030A0 00 B8 F8 6D DC 72 06 00 AE 08 11 00 B1 18 00 52 ...m.r.........R
004030B0 9B 00 B1 00 16 00 65 FD DE AC 91 00 8F C3 2E 12 ......e.........
004030C0 CD 00 95 ED 83 45 85 21 6F 48 D1 2F 02 60 00 EF .....E.!oH./.`..
004030D0 7C A3 25 D3 00 90 9C BE 51 86 00 A0 5F EE A7 28 |.%.....Q..._..(
004030E0 4C E2 79 C1 47 E9 00 FB 83 FC 81 10 5D 00 FF CC L.y.G.......]...
004030F0 2F 00 93 00 86 00 00 3B 38 20 C9 37 F5 C6 95 9E /......;8 .7....
00403100 7E 6F 03 00 FF 17 00 88 FF 50 94 DE 8F 03 46 3C ~o.......P....F<
00403110 2D F3 A9 77 35 34 F2 E2 16 00 00 00 09 8D 9E F5 -..w54..........
00403120 D9 6C 36 69 9C 40 98 46 11 B2 00 DA 00 65 8D 43 .l6i.@.F.....e.C
00403130 08 65 1C 87 0B 01 8D 1C 25 DE 00 72 C8 3C E1 5D .e......%..r.<.]
00403140 9F FB 09 D5 00 87 4D 62 46 3D E8 93 2D E4 8B EC ......MbF=..-...
00403150 B8 AE 89 CB 4A F1 00 00 89 10 72 23 9A 4C DA 8E ....J.....r#.L..
00403160 C5 FF 0A AA 00 E7 D7 C7 8E 80 EF 9C 00 9A 60 6C ..............`l
00403170 44 4A 3C 00 87 8D 8D 45 00 DA BD EE C0 EC 87 89 DJ<....E........
00403180 F9 C1 00 2E AF BB 0E 00 47 00 71 45 8E C6 60 A2 ........G.qE..`.
00403190 22 3A CE 1A 48 77 5F B1 98 B1 ED 28 61 FF AC 09 ":..Hw_....(a...
004031A0 C0 07 00 77 F1 0A FF FF 00 DE B3 00 93 CE 00 BB ...w............
004031B0 00 7F 06 00 10 BF C1 DC 00 B4 1D 07 0D 41 70 03 .............Ap.
004031C0 21 00 B0 63 3D A1 DA 0E A3 CC 59 1B 68 85 66 C3 !..c=.....Y.h.f.
004031D0 AA 00 00 FC 8A E6 00 C4 98 00 00 A0 38 74 2D 01 ............8t-.
004031E0 71 E9 4F D2 9D 7B 10 BB DA 86 8D E3 39 10 A0 29 q.O..{......9..)
004031F0 34 6A F7 68 71 00 DB 4A BD 04 4F 83 FF 42 F3 16 4j.hq..J..O..B..
00403200 84 F2 DB 33 6A 00 00 03 BF EE ED 9C 99 3A 17 26 ...3j........:.&
00403210 00 F1 42 FE 00 7A 4A 81 AB 46 FF 9F 38 0F 08 25 ..B..zJ..F..8..%
00403220 0A EC B0 13 00 85 82 E5 00 3A B8 00 1C 8B E6 00 .........:......
00403230 E3 4E F8 1D 73 00 74 A8 62 A9 8C FF 03 2E 00 17 .N..s.t.b.......
00403240 B7 75 A5 C5 34 B1 32 C7 FF EF 70 FF 15 63 8C 31 .u..4.2...p..c.1
00403250 FF EF 00 00 DE E0 BE 1E 48 FF A6 76 BD 73 1B 7F ........H..v.s..
00403260 17 46 FD 3F 80 26 00 00 83 D8 00 CA 06 06 3D 7F .F.?.&........=.
00403270 F1 C5 6B 5A FC 38 79 EF 00 00 CF AE 42 B7 D7 7A ..kZ.8y.....B..z
00403280 70 D4 D3 A3 B3 0C EA 01 51 57 25 2C A2 CB DD 3E p.......QW%,...>
00403290 BF 00 F3 00 FA 0C 06 C1 57 60 01 46 B6 00 FD 16 ........W`.F....
004032A0 84 00 7B 1B C9 00 04 FF 23 85 87 45 EA 0C 5E 00 ..{.....#..E..^.
004032B0 11 B8 78 B0 AF 44 28 6F 9A 00 60 06 FC 20 60 07 ..x..D(o..`.. `.
004032C0 EA 25 D8 1F F5 83 EB 1C DD 28 0E 2B 00 9B 3F B5 .%.......(.+..?.
004032D0 00 25 69 DE CE B4 70 FB 1B 6D 9F A9 98 FF 36 DE .%i...p..m....6.
004032E0 10 C4 86 37 4F E6 02 D7 13 81 5A 57 0E FE 26 0F ...7O.....ZW..&.
004032F0 7A 77 09 E7 90 2A 95 D2 DD F1 F4 46 B7 13 5F A0 zw...*.....F.._.
00403300 A9 C7 0E FF 1D 9F 04 6A C7 7E 50 52 00 00 00 C2 .......j.~PR....
00403310 21 69 B6 67 A0 D2 16 BF 66 03 32 FF 20 33 71 78 !i.g....f.2. 3qx
00403320 00 E8 A8 00 69 D5 EC B6 00 18 BD 32 99 ED 3E 00 ....i......2..>.
00403330 D7 38 21 35 70 8C D0 F6 92 97 8B 3F DB 27 5B CC .8!5p......?.'[.
00403340 1A C0 4B 8D 99 F1 01 15 A8 36 19 D6 54 14 00 3F ..K......6..T..?
00403350 3F B3 51 1B 05 DA 9A FF 0E 00 FC 00 D7 AA 93 00 ?.Q.............
00403360 3A 6C BD FF 00 50 47 00 B1 FE A5 7E 00 D8 F5 57 :l...PG....~...W
00403370 E8 E9 00 3A 13 FF EB BC 20 FF 46 35 4B FF 5B E8 ...:.... .F5K.[.
00403380 88 52 0A 0F 70 80 B4 1C 57 27 35 00 BD 05 15 00 .R..p...W'5.....
00403390 E4 66 A3 FA 4F F1 6D 84 5B 41 02 A2 6B FF 1F D2 .f..O.m.[A..k...
004033A0 D3 5A 90 D9 05 1A 00 DF 0E 78 75 7B 42 00 38 FD .Z.......xu{B.8.
004033B0 0F 63 8B 79 73 0D 8C 3D 00 93 C6 3B EB 00 BD 67 .c.ys..=...;...g
004033C0 42 35 7B 43 3F 7C D6 FF D8 AA 38 58 D0 86 02 84 B5{C?|....8X....
004033D0 93 F4 C1 32 86 00 BB D8 89 48 FF 2D 60 27 87 A6 ...2.....H.-`'..
004033E0 F0 A0 55 A4 F7 91 15 DD 33 00 F0 7E B5 00 2D FF ..U.....3..~..-.
004033F0 14 07 D4 E9 20 FF 8C FF 56 6B 05 FF 0A EF 5E BA .... ...Vk....^.
00403400 33 00 55 CC 04 18 00 4A 5E 37 31 90 CE 62 FF 88 3.U....J^71..b..
00403410 44 3C 06 FF E6 C4 23 7B 07 F7 B4 BA 17 6A C3 9A D<....#{.....j..
00403420 44 89 F5 FF EB 72 18 FF 86 9D DE A3 DF 01 C6 4E D....r.........N
00403430 14 26 8C B7 4D 2C DF D7 1E BE 00 FD 7C C9 E5 21 .&..M,......|..!
00403440 E1 2C FF 31 A1 0F 0F 00 2E 20 FF 52 B9 2C FF EF .,.1..... .R.,..
00403450 34 5F 53 9A C9 59 53 B6 FF 40 93 99 B8 0C FE 67 4_S..YS..@.....g
00403460 23 79 5B 1E 77 FF 9A 3C 3E 3C 90 69 91 D5 00 02 #y[.w..<><.i....
00403470 1A 10 C2 6D 30 FF A4 DA 13 5E 2C 00 10 B5 00 32 ...m0....^,....2
00403480 0C AC 18 FF 10 8C 3E CC 7B 37 00 85 9E FF 05 DE ......>.{7......
00403490 AC 00 81 81 06 CB BD F3 08 7E 5D 5B E9 A1 32 07 .........~][..2.
004034A0 00 DB 18 FF 00 80 01 DD BD 8E B5 43 C7 52 F7 CC ...........C.R..
004034B0 00 80 E3 00 17 93 3D B4 A4 7A 3C EE 02 C8 4A EF ......=..z<...J.
004034C0 5A 4F 4D FF 00 D8 35 C5 00 5B D4 F4 93 BC E9 00 ZOM...5..[......
004034D0 45 48 24 FD C2 8C D3 96 00 8D 65 DF 3B 22 EB A8 EH$.......e.;"..
004034E0 94 6A D8 EB 00 D1 00 A6 FF C5 1F 2B 8D 00 31 80 .j.........+..1.
004034F0 EE 89 C2 CF 34 06 B4 3B 01 B3 34 E9 48 85 BF 36 ....4..;..4.H..6
00403500 01 01 BC ED FF EF 00 00 36 9F E0 0A 80 00 2B DF ........6.....+.
00403510 D8 00 B9 64 41 FF 01 8A FF FF 99 70 44 10 00 FF ...dA......pD...
00403520 15 7B 78 11 1D 69 BB 9C EE FF 54 00 79 66 00 E6 .{x..i....T.yf..
00403530 00 2C 00 FF 4F 3A 10 3C 00 C4 FB 7E FA 5E 5D 63 .,..O:.<...~.^]c
00403540 1D E0 6A 6B E4 45 95 4E 57 00 94 22 83 41 33 34 ..jk.E.NW..".A34
00403550 F6 FF 18 39 D9 20 AD 29 FF 34 20 11 4A E5 E2 C0 ...9. .).4 .J...
00403560 77 00 35 87 00 87 C6 6F BC BF 8C A0 D1 31 4E A0 w.5....o.....1N.
00403570 00 A1 00 02 C4 C3 C2 02 DB 93 C4 82 5B B1 39 4F ............[.9O
00403580 80 50 D1 5E 51 0D 56 D4 44 59 79 B4 E7 77 C4 E3 .P.^Q.V.DYy..w..
00403590 C9 FF 9E 3D 49 F9 FF 61 62 8C AD D9 83 BB B3 EF ...=I..ab.......
004035A0 FF 7C 00 76 03 B1 B1 FF 23 F5 8F 00 A1 0F 02 06 .|.v....#.......
004035B0 6D F5 46 DF C4 CE AA A7 30 08 4D DC B0 FD A4 00 m.F.....0.M.....
004035C0 DD 4C 29 CF 00 79 E8 E8 87 27 4C 88 21 A3 6D A5 .L)..y...'L.!.m.
004035D0 BC 00 F4 29 D9 B7 98 89 9F DC 98 00 12 08 43 C4 ...)..........C.
004035E0 1F C9 72 2E 00 5A 1E 61 00 54 DE 00 1D 1D 6E A7 ..r..Z.a.T....n.
004035F0 E4 82 77 00 00 32 29 6D E9 49 F1 53 00 C0 F5 80 ..w..2)m.I.S....
00403600 CB 00 8A 4A 00 30 00 C0 FF 7E 0F 73 C4 F8 C1 00 ...J.0...~.s....
00403610 9E B1 00 EC D1 1F 6F E1 DC F2 CC C2 52 AF 64 00 ......o.....R.d.
00403620 4F 92 DA 64 7F 5D 00 42 25 3B F9 00 6D 89 98 FE O..d.].B%;..m...
00403630 20 00 4D 93 42 60 00 60 D5 C9 4B 72 68 72 01 00  .M.B`.`..Krhr..
00403640 90 BC 09 ED 0C 00 E6 4B 14 41 3E 86 41 00 86 DF .......K.A>.A...
00403650 8B 00 87 D4 17 A1 31 3C 00 88 12 C1 10 56 EB 76 ......1<.....V.v
00403660 9D 96 F8 DB EF E1 00 0F 82 02 5F 40 3E 7C 43 00 .........._@>|C.
00403670 D7 11 2E E4 FF F7 FD 1E 2E 80 84 00 76 DB 0C 00 ............v...
00403680 00 60 33 4C 00 6A 94 23 CB 1C 0E 4A 20 5B 19 CA .`3L.j.#...J [..
00403690 CE 01 A0 B3 7C 45 EB 48 FE 40 30 70 8D FF 16 FF ....|E.H.@0p....
004036A0 BB 4E 0F C5 09 FB 48 00 66 61 E6 AE FA 5D FE C5 .N....H.fa...]..
004036B0 5B 8B 74 5D 2E 50 9F 00 8A 0D 00 C0 75 80 0E 57 [.t].P......u..W
004036C0 50 D6 12 00 E3 FF CD 88 00 AA E1 CD A4 4A 69 35 P............Ji5
004036D0 05 5E A2 89 38 DF D8 34 CB D0 72 99 C4 AE 11 A9 .^..8..4..r.....
004036E0 DE 4A 64 0E 18 F5 6C EF 97 2C 50 5C 7F 00 62 A8 .Jd...l..,P\..b.
004036F0 03 00 00 4E 10 39 01 0F 17 14 48 FF CC 70 99 F3 ...N.9....H..p..
00403700 C4 CC E4 CD 91 FF A2 02 0E 24 00 93 BF 4E 00 F7 .........$...N..
00403710 00 01 3E 0D 48 82 EC 6B 49 AA 00 25 CE 45 FF 73 ..>.H..kI..%.E.s
00403720 11 1E 10 81 46 81 1E 51 DB A2 3F 60 7C B8 00 D5 ....F..Q..?`|...
00403730 AA 52 0D 00 40 AF 00 24 FF 00 6D FF CC 19 91 FF .R..@..$..m.....
00403740 53 9E FE 00 32 00 00 5F 7E F4 A3 77 EA 00 00 65 S...2.._~..w...e
00403750 08 33 01 C7 FF E0 0C 00 FF 84 6A 00 BF 30 27 06 .3........j..0'.
00403760 82 00 21 15 D6 EC 58 7E 61 D0 AD 00 03 BB 95 16 ..!...X~a.......
00403770 FA 48 0A 1C A3 E1 39 5C 00 A1 66 CF EF FF 01 A2 .H....9\..f.....
00403780 D5 00 98 14 DB 6E 00 19 00 3F 00 8F 54 1F 5D CB .....n...?..T.].
00403790 10 CA F4 00 05 32 2C E4 FF 12 74 24 FF 62 60 D8 .....2,...t$.b`.
004037A0 D6 57 00 72 12 76 EB 84 00 E5 CF F2 00 42 7C 1B .W.r.v.......B|.
004037B0 30 09 96 4F 6F C3 70 00 00 D7 E7 2F 8E 00 00 69 0..Oo.p..../...i
004037C0 3B 1D 2A 6D FF C1 68 E7 1F FF 5D 73 B6 32 74 6B ;.*m..h...]s.2tk
004037D0 01 97 96 43 D3 40 BD 0F 08 C7 00 6D BF 50 00 56 ...C.@.....m.P.V
004037E0 D6 51 00 B3 A3 00 B4 24 00 6F 00 6E 75 62 26 87 .Q.....$.o.nub&.
004037F0 C6 00 01 FF D2 4D 46 27 16 D2 A2 EF 17 C0 72 1E .....MF'......r.
00403800 00 00 FF BE E2 F0 6E 46 00 84 02 FF C0 8C B8 18 ......nF........
00403810 00 E6 08 CF 79 DB 60 9C 00 5A 7C 45 00 02 E6 20 ....y.`..Z|E... 
00403820 CA E4 E1 C9 B5 B9 F0 D1 7C A7 EF F7 E1 9F 9B 9A ........|.......
00403830 45 46 1D 00 84 F8 C1 FF 91 78 D7 98 98 DC 5D 68 EF.......x....]h
00403840 ED 0E AE 00 0F 3B 5E 00 FF 60 71 27 AB EC F6 8F .....;^..`q'....
00403850 2E 00 9B 47 FD F0 91 8B 41 00 00 F9 38 4C 61 00 ...G....A...8La.
00403860 14 FF B1 41 AE BF 3F 23 7B 6B 1E FF 3C 89 CF 34 ...A..?#{k..<..4
00403870 65 9F 67 7C 10 9A 2F 00 63 DC A5 00 00 DF E2 1E e.g|../.c.......
00403880 96 10 3E 00 56 00 37 86 FD B9 50 13 9A EF 2A 38 ..>.V.7...P...*8
00403890 83 5E D8 00 6D F0 00 3D 58 1B 87 FB F8 AB A3 53 .^..m..=X......S
004038A0 2E 00 DD 3E 3E 9B 5B 98 87 0E 57 00 33 00 B6 A1 ...>>.[...W.3...
004038B0 28 81 32 C2 CC 83 39 EA 00 11 31 90 CC C2 1F 9B (.2...9...1.....
004038C0 05 4D 00 00 A7 C0 04 0E 17 59 36 A3 18 32 FF 04 .M.......Y6..2..
004038D0 03 E9 46 C8 70 7D 79 DD FD B3 15 D0 07 A0 00 43 ..F.p}y........C
004038E0 C1 00 FE 90 D5 93 3C 61 4C 40 A2 D9 00 80 7C D9 ......<aL@....|.
004038F0 80 ED 2B 9F E2 EF D9 30 F8 24 13 A2 E0 00 5E 5F ..+....0.$....^_
00403900 99 EF FF 7B 1C A0 A7 3C 36 FF 1D C2 FA 65 00 47 ...{...<6....e.G
00403910 B4 C2 75 00 1E 00 7E 48 4B 39 78 C7 0F 5D A8 1A ..u...~HK9x..]..
00403920 EE 5F 1D 7F 81 11 73 26 80 BE 98 69 25 61 00 52 ._....s&...i%a.R
00403930 61 C2 C4 44 00 3A 54 C4 03 00 FD 83 F2 A5 80 00 a..D.:T.........
00403940 FF FB 28 00 70 CE 63 03 92 C2 4D 00 2C B4 00 6B ..(.p.c...M.,..k
00403950 00 E8 00 E3 EB F1 00 00 25 96 01 D8 13 00 FA 00 ........%.......
00403960 C5 FB 3A 00 74 80 92 F7 86 5B 00 BC 48 30 40 74 ..:.t....[..H0@t
00403970 75 4E 30 C6 0E B4 F8 58 43 DE 1A 20 35 A7 28 0E uN0....XC.. 5.(.
00403980 53 B6 28 59 00 B7 64 D0 34 65 49 64 4F 00 F4 69 S.(Y..d.4eIdO..i
00403990 F8 7A 4D E2 4B EF 3E C0 73 81 12 01 6B D3 DB 59 .zM.K.>.s...k..Y
004039A0 A7 E8 70 DF 45 98 9E A2 41 07 D8 50 93 97 00 38 ..p.E...A..P...8
004039B0 0E B2 C5 49 FF 8C 87 79 88 31 E9 48 7F 2C 18 FE ...I...y.1.H.,..
004039C0 6E 20 52 D3 00 9E FF 0F 7C EC EB C4 84 10 9F 99 n R.....|.......
004039D0 EF 74 CB 3F F7 9D C0 11 22 93 72 46 B0 A8 CB FF .t.?....".rF....
004039E0 CF F2 11 08 97 0E 23 D3 39 48 BB 8F EC D4 02 54 ......#.9H.....T
004039F0 D5 F1 95 D5 BF 0C 01 6D B0 D6 87 00 DE 5A 00 E5 .......m.....Z..
00403A00 B3 06 00 CA 73 B5 DB 48 83 78 F5 FF 17 00 26 79 ....s..H.x....&y
00403A10 00 A9 79 FF BD 00 7B E6 85 4D 9C 60 FF 63 EA BD ..y...{..M.`.c..
00403A20 6F 04 C1 00 00 00 62 BA FB 02 4D 5D D8 16 38 C0 o.....b...M]..8.
00403A30 58 01 00 96 61 66 61 79 1B B2 4F 00 27 E8 43 77 X...afay..O.'.Cw
00403A40 2E 00 97 81 03 4E 55 18 96 C8 F1 F9 37 18 8D 00 .....NU.....7...
00403A50 19 B4 B6 F4 C2 E1 1B E7 47 BF AA 02 00 E2 69 65 ........G.....ie
00403A60 FD E0 E5 50 7C 01 36 4B 9E 00 C6 77 4A BD 00 B0 ...P|.6K...wJ...
00403A70 5A 4A CC D0 87 FD 89 00 21 B2 3A A2 27 7A 04 22 ZJ......!.:.'z."
00403A80 00 AD 54 FF 09 6E F5 8A EC C1 54 00 5D 2B 00 A0 ..T..n....T.]+..
00403A90 03 00 B0 96 CF 4A D6 58 56 00 11 22 DC 34 00 10 .....J.XV..".4..
00403AA0 70 C7 FB 66 5E 80 BF 33 88 A5 00 00 FF 25 45 7E p..f^..3.....%E~
00403AB0 0C 00 FD 00 70 8D 1F DB 20 6C 00 1E F4 B8 68 3C ....p... l....h<
00403AC0 CC 52 FF 3B E1 F9 89 E6 C7 DD A4 52 C7 00 FD 01 .R.;.......R....
00403AD0 87 2F 94 4D 5A FF D2 82 00 63 AF C4 8F DE D7 6E ./.MZ....c.....n
00403AE0 69 83 31 42 1F 7C 8B B0 72 9C AA 98 BF 44 38 94 i.1B.|..r....D8.
00403AF0 12 A1 E9 76 00 00 00 F3 1D B3 FD FB 56 D5 9B 21 ...v........V..!
00403B00 BF 01 34 00 0B 97 30 03 C8 00 26 76 8F 8F 02 53 ..4...0...&v...S
00403B10 04 FF FC 00 00 73 09 D7 26 2C 00 83 04 48 46 00 .....s..&,...HF.
00403B20 3B 90 14 66 86 8F 00 B2 6C B5 BF 52 B4 F8 07 08 ;..f....l..R....
00403B30 08 00 A4 9F FF 11 54 DE 00 24 98 AC 0E 00 00 FF ......T..$......
00403B40 73 FF 00 E5 7D 9E 68 15 C5 6C 5B FF 27 0D 25 1A s...}.h..l[.'.%.
00403B50 FF F5 61 CF FA F5 BD 3D 49 B6 F9 00 C0 A6 38 9D ..a....=I.....8.
00403B60 5E 78 00 DF 74 D5 B7 28 76 42 00 04 87 E1 12 31 ^x..t..(vB.....1
00403B70 FF E1 F5 22 3D 00 31 81 A2 02 74 5D 8E 42 F8 38 ..."=.1...t].B.8
00403B80 4C 50 56 A3 B0 E8 3E AE C1 1E 00 3C 26 01 00 01 LPV...>....<&...
00403B90 A9 DA B4 27 FF BD 44 FF C5 88 A8 A0 F5 1B 83 4F ...'..D........O
00403BA0 60 4C 3C 60 04 EA C1 46 36 B7 00 B7 00 D0 CB 9C `L<`...F6.......
00403BB0 AE 4C 25 0D BF 85 31 E6 71 19 FF E8 00 C0 7E C3 .L%...1.q.....~.
00403BC0 28 BE 99 FF AC 00 82 DF 98 FA DA 64 75 00 27 2A (..........du.'*
00403BD0 19 FE FE FF 6E F9 98 42 2A 79 F9 4D 07 38 EF 00 ....n..B*y.M.8..
00403BE0 05 00 B5 BE D5 00 FF 5A 9C E7 85 CF DC 91 ED 00 .......Z........
00403BF0 58 F8 07 D7 30 C0 8C 31 78 8F 6B D3 B5 00 E6 00 X...0..1x.k.....
00403C00 00 00 25 01 8F 3E A3 2C EF 92 4C 2F 70 9B F0 F9 ..%..>.,..L/p...
00403C10 F9 56 2C D0 9A F4 6C 14 00 56 35 39 FD F7 B2 38 .V,...l..V59...8
00403C20 5C CF 38 00 61 F5 C7 0E 00 5A 1A 00 00 29 EC B3 \.8.a....Z...)..
00403C30 00 A0 17 50 FE 0F E1 35 D5 F2 27 CE 58 AA 7A 43 ...P...5..'.X.zC
00403C40 64 D4 59 E6 18 CC B9 96 02 60 87 0F 98 FA E7 C5 d.Y......`......
00403C50 0E FF 47 18 F6 07 8B 03 17 64 3A 4A 00 8D C2 96 ..G......d:J....
00403C60 4F 00 48 12 DB 1D 11 04 4A 28 4D 27 00 D9 B4 00 O.H.....J(M'....
00403C70 16 00 B7 5A 8E C0 9E 1F 20 2C CD A0 6F 61 BE 00 ...Z.... ,..oa..
00403C80 46 A5 00 E5 B0 0E 86 82 15 82 01 E8 B0 89 E2 00 F...............
00403C90 4A 6C 6D FF ED B9 24 F6 F6 14 89 50 01 1F 00 57 Jlm...$....P...W
00403CA0 00 00 C9 A1 13 C0 BB 31 00 97 00 02 40 FC 74 E8 .......1....@.t.
00403CB0 04 74 D7 7F F6 FA 46 96 15 07 15 46 FF 20 08 BE .t....F....F. ..
00403CC0 00 A8 EB 22 2A 1D 03 7F 6A DF 00 D3 25 CD 90 9F ..."*...j...%...
00403CD0 A7 A6 F7 CD 03 3C 80 70 FA 00 A8 48 F3 15 68 78 .....<.p...H..hx
00403CE0 AC 69 00 07 86 D1 63 A4 83 FF 84 8B FF 57 C4 41 .i....c......W.A
00403CF0 3A CC DD C1 33 F3 FF 00 D2 39 00 CE FF 16 40 32 :...3....9....@2
00403D00 4B B7 33 1B A7 DB B8 BD B5 8F 2C 27 39 D4 83 00 K.3.......,'9...
00403D10 38 E6 60 0C 97 E0 B5 23 B7 C9 58 68 3E D9 64 2B 8.`....#..Xh>.d+
00403D20 F4 79 E5 04 91 CB 39 78 00 66 43 71 3D 00 BB 67 .y....9x.fCq=..g
00403D30 1F 6F 00 6F 34 C1 A7 00 1B 00 01 87 00 FC 9E 00 .o.o4...........
00403D40 00 96 00 00 00 61 FC 28 70 C0 A1 67 26 AE 7D 00 .....a.(p..g&.}.
00403D50 67 F3 1D 76 44 12 FF F7 D0 BF D1 FE D7 AE 08 5F g..vD.........._
00403D60 19 A7 BA C0 F1 E1 2C 27 DD D4 ED D7 7A 00 40 1F ......,'....z.@.
00403D70 30 CC B3 56 00 F0 00 C4 12 59 AA F5 E1 00 FF A7 0..V.....Y......
00403D80 00 D3 7D E6 FB 00 77 BB C1 15 00 91 F7 59 00 78 ..}...w......Y.x
00403D90 00 24 23 7C 9E 46 81 CC 6A FF 79 8A 96 2A 93 61 .$#|.F..j.y..*.a
00403DA0 00 F9 14 30 87 00 C7 69 9D B1 13 C1 C0 59 F8 CF ...0...i.....Y..
00403DB0 08 EB B9 6C 07 9A 39 FF 1D E8 A7 C0 00 5C 1C 69 ...l..9......\.i
00403DC0 E2 BA FF 0B FE 82 00 BD 12 AC 7F 8D 25 99 07 40 ............%..@
00403DD0 CE FC 59 FF F9 14 DF 69 00 B1 00 32 08 01 C8 BE ..Y....i...2....
00403DE0 AB BD FF 8C 4C CA 85 50 73 F4 91 9E E9 1D 95 14 ....L..Ps.......
00403DF0 0F F6 F1 30 11 EB FF 6E 45 F2 1E 16 15 34 EA DF ...0...nE....4..
00403E00 02 41 1B 69 1C C7 64 42 BC 3E 68 32 81 6D 73 E5 .A.i..dB.>h2.ms.
00403E10 2C 93 FF 38 43 FD A0 95 73 80 03 86 93 1F D1 EE ,..8C...s.......
00403E20 71 33 0F 46 F8 FF F9 DB 10 66 99 02 08 C2 98 D7 q3.F.....f......
00403E30 1F 5E 68 00 37 01 00 24 3C 00 C7 0C 2A 70 3C 32 .^h.7..$<...*p<2
00403E40 0C 79 FF B4 20 54 38 FF 00 85 61 46 7F B2 90 72 .y.. T8...aF...r
00403E50 C5 00 00 23 94 97 9E 94 1F EC 6D AC 9D 70 00 07 ...#......m..p..
00403E60 FA 83 05 00 A7 00 5E 00 7C CB C9 A3 02 78 66 E3 ......^.|....xf.
00403E70 9F 00 85 F4 3B FF 44 FD 43 EF 1E 47 2E F3 00 56 ....;.D.C..G...V
00403E80 00 00 22 00 E0 32 70 72 00 86 C7 0A 58 E1 A3 6A .."..2pr....X..j
00403E90 23 FF 63 FF F9 10 1E B8 7B 00 EF 00 E2 C3 DF 00 #.c.....{.......
00403EA0 5C 85 99 AE DE 56 00 7E 49 00 C1 CE 56 1B 00 BE \....V.~I...V...
00403EB0 0F C1 81 FF B1 15 C8 F7 3C 6C 88 91 35 42 52 00 ........<l..5BR.
00403EC0 1C 34 B6 36 7E 23 14 56 05 DF B4 42 96 8E 3D 9A .4.6~#.V...B..=.
00403ED0 A3 04 00 DD BD 07 F8 00 21 12 33 C3 00 38 8D 13 ........!.3..8..
00403EE0 B6 54 79 2C 88 D0 27 37 D0 26 E6 AD 43 C6 D5 D2 .Ty,..'7.&..C...
00403EF0 65 22 28 2C EC D0 10 C5 C0 00 93 FF 78 00 C6 0B e"(,........x...
00403F00 00 C6 29 B2 00 1F C6 5C DC 00 00 1A 2E FF 48 C8 ..)....\......H.
00403F10 74 00 E8 00 08 4E FF 7D B9 01 8E 36 C1 08 CA 03 t....N.}...6....
00403F20 21 FC FF 11 1E 73 39 68 2E B1 F1 D5 E7 F5 D9 00 !....s9h........
00403F30 A0 24 00 74 13 EC E9 34 18 F3 80 F8 82 FD 00 C4 .$.t...4........
00403F40 70 00 AE 77 3B 00 55 F0 B8 51 F3 00 3C A7 53 72 p..w;.U..Q..<.Sr
00403F50 5D 27 BE 02 D2 2E 5C E6 D1 FF AC E3 06 5B 74 AB ]'....\......[t.
00403F60 51 F0 6B 98 94 93 52 B0 38 C7 5A F9 1C 8D 00 81 Q.k...R.8.Z.....
00403F70 00 4E 2D B0 4E 8A 6E 48 02 E1 00 19 E0 81 05 D2 .N-.N.nH........
00403F80 D5 FF 28 38 3D 08 48 4E F7 20 00 3F B3 61 08 00 ..(8=.HN. .?.a..
00403F90 FF 4D CB 79 31 64 68 AC 78 00 57 9B FB FF 6C D0 .M.y1dh.x.W...l.
00403FA0 28 71 19 B5 98 77 CE 2F E3 93 00 16 8B 00 5B 06 (q...w./......[.
00403FB0 BE 00 EE FF 38 C8 34 00 65 7B 5F E3 00 D8 A7 F0 ....8.4.e{_.....
00403FC0 25 3B 7B 79 FF 00 F4 A4 43 2C 48 81 7B BC 00 00 %;{y....C,H.{...
00403FD0 1E 00 00 12 59 98 3A 98 3E 6A 73 00 D8 66 E4 F5 ....Y.:.>js..f..
00403FE0 F8 18 FF 04 A2 9C C3 19 46 8B 5A BB 00 1D D9 9D ........F.Z.....
00403FF0 4B 86 9E 54 2C 20 18 66 8A 40 00 00 41 12 15 B2 K..T, .f.@..A...
00404000 2D 92 E4 00 2F 22 5A 0B 28 16 3B FD 68 16 7C B1 -.../"Z.(.;.h.|.
00404010 1D 2E 00 35 7E 00 4C F4 D1 54 87 C0 C2 B7 48 86 ...5~.L..T....H.
00404020 20 00 AF C6 C2 00 18 73 43 1A 00 BE 30 6E 4E 00  ......sC...0nN.
00404030 E2 04 DC 00 74 C6 FF AF 44 9B 7D 71 BB 69 96 B0 ....t...D.}q.i..
00404040 C3 99 07 99 00 13 8F 4C 43 8C D4 ED 5B 50 BF 00 .......LC...[P..
00404050 FF 00 72 08 B5 25 7B 97 AB 90 CC 00 1A F8 36 04 ..r..%{.......6.
00404060 00 FF D8 93 6A 07 C6 6B A4 FB 00 00 69 00 5A E0 ....j..k....i.Z.
00404070 E9 00 0A F3 A7 FF 97 A2 45 BC 2A A2 85 45 00 DC ........E.*..E..
00404080 96 FF D5 08 38 62 FF 00 10 B0 CD 23 A0 5F 0E E1 ....8b.....#._..
00404090 40 25 04 08 E9 DC 53 9E FF EB 2C 77 94 D7 78 72 @%....S...,w..xr
004040A0 00 7F 2F 37 F1 27 99 68 25 33 88 39 73 D9 1B BF ../7.'.h%3.9s...
004040B0 00 A7 A0 81 25 00 46 34 57 C1 9E 62 1B 00 00 FA ....%.F4W..b....
004040C0 CB 00 49 00 27 4A 83 45 FF E9 64 8A 36 08 50 44 ..I.'J.E..d.6.PD
004040D0 20 60 CB 7F DA 00 00 00 C6 00 3F 00 6A BC 6E 69  `........?.j.ni
004040E0 C9 00 00 3E 9C 26 02 00 D0 00 19 F5 04 89 30 6C ...>.&........0l
004040F0 93 FF 6C 66 04 B0 00 C2 B9 70 CA 33 20 7B 93 2E ..lf.....p.3 {..
00404100 F4 63 31 44 33 3B 00 00 00 A8 BD 8E 9C 42 27 EF .c1D3;.......B'.
00404110 B3 0D 6D 0F 53 1F 04 AA D6 FF 71 EA 7D FF BE 91 ..m.S.....q.}...
00404120 00 26 FF 65 CB 15 E5 2A 0F EE 3C 4B 12 00 51 FF .&.e...*..<K..Q.
00404130 51 E7 00 98 0C 72 A0 68 00 09 3D CB C1 F0 C5 3C Q....r.h..=....<
00404140 F5 BC 08 FD 58 1E 00 DF 00 C3 C0 B8 4A 1B 6D 65 ....X.......J.me
00404150 6C 50 FF 28 BB 00 10 C0 34 92 B7 62 C7 47 56 93 lP.(....4..b.GV.
00404160 4C 1A FF DD 4E 00 FF 93 20 28 13 E0 0F 00 B0 83 L...N... (......
00404170 7B 9A D4 4B BB ED 2B 00 21 0C 00 80 50 00 00 96 {..K..+.!...P...
00404180 DF 00 B8 EA 23 00 B2 11 00 15 39 A5 F0 2D 4B 1C ....#.....9..-K.
00404190 74 6F B6 6E EF 00 CC DD 6E D2 48 82 23 00 6B 14 to.n....n.H.#.k.
004041A0 55 78 37 14 45 00 57 7A 18 65 0D 4C F9 00 63 E8 Ux7.E.Wz.e.L..c.
004041B0 AC 45 E4 FD 45 45 BB 1D 00 FF 73 6F FF 63 84 E4 .E..EE....so.c..
004041C0 D9 7C F4 ED A6 EF 52 B8 C4 90 EF D7 D9 22 18 66 .|....R......".f
004041D0 1D 8F 72 82 02 00 84 FF 14 9F A3 22 2D 25 FF F6 ..r........"-%..
004041E0 93 00 69 5C 00 88 93 19 07 F4 D2 BB 2B BD 0F 07 ..i\........+...
004041F0 F3 15 00 EC 65 C8 F7 05 6E 66 00 31 8C 06 7C F8 ....e...nf.1..|.
00404200 70 0D B2 00 22 C2 26 1C 1D 00 41 1C A0 91 EA 90 p...".&...A.....
00404210 64 BC 3F E4 03 70 01 00 3D 96 65 45 18 FF 71 A4 d.?..p..=.eE..q.
00404220 00 FF CE 00 00 73 6E 4F 62 10 0A 30 1C 92 5B 5B .....snOb..0..[[
00404230 FF 2E C1 B0 60 00 97 CF 24 BF A3 CB FA FF F4 20 ....`...$...... 
00404240 8B 23 98 2B 71 54 62 5E B1 9A 9E 6C 00 4E E7 00 .#.+qTb^...l.N..
00404250 D4 E4 73 91 A1 A0 64 92 68 6E 8F FF 00 C6 2C C7 ..s...d.hn....,.
00404260 3D FD 84 65 34 44 00 04 00 9B 2A 34 A3 C0 5B 00 =..e4D....*4..[.
00404270 0E BF 53 EC 68 80 36 DB FF E3 60 17 00 E7 D9 7C ..S.h.6...`....|
00404280 06 FF 1C E7 63 22 FF E9 09 1D 6E 24 FD 14 FF 35 ....c"....n$...5
00404290 A1 C5 16 00 07 5C 00 D7 E1 11 FF E3 07 FF 00 95 .....\..........
004042A0 A1 22 A7 19 B7 92 4C 21 64 81 E2 5C E0 BC 00 96 ."....L!d..\....
004042B0 E8 61 53 16 08 BD A0 DE 4E 26 7F FF 01 29 00 00 .aS.....N&...)..
004042C0 00 6D B2 FA 00 E7 04 55 30 10 73 C8 35 78 47 24 .m.....U0.s.5xG$
004042D0 E7 2D BE 09 B8 4E 04 47 C4 D4 50 D3 77 E2 DE 1F .-...N.G..P.w...
004042E0 C4 D0 00 A1 9F F9 53 30 A0 94 49 00 A7 B7 1F 9F ......S0..I.....
004042F0 AC 00 B9 53 8F FB 00 95 83 52 00 D3 78 00 E2 8A ...S.....R..x...
00404300 00 4E A0 EA 0F 1D D1 A1 3E C3 00 08 F8 0A 99 54 .N......>......T
00404310 FD 00 C6 FC FF E3 4C EC 4F E8 8D 1B 2B 08 43 F8 ......L.O...+.C.
00404320 00 71 4E 04 06 CD FA B1 9C 61 1C C9 A0 F3 01 07 .qN......a......
00404330 9F D9 E6 E4 DE 83 AE 00 1D E1 67 F6 8C 00 2C 19 ..........g...,.
00404340 00 96 CE 8D 17 54 36 BC A1 09 79 F4 4D E1 72 00 .....T6...y.M.r.
00404350 CE 53 28 0C 88 00 00 C6 CB F8 6E 00 BB 0E AE E6 .S(.......n.....
00404360 DD 3C 00 00 00 01 B5 D2 09 42 35 00 B9 E1 40 C2 .<.......B5...@.
00404370 4D 60 92 00 73 10 A9 1B 40 00 40 7A 66 45 00 B5 M`..s...@.@zfE..
00404380 BB E4 00 D9 00 12 41 13 00 80 85 09 C7 DB B1 61 ......A........a
00404390 F0 E1 00 10 B3 00 00 B4 30 3B 5B 23 FF 28 F7 00 ........0;[#.(..
004043A0 C3 00 73 4C CD D7 6E 2C 4C 27 DF 73 30 BE E6 D9 ..sL..n,L'.s0...
004043B0 7E 00 DD 00 51 B0 68 02 21 3C 8A F8 00 FF A4 01 ~...Q.h.!<......
004043C0 30 00 F2 00 31 A0 5C F3 1C D3 00 0A BF 00 00 80 0...1.\.........
004043D0 73 4B 24 42 04 E4 04 0C 00 8D 8E A5 A8 E0 4B 4B sK$B..........KK
004043E0 EA 00 5D 68 E5 11 1D 76 E8 CF 9B 00 A9 A3 0A 46 ..]h...v.......F
004043F0 00 BF 04 00 00 00 00 C2 00 D2 96 1D 4C F7 71 D4 ............L.q.
00404400 8F C7 87 44 00 FF 91 F9 EE 6A E6 C4 6F FF 4D 61 ...D.....j..o.Ma
00404410 FF 5D DE 00 DA 20 8D CF 52 05 00 00 46 C6 6E CB .]... ..R...F.n.
00404420 0B 8C 15 FF 41 77 C5 78 FB E4 D9 A6 FF 8B CD 00 ....Aw.x........
00404430 F3 90 72 86 F1 FF 4A 00 F0 83 9E 2C EB 1F 11 15 ..r...J....,....
00404440 6D 81 D8 06 12 7B AA E1 00 69 ED 00 29 F0 04 9B m....{...i..)...
00404450 6D 4E 68 41 90 97 A1 ED 00 97 FF C0 33 7C FD D8 mNhA........3|..
00404460 18 A6 EF 09 1E 0F 70 C6 17 EF 8C 00 1E 00 76 FD ......p.......v.
00404470 FE 10 F0 4B E3 7E BB 00 FF 87 0A CB 00 99 67 5D ...K.~........g]
00404480 6A 6F 67 00 80 E7 32 CA 2B F3 53 92 73 00 D7 CF jog...2.+.S.s...
00404490 DF 6F FF 8A 98 63 81 FF 39 E3 25 28 B7 26 FF A0 .o...c..9.%(.&..
004044A0 18 42 FF FF FF 58 AF 46 11 2D CF EB 00 AE 02 26 .B...X.F.-.....&
004044B0 5C 01 00 07 A6 00 00 90 E8 D8 A0 F7 1D 7F 00 8F \...............
004044C0 00 C4 00 0B 8A EA 3E 30 8C 36 64 A1 72 40 15 DD ......>0.6d.r@..
004044D0 2D 00 A6 EC E1 F9 9F C6 82 8B 1E 06 CE 4F 53 24 -............OS$
004044E0 EC AC 3E B4 69 52 AE 24 AB 96 92 61 5E FF 70 19 ..>.iR.$...a^.p.
004044F0 16 00 00 20 00 30 36 00 00 B5 5D 00 00 D8 F4 E8 ... .06...].....
00404500 4A 00 E2 00 00 6F 78 41 D4 00 8E DC 96 E3 86 4E J....oxA.......N
00404510 6A 40 E5 00 B9 86 88 2A BA 38 6E 72 04 6A 00 60 j@.....*.8nr.j.`
00404520 2E FF D6 B7 83 E3 94 3B 0B 00 0F 48 FA 00 4A FF .......;...H..J.
00404530 48 A1 0C FF 69 06 A8 5D 6A 6A 87 DF 42 00 00 00 H...i..]jj..B...
00404540 11 70 8B 00 EF 89 BA FF 20 17 A9 3F A0 CA 4B E8 .p...... ..?..K.
00404550 D2 05 52 73 D8 A1 F4 FC B7 00 0E 83 08 2C BF B0 ..Rs.........,..
00404560 7A E8 74 FD 51 B4 10 00 D7 95 FF 61 AA AE DF 05 z.t.Q......a....
00404570 96 B1 31 8F E3 66 3B EB 82 48 96 FF 00 52 0A C8 ..1..f;..H...R..
00404580 20 E3 08 4D C6 0A 00 0E 60 00 59 7D 0C E3 3C C2  ..M....`.Y}..<.
00404590 86 FB 00 F5 FB 00 B6 EF 00 8F F4 1F 60 00 D3 7E ............`..~
004045A0 83 5F 63 FF FA 28 F9 B0 5C C1 80 00 DF 2E D6 03 ._c..(..\.......
004045B0 81 00 6E 71 CE 82 3C 03 3A FF 10 39 9D 00 FA 14 ..nq..<.:..9....
004045C0 00 79 27 E5 D7 73 00 AF B8 E4 00 FF D0 97 A1 19 .y'..s..........
004045D0 2C 2E 47 48 A0 FF 00 34 FF 8D 00 CF E2 E6 76 F3 ,.GH...4......v.
004045E0 B3 4A 8A 5F E6 78 52 05 00 DE 00 6C 21 CB 58 54 .J._.xR....l!.XT
004045F0 12 34 14 43 C9 FF 54 C6 00 33 60 DF 18 72 B8 00 .4.C..T..3`..r..
00404600 26 00 66 70 FF C5 00 00 0D DC F1 F3 F3 71 D4 00 &.fp.........q..
00404610 88 1A 91 D8 34 CC 65 75 FE AD AE D6 00 04 68 B6 ....4.eu......h.
00404620 FF 4C 75 88 D5 8B 29 1E 3D F2 00 DB C3 F2 FB 50 .Lu...).=......P
00404630 C8 00 FF F7 80 03 0C 26 DF 00 E1 D1 CE D1 26 BE .......&......&.
00404640 85 38 FF 8D 0E C1 02 E4 23 A2 E8 00 FD A8 5E 00 .8......#.....^.
00404650 E8 91 5A 07 F4 54 74 B6 FD 06 00 FF C6 00 51 16 ..Z..Tt.......Q.
00404660 20 4B 2A 57 61 B7 08 D4 F4 B9 DC 2E 20 4A 28 30  K*Wa....... J(0
00404670 06 10 D3 F4 C0 E3 70 D6 00 DA 55 40 B7 00 0D 80 ......p...U@....
00404680 46 48 06 3E 01 89 53 A0 00 64 09 EF C8 47 BF 0B FH.>..S..d...G..
00404690 00 99 4C 6E FD 10 00 0A D1 89 73 80 66 DE BA 58 ..Ln......s.f..X
004046A0 2C 6C 87 62 B5 88 BC 73 AD 13 10 6F 65 B3 C3 52 ,l.b...s...oe..R
004046B0 00 12 FF C4 98 50 BD 7A 82 00 FC 00 9B 98 32 1F .....P.z......2.
004046C0 00 DE 00 FF 61 00 34 F8 32 CB 58 29 E1 E3 73 00 ....a.4.2.X)..s.
004046D0 A8 3E 38 0D 1C D8 12 10 B8 87 29 86 71 ED C7 CE .>8.......).q...
004046E0 91 42 F8 6E 54 95 65 5C 69 87 87 5A B4 93 BD CF .B.nT.e\i..Z....
004046F0 CD 8C BD DF 28 03 28 FD FA B9 00 FF 00 FF 44 B1 ....(.(.......D.
00404700 39 69 FF 40 48 59 00 00 AE 6F 10 3B 37 12 59 29 9i.@HY...o.;7.Y)
00404710 FB 05 EF B5 45 2D E1 81 BC D7 03 74 A5 FF DC 14 ....E-.....t....
00404720 FF 0F 7F 20 62 87 18 34 00 6E 26 35 21 95 C1 BD ... b..4.n&5!...
00404730 3D 9D 1F E0 43 D3 EC CF 67 A6 5B FF 5F 0D 84 BF =...C...g.[._...
00404740 A7 2B F4 B2 93 00 B6 8C 65 FC 97 81 FF BB 27 C0 .+......e.....'.
00404750 D2 56 FF 23 00 F3 A9 E7 49 6B C0 6E DB 7E 5A 28 .V.#....Ik.n.~Z(
00404760 61 86 FF 41 E2 C7 05 12 FF 83 ED AB 0F 64 B4 12 a..A.........d..
00404770 F0 E5 FF BA 00 04 C7 0D 86 00 7F 8B 84 2D BD D1 .............-..
00404780 65 ED DA 6B 47 68 D9 BB 21 8B 3A 88 9F 5B 0E 08 e..kGh..!.:..[..
00404790 09 1D C8 CE 58 0C 04 68 EC 69 D6 6D 93 C4 81 48 ....X..h.i.m...H
004047A0 45 4E 27 01 00 00 27 D4 DB A1 00 8D 20 35 00 0E EN'...'..... 5..
004047B0 DD E0 88 86 A0 D3 B9 40 FF 81 ED F9 7F 87 FF 2C .......@.......,
004047C0 27 00 00 40 B7 8E A5 24 02 13 52 DC 00 8F D0 00 '..@...$..R.....
004047D0 8F 00 00 48 1B 00 76 44 34 20 C0 E4 D4 00 F2 FA ...H..vD4 ......
004047E0 29 00 A9 60 67 FE FE 2E 26 D2 F9 E3 0C CD 3A 5F )..`g...&.....:_
004047F0 1F 92 00 22 FA 06 DD E8 00 F3 E4 C0 7D 83 4C 00 ..."........}.L.
00404800 7C F9 00 A8 3C 43 D3 02 5D 18 D4 67 FF E3 D3 18 |...<C..]..g....
00404810 D6 30 03 DE 15 47 A6 60 17 5A C1 B0 72 57 C9 00 .0...G.`.Z..rW..
00404820 C7 BE 29 FF 17 A3 57 3F E0 C0 71 E2 75 7E 00 08 ..)...W?..q.u~..
00404830 00 5F 00 DF 41 CD 00 FF 4C 15 00 38 CB FF 96 86 ._..A...L..8....
00404840 A3 B3 1E 31 54 5B 01 C2 50 9B 84 7E 00 A7 C2 22 ...1T[..P..~..."
00404850 AE 52 EC 56 DE C0 18 32 DB 8A 00 60 7A 00 DC 87 .R.V...2...`z...
00404860 96 F3 78 98 93 60 4F F2 2B B2 00 C0 65 C3 66 5D ..x..`O.+...e.f]
00404870 00 AF 00 FF 34 6A E4 0C 60 B9 00 57 B1 00 8A 18 ....4j..`..W....
00404880 C7 70 B7 65 4B EE 93 EC D9 3D 0E F2 FE FF AD BF .p.eK....=......
00404890 4C D5 20 97 74 00 25 A0 91 00 07 B2 01 B7 A9 02 L. .t.%.........
004048A0 00 E3 12 1B E8 FF 1D 00 99 90 EF 9A 97 62 03 26 .............b.&
004048B0 A6 9B 86 00 06 88 20 7B C5 55 52 F9 8C D1 5F 98 ...... {.UR..._.
004048C0 10 BF 00 A5 27 48 2D E8 FF 2E 9D 00 00 5C 51 00 ....'H-......\Q.
004048D0 E3 48 40 CA FF FC 63 30 E8 5E 5A 27 D2 67 C2 C2 .H@...c0.^Z'.g..
004048E0 00 9C 00 51 27 2C 4A FF E3 D8 F1 05 00 4E 00 C9 ...Q',J......N..
004048F0 E9 21 33 C5 00 74 A7 9F F5 F4 FF CC 6C FF BD 5D .!3..t......l..]
00404900 9E 00 7A F4 34 FB 48 31 9F D7 09 D7 5E 00 B3 FF ..z.4.H1....^...
00404910 55 00 73 FF AD FF 14 4E E5 18 CA 40 00 01 3E E3 U.s....N...@..>.
00404920 F8 3F 00 61 CD 16 70 00 80 E9 F7 3E 00 00 4C DB .?.a..p....>..L.
00404930 7C 52 41 09 00 EB E5 D6 F1 DE 89 2A 5A D2 11 14 |RA........*Z...
00404940 00 02 4F F9 DD 7C 85 A3 40 81 DE 21 FF 33 FD BA ..O..|..@..!.3..
00404950 00 23 EE 3A 18 03 3F 64 B7 9C 00 39 73 E0 A0 00 .#.:..?d...9s...
00404960 0C 21 D8 FF 40 2B C1 00 75 52 08 8E DE AB AB 6B .!..@+..uR.....k
00404970 5C 00 4E 00 00 FF 0A 00 00 00 B3 7C B5 E2 0E F4 \.N........|....
00404980 7D B6 62 CA 00 EB 2F E9 B1 00 37 EB E0 76 FF E7 }.b.../...7..v..
00404990 B4 08 28 C3 42 F3 D3 28 CB 38 00 68 09 3C CF 00 ..(.B..(.8.h.<..
004049A0 ED 00 F8 05 D6 62 22 B6 5C 58 08 A6 A7 D0 89 5B .....b".\X.....[
004049B0 4D 07 5C B2 DB C9 19 F7 34 4F 8A 7D F1 53 05 9E M.\.....4O.}.S..
004049C0 81 52 0A 9D 78 3E 3F E9 47 32 85 C0 38 00 D5 10 .R..x>?.G2..8...
004049D0 5C 3F 2E 55 03 2F 40 1C 7E CD C0 8A 00 19 30 93 \?.U./@.~.....0.
004049E0 08 56 88 00 FF AD 30 00 FA 07 DD 46 08 CD A1 00 .V....0....F....
004049F0 BC 70 21 96 B8 1D 33 EB 07 AF 5A FF 2A 32 85 4C .p!...3...Z.*2.L
00404A00 00 31 00 1E 87 A1 98 18 00 10 F7 D1 8F 17 FF 1C .1..............
00404A10 17 90 00 1F D9 A9 2B C4 62 0E 31 DF 22 00 8C 12 ......+.b.1."...
00404A20 6B D1 02 00 00 3F 6D 9F 4C 44 28 FE 3F 8F 42 29 k....?m.LD(.?.B)
00404A30 00 E1 08 00 14 47 2A 1C DB CF 00 00 17 C6 F9 1D .....G*.........
00404A40 FF 92 F1 B5 63 00 6C 00 FF 8F 06 D6 FF 81 B4 B6 ....c.l.........
00404A50 BC 00 D1 38 DA 04 61 FF D4 BA 29 00 2B 68 C0 5D ...8..a...).+h.]
00404A60 00 05 C2 CA 00 47 00 FF BA C9 00 B4 AE C0 8A 00 .....G..........
00404A70 39 00 9C 2E 8A C7 07 88 BA 76 F4 EF 4A 86 4C 9B 9........v..J.L.
00404A80 73 BA E8 0A 86 16 C0 4E 65 3F 4A 00 73 2A 14 F3 s......Ne?J.s*..
00404A90 9F 19 E0 00 00 BE DF 00 18 EA FD 06 6D 00 AD 02 ............m...
00404AA0 1E 37 E2 4C D8 E9 78 EE 22 00 21 CF 00 00 46 8C .7.L..x.".!...F.
00404AB0 DB FE 5B 6F D6 1F 04 19 21 32 3D 00 9F E3 59 00 ..[o....!2=...Y.
00404AC0 00 C8 4A 07 98 2A 9D 00 00 48 E0 5C 02 E4 4C 04 ..J..*...H.\..L.
00404AD0 E6 D4 CD 5C 00 3C C6 D9 04 7C C8 96 41 04 FF C3 ...\.<...|..A...
00404AE0 A8 16 2B 48 8A 73 69 FF C8 3F B0 0C FF 87 F5 00 ..+H.si..?......
00404AF0 03 60 F1 01 4D 04 3E 8D 79 BF F2 31 D0 E6 64 5E .`..M.>.y..1..d^
00404B00 EB 00 30 8E FF F3 00 00 B5 17 FD 66 FF 71 89 C1 ..0........f.q..
00404B10 3D 10 DB 04 33 00 42 FF 7C B9 16 C0 1A 75 00 C6 =...3.B.|....u..
00404B20 C8 3E 8E 00 FF 30 FF 3A CB 6D 54 FF 05 00 C2 41 .>...0.:.mT....A
00404B30 3B C6 E4 00 00 00 FA 5A 1B 05 00 C4 47 5A 4F 92 ;......Z....GZO.
00404B40 42 00 B7 99 CC 3F 29 B4 47 A0 10 84 80 FC BB A2 B....?).G.......
00404B50 84 B8 A2 53 2C 48 40 5F 63 28 02 48 D9 00 0D 00 ...S,H@_c(.H....
00404B60 04 C2 C6 FE 95 54 F4 48 3F 00 3C C6 00 BA BB BF .....T.H?.<.....
00404B70 AD 8F 89 03 59 A8 6F F6 FF 0D 94 75 10 FF 00 30 ....Y.o....u...0
00404B80 81 93 80 AB F8 86 4D D3 12 FF A0 F0 B3 91 DF 00 ......M.........
00404B90 00 CF 0E E1 32 00 20 AC FF 4E AC 0B 14 40 E7 00 ....2. ..N...@..
00404BA0 55 52 B4 48 00 4E 7E F3 85 A8 EF 0D 22 81 DB 26 UR.H.N~....."..&
00404BB0 9E 48 B7 89 3E FF 8D 3A BF FF FF 95 4E A6 83 3B .H..>..:....N..;
00404BC0 F8 DA 15 B0 D0 5A 5C 3C 00 D3 79 50 99 F3 B1 54 .....Z\<..yP...T
00404BD0 FF 88 52 FF 00 00 63 C6 3A 33 94 6A 04 58 DC 8C ..R...c.:3.j.X..
00404BE0 EB 32 FD FF 00 78 C8 96 75 F2 00 CF 00 02 47 EB .2...x..u.....G.
00404BF0 9D E3 99 7D 1A C8 38 FF 7C 00 D1 DE 63 4D 67 FF ...}..8.|...cMg.
00404C00 F1 7C 65 E7 82 00 FF 1A 80 78 B0 22 DF CE 00 00 .|e......x."....
00404C10 FF 00 58 57 35 FF C1 FE 88 6C 47 58 12 1E 5F 95 ..XW5....lGX.._.
00404C20 00 E3 0B 82 7D 80 81 83 57 02 A7 13 00 95 6F 02 ....}...W.....o.
00404C30 00 76 20 AB 3B 00 AF 3E B1 3B 39 F4 C0 B0 00 08 .v .;..>.;9.....
00404C40 BF 53 DA F0 58 00 89 5F 78 ED 41 61 00 00 9B B8 .S..X.._x.Aa....
00404C50 7E 00 5C FD 3C 00 E4 00 E1 6E 1E 2A 16 11 65 FD ~.\.<....n.*..e.
00404C60 A4 44 FC 3C 1B 79 7C 00 7B E5 20 8A 2A 64 BD 11 .D.<.y|.{. .*d..
00404C70 03 83 B7 9E AE FF 85 B2 47 CB 6F 60 FF FF 44 00 ........G.o`..D.
00404C80 EF 00 FE 1C 42 AE 42 C2 61 FF 0C D3 D0 89 45 22 ....B.B.a.....E"
00404C90 60 38 7F F2 18 E4 3C 03 E5 01 22 B0 5C C9 55 3F `8....<...".\.U?
00404CA0 93 1C 8A 9C 00 14 00 85 3A 4E 78 5A CE 6A 18 00 ........:NxZ.j..
00404CB0 45 CF 3F 03 41 18 67 1A DB FF DB 1B DF 01 CC E4 E.?.A.g.........
00404CC0 36 FF 16 22 7E 00 24 00 FF C4 6C 8B 29 FF A8 CF 6.."~.$...l.)...
00404CD0 76 BD 43 ED 00 50 4F C3 76 D8 87 14 51 B8 5D 00 v.C..PO.v...Q.].
00404CE0 57 5F D7 BE C2 0E 68 69 C7 58 92 BC 5D 2A 48 DE W_....hi.X..]*H.
00404CF0 FF EB D7 9A 12 07 3C 1D 00 55 CF E8 51 00 B4 09 ......<..U..Q...
00404D00 36 3F 83 01 0D AD BF C5 EF A7 F7 94 21 F4 2D FF 6?..........!.-.
00404D10 F4 27 5A E1 86 74 00 00 6C 9F A9 BB 9E 00 B8 2B .'Z..t..l......+
00404D20 47 E8 84 60 8E FB 2A C0 FF C8 EC 00 5A 5E 08 BB G..`..*.....Z^..
00404D30 F7 00 78 DC E9 0B 85 BD 9B D3 00 31 A5 C1 27 A6 ..x........1..'.
00404D40 00 3A FF 07 39 4F E0 68 18 6C FF FF C8 DF 8F 77 .:..9O.h.l.....w
00404D50 F5 95 00 8F 8A 0B 12 99 0A 00 00 1E 9D 2D 64 E7 .............-d.
00404D60 28 73 0C EF E6 00 BF 83 B6 04 C0 CE 02 B1 99 54 (s.............T
00404D70 DD 22 A9 8E CB 84 13 83 11 13 03 24 D7 94 48 E4 .".........$..H.
00404D80 9B FD ED 39 FD 8E B9 5B 43 63 24 97 9F AA 09 17 ...9...[Cc$.....
00404D90 95 3F F3 08 0E 32 20 8D 71 8F C0 D0 9E 00 3B 04 .?...2 .q.....;.
00404DA0 D3 A3 F9 4F 4D B4 00 FF 78 00 C9 44 09 F9 C8 24 ...OM...x..D...$
00404DB0 50 7A 38 FE 55 23 9C B2 D8 C4 00 22 72 21 44 58 Pz8.U#....."r!DX
00404DC0 7A AB 00 41 60 00 BB 6B 01 00 18 23 6C C3 9F 8B z..A`..k...#l...
00404DD0 BF BB 6F 00 00 00 FF 02 8B 03 FF CB 7F B2 81 50 ..o............P
00404DE0 E0 FF 86 F5 3C AE 9B 45 00 00 3E 56 40 F6 46 C9 ....<..E..>V@.F.
00404DF0 FF 4F 3F A9 00 3F 87 27 6C 39 2B 02 3C 24 14 A0 .O?..?.'l9+.<$..
00404E00 41 00 04 41 D8 65 00 C0 60 D5 07 70 60 DF 0A 1C A..A.e..`..p`...
00404E10 CB 1E 77 00 2D 04 81 C3 00 51 B5 32 FF E6 21 F2 ..w.-....Q.2..!.
00404E20 F9 F8 C6 F9 4B FF 90 06 13 FF 2E 6C 99 26 0C 78 ....K......l.&.x
00404E30 29 B7 00 73 80 5E DB 76 8C 98 F0 02 E8 72 6E 43 )..s.^.v.....rnC
00404E40 44 F1 5D 7F 28 A6 BF 00 D8 1E 00 D5 78 0D 35 C3 D.].(.......x.5.
00404E50 F9 86 9D F3 A3 3B B1 00 00 74 0A FC 00 4A 23 B1 .....;...t...J#.
00404E60 D2 35 61 D0 A9 0E 00 E0 71 00 FF 0E BB 36 FF E0 .5a.....q....6..
00404E70 33 FF 36 F9 B8 00 FF 84 87 00 B0 00 00 00 36 F7 3.6...........6.
00404E80 C2 00 15 E7 48 0C 00 1C B8 25 11 C6 16 AF 00 A5 ....H....%......
00404E90 29 00 08 AE 8C 1A 00 01 65 4E 53 0B B0 45 34 47 ).......eNS..E4G
00404EA0 00 CC 71 90 1B B5 6F 46 51 19 00 77 DE 76 00 66 ..q...oFQ..w.v.f
00404EB0 60 2F CA 5A B3 0A 40 9B 7E 4D 46 B7 58 3F 5B 00 `/.Z..@.~MF.X?[.
00404EC0 00 C3 84 9C 4F B4 48 E1 00 0A B3 3B 51 00 64 E3 ....O.H....;Q.d.
00404ED0 09 21 D1 FF 27 67 9B 5F 2D 37 65 00 D3 19 00 E4 .!..'g._-7e.....
00404EE0 7F FF 39 41 00 2F 89 DB 69 08 DE FF BD 2F 45 EE ..9A./..i..../E.
00404EF0 40 00 65 83 40 00 00 E9 1E 4D FB 36 6B 15 CC 5E @.e.@....M.6k..^
00404F00 07 00 E1 00 00 FF 36 02 8D F6 12 31 01 08 00 A6 ......6....1....
00404F10 AD 68 88 C6 43 41 27 1A 8A 04 B4 00 EF C0 40 C5 .h..CA'.......@.
00404F20 9F FF 83 9F 72 DF FD FD 5D E3 22 2D EC 8B 1D 80 ....r...]."-....
00404F30 32 18 F7 00 27 E7 F7 BE 84 75 1B 23 2B 00 00 F4 2...'....u.#+...
00404F40 84 89 50 30 74 D3 6B 7C AF D8 DE 61 00 77 2A D5 ..P0t.k|...a.w*.
00404F50 0E 4F B6 AE C2 4D 00 C3 08 16 D2 FF 71 FF 4A FF .O...M......q.J.
00404F60 C5 93 81 25 1F 05 C3 D8 29 13 A0 00 00 00 44 2C ...%....).....D,
00404F70 1D 17 D9 48 D4 FF 26 00 1A EE 8F 10 13 00 37 72 ...H..&.......7r
00404F80 00 00 0E 64 07 4E 51 04 AD BC EC E7 1C 10 00 89 ...d.NQ.........
00404F90 0F FE 5B 17 00 28 E4 93 83 52 F2 38 00 39 00 70 ..[..(...R.8.9.p
00404FA0 A2 E2 C1 00 00 3A 3A 16 74 16 19 FF D6 00 B7 B9 .....::.t.......
00404FB0 BD D9 13 7A 38 3E 77 2D C6 83 2F D7 A0 93 A0 15 ...z8>w-../.....
00404FC0 4C E2 D0 E1 F7 C0 C0 F8 86 00 B8 FF 0E 78 B2 5C L............x.\
00404FD0 00 89 EB DD F4 3C F3 19 3F 05 BA 6C 00 E5 63 B5 .....<..?..l..c.
00404FE0 88 BB 0A E0 E2 8F 1F 09 00 C2 7C 5A 11 76 D4 4F ..........|Z.v.O
00404FF0 DF DC 8C 00 FF C7 00 87 00 2E 00 72 64 17 00 90 ...........rd...
00405000 1F BF 7F 89 E1 00 14 1A 0B A7 1F 00 46 00 47 98 ............F.G.
00405010 9D 00 D5 00 AC 39 5C 77 5A 93 7E 2C 65 0B 3A F8 .....9\wZ.~,e.:.
00405020 23 24 5D 40 52 00 A3 F7 51 00 B8 6B 00 88 A1 F9 #$]@R...Q..k....
00405030 38 46 5F 5B 9E F6 7B FD AE 1B 5F F8 00 06 27 1B 8F_[..{..._...'.
00405040 50 41 31 00 0B 00 0B BB D9 00 83 26 02 24 77 AE PA1........&.$w.
00405050 1C 6D 37 00 31 00 B9 EC 04 C5 88 6F 19 23 03 00 .m7.1......o.#..
00405060 1E DD C9 EC E4 85 3A F1 A3 FF F0 00 0F 97 97 2E ......:.........
00405070 70 6B 14 05 AB CF 2E BE 91 55 67 E3 88 D3 12 9C pk.......Ug.....
00405080 00 50 1A 6C 57 A5 00 96 16 19 CC 14 1F 20 07 59 .P.lW........ .Y
00405090 91 00 00 00 2A FF 7B 41 4B 00 9F 00 FF E6 82 BC ....*.{AK.......
004050A0 33 4D 8D 5A 83 17 5A 09 CF 99 20 00 2D 0C 6C 58 3M.Z..Z... .-.lX
004050B0 FD F1 BE 4F 42 00 FC B1 D9 E4 37 00 10 63 FF AD ...OB.....7..c..
004050C0 9E 3A E3 98 1D 83 06 B9 F4 2F BF 2F F6 F3 0F 9B .:......././....
004050D0 33 89 B5 08 95 D6 24 93 B0 A7 9D 0C B0 C6 C8 1D 3.....$.........
004050E0 17 78 FF 00 CB 4F 32 FF DA F7 00 D9 50 8A EE 9D .x...O2.....P...
004050F0 2D 22 A1 D4 A8 F5 2D 00 FF 70 FF 00 23 1F F3 7C -"....-..p..#..|
00405100 FF E8 F6 0C 12 17 FF BF 0D CB C0 84 C2 C6 FA 00 ................
00405110 2D 5E 74 81 35 00 83 F2 04 62 00 D2 00 3D 78 D5 -^t.5....b...=x.
00405120 58 44 0C B3 00 7E C0 60 DA FD FF 00 58 DA E9 D8 XD...~.`....X...
00405130 88 8E E1 27 C0 C4 06 61 06 2E 7B C2 4E E7 B1 00 ...'...a..{.N...
00405140 C6 BF 00 88 C4 53 51 5E 26 3F 24 AF B1 00 00 00 .....SQ^&?$.....
00405150 58 00 01 FE B8 F6 FF 62 C4 31 82 54 8C 4A 42 F9 X......b.1.T.JB.
00405160 39 EF 01 B9 8B E9 87 35 00 00 44 62 A5 85 98 00 9......5..Db....
00405170 30 CC 57 20 D7 E4 9D F6 7F BC 68 82 40 E2 0C 32 0.W ......h.@..2
00405180 D4 11 B9 E6 45 85 F3 CB F6 C5 67 C0 C9 DE B2 6C ....E.....g....l
00405190 DD 4E DD C3 81 D2 00 FF 44 13 41 00 8B 69 B1 4A .N......D.A..i.J
004051A0 FF F8 00 0E F2 FB 3C CA 63 31 05 A7 04 BD 84 8F ......<.c1......
004051B0 B0 DC 34 20 00 AD 9B 38 3D F3 80 52 E1 FE E9 B9 ..4 ...8=..R....
004051C0 30 00 40 25 DB E1 DB EE A4 F2 6C 00 B4 11 D1 3E 0.@%......l....>
004051D0 16 49 86 85 AA 80 C2 52 99 A8 47 00 B3 CC 14 08 .I.....R..G.....
004051E0 56 E1 71 00 B1 18 1B 31 3E 06 68 08 6F 00 00 99 V.q....1>.h.o...
004051F0 EF B8 2E 74 A5 00 97 C2 88 C9 F1 00 EA 7E 63 C2 ...t.........~c.
00405200 18 2F 39 4E 00 B1 00 7A D3 77 76 DE FF F7 45 40 ./9N...z.wv...E@
00405210 83 31 37 00 00 02 EE 77 02 7E 60 8C CF 24 F3 9D .17....w.~`..$..
00405220 B7 D8 8F DF 7D 91 3C EA FF F4 40 FF 00 A0 0C 15 ....}.<...@.....
00405230 72 83 00 C9 3F 95 F4 00 00 7E F7 98 9F 8E BD AE r...?....~......
00405240 E3 44 FF 00 D5 C9 82 D0 20 B7 59 A7 CE FE 82 CC .D...... .Y.....
00405250 00 C7 66 60 EA 38 75 0F 52 D0 9D E8 40 FF 33 7D ..f`.8u.R...@.3}
00405260 F8 FD 00 C7 FF CC 00 C6 C0 5A 6C 8B 18 98 BF BE .........Zl.....
00405270 E1 44 2E 05 13 00 1F FC 69 C4 DC 8E 10 0F F1 92 .D......i.......
00405280 12 B3 00 00 7A 1B 6A 00 3B 94 CA 1C C4 C4 FB 79 ....z.j.;......y
00405290 C3 00 79 68 E6 FF F9 BD 00 08 5D C8 92 00 A3 7E ..yh......]....~
004052A0 8B 3A 8F 9F 45 13 B8 27 F1 EF 14 E1 85 4A B8 43 .:..E..'.....J.C
004052B0 D4 CF 92 AF 0E 84 1A D3 0E C3 5F 33 87 82 51 E0 .........._3..Q.
004052C0 41 6F E4 D9 3C EB D9 10 5D D4 94 1C FF 11 1F C4 Ao..<...].......
004052D0 5D F7 60 10 00 D1 00 62 00 89 35 00 54 F6 1E 98 ].`....b..5.T...
004052E0 C4 EB 00 DD 62 2A 9F 86 70 31 5D B8 A0 AC F8 00 ....b*..p1].....
004052F0 9B 18 00 8E 0C F9 E5 91 1C 1E EB 00 4A F7 00 00 ............J...
00405300 7F 6B 5F 19 61 00 D8 56 3D 00 C6 7D 13 94 00 3C .k_.a..V=..}...<
00405310 4B A9 00 E8 1F DA 54 84 7F 7A 2F 4C F7 B5 B8 D8 K.....T..z/L....
00405320 88 99 00 64 CC FF C0 83 A1 C0 C8 46 64 0D 3A 13 ...d.......Fd.:.
00405330 0F 20 40 8B F9 8A 9C 0D F0 33 FF 40 42 26 00 70 . @......3.@B&.p
00405340 D1 00 99 04 CD FB A9 06 67 99 00 84 20 5F 9B 5D ........g... _.]
00405350 3E AA 4A FF F0 D8 00 47 E1 80 B3 07 FF 17 73 00 >.J....G......s.
00405360 00 B1 8E 2C AD 60 0B 6B 83 D4 3B 0C 3A 09 32 B1 ...,.`.k..;.:.2.
00405370 E2 4A 50 40 00 58 C1 CF 1E 06 A3 A1 84 83 E8 FD .JP@.X..........
00405380 56 FB D3 00 A5 EC 3F D2 3E 2F 5D 1C C6 4B E3 0E V.....?.>/]..K..
00405390 00 3E 7B F8 C0 03 5F D4 AE 00 46 07 66 02 33 13 .>{..._...F.f.3.
004053A0 9D 28 FF 15 B8 FF D2 18 1A 0A CC 0F 5C E9 00 C4 .(..........\...
004053B0 07 00 EC BE 7C 7F 0D 79 09 7E AD 05 00 A2 00 E7 ....|..y.~......
004053C0 08 94 A5 9F 11 61 7C B5 F6 BD 1E CD 90 AF 00 FF .....a|.........
004053D0 8D 1B 00 EC B0 18 E2 06 0A FF B7 9D BB FA 0A 52 ...............R
004053E0 00 FF 90 C2 7C 92 31 D2 E4 47 FF D4 F0 75 53 FB ....|.1..G...uS.
004053F0 00 74 63 04 55 BE 16 0F A2 53 80 73 00 01 65 EC .tc.U....S.s..e.
00405400 93 B2 5C 8E FF 00 D5 68 39 5C 58 60 82 44 BC B8 ..\....h9\X`.D..
00405410 AA B2 DC 61 1C 5D B1 7B 42 12 16 60 21 BA 1C EA ...a.].{B..`!...
00405420 5C EC 81 5A 63 00 71 EF 00 37 76 B0 C8 70 7D B9 \..Zc.q..7v..p}.
00405430 41 06 DF 47 6A A4 EF 0A 7B 00 2F 64 63 00 CE 40 A..Gj...{./dc..@
00405440 A0 0C FB 5F 00 00 00 29 82 9B 12 0B 20 58 00 5A ..._...).... X.Z
00405450 CA 25 F6 FF 5E 16 54 FF 25 ED 3C E6 9B C0 9E 1C .%..^.T.%.<.....
00405460 6B 00 1E E5 30 89 41 14 85 29 5D 00 E4 B7 30 28 k...0.A..)]...0(
00405470 41 F1 00 20 2D 90 C7 6F 34 3E 0C 1A 0A 04 F7 3B A.. -..o4>.....;
00405480 CC 02 FF C6 23 B0 00 FF 52 91 3B EC 1B 0A 0B 7A ....#...R.;....z
00405490 52 13 63 74 F7 00 AF CA 4D 7E D6 CF 7A 41 E5 00 R.ct....M~..zA..
004054A0 00 81 34 E5 C2 01 31 07 7B 08 AD 92 3D 00 00 BB ..4...1.{...=...
004054B0 38 25 33 FF D2 DB 00 38 F0 11 08 DF 3B 03 25 FF 8%3....8....;.%.
004054C0 E4 7C D4 C5 CC 3C 8B E0 AC 72 00 B0 C4 45 E0 9E .|...<...r...E..
004054D0 9D FD C1 B2 FF FF 98 00 58 00 17 84 93 55 00 08 ........X....U..
004054E0 1F 0F C5 1E 00 FF 47 17 97 58 FF 00 00 E0 D4 00 ......G..X......
004054F0 91 12 29 F2 31 FF B3 48 92 00 46 2B 22 00 AF 00 ..).1..H..F+"...
00405500 D6 00 BB 81 C2 E1 01 13 B0 14 88 36 F3 10 B0 0D ...........6....
00405510 19 33 F9 10 00 E1 C0 D0 53 FB D8 98 6B 2E FF 77 .3......S...k..w
00405520 B6 32 76 76 86 4E 46 50 81 38 3A 51 E0 13 90 8F .2vv.NFP.8:Q....
00405530 1E 1F B1 25 68 00 91 00 4E 00 3E 09 1A 31 FF 1C ...%h...N.>..1..
00405540 75 90 33 1A D5 E5 90 94 14 B7 FF 74 A4 B3 DA FF u.3........t....
00405550 E1 A6 AD 99 00 FD 91 DB 32 00 47 DE 00 E3 E0 80 ........2.G.....
00405560 9A 70 CC 38 23 2A 9A 87 BD 30 AE 97 21 AB 5C EE .p.8#*...0..!.\.
00405570 45 ED 71 45 E0 00 84 1A FF 27 A1 13 4E FF 0F E8 E.qE.....'..N...
00405580 C7 F2 09 00 29 C0 C1 CD D9 1B 16 00 F5 CE B8 E1 ....)...........
00405590 00 00 B0 24 BF 17 4D 8A D4 00 E0 2C 00 7F 7A 7E ...$..M....,..z~
004055A0 07 B5 9B FF C0 00 2D FB 1C 00 3C D1 EE 97 53 A3 ......-...<...S.
004055B0 F5 7B 28 47 FF AB 1F F9 FF 3F A0 00 70 A0 63 02 .{(G.....?..p.c.
004055C0 00 FF 0A 00 4D CF BF F6 51 00 00 E9 EF FF 1E 7E ....M...Q......~
004055D0 C6 E5 E7 5F E6 00 23 00 8F 62 06 00 FF 8D B2 00 ..._..#..b......
004055E0 00 80 8B 3A 80 04 34 84 87 89 40 00 7E E2 2F A0 ...:..4...@.~./.
004055F0 C1 94 13 AC A6 00 61 64 F6 00 E2 9E F1 22 F6 26 ......ad.....".&
00405600 13 1D F9 05 33 08 7D EF C1 30 30 0C 5D DB DC 00 ....3.}..00.]...
00405610 2B 10 06 FF FE C8 12 F5 00 00 00 BC FB 9B 00 6D +..............m
00405620 54 93 E9 80 C0 00 00 9C D3 01 89 DD 13 E3 38 DE T.............8.
00405630 00 BC 34 EF 00 7E 44 00 ED 2C FD E2 C7 3F AF 00 ..4..~D..,...?..
00405640 23 80 00 50 00 F5 39 05 00 75 F6 37 43 EF D0 9A #..P..9..u.7C...
00405650 ED FB 5C 14 33 EF 00 20 5F 36 F3 31 3A AA C2 08 ..\.3.. _6.1:...
00405660 8E 25 00 2A 9A A8 C7 C3 D8 C5 58 7F 50 8A 40 9C .%.*......X.P.@.
00405670 FF 0F FF 00 D9 01 82 2A 38 00 00 1E E0 F8 AA C3 .......*8.......
00405680 43 06 17 74 1D 00 00 11 CC 65 71 EF 98 13 46 3B C..t.....eq...F;
00405690 3F EB FF 0A EF 00 BA 25 2A E9 70 E7 81 63 0F E0 ?......%*.p..c..
004056A0 00 70 95 00 00 00 07 86 00 AA CA 9A 62 3C 00 C0 .p..........b<..
004056B0 B7 40 00 76 1D 27 6D E6 FF 04 85 9F E8 07 F0 17 .@.v.'m.........
004056C0 E8 EA 36 22 26 00 DE 22 7F C8 78 87 BE 00 B7 74 ..6"&.."..x....t
004056D0 A1 3B 25 6C 18 E8 A0 2B 75 2D 43 3C 00 D5 34 43 .;%l...+u-C<..4C
004056E0 35 4B 30 FD 00 B4 ED FF 34 FF 00 90 D6 DA 0D 15 5K0.....4.......
004056F0 B0 0D 50 6F A6 61 5F E6 C9 33 20 83 C1 00 FB 48 ..Po.a_..3 ....H
00405700 50 CE 00 D2 00 B6 72 CA 9F 14 97 00 24 00 47 80 P.....r.....$.G.
00405710 EB DE BF 00 26 EF FF 7B F6 7C CA F8 88 BF 30 00 ....&..{.|....0.
00405720 76 F0 FF 2D 30 0E 28 BD 00 FF DA D3 00 89 11 5E v..-0.(........^
00405730 30 97 6D 98 F2 09 00 F9 D4 04 56 04 EA EB 9D 1A 0.m.......V.....
00405740 0C B7 9C 3D 16 FE 00 DB 00 77 7B AE FF CC 2E 00 ...=.....w{.....
00405750 E7 3E D1 63 00 F7 44 1C 00 32 14 00 D1 08 46 43 .>.c..D..2....FC
00405760 8B 8A B4 2B 89 38 10 68 8B B0 DE 48 82 C4 EC 74 ...+.8.h...H...t
00405770 18 88 B7 11 0C D2 5B DC 6B 00 00 C8 18 A1 FA 0C ......[.k.......
00405780 F7 84 09 F8 01 71 1C DE 55 F7 14 AF 20 00 62 98 .....q..U... .b.
00405790 CF 0A 43 89 60 CD 2C 46 AC 9A 00 D0 69 FF 17 00 ..C.`.,F....i...
004057A0 58 43 B1 92 CD E2 E3 FF 74 10 51 6A 19 17 00 F6 XC......t.Qj....
004057B0 93 7B 00 91 4E 63 62 20 F6 B1 00 A4 05 77 42 00 .{..Ncb .....wB.
004057C0 FF FA E7 00 20 09 48 9C B8 2C 46 00 20 A2 60 60 .... .H..,F. .``
004057D0 6E A6 21 E9 D2 29 A0 EB 6E 18 40 00 00 8A EE 0A n.!..)..n.@.....
004057E0 21 95 83 CD E4 1D 00 12 E8 78 FF 50 57 ED 35 33 !........x.PW.53
004057F0 7A FF 72 F8 7F 47 00 A8 9E 01 04 81 B8 A3 9C 64 z.r..G.........d
00405800 5C 3E 00 00 83 EF 18 F4 00 EC 7F 48 00 35 A9 00 \>.........H.5..
00405810 7F 29 1B 2A E5 04 A9 46 10 BA 0C 35 33 36 E6 00 .).*...F...536..
00405820 D7 43 ED 0B 00 16 00 C9 AE 24 99 32 26 9A FF 73 .C.......$.2&..s
00405830 48 00 34 97 17 08 A0 62 DD BC 00 7E 00 1B A8 C3 H.4....b...~....
00405840 9E A1 0E 85 3E 6D 74 00 6C 33 3C D1 A5 02 34 E8 ....>mt.l3<...4.
00405850 50 74 FF 8F BF A6 9E 21 2C 6E 2C FE 96 4C 40 F1 Pt.....!,n,..L@.
00405860 08 C6 9C 2E FF E0 89 4A EB 8B CD 32 C4 51 11 E1 .......J...2.Q..
00405870 14 3D 58 00 D4 A9 27 00 00 30 9A 8B FF 5F 00 55 .=X...'..0..._.U
00405880 93 D4 87 00 00 1D 1B C8 F2 C7 37 C4 19 04 C8 00 ..........7.....
00405890 D2 0E 92 00 FF 00 00 3A AA D9 00 5E E0 8F C1 FF .......:...^....
004058A0 C7 00 00 1D A0 B8 D8 B8 C7 8E 00 E8 FC 52 B4 66 .............R.f
004058B0 5D AF 40 FF CB 01 1B D0 B7 30 52 A7 E0 DF DF 24 ].@......0R....$
004058C0 FD 1B 74 FF C4 D5 58 86 B6 93 6F B2 52 BB 65 FF ..t...X...o.R.e.
004058D0 59 EC 81 70 BB 2E 4A E9 A3 0C C0 00 B5 A1 DB B1 Y..p..J.........
004058E0 42 3A 73 08 2F 99 16 62 2F E7 9F CA D9 35 52 C6 B:s./..b/....5R.
004058F0 82 C3 05 C9 20 60 D2 65 00 32 19 00 00 3E 85 95 .... `.e.2...>..
00405900 86 A0 DB C0 40 FB C1 25 93 64 CA DB 3A 05 44 F8 ....@..%.d..:.D.
00405910 6F 13 00 A8 58 B0 DE C7 EB 00 64 21 62 DD 19 EB o...X.....d!b...
00405920 1A 00 8D CC 8F 2F 1E 24 00 4E AB 49 C2 55 00 09 ...../.$.N.I.U..
00405930 D4 B9 81 EF 05 01 08 40 00 DB D8 48 60 91 68 AF .......@...H`.h.
00405940 D8 00 30 89 94 5A 68 BA 49 3F F7 66 9D 20 00 0D ..0..Zh.I?.f. ..
00405950 00 46 9F FF 64 7C E6 50 62 9A 5D 00 A6 DD 55 FD .F..d|.Pb.]...U.
00405960 26 38 00 8E C5 CD E2 51 00 68 91 E5 72 08 B7 00 &8.....Q.h..r...
00405970 A1 E0 90 1D 00 97 64 15 EA 00 41 00 80 68 00 00 ......d...A..h..
00405980 0F 00 7C F3 02 08 34 00 1D 52 B8 71 DE A7 E6 00 ..|...4..R.q....
00405990 0F D4 80 00 00 1F 01 38 EC B7 00 70 8A 31 FF 25 .......8...p.1.%
004059A0 5E 81 00 AD 23 98 FF D2 E1 FF 46 DC 8E 00 0F B4 ^...#.....F.....
004059B0 04 8F 3F DD B9 8C 31 00 00 DF 05 99 C0 F0 FB 09 ..?...1.........
004059C0 DB 89 8B E6 B4 03 A9 FF 1B 36 61 60 A1 F2 14 0E .........6a`....
004059D0 30 3E 00 8B 62 63 75 F2 7F 00 41 72 E3 D2 BE FF 0>..bcu...Ar....
004059E0 5F 2A DE 0B C4 CB DB C6 C8 6B A9 58 FD BE BD BB _*.......k.X....
004059F0 18 98 00 82 DF 46 00 E4 00 51 00 BD 1F 6E D9 97 .....F...Q...n..
00405A00 00 98 A0 E1 50 00 5C 1C 00 BF 96 C8 B9 64 82 FF ....P.\......d..
00405A10 5C 87 F4 DE 16 D1 C0 00 DF 87 F0 2C 03 1E D2 BE \..........,....
00405A20 D8 55 26 79 3D 60 00 00 9C 03 DD 2A E9 39 84 00 .U&y=`.....*.9..
00405A30 00 4A AA 00 00 06 9E 1B 86 5F 8C D6 10 00 23 22 .J......._....#"
00405A40 FF C9 CD 46 42 00 89 CE E3 D3 76 04 44 48 3C 99 ...FB.....v.DH<.
00405A50 83 6E DC 11 07 DD 00 3A 00 8A 00 85 3E A4 C7 AB .n.....:....>...
00405A60 0D C1 DE 2F DB F0 46 54 F6 CF FF 69 83 44 00 10 .../..FT...i.D..
00405A70 A5 9C F7 0E 64 16 00 8B C2 C3 8E 4B 00 01 16 00 ....d......K....
00405A80 A2 00 00 A1 97 90 50 5B 9B 21 00 8A 36 85 98 30 ......P[.!..6..0
00405A90 36 50 53 F2 18 87 AB 9A 15 13 5C 3F DE 82 D6 2D 6PS.......\?...-
00405AA0 B6 74 D7 E7 FF 1D 85 FC F6 05 50 C9 D7 00 00 00 .t........P.....
00405AB0 B8 6A C3 00 16 85 2A 17 FE 4F 49 1A C6 00 21 94 .j....*..OI...!.
00405AC0 1A 00 E4 F4 00 2E 19 00 E0 00 C7 04 0D 30 7D D0 .............0}.
00405AD0 B8 A8 12 23 E2 62 DC 2A 7D C6 DE 4B 5A C8 4E 45 ...#.b.*}..KZ.NE
00405AE0 ED 76 FF CF 87 00 02 81 10 FE 4A 9F EA 2D B0 10 .v........J..-..
00405AF0 00 19 E7 02 00 28 F0 C5 00 FF 1B 00 51 BD C8 0B .....(......Q...
00405B00 0B C6 BF FE E5 01 AF 43 00 95 D1 00 1B C5 50 00 .......C......P.
00405B10 62 31 C7 F6 80 61 3A 5E 44 10 00 91 14 27 CE 2B b1...a:^D....'.+
00405B20 72 10 1C 39 B1 67 29 FB CB 24 00 36 64 26 36 42 r..9.g)..$.6d&6B
00405B30 20 00 A1 1B 43 00 26 4B E5 C9 C4 5C B7 AF 73 95  ...C.&K...\..s.
00405B40 A7 FF F5 04 20 E8 B7 18 00 00 FF 96 4A E5 F8 21 .... .......J..!
00405B50 E3 6A B7 69 6D 97 00 70 9F EF BA F7 1F CC 6B FD .j.im..p......k.
00405B60 B1 16 B1 00 C4 1B 83 1D 47 06 49 6C 65 FC BB 86 ........G.Ile...
00405B70 00 F4 00 71 74 FF ED 38 8E 4C 03 00 9E 23 07 FE ...qt..8.L...#..
00405B80 B6 9A 43 DC D7 AB 90 01 B1 98 99 84 58 8D 5E DC ..C.........X.^.
00405B90 00 5E C7 E4 D2 42 38 D3 4D 8A CD C7 C6 55 C9 B2 .^...B8.M....U..
00405BA0 E8 7D C9 DD FF C9 FF 8F 3B 16 F7 79 1E FF FB 05 .}......;..y....
00405BB0 C0 50 D5 29 23 00 00 BD 35 2E 00 97 EB 00 03 00 .P.)#...5.......
00405BC0 71 DF 36 F0 F3 00 13 CF 4B 5C 8B 0D BC E3 FE 79 q.6.....K\.....y
00405BD0 39 5E FF 0B 24 FF 38 C3 E1 19 02 8E EF F3 7D 03 9^..$.8.......}.
00405BE0 82 DF 8D D9 CF E8 09 00 31 96 66 00 C0 00 EF 36 ........1.f....6
00405BF0 74 A4 00 FB 00 5B C8 00 CE B1 0D 1D C0 E0 B1 00 t....[..........
00405C00 98 FC BB 9D 00 00 00 3B D8 C1 5B 31 C9 00 01 F1 .......;..[1....
00405C10 00 F9 5B 00 C1 AF 16 E3 00 B1 F0 DC 31 FF 7B FF ..[.........1.{.
00405C20 80 6C FF 00 00 36 FC 00 55 F0 8E C7 C9 0D E6 1A .l...6..U.......
00405C30 29 00 00 49 9C 17 91 C7 B6 09 D7 A3 7B B8 04 02 )..I........{...
00405C40 00 00 CF B9 45 45 FF 58 48 61 00 9B 00 8C 5C 92 ....EE.XHa....\.
00405C50 AB BF 38 4B 0D 0B EE 17 AA 3D 0E 47 33 B1 FA DE ..8K.....=.G3...
00405C60 00 3C 2F 60 70 71 C0 99 00 34 50 44 13 00 52 00 .</`pq...4PD..R.
00405C70 FD D8 ED 66 BC 89 2E EC C6 4A 45 E0 82 20 06 00 ...f.....JE.. ..
00405C80 6F 38 C1 37 61 00 EF 88 E6 5E 26 BF 20 A5 01 4B o8.7a....^&. ..K
00405C90 81 10 02 A3 47 0E 00 53 5F AA 96 D6 05 FB 43 FE ....G..S_.....C.
00405CA0 E4 C5 24 C3 00 2C 98 A2 00 38 8B BE 96 04 A3 EB ..$..,...8......
00405CB0 00 35 CF 3F 9A 08 98 55 93 BD CD 8E FF 24 00 2A .5.?...U.....$.*
00405CC0 FF 55 FB 00 3A E0 E7 D3 FF F8 A7 FF 56 90 D5 F7 .U..:.......V...
00405CD0 64 E1 50 C0 01 77 44 BB 9A 24 C8 66 9D 3E 00 16 d.P..wD..$.f.>..
00405CE0 BA B5 5E 06 95 F3 F1 C3 21 81 32 FC 2F 73 FF C0 ..^.....!.2./s..
00405CF0 03 00 A7 02 67 7F DB 87 C4 00 00 61 46 28 00 85 ....g......aF(..
00405D00 C2 CB 25 DE F1 E3 2F 00 00 CF 5F 84 FC 1B 00 C8 ..%.../..._.....
00405D10 17 B3 47 A7 E0 18 50 F0 00 A0 37 27 00 37 FF 32 ..G...P...7'.7.2
00405D20 07 88 2F 00 E0 8C 70 8D 00 FA ED 2D 00 00 4A 19 ../...p....-..J.
00405D30 00 00 00 5E 00 5F 05 B1 F1 1E 71 E2 B8 1E FC 9A ...^._....q.....
00405D40 6B A1 72 5F EB 89 00 00 00 0F C8 C7 01 50 C2 D1 k.r_.........P..
00405D50 EC 88 70 00 09 8D 4A 40 00 FF EF 00 AB C0 D7 00 ..p...J@........
00405D60 C9 5B C8 FF 5F DD B2 00 93 FF 76 37 00 06 7C C4 .[.._.....v7..|.
00405D70 0C 31 00 5B E9 1E B3 19 00 4C 97 CE 58 C6 FF 91 .1.[.....L..X...
00405D80 50 70 5C B2 77 0B C2 1C 00 FF 10 3C EC 7C 41 97 Pp\.w......<.|A.
00405D90 FF 41 05 54 5E C4 BA 00 35 00 54 FF 92 48 00 9D .A.T^...5.T..H..
00405DA0 FF C7 01 D5 E8 95 00 97 CA 0B 71 EC 00 2A 44 4E ..........q..*DN
00405DB0 00 05 6F EA B8 8F 8A 61 A1 36 FB 20 0E 53 EC C0 ..o....a.6. .S..
00405DC0 E2 FF 01 16 9B C4 83 3B BF 91 5D FC 00 6C 3A F3 .......;..]..l:.
00405DD0 00 95 60 05 7A 00 E1 00 9E D6 36 28 00 D3 3E 00 ..`.z.....6(..>.
00405DE0 EF CC C8 87 FF D0 38 FF F0 E9 75 00 DC 92 68 FF ......8...u...h.
00405DF0 FF 12 84 77 C1 B8 77 B8 FC 30 76 F6 F7 F3 00 F9 ...w..w..0v.....
00405E00 A1 3E F2 C6 5A 00 00 66 43 FF 00 D4 5D 00 A9 D2 .>..Z..fC...]...
00405E10 40 E6 40 68 FF 20 7C 10 40 FF 7E 5A 08 D2 5E 56 @.@h. |.@.~Z..^V
00405E20 9F 32 22 CC 60 2E FF 59 2A 5F 60 00 47 21 5D 44 .2".`..Y*_`.G!]D
00405E30 D2 35 03 A4 41 15 00 63 44 71 90 FF 00 CE 12 30 .5..A..cDq.....0
00405E40 1D 00 C9 0C 39 FE AB 80 A5 00 16 D3 E8 09 F1 CA ....9...........
00405E50 10 EC FF ED 29 3E C6 2A B7 BE 18 64 8E C5 BF 13 ....)>.*...d....
00405E60 C2 58 A0 9E 6C DD 95 1A FF 30 D2 06 B2 00 3C 49 .X..l....0....<I
00405E70 3C 00 68 03 71 64 8C D9 FF 93 B0 00 52 12 EB 00 <.h.qd......R...
00405E80 02 3C 9C 7B 15 00 08 45 11 6E C4 00 07 32 2F D6 .<.{...E.n...2/.
00405E90 50 09 1A 70 20 73 DA 5F A6 86 60 08 EF 55 6C 88 P..p s._..`..Ul.
00405EA0 DB 72 30 AB 00 4E FF 07 5F 27 71 60 81 D6 88 D4 .r0..N.._'q`....
00405EB0 00 00 7E 0D 0E 40 64 D1 E4 46 FF 00 00 00 C5 02 ..~..@d..F......
00405EC0 6A 9B 00 74 5F 60 6E 28 46 0E FF FF 33 00 04 E9 j..t_`n(F...3...
00405ED0 9F CF 88 00 19 18 D5 C0 C0 53 07 7C E7 81 28 00 .........S.|..(.
00405EE0 92 1B 10 EB 8B 58 F5 37 CD ED 36 C3 B3 00 EF 2D .....X.7..6....-
00405EF0 92 01 92 00 00 B4 D1 B0 FF 4D 74 82 D3 6E 3E 00 .........Mt..n>.
00405F00 6E 00 95 DC 20 96 DB 00 29 7C 97 74 06 FF EA E8 n... ...)|.t....
00405F10 2C CB FF 2C 00 A2 40 FF 98 F1 22 38 3A 3A 17 02 ,..,..@..."8::..
00405F20 DB 8B 30 D0 B3 2F 1A FB B8 87 67 26 00 00 EB E5 ..0../....g&....
00405F30 41 00 00 28 9A 18 EB 98 EB 28 F7 00 1C 1A C3 5B A..(.....(.....[
00405F40 00 FF 67 86 A3 6E 5B 29 10 47 38 00 0A 00 00 86 ..g..n[).G8.....
00405F50 60 0C 00 53 70 00 D7 A4 09 B4 50 60 89 93 82 C0 `..Sp.....P`....
00405F60 38 7B 99 E3 FF 58 D3 3F 78 B8 0F 74 CE 3B E4 6F 8{...X.?x..t.;.o
00405F70 F0 FF 71 D2 E4 35 36 00 4F 37 48 00 7D 61 58 7F ..q..56.O7H.}aX.
00405F80 EC 00 8F FA BB E2 C3 1A 56 58 09 CD 9D 2C D1 28 ........VX...,.(
00405F90 61 D5 DE 88 E8 B7 05 70 27 2D DF FF 0B 00 A7 82 a......p'-......
00405FA0 92 E0 80 9E 00 00 E4 83 00 F7 75 E8 75 00 2D AE ..........u.u.-.
00405FB0 65 46 E6 3E D7 AF 76 38 FF 13 FF F1 22 4A 83 97 eF.>..v8...."J..
00405FC0 00 E3 83 FC 96 62 3E 30 53 0C 00 20 31 82 2A 57 .....b>0S.. 1.*W
00405FD0 EA 00 00 3E 89 6A FF 00 32 68 FE 01 64 78 80 FF ...>.j..2h..dx..
00405FE0 CD 00 04 1D 00 92 FF E0 37 57 6C FF 38 CD 7B D0 ........7Wl.8.{.
00405FF0 7F 32 75 00 1C BF 36 10 14 00 00 E5 27 95 FA 85 .2u...6.....'...
00406000 4C 91 00 B1 FF 4B E6 D1 87 1B FC 09 C2 C8 00 A3 L....K..........
00406010 00 FA 06 E4 14 0E 11 36 F8 3A 95 50 13 EC 00 99 .......6.:.P....
00406020 4F 00 83 1E 97 EA A5 1B BF 28 47 8E 5B 83 66 74 O........(G.[.ft
00406030 33 80 8B 00 1D 64 49 80 BA 9C CC 11 58 72 48 1F 3....dI.....XrH.
00406040 00 40 00 F9 C3 00 FF D8 DF 5A 40 DC 6C 9E 07 A0 .@.......Z@.l...
00406050 5A FA 5F 71 EF FB 33 8D C8 FF 7C 00 72 6C 00 09 Z._q..3...|.rl..
00406060 92 00 CD 00 98 4B 65 7F 6C 4E FF 63 00 03 00 E4 .....Ke.lN.c....
00406070 DA 14 FF 44 70 80 E8 33 2F 0E 56 00 C8 EA 42 D9 ...Dp..3/.V...B.
00406080 00 93 F0 71 DB 00 AB 6E 00 AE 00 00 CB 00 87 00 ...q...n........
00406090 89 D3 1E 56 EC FE 11 4B 00 00 7D 3E 00 00 3B AD ...V...K..}>..;.
004060A0 9B 52 BF 26 00 52 F9 FC B6 01 9C 2E 00 CD 92 02 .R.&.R..........
004060B0 4D FE 14 BF 66 87 00 D8 F1 49 F9 FF 5F 80 24 76 M...f....I.._.$v
004060C0 07 13 1F FE 10 48 7D FF 8D F9 4F DF 7F B0 36 60 .....H}...O...6`
004060D0 DF E2 4D FF 01 00 CD 30 0E A2 E2 0C 27 00 5C EF ..M....0....'.\.
004060E0 17 FE 08 FF C7 8F 11 43 50 EA EB FB 3D 01 00 74 .......CP...=..t
004060F0 00 03 B2 86 0C 01 00 F9 D0 FF B7 EF BC 00 C1 2C ...............,
00406100 1A FF EA 81 00 E7 A3 00 93 1A 11 AC BA E1 77 F7 ..............w.
00406110 05 ED A3 0E C6 2D EA 00 CD CB 07 C1 00 00 7D 23 .....-........}#
00406120 C6 83 47 B7 7A F0 07 58 FF FF FF 6A 00 57 C9 00 ..G.z..X...j.W..
00406130 B7 0D F7 4C 47 AB 00 72 C6 81 CE 07 8A A8 60 81 ...LG..r......`.
00406140 08 FB 00 00 EC 90 7F 28 88 24 54 00 A5 CD 00 F1 .......(.$T.....
00406150 4C A4 59 67 18 38 00 12 00 9D 98 AF 2B A0 95 8F L.Yg.8......+...
00406160 97 EC D7 00 F8 73 03 00 17 00 22 59 A7 E8 30 BD .....s...."Y..0.
00406170 67 E6 96 15 58 FF 99 04 49 7E 00 DF A6 32 4D 00 g...X...I~...2M.
00406180 78 00 0B 0E 8D 36 B5 C5 C2 7A 5D 21 50 AB D7 A3 x....6...z]!P...
00406190 06 25 15 CD F4 18 CE CF B4 5B BB B9 0A 4A 5B 22 .%.......[...J["
004061A0 6F E3 5D A3 29 30 28 FF F3 40 98 F4 FF 23 19 FF o.].)0(..@...#..
004061B0 00 FA 9A 0B 48 00 20 C3 4E CB DB FF 50 E0 8C 80 ....H. .N...P...
004061C0 12 30 85 00 D1 00 31 67 E8 00 BA EF 88 00 CF D3 .0....1g........
004061D0 00 60 16 29 10 0B 99 01 1E 8A 4F BF 2B FF 72 6C .`.)......O.+.rl
004061E0 9C 03 E0 FF 20 CB 1E 5C 3F 87 21 25 00 6E 1C 7C .... ..\?.!%.n.|
004061F0 32 F9 43 69 8F 7B FF 9B 96 6D 05 E0 47 8D 8E CD 2.Ci.{...m..G...
00406200 00 00 C7 6E EC B9 7C 9A 7A 52 00 DE 00 15 00 00 ...n..|.zR......
00406210 A0 00 09 C5 14 6C 00 00 B4 5A 88 0F BF 25 E7 48 .....l...Z...%.H
00406220 5C C9 85 50 80 8F 00 62 8E 73 FD B0 10 DF 90 00 \..P...b.s......
00406230 99 2D 73 7D 31 97 6E BA 02 B1 0E 00 EE 4F AC BA .-s}1.n......O..
00406240 30 E1 74 8A 2B 75 84 00 67 FF 04 78 00 00 00 15 0.t.+u..g..x....
00406250 00 00 A0 9F 93 00 43 74 F0 00 03 B1 C6 B1 DA 4A ......Ct.......J
00406260 EC 3F FF C8 20 10 22 99 2B 27 4C F0 4F 20 00 10 .?.. .".+'L.O ..
00406270 76 E8 7F FF 5F 09 EC FF 20 A5 15 3D 20 92 C5 CD v..._... ..= ...
00406280 1C 24 D9 D3 00 00 00 F1 EE 20 AD 0F B1 85 9C FF .$....... ......
00406290 E8 12 05 BA 09 83 09 9B B3 8A 6E FA AF 69 F1 F6 ..........n..i..
004062A0 81 B2 03 00 EE 9D 00 DD CA FF DF FF B2 F0 32 AB ..............2.
004062B0 4F 18 83 67 15 FF B1 87 5A 3E 22 87 47 69 29 45 O..g....Z>".Gi)E
004062C0 FF BD 94 A9 B2 FB 30 4D 3E D8 E9 B1 42 17 00 E1 ......0M>...B...
004062D0 1F 47 DC 10 00 81 00 39 00 1C FF A5 F7 B6 F0 00 .G.....9........
004062E0 D0 58 4C E9 00 58 E7 12 C5 FF 1C D0 00 99 BC 71 .XL..X.........q
004062F0 C1 FF 82 AA FF A9 11 28 1A 00 E3 33 68 17 6D FF .......(...3h.m.
00406300 D8 FF 0B 70 A0 AA 00 00 50 53 10 37 E6 10 CD 7F ...p....PS.7....
00406310 F6 93 FB 00 58 14 D2 3B 40 00 FF 97 02 FF F3 FF ....X..;@.......
00406320 D0 C9 B9 D5 14 FB 81 DE 00 CA 4D CC D0 BC 93 78 ..........M....x
00406330 7A ED E7 9E FE 81 22 BF B8 50 C8 B8 0A 2E 3D 5C z....."..P....=\
00406340 00 02 62 95 E3 FF ED 72 FF F6 E4 58 9A 69 6B 00 ..b....r...X.ik.
00406350 DE 67 F3 14 44 57 72 5A C9 00 E9 88 D5 71 00 F6 .g..DWrZ.....q..
00406360 7E C2 63 00 C7 EA 1C A6 D0 FF 97 16 D9 99 60 03 ~.c...........`.
00406370 59 02 52 77 EC 00 43 DD D1 7F 79 35 82 0F 14 E1 Y.Rw..C...y5....
00406380 11 BA 06 EC 8D D2 43 00 28 CF AB 54 06 AC 24 00 ......C.(..T..$.
00406390 01 5C 85 17 00 00 80 E3 CF 44 80 00 00 00 A2 5C .\.......D.....\
004063A0 00 F8 00 FE B3 75 58 00 FB 00 6E AA C1 F6 E5 B7 .....uX...n.....
004063B0 67 C0 00 1E FF 6F 8B FF 47 0A 2E 0C 03 1F 63 D9 g....o..G.....c.
004063C0 69 21 BC 83 E2 5A D8 00 88 67 3D 7A 2A C6 4B 71 i!...Z...g=z*.Kq
004063D0 B0 78 00 0D 03 00 8B 6F 9F EA EB 6A FF FF 00 E5 .x.....o...j....
004063E0 5E E6 3A A8 1E 14 00 F3 BF 4B 6F FF C6 54 00 F1 ^.:......Ko..T..
004063F0 D1 9D 30 2D 41 27 3E 17 29 9B 04 00 B9 AB 00 00 ..0-A'>.).......
00406400 71 86 48 94 22 9F 43 DA 71 FF 6B EF 06 7C C9 8F q.H.".C.q.k..|..
00406410 A1 A7 A1 0E 38 39 B8 65 49 00 2E 77 F6 CE FF 00 ....89.eI..w....
00406420 F7 CE 00 00 7B 83 C3 1B 20 6C 05 F7 58 E2 A5 80 ....{... l..X...
00406430 3B AE 28 45 EA 83 CB 82 00 61 E0 38 00 EF B2 84 ;.(E.....a.8....
00406440 00 15 9F 13 15 47 FF 00 9A A3 54 FF A8 3B DA 1C .....G....T..;..
00406450 15 4F E9 FD BD 7D B0 00 00 18 6C DB AC EA 4D C9 .O...}....l...M.
00406460 0C 00 46 16 98 97 FD 70 9C 00 5C BD 2A 01 C5 23 ..F....p..\.*..#
00406470 40 93 03 00 00 9F 00 0A 56 1D EF CB F8 F5 4E DD @.......V.....N.
00406480 FF 4F E2 42 AD 00 0B F1 A5 F6 42 E1 C1 00 53 EB .O.B......B...S.
00406490 00 4A 00 76 AC AB DC 08 00 00 DE 93 FF 2E D6 DA .J.v............
004064A0 13 7A 6E 26 6B 00 FB 2D F1 8A 00 28 1D FF 30 00 .zn&k..-...(..0.
004064B0 FF F8 31 38 AF F6 93 99 6A 31 23 58 40 31 2E 00 ..18....j1#X@1..
004064C0 49 B5 B3 A2 75 03 A0 2B 30 67 29 2A 40 00 44 05 I...u..+0g)*@.D.
004064D0 00 09 25 71 04 04 50 12 00 E6 00 F0 2F 15 3F 72 ..%q..P...../.?r
004064E0 EA C3 79 66 43 04 CB D7 FF AC BF 22 00 A1 7F 3B ..yfC......"...;
004064F0 FF E8 35 3E F1 63 B4 03 7B 4D F9 70 2A 51 01 27 ..5>.c..{M.p*Q.'
00406500 5E F4 7B FF 4D 00 54 87 35 2F C9 00 F7 FF 00 13 ^.{.M.T.5/......
00406510 93 FF 0E 3E 3F E3 59 A6 92 FF 30 32 6E 5E 00 ED ...>?.Y...02n^..
00406520 85 AF 05 D4 E6 00 7B 12 00 DC 34 10 90 D7 00 14 ......{...4.....
00406530 0E 4C 3A 53 00 52 0D 00 1A 31 FF 1A 2F FA 48 00 .L:S.R...1../.H.
00406540 34 BC A1 8D BA 84 32 DD 63 92 8A 7A 99 48 76 FB 4.....2.c..z.Hv.
00406550 23 00 02 0F 29 94 00 00 33 C3 4A 67 08 71 82 87 #...)...3.Jg.q..
00406560 00 1A 7E B0 BA 00 20 8B 13 6D 00 37 10 00 CD CD ..~... ..m.7....
00406570 66 2D 98 EC 4B C1 EF 90 FF E2 60 62 E8 34 65 36 f-..K.....`b.4e6
00406580 EE CE 8E E2 CB 49 99 DC 3E 68 1F D3 BD FF FF 31 .....I..>h.....1
00406590 A2 00 D2 9B 60 14 00 87 00 78 CF 23 FE 08 02 40 ....`....x.#...@
004065A0 66 67 33 00 FF 00 53 00 E0 E6 F4 02 F9 88 89 5D fg3...S........]
004065B0 01 FF 00 FF A0 EA FF 89 C1 E3 49 00 B0 8B 9E F2 ..........I.....
004065C0 8B 1F F8 40 00 00 C6 F3 00 95 59 35 BD 21 7E 4F ...@......Y5.!~O
004065D0 96 FF 00 B5 F4 74 0B E0 00 00 40 D8 00 6F E0 FD .....t....@..o..
004065E0 00 FB 00 E7 03 00 D6 05 68 C0 1E B0 20 73 E3 00 ........h... s..
004065F0 00 F8 E2 45 FF 00 00 07 5E 00 0E 73 13 00 E8 10 ...E....^..s....
00406600 00 00 00 00 00 00 00 00 00 00 00 00 00 00 00 00 ................
00406610 00 00 00 00 00 00 00 00 00 00 00 00 00 00 00 00 ................
00406620 00 00 00 00 00 00 00 00 00 00 00 00 00 00 00 00 ................
00406630 00 00 00 00 00 00 00 00 00 00 00 00 00 00 00 00 ................
00406640 00 00 00 00 00 00 00 00 00 00 00 00 00 00 00 00 ................
00406650 00 00 00 00 00 00 00 00 00 00 00 00 00 00 00 00 ................
00406660 00 00 00 00 00 00 00 00 00 00 00 00 00 00 00 00 ................
00406670 00 00 00 00 00 00 00 00 00 00 00 00 00 00 00 00 ................
00406680 00 00 00 00 00 00 00 00 00 00 00 00 00 00 00 00 ................
00406690 00 00 00 00 00 00 00 00 00 00 00 00 00 00 00 00 ................
004066A0 00 00 00 00 00 00 00 00 00 00 00 00 00 00 00 00 ................
004066B0 00 00 00 00 00 00 00 00 00 00 00 00 00 00 00 00 ................
004066C0 00 00 00 00 00 00 00 00 00 00 00 00 00 00 00 00 ................
004066D0 00 00 00 00 00 00 00 00 00 00 00 00 00 00 00 00 ................
004066E0 00 00 00 00 00 00 00 00 00 00 00 00 00 00 00 00 ................
004066F0 00 00 00 00 00 00 00 00 00 00 00 00 00 00 00 00 ................
00406700 00 00 00 00 00 00 00 00 00 00 00 00 00 00 00 00 ................
00406710 00 00 00 00 00 00 00 00 00 00 00 00 00 00 00 00 ................
00406720 00 00 00 00 00 00 00 00 00 00 00 00 00 00 00 00 ................
00406730 00 00 00 00 00 00 00 00 00 00 00 00 00 00 00 00 ................
00406740 00 00 00 00 00 00 00 00 00 00 00 00 00 00 00 00 ................
00406750 00 00 00 00 00 00 00 00 00 00 00 00 00 00 00 00 ................
00406760 00 00 00 00 00 00 00 00 00 00 00 00 00 00 00 00 ................
00406770 00 00 00 00 00 00 00 00 00 00 00 00 00 00 00 00 ................
00406780 00 00 00 00 00 00 00 00 00 00 00 00 00 00 00 00 ................
00406790 00 00 00 00 00 00 00 00 00 00 00 00 00 00 00 00 ................
004067A0 00 00 00 00 00 00 00 00 00 00 00 00 00 00 00 00 ................
004067B0 00 00 00 00 00 00 00 00 00 00 00 00 00 00 00 00 ................
004067C0 00 00 00 00 00 00 00 00 00 00 00 00 00 00 00 00 ................
004067D0 00 00 00 00 00 00 00 00 00 00 00 00 00 00 00 00 ................
004067E0 00 00 00 00 00 00 00 00 00 00 00 00 00 00 00 00 ................
004067F0 00 00 00 00 00 00 00 00 00 00 00 00 00 00 00 00 ................
00406800 00 00 00 00 00 00 00 00 00 00 00 00 00 00 00 00 ................
00406810 00 00 00 00 00 00 00 00 00 00 00 00 00 00 00 00 ................
00406820 00 00 00 00 00 00 00 00 00 00 00 00 00 00 00 00 ................
00406830 00 00 00 00 00 00 00 00 00 00 00 00 00 00 00 00 ................
00406840 00 00 00 00 00 00 00 00 00 00 00 00 00 00 00 00 ................
00406850 00 00 00 00 00 00 00 00 00 00 00 00 00 00 00 00 ................
00406860 00 00 00 00 00 00 00 00 00 00 00 00 00 00 00 00 ................
00406870 00 00 00 00 00 00 00 00 00 00 00 00 00 00 00 00 ................
00406880 00 00 00 00 00 00 00 00 00 00 00 00 00 00 00 00 ................
00406890 00 00 00 00 00 00 00 00 00 00 00 00 00 00 00 00 ................
004068A0 00 00 00 00 00 00 00 00 00 00 00 00 00 00 00 00 ................
004068B0 00 00 00 00 00 00 00 00 00 00 00 00 00 00 00 00 ................
004068C0 00 00 00 00 00 00 00 00 00 00 00 00 00 00 00 00 ................
004068D0 00 00 00 00 00 00 00 00 00 00 00 00 00 00 00 00 ................
004068E0 00 00 00 00 00 00 00 00 00 00 00 00 00 00 00 00 ................
004068F0 00 00 00 00 00 00 00 00 00 00 00 00 00 00 00 00 ................
00406900 00 00 00 00 00 00 00 00 00 00 00 00 00 00 00 00 ................
00406910 00 00 00 00 00 00 00 00 00 00 00 00 00 00 00 00 ................
00406920 00 00 00 00 00 00 00 00 00 00 00 00 00 00 00 00 ................
00406930 00 00 00 00 00 00 00 00 00 00 00 00 00 00 00 00 ................
00406940 00 00 00 00 00 00 00 00 00 00 00 00 00 00 00 00 ................
00406950 00 00 00 00 00 00 00 00 00 00 00 00 00 00 00 00 ................
00406960 00 00 00 00 00 00 00 00 00 00 00 00 00 00 00 00 ................
00406970 00 00 00 00 00 00 00 00 00 00 00 00 00 00 00 00 ................
00406980 00 00 00 00 00 00 00 00 00 00 00 00 00 00 00 00 ................
00406990 00 00 00 00 00 00 00 00 00 00 00 00 00 00 00 00 ................
004069A0 00 00 00 00 00 00 00 00 00 00 00 00 00 00 00 00 ................
004069B0 00 00 00 00 00 00 00 00 00 00 00 00 00 00 00 00 ................
004069C0 00 00 00 00 00 00 00 00 00 00 00 00 00 00 00 00 ................
004069D0 00 00 00 00 00 00 00 00 00 00 00 00 00 00 00 00 ................
004069E0 00 00 00 00 00 00 00 00 00 00 00 00 00 00 00 00 ................
004069F0 00 00 00 00 00 00 00 00 00 00 00 00 00 00 00 00 ................
00406A00 00 00 00 00 00 00 00 00 00 00 00 00 00 00 00 00 ................
00406A10 00 00 00 00 00 00 00 00 00 00 00 00 00 00 00 00 ................
00406A20 00 00 00 00 00 00 00 00 00 00 00 00 00 00 00 00 ................
00406A30 00 00 00 00 00 00 00 00 00 00 00 00 00 00 00 00 ................
00406A40 00 00 00 00 00 00 00 00 00 00 00 00 00 00 00 00 ................
00406A50 00 00 00 00 00 00 00 00 00 00 00 00 00 00 00 00 ................
00406A60 00 00 00 00 00 00 00 00 00 00 00 00 00 00 00 00 ................
00406A70 00 00 00 00 00 00 00 00 00 00 00 00 00 00 00 00 ................
00406A80 00 00 00 00 00 00 00 00 00 00 00 00 00 00 00 00 ................
00406A90 00 00 00 00 00 00 00 00 00 00 00 00 00 00 00 00 ................
00406AA0 00 00 00 00 00 00 00 00 00 00 00 00 00 00 00 00 ................
00406AB0 00 00 00 00 00 00 00 00 00 00 00 00 00 00 00 00 ................
00406AC0 00 00 00 00 00 00 00 00 00 00 00 00 00 00 00 00 ................
00406AD0 00 00 00 00 00 00 00 00 00 00 00 00 00 00 00 00 ................
00406AE0 00 00 00 00 00 00 00 00 00 00 00 00 00 00 00 00 ................
00406AF0 00 00 00 00 00 00 00 00 00 00 00 00 00 00 00 00 ................
00406B00 00 00 00 00 00 00 00 00 00 00 00 00 00 00 00 00 ................
00406B10 00 00 00 00 00 00 00 00 00 00 00 00 00 00 00 00 ................
00406B20 00 00 00 00 00 00 00 00 00 00 00 00 00 00 00 00 ................
00406B30 00 00 00 00 00 00 00 00 00 00 00 00 00 00 00 00 ................
00406B40 00 00 00 00 00 00 00 00 00 00 00 00 00 00 00 00 ................
00406B50 00 00 00 00 00 00 00 00 00 00 00 00 00 00 00 00 ................
00406B60 00 00 00 00 00 00 00 00 00 00 00 00 00 00 00 00 ................
00406B70 00 00 00 00 00 00 00 00 00 00 00 00 00 00 00 00 ................
00406B80 00 00 00 00 00 00 00 00 00 00 00 00 00 00 00 00 ................
00406B90 00 00 00 00 00 00 00 00 00 00 00 00 00 00 00 00 ................
00406BA0 00 00 00 00 00 00 00 00 00 00 00 00 00 00 00 00 ................
00406BB0 00 00 00 00 00 00 00 00 00 00 00 00 00 00 00 00 ................
00406BC0 00 00 00 00 00 00 00 00 00 00 00 00 00 00 00 00 ................
00406BD0 00 00 00 00 00 00 00 00 00 00 00 00 00 00 00 00 ................
00406BE0 00 00 00 00 00 00 00 00 00 00 00 00 00 00 00 00 ................
00406BF0 00 00 00 00 00 00 00 00 00 00 00 00 00 00 00 00 ................
00406C00 00 00 00 00 00 00 00 00 00 00 00 00 00 00 00 00 ................
00406C10 00 00 00 00 00 00 00 00 00 00 00 00 00 00 00 00 ................
00406C20 00 00 00 00 00 00 00 00 00 00 00 00 00 00 00 00 ................
00406C30 00 00 00 00 00 00 00 00 00 00 00 00 00 00 00 00 ................
00406C40 00 00 00 00 00 00 00 00 00 00 00 00 00 00 00 00 ................
00406C50 00 00 00 00 00 00 00 00 00 00 00 00 00 00 00 00 ................
00406C60 00 00 00 00 00 00 00 00 00 00 00 00 00 00 00 00 ................
00406C70 00 00 00 00 00 00 00 00 00 00 00 00 00 00 00 00 ................
00406C80 00 00 00 00 00 00 00 00 00 00 00 00 00 00 00 00 ................
00406C90 00 00 00 00 00 00 00 00 00 00 00 00 00 00 00 00 ................
00406CA0 00 00 00 00 00 00 00 00 00 00 00 00 00 00 00 00 ................
00406CB0 00 00 00 00 00 00 00 00 00 00 00 00 00 00 00 00 ................
00406CC0 00 00 00 00 00 00 00 00 00 00 00 00 00 00 00 00 ................
00406CD0 00 00 00 00 00 00 00 00 00 00 00 00 00 00 00 00 ................
00406CE0 00 00 00 00 00 00 00 00 00 00 00 00 00 00 00 00 ................
00406CF0 00 00 00 00 00 00 00 00 00 00 00 00 00 00 00 00 ................
00406D00 00 00 00 00 00 00 00 00 00 00 00 00 00 00 00 00 ................
00406D10 00 00 00 00 00 00 00 00 00 00 00 00 00 00 00 00 ................
00406D20 00 00 00 00 00 00 00 00 00 00 00 00 00 00 00 00 ................
00406D30 00 00 00 00 00 00 00 00 00 00 00 00 00 00 00 00 ................
00406D40 00 00 00 00 00 00 00 00 00 00 00 00 00 00 00 00 ................
00406D50 00 00 00 00 00 00 00 00 00 00 00 00 00 00 00 00 ................
00406D60 00 00 00 00 00 00 00 00 00 00 00 00 00 00 00 00 ................
00406D70 00 00 00 00 00 00 00 00 00 00 00 00 00 00 00 00 ................
00406D80 00 00 00 00 00 00 00 00 00 00 00 00 00 00 00 00 ................
00406D90 00 00 00 00 00 00 00 00 00 00 00 00 00 00 00 00 ................
00406DA0 00 00 00 00 00 00 00 00 00 00 00 00 00 00 00 00 ................
00406DB0 00 00 00 00 00 00 00 00 00 00 00 00 00 00 00 00 ................
00406DC0 00 00 00 00 00 00 00 00 00 00 00 00 00 00 00 00 ................
00406DD0 00 00 00 00 00 00 00 00 00 00 00 00 00 00 00 00 ................
00406DE0 00 00 00 00 00 00 00 00 00 00 00 00 00 00 00 00 ................
00406DF0 00 00 00 00 00 00 00 00 00 00 00 00 00 00 00 00 ................
00406E00 00 00 00 00 00 00 00 00 00 00 00 00 00 00 00 00 ................
00406E10 00 00 00 00 00 00 00 00 00 00 00 00 00 00 00 00 ................
00406E20 00 00 00 00 00 00 00 00 00 00 00 00 00 00 00 00 ................
00406E30 00 00 00 00 00 00 00 00 00 00 00 00 00 00 00 00 ................
00406E40 00 00 00 00 00 00 00 00 00 00 00 00 00 00 00 00 ................
00406E50 00 00 00 00 00 00 00 00 00 00 00 00 00 00 00 00 ................
00406E60 00 00 00 00 00 00 00 00 00 00 00 00 00 00 00 00 ................
00406E70 00 00 00 00 00 00 00 00 00 00 00 00 00 00 00 00 ................
00406E80 00 00 00 00 00 00 00 00 00 00 00 00 00 00 00 00 ................
00406E90 00 00 00 00 00 00 00 00 00 00 00 00 00 00 00 00 ................
00406EA0 00 00 00 00 00 00 00 00 00 00 00 00 00 00 00 00 ................
00406EB0 00 00 00 00 00 00 00 00 00 00 00 00 00 00 00 00 ................
00406EC0 00 00 00 00 00 00 00 00 00 00 00 00 00 00 00 00 ................
00406ED0 00 00 00 00 00 00 00 00 00 00 00 00 00 00 00 00 ................
00406EE0 00 00 00 00 00 00 00 00 00 00 00 00 00 00 00 00 ................
00406EF0 00 00 00 00 00 00 00 00 00 00 00 00 00 00 00 00 ................
00406F00 00 00 00 00 00 00 00 00 00 00 00 00 00 00 00 00 ................
00406F10 00 00 00 00 00 00 00 00 00 00 00 00 00 00 00 00 ................
00406F20 00 00 00 00 00 00 00 00 00 00 00 00 00 00 00 00 ................
00406F30 00 00 00 00 00 00 00 00 00 00 00 00 00 00 00 00 ................
00406F40 00 00 00 00 00 00 00 00 00 00 00 00 00 00 00 00 ................
00406F50 00 00 00 00 00 00 00 00 00 00 00 00 00 00 00 00 ................
00406F60 00 00 00 00 00 00 00 00 00 00 00 00 00 00 00 00 ................
00406F70 00 00 00 00 00 00 00 00 00 00 00 00 00 00 00 00 ................
00406F80 00 00 00 00 00 00 00 00 00 00 00 00 00 00 00 00 ................
00406F90 00 00 00 00 00 00 00 00 00 00 00 00 00 00 00 00 ................
00406FA0 00 00 00 00 00 00 00 00 00 00 00 00 00 00 00 00 ................
00406FB0 00 00 00 00 00 00 00 00 00 00 00 00 00 00 00 00 ................
00406FC0 00 00 00 00 00 00 00 00 00 00 00 00 00 00 00 00 ................
00406FD0 00 00 00 00 00 00 00 00 00 00 00 00 00 00 00 00 ................
00406FE0 00 00 00 00 00 00 00 00 00 00 00 00 00 00 00 00 ................
00406FF0 00 00 00 00 00 00 00 00 00 00 00 00 00 00 00 00 ................
00407000 00 00 00 00 00 00 00 00 00 00 00 00 00 00 00 00 ................
00407010 00 00 00 00 00 00 00 00 00 00 00 00 00 00 00 00 ................
00407020 00 00 00 00 00 00 00 00 00 00 00 00 00 00 00 00 ................
00407030 00 00 00 00 00 00 00 00 00 00 00 00 00 00 00 00 ................
00407040 00 00 00 00 00 00 00 00 00 00 00 00 00 00 00 00 ................
00407050 00 00 00 00 00 00 00 00 00 00 00 00 00 00 00 00 ................
00407060 00 00 00 00 00 00 00 00 00 00 00 00 00 00 00 00 ................
00407070 00 00 00 00 00 00 00 00 00 00 00 00 00 00 00 00 ................
00407080 00 00 00 00 00 00 00 00 00 00 00 00 00 00 00 00 ................
00407090 00 00 00 00 00 00 00 00 00 00 00 00 00 00 00 00 ................
004070A0 00 00 00 00 00 00 00 00 00 00 00 00 00 00 00 00 ................
004070B0 00 00 00 00 00 00 00 00 00 00 00 00 00 00 00 00 ................
004070C0 00 00 00 00 00 00 00 00 00 00 00 00 00 00 00 00 ................
004070D0 00 00 00 00 00 00 00 00 00 00 00 00 00 00 00 00 ................
004070E0 00 00 00 00 00 00 00 00 00 00 00 00 00 00 00 00 ................
004070F0 00 00 00 00 00 00 00 00 00 00 00 00 00 00 00 00 ................
00407100 00 00 00 00 00 00 00 00 00 00 00 00 00 00 00 00 ................
00407110 00 00 00 00 00 00 00 00 00 00 00 00 00 00 00 00 ................
00407120 00 00 00 00 00 00 00 00 00 00 00 00 00 00 00 00 ................
00407130 00 00 00 00 00 00 00 00 00 00 00 00 00 00 00 00 ................
00407140 00 00 00 00 00 00 00 00 00 00 00 00 00 00 00 00 ................
00407150 00 00 00 00 00 00 00 00 00 00 00 00 00 00 00 00 ................
00407160 00 00 00 00 00 00 00 00 00 00 00 00 00 00 00 00 ................
00407170 00 00 00 00 00 00 00 00 00 00 00 00 00 00 00 00 ................
00407180 00 00 00 00 00 00 00 00 00 00 00 00 00 00 00 00 ................
00407190 00 00 00 00 00 00 00 00 00 00 00 00 00 00 00 00 ................
004071A0 00 00 00 00 00 00 00 00 00 00 00 00 00 00 00 00 ................
004071B0 00 00 00 00 00 00 00 00 00 00 00 00 00 00 00 00 ................
004071C0 00 00 00 00 00 00 00 00 00 00 00 00 00 00 00 00 ................
004071D0 00 00 00 00 00 00 00 00 00 00 00 00 00 00 00 00 ................
004071E0 00 00 00 00 00 00 00 00 00 00 00 00 00 00 00 00 ................
004071F0 00 00 00 00 00 00 00 00 00 00 00 00 00 00 00 00 ................
00407200 00 00 00 00 00 00 00 00 00 00 00 00 00 00 00 00 ................
00407210 00 00 00 00 00 00 00 00 00 00 00 00 00 00 00 00 ................
00407220 00 00 00 00 00 00 00 00 00 00 00 00 00 00 00 00 ................
00407230 00 00 00 00 00 00 00 00 00 00 00 00 00 00 00 00 ................
00407240 00 00 00 00 00 00 00 00 00 00 00 00 00 00 00 00 ................
00407250 00 00 00 00 00 00 00 00 00 00 00 00 00 00 00 00 ................
00407260 00 00 00 00 00 00 00 00 00 00 00 00 00 00 00 00 ................
00407270 00 00 00 00 00 00 00 00 00 00 00 00 00 00 00 00 ................
00407280 00 00 00 00 00 00 00 00 00 00 00 00 00 00 00 00 ................
00407290 00 00 00 00 00 00 00 00 00 00 00 00 00 00 00 00 ................
004072A0 00 00 00 00 00 00 00 00 00 00 00 00 00 00 00 00 ................
004072B0 00 00 00 00 00 00 00 00 00 00 00 00 00 00 00 00 ................
004072C0 00 00 00 00 00 00 00 00 00 00 00 00 00 00 00 00 ................
004072D0 00 00 00 00 00 00 00 00 00 00 00 00 00 00 00 00 ................
004072E0 00 00 00 00 00 00 00 00 00 00 00 00 00 00 00 00 ................
004072F0 00 00 00 00 00 00 00 00 00 00 00 00 00 00 00 00 ................
00407300 00 00 00 00 00 00 00 00 00 00 00 00 00 00 00 00 ................
00407310 00 00 00 00 00 00 00 00 00 00 00 00 00 00 00 00 ................
00407320 00 00 00 00 00 00 00 00 00 00 00 00 00 00 00 00 ................
00407330 00 00 00 00 00 00 00 00 00 00 00 00 00 00 00 00 ................
00407340 00 00 00 00 00 00 00 00 00 00 00 00 00 00 00 00 ................
00407350 00 00 00 00 00 00 00 00 00 00 00 00 00 00 00 00 ................
00407360 00 00 00 00 00 00 00 00 00 00 00 00 00 00 00 00 ................
00407370 00 00 00 00 00 00 00 00 00 00 00 00 00 00 00 00 ................
00407380 00 00 00 00 00 00 00 00 00 00 00 00 00 00 00 00 ................
00407390 00 00 00 00 00 00 00 00 00 00 00 00 00 00 00 00 ................
004073A0 00 00 00 00 00 00 00 00 00 00 00 00 00 00 00 00 ................
004073B0 00 00 00 00 00 00 00 00 00 00 00 00 00 00 00 00 ................
004073C0 00 00 00 00 00 00 00 00 00 00 00 00 00 00 00 00 ................
004073D0 00 00 00 00 00 00 00 00 00 00 00 00 00 00 00 00 ................
004073E0 00 00 00 00 00 00 00 00 00 00 00 00 00 00 00 00 ................
004073F0 00 00 00 00 00 00 00 00 00 00 00 00 00 00 00 00 ................
00407400 00 00 00 00 00 00 00 00 00 00 00 00 00 00 00 00 ................
00407410 00 00 00 00 00 00 00 00 00 00 00 00 00 00 00 00 ................
00407420 00 00 00 00 00 00 00 00 00 00 00 00 00 00 00 00 ................
00407430 00 00 00 00 00 00 00 00 00 00 00 00 00 00 00 00 ................
00407440 00 00 00 00 00 00 00 00 00 00 00 00 00 00 00 00 ................
00407450 00 00 00 00 00 00 00 00 00 00 00 00 00 00 00 00 ................
00407460 00 00 00 00 00 00 00 00 00 00 00 00 00 00 00 00 ................
00407470 00 00 00 00 00 00 00 00 00 00 00 00 00 00 00 00 ................
00407480 00 00 00 00 00 00 00 00 00 00 00 00 00 00 00 00 ................
00407490 00 00 00 00 00 00 00 00 00 00 00 00 00 00 00 00 ................
004074A0 00 00 00 00 00 00 00 00 00 00 00 00 00 00 00 00 ................
004074B0 00 00 00 00 00 00 00 00 00 00 00 00 00 00 00 00 ................
004074C0 00 00 00 00 00 00 00 00 00 00 00 00 00 00 00 00 ................
004074D0 00 00 00 00 00 00 00 00 00 00 00 00 00 00 00 00 ................
004074E0 00 00 00 00 00 00 00 00 00 00 00 00 00 00 00 00 ................
004074F0 00 00 00 00 00 00 00 00 00 00 00 00 00 00 00 00 ................
00407500 00 00 00 00 00 00 00 00 00 00 00 00 00 00 00 00 ................
00407510 00 00 00 00 00 00 00 00 00 00 00 00 00 00 00 00 ................
00407520 00 00 00 00 00 00 00 00 00 00 00 00 00 00 00 00 ................
00407530 00 00 00 00 00 00 00 00 00 00 00 00 00 00 00 00 ................
00407540 00 00 00 00 00 00 00 00 00 00 00 00 00 00 00 00 ................
00407550 00 00 00 00 00 00 00 00 00 00 00 00 00 00 00 00 ................
00407560 00 00 00 00 00 00 00 00 00 00 00 00 00 00 00 00 ................
00407570 00 00 00 00 00 00 00 00 00 00 00 00 00 00 00 00 ................
00407580 00 00 00 00 00 00 00 00 00 00 00 00 00 00 00 00 ................
00407590 00 00 00 00 00 00 00 00 00 00 00 00 00 00 00 00 ................
004075A0 00 00 00 00 00 00 00 00 00 00 00 00 00 00 00 00 ................
004075B0 00 00 00 00 00 00 00 00 00 00 00 00 00 00 00 00 ................
004075C0 00 00 00 00 00 00 00 00 00 00 00 00 00 00 00 00 ................
004075D0 00 00 00 00 00 00 00 00 00 00 00 00 00 00 00 00 ................
004075E0 00 00 00 00 00 00 00 00 00 00 00 00 00 00 00 00 ................
004075F0 00 00 00 00 00 00 00 00 00 00 00 00 00 00 00 00 ................
00407600 00 00 00 00 00 00 00 00 00 00 00 00 00 00 00 00 ................
00407610 00 00 00 00 00 00 00 00 00 00 00 00 00 00 00 00 ................
00407620 00 00 00 00 00 00 00 00 00 00 00 00 00 00 00 00 ................
00407630 00 00 00 00 00 00 00 00 00 00 00 00 00 00 00 00 ................
00407640 00 00 00 00 00 00 00 00 00 00 00 00 00 00 00 00 ................
00407650 00 00 00 00 00 00 00 00 00 00 00 00 00 00 00 00 ................
00407660 00 00 00 00 00 00 00 00 00 00 00 00 00 00 00 00 ................
00407670 00 00 00 00 00 00 00 00 00 00 00 00 00 00 00 00 ................
00407680 00 00 00 00 00 00 00 00 00 00 00 00 00 00 00 00 ................
00407690 00 00 00 00 00 00 00 00 00 00 00 00 00 00 00 00 ................
004076A0 00 00 00 00 00 00 00 00 00 00 00 00 00 00 00 00 ................
004076B0 00 00 00 00 00 00 00 00 00 00 00 00 00 00 00 00 ................
004076C0 00 00 00 00 00 00 00 00 00 00 00 00 00 00 00 00 ................
004076D0 00 00 00 00 00 00 00 00 00 00 00 00 00 00 00 00 ................
004076E0 00 00 00 00 00 00 00 00 00 00 00 00 00 00 00 00 ................
004076F0 00 00 00 00 00 00 00 00 00 00 00 00 00 00 00 00 ................
00407700 00 00 00 00 00 00 00 00 00 00 00 00 00 00 00 00 ................
00407710 00 00 00 00 00 00 00 00 00 00 00 00 00 00 00 00 ................
00407720 00 00 00 00 00 00 00 00 00 00 00 00 00 00 00 00 ................
00407730 00 00 00 00 00 00 00 00 00 00 00 00 00 00 00 00 ................
00407740 00 00 00 00 00 00 00 00 00 00 00 00 00 00 00 00 ................
00407750 00 00 00 00 00 00 00 00 00 00 00 00 00 00 00 00 ................
00407760 00 00 00 00 00 00 00 00 00 00 00 00 00 00 00 00 ................
00407770 00 00 00 00 00 00 00 00 00 00 00 00 00 00 00 00 ................
00407780 00 00 00 00 00 00 00 00 00 00 00 00 00 00 00 00 ................
00407790 00 00 00 00 00 00 00 00 00 00 00 00 00 00 00 00 ................
004077A0 00 00 00 00 00 00 00 00 00 00 00 00 00 00 00 00 ................
004077B0 00 00 00 00 00 00 00 00 00 00 00 00 00 00 00 00 ................
004077C0 00 00 00 00 00 00 00 00 00 00 00 00 00 00 00 00 ................
004077D0 00 00 00 00 00 00 00 00 00 00 00 00 00 00 00 00 ................
004077E0 00 00 00 00 00 00 00 00 00 00 00 00 00 00 00 00 ................
004077F0 00 00 00 00 00 00 00 00 00 00 00 00 00 00 00 00 ................
00407800 00 00 00 00 00 00 00 00 00 00 00 00 00 00 00 00 ................
00407810 00 00 00 00 00 00 00 00 00 00 00 00 00 00 00 00 ................
00407820 00 00 00 00 00 00 00 00 00 00 00 00 00 00 00 00 ................
00407830 00 00 00 00 00 00 00 00 00 00 00 00 00 00 00 00 ................
00407840 00 00 00 00 00 00 00 00 00 00 00 00 00 00 00 00 ................
00407850 00 00 00 00 00 00 00 00 00 00 00 00 00 00 00 00 ................
00407860 00 00 00 00 00 00 00 00 00 00 00 00 00 00 00 00 ................
00407870 00 00 00 00 00 00 00 00 00 00 00 00 00 00 00 00 ................
00407880 00 00 00 00 00 00 00 00 00 00 00 00 00 00 00 00 ................
00407890 00 00 00 00 00 00 00 00 00 00 00 00 00 00 00 00 ................
004078A0 00 00 00 00 00 00 00 00 00 00 00 00 00 00 00 00 ................
004078B0 00 00 00 00 00 00 00 00 00 00 00 00 00 00 00 00 ................
004078C0 00 00 00 00 00 00 00 00 00 00 00 00 00 00 00 00 ................
004078D0 00 00 00 00 00 00 00 00 00 00 00 00 00 00 00 00 ................
004078E0 00 00 00 00 00 00 00 00 00 00 00 00 00 00 00 00 ................
004078F0 00 00 00 00 00 00 00 00 00 00 00 00 00 00 00 00 ................
00407900 00 00 00 00 00 00 00 00 00 00 00 00 00 00 00 00 ................
00407910 00 00 00 00 00 00 00 00 00 00 00 00 00 00 00 00 ................
00407920 00 00 00 00 00 00 00 00 00 00 00 00 00 00 00 00 ................
00407930 00 00 00 00 00 00 00 00 00 00 00 00 00 00 00 00 ................
00407940 00 00 00 00 00 00 00 00 00 00 00 00 00 00 00 00 ................
00407950 00 00 00 00 00 00 00 00 00 00 00 00 00 00 00 00 ................
00407960 00 00 00 00 00 00 00 00 00 00 00 00 00 00 00 00 ................
00407970 00 00 00 00 00 00 00 00 00 00 00 00 00 00 00 00 ................
00407980 00 00 00 00 00 00 00 00 00 00 00 00 00 00 00 00 ................
00407990 00 00 00 00 00 00 00 00 00 00 00 00 00 00 00 00 ................
004079A0 00 00 00 00 00 00 00 00 00 00 00 00 00 00 00 00 ................
004079B0 00 00 00 00 00 00 00 00 00 00 00 00 00 00 00 00 ................
004079C0 00 00 00 00 00 00 00 00 00 00 00 00 00 00 00 00 ................
004079D0 00 00 00 00 00 00 00 00 00 00 00 00 00 00 00 00 ................
004079E0 00 00 00 00 00 00 00 00 00 00 00 00 00 00 00 00 ................
004079F0 00 00 00 00 00 00 00 00 00 00 00 00 00 00 00 00 ................
00407A00 00 00 00 00 00 00 00 00 00 00 00 00 00 00 00 00 ................
00407A10 00 00 00 00 00 00 00 00 00 00 00 00 00 00 00 00 ................
00407A20 00 00 00 00 00 00 00 00 00 00 00 00 00 00 00 00 ................
00407A30 00 00 00 00 00 00 00 00 00 00 00 00 00 00 00 00 ................
00407A40 00 00 00 00 00 00 00 00 00 00 00 00 00 00 00 00 ................
00407A50 00 00 00 00 00 00 00 00 00 00 00 00 00 00 00 00 ................
00407A60 00 00 00 00 00 00 00 00 00 00 00 00 00 00 00 00 ................
00407A70 00 00 00 00 00 00 00 00 00 00 00 00 00 00 00 00 ................
00407A80 00 00 00 00 00 00 00 00 00 00 00 00 00 00 00 00 ................
00407A90 00 00 00 00 00 00 00 00 00 00 00 00 00 00 00 00 ................
00407AA0 00 00 00 00 00 00 00 00 00 00 00 00 00 00 00 00 ................
00407AB0 00 00 00 00 00 00 00 00 00 00 00 00 00 00 00 00 ................
00407AC0 00 00 00 00 00 00 00 00 00 00 00 00 00 00 00 00 ................
00407AD0 00 00 00 00 00 00 00 00 00 00 00 00 00 00 00 00 ................
00407AE0 00 00 00 00 00 00 00 00 00 00 00 00 00 00 00 00 ................
00407AF0 00 00 00 00 00 00 00 00 00 00 00 00 00 00 00 00 ................
00407B00 00 00 00 00 00 00 00 00 00 00 00 00 00 00 00 00 ................
00407B10 00 00 00 00 00 00 00 00 00 00 00 00 00 00 00 00 ................
00407B20 00 00 00 00 00 00 00 00 00 00 00 00 00 00 00 00 ................
00407B30 00 00 00 00 00 00 00 00 00 00 00 00 00 00 00 00 ................
00407B40 00 00 00 00 00 00 00 00 00 00 00 00 00 00 00 00 ................
00407B50 00 00 00 00 00 00 00 00 00 00 00 00 00 00 00 00 ................
00407B60 00 00 00 00 00 00 00 00 00 00 00 00 00 00 00 00 ................
00407B70 00 00 00 00 00 00 00 00 00 00 00 00 00 00 00 00 ................
00407B80 00 00 00 00 00 00 00 00 00 00 00 00 00 00 00 00 ................
00407B90 00 00 00 00 00 00 00 00 00 00 00 00 00 00 00 00 ................
00407BA0 00 00 00 00 00 00 00 00 00 00 00 00 00 00 00 00 ................
00407BB0 00 00 00 00 00 00 00 00 00 00 00 00 00 00 00 00 ................
00407BC0 00 00 00 00 00 00 00 00 00 00 00 00 00 00 00 00 ................
00407BD0 00 00 00 00 00 00 00 00 00 00 00 00 00 00 00 00 ................
00407BE0 00 00 00 00 00 00 00 00 00 00 00 00 00 00 00 00 ................
00407BF0 00 00 00 00 00 00 00 00 00 00 00 00 00 00 00 00 ................
00407C00 00 00 00 00 00 00 00 00 00 00 00 00 00 00 00 00 ................
00407C10 00 00 00 00 00 00 00 00 00 00 00 00 00 00 00 00 ................
00407C20 00 00 00 00 00 00 00 00 00 00 00 00 00 00 00 00 ................
00407C30 00 00 00 00 00 00 00 00 00 00 00 00 00 00 00 00 ................
00407C40 00 00 00 00 00 00 00 00 00 00 00 00 00 00 00 00 ................
00407C50 00 00 00 00 00 00 00 00 00 00 00 00 00 00 00 00 ................
00407C60 00 00 00 00 00 00 00 00 00 00 00 00 00 00 00 00 ................
00407C70 00 00 00 00 00 00 00 00 00 00 00 00 00 00 00 00 ................
00407C80 00 00 00 00 00 00 00 00 00 00 00 00 00 00 00 00 ................
00407C90 00 00 00 00 00 00 00 00 00 00 00 00 00 00 00 00 ................
00407CA0 00 00 00 00 00 00 00 00 00 00 00 00 00 00 00 00 ................
00407CB0 00 00 00 00 00 00 00 00 00 00 00 00 00 00 00 00 ................
00407CC0 00 00 00 00 00 00 00 00 00 00 00 00 00 00 00 00 ................
00407CD0 00 00 00 00 00 00 00 00 00 00 00 00 00 00 00 00 ................
00407CE0 00 00 00 00 00 00 00 00 00 00 00 00 00 00 00 00 ................
00407CF0 00 00 00 00 00 00 00 00 00 00 00 00 00 00 00 00 ................
00407D00 00 00 00 00 00 00 00 00 00 00 00 00 00 00 00 00 ................
00407D10 00 00 00 00 00 00 00 00 00 00 00 00 00 00 00 00 ................
00407D20 00 00 00 00 00 00 00 00 00 00 00 00 00 00 00 00 ................
00407D30 00 00 00 00 00 00 00 00 00 00 00 00 00 00 00 00 ................
00407D40 00 00 00 00 00 00 00 00 00 00 00 00 00 00 00 00 ................
00407D50 00 00 00 00 00 00 00 00 00 00 00 00 00 00 00 00 ................
00407D60 00 00 00 00 00 00 00 00 00 00 00 00 00 00 00 00 ................
00407D70 00 00 00 00 00 00 00 00 00 00 00 00 00 00 00 00 ................
00407D80 00 00 00 00 00 00 00 00 00 00 00 00 00 00 00 00 ................
00407D90 00 00 00 00 00 00 00 00 00 00 00 00 00 00 00 00 ................
00407DA0 00 00 00 00 00 00 00 00 00 00 00 00 00 00 00 00 ................
00407DB0 00 00 00 00 00 00 00 00 00 00 00 00 00 00 00 00 ................
00407DC0 00 00 00 00 00 00 00 00 00 00 00 00 00 00 00 00 ................
00407DD0 00 00 00 00 00 00 00 00 00 00 00 00 00 00 00 00 ................
00407DE0 00 00 00 00 00 00 00 00 00 00 00 00 00 00 00 00 ................
00407DF0 00 00 00 00 00 00 00 00 00 00 00 00 00 00 00 00 ................
00407E00 00 00 00 00 00 00 00 00 00 00 00 00 00 00 00 00 ................
00407E10 00 00 00 00 00 00 00 00 00 00 00 00 00 00 00 00 ................
00407E20 00 00 00 00 00 00 00 00 00 00 00 00 00 00 00 00 ................
00407E30 00 00 00 00 00 00 00 00 00 00 00 00 00 00 00 00 ................
00407E40 00 00 00 00 00 00 00 00 00 00 00 00 00 00 00 00 ................
00407E50 00 00 00 00 00 00 00 00 00 00 00 00 00 00 00 00 ................
00407E60 00 00 00 00 00 00 00 00 00 00 00 00 00 00 00 00 ................
00407E70 00 00 00 00 00 00 00 00 00 00 00 00 00 00 00 00 ................
00407E80 00 00 00 00 00 00 00 00 00 00 00 00 00 00 00 00 ................
00407E90 00 00 00 00 00 00 00 00 00 00 00 00 00 00 00 00 ................
00407EA0 00 00 00 00 00 00 00 00 00 00 00 00 00 00 00 00 ................
00407EB0 00 00 00 00 00 00 00 00 00 00 00 00 00 00 00 00 ................
00407EC0 00 00 00 00 00 00 00 00 00 00 00 00 00 00 00 00 ................
00407ED0 00 00 00 00 00 00 00 00 00 00 00 00 00 00 00 00 ................
00407EE0 00 00 00 00 00 00 00 00 00 00 00 00 00 00 00 00 ................
00407EF0 00 00 00 00 00 00 00 00 00 00 00 00 00 00 00 00 ................
00407F00 00 00 00 00 00 00 00 00 00 00 00 00 00 00 00 00 ................
00407F10 00 00 00 00 00 00 00 00 00 00 00 00 00 00 00 00 ................
00407F20 00 00 00 00 00 00 00 00 00 00 00 00 00 00 00 00 ................
00407F30 00 00 00 00 00 00 00 00 00 00 00 00 00 00 00 00 ................
00407F40 00 00 00 00 00 00 00 00 00 00 00 00 00 00 00 00 ................
00407F50 00 00 00 00 00 00 00 00 00 00 00 00 00 00 00 00 ................
00407F60 00 00 00 00 00 00 00 00 00 00 00 00 00 00 00 00 ................
00407F70 00 00 00 00 00 00 00 00 00 00 00 00 00 00 00 00 ................
00407F80 00 00 00 00 00 00 00 00 00 00 00 00 00 00 00 00 ................
00407F90 00 00 00 00 00 00 00 00 00 00 00 00 00 00 00 00 ................
00407FA0 00 00 00 00 00 00 00 00 00 00 00 00 00 00 00 00 ................
00407FB0 00 00 00 00 00 00 00 00 00 00 00 00 00 00 00 00 ................
00407FC0 00 00 00 00 00 00 00 00 00 00 00 00 00 00 00 00 ................
00407FD0 00 00 00 00 00 00 00 00 00 00 00 00 00 00 00 00 ................
00407FE0 00 00 00 00 00 00 00 00 00 00 00 00 00 00 00 00 ................
00407FF0 00 00 00 00 00 00 00 00 00 00 00 00 00 00 00 00 ................
00408000 00 00 00 00 00 00 00 00 00 00 00 00 00 00 00 00 ................
00408010 00 00 00 00 00 00 00 00 00 00 00 00 00 00 00 00 ................
00408020 00 00 00 00 00 00 00 00 00 00 00 00 00 00 00 00 ................
00408030 00 00 00 00 00 00 00 00 00 00 00 00 00 00 00 00 ................
00408040 00 00 00 00 00 00 00 00 00 00 00 00 00 00 00 00 ................
00408050 00 00 00 00 00 00 00 00 00 00 00 00 00 00 00 00 ................
00408060 00 00 00 00 00 00 00 00 00 00 00 00 00 00 00 00 ................
00408070 00 00 00 00 00 00 00 00 00 00 00 00 00 00 00 00 ................
00408080 00 00 00 00 00 00 00 00 00 00 00 00 00 00 00 00 ................
00408090 00 00 00 00 00 00 00 00 00 00 00 00 00 00 00 00 ................
004080A0 00 00 00 00 00 00 00 00 00 00 00 00 00 00 00 00 ................
004080B0 00 00 00 00 00 00 00 00 00 00 00 00 00 00 00 00 ................
004080C0 00 00 00 00 00 00 00 00 00 00 00 00 00 00 00 00 ................
004080D0 00 00 00 00 00 00 00 00 00 00 00 00 00 00 00 00 ................
004080E0 00 00 00 00 00 00 00 00 00 00 00 00 00 00 00 00 ................
004080F0 00 00 00 00 00 00 00 00 00 00 00 00 00 00 00 00 ................
00408100 00 00 00 00 00 00 00 00 00 00 00 00 00 00 00 00 ................
00408110 00 00 00 00 00 00 00 00 00 00 00 00 00 00 00 00 ................
00408120 00 00 00 00 00 00 00 00 00 00 00 00 00 00 00 00 ................
00408130 00 00 00 00 00 00 00 00 00 00 00 00 00 00 00 00 ................
00408140 00 00 00 00 00 00 00 00 00 00 00 00 00 00 00 00 ................
00408150 00 00 00 00 00 00 00 00 00 00 00 00 00 00 00 00 ................
00408160 00 00 00 00 00 00 00 00 00 00 00 00 00 00 00 00 ................
00408170 00 00 00 00 00 00 00 00 00 00 00 00 00 00 00 00 ................
00408180 00 00 00 00 00 00 00 00 00 00 00 00 00 00 00 00 ................
00408190 00 00 00 00 00 00 00 00 00 00 00 00 00 00 00 00 ................
004081A0 00 00 00 00 00 00 00 00 00 00 00 00 00 00 00 00 ................
004081B0 00 00 00 00 00 00 00 00 00 00 00 00 00 00 00 00 ................
004081C0 00 00 00 00 00 00 00 00 00 00 00 00 00 00 00 00 ................
004081D0 00 00 00 00 00 00 00 00 00 00 00 00 00 00 00 00 ................
004081E0 00 00 00 00 00 00 00 00 00 00 00 00 00 00 00 00 ................
004081F0 00 00 00 00 00 00 00 00 00 00 00 00 00 00 00 00 ................
00408200 00 00 00 00 00 00 00 00 00 00 00 00 00 00 00 00 ................
00408210 00 00 00 00 00 00 00 00 00 00 00 00 00 00 00 00 ................
00408220 00 00 00 00 00 00 00 00 00 00 00 00 00 00 00 00 ................
00408230 00 00 00 00 00 00 00 00 00 00 00 00 00 00 00 00 ................
00408240 00 00 00 00 00 00 00 00 00 00 00 00 00 00 00 00 ................
00408250 00 00 00 00 00 00 00 00 00 00 00 00 00 00 00 00 ................
00408260 00 00 00 00 00 00 00 00 00 00 00 00 00 00 00 00 ................
00408270 00 00 00 00 00 00 00 00 00 00 00 00 00 00 00 00 ................
00408280 00 00 00 00 00 00 00 00 00 00 00 00 00 00 00 00 ................
00408290 00 00 00 00 00 00 00 00 00 00 00 00 00 00 00 00 ................
004082A0 00 00 00 00 00 00 00 00 00 00 00 00 00 00 00 00 ................
004082B0 00 00 00 00 00 00 00 00 00 00 00 00 00 00 00 00 ................
004082C0 00 00 00 00 00 00 00 00 00 00 00 00 00 00 00 00 ................
004082D0 00 00 00 00 00 00 00 00 00 00 00 00 00 00 00 00 ................
004082E0 00 00 00 00 00 00 00 00 00 00 00 00 00 00 00 00 ................
004082F0 00 00 00 00 00 00 00 00 00 00 00 00 00 00 00 00 ................
00408300 00 00 00 00 00 00 00 00 00 00 00 00 00 00 00 00 ................
00408310 00 00 00 00 00 00 00 00 00 00 00 00 00 00 00 00 ................
00408320 00 00 00 00 00 00 00 00 00 00 00 00 00 00 00 00 ................
00408330 00 00 00 00 00 00 00 00 00 00 00 00 00 00 00 00 ................
00408340 00 00 00 00 00 00 00 00 00 00 00 00 00 00 00 00 ................
00408350 00 00 00 00 00 00 00 00 00 00 00 00 00 00 00 00 ................
00408360 00 00 00 00 00 00 00 00 00 00 00 00 00 00 00 00 ................
00408370 00 00 00 00 00 00 00 00 00 00 00 00 00 00 00 00 ................
00408380 00 00 00 00 00 00 00 00 00 00 00 00 00 00 00 00 ................
00408390 00 00 00 00 00 00 00 00 00 00 00 00 00 00 00 00 ................
004083A0 00 00 00 00 00 00 00 00 00 00 00 00 00 00 00 00 ................
004083B0 00 00 00 00 00 00 00 00 00 00 00 00 00 00 00 00 ................
004083C0 00 00 00 00 00 00 00 00 00 00 00 00 00 00 00 00 ................
004083D0 00 00 00 00 00 00 00 00 00 00 00 00 00 00 00 00 ................
004083E0 00 00 00 00 00 00 00 00 00 00 00 00 00 00 00 00 ................
004083F0 00 00 00 00 00 00 00 00 00 00 00 00 00 00 00 00 ................
00408400 00 00 00 00 00 00 00 00 00 00 00 00 00 00 00 00 ................
00408410 00 00 00 00 00 00 00 00 00 00 00 00 00 00 00 00 ................
00408420 00 00 00 00 00 00 00 00 00 00 00 00 00 00 00 00 ................
00408430 00 00 00 00 00 00 00 00 00 00 00 00 00 00 00 00 ................
00408440 00 00 00 00 00 00 00 00 00 00 00 00 00 00 00 00 ................
00408450 00 00 00 00 00 00 00 00 00 00 00 00 00 00 00 00 ................
00408460 00 00 00 00 00 00 00 00 00 00 00 00 00 00 00 00 ................
00408470 00 00 00 00 00 00 00 00 00 00 00 00 00 00 00 00 ................
00408480 00 00 00 00 00 00 00 00 00 00 00 00 00 00 00 00 ................
00408490 00 00 00 00 00 00 00 00 00 00 00 00 00 00 00 00 ................
004084A0 00 00 00 00 00 00 00 00 00 00 00 00 00 00 00 00 ................
004084B0 00 00 00 00 00 00 00 00 00 00 00 00 00 00 00 00 ................
004084C0 00 00 00 00 00 00 00 00 00 00 00 00 00 00 00 00 ................
004084D0 00 00 00 00 00 00 00 00 00 00 00 00 00 00 00 00 ................
004084E0 00 00 00 00 00 00 00 00 00 00 00 00 00 00 00 00 ................
004084F0 00 00 00 00 00 00 00 00 00 00 00 00 00 00 00 00 ................
00408500 00 00 00 00 00 00 00 00 00 00 00 00 00 00 00 00 ................
00408510 00 00 00 00 00 00 00 00 00 00 00 00 00 00 00 00 ................
00408520 00 00 00 00 00 00 00 00 00 00 00 00 00 00 00 00 ................
00408530 00 00 00 00 00 00 00 00 00 00 00 00 00 00 00 00 ................
00408540 00 00 00 00 00 00 00 00 00 00 00 00 00 00 00 00 ................
00408550 00 00 00 00 00 00 00 00 00 00 00 00 00 00 00 00 ................
00408560 00 00 00 00 00 00 00 00 00 00 00 00 00 00 00 00 ................
00408570 00 00 00 00 00 00 00 00 00 00 00 00 00 00 00 00 ................
00408580 00 00 00 00 00 00 00 00 00 00 00 00 00 00 00 00 ................
00408590 00 00 00 00 00 00 00 00 00 00 00 00 00 00 00 00 ................
004085A0 00 00 00 00 00 00 00 00 00 00 00 00 00 00 00 00 ................
004085B0 00 00 00 00 00 00 00 00 00 00 00 00 00 00 00 00 ................
004085C0 00 00 00 00 00 00 00 00 00 00 00 00 00 00 00 00 ................
004085D0 00 00 00 00 00 00 00 00 00 00 00 00 00 00 00 00 ................
004085E0 00 00 00 00 00 00 00 00 00 00 00 00 00 00 00 00 ................
004085F0 00 00 00 00 00 00 00 00 00 00 00 00 00 00 00 00 ................
00408600 00 00 00 00 00 00 00 00 00 00 00 00 00 00 00 00 ................
00408610 00 00 00 00 00 00 00 00 00 00 00 00 00 00 00 00 ................
00408620 00 00 00 00 00 00 00 00 00 00 00 00 00 00 00 00 ................
00408630 00 00 00 00 00 00 00 00 00 00 00 00 00 00 00 00 ................
00408640 00 00 00 00 00 00 00 00 00 00 00 00 00 00 00 00 ................
00408650 00 00 00 00 00 00 00 00 00 00 00 00 00 00 00 00 ................
00408660 00 00 00 00 00 00 00 00 00 00 00 00 00 00 00 00 ................
00408670 00 00 00 00 00 00 00 00 00 00 00 00 00 00 00 00 ................
00408680 00 00 00 00 00 00 00 00 00 00 00 00 00 00 00 00 ................
00408690 00 00 00 00 00 00 00 00 00 00 00 00 00 00 00 00 ................
004086A0 00 00 00 00 00 00 00 00 00 00 00 00 00 00 00 00 ................
004086B0 00 00 00 00 00 00 00 00 00 00 00 00 00 00 00 00 ................
004086C0 00 00 00 00 00 00 00 00 00 00 00 00 00 00 00 00 ................
004086D0 00 00 00 00 00 00 00 00 00 00 00 00 00 00 00 00 ................
004086E0 00 00 00 00 00 00 00 00 00 00 00 00 00 00 00 00 ................
004086F0 00 00 00 00 00 00 00 00 00 00 00 00 00 00 00 00 ................
00408700 00 00 00 00 00 00 00 00 00 00 00 00 00 00 00 00 ................
00408710 00 00 00 00 00 00 00 00 00 00 00 00 00 00 00 00 ................
00408720 00 00 00 00 00 00 00 00 00 00 00 00 00 00 00 00 ................
00408730 00 00 00 00 00 00 00 00 00 00 00 00 00 00 00 00 ................
00408740 00 00 00 00 00 00 00 00 00 00 00 00 00 00 00 00 ................
00408750 00 00 00 00 00 00 00 00 00 00 00 00 00 00 00 00 ................
00408760 00 00 00 00 00 00 00 00 00 00 00 00 00 00 00 00 ................
00408770 00 00 00 00 00 00 00 00 00 00 00 00 00 00 00 00 ................
00408780 00 00 00 00 00 00 00 00 00 00 00 00 00 00 00 00 ................
00408790 00 00 00 00 00 00 00 00 00 00 00 00 00 00 00 00 ................
004087A0 00 00 00 00 00 00 00 00 00 00 00 00 00 00 00 00 ................
004087B0 00 00 00 00 00 00 00 00 00 00 00 00 00 00 00 00 ................
004087C0 00 00 00 00 00 00 00 00 00 00 00 00 00 00 00 00 ................
004087D0 00 00 00 00 00 00 00 00 00 00 00 00 00 00 00 00 ................
004087E0 00 00 00 00 00 00 00 00 00 00 00 00 00 00 00 00 ................
004087F0 00 00 00 00 00 00 00 00 00 00 00 00 00 00 00 00 ................
00408800 00 00 00 00 00 00 00 00 00 00 00 00 00 00 00 00 ................
00408810 00 00 00 00 00 00 00 00 00 00 00 00 00 00 00 00 ................
00408820 00 00 00 00 00 00 00 00 00 00 00 00 00 00 00 00 ................
00408830 00 00 00 00 00 00 00 00 00 00 00 00 00 00 00 00 ................
00408840 00 00 00 00 00 00 00 00 00 00 00 00 00 00 00 00 ................
00408850 00 00 00 00 00 00 00 00 00 00 00 00 00 00 00 00 ................
00408860 00 00 00 00 00 00 00 00 00 00 00 00 00 00 00 00 ................
00408870 00 00 00 00 00 00 00 00 00 00 00 00 00 00 00 00 ................
00408880 00 00 00 00 00 00 00 00 00 00 00 00 00 00 00 00 ................
00408890 00 00 00 00 00 00 00 00 00 00 00 00 00 00 00 00 ................
004088A0 00 00 00 00 00 00 00 00 00 00 00 00 00 00 00 00 ................
004088B0 00 00 00 00 00 00 00 00 00 00 00 00 00 00 00 00 ................
004088C0 00 00 00 00 00 00 00 00 00 00 00 00 00 00 00 00 ................
004088D0 00 00 00 00 00 00 00 00 00 00 00 00 00 00 00 00 ................
004088E0 00 00 00 00 00 00 00 00 00 00 00 00 00 00 00 00 ................
004088F0 00 00 00 00 00 00 00 00 00 00 00 00 00 00 00 00 ................
00408900 00 00 00 00 00 00 00 00 00 00 00 00 00 00 00 00 ................
00408910 00 00 00 00 00 00 00 00 00 00 00 00 00 00 00 00 ................
00408920 00 00 00 00 00 00 00 00 00 00 00 00 00 00 00 00 ................
00408930 00 00 00 00 00 00 00 00 00 00 00 00 00 00 00 00 ................
00408940 00 00 00 00 00 00 00 00 00 00 00 00 00 00 00 00 ................
00408950 00 00 00 00 00 00 00 00 00 00 00 00 00 00 00 00 ................
00408960 00 00 00 00 00 00 00 00 00 00 00 00 00 00 00 00 ................
00408970 00 00 00 00 00 00 00 00 00 00 00 00 00 00 00 00 ................
00408980 00 00 00 00 00 00 00 00 00 00 00 00 00 00 00 00 ................
00408990 00 00 00 00 00 00 00 00 00 00 00 00 00 00 00 00 ................
004089A0 00 00 00 00 00 00 00 00 00 00 00 00 00 00 00 00 ................
004089B0 00 00 00 00 00 00 00 00 00 00 00 00 00 00 00 00 ................
004089C0 00 00 00 00 00 00 00 00 00 00 00 00 00 00 00 00 ................
004089D0 00 00 00 00 00 00 00 00 00 00 00 00 00 00 00 00 ................
004089E0 00 00 00 00 00 00 00 00 00 00 00 00 00 00 00 00 ................
004089F0 00 00 00 00 00 00 00 00 00 00 00 00 00 00 00 00 ................
00408A00 00 00 00 00 00 00 00 00 00 00 00 00 00 00 00 00 ................
00408A10 00 00 00 00 00 00 00 00 00 00 00 00 00 00 00 00 ................
00408A20 00 00 00 00 00 00 00 00 00 00 00 00 00 00 00 00 ................
00408A30 00 00 00 00 00 00 00 00 00 00 00 00 00 00 00 00 ................
00408A40 00 00 00 00 00 00 00 00 00 00 00 00 00 00 00 00 ................
00408A50 00 00 00 00 00 00 00 00 00 00 00 00 00 00 00 00 ................
00408A60 00 00 00 00 00 00 00 00 00 00 00 00 00 00 00 00 ................
00408A70 00 00 00 00 00 00 00 00 00 00 00 00 00 00 00 00 ................
00408A80 00 00 00 00 00 00 00 00 00 00 00 00 00 00 00 00 ................
00408A90 00 00 00 00 00 00 00 00 00 00 00 00 00 00 00 00 ................
00408AA0 00 00 00 00 00 00 00 00 00 00 00 00 00 00 00 00 ................
00408AB0 00 00 00 00 00 00 00 00 00 00 00 00 00 00 00 00 ................
00408AC0 00 00 00 00 00 00 00 00 00 00 00 00 00 00 00 00 ................
00408AD0 00 00 00 00 00 00 00 00 00 00 00 00 00 00 00 00 ................
00408AE0 00 00 00 00 00 00 00 00 00 00 00 00 00 00 00 00 ................
00408AF0 00 00 00 00 00 00 00 00 00 00 00 00 00 00 00 00 ................
00408B00 00 00 00 00 00 00 00 00 00 00 00 00 00 00 00 00 ................
00408B10 00 00 00 00 00 00 00 00 00 00 00 00 00 00 00 00 ................
00408B20 00 00 00 00 00 00 00 00 00 00 00 00 00 00 00 00 ................
00408B30 00 00 00 00 00 00 00 00 00 00 00 00 00 00 00 00 ................
00408B40 00 00 00 00 00 00 00 00 00 00 00 00 00 00 00 00 ................
00408B50 00 00 00 00 00 00 00 00 00 00 00 00 00 00 00 00 ................
00408B60 00 00 00 00 00 00 00 00 00 00 00 00 00 00 00 00 ................
00408B70 00 00 00 00 00 00 00 00 00 00 00 00 00 00 00 00 ................
00408B80 00 00 00 00 00 00 00 00 00 00 00 00 00 00 00 00 ................
00408B90 00 00 00 00 00 00 00 00 00 00 00 00 00 00 00 00 ................
00408BA0 00 00 00 00 00 00 00 00 00 00 00 00 00 00 00 00 ................
00408BB0 00 00 00 00 00 00 00 00 00 00 00 00 00 00 00 00 ................
00408BC0 00 00 00 00 00 00 00 00 00 00 00 00 00 00 00 00 ................
00408BD0 00 00 00 00 00 00 00 00 00 00 00 00 00 00 00 00 ................
00408BE0 00 00 00 00 00 00 00 00 00 00 00 00 00 00 00 00 ................
00408BF0 00 00 00 00 00 00 00 00 00 00 00 00 00 00 00 00 ................
00408C00 00 00 00 00 00 00 00 00 00 00 00 00 00 00 00 00 ................
00408C10 00 00 00 00 00 00 00 00 00 00 00 00 00 00 00 00 ................
00408C20 00 00 00 00 00 00 00 00 00 00 00 00 00 00 00 00 ................
00408C30 00 00 00 00 00 00 00 00 00 00 00 00 00 00 00 00 ................
00408C40 00 00 00 00 00 00 00 00 00 00 00 00 00 00 00 00 ................
00408C50 00 00 00 00 00 00 00 00 00 00 00 00 00 00 00 00 ................
00408C60 00 00 00 00 00 00 00 00 00 00 00 00 00 00 00 00 ................
00408C70 00 00 00 00 00 00 00 00 00 00 00 00 00 00 00 00 ................
00408C80 00 00 00 00 00 00 00 00 00 00 00 00 00 00 00 00 ................
00408C90 00 00 00 00 00 00 00 00 00 00 00 00 00 00 00 00 ................
00408CA0 00 00 00 00 00 00 00 00 00 00 00 00 00 00 00 00 ................
00408CB0 00 00 00 00 00 00 00 00 00 00 00 00 00 00 00 00 ................
00408CC0 00 00 00 00 00 00 00 00 00 00 00 00 00 00 00 00 ................
00408CD0 00 00 00 00 00 00 00 00 00 00 00 00 00 00 00 00 ................
00408CE0 00 00 00 00 00 00 00 00 00 00 00 00 00 00 00 00 ................
00408CF0 00 00 00 00 00 00 00 00 00 00 00 00 00 00 00 00 ................
00408D00 00 00 00 00 00 00 00 00 00 00 00 00 00 00 00 00 ................
00408D10 00 00 00 00 00 00 00 00 00 00 00 00 00 00 00 00 ................
00408D20 00 00 00 00 00 00 00 00 00 00 00 00 00 00 00 00 ................
00408D30 00 00 00 00 00 00 00 00 00 00 00 00 00 00 00 00 ................
00408D40 00 00 00 00 00 00 00 00 00 00 00 00 00 00 00 00 ................
00408D50 00 00 00 00 00 00 00 00 00 00 00 00 00 00 00 00 ................
00408D60 00 00 00 00 00 00 00 00 00 00 00 00 00 00 00 00 ................
00408D70 00 00 00 00 00 00 00 00 00 00 00 00 00 00 00 00 ................
00408D80 00 00 00 00 00 00 00 00 00 00 00 00 00 00 00 00 ................
00408D90 00 00 00 00 00 00 00 00 00 00 00 00 00 00 00 00 ................
00408DA0 00 00 00 00 00 00 00 00 00 00 00 00 00 00 00 00 ................
00408DB0 00 00 00 00 00 00 00 00 00 00 00 00 00 00 00 00 ................
00408DC0 00 00 00 00 00 00 00 00 00 00 00 00 00 00 00 00 ................
00408DD0 00 00 00 00 00 00 00 00 00 00 00 00 00 00 00 00 ................
00408DE0 00 00 00 00 00 00 00 00 00 00 00 00 00 00 00 00 ................
00408DF0 00 00 00 00 00 00 00 00 00 00 00 00 00 00 00 00 ................
00408E00 00 00 00 00 00 00 00 00 00 00 00 00 00 00 00 00 ................
00408E10 00 00 00 00 00 00 00 00 00 00 00 00 00 00 00 00 ................
00408E20 00 00 00 00 00 00 00 00 00 00 00 00 00 00 00 00 ................
00408E30 00 00 00 00 00 00 00 00 00 00 00 00 00 00 00 00 ................
00408E40 00 00 00 00 00 00 00 00 00 00 00 00 00 00 00 00 ................
00408E50 00 00 00 00 00 00 00 00 00 00 00 00 00 00 00 00 ................
00408E60 00 00 00 00 00 00 00 00 00 00 00 00 00 00 00 00 ................
00408E70 00 00 00 00 00 00 00 00 00 00 00 00 00 00 00 00 ................
00408E80 00 00 00 00 00 00 00 00 00 00 00 00 00 00 00 00 ................
00408E90 00 00 00 00 00 00 00 00 00 00 00 00 00 00 00 00 ................
00408EA0 00 00 00 00 00 00 00 00 00 00 00 00 00 00 00 00 ................
00408EB0 00 00 00 00 00 00 00 00 00 00 00 00 00 00 00 00 ................
00408EC0 00 00 00 00 00 00 00 00 00 00 00 00 00 00 00 00 ................
00408ED0 00 00 00 00 00 00 00 00 00 00 00 00 00 00 00 00 ................
00408EE0 00 00 00 00 00 00 00 00 00 00 00 00 00 00 00 00 ................
00408EF0 00 00 00 00 00 00 00 00 00 00 00 00 00 00 00 00 ................
00408F00 00 00 00 00 00 00 00 00 00 00 00 00 00 00 00 00 ................
00408F10 00 00 00 00 00 00 00 00 00 00 00 00 00 00 00 00 ................
00408F20 00 00 00 00 00 00 00 00 00 00 00 00 00 00 00 00 ................
00408F30 00 00 00 00 00 00 00 00 00 00 00 00 00 00 00 00 ................
00408F40 00 00 00 00 00 00 00 00 00 00 00 00 00 00 00 00 ................
00408F50 00 00 00 00 00 00 00 00 00 00 00 00 00 00 00 00 ................
00408F60 00 00 00 00 00 00 00 00 00 00 00 00 00 00 00 00 ................
00408F70 00 00 00 00 00 00 00 00 00 00 00 00 00 00 00 00 ................
00408F80 00 00 00 00 00 00 00 00 00 00 00 00 00 00 00 00 ................
00408F90 00 00 00 00 00 00 00 00 00 00 00 00 00 00 00 00 ................
00408FA0 00 00 00 00 00 00 00 00 00 00 00 00 00 00 00 00 ................
00408FB0 00 00 00 00 00 00 00 00 00 00 00 00 00 00 00 00 ................
00408FC0 00 00 00 00 00 00 00 00 00 00 00 00 00 00 00 00 ................
00408FD0 00 00 00 00 00 00 00 00 00 00 00 00 00 00 00 00 ................
00408FE0 00 00 00 00 00 00 00 00 00 00 00 00 00 00 00 00 ................
00408FF0 00 00 00 00 00 00 00 00 00 00 00 00 00 00 00 00 ................
00409000 00 00 00 00 00 00 00 00 00 00 00 00 00 00 00 00 ................
00409010 00 00 00 00 00 00 00 00 00 00 00 00 00 00 00 00 ................
00409020 00 00 00 00 00 00 00 00 00 00 00 00 00 00 00 00 ................
00409030 00 00 00 00 00 00 00 00 00 00 00 00 00 00 00 00 ................
00409040 00 00 00 00 00 00 00 00 00 00 00 00 00 00 00 00 ................
00409050 00 00 00 00 00 00 00 00 00 00 00 00 00 00 00 00 ................
00409060 00 00 00 00 00 00 00 00 00 00 00 00 00 00 00 00 ................
00409070 00 00 00 00 00 00 00 00 00 00 00 00 00 00 00 00 ................
00409080 00 00 00 00 00 00 00 00 00 00 00 00 00 00 00 00 ................
00409090 00 00 00 00 00 00 00 00 00 00 00 00 00 00 00 00 ................
004090A0 00 00 00 00 00 00 00 00 00 00 00 00 00 00 00 00 ................
004090B0 00 00 00 00 00 00 00 00 00 00 00 00 00 00 00 00 ................
004090C0 00 00 00 00 00 00 00 00 00 00 00 00 00 00 00 00 ................
004090D0 00 00 00 00 00 00 00 00 00 00 00 00 00 00 00 00 ................
004090E0 00 00 00 00 00 00 00 00 00 00 00 00 00 00 00 00 ................
004090F0 00 00 00 00 00 00 00 00 00 00 00 00 00 00 00 00 ................
00409100 00 00 00 00 00 00 00 00 00 00 00 00 00 00 00 00 ................
00409110 00 00 00 00 00 00 00 00 00 00 00 00 00 00 00 00 ................
00409120 00 00 00 00 00 00 00 00 00 00 00 00 00 00 00 00 ................
00409130 00 00 00 00 00 00 00 00 00 00 00 00 00 00 00 00 ................
00409140 00 00 00 00 00 00 00 00 00 00 00 00 00 00 00 00 ................
00409150 00 00 00 00 00 00 00 00 00 00 00 00 00 00 00 00 ................
00409160 00 00 00 00 00 00 00 00 00 00 00 00 00 00 00 00 ................
00409170 00 00 00 00 00 00 00 00 00 00 00 00 00 00 00 00 ................
00409180 00 00 00 00 00 00 00 00 00 00 00 00 00 00 00 00 ................
00409190 00 00 00 00 00 00 00 00 00 00 00 00 00 00 00 00 ................
004091A0 00 00 00 00 00 00 00 00 00 00 00 00 00 00 00 00 ................
004091B0 00 00 00 00 00 00 00 00 00 00 00 00 00 00 00 00 ................
004091C0 00 00 00 00 00 00 00 00 00 00 00 00 00 00 00 00 ................
004091D0 00 00 00 00 00 00 00 00 00 00 00 00 00 00 00 00 ................
004091E0 00 00 00 00 00 00 00 00 00 00 00 00 00 00 00 00 ................
004091F0 00 00 00 00 00 00 00 00 00 00 00 00 00 00 00 00 ................
00409200 00 00 00 00 00 00 00 00 00 00 00 00 00 00 00 00 ................
00409210 00 00 00 00 00 00 00 00 00 00 00 00 00 00 00 00 ................
00409220 00 00 00 00 00 00 00 00 00 00 00 00 00 00 00 00 ................
00409230 00 00 00 00 00 00 00 00 00 00 00 00 00 00 00 00 ................
00409240 00 00 00 00 00 00 00 00 00 00 00 00 00 00 00 00 ................
00409250 00 00 00 00 00 00 00 00 00 00 00 00 00 00 00 00 ................
00409260 00 00 00 00 00 00 00 00 00 00 00 00 00 00 00 00 ................
00409270 00 00 00 00 00 00 00 00 00 00 00 00 00 00 00 00 ................
00409280 00 00 00 00 00 00 00 00 00 00 00 00 00 00 00 00 ................
00409290 00 00 00 00 00 00 00 00 00 00 00 00 00 00 00 00 ................
004092A0 00 00 00 00 00 00 00 00 00 00 00 00 00 00 00 00 ................
004092B0 00 00 00 00 00 00 00 00 00 00 00 00 00 00 00 00 ................
004092C0 00 00 00 00 00 00 00 00 00 00 00 00 00 00 00 00 ................
004092D0 00 00 00 00 00 00 00 00 00 00 00 00 00 00 00 00 ................
004092E0 00 00 00 00 00 00 00 00 00 00 00 00 00 00 00 00 ................
004092F0 00 00 00 00 00 00 00 00 00 00 00 00 00 00 00 00 ................
00409300 00 00 00 00 00 00 00 00 00 00 00 00 00 00 00 00 ................
00409310 00 00 00 00 00 00 00 00 00 00 00 00 00 00 00 00 ................
00409320 00 00 00 00 00 00 00 00 00 00 00 00 00 00 00 00 ................
00409330 00 00 00 00 00 00 00 00 00 00 00 00 00 00 00 00 ................
00409340 00 00 00 00 00 00 00 00 00 00 00 00 00 00 00 00 ................
00409350 00 00 00 00 00 00 00 00 00 00 00 00 00 00 00 00 ................
00409360 00 00 00 00 00 00 00 00 00 00 00 00 00 00 00 00 ................
00409370 00 00 00 00 00 00 00 00 00 00 00 00 00 00 00 00 ................
00409380 00 00 00 00 00 00 00 00 00 00 00 00 00 00 00 00 ................
00409390 00 00 00 00 00 00 00 00 00 00 00 00 00 00 00 00 ................
004093A0 00 00 00 00 00 00 00 00 00 00 00 00 00 00 00 00 ................
004093B0 00 00 00 00 00 00 00 00 00 00 00 00 00 00 00 00 ................
004093C0 00 00 00 00 00 00 00 00 00 00 00 00 00 00 00 00 ................
004093D0 00 00 00 00 00 00 00 00 00 00 00 00 00 00 00 00 ................
004093E0 00 00 00 00 00 00 00 00 00 00 00 00 00 00 00 00 ................
004093F0 00 00 00 00 00 00 00 00 00 00 00 00 00 00 00 00 ................
00409400 00 00 00 00 00 00 00 00 00 00 00 00 00 00 00 00 ................
00409410 00 00 00 00 00 00 00 00 00 00 00 00 00 00 00 00 ................
00409420 00 00 00 00 00 00 00 00 00 00 00 00 00 00 00 00 ................
00409430 00 00 00 00 00 00 00 00 00 00 00 00 00 00 00 00 ................
00409440 00 00 00 00 00 00 00 00 00 00 00 00 00 00 00 00 ................
00409450 00 00 00 00 00 00 00 00 00 00 00 00 00 00 00 00 ................
00409460 00 00 00 00 00 00 00 00 00 00 00 00 00 00 00 00 ................
00409470 00 00 00 00 00 00 00 00 00 00 00 00 00 00 00 00 ................
00409480 00 00 00 00 00 00 00 00 00 00 00 00 00 00 00 00 ................
00409490 00 00 00 00 00 00 00 00 00 00 00 00 00 00 00 00 ................
004094A0 00 00 00 00 00 00 00 00 00 00 00 00 00 00 00 00 ................
004094B0 00 00 00 00 00 00 00 00 00 00 00 00 00 00 00 00 ................
004094C0 00 00 00 00 00 00 00 00 00 00 00 00 00 00 00 00 ................
004094D0 00 00 00 00 00 00 00 00 00 00 00 00 00 00 00 00 ................
004094E0 00 00 00 00 00 00 00 00 00 00 00 00 00 00 00 00 ................
004094F0 00 00 00 00 00 00 00 00 00 00 00 00 00 00 00 00 ................
00409500 00 00 00 00 00 00 00 00 00 00 00 00 00 00 00 00 ................
00409510 00 00 00 00 00 00 00 00 00 00 00 00 00 00 00 00 ................
00409520 00 00 00 00 00 00 00 00 00 00 00 00 00 00 00 00 ................
00409530 00 00 00 00 00 00 00 00 00 00 00 00 00 00 00 00 ................
00409540 00 00 00 00 00 00 00 00 00 00 00 00 00 00 00 00 ................
00409550 00 00 00 00 00 00 00 00 00 00 00 00 00 00 00 00 ................
00409560 00 00 00 00 00 00 00 00 00 00 00 00 00 00 00 00 ................
00409570 00 00 00 00 00 00 00 00 00 00 00 00 00 00 00 00 ................
00409580 00 00 00 00 00 00 00 00 00 00 00 00 00 00 00 00 ................
00409590 00 00 00 00 00 00 00 00 00 00 00 00 00 00 00 00 ................
004095A0 00 00 00 00 00 00 00 00 00 00 00 00 00 00 00 00 ................
004095B0 00 00 00 00 00 00 00 00 00 00 00 00 00 00 00 00 ................
004095C0 00 00 00 00 00 00 00 00 00 00 00 00 00 00 00 00 ................
004095D0 00 00 00 00 00 00 00 00 00 00 00 00 00 00 00 00 ................
004095E0 00 00 00 00 00 00 00 00 00 00 00 00 00 00 00 00 ................
004095F0 00 00 00 00 00 00 00 00 00 00 00 00 00 00 00 00 ................
00409600 00 00 00 00 00 00 00 00 00 00 00 00 00 00 00 00 ................
00409610 00 00 00 00 00 00 00 00 00 00 00 00 00 00 00 00 ................
00409620 00 00 00 00 00 00 00 00 00 00 00 00 00 00 00 00 ................
00409630 00 00 00 00 00 00 00 00 00 00 00 00 00 00 00 00 ................
00409640 00 00 00 00 00 00 00 00 00 00 00 00 00 00 00 00 ................
00409650 00 00 00 00 00 00 00 00 00 00 00 00 00 00 00 00 ................
00409660 00 00 00 00 00 00 00 00 00 00 00 00 00 00 00 00 ................
00409670 00 00 00 00 00 00 00 00 00 00 00 00 00 00 00 00 ................
00409680 00 00 00 00 00 00 00 00 00 00 00 00 00 00 00 00 ................
00409690 00 00 00 00 00 00 00 00 00 00 00 00 00 00 00 00 ................
004096A0 00 00 00 00 00 00 00 00 00 00 00 00 00 00 00 00 ................
004096B0 00 00 00 00 00 00 00 00 00 00 00 00 00 00 00 00 ................
004096C0 00 00 00 00 00 00 00 00 00 00 00 00 00 00 00 00 ................
004096D0 00 00 00 00 00 00 00 00 00 00 00 00 00 00 00 00 ................
004096E0 00 00 00 00 00 00 00 00 00 00 00 00 00 00 00 00 ................
004096F0 00 00 00 00 00 00 00 00 00 00 00 00 00 00 00 00 ................
00409700 00 00 00 00 00 00 00 00 00 00 00 00 00 00 00 00 ................
00409710 00 00 00 00 00 00 00 00 00 00 00 00 00 00 00 00 ................
00409720 00 00 00 00 00 00 00 00 00 00 00 00 00 00 00 00 ................
00409730 00 00 00 00 00 00 00 00 00 00 00 00 00 00 00 00 ................
00409740 00 00 00 00 00 00 00 00 00 00 00 00 00 00 00 00 ................
00409750 00 00 00 00 00 00 00 00 00 00 00 00 00 00 00 00 ................
00409760 00 00 00 00 00 00 00 00 00 00 00 00 00 00 00 00 ................
00409770 00 00 00 00 00 00 00 00 00 00 00 00 00 00 00 00 ................
00409780 00 00 00 00 00 00 00 00 00 00 00 00 00 00 00 00 ................
00409790 00 00 00 00 00 00 00 00 00 00 00 00 00 00 00 00 ................
004097A0 00 00 00 00 00 00 00 00 00 00 00 00 00 00 00 00 ................
004097B0 00 00 00 00 00 00 00 00 00 00 00 00 00 00 00 00 ................
004097C0 00 00 00 00 00 00 00 00 00 00 00 00 00 00 00 00 ................
004097D0 00 00 00 00 00 00 00 00 00 00 00 00 00 00 00 00 ................
004097E0 00 00 00 00 00 00 00 00 00 00 00 00 00 00 00 00 ................
004097F0 00 00 00 00 00 00 00 00 00 00 00 00 00 00 00 00 ................
00409800 00 00 00 00 00 00 00 00 00 00 00 00 00 00 00 00 ................
00409810 00 00 00 00 00 00 00 00 00 00 00 00 00 00 00 00 ................
00409820 00 00 00 00 00 00 00 00 00 00 00 00 00 00 00 00 ................
00409830 00 00 00 00 00 00 00 00 00 00 00 00 00 00 00 00 ................
00409840 00 00 00 00 00 00 00 00 00 00 00 00 00 00 00 00 ................
00409850 00 00 00 00 00 00 00 00 00 00 00 00 00 00 00 00 ................
00409860 00 00 00 00 00 00 00 00 00 00 00 00 00 00 00 00 ................
00409870 00 00 00 00 00 00 00 00 00 00 00 00 00 00 00 00 ................
00409880 00 00 00 00 00 00 00 00 00 00 00 00 00 00 00 00 ................
00409890 00 00 00 00 00 00 00 00 00 00 00 00 00 00 00 00 ................
004098A0 00 00 00 00 00 00 00 00 00 00 00 00 00 00 00 00 ................
004098B0 00 00 00 00 00 00 00 00 00 00 00 00 00 00 00 00 ................
004098C0 00 00 00 00 00 00 00 00 00 00 00 00 00 00 00 00 ................
004098D0 00 00 00 00 00 00 00 00 00 00 00 00 00 00 00 00 ................
004098E0 00 00 00 00 00 00 00 00 00 00 00 00 00 00 00 00 ................
004098F0 00 00 00 00 00 00 00 00 00 00 00 00 00 00 00 00 ................
00409900 00 00 00 00 00 00 00 00 00 00 00 00 00 00 00 00 ................
00409910 00 00 00 00 00 00 00 00 00 00 00 00 00 00 00 00 ................
00409920 00 00 00 00 00 00 00 00 00 00 00 00 00 00 00 00 ................
00409930 00 00 00 00 00 00 00 00 00 00 00 00 00 00 00 00 ................
00409940 00 00 00 00 00 00 00 00 00 00 00 00 00 00 00 00 ................
00409950 00 00 00 00 00 00 00 00 00 00 00 00 00 00 00 00 ................
00409960 00 00 00 00 00 00 00 00 00 00 00 00 00 00 00 00 ................
00409970 00 00 00 00 00 00 00 00 00 00 00 00 00 00 00 00 ................
00409980 00 00 00 00 00 00 00 00 00 00 00 00 00 00 00 00 ................
00409990 00 00 00 00 00 00 00 00 00 00 00 00 00 00 00 00 ................
004099A0 00 00 00 00 00 00 00 00 00 00 00 00 00 00 00 00 ................
004099B0 00 00 00 00 00 00 00 00 00 00 00 00 00 00 00 00 ................
004099C0 00 00 00 00 00 00 00 00 00 00 00 00 00 00 00 00 ................
004099D0 00 00 00 00 00 00 00 00 00 00 00 00 00 00 00 00 ................
004099E0 00 00 00 00 00 00 00 00 00 00 00 00 00 00 00 00 ................
004099F0 00 00 00 00 00 00 00 00 00 00 00 00 00 00 00 00 ................
00409A00 00 00 00 00 00 00 00 00 00 00 00 00 00 00 00 00 ................
00409A10 00 00 00 00 00 00 00 00 00 00 00 00 00 00 00 00 ................
00409A20 00 00 00 00 00 00 00 00 00 00 00 00 00 00 00 00 ................
00409A30 00 00 00 00 00 00 00 00 00 00 00 00 00 00 00 00 ................
00409A40 00 00 00 00 00 00 00 00 00 00 00 00 00 00 00 00 ................
00409A50 00 00 00 00 00 00 00 00 00 00 00 00 00 00 00 00 ................
00409A60 00 00 00 00 00 00 00 00 00 00 00 00 00 00 00 00 ................
00409A70 00 00 00 00 00 00 00 00 00 00 00 00 00 00 00 00 ................
00409A80 00 00 00 00 00 00 00 00 00 00 00 00 00 00 00 00 ................
00409A90 00 00 00 00 00 00 00 00 00 00 00 00 00 00 00 00 ................
00409AA0 00 00 00 00 00 00 00 00 00 00 00 00 00 00 00 00 ................
00409AB0 00 00 00 00 00 00 00 00 00 00 00 00 00 00 00 00 ................
00409AC0 00 00 00 00 00 00 00 00 00 00 00 00 00 00 00 00 ................
00409AD0 00 00 00 00 00 00 00 00 00 00 00 00 00 00 00 00 ................
00409AE0 00 00 00 00 00 00 00 00 00 00 00 00 00 00 00 00 ................
00409AF0 00 00 00 00 00 00 00 00 00 00 00 00 00 00 00 00 ................
00409B00 00 00 00 00 00 00 00 00 00 00 00 00 00 00 00 00 ................
00409B10 00 00 00 00 00 00 00 00 00 00 00 00 00 00 00 00 ................
00409B20 00 00 00 00 00 00 00 00 00 00 00 00 00 00 00 00 ................
00409B30 00 00 00 00 00 00 00 00 00 00 00 00 00 00 00 00 ................
00409B40 00 00 00 00 00 00 00 00 00 00 00 00 00 00 00 00 ................
00409B50 00 00 00 00 00 00 00 00 00 00 00 00 00 00 00 00 ................
00409B60 00 00 00 00 00 00 00 00 00 00 00 00 00 00 00 00 ................
00409B70 00 00 00 00 00 00 00 00 00 00 00 00 00 00 00 00 ................
00409B80 00 00 00 00 00 00 00 00 00 00 00 00 00 00 00 00 ................
00409B90 00 00 00 00 00 00 00 00 00 00 00 00 00 00 00 00 ................
00409BA0 00 00 00 00 00 00 00 00 00 00 00 00 00 00 00 00 ................
00409BB0 00 00 00 00 00 00 00 00 00 00 00 00 00 00 00 00 ................
00409BC0 00 00 00 00 00 00 00 00 00 00 00 00 00 00 00 00 ................
00409BD0 00 00 00 00 00 00 00 00 00 00 00 00 00 00 00 00 ................
00409BE0 00 00 00 00 00 00 00 00 00 00 00 00 00 00 00 00 ................
00409BF0 00 00 00 00 00 00 00 00 00 00 00 00 00 00 00 00 ................
00409C00 00 00 00 00 00 00 00 00 00 00 00 00 00 00 00 00 ................
00409C10 00 00 00 00 00 00 00 00 00 00 00 00 00 00 00 00 ................
00409C20 00 00 00 00 00 00 00 00 00 00 00 00 00 00 00 00 ................
00409C30 00 00 00 00 00 00 00 00 00 00 00 00 00 00 00 00 ................
00409C40 00 00 00 00 00 00 00 00 00 00 00 00 00 00 00 00 ................
00409C50 00 00 00 00 00 00 00 00 00 00 00 00 00 00 00 00 ................
00409C60 00 00 00 00 00 00 00 00 00 00 00 00 00 00 00 00 ................
00409C70 00 00 00 00 00 00 00 00 00 00 00 00 00 00 00 00 ................
00409C80 00 00 00 00 00 00 00 00 00 00 00 00 00 00 00 00 ................
00409C90 00 00 00 00 00 00 00 00 00 00 00 00 00 00 00 00 ................
00409CA0 00 00 00 00 00 00 00 00 00 00 00 00 00 00 00 00 ................
00409CB0 00 00 00 00 00 00 00 00 00 00 00 00 00 00 00 00 ................
00409CC0 00 00 00 00 00 00 00 00 00 00 00 00 00 00 00 00 ................
00409CD0 00 00 00 00 00 00 00 00 00 00 00 00 00 00 00 00 ................
00409CE0 00 00 00 00 00 00 00 00 00 00 00 00 00 00 00 00 ................
00409CF0 00 00 00 00 00 00 00 00 00 00 00 00 00 00 00 00 ................
00409D00 00 00 00 00 00 00 00 00 00 00 00 00 00 00 00 00 ................
00409D10 00 00 00 00 00 00 00 00 00 00 00 00 00 00 00 00 ................
00409D20 00 00 00 00 00 00 00 00 00 00 00 00 00 00 00 00 ................
00409D30 00 00 00 00 00 00 00 00 00 00 00 00 00 00 00 00 ................
00409D40 00 00 00 00 00 00 00 00 00 00 00 00 00 00 00 00 ................
00409D50 00 00 00 00 00 00 00 00 00 00 00 00 00 00 00 00 ................
00409D60 00 00 00 00 00 00 00 00 00 00 00 00 00 00 00 00 ................
00409D70 00 00 00 00 00 00 00 00 00 00 00 00 00 00 00 00 ................
00409D80 00 00 00 00 00 00 00 00 00 00 00 00 00 00 00 00 ................
00409D90 00 00 00 00 00 00 00 00 00 00 00 00 00 00 00 00 ................
00409DA0 00 00 00 00 00 00 00 00 00 00 00 00 00 00 00 00 ................
00409DB0 00 00 00 00 00 00 00 00 00 00 00 00 00 00 00 00 ................
00409DC0 00 00 00 00 00 00 00 00 00 00 00 00 00 00 00 00 ................
00409DD0 00 00 00 00 00 00 00 00 00 00 00 00 00 00 00 00 ................
00409DE0 00 00 00 00 00 00 00 00 00 00 00 00 00 00 00 00 ................
00409DF0 00 00 00 00 00 00 00 00 00 00 00 00 00 00 00 00 ................
00409E00 00 00 00 00 00 00 00 00 00 00 00 00 00 00 00 00 ................
00409E10 00 00 00 00 00 00 00 00 00 00 00 00 00 00 00 00 ................
00409E20 00 00 00 00 00 00 00 00 00 00 00 00 00 00 00 00 ................
00409E30 00 00 00 00 00 00 00 00 00 00 00 00 00 00 00 00 ................
00409E40 00 00 00 00 00 00 00 00 00 00 00 00 00 00 00 00 ................
00409E50 00 00 00 00 00 00 00 00 00 00 00 00 00 00 00 00 ................
00409E60 00 00 00 00 00 00 00 00 00 00 00 00 00 00 00 00 ................
00409E70 00 00 00 00 00 00 00 00 00 00 00 00 00 00 00 00 ................
00409E80 00 00 00 00 00 00 00 00 00 00 00 00 00 00 00 00 ................
00409E90 00 00 00 00 00 00 00 00 00 00 00 00 00 00 00 00 ................
00409EA0 00 00 00 00 00 00 00 00 00 00 00 00 00 00 00 00 ................
00409EB0 00 00 00 00 00 00 00 00 00 00 00 00 00 00 00 00 ................
00409EC0 00 00 00 00 00 00 00 00 00 00 00 00 00 00 00 00 ................
00409ED0 00 00 00 00 00 00 00 00 00 00 00 00 00 00 00 00 ................
00409EE0 00 00 00 00 00 00 00 00 00 00 00 00 00 00 00 00 ................
00409EF0 00 00 00 00 00 00 00 00 00 00 00 00 00 00 00 00 ................
00409F00 00 00 00 00 00 00 00 00 00 00 00 00 00 00 00 00 ................
00409F10 00 00 00 00 00 00 00 00 00 00 00 00 00 00 00 00 ................
00409F20 00 00 00 00 00 00 00 00 00 00 00 00 00 00 00 00 ................
00409F30 00 00 00 00 00 00 00 00 00 00 00 00 00 00 00 00 ................
00409F40 00 00 00 00 00 00 00 00 00 00 00 00 00 00 00 00 ................
00409F50 00 00 00 00 00 00 00 00 00 00 00 00 00 00 00 00 ................
00409F60 00 00 00 00 00 00 00 00 00 00 00 00 00 00 00 00 ................
00409F70 00 00 00 00 00 00 00 00 00 00 00 00 00 00 00 00 ................
00409F80 00 00 00 00 00 00 00 00 00 00 00 00 00 00 00 00 ................
00409F90 00 00 00 00 00 00 00 00 00 00 00 00 00 00 00 00 ................
00409FA0 00 00 00 00 00 00 00 00 00 00 00 00 00 00 00 00 ................
00409FB0 00 00 00 00 00 00 00 00 00 00 00 00 00 00 00 00 ................
00409FC0 00 00 00 00 00 00 00 00 00 00 00 00 00 00 00 00 ................
00409FD0 00 00 00 00 00 00 00 00 00 00 00 00 00 00 00 00 ................
00409FE0 00 00 00 00 00 00 00 00 00 00 00 00 00 00 00 00 ................
00409FF0 00 00 00 00 00 00 00 00 00 00 00 00 00 00 00 00 ................
0040A000 00 00 00 00 00 00 00 00 00 00 00 00 00 00 00 00 ................
0040A010 00 00 00 00 00 00 00 00 00 00 00 00 00 00 00 00 ................
0040A020 00 00 00 00 00 00 00 00 00 00 00 00 00 00 00 00 ................
0040A030 00 00 00 00 00 00 00 00 00 00 00 00 00 00 00 00 ................
0040A040 00 00 00 00 00 00 00 00 00 00 00 00 00 00 00 00 ................
0040A050 00 00 00 00 00 00 00 00 00 00 00 00 00 00 00 00 ................
0040A060 00 00 00 00 00 00 00 00 00 00 00 00 00 00 00 00 ................
0040A070 00 00 00 00 00 00 00 00 00 00 00 00 00 00 00 00 ................
0040A080 00 00 00 00 00 00 00 00 00 00 00 00 00 00 00 00 ................
0040A090 00 00 00 00 00 00 00 00 00 00 00 00 00 00 00 00 ................
0040A0A0 00 00 00 00 00 00 00 00 00 00 00 00 00 00 00 00 ................
0040A0B0 00 00 00 00 00 00 00 00 00 00 00 00 00 00 00 00 ................
0040A0C0 00 00 00 00 00 00 00 00 00 00 00 00 00 00 00 00 ................
0040A0D0 00 00 00 00 00 00 00 00 00 00 00 00 00 00 00 00 ................
0040A0E0 00 00 00 00 00 00 00 00 00 00 00 00 00 00 00 00 ................
0040A0F0 00 00 00 00 00 00 00 00 00 00 00 00 00 00 00 00 ................
0040A100 00 00 00 00 00 00 00 00 00 00 00 00 00 00 00 00 ................
0040A110 00 00 00 00 00 00 00 00 00 00 00 00 00 00 00 00 ................
0040A120 00 00 00 00 00 00 00 00 00 00 00 00 00 00 00 00 ................
0040A130 00 00 00 00 00 00 00 00 00 00 00 00 00 00 00 00 ................
0040A140 00 00 00 00 00 00 00 00 00 00 00 00 00 00 00 00 ................
0040A150 00 00 00 00 00 00 00 00 00 00 00 00 00 00 00 00 ................
0040A160 00 00 00 00 00 00 00 00 00 00 00 00 00 00 00 00 ................
0040A170 00 00 00 00 00 00 00 00 00 00 00 00 00 00 00 00 ................
0040A180 00 00 00 00 00 00 00 00 00 00 00 00 00 00 00 00 ................
0040A190 00 00 00 00 00 00 00 00 00 00 00 00 00 00 00 00 ................
0040A1A0 00 00 00 00 00 00 00 00 00 00 00 00 00 00 00 00 ................
0040A1B0 00 00 00 00 00 00 00 00 00 00 00 00 00 00 00 00 ................
0040A1C0 00 00 00 00 00 00 00 00 00 00 00 00 00 00 00 00 ................
0040A1D0 00 00 00 00 00 00 00 00 00 00 00 00 00 00 00 00 ................
0040A1E0 00 00 00 00 00 00 00 00 00 00 00 00 00 00 00 00 ................
0040A1F0 00 00 00 00 00 00 00 00 00 00 00 00 00 00 00 00 ................
0040A200 00 00 00 00 00 00 00 00 00 00 00 00 00 00 00 00 ................
0040A210 00 00 00 00 00 00 00 00 00 00 00 00 00 00 00 00 ................
0040A220 00 00 00 00 00 00 00 00 00 00 00 00 00 00 00 00 ................
0040A230 00 00 00 00 00 00 00 00 00 00 00 00 00 00 00 00 ................
0040A240 00 00 00 00 00 00 00 00 00 00 00 00 00 00 00 00 ................
0040A250 00 00 00 00 00 00 00 00 00 00 00 00 00 00 00 00 ................
0040A260 00 00 00 00 00 00 00 00 00 00 00 00 00 00 00 00 ................
0040A270 00 00 00 00 00 00 00 00 00 00 00 00 00 00 00 00 ................
0040A280 00 00 00 00 00 00 00 00 00 00 00 00 00 00 00 00 ................
0040A290 00 00 00 00 00 00 00 00 00 00 00 00 00 00 00 00 ................
0040A2A0 00 00 00 00 00 00 00 00 00 00 00 00 00 00 00 00 ................
0040A2B0 00 00 00 00 00 00 00 00 00 00 00 00 00 00 00 00 ................
0040A2C0 00 00 00 00 00 00 00 00 00 00 00 00 00 00 00 00 ................
0040A2D0 00 00 00 00 00 00 00 00 00 00 00 00 00 00 00 00 ................
0040A2E0 00 00 00 00 00 00 00 00 00 00 00 00 00 00 00 00 ................
0040A2F0 00 00 00 00 00 00 00 00 00 00 00 00 00 00 00 00 ................
0040A300 00 00 00 00 00 00 00 00 00 00 00 00 00 00 00 00 ................
0040A310 00 00 00 00 00 00 00 00 00 00 00 00 00 00 00 00 ................
0040A320 00 00 00 00 00 00 00 00 00 00 00 00 00 00 00 00 ................
0040A330 00 00 00 00 00 00 00 00 00 00 00 00 00 00 00 00 ................
0040A340 00 00 00 00 00 00 00 00 00 00 00 00 00 00 00 00 ................
0040A350 00 00 00 00 00 00 00 00 00 00 00 00 00 00 00 00 ................
0040A360 00 00 00 00 00 00 00 00 00 00 00 00 00 00 00 00 ................
0040A370 00 00 00 00 00 00 00 00 00 00 00 00 00 00 00 00 ................
0040A380 00 00 00 00 00 00 00 00 00 00 00 00 00 00 00 00 ................
0040A390 00 00 00 00 00 00 00 00 00 00 00 00 00 00 00 00 ................
0040A3A0 00 00 00 00 00 00 00 00 00 00 00 00 00 00 00 00 ................
0040A3B0 00 00 00 00 00 00 00 00 00 00 00 00 00 00 00 00 ................
0040A3C0 00 00 00 00 00 00 00 00 00 00 00 00 00 00 00 00 ................
0040A3D0 00 00 00 00 00 00 00 00 00 00 00 00 00 00 00 00 ................
0040A3E0 00 00 00 00 00 00 00 00 00 00 00 00 00 00 00 00 ................
0040A3F0 00 00 00 00 00 00 00 00 00 00 00 00 00 00 00 00 ................
0040A400 00 00 00 00 00 00 00 00 00 00 00 00 00 00 00 00 ................
0040A410 00 00 00 00 00 00 00 00 00 00 00 00 00 00 00 00 ................
0040A420 00 00 00 00 00 00 00 00 00 00 00 00 00 00 00 00 ................
0040A430 00 00 00 00 00 00 00 00 00 00 00 00 00 00 00 00 ................
0040A440 00 00 00 00 00 00 00 00 00 00 00 00 00 00 00 00 ................
0040A450 00 00 00 00 00 00 00 00 00 00 00 00 00 00 00 00 ................
0040A460 00 00 00 00 00 00 00 00 00 00 00 00 00 00 00 00 ................
0040A470 00 00 00 00 00 00 00 00 00 00 00 00 00 00 00 00 ................
0040A480 00 00 00 00 00 00 00 00 00 00 00 00 00 00 00 00 ................
0040A490 00 00 00 00 00 00 00 00 00 00 00 00 00 00 00 00 ................
0040A4A0 00 00 00 00 00 00 00 00 00 00 00 00 00 00 00 00 ................
0040A4B0 00 00 00 00 00 00 00 00 00 00 00 00 00 00 00 00 ................
0040A4C0 00 00 00 00 00 00 00 00 00 00 00 00 00 00 00 00 ................
0040A4D0 00 00 00 00 00 00 00 00 00 00 00 00 00 00 00 00 ................
0040A4E0 00 00 00 00 00 00 00 00 00 00 00 00 00 00 00 00 ................
0040A4F0 00 00 00 00 00 00 00 00 00 00 00 00 00 00 00 00 ................
0040A500 00 00 00 00 00 00 00 00 00 00 00 00 00 00 00 00 ................
0040A510 00 00 00 00 00 00 00 00 00 00 00 00 00 00 00 00 ................
0040A520 00 00 00 00 00 00 00 00 00 00 00 00 00 00 00 00 ................
0040A530 00 00 00 00 00 00 00 00 00 00 00 00 00 00 00 00 ................
0040A540 00 00 00 00 00 00 00 00 00 00 00 00 00 00 00 00 ................
0040A550 00 00 00 00 00 00 00 00 00 00 00 00 00 00 00 00 ................
0040A560 00 00 00 00 00 00 00 00 00 00 00 00 00 00 00 00 ................
0040A570 00 00 00 00 00 00 00 00 00 00 00 00 00 00 00 00 ................
0040A580 00 00 00 00 00 00 00 00 00 00 00 00 00 00 00 00 ................
0040A590 00 00 00 00 00 00 00 00 00 00 00 00 00 00 00 00 ................
0040A5A0 00 00 00 00 00 00 00 00 00 00 00 00 00 00 00 00 ................
0040A5B0 00 00 00 00 00 00 00 00 00 00 00 00 00 00 00 00 ................
0040A5C0 00 00 00 00 00 00 00 00 00 00 00 00 00 00 00 00 ................
0040A5D0 00 00 00 00 00 00 00 00 00 00 00 00 00 00 00 00 ................
0040A5E0 00 00 00 00 00 00 00 00 00 00 00 00 00 00 00 00 ................
0040A5F0 00 00 00 00 00 00 00 00 00 00 00 00 00 00 00 00 ................
0040A600 00 00 00 00 00 00 00 00 00 00 00 00 00 00 00 00 ................
0040A610 00 00 00 00 00 00 00 00 00 00 00 00 00 00 00 00 ................
0040A620 00 00 00 00 00 00 00 00 00 00 00 00 00 00 00 00 ................
0040A630 00 00 00 00 00 00 00 00 00 00 00 00 00 00 00 00 ................
0040A640 00 00 00 00 00 00 00 00 00 00 00 00 00 00 00 00 ................
0040A650 00 00 00 00 00 00 00 00 00 00 00 00 00 00 00 00 ................
0040A660 00 00 00 00 00 00 00 00 00 00 00 00 00 00 00 00 ................
0040A670 00 00 00 00 00 00 00 00 00 00 00 00 00 00 00 00 ................
0040A680 00 00 00 00 00 00 00 00 00 00 00 00 00 00 00 00 ................
0040A690 00 00 00 00 00 00 00 00 00 00 00 00 00 00 00 00 ................
0040A6A0 00 00 00 00 00 00 00 00 00 00 00 00 00 00 00 00 ................
0040A6B0 00 00 00 00 00 00 00 00 00 00 00 00 00 00 00 00 ................
0040A6C0 00 00 00 00 00 00 00 00 00 00 00 00 00 00 00 00 ................
0040A6D0 00 00 00 00 00 00 00 00 00 00 00 00 00 00 00 00 ................
0040A6E0 00 00 00 00 00 00 00 00 00 00 00 00 00 00 00 00 ................
0040A6F0 00 00 00 00 00 00 00 00 00 00 00 00 00 00 00 00 ................
0040A700 00 00 00 00 00 00 00 00 00 00 00 00 00 00 00 00 ................
0040A710 00 00 00 00 00 00 00 00 00 00 00 00 00 00 00 00 ................
0040A720 00 00 00 00 00 00 00 00 00 00 00 00 00 00 00 00 ................
0040A730 00 00 00 00 00 00 00 00 00 00 00 00 00 00 00 00 ................
0040A740 00 00 00 00 00 00 00 00 00 00 00 00 00 00 00 00 ................
0040A750 00 00 00 00 00 00 00 00 00 00 00 00 00 00 00 00 ................
0040A760 00 00 00 00 00 00 00 00 00 00 00 00 00 00 00 00 ................
0040A770 00 00 00 00 00 00 00 00 00 00 00 00 00 00 00 00 ................
0040A780 00 00 00 00 00 00 00 00 00 00 00 00 00 00 00 00 ................
0040A790 00 00 00 00 00 00 00 00 00 00 00 00 00 00 00 00 ................
0040A7A0 00 00 00 00 00 00 00 00 00 00 00 00 00 00 00 00 ................
0040A7B0 00 00 00 00 00 00 00 00 00 00 00 00 00 00 00 00 ................
0040A7C0 00 00 00 00 00 00 00 00 00 00 00 00 00 00 00 00 ................
0040A7D0 00 00 00 00 00 00 00 00 00 00 00 00 00 00 00 00 ................
0040A7E0 00 00 00 00 00 00 00 00 00 00 00 00 00 00 00 00 ................
0040A7F0 00 00 00 00 00 00 00 00 00 00 00 00 00 00 00 00 ................
0040A800 00 00 00 00 00 00 00 00 00 00 00 00 00 00 00 00 ................
0040A810 00 00 00 00 00 00 00 00 00 00 00 00 00 00 00 00 ................
0040A820 00 00 00 00 00 00 00 00 00 00 00 00 00 00 00 00 ................
0040A830 00 00 00 00 00 00 00 00 00 00 00 00 00 00 00 00 ................
0040A840 00 00 00 00 00 00 00 00 00 00 00 00 00 00 00 00 ................
0040A850 00 00 00 00 00 00 00 00 00 00 00 00 00 00 00 00 ................
0040A860 00 00 00 00 00 00 00 00 00 00 00 00 00 00 00 00 ................
0040A870 00 00 00 00 00 00 00 00 00 00 00 00 00 00 00 00 ................
0040A880 00 00 00 00 00 00 00 00 00 00 00 00 00 00 00 00 ................
0040A890 00 00 00 00 00 00 00 00 00 00 00 00 00 00 00 00 ................
0040A8A0 00 00 00 00 00 00 00 00 00 00 00 00 00 00 00 00 ................
0040A8B0 00 00 00 00 00 00 00 00 00 00 00 00 00 00 00 00 ................
0040A8C0 00 00 00 00 00 00 00 00 00 00 00 00 00 00 00 00 ................
0040A8D0 00 00 00 00 00 00 00 00 00 00 00 00 00 00 00 00 ................
0040A8E0 00 00 00 00 00 00 00 00 00 00 00 00 00 00 00 00 ................
0040A8F0 00 00 00 00 00 00 00 00 00 00 00 00 00 00 00 00 ................
0040A900 00 00 00 00 00 00 00 00 00 00 00 00 00 00 00 00 ................
0040A910 00 00 00 00 00 00 00 00 00 00 00 00 00 00 00 00 ................
0040A920 00 00 00 00 00 00 00 00 00 00 00 00 00 00 00 00 ................
0040A930 00 00 00 00 00 00 00 00 00 00 00 00 00 00 00 00 ................
0040A940 00 00 00 00 00 00 00 00 00 00 00 00 00 00 00 00 ................
0040A950 00 00 00 00 00 00 00 00 00 00 00 00 00 00 00 00 ................
0040A960 00 00 00 00 00 00 00 00 00 00 00 00 00 00 00 00 ................
0040A970 00 00 00 00 00 00 00 00 00 00 00 00 00 00 00 00 ................
0040A980 00 00 00 00 00 00 00 00 00 00 00 00 00 00 00 00 ................
0040A990 00 00 00 00 00 00 00 00 00 00 00 00 00 00 00 00 ................
0040A9A0 00 00 00 00 00 00 00 00 00 00 00 00 00 00 00 00 ................
0040A9B0 00 00 00 00 00 00 00 00 00 00 00 00 00 00 00 00 ................
0040A9C0 00 00 00 00 00 00 00 00 00 00 00 00 00 00 00 00 ................
0040A9D0 00 00 00 00 00 00 00 00 00 00 00 00 00 00 00 00 ................
0040A9E0 00 00 00 00 00 00 00 00 00 00 00 00 00 00 00 00 ................
0040A9F0 00 00 00 00 00 00 00 00 00 00 00 00 00 00 00 00 ................
0040AA00 00 00 00 00 00 00 00 00 00 00 00 00 00 00 00 00 ................
0040AA10 00 00 00 00 00 00 00 00 00 00 00 00 00 00 00 00 ................
0040AA20 00 00 00 00 00 00 00 00 00 00 00 00 00 00 00 00 ................
0040AA30 00 00 00 00 00 00 00 00 00 00 00 00 00 00 00 00 ................
0040AA40 00 00 00 00 00 00 00 00 00 00 00 00 00 00 00 00 ................
0040AA50 00 00 00 00 00 00 00 00 00 00 00 00 00 00 00 00 ................
0040AA60 00 00 00 00 00 00 00 00 00 00 00 00 00 00 00 00 ................
0040AA70 00 00 00 00 00 00 00 00 00 00 00 00 00 00 00 00 ................
0040AA80 00 00 00 00 00 00 00 00 00 00 00 00 00 00 00 00 ................
0040AA90 00 00 00 00 00 00 00 00 00 00 00 00 00 00 00 00 ................
0040AAA0 00 00 00 00 00 00 00 00 00 00 00 00 00 00 00 00 ................
0040AAB0 00 00 00 00 00 00 00 00 00 00 00 00 00 00 00 00 ................
0040AAC0 00 00 00 00 00 00 00 00 00 00 00 00 00 00 00 00 ................
0040AAD0 00 00 00 00 00 00 00 00 00 00 00 00 00 00 00 00 ................
0040AAE0 00 00 00 00 00 00 00 00 00 00 00 00 00 00 00 00 ................
0040AAF0 00 00 00 00 00 00 00 00 00 00 00 00 00 00 00 00 ................
0040AB00 00 00 00 00 00 00 00 00 00 00 00 00 00 00 00 00 ................
0040AB10 00 00 00 00 00 00 00 00 00 00 00 00 00 00 00 00 ................
0040AB20 00 00 00 00 00 00 00 00 00 00 00 00 00 00 00 00 ................
0040AB30 00 00 00 00 00 00 00 00 00 00 00 00 00 00 00 00 ................
0040AB40 00 00 00 00 00 00 00 00 00 00 00 00 00 00 00 00 ................
0040AB50 00 00 00 00 00 00 00 00 00 00 00 00 00 00 00 00 ................
0040AB60 00 00 00 00 00 00 00 00 00 00 00 00 00 00 00 00 ................
0040AB70 00 00 00 00 00 00 00 00 00 00 00 00 00 00 00 00 ................
0040AB80 00 00 00 00 00 00 00 00 00 00 00 00 00 00 00 00 ................
0040AB90 00 00 00 00 00 00 00 00 00 00 00 00 00 00 00 00 ................
0040ABA0 00 00 00 00 00 00 00 00 00 00 00 00 00 00 00 00 ................
0040ABB0 00 00 00 00 00 00 00 00 00 00 00 00 00 00 00 00 ................
0040ABC0 00 00 00 00 00 00 00 00 00 00 00 00 00 00 00 00 ................
0040ABD0 00 00 00 00 00 00 00 00 00 00 00 00 00 00 00 00 ................
0040ABE0 00 00 00 00 00 00 00 00 00 00 00 00 00 00 00 00 ................
0040ABF0 00 00 00 00 00 00 00 00 00 00 00 00 00 00 00 00 ................
0040AC00 00 00 00 00 00 00 00 00 00 00 00 00 00 00 00 00 ................
0040AC10 00 00 00 00 00 00 00 00 00 00 00 00 00 00 00 00 ................
0040AC20 00 00 00 00 00 00 00 00 00 00 00 00 00 00 00 00 ................
0040AC30 00 00 00 00 00 00 00 00 00 00 00 00 00 00 00 00 ................
0040AC40 00 00 00 00 00 00 00 00 00 00 00 00 00 00 00 00 ................
0040AC50 00 00 00 00 00 00 00 00 00 00 00 00 00 00 00 00 ................
0040AC60 00 00 00 00 00 00 00 00 00 00 00 00 00 00 00 00 ................
0040AC70 00 00 00 00 00 00 00 00 00 00 00 00 00 00 00 00 ................
0040AC80 00 00 00 00 00 00 00 00 00 00 00 00 00 00 00 00 ................
0040AC90 00 00 00 00 00 00 00 00 00 00 00 00 00 00 00 00 ................
0040ACA0 00 00 00 00 00 00 00 00 00 00 00 00 00 00 00 00 ................
0040ACB0 00 00 00 00 00 00 00 00 00 00 00 00 00 00 00 00 ................
0040ACC0 00 00 00 00 00 00 00 00 00 00 00 00 00 00 00 00 ................
0040ACD0 00 00 00 00 00 00 00 00 00 00 00 00 00 00 00 00 ................
0040ACE0 00 00 00 00 00 00 00 00 00 00 00 00 00 00 00 00 ................
0040ACF0 00 00 00 00 00 00 00 00 00 00 00 00 00 00 00 00 ................
0040AD00 00 00 00 00 00 00 00 00 00 00 00 00 00 00 00 00 ................
0040AD10 00 00 00 00 00 00 00 00 00 00 00 00 00 00 00 00 ................
0040AD20 00 00 00 00 00 00 00 00 00 00 00 00 00 00 00 00 ................
0040AD30 00 00 00 00 00 00 00 00 00 00 00 00 00 00 00 00 ................
0040AD40 00 00 00 00 00 00 00 00 00 00 00 00 00 00 00 00 ................
0040AD50 00 00 00 00 00 00 00 00 00 00 00 00 00 00 00 00 ................
0040AD60 00 00 00 00 00 00 00 00 00 00 00 00 00 00 00 00 ................
0040AD70 00 00 00 00 00 00 00 00 00 00 00 00 00 00 00 00 ................
0040AD80 00 00 00 00 00 00 00 00 00 00 00 00 00 00 00 00 ................
0040AD90 00 00 00 00 00 00 00 00 00 00 00 00 00 00 00 00 ................
0040ADA0 00 00 00 00 00 00 00 00 00 00 00 00 00 00 00 00 ................
0040ADB0 00 00 00 00 00 00 00 00 00 00 00 00 00 00 00 00 ................
0040ADC0 00 00 00 00 00 00 00 00 00 00 00 00 00 00 00 00 ................
0040ADD0 00 00 00 00 00 00 00 00 00 00 00 00 00 00 00 00 ................
0040ADE0 00 00 00 00 00 00 00 00 00 00 00 00 00 00 00 00 ................
0040ADF0 00 00 00 00 00 00 00 00 00 00 00 00 00 00 00 00 ................
0040AE00 00 00 00 00 00 00 00 00 00 00 00 00 00 00 00 00 ................
0040AE10 00 00 00 00 00 00 00 00 00 00 00 00 00 00 00 00 ................
0040AE20 00 00 00 00 00 00 00 00 00 00 00 00 00 00 00 00 ................
0040AE30 00 00 00 00 00 00 00 00 00 00 00 00 00 00 00 00 ................
0040AE40 00 00 00 00 00 00 00 00 00 00 00 00 00 00 00 00 ................
0040AE50 00 00 00 00 00 00 00 00 00 00 00 00 00 00 00 00 ................
0040AE60 00 00 00 00 00 00 00 00 00 00 00 00 00 00 00 00 ................
0040AE70 00 00 00 00 00 00 00 00 00 00 00 00 00 00 00 00 ................
0040AE80 00 00 00 00 00 00 00 00 00 00 00 00 00 00 00 00 ................
0040AE90 00 00 00 00 00 00 00 00 00 00 00 00 00 00 00 00 ................
0040AEA0 00 00 00 00 00 00 00 00 00 00 00 00 00 00 00 00 ................
0040AEB0 00 00 00 00 00 00 00 00 00 00 00 00 00 00 00 00 ................
0040AEC0 00 00 00 00 00 00 00 00 00 00 00 00 00 00 00 00 ................
0040AED0 00 00 00 00 00 00 00 00 00 00 00 00 00 00 00 00 ................
0040AEE0 00 00 00 00 00 00 00 00 00 00 00 00 00 00 00 00 ................
0040AEF0 00 00 00 00 00 00 00 00 00 00 00 00 00 00 00 00 ................
0040AF00 00 00 00 00 00 00 00 00 00 00 00 00 00 00 00 00 ................
0040AF10 00 00 00 00 00 00 00 00 00 00 00 00 00 00 00 00 ................
0040AF20 00 00 00 00 00 00 00 00 00 00 00 00 00 00 00 00 ................
0040AF30 00 00 00 00 00 00 00 00 00 00 00 00 00 00 00 00 ................
0040AF40 00 00 00 00 00 00 00 00 00 00 00 00 00 00 00 00 ................
0040AF50 00 00 00 00 00 00 00 00 00 00 00 00 00 00 00 00 ................
0040AF60 00 00 00 00 00 00 00 00 00 00 00 00 00 00 00 00 ................
0040AF70 00 00 00 00 00 00 00 00 00 00 00 00 00 00 00 00 ................
0040AF80 00 00 00 00 00 00 00 00 00 00 00 00 00 00 00 00 ................
0040AF90 00 00 00 00 00 00 00 00 00 00 00 00 00 00 00 00 ................
0040AFA0 00 00 00 00 00 00 00 00 00 00 00 00 00 00 00 00 ................
0040AFB0 00 00 00 00 00 00 00 00 00 00 00 00 00 00 00 00 ................
0040AFC0 00 00 00 00 00 00 00 00 00 00 00 00 00 00 00 00 ................
0040AFD0 00 00 00 00 00 00 00 00 00 00 00 00 00 00 00 00 ................
0040AFE0 00 00 00 00 00 00 00 00 00 00 00 00 00 00 00 00 ................
0040AFF0 00 00 00 00 00 00 00 00 00 00 00 00 00 00 00 00 ................
0040B000 00 00 00 00 00 00 00 00 00 00 00 00 00 00 00 00 ................
0040B010 00 00 00 00 00 00 00 00 00 00 00 00 00 00 00 00 ................
0040B020 00 00 00 00 00 00 00 00 00 00 00 00 00 00 00 00 ................
0040B030 00 00 00 00 00 00 00 00 00 00 00 00 00 00 00 00 ................
0040B040 00 00 00 00 00 00 00 00 00 00 00 00 00 00 00 00 ................
0040B050 00 00 00 00 00 00 00 00 00 00 00 00 00 00 00 00 ................
0040B060 00 00 00 00 00 00 00 00 00 00 00 00 00 00 00 00 ................
0040B070 00 00 00 00 00 00 00 00 00 00 00 00 00 00 00 00 ................
0040B080 00 00 00 00 00 00 00 00 00 00 00 00 00 00 00 00 ................
0040B090 00 00 00 00 00 00 00 00 00 00 00 00 00 00 00 00 ................
0040B0A0 00 00 00 00 00 00 00 00 00 00 00 00 00 00 00 00 ................
0040B0B0 00 00 00 00 00 00 00 00 00 00 00 00 00 00 00 00 ................
0040B0C0 00 00 00 00 00 00 00 00 00 00 00 00 00 00 00 00 ................
0040B0D0 00 00 00 00 00 00 00 00 00 00 00 00 00 00 00 00 ................
0040B0E0 00 00 00 00 00 00 00 00 00 00 00 00 00 00 00 00 ................
0040B0F0 00 00 00 00 00 00 00 00 00 00 00 00 00 00 00 00 ................
0040B100 00 00 00 00 00 00 00 00 00 00 00 00 00 00 00 00 ................
0040B110 00 00 00 00 00 00 00 00 00 00 00 00 00 00 00 00 ................
0040B120 00 00 00 00 00 00 00 00 00 00 00 00 00 00 00 00 ................
0040B130 00 00 00 00 00 00 00 00 00 00 00 00 00 00 00 00 ................
0040B140 00 00 00 00 00 00 00 00 00 00 00 00 00 00 00 00 ................
0040B150 00 00 00 00 00 00 00 00 00 00 00 00 00 00 00 00 ................
0040B160 00 00 00 00 00 00 00 00 00 00 00 00 00 00 00 00 ................
0040B170 00 00 00 00 00 00 00 00 00 00 00 00 00 00 00 00 ................
0040B180 00 00 00 00 00 00 00 00 00 00 00 00 00 00 00 00 ................
0040B190 00 00 00 00 00 00 00 00 00 00 00 00 00 00 00 00 ................
0040B1A0 00 00 00 00 00 00 00 00 00 00 00 00 00 00 00 00 ................
0040B1B0 00 00 00 00 00 00 00 00 00 00 00 00 00 00 00 00 ................
0040B1C0 00 00 00 00 00 00 00 00 00 00 00 00 00 00 00 00 ................
0040B1D0 00 00 00 00 00 00 00 00 00 00 00 00 00 00 00 00 ................
0040B1E0 00 00 00 00 00 00 00 00 00 00 00 00 00 00 00 00 ................
0040B1F0 00 00 00 00 00 00 00 00 00 00 00 00 00 00 00 00 ................
0040B200 00 00 00 00 00 00 00 00 00 00 00 00 00 00 00 00 ................
0040B210 00 00 00 00 00 00 00 00 00 00 00 00 00 00 00 00 ................
0040B220 00 00 00 00 00 00 00 00 00 00 00 00 00 00 00 00 ................
0040B230 00 00 00 00 00 00 00 00 00 00 00 00 00 00 00 00 ................
0040B240 00 00 00 00 00 00 00 00 00 00 00 00 00 00 00 00 ................
0040B250 00 00 00 00 00 00 00 00 00 00 00 00 00 00 00 00 ................
0040B260 00 00 00 00 00 00 00 00 00 00 00 00 00 00 00 00 ................
0040B270 00 00 00 00 00 00 00 00 00 00 00 00 00 00 00 00 ................
0040B280 00 00 00 00 00 00 00 00 00 00 00 00 00 00 00 00 ................
0040B290 00 00 00 00 00 00 00 00 00 00 00 00 00 00 00 00 ................
0040B2A0 00 00 00 00 00 00 00 00 00 00 00 00 00 00 00 00 ................
0040B2B0 00 00 00 00 00 00 00 00 00 00 00 00 00 00 00 00 ................
0040B2C0 00 00 00 00 00 00 00 00 00 00 00 00 00 00 00 00 ................
0040B2D0 00 00 00 00 00 00 00 00 00 00 00 00 00 00 00 00 ................
0040B2E0 00 00 00 00 00 00 00 00 00 00 00 00 00 00 00 00 ................
0040B2F0 00 00 00 00 00 00 00 00 00 00 00 00 00 00 00 00 ................
0040B300 00 00 00 00 00 00 00 00 00 00 00 00 00 00 00 00 ................
0040B310 00 00 00 00 00 00 00 00 00 00 00 00 00 00 00 00 ................
0040B320 00 00 00 00 00 00 00 00 00 00 00 00 00 00 00 00 ................
0040B330 00 00 00 00 00 00 00 00 00 00 00 00 00 00 00 00 ................
0040B340 00 00 00 00 00 00 00 00 00 00 00 00 00 00 00 00 ................
0040B350 00 00 00 00 00 00 00 00 00 00 00 00 00 00 00 00 ................
0040B360 00 00 00 00 00 00 00 00 00 00 00 00 00 00 00 00 ................
0040B370 00 00 00 00 00 00 00 00 00 00 00 00 00 00 00 00 ................
0040B380 00 00 00 00 00 00 00 00 00 00 00 00 00 00 00 00 ................
0040B390 00 00 00 00 00 00 00 00 00 00 00 00 00 00 00 00 ................
0040B3A0 00 00 00 00 00 00 00 00 00 00 00 00 00 00 00 00 ................
0040B3B0 00 00 00 00 00 00 00 00 00 00 00 00 00 00 00 00 ................
0040B3C0 00 00 00 00 00 00 00 00 00 00 00 00 00 00 00 00 ................
0040B3D0 00 00 00 00 00 00 00 00 00 00 00 00 00 00 00 00 ................
0040B3E0 00 00 00 00 00 00 00 00 00 00 00 00 00 00 00 00 ................
0040B3F0 00 00 00 00 00 00 00 00 00 00 00 00 00 00 00 00 ................
0040B400 00 00 00 00 00 00 00 00 00 00 00 00 00 00 00 00 ................
0040B410 00 00 00 00 00 00 00 00 00 00 00 00 00 00 00 00 ................
0040B420 00 00 00 00 00 00 00 00 00 00 00 00 00 00 00 00 ................
0040B430 00 00 00 00 00 00 00 00 00 00 00 00 00 00 00 00 ................
0040B440 00 00 00 00 00 00 00 00 00 00 00 00 00 00 00 00 ................
0040B450 00 00 00 00 00 00 00 00 00 00 00 00 00 00 00 00 ................
0040B460 00 00 00 00 00 00 00 00 00 00 00 00 00 00 00 00 ................
0040B470 00 00 00 00 00 00 00 00 00 00 00 00 00 00 00 00 ................
0040B480 00 00 00 00 00 00 00 00 00 00 00 00 00 00 00 00 ................
0040B490 00 00 00 00 00 00 00 00 00 00 00 00 00 00 00 00 ................
0040B4A0 00 00 00 00 00 00 00 00 00 00 00 00 00 00 00 00 ................
0040B4B0 00 00 00 00 00 00 00 00 00 00 00 00 00 00 00 00 ................
0040B4C0 00 00 00 00 00 00 00 00 00 00 00 00 00 00 00 00 ................
0040B4D0 00 00 00 00 00 00 00 00 00 00 00 00 00 00 00 00 ................
0040B4E0 00 00 00 00 00 00 00 00 00 00 00 00 00 00 00 00 ................
0040B4F0 00 00 00 00 00 00 00 00 00 00 00 00 00 00 00 00 ................
0040B500 00 00 00 00 00 00 00 00 00 00 00 00 00 00 00 00 ................
0040B510 00 00 00 00 00 00 00 00 00 00 00 00 00 00 00 00 ................
0040B520 00 00 00 00 00 00 00 00 00 00 00 00 00 00 00 00 ................
0040B530 00 00 00 00 00 00 00 00 00 00 00 00 00 00 00 00 ................
0040B540 00 00 00 00 00 00 00 00 00 00 00 00 00 00 00 00 ................
0040B550 00 00 00 00 00 00 00 00 00 00 00 00 00 00 00 00 ................
0040B560 00 00 00 00 00 00 00 00 00 00 00 00 00 00 00 00 ................
0040B570 00 00 00 00 00 00 00 00 00 00 00 00 00 00 00 00 ................
0040B580 00 00 00 00 00 00 00 00 00 00 00 00 00 00 00 00 ................
0040B590 00 00 00 00 00 00 00 00 00 00 00 00 00 00 00 00 ................
0040B5A0 00 00 00 00 00 00 00 00 00 00 00 00 00 00 00 00 ................
0040B5B0 00 00 00 00 00 00 00 00 00 00 00 00 00 00 00 00 ................
0040B5C0 00 00 00 00 00 00 00 00 00 00 00 00 00 00 00 00 ................
0040B5D0 00 00 00 00 00 00 00 00 00 00 00 00 00 00 00 00 ................
0040B5E0 00 00 00 00 00 00 00 00 00 00 00 00 00 00 00 00 ................
0040B5F0 00 00 00 00 00 00 00 00 00 00 00 00 00 00 00 00 ................
0040B600 00 00 00 00 00 00 00 00 00 00 00 00 00 00 00 00 ................
0040B610 00 00 00 00 00 00 00 00 00 00 00 00 00 00 00 00 ................
0040B620 00 00 00 00 00 00 00 00 00 00 00 00 00 00 00 00 ................
0040B630 00 00 00 00 00 00 00 00 00 00 00 00 00 00 00 00 ................
0040B640 00 00 00 00 00 00 00 00 00 00 00 00 00 00 00 00 ................
0040B650 00 00 00 00 00 00 00 00 00 00 00 00 00 00 00 00 ................
0040B660 00 00 00 00 00 00 00 00 00 00 00 00 00 00 00 00 ................
0040B670 00 00 00 00 00 00 00 00 00 00 00 00 00 00 00 00 ................
0040B680 00 00 00 00 00 00 00 00 00 00 00 00 00 00 00 00 ................
0040B690 00 00 00 00 00 00 00 00 00 00 00 00 00 00 00 00 ................
0040B6A0 00 00 00 00 00 00 00 00 00 00 00 00 00 00 00 00 ................
0040B6B0 00 00 00 00 00 00 00 00 00 00 00 00 00 00 00 00 ................
0040B6C0 00 00 00 00 00 00 00 00 00 00 00 00 00 00 00 00 ................
0040B6D0 00 00 00 00 00 00 00 00 00 00 00 00 00 00 00 00 ................
0040B6E0 00 00 00 00 00 00 00 00 00 00 00 00 00 00 00 00 ................
0040B6F0 00 00 00 00 00 00 00 00 00 00 00 00 00 00 00 00 ................
0040B700 00 00 00 00 00 00 00 00 00 00 00 00 00 00 00 00 ................
0040B710 00 00 00 00 00 00 00 00 00 00 00 00 00 00 00 00 ................
0040B720 00 00 00 00 00 00 00 00 00 00 00 00 00 00 00 00 ................
0040B730 00 00 00 00 00 00 00 00 00 00 00 00 00 00 00 00 ................
0040B740 00 00 00 00 00 00 00 00 00 00 00 00 00 00 00 00 ................
0040B750 00 00 00 00 00 00 00 00 00 00 00 00 00 00 00 00 ................
0040B760 00 00 00 00 00 00 00 00 00 00 00 00 00 00 00 00 ................
0040B770 00 00 00 00 00 00 00 00 00 00 00 00 00 00 00 00 ................
0040B780 00 00 00 00 00 00 00 00 00 00 00 00 00 00 00 00 ................
0040B790 00 00 00 00 00 00 00 00 00 00 00 00 00 00 00 00 ................
0040B7A0 00 00 00 00 00 00 00 00 00 00 00 00 00 00 00 00 ................
0040B7B0 00 00 00 00 00 00 00 00 00 00 00 00 00 00 00 00 ................
0040B7C0 00 00 00 00 00 00 00 00 00 00 00 00 00 00 00 00 ................
0040B7D0 00 00 00 00 00 00 00 00 00 00 00 00 00 00 00 00 ................
0040B7E0 00 00 00 00 00 00 00 00 00 00 00 00 00 00 00 00 ................
0040B7F0 00 00 00 00 00 00 00 00 00 00 00 00 00 00 00 00 ................
0040B800 00 00 00 00 00 00 00 00 00 00 00 00 00 00 00 00 ................
0040B810 00 00 00 00 00 00 00 00 00 00 00 00 00 00 00 00 ................
0040B820 00 00 00 00 00 00 00 00 00 00 00 00 00 00 00 00 ................
0040B830 00 00 00 00 00 00 00 00 00 00 00 00 00 00 00 00 ................
0040B840 00 00 00 00 00 00 00 00 00 00 00 00 00 00 00 00 ................
0040B850 00 00 00 00 00 00 00 00 00 00 00 00 00 00 00 00 ................
0040B860 00 00 00 00 00 00 00 00 00 00 00 00 00 00 00 00 ................
0040B870 00 00 00 00 00 00 00 00 00 00 00 00 00 00 00 00 ................
0040B880 00 00 00 00 00 00 00 00 00 00 00 00 00 00 00 00 ................
0040B890 00 00 00 00 00 00 00 00 00 00 00 00 00 00 00 00 ................
0040B8A0 00 00 00 00 00 00 00 00 00 00 00 00 00 00 00 00 ................
0040B8B0 00 00 00 00 00 00 00 00 00 00 00 00 00 00 00 00 ................
0040B8C0 00 00 00 00 00 00 00 00 00 00 00 00 00 00 00 00 ................
0040B8D0 00 00 00 00 00 00 00 00 00 00 00 00 00 00 00 00 ................
0040B8E0 00 00 00 00 00 00 00 00 00 00 00 00 00 00 00 00 ................
0040B8F0 00 00 00 00 00 00 00 00 00 00 00 00 00 00 00 00 ................
0040B900 00 00 00 00 00 00 00 00 00 00 00 00 00 00 00 00 ................
0040B910 00 00 00 00 00 00 00 00 00 00 00 00 00 00 00 00 ................
0040B920 00 00 00 00 00 00 00 00 00 00 00 00 00 00 00 00 ................
0040B930 00 00 00 00 00 00 00 00 00 00 00 00 00 00 00 00 ................
0040B940 00 00 00 00 00 00 00 00 00 00 00 00 00 00 00 00 ................
0040B950 00 00 00 00 00 00 00 00 00 00 00 00 00 00 00 00 ................
0040B960 00 00 00 00 00 00 00 00 00 00 00 00 00 00 00 00 ................
0040B970 00 00 00 00 00 00 00 00 00 00 00 00 00 00 00 00 ................
0040B980 00 00 00 00 00 00 00 00 00 00 00 00 00 00 00 00 ................
0040B990 00 00 00 00 00 00 00 00 00 00 00 00 00 00 00 00 ................
0040B9A0 00 00 00 00 00 00 00 00 00 00 00 00 00 00 00 00 ................
0040B9B0 00 00 00 00 00 00 00 00 00 00 00 00 00 00 00 00 ................
0040B9C0 00 00 00 00 00 00 00 00 00 00 00 00 00 00 00 00 ................
0040B9D0 00 00 00 00 00 00 00 00 00 00 00 00 00 00 00 00 ................
0040B9E0 00 00 00 00 00 00 00 00 00 00 00 00 00 00 00 00 ................
0040B9F0 00 00 00 00 00 00 00 00 00 00 00 00 00 00 00 00 ................
0040BA00 00 00 00 00 00 00 00 00 00 00 00 00 00 00 00 00 ................
0040BA10 00 00 00 00 00 00 00 00 00 00 00 00 00 00 00 00 ................
0040BA20 00 00 00 00 00 00 00 00 00 00 00 00 00 00 00 00 ................
0040BA30 00 00 00 00 00 00 00 00 00 00 00 00 00 00 00 00 ................
0040BA40 00 00 00 00 00 00 00 00 00 00 00 00 00 00 00 00 ................
0040BA50 00 00 00 00 00 00 00 00 00 00 00 00 00 00 00 00 ................
0040BA60 00 00 00 00 00 00 00 00 00 00 00 00 00 00 00 00 ................
0040BA70 00 00 00 00 00 00 00 00 00 00 00 00 00 00 00 00 ................
0040BA80 00 00 00 00 00 00 00 00 00 00 00 00 00 00 00 00 ................
0040BA90 00 00 00 00 00 00 00 00 00 00 00 00 00 00 00 00 ................
0040BAA0 00 00 00 00 00 00 00 00 00 00 00 00 00 00 00 00 ................
0040BAB0 00 00 00 00 00 00 00 00 00 00 00 00 00 00 00 00 ................
0040BAC0 00 00 00 00 00 00 00 00 00 00 00 00 00 00 00 00 ................
0040BAD0 00 00 00 00 00 00 00 00 00 00 00 00 00 00 00 00 ................
0040BAE0 00 00 00 00 00 00 00 00 00 00 00 00 00 00 00 00 ................
0040BAF0 00 00 00 00 00 00 00 00 00 00 00 00 00 00 00 00 ................
0040BB00 00 00 00 00 00 00 00 00 00 00 00 00 00 00 00 00 ................
0040BB10 00 00 00 00 00 00 00 00 00 00 00 00 00 00 00 00 ................
0040BB20 00 00 00 00 00 00 00 00 00 00 00 00 00 00 00 00 ................
0040BB30 00 00 00 00 00 00 00 00 00 00 00 00 00 00 00 00 ................
0040BB40 00 00 00 00 00 00 00 00 00 00 00 00 00 00 00 00 ................
0040BB50 00 00 00 00 00 00 00 00 00 00 00 00 00 00 00 00 ................
0040BB60 00 00 00 00 00 00 00 00 00 00 00 00 00 00 00 00 ................
0040BB70 00 00 00 00 00 00 00 00 00 00 00 00 00 00 00 00 ................
0040BB80 00 00 00 00 00 00 00 00 00 00 00 00 00 00 00 00 ................
0040BB90 00 00 00 00 00 00 00 00 00 00 00 00 00 00 00 00 ................
0040BBA0 00 00 00 00 00 00 00 00 00 00 00 00 00 00 00 00 ................
0040BBB0 00 00 00 00 00 00 00 00 00 00 00 00 00 00 00 00 ................
0040BBC0 00 00 00 00 00 00 00 00 00 00 00 00 00 00 00 00 ................
0040BBD0 00 00 00 00 00 00 00 00 00 00 00 00 00 00 00 00 ................
0040BBE0 00 00 00 00 00 00 00 00 00 00 00 00 00 00 00 00 ................
0040BBF0 00 00 00 00 00 00 00 00 00 00 00 00 00 00 00 00 ................
0040BC00 00 00 00 00 00 00 00 00 00 00 00 00 00 00 00 00 ................
0040BC10 00 00 00 00 00 00 00 00 00 00 00 00 00 00 00 00 ................
0040BC20 00 00 00 00 00 00 00 00 00 00 00 00 00 00 00 00 ................
0040BC30 00 00 00 00 00 00 00 00 00 00 00 00 00 00 00 00 ................
0040BC40 00 00 00 00 00 00 00 00 00 00 00 00 00 00 00 00 ................
0040BC50 00 00 00 00 00 00 00 00 00 00 00 00 00 00 00 00 ................
0040BC60 00 00 00 00 00 00 00 00 00 00 00 00 00 00 00 00 ................
0040BC70 00 00 00 00 00 00 00 00 00 00 00 00 00 00 00 00 ................
0040BC80 00 00 00 00 00 00 00 00 00 00 00 00 00 00 00 00 ................
0040BC90 00 00 00 00 00 00 00 00 00 00 00 00 00 00 00 00 ................
0040BCA0 00 00 00 00 00 00 00 00 00 00 00 00 00 00 00 00 ................
0040BCB0 00 00 00 00 00 00 00 00 00 00 00 00 00 00 00 00 ................
0040BCC0 00 00 00 00 00 00 00 00 00 00 00 00 00 00 00 00 ................
0040BCD0 00 00 00 00 00 00 00 00 00 00 00 00 00 00 00 00 ................
0040BCE0 00 00 00 00 00 00 00 00 00 00 00 00 00 00 00 00 ................
0040BCF0 00 00 00 00 00 00 00 00 00 00 00 00 00 00 00 00 ................
0040BD00 00 00 00 00 00 00 00 00 00 00 00 00 00 00 00 00 ................
0040BD10 00 00 00 00 00 00 00 00 00 00 00 00 00 00 00 00 ................
0040BD20 00 00 00 00 00 00 00 00 00 00 00 00 00 00 00 00 ................
0040BD30 00 00 00 00 00 00 00 00 00 00 00 00 00 00 00 00 ................
0040BD40 00 00 00 00 00 00 00 00 00 00 00 00 00 00 00 00 ................
0040BD50 00 00 00 00 00 00 00 00 00 00 00 00 00 00 00 00 ................
0040BD60 00 00 00 00 00 00 00 00 00 00 00 00 00 00 00 00 ................
0040BD70 00 00 00 00 00 00 00 00 00 00 00 00 00 00 00 00 ................
0040BD80 00 00 00 00 00 00 00 00 00 00 00 00 00 00 00 00 ................
0040BD90 00 00 00 00 00 00 00 00 00 00 00 00 00 00 00 00 ................
0040BDA0 00 00 00 00 00 00 00 00 00 00 00 00 00 00 00 00 ................
0040BDB0 00 00 00 00 00 00 00 00 00 00 00 00 00 00 00 00 ................
0040BDC0 00 00 00 00 00 00 00 00 00 00 00 00 00 00 00 00 ................
0040BDD0 00 00 00 00 00 00 00 00 00 00 00 00 00 00 00 00 ................
0040BDE0 00 00 00 00 00 00 00 00 00 00 00 00 00 00 00 00 ................
0040BDF0 00 00 00 00 00 00 00 00 00 00 00 00 00 00 00 00 ................
0040BE00 00 00 00 00 00 00 00 00 00 00 00 00 00 00 00 00 ................
0040BE10 00 00 00 00 00 00 00 00 00 00 00 00 00 00 00 00 ................
0040BE20 00 00 00 00 00 00 00 00 00 00 00 00 00 00 00 00 ................
0040BE30 00 00 00 00 00 00 00 00 00 00 00 00 00 00 00 00 ................
0040BE40 00 00 00 00 00 00 00 00 00 00 00 00 00 00 00 00 ................
0040BE50 00 00 00 00 00 00 00 00 00 00 00 00 00 00 00 00 ................
0040BE60 00 00 00 00 00 00 00 00 00 00 00 00 00 00 00 00 ................
0040BE70 00 00 00 00 00 00 00 00 00 00 00 00 00 00 00 00 ................
0040BE80 00 00 00 00 00 00 00 00 00 00 00 00 00 00 00 00 ................
0040BE90 00 00 00 00 00 00 00 00 00 00 00 00 00 00 00 00 ................
0040BEA0 00 00 00 00 00 00 00 00 00 00 00 00 00 00 00 00 ................
0040BEB0 00 00 00 00 00 00 00 00 00 00 00 00 00 00 00 00 ................
0040BEC0 00 00 00 00 00 00 00 00 00 00 00 00 00 00 00 00 ................
0040BED0 00 00 00 00 00 00 00 00 00 00 00 00 00 00 00 00 ................
0040BEE0 00 00 00 00 00 00 00 00 00 00 00 00 00 00 00 00 ................
0040BEF0 00 00 00 00 00 00 00 00 00 00 00 00 00 00 00 00 ................
0040BF00 00 00 00 00 00 00 00 00 00 00 00 00 00 00 00 00 ................
0040BF10 00 00 00 00 00 00 00 00 00 00 00 00 00 00 00 00 ................
0040BF20 00 00 00 00 00 00 00 00 00 00 00 00 00 00 00 00 ................
0040BF30 00 00 00 00 00 00 00 00 00 00 00 00 00 00 00 00 ................
0040BF40 00 00 00 00 00 00 00 00 00 00 00 00 00 00 00 00 ................
0040BF50 00 00 00 00 00 00 00 00 00 00 00 00 00 00 00 00 ................
0040BF60 00 00 00 00 00 00 00 00 00 00 00 00 00 00 00 00 ................
0040BF70 00 00 00 00 00 00 00 00 00 00 00 00 00 00 00 00 ................
0040BF80 00 00 00 00 00 00 00 00 00 00 00 00 00 00 00 00 ................
0040BF90 00 00 00 00 00 00 00 00 00 00 00 00 00 00 00 00 ................
0040BFA0 00 00 00 00 00 00 00 00 00 00 00 00 00 00 00 00 ................
0040BFB0 00 00 00 00 00 00 00 00 00 00 00 00 00 00 00 00 ................
0040BFC0 00 00 00 00 00 00 00 00 00 00 00 00 00 00 00 00 ................
0040BFD0 00 00 00 00 00 00 00 00 00 00 00 00 00 00 00 00 ................
0040BFE0 00 00 00 00 00 00 00 00 00 00 00 00 00 00 00 00 ................
0040BFF0 00 00 00 00 00 00 00 00 00 00 00 00 00 00 00 00 ................
0040C000 00 00 00 00 00 00 00 00 00 00 00 00 00 00 00 00 ................
0040C010 00 00 00 00 00 00 00 00 00 00 00 00 00 00 00 00 ................
0040C020 00 00 00 00 00 00 00 00 00 00 00 00 00 00 00 00 ................
0040C030 00 00 00 00 00 00 00 00 00 00 00 00 00 00 00 00 ................
0040C040 00 00 00 00 00 00 00 00 00 00 00 00 00 00 00 00 ................
0040C050 00 00 00 00 00 00 00 00 00 00 00 00 00 00 00 00 ................
0040C060 00 00 00 00 00 00 00 00 00 00 00 00 00 00 00 00 ................
0040C070 00 00 00 00 00 00 00 00 00 00 00 00 00 00 00 00 ................
0040C080 00 00 00 00 00 00 00 00 00 00 00 00 00 00 00 00 ................
0040C090 00 00 00 00 00 00 00 00 00 00 00 00 00 00 00 00 ................
0040C0A0 00 00 00 00 00 00 00 00 00 00 00 00 00 00 00 00 ................
0040C0B0 00 00 00 00 00 00 00 00 00 00 00 00 00 00 00 00 ................
0040C0C0 00 00 00 00 00 00 00 00 00 00 00 00 00 00 00 00 ................
0040C0D0 00 00 00 00 00 00 00 00 00 00 00 00 00 00 00 00 ................
0040C0E0 00 00 00 00 00 00 00 00 00 00 00 00 00 00 00 00 ................
0040C0F0 00 00 00 00 00 00 00 00 00 00 00 00 00 00 00 00 ................
0040C100 00 00 00 00 00 00 00 00 00 00 00 00 00 00 00 00 ................
0040C110 00 00 00 00 00 00 00 00 00 00 00 00 00 00 00 00 ................
0040C120 00 00 00 00 00 00 00 00 00 00 00 00 00 00 00 00 ................
0040C130 00 00 00 00 00 00 00 00 00 00 00 00 00 00 00 00 ................
0040C140 00 00 00 00 00 00 00 00 00 00 00 00 00 00 00 00 ................
0040C150 00 00 00 00 00 00 00 00 00 00 00 00 00 00 00 00 ................
0040C160 00 00 00 00 00 00 00 00 00 00 00 00 00 00 00 00 ................
0040C170 00 00 00 00 00 00 00 00 00 00 00 00 00 00 00 00 ................
0040C180 00 00 00 00 00 00 00 00 00 00 00 00 00 00 00 00 ................
0040C190 00 00 00 00 00 00 00 00 00 00 00 00 00 00 00 00 ................
0040C1A0 00 00 00 00 00 00 00 00 00 00 00 00 00 00 00 00 ................
0040C1B0 00 00 00 00 00 00 00 00 00 00 00 00 00 00 00 00 ................
0040C1C0 00 00 00 00 00 00 00 00 00 00 00 00 00 00 00 00 ................
0040C1D0 00 00 00 00 00 00 00 00 00 00 00 00 00 00 00 00 ................
0040C1E0 00 00 00 00 00 00 00 00 00 00 00 00 00 00 00 00 ................
0040C1F0 00 00 00 00 00 00 00 00 00 00 00 00 00 00 00 00 ................
0040C200 00 00 00 00 00 00 00 00 00 00 00 00 00 00 00 00 ................
0040C210 00 00 00 00 00 00 00 00 00 00 00 00 00 00 00 00 ................
0040C220 00 00 00 00 00 00 00 00 00 00 00 00 00 00 00 00 ................
0040C230 00 00 00 00 00 00 00 00 00 00 00 00 00 00 00 00 ................
0040C240 00 00 00 00 00 00 00 00 00 00 00 00 00 00 00 00 ................
0040C250 00 00 00 00 00 00 00 00 00 00 00 00 00 00 00 00 ................
0040C260 00 00 00 00 00 00 00 00 00 00 00 00 00 00 00 00 ................
0040C270 00 00 00 00 00 00 00 00 00 00 00 00 00 00 00 00 ................
0040C280 00 00 00 00 00 00 00 00 00 00 00 00 00 00 00 00 ................
0040C290 00 00 00 00 00 00 00 00 00 00 00 00 00 00 00 00 ................
0040C2A0 00 00 00 00 00 00 00 00 00 00 00 00 00 00 00 00 ................
0040C2B0 00 00 00 00 00 00 00 00 00 00 00 00 00 00 00 00 ................
0040C2C0 00 00 00 00 00 00 00 00 00 00 00 00 00 00 00 00 ................
0040C2D0 00 00 00 00 00 00 00 00 00 00 00 00 00 00 00 00 ................
0040C2E0 00 00 00 00 00 00 00 00 00 00 00 00 00 00 00 00 ................
0040C2F0 00 00 00 00 00 00 00 00 00 00 00 00 00 00 00 00 ................
0040C300 00 00 00 00 00 00 00 00 00 00 00 00 00 00 00 00 ................
0040C310 00 00 00 00 00 00 00 00 00 00 00 00 00 00 00 00 ................
0040C320 00 00 00 00 00 00 00 00 00 00 00 00 00 00 00 00 ................
0040C330 00 00 00 00 00 00 00 00 00 00 00 00 00 00 00 00 ................
0040C340 00 00 00 00 00 00 00 00 00 00 00 00 00 00 00 00 ................
0040C350 00 00 00 00 00 00 00 00 00 00 00 00 00 00 00 00 ................
0040C360 00 00 00 00 00 00 00 00 00 00 00 00 00 00 00 00 ................
0040C370 00 00 00 00 00 00 00 00 00 00 00 00 00 00 00 00 ................
0040C380 00 00 00 00 00 00 00 00 00 00 00 00 00 00 00 00 ................
0040C390 00 00 00 00 00 00 00 00 00 00 00 00 00 00 00 00 ................
0040C3A0 00 00 00 00 00 00 00 00 00 00 00 00 00 00 00 00 ................
0040C3B0 00 00 00 00 00 00 00 00 00 00 00 00 00 00 00 00 ................
0040C3C0 00 00 00 00 00 00 00 00 00 00 00 00 00 00 00 00 ................
0040C3D0 00 00 00 00 00 00 00 00 00 00 00 00 00 00 00 00 ................
0040C3E0 00 00 00 00 00 00 00 00 00 00 00 00 00 00 00 00 ................
0040C3F0 00 00 00 00 00 00 00 00 00 00 00 00 00 00 00 00 ................
0040C400 00 00 00 00 00 00 00 00 00 00 00 00 00 00 00 00 ................
0040C410 00 00 00 00 00 00 00 00 00 00 00 00 00 00 00 00 ................
0040C420 00 00 00 00 00 00 00 00 00 00 00 00 00 00 00 00 ................
0040C430 00 00 00 00 00 00 00 00 00 00 00 00 00 00 00 00 ................
0040C440 00 00 00 00 00 00 00 00 00 00 00 00 00 00 00 00 ................
0040C450 00 00 00 00 00 00 00 00 00 00 00 00 00 00 00 00 ................
0040C460 00 00 00 00 00 00 00 00 00 00 00 00 00 00 00 00 ................
0040C470 00 00 00 00 00 00 00 00 00 00 00 00 00 00 00 00 ................
0040C480 00 00 00 00 00 00 00 00 00 00 00 00 00 00 00 00 ................
0040C490 00 00 00 00 00 00 00 00 00 00 00 00 00 00 00 00 ................
0040C4A0 00 00 00 00 00 00 00 00 00 00 00 00 00 00 00 00 ................
0040C4B0 00 00 00 00 00 00 00 00 00 00 00 00 00 00 00 00 ................
0040C4C0 00 00 00 00 00 00 00 00 00 00 00 00 00 00 00 00 ................
0040C4D0 00 00 00 00 00 00 00 00 00 00 00 00 00 00 00 00 ................
0040C4E0 00 00 00 00 00 00 00 00 00 00 00 00 00 00 00 00 ................
0040C4F0 00 00 00 00 00 00 00 00 00 00 00 00 00 00 00 00 ................
0040C500 00 00 00 00 00 00 00 00 00 00 00 00 00 00 00 00 ................
0040C510 00 00 00 00 00 00 00 00 00 00 00 00 00 00 00 00 ................
0040C520 00 00 00 00 00 00 00 00 00 00 00 00 00 00 00 00 ................
0040C530 00 00 00 00 00 00 00 00 00 00 00 00 00 00 00 00 ................
0040C540 00 00 00 00 00 00 00 00 00 00 00 00 00 00 00 00 ................
0040C550 00 00 00 00 00 00 00 00 00 00 00 00 00 00 00 00 ................
0040C560 00 00 00 00 00 00 00 00 00 00 00 00 00 00 00 00 ................
0040C570 00 00 00 00 00 00 00 00 00 00 00 00 00 00 00 00 ................
0040C580 00 00 00 00 00 00 00 00 00 00 00 00 00 00 00 00 ................
0040C590 00 00 00 00 00 00 00 00 00 00 00 00 00 00 00 00 ................
0040C5A0 00 00 00 00 00 00 00 00 00 00 00 00 00 00 00 00 ................
0040C5B0 00 00 00 00 00 00 00 00 00 00 00 00 00 00 00 00 ................
0040C5C0 00 00 00 00 00 00 00 00 00 00 00 00 00 00 00 00 ................
0040C5D0 00 00 00 00 00 00 00 00 00 00 00 00 00 00 00 00 ................
0040C5E0 00 00 00 00 00 00 00 00 00 00 00 00 00 00 00 00 ................
0040C5F0 00 00 00 00 00 00 00 00 00 00 00 00 00 00 00 00 ................
0040C600 00 00 00 00 00 00 00 00 00 00 00 00 00 00 00 00 ................
0040C610 00 00 00 00 00 00 00 00 00 00 00 00 00 00 00 00 ................
0040C620 00 00 00 00 00 00 00 00 00 00 00 00 00 00 00 00 ................
0040C630 00 00 00 00 00 00 00 00 00 00 00 00 00 00 00 00 ................
0040C640 00 00 00 00 00 00 00 00 00 00 00 00 00 00 00 00 ................
0040C650 00 00 00 00 00 00 00 00 00 00 00 00 00 00 00 00 ................
0040C660 00 00 00 00 00 00 00 00 00 00 00 00 00 00 00 00 ................
0040C670 00 00 00 00 00 00 00 00 00 00 00 00 00 00 00 00 ................
0040C680 00 00 00 00 00 00 00 00 00 00 00 00 00 00 00 00 ................
0040C690 00 00 00 00 00 00 00 00 00 00 00 00 00 00 00 00 ................
0040C6A0 00 00 00 00 00 00 00 00 00 00 00 00 00 00 00 00 ................
0040C6B0 00 00 00 00 00 00 00 00 00 00 00 00 00 00 00 00 ................
0040C6C0 00 00 00 00 00 00 00 00 00 00 00 00 00 00 00 00 ................
0040C6D0 00 00 00 00 00 00 00 00 00 00 00 00 00 00 00 00 ................
0040C6E0 00 00 00 00 00 00 00 00 00 00 00 00 00 00 00 00 ................
0040C6F0 00 00 00 00 00 00 00 00 00 00 00 00 00 00 00 00 ................
0040C700 00 00 00 00 00 00 00 00 00 00 00 00 00 00 00 00 ................
0040C710 00 00 00 00 00 00 00 00 00 00 00 00 00 00 00 00 ................
0040C720 00 00 00 00 00 00 00 00 00 00 00 00 00 00 00 00 ................
0040C730 00 00 00 00 00 00 00 00 00 00 00 00 00 00 00 00 ................
0040C740 00 00 00 00 00 00 00 00 00 00 00 00 00 00 00 00 ................
0040C750 00 00 00 00 00 00 00 00 00 00 00 00 00 00 00 00 ................
0040C760 00 00 00 00 00 00 00 00 00 00 00 00 00 00 00 00 ................
0040C770 00 00 00 00 00 00 00 00 00 00 00 00 00 00 00 00 ................
0040C780 00 00 00 00 00 00 00 00 00 00 00 00 00 00 00 00 ................
0040C790 00 00 00 00 00 00 00 00 00 00 00 00 00 00 00 00 ................
0040C7A0 00 00 00 00 00 00 00 00 00 00 00 00 00 00 00 00 ................
0040C7B0 00 00 00 00 00 00 00 00 00 00 00 00 00 00 00 00 ................
0040C7C0 00 00 00 00 00 00 00 00 00 00 00 00 00 00 00 00 ................
0040C7D0 00 00 00 00 00 00 00 00 00 00 00 00 00 00 00 00 ................
0040C7E0 00 00 00 00 00 00 00 00 00 00 00 00 00 00 00 00 ................
0040C7F0 00 00 00 00 00 00 00 00 00 00 00 00 00 00 00 00 ................
0040C800 00 00 00 00 00 00 00 00 00 00 00 00 00 00 00 00 ................
0040C810 00 00 00 00 00 00 00 00 00 00 00 00 00 00 00 00 ................
0040C820 00 00 00 00 00 00 00 00 00 00 00 00 00 00 00 00 ................
0040C830 00 00 00 00 00 00 00 00 00 00 00 00 00 00 00 00 ................
0040C840 00 00 00 00 00 00 00 00 00 00 00 00 00 00 00 00 ................
0040C850 00 00 00 00 00 00 00 00 00 00 00 00 00 00 00 00 ................
0040C860 00 00 00 00 00 00 00 00 00 00 00 00 00 00 00 00 ................
0040C870 00 00 00 00 00 00 00 00 00 00 00 00 00 00 00 00 ................
0040C880 00 00 00 00 00 00 00 00 00 00 00 00 00 00 00 00 ................
0040C890 00 00 00 00 00 00 00 00 00 00 00 00 00 00 00 00 ................
0040C8A0 00 00 00 00 00 00 00 00 00 00 00 00 00 00 00 00 ................
0040C8B0 00 00 00 00 00 00 00 00 00 00 00 00 00 00 00 00 ................
0040C8C0 00 00 00 00 00 00 00 00 00 00 00 00 00 00 00 00 ................
0040C8D0 00 00 00 00 00 00 00 00 00 00 00 00 00 00 00 00 ................
0040C8E0 00 00 00 00 00 00 00 00 00 00 00 00 00 00 00 00 ................
0040C8F0 00 00 00 00 00 00 00 00 00 00 00 00 00 00 00 00 ................
0040C900 00 00 00 00 00 00 00 00 00 00 00 00 00 00 00 00 ................
0040C910 00 00 00 00 00 00 00 00 00 00 00 00 00 00 00 00 ................
0040C920 00 00 00 00 00 00 00 00 00 00 00 00 00 00 00 00 ................
0040C930 00 00 00 00 00 00 00 00 00 00 00 00 00 00 00 00 ................
0040C940 00 00 00 00 00 00 00 00 00 00 00 00 00 00 00 00 ................
0040C950 00 00 00 00 00 00 00 00 00 00 00 00 00 00 00 00 ................
0040C960 00 00 00 00 00 00 00 00 00 00 00 00 00 00 00 00 ................
0040C970 00 00 00 00 00 00 00 00 00 00 00 00 00 00 00 00 ................
0040C980 00 00 00 00 00 00 00 00 00 00 00 00 00 00 00 00 ................
0040C990 00 00 00 00 00 00 00 00 00 00 00 00 00 00 00 00 ................
0040C9A0 00 00 00 00 00 00 00 00 00 00 00 00 00 00 00 00 ................
0040C9B0 00 00 00 00 00 00 00 00 00 00 00 00 00 00 00 00 ................
0040C9C0 00 00 00 00 00 00 00 00 00 00 00 00 00 00 00 00 ................
0040C9D0 00 00 00 00 00 00 00 00 00 00 00 00 00 00 00 00 ................
0040C9E0 00 00 00 00 00 00 00 00 00 00 00 00 00 00 00 00 ................
0040C9F0 00 00 00 00 00 00 00 00 00 00 00 00 00 00 00 00 ................
0040CA00 00 00 00 00 00 00 00 00 00 00 00 00 00 00 00 00 ................
0040CA10 00 00 00 00 00 00 00 00 00 00 00 00 00 00 00 00 ................
0040CA20 00 00 00 00 00 00 00 00 00 00 00 00 00 00 00 00 ................
0040CA30 00 00 00 00 00 00 00 00 00 00 00 00 00 00 00 00 ................
0040CA40 00 00 00 00 00 00 00 00 00 00 00 00 00 00 00 00 ................
0040CA50 00 00 00 00 00 00 00 00 00 00 00 00 00 00 00 00 ................
0040CA60 00 00 00 00 00 00 00 00 00 00 00 00 00 00 00 00 ................
0040CA70 00 00 00 00 00 00 00 00 00 00 00 00 00 00 00 00 ................
0040CA80 00 00 00 00 00 00 00 00 00 00 00 00 00 00 00 00 ................
0040CA90 00 00 00 00 00 00 00 00 00 00 00 00 00 00 00 00 ................
0040CAA0 00 00 00 00 00 00 00 00 00 00 00 00 00 00 00 00 ................
0040CAB0 00 00 00 00 00 00 00 00 00 00 00 00 00 00 00 00 ................
0040CAC0 00 00 00 00 00 00 00 00 00 00 00 00 00 00 00 00 ................
0040CAD0 00 00 00 00 00 00 00 00 00 00 00 00 00 00 00 00 ................
0040CAE0 00 00 00 00 00 00 00 00 00 00 00 00 00 00 00 00 ................
0040CAF0 00 00 00 00 00 00 00 00 00 00 00 00 00 00 00 00 ................
0040CB00 00 00 00 00 00 00 00 00 00 00 00 00 00 00 00 00 ................
0040CB10 00 00 00 00 00 00 00 00 00 00 00 00 00 00 00 00 ................
0040CB20 00 00 00 00 00 00 00 00 00 00 00 00 00 00 00 00 ................
0040CB30 00 00 00 00 00 00 00 00 00 00 00 00 00 00 00 00 ................
0040CB40 00 00 00 00 00 00 00 00 00 00 00 00 00 00 00 00 ................
0040CB50 00 00 00 00 00 00 00 00 00 00 00 00 00 00 00 00 ................
0040CB60 00 00 00 00 00 00 00 00 00 00 00 00 00 00 00 00 ................
0040CB70 00 00 00 00 00 00 00 00 00 00 00 00 00 00 00 00 ................
0040CB80 00 00 00 00 00 00 00 00 00 00 00 00 00 00 00 00 ................
0040CB90 00 00 00 00 00 00 00 00 00 00 00 00 00 00 00 00 ................
0040CBA0 00 00 00 00 00 00 00 00 00 00 00 00 00 00 00 00 ................
0040CBB0 00 00 00 00 00 00 00 00 00 00 00 00 00 00 00 00 ................
0040CBC0 00 00 00 00 00 00 00 00 00 00 00 00 00 00 00 00 ................
0040CBD0 00 00 00 00 00 00 00 00 00 00 00 00 00 00 00 00 ................
0040CBE0 00 00 00 00 00 00 00 00 00 00 00 00 00 00 00 00 ................
0040CBF0 00 00 00 00 00 00 00 00 00 00 00 00 00 00 00 00 ................
0040CC00 00 00 00 00 00 00 00 00 00 00 00 00 00 00 00 00 ................
0040CC10 00 00 00 00 00 00 00 00 00 00 00 00 00 00 00 00 ................
0040CC20 00 00 00 00 00 00 00 00 00 00 00 00 00 00 00 00 ................
0040CC30 00 00 00 00 00 00 00 00 00 00 00 00 00 00 00 00 ................
0040CC40 00 00 00 00 00 00 00 00 00 00 00 00 00 00 00 00 ................
0040CC50 00 00 00 00 00 00 00 00 00 00 00 00 00 00 00 00 ................
0040CC60 00 00 00 00 00 00 00 00 00 00 00 00 00 00 00 00 ................
0040CC70 00 00 00 00 00 00 00 00 00 00 00 00 00 00 00 00 ................
0040CC80 00 00 00 00 00 00 00 00 00 00 00 00 00 00 00 00 ................
0040CC90 00 00 00 00 00 00 00 00 00 00 00 00 00 00 00 00 ................
0040CCA0 00 00 00 00 00 00 00 00 00 00 00 00 00 00 00 00 ................
0040CCB0 00 00 00 00 00 00 00 00 00 00 00 00 00 00 00 00 ................
0040CCC0 00 00 00 00 00 00 00 00 00 00 00 00 00 00 00 00 ................
0040CCD0 00 00 00 00 00 00 00 00 00 00 00 00 00 00 00 00 ................
0040CCE0 00 00 00 00 00 00 00 00 00 00 00 00 00 00 00 00 ................
0040CCF0 00 00 00 00 00 00 00 00 00 00 00 00 00 00 00 00 ................
0040CD00 00 00 00 00 00 00 00 00 00 00 00 00 00 00 00 00 ................
0040CD10 00 00 00 00 00 00 00 00 00 00 00 00 00 00 00 00 ................
0040CD20 00 00 00 00 00 00 00 00 00 00 00 00 00 00 00 00 ................
0040CD30 00 00 00 00 00 00 00 00 00 00 00 00 00 00 00 00 ................
0040CD40 00 00 00 00 00 00 00 00 00 00 00 00 00 00 00 00 ................
0040CD50 00 00 00 00 00 00 00 00 00 00 00 00 00 00 00 00 ................
0040CD60 00 00 00 00 00 00 00 00 00 00 00 00 00 00 00 00 ................
0040CD70 00 00 00 00 00 00 00 00 00 00 00 00 00 00 00 00 ................
0040CD80 00 00 00 00 00 00 00 00 00 00 00 00 00 00 00 00 ................
0040CD90 00 00 00 00 00 00 00 00 00 00 00 00 00 00 00 00 ................
0040CDA0 00 00 00 00 00 00 00 00 00 00 00 00 00 00 00 00 ................
0040CDB0 00 00 00 00 00 00 00 00 00 00 00 00 00 00 00 00 ................
0040CDC0 00 00 00 00 00 00 00 00 00 00 00 00 00 00 00 00 ................
0040CDD0 00 00 00 00 00 00 00 00 00 00 00 00 00 00 00 00 ................
0040CDE0 00 00 00 00 00 00 00 00 00 00 00 00 00 00 00 00 ................
0040CDF0 00 00 00 00 00 00 00 00 00 00 00 00 00 00 00 00 ................
0040CE00 00 00 00 00 00 00 00 00 00 00 00 00 00 00 00 00 ................
0040CE10 00 00 00 00 00 00 00 00 00 00 00 00 00 00 00 00 ................
0040CE20 00 00 00 00 00 00 00 00 00 00 00 00 00 00 00 00 ................
0040CE30 00 00 00 00 00 00 00 00 00 00 00 00 00 00 00 00 ................
0040CE40 00 00 00 00 00 00 00 00 00 00 00 00 00 00 00 00 ................
0040CE50 00 00 00 00 00 00 00 00 00 00 00 00 00 00 00 00 ................
0040CE60 00 00 00 00 00 00 00 00 00 00 00 00 00 00 00 00 ................
0040CE70 00 00 00 00 00 00 00 00 00 00 00 00 00 00 00 00 ................
0040CE80 00 00 00 00 00 00 00 00 00 00 00 00 00 00 00 00 ................
0040CE90 00 00 00 00 00 00 00 00 00 00 00 00 00 00 00 00 ................
0040CEA0 00 00 00 00 00 00 00 00 00 00 00 00 00 00 00 00 ................
0040CEB0 00 00 00 00 00 00 00 00 00 00 00 00 00 00 00 00 ................
0040CEC0 00 00 00 00 00 00 00 00 00 00 00 00 00 00 00 00 ................
0040CED0 00 00 00 00 00 00 00 00 00 00 00 00 00 00 00 00 ................
0040CEE0 00 00 00 00 00 00 00 00 00 00 00 00 00 00 00 00 ................
0040CEF0 00 00 00 00 00 00 00 00 00 00 00 00 00 00 00 00 ................
0040CF00 00 00 00 00 00 00 00 00 00 00 00 00 00 00 00 00 ................
0040CF10 00 00 00 00 00 00 00 00 00 00 00 00 00 00 00 00 ................
0040CF20 00 00 00 00 00 00 00 00 00 00 00 00 00 00 00 00 ................
0040CF30 00 00 00 00 00 00 00 00 00 00 00 00 00 00 00 00 ................
0040CF40 00 00 00 00 00 00 00 00 00 00 00 00 00 00 00 00 ................
0040CF50 00 00 00 00 00 00 00 00 00 00 00 00 00 00 00 00 ................
0040CF60 00 00 00 00 00 00 00 00 00 00 00 00 00 00 00 00 ................
0040CF70 00 00 00 00 00 00 00 00 00 00 00 00 00 00 00 00 ................
0040CF80 00 00 00 00 00 00 00 00 00 00 00 00 00 00 00 00 ................
0040CF90 00 00 00 00 00 00 00 00 00 00 00 00 00 00 00 00 ................
0040CFA0 00 00 00 00 00 00 00 00 00 00 00 00 00 00 00 00 ................
0040CFB0 00 00 00 00 00 00 00 00 00 00 00 00 00 00 00 00 ................
0040CFC0 00 00 00 00 00 00 00 00 00 00 00 00 00 00 00 00 ................
0040CFD0 00 00 00 00 00 00 00 00 00 00 00 00 00 00 00 00 ................
0040CFE0 00 00 00 00 00 00 00 00 00 00 00 00 00 00 00 00 ................
0040CFF0 00 00 00 00 00 00 00 00 00 00 00 00 00 00 00 00 ................
0040D000 00 00 00 00 00 00 00 00 00 00 00 00 00 00 00 00 ................
0040D010 00 00 00 00 00 00 00 00 00 00 00 00 00 00 00 00 ................
0040D020 00 00 00 00 00 00 00 00 00 00 00 00 00 00 00 00 ................
0040D030 00 00 00 00 00 00 00 00 00 00 00 00 00 00 00 00 ................
0040D040 00 00 00 00 00 00 00 00 00 00 00 00 00 00 00 00 ................
0040D050 00 00 00 00 00 00 00 00 00 00 00 00 00 00 00 00 ................
0040D060 00 00 00 00 00 00 00 00 00 00 00 00 00 00 00 00 ................
0040D070 00 00 00 00 00 00 00 00 00 00 00 00 00 00 00 00 ................
0040D080 00 00 00 00 00 00 00 00 00 00 00 00 00 00 00 00 ................
0040D090 00 00 00 00 00 00 00 00 00 00 00 00 00 00 00 00 ................
0040D0A0 00 00 00 00 00 00 00 00 00 00 00 00 00 00 00 00 ................
0040D0B0 00 00 00 00 00 00 00 00 00 00 00 00 00 00 00 00 ................
0040D0C0 00 00 00 00 00 00 00 00 00 00 00 00 00 00 00 00 ................
0040D0D0 00 00 00 00 00 00 00 00 00 00 00 00 00 00 00 00 ................
0040D0E0 00 00 00 00 00 00 00 00 00 00 00 00 00 00 00 00 ................
0040D0F0 00 00 00 00 00 00 00 00 00 00 00 00 00 00 00 00 ................
0040D100 00 00 00 00 00 00 00 00 00 00 00 00 00 00 00 00 ................
0040D110 00 00 00 00 00 00 00 00 00 00 00 00 00 00 00 00 ................
0040D120 00 00 00 00 00 00 00 00 00 00 00 00 00 00 00 00 ................
0040D130 00 00 00 00 00 00 00 00 00 00 00 00 00 00 00 00 ................
0040D140 00 00 00 00 00 00 00 00 00 00 00 00 00 00 00 00 ................
0040D150 00 00 00 00 00 00 00 00 00 00 00 00 00 00 00 00 ................
0040D160 00 00 00 00 00 00 00 00 00 00 00 00 00 00 00 00 ................
0040D170 00 00 00 00 00 00 00 00 00 00 00 00 00 00 00 00 ................
0040D180 00 00 00 00 00 00 00 00 00 00 00 00 00 00 00 00 ................
0040D190 00 00 00 00 00 00 00 00 00 00 00 00 00 00 00 00 ................
0040D1A0 00 00 00 00 00 00 00 00 00 00 00 00 00 00 00 00 ................
0040D1B0 00 00 00 00 00 00 00 00 00 00 00 00 00 00 00 00 ................
0040D1C0 00 00 00 00 00 00 00 00 00 00 00 00 00 00 00 00 ................
0040D1D0 00 00 00 00 00 00 00 00 00 00 00 00 00 00 00 00 ................
0040D1E0 00 00 00 00 00 00 00 00 00 00 00 00 00 00 00 00 ................
0040D1F0 00 00 00 00 00 00 00 00 00 00 00 00 00 00 00 00 ................
0040D200 00 00 00 00 00 00 00 00 00 00 00 00 00 00 00 00 ................
0040D210 00 00 00 00 00 00 00 00 00 00 00 00 00 00 00 00 ................
0040D220 00 00 00 00 00 00 00 00 00 00 00 00 00 00 00 00 ................
0040D230 00 00 00 00 00 00 00 00 00 00 00 00 00 00 00 00 ................
0040D240 00 00 00 00 00 00 00 00 00 00 00 00 00 00 00 00 ................
0040D250 00 00 00 00 00 00 00 00 00 00 00 00 00 00 00 00 ................
0040D260 00 00 00 00 00 00 00 00 00 00 00 00 00 00 00 00 ................
0040D270 00 00 00 00 00 00 00 00 00 00 00 00 00 00 00 00 ................
0040D280 00 00 00 00 00 00 00 00 00 00 00 00 00 00 00 00 ................
0040D290 00 00 00 00 00 00 00 00 00 00 00 00 00 00 00 00 ................
0040D2A0 00 00 00 00 00 00 00 00 00 00 00 00 00 00 00 00 ................
0040D2B0 00 00 00 00 00 00 00 00 00 00 00 00 00 00 00 00 ................
0040D2C0 00 00 00 00 00 00 00 00 00 00 00 00 00 00 00 00 ................
0040D2D0 00 00 00 00 00 00 00 00 00 00 00 00 00 00 00 00 ................
0040D2E0 00 00 00 00 00 00 00 00 00 00 00 00 00 00 00 00 ................
0040D2F0 00 00 00 00 00 00 00 00 00 00 00 00 00 00 00 00 ................
0040D300 00 00 00 00 00 00 00 00 00 00 00 00 00 00 00 00 ................
0040D310 00 00 00 00 00 00 00 00 00 00 00 00 00 00 00 00 ................
0040D320 00 00 00 00 00 00 00 00 00 00 00 00 00 00 00 00 ................
0040D330 00 00 00 00 00 00 00 00 00 00 00 00 00 00 00 00 ................
0040D340 00 00 00 00 00 00 00 00 00 00 00 00 00 00 00 00 ................
0040D350 00 00 00 00 00 00 00 00 00 00 00 00 00 00 00 00 ................
0040D360 00 00 00 00 00 00 00 00 00 00 00 00 00 00 00 00 ................
0040D370 00 00 00 00 00 00 00 00 00 00 00 00 00 00 00 00 ................
0040D380 00 00 00 00 00 00 00 00 00 00 00 00 00 00 00 00 ................
0040D390 00 00 00 00 00 00 00 00 00 00 00 00 00 00 00 00 ................
0040D3A0 00 00 00 00 00 00 00 00 00 00 00 00 00 00 00 00 ................
0040D3B0 00 00 00 00 00 00 00 00 00 00 00 00 00 00 00 00 ................
0040D3C0 00 00 00 00 00 00 00 00 00 00 00 00 00 00 00 00 ................
0040D3D0 00 00 00 00 00 00 00 00 00 00 00 00 00 00 00 00 ................
0040D3E0 00 00 00 00 00 00 00 00 00 00 00 00 00 00 00 00 ................
0040D3F0 00 00 00 00 00 00 00 00 00 00 00 00 00 00 00 00 ................
0040D400 00 00 00 00 00 00 00 00 00 00 00 00 00 00 00 00 ................
0040D410 00 00 00 00 00 00 00 00 00 00 00 00 00 00 00 00 ................
0040D420 00 00 00 00 00 00 00 00 00 00 00 00 00 00 00 00 ................
0040D430 00 00 00 00 00 00 00 00 00 00 00 00 00 00 00 00 ................
0040D440 00 00 00 00 00 00 00 00 00 00 00 00 00 00 00 00 ................
0040D450 00 00 00 00 00 00 00 00 00 00 00 00 00 00 00 00 ................
0040D460 00 00 00 00 00 00 00 00 00 00 00 00 00 00 00 00 ................
0040D470 00 00 00 00 00 00 00 00 00 00 00 00 00 00 00 00 ................
0040D480 00 00 00 00 00 00 00 00 00 00 00 00 00 00 00 00 ................
0040D490 00 00 00 00 00 00 00 00 00 00 00 00 00 00 00 00 ................
0040D4A0 00 00 00 00 00 00 00 00 00 00 00 00 00 00 00 00 ................
0040D4B0 00 00 00 00 00 00 00 00 00 00 00 00 00 00 00 00 ................
0040D4C0 00 00 00 00 00 00 00 00 00 00 00 00 00 00 00 00 ................
0040D4D0 00 00 00 00 00 00 00 00 00 00 00 00 00 00 00 00 ................
0040D4E0 00 00 00 00 00 00 00 00 00 00 00 00 00 00 00 00 ................
0040D4F0 00 00 00 00 00 00 00 00 00 00 00 00 00 00 00 00 ................
0040D500 00 00 00 00 00 00 00 00 00 00 00 00 00 00 00 00 ................
0040D510 00 00 00 00 00 00 00 00 00 00 00 00 00 00 00 00 ................
0040D520 00 00 00 00 00 00 00 00 00 00 00 00 00 00 00 00 ................
0040D530 00 00 00 00 00 00 00 00 00 00 00 00 00 00 00 00 ................
0040D540 00 00 00 00 00 00 00 00 00 00 00 00 00 00 00 00 ................
0040D550 00 00 00 00 00 00 00 00 00 00 00 00 00 00 00 00 ................
0040D560 00 00 00 00 00 00 00 00 00 00 00 00 00 00 00 00 ................
0040D570 00 00 00 00 00 00 00 00 00 00 00 00 00 00 00 00 ................
0040D580 00 00 00 00 00 00 00 00 00 00 00 00 00 00 00 00 ................
0040D590 00 00 00 00 00 00 00 00 00 00 00 00 00 00 00 00 ................
0040D5A0 00 00 00 00 00 00 00 00 00 00 00 00 00 00 00 00 ................
0040D5B0 00 00 00 00 00 00 00 00 00 00 00 00 00 00 00 00 ................
0040D5C0 00 00 00 00 00 00 00 00 00 00 00 00 00 00 00 00 ................
0040D5D0 00 00 00 00 00 00 00 00 00 00 00 00 00 00 00 00 ................
0040D5E0 00 00 00 00 00 00 00 00 00 00 00 00 00 00 00 00 ................
0040D5F0 00 00 00 00 00 00 00 00 00 00 00 00 00 00 00 00 ................
0040D600 00 00 00 00 00 00 00 00 00 00 00 00 00 00 00 00 ................
0040D610 00 00 00 00 00 00 00 00 00 00 00 00 00 00 00 00 ................
0040D620 00 00 00 00 00 00 00 00 00 00 00 00 00 00 00 00 ................
0040D630 00 00 00 00 00 00 00 00 00 00 00 00 00 00 00 00 ................
0040D640 00 00 00 00 00 00 00 00 00 00 00 00 00 00 00 00 ................
0040D650 00 00 00 00 00 00 00 00 00 00 00 00 00 00 00 00 ................
0040D660 00 00 00 00 00 00 00 00 00 00 00 00 00 00 00 00 ................
0040D670 00 00 00 00 00 00 00 00 00 00 00 00 00 00 00 00 ................
0040D680 00 00 00 00 00 00 00 00 00 00 00 00 00 00 00 00 ................
0040D690 00 00 00 00 00 00 00 00 00 00 00 00 00 00 00 00 ................
0040D6A0 00 00 00 00 00 00 00 00 00 00 00 00 00 00 00 00 ................
0040D6B0 00 00 00 00 00 00 00 00 00 00 00 00 00 00 00 00 ................
0040D6C0 00 00 00 00 00 00 00 00 00 00 00 00 00 00 00 00 ................
0040D6D0 00 00 00 00 00 00 00 00 00 00 00 00 00 00 00 00 ................
0040D6E0 00 00 00 00 00 00 00 00 00 00 00 00 00 00 00 00 ................
0040D6F0 00 00 00 00 00 00 00 00 00 00 00 00 00 00 00 00 ................
0040D700 00 00 00 00 00 00 00 00 00 00 00 00 00 00 00 00 ................
0040D710 00 00 00 00 00 00 00 00 00 00 00 00 00 00 00 00 ................
0040D720 00 00 00 00 00 00 00 00 00 00 00 00 00 00 00 00 ................
0040D730 00 00 00 00 00 00 00 00 00 00 00 00 00 00 00 00 ................
0040D740 00 00 00 00 00 00 00 00 00 00 00 00 00 00 00 00 ................
0040D750 00 00 00 00 00 00 00 00 00 00 00 00 00 00 00 00 ................
0040D760 00 00 00 00 00 00 00 00 00 00 00 00 00 00 00 00 ................
0040D770 00 00 00 00 00 00 00 00 00 00 00 00 00 00 00 00 ................
0040D780 00 00 00 00 00 00 00 00 00 00 00 00 00 00 00 00 ................
0040D790 00 00 00 00 00 00 00 00 00 00 00 00 00 00 00 00 ................
0040D7A0 00 00 00 00 00 00 00 00 00 00 00 00 00 00 00 00 ................
0040D7B0 00 00 00 00 00 00 00 00 00 00 00 00 00 00 00 00 ................
0040D7C0 00 00 00 00 00 00 00 00 00 00 00 00 00 00 00 00 ................
0040D7D0 00 00 00 00 00 00 00 00 00 00 00 00 00 00 00 00 ................
0040D7E0 00 00 00 00 00 00 00 00 00 00 00 00 00 00 00 00 ................
0040D7F0 00 00 00 00 00 00 00 00 00 00 00 00 00 00 00 00 ................
0040D800 00 00 00 00 00 00 00 00 00 00 00 00 00 00 00 00 ................
0040D810 00 00 00 00 00 00 00 00 00 00 00 00 00 00 00 00 ................
0040D820 00 00 00 00 00 00 00 00 00 00 00 00 00 00 00 00 ................
0040D830 00 00 00 00 00 00 00 00 00 00 00 00 00 00 00 00 ................
0040D840 00 00 00 00 00 00 00 00 00 00 00 00 00 00 00 00 ................
0040D850 00 00 00 00 00 00 00 00 00 00 00 00 00 00 00 00 ................
0040D860 00 00 00 00 00 00 00 00 00 00 00 00 00 00 00 00 ................
0040D870 00 00 00 00 00 00 00 00 00 00 00 00 00 00 00 00 ................
0040D880 00 00 00 00 00 00 00 00 00 00 00 00 00 00 00 00 ................
0040D890 00 00 00 00 00 00 00 00 00 00 00 00 00 00 00 00 ................
0040D8A0 00 00 00 00 00 00 00 00 00 00 00 00 00 00 00 00 ................
0040D8B0 00 00 00 00 00 00 00 00 00 00 00 00 00 00 00 00 ................
0040D8C0 00 00 00 00 00 00 00 00 00 00 00 00 00 00 00 00 ................
0040D8D0 00 00 00 00 00 00 00 00 00 00 00 00 00 00 00 00 ................
0040D8E0 00 00 00 00 00 00 00 00 00 00 00 00 00 00 00 00 ................
0040D8F0 00 00 00 00 00 00 00 00 00 00 00 00 00 00 00 00 ................
0040D900 00 00 00 00 00 00 00 00 00 00 00 00 00 00 00 00 ................
0040D910 00 00 00 00 00 00 00 00 00 00 00 00 00 00 00 00 ................
0040D920 00 00 00 00 00 00 00 00 00 00 00 00 00 00 00 00 ................
0040D930 00 00 00 00 00 00 00 00 00 00 00 00 00 00 00 00 ................
0040D940 00 00 00 00 00 00 00 00 00 00 00 00 00 00 00 00 ................
0040D950 00 00 00 00 00 00 00 00 00 00 00 00 00 00 00 00 ................
0040D960 00 00 00 00 00 00 00 00 00 00 00 00 00 00 00 00 ................
0040D970 00 00 00 00 00 00 00 00 00 00 00 00 00 00 00 00 ................
0040D980 00 00 00 00 00 00 00 00 00 00 00 00 00 00 00 00 ................
0040D990 00 00 00 00 00 00 00 00 00 00 00 00 00 00 00 00 ................
0040D9A0 00 00 00 00 00 00 00 00 00 00 00 00 00 00 00 00 ................
0040D9B0 00 00 00 00 00 00 00 00 00 00 00 00 00 00 00 00 ................
0040D9C0 00 00 00 00 00 00 00 00 00 00 00 00 00 00 00 00 ................
0040D9D0 00 00 00 00 00 00 00 00 00 00 00 00 00 00 00 00 ................
0040D9E0 00 00 00 00 00 00 00 00 00 00 00 00 00 00 00 00 ................
0040D9F0 00 00 00 00 00 00 00 00 00 00 00 00 00 00 00 00 ................
0040DA00 00 00 00 00 00 00 00 00 00 00 00 00 00 00 00 00 ................
0040DA10 00 00 00 00 00 00 00 00 00 00 00 00 00 00 00 00 ................
0040DA20 00 00 00 00 00 00 00 00 00 00 00 00 00 00 00 00 ................
0040DA30 00 00 00 00 00 00 00 00 00 00 00 00 00 00 00 00 ................
0040DA40 00 00 00 00 00 00 00 00 00 00 00 00 00 00 00 00 ................
0040DA50 00 00 00 00 00 00 00 00 00 00 00 00 00 00 00 00 ................
0040DA60 00 00 00 00 00 00 00 00 00 00 00 00 00 00 00 00 ................
0040DA70 00 00 00 00 00 00 00 00 00 00 00 00 00 00 00 00 ................
0040DA80 00 00 00 00 00 00 00 00 00 00 00 00 00 00 00 00 ................
0040DA90 00 00 00 00 00 00 00 00 00 00 00 00 00 00 00 00 ................
0040DAA0 00 00 00 00 00 00 00 00 00 00 00 00 00 00 00 00 ................
0040DAB0 00 00 00 00 00 00 00 00 00 00 00 00 00 00 00 00 ................
0040DAC0 00 00 00 00 00 00 00 00 00 00 00 00 00 00 00 00 ................
0040DAD0 00 00 00 00 00 00 00 00 00 00 00 00 00 00 00 00 ................
0040DAE0 00 00 00 00 00 00 00 00 00 00 00 00 00 00 00 00 ................
0040DAF0 00 00 00 00 00 00 00 00 00 00 00 00 00 00 00 00 ................
0040DB00 00 00 00 00 00 00 00 00 00 00 00 00 00 00 00 00 ................
0040DB10 00 00 00 00 00 00 00 00 00 00 00 00 00 00 00 00 ................
0040DB20 00 00 00 00 00 00 00 00 00 00 00 00 00 00 00 00 ................
0040DB30 00 00 00 00 00 00 00 00 00 00 00 00 00 00 00 00 ................
0040DB40 00 00 00 00 00 00 00 00 00 00 00 00 00 00 00 00 ................
0040DB50 00 00 00 00 00 00 00 00 00 00 00 00 00 00 00 00 ................
0040DB60 00 00 00 00 00 00 00 00 00 00 00 00 00 00 00 00 ................
0040DB70 00 00 00 00 00 00 00 00 00 00 00 00 00 00 00 00 ................
0040DB80 00 00 00 00 00 00 00 00 00 00 00 00 00 00 00 00 ................
0040DB90 00 00 00 00 00 00 00 00 00 00 00 00 00 00 00 00 ................
0040DBA0 00 00 00 00 00 00 00 00 00 00 00 00 00 00 00 00 ................
0040DBB0 00 00 00 00 00 00 00 00 00 00 00 00 00 00 00 00 ................
0040DBC0 00 00 00 00 00 00 00 00 00 00 00 00 00 00 00 00 ................
0040DBD0 00 00 00 00 00 00 00 00 00 00 00 00 00 00 00 00 ................
0040DBE0 00 00 00 00 00 00 00 00 00 00 00 00 00 00 00 00 ................
0040DBF0 00 00 00 00 00 00 00 00 00 00 00 00 00 00 00 00 ................
0040DC00 00 00 00 00 00 00 00 00 00 00 00 00 00 00 00 00 ................
0040DC10 00 00 00 00 00 00 00 00 00 00 00 00 00 00 00 00 ................
0040DC20 00 00 00 00 00 00 00 00 00 00 00 00 00 00 00 00 ................
0040DC30 00 00 00 00 00 00 00 00 00 00 00 00 00 00 00 00 ................
0040DC40 00 00 00 00 00 00 00 00 00 00 00 00 00 00 00 00 ................
0040DC50 00 00 00 00 00 00 00 00 00 00 00 00 00 00 00 00 ................
0040DC60 00 00 00 00 00 00 00 00 00 00 00 00 00 00 00 00 ................
0040DC70 00 00 00 00 00 00 00 00 00 00 00 00 00 00 00 00 ................
0040DC80 00 00 00 00 00 00 00 00 00 00 00 00 00 00 00 00 ................
0040DC90 00 00 00 00 00 00 00 00 00 00 00 00 00 00 00 00 ................
0040DCA0 00 00 00 00 00 00 00 00 00 00 00 00 00 00 00 00 ................
0040DCB0 00 00 00 00 00 00 00 00 00 00 00 00 00 00 00 00 ................
0040DCC0 00 00 00 00 00 00 00 00 00 00 00 00 00 00 00 00 ................
0040DCD0 00 00 00 00 00 00 00 00 00 00 00 00 00 00 00 00 ................
0040DCE0 00 00 00 00 00 00 00 00 00 00 00 00 00 00 00 00 ................
0040DCF0 00 00 00 00 00 00 00 00 00 00 00 00 00 00 00 00 ................
0040DD00 00 00 00 00 00 00 00 00 00 00 00 00 00 00 00 00 ................
0040DD10 00 00 00 00 00 00 00 00 00 00 00 00 00 00 00 00 ................
0040DD20 00 00 00 00 00 00 00 00 00 00 00 00 00 00 00 00 ................
0040DD30 00 00 00 00 00 00 00 00 00 00 00 00 00 00 00 00 ................
0040DD40 00 00 00 00 00 00 00 00 00 00 00 00 00 00 00 00 ................
0040DD50 00 00 00 00 00 00 00 00 00 00 00 00 00 00 00 00 ................
0040DD60 00 00 00 00 00 00 00 00 00 00 00 00 00 00 00 00 ................
0040DD70 00 00 00 00 00 00 00 00 00 00 00 00 00 00 00 00 ................
0040DD80 00 00 00 00 00 00 00 00 00 00 00 00 00 00 00 00 ................
0040DD90 00 00 00 00 00 00 00 00 00 00 00 00 00 00 00 00 ................
0040DDA0 00 00 00 00 00 00 00 00 00 00 00 00 00 00 00 00 ................
0040DDB0 00 00 00 00 00 00 00 00 00 00 00 00 00 00 00 00 ................
0040DDC0 00 00 00 00 00 00 00 00 00 00 00 00 00 00 00 00 ................
0040DDD0 00 00 00 00 00 00 00 00 00 00 00 00 00 00 00 00 ................
0040DDE0 00 00 00 00 00 00 00 00 00 00 00 00 00 00 00 00 ................
0040DDF0 00 00 00 00 00 00 00 00 00 00 00 00 00 00 00 00 ................
0040DE00 00 00 00 00 00 00 00 00 00 00 00 00 00 00 00 00 ................
0040DE10 00 00 00 00 00 00 00 00 00 00 00 00 00 00 00 00 ................
0040DE20 00 00 00 00 00 00 00 00 00 00 00 00 00 00 00 00 ................
0040DE30 00 00 00 00 00 00 00 00 00 00 00 00 00 00 00 00 ................
0040DE40 00 00 00 00 00 00 00 00 00 00 00 00 00 00 00 00 ................
0040DE50 00 00 00 00 00 00 00 00 00 00 00 00 00 00 00 00 ................
0040DE60 00 00 00 00 00 00 00 00 00 00 00 00 00 00 00 00 ................
0040DE70 00 00 00 00 00 00 00 00 00 00 00 00 00 00 00 00 ................
0040DE80 00 00 00 00 00 00 00 00 00 00 00 00 00 00 00 00 ................
0040DE90 00 00 00 00 00 00 00 00 00 00 00 00 00 00 00 00 ................
0040DEA0 00 00 00 00 00 00 00 00 00 00 00 00 00 00 00 00 ................
0040DEB0 00 00 00 00 00 00 00 00 00 00 00 00 00 00 00 00 ................
0040DEC0 00 00 00 00 00 00 00 00 00 00 00 00 00 00 00 00 ................
0040DED0 00 00 00 00 00 00 00 00 00 00 00 00 00 00 00 00 ................
0040DEE0 00 00 00 00 00 00 00 00 00 00 00 00 00 00 00 00 ................
0040DEF0 00 00 00 00 00 00 00 00 00 00 00 00 00 00 00 00 ................
0040DF00 00 00 00 00 00 00 00 00 00 00 00 00 00 00 00 00 ................
0040DF10 00 00 00 00 00 00 00 00 00 00 00 00 00 00 00 00 ................
0040DF20 00 00 00 00 00 00 00 00 00 00 00 00 00 00 00 00 ................
0040DF30 00 00 00 00 00 00 00 00 00 00 00 00 00 00 00 00 ................
0040DF40 00 00 00 00 00 00 00 00 00 00 00 00 00 00 00 00 ................
0040DF50 00 00 00 00 00 00 00 00 00 00 00 00 00 00 00 00 ................
0040DF60 00 00 00 00 00 00 00 00 00 00 00 00 00 00 00 00 ................
0040DF70 00 00 00 00 00 00 00 00 00 00 00 00 00 00 00 00 ................
0040DF80 00 00 00 00 00 00 00 00 00 00 00 00 00 00 00 00 ................
0040DF90 00 00 00 00 00 00 00 00 00 00 00 00 00 00 00 00 ................
0040DFA0 00 00 00 00 00 00 00 00 00 00 00 00 00 00 00 00 ................
0040DFB0 00 00 00 00 00 00 00 00 00 00 00 00 00 00 00 00 ................
0040DFC0 00 00 00 00 00 00 00 00 00 00 00 00 00 00 00 00 ................
0040DFD0 00 00 00 00 00 00 00 00 00 00 00 00 00 00 00 00 ................
0040DFE0 00 00 00 00 00 00 00 00 00 00 00 00 00 00 00 00 ................
0040DFF0 00 00 00 00 00 00 00 00 00 00 00 00 00 00 00 00 ................
0040E000 00 00 00 00 00 00 00 00 00 00 00 00 00 00 00 00 ................
0040E010 00 00 00 00 00 00 00 00 00 00 00 00 00 00 00 00 ................
0040E020 00 00 00 00 00 00 00 00 00 00 00 00 00 00 00 00 ................
0040E030 00 00 00 00 00 00 00 00 00 00 00 00 00 00 00 00 ................
0040E040 00 00 00 00 00 00 00 00 00 00 00 00 00 00 00 00 ................
0040E050 00 00 00 00 00 00 00 00 00 00 00 00 00 00 00 00 ................
0040E060 00 00 00 00 00 00 00 00 00 00 00 00 00 00 00 00 ................
0040E070 00 00 00 00 00 00 00 00 00 00 00 00 00 00 00 00 ................
0040E080 00 00 00 00 00 00 00 00 00 00 00 00 00 00 00 00 ................
0040E090 00 00 00 00 00 00 00 00 00 00 00 00 00 00 00 00 ................
0040E0A0 00 00 00 00 00 00 00 00 00 00 00 00 00 00 00 00 ................
0040E0B0 00 00 00 00 00 00 00 00 00 00 00 00 00 00 00 00 ................
0040E0C0 00 00 00 00 00 00 00 00 00 00 00 00 00 00 00 00 ................
0040E0D0 00 00 00 00 00 00 00 00 00 00 00 00 00 00 00 00 ................
0040E0E0 00 00 00 00 00 00 00 00 00 00 00 00 00 00 00 00 ................
0040E0F0 00 00 00 00 00 00 00 00 00 00 00 00 00 00 00 00 ................
0040E100 00 00 00 00 00 00 00 00 00 00 00 00 00 00 00 00 ................
0040E110 00 00 00 00 00 00 00 00 00 00 00 00 00 00 00 00 ................
0040E120 00 00 00 00 00 00 00 00 00 00 00 00 00 00 00 00 ................
0040E130 00 00 00 00 00 00 00 00 00 00 00 00 00 00 00 00 ................
0040E140 00 00 00 00 00 00 00 00 00 00 00 00 00 00 00 00 ................
0040E150 00 00 00 00 00 00 00 00 00 00 00 00 00 00 00 00 ................
0040E160 00 00 00 00 00 00 00 00 00 00 00 00 00 00 00 00 ................
0040E170 00 00 00 00 00 00 00 00 00 00 00 00 00 00 00 00 ................
0040E180 00 00 00 00 00 00 00 00 00 00 00 00 00 00 00 00 ................
0040E190 00 00 00 00 00 00 00 00 00 00 00 00 00 00 00 00 ................
0040E1A0 00 00 00 00 00 00 00 00 00 00 00 00 00 00 00 00 ................
0040E1B0 00 00 00 00 00 00 00 00 00 00 00 00 00 00 00 00 ................
0040E1C0 00 00 00 00 00 00 00 00 00 00 00 00 00 00 00 00 ................
0040E1D0 00 00 00 00 00 00 00 00 00 00 00 00 00 00 00 00 ................
0040E1E0 00 00 00 00 00 00 00 00 00 00 00 00 00 00 00 00 ................
0040E1F0 00 00 00 00 00 00 00 00 00 00 00 00 00 00 00 00 ................
0040E200 00 00 00 00 00 00 00 00 00 00 00 00 00 00 00 00 ................
0040E210 00 00 00 00 00 00 00 00 00 00 00 00 00 00 00 00 ................
0040E220 00 00 00 00 00 00 00 00 00 00 00 00 00 00 00 00 ................
0040E230 00 00 00 00 00 00 00 00 00 00 00 00 00 00 00 00 ................
0040E240 00 00 00 00 00 00 00 00 00 00 00 00 00 00 00 00 ................
0040E250 00 00 00 00 00 00 00 00 00 00 00 00 00 00 00 00 ................
0040E260 00 00 00 00 00 00 00 00 00 00 00 00 00 00 00 00 ................
0040E270 00 00 00 00 00 00 00 00 00 00 00 00 00 00 00 00 ................
0040E280 00 00 00 00 00 00 00 00 00 00 00 00 00 00 00 00 ................
0040E290 00 00 00 00 00 00 00 00 00 00 00 00 00 00 00 00 ................
0040E2A0 00 00 00 00 00 00 00 00 00 00 00 00 00 00 00 00 ................
0040E2B0 00 00 00 00 00 00 00 00 00 00 00 00 00 00 00 00 ................
0040E2C0 00 00 00 00 00 00 00 00 00 00 00 00 00 00 00 00 ................
0040E2D0 00 00 00 00 00 00 00 00 00 00 00 00 00 00 00 00 ................
0040E2E0 00 00 00 00 00 00 00 00 00 00 00 00 00 00 00 00 ................
0040E2F0 00 00 00 00 00 00 00 00 00 00 00 00 00 00 00 00 ................
0040E300 00 00 00 00 00 00 00 00 00 00 00 00 00 00 00 00 ................
0040E310 00 00 00 00 00 00 00 00 00 00 00 00 00 00 00 00 ................
0040E320 00 00 00 00 00 00 00 00 00 00 00 00 00 00 00 00 ................
0040E330 00 00 00 00 00 00 00 00 00 00 00 00 00 00 00 00 ................
0040E340 00 00 00 00 00 00 00 00 00 00 00 00 00 00 00 00 ................
0040E350 00 00 00 00 00 00 00 00 00 00 00 00 00 00 00 00 ................
0040E360 00 00 00 00 00 00 00 00 00 00 00 00 00 00 00 00 ................
0040E370 00 00 00 00 00 00 00 00 00 00 00 00 00 00 00 00 ................
0040E380 00 00 00 00 00 00 00 00 00 00 00 00 00 00 00 00 ................
0040E390 00 00 00 00 00 00 00 00 00 00 00 00 00 00 00 00 ................
0040E3A0 00 00 00 00 00 00 00 00 00 00 00 00 00 00 00 00 ................
0040E3B0 00 00 00 00 00 00 00 00 00 00 00 00 00 00 00 00 ................
0040E3C0 00 00 00 00 00 00 00 00 00 00 00 00 00 00 00 00 ................
0040E3D0 00 00 00 00 00 00 00 00 00 00 00 00 00 00 00 00 ................
0040E3E0 00 00 00 00 00 00 00 00 00 00 00 00 00 00 00 00 ................
0040E3F0 00 00 00 00 00 00 00 00 00 00 00 00 00 00 00 00 ................
0040E400 00 00 00 00 00 00 00 00 00 00 00 00 00 00 00 00 ................
0040E410 00 00 00 00 00 00 00 00 00 00 00 00 00 00 00 00 ................
0040E420 00 00 00 00 00 00 00 00 00 00 00 00 00 00 00 00 ................
0040E430 00 00 00 00 00 00 00 00 00 00 00 00 00 00 00 00 ................
0040E440 00 00 00 00 00 00 00 00 00 00 00 00 00 00 00 00 ................
0040E450 00 00 00 00 00 00 00 00 00 00 00 00 00 00 00 00 ................
0040E460 00 00 00 00 00 00 00 00 00 00 00 00 00 00 00 00 ................
0040E470 00 00 00 00 00 00 00 00 00 00 00 00 00 00 00 00 ................
0040E480 00 00 00 00 00 00 00 00 00 00 00 00 00 00 00 00 ................
0040E490 00 00 00 00 00 00 00 00 00 00 00 00 00 00 00 00 ................
0040E4A0 00 00 00 00 00 00 00 00 00 00 00 00 00 00 00 00 ................
0040E4B0 00 00 00 00 00 00 00 00 00 00 00 00 00 00 00 00 ................
0040E4C0 00 00 00 00 00 00 00 00 00 00 00 00 00 00 00 00 ................
0040E4D0 00 00 00 00 00 00 00 00 00 00 00 00 00 00 00 00 ................
0040E4E0 00 00 00 00 00 00 00 00 00 00 00 00 00 00 00 00 ................
0040E4F0 00 00 00 00 00 00 00 00 00 00 00 00 00 00 00 00 ................
0040E500 00 00 00 00 00 00 00 00 00 00 00 00 00 00 00 00 ................
0040E510 00 00 00 00 00 00 00 00 00 00 00 00 00 00 00 00 ................
0040E520 00 00 00 00 00 00 00 00 00 00 00 00 00 00 00 00 ................
0040E530 00 00 00 00 00 00 00 00 00 00 00 00 00 00 00 00 ................
0040E540 00 00 00 00 00 00 00 00 00 00 00 00 00 00 00 00 ................
0040E550 00 00 00 00 00 00 00 00 00 00 00 00 00 00 00 00 ................
0040E560 00 00 00 00 00 00 00 00 00 00 00 00 00 00 00 00 ................
0040E570 00 00 00 00 00 00 00 00 00 00 00 00 00 00 00 00 ................
0040E580 00 00 00 00 00 00 00 00 00 00 00 00 00 00 00 00 ................
0040E590 00 00 00 00 00 00 00 00 00 00 00 00 00 00 00 00 ................
0040E5A0 00 00 00 00 00 00 00 00 00 00 00 00 00 00 00 00 ................
0040E5B0 00 00 00 00 00 00 00 00 00 00 00 00 00 00 00 00 ................
0040E5C0 00 00 00 00 00 00 00 00 00 00 00 00 00 00 00 00 ................
0040E5D0 00 00 00 00 00 00 00 00 00 00 00 00 00 00 00 00 ................
0040E5E0 00 00 00 00 00 00 00 00 00 00 00 00 00 00 00 00 ................
0040E5F0 00 00 00 00 00 00 00 00 00 00 00 00 00 00 00 00 ................
0040E600 00 00 00 00 00 00 00 00 00 00 00 00 00 00 00 00 ................
0040E610 00 00 00 00 00 00 00 00 00 00 00 00 00 00 00 00 ................
0040E620 00 00 00 00 00 00 00 00 00 00 00 00 00 00 00 00 ................
0040E630 00 00 00 00 00 00 00 00 00 00 00 00 00 00 00 00 ................
0040E640 00 00 00 00 00 00 00 00 00 00 00 00 00 00 00 00 ................
0040E650 00 00 00 00 00 00 00 00 00 00 00 00 00 00 00 00 ................
0040E660 00 00 00 00 00 00 00 00 00 00 00 00 00 00 00 00 ................
0040E670 00 00 00 00 00 00 00 00 00 00 00 00 00 00 00 00 ................
0040E680 00 00 00 00 00 00 00 00 00 00 00 00 00 00 00 00 ................
0040E690 00 00 00 00 00 00 00 00 00 00 00 00 00 00 00 00 ................
0040E6A0 00 00 00 00 00 00 00 00 00 00 00 00 00 00 00 00 ................
0040E6B0 00 00 00 00 00 00 00 00 00 00 00 00 00 00 00 00 ................
0040E6C0 00 00 00 00 00 00 00 00 00 00 00 00 00 00 00 00 ................
0040E6D0 00 00 00 00 00 00 00 00 00 00 00 00 00 00 00 00 ................
0040E6E0 00 00 00 00 00 00 00 00 00 00 00 00 00 00 00 00 ................
0040E6F0 00 00 00 00 00 00 00 00 00 00 00 00 00 00 00 00 ................
0040E700 00 00 00 00 00 00 00 00 00 00 00 00 00 00 00 00 ................
0040E710 00 00 00 00 00 00 00 00 00 00 00 00 00 00 00 00 ................
0040E720 00 00 00 00 00 00 00 00 00 00 00 00 00 00 00 00 ................
0040E730 00 00 00 00 00 00 00 00 00 00 00 00 00 00 00 00 ................
0040E740 00 00 00 00 00 00 00 00 00 00 00 00 00 00 00 00 ................
0040E750 00 00 00 00 00 00 00 00 00 00 00 00 00 00 00 00 ................
0040E760 00 00 00 00 00 00 00 00 00 00 00 00 00 00 00 00 ................
0040E770 00 00 00 00 00 00 00 00 00 00 00 00 00 00 00 00 ................
0040E780 00 00 00 00 00 00 00 00 00 00 00 00 00 00 00 00 ................
0040E790 00 00 00 00 00 00 00 00 00 00 00 00 00 00 00 00 ................
0040E7A0 00 00 00 00 00 00 00 00 00 00 00 00 00 00 00 00 ................
0040E7B0 00 00 00 00 00 00 00 00 00 00 00 00 00 00 00 00 ................
0040E7C0 00 00 00 00 00 00 00 00 00 00 00 00 00 00 00 00 ................
0040E7D0 00 00 00 00 00 00 00 00 00 00 00 00 00 00 00 00 ................
0040E7E0 00 00 00 00 00 00 00 00 00 00 00 00 00 00 00 00 ................
0040E7F0 00 00 00 00 00 00 00 00 00 00 00 00 00 00 00 00 ................
0040E800 00 00 00 00 00 00 00 00 00 00 00 00 00 00 00 00 ................
0040E810 00 00 00 00 00 00 00 00 00 00 00 00 00 00 00 00 ................
0040E820 00 00 00 00 00 00 00 00 00 00 00 00 00 00 00 00 ................
0040E830 00 00 00 00 00 00 00 00 00 00 00 00 00 00 00 00 ................
0040E840 00 00 00 00 00 00 00 00 00 00 00 00 00 00 00 00 ................
0040E850 00 00 00 00 00 00 00 00 00 00 00 00 00 00 00 00 ................
0040E860 00 00 00 00 00 00 00 00 00 00 00 00 00 00 00 00 ................
0040E870 00 00 00 00 00 00 00 00 00 00 00 00 00 00 00 00 ................
0040E880 00 00 00 00 00 00 00 00 00 00 00 00 00 00 00 00 ................
0040E890 00 00 00 00 00 00 00 00 00 00 00 00 00 00 00 00 ................
0040E8A0 00 00 00 00 00 00 00 00 00 00 00 00 00 00 00 00 ................
0040E8B0 00 00 00 00 00 00 00 00 00 00 00 00 00 00 00 00 ................
0040E8C0 00 00 00 00 00 00 00 00 00 00 00 00 00 00 00 00 ................
0040E8D0 00 00 00 00 00 00 00 00 00 00 00 00 00 00 00 00 ................
0040E8E0 00 00 00 00 00 00 00 00 00 00 00 00 00 00 00 00 ................
0040E8F0 00 00 00 00 00 00 00 00 00 00 00 00 00 00 00 00 ................
0040E900 00 00 00 00 00 00 00 00 00 00 00 00 00 00 00 00 ................
0040E910 00 00 00 00 00 00 00 00 00 00 00 00 00 00 00 00 ................
0040E920 00 00 00 00 00 00 00 00 00 00 00 00 00 00 00 00 ................
0040E930 00 00 00 00 00 00 00 00 00 00 00 00 00 00 00 00 ................
0040E940 00 00 00 00 00 00 00 00 00 00 00 00 00 00 00 00 ................
0040E950 00 00 00 00 00 00 00 00 00 00 00 00 00 00 00 00 ................
0040E960 00 00 00 00 00 00 00 00 00 00 00 00 00 00 00 00 ................
0040E970 00 00 00 00 00 00 00 00 00 00 00 00 00 00 00 00 ................
0040E980 00 00 00 00 00 00 00 00 00 00 00 00 00 00 00 00 ................
0040E990 00 00 00 00 00 00 00 00 00 00 00 00 00 00 00 00 ................
0040E9A0 00 00 00 00 00 00 00 00 00 00 00 00 00 00 00 00 ................
0040E9B0 00 00 00 00 00 00 00 00 00 00 00 00 00 00 00 00 ................
0040E9C0 00 00 00 00 00 00 00 00 00 00 00 00 00 00 00 00 ................
0040E9D0 00 00 00 00 00 00 00 00 00 00 00 00 00 00 00 00 ................
0040E9E0 00 00 00 00 00 00 00 00 00 00 00 00 00 00 00 00 ................
0040E9F0 00 00 00 00 00 00 00 00 00 00 00 00 00 00 00 00 ................
0040EA00 00 00 00 00 00 00 00 00 00 00 00 00 00 00 00 00 ................
0040EA10 00 00 00 00 00 00 00 00 00 00 00 00 00 00 00 00 ................
0040EA20 00 00 00 00 00 00 00 00 00 00 00 00 00 00 00 00 ................
0040EA30 00 00 00 00 00 00 00 00 00 00 00 00 00 00 00 00 ................
0040EA40 00 00 00 00 00 00 00 00 00 00 00 00 00 00 00 00 ................
0040EA50 00 00 00 00 00 00 00 00 00 00 00 00 00 00 00 00 ................
0040EA60 00 00 00 00 00 00 00 00 00 00 00 00 00 00 00 00 ................
0040EA70 00 00 00 00 00 00 00 00 00 00 00 00 00 00 00 00 ................
0040EA80 00 00 00 00 00 00 00 00 00 00 00 00 00 00 00 00 ................
0040EA90 00 00 00 00 00 00 00 00 00 00 00 00 00 00 00 00 ................
0040EAA0 00 00 00 00 00 00 00 00 00 00 00 00 00 00 00 00 ................
0040EAB0 00 00 00 00 00 00 00 00 00 00 00 00 00 00 00 00 ................
0040EAC0 00 00 00 00 00 00 00 00 00 00 00 00 00 00 00 00 ................
0040EAD0 00 00 00 00 00 00 00 00 00 00 00 00 00 00 00 00 ................
0040EAE0 00 00 00 00 00 00 00 00 00 00 00 00 00 00 00 00 ................
0040EAF0 00 00 00 00 00 00 00 00 00 00 00 00 00 00 00 00 ................
0040EB00 00 00 00 00 00 00 00 00 00 00 00 00 00 00 00 00 ................
0040EB10 00 00 00 00 00 00 00 00 00 00 00 00 00 00 00 00 ................
0040EB20 00 00 00 00 00 00 00 00 00 00 00 00 00 00 00 00 ................
0040EB30 00 00 00 00 00 00 00 00 00 00 00 00 00 00 00 00 ................
0040EB40 00 00 00 00 00 00 00 00 00 00 00 00 00 00 00 00 ................
0040EB50 00 00 00 00 00 00 00 00 00 00 00 00 00 00 00 00 ................
0040EB60 00 00 00 00 00 00 00 00 00 00 00 00 00 00 00 00 ................
0040EB70 00 00 00 00 00 00 00 00 00 00 00 00 00 00 00 00 ................
0040EB80 00 00 00 00 00 00 00 00 00 00 00 00 00 00 00 00 ................
0040EB90 00 00 00 00 00 00 00 00 00 00 00 00 00 00 00 00 ................
0040EBA0 00 00 00 00 00 00 00 00 00 00 00 00 00 00 00 00 ................
0040EBB0 00 00 00 00 00 00 00 00 00 00 00 00 00 00 00 00 ................
0040EBC0 00 00 00 00 00 00 00 00 00 00 00 00 00 00 00 00 ................
0040EBD0 00 00 00 00 00 00 00 00 00 00 00 00 00 00 00 00 ................
0040EBE0 00 00 00 00 00 00 00 00 00 00 00 00 00 00 00 00 ................
0040EBF0 00 00 00 00 00 00 00 00 00 00 00 00 00 00 00 00 ................
0040EC00 00 00 00 00 00 00 00 00 00 00 00 00 00 00 00 00 ................
0040EC10 00 00 00 00 00 00 00 00 00 00 00 00 00 00 00 00 ................
0040EC20 00 00 00 00 00 00 00 00 00 00 00 00 00 00 00 00 ................
0040EC30 00 00 00 00 00 00 00 00 00 00 00 00 00 00 00 00 ................
0040EC40 00 00 00 00 00 00 00 00 00 00 00 00 00 00 00 00 ................
0040EC50 00 00 00 00 00 00 00 00 00 00 00 00 00 00 00 00 ................
0040EC60 00 00 00 00 00 00 00 00 00 00 00 00 00 00 00 00 ................
0040EC70 00 00 00 00 00 00 00 00 00 00 00 00 00 00 00 00 ................
0040EC80 00 00 00 00 00 00 00 00 00 00 00 00 00 00 00 00 ................
0040EC90 00 00 00 00 00 00 00 00 00 00 00 00 00 00 00 00 ................
0040ECA0 00 00 00 00 00 00 00 00 00 00 00 00 00 00 00 00 ................
0040ECB0 00 00 00 00 00 00 00 00 00 00 00 00 00 00 00 00 ................
0040ECC0 00 00 00 00 00 00 00 00 00 00 00 00 00 00 00 00 ................
0040ECD0 00 00 00 00 00 00 00 00 00 00 00 00 00 00 00 00 ................
0040ECE0 00 00 00 00 00 00 00 00 00 00 00 00 00 00 00 00 ................
0040ECF0 00 00 00 00 00 00 00 00 00 00 00 00 00 00 00 00 ................
0040ED00 00 00 00 00 00 00 00 00 00 00 00 00 00 00 00 00 ................
0040ED10 00 00 00 00 00 00 00 00 00 00 00 00 00 00 00 00 ................
0040ED20 00 00 00 00 00 00 00 00 00 00 00 00 00 00 00 00 ................
0040ED30 00 00 00 00 00 00 00 00 00 00 00 00 00 00 00 00 ................
0040ED40 00 00 00 00 00 00 00 00 00 00 00 00 00 00 00 00 ................
0040ED50 00 00 00 00 00 00 00 00 00 00 00 00 00 00 00 00 ................
0040ED60 00 00 00 00 00 00 00 00 00 00 00 00 00 00 00 00 ................
0040ED70 00 00 00 00 00 00 00 00 00 00 00 00 00 00 00 00 ................
0040ED80 00 00 00 00 00 00 00 00 00 00 00 00 00 00 00 00 ................
0040ED90 00 00 00 00 00 00 00 00 00 00 00 00 00 00 00 00 ................
0040EDA0 00 00 00 00 00 00 00 00 00 00 00 00 00 00 00 00 ................
0040EDB0 00 00 00 00 00 00 00 00 00 00 00 00 00 00 00 00 ................
0040EDC0 00 00 00 00 00 00 00 00 00 00 00 00 00 00 00 00 ................
0040EDD0 00 00 00 00 00 00 00 00 00 00 00 00 00 00 00 00 ................
0040EDE0 00 00 00 00 00 00 00 00 00 00 00 00 00 00 00 00 ................
0040EDF0 00 00 00 00 00 00 00 00 00 00 00 00 00 00 00 00 ................
0040EE00 00 00 00 00 00 00 00 00 00 00 00 00 00 00 00 00 ................
0040EE10 00 00 00 00 00 00 00 00 00 00 00 00 00 00 00 00 ................
0040EE20 00 00 00 00 00 00 00 00 00 00 00 00 00 00 00 00 ................
0040EE30 00 00 00 00 00 00 00 00 00 00 00 00 00 00 00 00 ................
0040EE40 00 00 00 00 00 00 00 00 00 00 00 00 00 00 00 00 ................
0040EE50 00 00 00 00 00 00 00 00 00 00 00 00 00 00 00 00 ................
0040EE60 00 00 00 00 00 00 00 00 00 00 00 00 00 00 00 00 ................
0040EE70 00 00 00 00 00 00 00 00 00 00 00 00 00 00 00 00 ................
0040EE80 00 00 00 00 00 00 00 00 00 00 00 00 00 00 00 00 ................
0040EE90 00 00 00 00 00 00 00 00 00 00 00 00 00 00 00 00 ................
0040EEA0 00 00 00 00 00 00 00 00 00 00 00 00 00 00 00 00 ................
0040EEB0 00 00 00 00 00 00 00 00 00 00 00 00 00 00 00 00 ................
0040EEC0 00 00 00 00 00 00 00 00 00 00 00 00 00 00 00 00 ................
0040EED0 00 00 00 00 00 00 00 00 00 00 00 00 00 00 00 00 ................
0040EEE0 00 00 00 00 00 00 00 00 00 00 00 00 00 00 00 00 ................
0040EEF0 00 00 00 00 00 00 00 00 00 00 00 00 00 00 00 00 ................
0040EF00 00 00 00 00 00 00 00 00 00 00 00 00 00 00 00 00 ................
0040EF10 00 00 00 00 00 00 00 00 00 00 00 00 00 00 00 00 ................
0040EF20 00 00 00 00 00 00 00 00 00 00 00 00 00 00 00 00 ................
0040EF30 00 00 00 00 00 00 00 00 00 00 00 00 00 00 00 00 ................
0040EF40 00 00 00 00 00 00 00 00 00 00 00 00 00 00 00 00 ................
0040EF50 00 00 00 00 00 00 00 00 00 00 00 00 00 00 00 00 ................
0040EF60 00 00 00 00 00 00 00 00 00 00 00 00 00 00 00 00 ................
0040EF70 00 00 00 00 00 00 00 00 00 00 00 00 00 00 00 00 ................
0040EF80 00 00 00 00 00 00 00 00 00 00 00 00 00 00 00 00 ................
0040EF90 00 00 00 00 00 00 00 00 00 00 00 00 00 00 00 00 ................
0040EFA0 00 00 00 00 00 00 00 00 00 00 00 00 00 00 00 00 ................
0040EFB0 00 00 00 00 00 00 00 00 00 00 00 00 00 00 00 00 ................
0040EFC0 00 00 00 00 00 00 00 00 00 00 00 00 00 00 00 00 ................
0040EFD0 00 00 00 00 00 00 00 00 00 00 00 00 00 00 00 00 ................
0040EFE0 00 00 00 00 00 00 00 00 00 00 00 00 00 00 00 00 ................
0040EFF0 00 00 00 00 00 00 00 00 00 00 00 00 00 00 00 00 ................
0040F000 00 F3 00 00 0C F3 00 00 18 F3 00 00 24 F3 00 00 ............$...
0040F010 3A F3 00 00 4C F3 00 00 60 F3 00 00 70 F3 00 00 :...L...`...p...
0040F020 80 F3 00 00 8C F3 00 00 9E F3 00 00 AA F3 00 00 ................
0040F030 BA F3 00 00 CC F3 00 00 D8 F3 00 00 EA F3 00 00 ................
0040F040 FA F3 00 00 0C F4 00 00 1C F4 00 00 2C F4 00 00 ............,...
0040F050 3E F4 00 00 4E F4 00 00 62 F4 00 00 72 F4 00 00 >...N...b...r...
0040F060 86 F4 00 00 98 F4 00 00 B0 F4 00 00 BE F4 00 00 ................
0040F070 CA F4 00 00 DA F4 00 00 F0 F4 00 00 04 F5 00 00 ................
0040F080 1C F5 00 00 30 F5 00 00 48 F5 00 00 58 F5 00 00 ....0...H...X...
0040F090 64 F5 00 00 74 F5 00 00 80 F5 00 00 90 F5 00 00 d...t...........
0040F0A0 A2 F5 00 00 BE F5 00 00 CE F5 00 00 DC F5 00 00 ................
0040F0B0 EC F5 00 00 F8 F5 00 00 04 F6 00 00 1A F6 00 00 ................
0040F0C0 32 F6 00 00 3E F6 00 00 00 00 00 00 60 F6 00 00 2...>.......`...
0040F0D0 72 F6 00 00 7E F6 00 00 92 F6 00 00 A0 F6 00 00 r...~...........
0040F0E0 B2 F6 00 00 BE F6 00 00 CC F6 00 00 D8 F6 00 00 ................
0040F0F0 E6 F6 00 00 F4 F6 00 00 02 F7 00 00 10 F7 00 00 ................
0040F100 1C F7 00 00 26 F7 00 00 34 F7 00 00 44 F7 00 00 ....&...4...D...
0040F110 56 F7 00 00 60 F7 00 00 68 F7 00 00 78 F7 00 00 V...`...h...x...
0040F120 8C F7 00 00 9E F7 00 00 AE F7 00 00 B8 F7 00 00 ................
0040F130 C8 F7 00 00 D4 F7 00 00 E6 F7 00 00 F8 F7 00 00 ................
0040F140 06 F8 00 00 14 F8 00 00 24 F8 00 00 36 F8 00 00 ........$...6...
0040F150 44 F8 00 00 58 F8 00 00 66 F8 00 00 00 00 00 00 D...X...f.......
0040F160 00 00 00 00 A0 F1 00 00 00 00 00 00 00 00 00 00 ................
0040F170 52 F6 00 00 00 F0 00 00 6C F2 00 00 00 00 00 00 R.......l.......
0040F180 00 00 00 00 76 F8 00 00 CC F0 00 00 00 00 00 00 ....v...........
0040F190 00 00 00 00 00 00 00 00 00 00 00 00 00 00 00 00 ................
0040F1A0 00 F3 00 00 0C F3 00 00 18 F3 00 00 24 F3 00 00 ............$...
0040F1B0 3A F3 00 00 4C F3 00 00 60 F3 00 00 70 F3 00 00 :...L...`...p...
0040F1C0 80 F3 00 00 8C F3 00 00 9E F3 00 00 AA F3 00 00 ................
0040F1D0 BA F3 00 00 CC F3 00 00 D8 F3 00 00 EA F3 00 00 ................
0040F1E0 FA F3 00 00 0C F4 00 00 1C F4 00 00 2C F4 00 00 ............,...
0040F1F0 3E F4 00 00 4E F4 00 00 62 F4 00 00 72 F4 00 00 >...N...b...r...
0040F200 86 F4 00 00 98 F4 00 00 B0 F4 00 00 BE F4 00 00 ................
0040F210 CA F4 00 00 DA F4 00 00 F0 F4 00 00 04 F5 00 00 ................
0040F220 1C F5 00 00 30 F5 00 00 48 F5 00 00 58 F5 00 00 ....0...H...X...
0040F230 64 F5 00 00 74 F5 00 00 80 F5 00 00 90 F5 00 00 d...t...........
0040F240 A2 F5 00 00 BE F5 00 00 CE F5 00 00 DC F5 00 00 ................
0040F250 EC F5 00 00 F8 F5 00 00 04 F6 00 00 1A F6 00 00 ................
0040F260 32 F6 00 00 3E F6 00 00 00 00 00 00 60 F6 00 00 2...>.......`...
0040F270 72 F6 00 00 7E F6 00 00 92 F6 00 00 A0 F6 00 00 r...~...........
0040F280 B2 F6 00 00 BE F6 00 00 CC F6 00 00 D8 F6 00 00 ................
0040F290 E6 F6 00 00 F4 F6 00 00 02 F7 00 00 10 F7 00 00 ................
0040F2A0 1C F7 00 00 26 F7 00 00 34 F7 00 00 44 F7 00 00 ....&...4...D...
0040F2B0 56 F7 00 00 60 F7 00 00 68 F7 00 00 78 F7 00 00 V...`...h...x...
0040F2C0 8C F7 00 00 9E F7 00 00 AE F7 00 00 B8 F7 00 00 ................
0040F2D0 C8 F7 00 00 D4 F7 00 00 E6 F7 00 00 F8 F7 00 00 ................
0040F2E0 06 F8 00 00 14 F8 00 00 24 F8 00 00 36 F8 00 00 ........$...6...
0040F2F0 44 F8 00 00 58 F8 00 00 66 F8 00 00 00 00 00 00 D...X...f.......
0040F300 14 00 6C 73 74 72 63 6D 70 69 57 00 15 00 57 72 ..lstrcmpiW...Wr
0040F310 69 74 65 46 69 6C 65 00 1A 00 57 72 69 74 65 46 iteFile...WriteF
0040F320 69 6C 65 00 1B 00 57 69 64 65 43 68 61 72 54 6F ile...WideCharTo
0040F330 4D 75 6C 74 69 42 79 74 65 00 21 00 47 65 74 53 MultiByte.!.GetS
0040F340 74 61 72 74 75 70 49 6E 66 6F 57 00 27 00 47 65 tartupInfoW.'.Ge
0040F350 74 43 75 72 72 65 6E 74 50 72 6F 63 65 73 73 00 tCurrentProcess.
0040F360 2B 00 47 65 74 56 65 72 73 69 6F 6E 45 78 41 00 +.GetVersionExA.
0040F370 2E 00 47 65 74 54 69 63 6B 43 6F 75 6E 74 00 00 ..GetTickCount..
0040F380 2F 00 53 65 74 45 76 65 6E 74 00 00 34 00 47 65 /.SetEvent..4.Ge
0040F390 74 43 6F 6D 6D 61 6E 64 4C 69 6E 65 41 00 37 00 tCommandLineA.7.
0040F3A0 6C 73 74 72 63 6D 70 69 57 00 3D 00 56 69 72 74 lstrcmpiW.=.Virt
0040F3B0 75 61 6C 41 6C 6C 6F 63 00 00 43 00 47 65 74 50 ualAlloc..C.GetP
0040F3C0 72 6F 63 41 64 64 72 65 73 73 00 00 48 00 6C 73 rocAddress..H.ls
0040F3D0 74 72 6C 65 6E 57 00 00 4D 00 47 65 74 50 72 6F trlenW..M.GetPro
0040F3E0 63 41 64 64 72 65 73 73 00 00 52 00 56 69 72 74 cAddress..R.Virt
0040F3F0 75 61 6C 41 6C 6C 6F 63 00 00 54 00 47 65 74 53 ualAlloc..T.GetS
0040F400 74 61 72 74 75 70 49 6E 66 6F 57 00 55 00 47 65 tartupInfoW.U.Ge
0040F410 74 4C 61 73 74 45 72 72 6F 72 00 00 56 00 47 65 tLastError..V.Ge
0040F420 74 4C 61 73 74 45 72 72 6F 72 00 00 5B 00 47 65 tLastError..[.Ge
0040F430 74 53 74 61 72 74 75 70 49 6E 66 6F 57 00 5D 00 tStartupInfoW.].
0040F440 53 65 74 4C 61 73 74 45 72 72 6F 72 00 00 60 00 SetLastError..`.
0040F450 54 65 72 6D 69 6E 61 74 65 50 72 6F 63 65 73 73 TerminateProcess
0040F460 00 00 66 00 56 69 72 74 75 61 6C 41 6C 6C 6F 63 ..f.VirtualAlloc
0040F470 00 00 6A 00 47 65 74 4D 6F 64 75 6C 65 48 61 6E ..j.GetModuleHan
0040F480 64 6C 65 41 00 00 70 00 47 65 74 50 72 6F 63 41 dleA..p.GetProcA
0040F490 64 64 72 65 73 73 00 00 74 00 49 6E 74 65 72 6C ddress..t.Interl
0040F4A0 6F 63 6B 65 64 49 6E 63 72 65 6D 65 6E 74 00 00 ockedIncrement..
0040F4B0 75 00 46 72 65 65 4C 69 62 72 61 72 79 00 7B 00 u.FreeLibrary.{.
0040F4C0 6C 73 74 72 63 70 79 57 00 00 7E 00 4C 6F 61 64 lstrcpyW..~.Load
0040F4D0 4C 69 62 72 61 72 79 57 00 00 80 00 47 65 74 4D LibraryW....GetM
0040F4E0 6F 64 75 6C 65 46 69 6C 65 4E 61 6D 65 41 00 00 oduleFileNameA..
0040F4F0 84 00 54 65 72 6D 69 6E 61 74 65 50 72 6F 63 65 ..TerminateProce
0040F500 73 73 00 00 85 00 49 6E 74 65 72 6C 6F 63 6B 65 ss....Interlocke
0040F510 64 49 6E 63 72 65 6D 65 6E 74 00 00 87 00 47 65 dIncrement....Ge
0040F520 74 4D 6F 64 75 6C 65 48 61 6E 64 6C 65 57 00 00 tModuleHandleW..
0040F530 8D 00 4C 65 61 76 65 43 72 69 74 69 63 61 6C 53 ..LeaveCriticalS
0040F540 65 63 74 69 6F 6E 00 00 93 00 47 65 74 56 65 72 ection....GetVer
0040F550 73 69 6F 6E 45 78 41 00 96 00 57 72 69 74 65 46 sionExA...WriteF
0040F560 69 6C 65 00 98 00 4C 6F 61 64 4C 69 62 72 61 72 ile...LoadLibrar
0040F570 79 41 00 00 9B 00 48 65 61 70 46 72 65 65 00 00 yA....HeapFree..
0040F580 9D 00 4C 6F 61 64 4C 69 62 72 61 72 79 41 00 00 ..LoadLibraryA..
0040F590 9F 00 47 65 74 53 74 61 72 74 75 70 49 6E 66 6F ..GetStartupInfo
0040F5A0 57 00 A3 00 55 6E 68 61 6E 64 6C 65 64 45 78 63 W...UnhandledExc
0040F5B0 65 70 74 69 6F 6E 46 69 6C 74 65 72 00 00 A4 00 eptionFilter....
0040F5C0 56 69 72 74 75 61 6C 41 6C 6C 6F 63 00 00 A9 00 VirtualAlloc....
0040F5D0 56 69 72 74 75 61 6C 46 72 65 65 00 AD 00 47 65 VirtualFree...Ge
0040F5E0 74 56 65 72 73 69 6F 6E 45 78 41 00 B1 00 6C 73 tVersionExA...ls
0040F5F0 74 72 63 6D 70 69 57 00 B5 00 6C 73 74 72 63 70 trcmpiW...lstrcp
0040F600 79 57 00 00 B7 00 47 65 74 43 75 72 72 65 6E 74 yW....GetCurrent
0040F610 54 68 72 65 61 64 49 64 00 00 BA 00 45 6E 74 65 ThreadId....Ente
0040F620 72 43 72 69 74 69 63 61 6C 53 65 63 74 69 6F 6E rCriticalSection
0040F630 00 00 BC 00 6C 73 74 72 63 70 79 57 00 00 BF 00 ....lstrcpyW....
0040F640 54 65 72 6D 69 6E 61 74 65 50 72 6F 63 65 73 73 TerminateProcess
0040F650 00 00 4B 45 52 4E 45 4C 33 32 2E 44 4C 4C 00 00 ..KERNEL32.DLL..
0040F660 0A 00 45 6E 61 62 6C 65 4D 65 6E 75 49 74 65 6D ..EnableMenuItem
0040F670 00 00 0E 00 43 6F 70 79 52 65 63 74 00 00 12 00 ....CopyRect....
0040F680 47 65 74 44 65 73 6B 74 6F 70 57 69 6E 64 6F 77 GetDesktopWindow
0040F690 00 00 17 00 47 65 74 4D 65 73 73 61 67 65 57 00 ....GetMessageW.
0040F6A0 1C 00 53 65 74 57 69 6E 64 6F 77 54 65 78 74 57 ..SetWindowTextW
0040F6B0 00 00 1F 00 53 65 74 46 6F 63 75 73 00 00 25 00 ....SetFocus..%.
0040F6C0 47 65 74 44 6C 67 49 74 65 6D 00 00 2B 00 46 69 GetDlgItem..+.Fi
0040F6D0 6C 6C 52 65 63 74 00 00 2C 00 4D 65 73 73 61 67 llRect..,.Messag
0040F6E0 65 42 6F 78 57 00 2E 00 53 65 74 43 61 70 74 75 eBoxW...SetCaptu
0040F6F0 72 65 00 00 30 00 42 65 67 69 6E 50 61 69 6E 74 re..0.BeginPaint
0040F700 00 00 31 00 53 68 6F 77 57 69 6E 64 6F 77 00 00 ..1.ShowWindow..
0040F710 33 00 49 73 49 63 6F 6E 69 63 00 00 34 00 47 65 3.IsIconic..4.Ge
0040F720 74 4D 65 6E 75 00 38 00 53 65 74 43 61 70 74 75 tMenu.8.SetCaptu
0040F730 72 65 00 00 3D 00 44 65 73 74 72 6F 79 57 69 6E re..=.DestroyWin
0040F740 64 6F 77 00 41 00 53 65 74 57 69 6E 64 6F 77 4C dow.A.SetWindowL
0040F750 6F 6E 67 57 00 00 43 00 47 65 74 4D 65 6E 75 00 ongW..C.GetMenu.
0040F760 44 00 47 65 74 44 43 00 45 00 47 65 74 44 6C 67 D.GetDC.E.GetDlg
0040F770 43 74 72 6C 49 44 00 00 47 00 54 72 61 6E 73 6C CtrlID..G.Transl
0040F780 61 74 65 4D 65 73 73 61 67 65 00 00 4C 00 43 68 ateMessage..L.Ch
0040F790 65 63 6B 44 6C 67 42 75 74 74 6F 6E 00 00 52 00 eckDlgButton..R.
0040F7A0 47 65 74 44 6C 67 43 74 72 6C 49 44 00 00 56 00 GetDlgCtrlID..V.
0040F7B0 47 65 74 4D 65 6E 75 00 57 00 44 65 73 74 72 6F GetMenu.W.Destro
0040F7C0 79 57 69 6E 64 6F 77 00 5B 00 47 65 74 50 61 72 yWindow.[.GetPar
0040F7D0 65 6E 74 00 60 00 53 63 72 65 65 6E 54 6F 43 6C ent.`.ScreenToCl
0040F7E0 69 65 6E 74 00 00 66 00 47 65 74 57 69 6E 64 6F ient..f.GetWindo
0040F7F0 77 4C 6F 6E 67 57 00 00 6B 00 44 65 73 74 72 6F wLongW..k.Destro
0040F800 79 49 63 6F 6E 00 6E 00 47 65 74 53 79 73 43 6F yIcon.n.GetSysCo
0040F810 6C 6F 72 00 73 00 47 65 74 53 79 73 74 65 6D 4D lor.s.GetSystemM
0040F820 65 6E 75 00 79 00 53 65 74 57 69 6E 64 6F 77 4C enu.y.SetWindowL
0040F830 6F 6E 67 57 00 00 7C 00 47 65 74 53 79 73 43 6F ongW..|.GetSysCo
0040F840 6C 6F 72 00 7E 00 49 73 44 69 61 6C 6F 67 4D 65 lor.~.IsDialogMe
0040F850 73 73 61 67 65 57 00 00 82 00 42 65 67 69 6E 50 ssageW....BeginP
0040F860 61 69 6E 74 00 00 88 00 47 65 74 43 75 72 73 6F aint....GetCurso
0040F870 72 50 6F 73 00 00 55 53 45 52 33 32 2E 44 4C 4C rPos..USER32.DLL
0040F880 00 00 00 00 00 00 00 00 00 00 00 00 00 00 00 00 ................
0040F890 00 00 00 00 00 00 00 00 00 00 00 00 00 00 00 00 ................
0040F8A0 00 00 00 00 00 00 00 00 00 00 00 00 00 00 00 00 ................
0040F8B0 00 00 00 00 00 00 00 00 00 00 00 00 00 00 00 00 ................
0040F8C0 00 00 00 00 00 00 00 00 00 00 00 00 00 00 00 00 ................
0040F8D0 00 00 00 00 00 00 00 00 00 00 00 00 00 00 00 00 ................
0040F8E0 00 00 00 00 00 00 00 00 00 00 00 00 00 00 00 00 ................
0040F8F0 00 00 00 00 00 00 00 00 00 00 00 00 00 00 00 00 ................
0040F900 00 00 00 00 00 00 00 00 00 00 00 00 00 00 00 00 ................
0040F910 00 00 00 00 00 00 00 00 00 00 00 00 00 00 00 00 ................
0040F920 00 00 00 00 00 00 00 00 00 00 00 00 00 00 00 00 ................
0040F930 00 00 00 00 00 00 00 00 00 00 00 00 00 00 00 00 ................
0040F940 00 00 00 00 00 00 00 00 00 00 00 00 00 00 00 00 ................
0040F950 00 00 00 00 00 00 00 00 00 00 00 00 00 00 00 00 ................
0040F960 00 00 00 00 00 00 00 00 00 00 00 00 00 00 00 00 ................
0040F970 00 00 00 00 00 00 00 00 00 00 00 00 00 00 00 00 ................
0040F980 00 00 00 00 00 00 00 00 00 00 00 00 00 00 00 00 ................
0040F990 00 00 00 00 00 00 00 00 00 00 00 00 00 00 00 00 ................
0040F9A0 00 00 00 00 00 00 00 00 00 00 00 00 00 00 00 00 ................
0040F9B0 00 00 00 00 00 00 00 00 00 00 00 00 00 00 00 00 ................
0040F9C0 00 00 00 00 00 00 00 00 00 00 00 00 00 00 00 00 ................
0040F9D0 00 00 00 00 00 00 00 00 00 00 00 00 00 00 00 00 ................
0040F9E0 00 00 00 00 00 00 00 00 00 00 00 00 00 00 00 00 ................
0040F9F0 00 00 00 00 00 00 00 00 00 00 00 00 00 00 00 00 ................
0040FA00 00 00 00 00 00 00 00 00 00 00 00 00 00 00 00 00 ................
0040FA10 00 00 00 00 00 00 00 00 00 00 00 00 00 00 00 00 ................
0040FA20 00 00 00 00 00 00 00 00 00 00 00 00 00 00 00 00 ................
0040FA30 00 00 00 00 00 00 00 00 00 00 00 00 00 00 00 00 ................
0040FA40 00 00 00 00 00 00 00 00 00 00 00 00 00 00 00 00 ................
0040FA50 00 00 00 00 00 00 00 00 00 00 00 00 00 00 00 00 ................
0040FA60 00 00 00 00 00 00 00 00 00 00 00 00 00 00 00 00 ................
0040FA70 00 00 00 00 00 00 00 00 00 00 00 00 00 00 00 00 ................
0040FA80 00 00 00 00 00 00 00 00 00 00 00 00 00 00 00 00 ................
0040FA90 00 00 00 00 00 00 00 00 00 00 00 00 00 00 00 00 ................
0040FAA0 00 00 00 00 00 00 00 00 00 00 00 00 00 00 00 00 ................
0040FAB0 00 00 00 00 00 00 00 00 00 00 00 00 00 00 00 00 ................
0040FAC0 00 00 00 00 00 00 00 00 00 00 00 00 00 00 00 00 ................
0040FAD0 00 00 00 00 00 00 00 00 00 00 00 00 00 00 00 00 ................
0040FAE0 00 00 00 00 00 00 00 00 00 00 00 00 00 00 00 00 ................
0040FAF0 00 00 00 00 00 00 00 00 00 00 00 00 00 00 00 00 ................
0040FB00 00 00 00 00 00 00 00 00 00 00 00 00 00 00 00 00 ................
0040FB10 00 00 00 00 00 00 00 00 00 00 00 00 00 00 00 00 ................
0040FB20 00 00 00 00 00 00 00 00 00 00 00 00 00 00 00 00 ................
0040FB30 00 00 00 00 00 00 00 00 00 00 00 00 00 00 00 00 ................
0040FB40 00 00 00 00 00 00 00 00 00 00 00 00 00 00 00 00 ................
0040FB50 00 00 00 00 00 00 00 00 00 00 00 00 00 00 00 00 ................
0040FB60 00 00 00 00 00 00 00 00 00 00 00 00 00 00 00 00 ................
0040FB70 00 00 00 00 00 00 00 00 00 00 00 00 00 00 00 00 ................
0040FB80 00 00 00 00 00 00 00 00 00 00 00 00 00 00 00 00 ................
0040FB90 00 00 00 00 00 00 00 00 00 00 00 00 00 00 00 00 ................
0040FBA0 00 00 00 00 00 00 00 00 00 00 00 00 00 00 00 00 ................
0040FBB0 00 00 00 00 00 00 00 00 00 00 00 00 00 00 00 00 ................
0040FBC0 00 00 00 00 00 00 00 00 00 00 00 00 00 00 00 00 ................
0040FBD0 00 00 00 00 00 00 00 00 00 00 00 00 00 00 00 00 ................
0040FBE0 00 00 00 00 00 00 00 00 00 00 00 00 00 00 00 00 ................
0040FBF0 00 00 00 00 00 00 00 00 00 00 00 00 00 00 00 00 ................
0040FC00 00 00 00 00 00 00 00 00 00 00 00 00 00 00 00 00 ................
0040FC10 00 00 00 00 00 00 00 00 00 00 00 00 00 00 00 00 ................
0040FC20 00 00 00 00 00 00 00 00 00 00 00 00 00 00 00 00 ................
0040FC30 00 00 00 00 00 00 00 00 00 00 00 00 00 00 00 00 ................
0040FC40 00 00 00 00 00 00 00 00 00 00 00 00 00 00 00 00 ................
0040FC50 00 00 00 00 00 00 00 00 00 00 00 00 00 00 00 00 ................
0040FC60 00 00 00 00 00 00 00 00 00 00 00 00 00 00 00 00 ................
0040FC70 00 00 00 00 00 00 00 00 00 00 00 00 00 00 00 00 ................
0040FC80 00 00 00 00 00 00 00 00 00 00 00 00 00 00 00 00 ................
0040FC90 00 00 00 00 00 00 00 00 00 00 00 00 00 00 00 00 ................
0040FCA0 00 00 00 00 00 00 00 00 00 00 00 00 00 00 00 00 ................
0040FCB0 00 00 00 00 00 00 00 00 00 00 00 00 00 00 00 00 ................
0040FCC0 00 00 00 00 00 00 00 00 00 00 00 00 00 00 00 00 ................
0040FCD0 00 00 00 00 00 00 00 00 00 00 00 00 00 00 00 00 ................
0040FCE0 00 00 00 00 00 00 00 00 00 00 00 00 00 00 00 00 ................
0040FCF0 00 00 00 00 00 00 00 00 00 00 00 00 00 00 00 00 ................
0040FD00 00 00 00 00 00 00 00 00 00 00 00 00 00 00 00 00 ................
0040FD10 00 00 00 00 00 00 00 00 00 00 00 00 00 00 00 00 ................
0040FD20 00 00 00 00 00 00 00 00 00 00 00 00 00 00 00 00 ................
0040FD30 00 00 00 00 00 00 00 00 00 00 00 00 00 00 00 00 ................
0040FD40 00 00 00 00 00 00 00 00 00 00 00 00 00 00 00 00 ................
0040FD50 00 00 00 00 00 00 00 00 00 00 00 00 00 00 00 00 ................
0040FD60 00 00 00 00 00 00 00 00 00 00 00 00 00 00 00 00 ................
0040FD70 00 00 00 00 00 00 00 00 00 00 00 00 00 00 00 00 ................
0040FD80 00 00 00 00 00 00 00 00 00 00 00 00 00 00 00 00 ................
0040FD90 00 00 00 00 00 00 00 00 00 00 00 00 00 00 00 00 ................
0040FDA0 00 00 00 00 00 00 00 00 00 00 00 00 00 00 00 00 ................
0040FDB0 00 00 00 00 00 00 00 00 00 00 00 00 00 00 00 00 ................
0040FDC0 00 00 00 00 00 00 00 00 00 00 00 00 00 00 00 00 ................
0040FDD0 00 00 00 00 00 00 00 00 00 00 00 00 00 00 00 00 ................
0040FDE0 00 00 00 00 00 00 00 00 00 00 00 00 00 00 00 00 ................
0040FDF0 00 00 00 00 00 00 00 00 00 00 00 00 00 00 00 00 ................
0040FE00 00 00 00 00 00 00 00 00 00 00 00 00 00 00 00 00 ................
0040FE10 00 00 00 00 00 00 00 00 00 00 00 00 00 00 00 00 ................
0040FE20 00 00 00 00 00 00 00 00 00 00 00 00 00 00 00 00 ................
0040FE30 00 00 00 00 00 00 00 00 00 00 00 00 00 00 00 00 ................
0040FE40 00 00 00 00 00 00 00 00 00 00 00 00 00 00 00 00 ................
0040FE50 00 00 00 00 00 00 00 00 00 00 00 00 00 00 00 00 ................
0040FE60 00 00 00 00 00 00 00 00 00 00 00 00 00 00 00 00 ................
0040FE70 00 00 00 00 00 00 00 00 00 00 00 00 00 00 00 00 ................
0040FE80 00 00 00 00 00 00 00 00 00 00 00 00 00 00 00 00 ................
0040FE90 00 00 00 00 00 00 00 00 00 00 00 00 00 00 00 00 ................
0040FEA0 00 00 00 00 00 00 00 00 00 00 00 00 00 00 00 00 ................
0040FEB0 00 00 00 00 00 00 00 00 00 00 00 00 00 00 00 00 ................
0040FEC0 00 00 00 00 00 00 00 00 00 00 00 00 00 00 00 00 ................
0040FED0 00 00 00 00 00 00 00 00 00 00 00 00 00 00 00 00 ................
0040FEE0 00 00 00 00 00 00 00 00 00 00 00 00 00 00 00 00 ................
0040FEF0 00 00 00 00 00 00 00 00 00 00 00 00 00 00 00 00 ................
0040FF00 00 00 00 00 00 00 00 00 00 00 00 00 00 00 00 00 ................
0040FF10 00 00 00 00 00 00 00 00 00 00 00 00 00 00 00 00 ................
0040FF20 00 00 00 00 00 00 00 00 00 00 00 00 00 00 00 00 ................
0040FF30 00 00 00 00 00 00 00 00 00 00 00 00 00 00 00 00 ................
0040FF40 00 00 00 00 00 00 00 00 00 00 00 00 00 00 00 00 ................
0040FF50 00 00 00 00 00 00 00 00 00 00 00 00 00 00 00 00 ................
0040FF60 00 00 00 00 00 00 00 00 00 00 00 00 00 00 00 00 ................
0040FF70 00 00 00 00 00 00 00 00 00 00 00 00 00 00 00 00 ................
0040FF80 00 00 00 00 00 00 00 00 00 00 00 00 00 00 00 00 ................
0040FF90 00 00 00 00 00 00 00 00 00 00 00 00 00 00 00 00 ................
0040FFA0 00 00 00 00 00 00 00 00 00 00 00 00 00 00 00 00 ................
0040FFB0 00 00 00 00 00 00 00 00 00 00 00 00 00 00 00 00 ................
0040FFC0 00 00 00 00 00 00 00 00 00 00 00 00 00 00 00 00 ................
0040FFD0 00 00 00 00 00 00 00 00 00 00 00 00 00 00 00 00 ................
0040FFE0 00 00 00 00 00 00 00 00 00 00 00 00 00 00 00 00 ................
0040FFF0 00 00 00 00 00 00 00 00 00 00 00 00 00 00 00 00 ................
00410000 00 00 00 00 00 00 00 00 00 00 00 00 00 00 03 00 ................
00410010 03 00 00 00 28 00 00 80 0E 00 00 00 40 00 00 80 ....(.......@...
00410020 10 00 00 00 58 00 00 80 00 00 00 00 00 00 00 00 ....X...........
00410030 00 00 00 00 00 00 01 00 01 00 00 00 70 00 00 80 ............p...
00410040 00 00 00 00 00 00 00 00 00 00 00 00 00 00 01 00 ................
00410050 A8 86 00 00 88 00 00 80 00 00 00 00 00 00 00 00 ................
00410060 00 00 00 00 00 00 01 00 1D A3 00 00 A0 00 00 80 ................
00410070 00 00 00 00 00 00 00 00 00 00 00 00 00 00 01 00 ................
00410080 19 04 00 00 B8 00 00 00 00 00 00 00 00 00 00 00 ................
00410090 00 00 00 00 00 00 01 00 19 04 00 00 C8 00 00 00 ................
004100A0 00 00 00 00 00 00 00 00 00 00 00 00 00 00 01 00 ................
004100B0 19 04 00 00 D8 00 00 00 E8 00 01 00 A8 08 00 00 ................
004100C0 00 00 00 00 00 00 00 00 90 09 01 00 14 00 00 00 ................
004100D0 00 00 00 00 00 00 00 00 A4 09 01 00 0C 03 00 00 ................
004100E0 00 00 00 00 00 00 00 00 28 00 00 00 20 00 00 00 ........(... ...
004100F0 40 00 00 00 01 00 08 00 00 00 00 00 00 04 00 00 @...............
00410100 00 00 00 00 00 00 00 00 00 00 00 00 00 00 00 00 ................
00410110 00 00 00 00 00 00 80 00 00 80 00 00 00 80 80 00 ................
00410120 80 00 00 00 80 00 80 00 80 80 00 00 C0 C0 C0 00 ................
00410130 C0 DC C0 00 F0 CA A6 00 00 20 40 00 00 20 60 00 ......... @.. `.
00410140 00 20 80 00 00 20 A0 00 00 20 C0 00 00 20 E0 00 . ... ... ... ..
00410150 00 40 00 00 00 40 20 00 00 40 40 00 00 40 60 00 .@...@ ..@@..@`.
00410160 00 40 80 00 00 40 A0 00 00 40 C0 00 00 40 E0 00 .@...@...@...@..
00410170 00 60 00 00 00 60 20 00 00 60 40 00 00 60 60 00 .`...` ..`@..``.
00410180 00 60 80 00 00 60 A0 00 00 60 C0 00 00 60 E0 00 .`...`...`...`..
00410190 00 80 00 00 00 80 20 00 00 80 40 00 00 80 60 00 ...... ...@...`.
004101A0 00 80 80 00 00 80 A0 00 00 80 C0 00 00 80 E0 00 ................
004101B0 00 A0 00 00 00 A0 20 00 00 A0 40 00 00 A0 60 00 ...... ...@...`.
004101C0 00 A0 80 00 00 A0 A0 00 00 A0 C0 00 00 A0 E0 00 ................
004101D0 00 C0 00 00 00 C0 20 00 00 C0 40 00 00 C0 60 00 ...... ...@...`.
004101E0 00 C0 80 00 00 C0 A0 00 00 C0 C0 00 00 C0 E0 00 ................
004101F0 00 E0 00 00 00 E0 20 00 00 E0 40 00 00 E0 60 00 ...... ...@...`.
00410200 00 E0 80 00 00 E0 A0 00 00 E0 C0 00 00 E0 E0 00 ................
00410210 40 00 00 00 40 00 20 00 40 00 40 00 40 00 60 00 @...@. .@.@.@.`.
00410220 40 00 80 00 40 00 A0 00 40 00 C0 00 40 00 E0 00 @...@...@...@...
00410230 40 20 00 00 40 20 20 00 40 20 40 00 40 20 60 00 @ ..@  .@ @.@ `.
00410240 40 20 80 00 40 20 A0 00 40 20 C0 00 40 20 E0 00 @ ..@ ..@ ..@ ..
00410250 40 40 00 00 40 40 20 00 40 40 40 00 40 40 60 00 @@..@@ .@@@.@@`.
00410260 40 40 80 00 40 40 A0 00 40 40 C0 00 40 40 E0 00 @@..@@..@@..@@..
00410270 40 60 00 00 40 60 20 00 40 60 40 00 40 60 60 00 @`..@` .@`@.@``.
00410280 40 60 80 00 40 60 A0 00 40 60 C0 00 40 60 E0 00 @`..@`..@`..@`..
00410290 40 80 00 00 40 80 20 00 40 80 40 00 40 80 60 00 @...@. .@.@.@.`.
004102A0 40 80 80 00 40 80 A0 00 40 80 C0 00 40 80 E0 00 @...@...@...@...
004102B0 40 A0 00 00 40 A0 20 00 40 A0 40 00 40 A0 60 00 @...@. .@.@.@.`.
004102C0 40 A0 80 00 40 A0 A0 00 40 A0 C0 00 40 A0 E0 00 @...@...@...@...
004102D0 40 C0 00 00 40 C0 20 00 40 C0 40 00 40 C0 60 00 @...@. .@.@.@.`.
004102E0 40 C0 80 00 40 C0 A0 00 40 C0 C0 00 40 C0 E0 00 @...@...@...@...
004102F0 40 E0 00 00 40 E0 20 00 40 E0 40 00 40 E0 60 00 @...@. .@.@.@.`.
00410300 40 E0 80 00 40 E0 A0 00 40 E0 C0 00 40 E0 E0 00 @...@...@...@...
00410310 80 00 00 00 80 00 20 00 80 00 40 00 80 00 60 00 ...... ...@...`.
00410320 80 00 80 00 80 00 A0 00 80 00 C0 00 80 00 E0 00 ................
00410330 80 20 00 00 80 20 20 00 80 20 40 00 80 20 60 00 . ...  .. @.. `.
00410340 80 20 80 00 80 20 A0 00 80 20 C0 00 80 20 E0 00 . ... ... ... ..
00410350 80 40 00 00 80 40 20 00 80 40 40 00 80 40 60 00 .@...@ ..@@..@`.
00410360 80 40 80 00 80 40 A0 00 80 40 C0 00 80 40 E0 00 .@...@...@...@..
00410370 80 60 00 00 80 60 20 00 80 60 40 00 80 60 60 00 .`...` ..`@..``.
00410380 80 60 80 00 80 60 A0 00 80 60 C0 00 80 60 E0 00 .`...`...`...`..
00410390 80 80 00 00 80 80 20 00 80 80 40 00 80 80 60 00 ...... ...@...`.
004103A0 80 80 80 00 80 80 A0 00 80 80 C0 00 80 80 E0 00 ................
004103B0 80 A0 00 00 80 A0 20 00 80 A0 40 00 80 A0 60 00 ...... ...@...`.
004103C0 80 A0 80 00 80 A0 A0 00 80 A0 C0 00 80 A0 E0 00 ................
004103D0 80 C0 00 00 80 C0 20 00 80 C0 40 00 80 C0 60 00 ...... ...@...`.
004103E0 80 C0 80 00 80 C0 A0 00 80 C0 C0 00 80 C0 E0 00 ................
004103F0 80 E0 00 00 80 E0 20 00 80 E0 40 00 80 E0 60 00 ...... ...@...`.
00410400 80 E0 80 00 80 E0 A0 00 80 E0 C0 00 80 E0 E0 00 ................
00410410 C0 00 00 00 C0 00 20 00 C0 00 40 00 C0 00 60 00 ...... ...@...`.
00410420 C0 00 80 00 C0 00 A0 00 C0 00 C0 00 C0 00 E0 00 ................
00410430 C0 20 00 00 C0 20 20 00 C0 20 40 00 C0 20 60 00 . ...  .. @.. `.
00410440 C0 20 80 00 C0 20 A0 00 C0 20 C0 00 C0 20 E0 00 . ... ... ... ..
00410450 C0 40 00 00 C0 40 20 00 C0 40 40 00 C0 40 60 00 .@...@ ..@@..@`.
00410460 C0 40 80 00 C0 40 A0 00 C0 40 C0 00 C0 40 E0 00 .@...@...@...@..
00410470 C0 60 00 00 C0 60 20 00 C0 60 40 00 C0 60 60 00 .`...` ..`@..``.
00410480 C0 60 80 00 C0 60 A0 00 C0 60 C0 00 C0 60 E0 00 .`...`...`...`..
00410490 C0 80 00 00 C0 80 20 00 C0 80 40 00 C0 80 60 00 ...... ...@...`.
004104A0 C0 80 80 00 C0 80 A0 00 C0 80 C0 00 C0 80 E0 00 ................
004104B0 C0 A0 00 00 C0 A0 20 00 C0 A0 40 00 C0 A0 60 00 ...... ...@...`.
004104C0 C0 A0 80 00 C0 A0 A0 00 C0 A0 C0 00 C0 A0 E0 00 ................
004104D0 C0 C0 00 00 C0 C0 20 00 C0 C0 40 00 C0 C0 60 00 ...... ...@...`.
004104E0 C0 C0 80 00 C0 C0 A0 00 F0 FB FF 00 A4 A0 A0 00 ................
004104F0 80 80 80 00 00 00 FF 00 00 FF 00 00 00 FF FF 00 ................
00410500 FF 00 00 00 FF 00 FF 00 FF FF 00 00 FF FF FF 00 ................
00410510 00 00 00 00 00 00 00 00 00 00 00 00 00 00 00 00 ................
00410520 00 00 00 00 00 00 00 00 00 00 00 00 00 00 00 00 ................
00410530 00 00 00 00 00 00 ED A3 9A 9A 92 92 92 92 92 92 ................
00410540 92 92 92 92 92 92 92 92 92 92 92 92 92 92 92 00 ................
00410550 00 00 00 00 00 00 ED F6 07 09 09 09 09 09 09 09 ................
00410560 09 09 EC 09 09 EC EC EC EC EB EB EB EB EB 92 00 ................
00410570 00 00 00 00 00 00 ED F6 F6 F6 F6 F6 F6 F6 F6 F6 ................
00410580 F6 F6 F6 F6 F6 F6 F6 F6 09 09 09 09 09 EB 92 00 ................
00410590 00 00 00 00 00 00 ED F6 F6 F6 F6 F6 F6 F6 F6 F6 ................
004105A0 F6 F6 F6 F6 F6 F6 F6 F6 F6 F6 09 09 09 EB 92 00 ................
004105B0 00 00 00 00 00 00 ED F6 F6 F5 F5 ED ED EC EC EC ................
004105C0 E3 E3 E3 E3 E3 E3 E3 E3 E3 E3 F6 F6 09 EB 92 00 ................
004105D0 00 00 00 00 00 00 ED FF FF F5 FF FF FF F6 EC F6 ................
004105E0 F6 EC FF E3 F6 F6 EC FF E3 F6 F6 F6 F6 EB 92 00 ................
004105F0 00 00 00 00 00 00 ED FF FF F5 FF FF FF FF ED FF ................
00410600 FF EC FF E3 F6 F6 EC FF E3 F6 F6 F6 F6 EC 92 00 ................
00410610 00 00 00 00 00 00 ED FF FF F5 F5 F5 F5 F5 F5 ED ................
00410620 FF EC FF E3 F6 F6 EC FF E3 F6 F6 F6 F6 EC 92 00 ................
00410630 00 00 00 00 00 00 ED FF FF 09 FF FF FF FF F5 FF ................
00410640 FF ED FF E3 EC EC EC FF E3 F6 F6 F6 F6 EC 92 00 ................
00410650 00 00 00 00 00 00 ED FF FF 09 FF FF FF FF F5 FF ................
00410660 FF F5 FF E3 FF FF EC FF E3 F6 F6 F6 F6 EC 92 00 ................
00410670 00 00 00 00 00 00 ED FF FF 09 09 09 09 09 F5 F5 ................
00410680 FF F5 F5 E3 FF FF EC FF E3 F6 F6 F6 F6 EC 92 00 ................
00410690 00 00 00 00 00 00 ED FF FF 09 FF FF FF FF 09 FF ................
004106A0 FF FF FF FF FF FF ED ED E3 F6 F6 F6 F6 09 92 00 ................
004106B0 00 00 00 00 00 00 ED 08 08 ED 07 07 07 ED ED 08 ................
004106C0 FF FF FF F5 FF FF FF FF FF FF F6 F6 F6 09 92 00 ................
004106D0 00 00 00 00 00 00 F7 F7 F5 07 07 08 08 F6 08 ED ................
004106E0 EC 09 F5 F5 F5 F5 F5 F5 ED FF FF F6 F6 EC 92 00 ................
004106F0 00 19 18 AC 08 08 FF FF FF F6 F6 F6 F6 F6 08 07 ................
00410700 F6 FF FF 09 FF FF FF FF F5 FF FF FF F6 09 92 00 ................
00410710 00 19 B5 08 FF FF FF FF F6 F6 B5 1A 1A F6 F6 07 ................
00410720 F6 FF FF 09 FF FF FF FF F5 FF FF FF FF 09 92 00 ................
00410730 00 19 07 AC FF 08 B4 B4 B4 AB 22 1A 6B F6 F6 ED ..........".k...
00410740 F5 09 09 09 09 09 09 F5 F5 FF FF FF FF 09 92 00 ................
00410750 00 19 08 62 FF FF 08 B4 B4 62 1A 6C AB B5 F6 07 ...b.....b.l....
00410760 08 FF FF 09 FF FF FF FF F5 FF FF FF FF 09 92 00 ................
00410770 00 19 08 19 F6 FF FF 08 6B 1A 22 08 FF F6 F6 07 ........k.".....
00410780 08 FF FF 09 FF FF FF FF 09 FF FF FF FF 09 92 00 ................
00410790 00 21 08 19 07 FF FF 08 22 22 6B B4 F5 F6 F6 07 .!......""k.....
004107A0 F5 09 09 09 09 09 09 09 09 FF FF FF FF 09 92 00 ................
004107B0 00 21 08 19 AC FF F6 22 1A B5 F6 B4 B4 B4 F6 08 .!....."........
004107C0 08 FF FF 09 FF FF FF FF 09 FF FF FF FF 09 92 00 ................
004107D0 00 21 08 AC B4 FF 63 62 6C FF FF FF FF FF FF 08 .!....cbl.......
004107E0 08 FF FF 09 FF FF FF FF 07 09 09 09 09 09 92 00 ................
004107F0 00 61 08 B4 B4 FF FF FF FF FF FF FF FF FF FF F6 .a..............
00410800 07 09 09 09 09 09 09 ED A3 A3 9B 9A 9A 9A 92 00 ................
00410810 00 61 08 B5 B4 08 08 08 08 08 08 F5 B5 08 6B FF .a............k.
00410820 FF FF FF FF FF FF FF ED 09 09 09 09 09 92 F6 00 ................
00410830 00 61 B5 F6 B5 B5 B5 B5 B5 B5 B5 B5 B5 F6 61 FF .a............a.
00410840 FF FF FF FF FF FF FF ED F6 F6 09 09 92 F6 F6 00 ................
00410850 00 61 61 08 F6 08 BD BD BD BD BD BD B5 F6 61 F6 .aa...........a.
00410860 09 09 09 FF FF FF FF F5 F6 F6 09 92 F6 F6 00 00 ................
00410870 00 00 61 61 B5 08 F6 F6 F6 F6 F6 F6 F6 F6 61 FF ..aa..........a.
00410880 FF FF FF FF FF FF FF F5 F6 F6 9A F6 F6 00 00 00 ................
00410890 00 00 00 61 61 61 61 61 61 61 61 61 61 61 61 FF ...aaaaaaaaaaaa.
004108A0 FF FF FF FF FF FF FF F5 F6 9B F6 F6 00 00 00 00 ................
004108B0 00 00 00 00 00 00 07 FF FF FF FF FF FF FF FF FF ................
004108C0 FF FF FF FF FF FF FF F5 A4 F6 F6 00 00 00 00 00 ................
004108D0 00 00 00 00 00 00 07 07 07 07 07 F5 F5 F5 F5 F5 ................
004108E0 F5 F5 F5 F5 F5 F5 F5 F5 F6 F6 00 00 00 00 00 00 ................
004108F0 00 00 00 00 00 00 00 00 00 00 00 00 00 00 00 00 ................
00410900 00 00 00 00 00 00 00 00 00 00 00 00 00 00 00 00 ................
00410910 FF FF FF FF FC 00 00 01 FC 00 00 01 FC 00 00 01 ................
00410920 FC 00 00 01 FC 00 00 01 FC 00 00 01 FC 00 00 01 ................
00410930 FC 00 00 01 FC 00 00 01 FC 00 00 01 FC 00 00 01 ................
00410940 FC 00 00 01 C0 00 00 01 C0 00 00 01 80 00 00 01 ................
00410950 80 00 00 01 80 00 00 01 80 00 00 01 80 00 00 01 ................
00410960 80 00 00 01 80 00 00 01 80 00 00 01 80 00 00 01 ................
00410970 80 00 00 01 80 00 00 01 80 00 00 03 C0 00 00 07 ................
00410980 E0 00 00 0F FC 00 00 1F FC 00 00 3F FF FF FF FF ...........?....
00410990 00 00 01 00 01 00 20 20 08 00 00 00 00 00 A8 08 ......  ........
004109A0 00 00 01 00 0C 03 34 00 00 00 56 00 53 00 5F 00 ......4...V.S._.
004109B0 56 00 45 00 52 00 53 00 49 00 4F 00 4E 00 5F 00 V.E.R.S.I.O.N._.
004109C0 49 00 4E 00 46 00 4F 00 00 00 00 00 BD 04 EF FE I.N.F.O.........
004109D0 00 00 01 00 D1 D2 7B 68 D1 D2 7B 68 D1 D2 7B 68 ......{h..{h..{h
004109E0 D1 D2 7B 68 D1 D2 00 00 00 00 00 00 04 00 04 00 ..{h............
004109F0 01 00 00 00 00 00 00 00 00 00 00 00 00 00 00 00 ................
00410A00 6C 02 00 00 00 00 53 00 74 00 72 00 69 00 6E 00 l.....S.t.r.i.n.
00410A10 67 00 46 00 69 00 6C 00 65 00 49 00 6E 00 66 00 g.F.i.l.e.I.n.f.
00410A20 6F 00 00 00 48 02 00 00 00 00 30 00 38 00 30 00 o...H.....0.8.0.
00410A30 30 00 30 00 34 00 42 00 30 00 00 00 40 00 0F 00 0.0.4.B.0...@...
00410A40 01 00 43 00 6F 00 6D 00 70 00 61 00 6E 00 79 00 ..C.o.m.p.a.n.y.
00410A50 4E 00 61 00 6D 00 65 00 00 00 00 00 70 00 38 00 N.a.m.e.....p.8.
00410A60 42 00 37 00 38 00 75 00 6D 00 54 00 55 00 66 00 B.7.8.u.m.T.U.f.
00410A70 6F 00 64 00 6B 00 4B 00 00 00 00 00 50 00 14 00 o.d.k.K.....P...
00410A80 01 00 46 00 69 00 6C 00 65 00 44 00 65 00 73 00 ..F.i.l.e.D.e.s.
00410A90 63 00 72 00 69 00 70 00 74 00 69 00 6F 00 6E 00 c.r.i.p.t.i.o.n.
00410AA0 00 00 00 00 59 00 75 00 78 00 77 00 4A 00 31 00 ....Y.u.x.w.J.1.
00410AB0 75 00 77 00 67 00 6E 00 4A 00 66 00 47 00 53 00 u.w.g.n.J.f.G.S.
00410AC0 66 00 65 00 4D 00 62 00 54 00 00 00 38 00 0C 00 f.e.M.b.T...8...
00410AD0 01 00 46 00 69 00 6C 00 65 00 56 00 65 00 72 00 ..F.i.l.e.V.e.r.
00410AE0 73 00 69 00 6F 00 6E 00 00 00 00 00 70 00 41 00 s.i.o.n.....p.A.
00410AF0 58 00 79 00 48 00 42 00 55 00 72 00 6D 00 72 00 X.y.H.B.U.r.m.r.
00410B00 6C 00 00 00 48 00 14 00 01 00 49 00 6E 00 74 00 l...H.....I.n.t.
00410B10 65 00 72 00 6E 00 61 00 6C 00 4E 00 61 00 6D 00 e.r.n.a.l.N.a.m.
00410B20 65 00 00 00 4C 00 72 00 76 00 78 00 71 00 6C 00 e...L.r.v.x.q.l.
00410B30 63 00 56 00 73 00 79 00 46 00 72 00 64 00 68 00 c.V.s.y.F.r.d.h.
00410B40 66 00 70 00 62 00 63 00 36 00 00 00 4C 00 13 00 f.p.b.c.6...L...
00410B50 01 00 4C 00 65 00 67 00 61 00 6C 00 43 00 6F 00 ..L.e.g.a.l.C.o.
00410B60 70 00 79 00 72 00 69 00 67 00 68 00 74 00 00 00 p.y.r.i.g.h.t...
00410B70 31 00 48 00 52 00 73 00 48 00 77 00 66 00 41 00 1.H.R.s.H.w.f.A.
00410B80 53 00 70 00 31 00 44 00 56 00 76 00 4A 00 41 00 S.p.1.D.V.v.J.A.
00410B90 4A 00 35 00 00 00 00 00 50 00 13 00 01 00 4F 00 J.5.....P.....O.
00410BA0 72 00 69 00 67 00 69 00 6E 00 61 00 6C 00 46 00 r.i.g.i.n.a.l.F.
00410BB0 69 00 6C 00 65 00 6E 00 61 00 6D 00 65 00 00 00 i.l.e.n.a.m.e...
00410BC0 41 00 4C 00 56 00 54 00 4E 00 65 00 33 00 53 00 A.L.V.T.N.e.3.S.
00410BD0 70 00 6E 00 48 00 52 00 66 00 33 00 32 00 33 00 p.n.H.R.f.3.2.3.
00410BE0 54 00 4E 00 00 00 00 00 48 00 13 00 01 00 50 00 T.N.....H.....P.
00410BF0 72 00 6F 00 64 00 75 00 63 00 74 00 4E 00 61 00 r.o.d.u.c.t.N.a.
00410C00 6D 00 65 00 00 00 00 00 36 00 74 00 4D 00 68 00 m.e.....6.t.M.h.
00410C10 6C 00 67 00 6D 00 79 00 35 00 66 00 56 00 35 00 l.g.m.y.5.f.V.5.
00410C20 4C 00 4C 00 59 00 6C 00 62 00 76 00 00 00 00 00 L.L.Y.l.b.v.....
00410C30 3C 00 0C 00 01 00 50 00 72 00 6F 00 64 00 75 00 <.....P.r.o.d.u.
00410C40 63 00 74 00 56 00 65 00 72 00 73 00 69 00 6F 00 c.t.V.e.r.s.i.o.
00410C50 6E 00 00 00 56 00 32 00 6A 00 4C 00 79 00 52 00 n...V.2.j.L.y.R.
00410C60 49 00 6B 00 49 00 6B 00 59 00 00 00 44 00 00 00 I.k.I.k.Y...D...
00410C70 00 00 56 00 61 00 72 00 46 00 69 00 6C 00 65 00 ..V.a.r.F.i.l.e.
00410C80 49 00 6E 00 66 00 6F 00 00 00 00 00 24 00 04 00 I.n.f.o.....$...
00410C90 00 00 54 00 72 00 61 00 6E 00 73 00 6C 00 61 00 ..T.r.a.n.s.l.a.
00410CA0 74 00 69 00 6F 00 6E 00 00 00 00 00 00 08 B0 04 t.i.o.n.........
00410CB0 00 00 00 00 00 00 00 00 00 00 00 00 00 00 00 00 ................
00410CC0 00 00 00 00 00 00 00 00 00 00 00 00 00 00 00 00 ................
00410CD0 00 00 00 00 00 00 00 00 00 00 00 00 00 00 00 00 ................
00410CE0 00 00 00 00 00 00 00 00 00 00 00 00 00 00 00 00 ................
00410CF0 00 00 00 00 00 00 00 00 00 00 00 00 00 00 00 00 ................
00410D00 00 00 00 00 00 00 00 00 00 00 00 00 00 00 00 00 ................
00410D10 00 00 00 00 00 00 00 00 00 00 00 00 00 00 00 00 ................
00410D20 00 00 00 00 00 00 00 00 00 00 00 00 00 00 00 00 ................
00410D30 00 00 00 00 00 00 00 00 00 00 00 00 00 00 00 00 ................
00410D40 00 00 00 00 00 00 00 00 00 00 00 00 00 00 00 00 ................
00410D50 00 00 00 00 00 00 00 00 00 00 00 00 00 00 00 00 ................
00410D60 00 00 00 00 00 00 00 00 00 00 00 00 00 00 00 00 ................
00410D70 00 00 00 00 00 00 00 00 00 00 00 00 00 00 00 00 ................
00410D80 00 00 00 00 00 00 00 00 00 00 00 00 00 00 00 00 ................
00410D90 00 00 00 00 00 00 00 00 00 00 00 00 00 00 00 00 ................
00410DA0 00 00 00 00 00 00 00 00 00 00 00 00 00 00 00 00 ................
00410DB0 00 00 00 00 00 00 00 00 00 00 00 00 00 00 00 00 ................
00410DC0 00 00 00 00 00 00 00 00 00 00 00 00 00 00 00 00 ................
00410DD0 00 00 00 00 00 00 00 00 00 00 00 00 00 00 00 00 ................
00410DE0 00 00 00 00 00 00 00 00 00 00 00 00 00 00 00 00 ................
00410DF0 00 00 00 00 00 00 00 00 00 00 00 00 00 00 00 00 ................
00410E00 00 00 00 00 00 00 00 00 00 00 00 00 00 00 00 00 ................
00410E10 00 00 00 00 00 00 00 00 00 00 00 00 00 00 00 00 ................
00410E20 00 00 00 00 00 00 00 00 00 00 00 00 00 00 00 00 ................
00410E30 00 00 00 00 00 00 00 00 00 00 00 00 00 00 00 00 ................
00410E40 00 00 00 00 00 00 00 00 00 00 00 00 00 00 00 00 ................
00410E50 00 00 00 00 00 00 00 00 00 00 00 00 00 00 00 00 ................
00410E60 00 00 00 00 00 00 00 00 00 00 00 00 00 00 00 00 ................
00410E70 00 00 00 00 00 00 00 00 00 00 00 00 00 00 00 00 ................
00410E80 00 00 00 00 00 00 00 00 00 00 00 00 00 00 00 00 ................
00410E90 00 00 00 00 00 00 00 00 00 00 00 00 00 00 00 00 ................
00410EA0 00 00 00 00 00 00 00 00 00 00 00 00 00 00 00 00 ................
00410EB0 00 00 00 00 00 00 00 00 00 00 00 00 00 00 00 00 ................
00410EC0 00 00 00 00 00 00 00 00 00 00 00 00 00 00 00 00 ................
00410ED0 00 00 00 00 00 00 00 00 00 00 00 00 00 00 00 00 ................
00410EE0 00 00 00 00 00 00 00 00 00 00 00 00 00 00 00 00 ................
00410EF0 00 00 00 00 00 00 00 00 00 00 00 00 00 00 00 00 ................
00410F00 00 00 00 00 00 00 00 00 00 00 00 00 00 00 00 00 ................
00410F10 00 00 00 00 00 00 00 00 00 00 00 00 00 00 00 00 ................
00410F20 00 00 00 00 00 00 00 00 00 00 00 00 00 00 00 00 ................
00410F30 00 00 00 00 00 00 00 00 00 00 00 00 00 00 00 00 ................
00410F40 00 00 00 00 00 00 00 00 00 00 00 00 00 00 00 00 ................
00410F50 00 00 00 00 00 00 00 00 00 00 00 00 00 00 00 00 ................
00410F60 00 00 00 00 00 00 00 00 00 00 00 00 00 00 00 00 ................
00410F70 00 00 00 00 00 00 00 00 00 00 00 00 00 00 00 00 ................
00410F80 00 00 00 00 00 00 00 00 00 00 00 00 00 00 00 00 ................
00410F90 00 00 00 00 00 00 00 00 00 00 00 00 00 00 00 00 ................
00410FA0 00 00 00 00 00 00 00 00 00 00 00 00 00 00 00 00 ................
00410FB0 00 00 00 00 00 00 00 00 00 00 00 00 00 00 00 00 ................
00410FC0 00 00 00 00 00 00 00 00 00 00 00 00 00 00 00 00 ................
00410FD0 00 00 00 00 00 00 00 00 00 00 00 00 00 00 00 00 ................
00410FE0 00 00 00 00 00 00 00 00 00 00 00 00 00 00 00 00 ................
00410FF0 00 00 00 00 00 00 00 00 00 00 00 00 00 00 00 00 ................
00411000 
...end of image
