00400000 00 00 00 00 00 00 00 00 00 00 00 00 00 00 00 00 ................
00400010 00 00 00 00 00 00 00 00 00 00 00 00 00 00 00 00 ................
00400020 00 00 00 00 00 00 00 00 00 00 00 00 00 00 00 00 ................
00400030 00 00 00 00 00 00 00 00 00 00 00 00 00 00 00 00 ................
00400040 00 00 00 00 00 00 00 00 00 00 00 00 00 00 00 00 ................
00400050 00 00 00 00 00 00 00 00 00 00 00 00 00 00 00 00 ................
00400060 00 00 00 00 00 00 00 00 00 00 00 00 00 00 00 00 ................
00400070 00 00 00 00 00 00 00 00 00 00 00 00 00 00 00 00 ................
00400080 00 00 00 00 00 00 00 00 00 00 00 00 00 00 00 00 ................
00400090 00 00 00 00 00 00 00 00 00 00 00 00 00 00 00 00 ................
004000A0 00 00 00 00 00 00 00 00 00 00 00 00 00 00 00 00 ................
004000B0 00 00 00 00 00 00 00 00 00 00 00 00 00 00 00 00 ................
004000C0 00 00 00 00 00 00 00 00 00 00 00 00 00 00 00 00 ................
004000D0 00 00 00 00 00 00 00 00 00 00 00 00 00 00 00 00 ................
004000E0 00 00 00 00 00 00 00 00 00 00 00 00 00 00 00 00 ................
004000F0 00 00 00 00 00 00 00 00 00 00 00 00 00 00 00 00 ................
00400100 00 00 00 00 00 00 00 00 00 00 00 00 00 00 00 00 ................
00400110 00 00 00 00 00 00 00 00 00 00 00 00 00 00 00 00 ................
00400120 00 00 00 00 00 00 00 00 00 00 00 00 00 00 00 00 ................
00400130 00 00 00 00 00 00 00 00 00 00 00 00 00 00 00 00 ................
00400140 00 00 00 00 00 00 00 00 00 00 00 00 00 00 00 00 ................
00400150 00 00 00 00 00 00 00 00 00 00 00 00 00 00 00 00 ................
00400160 00 00 00 00 00 00 00 00 00 00 00 00 00 00 00 00 ................
00400170 00 00 00 00 00 00 00 00 00 00 00 00 00 00 00 00 ................
00400180 00 00 00 00 00 00 00 00 00 00 00 00 00 00 00 00 ................
00400190 00 00 00 00 00 00 00 00 00 00 00 00 00 00 00 00 ................
004001A0 00 00 00 00 00 00 00 00 00 00 00 00 00 00 00 00 ................
004001B0 00 00 00 00 00 00 00 00 00 00 00 00 00 00 00 00 ................
004001C0 00 00 00 00 00 00 00 00 00 00 00 00 00 00 00 00 ................
004001D0 00 00 00 00 00 00 00 00 00 00 00 00 00 00 00 00 ................
004001E0 00 00 00 00 00 00 00 00 00 00 00 00 00 00 00 00 ................
004001F0 00 00 00 00 00 00 00 00 00 00 00 00 00 00 00 00 ................
00400200 00 00 00 00 00 00 00 00 00 00 00 00 00 00 00 00 ................
00400210 00 00 00 00 00 00 00 00 00 00 00 00 00 00 00 00 ................
00400220 00 00 00 00 00 00 00 00 00 00 00 00 00 00 00 00 ................
00400230 00 00 00 00 00 00 00 00 00 00 00 00 00 00 00 00 ................
00400240 00 00 00 00 00 00 00 00 00 00 00 00 00 00 00 00 ................
00400250 00 00 00 00 00 00 00 00 00 00 00 00 00 00 00 00 ................
00400260 00 00 00 00 00 00 00 00 00 00 00 00 00 00 00 00 ................
00400270 00 00 00 00 00 00 00 00 00 00 00 00 00 00 00 00 ................
00400280 00 00 00 00 00 00 00 00 00 00 00 00 00 00 00 00 ................
00400290 00 00 00 00 00 00 00 00 00 00 00 00 00 00 00 00 ................
004002A0 00 00 00 00 00 00 00 00 00 00 00 00 00 00 00 00 ................
004002B0 00 00 00 00 00 00 00 00 00 00 00 00 00 00 00 00 ................
004002C0 00 00 00 00 00 00 00 00 00 00 00 00 00 00 00 00 ................
004002D0 00 00 00 00 00 00 00 00 00 00 00 00 00 00 00 00 ................
004002E0 00 00 00 00 00 00 00 00 00 00 00 00 00 00 00 00 ................
004002F0 00 00 00 00 00 00 00 00 00 00 00 00 00 00 00 00 ................
00400300 00 00 00 00 00 00 00 00 00 00 00 00 00 00 00 00 ................
00400310 00 00 00 00 00 00 00 00 00 00 00 00 00 00 00 00 ................
00400320 00 00 00 00 00 00 00 00 00 00 00 00 00 00 00 00 ................
00400330 00 00 00 00 00 00 00 00 00 00 00 00 00 00 00 00 ................
00400340 00 00 00 00 00 00 00 00 00 00 00 00 00 00 00 00 ................
00400350 00 00 00 00 00 00 00 00 00 00 00 00 00 00 00 00 ................
00400360 00 00 00 00 00 00 00 00 00 00 00 00 00 00 00 00 ................
00400370 00 00 00 00 00 00 00 00 00 00 00 00 00 00 00 00 ................
00400380 00 00 00 00 00 00 00 00 00 00 00 00 00 00 00 00 ................
00400390 00 00 00 00 00 00 00 00 00 00 00 00 00 00 00 00 ................
004003A0 00 00 00 00 00 00 00 00 00 00 00 00 00 00 00 00 ................
004003B0 00 00 00 00 00 00 00 00 00 00 00 00 00 00 00 00 ................
004003C0 00 00 00 00 00 00 00 00 00 00 00 00 00 00 00 00 ................
004003D0 00 00 00 00 00 00 00 00 00 00 00 00 00 00 00 00 ................
004003E0 00 00 00 00 00 00 00 00 00 00 00 00 00 00 00 00 ................
004003F0 00 00 00 00 00 00 00 00 00 00 00 00 00 00 00 00 ................
00400400 00 00 00 00 00 00 00 00 00 00 00 00 00 00 00 00 ................
00400410 00 00 00 00 00 00 00 00 00 00 00 00 00 00 00 00 ................
00400420 00 00 00 00 00 00 00 00 00 00 00 00 00 00 00 00 ................
00400430 00 00 00 00 00 00 00 00 00 00 00 00 00 00 00 00 ................
00400440 00 00 00 00 00 00 00 00 00 00 00 00 00 00 00 00 ................
00400450 00 00 00 00 00 00 00 00 00 00 00 00 00 00 00 00 ................
00400460 00 00 00 00 00 00 00 00 00 00 00 00 00 00 00 00 ................
00400470 00 00 00 00 00 00 00 00 00 00 00 00 00 00 00 00 ................
00400480 00 00 00 00 00 00 00 00 00 00 00 00 00 00 00 00 ................
00400490 00 00 00 00 00 00 00 00 00 00 00 00 00 00 00 00 ................
004004A0 00 00 00 00 00 00 00 00 00 00 00 00 00 00 00 00 ................
004004B0 00 00 00 00 00 00 00 00 00 00 00 00 00 00 00 00 ................
004004C0 00 00 00 00 00 00 00 00 00 00 00 00 00 00 00 00 ................
004004D0 00 00 00 00 00 00 00 00 00 00 00 00 00 00 00 00 ................
004004E0 00 00 00 00 00 00 00 00 00 00 00 00 00 00 00 00 ................
004004F0 00 00 00 00 00 00 00 00 00 00 00 00 00 00 00 00 ................
00400500 00 00 00 00 00 00 00 00 00 00 00 00 00 00 00 00 ................
00400510 00 00 00 00 00 00 00 00 00 00 00 00 00 00 00 00 ................
00400520 00 00 00 00 00 00 00 00 00 00 00 00 00 00 00 00 ................
00400530 00 00 00 00 00 00 00 00 00 00 00 00 00 00 00 00 ................
00400540 00 00 00 00 00 00 00 00 00 00 00 00 00 00 00 00 ................
00400550 00 00 00 00 00 00 00 00 00 00 00 00 00 00 00 00 ................
00400560 00 00 00 00 00 00 00 00 00 00 00 00 00 00 00 00 ................
00400570 00 00 00 00 00 00 00 00 00 00 00 00 00 00 00 00 ................
00400580 00 00 00 00 00 00 00 00 00 00 00 00 00 00 00 00 ................
00400590 00 00 00 00 00 00 00 00 00 00 00 00 00 00 00 00 ................
004005A0 00 00 00 00 00 00 00 00 00 00 00 00 00 00 00 00 ................
004005B0 00 00 00 00 00 00 00 00 00 00 00 00 00 00 00 00 ................
004005C0 00 00 00 00 00 00 00 00 00 00 00 00 00 00 00 00 ................
004005D0 00 00 00 00 00 00 00 00 00 00 00 00 00 00 00 00 ................
004005E0 00 00 00 00 00 00 00 00 00 00 00 00 00 00 00 00 ................
004005F0 00 00 00 00 00 00 00 00 00 00 00 00 00 00 00 00 ................
00400600 00 00 00 00 00 00 00 00 00 00 00 00 00 00 00 00 ................
00400610 00 00 00 00 00 00 00 00 00 00 00 00 00 00 00 00 ................
00400620 00 00 00 00 00 00 00 00 00 00 00 00 00 00 00 00 ................
00400630 00 00 00 00 00 00 00 00 00 00 00 00 00 00 00 00 ................
00400640 00 00 00 00 00 00 00 00 00 00 00 00 00 00 00 00 ................
00400650 00 00 00 00 00 00 00 00 00 00 00 00 00 00 00 00 ................
00400660 00 00 00 00 00 00 00 00 00 00 00 00 00 00 00 00 ................
00400670 00 00 00 00 00 00 00 00 00 00 00 00 00 00 00 00 ................
00400680 00 00 00 00 00 00 00 00 00 00 00 00 00 00 00 00 ................
00400690 00 00 00 00 00 00 00 00 00 00 00 00 00 00 00 00 ................
004006A0 00 00 00 00 00 00 00 00 00 00 00 00 00 00 00 00 ................
004006B0 00 00 00 00 00 00 00 00 00 00 00 00 00 00 00 00 ................
004006C0 00 00 00 00 00 00 00 00 00 00 00 00 00 00 00 00 ................
004006D0 00 00 00 00 00 00 00 00 00 00 00 00 00 00 00 00 ................
004006E0 00 00 00 00 00 00 00 00 00 00 00 00 00 00 00 00 ................
004006F0 00 00 00 00 00 00 00 00 00 00 00 00 00 00 00 00 ................
00400700 00 00 00 00 00 00 00 00 00 00 00 00 00 00 00 00 ................
00400710 00 00 00 00 00 00 00 00 00 00 00 00 00 00 00 00 ................
00400720 00 00 00 00 00 00 00 00 00 00 00 00 00 00 00 00 ................
00400730 00 00 00 00 00 00 00 00 00 00 00 00 00 00 00 00 ................
00400740 00 00 00 00 00 00 00 00 00 00 00 00 00 00 00 00 ................
00400750 00 00 00 00 00 00 00 00 00 00 00 00 00 00 00 00 ................
00400760 00 00 00 00 00 00 00 00 00 00 00 00 00 00 00 00 ................
00400770 00 00 00 00 00 00 00 00 00 00 00 00 00 00 00 00 ................
00400780 00 00 00 00 00 00 00 00 00 00 00 00 00 00 00 00 ................
00400790 00 00 00 00 00 00 00 00 00 00 00 00 00 00 00 00 ................
004007A0 00 00 00 00 00 00 00 00 00 00 00 00 00 00 00 00 ................
004007B0 00 00 00 00 00 00 00 00 00 00 00 00 00 00 00 00 ................
004007C0 00 00 00 00 00 00 00 00 00 00 00 00 00 00 00 00 ................
004007D0 00 00 00 00 00 00 00 00 00 00 00 00 00 00 00 00 ................
004007E0 00 00 00 00 00 00 00 00 00 00 00 00 00 00 00 00 ................
004007F0 00 00 00 00 00 00 00 00 00 00 00 00 00 00 00 00 ................
00400800 00 00 00 00 00 00 00 00 00 00 00 00 00 00 00 00 ................
00400810 00 00 00 00 00 00 00 00 00 00 00 00 00 00 00 00 ................
00400820 00 00 00 00 00 00 00 00 00 00 00 00 00 00 00 00 ................
00400830 00 00 00 00 00 00 00 00 00 00 00 00 00 00 00 00 ................
00400840 00 00 00 00 00 00 00 00 00 00 00 00 00 00 00 00 ................
00400850 00 00 00 00 00 00 00 00 00 00 00 00 00 00 00 00 ................
00400860 00 00 00 00 00 00 00 00 00 00 00 00 00 00 00 00 ................
00400870 00 00 00 00 00 00 00 00 00 00 00 00 00 00 00 00 ................
00400880 00 00 00 00 00 00 00 00 00 00 00 00 00 00 00 00 ................
00400890 00 00 00 00 00 00 00 00 00 00 00 00 00 00 00 00 ................
004008A0 00 00 00 00 00 00 00 00 00 00 00 00 00 00 00 00 ................
004008B0 00 00 00 00 00 00 00 00 00 00 00 00 00 00 00 00 ................
004008C0 00 00 00 00 00 00 00 00 00 00 00 00 00 00 00 00 ................
004008D0 00 00 00 00 00 00 00 00 00 00 00 00 00 00 00 00 ................
004008E0 00 00 00 00 00 00 00 00 00 00 00 00 00 00 00 00 ................
004008F0 00 00 00 00 00 00 00 00 00 00 00 00 00 00 00 00 ................
00400900 00 00 00 00 00 00 00 00 00 00 00 00 00 00 00 00 ................
00400910 00 00 00 00 00 00 00 00 00 00 00 00 00 00 00 00 ................
00400920 00 00 00 00 00 00 00 00 00 00 00 00 00 00 00 00 ................
00400930 00 00 00 00 00 00 00 00 00 00 00 00 00 00 00 00 ................
00400940 00 00 00 00 00 00 00 00 00 00 00 00 00 00 00 00 ................
00400950 00 00 00 00 00 00 00 00 00 00 00 00 00 00 00 00 ................
00400960 00 00 00 00 00 00 00 00 00 00 00 00 00 00 00 00 ................
00400970 00 00 00 00 00 00 00 00 00 00 00 00 00 00 00 00 ................
00400980 00 00 00 00 00 00 00 00 00 00 00 00 00 00 00 00 ................
00400990 00 00 00 00 00 00 00 00 00 00 00 00 00 00 00 00 ................
004009A0 00 00 00 00 00 00 00 00 00 00 00 00 00 00 00 00 ................
004009B0 00 00 00 00 00 00 00 00 00 00 00 00 00 00 00 00 ................
004009C0 00 00 00 00 00 00 00 00 00 00 00 00 00 00 00 00 ................
004009D0 00 00 00 00 00 00 00 00 00 00 00 00 00 00 00 00 ................
004009E0 00 00 00 00 00 00 00 00 00 00 00 00 00 00 00 00 ................
004009F0 00 00 00 00 00 00 00 00 00 00 00 00 00 00 00 00 ................
00400A00 00 00 00 00 00 00 00 00 00 00 00 00 00 00 00 00 ................
00400A10 00 00 00 00 00 00 00 00 00 00 00 00 00 00 00 00 ................
00400A20 00 00 00 00 00 00 00 00 00 00 00 00 00 00 00 00 ................
00400A30 00 00 00 00 00 00 00 00 00 00 00 00 00 00 00 00 ................
00400A40 00 00 00 00 00 00 00 00 00 00 00 00 00 00 00 00 ................
00400A50 00 00 00 00 00 00 00 00 00 00 00 00 00 00 00 00 ................
00400A60 00 00 00 00 00 00 00 00 00 00 00 00 00 00 00 00 ................
00400A70 00 00 00 00 00 00 00 00 00 00 00 00 00 00 00 00 ................
00400A80 00 00 00 00 00 00 00 00 00 00 00 00 00 00 00 00 ................
00400A90 00 00 00 00 00 00 00 00 00 00 00 00 00 00 00 00 ................
00400AA0 00 00 00 00 00 00 00 00 00 00 00 00 00 00 00 00 ................
00400AB0 00 00 00 00 00 00 00 00 00 00 00 00 00 00 00 00 ................
00400AC0 00 00 00 00 00 00 00 00 00 00 00 00 00 00 00 00 ................
00400AD0 00 00 00 00 00 00 00 00 00 00 00 00 00 00 00 00 ................
00400AE0 00 00 00 00 00 00 00 00 00 00 00 00 00 00 00 00 ................
00400AF0 00 00 00 00 00 00 00 00 00 00 00 00 00 00 00 00 ................
00400B00 00 00 00 00 00 00 00 00 00 00 00 00 00 00 00 00 ................
00400B10 00 00 00 00 00 00 00 00 00 00 00 00 00 00 00 00 ................
00400B20 00 00 00 00 00 00 00 00 00 00 00 00 00 00 00 00 ................
00400B30 00 00 00 00 00 00 00 00 00 00 00 00 00 00 00 00 ................
00400B40 00 00 00 00 00 00 00 00 00 00 00 00 00 00 00 00 ................
00400B50 00 00 00 00 00 00 00 00 00 00 00 00 00 00 00 00 ................
00400B60 00 00 00 00 00 00 00 00 00 00 00 00 00 00 00 00 ................
00400B70 00 00 00 00 00 00 00 00 00 00 00 00 00 00 00 00 ................
00400B80 00 00 00 00 00 00 00 00 00 00 00 00 00 00 00 00 ................
00400B90 00 00 00 00 00 00 00 00 00 00 00 00 00 00 00 00 ................
00400BA0 00 00 00 00 00 00 00 00 00 00 00 00 00 00 00 00 ................
00400BB0 00 00 00 00 00 00 00 00 00 00 00 00 00 00 00 00 ................
00400BC0 00 00 00 00 00 00 00 00 00 00 00 00 00 00 00 00 ................
00400BD0 00 00 00 00 00 00 00 00 00 00 00 00 00 00 00 00 ................
00400BE0 00 00 00 00 00 00 00 00 00 00 00 00 00 00 00 00 ................
00400BF0 00 00 00 00 00 00 00 00 00 00 00 00 00 00 00 00 ................
00400C00 00 00 00 00 00 00 00 00 00 00 00 00 00 00 00 00 ................
00400C10 00 00 00 00 00 00 00 00 00 00 00 00 00 00 00 00 ................
00400C20 00 00 00 00 00 00 00 00 00 00 00 00 00 00 00 00 ................
00400C30 00 00 00 00 00 00 00 00 00 00 00 00 00 00 00 00 ................
00400C40 00 00 00 00 00 00 00 00 00 00 00 00 00 00 00 00 ................
00400C50 00 00 00 00 00 00 00 00 00 00 00 00 00 00 00 00 ................
00400C60 00 00 00 00 00 00 00 00 00 00 00 00 00 00 00 00 ................
00400C70 00 00 00 00 00 00 00 00 00 00 00 00 00 00 00 00 ................
00400C80 00 00 00 00 00 00 00 00 00 00 00 00 00 00 00 00 ................
00400C90 00 00 00 00 00 00 00 00 00 00 00 00 00 00 00 00 ................
00400CA0 00 00 00 00 00 00 00 00 00 00 00 00 00 00 00 00 ................
00400CB0 00 00 00 00 00 00 00 00 00 00 00 00 00 00 00 00 ................
00400CC0 00 00 00 00 00 00 00 00 00 00 00 00 00 00 00 00 ................
00400CD0 00 00 00 00 00 00 00 00 00 00 00 00 00 00 00 00 ................
00400CE0 00 00 00 00 00 00 00 00 00 00 00 00 00 00 00 00 ................
00400CF0 00 00 00 00 00 00 00 00 00 00 00 00 00 00 00 00 ................
00400D00 00 00 00 00 00 00 00 00 00 00 00 00 00 00 00 00 ................
00400D10 00 00 00 00 00 00 00 00 00 00 00 00 00 00 00 00 ................
00400D20 00 00 00 00 00 00 00 00 00 00 00 00 00 00 00 00 ................
00400D30 00 00 00 00 00 00 00 00 00 00 00 00 00 00 00 00 ................
00400D40 00 00 00 00 00 00 00 00 00 00 00 00 00 00 00 00 ................
00400D50 00 00 00 00 00 00 00 00 00 00 00 00 00 00 00 00 ................
00400D60 00 00 00 00 00 00 00 00 00 00 00 00 00 00 00 00 ................
00400D70 00 00 00 00 00 00 00 00 00 00 00 00 00 00 00 00 ................
00400D80 00 00 00 00 00 00 00 00 00 00 00 00 00 00 00 00 ................
00400D90 00 00 00 00 00 00 00 00 00 00 00 00 00 00 00 00 ................
00400DA0 00 00 00 00 00 00 00 00 00 00 00 00 00 00 00 00 ................
00400DB0 00 00 00 00 00 00 00 00 00 00 00 00 00 00 00 00 ................
00400DC0 00 00 00 00 00 00 00 00 00 00 00 00 00 00 00 00 ................
00400DD0 00 00 00 00 00 00 00 00 00 00 00 00 00 00 00 00 ................
00400DE0 00 00 00 00 00 00 00 00 00 00 00 00 00 00 00 00 ................
00400DF0 00 00 00 00 00 00 00 00 00 00 00 00 00 00 00 00 ................
00400E00 00 00 00 00 00 00 00 00 00 00 00 00 00 00 00 00 ................
00400E10 00 00 00 00 00 00 00 00 00 00 00 00 00 00 00 00 ................
00400E20 00 00 00 00 00 00 00 00 00 00 00 00 00 00 00 00 ................
00400E30 00 00 00 00 00 00 00 00 00 00 00 00 00 00 00 00 ................
00400E40 00 00 00 00 00 00 00 00 00 00 00 00 00 00 00 00 ................
00400E50 00 00 00 00 00 00 00 00 00 00 00 00 00 00 00 00 ................
00400E60 00 00 00 00 00 00 00 00 00 00 00 00 00 00 00 00 ................
00400E70 00 00 00 00 00 00 00 00 00 00 00 00 00 00 00 00 ................
00400E80 00 00 00 00 00 00 00 00 00 00 00 00 00 00 00 00 ................
00400E90 00 00 00 00 00 00 00 00 00 00 00 00 00 00 00 00 ................
00400EA0 00 00 00 00 00 00 00 00 00 00 00 00 00 00 00 00 ................
00400EB0 00 00 00 00 00 00 00 00 00 00 00 00 00 00 00 00 ................
00400EC0 00 00 00 00 00 00 00 00 00 00 00 00 00 00 00 00 ................
00400ED0 00 00 00 00 00 00 00 00 00 00 00 00 00 00 00 00 ................
00400EE0 00 00 00 00 00 00 00 00 00 00 00 00 00 00 00 00 ................
00400EF0 00 00 00 00 00 00 00 00 00 00 00 00 00 00 00 00 ................
00400F00 00 00 00 00 00 00 00 00 00 00 00 00 00 00 00 00 ................
00400F10 00 00 00 00 00 00 00 00 00 00 00 00 00 00 00 00 ................
00400F20 00 00 00 00 00 00 00 00 00 00 00 00 00 00 00 00 ................
00400F30 00 00 00 00 00 00 00 00 00 00 00 00 00 00 00 00 ................
00400F40 00 00 00 00 00 00 00 00 00 00 00 00 00 00 00 00 ................
00400F50 00 00 00 00 00 00 00 00 00 00 00 00 00 00 00 00 ................
00400F60 00 00 00 00 00 00 00 00 00 00 00 00 00 00 00 00 ................
00400F70 00 00 00 00 00 00 00 00 00 00 00 00 00 00 00 00 ................
00400F80 00 00 00 00 00 00 00 00 00 00 00 00 00 00 00 00 ................
00400F90 00 00 00 00 00 00 00 00 00 00 00 00 00 00 00 00 ................
00400FA0 00 00 00 00 00 00 00 00 00 00 00 00 00 00 00 00 ................
00400FB0 00 00 00 00 00 00 00 00 00 00 00 00 00 00 00 00 ................
00400FC0 00 00 00 00 00 00 00 00 00 00 00 00 00 00 00 00 ................
00400FD0 00 00 00 00 00 00 00 00 00 00 00 00 00 00 00 00 ................
00400FE0 00 00 00 00 00 00 00 00 00 00 00 00 00 00 00 00 ................
00400FF0 00 00 00 00 00 00 00 00 00 00 00 00 00 00 00 00 ................
00401000 F8 0C 2B DD 49 87 26                            ..+.I.&        

fn00401007()
	push	ebp
	mov	ebp,esp
	add	esi,ecx
	add	esi,edi
	dec	edx
	dec	ebx
	mov	ebx,edx
	add	edi,esi
	js	00401048

l00401016:
	push	cx
	pop	cx
	lea	bx,[ebx]
	jns	00401048

l0040101F:
	rep	
	mov	ebx,[edi+CE0B6851]
	mov	edi,edx
	dec	ebx
	sub	esi,edi
	inc	ecx
	sub	edx,eax
	mov	edi,edx
	add	edx,eax
	dec	esi
	mov	edi,esi
	jl	004011FB
	lea	eax,[eax]
	jge	004011FB
	jcxz	00400FCC
	mov	ebx,DA03D8C6

l00401048:
	add	ebx,edx
	add	esi,ecx

l0040104B:
	illegal	
	sub	edx,esi
	xor	edx,edi
	dec	ecx
	mov	ecx,ebx
	mov	ebx,eax
	dec	ebx
	xor	ecx,edi
	inc	ebx
	jz	0040108C

l0040105B:
	mov	dx,dx
	jnz	0040108C

l00401060:
	jge	0040104B

l00401062:
	mov	dh,12
	sbb	eax,FA8B911F
	fclex	
	add	edx,eax
	mov	edx,eax
	or	esi,eax
	sub	ecx,eax
	add	esi,eax
	dec	edi
	jbe	00401255

l0040107C:
	jz	0040107E

l0040107E:
	repne	
	ja	00401255
	push	edi
	iret	
	lock	
	jpo	0040105F
	popa	
	cmc	

l0040108C:
	xor	edx,esi
	add	esi,edx
	or	ecx,edi
	inc	esi
	sub	ecx,edx
	add	edx,ecx
	mov	ecx,edi
	or	edx,eax
	xor	ecx,eax
	js	004010B1
	jmp	004010A4
	push	bx
	pop	bx
	jns	004010B1
	sub	bl,[edi]
	xor	eax,551099B4
	mov	edi,eax
	mov	esi,edx
	inc	esi
	sub	edx,ebx
	inc	ecx
	neg	dl
	js	004011E0
	xchg	ax,ax
	jns	004011E0
	adc	[edx+A85F88E0],ebx
	or	[ebx],ebp
	xor	ecx,esi
	inc	edx
	dec	edx
	mov	esi,edi
	mov	cl,al
	sub	esi,ecx
	jbe	00401140
	jmp	004010E4
	arpl	[esi-79],bx
	div	byte ptr [edi+57]
	enter	CFC3,CA
	wait	
	xor	ecx,ebx
	sub	edx,esi
	inc	ecx
	xor	ecx,edi
	inc	esi
	xor	esi,ebx
	inc	ebx
	mov	ecx,edi
	add	esi,ebx
	js	00401274
	mov	si,si
	jns	00401108
	jns	00401274
	loopne	00401154
	sub	eax,7B746523
	mov	eax,[C8034647]
	dec	edx
	inc	edx
	add	ecx,edi
	sub	edi,esi
	mov	ebx,esi
	xor	ebx,esi
	or	edi,ecx
	jbe	0040121A
	jmp	00401131
	xchg	edx,edx
	ja	0040121A
	adc	[ebx+3D],cl
	adc	edi,esp
	out	dx,al
	or	ecx,ebx
	xor	esi,edx
	add	ecx,ebx
	add	dl,ch
	dec	edi
	mov	edx,eax
	inc	esi
	mov	bl,0E
	neg	ch
	xor	edi,edx
	jbe	004011A9
	mov	bh,bh
	lea	ax,[eax]
	ja	004011A9
	add	byte ptr [831F5625],07
	inc	esi
	add	ebx,esi
	add	edx,ebx
	mov	edi,edx
	inc	eax
	add	eax,ecx
	jl	00401293
	xchg	ebx,ebx
	jge	00401293
	add	[eax],ch
	aam	44
	pop	ebx
	out	dx,ax
	bound	ecx,gs:[edx+0BCE2BDF]
	illegal	
	rep	
	mov	ecx,edi
	or	bl,bh
	sub	esi,edx
	inc	edx
	inc	ebx
	or	ebx,eax
	jle	004010D2
	jmp	0040119F
	jg	004010D2
	aas	
	inc	esp
	in	al,dx
	inc	byte ptr [ebx]
	rep	
	dec	edi
	dec	ecx
	mov	ebx,esi
	mov	edi,eax
	inc	edi
	xor	esi,ecx
	add	edi,edx
	xor	edx,eax
	jbe	00401024
	repne	
	push	ebx
	pop	ebx
	ja	00401024
	mov	edx,edx
	in	eax,1D
	insd	
	xor	ecx,eax
	neg	bl
	or	edi,esi
	mov	dh,83
	dec	edi
	inc	edx
	jle	00401182
	repne	
	jg	00401182
	stosd	
	xor	dword ptr [esi+ecx*2],0AB6B3BC
	rol	[edx],cl
	ror	dword ptr [ebx+49FA33FA],01
	add	edx,ecx
	jc	004011CC
	xchg	dl,dl
	push	edi
	pop	edi
	jnc	004011CC
	xchg	eax,edx
	and	[eax],bl
	pop	ss
	illegal	
	in	eax,dx
	sub	edx,ecx
	inc	edi
	mov	ecx,edi
	sub	esi,eax
	xor	ebx,edx
	xor	ebx,edx
	jpe	00401067
	push	esi
	pop	esi
	mov	bh,bh
	jpo	00401067
	adc	eax,46894C68
	dec	ebx
	inc	edx
	inc	edx
	mov	ebx,edi
	sub	esi,eax
	jpe	004012A1
	rep	
	jpo	004012A1
	out	F8,al
	xchg	eax,esi
	mov	dh,[edx+8BD4FB7D]
	repne	
	inc	ecx
	add	ebx,eax
	add	edi,ecx
	add	edi,esi
	sub	esi,ecx
	xor	eax,ebx
	inc	esi
	jpe	00401162
	repne	
	jmp	00401249
	jpo	00401162
	push	esp
	dec	esp
	xchg	[edx],ecx
	call	343E9DF6

l00401255:
	mov	edi,esi
	xor	ecx,eax
	xor	ecx,eax
	or	ebx,edi
	dec	edx
	add	esi,eax
	jle	004010ED
	jz	00401268
	push	edi
	pop	edi
	jg	004010ED
	lds	edx,[eax]
	illegal	
	mov	[ecx+49],ecx
	inc	esi
	mov	edx,edi
	or	edi,eax
	dec	edi
	illegal	
	or	edx,eax
	inc	edi
	js	00401116
	repne	
	jns	00401116
	adc	[eax],dh
	pop	ds
	pop	esp
	add	ecx,eax
	dec	ebx
	sub	esi,ecx
	add	eax,edx
	dec	esi
	sub	ebx,edx
	xor	edi,ebx
	jmp	004012C8
	test	al,08
	jz	004012A6
	ret	
	leave	
	dec	ebx
	or	eax,esi
	dec	edi
	or	edx,edi
	or	ebx,esi
	sub	eax,ecx
	jz	0040122F
	jmp	004012BD
	outsd	
	jnz	0040122F
	fimul	dword ptr [ebp+47]
	rep	
	jo	004012B1
	or	eax,1600001B
	insd	
	xchg	eax,ebx
	mov	ah,6C
	cmp	eax,101B2F24
	illegal	
	das	
	cmp	eax,1A1BF010
	cmp	eax,8FD03DF2
	sbb	ebx,edx
	mov	dh,6F
	pop	ss
	illegal	
	adc	ebp,ecx
	retf	
	xor	al,07
	xlat	
	adc	ebx,[1DA81716]
	rep	
	cmovpo	esp,[0F0F1B36]
	jcxz	0040131B
	cli	
	push	eax
	cmp	al,FB
	and	al,2F
	dec	ebx
	and	eax,0F0F2F01
	cmp	eax,12B66F18
	das	
	illegal	
	mov	dh,C5
	das	
	illegal	
	sti	
	mov	edx,520EF81D
	cmp	eax,1A360224
	aas	
	illegal	
	cmp	eax,2FE40EC2
	mov	eax,2B17B60E
	illegal	
	jz	004013A8
	stosb	
	sahf	
	aam	6E
	xor	ebx,[edx]
	das	
	illegal	
	lss	esp,[ebp+2F]
	illegal	
	xor	eax,843D6224
	xchg	eax,edx
	sbb	edi,[edi+edi*8+15]
	push	ds
	pop	dword ptr [ebx]
	illegal	
	cmp	eax,841B3F7C
	xchg	eax,edx
	mov	dh,2F
	xor	ecx,[edi]
	cmpxchg	[edx+B378B11F],dh
	ret	
	sub	eax,373F041D
	dec	ebx
	sbb	[edi+ebp],eax
	illegal	
	cmp	eax,F55ADB1E
	aaa	
	illegal	
	illegal	
	illegal	
	sbb	esi,[edx+1B]
	jbe	00401340
	cmp	byte ptr [ebp+E4E59EFC],23
	cmp	[edi+28],esp
	push	edi
	pop	edx
	push	ds
	illegal	
	mov	dh,D5
	and	ecx,[edi]
	illegal	
	pop	dword ptr [ebx-22]
	mov	eax,CF0FB010
	illegal	
	inc	ebp
	and	al,3F
	push	eax
	mov	eax,2F24450F
	push	eax
	mov	eax,8C31B00E
	nop	
	xchg	eax,edx
	mov	dh,58
	das	
	illegal	
	xchg	[eax],ecx
	enter	C2FB,30
	xchg	eax,ebp
	rep	
	mov	[esi],dh
	sbb	bh,[edi]
	illegal	
	cmp	eax,12DB6CC2
	cmp	eax,043D3F44
	das	
	fidivr	word ptr [ecx+0F0F1EB6]
	illegal	
	mov	ah,94
	cmp	[esi+1B0B51E3],esp
	jpe	0040141F
	cmp	bl,dh
	mov	eax,[1D02E41B]
	mov	edx,B67AEE37
	out	dx,al
	sub	ecx,[edi]
	illegal	eax,45
	add	[edx],bl
	add	eax,214B2F85
	inc	ecx
	illegal	
	cmovpo	ebp,ecx
	and	al,4F
	xor	eax,E43D0224
	das	
	cmp	eax,84E94B0A
	push	ebx
	mov	esi,0E54B6D0
	push	cs
	push	cs
	pusha	
	pop	esp
	aam	4F
	mov	dh,59
	sub	ecx,[edi]
	illegal	
	jbe	00401475
	jle	00401444
	lahf	
	jle	00401447
	lahf	
	mov	dl,[esi]
	jle	0040144C
	lahf	
	dec	ebx
	mov	esi,B6168A5E
	int	03
	sub	ecx,[edi]
	illegal	
	add	[esi+6C68B31A],eax
	cmp	eax,24BB3F24
	pop	edi
	xor	eax,24353F24
	repne	
	adc	[edi+ecx*2],eax
	movsx	esi,byte ptr [ebp+CF2BCC9A]
	push	ebp
	stc	
	in	al,47
	push	cs
	in	al,2F
	dec	ebp
	sub	[edi+0E],ch
	in	al,4F
	dec	ebp
	sub	[edi-42],bh
	aaa	
	cmp	eax,4BDAFBE7
	and	eax,0F0F37AD
	mov	[esi+C1C644FB],ds
	jmp	far 1DF2:24B3
	adc	dh,[edi]
	mov	bl,24
	aas	
	sbb	eax,4B0F3F04
	and	eax,0E0E0A82
	cmp	eax,68B6F224
	aaa	
	illegal	
	shr	dword ptr [edx],91
	hlt	
	rcr	edi,cl
	mov	[esi],ss
	sbb	ch,[edi]
	illegal	
	cmp	eax,B6685CC2
	aaa	
	illegal	
	ror	ah,01
	cmpsb	
	mov	[esi+ebp*8],eax
	add	cl,[eax+3F1A367C]
	illegal	
	cmp	eax,02221DC2
	pop	esp
	push	0F13F3B6
	jg	8F503257
	jge	00401466
	add	[edx],bl
	das	
	illegal	
	cmp	eax,02221DC2
	pop	esp
	push	0E06EAB6
	push	cs
	mov	al,[A4D06E17]
	out	dx,al
	scasb	
	cmp	eax,243D7264
	inc	edx
	cmp	eax,4F2A1DE2
	mov	al,0F
	adc	[edi],cl
	illegal	
	inc	eax
	lahf	
	adc	dh,[esi+0F0F1F47]
	push	cs
	pop	es
	mov	ch,4D
	sbb	[eax+ebx*8+356F303D],ecx
	inc	esp
	add	bh,[36DB3F84]
	mov	dh,ED
	sub	ecx,[edi]
	illegal	
	cmp	eax,B63A1B47
	wait	
	pop	ss
	illegal	
	test	al,40
	repne	
	sub	ecx,[ecx+50022445]
	adc	eax,0E0E3F04
	illegal	
	in	al,dx
	aaa	
	push	cs
	in	al,3F
	mov	eax,1BB1B60F
	illegal	
	mov	eax,E224450F
	push	eax
	mov	dh,0D
	sub	ecx,[edi]
	illegal	
	mov	edx,[ecx]
	add	[ebp+64],edi
	cmp	eax,6C685CC2
	cmp	eax,5E3D2F84
	mov	ebx,7C1B3F64
	inc	dword ptr [ebp+7D]
	xchg	eax,ecx
	illegal	
	movzx	edx,ch
	pop	ds
	illegal	
	int	56
	rcr	dword ptr [eax],3D
	fst	double ptr es:[ebx]
	push	D2BBEE3D
	fisub	word ptr [ecx+17A0BE88]
	pop	edx
	mov	dh,2B
	or	cl,[esi]
	push	cs
	adc	dl,[esi]
	ja	00401576
	test	[ecx+B050A943],ebx
	xor	[eax+edx*4+1B75B292],ecx
	illegal	
	mov	al,BD
	mov	al,1B
	loop	004015E9
	mov	dl,CF
	push	cs
	push	cs
	push	cs
	push	eax
	push	ds
	mov	dh,00
	adc	ecx,[edi]
	illegal	
	or	eax,D3BE8CE7
	mov	dl,69
	sbb	ecx,[edi]
	illegal	
	dec	ebx
	and	eax,0F0F2BBD
	mov	dl,56
	push	es
	push	cs
	push	cs
	mov	esi,B256C1BD
	dec	ebx
	and	[ecx+1B],ecx
	illegal	
	pop	ebx
	mov	dh,4D
	sub	ecx,[edi]
	illegal	
	jc	00401620
	mov	al,[61D5B6CA]
	fstp	tword ptr [esi-5F]
	fst	double ptr [edi]
	mov	dl,6D
	push	cs
	push	cs
	push	cs
	fsubr	st(0),st(2)
	illegal	
	mov	dl,49
	push	cs
	push	cs
	push	cs
	fmul	double ptr [D5B612DB]
	das	
	illegal	
	mov	[eax+A3BE36C1],dh
	lds	ebx,eax
	insb	
	cmp	eax,7C1B2F84
	inc	dword ptr [ebp+7D]
	adc	[edi],ecx
	illegal	
	cmp	eax,4B7E3B7B
	and	[edx+13],ecx
	illegal	
	sbb	eax,[edi+ebp+0F1FDAB6]
	illegal	
	pop	edx
	xchg	eax,edi
	stosd	
	movsb	
	pop	ds
	push	cs
	fdivr	double ptr [edi+0E]
	fdivr	double ptr [edi-4E]
	add	al,[edx]
	push	cs
	push	cs
	mov	dl,F6
	and	ecx,[edi]
	lss	esp,[ebp+350F0F23]
	and	al,92
	mov	al,[0FCF433D]
	illegal	
	xor	eax,E40E2F14
	or	byte ptr [esi],E4
	xchg	eax,edx
	mov	dh,58
	sbb	ecx,[edi]
	illegal	
	inc	ecx
	das	
	mov	[ecx-39],bh
	les	esi,[esp+ebx*2-4E]
	js	00401664
	push	cs
	push	cs
	cmp	eax,FF101B1E
	push	cs
	rcr	bh,01
	pop	esp
	mov	dl,92
	or	cl,[esi]
	push	cs
	jl	00401661
	cmovg	ecx,[edi]
	movzx	ecx,al
	or	cl,[esi]
	push	cs
	clc	
	add	[edx+F9B250D0],cl
	sub	ecx,[edi]
	illegal	
	sbb	eax,3B34AF1E
	mov	dh,06
	illegal	
	illegal	
	in	eax,dx
	push	edx
	insb	
	sub	al,47
	push	cs
	in	al,62
	mov	dl,EA
	sub	ecx,[edi]
	movzx	ebx,byte ptr [esi+0E0F0F1F]
	in	al,A2
	push	eax
	push	cs
	in	al,62
	mov	dh,5A
	pop	ds
	illegal	
	pop	edx
	inc	ecx
	inc	ecx
	mov	ebx,5A824E11
	sbb	eax,583D3F1E
	aas	
	cmp	eax,234BB657
	illegal	
	cmp	eax,12DBCF38
	mov	dh,C3
	add	cl,[esi]
	push	cs
	push	ss
	adc	ch,[ebx]
	mov	dh,8F
	add	cl,[esi]
	push	cs
	popf	
	and	cl,dl
	leave	
	xlat	
	pop	edx
	js	00401708
	dec	ebp
	and	al,E2
	mov	al,42
	inc	edx
	inc	edx
	inc	edx
	dec	ebp
	and	al,D2
	mov	al,0F
	out	0F,al
	cmovge	esp,[edx+esi*4]
	mov	al,0F
	out	0F,al
	cmovge	esp,[edx]
	mov	dh,38
	and	ecx,[edi]
	illegal	
	jo	00401745
	or	[eax-76],ch
	illegal	
	add	[eax-48],dl
	push	cs
	mov	al,31
	mov	[eax+1787B292],ss
	illegal	
	mov	al,01
	aas	
	sub	bl,ah
	push	eax
	mov	dl,E5
	push	es
	push	cs
	push	cs
	mov	dh,13
	add	cl,[esi]
	push	cs
	adc	eax,3D5227EB
	ret	6C68
	cmp	eax,E43D4F44
	aas	
	cmp	eax,A1DE2F04
	cmp	eax,29B68C2E
	add	cl,[esi]
	push	cs
	ror	dword ptr [eax],1D
	xchg	eax,ebx
	sbb	eax,DB6B3E2C
	adc	bh,[esi+2B121627]
	xlat	
	adc	edx,[ecx+edx]
	rep	
	illegal	
	out	E3,al
	sbb	edx,edi
	push	eax
	cmp	al,FB
	push	ds
	dec	ebx
	and	eax,0F0F23AC
	mov	dh,D5
	illegal	
	illegal	
	mov	bl,ch
	jns	004017C1
	mov	dl,96
	and	ecx,[edi]
	movsx	ecx,byte ptr [ebx+1B]
	and	al,2F
	inc	ebp
	adc	[edi],dl
	push	eax
	push	cs
	in	al,02
	mov	dl,52
	and	ecx,[edi]
	bsr	edi,[esi+06ABB44C]
	or	eax,8717B8F7
	dec	ebx
	and	eax,0F0F17A2
	push	cs
	in	al,B2
	push	cs
	in	al,62
	mov	dl,55
	pop	ds
	illegal	
	cmp	eax,143D9244
	illegal	
	and	[ebx],dl
	scasd	
	mov	dh,11
	and	ecx,[edi]
The method or operation is not implemented.

00403000 62 55 B7 F8 21 0E E7 23 F3 89 AB E9 FB 22 20 CE bU..!..#....." .
00403010 33 B5 AD EF EB 39 26 79 58 6E C4 A9 27 18 33 42 3....9&yXn..'.3B
00403020 00 E0 90 98 A4 FA 00 50 7C B4 5C 00 0F FF 3E C4 .......P|.\...>.
00403030 C1 00 0A 8E 00 87 38 4E 57 FF 20 4D 74 0B 38 63 ......8NW. Mt.8c
00403040 17 AB FF 60 00 94 B8 FF A9 BB D2 23 30 3B 00 00 ...`.......#0;..
00403050 6C 31 00 20 31 00 00 F7 83 01 02 BF 7F 7E 63 27 l1. 1........~c'
00403060 6B 00 E8 0F 2C 00 00 70 F7 C3 FF A2 5C EA 00 5B k...,..p....\..[
00403070 82 93 00 68 83 B2 00 FB AA 53 00 FF 18 42 71 00 ...h.....S...Bq.
00403080 04 F9 67 C9 CE C7 FF 00 D2 4B AB AB 00 6A 21 E1 ..g......K...j!.
00403090 7E 2B 64 00 3F 2F 08 00 ED EC 5E AD 77 00 F8 F8 ~+d.?/....^.w...
004030A0 43 92 E8 00 55 63 00 02 00 5F 7A 00 30 27 A0 00 C...Uc..._z.0'..
004030B0 04 3A F3 E8 75 2B 77 00 E3 80 D9 F5 F0 73 24 74 .:..u+w......s$t
004030C0 00 0F 00 9E 7C A6 00 4A 00 3F 00 82 26 EB 58 F2 ....|..J.?..&.X.
004030D0 74 00 7B AA E2 B0 33 24 FA D6 01 BE 00 15 60 12 t.{...3$......`.
004030E0 4E F6 FF C2 A2 FB 1F 00 D2 FD 00 12 00 FC CC 0F N...............
004030F0 70 BF DB 14 6F 73 00 02 00 48 E1 B7 62 00 9D 04 p...os...H..b...
00403100 60 E4 FA 10 E0 44 64 00 01 72 CE 6F 00 00 34 BF `....Dd..r.o..4.
00403110 73 1A 92 48 62 91 FF C7 FF C6 00 90 83 DF 05 7F s..Hb...........
00403120 4B AC DF 4E 81 A3 81 44 E1 01 AD 38 86 66 00 10 K..N...D...8.f..
00403130 F8 00 F8 A4 38 02 63 21 68 00 40 88 F5 8E 53 4C ....8.c!h.@...SL
00403140 00 20 22 00 00 12 56 40 00 7C FF BF 00 60 00 65 . "...V@.|...`.e
00403150 F2 48 03 AC 29 06 7F 29 00 FF E2 AD 00 E7 58 9D .H..)..)......X.
00403160 59 CC 7F 2E 54 2F 00 20 00 16 00 AD 62 C4 21 FF Y...T/. ....b.!.
00403170 AB 6C 00 F4 A5 28 8B 00 00 0D 9C D9 FD 6A 88 3B .l...(.......j.;
00403180 94 12 4F 00 CC 3E 29 1D EE 3D 6F 4B 00 99 C9 6D ..O..>)..=oK...m
00403190 7A 0A 3E F5 8D 87 98 4B 0A 99 C6 80 0C 29 75 9F z.>....K.....)u.
004031A0 DF 81 5C 5D FB 8F 03 44 5B 44 04 8A 9F 87 00 C9 ..\]...D[D......
004031B0 52 FF 13 72 75 FF 50 FA 04 00 FC 00 DE 90 68 28 R..ru.P.......h(
004031C0 CC 32 A3 5D DA FF 86 EF E9 24 01 4C F3 69 41 C9 .2.].....$.L.iA.
004031D0 2D FF F3 98 75 8E E4 96 11 00 6D EF 60 BD BE 7E -...u.....m.`..~
004031E0 0A 0C FD D6 C6 00 35 BA C9 9C 00 73 DC 2B 0B 23 ......5....s.+.#
004031F0 44 E3 00 5A 53 50 62 2A 43 21 50 1C 1D 35 2E 37 D..ZSPb*C!P..5.7
00403200 55 00 E5 85 8A 7F E5 91 11 39 5C 00 FD 86 62 0C U........9\...b.
00403210 81 DA 4B FF 60 00 14 AA C2 F0 FA 00 F0 79 F3 69 ..K.`........y.i
00403220 0E 1F 33 40 B9 AD 28 AE 00 0C 96 D4 0C 6B 01 F8 ..3@..(......k..
00403230 FF FF A7 0F 9C 31 2E 00 12 68 FF 53 01 6E 02 42 .....1...h.S.n.B
00403240 34 A3 73 E9 03 5D B0 49 8B 4D 32 C4 FF 82 27 81 4.s..].I.M2...'.
00403250 C4 73 5F 0B BA F0 8D 00 B3 77 95 F2 5A 63 94 D6 .s_......w..Zc..
00403260 61 00 FF FF 4F EB 00 00 45 AC C6 76 1E F5 00 FF a...O...E..v....
00403270 D9 20 3F F9 D0 49 1C 6B D8 C2 67 4B FF 3A 8B 17 . ?..I.k..gK.:..
00403280 65 00 1E 3C 38 00 37 19 D8 44 8E EF 61 61 9E BC e..<8.7..D..aa..
00403290 13 3A 37 69 4D 66 32 04 00 22 12 A3 FA CD 00 BA .:7iMf2.."......
004032A0 CD AA E1 91 00 A2 7C 68 FF E0 00 C9 5B D3 09 DF ......|h....[...
004032B0 E4 4C C6 FC 00 16 A0 67 C1 8E 4D F5 85 00 30 93 .L.....g..M...0.
004032C0 A3 36 00 88 D9 19 7E CE 7E 2F 25 00 F8 56 FF 9A .6....~.~/%..V..
004032D0 97 00 63 11 D0 51 B1 67 A2 38 00 B0 FD 8C E0 A2 ..c..Q.g.8......
004032E0 B7 35 FF 0A A6 21 5F 6B 43 93 7B 19 92 00 0A 55 .5...!_kC.{....U
004032F0 BF 5F 00 28 B5 96 90 13 4B A8 1C 31 01 EF 00 4C ._.(....K..1...L
00403300 05 0E 2A 00 1D 00 E9 0B 50 72 A1 18 7B 6E 63 FF ..*.....Pr..{nc.
00403310 6C 11 A9 CA 60 38 FD B9 BF 83 69 7C 00 33 14 DB l...`8....i|.3..
00403320 76 E9 42 0F 39 81 6D 44 7C 9F 28 07 F4 40 FF F1 v.B.9.mD|.(..@..
00403330 94 C0 0D 52 7D 71 E1 E1 00 64 2D 3B E5 FC 0A F2 ...R}q...d-;....
00403340 24 00 5E E8 1B 3D 00 00 9A 11 C6 79 22 3D 8F E5 $.^..=.....y"=..
00403350 1C 00 BB 1E A3 D8 9F 00 FF B4 F0 C7 76 00 00 DB ............v...
00403360 EF 9B 0A 20 61 71 7E 00 0B 80 00 25 23 D2 B1 DB ... aq~....%#...
00403370 17 95 9E 4B 15 B3 09 00 9E DE 0E 59 8B ED 7F 02 ...K.......Y....
00403380 B5 9C F8 8E 04 7E 7F 0D 8E 14 4A 1E 76 C8 21 16 .....~....J.v.!.
00403390 00 BE 53 63 8A 02 00 1F 28 A3 AC CD 5A 32 DF E3 ..Sc....(...Z2..
004033A0 79 E2 26 20 50 B3 9C 14 E0 C4 9F B3 00 1F 4F 28 y.& P.........O(
004033B0 00 DF 5B 00 00 FA 00 28 06 84 2A 69 CE F4 C1 BA ..[....(..*i....
004033C0 5D 23 3C 1A 36 D2 B0 45 53 68 00 4B 8C 97 BC 38 ]#<.6..ESh.K...8
004033D0 79 C2 DD 56 CD 3C 84 76 18 2E 6B 5A 14 47 21 FF y..V.<.v..kZ.G!.
004033E0 02 3A 4F C3 D4 D4 EE 5B 11 2D 74 45 00 31 FF C1 .:O....[.-tE.1..
004033F0 64 0E 94 8B 97 9C 38 4D C4 00 00 57 14 8E 50 7F d.....8M...W..P.
00403400 4B E1 D7 D3 27 2D B7 4F FF 01 73 BD A0 7C 34 38 K...'-.O..s..|48
00403410 98 41 7F 33 B4 0E C4 00 25 2C E1 20 9E 6A 89 15 .A.3....%,. .j..
00403420 00 D4 ED 68 B9 54 2B 00 00 E3 AB 55 00 C0 D7 EE ...h.T+....U....
00403430 82 9C 07 BC 83 56 F0 F7 5B 09 89 5B 0B 07 F5 FF .....V..[..[....
00403440 71 79 08 00 A9 51 B6 00 03 00 A0 01 B4 00 00 BC qy...Q..........
00403450 8D 13 61 E0 60 40 63 1A D8 79 38 38 89 F7 5F 81 ..a.`@c..y88.._.
00403460 BC 19 AF 00 08 74 8D 6D E0 B7 00 9B EE EB 6D 79 .....t.m......my
00403470 99 D5 2D D0 26 CF 0B 00 1C 61 00 ED 7F 65 86 9B ..-.&....a...e..
00403480 DB FF 79 17 AF CB 38 60 1E 84 91 FE 66 FF FF 4C ..y...8`....f..L
00403490 D0 04 F9 CC B2 FF 3B FE 5A 34 BB 61 21 00 09 08 ......;.Z4.a!...
004034A0 8D E1 1B B3 50 A9 B2 02 00 21 19 00 2C C0 8D FF ....P....!..,...
004034B0 00 00 C2 5A 12 A4 24 81 00 87 D1 C5 4F 00 EF FF ...Z..$.....O...
004034C0 61 FF 4D 2E 04 E8 3B B1 3A B0 94 00 A0 CF 71 70 a.M...;.:.....qp
004034D0 FB 74 1A ED AE A6 7A 23 71 29 FB CC F0 F6 C6 00 .t....z#q)......
004034E0 CB 0C 79 76 77 00 B4 FF 18 EF 01 18 28 69 D1 00 ..yvw.......(i..
004034F0 0C B8 63 00 59 63 59 00 A1 EB 15 AB FE 2F C6 D9 ..c.YcY....../..
00403500 2E CF 6E 91 9C FF 5A F1 00 66 51 60 40 82 48 9A ..n...Z..fQ`@.H.
00403510 81 25 A4 D0 D5 FF C4 19 FB FB 4D AF A3 C1 3E 98 .%........M...>.
00403520 33 00 00 56 73 6F 00 00 5E 96 DF 24 70 C7 3E 96 3..Vso..^..$p.>.
00403530 C3 7A E0 E0 F7 C9 13 00 98 BE EA 66 10 41 FD 02 .z.........f.A..
00403540 B6 09 FF 00 90 48 45 19 66 66 00 10 2C 05 47 B1 .....HE.ff..,.G.
00403550 D2 4C B1 E1 D1 81 3E E1 E4 FB 4A 58 00 28 67 C7 .L....>...JX.(g.
00403560 90 A4 36 14 F7 7B A2 2E F8 00 C0 10 00 2D 1C 20 ..6..{.......-. 
00403570 10 9A 53 E1 8D 7B 06 A6 12 AD 09 0A 18 D3 60 87 ..S..{........`.
00403580 70 16 00 20 A2 98 F6 D9 A9 06 B1 5A 04 70 04 8C p.. .......Z.p..
00403590 3C DD 23 08 83 47 4B A7 4F 00 FF 74 00 1E AD 6C <.#..GK.O..t...l
004035A0 45 29 4B ED D7 0E 1A CA 19 81 80 E1 40 A0 BC 92 E)K.........@...
004035B0 00 9C 66 EF 00 64 D0 E0 8E EF 8D 57 40 13 FF 9D ..f..d.....W@...
004035C0 77 3C 83 74 60 00 C0 B0 14 80 37 6F 00 7F 1D 34 w<.t`.....7o...4
004035D0 F8 0C 38 5D 69 B4 7C 74 0C FF 4F 02 C1 F7 3C 94 ..8]i.|t..O...<.
004035E0 00 C4 65 F3 96 89 77 00 D3 E7 65 46 59 8B 17 00 ..e...w...eFY...
004035F0 BB 73 36 1A 5D 82 3C 81 00 CC A4 88 B3 40 00 40 .s6.].<......@.@
00403600 98 00 08 3C A0 67 7D 70 60 99 C1 60 A1 7F 24 C6 ...<.g}p`..`..$.
00403610 9E 64 EB 77 00 C9 42 11 DF 3E FF FF 9B E1 3A 6C .d.w..B..>....:l
00403620 12 98 FF F8 1C 28 00 74 20 BF EE 60 B3 98 DF 82 .....(.t ..`....
00403630 00 A9 79 84 C1 51 BD 04 93 00 11 88 AA 00 E5 D0 ..y..Q..........
00403640 78 00 20 90 00 11 17 00 BC 00 80 A4 50 4E 9B 3B x. .........PN.;
00403650 11 0F 3F CB CE 46 30 4B AF 00 FC 56 76 0B D6 F5 ..?..F0K...Vv...
00403660 8B D4 2A 14 27 B7 14 46 68 6F B3 CB 0B BD 0A 1C ..*.'..Fho......
00403670 69 00 26 00 BE 5B 3B 5F EF 7F 37 E2 B2 F6 00 41 i.&..[;_..7....A
00403680 00 23 FE 05 1A CE 5E 00 05 FF 6E 7C 00 FF 5B 23 .#....^...n|..[#
00403690 1F D8 00 80 E5 B2 FC 42 C0 B0 86 AC 7A F4 63 35 .......B....z.c5
004036A0 C8 A1 E2 40 A1 04 FA 3A 48 02 D8 6D F1 00 3A 00 ...@...:H..m..:.
004036B0 00 97 18 99 39 92 C7 00 33 D6 78 52 33 FF 8B 0C ....9...3.xR3...
004036C0 FD AE 22 AE 86 97 73 7F 7F F5 10 E6 15 67 00 8E .."...s......g..
004036D0 0F 17 1E DD 1B E3 55 71 65 38 B8 30 FF 00 60 FF ......Uqe8.0..`.
004036E0 83 92 5B 34 4D 9B 83 B9 6C 15 58 00 6A 0F 1B 07 ..[4M...l.X.j...
004036F0 90 3B 1C 39 36 AA FF 41 96 92 CA 20 89 00 5E BD .;.96..A... ..^.
00403700 FF BC AE 24 3D 00 01 19 2D 00 CC 09 AB B5 21 2E ...$=...-.....!.
00403710 00 51 3E 81 C8 27 E2 00 CD DF EE 16 0C 00 B4 0B .Q>..'..........
00403720 F2 A3 FF 5A 47 DB 58 B2 22 EA FF AE 86 60 F8 71 ...ZG.X."....`.q
00403730 D9 B9 62 42 30 5F 58 71 27 3C FD FC 00 EF 37 AD ..bB0_Xq'<....7.
00403740 BF 40 F1 B7 CF 39 09 66 E0 08 0F B3 71 53 C5 06 .@...9.f....qS..
00403750 5D 00 08 B6 00 4B F8 82 7F 00 3E 79 7E 32 96 08 ]....K....>y~2..
00403760 28 45 75 08 2D C1 42 F9 8D F1 E1 4A 4C D2 E5 C4 (Eu.-.B....JL...
00403770 3C 00 FC 8D 0D 8D 34 00 A0 82 51 C7 A1 E3 42 9E <.....4...Q...B.
00403780 FE 8C F8 FF 06 FB 29 A6 3A 7D BD E4 0D 05 DF 73 ......).:}.....s
00403790 51 62 E7 E0 40 CB A0 00 FF 5A 6D 97 E7 00 B0 71 Qb..@....Zm....q
004037A0 0B 3D 36 E4 AB 00 4E 04 A3 93 A9 E4 01 3E 9D 00 .=6...N......>..
004037B0 47 FF 00 67 00 40 F3 00 39 62 3C CD 9A 0F B0 1B G..g.@..9b<.....
004037C0 63 07 6B C3 E2 4D 00 FF 11 63 6B FF 8F EF 00 0B c.k..M...ck.....
004037D0 5C 04 71 78 31 8D 38 18 8A 31 00 77 06 47 51 43 \.qx1.8..1.w.GQC
004037E0 84 F0 00 A2 C1 20 A1 1C 63 00 3A CD 9C CB C9 C8 ..... ..c.:.....
004037F0 BA 93 75 FF B0 6D B9 10 02 60 06 B7 E0 00 5E 3D ..u..m...`....^=
00403800 72 00 B7 F3 00 82 FF F4 04 00 F6 28 5C 28 C4 F9 r..........(\(..
00403810 00 1B 88 73 00 82 C5 8A 46 FE 9E D8 75 E0 74 64 ...s....F...u.td
00403820 19 00 F5 00 DE 8C A1 95 59 10 C9 95 70 73 64 54 ........Y...psdT
00403830 BA 7D 89 F8 03 5F 64 26 4A A2 3E B7 25 00 DB A1 .}..._d&J.>.%...
00403840 81 7C 2D 00 C3 60 5C F1 75 01 3D 09 26 96 26 92 .|-..`\.u.=.&.&.
00403850 30 1A 90 EF F6 E9 F1 E6 00 E1 79 22 6F 5B 20 EB 0.........y"o[ .
00403860 DB C4 FF 58 97 D9 D3 E1 B3 C1 ED D5 48 71 00 9D ...X........Hq..
00403870 14 00 FB 00 1D A9 6D 83 B7 C2 1B 3C 80 7A D9 74 ......m....<.z.t
00403880 02 3C 82 C6 52 04 FF D5 88 BF 00 CF AB 3C BB C3 .<..R........<..
00403890 9D 6E 2A 14 7D 02 0A D2 27 D3 A8 1E 82 14 CD D9 .n*.}...'.......
004038A0 A8 1B 56 82 6B C1 00 00 FC 19 7F EA A9 78 96 31 ..V.k........x.1
004038B0 4E 94 DF D1 3F C9 E4 89 00 32 52 7F FB BA B9 00 N...?....2R.....
004038C0 5E FE F1 00 8D 62 00 23 47 17 EB B5 A7 74 2E 00 ^....b.#G....t..
004038D0 FF 03 A0 B4 CF 27 6A 38 AA 0B 27 4A 81 53 2C FF .....'j8..'J.S,.
004038E0 F0 CE 1E 8B 00 2A 12 00 92 C0 81 2E D4 FE 5C 01 .....*........\.
004038F0 37 DF 82 2A 00 61 28 3A FF FA C7 8F 00 7C 02 7D 7..*.a(:.....|.}
00403900 84 00 51 54 3C 64 A3 85 20 02 F7 8E 52 8E 07 BB ..QT<d.. ...R...
00403910 9B E3 01 BB 11 F1 39 57 E8 A0 6C 89 D5 00 F8 E2 ......9W..l.....
00403920 7D EB FF 6C D5 46 76 47 5C FF 5B D0 00 8B EE 6C }..l.FvG\.[....l
00403930 00 91 F8 10 C0 9D 34 52 24 85 26 00 39 F9 8A C1 ......4R$.&.9...
00403940 28 00 00 C7 E1 30 09 13 14 FF 4F EA 32 CE 00 0B (....0....O.2...
00403950 00 1C 83 70 D5 5B 39 6B C3 C6 E6 C0 C3 D3 B1 C4 ...p.[9k........
00403960 D3 B4 1E EB 3B DB FF 65 DC CE B1 00 1B BE 62 BF ....;..e......b.
00403970 9F EE 26 8F 19 C3 A7 3C 7D E6 C4 BA 12 85 DF 03 ..&....<}.......
00403980 1D 08 00 32 FD 58 02 CE 0D A9 B4 47 83 4D A1 30 ...2.X.....G.M.0
00403990 72 E4 1D 4E B8 00 60 30 5B 76 11 F9 B1 75 69 16 r..N..`0[v...ui.
004039A0 5E 71 DA DD FF 4F F0 13 00 88 E3 BC DE EE 8A AC ^q...O..........
004039B0 61 45 FA 86 DB 23 68 B7 23 2F A5 C6 A7 F9 83 4E aE...#h.#/.....N
004039C0 02 23 FA 71 E7 62 D8 C9 49 09 FE 0B 7E C8 84 FF .#.q.b..I...~...
004039D0 63 42 00 0E 62 F3 ED 80 00 62 C6 38 B5 97 07 E2 cB..b....b.8....
004039E0 C6 A6 18 48 60 C9 FF 5C FA 4E 7B BB C3 DE 00 04 ...H`..\.N{.....
004039F0 FD 3B 5B 68 7E 60 FF BF 48 72 E6 DF 7C BE AE F6 .;[h~`..Hr..|...
00403A00 70 33 E3 EC 0A B1 FA E9 C9 D1 8A BD D0 3E 3E FF p3...........>>.
00403A10 4B 00 A9 00 1B 06 5C 42 7B D8 5E 6F 6A A1 00 66 K.....\B{.^oj..f
00403A20 00 6F 5D FF 8A AA 7A 58 C0 D8 2C FF D8 CC E7 5A .o]...zX..,....Z
00403A30 FF DA 18 00 82 94 D8 FD 60 A4 60 85 20 C7 61 2A ........`.`. .a*
00403A40 AC 1F C0 9B 30 41 00 40 4C B7 A0 2D 00 A0 0E AF ....0A.@L..-....
00403A50 EE 92 5C 73 FE 44 4C 7D 00 BF 69 4E 4B 5B C6 40 ..\s.DL}..iNK[.@
00403A60 F9 00 82 F0 E1 FF 61 00 43 4E 00 2E C1 24 5D 26 ......a.CN...$]&
00403A70 D8 3D 53 05 00 3F 8C FF E1 D0 44 A8 00 00 89 5C .=S..?....D....\
00403A80 AB 42 68 A7 3F 85 24 9C 8C 16 A8 3C B3 1C 7B 96 .Bh.?.$....<..{.
00403A90 24 75 5A 9B 43 47 3B 69 00 26 D9 F6 08 D7 86 00 $uZ.CG;i.&......
00403AA0 E3 FF 36 47 00 BD FF D9 CF 8F 00 93 F5 00 C1 8D ..6G............
00403AB0 A7 6A 86 FF 15 38 D5 5D DD ED EA 62 CE A1 45 56 .j...8.]...b..EV
00403AC0 3E ED 34 8B A7 5E 9C 31 DE 00 00 00 3C 28 00 A1 >.4..^.1....<(..
00403AD0 03 00 68 14 68 67 5F 16 38 7B EB 2C 1C B4 FF FE ..h.hg_.8{.,....
00403AE0 A8 D5 FD 75 70 44 77 66 06 79 2C 50 3E 84 7C 75 ...upDwf.y,P>.|u
00403AF0 D8 2B ED 2B C9 CE 36 5C 2C 00 40 9D AE 00 00 48 .+.+..6\,.@....H
00403B00 FA E2 95 29 B1 00 40 82 28 72 8C 36 FF 00 24 01 ...)..@.(r.6..$.
00403B10 07 00 A8 39 4C 32 F7 FF 17 00 00 00 81 F7 FE 65 ...9L2.........e
00403B20 B1 59 12 A5 C7 00 ED 85 35 39 00 D2 D6 B3 AC 80 .Y......59......
00403B30 7B F3 EE E4 83 03 97 41 E9 C0 B0 A8 51 5A F4 E5 {......A....QZ..
00403B40 10 6E A3 7C 04 0E 00 7A 06 B4 23 6A F5 6C F7 EE .n.|...z..#j.l..
00403B50 00 A4 1C 17 00 00 F3 00 80 FF 25 DA 00 26 CA 00 ..........%..&..
00403B60 E1 01 64 00 74 00 32 70 0E 57 E8 00 87 15 5F 00 ..d.t.2p.W...._.
00403B70 64 00 F8 E3 E5 0E 82 64 DF FF 74 4D C3 59 88 2B d......d..tM.Y.+
00403B80 2C 4F 67 00 45 5B C9 36 FD 00 00 17 C0 CD 65 8F ,Og.E[.6......e.
00403B90 12 32 76 9F 3D 00 17 8F 31 43 16 78 98 A0 88 A6 .2v.=...1C.x....
00403BA0 00 C6 00 47 00 00 05 92 39 28 16 85 67 7C 7C FE ...G....9(..g||.
00403BB0 68 BC 87 6E B0 97 E3 C3 61 FF 2F CF 2E EA E2 14 h..n....a./.....
00403BC0 18 A5 B9 97 86 DE 1C 20 1F 00 C7 9C 91 30 00 B8 ....... .....0..
00403BD0 70 C4 8A 00 2F 00 19 00 C2 0D FA BF C2 32 60 DA p.../........2`.
00403BE0 2D 70 FF A3 46 51 F9 46 73 BF 93 04 00 B1 E1 84 -p..FQ.Fs.......
00403BF0 23 8C A7 00 00 E5 76 00 81 82 09 8D C4 40 14 00 #.....v......@..
00403C00 EE 5C 50 A6 00 00 40 7D E6 8E 62 4B C7 23 9B C3 .\P...@}..bK.#..
00403C10 39 11 20 80 6E 57 FC 08 5F F8 0E 8C 02 7F 77 A6 9. .nW.._.....w.
00403C20 48 E4 C9 8F 77 4C 6D B1 02 A4 1C 36 EF 11 72 FF H...wLm....6..r.
00403C30 8E 2D 42 D8 A3 39 BA 00 00 5A 6C 50 5C 15 EF 00 .-B..9...ZlP\...
00403C40 8D 00 59 02 5C 06 E3 BE 06 20 40 F5 A4 38 E3 6F ..Y.\.... @..8.o
00403C50 72 6D 43 1D 0C 1B DF B0 DC 57 94 00 9D 7E E1 1B rmC......W...~..
00403C60 81 2C A5 DB DB 21 50 3C 00 52 2B 80 3D FF 53 C3 .,...!P<.R+.=.S.
00403C70 00 48 FF 80 B3 DD 77 0C C6 83 FF C1 A4 0B 21 D5 .H....w.......!.
00403C80 09 24 92 DB E5 36 00 7E 61 FF 65 00 A3 00 34 C7 .$...6.~a.e...4.
00403C90 B2 DF FD 73 18 1C D3 E2 06 A4 43 1B D0 8E DB E9 ...s......C.....
00403CA0 71 00 3E 51 00 E3 00 BC AB 1E E2 EE 3D FF DF 00 q.>Q........=...
00403CB0 FF FF 96 1B 9A 00 2A 50 0C BD A8 00 60 8B 29 30 ......*P....`.)0
00403CC0 6E 1C A4 76 EA 62 AB 71 8B 53 47 4D 65 BE 00 12 n..v.b.q.SGMe...
00403CD0 7D 25 DB 00 23 2D 10 1F 00 0F 37 86 59 EC 08 38 }%..#-....7.Y..8
00403CE0 BC 00 27 5F E2 C0 C5 98 01 3C 6F 2E 01 00 E9 A4 ..'_.....<o.....
00403CF0 E0 F4 A1 B0 83 4B FF 6F FF 00 2C 4E 1B E0 FF 36 .....K.o..,N...6
00403D00 F4 16 32 1F FF 3C 7F AA 84 5C F8 62 0A 5F 46 00 ..2..<...\.b._F.
00403D10 00 68 01 FF 3C 19 29 97 15 FE 9F E5 E9 D7 FF C1 .h..<.).........
00403D20 EC 26 00 6C 20 C5 00 9D 4B E6 A4 B9 18 1C 12 13 .&.l ...K.......
00403D30 BF B2 00 0D 0F 65 67 18 96 31 6C 04 62 57 BD FF .....eg..1l.bW..
00403D40 48 38 23 E7 F4 3F 09 12 FE B7 BD A1 FC 33 FF 25 H8#..?.......3.%
00403D50 08 FC 1A 23 E9 C6 BD 5C FF 4B FF 35 C1 8E 4F 1F ...#...\.K.5..O.
00403D60 4B 17 EF 00 84 A7 8A 18 5F 70 78 C6 F9 3C 77 9D K......._px..<w.
00403D70 E3 46 00 46 74 F8 F8 67 ED 41 CD 6E 3E C9 4D 00 .F.Ft..g.A.n>.M.
00403D80 F4 80 D3 09 58 F1 A4 78 EF FF 46 4E 3D 9C C5 00 ....X..x..FN=...
00403D90 89 E7 EB 9C 00 3A 74 95 8A 08 00 C4 01 88 31 AD .....:t.......1.
00403DA0 5C B4 C3 34 A1 D4 37 00 85 B7 00 FF 61 2E E3 00 \..4..7.....a...
00403DB0 00 0D DF 3C B8 00 C2 8A BF DE 34 64 00 32 82 73 ...<......4d.2.s
00403DC0 51 00 FF 4A 93 C8 89 20 7F 9E 9F AC 00 15 F0 EE Q..J... ........
00403DD0 50 38 7C 00 00 00 83 FF 48 FF 63 B2 00 E9 1B 01 P8|.....H.c.....
00403DE0 35 00 FF 1A 00 AA B7 40 EF E7 DC 35 4B 6E 1D DA 5......@...5Kn..
00403DF0 F7 8C E4 FF 00 DB 27 00 0B 33 0E 10 C9 E0 11 84 ......'..3......
00403E00 40 F4 20 95 5C A4 99 BF FF 29 9E 00 71 FF 45 76 @. .\....)..q.Ev
00403E10 D1 09 F0 5D A1 75 8C 70 4A 7D 00 00 0E 48 F9 34 ...].u.pJ}...H.4
00403E20 0C 60 84 02 00 E7 D7 3E CB F9 03 F2 05 C1 A7 2B .`.....>.......+
00403E30 FC F9 12 B1 30 DE A3 73 67 05 51 08 10 2F 47 9F ....0..sg.Q../G.
00403E40 91 0C 49 B3 E2 BD 00 37 BF C1 17 00 08 2B 22 00 ..I....7.....+".
00403E50 12 00 98 21 39 BD E0 A4 CF FD 00 43 FF 8D 26 A8 ...!9......C..&.
00403E60 5A CC FF E0 83 37 54 68 B4 20 2C DE F4 F1 86 6F Z....7Th. ,....o
00403E70 1C FF BF 72 F7 02 EF F2 7B F8 91 30 A4 B5 34 C4 ...r....{..0..4.
00403E80 60 44 F4 00 00 7A 00 74 00 6B 00 1F 60 97 17 31 `D...z.t.k..`..1
00403E90 A9 FF 60 58 9C 12 38 3C A3 00 BF 31 03 1C E8 1C ..`X..8<...1....
00403EA0 FE 26 E3 38 00 AB A9 53 30 F0 00 C3 FD B0 04 F8 .&.8...S0.......
00403EB0 D8 FF AD 57 1B 83 4B F7 70 67 5A 03 99 61 61 00 ...W..K.pgZ..aa.
00403EC0 CE 6A 77 89 08 C9 86 5F 73 B4 F1 51 C9 13 00 54 .jw...._s..Q...T
00403ED0 83 3A 00 C7 00 46 00 8B BE 00 FF AC 34 F6 4E 11 .:...F......4.N.
00403EE0 00 20 C8 19 36 C6 00 31 86 B6 CB 1E 00 00 92 14 . ..6..1........
00403EF0 FF 64 00 79 85 0E FF B4 97 5C 4F 99 C4 E7 AB F1 .d.y.....\O.....
00403F00 86 0E F6 B8 8F 00 CB 54 9B 36 0E CF A7 E7 6C 84 .......T.6....l.
00403F10 EE 04 3C 13 79 28 24 C2 55 39 79 2C 00 22 74 04 ..<.y($.U9y,."t.
00403F20 00 52 20 56 00 00 62 FF 05 54 AA 00 C5 9D E1 FF .R V..b..T......
00403F30 41 3E 00 E1 03 00 68 8A 32 45 DD 00 FF 16 A8 24 A>....h.2E.....$
00403F40 64 40 60 69 A9 1A 00 D1 0D 67 B8 C0 0F 15 5E 00 d@`i.....g....^.
00403F50 32 0A 52 D9 0E A0 00 74 40 1D 50 E1 55 00 EA FF 2.R....t@.P.U...
00403F60 E2 00 88 E6 00 13 DB E5 9C DC 00 F6 92 B6 D0 D7 ................
00403F70 00 1F E8 41 4B 20 03 36 9F 00 5A AC 38 00 6B 00 ...AK .6..Z.8.k.
00403F80 58 00 B1 7D 85 FF 44 E9 09 DD 40 14 E1 00 D9 E1 X..}..D...@.....
00403F90 EF EE 9A 80 20 74 49 DC 77 81 89 D9 25 8D FA 78 .... tI.w...%..x
00403FA0 1C B1 2E 20 28 7C 48 AF 22 7A 11 F2 FF E1 C3 6C ... (|H."z.....l
00403FB0 00 44 B1 B4 DA 9B 2C 50 D6 9E 00 E0 16 DB C6 01 .D....,P........
00403FC0 02 0B C2 00 B7 67 00 91 A6 00 26 96 D9 19 00 1B .....g....&.....
00403FD0 6C BE DB 50 4B 00 18 C1 70 12 16 9E 6C 08 F3 E0 l..PK...p...l...
00403FE0 C6 C2 18 51 42 98 10 35 88 01 00 38 3C D4 26 71 ...QB..5...8<.&q
00403FF0 5C C6 10 92 74 77 D3 69 29 42 C6 09 9E 05 5D 64 \...tw.i)B....]d
00404000 36 84 26 89 8C 00 77 00 F0 40 E9 8A 40 94 D9 31 6.&...w..@..@..1
00404010 7F 95 22 43 B3 00 BE B6 12 00 47 A2 3E E8 73 C3 .."C......G.>.s.
00404020 EB 87 98 83 66 69 A9 54 99 C5 7B E4 F4 B2 A4 76 ....fi.T..{....v
00404030 00 61 77 A3 6B 0E FF BB 7A FB BB E2 DF 0C 95 5C .aw.k...z......\
00404040 C7 06 80 78 7B 97 41 E5 EC 74 DF F1 10 00 8C 20 ...x{.A..t..... 
00404050 BD B9 9A EF 42 FF 20 2C 22 17 31 7C C0 8A A0 00 ....B. ,".1|....
00404060 0C 7B 3B 29 00 D6 A2 A2 00 46 45 2D 8F 23 64 FC .{;).....FE-.#d.
00404070 96 10 DB 9C E3 00 00 00 23 6F 30 C0 BF A9 00 C5 ........#o0.....
00404080 3E 46 00 A0 00 8F 00 FF 63 DD 0C FE 31 FF 83 00 >F......c...1...
00404090 C7 FF C9 00 00 FE 6E 03 85 0E A7 FF 40 16 83 7C ......n.....@..|
004040A0 46 38 00 0D 30 49 AC 9D C5 00 60 FF A9 70 DF 79 F8..0I....`..p.y
004040B0 41 66 45 FA BF 7C 00 5E 12 51 05 7F 97 FA F8 00 AfE..|.^.Q......
004040C0 0B C5 E9 2C 35 B9 FF E0 1A 1F 05 C7 0B D3 FF E2 ...,5...........
004040D0 00 00 86 12 3A 70 78 6F F3 61 7E 1B BF 00 56 29 ....:pxo.a~...V)
004040E0 E0 C9 00 FF 71 3B FE 33 60 F1 1D 0A BD FF 84 D3 ....q;.3`.......
004040F0 71 D9 49 04 81 C3 01 10 80 5D B2 D3 BF 59 43 70 q.I......]...YCp
00404100 4E 15 93 33 00 CA B6 00 00 00 73 DD 58 E0 FF 11 N..3......s.X...
00404110 5E EF E3 E0 73 40 94 C2 A5 00 B7 FF 6C C7 A2 C8 ^...s@......l...
00404120 98 00 4F 28 3C DD 44 11 A6 6F EC 49 A4 0C 00 00 ..O(<.D..o.I....
00404130 2E 82 AF 08 8C 47 00 B1 1A 98 85 42 D8 C2 0D 58 .....G.....B...X
00404140 74 DA 1F 70 BD 08 4A 1C 5D 40 5D 5F 0D 3F 00 00 t..p..J.]@]_.?..
00404150 3C E0 0E 5A 8E F0 28 00 29 E0 38 1F E6 90 38 26 <..Z..(.).8...8&
00404160 4F A1 70 46 47 04 30 00 FF D2 E4 DE 31 88 8F D3 O.pFG.0.....1...
00404170 46 CA F4 4A 00 77 30 5E 20 8B DF 74 D9 FF 6F 6F F..J.w0^ ..t..oo
00404180 78 69 00 76 8A D3 FF 04 B3 87 E1 37 00 26 9E DA xi.v.......7.&..
00404190 17 FF 6B C4 9B F9 09 A3 79 4B 6F AB 00 FE D6 60 ..k.....yKo....`
004041A0 09 0D E1 C9 32 E4 04 30 74 5B 2A 02 22 CB 85 59 ....2..0t[*."..Y
004041B0 2C FF 00 7F 13 44 FF FF FF F5 6E E3 3F 00 00 C5 ,....D....n.?...
004041C0 42 0E 88 00 FD 00 00 FF 74 53 8E 50 20 02 AF 7E B.......tS.P ..~
004041D0 D0 27 7F 8E AE A2 C0 24 5E AC 25 3C FF 00 3E 8F .'.....$^.%<..>.
004041E0 F7 4F E6 5E 00 21 2F 90 FF 43 A1 40 B7 73 01 C1 .O.^.!/..C.@.s..
004041F0 01 98 9D D2 00 00 F8 B3 FF 00 14 6C B7 FF FF 7E ...........l...~
00404200 72 00 00 6F 24 CF FF F4 1D E7 0B 00 00 00 A0 FF r..o$...........
00404210 2E 02 00 FF 00 66 60 40 03 52 63 00 30 D2 00 B5 .....f`@.Rc.0...
00404220 00 00 80 00 43 26 74 AD E1 51 AD 63 FF 48 8A 18 ....C&t..Q.c.H..
00404230 00 B6 91 26 FC 00 4F 1E FF 00 38 07 00 00 49 79 ...&..O...8...Iy
00404240 B8 00 98 79 B8 9A D5 FF 00 CD 2E 34 54 6D 6F E4 ...y.......4Tmo.
00404250 2B 31 35 8F 40 5D 61 08 83 52 46 DE EE D7 CA FD +15.@]a..RF.....
00404260 7B 1B BD 20 6E 05 7E BA BB 19 63 CA 09 48 73 DF {.. n.~...c..Hs.
00404270 4B 50 25 00 9F CE EF 5D 1A 52 8A 52 65 FB 00 8C KP%....].R.Re...
00404280 9B 67 1F BD D9 83 1F 2C AB D5 3D 00 00 FF 73 F7 .g.....,..=...s.
00404290 FF 44 63 1C FF C1 C1 FF 76 C1 00 D7 24 07 FD 86 .Dc.....v...$...
004042A0 5A 99 FF A4 3D F4 CD 78 06 FF 16 DB 00 2D DA FF Z...=..x.....-..
004042B0 51 DE F3 33 00 C6 CA B3 78 C8 CC 62 71 09 F4 C0 Q..3....x..bq...
004042C0 64 C7 50 75 67 E1 1D A5 46 FF 4E 24 AF E3 92 72 d.Pug...F.N$...r
004042D0 85 00 6E 00 F2 71 17 0B 56 85 A8 8D 3E 00 F3 51 ..n..q..V...>..Q
004042E0 CA FF 00 33 F9 F1 DF 2A 00 FF 17 0B 19 2F 6B 78 ...3...*...../kx
004042F0 FF 30 45 39 40 A0 00 66 00 B2 B0 6E FB 16 FF BF .0E9@..f...n....
00404300 00 82 22 71 F5 DE 07 79 25 00 00 FF 19 EF 46 00 .."q...y%.....F.
00404310 2E 46 D4 79 77 04 B5 5D FE 40 00 56 0C 79 ED 8E .F.yw..].@.V.y..
00404320 3E 40 4D 47 D9 75 AC 33 BF 21 79 01 6E 20 27 97 >@MG.u.3.!y.n '.
00404330 28 00 23 FF 81 AD E0 B7 F9 7A FF 00 48 2C C4 4F (.#......z..H,.O
00404340 B3 FC B6 0E 1D C0 90 4F C5 0E 22 46 F2 BB 53 04 .......O.."F..S.
00404350 A9 39 C0 AA 6E 06 00 BF 32 66 D8 3E 4A 9D 32 65 .9..n...2f.>J.2e
00404360 8E 00 57 F8 00 F9 CA 00 F5 02 17 98 90 3B 2D 64 ..W..........;-d
00404370 3F 6E B9 CA FF 3A FF 00 99 79 03 EC 89 B0 65 99 ?n...:...y....e.
00404380 CE 53 0D EE 72 F1 80 CC BB CC 00 05 04 C7 FF A9 .S..r...........
00404390 40 39 5D 76 5E A0 FB C3 B0 AB 8F D2 81 33 5C 82 @9]v^........3\.
004043A0 FC 70 3D BB FF A9 1B 9B BA 36 BD D0 EC 00 E0 2D .p=......6.....-
004043B0 FF A1 17 AF D9 04 94 0B A2 81 3B 01 0E 22 30 38 ..........;.."08
004043C0 BB 11 00 6B B5 4F 00 26 CF E8 00 27 CF 50 95 20 ...k.O.&...'.P. 
004043D0 3C 9F 41 2B 08 60 2A 7C 2A FF 00 00 67 42 35 FF <.A+.`*|*...gB5.
004043E0 60 9C B4 26 D8 16 E3 D6 38 E3 99 F7 3E 00 8E 97 `..&....8...>...
004043F0 00 72 32 CC 8B BB 0F 17 F4 78 70 93 41 97 29 30 .r2......xp.A.)0
00404400 1C DD AE 87 E8 24 45 6F 04 9C 71 70 76 0D E9 F1 .....$Eo..qpv...
00404410 0C 41 B8 FF 40 C1 AF 39 0E A2 FF BF BB 6F 00 1B .A..@..9.....o..
00404420 00 FF 5A AA 1E 81 C1 86 E6 45 48 02 94 3C 89 81 ..Z......EH..<..
00404430 F2 4F C3 7A 40 85 00 49 FE 00 F7 AC FF 00 80 A2 .O.z@..I........
00404440 83 82 A2 2E 66 00 DC FE 0C 57 36 00 B8 79 33 23 ....f....W6..y3#
00404450 7C 2C 54 9B 39 BF EB 37 60 FF 17 16 0F AE 81 6A |,T.9..7`......j
00404460 83 E8 65 FF E9 C1 DB 17 FF 30 6D 05 00 37 0C 68 ..e......0m..7.h
00404470 FF 93 0E DE 04 8F 35 35 EF 6E 00 3B 00 00 10 AA ......55.n.;....
00404480 85 00 08 C8 24 F4 EC DE A5 28 0A D1 5C 2E 6C 42 ....$....(..\.lB
00404490 D8 57 B9 B8 A3 88 6C 9E 61 04 F3 FF 00 31 6E 1C .W....l.a....1n.
004044A0 00 24 1E F0 6F 00 7B 30 00 78 40 93 49 12 C9 85 .$..o.{0.x@.I...
004044B0 06 C5 AD 50 6F F8 56 2A DA 00 8A 17 CA 9B F6 09 ...Po.V*........
004044C0 00 61 FF C8 3D FF 09 C7 A6 64 74 AC 8A 00 36 05 .a..=....dt...6.
004044D0 A9 05 1F DB 09 00 00 3B FD 00 AC 00 45 7F F5 50 .......;....E..P
004044E0 96 21 0B 5F A4 03 E8 44 8C BF 84 F9 FF C3 CE C6 .!._...D........
004044F0 05 46 FF 8A 8D DE 35 36 00 F3 00 DA BB 07 00 70 .F....56.......p
00404500 37 C4 DC C6 7B 2D 28 8B 61 00 10 00 59 83 00 E1 7...{-(.a...Y...
00404510 75 60 2A A7 75 7D DC 27 00 45 A9 EC 1B EB 03 27 u`*.u}.'.E.....'
00404520 BF FF E8 B3 E0 63 75 00 EC C7 00 00 02 87 6E 8C .....cu.......n.
00404530 80 0F C4 71 F0 26 00 E2 20 85 7E F3 36 9E 92 E2 ...q.&.. .~.6...
00404540 44 9A 2C 00 00 03 3A C3 50 A9 D2 89 24 5B 15 73 D.,...:.P...$[.s
00404550 F0 89 BC C1 39 D4 00 5B FA 07 D2 80 14 C3 8E 00 ....9..[........
00404560 00 DC 88 E5 A0 A2 00 00 50 C6 3E 4C 73 02 00 71 ........P.>Ls..q
00404570 38 D6 D2 B1 01 17 5D 68 00 7F 12 6E FF E9 00 00 8.....]h...n....
00404580 29 4E 47 76 9A B8 5E C5 8D 08 07 72 52 38 00 3A )NGv..^....rR8.:
00404590 31 FF 04 1D 8B FF C8 5D 8E 1F 1A 85 00 01 EA CE 1......]........
004045A0 D8 4A F0 00 00 CE 00 78 E2 13 1C ED AD C1 7C 0F .J.....x......|.
004045B0 00 26 73 81 06 15 83 D8 AB F3 00 D4 2A 40 FD FF .&s.........*@..
004045C0 59 EF 00 6B 7F 9E 20 41 BD 81 77 61 6F FF 2C 24 Y..k.. A..wao.,$
004045D0 CC 6C 2F 00 C7 D2 B8 A5 83 8B FF 00 36 C0 BE 0A .l/.........6...
004045E0 D8 00 9A BF 96 A1 E8 59 01 53 D3 B7 1F 00 C0 72 .......Y.S.....r
004045F0 FF 65 8B DF 5B 1E A1 AE 00 AB 9F FF 1C 00 E0 82 .e..[...........
00404600 7A 00 75 FF EE E5 41 FE B0 D0 CB A2 88 00 92 FF z.u...A.........
00404610 ED 40 07 FF 6F 08 01 E6 7E F8 26 CC D4 A1 00 CE .@..o...~.&.....
00404620 00 A2 A6 27 4F FF 00 C0 00 B8 36 E6 03 F3 BC 85 ...'O.....6.....
00404630 00 5E 2E FC F1 A6 FC 00 14 30 C1 22 BC B0 E8 9A .^.......0."....
00404640 8D EF 9C BE BD 00 00 8F CC E7 35 C1 46 37 E2 30 ..........5.F7.0
00404650 EA DA 44 40 C8 C8 41 75 00 DF B8 39 9F FF FB 2E ..D@..Au...9....
00404660 BE CF 00 00 FF FF F6 31 AD C8 67 EA 31 BE 7A 84 .......1..g.1.z.
00404670 FE 57 B2 1E 35 94 00 BC 52 67 D2 01 53 9A B1 A0 .W..5...Rg..S...
00404680 35 3C 74 2E FC 16 79 EB 3C 4B 64 E3 CF AC C6 37 5<t...y.<Kd....7
00404690 F2 73 F5 00 10 83 00 6F D6 A1 29 48 53 00 69 37 .s.....o..)HS.i7
004046A0 6C 0A 9E 5E 0C 00 B8 F9 E9 40 92 FF 30 47 18 8B l..^.....@..0G..
004046B0 00 C3 28 D0 98 3A FF 99 65 8A FF BF 0D 9F 10 7F ..(..:..e.......
004046C0 60 FE B8 36 C9 00 9A E5 22 FF 76 00 C9 3F A1 BB `..6....".v..?..
004046D0 A5 35 00 D1 0C DC B4 FF 18 2F 30 CE F0 00 F6 71 .5......./0....q
004046E0 AB 6C FF 5C 00 AD AC 7D AE 15 BC 88 B4 3F 4B 00 .l.\...}.....?K.
004046F0 4B 25 97 3F 3F 33 B5 FA F8 7D 06 CF 4F 4E 13 98 K%.??3...}..ON..
00404700 ED E6 58 49 6D 15 F7 84 FE 00 53 00 B7 00 61 CB ..XIm.....S...a.
00404710 C3 4B 18 58 3A 85 4E 79 00 00 DB 00 00 A0 FF D6 .K.X:.Ny........
00404720 AC AA FF 83 C3 D1 AE EF 00 06 C8 5B 82 2E 31 56 ...........[..1V
00404730 FF 5F D3 1A A8 91 80 91 CD 39 FF B7 00 54 0C FF ._.......9...T..
00404740 00 00 89 00 13 00 D8 B3 63 C7 FF 84 35 D8 F8 50 ........c...5..P
00404750 D6 51 95 00 8B 0A 3C C4 00 61 6F E9 DE 89 C1 FF .Q....<..ao.....
00404760 00 4B FF 42 8D 61 4E 0B 00 2A 12 17 83 C0 1B 73 .K.B.aN..*.....s
00404770 3D 40 C1 CA 41 B5 68 DA 1B FF BD D8 AD 5A FF 67 =@..A.h......Z.g
00404780 2C C6 DA F3 17 54 D9 18 2E 54 89 1E 8E 5D 72 DF ,....T...T...]r.
00404790 F2 00 98 00 A1 3E 21 40 4C 4D FF 9F 62 41 86 D9 .....>!@LM..bA..
004047A0 FA FF 12 00 83 D8 60 70 F9 FB 00 04 00 93 5A 81 ......`p......Z.
004047B0 00 FB C3 E2 16 8C 89 C7 00 00 39 AC 00 6F B4 00 ..........9..o..
004047C0 00 9F 92 5F 0E 09 09 FD 92 FF FF DD 02 D5 23 00 ..._..........#.
004047D0 44 57 3A FF AE 47 10 0B FC 00 76 81 ED 67 5A FF DW:..G....v..gZ.
004047E0 B1 C7 70 00 41 DC 1D 00 B1 DA DF F0 08 F0 F8 48 ..p.A..........H
004047F0 00 12 C6 00 6D 00 A5 BF 00 F5 62 00 2F 00 F1 01 ....m.....b./...
00404800 CF A0 F2 00 CC 00 86 94 00 B3 14 00 8B 00 FF E2 ................
00404810 50 A4 68 C1 06 FF 17 48 C3 B3 00 4B 09 F9 05 64 P.h....H...K...d
00404820 2F 8F 00 72 C2 41 3E 30 30 9C 86 5D 06 0A 00 7F /..r.A>00..]....
00404830 5E 5A 7E 56 FB 67 78 E0 1A FF F9 EB 00 78 0C 24 ^Z~V.gx......x.$
00404840 AB 26 F2 D7 86 CD 56 DB C8 A7 10 DD 5E D4 55 50 .&....V.....^.UP
00404850 5C 30 A9 0F 88 50 D6 77 BB FF FF F7 33 60 9F 38 \0...P.w....3`.8
00404860 8E 20 05 E0 64 FF BD 1C D2 00 00 A3 00 04 25 5B . ..d.........%[
00404870 6F B1 BF E1 7A 3F 82 F5 C3 26 C5 C2 08 C7 AB 0F o...z?...&......
00404880 00 1F E8 00 16 B1 C5 4F 63 51 9A C0 7B B2 FD 84 .......OcQ..{...
00404890 46 61 77 00 CF 4F 5E 29 8E 8A 1F 00 D4 D7 DE 1F Faw..O^)........
004048A0 23 10 CD 1C 63 17 AB 00 92 C5 D1 1E 96 C0 00 9F #...c...........
004048B0 ED F8 19 35 F0 68 5A ED 00 BF 91 C6 00 2C BB 00 ...5.hZ......,..
004048C0 4A 2C 8B FA 83 00 9D 73 B4 A6 83 D8 7E F7 86 83 J,.....s....~...
004048D0 00 E1 31 00 DE 00 33 9B B3 8A 57 00 23 00 DC 64 ..1...3...W.#..d
004048E0 C0 C4 9E AC 33 00 CC 00 FF 00 00 B2 00 FF FC FF ....3...........
004048F0 D8 C2 1A 06 F2 7B 01 B7 BE 60 A5 A8 20 B8 22 25 .....{...`.. ."%
00404900 FF A8 E3 FF 79 CF D5 8F 17 0A 00 7B E2 18 F4 BF ....y......{....
00404910 B2 65 B1 D0 3C FF 00 B0 54 6D 00 39 19 00 49 06 .e..<...Tm.9..I.
00404920 FD 95 31 FF 16 59 00 56 F0 FE 00 00 B4 20 BD 43 ..1..Y.V..... .C
00404930 E3 9C A5 FF 0D FF F9 5A 41 15 20 9F 7F 45 1F 9E .......ZA. ..E..
00404940 00 E9 74 1F 2D 09 3B 78 E6 08 7B 00 83 FF FF F0 ..t.-.;x..{.....
00404950 54 EB 27 A2 4D 34 8F AD 00 0C 47 E0 C4 72 02 7A T.'.M4....G..r.z
00404960 25 FF BA 57 24 21 60 C8 2C 64 FE 61 2F 00 00 C5 %..W$!`.,d.a/...
00404970 CF 34 E3 02 26 82 29 16 95 A7 80 7F FF 08 40 D3 .4..&.).......@.
00404980 83 36 F9 3F DE CC 08 A8 5F 67 BD A0 C9 8A 19 DC .6.?...._g......
00404990 52 00 16 64 81 FF 2C FF 88 25 E6 13 EF 03 A3 79 R..d..,..%.....y
004049A0 76 F6 00 88 7B 00 7B 23 AC 80 F9 93 24 00 EC 00 v...{.{#....$...
004049B0 D9 18 E6 2E 65 33 CB BC C7 3E 5F B8 22 11 9C 1C ....e3...>_."...
004049C0 93 E7 92 23 DC 8E 00 07 F2 7C 27 00 37 00 E7 AF ...#.....|'.7...
004049D0 C6 00 E4 96 57 58 3E 00 FA FF FF A3 F5 00 12 1F ....WX>.........
004049E0 F5 65 15 FF 52 87 AB C4 C7 82 81 11 12 A1 0A 3C .e..R..........<
004049F0 1C B1 79 69 23 62 4E 0E 49 4E F8 1E 00 DC DB 7D ..yi#bN.IN.....}
00404A00 37 E1 39 00 C3 F9 11 B2 86 60 26 96 32 56 FF 14 7.9......`&.2V..
00404A10 B8 F4 A7 52 BE C5 64 DC 53 00 00 30 37 8F 00 D0 ...R..d.S..07...
00404A20 42 A3 00 03 53 6D 96 6C 4D 0F 00 1A 30 7B 70 01 B...Sm.lM...0{p.
00404A30 00 32 DE A9 1A 52 2C 50 96 00 6C 36 00 1A 00 00 .2...R,P..l6....
00404A40 68 13 CE 53 E8 20 6F CA E6 1A 00 48 60 23 9D 67 h..S. o....H`#.g
00404A50 30 EF FA 4C FF 02 74 72 EF 52 D3 12 1D E9 01 8C 0..L..tr.R......
00404A60 7C 83 04 7B 00 25 04 C2 2C 96 00 DF 4D 02 DF 5D |..{.%..,...M..]
00404A70 84 9E C2 18 E4 E5 0E FF 8C D2 F1 EC FF 93 1F 5B ...............[
00404A80 3F F5 77 B3 25 38 2F 92 E0 97 77 02 05 FF 9A AB ?.w.%8/...w.....
00404A90 FC D2 FF 00 D8 4D EC 43 FC A9 52 C6 A6 38 A6 68 .....M.C..R..8.h
00404AA0 B1 81 27 08 04 00 C6 86 6B 27 FF DA B3 E0 00 7B ..'.....k'.....{
00404AB0 58 86 00 8F 91 F8 22 32 C8 71 19 00 DF D7 AF 50 X....."2.q.....P
00404AC0 7D A2 DD 10 16 23 06 00 F9 DF 9F 58 1A EA 08 D4 }....#.....X....
00404AD0 60 A4 39 BE 1A 90 A2 4B D0 8E 16 D2 2D 04 87 8B `.9....K....-...
00404AE0 47 C3 D2 1A CF 66 6B 7B 04 2B 5F 1A 28 01 5C F0 G....fk{.+_.(.\.
00404AF0 00 00 74 05 80 01 BB 46 87 F4 AB C7 1D 0F 93 B3 ..t....F........
00404B00 51 00 5A BA 10 0C C9 00 00 FF 18 D9 F0 02 86 2F Q.Z............/
00404B10 2C 0A 0B A0 81 12 BF C8 E8 DF B1 18 B5 00 C6 F7 ,...............
00404B20 47 92 00 87 73 F1 6C FF 90 3C 22 F3 81 A0 2E DF G...s.l..<".....
00404B30 0C 83 0D 01 E7 00 B4 50 6F FF FA 9E E1 DB 00 FF .......Po.......
00404B40 FD B0 1D FF 00 8B 94 8F 01 66 BA FA 00 DD 05 E8 .........f......
00404B50 DA 7F 14 FD 64 7A 6D 80 00 09 03 FF 31 00 E2 5F ....dzm.....1.._
00404B60 FC F5 00 C3 55 46 85 AC 00 17 87 00 6B BE FB B5 ....UF......k...
00404B70 FF 31 37 0E 47 D2 1C 3D 00 55 2A 00 E1 FF FF 00 .17.G..=.U*.....
00404B80 09 00 E6 47 00 24 30 48 9F 21 A4 92 EC CD 7A 43 ...G.$0H.!....zC
00404B90 50 A7 EF DA 25 64 09 00 AF D4 40 33 C3 74 C5 D5 P...%d....@3.t..
00404BA0 FF F4 39 E7 F6 98 E1 00 B2 00 57 F8 EF 8A 58 3D ..9.......W...X=
00404BB0 F1 87 50 4C D5 00 30 C7 66 2E 5A 00 3E 0D 99 42 ..PL..0.f.Z.>..B
00404BC0 24 7E 9B 93 03 A4 0D 1B 00 79 7B 62 26 F0 77 00 $~.......y{b&.w.
00404BD0 B9 04 3B B4 B7 4F 76 90 8F 68 00 02 00 00 45 25 ..;..Ov..h....E%
00404BE0 72 39 72 CC 5A 42 B0 CE 2F 3D 00 E9 DD 00 00 42 r9r.ZB../=.....B
00404BF0 00 00 3E 90 DB 40 50 E2 02 4D 80 00 00 FD 3C 48 ..>..@P..M....<H
00404C00 00 08 7D 9C 1F CC 0D 5B 78 72 5D DC 40 66 75 00 ..}....[xr].@fu.
00404C10 FF 95 9E 21 09 94 58 ED B3 73 E0 9E 87 EB 7D 9A ...!..X..s....}.
00404C20 E0 18 93 6C 68 F4 00 9D 9B D0 8B 0C 05 88 FD 00 ...lh...........
00404C30 CF 1A 04 04 7C 9E 57 5B 9E 6F 61 39 EB 68 F6 9D ....|.W[.oa9.h..
00404C40 AC 17 00 5C 00 5C 00 E0 91 00 D9 DE 62 00 92 42 ...\.\......b..B
00404C50 FF 88 CF 46 15 E4 7A 00 A9 1D 00 2D 4D 6F 6B E8 ...F..z....-Mok.
00404C60 9C A5 B3 00 C9 ED 65 16 40 00 71 35 94 02 DF 00 ......e.@.q5....
00404C70 9D F0 86 81 00 00 73 FF C8 61 BE 83 75 59 00 F9 ......s..a..uY..
00404C80 DB 48 80 74 00 5F BC 34 74 DB 44 00 28 5A 10 31 .H.t._.4t.D.(Z.1
00404C90 49 CB B5 FA B1 3C C9 BD FF 28 74 EE E9 5B FF 3F I....<...(t..[.?
00404CA0 BF 56 9F 4E 82 6E DE 4E 91 EF D1 42 FF 62 46 BB .V.N.n.N...B.bF.
00404CB0 60 00 C9 2C F5 03 00 A3 10 7C 39 7F 48 DC 63 16 `..,.....|9.H.c.
00404CC0 77 1D 0D 17 A1 E9 1E 00 CE 49 C5 FE 49 7A 14 70 w........I..Iz.p
00404CD0 F6 1C FF 6E 09 45 82 00 D4 8A A1 B6 CB 00 FF 36 ...n.E.........6
00404CE0 DB FF 00 03 4B BB FF 9B 03 88 D1 30 00 A9 49 FD ....K......0..I.
00404CF0 60 FF EB F7 01 01 5E 00 5C 00 FF 70 23 D8 C1 80 `.....^.\..p#...
00404D00 12 2D 34 28 95 43 55 91 45 40 31 8B C3 F5 28 2D .-4(.CU.E@1...(-
00404D10 53 BF E6 16 5C CD D5 D8 CE AA E2 95 F7 D9 00 5A S...\..........Z
00404D20 7B BD 6D A8 38 EE E6 A3 00 6C 00 7D FF 47 0C 05 {.m.8....l.}.G..
00404D30 1D 00 89 E0 C0 40 3A DF 97 A2 BF 1F 00 18 5E 00 .....@:.......^.
00404D40 11 00 92 8E A9 AF 68 54 FF FF 00 FF 85 3F C3 00 ......hT.....?..
00404D50 00 C0 03 04 E8 19 6A 26 63 3B A1 00 3F A1 14 64 ......j&c;..?..d
00404D60 FB 8C 74 2D D4 CB 75 04 4B 81 EF 7D 31 40 BF 00 ..t-..u.K..}1@..
00404D70 00 DB FF 7A BF 00 00 C6 00 EC A0 AF 00 00 34 82 ...z..........4.
00404D80 30 18 5A 91 04 DD FE E0 00 6C 84 CD 60 7F 23 B5 0.Z......l..`.#.
00404D90 1D 34 54 91 E3 B2 C3 C6 00 9B 83 EA 2C 37 03 23 .4T.........,7.#
00404DA0 B7 D2 47 72 04 00 CC 43 60 C4 35 77 00 55 00 27 ..Gr...C`.5w.U.'
00404DB0 DF 50 BC E4 B5 0E 77 B0 74 00 FC 7D FD 74 00 B1 .P....w.t..}.t..
00404DC0 1B 00 17 64 01 1A 03 20 FF 76 63 3A A8 00 DE 9D ...d... .vc:....
00404DD0 93 AB 80 00 00 00 03 C2 2E CC 98 10 4E BF F8 5B ............N..[
00404DE0 74 D8 F0 CD 92 B4 8E 23 7D A3 D6 D0 F0 18 A0 C3 t......#}.......
00404DF0 86 FF 61 7B 01 59 67 23 73 5F B6 44 00 4D E0 E4 ..a{.Yg#s_.D.M..
00404E00 F8 3F F4 3C 9D 04 5E 72 FF A3 7C 10 1B 23 E4 7F .?.<..^r..|..#..
00404E10 D2 33 C9 59 5F FD 2C 7F 00 00 6A D0 39 9D 00 DD .3.Y_.,...j.9...
00404E20 00 E2 00 1B AE FE C8 DD F8 26 0C 3C 20 00 32 B1 .........&.< .2.
00404E30 49 BC DA 63 F9 FE 00 00 00 6A EC 0F DE 00 00 E1 I..c.....j......
00404E40 37 64 18 53 E8 02 1E 0B 74 A6 00 06 36 04 05 0B 7d.S....t...6...
00404E50 C4 F8 00 03 53 00 E0 2F BE E5 C4 CB DE 9E CB 00 ....S../........
00404E60 0A 13 C6 CC C2 8B C2 66 D9 10 BC 00 E0 0C CD 4F .......f.......O
00404E70 14 48 08 00 A4 2A F1 22 83 83 00 1E 00 FB 83 4E .H...*.".......N
00404E80 74 E4 2E 00 56 B6 FF E1 75 2B 81 55 A0 D4 85 2B t...V...u+.U...+
00404E90 F1 00 44 E8 21 00 00 CF 46 AB 00 51 80 C6 16 AA ..D.!...F..Q....
00404EA0 EC 72 ED 4C 74 8F 43 59 17 F7 64 73 FF 31 00 CD .r.Lt.CY..ds.1..
00404EB0 C6 60 6A 06 FF E9 22 6A E6 28 7B E7 FE 65 83 47 .`j..."j.({..e.G
00404EC0 67 74 0B 73 DF 00 E4 01 15 FF 00 1C 00 69 FF 25 gt.s.........i.%
00404ED0 E9 00 31 00 F7 30 00 CA EE FF 87 EB 58 00 FF 00 ..1..0......X...
00404EE0 3F A1 B4 00 D4 5C 97 82 62 22 E2 19 2D 7B 6A 67 ?....\..b"..-{jg
00404EF0 27 00 4F BC A0 DA 56 FB 54 00 88 CA 0B D6 54 4D '.O...V.T.....TM
00404F00 5D 58 24 22 00 95 4B 48 50 FF 40 00 02 64 13 5A ]X$"..KHP.@..d.Z
00404F10 7F 52 FD AA 8B 86 B8 30 60 15 00 2C 61 23 F7 02 .R.....0`..,a#..
00404F20 00 20 8C 15 5D B0 00 F7 00 FF D9 E0 C0 7A C0 15 . ..]........z..
00404F30 88 B0 00 00 00 B0 EB 8D FF C9 38 07 80 01 2C 73 ..........8...,s
00404F40 4A 3F 00 00 6A 00 EB 73 43 00 20 BD 06 5E 00 02 J?..j..sC. ..^..
00404F50 01 81 00 FF CF 08 54 2D FE 60 EA 14 D5 FF 00 EC ......T-.`......
00404F60 40 9B 18 57 32 84 00 BF E0 DE 16 23 00 7E 75 00 @..W2......#.~u.
00404F70 93 C8 13 D0 10 1E 93 B3 4D 98 73 94 39 64 CF 03 ........M.s.9d..
00404F80 18 12 F1 89 00 E7 00 C6 19 8A 8A D4 2C 81 15 3A ............,..:
00404F90 95 4C B1 BE 0C F9 FD 0C 3F 9C E5 44 FF C5 80 28 .L......?..D...(
00404FA0 C4 01 1F 75 00 00 68 13 00 37 88 EA 9D F3 B4 E0 ...u..h..7......
00404FB0 14 56 EE E1 00 A3 FF FF D7 67 2D 41 8E A2 00 9B .V.......g-A....
00404FC0 E4 0B 00 05 00 B3 F5 FF 6C 89 E9 4B 19 AE AF FF ........l..K....
00404FD0 98 B7 EB 14 89 00 7C 00 23 BE E2 88 FD 7C F7 CB ......|.#....|..
00404FE0 FF 02 A4 9C 63 6C 00 00 12 00 00 05 00 27 00 00 ....cl.......'..
00404FF0 00 0F 00 02 78 E0 5A A4 BF 32 DB 59 C3 44 02 4E ....x.Z..2.Y.D.N
00405000 82 4F A2 86 C1 EB 7A B6 8E 5B 79 C6 00 28 00 87 .O....z..[y..(..
00405010 FF 00 86 F7 85 5F 8D FF 9C 02 AE FF FF 91 6B 8B ....._........k.
00405020 C9 88 E1 00 8B 16 8D 00 98 7D B9 77 A4 10 00 66 .........}.w...f
00405030 00 EA 9F 0E 36 06 BD 1D 88 93 F4 E4 50 DC BC 0D ....6.......P...
00405040 FF F7 FF 7E FE 3C 00 1E 00 1C 7A 4B F8 09 9F DB ...~.<....zK....
00405050 EB 61 32 95 04 4E 03 95 61 E4 E5 00 00 EF E0 E3 .a2..N..a.......
00405060 CF E0 E4 F4 02 EF CB 31 68 E7 00 46 61 83 B7 6E .......1h..Fa..n
00405070 C8 A1 AA B8 00 1F FF 02 47 0C D9 2A 1C 46 5F B6 ........G..*.F_.
00405080 FF FE A8 F9 D7 A1 98 64 55 2D F5 FD 2C CA D8 C2 .......dU-..,...
00405090 DA 00 9E 51 FE 99 DF 00 C9 5D 04 4B B9 6C F8 AF ...Q.....].K.l..
004050A0 3C 5E 7C FF 39 5B 16 37 AF 12 00 80 00 1F 87 A3 <^|.9[.7........
004050B0 38 00 00 00 3F CD 00 52 00 00 BF B4 50 44 8A 4C 8...?..R....PD.L
004050C0 22 DA A8 44 4A 00 A1 29 FF 87 FC DB 38 2F 00 01 "..DJ..)....8/..
004050D0 29 FE FE 72 3F 9D 7B 2D 6D 00 68 EA 00 9D D0 00 )..r?.{-m.h.....
004050E0 1A 6A 1E F8 EF E1 CA 65 7B 91 81 E8 72 01 07 E3 .j.....e{...r...
004050F0 E8 00 00 72 7B 7D 20 23 08 BA 2C 69 8B F4 BC 87 ...r{} #..,i....
00405100 FF 99 23 00 0A 1C EE FF 01 00 CA 00 AF 25 00 BC ..#..........%..
00405110 09 3D FB 40 E4 93 A0 6F B7 F7 DC C1 6D 81 00 FF .=.@...o....m...
00405120 55 C6 20 00 FF 06 FB 04 9B C3 81 00 07 EF B3 95 U. .............
00405130 C2 34 00 D4 F4 E4 6E 71 00 EF A8 E4 06 2E 00 C5 .4....nq........
00405140 48 7B 00 DE B8 B7 FF 03 EF 87 C9 41 49 FC 00 91 H{.........AI...
00405150 00 57 00 92 04 72 1B 17 14 FF 00 00 23 F7 FF 6D .W...r......#..m
00405160 0B 00 00 26 00 C9 BA 18 2F 3F DE 28 C5 09 36 18 ...&..../?.(..6.
00405170 C7 3A 84 27 C0 E5 75 49 F0 24 00 00 20 74 83 95 .:.'..uI.$.. t..
00405180 5F 00 A7 55 16 6F 17 A7 00 B6 73 36 30 A5 93 7E _..U.o....s60..~
00405190 4C FF 1E E2 85 16 3E D5 00 4D FF 00 11 09 3F 91 L.....>..M....?.
004051A0 51 16 00 8B 80 BD F4 C0 5A FF FF 81 5A 9C 7E E5 Q.......Z...Z.~.
004051B0 CE AF 00 1E 1A 3A 00 DB 28 46 E9 74 81 A7 28 91 .....:..(F.t..(.
004051C0 94 09 16 38 EB FF FF B2 BC BD 2C 7A 91 FE B2 9F ...8......,z....
004051D0 34 00 41 7E 1C 55 33 78 3F 32 00 B1 00 0F CE 57 4.A~.U3x?2.....W
004051E0 00 F0 CF 17 CC CC F0 0D 18 47 D5 FF E5 10 3D A4 .........G....=.
004051F0 81 EC 7D 18 B5 FF C4 98 E3 64 33 91 08 F1 89 DA ..}......d3.....
00405200 00 AF 9E B4 FB 00 9E 00 20 27 00 21 E2 3E 28 F3 ........ '.!.>(.
00405210 5F A5 41 DB 00 B8 FF 00 F1 FF AF EF 86 EE FF BF _.A.............
00405220 1E 87 55 E1 41 97 50 00 A6 92 38 9B C6 4A 01 E0 ..U.A.P...8..J..
00405230 6E 2A A3 D8 96 FF 46 00 00 29 92 50 50 91 06 7D n*....F..).PP..}
00405240 1B FF 6A E9 C3 6D 22 B8 A9 E3 10 78 CD 2E AC D4 ..j..m"....x....
00405250 60 6E 13 A3 7C 66 EE C7 F7 00 D8 EE 6F 38 FF D1 `n..|f......o8..
00405260 00 8C 00 33 6E 4D 6A F9 26 C6 40 1A 18 F5 87 F5 ...3nMj.&.@.....
00405270 4E 00 52 FB 66 16 00 74 0C BF DC C8 69 25 18 01 N.R.f..t....i%..
00405280 AA 00 3A FA 78 FE 91 3D F1 C7 1A 95 CB 40 42 C7 ..:.x..=.....@B.
00405290 96 1F 31 BA 0C C4 B9 8D 00 BF DA 5D 00 76 7F 12 ..1........].v..
004052A0 28 F9 F9 75 00 81 C0 BB 40 E0 C3 40 05 A0 E9 00 (..u....@..@....
004052B0 3B F5 E0 C1 E3 83 47 35 0C 6E 00 39 80 FF DC 00 ;.....G5.n.9....
004052C0 00 00 3E CF 2D 4C 04 D4 F8 00 5E 50 F7 D8 E1 82 ..>.-L....^P....
004052D0 00 3D C0 FF 08 58 00 D7 95 FF 3E 95 87 FD 08 1D .=...X....>.....
004052E0 00 96 62 49 E8 A1 66 7D 53 A1 E6 33 1C DE 00 F7 ..bI..f}S..3....
004052F0 68 61 2D 5A 68 00 FF 63 5B 00 00 CC EE 8A 97 00 ha-Zh..c[.......
00405300 14 DF 8A EA F3 06 37 A9 A1 00 EB 71 00 C9 8D 9E ......7....q....
00405310 B0 08 14 67 CB C2 4C E3 FF 8E CB 58 A8 26 3F 00 ...g..L....X.&?.
00405320 07 EE 27 DA F8 73 C4 15 75 0D CE C1 47 1D 00 DD ..'..s..u...G...
00405330 14 FF 98 EE 54 13 82 00 1D 00 7E 00 F8 9C 79 09 ....T.....~...y.
00405340 3B BE C8 B7 3F 9A A6 43 F0 C3 C3 3E 67 00 4C 00 ;...?..C...>g.L.
00405350 94 71 19 00 F3 34 38 76 81 11 81 4C 26 7C 44 D1 .q...48v...L&|D.
00405360 A4 C0 95 00 B0 00 4A 6B 88 1F 31 E7 05 E2 FB 60 ......Jk..1....`
00405370 06 21 5C 6C EF 7C 38 1F FB FF 00 30 2F A3 45 FF .!\l.|8....0/.E.
00405380 B3 54 F2 9F 4F 3D 5D 00 5B 71 C1 F3 04 13 12 87 .T..O=].[q......
00405390 AE 36 A1 2C A6 59 19 00 0E 8B 70 00 FF E7 09 F1 .6.,.Y....p.....
004053A0 0F 6C 00 0A A7 60 96 42 00 F8 00 C3 00 12 A7 37 .l...`.B.......7
004053B0 BA 73 1C 00 C0 E3 00 73 8C 0E 01 56 8C E2 FF AB .s.....s...V....
004053C0 0E 00 05 09 94 4E 08 37 D3 E7 37 F6 70 70 6C 04 .....N.7..7.ppl.
004053D0 F2 0A 85 A7 B5 AD 79 B0 1B A6 00 FF 4E 84 B0 F3 ......y.....N...
004053E0 E9 03 00 6B 40 00 05 15 98 12 90 00 93 7C A8 FE ...k@........|..
004053F0 FF 2C DE 74 F1 FF 03 32 00 C3 02 FF 36 64 74 82 .,.t...2....6dt.
00405400 FF 21 00 16 00 00 50 00 17 00 EC D2 F2 9C 1B 70 .!....P........p
00405410 88 B7 9F FB 63 BC 00 3A 42 7E 6D 00 E2 BB 00 76 ....c..:B~m....v
00405420 A3 3A 02 9D 38 4C 34 C1 00 CA 73 1B 1D D1 6C 00 .:..8L4...s...l.
00405430 3C A1 F2 D2 F1 99 4D 5D FC 18 83 78 93 16 00 5F <.....M]...x..._
00405440 E2 81 0B 82 FF 69 9C DE 16 C2 C6 00 AE 60 CE B2 .....i.......`..
00405450 04 C8 FF C3 19 F9 7D 0D 87 BD 00 80 4F 00 8F AB ......}.....O...
00405460 1F B2 93 00 F0 89 3C 97 11 06 83 00 A4 FF BB C7 ......<.........
00405470 30 DE F1 96 CC 05 BD F4 B5 A3 E9 29 54 75 2A D2 0..........)Tu*.
00405480 00 02 B1 2F 00 F6 3D 43 87 E0 F5 00 0A 43 F6 B6 .../..=C.....C..
00405490 FB FE 17 1B F0 79 8E 1C C7 E4 38 00 03 52 49 12 .....y....8..RI.
004054A0 00 6F 43 0A 73 9B 00 B7 00 A5 0F DF 00 AF 00 40 .oC.s..........@
004054B0 81 FD F8 00 69 00 F3 16 90 00 88 67 00 41 EF FF ....i......g.A..
004054C0 07 69 17 15 76 08 4C 83 F6 EC 0B 00 80 A2 DF 72 .i..v.L........r
004054D0 CA 03 B2 00 83 FF FF 48 F6 00 00 FF 10 8A 80 0F .......H........
004054E0 62 B3 1E D4 8C B4 A7 81 00 F0 4E 00 D2 92 1E 00 b.........N.....
004054F0 41 F7 CA 37 73 0B 96 D1 30 00 0F D7 8C 20 CB 00 A..7s...0.... ..
00405500 11 FF 21 00 B0 55 00 09 AF 0C FF 00 26 11 A3 0D ..!..U......&...
00405510 59 C7 80 B0 A8 58 5F 04 68 5F 9F 40 2F B2 82 A2 Y....X_.h_.@/...
00405520 D7 FF 00 46 F0 A7 57 65 8C E9 0A CB C9 E2 FF 0B ...F..We........
00405530 D5 D1 F5 C2 CB 9D E2 82 C2 DB D9 00 87 FF D9 00 ................
00405540 86 E2 25 92 38 E4 0E E4 7D D5 F1 A3 00 26 30 83 ..%.8...}....&0.
00405550 84 3F CC 02 56 C4 00 0F A1 B9 31 BD DF 7E 00 5C .?..V.....1..~.\
00405560 1C B4 C0 BE 05 C6 30 DF FF 8B BB 00 00 DF FF 75 ......0........u
00405570 7D 04 43 93 65 6A 60 A3 4D F1 FF 00 D5 90 FD D2 }.C.ej`.M.......
00405580 50 1C 5E 2D 00 00 FF D5 7B 27 1D 25 9D 66 80 1D P.^-....{'.%.f..
00405590 82 81 00 62 DD BE 76 51 BF 59 25 51 96 04 04 42 ...b..vQ.Y%Q...B
004055A0 64 00 5A 1D 1C 00 BD 71 9C DC D8 D1 F1 E2 C0 30 d.Z....q.......0
004055B0 96 0D F3 60 01 FA 64 69 ED 1F DC EE E9 13 F8 67 ...`..di.......g
004055C0 00 95 4A 00 FB 1C 07 FF 53 00 5C 21 01 14 E0 B1 ..J.....S.\!....
004055D0 00 13 83 FF 70 DF E6 6C 0C 8B 77 00 10 18 F1 89 ....p..l..w.....
004055E0 72 0C AB 39 9C 8E 71 27 62 00 98 E1 8B 70 FF 00 r..9..q'b....p..
004055F0 30 60 00 8A 00 00 AC 00 CC 1D 60 A8 B5 3C 9F 41 0`........`..<.A
00405600 00 8A 01 3D BF 6D 82 40 00 34 FC 00 F9 98 F1 C1 ...=.m.@.4......
00405610 52 2E 46 80 29 0E 00 8D E3 AA C0 D2 00 CE E5 A6 R.F.)...........
00405620 FF B2 00 14 02 FF 79 24 2A F6 D3 FC F6 59 93 A1 ......y$*....Y..
00405630 5F 00 F2 00 94 89 FF 66 49 FF F9 24 ED 10 4A E0 _......fI..$..J.
00405640 64 00 E5 9C CF 84 02 36 78 08 47 C1 5C 82 00 93 d......6x.G.\...
00405650 4D 0C 55 A0 00 00 73 5E FC 35 E9 82 C1 41 74 28 M.U...s^.5...At(
00405660 3D E1 B2 00 0B E0 44 ED CD 54 56 F0 74 1F 31 20 =.....D..TV.t.1 
00405670 23 00 00 FF A6 B9 00 00 4A 42 90 42 4F 08 3F 66 #.......JB.BO.?f
00405680 E8 18 18 3E 5D 00 59 A7 F4 9C FE B1 CC 26 1E 03 ...>].Y......&..
00405690 37 97 7A AD C6 B1 E6 00 83 9B DC E6 00 C5 1D D6 7.z.............
004056A0 61 B0 FF 00 99 22 AB 69 17 00 3F 19 54 B2 C0 D6 a....".i..?.T...
004056B0 16 DB EE EA 02 AF 6B 00 B3 8C 00 8B F9 B9 D0 00 ......k.........
004056C0 C6 CE D6 9D 8F 02 55 52 86 44 BD 31 42 58 42 C6 ......UR.D.1BXB.
004056D0 C6 16 2E 00 BC CC 94 7E F0 8B 00 AE 00 80 84 00 .......~........
004056E0 AA 4E 67 00 BD 97 C0 32 1E 8C B6 D7 15 2E 88 01 .Ng....2........
004056F0 E4 F2 00 00 5C 1A 00 25 1B C4 4F F6 00 B3 1A 4D ....\..%..O....M
00405700 68 FF 54 E7 00 E8 00 20 50 CC B8 91 44 02 28 7A h.T.... P...D.(z
00405710 C1 70 A1 CF 52 41 90 F7 FA 12 E8 1E C0 50 35 F4 .p..RA.......P5.
00405720 9B 47 B4 3F DE 8A 0F D5 12 8F C9 B6 30 D7 E2 7C .G.?........0..|
00405730 93 82 70 A8 FF C1 A9 D6 B1 94 16 A2 4D 23 70 FF ..p.........M#p.
00405740 BB 02 E6 A2 66 89 57 FF D9 9F EF EC 32 E9 14 01 ....f.W.....2...
00405750 11 D2 48 DF E3 73 00 09 85 FF 42 88 98 58 00 54 ..H..s....B..X.T
00405760 1D 00 4E 09 3E 00 E7 CF 31 90 ED 00 FF 38 85 64 ..N.>...1....8.d
00405770 91 97 87 97 A6 73 A3 67 FC D0 00 AE FF FE 00 A5 .....s.g........
00405780 50 FF 5C D9 BF 57 00 4C 95 6E F6 04 18 C8 00 8F P.\..W.L.n......
00405790 BC 31 B0 82 00 F2 3C 9F FD 90 00 7E 4E 81 FA 32 .1....<....~N..2
004057A0 85 00 FD A7 08 EC A8 94 9D 09 32 A7 FF 00 08 8B ..........2.....
004057B0 E4 3A 6F 78 52 60 C4 B9 79 EF 45 8F 21 04 CC 00 .:oxR`..y.E.!...
004057C0 C0 00 69 E7 0B 28 CE 00 12 D0 06 E5 E9 4C E7 00 ..i..(.......L..
004057D0 B7 81 00 DF 00 00 92 B7 D5 68 F0 8D 00 CF 00 00 .........h......
004057E0 E3 DF 57 49 70 00 FA 29 B1 09 A1 48 3F 76 BB B5 ..WIp..)...H?v..
004057F0 3E FF 00 0B A4 73 66 50 B3 09 B2 0F 4E 00 79 81 >....sfP....N.y.
00405800 13 FF 1E FF 61 BF E4 42 27 FB FD 00 00 D8 98 E7 ....a..B'.......
00405810 79 BF FF 24 EA E2 06 1E FF 4A 97 7D 1D 2D 7C 82 y..$.....J.}.-|.
00405820 CC CD E2 43 96 89 43 CE 21 ED 59 3D C8 AA 00 2D ...C..C.!.Y=...-
00405830 3C B8 0E 00 1F 03 BC 00 44 63 45 98 2D 21 FF 99 <.......DcE.-!..
00405840 56 34 D0 9E F7 92 02 09 BB 10 00 3F F0 99 EA 00 V4.........?....
00405850 20 06 00 74 14 00 40 00 47 E8 6C CA 21 00 12 FF  ..t..@.G.l.!...
00405860 00 4C 00 6A 82 00 0A 8E F8 B1 68 C9 F8 1D 3A 5C .L.j......h...:\
00405870 00 FB BF 4C 02 7A 31 BF 3E FD EB 36 00 FF 73 00 ...L.z1.>..6..s.
00405880 F8 C5 33 00 DE 00 F1 1E 1C 58 CE 68 42 1F 00 7A ..3......X.hB..z
00405890 0D 28 00 87 8D E2 16 60 4C 00 00 FF 02 85 7D 62 .(.....`L.....}b
004058A0 24 1E D9 8E 85 0E 9A AE 33 3B 1B 34 69 19 2F 01 $.......3;.4i./.
004058B0 24 8E 39 F6 8B 41 C2 00 00 36 83 42 00 BE 05 49 $.9..A...6.B...I
004058C0 F2 00 FF 00 CC 13 0B 64 00 97 17 11 D9 B2 FC 10 .......d........
004058D0 00 2C C2 97 B1 00 C3 00 FF 20 DE E0 EC C6 00 3D .,....... .....=
004058E0 19 EB 2A 34 6A 19 A1 39 00 76 00 C0 78 B5 FF 00 ..*4j..9.v..x...
004058F0 00 86 00 92 57 E2 02 00 11 09 B6 C2 35 FF 20 13 ....W.......5. .
00405900 3B 25 00 01 BF 18 FF 54 6F 4F C2 E6 1E 3A 00 DC ;%.....ToO...:..
00405910 FD 26 02 BC 40 33 04 CA 71 C8 CB 7F 82 00 E7 21 .&..@3..q......!
00405920 79 C1 3E 13 74 A1 7C C4 05 FF C3 FA DB FF 68 BE y.>.t.|.......h.
00405930 52 F8 63 00 92 D7 3C 82 86 ED 00 12 5F 08 C9 E7 R.c...<....._...
00405940 04 4B 0A 94 53 0A C2 BA 7A 06 D5 00 E6 00 3E 7B .K..S...z.....>{
00405950 68 51 00 15 40 FF C0 00 9D 9F 6E 00 B7 FF 7E D1 hQ..@.....n...~.
00405960 17 C6 50 00 AD 00 09 DC 8C 9A 00 9C C1 E9 1D 4C ..P............L
00405970 6E EA 10 84 89 D8 69 00 00 7B 4A 6F 30 00 68 3A n.....i..{Jo0.h:
00405980 E9 8E 21 FB B9 00 6F 05 06 7F 60 A9 95 8D C3 CB ..!...o...`.....
00405990 75 58 45 CD 81 13 FF 22 6C 00 80 00 A1 C0 ED 43 uXE...."l......C
004059A0 3D 18 38 6A 00 00 AA 99 C1 00 F3 FF 78 7A E6 0E =.8j........xz..
004059B0 98 00 FC 05 37 4C 02 81 1C 46 BF 00 00 FF 00 80 ....7L...F......
004059C0 4A A8 73 9E FF 00 24 A8 62 7C D1 A8 75 71 00 CC J.s...$.b|..uq..
004059D0 23 C7 00 3C D6 A1 02 05 FF 1F 00 5E C0 9F 5F FE #..<.......^.._.
004059E0 5A 23 C6 CC 16 EF C6 84 FF 17 ED 72 00 00 CB 8E Z#.........r....
004059F0 5C 00 C3 14 6C B8 FA DB 00 3B 00 73 2E BD 60 87 \...l....;.s..`.
00405A00 8F E5 A1 1D 44 D8 03 00 FA C3 7C 1D 10 3A 42 51 ....D.....|..:BQ
00405A10 00 CB B8 10 81 9F 23 E7 37 EA 26 39 19 DC 0B 66 ......#.7.&9...f
00405A20 00 00 2F 19 85 00 DB 70 20 84 F4 00 45 00 40 08 ../....p ...E.@.
00405A30 B5 BB 02 B9 00 FF FD C0 75 93 D0 3C 33 E6 1A 91 ........u..<3...
00405A40 E1 00 00 E0 38 9A 0F B6 AC FF 95 20 08 83 28 A8 ....8...... ..(.
00405A50 96 FF 5C F3 7F DF 52 00 9D 37 00 68 5B BB FF 03 ..\...R..7.h[...
00405A60 75 DF DC 81 84 40 79 2E E7 73 00 11 18 11 5F 2F u....@y..s...._/
00405A70 78 C1 B5 DE 00 7D 02 9E 54 54 25 85 96 DB 00 41 x....}..TT%....A
00405A80 F4 C2 9D E0 F5 D1 8B 7C 5A AF 3F 90 21 30 EE 01 .......|Z.?.!0..
00405A90 ED 37 F1 2D 00 5D 6A 93 59 1C AE 28 00 76 00 00 .7.-.]j.Y..(.v..
00405AA0 EF B1 57 FE 1D 26 FD 86 16 E4 C7 CD 84 A1 06 00 ..W..&..........
00405AB0 05 05 10 73 00 9C 12 DF 00 00 19 01 95 00 FA 46 ...s...........F
00405AC0 FF 96 00 B8 3A FF 28 F3 DC 42 DE FF 8A CC 22 F4 ....:.(..B....".
00405AD0 84 A6 99 09 71 59 00 D7 B9 46 30 5C B9 E0 E2 80 ....qY...F0\....
00405AE0 CC 2B 32 9C EF 78 62 02 00 D1 A2 F1 74 00 00 00 .+2..xb.....t...
00405AF0 1F 88 66 B7 F2 E4 47 93 BF F6 0F 40 A0 95 A8 44 ..f...G....@...D
00405B00 D3 45 42 00 44 B5 CA EB 00 32 07 D1 93 30 CC FC .EB.D....2...0..
00405B10 17 D1 50 D6 C9 F4 3E B3 B4 8C 97 1E FF 88 00 FF ..P...>.........
00405B20 DB 96 83 DB D6 7F 2F 28 00 82 00 5C 89 FF FF A0 ....../(...\....
00405B30 3C 8D A7 A6 F6 7A A7 88 4C 00 0F 06 71 3B 00 00 <....z..L...q;..
00405B40 70 A4 0D 78 78 1F 00 01 15 14 00 81 15 26 C8 00 p..xx........&..
00405B50 FF AE ED 3D 8D 89 FE 14 82 00 ED D5 53 2D 00 72 ...=........S-.r
00405B60 A4 E4 8E 00 E8 E4 92 CA E8 E5 14 1D 0C 08 0D D0 ................
00405B70 E4 A1 00 00 53 08 24 7E 60 24 97 77 86 FF 09 FF ....S.$~`$.w....
00405B80 60 45 00 03 60 A1 83 BF 45 00 83 2F 82 00 FB FF `E..`...E../....
00405B90 00 E5 89 81 16 4F D2 AA FF 00 08 34 7A 34 FF 5F .....O.....4z4._
00405BA0 81 46 E5 B3 00 2D 47 00 FF 1D 85 72 90 CB 9A 6C .F...-G....r...l
00405BB0 8A 9A 57 B9 F1 E9 94 1A FF F2 B9 40 5B 8B D3 BF ..W........@[...
00405BC0 0B B5 48 8B DF 7A 5F 38 00 60 7D A2 58 85 33 25 ..H..z_8.`}.X.3%
00405BD0 D7 75 FF 1D 40 E7 00 3A 02 00 26 75 01 DE C5 4C .u..@..:..&u...L
00405BE0 7D A2 86 30 41 17 82 00 40 E4 3B 91 3E 7D 81 CA }..0A...@.;.>}..
00405BF0 ED C9 9E 43 24 F0 FF A3 80 23 6A FF 07 9C 87 DD ...C$....#j.....
00405C00 5E E1 61 FF 26 28 72 F9 FF ED 61 00 4C 00 7E B2 ^.a.&(r...a.L.~.
00405C10 F8 7C 92 FF DC 30 FF C1 9D B0 5B FF 57 3E 08 56 .|...0....[.W>.V
00405C20 00 AD 1F 50 35 38 00 00 9D 75 2E B1 34 00 CA 5F ...P58...u..4.._
00405C30 FF 22 CE D0 E1 F1 54 DB C4 EC 0F 00 FB 7A 00 8B ."....T......z..
00405C40 99 0F 1A 10 ED E4 36 0C 35 91 0C 90 92 DF CA FD ......6.5.......
00405C50 A7 E4 4F 60 C8 3A AD 74 31 99 28 A1 60 E9 EB FF ..O`.:.t1.(.`...
00405C60 33 1A 2C 48 F3 05 80 FE 00 2C D0 E8 3F 4A CD 93 3.,H.....,..?J..
00405C70 5C CB ED 00 71 00 63 87 B0 11 85 F4 7A A9 7E 17 \...q.c.....z.~.
00405C80 FF 00 00 E9 00 23 79 F3 B7 BD 91 00 78 87 00 8F .....#y.....x...
00405C90 B1 6C 8F B5 D6 00 00 2E 4C F4 A0 00 00 40 4C B6 .l......L....@L.
00405CA0 97 B6 87 00 9F 32 00 5C D2 4A F8 00 DF 7A FF 00 .....2.\.J...z..
00405CB0 D8 40 04 D4 00 00 F5 A0 CB 05 D1 08 A7 F0 2D 77 .@............-w
00405CC0 A0 BC 00 53 88 3E 47 F8 0A 00 33 F1 93 00 2C 00 ...S.>G...3...,.
00405CD0 61 C6 A6 98 41 66 00 00 80 C4 3B 00 43 FE 0B FF a...Af....;.C...
00405CE0 1A D1 F7 7E 9C 6F A2 8C 9B C6 04 00 8F 00 E3 00 ...~.o..........
00405CF0 57 00 A3 99 05 91 E0 5C 00 88 6E 7E B5 00 BF 03 W......\..n~....
00405D00 A6 02 1E 4D 1B 00 26 C2 FF B4 58 FE 04 5F 7E 82 ...M..&...X.._~.
00405D10 80 0F 33 00 57 E4 FF CF C1 B0 F9 69 00 C6 7E 57 ..3.W......i..~W
00405D20 5A BB 37 D4 24 22 10 BC 4F 3D FF FF 47 00 2E 00 Z.7.$"..O=..G...
00405D30 10 AC 9B 31 FB 00 79 DF D7 5C 10 00 B4 91 EA 61 ...1..y..\.....a
00405D40 D6 00 4C A0 C9 FF 00 A8 8F 01 24 C6 98 DF 1E 26 ..L.......$....&
00405D50 48 38 1B 39 00 D1 CA 66 57 62 00 CE 00 41 CB E0 H8.9...fWb...A..
00405D60 00 1D ED C0 C1 23 00 00 00 B0 49 22 C3 3D FF 00 .....#....I".=..
00405D70 27 DF C3 19 20 00 00 20 00 9F B7 C5 47 FF 4C 31 '... .. ....G.L1
00405D80 DC 18 C7 3E CC FF FC 00 93 8C 28 78 60 FE FF 00 ...>......(x`...
00405D90 34 7B 22 CE 8E 81 00 F3 B9 28 FF 2E 87 00 35 E4 4{"......(....5.
00405DA0 34 0E 34 03 08 B0 A8 11 FF 2C FF 00 F8 46 9F E5 4.4......,...F..
00405DB0 2D 47 26 00 61 B1 2C 26 83 FE 47 9E 67 59 AB E8 -G&.a.,&..G.gY..
00405DC0 00 90 DD 70 B6 09 00 CD 00 D1 52 01 00 A3 D0 40 ...p......R....@
00405DD0 00 D2 04 E1 70 00 00 D4 69 10 E0 15 76 6D F4 00 ....p...i...vm..
00405DE0 D0 EE 61 B4 10 FF 00 00 AE 76 2C 24 F4 C8 10 5D ..a......v,$...]
00405DF0 FF 70 2F 57 90 00 48 30 00 78 6F DB F6 38 F8 C3 .p/W..H0.xo..8..
00405E00 3C F9 CC A6 F1 16 E9 DE 96 00 FB 00 5B 00 41 AB <...........[.A.
00405E10 BA 47 F9 FF 46 4E CF 5F 64 FF 21 40 DC 93 6C 00 .G..FN._d.!@..l.
00405E20 44 F4 70 EE 00 A1 4B 68 1E 31 06 28 A8 70 76 00 D.p...Kh.1.(.pv.
00405E30 00 27 62 67 00 18 6B D3 A3 75 54 00 16 77 AB 36 .'bg..k..uT..w.6
00405E40 0C FF 00 2B 68 0E 00 22 00 13 21 97 9B 03 BB 78 ...+h.."..!....x
00405E50 00 F5 83 07 00 00 69 14 0F AB FF C2 CB 71 88 8A ......i......q..
00405E60 22 B7 FE 4B A8 00 09 26 81 77 5A B2 85 05 A4 E4 "..K...&.wZ.....
00405E70 EE 58 BB 52 BC FD 00 00 A0 DB AD 04 00 60 44 D7 .X.R.........`D.
00405E80 7E 27 00 CE 22 03 38 F9 FF B9 0B DA FF 38 00 00 ~'..".8......8..
00405E90 3A 1E 11 C7 F1 DC C0 BB 2C 99 22 F0 00 35 9A 47 :.......,."..5.G
00405EA0 7C 2A 9F C3 2F 23 A5 45 B4 6E 73 59 0F 62 E8 50 |*../#.E.nsY.b.P
00405EB0 96 D3 00 09 00 30 63 0E 17 69 00 B3 DC F3 22 01 .....0c..i....".
00405EC0 FF FD 9D 00 BB FF B5 CC 7E 00 FF 2E 00 D6 9D 50 ........~......P
00405ED0 05 C2 03 54 E2 C5 39 66 EF FB FF 29 45 92 00 C7 ...T..9f...)E...
00405EE0 DB 73 02 81 B4 84 8C C4 F0 86 50 00 FC FF 08 2A .s........P....*
00405EF0 00 FF 19 F7 F3 9B 6E 20 28 00 44 09 F1 ED 00 5E ......n (.D....^
00405F00 0A 82 4B FC AF 55 0B 39 22 E6 5C F7 10 00 9D 00 ..K..U.9".\.....
00405F10 31 97 8E 8D 02 AD D2 F3 12 2A 0E D8 66 D0 1B 35 1........*..f..5
00405F20 37 79 B4 80 04 43 9F 41 01 53 34 FF 37 3C 00 45 7y...C.A.S4.7<.E
00405F30 28 07 30 03 37 FD 83 DE EB 7B 61 00 65 B2 00 02 (.0.7....{a.e...
00405F40 95 08 0D 00 47 D6 DA 9A 3E 5A 4B 02 00 4C CC 00 ....G...>ZK..L..
00405F50 00 DD 88 0F 00 46 6A 40 1F 1F 88 A4 B7 FF 67 A6 .....Fj@......g.
00405F60 08 63 86 F7 00 82 92 FF 9F 4D F0 0E 41 C7 F9 39 .c.......M..A..9
00405F70 FF 93 51 01 3E A3 4F CB 9A 99 00 10 06 A8 96 F7 ..Q.>.O.........
00405F80 50 DC 7F A3 D8 8D F0 1D BA 90 20 43 F0 FF E8 BF P......... C....
00405F90 E0 68 BE CD 00 AE 40 58 93 31 FA D4 F1 00 21 BD .h....@X.1....!.
00405FA0 35 00 0E 3A D5 0C B0 4D 61 B8 00 D4 3E D1 0B 68 5..:...Ma...>..h
00405FB0 32 0A 7B 8E 4B BA 88 81 56 D7 A5 DD B0 88 FF 46 2.{.K...V......F
00405FC0 B8 00 8D 62 DF 78 98 3D 06 00 A8 82 00 C0 1D 33 ...b.x.=.......3
00405FD0 80 D1 9E 4E EF E2 91 89 07 AE FE 0A EA 00 00 5E ...N...........^
00405FE0 80 6C AF 77 29 04 7A 6A 1E 60 4E 4E 04 46 CE 1E .l.w).zj.`NN.F..
00405FF0 00 9F 17 72 00 00 63 21 00 7E FB 03 C6 33 67 AF ...r..c!.~...3g.
00406000 13 8C AA 80 00 B4 00 19 00 31 F4 83 8F 7C DD FF .........1...|..
00406010 5A D0 3B 00 3F D1 84 00 2A A8 7E 1D BE 0D 00 00 Z.;.?...*.~.....
00406020 F4 00 D8 B7 00 D0 A9 1D 68 88 92 B8 D3 68 58 41 ........h....hXA
00406030 4B BF 44 98 E1 00 ED 44 0F 0E FF FF 00 88 32 F3 K.D....D......2.
00406040 3F B5 EB BD 34 C7 A4 82 3A 15 3F CC 61 56 E4 59 ?...4...:.?.aV.Y
00406050 33 07 61 9C C0 29 E0 00 0C 13 5E 45 15 FC 2E 27 3.a..)....^E...'
00406060 00 00 C5 17 74 DF 72 9D 84 C8 CF BA 6C 00 4F FF ....t.r.....l.O.
00406070 B1 67 00 B3 02 F6 78 00 39 84 A9 46 00 F2 D0 39 .g....x.9..F...9
00406080 A4 C6 EF 3F 00 B5 3F 55 FB 98 B8 1C 00 4A F1 2B ...?..?U.....J.+
00406090 C6 4B 00 38 3B 01 9A A4 51 CC 90 68 00 80 B5 08 .K.8;...Q..h....
004060A0 8D 0A 40 07 91 DB 70 A5 C5 40 FF 21 00 81 F0 40 ..@...p..@.!...@
004060B0 00 F5 C7 00 00 40 81 83 5C 00 3F 3A 08 B6 00 00 .....@..\.?:....
004060C0 1C 00 00 A3 83 06 9A ED CE 4A F8 55 21 99 08 88 .........J.U!...
004060D0 F3 9F AE 00 6A 2C 07 00 A6 00 25 B0 00 57 50 56 ....j,....%..WPV
004060E0 00 28 FE 13 A7 45 4D 9A 1C 85 00 75 E2 98 EB 2C .(...EM....u...,
004060F0 3C 55 E0 00 A4 C2 C0 B5 99 00 A3 DC CA 8D 86 1E <U..............
00406100 F6 92 D8 43 54 9B BF 4C E9 BE 9E 00 00 4B BE 00 ...CT..L.....K..
00406110 F3 40 4A 93 38 65 FF 7E FF ED A6 7C BB 8A EF 66 .@J.8e.~...|...f
00406120 49 CD 0C C1 0A 04 00 4A EA 00 98 BD 00 42 10 00 I......J.....B..
00406130 4C F6 FF 88 00 49 4E E7 00 FC B7 E6 03 85 A9 00 L....IN.........
00406140 09 00 01 6C FB 17 6D 00 3F 51 A7 48 62 94 00 03 ...l..m.?Q.Hb...
00406150 D8 00 7C 83 FF FF C3 62 00 29 01 BB 19 81 CB 1D ..|....b.)......
00406160 CD 52 86 3D 00 04 20 F0 FF BF 83 00 74 4E 00 00 .R.=.. .....tN..
00406170 00 83 CE 00 00 9C 4E E4 05 84 33 DF B1 0B 0C 30 ......N...3....0
00406180 81 90 00 AD AE 4D 33 46 7B 06 FF 43 00 00 73 6E .....M3F{..C..sn
00406190 22 B2 BE EC EB D5 6B 3B 03 E5 00 8B CE FF 76 F2 ".....k;......v.
004061A0 4C FF 73 7D 34 A0 00 F2 00 00 A6 DC 03 00 C7 06 L.s}4...........
004061B0 00 17 F7 FF FF 4A 07 09 C9 2B 1C 07 00 32 67 FF .....J...+...2g.
004061C0 AC 44 CC 00 CD 00 E4 0C 54 96 C1 F3 89 B1 2F 3B .D......T...../;
004061D0 6D FD C7 2B FA 97 31 00 24 BC 05 00 FF 00 83 F5 m..+..1.$.......
004061E0 5C B0 33 00 C9 3E 6D B9 15 EA 83 00 2B C3 03 1B \.3..>m.....+...
004061F0 B4 07 11 BA 93 93 5B E3 00 91 2E 46 00 66 11 07 ......[....F.f..
00406200 00 DF C0 00 00 FF 43 BD 2B 00 61 F3 83 1E CE 96 ......C.+.a.....
00406210 93 00 00 E8 42 29 00 21 EA C8 17 92 D9 2B 1A 2C ....B).!.....+.,
00406220 8E EA FF C7 8E 20 31 A1 39 FF E0 17 56 19 72 BB ..... 1.9...V.r.
00406230 38 6F 00 BA E1 26 57 A4 8D 9A 38 00 00 3D 00 A0 8o...&W...8..=..
00406240 6D 00 BD 66 00 4C E3 1F 4C AE 54 EA 9F 17 CD 00 m..f.L..L.T.....
00406250 B0 C8 58 6A 7A EB 00 52 B1 9F EF F1 57 00 4C 53 ..Xjz..R....W.LS
00406260 A3 D0 40 40 1A E7 CD 72 C5 00 C9 89 00 00 71 37 ..@@...r......q7
00406270 E3 00 1B 62 7F 3D EB 7B 22 40 00 73 63 00 A1 6C ...b.=.{"@.sc..l
00406280 6F 1E 67 FF C7 82 85 D8 78 00 F0 8E EE 7F 00 BB o.g.....x.......
00406290 3C 21 07 25 A8 00 E5 7F FF B1 E9 8A E3 31 11 61 <!.%.........1.a
004062A0 76 69 50 B0 FF BD 93 49 B0 2D 4E 73 82 62 FF 88 viP....I.-Ns.b..
004062B0 DC E0 CE 71 09 7F BD 00 12 1B 00 FB 00 FF 1A 03 ...q............
004062C0 37 57 33 F9 25 30 00 90 5F 57 BE 0A 01 56 9D 44 7W3.%0.._W...V.D
004062D0 C9 FF E0 7D 54 00 00 D2 6D C6 00 A9 BD CD FE C4 ...}T...m.......
004062E0 6B 00 F5 B3 7A 40 00 00 81 04 00 28 B7 B4 00 33 k...z@.....(...3
004062F0 73 E0 D2 A2 00 A9 8F E0 EE 4E F8 0F 26 04 B0 5D s........N..&..]
00406300 B6 F0 73 87 04 BF C0 B5 00 7E 33 44 CE 15 DE 38 ..s......~3D...8
00406310 66 25 D9 0C 9D EF 93 A7 AA 09 00 BF 02 50 7D BD f%...........P}.
00406320 E7 2F 00 DE E8 46 48 98 DF FF 14 00 13 9F 4C 37 ./...FH.......L7
00406330 26 2D 76 9F 1F 18 90 C4 8D 4D F6 AC 57 7F BC 21 &-v......M..W..!
00406340 FF F9 00 1A 00 00 EB B4 95 00 36 00 A2 30 19 43 ..........6..0.C
00406350 D0 7A 9D 87 7B 00 DB AD 00 60 F3 F5 00 00 B6 6E .z..{....`.....n
00406360 4C DD E4 00 00 EF 16 CF 43 47 AA 3C 4B FF A0 CC L.......CG.<K...
00406370 00 31 B2 0C 20 00 88 04 73 FF 08 00 00 61 7E F7 .1.. ...s....a~.
00406380 F3 38 FF 42 7B E4 BC 7E 76 B0 08 00 38 00 1B 00 .8.B{..~v...8...
00406390 76 FF C2 48 51 A9 F7 24 C1 00 FF E5 94 ED 00 6F v..HQ..$.......o
004063A0 5D 0A FF C3 01 00 A1 08 64 2C E1 80 21 FF DF 00 ].......d,..!...
004063B0 07 80 88 9C 5B 4D 8D 02 00 FD 00 BE 52 00 43 00 ....[M......R.C.
004063C0 09 04 20 B8 00 FF D7 E7 79 5F 8B BC BF 87 11 2A .. .....y_.....*
004063D0 38 4C 32 FF B8 35 00 DA 21 13 9C A9 1F 00 0F 84 8L2..5..!.......
004063E0 80 17 58 00 BE 33 D0 40 00 FF E6 B3 06 CB 78 47 ..X..3.@......xG
004063F0 07 A9 00 7B CD 89 75 00 00 DC C6 A6 DB 44 70 00 ...{..u......Dp.
00406400 96 F1 19 B2 C2 03 32 00 FF EF F1 6B E4 F8 D8 D9 ......2....k....
00406410 00 E9 D8 00 00 00 6F 81 D8 BD 3C FF D5 00 CF 66 ......o...<....f
00406420 4D A6 00 5B 7A C8 30 08 BF 00 0B 05 5B C1 18 F6 M..[z.0.....[...
00406430 00 B5 00 90 50 00 36 00 C1 84 59 61 91 EB FD FF ....P.6...Ya....
00406440 2A 00 FF 44 00 1B 00 8C 16 4D C3 30 40 A8 5E 00 *..D.....M.0@.^.
00406450 2A DB FC 07 78 00 FF EC A9 C4 54 9F 03 3B 94 FC *...x.....T..;..
00406460 22 66 8B E8 C5 00 9E 2E 8F 2E F5 9D 00 40 0D 0B "f...........@..
00406470 C4 00 1D 01 63 24 57 2B EB 71 D8 F6 00 00 07 A0 ....c$W+.q......
00406480 6A 83 00 35 FA 58 EE 25 06 71 7C 9C 64 6F 00 D8 j..5.X.%.q|.do..
00406490 1E 00 4F 37 00 02 FB 40 81 39 A5 F5 71 0D 4E F4 ..O7...@.9..q.N.
004064A0 7E 54 00 59 00 E3 2D B6 14 91 00 AE 32 8C A3 58 ~T.Y..-.....2..X
004064B0 00 D8 F4 C6 00 C6 B8 E9 26 23 B6 1B 7D 42 00 C5 ........&#..}B..
004064C0 84 00 00 8A B0 DF 43 F1 6F 0E 91 72 C1 36 33 6C ......C.o..r.63l
004064D0 EB 00 13 C0 00 CF F9 1E 89 60 B9 BA 00 CD 5B 8E .........`....[.
004064E0 FF F0 03 49 E9 F1 D2 FB 0E 00 00 00 31 FD F1 AD ...I........1...
004064F0 38 7A 19 3A 26 55 0D 99 AD 34 25 0F BD FB F4 0A 8z.:&U...4%.....
00406500 CC 00 CB EA 00 65 C4 35 1D DF 66 F5 00 2B 84 00 .....e.5..f..+..
00406510 00 D4 B7 F8 1F 3B 12 3B 00 34 89 71 00 36 1F B6 .....;.;.4.q.6..
00406520 00 C0 A9 69 88 73 B9 84 F0 E0 43 49 10 CC E5 13 ...i.s....CI....
00406530 20 C4 3E B5 00 F9 B2 89 C6 00 E9 85 F7 61 18 4C  .>..........a.L
00406540 F2 38 FF EE 75 FF C7 20 BD 00 14 80 73 C9 46 34 .8..u.. ....s.F4
00406550 4C C1 8E 81 24 27 81 97 34 BF E7 76 FE 2B FC 34 L...$'..4..v.+.4
00406560 EC FF 4E 00 B6 B8 3F 3C 50 8C FF 00 31 3F 10 FF ..N...?<P...1?..
00406570 C6 00 8E 00 70 00 54 8D 27 92 28 7C 36 31 AC C7 ....p.T.'.(|61..
00406580 11 10 AE C4 6F E1 82 EA FF 19 93 03 8F E7 B1 54 ....o..........T
00406590 00 B4 6E 3B 08 0A BE A9 60 8D 00 E1 89 8F 0C 00 ..n;....`.......
004065A0 00 DD 57 16 54 11 5A 15 88 A2 3A DD 5A 60 4B 2C ..W.T.Z...:.Z`K,
004065B0 00 8A E1 E8 AA E6 F3 5F 9B 00 37 CD 43 FC 22 FA ......._..7.C.".
004065C0 C7 D1 DB CE 00 AC FF 18 66 3A 38 01 00 E6 52 32 ........f:8...R2
004065D0 A8 44 1D 03 94 DB 8C 2C 48 1F 6D 40 E6 82 93 91 .D.....,H.m@....
004065E0 AC CB 2A A6 0A 95 8A 77 CF FA CC 00 B4 00 D9 E8 ..*....w........
004065F0 52 95 C3 55 A1 E6 90 3F FF 62 ED 72 93 8F 64 EF R..U...?.b.r..d.
00406600 00 00 00 00 00 00 00 00 00 00 00 00 00 00 00 00 ................
00406610 00 00 00 00 00 00 00 00 00 00 00 00 00 00 00 00 ................
00406620 00 00 00 00 00 00 00 00 00 00 00 00 00 00 00 00 ................
00406630 00 00 00 00 00 00 00 00 00 00 00 00 00 00 00 00 ................
00406640 00 00 00 00 00 00 00 00 00 00 00 00 00 00 00 00 ................
00406650 00 00 00 00 00 00 00 00 00 00 00 00 00 00 00 00 ................
00406660 00 00 00 00 00 00 00 00 00 00 00 00 00 00 00 00 ................
00406670 00 00 00 00 00 00 00 00 00 00 00 00 00 00 00 00 ................
00406680 00 00 00 00 00 00 00 00 00 00 00 00 00 00 00 00 ................
00406690 00 00 00 00 00 00 00 00 00 00 00 00 00 00 00 00 ................
004066A0 00 00 00 00 00 00 00 00 00 00 00 00 00 00 00 00 ................
004066B0 00 00 00 00 00 00 00 00 00 00 00 00 00 00 00 00 ................
004066C0 00 00 00 00 00 00 00 00 00 00 00 00 00 00 00 00 ................
004066D0 00 00 00 00 00 00 00 00 00 00 00 00 00 00 00 00 ................
004066E0 00 00 00 00 00 00 00 00 00 00 00 00 00 00 00 00 ................
004066F0 00 00 00 00 00 00 00 00 00 00 00 00 00 00 00 00 ................
00406700 00 00 00 00 00 00 00 00 00 00 00 00 00 00 00 00 ................
00406710 00 00 00 00 00 00 00 00 00 00 00 00 00 00 00 00 ................
00406720 00 00 00 00 00 00 00 00 00 00 00 00 00 00 00 00 ................
00406730 00 00 00 00 00 00 00 00 00 00 00 00 00 00 00 00 ................
00406740 00 00 00 00 00 00 00 00 00 00 00 00 00 00 00 00 ................
00406750 00 00 00 00 00 00 00 00 00 00 00 00 00 00 00 00 ................
00406760 00 00 00 00 00 00 00 00 00 00 00 00 00 00 00 00 ................
00406770 00 00 00 00 00 00 00 00 00 00 00 00 00 00 00 00 ................
00406780 00 00 00 00 00 00 00 00 00 00 00 00 00 00 00 00 ................
00406790 00 00 00 00 00 00 00 00 00 00 00 00 00 00 00 00 ................
004067A0 00 00 00 00 00 00 00 00 00 00 00 00 00 00 00 00 ................
004067B0 00 00 00 00 00 00 00 00 00 00 00 00 00 00 00 00 ................
004067C0 00 00 00 00 00 00 00 00 00 00 00 00 00 00 00 00 ................
004067D0 00 00 00 00 00 00 00 00 00 00 00 00 00 00 00 00 ................
004067E0 00 00 00 00 00 00 00 00 00 00 00 00 00 00 00 00 ................
004067F0 00 00 00 00 00 00 00 00 00 00 00 00 00 00 00 00 ................
00406800 00 00 00 00 00 00 00 00 00 00 00 00 00 00 00 00 ................
00406810 00 00 00 00 00 00 00 00 00 00 00 00 00 00 00 00 ................
00406820 00 00 00 00 00 00 00 00 00 00 00 00 00 00 00 00 ................
00406830 00 00 00 00 00 00 00 00 00 00 00 00 00 00 00 00 ................
00406840 00 00 00 00 00 00 00 00 00 00 00 00 00 00 00 00 ................
00406850 00 00 00 00 00 00 00 00 00 00 00 00 00 00 00 00 ................
00406860 00 00 00 00 00 00 00 00 00 00 00 00 00 00 00 00 ................
00406870 00 00 00 00 00 00 00 00 00 00 00 00 00 00 00 00 ................
00406880 00 00 00 00 00 00 00 00 00 00 00 00 00 00 00 00 ................
00406890 00 00 00 00 00 00 00 00 00 00 00 00 00 00 00 00 ................
004068A0 00 00 00 00 00 00 00 00 00 00 00 00 00 00 00 00 ................
004068B0 00 00 00 00 00 00 00 00 00 00 00 00 00 00 00 00 ................
004068C0 00 00 00 00 00 00 00 00 00 00 00 00 00 00 00 00 ................
004068D0 00 00 00 00 00 00 00 00 00 00 00 00 00 00 00 00 ................
004068E0 00 00 00 00 00 00 00 00 00 00 00 00 00 00 00 00 ................
004068F0 00 00 00 00 00 00 00 00 00 00 00 00 00 00 00 00 ................
00406900 00 00 00 00 00 00 00 00 00 00 00 00 00 00 00 00 ................
00406910 00 00 00 00 00 00 00 00 00 00 00 00 00 00 00 00 ................
00406920 00 00 00 00 00 00 00 00 00 00 00 00 00 00 00 00 ................
00406930 00 00 00 00 00 00 00 00 00 00 00 00 00 00 00 00 ................
00406940 00 00 00 00 00 00 00 00 00 00 00 00 00 00 00 00 ................
00406950 00 00 00 00 00 00 00 00 00 00 00 00 00 00 00 00 ................
00406960 00 00 00 00 00 00 00 00 00 00 00 00 00 00 00 00 ................
00406970 00 00 00 00 00 00 00 00 00 00 00 00 00 00 00 00 ................
00406980 00 00 00 00 00 00 00 00 00 00 00 00 00 00 00 00 ................
00406990 00 00 00 00 00 00 00 00 00 00 00 00 00 00 00 00 ................
004069A0 00 00 00 00 00 00 00 00 00 00 00 00 00 00 00 00 ................
004069B0 00 00 00 00 00 00 00 00 00 00 00 00 00 00 00 00 ................
004069C0 00 00 00 00 00 00 00 00 00 00 00 00 00 00 00 00 ................
004069D0 00 00 00 00 00 00 00 00 00 00 00 00 00 00 00 00 ................
004069E0 00 00 00 00 00 00 00 00 00 00 00 00 00 00 00 00 ................
004069F0 00 00 00 00 00 00 00 00 00 00 00 00 00 00 00 00 ................
00406A00 00 00 00 00 00 00 00 00 00 00 00 00 00 00 00 00 ................
00406A10 00 00 00 00 00 00 00 00 00 00 00 00 00 00 00 00 ................
00406A20 00 00 00 00 00 00 00 00 00 00 00 00 00 00 00 00 ................
00406A30 00 00 00 00 00 00 00 00 00 00 00 00 00 00 00 00 ................
00406A40 00 00 00 00 00 00 00 00 00 00 00 00 00 00 00 00 ................
00406A50 00 00 00 00 00 00 00 00 00 00 00 00 00 00 00 00 ................
00406A60 00 00 00 00 00 00 00 00 00 00 00 00 00 00 00 00 ................
00406A70 00 00 00 00 00 00 00 00 00 00 00 00 00 00 00 00 ................
00406A80 00 00 00 00 00 00 00 00 00 00 00 00 00 00 00 00 ................
00406A90 00 00 00 00 00 00 00 00 00 00 00 00 00 00 00 00 ................
00406AA0 00 00 00 00 00 00 00 00 00 00 00 00 00 00 00 00 ................
00406AB0 00 00 00 00 00 00 00 00 00 00 00 00 00 00 00 00 ................
00406AC0 00 00 00 00 00 00 00 00 00 00 00 00 00 00 00 00 ................
00406AD0 00 00 00 00 00 00 00 00 00 00 00 00 00 00 00 00 ................
00406AE0 00 00 00 00 00 00 00 00 00 00 00 00 00 00 00 00 ................
00406AF0 00 00 00 00 00 00 00 00 00 00 00 00 00 00 00 00 ................
00406B00 00 00 00 00 00 00 00 00 00 00 00 00 00 00 00 00 ................
00406B10 00 00 00 00 00 00 00 00 00 00 00 00 00 00 00 00 ................
00406B20 00 00 00 00 00 00 00 00 00 00 00 00 00 00 00 00 ................
00406B30 00 00 00 00 00 00 00 00 00 00 00 00 00 00 00 00 ................
00406B40 00 00 00 00 00 00 00 00 00 00 00 00 00 00 00 00 ................
00406B50 00 00 00 00 00 00 00 00 00 00 00 00 00 00 00 00 ................
00406B60 00 00 00 00 00 00 00 00 00 00 00 00 00 00 00 00 ................
00406B70 00 00 00 00 00 00 00 00 00 00 00 00 00 00 00 00 ................
00406B80 00 00 00 00 00 00 00 00 00 00 00 00 00 00 00 00 ................
00406B90 00 00 00 00 00 00 00 00 00 00 00 00 00 00 00 00 ................
00406BA0 00 00 00 00 00 00 00 00 00 00 00 00 00 00 00 00 ................
00406BB0 00 00 00 00 00 00 00 00 00 00 00 00 00 00 00 00 ................
00406BC0 00 00 00 00 00 00 00 00 00 00 00 00 00 00 00 00 ................
00406BD0 00 00 00 00 00 00 00 00 00 00 00 00 00 00 00 00 ................
00406BE0 00 00 00 00 00 00 00 00 00 00 00 00 00 00 00 00 ................
00406BF0 00 00 00 00 00 00 00 00 00 00 00 00 00 00 00 00 ................
00406C00 00 00 00 00 00 00 00 00 00 00 00 00 00 00 00 00 ................
00406C10 00 00 00 00 00 00 00 00 00 00 00 00 00 00 00 00 ................
00406C20 00 00 00 00 00 00 00 00 00 00 00 00 00 00 00 00 ................
00406C30 00 00 00 00 00 00 00 00 00 00 00 00 00 00 00 00 ................
00406C40 00 00 00 00 00 00 00 00 00 00 00 00 00 00 00 00 ................
00406C50 00 00 00 00 00 00 00 00 00 00 00 00 00 00 00 00 ................
00406C60 00 00 00 00 00 00 00 00 00 00 00 00 00 00 00 00 ................
00406C70 00 00 00 00 00 00 00 00 00 00 00 00 00 00 00 00 ................
00406C80 00 00 00 00 00 00 00 00 00 00 00 00 00 00 00 00 ................
00406C90 00 00 00 00 00 00 00 00 00 00 00 00 00 00 00 00 ................
00406CA0 00 00 00 00 00 00 00 00 00 00 00 00 00 00 00 00 ................
00406CB0 00 00 00 00 00 00 00 00 00 00 00 00 00 00 00 00 ................
00406CC0 00 00 00 00 00 00 00 00 00 00 00 00 00 00 00 00 ................
00406CD0 00 00 00 00 00 00 00 00 00 00 00 00 00 00 00 00 ................
00406CE0 00 00 00 00 00 00 00 00 00 00 00 00 00 00 00 00 ................
00406CF0 00 00 00 00 00 00 00 00 00 00 00 00 00 00 00 00 ................
00406D00 00 00 00 00 00 00 00 00 00 00 00 00 00 00 00 00 ................
00406D10 00 00 00 00 00 00 00 00 00 00 00 00 00 00 00 00 ................
00406D20 00 00 00 00 00 00 00 00 00 00 00 00 00 00 00 00 ................
00406D30 00 00 00 00 00 00 00 00 00 00 00 00 00 00 00 00 ................
00406D40 00 00 00 00 00 00 00 00 00 00 00 00 00 00 00 00 ................
00406D50 00 00 00 00 00 00 00 00 00 00 00 00 00 00 00 00 ................
00406D60 00 00 00 00 00 00 00 00 00 00 00 00 00 00 00 00 ................
00406D70 00 00 00 00 00 00 00 00 00 00 00 00 00 00 00 00 ................
00406D80 00 00 00 00 00 00 00 00 00 00 00 00 00 00 00 00 ................
00406D90 00 00 00 00 00 00 00 00 00 00 00 00 00 00 00 00 ................
00406DA0 00 00 00 00 00 00 00 00 00 00 00 00 00 00 00 00 ................
00406DB0 00 00 00 00 00 00 00 00 00 00 00 00 00 00 00 00 ................
00406DC0 00 00 00 00 00 00 00 00 00 00 00 00 00 00 00 00 ................
00406DD0 00 00 00 00 00 00 00 00 00 00 00 00 00 00 00 00 ................
00406DE0 00 00 00 00 00 00 00 00 00 00 00 00 00 00 00 00 ................
00406DF0 00 00 00 00 00 00 00 00 00 00 00 00 00 00 00 00 ................
00406E00 00 00 00 00 00 00 00 00 00 00 00 00 00 00 00 00 ................
00406E10 00 00 00 00 00 00 00 00 00 00 00 00 00 00 00 00 ................
00406E20 00 00 00 00 00 00 00 00 00 00 00 00 00 00 00 00 ................
00406E30 00 00 00 00 00 00 00 00 00 00 00 00 00 00 00 00 ................
00406E40 00 00 00 00 00 00 00 00 00 00 00 00 00 00 00 00 ................
00406E50 00 00 00 00 00 00 00 00 00 00 00 00 00 00 00 00 ................
00406E60 00 00 00 00 00 00 00 00 00 00 00 00 00 00 00 00 ................
00406E70 00 00 00 00 00 00 00 00 00 00 00 00 00 00 00 00 ................
00406E80 00 00 00 00 00 00 00 00 00 00 00 00 00 00 00 00 ................
00406E90 00 00 00 00 00 00 00 00 00 00 00 00 00 00 00 00 ................
00406EA0 00 00 00 00 00 00 00 00 00 00 00 00 00 00 00 00 ................
00406EB0 00 00 00 00 00 00 00 00 00 00 00 00 00 00 00 00 ................
00406EC0 00 00 00 00 00 00 00 00 00 00 00 00 00 00 00 00 ................
00406ED0 00 00 00 00 00 00 00 00 00 00 00 00 00 00 00 00 ................
00406EE0 00 00 00 00 00 00 00 00 00 00 00 00 00 00 00 00 ................
00406EF0 00 00 00 00 00 00 00 00 00 00 00 00 00 00 00 00 ................
00406F00 00 00 00 00 00 00 00 00 00 00 00 00 00 00 00 00 ................
00406F10 00 00 00 00 00 00 00 00 00 00 00 00 00 00 00 00 ................
00406F20 00 00 00 00 00 00 00 00 00 00 00 00 00 00 00 00 ................
00406F30 00 00 00 00 00 00 00 00 00 00 00 00 00 00 00 00 ................
00406F40 00 00 00 00 00 00 00 00 00 00 00 00 00 00 00 00 ................
00406F50 00 00 00 00 00 00 00 00 00 00 00 00 00 00 00 00 ................
00406F60 00 00 00 00 00 00 00 00 00 00 00 00 00 00 00 00 ................
00406F70 00 00 00 00 00 00 00 00 00 00 00 00 00 00 00 00 ................
00406F80 00 00 00 00 00 00 00 00 00 00 00 00 00 00 00 00 ................
00406F90 00 00 00 00 00 00 00 00 00 00 00 00 00 00 00 00 ................
00406FA0 00 00 00 00 00 00 00 00 00 00 00 00 00 00 00 00 ................
00406FB0 00 00 00 00 00 00 00 00 00 00 00 00 00 00 00 00 ................
00406FC0 00 00 00 00 00 00 00 00 00 00 00 00 00 00 00 00 ................
00406FD0 00 00 00 00 00 00 00 00 00 00 00 00 00 00 00 00 ................
00406FE0 00 00 00 00 00 00 00 00 00 00 00 00 00 00 00 00 ................
00406FF0 00 00 00 00 00 00 00 00 00 00 00 00 00 00 00 00 ................
00407000 00 00 00 00 00 00 00 00 00 00 00 00 00 00 00 00 ................
00407010 00 00 00 00 00 00 00 00 00 00 00 00 00 00 00 00 ................
00407020 00 00 00 00 00 00 00 00 00 00 00 00 00 00 00 00 ................
00407030 00 00 00 00 00 00 00 00 00 00 00 00 00 00 00 00 ................
00407040 00 00 00 00 00 00 00 00 00 00 00 00 00 00 00 00 ................
00407050 00 00 00 00 00 00 00 00 00 00 00 00 00 00 00 00 ................
00407060 00 00 00 00 00 00 00 00 00 00 00 00 00 00 00 00 ................
00407070 00 00 00 00 00 00 00 00 00 00 00 00 00 00 00 00 ................
00407080 00 00 00 00 00 00 00 00 00 00 00 00 00 00 00 00 ................
00407090 00 00 00 00 00 00 00 00 00 00 00 00 00 00 00 00 ................
004070A0 00 00 00 00 00 00 00 00 00 00 00 00 00 00 00 00 ................
004070B0 00 00 00 00 00 00 00 00 00 00 00 00 00 00 00 00 ................
004070C0 00 00 00 00 00 00 00 00 00 00 00 00 00 00 00 00 ................
004070D0 00 00 00 00 00 00 00 00 00 00 00 00 00 00 00 00 ................
004070E0 00 00 00 00 00 00 00 00 00 00 00 00 00 00 00 00 ................
004070F0 00 00 00 00 00 00 00 00 00 00 00 00 00 00 00 00 ................
00407100 00 00 00 00 00 00 00 00 00 00 00 00 00 00 00 00 ................
00407110 00 00 00 00 00 00 00 00 00 00 00 00 00 00 00 00 ................
00407120 00 00 00 00 00 00 00 00 00 00 00 00 00 00 00 00 ................
00407130 00 00 00 00 00 00 00 00 00 00 00 00 00 00 00 00 ................
00407140 00 00 00 00 00 00 00 00 00 00 00 00 00 00 00 00 ................
00407150 00 00 00 00 00 00 00 00 00 00 00 00 00 00 00 00 ................
00407160 00 00 00 00 00 00 00 00 00 00 00 00 00 00 00 00 ................
00407170 00 00 00 00 00 00 00 00 00 00 00 00 00 00 00 00 ................
00407180 00 00 00 00 00 00 00 00 00 00 00 00 00 00 00 00 ................
00407190 00 00 00 00 00 00 00 00 00 00 00 00 00 00 00 00 ................
004071A0 00 00 00 00 00 00 00 00 00 00 00 00 00 00 00 00 ................
004071B0 00 00 00 00 00 00 00 00 00 00 00 00 00 00 00 00 ................
004071C0 00 00 00 00 00 00 00 00 00 00 00 00 00 00 00 00 ................
004071D0 00 00 00 00 00 00 00 00 00 00 00 00 00 00 00 00 ................
004071E0 00 00 00 00 00 00 00 00 00 00 00 00 00 00 00 00 ................
004071F0 00 00 00 00 00 00 00 00 00 00 00 00 00 00 00 00 ................
00407200 00 00 00 00 00 00 00 00 00 00 00 00 00 00 00 00 ................
00407210 00 00 00 00 00 00 00 00 00 00 00 00 00 00 00 00 ................
00407220 00 00 00 00 00 00 00 00 00 00 00 00 00 00 00 00 ................
00407230 00 00 00 00 00 00 00 00 00 00 00 00 00 00 00 00 ................
00407240 00 00 00 00 00 00 00 00 00 00 00 00 00 00 00 00 ................
00407250 00 00 00 00 00 00 00 00 00 00 00 00 00 00 00 00 ................
00407260 00 00 00 00 00 00 00 00 00 00 00 00 00 00 00 00 ................
00407270 00 00 00 00 00 00 00 00 00 00 00 00 00 00 00 00 ................
00407280 00 00 00 00 00 00 00 00 00 00 00 00 00 00 00 00 ................
00407290 00 00 00 00 00 00 00 00 00 00 00 00 00 00 00 00 ................
004072A0 00 00 00 00 00 00 00 00 00 00 00 00 00 00 00 00 ................
004072B0 00 00 00 00 00 00 00 00 00 00 00 00 00 00 00 00 ................
004072C0 00 00 00 00 00 00 00 00 00 00 00 00 00 00 00 00 ................
004072D0 00 00 00 00 00 00 00 00 00 00 00 00 00 00 00 00 ................
004072E0 00 00 00 00 00 00 00 00 00 00 00 00 00 00 00 00 ................
004072F0 00 00 00 00 00 00 00 00 00 00 00 00 00 00 00 00 ................
00407300 00 00 00 00 00 00 00 00 00 00 00 00 00 00 00 00 ................
00407310 00 00 00 00 00 00 00 00 00 00 00 00 00 00 00 00 ................
00407320 00 00 00 00 00 00 00 00 00 00 00 00 00 00 00 00 ................
00407330 00 00 00 00 00 00 00 00 00 00 00 00 00 00 00 00 ................
00407340 00 00 00 00 00 00 00 00 00 00 00 00 00 00 00 00 ................
00407350 00 00 00 00 00 00 00 00 00 00 00 00 00 00 00 00 ................
00407360 00 00 00 00 00 00 00 00 00 00 00 00 00 00 00 00 ................
00407370 00 00 00 00 00 00 00 00 00 00 00 00 00 00 00 00 ................
00407380 00 00 00 00 00 00 00 00 00 00 00 00 00 00 00 00 ................
00407390 00 00 00 00 00 00 00 00 00 00 00 00 00 00 00 00 ................
004073A0 00 00 00 00 00 00 00 00 00 00 00 00 00 00 00 00 ................
004073B0 00 00 00 00 00 00 00 00 00 00 00 00 00 00 00 00 ................
004073C0 00 00 00 00 00 00 00 00 00 00 00 00 00 00 00 00 ................
004073D0 00 00 00 00 00 00 00 00 00 00 00 00 00 00 00 00 ................
004073E0 00 00 00 00 00 00 00 00 00 00 00 00 00 00 00 00 ................
004073F0 00 00 00 00 00 00 00 00 00 00 00 00 00 00 00 00 ................
00407400 00 00 00 00 00 00 00 00 00 00 00 00 00 00 00 00 ................
00407410 00 00 00 00 00 00 00 00 00 00 00 00 00 00 00 00 ................
00407420 00 00 00 00 00 00 00 00 00 00 00 00 00 00 00 00 ................
00407430 00 00 00 00 00 00 00 00 00 00 00 00 00 00 00 00 ................
00407440 00 00 00 00 00 00 00 00 00 00 00 00 00 00 00 00 ................
00407450 00 00 00 00 00 00 00 00 00 00 00 00 00 00 00 00 ................
00407460 00 00 00 00 00 00 00 00 00 00 00 00 00 00 00 00 ................
00407470 00 00 00 00 00 00 00 00 00 00 00 00 00 00 00 00 ................
00407480 00 00 00 00 00 00 00 00 00 00 00 00 00 00 00 00 ................
00407490 00 00 00 00 00 00 00 00 00 00 00 00 00 00 00 00 ................
004074A0 00 00 00 00 00 00 00 00 00 00 00 00 00 00 00 00 ................
004074B0 00 00 00 00 00 00 00 00 00 00 00 00 00 00 00 00 ................
004074C0 00 00 00 00 00 00 00 00 00 00 00 00 00 00 00 00 ................
004074D0 00 00 00 00 00 00 00 00 00 00 00 00 00 00 00 00 ................
004074E0 00 00 00 00 00 00 00 00 00 00 00 00 00 00 00 00 ................
004074F0 00 00 00 00 00 00 00 00 00 00 00 00 00 00 00 00 ................
00407500 00 00 00 00 00 00 00 00 00 00 00 00 00 00 00 00 ................
00407510 00 00 00 00 00 00 00 00 00 00 00 00 00 00 00 00 ................
00407520 00 00 00 00 00 00 00 00 00 00 00 00 00 00 00 00 ................
00407530 00 00 00 00 00 00 00 00 00 00 00 00 00 00 00 00 ................
00407540 00 00 00 00 00 00 00 00 00 00 00 00 00 00 00 00 ................
00407550 00 00 00 00 00 00 00 00 00 00 00 00 00 00 00 00 ................
00407560 00 00 00 00 00 00 00 00 00 00 00 00 00 00 00 00 ................
00407570 00 00 00 00 00 00 00 00 00 00 00 00 00 00 00 00 ................
00407580 00 00 00 00 00 00 00 00 00 00 00 00 00 00 00 00 ................
00407590 00 00 00 00 00 00 00 00 00 00 00 00 00 00 00 00 ................
004075A0 00 00 00 00 00 00 00 00 00 00 00 00 00 00 00 00 ................
004075B0 00 00 00 00 00 00 00 00 00 00 00 00 00 00 00 00 ................
004075C0 00 00 00 00 00 00 00 00 00 00 00 00 00 00 00 00 ................
004075D0 00 00 00 00 00 00 00 00 00 00 00 00 00 00 00 00 ................
004075E0 00 00 00 00 00 00 00 00 00 00 00 00 00 00 00 00 ................
004075F0 00 00 00 00 00 00 00 00 00 00 00 00 00 00 00 00 ................
00407600 00 00 00 00 00 00 00 00 00 00 00 00 00 00 00 00 ................
00407610 00 00 00 00 00 00 00 00 00 00 00 00 00 00 00 00 ................
00407620 00 00 00 00 00 00 00 00 00 00 00 00 00 00 00 00 ................
00407630 00 00 00 00 00 00 00 00 00 00 00 00 00 00 00 00 ................
00407640 00 00 00 00 00 00 00 00 00 00 00 00 00 00 00 00 ................
00407650 00 00 00 00 00 00 00 00 00 00 00 00 00 00 00 00 ................
00407660 00 00 00 00 00 00 00 00 00 00 00 00 00 00 00 00 ................
00407670 00 00 00 00 00 00 00 00 00 00 00 00 00 00 00 00 ................
00407680 00 00 00 00 00 00 00 00 00 00 00 00 00 00 00 00 ................
00407690 00 00 00 00 00 00 00 00 00 00 00 00 00 00 00 00 ................
004076A0 00 00 00 00 00 00 00 00 00 00 00 00 00 00 00 00 ................
004076B0 00 00 00 00 00 00 00 00 00 00 00 00 00 00 00 00 ................
004076C0 00 00 00 00 00 00 00 00 00 00 00 00 00 00 00 00 ................
004076D0 00 00 00 00 00 00 00 00 00 00 00 00 00 00 00 00 ................
004076E0 00 00 00 00 00 00 00 00 00 00 00 00 00 00 00 00 ................
004076F0 00 00 00 00 00 00 00 00 00 00 00 00 00 00 00 00 ................
00407700 00 00 00 00 00 00 00 00 00 00 00 00 00 00 00 00 ................
00407710 00 00 00 00 00 00 00 00 00 00 00 00 00 00 00 00 ................
00407720 00 00 00 00 00 00 00 00 00 00 00 00 00 00 00 00 ................
00407730 00 00 00 00 00 00 00 00 00 00 00 00 00 00 00 00 ................
00407740 00 00 00 00 00 00 00 00 00 00 00 00 00 00 00 00 ................
00407750 00 00 00 00 00 00 00 00 00 00 00 00 00 00 00 00 ................
00407760 00 00 00 00 00 00 00 00 00 00 00 00 00 00 00 00 ................
00407770 00 00 00 00 00 00 00 00 00 00 00 00 00 00 00 00 ................
00407780 00 00 00 00 00 00 00 00 00 00 00 00 00 00 00 00 ................
00407790 00 00 00 00 00 00 00 00 00 00 00 00 00 00 00 00 ................
004077A0 00 00 00 00 00 00 00 00 00 00 00 00 00 00 00 00 ................
004077B0 00 00 00 00 00 00 00 00 00 00 00 00 00 00 00 00 ................
004077C0 00 00 00 00 00 00 00 00 00 00 00 00 00 00 00 00 ................
004077D0 00 00 00 00 00 00 00 00 00 00 00 00 00 00 00 00 ................
004077E0 00 00 00 00 00 00 00 00 00 00 00 00 00 00 00 00 ................
004077F0 00 00 00 00 00 00 00 00 00 00 00 00 00 00 00 00 ................
00407800 00 00 00 00 00 00 00 00 00 00 00 00 00 00 00 00 ................
00407810 00 00 00 00 00 00 00 00 00 00 00 00 00 00 00 00 ................
00407820 00 00 00 00 00 00 00 00 00 00 00 00 00 00 00 00 ................
00407830 00 00 00 00 00 00 00 00 00 00 00 00 00 00 00 00 ................
00407840 00 00 00 00 00 00 00 00 00 00 00 00 00 00 00 00 ................
00407850 00 00 00 00 00 00 00 00 00 00 00 00 00 00 00 00 ................
00407860 00 00 00 00 00 00 00 00 00 00 00 00 00 00 00 00 ................
00407870 00 00 00 00 00 00 00 00 00 00 00 00 00 00 00 00 ................
00407880 00 00 00 00 00 00 00 00 00 00 00 00 00 00 00 00 ................
00407890 00 00 00 00 00 00 00 00 00 00 00 00 00 00 00 00 ................
004078A0 00 00 00 00 00 00 00 00 00 00 00 00 00 00 00 00 ................
004078B0 00 00 00 00 00 00 00 00 00 00 00 00 00 00 00 00 ................
004078C0 00 00 00 00 00 00 00 00 00 00 00 00 00 00 00 00 ................
004078D0 00 00 00 00 00 00 00 00 00 00 00 00 00 00 00 00 ................
004078E0 00 00 00 00 00 00 00 00 00 00 00 00 00 00 00 00 ................
004078F0 00 00 00 00 00 00 00 00 00 00 00 00 00 00 00 00 ................
00407900 00 00 00 00 00 00 00 00 00 00 00 00 00 00 00 00 ................
00407910 00 00 00 00 00 00 00 00 00 00 00 00 00 00 00 00 ................
00407920 00 00 00 00 00 00 00 00 00 00 00 00 00 00 00 00 ................
00407930 00 00 00 00 00 00 00 00 00 00 00 00 00 00 00 00 ................
00407940 00 00 00 00 00 00 00 00 00 00 00 00 00 00 00 00 ................
00407950 00 00 00 00 00 00 00 00 00 00 00 00 00 00 00 00 ................
00407960 00 00 00 00 00 00 00 00 00 00 00 00 00 00 00 00 ................
00407970 00 00 00 00 00 00 00 00 00 00 00 00 00 00 00 00 ................
00407980 00 00 00 00 00 00 00 00 00 00 00 00 00 00 00 00 ................
00407990 00 00 00 00 00 00 00 00 00 00 00 00 00 00 00 00 ................
004079A0 00 00 00 00 00 00 00 00 00 00 00 00 00 00 00 00 ................
004079B0 00 00 00 00 00 00 00 00 00 00 00 00 00 00 00 00 ................
004079C0 00 00 00 00 00 00 00 00 00 00 00 00 00 00 00 00 ................
004079D0 00 00 00 00 00 00 00 00 00 00 00 00 00 00 00 00 ................
004079E0 00 00 00 00 00 00 00 00 00 00 00 00 00 00 00 00 ................
004079F0 00 00 00 00 00 00 00 00 00 00 00 00 00 00 00 00 ................
00407A00 00 00 00 00 00 00 00 00 00 00 00 00 00 00 00 00 ................
00407A10 00 00 00 00 00 00 00 00 00 00 00 00 00 00 00 00 ................
00407A20 00 00 00 00 00 00 00 00 00 00 00 00 00 00 00 00 ................
00407A30 00 00 00 00 00 00 00 00 00 00 00 00 00 00 00 00 ................
00407A40 00 00 00 00 00 00 00 00 00 00 00 00 00 00 00 00 ................
00407A50 00 00 00 00 00 00 00 00 00 00 00 00 00 00 00 00 ................
00407A60 00 00 00 00 00 00 00 00 00 00 00 00 00 00 00 00 ................
00407A70 00 00 00 00 00 00 00 00 00 00 00 00 00 00 00 00 ................
00407A80 00 00 00 00 00 00 00 00 00 00 00 00 00 00 00 00 ................
00407A90 00 00 00 00 00 00 00 00 00 00 00 00 00 00 00 00 ................
00407AA0 00 00 00 00 00 00 00 00 00 00 00 00 00 00 00 00 ................
00407AB0 00 00 00 00 00 00 00 00 00 00 00 00 00 00 00 00 ................
00407AC0 00 00 00 00 00 00 00 00 00 00 00 00 00 00 00 00 ................
00407AD0 00 00 00 00 00 00 00 00 00 00 00 00 00 00 00 00 ................
00407AE0 00 00 00 00 00 00 00 00 00 00 00 00 00 00 00 00 ................
00407AF0 00 00 00 00 00 00 00 00 00 00 00 00 00 00 00 00 ................
00407B00 00 00 00 00 00 00 00 00 00 00 00 00 00 00 00 00 ................
00407B10 00 00 00 00 00 00 00 00 00 00 00 00 00 00 00 00 ................
00407B20 00 00 00 00 00 00 00 00 00 00 00 00 00 00 00 00 ................
00407B30 00 00 00 00 00 00 00 00 00 00 00 00 00 00 00 00 ................
00407B40 00 00 00 00 00 00 00 00 00 00 00 00 00 00 00 00 ................
00407B50 00 00 00 00 00 00 00 00 00 00 00 00 00 00 00 00 ................
00407B60 00 00 00 00 00 00 00 00 00 00 00 00 00 00 00 00 ................
00407B70 00 00 00 00 00 00 00 00 00 00 00 00 00 00 00 00 ................
00407B80 00 00 00 00 00 00 00 00 00 00 00 00 00 00 00 00 ................
00407B90 00 00 00 00 00 00 00 00 00 00 00 00 00 00 00 00 ................
00407BA0 00 00 00 00 00 00 00 00 00 00 00 00 00 00 00 00 ................
00407BB0 00 00 00 00 00 00 00 00 00 00 00 00 00 00 00 00 ................
00407BC0 00 00 00 00 00 00 00 00 00 00 00 00 00 00 00 00 ................
00407BD0 00 00 00 00 00 00 00 00 00 00 00 00 00 00 00 00 ................
00407BE0 00 00 00 00 00 00 00 00 00 00 00 00 00 00 00 00 ................
00407BF0 00 00 00 00 00 00 00 00 00 00 00 00 00 00 00 00 ................
00407C00 00 00 00 00 00 00 00 00 00 00 00 00 00 00 00 00 ................
00407C10 00 00 00 00 00 00 00 00 00 00 00 00 00 00 00 00 ................
00407C20 00 00 00 00 00 00 00 00 00 00 00 00 00 00 00 00 ................
00407C30 00 00 00 00 00 00 00 00 00 00 00 00 00 00 00 00 ................
00407C40 00 00 00 00 00 00 00 00 00 00 00 00 00 00 00 00 ................
00407C50 00 00 00 00 00 00 00 00 00 00 00 00 00 00 00 00 ................
00407C60 00 00 00 00 00 00 00 00 00 00 00 00 00 00 00 00 ................
00407C70 00 00 00 00 00 00 00 00 00 00 00 00 00 00 00 00 ................
00407C80 00 00 00 00 00 00 00 00 00 00 00 00 00 00 00 00 ................
00407C90 00 00 00 00 00 00 00 00 00 00 00 00 00 00 00 00 ................
00407CA0 00 00 00 00 00 00 00 00 00 00 00 00 00 00 00 00 ................
00407CB0 00 00 00 00 00 00 00 00 00 00 00 00 00 00 00 00 ................
00407CC0 00 00 00 00 00 00 00 00 00 00 00 00 00 00 00 00 ................
00407CD0 00 00 00 00 00 00 00 00 00 00 00 00 00 00 00 00 ................
00407CE0 00 00 00 00 00 00 00 00 00 00 00 00 00 00 00 00 ................
00407CF0 00 00 00 00 00 00 00 00 00 00 00 00 00 00 00 00 ................
00407D00 00 00 00 00 00 00 00 00 00 00 00 00 00 00 00 00 ................
00407D10 00 00 00 00 00 00 00 00 00 00 00 00 00 00 00 00 ................
00407D20 00 00 00 00 00 00 00 00 00 00 00 00 00 00 00 00 ................
00407D30 00 00 00 00 00 00 00 00 00 00 00 00 00 00 00 00 ................
00407D40 00 00 00 00 00 00 00 00 00 00 00 00 00 00 00 00 ................
00407D50 00 00 00 00 00 00 00 00 00 00 00 00 00 00 00 00 ................
00407D60 00 00 00 00 00 00 00 00 00 00 00 00 00 00 00 00 ................
00407D70 00 00 00 00 00 00 00 00 00 00 00 00 00 00 00 00 ................
00407D80 00 00 00 00 00 00 00 00 00 00 00 00 00 00 00 00 ................
00407D90 00 00 00 00 00 00 00 00 00 00 00 00 00 00 00 00 ................
00407DA0 00 00 00 00 00 00 00 00 00 00 00 00 00 00 00 00 ................
00407DB0 00 00 00 00 00 00 00 00 00 00 00 00 00 00 00 00 ................
00407DC0 00 00 00 00 00 00 00 00 00 00 00 00 00 00 00 00 ................
00407DD0 00 00 00 00 00 00 00 00 00 00 00 00 00 00 00 00 ................
00407DE0 00 00 00 00 00 00 00 00 00 00 00 00 00 00 00 00 ................
00407DF0 00 00 00 00 00 00 00 00 00 00 00 00 00 00 00 00 ................
00407E00 00 00 00 00 00 00 00 00 00 00 00 00 00 00 00 00 ................
00407E10 00 00 00 00 00 00 00 00 00 00 00 00 00 00 00 00 ................
00407E20 00 00 00 00 00 00 00 00 00 00 00 00 00 00 00 00 ................
00407E30 00 00 00 00 00 00 00 00 00 00 00 00 00 00 00 00 ................
00407E40 00 00 00 00 00 00 00 00 00 00 00 00 00 00 00 00 ................
00407E50 00 00 00 00 00 00 00 00 00 00 00 00 00 00 00 00 ................
00407E60 00 00 00 00 00 00 00 00 00 00 00 00 00 00 00 00 ................
00407E70 00 00 00 00 00 00 00 00 00 00 00 00 00 00 00 00 ................
00407E80 00 00 00 00 00 00 00 00 00 00 00 00 00 00 00 00 ................
00407E90 00 00 00 00 00 00 00 00 00 00 00 00 00 00 00 00 ................
00407EA0 00 00 00 00 00 00 00 00 00 00 00 00 00 00 00 00 ................
00407EB0 00 00 00 00 00 00 00 00 00 00 00 00 00 00 00 00 ................
00407EC0 00 00 00 00 00 00 00 00 00 00 00 00 00 00 00 00 ................
00407ED0 00 00 00 00 00 00 00 00 00 00 00 00 00 00 00 00 ................
00407EE0 00 00 00 00 00 00 00 00 00 00 00 00 00 00 00 00 ................
00407EF0 00 00 00 00 00 00 00 00 00 00 00 00 00 00 00 00 ................
00407F00 00 00 00 00 00 00 00 00 00 00 00 00 00 00 00 00 ................
00407F10 00 00 00 00 00 00 00 00 00 00 00 00 00 00 00 00 ................
00407F20 00 00 00 00 00 00 00 00 00 00 00 00 00 00 00 00 ................
00407F30 00 00 00 00 00 00 00 00 00 00 00 00 00 00 00 00 ................
00407F40 00 00 00 00 00 00 00 00 00 00 00 00 00 00 00 00 ................
00407F50 00 00 00 00 00 00 00 00 00 00 00 00 00 00 00 00 ................
00407F60 00 00 00 00 00 00 00 00 00 00 00 00 00 00 00 00 ................
00407F70 00 00 00 00 00 00 00 00 00 00 00 00 00 00 00 00 ................
00407F80 00 00 00 00 00 00 00 00 00 00 00 00 00 00 00 00 ................
00407F90 00 00 00 00 00 00 00 00 00 00 00 00 00 00 00 00 ................
00407FA0 00 00 00 00 00 00 00 00 00 00 00 00 00 00 00 00 ................
00407FB0 00 00 00 00 00 00 00 00 00 00 00 00 00 00 00 00 ................
00407FC0 00 00 00 00 00 00 00 00 00 00 00 00 00 00 00 00 ................
00407FD0 00 00 00 00 00 00 00 00 00 00 00 00 00 00 00 00 ................
00407FE0 00 00 00 00 00 00 00 00 00 00 00 00 00 00 00 00 ................
00407FF0 00 00 00 00 00 00 00 00 00 00 00 00 00 00 00 00 ................
00408000 00 00 00 00 00 00 00 00 00 00 00 00 00 00 00 00 ................
00408010 00 00 00 00 00 00 00 00 00 00 00 00 00 00 00 00 ................
00408020 00 00 00 00 00 00 00 00 00 00 00 00 00 00 00 00 ................
00408030 00 00 00 00 00 00 00 00 00 00 00 00 00 00 00 00 ................
00408040 00 00 00 00 00 00 00 00 00 00 00 00 00 00 00 00 ................
00408050 00 00 00 00 00 00 00 00 00 00 00 00 00 00 00 00 ................
00408060 00 00 00 00 00 00 00 00 00 00 00 00 00 00 00 00 ................
00408070 00 00 00 00 00 00 00 00 00 00 00 00 00 00 00 00 ................
00408080 00 00 00 00 00 00 00 00 00 00 00 00 00 00 00 00 ................
00408090 00 00 00 00 00 00 00 00 00 00 00 00 00 00 00 00 ................
004080A0 00 00 00 00 00 00 00 00 00 00 00 00 00 00 00 00 ................
004080B0 00 00 00 00 00 00 00 00 00 00 00 00 00 00 00 00 ................
004080C0 00 00 00 00 00 00 00 00 00 00 00 00 00 00 00 00 ................
004080D0 00 00 00 00 00 00 00 00 00 00 00 00 00 00 00 00 ................
004080E0 00 00 00 00 00 00 00 00 00 00 00 00 00 00 00 00 ................
004080F0 00 00 00 00 00 00 00 00 00 00 00 00 00 00 00 00 ................
00408100 00 00 00 00 00 00 00 00 00 00 00 00 00 00 00 00 ................
00408110 00 00 00 00 00 00 00 00 00 00 00 00 00 00 00 00 ................
00408120 00 00 00 00 00 00 00 00 00 00 00 00 00 00 00 00 ................
00408130 00 00 00 00 00 00 00 00 00 00 00 00 00 00 00 00 ................
00408140 00 00 00 00 00 00 00 00 00 00 00 00 00 00 00 00 ................
00408150 00 00 00 00 00 00 00 00 00 00 00 00 00 00 00 00 ................
00408160 00 00 00 00 00 00 00 00 00 00 00 00 00 00 00 00 ................
00408170 00 00 00 00 00 00 00 00 00 00 00 00 00 00 00 00 ................
00408180 00 00 00 00 00 00 00 00 00 00 00 00 00 00 00 00 ................
00408190 00 00 00 00 00 00 00 00 00 00 00 00 00 00 00 00 ................
004081A0 00 00 00 00 00 00 00 00 00 00 00 00 00 00 00 00 ................
004081B0 00 00 00 00 00 00 00 00 00 00 00 00 00 00 00 00 ................
004081C0 00 00 00 00 00 00 00 00 00 00 00 00 00 00 00 00 ................
004081D0 00 00 00 00 00 00 00 00 00 00 00 00 00 00 00 00 ................
004081E0 00 00 00 00 00 00 00 00 00 00 00 00 00 00 00 00 ................
004081F0 00 00 00 00 00 00 00 00 00 00 00 00 00 00 00 00 ................
00408200 00 00 00 00 00 00 00 00 00 00 00 00 00 00 00 00 ................
00408210 00 00 00 00 00 00 00 00 00 00 00 00 00 00 00 00 ................
00408220 00 00 00 00 00 00 00 00 00 00 00 00 00 00 00 00 ................
00408230 00 00 00 00 00 00 00 00 00 00 00 00 00 00 00 00 ................
00408240 00 00 00 00 00 00 00 00 00 00 00 00 00 00 00 00 ................
00408250 00 00 00 00 00 00 00 00 00 00 00 00 00 00 00 00 ................
00408260 00 00 00 00 00 00 00 00 00 00 00 00 00 00 00 00 ................
00408270 00 00 00 00 00 00 00 00 00 00 00 00 00 00 00 00 ................
00408280 00 00 00 00 00 00 00 00 00 00 00 00 00 00 00 00 ................
00408290 00 00 00 00 00 00 00 00 00 00 00 00 00 00 00 00 ................
004082A0 00 00 00 00 00 00 00 00 00 00 00 00 00 00 00 00 ................
004082B0 00 00 00 00 00 00 00 00 00 00 00 00 00 00 00 00 ................
004082C0 00 00 00 00 00 00 00 00 00 00 00 00 00 00 00 00 ................
004082D0 00 00 00 00 00 00 00 00 00 00 00 00 00 00 00 00 ................
004082E0 00 00 00 00 00 00 00 00 00 00 00 00 00 00 00 00 ................
004082F0 00 00 00 00 00 00 00 00 00 00 00 00 00 00 00 00 ................
00408300 00 00 00 00 00 00 00 00 00 00 00 00 00 00 00 00 ................
00408310 00 00 00 00 00 00 00 00 00 00 00 00 00 00 00 00 ................
00408320 00 00 00 00 00 00 00 00 00 00 00 00 00 00 00 00 ................
00408330 00 00 00 00 00 00 00 00 00 00 00 00 00 00 00 00 ................
00408340 00 00 00 00 00 00 00 00 00 00 00 00 00 00 00 00 ................
00408350 00 00 00 00 00 00 00 00 00 00 00 00 00 00 00 00 ................
00408360 00 00 00 00 00 00 00 00 00 00 00 00 00 00 00 00 ................
00408370 00 00 00 00 00 00 00 00 00 00 00 00 00 00 00 00 ................
00408380 00 00 00 00 00 00 00 00 00 00 00 00 00 00 00 00 ................
00408390 00 00 00 00 00 00 00 00 00 00 00 00 00 00 00 00 ................
004083A0 00 00 00 00 00 00 00 00 00 00 00 00 00 00 00 00 ................
004083B0 00 00 00 00 00 00 00 00 00 00 00 00 00 00 00 00 ................
004083C0 00 00 00 00 00 00 00 00 00 00 00 00 00 00 00 00 ................
004083D0 00 00 00 00 00 00 00 00 00 00 00 00 00 00 00 00 ................
004083E0 00 00 00 00 00 00 00 00 00 00 00 00 00 00 00 00 ................
004083F0 00 00 00 00 00 00 00 00 00 00 00 00 00 00 00 00 ................
00408400 00 00 00 00 00 00 00 00 00 00 00 00 00 00 00 00 ................
00408410 00 00 00 00 00 00 00 00 00 00 00 00 00 00 00 00 ................
00408420 00 00 00 00 00 00 00 00 00 00 00 00 00 00 00 00 ................
00408430 00 00 00 00 00 00 00 00 00 00 00 00 00 00 00 00 ................
00408440 00 00 00 00 00 00 00 00 00 00 00 00 00 00 00 00 ................
00408450 00 00 00 00 00 00 00 00 00 00 00 00 00 00 00 00 ................
00408460 00 00 00 00 00 00 00 00 00 00 00 00 00 00 00 00 ................
00408470 00 00 00 00 00 00 00 00 00 00 00 00 00 00 00 00 ................
00408480 00 00 00 00 00 00 00 00 00 00 00 00 00 00 00 00 ................
00408490 00 00 00 00 00 00 00 00 00 00 00 00 00 00 00 00 ................
004084A0 00 00 00 00 00 00 00 00 00 00 00 00 00 00 00 00 ................
004084B0 00 00 00 00 00 00 00 00 00 00 00 00 00 00 00 00 ................
004084C0 00 00 00 00 00 00 00 00 00 00 00 00 00 00 00 00 ................
004084D0 00 00 00 00 00 00 00 00 00 00 00 00 00 00 00 00 ................
004084E0 00 00 00 00 00 00 00 00 00 00 00 00 00 00 00 00 ................
004084F0 00 00 00 00 00 00 00 00 00 00 00 00 00 00 00 00 ................
00408500 00 00 00 00 00 00 00 00 00 00 00 00 00 00 00 00 ................
00408510 00 00 00 00 00 00 00 00 00 00 00 00 00 00 00 00 ................
00408520 00 00 00 00 00 00 00 00 00 00 00 00 00 00 00 00 ................
00408530 00 00 00 00 00 00 00 00 00 00 00 00 00 00 00 00 ................
00408540 00 00 00 00 00 00 00 00 00 00 00 00 00 00 00 00 ................
00408550 00 00 00 00 00 00 00 00 00 00 00 00 00 00 00 00 ................
00408560 00 00 00 00 00 00 00 00 00 00 00 00 00 00 00 00 ................
00408570 00 00 00 00 00 00 00 00 00 00 00 00 00 00 00 00 ................
00408580 00 00 00 00 00 00 00 00 00 00 00 00 00 00 00 00 ................
00408590 00 00 00 00 00 00 00 00 00 00 00 00 00 00 00 00 ................
004085A0 00 00 00 00 00 00 00 00 00 00 00 00 00 00 00 00 ................
004085B0 00 00 00 00 00 00 00 00 00 00 00 00 00 00 00 00 ................
004085C0 00 00 00 00 00 00 00 00 00 00 00 00 00 00 00 00 ................
004085D0 00 00 00 00 00 00 00 00 00 00 00 00 00 00 00 00 ................
004085E0 00 00 00 00 00 00 00 00 00 00 00 00 00 00 00 00 ................
004085F0 00 00 00 00 00 00 00 00 00 00 00 00 00 00 00 00 ................
00408600 00 00 00 00 00 00 00 00 00 00 00 00 00 00 00 00 ................
00408610 00 00 00 00 00 00 00 00 00 00 00 00 00 00 00 00 ................
00408620 00 00 00 00 00 00 00 00 00 00 00 00 00 00 00 00 ................
00408630 00 00 00 00 00 00 00 00 00 00 00 00 00 00 00 00 ................
00408640 00 00 00 00 00 00 00 00 00 00 00 00 00 00 00 00 ................
00408650 00 00 00 00 00 00 00 00 00 00 00 00 00 00 00 00 ................
00408660 00 00 00 00 00 00 00 00 00 00 00 00 00 00 00 00 ................
00408670 00 00 00 00 00 00 00 00 00 00 00 00 00 00 00 00 ................
00408680 00 00 00 00 00 00 00 00 00 00 00 00 00 00 00 00 ................
00408690 00 00 00 00 00 00 00 00 00 00 00 00 00 00 00 00 ................
004086A0 00 00 00 00 00 00 00 00 00 00 00 00 00 00 00 00 ................
004086B0 00 00 00 00 00 00 00 00 00 00 00 00 00 00 00 00 ................
004086C0 00 00 00 00 00 00 00 00 00 00 00 00 00 00 00 00 ................
004086D0 00 00 00 00 00 00 00 00 00 00 00 00 00 00 00 00 ................
004086E0 00 00 00 00 00 00 00 00 00 00 00 00 00 00 00 00 ................
004086F0 00 00 00 00 00 00 00 00 00 00 00 00 00 00 00 00 ................
00408700 00 00 00 00 00 00 00 00 00 00 00 00 00 00 00 00 ................
00408710 00 00 00 00 00 00 00 00 00 00 00 00 00 00 00 00 ................
00408720 00 00 00 00 00 00 00 00 00 00 00 00 00 00 00 00 ................
00408730 00 00 00 00 00 00 00 00 00 00 00 00 00 00 00 00 ................
00408740 00 00 00 00 00 00 00 00 00 00 00 00 00 00 00 00 ................
00408750 00 00 00 00 00 00 00 00 00 00 00 00 00 00 00 00 ................
00408760 00 00 00 00 00 00 00 00 00 00 00 00 00 00 00 00 ................
00408770 00 00 00 00 00 00 00 00 00 00 00 00 00 00 00 00 ................
00408780 00 00 00 00 00 00 00 00 00 00 00 00 00 00 00 00 ................
00408790 00 00 00 00 00 00 00 00 00 00 00 00 00 00 00 00 ................
004087A0 00 00 00 00 00 00 00 00 00 00 00 00 00 00 00 00 ................
004087B0 00 00 00 00 00 00 00 00 00 00 00 00 00 00 00 00 ................
004087C0 00 00 00 00 00 00 00 00 00 00 00 00 00 00 00 00 ................
004087D0 00 00 00 00 00 00 00 00 00 00 00 00 00 00 00 00 ................
004087E0 00 00 00 00 00 00 00 00 00 00 00 00 00 00 00 00 ................
004087F0 00 00 00 00 00 00 00 00 00 00 00 00 00 00 00 00 ................
00408800 00 00 00 00 00 00 00 00 00 00 00 00 00 00 00 00 ................
00408810 00 00 00 00 00 00 00 00 00 00 00 00 00 00 00 00 ................
00408820 00 00 00 00 00 00 00 00 00 00 00 00 00 00 00 00 ................
00408830 00 00 00 00 00 00 00 00 00 00 00 00 00 00 00 00 ................
00408840 00 00 00 00 00 00 00 00 00 00 00 00 00 00 00 00 ................
00408850 00 00 00 00 00 00 00 00 00 00 00 00 00 00 00 00 ................
00408860 00 00 00 00 00 00 00 00 00 00 00 00 00 00 00 00 ................
00408870 00 00 00 00 00 00 00 00 00 00 00 00 00 00 00 00 ................
00408880 00 00 00 00 00 00 00 00 00 00 00 00 00 00 00 00 ................
00408890 00 00 00 00 00 00 00 00 00 00 00 00 00 00 00 00 ................
004088A0 00 00 00 00 00 00 00 00 00 00 00 00 00 00 00 00 ................
004088B0 00 00 00 00 00 00 00 00 00 00 00 00 00 00 00 00 ................
004088C0 00 00 00 00 00 00 00 00 00 00 00 00 00 00 00 00 ................
004088D0 00 00 00 00 00 00 00 00 00 00 00 00 00 00 00 00 ................
004088E0 00 00 00 00 00 00 00 00 00 00 00 00 00 00 00 00 ................
004088F0 00 00 00 00 00 00 00 00 00 00 00 00 00 00 00 00 ................
00408900 00 00 00 00 00 00 00 00 00 00 00 00 00 00 00 00 ................
00408910 00 00 00 00 00 00 00 00 00 00 00 00 00 00 00 00 ................
00408920 00 00 00 00 00 00 00 00 00 00 00 00 00 00 00 00 ................
00408930 00 00 00 00 00 00 00 00 00 00 00 00 00 00 00 00 ................
00408940 00 00 00 00 00 00 00 00 00 00 00 00 00 00 00 00 ................
00408950 00 00 00 00 00 00 00 00 00 00 00 00 00 00 00 00 ................
00408960 00 00 00 00 00 00 00 00 00 00 00 00 00 00 00 00 ................
00408970 00 00 00 00 00 00 00 00 00 00 00 00 00 00 00 00 ................
00408980 00 00 00 00 00 00 00 00 00 00 00 00 00 00 00 00 ................
00408990 00 00 00 00 00 00 00 00 00 00 00 00 00 00 00 00 ................
004089A0 00 00 00 00 00 00 00 00 00 00 00 00 00 00 00 00 ................
004089B0 00 00 00 00 00 00 00 00 00 00 00 00 00 00 00 00 ................
004089C0 00 00 00 00 00 00 00 00 00 00 00 00 00 00 00 00 ................
004089D0 00 00 00 00 00 00 00 00 00 00 00 00 00 00 00 00 ................
004089E0 00 00 00 00 00 00 00 00 00 00 00 00 00 00 00 00 ................
004089F0 00 00 00 00 00 00 00 00 00 00 00 00 00 00 00 00 ................
00408A00 00 00 00 00 00 00 00 00 00 00 00 00 00 00 00 00 ................
00408A10 00 00 00 00 00 00 00 00 00 00 00 00 00 00 00 00 ................
00408A20 00 00 00 00 00 00 00 00 00 00 00 00 00 00 00 00 ................
00408A30 00 00 00 00 00 00 00 00 00 00 00 00 00 00 00 00 ................
00408A40 00 00 00 00 00 00 00 00 00 00 00 00 00 00 00 00 ................
00408A50 00 00 00 00 00 00 00 00 00 00 00 00 00 00 00 00 ................
00408A60 00 00 00 00 00 00 00 00 00 00 00 00 00 00 00 00 ................
00408A70 00 00 00 00 00 00 00 00 00 00 00 00 00 00 00 00 ................
00408A80 00 00 00 00 00 00 00 00 00 00 00 00 00 00 00 00 ................
00408A90 00 00 00 00 00 00 00 00 00 00 00 00 00 00 00 00 ................
00408AA0 00 00 00 00 00 00 00 00 00 00 00 00 00 00 00 00 ................
00408AB0 00 00 00 00 00 00 00 00 00 00 00 00 00 00 00 00 ................
00408AC0 00 00 00 00 00 00 00 00 00 00 00 00 00 00 00 00 ................
00408AD0 00 00 00 00 00 00 00 00 00 00 00 00 00 00 00 00 ................
00408AE0 00 00 00 00 00 00 00 00 00 00 00 00 00 00 00 00 ................
00408AF0 00 00 00 00 00 00 00 00 00 00 00 00 00 00 00 00 ................
00408B00 00 00 00 00 00 00 00 00 00 00 00 00 00 00 00 00 ................
00408B10 00 00 00 00 00 00 00 00 00 00 00 00 00 00 00 00 ................
00408B20 00 00 00 00 00 00 00 00 00 00 00 00 00 00 00 00 ................
00408B30 00 00 00 00 00 00 00 00 00 00 00 00 00 00 00 00 ................
00408B40 00 00 00 00 00 00 00 00 00 00 00 00 00 00 00 00 ................
00408B50 00 00 00 00 00 00 00 00 00 00 00 00 00 00 00 00 ................
00408B60 00 00 00 00 00 00 00 00 00 00 00 00 00 00 00 00 ................
00408B70 00 00 00 00 00 00 00 00 00 00 00 00 00 00 00 00 ................
00408B80 00 00 00 00 00 00 00 00 00 00 00 00 00 00 00 00 ................
00408B90 00 00 00 00 00 00 00 00 00 00 00 00 00 00 00 00 ................
00408BA0 00 00 00 00 00 00 00 00 00 00 00 00 00 00 00 00 ................
00408BB0 00 00 00 00 00 00 00 00 00 00 00 00 00 00 00 00 ................
00408BC0 00 00 00 00 00 00 00 00 00 00 00 00 00 00 00 00 ................
00408BD0 00 00 00 00 00 00 00 00 00 00 00 00 00 00 00 00 ................
00408BE0 00 00 00 00 00 00 00 00 00 00 00 00 00 00 00 00 ................
00408BF0 00 00 00 00 00 00 00 00 00 00 00 00 00 00 00 00 ................
00408C00 00 00 00 00 00 00 00 00 00 00 00 00 00 00 00 00 ................
00408C10 00 00 00 00 00 00 00 00 00 00 00 00 00 00 00 00 ................
00408C20 00 00 00 00 00 00 00 00 00 00 00 00 00 00 00 00 ................
00408C30 00 00 00 00 00 00 00 00 00 00 00 00 00 00 00 00 ................
00408C40 00 00 00 00 00 00 00 00 00 00 00 00 00 00 00 00 ................
00408C50 00 00 00 00 00 00 00 00 00 00 00 00 00 00 00 00 ................
00408C60 00 00 00 00 00 00 00 00 00 00 00 00 00 00 00 00 ................
00408C70 00 00 00 00 00 00 00 00 00 00 00 00 00 00 00 00 ................
00408C80 00 00 00 00 00 00 00 00 00 00 00 00 00 00 00 00 ................
00408C90 00 00 00 00 00 00 00 00 00 00 00 00 00 00 00 00 ................
00408CA0 00 00 00 00 00 00 00 00 00 00 00 00 00 00 00 00 ................
00408CB0 00 00 00 00 00 00 00 00 00 00 00 00 00 00 00 00 ................
00408CC0 00 00 00 00 00 00 00 00 00 00 00 00 00 00 00 00 ................
00408CD0 00 00 00 00 00 00 00 00 00 00 00 00 00 00 00 00 ................
00408CE0 00 00 00 00 00 00 00 00 00 00 00 00 00 00 00 00 ................
00408CF0 00 00 00 00 00 00 00 00 00 00 00 00 00 00 00 00 ................
00408D00 00 00 00 00 00 00 00 00 00 00 00 00 00 00 00 00 ................
00408D10 00 00 00 00 00 00 00 00 00 00 00 00 00 00 00 00 ................
00408D20 00 00 00 00 00 00 00 00 00 00 00 00 00 00 00 00 ................
00408D30 00 00 00 00 00 00 00 00 00 00 00 00 00 00 00 00 ................
00408D40 00 00 00 00 00 00 00 00 00 00 00 00 00 00 00 00 ................
00408D50 00 00 00 00 00 00 00 00 00 00 00 00 00 00 00 00 ................
00408D60 00 00 00 00 00 00 00 00 00 00 00 00 00 00 00 00 ................
00408D70 00 00 00 00 00 00 00 00 00 00 00 00 00 00 00 00 ................
00408D80 00 00 00 00 00 00 00 00 00 00 00 00 00 00 00 00 ................
00408D90 00 00 00 00 00 00 00 00 00 00 00 00 00 00 00 00 ................
00408DA0 00 00 00 00 00 00 00 00 00 00 00 00 00 00 00 00 ................
00408DB0 00 00 00 00 00 00 00 00 00 00 00 00 00 00 00 00 ................
00408DC0 00 00 00 00 00 00 00 00 00 00 00 00 00 00 00 00 ................
00408DD0 00 00 00 00 00 00 00 00 00 00 00 00 00 00 00 00 ................
00408DE0 00 00 00 00 00 00 00 00 00 00 00 00 00 00 00 00 ................
00408DF0 00 00 00 00 00 00 00 00 00 00 00 00 00 00 00 00 ................
00408E00 00 00 00 00 00 00 00 00 00 00 00 00 00 00 00 00 ................
00408E10 00 00 00 00 00 00 00 00 00 00 00 00 00 00 00 00 ................
00408E20 00 00 00 00 00 00 00 00 00 00 00 00 00 00 00 00 ................
00408E30 00 00 00 00 00 00 00 00 00 00 00 00 00 00 00 00 ................
00408E40 00 00 00 00 00 00 00 00 00 00 00 00 00 00 00 00 ................
00408E50 00 00 00 00 00 00 00 00 00 00 00 00 00 00 00 00 ................
00408E60 00 00 00 00 00 00 00 00 00 00 00 00 00 00 00 00 ................
00408E70 00 00 00 00 00 00 00 00 00 00 00 00 00 00 00 00 ................
00408E80 00 00 00 00 00 00 00 00 00 00 00 00 00 00 00 00 ................
00408E90 00 00 00 00 00 00 00 00 00 00 00 00 00 00 00 00 ................
00408EA0 00 00 00 00 00 00 00 00 00 00 00 00 00 00 00 00 ................
00408EB0 00 00 00 00 00 00 00 00 00 00 00 00 00 00 00 00 ................
00408EC0 00 00 00 00 00 00 00 00 00 00 00 00 00 00 00 00 ................
00408ED0 00 00 00 00 00 00 00 00 00 00 00 00 00 00 00 00 ................
00408EE0 00 00 00 00 00 00 00 00 00 00 00 00 00 00 00 00 ................
00408EF0 00 00 00 00 00 00 00 00 00 00 00 00 00 00 00 00 ................
00408F00 00 00 00 00 00 00 00 00 00 00 00 00 00 00 00 00 ................
00408F10 00 00 00 00 00 00 00 00 00 00 00 00 00 00 00 00 ................
00408F20 00 00 00 00 00 00 00 00 00 00 00 00 00 00 00 00 ................
00408F30 00 00 00 00 00 00 00 00 00 00 00 00 00 00 00 00 ................
00408F40 00 00 00 00 00 00 00 00 00 00 00 00 00 00 00 00 ................
00408F50 00 00 00 00 00 00 00 00 00 00 00 00 00 00 00 00 ................
00408F60 00 00 00 00 00 00 00 00 00 00 00 00 00 00 00 00 ................
00408F70 00 00 00 00 00 00 00 00 00 00 00 00 00 00 00 00 ................
00408F80 00 00 00 00 00 00 00 00 00 00 00 00 00 00 00 00 ................
00408F90 00 00 00 00 00 00 00 00 00 00 00 00 00 00 00 00 ................
00408FA0 00 00 00 00 00 00 00 00 00 00 00 00 00 00 00 00 ................
00408FB0 00 00 00 00 00 00 00 00 00 00 00 00 00 00 00 00 ................
00408FC0 00 00 00 00 00 00 00 00 00 00 00 00 00 00 00 00 ................
00408FD0 00 00 00 00 00 00 00 00 00 00 00 00 00 00 00 00 ................
00408FE0 00 00 00 00 00 00 00 00 00 00 00 00 00 00 00 00 ................
00408FF0 00 00 00 00 00 00 00 00 00 00 00 00 00 00 00 00 ................
00409000 00 00 00 00 00 00 00 00 00 00 00 00 00 00 00 00 ................
00409010 00 00 00 00 00 00 00 00 00 00 00 00 00 00 00 00 ................
00409020 00 00 00 00 00 00 00 00 00 00 00 00 00 00 00 00 ................
00409030 00 00 00 00 00 00 00 00 00 00 00 00 00 00 00 00 ................
00409040 00 00 00 00 00 00 00 00 00 00 00 00 00 00 00 00 ................
00409050 00 00 00 00 00 00 00 00 00 00 00 00 00 00 00 00 ................
00409060 00 00 00 00 00 00 00 00 00 00 00 00 00 00 00 00 ................
00409070 00 00 00 00 00 00 00 00 00 00 00 00 00 00 00 00 ................
00409080 00 00 00 00 00 00 00 00 00 00 00 00 00 00 00 00 ................
00409090 00 00 00 00 00 00 00 00 00 00 00 00 00 00 00 00 ................
004090A0 00 00 00 00 00 00 00 00 00 00 00 00 00 00 00 00 ................
004090B0 00 00 00 00 00 00 00 00 00 00 00 00 00 00 00 00 ................
004090C0 00 00 00 00 00 00 00 00 00 00 00 00 00 00 00 00 ................
004090D0 00 00 00 00 00 00 00 00 00 00 00 00 00 00 00 00 ................
004090E0 00 00 00 00 00 00 00 00 00 00 00 00 00 00 00 00 ................
004090F0 00 00 00 00 00 00 00 00 00 00 00 00 00 00 00 00 ................
00409100 00 00 00 00 00 00 00 00 00 00 00 00 00 00 00 00 ................
00409110 00 00 00 00 00 00 00 00 00 00 00 00 00 00 00 00 ................
00409120 00 00 00 00 00 00 00 00 00 00 00 00 00 00 00 00 ................
00409130 00 00 00 00 00 00 00 00 00 00 00 00 00 00 00 00 ................
00409140 00 00 00 00 00 00 00 00 00 00 00 00 00 00 00 00 ................
00409150 00 00 00 00 00 00 00 00 00 00 00 00 00 00 00 00 ................
00409160 00 00 00 00 00 00 00 00 00 00 00 00 00 00 00 00 ................
00409170 00 00 00 00 00 00 00 00 00 00 00 00 00 00 00 00 ................
00409180 00 00 00 00 00 00 00 00 00 00 00 00 00 00 00 00 ................
00409190 00 00 00 00 00 00 00 00 00 00 00 00 00 00 00 00 ................
004091A0 00 00 00 00 00 00 00 00 00 00 00 00 00 00 00 00 ................
004091B0 00 00 00 00 00 00 00 00 00 00 00 00 00 00 00 00 ................
004091C0 00 00 00 00 00 00 00 00 00 00 00 00 00 00 00 00 ................
004091D0 00 00 00 00 00 00 00 00 00 00 00 00 00 00 00 00 ................
004091E0 00 00 00 00 00 00 00 00 00 00 00 00 00 00 00 00 ................
004091F0 00 00 00 00 00 00 00 00 00 00 00 00 00 00 00 00 ................
00409200 00 00 00 00 00 00 00 00 00 00 00 00 00 00 00 00 ................
00409210 00 00 00 00 00 00 00 00 00 00 00 00 00 00 00 00 ................
00409220 00 00 00 00 00 00 00 00 00 00 00 00 00 00 00 00 ................
00409230 00 00 00 00 00 00 00 00 00 00 00 00 00 00 00 00 ................
00409240 00 00 00 00 00 00 00 00 00 00 00 00 00 00 00 00 ................
00409250 00 00 00 00 00 00 00 00 00 00 00 00 00 00 00 00 ................
00409260 00 00 00 00 00 00 00 00 00 00 00 00 00 00 00 00 ................
00409270 00 00 00 00 00 00 00 00 00 00 00 00 00 00 00 00 ................
00409280 00 00 00 00 00 00 00 00 00 00 00 00 00 00 00 00 ................
00409290 00 00 00 00 00 00 00 00 00 00 00 00 00 00 00 00 ................
004092A0 00 00 00 00 00 00 00 00 00 00 00 00 00 00 00 00 ................
004092B0 00 00 00 00 00 00 00 00 00 00 00 00 00 00 00 00 ................
004092C0 00 00 00 00 00 00 00 00 00 00 00 00 00 00 00 00 ................
004092D0 00 00 00 00 00 00 00 00 00 00 00 00 00 00 00 00 ................
004092E0 00 00 00 00 00 00 00 00 00 00 00 00 00 00 00 00 ................
004092F0 00 00 00 00 00 00 00 00 00 00 00 00 00 00 00 00 ................
00409300 00 00 00 00 00 00 00 00 00 00 00 00 00 00 00 00 ................
00409310 00 00 00 00 00 00 00 00 00 00 00 00 00 00 00 00 ................
00409320 00 00 00 00 00 00 00 00 00 00 00 00 00 00 00 00 ................
00409330 00 00 00 00 00 00 00 00 00 00 00 00 00 00 00 00 ................
00409340 00 00 00 00 00 00 00 00 00 00 00 00 00 00 00 00 ................
00409350 00 00 00 00 00 00 00 00 00 00 00 00 00 00 00 00 ................
00409360 00 00 00 00 00 00 00 00 00 00 00 00 00 00 00 00 ................
00409370 00 00 00 00 00 00 00 00 00 00 00 00 00 00 00 00 ................
00409380 00 00 00 00 00 00 00 00 00 00 00 00 00 00 00 00 ................
00409390 00 00 00 00 00 00 00 00 00 00 00 00 00 00 00 00 ................
004093A0 00 00 00 00 00 00 00 00 00 00 00 00 00 00 00 00 ................
004093B0 00 00 00 00 00 00 00 00 00 00 00 00 00 00 00 00 ................
004093C0 00 00 00 00 00 00 00 00 00 00 00 00 00 00 00 00 ................
004093D0 00 00 00 00 00 00 00 00 00 00 00 00 00 00 00 00 ................
004093E0 00 00 00 00 00 00 00 00 00 00 00 00 00 00 00 00 ................
004093F0 00 00 00 00 00 00 00 00 00 00 00 00 00 00 00 00 ................
00409400 00 00 00 00 00 00 00 00 00 00 00 00 00 00 00 00 ................
00409410 00 00 00 00 00 00 00 00 00 00 00 00 00 00 00 00 ................
00409420 00 00 00 00 00 00 00 00 00 00 00 00 00 00 00 00 ................
00409430 00 00 00 00 00 00 00 00 00 00 00 00 00 00 00 00 ................
00409440 00 00 00 00 00 00 00 00 00 00 00 00 00 00 00 00 ................
00409450 00 00 00 00 00 00 00 00 00 00 00 00 00 00 00 00 ................
00409460 00 00 00 00 00 00 00 00 00 00 00 00 00 00 00 00 ................
00409470 00 00 00 00 00 00 00 00 00 00 00 00 00 00 00 00 ................
00409480 00 00 00 00 00 00 00 00 00 00 00 00 00 00 00 00 ................
00409490 00 00 00 00 00 00 00 00 00 00 00 00 00 00 00 00 ................
004094A0 00 00 00 00 00 00 00 00 00 00 00 00 00 00 00 00 ................
004094B0 00 00 00 00 00 00 00 00 00 00 00 00 00 00 00 00 ................
004094C0 00 00 00 00 00 00 00 00 00 00 00 00 00 00 00 00 ................
004094D0 00 00 00 00 00 00 00 00 00 00 00 00 00 00 00 00 ................
004094E0 00 00 00 00 00 00 00 00 00 00 00 00 00 00 00 00 ................
004094F0 00 00 00 00 00 00 00 00 00 00 00 00 00 00 00 00 ................
00409500 00 00 00 00 00 00 00 00 00 00 00 00 00 00 00 00 ................
00409510 00 00 00 00 00 00 00 00 00 00 00 00 00 00 00 00 ................
00409520 00 00 00 00 00 00 00 00 00 00 00 00 00 00 00 00 ................
00409530 00 00 00 00 00 00 00 00 00 00 00 00 00 00 00 00 ................
00409540 00 00 00 00 00 00 00 00 00 00 00 00 00 00 00 00 ................
00409550 00 00 00 00 00 00 00 00 00 00 00 00 00 00 00 00 ................
00409560 00 00 00 00 00 00 00 00 00 00 00 00 00 00 00 00 ................
00409570 00 00 00 00 00 00 00 00 00 00 00 00 00 00 00 00 ................
00409580 00 00 00 00 00 00 00 00 00 00 00 00 00 00 00 00 ................
00409590 00 00 00 00 00 00 00 00 00 00 00 00 00 00 00 00 ................
004095A0 00 00 00 00 00 00 00 00 00 00 00 00 00 00 00 00 ................
004095B0 00 00 00 00 00 00 00 00 00 00 00 00 00 00 00 00 ................
004095C0 00 00 00 00 00 00 00 00 00 00 00 00 00 00 00 00 ................
004095D0 00 00 00 00 00 00 00 00 00 00 00 00 00 00 00 00 ................
004095E0 00 00 00 00 00 00 00 00 00 00 00 00 00 00 00 00 ................
004095F0 00 00 00 00 00 00 00 00 00 00 00 00 00 00 00 00 ................
00409600 00 00 00 00 00 00 00 00 00 00 00 00 00 00 00 00 ................
00409610 00 00 00 00 00 00 00 00 00 00 00 00 00 00 00 00 ................
00409620 00 00 00 00 00 00 00 00 00 00 00 00 00 00 00 00 ................
00409630 00 00 00 00 00 00 00 00 00 00 00 00 00 00 00 00 ................
00409640 00 00 00 00 00 00 00 00 00 00 00 00 00 00 00 00 ................
00409650 00 00 00 00 00 00 00 00 00 00 00 00 00 00 00 00 ................
00409660 00 00 00 00 00 00 00 00 00 00 00 00 00 00 00 00 ................
00409670 00 00 00 00 00 00 00 00 00 00 00 00 00 00 00 00 ................
00409680 00 00 00 00 00 00 00 00 00 00 00 00 00 00 00 00 ................
00409690 00 00 00 00 00 00 00 00 00 00 00 00 00 00 00 00 ................
004096A0 00 00 00 00 00 00 00 00 00 00 00 00 00 00 00 00 ................
004096B0 00 00 00 00 00 00 00 00 00 00 00 00 00 00 00 00 ................
004096C0 00 00 00 00 00 00 00 00 00 00 00 00 00 00 00 00 ................
004096D0 00 00 00 00 00 00 00 00 00 00 00 00 00 00 00 00 ................
004096E0 00 00 00 00 00 00 00 00 00 00 00 00 00 00 00 00 ................
004096F0 00 00 00 00 00 00 00 00 00 00 00 00 00 00 00 00 ................
00409700 00 00 00 00 00 00 00 00 00 00 00 00 00 00 00 00 ................
00409710 00 00 00 00 00 00 00 00 00 00 00 00 00 00 00 00 ................
00409720 00 00 00 00 00 00 00 00 00 00 00 00 00 00 00 00 ................
00409730 00 00 00 00 00 00 00 00 00 00 00 00 00 00 00 00 ................
00409740 00 00 00 00 00 00 00 00 00 00 00 00 00 00 00 00 ................
00409750 00 00 00 00 00 00 00 00 00 00 00 00 00 00 00 00 ................
00409760 00 00 00 00 00 00 00 00 00 00 00 00 00 00 00 00 ................
00409770 00 00 00 00 00 00 00 00 00 00 00 00 00 00 00 00 ................
00409780 00 00 00 00 00 00 00 00 00 00 00 00 00 00 00 00 ................
00409790 00 00 00 00 00 00 00 00 00 00 00 00 00 00 00 00 ................
004097A0 00 00 00 00 00 00 00 00 00 00 00 00 00 00 00 00 ................
004097B0 00 00 00 00 00 00 00 00 00 00 00 00 00 00 00 00 ................
004097C0 00 00 00 00 00 00 00 00 00 00 00 00 00 00 00 00 ................
004097D0 00 00 00 00 00 00 00 00 00 00 00 00 00 00 00 00 ................
004097E0 00 00 00 00 00 00 00 00 00 00 00 00 00 00 00 00 ................
004097F0 00 00 00 00 00 00 00 00 00 00 00 00 00 00 00 00 ................
00409800 00 00 00 00 00 00 00 00 00 00 00 00 00 00 00 00 ................
00409810 00 00 00 00 00 00 00 00 00 00 00 00 00 00 00 00 ................
00409820 00 00 00 00 00 00 00 00 00 00 00 00 00 00 00 00 ................
00409830 00 00 00 00 00 00 00 00 00 00 00 00 00 00 00 00 ................
00409840 00 00 00 00 00 00 00 00 00 00 00 00 00 00 00 00 ................
00409850 00 00 00 00 00 00 00 00 00 00 00 00 00 00 00 00 ................
00409860 00 00 00 00 00 00 00 00 00 00 00 00 00 00 00 00 ................
00409870 00 00 00 00 00 00 00 00 00 00 00 00 00 00 00 00 ................
00409880 00 00 00 00 00 00 00 00 00 00 00 00 00 00 00 00 ................
00409890 00 00 00 00 00 00 00 00 00 00 00 00 00 00 00 00 ................
004098A0 00 00 00 00 00 00 00 00 00 00 00 00 00 00 00 00 ................
004098B0 00 00 00 00 00 00 00 00 00 00 00 00 00 00 00 00 ................
004098C0 00 00 00 00 00 00 00 00 00 00 00 00 00 00 00 00 ................
004098D0 00 00 00 00 00 00 00 00 00 00 00 00 00 00 00 00 ................
004098E0 00 00 00 00 00 00 00 00 00 00 00 00 00 00 00 00 ................
004098F0 00 00 00 00 00 00 00 00 00 00 00 00 00 00 00 00 ................
00409900 00 00 00 00 00 00 00 00 00 00 00 00 00 00 00 00 ................
00409910 00 00 00 00 00 00 00 00 00 00 00 00 00 00 00 00 ................
00409920 00 00 00 00 00 00 00 00 00 00 00 00 00 00 00 00 ................
00409930 00 00 00 00 00 00 00 00 00 00 00 00 00 00 00 00 ................
00409940 00 00 00 00 00 00 00 00 00 00 00 00 00 00 00 00 ................
00409950 00 00 00 00 00 00 00 00 00 00 00 00 00 00 00 00 ................
00409960 00 00 00 00 00 00 00 00 00 00 00 00 00 00 00 00 ................
00409970 00 00 00 00 00 00 00 00 00 00 00 00 00 00 00 00 ................
00409980 00 00 00 00 00 00 00 00 00 00 00 00 00 00 00 00 ................
00409990 00 00 00 00 00 00 00 00 00 00 00 00 00 00 00 00 ................
004099A0 00 00 00 00 00 00 00 00 00 00 00 00 00 00 00 00 ................
004099B0 00 00 00 00 00 00 00 00 00 00 00 00 00 00 00 00 ................
004099C0 00 00 00 00 00 00 00 00 00 00 00 00 00 00 00 00 ................
004099D0 00 00 00 00 00 00 00 00 00 00 00 00 00 00 00 00 ................
004099E0 00 00 00 00 00 00 00 00 00 00 00 00 00 00 00 00 ................
004099F0 00 00 00 00 00 00 00 00 00 00 00 00 00 00 00 00 ................
00409A00 00 00 00 00 00 00 00 00 00 00 00 00 00 00 00 00 ................
00409A10 00 00 00 00 00 00 00 00 00 00 00 00 00 00 00 00 ................
00409A20 00 00 00 00 00 00 00 00 00 00 00 00 00 00 00 00 ................
00409A30 00 00 00 00 00 00 00 00 00 00 00 00 00 00 00 00 ................
00409A40 00 00 00 00 00 00 00 00 00 00 00 00 00 00 00 00 ................
00409A50 00 00 00 00 00 00 00 00 00 00 00 00 00 00 00 00 ................
00409A60 00 00 00 00 00 00 00 00 00 00 00 00 00 00 00 00 ................
00409A70 00 00 00 00 00 00 00 00 00 00 00 00 00 00 00 00 ................
00409A80 00 00 00 00 00 00 00 00 00 00 00 00 00 00 00 00 ................
00409A90 00 00 00 00 00 00 00 00 00 00 00 00 00 00 00 00 ................
00409AA0 00 00 00 00 00 00 00 00 00 00 00 00 00 00 00 00 ................
00409AB0 00 00 00 00 00 00 00 00 00 00 00 00 00 00 00 00 ................
00409AC0 00 00 00 00 00 00 00 00 00 00 00 00 00 00 00 00 ................
00409AD0 00 00 00 00 00 00 00 00 00 00 00 00 00 00 00 00 ................
00409AE0 00 00 00 00 00 00 00 00 00 00 00 00 00 00 00 00 ................
00409AF0 00 00 00 00 00 00 00 00 00 00 00 00 00 00 00 00 ................
00409B00 00 00 00 00 00 00 00 00 00 00 00 00 00 00 00 00 ................
00409B10 00 00 00 00 00 00 00 00 00 00 00 00 00 00 00 00 ................
00409B20 00 00 00 00 00 00 00 00 00 00 00 00 00 00 00 00 ................
00409B30 00 00 00 00 00 00 00 00 00 00 00 00 00 00 00 00 ................
00409B40 00 00 00 00 00 00 00 00 00 00 00 00 00 00 00 00 ................
00409B50 00 00 00 00 00 00 00 00 00 00 00 00 00 00 00 00 ................
00409B60 00 00 00 00 00 00 00 00 00 00 00 00 00 00 00 00 ................
00409B70 00 00 00 00 00 00 00 00 00 00 00 00 00 00 00 00 ................
00409B80 00 00 00 00 00 00 00 00 00 00 00 00 00 00 00 00 ................
00409B90 00 00 00 00 00 00 00 00 00 00 00 00 00 00 00 00 ................
00409BA0 00 00 00 00 00 00 00 00 00 00 00 00 00 00 00 00 ................
00409BB0 00 00 00 00 00 00 00 00 00 00 00 00 00 00 00 00 ................
00409BC0 00 00 00 00 00 00 00 00 00 00 00 00 00 00 00 00 ................
00409BD0 00 00 00 00 00 00 00 00 00 00 00 00 00 00 00 00 ................
00409BE0 00 00 00 00 00 00 00 00 00 00 00 00 00 00 00 00 ................
00409BF0 00 00 00 00 00 00 00 00 00 00 00 00 00 00 00 00 ................
00409C00 00 00 00 00 00 00 00 00 00 00 00 00 00 00 00 00 ................
00409C10 00 00 00 00 00 00 00 00 00 00 00 00 00 00 00 00 ................
00409C20 00 00 00 00 00 00 00 00 00 00 00 00 00 00 00 00 ................
00409C30 00 00 00 00 00 00 00 00 00 00 00 00 00 00 00 00 ................
00409C40 00 00 00 00 00 00 00 00 00 00 00 00 00 00 00 00 ................
00409C50 00 00 00 00 00 00 00 00 00 00 00 00 00 00 00 00 ................
00409C60 00 00 00 00 00 00 00 00 00 00 00 00 00 00 00 00 ................
00409C70 00 00 00 00 00 00 00 00 00 00 00 00 00 00 00 00 ................
00409C80 00 00 00 00 00 00 00 00 00 00 00 00 00 00 00 00 ................
00409C90 00 00 00 00 00 00 00 00 00 00 00 00 00 00 00 00 ................
00409CA0 00 00 00 00 00 00 00 00 00 00 00 00 00 00 00 00 ................
00409CB0 00 00 00 00 00 00 00 00 00 00 00 00 00 00 00 00 ................
00409CC0 00 00 00 00 00 00 00 00 00 00 00 00 00 00 00 00 ................
00409CD0 00 00 00 00 00 00 00 00 00 00 00 00 00 00 00 00 ................
00409CE0 00 00 00 00 00 00 00 00 00 00 00 00 00 00 00 00 ................
00409CF0 00 00 00 00 00 00 00 00 00 00 00 00 00 00 00 00 ................
00409D00 00 00 00 00 00 00 00 00 00 00 00 00 00 00 00 00 ................
00409D10 00 00 00 00 00 00 00 00 00 00 00 00 00 00 00 00 ................
00409D20 00 00 00 00 00 00 00 00 00 00 00 00 00 00 00 00 ................
00409D30 00 00 00 00 00 00 00 00 00 00 00 00 00 00 00 00 ................
00409D40 00 00 00 00 00 00 00 00 00 00 00 00 00 00 00 00 ................
00409D50 00 00 00 00 00 00 00 00 00 00 00 00 00 00 00 00 ................
00409D60 00 00 00 00 00 00 00 00 00 00 00 00 00 00 00 00 ................
00409D70 00 00 00 00 00 00 00 00 00 00 00 00 00 00 00 00 ................
00409D80 00 00 00 00 00 00 00 00 00 00 00 00 00 00 00 00 ................
00409D90 00 00 00 00 00 00 00 00 00 00 00 00 00 00 00 00 ................
00409DA0 00 00 00 00 00 00 00 00 00 00 00 00 00 00 00 00 ................
00409DB0 00 00 00 00 00 00 00 00 00 00 00 00 00 00 00 00 ................
00409DC0 00 00 00 00 00 00 00 00 00 00 00 00 00 00 00 00 ................
00409DD0 00 00 00 00 00 00 00 00 00 00 00 00 00 00 00 00 ................
00409DE0 00 00 00 00 00 00 00 00 00 00 00 00 00 00 00 00 ................
00409DF0 00 00 00 00 00 00 00 00 00 00 00 00 00 00 00 00 ................
00409E00 00 00 00 00 00 00 00 00 00 00 00 00 00 00 00 00 ................
00409E10 00 00 00 00 00 00 00 00 00 00 00 00 00 00 00 00 ................
00409E20 00 00 00 00 00 00 00 00 00 00 00 00 00 00 00 00 ................
00409E30 00 00 00 00 00 00 00 00 00 00 00 00 00 00 00 00 ................
00409E40 00 00 00 00 00 00 00 00 00 00 00 00 00 00 00 00 ................
00409E50 00 00 00 00 00 00 00 00 00 00 00 00 00 00 00 00 ................
00409E60 00 00 00 00 00 00 00 00 00 00 00 00 00 00 00 00 ................
00409E70 00 00 00 00 00 00 00 00 00 00 00 00 00 00 00 00 ................
00409E80 00 00 00 00 00 00 00 00 00 00 00 00 00 00 00 00 ................
00409E90 00 00 00 00 00 00 00 00 00 00 00 00 00 00 00 00 ................
00409EA0 00 00 00 00 00 00 00 00 00 00 00 00 00 00 00 00 ................
00409EB0 00 00 00 00 00 00 00 00 00 00 00 00 00 00 00 00 ................
00409EC0 00 00 00 00 00 00 00 00 00 00 00 00 00 00 00 00 ................
00409ED0 00 00 00 00 00 00 00 00 00 00 00 00 00 00 00 00 ................
00409EE0 00 00 00 00 00 00 00 00 00 00 00 00 00 00 00 00 ................
00409EF0 00 00 00 00 00 00 00 00 00 00 00 00 00 00 00 00 ................
00409F00 00 00 00 00 00 00 00 00 00 00 00 00 00 00 00 00 ................
00409F10 00 00 00 00 00 00 00 00 00 00 00 00 00 00 00 00 ................
00409F20 00 00 00 00 00 00 00 00 00 00 00 00 00 00 00 00 ................
00409F30 00 00 00 00 00 00 00 00 00 00 00 00 00 00 00 00 ................
00409F40 00 00 00 00 00 00 00 00 00 00 00 00 00 00 00 00 ................
00409F50 00 00 00 00 00 00 00 00 00 00 00 00 00 00 00 00 ................
00409F60 00 00 00 00 00 00 00 00 00 00 00 00 00 00 00 00 ................
00409F70 00 00 00 00 00 00 00 00 00 00 00 00 00 00 00 00 ................
00409F80 00 00 00 00 00 00 00 00 00 00 00 00 00 00 00 00 ................
00409F90 00 00 00 00 00 00 00 00 00 00 00 00 00 00 00 00 ................
00409FA0 00 00 00 00 00 00 00 00 00 00 00 00 00 00 00 00 ................
00409FB0 00 00 00 00 00 00 00 00 00 00 00 00 00 00 00 00 ................
00409FC0 00 00 00 00 00 00 00 00 00 00 00 00 00 00 00 00 ................
00409FD0 00 00 00 00 00 00 00 00 00 00 00 00 00 00 00 00 ................
00409FE0 00 00 00 00 00 00 00 00 00 00 00 00 00 00 00 00 ................
00409FF0 00 00 00 00 00 00 00 00 00 00 00 00 00 00 00 00 ................
0040A000 00 00 00 00 00 00 00 00 00 00 00 00 00 00 00 00 ................
0040A010 00 00 00 00 00 00 00 00 00 00 00 00 00 00 00 00 ................
0040A020 00 00 00 00 00 00 00 00 00 00 00 00 00 00 00 00 ................
0040A030 00 00 00 00 00 00 00 00 00 00 00 00 00 00 00 00 ................
0040A040 00 00 00 00 00 00 00 00 00 00 00 00 00 00 00 00 ................
0040A050 00 00 00 00 00 00 00 00 00 00 00 00 00 00 00 00 ................
0040A060 00 00 00 00 00 00 00 00 00 00 00 00 00 00 00 00 ................
0040A070 00 00 00 00 00 00 00 00 00 00 00 00 00 00 00 00 ................
0040A080 00 00 00 00 00 00 00 00 00 00 00 00 00 00 00 00 ................
0040A090 00 00 00 00 00 00 00 00 00 00 00 00 00 00 00 00 ................
0040A0A0 00 00 00 00 00 00 00 00 00 00 00 00 00 00 00 00 ................
0040A0B0 00 00 00 00 00 00 00 00 00 00 00 00 00 00 00 00 ................
0040A0C0 00 00 00 00 00 00 00 00 00 00 00 00 00 00 00 00 ................
0040A0D0 00 00 00 00 00 00 00 00 00 00 00 00 00 00 00 00 ................
0040A0E0 00 00 00 00 00 00 00 00 00 00 00 00 00 00 00 00 ................
0040A0F0 00 00 00 00 00 00 00 00 00 00 00 00 00 00 00 00 ................
0040A100 00 00 00 00 00 00 00 00 00 00 00 00 00 00 00 00 ................
0040A110 00 00 00 00 00 00 00 00 00 00 00 00 00 00 00 00 ................
0040A120 00 00 00 00 00 00 00 00 00 00 00 00 00 00 00 00 ................
0040A130 00 00 00 00 00 00 00 00 00 00 00 00 00 00 00 00 ................
0040A140 00 00 00 00 00 00 00 00 00 00 00 00 00 00 00 00 ................
0040A150 00 00 00 00 00 00 00 00 00 00 00 00 00 00 00 00 ................
0040A160 00 00 00 00 00 00 00 00 00 00 00 00 00 00 00 00 ................
0040A170 00 00 00 00 00 00 00 00 00 00 00 00 00 00 00 00 ................
0040A180 00 00 00 00 00 00 00 00 00 00 00 00 00 00 00 00 ................
0040A190 00 00 00 00 00 00 00 00 00 00 00 00 00 00 00 00 ................
0040A1A0 00 00 00 00 00 00 00 00 00 00 00 00 00 00 00 00 ................
0040A1B0 00 00 00 00 00 00 00 00 00 00 00 00 00 00 00 00 ................
0040A1C0 00 00 00 00 00 00 00 00 00 00 00 00 00 00 00 00 ................
0040A1D0 00 00 00 00 00 00 00 00 00 00 00 00 00 00 00 00 ................
0040A1E0 00 00 00 00 00 00 00 00 00 00 00 00 00 00 00 00 ................
0040A1F0 00 00 00 00 00 00 00 00 00 00 00 00 00 00 00 00 ................
0040A200 00 00 00 00 00 00 00 00 00 00 00 00 00 00 00 00 ................
0040A210 00 00 00 00 00 00 00 00 00 00 00 00 00 00 00 00 ................
0040A220 00 00 00 00 00 00 00 00 00 00 00 00 00 00 00 00 ................
0040A230 00 00 00 00 00 00 00 00 00 00 00 00 00 00 00 00 ................
0040A240 00 00 00 00 00 00 00 00 00 00 00 00 00 00 00 00 ................
0040A250 00 00 00 00 00 00 00 00 00 00 00 00 00 00 00 00 ................
0040A260 00 00 00 00 00 00 00 00 00 00 00 00 00 00 00 00 ................
0040A270 00 00 00 00 00 00 00 00 00 00 00 00 00 00 00 00 ................
0040A280 00 00 00 00 00 00 00 00 00 00 00 00 00 00 00 00 ................
0040A290 00 00 00 00 00 00 00 00 00 00 00 00 00 00 00 00 ................
0040A2A0 00 00 00 00 00 00 00 00 00 00 00 00 00 00 00 00 ................
0040A2B0 00 00 00 00 00 00 00 00 00 00 00 00 00 00 00 00 ................
0040A2C0 00 00 00 00 00 00 00 00 00 00 00 00 00 00 00 00 ................
0040A2D0 00 00 00 00 00 00 00 00 00 00 00 00 00 00 00 00 ................
0040A2E0 00 00 00 00 00 00 00 00 00 00 00 00 00 00 00 00 ................
0040A2F0 00 00 00 00 00 00 00 00 00 00 00 00 00 00 00 00 ................
0040A300 00 00 00 00 00 00 00 00 00 00 00 00 00 00 00 00 ................
0040A310 00 00 00 00 00 00 00 00 00 00 00 00 00 00 00 00 ................
0040A320 00 00 00 00 00 00 00 00 00 00 00 00 00 00 00 00 ................
0040A330 00 00 00 00 00 00 00 00 00 00 00 00 00 00 00 00 ................
0040A340 00 00 00 00 00 00 00 00 00 00 00 00 00 00 00 00 ................
0040A350 00 00 00 00 00 00 00 00 00 00 00 00 00 00 00 00 ................
0040A360 00 00 00 00 00 00 00 00 00 00 00 00 00 00 00 00 ................
0040A370 00 00 00 00 00 00 00 00 00 00 00 00 00 00 00 00 ................
0040A380 00 00 00 00 00 00 00 00 00 00 00 00 00 00 00 00 ................
0040A390 00 00 00 00 00 00 00 00 00 00 00 00 00 00 00 00 ................
0040A3A0 00 00 00 00 00 00 00 00 00 00 00 00 00 00 00 00 ................
0040A3B0 00 00 00 00 00 00 00 00 00 00 00 00 00 00 00 00 ................
0040A3C0 00 00 00 00 00 00 00 00 00 00 00 00 00 00 00 00 ................
0040A3D0 00 00 00 00 00 00 00 00 00 00 00 00 00 00 00 00 ................
0040A3E0 00 00 00 00 00 00 00 00 00 00 00 00 00 00 00 00 ................
0040A3F0 00 00 00 00 00 00 00 00 00 00 00 00 00 00 00 00 ................
0040A400 00 00 00 00 00 00 00 00 00 00 00 00 00 00 00 00 ................
0040A410 00 00 00 00 00 00 00 00 00 00 00 00 00 00 00 00 ................
0040A420 00 00 00 00 00 00 00 00 00 00 00 00 00 00 00 00 ................
0040A430 00 00 00 00 00 00 00 00 00 00 00 00 00 00 00 00 ................
0040A440 00 00 00 00 00 00 00 00 00 00 00 00 00 00 00 00 ................
0040A450 00 00 00 00 00 00 00 00 00 00 00 00 00 00 00 00 ................
0040A460 00 00 00 00 00 00 00 00 00 00 00 00 00 00 00 00 ................
0040A470 00 00 00 00 00 00 00 00 00 00 00 00 00 00 00 00 ................
0040A480 00 00 00 00 00 00 00 00 00 00 00 00 00 00 00 00 ................
0040A490 00 00 00 00 00 00 00 00 00 00 00 00 00 00 00 00 ................
0040A4A0 00 00 00 00 00 00 00 00 00 00 00 00 00 00 00 00 ................
0040A4B0 00 00 00 00 00 00 00 00 00 00 00 00 00 00 00 00 ................
0040A4C0 00 00 00 00 00 00 00 00 00 00 00 00 00 00 00 00 ................
0040A4D0 00 00 00 00 00 00 00 00 00 00 00 00 00 00 00 00 ................
0040A4E0 00 00 00 00 00 00 00 00 00 00 00 00 00 00 00 00 ................
0040A4F0 00 00 00 00 00 00 00 00 00 00 00 00 00 00 00 00 ................
0040A500 00 00 00 00 00 00 00 00 00 00 00 00 00 00 00 00 ................
0040A510 00 00 00 00 00 00 00 00 00 00 00 00 00 00 00 00 ................
0040A520 00 00 00 00 00 00 00 00 00 00 00 00 00 00 00 00 ................
0040A530 00 00 00 00 00 00 00 00 00 00 00 00 00 00 00 00 ................
0040A540 00 00 00 00 00 00 00 00 00 00 00 00 00 00 00 00 ................
0040A550 00 00 00 00 00 00 00 00 00 00 00 00 00 00 00 00 ................
0040A560 00 00 00 00 00 00 00 00 00 00 00 00 00 00 00 00 ................
0040A570 00 00 00 00 00 00 00 00 00 00 00 00 00 00 00 00 ................
0040A580 00 00 00 00 00 00 00 00 00 00 00 00 00 00 00 00 ................
0040A590 00 00 00 00 00 00 00 00 00 00 00 00 00 00 00 00 ................
0040A5A0 00 00 00 00 00 00 00 00 00 00 00 00 00 00 00 00 ................
0040A5B0 00 00 00 00 00 00 00 00 00 00 00 00 00 00 00 00 ................
0040A5C0 00 00 00 00 00 00 00 00 00 00 00 00 00 00 00 00 ................
0040A5D0 00 00 00 00 00 00 00 00 00 00 00 00 00 00 00 00 ................
0040A5E0 00 00 00 00 00 00 00 00 00 00 00 00 00 00 00 00 ................
0040A5F0 00 00 00 00 00 00 00 00 00 00 00 00 00 00 00 00 ................
0040A600 00 00 00 00 00 00 00 00 00 00 00 00 00 00 00 00 ................
0040A610 00 00 00 00 00 00 00 00 00 00 00 00 00 00 00 00 ................
0040A620 00 00 00 00 00 00 00 00 00 00 00 00 00 00 00 00 ................
0040A630 00 00 00 00 00 00 00 00 00 00 00 00 00 00 00 00 ................
0040A640 00 00 00 00 00 00 00 00 00 00 00 00 00 00 00 00 ................
0040A650 00 00 00 00 00 00 00 00 00 00 00 00 00 00 00 00 ................
0040A660 00 00 00 00 00 00 00 00 00 00 00 00 00 00 00 00 ................
0040A670 00 00 00 00 00 00 00 00 00 00 00 00 00 00 00 00 ................
0040A680 00 00 00 00 00 00 00 00 00 00 00 00 00 00 00 00 ................
0040A690 00 00 00 00 00 00 00 00 00 00 00 00 00 00 00 00 ................
0040A6A0 00 00 00 00 00 00 00 00 00 00 00 00 00 00 00 00 ................
0040A6B0 00 00 00 00 00 00 00 00 00 00 00 00 00 00 00 00 ................
0040A6C0 00 00 00 00 00 00 00 00 00 00 00 00 00 00 00 00 ................
0040A6D0 00 00 00 00 00 00 00 00 00 00 00 00 00 00 00 00 ................
0040A6E0 00 00 00 00 00 00 00 00 00 00 00 00 00 00 00 00 ................
0040A6F0 00 00 00 00 00 00 00 00 00 00 00 00 00 00 00 00 ................
0040A700 00 00 00 00 00 00 00 00 00 00 00 00 00 00 00 00 ................
0040A710 00 00 00 00 00 00 00 00 00 00 00 00 00 00 00 00 ................
0040A720 00 00 00 00 00 00 00 00 00 00 00 00 00 00 00 00 ................
0040A730 00 00 00 00 00 00 00 00 00 00 00 00 00 00 00 00 ................
0040A740 00 00 00 00 00 00 00 00 00 00 00 00 00 00 00 00 ................
0040A750 00 00 00 00 00 00 00 00 00 00 00 00 00 00 00 00 ................
0040A760 00 00 00 00 00 00 00 00 00 00 00 00 00 00 00 00 ................
0040A770 00 00 00 00 00 00 00 00 00 00 00 00 00 00 00 00 ................
0040A780 00 00 00 00 00 00 00 00 00 00 00 00 00 00 00 00 ................
0040A790 00 00 00 00 00 00 00 00 00 00 00 00 00 00 00 00 ................
0040A7A0 00 00 00 00 00 00 00 00 00 00 00 00 00 00 00 00 ................
0040A7B0 00 00 00 00 00 00 00 00 00 00 00 00 00 00 00 00 ................
0040A7C0 00 00 00 00 00 00 00 00 00 00 00 00 00 00 00 00 ................
0040A7D0 00 00 00 00 00 00 00 00 00 00 00 00 00 00 00 00 ................
0040A7E0 00 00 00 00 00 00 00 00 00 00 00 00 00 00 00 00 ................
0040A7F0 00 00 00 00 00 00 00 00 00 00 00 00 00 00 00 00 ................
0040A800 00 00 00 00 00 00 00 00 00 00 00 00 00 00 00 00 ................
0040A810 00 00 00 00 00 00 00 00 00 00 00 00 00 00 00 00 ................
0040A820 00 00 00 00 00 00 00 00 00 00 00 00 00 00 00 00 ................
0040A830 00 00 00 00 00 00 00 00 00 00 00 00 00 00 00 00 ................
0040A840 00 00 00 00 00 00 00 00 00 00 00 00 00 00 00 00 ................
0040A850 00 00 00 00 00 00 00 00 00 00 00 00 00 00 00 00 ................
0040A860 00 00 00 00 00 00 00 00 00 00 00 00 00 00 00 00 ................
0040A870 00 00 00 00 00 00 00 00 00 00 00 00 00 00 00 00 ................
0040A880 00 00 00 00 00 00 00 00 00 00 00 00 00 00 00 00 ................
0040A890 00 00 00 00 00 00 00 00 00 00 00 00 00 00 00 00 ................
0040A8A0 00 00 00 00 00 00 00 00 00 00 00 00 00 00 00 00 ................
0040A8B0 00 00 00 00 00 00 00 00 00 00 00 00 00 00 00 00 ................
0040A8C0 00 00 00 00 00 00 00 00 00 00 00 00 00 00 00 00 ................
0040A8D0 00 00 00 00 00 00 00 00 00 00 00 00 00 00 00 00 ................
0040A8E0 00 00 00 00 00 00 00 00 00 00 00 00 00 00 00 00 ................
0040A8F0 00 00 00 00 00 00 00 00 00 00 00 00 00 00 00 00 ................
0040A900 00 00 00 00 00 00 00 00 00 00 00 00 00 00 00 00 ................
0040A910 00 00 00 00 00 00 00 00 00 00 00 00 00 00 00 00 ................
0040A920 00 00 00 00 00 00 00 00 00 00 00 00 00 00 00 00 ................
0040A930 00 00 00 00 00 00 00 00 00 00 00 00 00 00 00 00 ................
0040A940 00 00 00 00 00 00 00 00 00 00 00 00 00 00 00 00 ................
0040A950 00 00 00 00 00 00 00 00 00 00 00 00 00 00 00 00 ................
0040A960 00 00 00 00 00 00 00 00 00 00 00 00 00 00 00 00 ................
0040A970 00 00 00 00 00 00 00 00 00 00 00 00 00 00 00 00 ................
0040A980 00 00 00 00 00 00 00 00 00 00 00 00 00 00 00 00 ................
0040A990 00 00 00 00 00 00 00 00 00 00 00 00 00 00 00 00 ................
0040A9A0 00 00 00 00 00 00 00 00 00 00 00 00 00 00 00 00 ................
0040A9B0 00 00 00 00 00 00 00 00 00 00 00 00 00 00 00 00 ................
0040A9C0 00 00 00 00 00 00 00 00 00 00 00 00 00 00 00 00 ................
0040A9D0 00 00 00 00 00 00 00 00 00 00 00 00 00 00 00 00 ................
0040A9E0 00 00 00 00 00 00 00 00 00 00 00 00 00 00 00 00 ................
0040A9F0 00 00 00 00 00 00 00 00 00 00 00 00 00 00 00 00 ................
0040AA00 00 00 00 00 00 00 00 00 00 00 00 00 00 00 00 00 ................
0040AA10 00 00 00 00 00 00 00 00 00 00 00 00 00 00 00 00 ................
0040AA20 00 00 00 00 00 00 00 00 00 00 00 00 00 00 00 00 ................
0040AA30 00 00 00 00 00 00 00 00 00 00 00 00 00 00 00 00 ................
0040AA40 00 00 00 00 00 00 00 00 00 00 00 00 00 00 00 00 ................
0040AA50 00 00 00 00 00 00 00 00 00 00 00 00 00 00 00 00 ................
0040AA60 00 00 00 00 00 00 00 00 00 00 00 00 00 00 00 00 ................
0040AA70 00 00 00 00 00 00 00 00 00 00 00 00 00 00 00 00 ................
0040AA80 00 00 00 00 00 00 00 00 00 00 00 00 00 00 00 00 ................
0040AA90 00 00 00 00 00 00 00 00 00 00 00 00 00 00 00 00 ................
0040AAA0 00 00 00 00 00 00 00 00 00 00 00 00 00 00 00 00 ................
0040AAB0 00 00 00 00 00 00 00 00 00 00 00 00 00 00 00 00 ................
0040AAC0 00 00 00 00 00 00 00 00 00 00 00 00 00 00 00 00 ................
0040AAD0 00 00 00 00 00 00 00 00 00 00 00 00 00 00 00 00 ................
0040AAE0 00 00 00 00 00 00 00 00 00 00 00 00 00 00 00 00 ................
0040AAF0 00 00 00 00 00 00 00 00 00 00 00 00 00 00 00 00 ................
0040AB00 00 00 00 00 00 00 00 00 00 00 00 00 00 00 00 00 ................
0040AB10 00 00 00 00 00 00 00 00 00 00 00 00 00 00 00 00 ................
0040AB20 00 00 00 00 00 00 00 00 00 00 00 00 00 00 00 00 ................
0040AB30 00 00 00 00 00 00 00 00 00 00 00 00 00 00 00 00 ................
0040AB40 00 00 00 00 00 00 00 00 00 00 00 00 00 00 00 00 ................
0040AB50 00 00 00 00 00 00 00 00 00 00 00 00 00 00 00 00 ................
0040AB60 00 00 00 00 00 00 00 00 00 00 00 00 00 00 00 00 ................
0040AB70 00 00 00 00 00 00 00 00 00 00 00 00 00 00 00 00 ................
0040AB80 00 00 00 00 00 00 00 00 00 00 00 00 00 00 00 00 ................
0040AB90 00 00 00 00 00 00 00 00 00 00 00 00 00 00 00 00 ................
0040ABA0 00 00 00 00 00 00 00 00 00 00 00 00 00 00 00 00 ................
0040ABB0 00 00 00 00 00 00 00 00 00 00 00 00 00 00 00 00 ................
0040ABC0 00 00 00 00 00 00 00 00 00 00 00 00 00 00 00 00 ................
0040ABD0 00 00 00 00 00 00 00 00 00 00 00 00 00 00 00 00 ................
0040ABE0 00 00 00 00 00 00 00 00 00 00 00 00 00 00 00 00 ................
0040ABF0 00 00 00 00 00 00 00 00 00 00 00 00 00 00 00 00 ................
0040AC00 00 00 00 00 00 00 00 00 00 00 00 00 00 00 00 00 ................
0040AC10 00 00 00 00 00 00 00 00 00 00 00 00 00 00 00 00 ................
0040AC20 00 00 00 00 00 00 00 00 00 00 00 00 00 00 00 00 ................
0040AC30 00 00 00 00 00 00 00 00 00 00 00 00 00 00 00 00 ................
0040AC40 00 00 00 00 00 00 00 00 00 00 00 00 00 00 00 00 ................
0040AC50 00 00 00 00 00 00 00 00 00 00 00 00 00 00 00 00 ................
0040AC60 00 00 00 00 00 00 00 00 00 00 00 00 00 00 00 00 ................
0040AC70 00 00 00 00 00 00 00 00 00 00 00 00 00 00 00 00 ................
0040AC80 00 00 00 00 00 00 00 00 00 00 00 00 00 00 00 00 ................
0040AC90 00 00 00 00 00 00 00 00 00 00 00 00 00 00 00 00 ................
0040ACA0 00 00 00 00 00 00 00 00 00 00 00 00 00 00 00 00 ................
0040ACB0 00 00 00 00 00 00 00 00 00 00 00 00 00 00 00 00 ................
0040ACC0 00 00 00 00 00 00 00 00 00 00 00 00 00 00 00 00 ................
0040ACD0 00 00 00 00 00 00 00 00 00 00 00 00 00 00 00 00 ................
0040ACE0 00 00 00 00 00 00 00 00 00 00 00 00 00 00 00 00 ................
0040ACF0 00 00 00 00 00 00 00 00 00 00 00 00 00 00 00 00 ................
0040AD00 00 00 00 00 00 00 00 00 00 00 00 00 00 00 00 00 ................
0040AD10 00 00 00 00 00 00 00 00 00 00 00 00 00 00 00 00 ................
0040AD20 00 00 00 00 00 00 00 00 00 00 00 00 00 00 00 00 ................
0040AD30 00 00 00 00 00 00 00 00 00 00 00 00 00 00 00 00 ................
0040AD40 00 00 00 00 00 00 00 00 00 00 00 00 00 00 00 00 ................
0040AD50 00 00 00 00 00 00 00 00 00 00 00 00 00 00 00 00 ................
0040AD60 00 00 00 00 00 00 00 00 00 00 00 00 00 00 00 00 ................
0040AD70 00 00 00 00 00 00 00 00 00 00 00 00 00 00 00 00 ................
0040AD80 00 00 00 00 00 00 00 00 00 00 00 00 00 00 00 00 ................
0040AD90 00 00 00 00 00 00 00 00 00 00 00 00 00 00 00 00 ................
0040ADA0 00 00 00 00 00 00 00 00 00 00 00 00 00 00 00 00 ................
0040ADB0 00 00 00 00 00 00 00 00 00 00 00 00 00 00 00 00 ................
0040ADC0 00 00 00 00 00 00 00 00 00 00 00 00 00 00 00 00 ................
0040ADD0 00 00 00 00 00 00 00 00 00 00 00 00 00 00 00 00 ................
0040ADE0 00 00 00 00 00 00 00 00 00 00 00 00 00 00 00 00 ................
0040ADF0 00 00 00 00 00 00 00 00 00 00 00 00 00 00 00 00 ................
0040AE00 00 00 00 00 00 00 00 00 00 00 00 00 00 00 00 00 ................
0040AE10 00 00 00 00 00 00 00 00 00 00 00 00 00 00 00 00 ................
0040AE20 00 00 00 00 00 00 00 00 00 00 00 00 00 00 00 00 ................
0040AE30 00 00 00 00 00 00 00 00 00 00 00 00 00 00 00 00 ................
0040AE40 00 00 00 00 00 00 00 00 00 00 00 00 00 00 00 00 ................
0040AE50 00 00 00 00 00 00 00 00 00 00 00 00 00 00 00 00 ................
0040AE60 00 00 00 00 00 00 00 00 00 00 00 00 00 00 00 00 ................
0040AE70 00 00 00 00 00 00 00 00 00 00 00 00 00 00 00 00 ................
0040AE80 00 00 00 00 00 00 00 00 00 00 00 00 00 00 00 00 ................
0040AE90 00 00 00 00 00 00 00 00 00 00 00 00 00 00 00 00 ................
0040AEA0 00 00 00 00 00 00 00 00 00 00 00 00 00 00 00 00 ................
0040AEB0 00 00 00 00 00 00 00 00 00 00 00 00 00 00 00 00 ................
0040AEC0 00 00 00 00 00 00 00 00 00 00 00 00 00 00 00 00 ................
0040AED0 00 00 00 00 00 00 00 00 00 00 00 00 00 00 00 00 ................
0040AEE0 00 00 00 00 00 00 00 00 00 00 00 00 00 00 00 00 ................
0040AEF0 00 00 00 00 00 00 00 00 00 00 00 00 00 00 00 00 ................
0040AF00 00 00 00 00 00 00 00 00 00 00 00 00 00 00 00 00 ................
0040AF10 00 00 00 00 00 00 00 00 00 00 00 00 00 00 00 00 ................
0040AF20 00 00 00 00 00 00 00 00 00 00 00 00 00 00 00 00 ................
0040AF30 00 00 00 00 00 00 00 00 00 00 00 00 00 00 00 00 ................
0040AF40 00 00 00 00 00 00 00 00 00 00 00 00 00 00 00 00 ................
0040AF50 00 00 00 00 00 00 00 00 00 00 00 00 00 00 00 00 ................
0040AF60 00 00 00 00 00 00 00 00 00 00 00 00 00 00 00 00 ................
0040AF70 00 00 00 00 00 00 00 00 00 00 00 00 00 00 00 00 ................
0040AF80 00 00 00 00 00 00 00 00 00 00 00 00 00 00 00 00 ................
0040AF90 00 00 00 00 00 00 00 00 00 00 00 00 00 00 00 00 ................
0040AFA0 00 00 00 00 00 00 00 00 00 00 00 00 00 00 00 00 ................
0040AFB0 00 00 00 00 00 00 00 00 00 00 00 00 00 00 00 00 ................
0040AFC0 00 00 00 00 00 00 00 00 00 00 00 00 00 00 00 00 ................
0040AFD0 00 00 00 00 00 00 00 00 00 00 00 00 00 00 00 00 ................
0040AFE0 00 00 00 00 00 00 00 00 00 00 00 00 00 00 00 00 ................
0040AFF0 00 00 00 00 00 00 00 00 00 00 00 00 00 00 00 00 ................
0040B000 00 00 00 00 00 00 00 00 00 00 00 00 00 00 00 00 ................
0040B010 00 00 00 00 00 00 00 00 00 00 00 00 00 00 00 00 ................
0040B020 00 00 00 00 00 00 00 00 00 00 00 00 00 00 00 00 ................
0040B030 00 00 00 00 00 00 00 00 00 00 00 00 00 00 00 00 ................
0040B040 00 00 00 00 00 00 00 00 00 00 00 00 00 00 00 00 ................
0040B050 00 00 00 00 00 00 00 00 00 00 00 00 00 00 00 00 ................
0040B060 00 00 00 00 00 00 00 00 00 00 00 00 00 00 00 00 ................
0040B070 00 00 00 00 00 00 00 00 00 00 00 00 00 00 00 00 ................
0040B080 00 00 00 00 00 00 00 00 00 00 00 00 00 00 00 00 ................
0040B090 00 00 00 00 00 00 00 00 00 00 00 00 00 00 00 00 ................
0040B0A0 00 00 00 00 00 00 00 00 00 00 00 00 00 00 00 00 ................
0040B0B0 00 00 00 00 00 00 00 00 00 00 00 00 00 00 00 00 ................
0040B0C0 00 00 00 00 00 00 00 00 00 00 00 00 00 00 00 00 ................
0040B0D0 00 00 00 00 00 00 00 00 00 00 00 00 00 00 00 00 ................
0040B0E0 00 00 00 00 00 00 00 00 00 00 00 00 00 00 00 00 ................
0040B0F0 00 00 00 00 00 00 00 00 00 00 00 00 00 00 00 00 ................
0040B100 00 00 00 00 00 00 00 00 00 00 00 00 00 00 00 00 ................
0040B110 00 00 00 00 00 00 00 00 00 00 00 00 00 00 00 00 ................
0040B120 00 00 00 00 00 00 00 00 00 00 00 00 00 00 00 00 ................
0040B130 00 00 00 00 00 00 00 00 00 00 00 00 00 00 00 00 ................
0040B140 00 00 00 00 00 00 00 00 00 00 00 00 00 00 00 00 ................
0040B150 00 00 00 00 00 00 00 00 00 00 00 00 00 00 00 00 ................
0040B160 00 00 00 00 00 00 00 00 00 00 00 00 00 00 00 00 ................
0040B170 00 00 00 00 00 00 00 00 00 00 00 00 00 00 00 00 ................
0040B180 00 00 00 00 00 00 00 00 00 00 00 00 00 00 00 00 ................
0040B190 00 00 00 00 00 00 00 00 00 00 00 00 00 00 00 00 ................
0040B1A0 00 00 00 00 00 00 00 00 00 00 00 00 00 00 00 00 ................
0040B1B0 00 00 00 00 00 00 00 00 00 00 00 00 00 00 00 00 ................
0040B1C0 00 00 00 00 00 00 00 00 00 00 00 00 00 00 00 00 ................
0040B1D0 00 00 00 00 00 00 00 00 00 00 00 00 00 00 00 00 ................
0040B1E0 00 00 00 00 00 00 00 00 00 00 00 00 00 00 00 00 ................
0040B1F0 00 00 00 00 00 00 00 00 00 00 00 00 00 00 00 00 ................
0040B200 00 00 00 00 00 00 00 00 00 00 00 00 00 00 00 00 ................
0040B210 00 00 00 00 00 00 00 00 00 00 00 00 00 00 00 00 ................
0040B220 00 00 00 00 00 00 00 00 00 00 00 00 00 00 00 00 ................
0040B230 00 00 00 00 00 00 00 00 00 00 00 00 00 00 00 00 ................
0040B240 00 00 00 00 00 00 00 00 00 00 00 00 00 00 00 00 ................
0040B250 00 00 00 00 00 00 00 00 00 00 00 00 00 00 00 00 ................
0040B260 00 00 00 00 00 00 00 00 00 00 00 00 00 00 00 00 ................
0040B270 00 00 00 00 00 00 00 00 00 00 00 00 00 00 00 00 ................
0040B280 00 00 00 00 00 00 00 00 00 00 00 00 00 00 00 00 ................
0040B290 00 00 00 00 00 00 00 00 00 00 00 00 00 00 00 00 ................
0040B2A0 00 00 00 00 00 00 00 00 00 00 00 00 00 00 00 00 ................
0040B2B0 00 00 00 00 00 00 00 00 00 00 00 00 00 00 00 00 ................
0040B2C0 00 00 00 00 00 00 00 00 00 00 00 00 00 00 00 00 ................
0040B2D0 00 00 00 00 00 00 00 00 00 00 00 00 00 00 00 00 ................
0040B2E0 00 00 00 00 00 00 00 00 00 00 00 00 00 00 00 00 ................
0040B2F0 00 00 00 00 00 00 00 00 00 00 00 00 00 00 00 00 ................
0040B300 00 00 00 00 00 00 00 00 00 00 00 00 00 00 00 00 ................
0040B310 00 00 00 00 00 00 00 00 00 00 00 00 00 00 00 00 ................
0040B320 00 00 00 00 00 00 00 00 00 00 00 00 00 00 00 00 ................
0040B330 00 00 00 00 00 00 00 00 00 00 00 00 00 00 00 00 ................
0040B340 00 00 00 00 00 00 00 00 00 00 00 00 00 00 00 00 ................
0040B350 00 00 00 00 00 00 00 00 00 00 00 00 00 00 00 00 ................
0040B360 00 00 00 00 00 00 00 00 00 00 00 00 00 00 00 00 ................
0040B370 00 00 00 00 00 00 00 00 00 00 00 00 00 00 00 00 ................
0040B380 00 00 00 00 00 00 00 00 00 00 00 00 00 00 00 00 ................
0040B390 00 00 00 00 00 00 00 00 00 00 00 00 00 00 00 00 ................
0040B3A0 00 00 00 00 00 00 00 00 00 00 00 00 00 00 00 00 ................
0040B3B0 00 00 00 00 00 00 00 00 00 00 00 00 00 00 00 00 ................
0040B3C0 00 00 00 00 00 00 00 00 00 00 00 00 00 00 00 00 ................
0040B3D0 00 00 00 00 00 00 00 00 00 00 00 00 00 00 00 00 ................
0040B3E0 00 00 00 00 00 00 00 00 00 00 00 00 00 00 00 00 ................
0040B3F0 00 00 00 00 00 00 00 00 00 00 00 00 00 00 00 00 ................
0040B400 00 00 00 00 00 00 00 00 00 00 00 00 00 00 00 00 ................
0040B410 00 00 00 00 00 00 00 00 00 00 00 00 00 00 00 00 ................
0040B420 00 00 00 00 00 00 00 00 00 00 00 00 00 00 00 00 ................
0040B430 00 00 00 00 00 00 00 00 00 00 00 00 00 00 00 00 ................
0040B440 00 00 00 00 00 00 00 00 00 00 00 00 00 00 00 00 ................
0040B450 00 00 00 00 00 00 00 00 00 00 00 00 00 00 00 00 ................
0040B460 00 00 00 00 00 00 00 00 00 00 00 00 00 00 00 00 ................
0040B470 00 00 00 00 00 00 00 00 00 00 00 00 00 00 00 00 ................
0040B480 00 00 00 00 00 00 00 00 00 00 00 00 00 00 00 00 ................
0040B490 00 00 00 00 00 00 00 00 00 00 00 00 00 00 00 00 ................
0040B4A0 00 00 00 00 00 00 00 00 00 00 00 00 00 00 00 00 ................
0040B4B0 00 00 00 00 00 00 00 00 00 00 00 00 00 00 00 00 ................
0040B4C0 00 00 00 00 00 00 00 00 00 00 00 00 00 00 00 00 ................
0040B4D0 00 00 00 00 00 00 00 00 00 00 00 00 00 00 00 00 ................
0040B4E0 00 00 00 00 00 00 00 00 00 00 00 00 00 00 00 00 ................
0040B4F0 00 00 00 00 00 00 00 00 00 00 00 00 00 00 00 00 ................
0040B500 00 00 00 00 00 00 00 00 00 00 00 00 00 00 00 00 ................
0040B510 00 00 00 00 00 00 00 00 00 00 00 00 00 00 00 00 ................
0040B520 00 00 00 00 00 00 00 00 00 00 00 00 00 00 00 00 ................
0040B530 00 00 00 00 00 00 00 00 00 00 00 00 00 00 00 00 ................
0040B540 00 00 00 00 00 00 00 00 00 00 00 00 00 00 00 00 ................
0040B550 00 00 00 00 00 00 00 00 00 00 00 00 00 00 00 00 ................
0040B560 00 00 00 00 00 00 00 00 00 00 00 00 00 00 00 00 ................
0040B570 00 00 00 00 00 00 00 00 00 00 00 00 00 00 00 00 ................
0040B580 00 00 00 00 00 00 00 00 00 00 00 00 00 00 00 00 ................
0040B590 00 00 00 00 00 00 00 00 00 00 00 00 00 00 00 00 ................
0040B5A0 00 00 00 00 00 00 00 00 00 00 00 00 00 00 00 00 ................
0040B5B0 00 00 00 00 00 00 00 00 00 00 00 00 00 00 00 00 ................
0040B5C0 00 00 00 00 00 00 00 00 00 00 00 00 00 00 00 00 ................
0040B5D0 00 00 00 00 00 00 00 00 00 00 00 00 00 00 00 00 ................
0040B5E0 00 00 00 00 00 00 00 00 00 00 00 00 00 00 00 00 ................
0040B5F0 00 00 00 00 00 00 00 00 00 00 00 00 00 00 00 00 ................
0040B600 00 00 00 00 00 00 00 00 00 00 00 00 00 00 00 00 ................
0040B610 00 00 00 00 00 00 00 00 00 00 00 00 00 00 00 00 ................
0040B620 00 00 00 00 00 00 00 00 00 00 00 00 00 00 00 00 ................
0040B630 00 00 00 00 00 00 00 00 00 00 00 00 00 00 00 00 ................
0040B640 00 00 00 00 00 00 00 00 00 00 00 00 00 00 00 00 ................
0040B650 00 00 00 00 00 00 00 00 00 00 00 00 00 00 00 00 ................
0040B660 00 00 00 00 00 00 00 00 00 00 00 00 00 00 00 00 ................
0040B670 00 00 00 00 00 00 00 00 00 00 00 00 00 00 00 00 ................
0040B680 00 00 00 00 00 00 00 00 00 00 00 00 00 00 00 00 ................
0040B690 00 00 00 00 00 00 00 00 00 00 00 00 00 00 00 00 ................
0040B6A0 00 00 00 00 00 00 00 00 00 00 00 00 00 00 00 00 ................
0040B6B0 00 00 00 00 00 00 00 00 00 00 00 00 00 00 00 00 ................
0040B6C0 00 00 00 00 00 00 00 00 00 00 00 00 00 00 00 00 ................
0040B6D0 00 00 00 00 00 00 00 00 00 00 00 00 00 00 00 00 ................
0040B6E0 00 00 00 00 00 00 00 00 00 00 00 00 00 00 00 00 ................
0040B6F0 00 00 00 00 00 00 00 00 00 00 00 00 00 00 00 00 ................
0040B700 00 00 00 00 00 00 00 00 00 00 00 00 00 00 00 00 ................
0040B710 00 00 00 00 00 00 00 00 00 00 00 00 00 00 00 00 ................
0040B720 00 00 00 00 00 00 00 00 00 00 00 00 00 00 00 00 ................
0040B730 00 00 00 00 00 00 00 00 00 00 00 00 00 00 00 00 ................
0040B740 00 00 00 00 00 00 00 00 00 00 00 00 00 00 00 00 ................
0040B750 00 00 00 00 00 00 00 00 00 00 00 00 00 00 00 00 ................
0040B760 00 00 00 00 00 00 00 00 00 00 00 00 00 00 00 00 ................
0040B770 00 00 00 00 00 00 00 00 00 00 00 00 00 00 00 00 ................
0040B780 00 00 00 00 00 00 00 00 00 00 00 00 00 00 00 00 ................
0040B790 00 00 00 00 00 00 00 00 00 00 00 00 00 00 00 00 ................
0040B7A0 00 00 00 00 00 00 00 00 00 00 00 00 00 00 00 00 ................
0040B7B0 00 00 00 00 00 00 00 00 00 00 00 00 00 00 00 00 ................
0040B7C0 00 00 00 00 00 00 00 00 00 00 00 00 00 00 00 00 ................
0040B7D0 00 00 00 00 00 00 00 00 00 00 00 00 00 00 00 00 ................
0040B7E0 00 00 00 00 00 00 00 00 00 00 00 00 00 00 00 00 ................
0040B7F0 00 00 00 00 00 00 00 00 00 00 00 00 00 00 00 00 ................
0040B800 00 00 00 00 00 00 00 00 00 00 00 00 00 00 00 00 ................
0040B810 00 00 00 00 00 00 00 00 00 00 00 00 00 00 00 00 ................
0040B820 00 00 00 00 00 00 00 00 00 00 00 00 00 00 00 00 ................
0040B830 00 00 00 00 00 00 00 00 00 00 00 00 00 00 00 00 ................
0040B840 00 00 00 00 00 00 00 00 00 00 00 00 00 00 00 00 ................
0040B850 00 00 00 00 00 00 00 00 00 00 00 00 00 00 00 00 ................
0040B860 00 00 00 00 00 00 00 00 00 00 00 00 00 00 00 00 ................
0040B870 00 00 00 00 00 00 00 00 00 00 00 00 00 00 00 00 ................
0040B880 00 00 00 00 00 00 00 00 00 00 00 00 00 00 00 00 ................
0040B890 00 00 00 00 00 00 00 00 00 00 00 00 00 00 00 00 ................
0040B8A0 00 00 00 00 00 00 00 00 00 00 00 00 00 00 00 00 ................
0040B8B0 00 00 00 00 00 00 00 00 00 00 00 00 00 00 00 00 ................
0040B8C0 00 00 00 00 00 00 00 00 00 00 00 00 00 00 00 00 ................
0040B8D0 00 00 00 00 00 00 00 00 00 00 00 00 00 00 00 00 ................
0040B8E0 00 00 00 00 00 00 00 00 00 00 00 00 00 00 00 00 ................
0040B8F0 00 00 00 00 00 00 00 00 00 00 00 00 00 00 00 00 ................
0040B900 00 00 00 00 00 00 00 00 00 00 00 00 00 00 00 00 ................
0040B910 00 00 00 00 00 00 00 00 00 00 00 00 00 00 00 00 ................
0040B920 00 00 00 00 00 00 00 00 00 00 00 00 00 00 00 00 ................
0040B930 00 00 00 00 00 00 00 00 00 00 00 00 00 00 00 00 ................
0040B940 00 00 00 00 00 00 00 00 00 00 00 00 00 00 00 00 ................
0040B950 00 00 00 00 00 00 00 00 00 00 00 00 00 00 00 00 ................
0040B960 00 00 00 00 00 00 00 00 00 00 00 00 00 00 00 00 ................
0040B970 00 00 00 00 00 00 00 00 00 00 00 00 00 00 00 00 ................
0040B980 00 00 00 00 00 00 00 00 00 00 00 00 00 00 00 00 ................
0040B990 00 00 00 00 00 00 00 00 00 00 00 00 00 00 00 00 ................
0040B9A0 00 00 00 00 00 00 00 00 00 00 00 00 00 00 00 00 ................
0040B9B0 00 00 00 00 00 00 00 00 00 00 00 00 00 00 00 00 ................
0040B9C0 00 00 00 00 00 00 00 00 00 00 00 00 00 00 00 00 ................
0040B9D0 00 00 00 00 00 00 00 00 00 00 00 00 00 00 00 00 ................
0040B9E0 00 00 00 00 00 00 00 00 00 00 00 00 00 00 00 00 ................
0040B9F0 00 00 00 00 00 00 00 00 00 00 00 00 00 00 00 00 ................
0040BA00 00 00 00 00 00 00 00 00 00 00 00 00 00 00 00 00 ................
0040BA10 00 00 00 00 00 00 00 00 00 00 00 00 00 00 00 00 ................
0040BA20 00 00 00 00 00 00 00 00 00 00 00 00 00 00 00 00 ................
0040BA30 00 00 00 00 00 00 00 00 00 00 00 00 00 00 00 00 ................
0040BA40 00 00 00 00 00 00 00 00 00 00 00 00 00 00 00 00 ................
0040BA50 00 00 00 00 00 00 00 00 00 00 00 00 00 00 00 00 ................
0040BA60 00 00 00 00 00 00 00 00 00 00 00 00 00 00 00 00 ................
0040BA70 00 00 00 00 00 00 00 00 00 00 00 00 00 00 00 00 ................
0040BA80 00 00 00 00 00 00 00 00 00 00 00 00 00 00 00 00 ................
0040BA90 00 00 00 00 00 00 00 00 00 00 00 00 00 00 00 00 ................
0040BAA0 00 00 00 00 00 00 00 00 00 00 00 00 00 00 00 00 ................
0040BAB0 00 00 00 00 00 00 00 00 00 00 00 00 00 00 00 00 ................
0040BAC0 00 00 00 00 00 00 00 00 00 00 00 00 00 00 00 00 ................
0040BAD0 00 00 00 00 00 00 00 00 00 00 00 00 00 00 00 00 ................
0040BAE0 00 00 00 00 00 00 00 00 00 00 00 00 00 00 00 00 ................
0040BAF0 00 00 00 00 00 00 00 00 00 00 00 00 00 00 00 00 ................
0040BB00 00 00 00 00 00 00 00 00 00 00 00 00 00 00 00 00 ................
0040BB10 00 00 00 00 00 00 00 00 00 00 00 00 00 00 00 00 ................
0040BB20 00 00 00 00 00 00 00 00 00 00 00 00 00 00 00 00 ................
0040BB30 00 00 00 00 00 00 00 00 00 00 00 00 00 00 00 00 ................
0040BB40 00 00 00 00 00 00 00 00 00 00 00 00 00 00 00 00 ................
0040BB50 00 00 00 00 00 00 00 00 00 00 00 00 00 00 00 00 ................
0040BB60 00 00 00 00 00 00 00 00 00 00 00 00 00 00 00 00 ................
0040BB70 00 00 00 00 00 00 00 00 00 00 00 00 00 00 00 00 ................
0040BB80 00 00 00 00 00 00 00 00 00 00 00 00 00 00 00 00 ................
0040BB90 00 00 00 00 00 00 00 00 00 00 00 00 00 00 00 00 ................
0040BBA0 00 00 00 00 00 00 00 00 00 00 00 00 00 00 00 00 ................
0040BBB0 00 00 00 00 00 00 00 00 00 00 00 00 00 00 00 00 ................
0040BBC0 00 00 00 00 00 00 00 00 00 00 00 00 00 00 00 00 ................
0040BBD0 00 00 00 00 00 00 00 00 00 00 00 00 00 00 00 00 ................
0040BBE0 00 00 00 00 00 00 00 00 00 00 00 00 00 00 00 00 ................
0040BBF0 00 00 00 00 00 00 00 00 00 00 00 00 00 00 00 00 ................
0040BC00 00 00 00 00 00 00 00 00 00 00 00 00 00 00 00 00 ................
0040BC10 00 00 00 00 00 00 00 00 00 00 00 00 00 00 00 00 ................
0040BC20 00 00 00 00 00 00 00 00 00 00 00 00 00 00 00 00 ................
0040BC30 00 00 00 00 00 00 00 00 00 00 00 00 00 00 00 00 ................
0040BC40 00 00 00 00 00 00 00 00 00 00 00 00 00 00 00 00 ................
0040BC50 00 00 00 00 00 00 00 00 00 00 00 00 00 00 00 00 ................
0040BC60 00 00 00 00 00 00 00 00 00 00 00 00 00 00 00 00 ................
0040BC70 00 00 00 00 00 00 00 00 00 00 00 00 00 00 00 00 ................
0040BC80 00 00 00 00 00 00 00 00 00 00 00 00 00 00 00 00 ................
0040BC90 00 00 00 00 00 00 00 00 00 00 00 00 00 00 00 00 ................
0040BCA0 00 00 00 00 00 00 00 00 00 00 00 00 00 00 00 00 ................
0040BCB0 00 00 00 00 00 00 00 00 00 00 00 00 00 00 00 00 ................
0040BCC0 00 00 00 00 00 00 00 00 00 00 00 00 00 00 00 00 ................
0040BCD0 00 00 00 00 00 00 00 00 00 00 00 00 00 00 00 00 ................
0040BCE0 00 00 00 00 00 00 00 00 00 00 00 00 00 00 00 00 ................
0040BCF0 00 00 00 00 00 00 00 00 00 00 00 00 00 00 00 00 ................
0040BD00 00 00 00 00 00 00 00 00 00 00 00 00 00 00 00 00 ................
0040BD10 00 00 00 00 00 00 00 00 00 00 00 00 00 00 00 00 ................
0040BD20 00 00 00 00 00 00 00 00 00 00 00 00 00 00 00 00 ................
0040BD30 00 00 00 00 00 00 00 00 00 00 00 00 00 00 00 00 ................
0040BD40 00 00 00 00 00 00 00 00 00 00 00 00 00 00 00 00 ................
0040BD50 00 00 00 00 00 00 00 00 00 00 00 00 00 00 00 00 ................
0040BD60 00 00 00 00 00 00 00 00 00 00 00 00 00 00 00 00 ................
0040BD70 00 00 00 00 00 00 00 00 00 00 00 00 00 00 00 00 ................
0040BD80 00 00 00 00 00 00 00 00 00 00 00 00 00 00 00 00 ................
0040BD90 00 00 00 00 00 00 00 00 00 00 00 00 00 00 00 00 ................
0040BDA0 00 00 00 00 00 00 00 00 00 00 00 00 00 00 00 00 ................
0040BDB0 00 00 00 00 00 00 00 00 00 00 00 00 00 00 00 00 ................
0040BDC0 00 00 00 00 00 00 00 00 00 00 00 00 00 00 00 00 ................
0040BDD0 00 00 00 00 00 00 00 00 00 00 00 00 00 00 00 00 ................
0040BDE0 00 00 00 00 00 00 00 00 00 00 00 00 00 00 00 00 ................
0040BDF0 00 00 00 00 00 00 00 00 00 00 00 00 00 00 00 00 ................
0040BE00 00 00 00 00 00 00 00 00 00 00 00 00 00 00 00 00 ................
0040BE10 00 00 00 00 00 00 00 00 00 00 00 00 00 00 00 00 ................
0040BE20 00 00 00 00 00 00 00 00 00 00 00 00 00 00 00 00 ................
0040BE30 00 00 00 00 00 00 00 00 00 00 00 00 00 00 00 00 ................
0040BE40 00 00 00 00 00 00 00 00 00 00 00 00 00 00 00 00 ................
0040BE50 00 00 00 00 00 00 00 00 00 00 00 00 00 00 00 00 ................
0040BE60 00 00 00 00 00 00 00 00 00 00 00 00 00 00 00 00 ................
0040BE70 00 00 00 00 00 00 00 00 00 00 00 00 00 00 00 00 ................
0040BE80 00 00 00 00 00 00 00 00 00 00 00 00 00 00 00 00 ................
0040BE90 00 00 00 00 00 00 00 00 00 00 00 00 00 00 00 00 ................
0040BEA0 00 00 00 00 00 00 00 00 00 00 00 00 00 00 00 00 ................
0040BEB0 00 00 00 00 00 00 00 00 00 00 00 00 00 00 00 00 ................
0040BEC0 00 00 00 00 00 00 00 00 00 00 00 00 00 00 00 00 ................
0040BED0 00 00 00 00 00 00 00 00 00 00 00 00 00 00 00 00 ................
0040BEE0 00 00 00 00 00 00 00 00 00 00 00 00 00 00 00 00 ................
0040BEF0 00 00 00 00 00 00 00 00 00 00 00 00 00 00 00 00 ................
0040BF00 00 00 00 00 00 00 00 00 00 00 00 00 00 00 00 00 ................
0040BF10 00 00 00 00 00 00 00 00 00 00 00 00 00 00 00 00 ................
0040BF20 00 00 00 00 00 00 00 00 00 00 00 00 00 00 00 00 ................
0040BF30 00 00 00 00 00 00 00 00 00 00 00 00 00 00 00 00 ................
0040BF40 00 00 00 00 00 00 00 00 00 00 00 00 00 00 00 00 ................
0040BF50 00 00 00 00 00 00 00 00 00 00 00 00 00 00 00 00 ................
0040BF60 00 00 00 00 00 00 00 00 00 00 00 00 00 00 00 00 ................
0040BF70 00 00 00 00 00 00 00 00 00 00 00 00 00 00 00 00 ................
0040BF80 00 00 00 00 00 00 00 00 00 00 00 00 00 00 00 00 ................
0040BF90 00 00 00 00 00 00 00 00 00 00 00 00 00 00 00 00 ................
0040BFA0 00 00 00 00 00 00 00 00 00 00 00 00 00 00 00 00 ................
0040BFB0 00 00 00 00 00 00 00 00 00 00 00 00 00 00 00 00 ................
0040BFC0 00 00 00 00 00 00 00 00 00 00 00 00 00 00 00 00 ................
0040BFD0 00 00 00 00 00 00 00 00 00 00 00 00 00 00 00 00 ................
0040BFE0 00 00 00 00 00 00 00 00 00 00 00 00 00 00 00 00 ................
0040BFF0 00 00 00 00 00 00 00 00 00 00 00 00 00 00 00 00 ................
0040C000 00 00 00 00 00 00 00 00 00 00 00 00 00 00 00 00 ................
0040C010 00 00 00 00 00 00 00 00 00 00 00 00 00 00 00 00 ................
0040C020 00 00 00 00 00 00 00 00 00 00 00 00 00 00 00 00 ................
0040C030 00 00 00 00 00 00 00 00 00 00 00 00 00 00 00 00 ................
0040C040 00 00 00 00 00 00 00 00 00 00 00 00 00 00 00 00 ................
0040C050 00 00 00 00 00 00 00 00 00 00 00 00 00 00 00 00 ................
0040C060 00 00 00 00 00 00 00 00 00 00 00 00 00 00 00 00 ................
0040C070 00 00 00 00 00 00 00 00 00 00 00 00 00 00 00 00 ................
0040C080 00 00 00 00 00 00 00 00 00 00 00 00 00 00 00 00 ................
0040C090 00 00 00 00 00 00 00 00 00 00 00 00 00 00 00 00 ................
0040C0A0 00 00 00 00 00 00 00 00 00 00 00 00 00 00 00 00 ................
0040C0B0 00 00 00 00 00 00 00 00 00 00 00 00 00 00 00 00 ................
0040C0C0 00 00 00 00 00 00 00 00 00 00 00 00 00 00 00 00 ................
0040C0D0 00 00 00 00 00 00 00 00 00 00 00 00 00 00 00 00 ................
0040C0E0 00 00 00 00 00 00 00 00 00 00 00 00 00 00 00 00 ................
0040C0F0 00 00 00 00 00 00 00 00 00 00 00 00 00 00 00 00 ................
0040C100 00 00 00 00 00 00 00 00 00 00 00 00 00 00 00 00 ................
0040C110 00 00 00 00 00 00 00 00 00 00 00 00 00 00 00 00 ................
0040C120 00 00 00 00 00 00 00 00 00 00 00 00 00 00 00 00 ................
0040C130 00 00 00 00 00 00 00 00 00 00 00 00 00 00 00 00 ................
0040C140 00 00 00 00 00 00 00 00 00 00 00 00 00 00 00 00 ................
0040C150 00 00 00 00 00 00 00 00 00 00 00 00 00 00 00 00 ................
0040C160 00 00 00 00 00 00 00 00 00 00 00 00 00 00 00 00 ................
0040C170 00 00 00 00 00 00 00 00 00 00 00 00 00 00 00 00 ................
0040C180 00 00 00 00 00 00 00 00 00 00 00 00 00 00 00 00 ................
0040C190 00 00 00 00 00 00 00 00 00 00 00 00 00 00 00 00 ................
0040C1A0 00 00 00 00 00 00 00 00 00 00 00 00 00 00 00 00 ................
0040C1B0 00 00 00 00 00 00 00 00 00 00 00 00 00 00 00 00 ................
0040C1C0 00 00 00 00 00 00 00 00 00 00 00 00 00 00 00 00 ................
0040C1D0 00 00 00 00 00 00 00 00 00 00 00 00 00 00 00 00 ................
0040C1E0 00 00 00 00 00 00 00 00 00 00 00 00 00 00 00 00 ................
0040C1F0 00 00 00 00 00 00 00 00 00 00 00 00 00 00 00 00 ................
0040C200 00 00 00 00 00 00 00 00 00 00 00 00 00 00 00 00 ................
0040C210 00 00 00 00 00 00 00 00 00 00 00 00 00 00 00 00 ................
0040C220 00 00 00 00 00 00 00 00 00 00 00 00 00 00 00 00 ................
0040C230 00 00 00 00 00 00 00 00 00 00 00 00 00 00 00 00 ................
0040C240 00 00 00 00 00 00 00 00 00 00 00 00 00 00 00 00 ................
0040C250 00 00 00 00 00 00 00 00 00 00 00 00 00 00 00 00 ................
0040C260 00 00 00 00 00 00 00 00 00 00 00 00 00 00 00 00 ................
0040C270 00 00 00 00 00 00 00 00 00 00 00 00 00 00 00 00 ................
0040C280 00 00 00 00 00 00 00 00 00 00 00 00 00 00 00 00 ................
0040C290 00 00 00 00 00 00 00 00 00 00 00 00 00 00 00 00 ................
0040C2A0 00 00 00 00 00 00 00 00 00 00 00 00 00 00 00 00 ................
0040C2B0 00 00 00 00 00 00 00 00 00 00 00 00 00 00 00 00 ................
0040C2C0 00 00 00 00 00 00 00 00 00 00 00 00 00 00 00 00 ................
0040C2D0 00 00 00 00 00 00 00 00 00 00 00 00 00 00 00 00 ................
0040C2E0 00 00 00 00 00 00 00 00 00 00 00 00 00 00 00 00 ................
0040C2F0 00 00 00 00 00 00 00 00 00 00 00 00 00 00 00 00 ................
0040C300 00 00 00 00 00 00 00 00 00 00 00 00 00 00 00 00 ................
0040C310 00 00 00 00 00 00 00 00 00 00 00 00 00 00 00 00 ................
0040C320 00 00 00 00 00 00 00 00 00 00 00 00 00 00 00 00 ................
0040C330 00 00 00 00 00 00 00 00 00 00 00 00 00 00 00 00 ................
0040C340 00 00 00 00 00 00 00 00 00 00 00 00 00 00 00 00 ................
0040C350 00 00 00 00 00 00 00 00 00 00 00 00 00 00 00 00 ................
0040C360 00 00 00 00 00 00 00 00 00 00 00 00 00 00 00 00 ................
0040C370 00 00 00 00 00 00 00 00 00 00 00 00 00 00 00 00 ................
0040C380 00 00 00 00 00 00 00 00 00 00 00 00 00 00 00 00 ................
0040C390 00 00 00 00 00 00 00 00 00 00 00 00 00 00 00 00 ................
0040C3A0 00 00 00 00 00 00 00 00 00 00 00 00 00 00 00 00 ................
0040C3B0 00 00 00 00 00 00 00 00 00 00 00 00 00 00 00 00 ................
0040C3C0 00 00 00 00 00 00 00 00 00 00 00 00 00 00 00 00 ................
0040C3D0 00 00 00 00 00 00 00 00 00 00 00 00 00 00 00 00 ................
0040C3E0 00 00 00 00 00 00 00 00 00 00 00 00 00 00 00 00 ................
0040C3F0 00 00 00 00 00 00 00 00 00 00 00 00 00 00 00 00 ................
0040C400 00 00 00 00 00 00 00 00 00 00 00 00 00 00 00 00 ................
0040C410 00 00 00 00 00 00 00 00 00 00 00 00 00 00 00 00 ................
0040C420 00 00 00 00 00 00 00 00 00 00 00 00 00 00 00 00 ................
0040C430 00 00 00 00 00 00 00 00 00 00 00 00 00 00 00 00 ................
0040C440 00 00 00 00 00 00 00 00 00 00 00 00 00 00 00 00 ................
0040C450 00 00 00 00 00 00 00 00 00 00 00 00 00 00 00 00 ................
0040C460 00 00 00 00 00 00 00 00 00 00 00 00 00 00 00 00 ................
0040C470 00 00 00 00 00 00 00 00 00 00 00 00 00 00 00 00 ................
0040C480 00 00 00 00 00 00 00 00 00 00 00 00 00 00 00 00 ................
0040C490 00 00 00 00 00 00 00 00 00 00 00 00 00 00 00 00 ................
0040C4A0 00 00 00 00 00 00 00 00 00 00 00 00 00 00 00 00 ................
0040C4B0 00 00 00 00 00 00 00 00 00 00 00 00 00 00 00 00 ................
0040C4C0 00 00 00 00 00 00 00 00 00 00 00 00 00 00 00 00 ................
0040C4D0 00 00 00 00 00 00 00 00 00 00 00 00 00 00 00 00 ................
0040C4E0 00 00 00 00 00 00 00 00 00 00 00 00 00 00 00 00 ................
0040C4F0 00 00 00 00 00 00 00 00 00 00 00 00 00 00 00 00 ................
0040C500 00 00 00 00 00 00 00 00 00 00 00 00 00 00 00 00 ................
0040C510 00 00 00 00 00 00 00 00 00 00 00 00 00 00 00 00 ................
0040C520 00 00 00 00 00 00 00 00 00 00 00 00 00 00 00 00 ................
0040C530 00 00 00 00 00 00 00 00 00 00 00 00 00 00 00 00 ................
0040C540 00 00 00 00 00 00 00 00 00 00 00 00 00 00 00 00 ................
0040C550 00 00 00 00 00 00 00 00 00 00 00 00 00 00 00 00 ................
0040C560 00 00 00 00 00 00 00 00 00 00 00 00 00 00 00 00 ................
0040C570 00 00 00 00 00 00 00 00 00 00 00 00 00 00 00 00 ................
0040C580 00 00 00 00 00 00 00 00 00 00 00 00 00 00 00 00 ................
0040C590 00 00 00 00 00 00 00 00 00 00 00 00 00 00 00 00 ................
0040C5A0 00 00 00 00 00 00 00 00 00 00 00 00 00 00 00 00 ................
0040C5B0 00 00 00 00 00 00 00 00 00 00 00 00 00 00 00 00 ................
0040C5C0 00 00 00 00 00 00 00 00 00 00 00 00 00 00 00 00 ................
0040C5D0 00 00 00 00 00 00 00 00 00 00 00 00 00 00 00 00 ................
0040C5E0 00 00 00 00 00 00 00 00 00 00 00 00 00 00 00 00 ................
0040C5F0 00 00 00 00 00 00 00 00 00 00 00 00 00 00 00 00 ................
0040C600 00 00 00 00 00 00 00 00 00 00 00 00 00 00 00 00 ................
0040C610 00 00 00 00 00 00 00 00 00 00 00 00 00 00 00 00 ................
0040C620 00 00 00 00 00 00 00 00 00 00 00 00 00 00 00 00 ................
0040C630 00 00 00 00 00 00 00 00 00 00 00 00 00 00 00 00 ................
0040C640 00 00 00 00 00 00 00 00 00 00 00 00 00 00 00 00 ................
0040C650 00 00 00 00 00 00 00 00 00 00 00 00 00 00 00 00 ................
0040C660 00 00 00 00 00 00 00 00 00 00 00 00 00 00 00 00 ................
0040C670 00 00 00 00 00 00 00 00 00 00 00 00 00 00 00 00 ................
0040C680 00 00 00 00 00 00 00 00 00 00 00 00 00 00 00 00 ................
0040C690 00 00 00 00 00 00 00 00 00 00 00 00 00 00 00 00 ................
0040C6A0 00 00 00 00 00 00 00 00 00 00 00 00 00 00 00 00 ................
0040C6B0 00 00 00 00 00 00 00 00 00 00 00 00 00 00 00 00 ................
0040C6C0 00 00 00 00 00 00 00 00 00 00 00 00 00 00 00 00 ................
0040C6D0 00 00 00 00 00 00 00 00 00 00 00 00 00 00 00 00 ................
0040C6E0 00 00 00 00 00 00 00 00 00 00 00 00 00 00 00 00 ................
0040C6F0 00 00 00 00 00 00 00 00 00 00 00 00 00 00 00 00 ................
0040C700 00 00 00 00 00 00 00 00 00 00 00 00 00 00 00 00 ................
0040C710 00 00 00 00 00 00 00 00 00 00 00 00 00 00 00 00 ................
0040C720 00 00 00 00 00 00 00 00 00 00 00 00 00 00 00 00 ................
0040C730 00 00 00 00 00 00 00 00 00 00 00 00 00 00 00 00 ................
0040C740 00 00 00 00 00 00 00 00 00 00 00 00 00 00 00 00 ................
0040C750 00 00 00 00 00 00 00 00 00 00 00 00 00 00 00 00 ................
0040C760 00 00 00 00 00 00 00 00 00 00 00 00 00 00 00 00 ................
0040C770 00 00 00 00 00 00 00 00 00 00 00 00 00 00 00 00 ................
0040C780 00 00 00 00 00 00 00 00 00 00 00 00 00 00 00 00 ................
0040C790 00 00 00 00 00 00 00 00 00 00 00 00 00 00 00 00 ................
0040C7A0 00 00 00 00 00 00 00 00 00 00 00 00 00 00 00 00 ................
0040C7B0 00 00 00 00 00 00 00 00 00 00 00 00 00 00 00 00 ................
0040C7C0 00 00 00 00 00 00 00 00 00 00 00 00 00 00 00 00 ................
0040C7D0 00 00 00 00 00 00 00 00 00 00 00 00 00 00 00 00 ................
0040C7E0 00 00 00 00 00 00 00 00 00 00 00 00 00 00 00 00 ................
0040C7F0 00 00 00 00 00 00 00 00 00 00 00 00 00 00 00 00 ................
0040C800 00 00 00 00 00 00 00 00 00 00 00 00 00 00 00 00 ................
0040C810 00 00 00 00 00 00 00 00 00 00 00 00 00 00 00 00 ................
0040C820 00 00 00 00 00 00 00 00 00 00 00 00 00 00 00 00 ................
0040C830 00 00 00 00 00 00 00 00 00 00 00 00 00 00 00 00 ................
0040C840 00 00 00 00 00 00 00 00 00 00 00 00 00 00 00 00 ................
0040C850 00 00 00 00 00 00 00 00 00 00 00 00 00 00 00 00 ................
0040C860 00 00 00 00 00 00 00 00 00 00 00 00 00 00 00 00 ................
0040C870 00 00 00 00 00 00 00 00 00 00 00 00 00 00 00 00 ................
0040C880 00 00 00 00 00 00 00 00 00 00 00 00 00 00 00 00 ................
0040C890 00 00 00 00 00 00 00 00 00 00 00 00 00 00 00 00 ................
0040C8A0 00 00 00 00 00 00 00 00 00 00 00 00 00 00 00 00 ................
0040C8B0 00 00 00 00 00 00 00 00 00 00 00 00 00 00 00 00 ................
0040C8C0 00 00 00 00 00 00 00 00 00 00 00 00 00 00 00 00 ................
0040C8D0 00 00 00 00 00 00 00 00 00 00 00 00 00 00 00 00 ................
0040C8E0 00 00 00 00 00 00 00 00 00 00 00 00 00 00 00 00 ................
0040C8F0 00 00 00 00 00 00 00 00 00 00 00 00 00 00 00 00 ................
0040C900 00 00 00 00 00 00 00 00 00 00 00 00 00 00 00 00 ................
0040C910 00 00 00 00 00 00 00 00 00 00 00 00 00 00 00 00 ................
0040C920 00 00 00 00 00 00 00 00 00 00 00 00 00 00 00 00 ................
0040C930 00 00 00 00 00 00 00 00 00 00 00 00 00 00 00 00 ................
0040C940 00 00 00 00 00 00 00 00 00 00 00 00 00 00 00 00 ................
0040C950 00 00 00 00 00 00 00 00 00 00 00 00 00 00 00 00 ................
0040C960 00 00 00 00 00 00 00 00 00 00 00 00 00 00 00 00 ................
0040C970 00 00 00 00 00 00 00 00 00 00 00 00 00 00 00 00 ................
0040C980 00 00 00 00 00 00 00 00 00 00 00 00 00 00 00 00 ................
0040C990 00 00 00 00 00 00 00 00 00 00 00 00 00 00 00 00 ................
0040C9A0 00 00 00 00 00 00 00 00 00 00 00 00 00 00 00 00 ................
0040C9B0 00 00 00 00 00 00 00 00 00 00 00 00 00 00 00 00 ................
0040C9C0 00 00 00 00 00 00 00 00 00 00 00 00 00 00 00 00 ................
0040C9D0 00 00 00 00 00 00 00 00 00 00 00 00 00 00 00 00 ................
0040C9E0 00 00 00 00 00 00 00 00 00 00 00 00 00 00 00 00 ................
0040C9F0 00 00 00 00 00 00 00 00 00 00 00 00 00 00 00 00 ................
0040CA00 00 00 00 00 00 00 00 00 00 00 00 00 00 00 00 00 ................
0040CA10 00 00 00 00 00 00 00 00 00 00 00 00 00 00 00 00 ................
0040CA20 00 00 00 00 00 00 00 00 00 00 00 00 00 00 00 00 ................
0040CA30 00 00 00 00 00 00 00 00 00 00 00 00 00 00 00 00 ................
0040CA40 00 00 00 00 00 00 00 00 00 00 00 00 00 00 00 00 ................
0040CA50 00 00 00 00 00 00 00 00 00 00 00 00 00 00 00 00 ................
0040CA60 00 00 00 00 00 00 00 00 00 00 00 00 00 00 00 00 ................
0040CA70 00 00 00 00 00 00 00 00 00 00 00 00 00 00 00 00 ................
0040CA80 00 00 00 00 00 00 00 00 00 00 00 00 00 00 00 00 ................
0040CA90 00 00 00 00 00 00 00 00 00 00 00 00 00 00 00 00 ................
0040CAA0 00 00 00 00 00 00 00 00 00 00 00 00 00 00 00 00 ................
0040CAB0 00 00 00 00 00 00 00 00 00 00 00 00 00 00 00 00 ................
0040CAC0 00 00 00 00 00 00 00 00 00 00 00 00 00 00 00 00 ................
0040CAD0 00 00 00 00 00 00 00 00 00 00 00 00 00 00 00 00 ................
0040CAE0 00 00 00 00 00 00 00 00 00 00 00 00 00 00 00 00 ................
0040CAF0 00 00 00 00 00 00 00 00 00 00 00 00 00 00 00 00 ................
0040CB00 00 00 00 00 00 00 00 00 00 00 00 00 00 00 00 00 ................
0040CB10 00 00 00 00 00 00 00 00 00 00 00 00 00 00 00 00 ................
0040CB20 00 00 00 00 00 00 00 00 00 00 00 00 00 00 00 00 ................
0040CB30 00 00 00 00 00 00 00 00 00 00 00 00 00 00 00 00 ................
0040CB40 00 00 00 00 00 00 00 00 00 00 00 00 00 00 00 00 ................
0040CB50 00 00 00 00 00 00 00 00 00 00 00 00 00 00 00 00 ................
0040CB60 00 00 00 00 00 00 00 00 00 00 00 00 00 00 00 00 ................
0040CB70 00 00 00 00 00 00 00 00 00 00 00 00 00 00 00 00 ................
0040CB80 00 00 00 00 00 00 00 00 00 00 00 00 00 00 00 00 ................
0040CB90 00 00 00 00 00 00 00 00 00 00 00 00 00 00 00 00 ................
0040CBA0 00 00 00 00 00 00 00 00 00 00 00 00 00 00 00 00 ................
0040CBB0 00 00 00 00 00 00 00 00 00 00 00 00 00 00 00 00 ................
0040CBC0 00 00 00 00 00 00 00 00 00 00 00 00 00 00 00 00 ................
0040CBD0 00 00 00 00 00 00 00 00 00 00 00 00 00 00 00 00 ................
0040CBE0 00 00 00 00 00 00 00 00 00 00 00 00 00 00 00 00 ................
0040CBF0 00 00 00 00 00 00 00 00 00 00 00 00 00 00 00 00 ................
0040CC00 00 00 00 00 00 00 00 00 00 00 00 00 00 00 00 00 ................
0040CC10 00 00 00 00 00 00 00 00 00 00 00 00 00 00 00 00 ................
0040CC20 00 00 00 00 00 00 00 00 00 00 00 00 00 00 00 00 ................
0040CC30 00 00 00 00 00 00 00 00 00 00 00 00 00 00 00 00 ................
0040CC40 00 00 00 00 00 00 00 00 00 00 00 00 00 00 00 00 ................
0040CC50 00 00 00 00 00 00 00 00 00 00 00 00 00 00 00 00 ................
0040CC60 00 00 00 00 00 00 00 00 00 00 00 00 00 00 00 00 ................
0040CC70 00 00 00 00 00 00 00 00 00 00 00 00 00 00 00 00 ................
0040CC80 00 00 00 00 00 00 00 00 00 00 00 00 00 00 00 00 ................
0040CC90 00 00 00 00 00 00 00 00 00 00 00 00 00 00 00 00 ................
0040CCA0 00 00 00 00 00 00 00 00 00 00 00 00 00 00 00 00 ................
0040CCB0 00 00 00 00 00 00 00 00 00 00 00 00 00 00 00 00 ................
0040CCC0 00 00 00 00 00 00 00 00 00 00 00 00 00 00 00 00 ................
0040CCD0 00 00 00 00 00 00 00 00 00 00 00 00 00 00 00 00 ................
0040CCE0 00 00 00 00 00 00 00 00 00 00 00 00 00 00 00 00 ................
0040CCF0 00 00 00 00 00 00 00 00 00 00 00 00 00 00 00 00 ................
0040CD00 00 00 00 00 00 00 00 00 00 00 00 00 00 00 00 00 ................
0040CD10 00 00 00 00 00 00 00 00 00 00 00 00 00 00 00 00 ................
0040CD20 00 00 00 00 00 00 00 00 00 00 00 00 00 00 00 00 ................
0040CD30 00 00 00 00 00 00 00 00 00 00 00 00 00 00 00 00 ................
0040CD40 00 00 00 00 00 00 00 00 00 00 00 00 00 00 00 00 ................
0040CD50 00 00 00 00 00 00 00 00 00 00 00 00 00 00 00 00 ................
0040CD60 00 00 00 00 00 00 00 00 00 00 00 00 00 00 00 00 ................
0040CD70 00 00 00 00 00 00 00 00 00 00 00 00 00 00 00 00 ................
0040CD80 00 00 00 00 00 00 00 00 00 00 00 00 00 00 00 00 ................
0040CD90 00 00 00 00 00 00 00 00 00 00 00 00 00 00 00 00 ................
0040CDA0 00 00 00 00 00 00 00 00 00 00 00 00 00 00 00 00 ................
0040CDB0 00 00 00 00 00 00 00 00 00 00 00 00 00 00 00 00 ................
0040CDC0 00 00 00 00 00 00 00 00 00 00 00 00 00 00 00 00 ................
0040CDD0 00 00 00 00 00 00 00 00 00 00 00 00 00 00 00 00 ................
0040CDE0 00 00 00 00 00 00 00 00 00 00 00 00 00 00 00 00 ................
0040CDF0 00 00 00 00 00 00 00 00 00 00 00 00 00 00 00 00 ................
0040CE00 00 00 00 00 00 00 00 00 00 00 00 00 00 00 00 00 ................
0040CE10 00 00 00 00 00 00 00 00 00 00 00 00 00 00 00 00 ................
0040CE20 00 00 00 00 00 00 00 00 00 00 00 00 00 00 00 00 ................
0040CE30 00 00 00 00 00 00 00 00 00 00 00 00 00 00 00 00 ................
0040CE40 00 00 00 00 00 00 00 00 00 00 00 00 00 00 00 00 ................
0040CE50 00 00 00 00 00 00 00 00 00 00 00 00 00 00 00 00 ................
0040CE60 00 00 00 00 00 00 00 00 00 00 00 00 00 00 00 00 ................
0040CE70 00 00 00 00 00 00 00 00 00 00 00 00 00 00 00 00 ................
0040CE80 00 00 00 00 00 00 00 00 00 00 00 00 00 00 00 00 ................
0040CE90 00 00 00 00 00 00 00 00 00 00 00 00 00 00 00 00 ................
0040CEA0 00 00 00 00 00 00 00 00 00 00 00 00 00 00 00 00 ................
0040CEB0 00 00 00 00 00 00 00 00 00 00 00 00 00 00 00 00 ................
0040CEC0 00 00 00 00 00 00 00 00 00 00 00 00 00 00 00 00 ................
0040CED0 00 00 00 00 00 00 00 00 00 00 00 00 00 00 00 00 ................
0040CEE0 00 00 00 00 00 00 00 00 00 00 00 00 00 00 00 00 ................
0040CEF0 00 00 00 00 00 00 00 00 00 00 00 00 00 00 00 00 ................
0040CF00 00 00 00 00 00 00 00 00 00 00 00 00 00 00 00 00 ................
0040CF10 00 00 00 00 00 00 00 00 00 00 00 00 00 00 00 00 ................
0040CF20 00 00 00 00 00 00 00 00 00 00 00 00 00 00 00 00 ................
0040CF30 00 00 00 00 00 00 00 00 00 00 00 00 00 00 00 00 ................
0040CF40 00 00 00 00 00 00 00 00 00 00 00 00 00 00 00 00 ................
0040CF50 00 00 00 00 00 00 00 00 00 00 00 00 00 00 00 00 ................
0040CF60 00 00 00 00 00 00 00 00 00 00 00 00 00 00 00 00 ................
0040CF70 00 00 00 00 00 00 00 00 00 00 00 00 00 00 00 00 ................
0040CF80 00 00 00 00 00 00 00 00 00 00 00 00 00 00 00 00 ................
0040CF90 00 00 00 00 00 00 00 00 00 00 00 00 00 00 00 00 ................
0040CFA0 00 00 00 00 00 00 00 00 00 00 00 00 00 00 00 00 ................
0040CFB0 00 00 00 00 00 00 00 00 00 00 00 00 00 00 00 00 ................
0040CFC0 00 00 00 00 00 00 00 00 00 00 00 00 00 00 00 00 ................
0040CFD0 00 00 00 00 00 00 00 00 00 00 00 00 00 00 00 00 ................
0040CFE0 00 00 00 00 00 00 00 00 00 00 00 00 00 00 00 00 ................
0040CFF0 00 00 00 00 00 00 00 00 00 00 00 00 00 00 00 00 ................
0040D000 00 00 00 00 00 00 00 00 00 00 00 00 00 00 00 00 ................
0040D010 00 00 00 00 00 00 00 00 00 00 00 00 00 00 00 00 ................
0040D020 00 00 00 00 00 00 00 00 00 00 00 00 00 00 00 00 ................
0040D030 00 00 00 00 00 00 00 00 00 00 00 00 00 00 00 00 ................
0040D040 00 00 00 00 00 00 00 00 00 00 00 00 00 00 00 00 ................
0040D050 00 00 00 00 00 00 00 00 00 00 00 00 00 00 00 00 ................
0040D060 00 00 00 00 00 00 00 00 00 00 00 00 00 00 00 00 ................
0040D070 00 00 00 00 00 00 00 00 00 00 00 00 00 00 00 00 ................
0040D080 00 00 00 00 00 00 00 00 00 00 00 00 00 00 00 00 ................
0040D090 00 00 00 00 00 00 00 00 00 00 00 00 00 00 00 00 ................
0040D0A0 00 00 00 00 00 00 00 00 00 00 00 00 00 00 00 00 ................
0040D0B0 00 00 00 00 00 00 00 00 00 00 00 00 00 00 00 00 ................
0040D0C0 00 00 00 00 00 00 00 00 00 00 00 00 00 00 00 00 ................
0040D0D0 00 00 00 00 00 00 00 00 00 00 00 00 00 00 00 00 ................
0040D0E0 00 00 00 00 00 00 00 00 00 00 00 00 00 00 00 00 ................
0040D0F0 00 00 00 00 00 00 00 00 00 00 00 00 00 00 00 00 ................
0040D100 00 00 00 00 00 00 00 00 00 00 00 00 00 00 00 00 ................
0040D110 00 00 00 00 00 00 00 00 00 00 00 00 00 00 00 00 ................
0040D120 00 00 00 00 00 00 00 00 00 00 00 00 00 00 00 00 ................
0040D130 00 00 00 00 00 00 00 00 00 00 00 00 00 00 00 00 ................
0040D140 00 00 00 00 00 00 00 00 00 00 00 00 00 00 00 00 ................
0040D150 00 00 00 00 00 00 00 00 00 00 00 00 00 00 00 00 ................
0040D160 00 00 00 00 00 00 00 00 00 00 00 00 00 00 00 00 ................
0040D170 00 00 00 00 00 00 00 00 00 00 00 00 00 00 00 00 ................
0040D180 00 00 00 00 00 00 00 00 00 00 00 00 00 00 00 00 ................
0040D190 00 00 00 00 00 00 00 00 00 00 00 00 00 00 00 00 ................
0040D1A0 00 00 00 00 00 00 00 00 00 00 00 00 00 00 00 00 ................
0040D1B0 00 00 00 00 00 00 00 00 00 00 00 00 00 00 00 00 ................
0040D1C0 00 00 00 00 00 00 00 00 00 00 00 00 00 00 00 00 ................
0040D1D0 00 00 00 00 00 00 00 00 00 00 00 00 00 00 00 00 ................
0040D1E0 00 00 00 00 00 00 00 00 00 00 00 00 00 00 00 00 ................
0040D1F0 00 00 00 00 00 00 00 00 00 00 00 00 00 00 00 00 ................
0040D200 00 00 00 00 00 00 00 00 00 00 00 00 00 00 00 00 ................
0040D210 00 00 00 00 00 00 00 00 00 00 00 00 00 00 00 00 ................
0040D220 00 00 00 00 00 00 00 00 00 00 00 00 00 00 00 00 ................
0040D230 00 00 00 00 00 00 00 00 00 00 00 00 00 00 00 00 ................
0040D240 00 00 00 00 00 00 00 00 00 00 00 00 00 00 00 00 ................
0040D250 00 00 00 00 00 00 00 00 00 00 00 00 00 00 00 00 ................
0040D260 00 00 00 00 00 00 00 00 00 00 00 00 00 00 00 00 ................
0040D270 00 00 00 00 00 00 00 00 00 00 00 00 00 00 00 00 ................
0040D280 00 00 00 00 00 00 00 00 00 00 00 00 00 00 00 00 ................
0040D290 00 00 00 00 00 00 00 00 00 00 00 00 00 00 00 00 ................
0040D2A0 00 00 00 00 00 00 00 00 00 00 00 00 00 00 00 00 ................
0040D2B0 00 00 00 00 00 00 00 00 00 00 00 00 00 00 00 00 ................
0040D2C0 00 00 00 00 00 00 00 00 00 00 00 00 00 00 00 00 ................
0040D2D0 00 00 00 00 00 00 00 00 00 00 00 00 00 00 00 00 ................
0040D2E0 00 00 00 00 00 00 00 00 00 00 00 00 00 00 00 00 ................
0040D2F0 00 00 00 00 00 00 00 00 00 00 00 00 00 00 00 00 ................
0040D300 00 00 00 00 00 00 00 00 00 00 00 00 00 00 00 00 ................
0040D310 00 00 00 00 00 00 00 00 00 00 00 00 00 00 00 00 ................
0040D320 00 00 00 00 00 00 00 00 00 00 00 00 00 00 00 00 ................
0040D330 00 00 00 00 00 00 00 00 00 00 00 00 00 00 00 00 ................
0040D340 00 00 00 00 00 00 00 00 00 00 00 00 00 00 00 00 ................
0040D350 00 00 00 00 00 00 00 00 00 00 00 00 00 00 00 00 ................
0040D360 00 00 00 00 00 00 00 00 00 00 00 00 00 00 00 00 ................
0040D370 00 00 00 00 00 00 00 00 00 00 00 00 00 00 00 00 ................
0040D380 00 00 00 00 00 00 00 00 00 00 00 00 00 00 00 00 ................
0040D390 00 00 00 00 00 00 00 00 00 00 00 00 00 00 00 00 ................
0040D3A0 00 00 00 00 00 00 00 00 00 00 00 00 00 00 00 00 ................
0040D3B0 00 00 00 00 00 00 00 00 00 00 00 00 00 00 00 00 ................
0040D3C0 00 00 00 00 00 00 00 00 00 00 00 00 00 00 00 00 ................
0040D3D0 00 00 00 00 00 00 00 00 00 00 00 00 00 00 00 00 ................
0040D3E0 00 00 00 00 00 00 00 00 00 00 00 00 00 00 00 00 ................
0040D3F0 00 00 00 00 00 00 00 00 00 00 00 00 00 00 00 00 ................
0040D400 00 00 00 00 00 00 00 00 00 00 00 00 00 00 00 00 ................
0040D410 00 00 00 00 00 00 00 00 00 00 00 00 00 00 00 00 ................
0040D420 00 00 00 00 00 00 00 00 00 00 00 00 00 00 00 00 ................
0040D430 00 00 00 00 00 00 00 00 00 00 00 00 00 00 00 00 ................
0040D440 00 00 00 00 00 00 00 00 00 00 00 00 00 00 00 00 ................
0040D450 00 00 00 00 00 00 00 00 00 00 00 00 00 00 00 00 ................
0040D460 00 00 00 00 00 00 00 00 00 00 00 00 00 00 00 00 ................
0040D470 00 00 00 00 00 00 00 00 00 00 00 00 00 00 00 00 ................
0040D480 00 00 00 00 00 00 00 00 00 00 00 00 00 00 00 00 ................
0040D490 00 00 00 00 00 00 00 00 00 00 00 00 00 00 00 00 ................
0040D4A0 00 00 00 00 00 00 00 00 00 00 00 00 00 00 00 00 ................
0040D4B0 00 00 00 00 00 00 00 00 00 00 00 00 00 00 00 00 ................
0040D4C0 00 00 00 00 00 00 00 00 00 00 00 00 00 00 00 00 ................
0040D4D0 00 00 00 00 00 00 00 00 00 00 00 00 00 00 00 00 ................
0040D4E0 00 00 00 00 00 00 00 00 00 00 00 00 00 00 00 00 ................
0040D4F0 00 00 00 00 00 00 00 00 00 00 00 00 00 00 00 00 ................
0040D500 00 00 00 00 00 00 00 00 00 00 00 00 00 00 00 00 ................
0040D510 00 00 00 00 00 00 00 00 00 00 00 00 00 00 00 00 ................
0040D520 00 00 00 00 00 00 00 00 00 00 00 00 00 00 00 00 ................
0040D530 00 00 00 00 00 00 00 00 00 00 00 00 00 00 00 00 ................
0040D540 00 00 00 00 00 00 00 00 00 00 00 00 00 00 00 00 ................
0040D550 00 00 00 00 00 00 00 00 00 00 00 00 00 00 00 00 ................
0040D560 00 00 00 00 00 00 00 00 00 00 00 00 00 00 00 00 ................
0040D570 00 00 00 00 00 00 00 00 00 00 00 00 00 00 00 00 ................
0040D580 00 00 00 00 00 00 00 00 00 00 00 00 00 00 00 00 ................
0040D590 00 00 00 00 00 00 00 00 00 00 00 00 00 00 00 00 ................
0040D5A0 00 00 00 00 00 00 00 00 00 00 00 00 00 00 00 00 ................
0040D5B0 00 00 00 00 00 00 00 00 00 00 00 00 00 00 00 00 ................
0040D5C0 00 00 00 00 00 00 00 00 00 00 00 00 00 00 00 00 ................
0040D5D0 00 00 00 00 00 00 00 00 00 00 00 00 00 00 00 00 ................
0040D5E0 00 00 00 00 00 00 00 00 00 00 00 00 00 00 00 00 ................
0040D5F0 00 00 00 00 00 00 00 00 00 00 00 00 00 00 00 00 ................
0040D600 00 00 00 00 00 00 00 00 00 00 00 00 00 00 00 00 ................
0040D610 00 00 00 00 00 00 00 00 00 00 00 00 00 00 00 00 ................
0040D620 00 00 00 00 00 00 00 00 00 00 00 00 00 00 00 00 ................
0040D630 00 00 00 00 00 00 00 00 00 00 00 00 00 00 00 00 ................
0040D640 00 00 00 00 00 00 00 00 00 00 00 00 00 00 00 00 ................
0040D650 00 00 00 00 00 00 00 00 00 00 00 00 00 00 00 00 ................
0040D660 00 00 00 00 00 00 00 00 00 00 00 00 00 00 00 00 ................
0040D670 00 00 00 00 00 00 00 00 00 00 00 00 00 00 00 00 ................
0040D680 00 00 00 00 00 00 00 00 00 00 00 00 00 00 00 00 ................
0040D690 00 00 00 00 00 00 00 00 00 00 00 00 00 00 00 00 ................
0040D6A0 00 00 00 00 00 00 00 00 00 00 00 00 00 00 00 00 ................
0040D6B0 00 00 00 00 00 00 00 00 00 00 00 00 00 00 00 00 ................
0040D6C0 00 00 00 00 00 00 00 00 00 00 00 00 00 00 00 00 ................
0040D6D0 00 00 00 00 00 00 00 00 00 00 00 00 00 00 00 00 ................
0040D6E0 00 00 00 00 00 00 00 00 00 00 00 00 00 00 00 00 ................
0040D6F0 00 00 00 00 00 00 00 00 00 00 00 00 00 00 00 00 ................
0040D700 00 00 00 00 00 00 00 00 00 00 00 00 00 00 00 00 ................
0040D710 00 00 00 00 00 00 00 00 00 00 00 00 00 00 00 00 ................
0040D720 00 00 00 00 00 00 00 00 00 00 00 00 00 00 00 00 ................
0040D730 00 00 00 00 00 00 00 00 00 00 00 00 00 00 00 00 ................
0040D740 00 00 00 00 00 00 00 00 00 00 00 00 00 00 00 00 ................
0040D750 00 00 00 00 00 00 00 00 00 00 00 00 00 00 00 00 ................
0040D760 00 00 00 00 00 00 00 00 00 00 00 00 00 00 00 00 ................
0040D770 00 00 00 00 00 00 00 00 00 00 00 00 00 00 00 00 ................
0040D780 00 00 00 00 00 00 00 00 00 00 00 00 00 00 00 00 ................
0040D790 00 00 00 00 00 00 00 00 00 00 00 00 00 00 00 00 ................
0040D7A0 00 00 00 00 00 00 00 00 00 00 00 00 00 00 00 00 ................
0040D7B0 00 00 00 00 00 00 00 00 00 00 00 00 00 00 00 00 ................
0040D7C0 00 00 00 00 00 00 00 00 00 00 00 00 00 00 00 00 ................
0040D7D0 00 00 00 00 00 00 00 00 00 00 00 00 00 00 00 00 ................
0040D7E0 00 00 00 00 00 00 00 00 00 00 00 00 00 00 00 00 ................
0040D7F0 00 00 00 00 00 00 00 00 00 00 00 00 00 00 00 00 ................
0040D800 00 00 00 00 00 00 00 00 00 00 00 00 00 00 00 00 ................
0040D810 00 00 00 00 00 00 00 00 00 00 00 00 00 00 00 00 ................
0040D820 00 00 00 00 00 00 00 00 00 00 00 00 00 00 00 00 ................
0040D830 00 00 00 00 00 00 00 00 00 00 00 00 00 00 00 00 ................
0040D840 00 00 00 00 00 00 00 00 00 00 00 00 00 00 00 00 ................
0040D850 00 00 00 00 00 00 00 00 00 00 00 00 00 00 00 00 ................
0040D860 00 00 00 00 00 00 00 00 00 00 00 00 00 00 00 00 ................
0040D870 00 00 00 00 00 00 00 00 00 00 00 00 00 00 00 00 ................
0040D880 00 00 00 00 00 00 00 00 00 00 00 00 00 00 00 00 ................
0040D890 00 00 00 00 00 00 00 00 00 00 00 00 00 00 00 00 ................
0040D8A0 00 00 00 00 00 00 00 00 00 00 00 00 00 00 00 00 ................
0040D8B0 00 00 00 00 00 00 00 00 00 00 00 00 00 00 00 00 ................
0040D8C0 00 00 00 00 00 00 00 00 00 00 00 00 00 00 00 00 ................
0040D8D0 00 00 00 00 00 00 00 00 00 00 00 00 00 00 00 00 ................
0040D8E0 00 00 00 00 00 00 00 00 00 00 00 00 00 00 00 00 ................
0040D8F0 00 00 00 00 00 00 00 00 00 00 00 00 00 00 00 00 ................
0040D900 00 00 00 00 00 00 00 00 00 00 00 00 00 00 00 00 ................
0040D910 00 00 00 00 00 00 00 00 00 00 00 00 00 00 00 00 ................
0040D920 00 00 00 00 00 00 00 00 00 00 00 00 00 00 00 00 ................
0040D930 00 00 00 00 00 00 00 00 00 00 00 00 00 00 00 00 ................
0040D940 00 00 00 00 00 00 00 00 00 00 00 00 00 00 00 00 ................
0040D950 00 00 00 00 00 00 00 00 00 00 00 00 00 00 00 00 ................
0040D960 00 00 00 00 00 00 00 00 00 00 00 00 00 00 00 00 ................
0040D970 00 00 00 00 00 00 00 00 00 00 00 00 00 00 00 00 ................
0040D980 00 00 00 00 00 00 00 00 00 00 00 00 00 00 00 00 ................
0040D990 00 00 00 00 00 00 00 00 00 00 00 00 00 00 00 00 ................
0040D9A0 00 00 00 00 00 00 00 00 00 00 00 00 00 00 00 00 ................
0040D9B0 00 00 00 00 00 00 00 00 00 00 00 00 00 00 00 00 ................
0040D9C0 00 00 00 00 00 00 00 00 00 00 00 00 00 00 00 00 ................
0040D9D0 00 00 00 00 00 00 00 00 00 00 00 00 00 00 00 00 ................
0040D9E0 00 00 00 00 00 00 00 00 00 00 00 00 00 00 00 00 ................
0040D9F0 00 00 00 00 00 00 00 00 00 00 00 00 00 00 00 00 ................
0040DA00 00 00 00 00 00 00 00 00 00 00 00 00 00 00 00 00 ................
0040DA10 00 00 00 00 00 00 00 00 00 00 00 00 00 00 00 00 ................
0040DA20 00 00 00 00 00 00 00 00 00 00 00 00 00 00 00 00 ................
0040DA30 00 00 00 00 00 00 00 00 00 00 00 00 00 00 00 00 ................
0040DA40 00 00 00 00 00 00 00 00 00 00 00 00 00 00 00 00 ................
0040DA50 00 00 00 00 00 00 00 00 00 00 00 00 00 00 00 00 ................
0040DA60 00 00 00 00 00 00 00 00 00 00 00 00 00 00 00 00 ................
0040DA70 00 00 00 00 00 00 00 00 00 00 00 00 00 00 00 00 ................
0040DA80 00 00 00 00 00 00 00 00 00 00 00 00 00 00 00 00 ................
0040DA90 00 00 00 00 00 00 00 00 00 00 00 00 00 00 00 00 ................
0040DAA0 00 00 00 00 00 00 00 00 00 00 00 00 00 00 00 00 ................
0040DAB0 00 00 00 00 00 00 00 00 00 00 00 00 00 00 00 00 ................
0040DAC0 00 00 00 00 00 00 00 00 00 00 00 00 00 00 00 00 ................
0040DAD0 00 00 00 00 00 00 00 00 00 00 00 00 00 00 00 00 ................
0040DAE0 00 00 00 00 00 00 00 00 00 00 00 00 00 00 00 00 ................
0040DAF0 00 00 00 00 00 00 00 00 00 00 00 00 00 00 00 00 ................
0040DB00 00 00 00 00 00 00 00 00 00 00 00 00 00 00 00 00 ................
0040DB10 00 00 00 00 00 00 00 00 00 00 00 00 00 00 00 00 ................
0040DB20 00 00 00 00 00 00 00 00 00 00 00 00 00 00 00 00 ................
0040DB30 00 00 00 00 00 00 00 00 00 00 00 00 00 00 00 00 ................
0040DB40 00 00 00 00 00 00 00 00 00 00 00 00 00 00 00 00 ................
0040DB50 00 00 00 00 00 00 00 00 00 00 00 00 00 00 00 00 ................
0040DB60 00 00 00 00 00 00 00 00 00 00 00 00 00 00 00 00 ................
0040DB70 00 00 00 00 00 00 00 00 00 00 00 00 00 00 00 00 ................
0040DB80 00 00 00 00 00 00 00 00 00 00 00 00 00 00 00 00 ................
0040DB90 00 00 00 00 00 00 00 00 00 00 00 00 00 00 00 00 ................
0040DBA0 00 00 00 00 00 00 00 00 00 00 00 00 00 00 00 00 ................
0040DBB0 00 00 00 00 00 00 00 00 00 00 00 00 00 00 00 00 ................
0040DBC0 00 00 00 00 00 00 00 00 00 00 00 00 00 00 00 00 ................
0040DBD0 00 00 00 00 00 00 00 00 00 00 00 00 00 00 00 00 ................
0040DBE0 00 00 00 00 00 00 00 00 00 00 00 00 00 00 00 00 ................
0040DBF0 00 00 00 00 00 00 00 00 00 00 00 00 00 00 00 00 ................
0040DC00 00 00 00 00 00 00 00 00 00 00 00 00 00 00 00 00 ................
0040DC10 00 00 00 00 00 00 00 00 00 00 00 00 00 00 00 00 ................
0040DC20 00 00 00 00 00 00 00 00 00 00 00 00 00 00 00 00 ................
0040DC30 00 00 00 00 00 00 00 00 00 00 00 00 00 00 00 00 ................
0040DC40 00 00 00 00 00 00 00 00 00 00 00 00 00 00 00 00 ................
0040DC50 00 00 00 00 00 00 00 00 00 00 00 00 00 00 00 00 ................
0040DC60 00 00 00 00 00 00 00 00 00 00 00 00 00 00 00 00 ................
0040DC70 00 00 00 00 00 00 00 00 00 00 00 00 00 00 00 00 ................
0040DC80 00 00 00 00 00 00 00 00 00 00 00 00 00 00 00 00 ................
0040DC90 00 00 00 00 00 00 00 00 00 00 00 00 00 00 00 00 ................
0040DCA0 00 00 00 00 00 00 00 00 00 00 00 00 00 00 00 00 ................
0040DCB0 00 00 00 00 00 00 00 00 00 00 00 00 00 00 00 00 ................
0040DCC0 00 00 00 00 00 00 00 00 00 00 00 00 00 00 00 00 ................
0040DCD0 00 00 00 00 00 00 00 00 00 00 00 00 00 00 00 00 ................
0040DCE0 00 00 00 00 00 00 00 00 00 00 00 00 00 00 00 00 ................
0040DCF0 00 00 00 00 00 00 00 00 00 00 00 00 00 00 00 00 ................
0040DD00 00 00 00 00 00 00 00 00 00 00 00 00 00 00 00 00 ................
0040DD10 00 00 00 00 00 00 00 00 00 00 00 00 00 00 00 00 ................
0040DD20 00 00 00 00 00 00 00 00 00 00 00 00 00 00 00 00 ................
0040DD30 00 00 00 00 00 00 00 00 00 00 00 00 00 00 00 00 ................
0040DD40 00 00 00 00 00 00 00 00 00 00 00 00 00 00 00 00 ................
0040DD50 00 00 00 00 00 00 00 00 00 00 00 00 00 00 00 00 ................
0040DD60 00 00 00 00 00 00 00 00 00 00 00 00 00 00 00 00 ................
0040DD70 00 00 00 00 00 00 00 00 00 00 00 00 00 00 00 00 ................
0040DD80 00 00 00 00 00 00 00 00 00 00 00 00 00 00 00 00 ................
0040DD90 00 00 00 00 00 00 00 00 00 00 00 00 00 00 00 00 ................
0040DDA0 00 00 00 00 00 00 00 00 00 00 00 00 00 00 00 00 ................
0040DDB0 00 00 00 00 00 00 00 00 00 00 00 00 00 00 00 00 ................
0040DDC0 00 00 00 00 00 00 00 00 00 00 00 00 00 00 00 00 ................
0040DDD0 00 00 00 00 00 00 00 00 00 00 00 00 00 00 00 00 ................
0040DDE0 00 00 00 00 00 00 00 00 00 00 00 00 00 00 00 00 ................
0040DDF0 00 00 00 00 00 00 00 00 00 00 00 00 00 00 00 00 ................
0040DE00 00 00 00 00 00 00 00 00 00 00 00 00 00 00 00 00 ................
0040DE10 00 00 00 00 00 00 00 00 00 00 00 00 00 00 00 00 ................
0040DE20 00 00 00 00 00 00 00 00 00 00 00 00 00 00 00 00 ................
0040DE30 00 00 00 00 00 00 00 00 00 00 00 00 00 00 00 00 ................
0040DE40 00 00 00 00 00 00 00 00 00 00 00 00 00 00 00 00 ................
0040DE50 00 00 00 00 00 00 00 00 00 00 00 00 00 00 00 00 ................
0040DE60 00 00 00 00 00 00 00 00 00 00 00 00 00 00 00 00 ................
0040DE70 00 00 00 00 00 00 00 00 00 00 00 00 00 00 00 00 ................
0040DE80 00 00 00 00 00 00 00 00 00 00 00 00 00 00 00 00 ................
0040DE90 00 00 00 00 00 00 00 00 00 00 00 00 00 00 00 00 ................
0040DEA0 00 00 00 00 00 00 00 00 00 00 00 00 00 00 00 00 ................
0040DEB0 00 00 00 00 00 00 00 00 00 00 00 00 00 00 00 00 ................
0040DEC0 00 00 00 00 00 00 00 00 00 00 00 00 00 00 00 00 ................
0040DED0 00 00 00 00 00 00 00 00 00 00 00 00 00 00 00 00 ................
0040DEE0 00 00 00 00 00 00 00 00 00 00 00 00 00 00 00 00 ................
0040DEF0 00 00 00 00 00 00 00 00 00 00 00 00 00 00 00 00 ................
0040DF00 00 00 00 00 00 00 00 00 00 00 00 00 00 00 00 00 ................
0040DF10 00 00 00 00 00 00 00 00 00 00 00 00 00 00 00 00 ................
0040DF20 00 00 00 00 00 00 00 00 00 00 00 00 00 00 00 00 ................
0040DF30 00 00 00 00 00 00 00 00 00 00 00 00 00 00 00 00 ................
0040DF40 00 00 00 00 00 00 00 00 00 00 00 00 00 00 00 00 ................
0040DF50 00 00 00 00 00 00 00 00 00 00 00 00 00 00 00 00 ................
0040DF60 00 00 00 00 00 00 00 00 00 00 00 00 00 00 00 00 ................
0040DF70 00 00 00 00 00 00 00 00 00 00 00 00 00 00 00 00 ................
0040DF80 00 00 00 00 00 00 00 00 00 00 00 00 00 00 00 00 ................
0040DF90 00 00 00 00 00 00 00 00 00 00 00 00 00 00 00 00 ................
0040DFA0 00 00 00 00 00 00 00 00 00 00 00 00 00 00 00 00 ................
0040DFB0 00 00 00 00 00 00 00 00 00 00 00 00 00 00 00 00 ................
0040DFC0 00 00 00 00 00 00 00 00 00 00 00 00 00 00 00 00 ................
0040DFD0 00 00 00 00 00 00 00 00 00 00 00 00 00 00 00 00 ................
0040DFE0 00 00 00 00 00 00 00 00 00 00 00 00 00 00 00 00 ................
0040DFF0 00 00 00 00 00 00 00 00 00 00 00 00 00 00 00 00 ................
0040E000 00 00 00 00 00 00 00 00 00 00 00 00 00 00 00 00 ................
0040E010 00 00 00 00 00 00 00 00 00 00 00 00 00 00 00 00 ................
0040E020 00 00 00 00 00 00 00 00 00 00 00 00 00 00 00 00 ................
0040E030 00 00 00 00 00 00 00 00 00 00 00 00 00 00 00 00 ................
0040E040 00 00 00 00 00 00 00 00 00 00 00 00 00 00 00 00 ................
0040E050 00 00 00 00 00 00 00 00 00 00 00 00 00 00 00 00 ................
0040E060 00 00 00 00 00 00 00 00 00 00 00 00 00 00 00 00 ................
0040E070 00 00 00 00 00 00 00 00 00 00 00 00 00 00 00 00 ................
0040E080 00 00 00 00 00 00 00 00 00 00 00 00 00 00 00 00 ................
0040E090 00 00 00 00 00 00 00 00 00 00 00 00 00 00 00 00 ................
0040E0A0 00 00 00 00 00 00 00 00 00 00 00 00 00 00 00 00 ................
0040E0B0 00 00 00 00 00 00 00 00 00 00 00 00 00 00 00 00 ................
0040E0C0 00 00 00 00 00 00 00 00 00 00 00 00 00 00 00 00 ................
0040E0D0 00 00 00 00 00 00 00 00 00 00 00 00 00 00 00 00 ................
0040E0E0 00 00 00 00 00 00 00 00 00 00 00 00 00 00 00 00 ................
0040E0F0 00 00 00 00 00 00 00 00 00 00 00 00 00 00 00 00 ................
0040E100 00 00 00 00 00 00 00 00 00 00 00 00 00 00 00 00 ................
0040E110 00 00 00 00 00 00 00 00 00 00 00 00 00 00 00 00 ................
0040E120 00 00 00 00 00 00 00 00 00 00 00 00 00 00 00 00 ................
0040E130 00 00 00 00 00 00 00 00 00 00 00 00 00 00 00 00 ................
0040E140 00 00 00 00 00 00 00 00 00 00 00 00 00 00 00 00 ................
0040E150 00 00 00 00 00 00 00 00 00 00 00 00 00 00 00 00 ................
0040E160 00 00 00 00 00 00 00 00 00 00 00 00 00 00 00 00 ................
0040E170 00 00 00 00 00 00 00 00 00 00 00 00 00 00 00 00 ................
0040E180 00 00 00 00 00 00 00 00 00 00 00 00 00 00 00 00 ................
0040E190 00 00 00 00 00 00 00 00 00 00 00 00 00 00 00 00 ................
0040E1A0 00 00 00 00 00 00 00 00 00 00 00 00 00 00 00 00 ................
0040E1B0 00 00 00 00 00 00 00 00 00 00 00 00 00 00 00 00 ................
0040E1C0 00 00 00 00 00 00 00 00 00 00 00 00 00 00 00 00 ................
0040E1D0 00 00 00 00 00 00 00 00 00 00 00 00 00 00 00 00 ................
0040E1E0 00 00 00 00 00 00 00 00 00 00 00 00 00 00 00 00 ................
0040E1F0 00 00 00 00 00 00 00 00 00 00 00 00 00 00 00 00 ................
0040E200 00 00 00 00 00 00 00 00 00 00 00 00 00 00 00 00 ................
0040E210 00 00 00 00 00 00 00 00 00 00 00 00 00 00 00 00 ................
0040E220 00 00 00 00 00 00 00 00 00 00 00 00 00 00 00 00 ................
0040E230 00 00 00 00 00 00 00 00 00 00 00 00 00 00 00 00 ................
0040E240 00 00 00 00 00 00 00 00 00 00 00 00 00 00 00 00 ................
0040E250 00 00 00 00 00 00 00 00 00 00 00 00 00 00 00 00 ................
0040E260 00 00 00 00 00 00 00 00 00 00 00 00 00 00 00 00 ................
0040E270 00 00 00 00 00 00 00 00 00 00 00 00 00 00 00 00 ................
0040E280 00 00 00 00 00 00 00 00 00 00 00 00 00 00 00 00 ................
0040E290 00 00 00 00 00 00 00 00 00 00 00 00 00 00 00 00 ................
0040E2A0 00 00 00 00 00 00 00 00 00 00 00 00 00 00 00 00 ................
0040E2B0 00 00 00 00 00 00 00 00 00 00 00 00 00 00 00 00 ................
0040E2C0 00 00 00 00 00 00 00 00 00 00 00 00 00 00 00 00 ................
0040E2D0 00 00 00 00 00 00 00 00 00 00 00 00 00 00 00 00 ................
0040E2E0 00 00 00 00 00 00 00 00 00 00 00 00 00 00 00 00 ................
0040E2F0 00 00 00 00 00 00 00 00 00 00 00 00 00 00 00 00 ................
0040E300 00 00 00 00 00 00 00 00 00 00 00 00 00 00 00 00 ................
0040E310 00 00 00 00 00 00 00 00 00 00 00 00 00 00 00 00 ................
0040E320 00 00 00 00 00 00 00 00 00 00 00 00 00 00 00 00 ................
0040E330 00 00 00 00 00 00 00 00 00 00 00 00 00 00 00 00 ................
0040E340 00 00 00 00 00 00 00 00 00 00 00 00 00 00 00 00 ................
0040E350 00 00 00 00 00 00 00 00 00 00 00 00 00 00 00 00 ................
0040E360 00 00 00 00 00 00 00 00 00 00 00 00 00 00 00 00 ................
0040E370 00 00 00 00 00 00 00 00 00 00 00 00 00 00 00 00 ................
0040E380 00 00 00 00 00 00 00 00 00 00 00 00 00 00 00 00 ................
0040E390 00 00 00 00 00 00 00 00 00 00 00 00 00 00 00 00 ................
0040E3A0 00 00 00 00 00 00 00 00 00 00 00 00 00 00 00 00 ................
0040E3B0 00 00 00 00 00 00 00 00 00 00 00 00 00 00 00 00 ................
0040E3C0 00 00 00 00 00 00 00 00 00 00 00 00 00 00 00 00 ................
0040E3D0 00 00 00 00 00 00 00 00 00 00 00 00 00 00 00 00 ................
0040E3E0 00 00 00 00 00 00 00 00 00 00 00 00 00 00 00 00 ................
0040E3F0 00 00 00 00 00 00 00 00 00 00 00 00 00 00 00 00 ................
0040E400 00 00 00 00 00 00 00 00 00 00 00 00 00 00 00 00 ................
0040E410 00 00 00 00 00 00 00 00 00 00 00 00 00 00 00 00 ................
0040E420 00 00 00 00 00 00 00 00 00 00 00 00 00 00 00 00 ................
0040E430 00 00 00 00 00 00 00 00 00 00 00 00 00 00 00 00 ................
0040E440 00 00 00 00 00 00 00 00 00 00 00 00 00 00 00 00 ................
0040E450 00 00 00 00 00 00 00 00 00 00 00 00 00 00 00 00 ................
0040E460 00 00 00 00 00 00 00 00 00 00 00 00 00 00 00 00 ................
0040E470 00 00 00 00 00 00 00 00 00 00 00 00 00 00 00 00 ................
0040E480 00 00 00 00 00 00 00 00 00 00 00 00 00 00 00 00 ................
0040E490 00 00 00 00 00 00 00 00 00 00 00 00 00 00 00 00 ................
0040E4A0 00 00 00 00 00 00 00 00 00 00 00 00 00 00 00 00 ................
0040E4B0 00 00 00 00 00 00 00 00 00 00 00 00 00 00 00 00 ................
0040E4C0 00 00 00 00 00 00 00 00 00 00 00 00 00 00 00 00 ................
0040E4D0 00 00 00 00 00 00 00 00 00 00 00 00 00 00 00 00 ................
0040E4E0 00 00 00 00 00 00 00 00 00 00 00 00 00 00 00 00 ................
0040E4F0 00 00 00 00 00 00 00 00 00 00 00 00 00 00 00 00 ................
0040E500 00 00 00 00 00 00 00 00 00 00 00 00 00 00 00 00 ................
0040E510 00 00 00 00 00 00 00 00 00 00 00 00 00 00 00 00 ................
0040E520 00 00 00 00 00 00 00 00 00 00 00 00 00 00 00 00 ................
0040E530 00 00 00 00 00 00 00 00 00 00 00 00 00 00 00 00 ................
0040E540 00 00 00 00 00 00 00 00 00 00 00 00 00 00 00 00 ................
0040E550 00 00 00 00 00 00 00 00 00 00 00 00 00 00 00 00 ................
0040E560 00 00 00 00 00 00 00 00 00 00 00 00 00 00 00 00 ................
0040E570 00 00 00 00 00 00 00 00 00 00 00 00 00 00 00 00 ................
0040E580 00 00 00 00 00 00 00 00 00 00 00 00 00 00 00 00 ................
0040E590 00 00 00 00 00 00 00 00 00 00 00 00 00 00 00 00 ................
0040E5A0 00 00 00 00 00 00 00 00 00 00 00 00 00 00 00 00 ................
0040E5B0 00 00 00 00 00 00 00 00 00 00 00 00 00 00 00 00 ................
0040E5C0 00 00 00 00 00 00 00 00 00 00 00 00 00 00 00 00 ................
0040E5D0 00 00 00 00 00 00 00 00 00 00 00 00 00 00 00 00 ................
0040E5E0 00 00 00 00 00 00 00 00 00 00 00 00 00 00 00 00 ................
0040E5F0 00 00 00 00 00 00 00 00 00 00 00 00 00 00 00 00 ................
0040E600 00 00 00 00 00 00 00 00 00 00 00 00 00 00 00 00 ................
0040E610 00 00 00 00 00 00 00 00 00 00 00 00 00 00 00 00 ................
0040E620 00 00 00 00 00 00 00 00 00 00 00 00 00 00 00 00 ................
0040E630 00 00 00 00 00 00 00 00 00 00 00 00 00 00 00 00 ................
0040E640 00 00 00 00 00 00 00 00 00 00 00 00 00 00 00 00 ................
0040E650 00 00 00 00 00 00 00 00 00 00 00 00 00 00 00 00 ................
0040E660 00 00 00 00 00 00 00 00 00 00 00 00 00 00 00 00 ................
0040E670 00 00 00 00 00 00 00 00 00 00 00 00 00 00 00 00 ................
0040E680 00 00 00 00 00 00 00 00 00 00 00 00 00 00 00 00 ................
0040E690 00 00 00 00 00 00 00 00 00 00 00 00 00 00 00 00 ................
0040E6A0 00 00 00 00 00 00 00 00 00 00 00 00 00 00 00 00 ................
0040E6B0 00 00 00 00 00 00 00 00 00 00 00 00 00 00 00 00 ................
0040E6C0 00 00 00 00 00 00 00 00 00 00 00 00 00 00 00 00 ................
0040E6D0 00 00 00 00 00 00 00 00 00 00 00 00 00 00 00 00 ................
0040E6E0 00 00 00 00 00 00 00 00 00 00 00 00 00 00 00 00 ................
0040E6F0 00 00 00 00 00 00 00 00 00 00 00 00 00 00 00 00 ................
0040E700 00 00 00 00 00 00 00 00 00 00 00 00 00 00 00 00 ................
0040E710 00 00 00 00 00 00 00 00 00 00 00 00 00 00 00 00 ................
0040E720 00 00 00 00 00 00 00 00 00 00 00 00 00 00 00 00 ................
0040E730 00 00 00 00 00 00 00 00 00 00 00 00 00 00 00 00 ................
0040E740 00 00 00 00 00 00 00 00 00 00 00 00 00 00 00 00 ................
0040E750 00 00 00 00 00 00 00 00 00 00 00 00 00 00 00 00 ................
0040E760 00 00 00 00 00 00 00 00 00 00 00 00 00 00 00 00 ................
0040E770 00 00 00 00 00 00 00 00 00 00 00 00 00 00 00 00 ................
0040E780 00 00 00 00 00 00 00 00 00 00 00 00 00 00 00 00 ................
0040E790 00 00 00 00 00 00 00 00 00 00 00 00 00 00 00 00 ................
0040E7A0 00 00 00 00 00 00 00 00 00 00 00 00 00 00 00 00 ................
0040E7B0 00 00 00 00 00 00 00 00 00 00 00 00 00 00 00 00 ................
0040E7C0 00 00 00 00 00 00 00 00 00 00 00 00 00 00 00 00 ................
0040E7D0 00 00 00 00 00 00 00 00 00 00 00 00 00 00 00 00 ................
0040E7E0 00 00 00 00 00 00 00 00 00 00 00 00 00 00 00 00 ................
0040E7F0 00 00 00 00 00 00 00 00 00 00 00 00 00 00 00 00 ................
0040E800 00 00 00 00 00 00 00 00 00 00 00 00 00 00 00 00 ................
0040E810 00 00 00 00 00 00 00 00 00 00 00 00 00 00 00 00 ................
0040E820 00 00 00 00 00 00 00 00 00 00 00 00 00 00 00 00 ................
0040E830 00 00 00 00 00 00 00 00 00 00 00 00 00 00 00 00 ................
0040E840 00 00 00 00 00 00 00 00 00 00 00 00 00 00 00 00 ................
0040E850 00 00 00 00 00 00 00 00 00 00 00 00 00 00 00 00 ................
0040E860 00 00 00 00 00 00 00 00 00 00 00 00 00 00 00 00 ................
0040E870 00 00 00 00 00 00 00 00 00 00 00 00 00 00 00 00 ................
0040E880 00 00 00 00 00 00 00 00 00 00 00 00 00 00 00 00 ................
0040E890 00 00 00 00 00 00 00 00 00 00 00 00 00 00 00 00 ................
0040E8A0 00 00 00 00 00 00 00 00 00 00 00 00 00 00 00 00 ................
0040E8B0 00 00 00 00 00 00 00 00 00 00 00 00 00 00 00 00 ................
0040E8C0 00 00 00 00 00 00 00 00 00 00 00 00 00 00 00 00 ................
0040E8D0 00 00 00 00 00 00 00 00 00 00 00 00 00 00 00 00 ................
0040E8E0 00 00 00 00 00 00 00 00 00 00 00 00 00 00 00 00 ................
0040E8F0 00 00 00 00 00 00 00 00 00 00 00 00 00 00 00 00 ................
0040E900 00 00 00 00 00 00 00 00 00 00 00 00 00 00 00 00 ................
0040E910 00 00 00 00 00 00 00 00 00 00 00 00 00 00 00 00 ................
0040E920 00 00 00 00 00 00 00 00 00 00 00 00 00 00 00 00 ................
0040E930 00 00 00 00 00 00 00 00 00 00 00 00 00 00 00 00 ................
0040E940 00 00 00 00 00 00 00 00 00 00 00 00 00 00 00 00 ................
0040E950 00 00 00 00 00 00 00 00 00 00 00 00 00 00 00 00 ................
0040E960 00 00 00 00 00 00 00 00 00 00 00 00 00 00 00 00 ................
0040E970 00 00 00 00 00 00 00 00 00 00 00 00 00 00 00 00 ................
0040E980 00 00 00 00 00 00 00 00 00 00 00 00 00 00 00 00 ................
0040E990 00 00 00 00 00 00 00 00 00 00 00 00 00 00 00 00 ................
0040E9A0 00 00 00 00 00 00 00 00 00 00 00 00 00 00 00 00 ................
0040E9B0 00 00 00 00 00 00 00 00 00 00 00 00 00 00 00 00 ................
0040E9C0 00 00 00 00 00 00 00 00 00 00 00 00 00 00 00 00 ................
0040E9D0 00 00 00 00 00 00 00 00 00 00 00 00 00 00 00 00 ................
0040E9E0 00 00 00 00 00 00 00 00 00 00 00 00 00 00 00 00 ................
0040E9F0 00 00 00 00 00 00 00 00 00 00 00 00 00 00 00 00 ................
0040EA00 00 00 00 00 00 00 00 00 00 00 00 00 00 00 00 00 ................
0040EA10 00 00 00 00 00 00 00 00 00 00 00 00 00 00 00 00 ................
0040EA20 00 00 00 00 00 00 00 00 00 00 00 00 00 00 00 00 ................
0040EA30 00 00 00 00 00 00 00 00 00 00 00 00 00 00 00 00 ................
0040EA40 00 00 00 00 00 00 00 00 00 00 00 00 00 00 00 00 ................
0040EA50 00 00 00 00 00 00 00 00 00 00 00 00 00 00 00 00 ................
0040EA60 00 00 00 00 00 00 00 00 00 00 00 00 00 00 00 00 ................
0040EA70 00 00 00 00 00 00 00 00 00 00 00 00 00 00 00 00 ................
0040EA80 00 00 00 00 00 00 00 00 00 00 00 00 00 00 00 00 ................
0040EA90 00 00 00 00 00 00 00 00 00 00 00 00 00 00 00 00 ................
0040EAA0 00 00 00 00 00 00 00 00 00 00 00 00 00 00 00 00 ................
0040EAB0 00 00 00 00 00 00 00 00 00 00 00 00 00 00 00 00 ................
0040EAC0 00 00 00 00 00 00 00 00 00 00 00 00 00 00 00 00 ................
0040EAD0 00 00 00 00 00 00 00 00 00 00 00 00 00 00 00 00 ................
0040EAE0 00 00 00 00 00 00 00 00 00 00 00 00 00 00 00 00 ................
0040EAF0 00 00 00 00 00 00 00 00 00 00 00 00 00 00 00 00 ................
0040EB00 00 00 00 00 00 00 00 00 00 00 00 00 00 00 00 00 ................
0040EB10 00 00 00 00 00 00 00 00 00 00 00 00 00 00 00 00 ................
0040EB20 00 00 00 00 00 00 00 00 00 00 00 00 00 00 00 00 ................
0040EB30 00 00 00 00 00 00 00 00 00 00 00 00 00 00 00 00 ................
0040EB40 00 00 00 00 00 00 00 00 00 00 00 00 00 00 00 00 ................
0040EB50 00 00 00 00 00 00 00 00 00 00 00 00 00 00 00 00 ................
0040EB60 00 00 00 00 00 00 00 00 00 00 00 00 00 00 00 00 ................
0040EB70 00 00 00 00 00 00 00 00 00 00 00 00 00 00 00 00 ................
0040EB80 00 00 00 00 00 00 00 00 00 00 00 00 00 00 00 00 ................
0040EB90 00 00 00 00 00 00 00 00 00 00 00 00 00 00 00 00 ................
0040EBA0 00 00 00 00 00 00 00 00 00 00 00 00 00 00 00 00 ................
0040EBB0 00 00 00 00 00 00 00 00 00 00 00 00 00 00 00 00 ................
0040EBC0 00 00 00 00 00 00 00 00 00 00 00 00 00 00 00 00 ................
0040EBD0 00 00 00 00 00 00 00 00 00 00 00 00 00 00 00 00 ................
0040EBE0 00 00 00 00 00 00 00 00 00 00 00 00 00 00 00 00 ................
0040EBF0 00 00 00 00 00 00 00 00 00 00 00 00 00 00 00 00 ................
0040EC00 00 00 00 00 00 00 00 00 00 00 00 00 00 00 00 00 ................
0040EC10 00 00 00 00 00 00 00 00 00 00 00 00 00 00 00 00 ................
0040EC20 00 00 00 00 00 00 00 00 00 00 00 00 00 00 00 00 ................
0040EC30 00 00 00 00 00 00 00 00 00 00 00 00 00 00 00 00 ................
0040EC40 00 00 00 00 00 00 00 00 00 00 00 00 00 00 00 00 ................
0040EC50 00 00 00 00 00 00 00 00 00 00 00 00 00 00 00 00 ................
0040EC60 00 00 00 00 00 00 00 00 00 00 00 00 00 00 00 00 ................
0040EC70 00 00 00 00 00 00 00 00 00 00 00 00 00 00 00 00 ................
0040EC80 00 00 00 00 00 00 00 00 00 00 00 00 00 00 00 00 ................
0040EC90 00 00 00 00 00 00 00 00 00 00 00 00 00 00 00 00 ................
0040ECA0 00 00 00 00 00 00 00 00 00 00 00 00 00 00 00 00 ................
0040ECB0 00 00 00 00 00 00 00 00 00 00 00 00 00 00 00 00 ................
0040ECC0 00 00 00 00 00 00 00 00 00 00 00 00 00 00 00 00 ................
0040ECD0 00 00 00 00 00 00 00 00 00 00 00 00 00 00 00 00 ................
0040ECE0 00 00 00 00 00 00 00 00 00 00 00 00 00 00 00 00 ................
0040ECF0 00 00 00 00 00 00 00 00 00 00 00 00 00 00 00 00 ................
0040ED00 00 00 00 00 00 00 00 00 00 00 00 00 00 00 00 00 ................
0040ED10 00 00 00 00 00 00 00 00 00 00 00 00 00 00 00 00 ................
0040ED20 00 00 00 00 00 00 00 00 00 00 00 00 00 00 00 00 ................
0040ED30 00 00 00 00 00 00 00 00 00 00 00 00 00 00 00 00 ................
0040ED40 00 00 00 00 00 00 00 00 00 00 00 00 00 00 00 00 ................
0040ED50 00 00 00 00 00 00 00 00 00 00 00 00 00 00 00 00 ................
0040ED60 00 00 00 00 00 00 00 00 00 00 00 00 00 00 00 00 ................
0040ED70 00 00 00 00 00 00 00 00 00 00 00 00 00 00 00 00 ................
0040ED80 00 00 00 00 00 00 00 00 00 00 00 00 00 00 00 00 ................
0040ED90 00 00 00 00 00 00 00 00 00 00 00 00 00 00 00 00 ................
0040EDA0 00 00 00 00 00 00 00 00 00 00 00 00 00 00 00 00 ................
0040EDB0 00 00 00 00 00 00 00 00 00 00 00 00 00 00 00 00 ................
0040EDC0 00 00 00 00 00 00 00 00 00 00 00 00 00 00 00 00 ................
0040EDD0 00 00 00 00 00 00 00 00 00 00 00 00 00 00 00 00 ................
0040EDE0 00 00 00 00 00 00 00 00 00 00 00 00 00 00 00 00 ................
0040EDF0 00 00 00 00 00 00 00 00 00 00 00 00 00 00 00 00 ................
0040EE00 00 00 00 00 00 00 00 00 00 00 00 00 00 00 00 00 ................
0040EE10 00 00 00 00 00 00 00 00 00 00 00 00 00 00 00 00 ................
0040EE20 00 00 00 00 00 00 00 00 00 00 00 00 00 00 00 00 ................
0040EE30 00 00 00 00 00 00 00 00 00 00 00 00 00 00 00 00 ................
0040EE40 00 00 00 00 00 00 00 00 00 00 00 00 00 00 00 00 ................
0040EE50 00 00 00 00 00 00 00 00 00 00 00 00 00 00 00 00 ................
0040EE60 00 00 00 00 00 00 00 00 00 00 00 00 00 00 00 00 ................
0040EE70 00 00 00 00 00 00 00 00 00 00 00 00 00 00 00 00 ................
0040EE80 00 00 00 00 00 00 00 00 00 00 00 00 00 00 00 00 ................
0040EE90 00 00 00 00 00 00 00 00 00 00 00 00 00 00 00 00 ................
0040EEA0 00 00 00 00 00 00 00 00 00 00 00 00 00 00 00 00 ................
0040EEB0 00 00 00 00 00 00 00 00 00 00 00 00 00 00 00 00 ................
0040EEC0 00 00 00 00 00 00 00 00 00 00 00 00 00 00 00 00 ................
0040EED0 00 00 00 00 00 00 00 00 00 00 00 00 00 00 00 00 ................
0040EEE0 00 00 00 00 00 00 00 00 00 00 00 00 00 00 00 00 ................
0040EEF0 00 00 00 00 00 00 00 00 00 00 00 00 00 00 00 00 ................
0040EF00 00 00 00 00 00 00 00 00 00 00 00 00 00 00 00 00 ................
0040EF10 00 00 00 00 00 00 00 00 00 00 00 00 00 00 00 00 ................
0040EF20 00 00 00 00 00 00 00 00 00 00 00 00 00 00 00 00 ................
0040EF30 00 00 00 00 00 00 00 00 00 00 00 00 00 00 00 00 ................
0040EF40 00 00 00 00 00 00 00 00 00 00 00 00 00 00 00 00 ................
0040EF50 00 00 00 00 00 00 00 00 00 00 00 00 00 00 00 00 ................
0040EF60 00 00 00 00 00 00 00 00 00 00 00 00 00 00 00 00 ................
0040EF70 00 00 00 00 00 00 00 00 00 00 00 00 00 00 00 00 ................
0040EF80 00 00 00 00 00 00 00 00 00 00 00 00 00 00 00 00 ................
0040EF90 00 00 00 00 00 00 00 00 00 00 00 00 00 00 00 00 ................
0040EFA0 00 00 00 00 00 00 00 00 00 00 00 00 00 00 00 00 ................
0040EFB0 00 00 00 00 00 00 00 00 00 00 00 00 00 00 00 00 ................
0040EFC0 00 00 00 00 00 00 00 00 00 00 00 00 00 00 00 00 ................
0040EFD0 00 00 00 00 00 00 00 00 00 00 00 00 00 00 00 00 ................
0040EFE0 00 00 00 00 00 00 00 00 00 00 00 00 00 00 00 00 ................
0040EFF0 00 00 00 00 00 00 00 00 00 00 00 00 00 00 00 00 ................
0040F000 88 F2 00 00 9E F2 00 00 B4 F2 00 00 C4 F2 00 00 ................
0040F010 D2 F2 00 00 EA F2 00 00 FA F2 00 00 06 F3 00 00 ................
0040F020 1A F3 00 00 2A F3 00 00 48 F3 00 00 56 F3 00 00 ....*...H...V...
0040F030 66 F3 00 00 72 F3 00 00 86 F3 00 00 9C F3 00 00 f...r...........
0040F040 AE F3 00 00 C6 F3 00 00 DE F3 00 00 F2 F3 00 00 ................
0040F050 02 F4 00 00 0E F4 00 00 26 F4 00 00 40 F4 00 00 ........&...@...
0040F060 50 F4 00 00 5C F4 00 00 6C F4 00 00 78 F4 00 00 P...\...l...x...
0040F070 84 F4 00 00 98 F4 00 00 AC F4 00 00 BE F4 00 00 ................
0040F080 CE F4 00 00 E0 F4 00 00 F4 F4 00 00 04 F5 00 00 ................
0040F090 10 F5 00 00 1E F5 00 00 32 F5 00 00 3E F5 00 00 ........2...>...
0040F0A0 4A F5 00 00 64 F5 00 00 00 00 00 00 8A F5 00 00 J...d...........
0040F0B0 9A F5 00 00 A8 F5 00 00 BA F5 00 00 C6 F5 00 00 ................
0040F0C0 D8 F5 00 00 E6 F5 00 00 F4 F5 00 00 04 F6 00 00 ................
0040F0D0 18 F6 00 00 2A F6 00 00 3C F6 00 00 4E F6 00 00 ....*...<...N...
0040F0E0 5A F6 00 00 6E F6 00 00 84 F6 00 00 92 F6 00 00 Z...n...........
0040F0F0 A6 F6 00 00 B8 F6 00 00 C6 F6 00 00 D6 F6 00 00 ................
0040F100 E2 F6 00 00 F2 F6 00 00 02 F7 00 00 12 F7 00 00 ................
0040F110 20 F7 00 00 34 F7 00 00 40 F7 00 00 52 F7 00 00  ...4...@...R...
0040F120 00 00 00 00 00 00 00 00 64 F1 00 00 00 00 00 00 ........d.......
0040F130 00 00 00 00 7C F5 00 00 00 F0 00 00 10 F2 00 00 ....|...........
0040F140 00 00 00 00 00 00 00 00 60 F7 00 00 AC F0 00 00 ........`.......
0040F150 00 00 00 00 00 00 00 00 00 00 00 00 00 00 00 00 ................
0040F160 00 00 00 00 88 F2 00 00 9E F2 00 00 B4 F2 00 00 ................
0040F170 C4 F2 00 00 D2 F2 00 00 EA F2 00 00 FA F2 00 00 ................
0040F180 06 F3 00 00 1A F3 00 00 2A F3 00 00 48 F3 00 00 ........*...H...
0040F190 56 F3 00 00 66 F3 00 00 72 F3 00 00 86 F3 00 00 V...f...r.......
0040F1A0 9C F3 00 00 AE F3 00 00 C6 F3 00 00 DE F3 00 00 ................
0040F1B0 F2 F3 00 00 02 F4 00 00 0E F4 00 00 26 F4 00 00 ............&...
0040F1C0 40 F4 00 00 50 F4 00 00 5C F4 00 00 6C F4 00 00 @...P...\...l...
0040F1D0 78 F4 00 00 84 F4 00 00 98 F4 00 00 AC F4 00 00 x...............
0040F1E0 BE F4 00 00 CE F4 00 00 E0 F4 00 00 F4 F4 00 00 ................
0040F1F0 04 F5 00 00 10 F5 00 00 1E F5 00 00 32 F5 00 00 ............2...
0040F200 3E F5 00 00 4A F5 00 00 64 F5 00 00 00 00 00 00 >...J...d.......
0040F210 8A F5 00 00 9A F5 00 00 A8 F5 00 00 BA F5 00 00 ................
0040F220 C6 F5 00 00 D8 F5 00 00 E6 F5 00 00 F4 F5 00 00 ................
0040F230 04 F6 00 00 18 F6 00 00 2A F6 00 00 3C F6 00 00 ........*...<...
0040F240 4E F6 00 00 5A F6 00 00 6E F6 00 00 84 F6 00 00 N...Z...n.......
0040F250 92 F6 00 00 A6 F6 00 00 B8 F6 00 00 C6 F6 00 00 ................
0040F260 D6 F6 00 00 E2 F6 00 00 F2 F6 00 00 02 F7 00 00 ................
0040F270 12 F7 00 00 20 F7 00 00 34 F7 00 00 40 F7 00 00 .... ...4...@...
0040F280 52 F7 00 00 00 00 00 00 26 00 57 61 69 74 46 6F R.......&.WaitFo
0040F290 72 53 69 6E 67 6C 65 4F 62 6A 65 63 74 00 29 00 rSingleObject.).
0040F2A0 47 65 74 4D 6F 64 75 6C 65 46 69 6C 65 4E 61 6D GetModuleFileNam
0040F2B0 65 41 00 00 2D 00 47 65 74 54 69 63 6B 43 6F 75 eA..-.GetTickCou
0040F2C0 6E 74 00 00 33 00 45 78 69 74 50 72 6F 63 65 73 nt..3.ExitProces
0040F2D0 73 00 39 00 49 6E 74 65 72 6C 6F 63 6B 65 64 49 s.9.InterlockedI
0040F2E0 6E 63 72 65 6D 65 6E 74 00 00 3F 00 47 65 74 54 ncrement..?.GetT
0040F2F0 69 63 6B 43 6F 75 6E 74 00 00 45 00 6C 73 74 72 ickCount..E.lstr
0040F300 6C 65 6E 57 00 00 48 00 47 65 74 43 75 72 72 65 lenW..H.GetCurre
0040F310 6E 74 50 72 6F 63 65 73 73 00 4C 00 56 69 72 74 ntProcess.L.Virt
0040F320 75 61 6C 41 6C 6C 6F 63 00 00 4D 00 53 65 74 55 ualAlloc..M.SetU
0040F330 6E 68 61 6E 64 6C 65 64 45 78 63 65 70 74 69 6F nhandledExceptio
0040F340 6E 46 69 6C 74 65 72 00 52 00 43 72 65 61 74 65 nFilter.R.Create
0040F350 46 69 6C 65 57 00 56 00 56 69 72 74 75 61 6C 41 FileW.V.VirtualA
0040F360 6C 6C 6F 63 00 00 5B 00 4C 6F 63 61 6C 46 72 65 lloc..[.LocalFre
0040F370 65 00 5C 00 47 65 74 4D 6F 64 75 6C 65 48 61 6E e.\.GetModuleHan
0040F380 64 6C 65 41 00 00 60 00 47 65 74 43 75 72 72 65 dleA..`.GetCurre
0040F390 6E 74 50 72 6F 63 65 73 73 49 64 00 66 00 47 65 ntProcessId.f.Ge
0040F3A0 74 50 72 6F 63 41 64 64 72 65 73 73 00 00 6C 00 tProcAddress..l.
0040F3B0 49 6E 74 65 72 6C 6F 63 6B 65 64 44 65 63 72 65 InterlockedDecre
0040F3C0 6D 65 6E 74 00 00 70 00 45 6E 74 65 72 43 72 69 ment..p.EnterCri
0040F3D0 74 69 63 61 6C 53 65 63 74 69 6F 6E 00 00 71 00 ticalSection..q.
0040F3E0 54 65 72 6D 69 6E 61 74 65 50 72 6F 63 65 73 73 TerminateProcess
0040F3F0 00 00 75 00 43 72 65 61 74 65 54 68 72 65 61 64 ..u.CreateThread
0040F400 00 00 7B 00 6C 73 74 72 63 6D 70 69 57 00 7E 00 ..{.lstrcmpiW.~.
0040F410 45 6E 74 65 72 43 72 69 74 69 63 61 6C 53 65 63 EnterCriticalSec
0040F420 74 69 6F 6E 00 00 7F 00 47 65 74 53 79 73 74 65 tion....GetSyste
0040F430 6D 54 69 6D 65 41 73 46 69 6C 65 54 69 6D 65 00 mTimeAsFileTime.
0040F440 81 00 56 69 72 74 75 61 6C 41 6C 6C 6F 63 00 00 ..VirtualAlloc..
0040F450 84 00 57 72 69 74 65 46 69 6C 65 00 8A 00 47 65 ..WriteFile...Ge
0040F460 74 56 65 72 73 69 6F 6E 45 78 41 00 8F 00 48 65 tVersionExA...He
0040F470 61 70 41 6C 6C 6F 63 00 95 00 53 65 74 45 76 65 apAlloc...SetEve
0040F480 6E 74 00 00 9A 00 54 65 72 6D 69 6E 61 74 65 50 nt....TerminateP
0040F490 72 6F 63 65 73 73 00 00 9E 00 54 65 72 6D 69 6E rocess....Termin
0040F4A0 61 74 65 50 72 6F 63 65 73 73 00 00 A4 00 47 65 ateProcess....Ge
0040F4B0 74 53 74 61 72 74 75 70 49 6E 66 6F 41 00 A5 00 tStartupInfoA...
0040F4C0 47 65 74 56 65 72 73 69 6F 6E 45 78 41 00 A9 00 GetVersionExA...
0040F4D0 47 65 74 50 72 6F 63 65 73 73 48 65 61 70 00 00 GetProcessHeap..
0040F4E0 AC 00 47 65 74 4D 6F 64 75 6C 65 48 61 6E 64 6C ..GetModuleHandl
0040F4F0 65 41 00 00 AE 00 47 65 74 56 65 72 73 69 6F 6E eA....GetVersion
0040F500 45 78 41 00 B0 00 53 65 74 45 76 65 6E 74 00 00 ExA...SetEvent..
0040F510 B6 00 56 69 72 74 75 61 6C 46 72 65 65 00 BB 00 ..VirtualFree...
0040F520 47 65 74 4D 6F 64 75 6C 65 48 61 6E 64 6C 65 41 GetModuleHandleA
0040F530 00 00 C0 00 4C 6F 63 61 6C 46 72 65 65 00 C1 00 ....LocalFree...
0040F540 6C 73 74 72 6C 65 6E 57 00 00 C2 00 51 75 65 72 lstrlenW....Quer
0040F550 79 50 65 72 66 6F 72 6D 61 6E 63 65 43 6F 75 6E yPerformanceCoun
0040F560 74 65 72 00 C7 00 49 6E 74 65 72 6C 6F 63 6B 65 ter...Interlocke
0040F570 64 44 65 63 72 65 6D 65 6E 74 00 00 4B 45 52 4E dDecrement..KERN
0040F580 45 4C 33 32 2E 44 4C 4C 00 00 29 00 47 65 74 53 EL32.DLL..).GetS
0040F590 79 73 74 65 6D 4D 65 6E 75 00 2F 00 4D 65 73 73 ystemMenu./.Mess
0040F5A0 61 67 65 42 6F 78 57 00 31 00 44 65 66 57 69 6E ageBoxW.1.DefWin
0040F5B0 64 6F 77 50 72 6F 63 57 00 00 35 00 77 73 70 72 dowProcW..5.wspr
0040F5C0 69 6E 74 66 41 00 3A 00 49 6E 76 61 6C 69 64 61 intfA.:.Invalida
0040F5D0 74 65 52 65 63 74 00 00 3F 00 47 65 74 53 75 62 teRect..?.GetSub
0040F5E0 4D 65 6E 75 00 00 44 00 4C 6F 61 64 43 75 72 73 Menu..D.LoadCurs
0040F5F0 6F 72 57 00 45 00 44 65 73 74 72 6F 79 57 69 6E orW.E.DestroyWin
0040F600 64 6F 77 00 4B 00 47 65 74 53 79 73 74 65 6D 4D dow.K.GetSystemM
0040F610 65 74 72 69 63 73 00 00 4E 00 53 63 72 65 65 6E etrics..N.Screen
0040F620 54 6F 43 6C 69 65 6E 74 00 00 51 00 53 65 74 44 ToClient..Q.SetD
0040F630 6C 67 49 74 65 6D 54 65 78 74 57 00 56 00 53 65 lgItemTextW.V.Se
0040F640 74 57 69 6E 64 6F 77 4C 6F 6E 67 57 00 00 5B 00 tWindowLongW..[.
0040F650 44 72 61 77 54 65 78 74 57 00 5D 00 44 69 73 70 DrawTextW.].Disp
0040F660 61 74 63 68 4D 65 73 73 61 67 65 41 00 00 61 00 atchMessageA..a.
0040F670 53 65 6E 64 44 6C 67 49 74 65 6D 4D 65 73 73 61 SendDlgItemMessa
0040F680 67 65 57 00 66 00 44 65 73 74 72 6F 79 49 63 6F geW.f.DestroyIco
0040F690 6E 00 69 00 44 69 73 70 61 74 63 68 4D 65 73 73 n.i.DispatchMess
0040F6A0 61 67 65 41 00 00 6B 00 44 65 66 57 69 6E 64 6F ageA..k.DefWindo
0040F6B0 77 50 72 6F 63 57 00 00 6E 00 4F 66 66 73 65 74 wProcW..n.Offset
0040F6C0 52 65 63 74 00 00 73 00 45 6E 61 62 6C 65 57 69 Rect..s.EnableWi
0040F6D0 6E 64 6F 77 00 00 78 00 45 6E 64 44 69 61 6C 6F ndow..x.EndDialo
0040F6E0 67 00 7B 00 53 65 74 57 69 6E 64 6F 77 50 6F 73 g.{.SetWindowPos
0040F6F0 00 00 7F 00 44 65 73 74 72 6F 79 57 69 6E 64 6F ....DestroyWindo
0040F700 77 00 85 00 47 65 74 57 69 6E 64 6F 77 52 65 63 w...GetWindowRec
0040F710 74 00 8B 00 4C 6F 61 64 43 75 72 73 6F 72 57 00 t...LoadCursorW.
0040F720 91 00 4C 6F 61 64 41 63 63 65 6C 65 72 61 74 6F ..LoadAccelerato
0040F730 72 73 57 00 97 00 43 68 61 72 4E 65 78 74 57 00 rsW...CharNextW.
0040F740 9D 00 52 65 67 69 73 74 65 72 43 6C 61 73 73 57 ..RegisterClassW
0040F750 00 00 A3 00 53 68 6F 77 57 69 6E 64 6F 77 00 00 ....ShowWindow..
0040F760 55 53 45 52 33 32 2E 44 4C 4C 00 00 00 00 00 00 USER32.DLL......
0040F770 00 00 00 00 00 00 00 00 00 00 00 00 00 00 00 00 ................
0040F780 00 00 00 00 00 00 00 00 00 00 00 00 00 00 00 00 ................
0040F790 00 00 00 00 00 00 00 00 00 00 00 00 00 00 00 00 ................
0040F7A0 00 00 00 00 00 00 00 00 00 00 00 00 00 00 00 00 ................
0040F7B0 00 00 00 00 00 00 00 00 00 00 00 00 00 00 00 00 ................
0040F7C0 00 00 00 00 00 00 00 00 00 00 00 00 00 00 00 00 ................
0040F7D0 00 00 00 00 00 00 00 00 00 00 00 00 00 00 00 00 ................
0040F7E0 00 00 00 00 00 00 00 00 00 00 00 00 00 00 00 00 ................
0040F7F0 00 00 00 00 00 00 00 00 00 00 00 00 00 00 00 00 ................
0040F800 00 00 00 00 00 00 00 00 00 00 00 00 00 00 00 00 ................
0040F810 00 00 00 00 00 00 00 00 00 00 00 00 00 00 00 00 ................
0040F820 00 00 00 00 00 00 00 00 00 00 00 00 00 00 00 00 ................
0040F830 00 00 00 00 00 00 00 00 00 00 00 00 00 00 00 00 ................
0040F840 00 00 00 00 00 00 00 00 00 00 00 00 00 00 00 00 ................
0040F850 00 00 00 00 00 00 00 00 00 00 00 00 00 00 00 00 ................
0040F860 00 00 00 00 00 00 00 00 00 00 00 00 00 00 00 00 ................
0040F870 00 00 00 00 00 00 00 00 00 00 00 00 00 00 00 00 ................
0040F880 00 00 00 00 00 00 00 00 00 00 00 00 00 00 00 00 ................
0040F890 00 00 00 00 00 00 00 00 00 00 00 00 00 00 00 00 ................
0040F8A0 00 00 00 00 00 00 00 00 00 00 00 00 00 00 00 00 ................
0040F8B0 00 00 00 00 00 00 00 00 00 00 00 00 00 00 00 00 ................
0040F8C0 00 00 00 00 00 00 00 00 00 00 00 00 00 00 00 00 ................
0040F8D0 00 00 00 00 00 00 00 00 00 00 00 00 00 00 00 00 ................
0040F8E0 00 00 00 00 00 00 00 00 00 00 00 00 00 00 00 00 ................
0040F8F0 00 00 00 00 00 00 00 00 00 00 00 00 00 00 00 00 ................
0040F900 00 00 00 00 00 00 00 00 00 00 00 00 00 00 00 00 ................
0040F910 00 00 00 00 00 00 00 00 00 00 00 00 00 00 00 00 ................
0040F920 00 00 00 00 00 00 00 00 00 00 00 00 00 00 00 00 ................
0040F930 00 00 00 00 00 00 00 00 00 00 00 00 00 00 00 00 ................
0040F940 00 00 00 00 00 00 00 00 00 00 00 00 00 00 00 00 ................
0040F950 00 00 00 00 00 00 00 00 00 00 00 00 00 00 00 00 ................
0040F960 00 00 00 00 00 00 00 00 00 00 00 00 00 00 00 00 ................
0040F970 00 00 00 00 00 00 00 00 00 00 00 00 00 00 00 00 ................
0040F980 00 00 00 00 00 00 00 00 00 00 00 00 00 00 00 00 ................
0040F990 00 00 00 00 00 00 00 00 00 00 00 00 00 00 00 00 ................
0040F9A0 00 00 00 00 00 00 00 00 00 00 00 00 00 00 00 00 ................
0040F9B0 00 00 00 00 00 00 00 00 00 00 00 00 00 00 00 00 ................
0040F9C0 00 00 00 00 00 00 00 00 00 00 00 00 00 00 00 00 ................
0040F9D0 00 00 00 00 00 00 00 00 00 00 00 00 00 00 00 00 ................
0040F9E0 00 00 00 00 00 00 00 00 00 00 00 00 00 00 00 00 ................
0040F9F0 00 00 00 00 00 00 00 00 00 00 00 00 00 00 00 00 ................
0040FA00 00 00 00 00 00 00 00 00 00 00 00 00 00 00 00 00 ................
0040FA10 00 00 00 00 00 00 00 00 00 00 00 00 00 00 00 00 ................
0040FA20 00 00 00 00 00 00 00 00 00 00 00 00 00 00 00 00 ................
0040FA30 00 00 00 00 00 00 00 00 00 00 00 00 00 00 00 00 ................
0040FA40 00 00 00 00 00 00 00 00 00 00 00 00 00 00 00 00 ................
0040FA50 00 00 00 00 00 00 00 00 00 00 00 00 00 00 00 00 ................
0040FA60 00 00 00 00 00 00 00 00 00 00 00 00 00 00 00 00 ................
0040FA70 00 00 00 00 00 00 00 00 00 00 00 00 00 00 00 00 ................
0040FA80 00 00 00 00 00 00 00 00 00 00 00 00 00 00 00 00 ................
0040FA90 00 00 00 00 00 00 00 00 00 00 00 00 00 00 00 00 ................
0040FAA0 00 00 00 00 00 00 00 00 00 00 00 00 00 00 00 00 ................
0040FAB0 00 00 00 00 00 00 00 00 00 00 00 00 00 00 00 00 ................
0040FAC0 00 00 00 00 00 00 00 00 00 00 00 00 00 00 00 00 ................
0040FAD0 00 00 00 00 00 00 00 00 00 00 00 00 00 00 00 00 ................
0040FAE0 00 00 00 00 00 00 00 00 00 00 00 00 00 00 00 00 ................
0040FAF0 00 00 00 00 00 00 00 00 00 00 00 00 00 00 00 00 ................
0040FB00 00 00 00 00 00 00 00 00 00 00 00 00 00 00 00 00 ................
0040FB10 00 00 00 00 00 00 00 00 00 00 00 00 00 00 00 00 ................
0040FB20 00 00 00 00 00 00 00 00 00 00 00 00 00 00 00 00 ................
0040FB30 00 00 00 00 00 00 00 00 00 00 00 00 00 00 00 00 ................
0040FB40 00 00 00 00 00 00 00 00 00 00 00 00 00 00 00 00 ................
0040FB50 00 00 00 00 00 00 00 00 00 00 00 00 00 00 00 00 ................
0040FB60 00 00 00 00 00 00 00 00 00 00 00 00 00 00 00 00 ................
0040FB70 00 00 00 00 00 00 00 00 00 00 00 00 00 00 00 00 ................
0040FB80 00 00 00 00 00 00 00 00 00 00 00 00 00 00 00 00 ................
0040FB90 00 00 00 00 00 00 00 00 00 00 00 00 00 00 00 00 ................
0040FBA0 00 00 00 00 00 00 00 00 00 00 00 00 00 00 00 00 ................
0040FBB0 00 00 00 00 00 00 00 00 00 00 00 00 00 00 00 00 ................
0040FBC0 00 00 00 00 00 00 00 00 00 00 00 00 00 00 00 00 ................
0040FBD0 00 00 00 00 00 00 00 00 00 00 00 00 00 00 00 00 ................
0040FBE0 00 00 00 00 00 00 00 00 00 00 00 00 00 00 00 00 ................
0040FBF0 00 00 00 00 00 00 00 00 00 00 00 00 00 00 00 00 ................
0040FC00 00 00 00 00 00 00 00 00 00 00 00 00 00 00 00 00 ................
0040FC10 00 00 00 00 00 00 00 00 00 00 00 00 00 00 00 00 ................
0040FC20 00 00 00 00 00 00 00 00 00 00 00 00 00 00 00 00 ................
0040FC30 00 00 00 00 00 00 00 00 00 00 00 00 00 00 00 00 ................
0040FC40 00 00 00 00 00 00 00 00 00 00 00 00 00 00 00 00 ................
0040FC50 00 00 00 00 00 00 00 00 00 00 00 00 00 00 00 00 ................
0040FC60 00 00 00 00 00 00 00 00 00 00 00 00 00 00 00 00 ................
0040FC70 00 00 00 00 00 00 00 00 00 00 00 00 00 00 00 00 ................
0040FC80 00 00 00 00 00 00 00 00 00 00 00 00 00 00 00 00 ................
0040FC90 00 00 00 00 00 00 00 00 00 00 00 00 00 00 00 00 ................
0040FCA0 00 00 00 00 00 00 00 00 00 00 00 00 00 00 00 00 ................
0040FCB0 00 00 00 00 00 00 00 00 00 00 00 00 00 00 00 00 ................
0040FCC0 00 00 00 00 00 00 00 00 00 00 00 00 00 00 00 00 ................
0040FCD0 00 00 00 00 00 00 00 00 00 00 00 00 00 00 00 00 ................
0040FCE0 00 00 00 00 00 00 00 00 00 00 00 00 00 00 00 00 ................
0040FCF0 00 00 00 00 00 00 00 00 00 00 00 00 00 00 00 00 ................
0040FD00 00 00 00 00 00 00 00 00 00 00 00 00 00 00 00 00 ................
0040FD10 00 00 00 00 00 00 00 00 00 00 00 00 00 00 00 00 ................
0040FD20 00 00 00 00 00 00 00 00 00 00 00 00 00 00 00 00 ................
0040FD30 00 00 00 00 00 00 00 00 00 00 00 00 00 00 00 00 ................
0040FD40 00 00 00 00 00 00 00 00 00 00 00 00 00 00 00 00 ................
0040FD50 00 00 00 00 00 00 00 00 00 00 00 00 00 00 00 00 ................
0040FD60 00 00 00 00 00 00 00 00 00 00 00 00 00 00 00 00 ................
0040FD70 00 00 00 00 00 00 00 00 00 00 00 00 00 00 00 00 ................
0040FD80 00 00 00 00 00 00 00 00 00 00 00 00 00 00 00 00 ................
0040FD90 00 00 00 00 00 00 00 00 00 00 00 00 00 00 00 00 ................
0040FDA0 00 00 00 00 00 00 00 00 00 00 00 00 00 00 00 00 ................
0040FDB0 00 00 00 00 00 00 00 00 00 00 00 00 00 00 00 00 ................
0040FDC0 00 00 00 00 00 00 00 00 00 00 00 00 00 00 00 00 ................
0040FDD0 00 00 00 00 00 00 00 00 00 00 00 00 00 00 00 00 ................
0040FDE0 00 00 00 00 00 00 00 00 00 00 00 00 00 00 00 00 ................
0040FDF0 00 00 00 00 00 00 00 00 00 00 00 00 00 00 00 00 ................
0040FE00 00 00 00 00 00 00 00 00 00 00 00 00 00 00 00 00 ................
0040FE10 00 00 00 00 00 00 00 00 00 00 00 00 00 00 00 00 ................
0040FE20 00 00 00 00 00 00 00 00 00 00 00 00 00 00 00 00 ................
0040FE30 00 00 00 00 00 00 00 00 00 00 00 00 00 00 00 00 ................
0040FE40 00 00 00 00 00 00 00 00 00 00 00 00 00 00 00 00 ................
0040FE50 00 00 00 00 00 00 00 00 00 00 00 00 00 00 00 00 ................
0040FE60 00 00 00 00 00 00 00 00 00 00 00 00 00 00 00 00 ................
0040FE70 00 00 00 00 00 00 00 00 00 00 00 00 00 00 00 00 ................
0040FE80 00 00 00 00 00 00 00 00 00 00 00 00 00 00 00 00 ................
0040FE90 00 00 00 00 00 00 00 00 00 00 00 00 00 00 00 00 ................
0040FEA0 00 00 00 00 00 00 00 00 00 00 00 00 00 00 00 00 ................
0040FEB0 00 00 00 00 00 00 00 00 00 00 00 00 00 00 00 00 ................
0040FEC0 00 00 00 00 00 00 00 00 00 00 00 00 00 00 00 00 ................
0040FED0 00 00 00 00 00 00 00 00 00 00 00 00 00 00 00 00 ................
0040FEE0 00 00 00 00 00 00 00 00 00 00 00 00 00 00 00 00 ................
0040FEF0 00 00 00 00 00 00 00 00 00 00 00 00 00 00 00 00 ................
0040FF00 00 00 00 00 00 00 00 00 00 00 00 00 00 00 00 00 ................
0040FF10 00 00 00 00 00 00 00 00 00 00 00 00 00 00 00 00 ................
0040FF20 00 00 00 00 00 00 00 00 00 00 00 00 00 00 00 00 ................
0040FF30 00 00 00 00 00 00 00 00 00 00 00 00 00 00 00 00 ................
0040FF40 00 00 00 00 00 00 00 00 00 00 00 00 00 00 00 00 ................
0040FF50 00 00 00 00 00 00 00 00 00 00 00 00 00 00 00 00 ................
0040FF60 00 00 00 00 00 00 00 00 00 00 00 00 00 00 00 00 ................
0040FF70 00 00 00 00 00 00 00 00 00 00 00 00 00 00 00 00 ................
0040FF80 00 00 00 00 00 00 00 00 00 00 00 00 00 00 00 00 ................
0040FF90 00 00 00 00 00 00 00 00 00 00 00 00 00 00 00 00 ................
0040FFA0 00 00 00 00 00 00 00 00 00 00 00 00 00 00 00 00 ................
0040FFB0 00 00 00 00 00 00 00 00 00 00 00 00 00 00 00 00 ................
0040FFC0 00 00 00 00 00 00 00 00 00 00 00 00 00 00 00 00 ................
0040FFD0 00 00 00 00 00 00 00 00 00 00 00 00 00 00 00 00 ................
0040FFE0 00 00 00 00 00 00 00 00 00 00 00 00 00 00 00 00 ................
0040FFF0 00 00 00 00 00 00 00 00 00 00 00 00 00 00 00 00 ................
00410000 00 00 00 00 00 00 00 00 00 00 00 00 00 00 03 00 ................
00410010 03 00 00 00 28 00 00 80 0E 00 00 00 40 00 00 80 ....(.......@...
00410020 10 00 00 00 58 00 00 80 00 00 00 00 00 00 00 00 ....X...........
00410030 00 00 00 00 00 00 01 00 01 00 00 00 70 00 00 80 ............p...
00410040 00 00 00 00 00 00 00 00 00 00 00 00 00 00 01 00 ................
00410050 28 2F 00 00 88 00 00 80 00 00 00 00 00 00 00 00 (/..............
00410060 00 00 00 00 00 00 01 00 40 6C 00 00 A0 00 00 80 ........@l......
00410070 00 00 00 00 00 00 00 00 00 00 00 00 00 00 01 00 ................
00410080 19 04 00 00 B8 00 00 00 00 00 00 00 00 00 00 00 ................
00410090 00 00 00 00 00 00 01 00 19 04 00 00 C8 00 00 00 ................
004100A0 00 00 00 00 00 00 00 00 00 00 00 00 00 00 01 00 ................
004100B0 19 04 00 00 D8 00 00 00 E8 00 01 00 A8 08 00 00 ................
004100C0 00 00 00 00 00 00 00 00 90 09 01 00 14 00 00 00 ................
004100D0 00 00 00 00 00 00 00 00 A4 09 01 00 F0 02 00 00 ................
004100E0 00 00 00 00 00 00 00 00 28 00 00 00 20 00 00 00 ........(... ...
004100F0 40 00 00 00 01 00 08 00 00 00 00 00 00 04 00 00 @...............
00410100 00 00 00 00 00 00 00 00 00 00 00 00 00 00 00 00 ................
00410110 00 00 00 00 00 00 80 00 00 80 00 00 00 80 80 00 ................
00410120 80 00 00 00 80 00 80 00 80 80 00 00 C0 C0 C0 00 ................
00410130 C0 DC C0 00 F0 CA A6 00 00 20 40 00 00 20 60 00 ......... @.. `.
00410140 00 20 80 00 00 20 A0 00 00 20 C0 00 00 20 E0 00 . ... ... ... ..
00410150 00 40 00 00 00 40 20 00 00 40 40 00 00 40 60 00 .@...@ ..@@..@`.
00410160 00 40 80 00 00 40 A0 00 00 40 C0 00 00 40 E0 00 .@...@...@...@..
00410170 00 60 00 00 00 60 20 00 00 60 40 00 00 60 60 00 .`...` ..`@..``.
00410180 00 60 80 00 00 60 A0 00 00 60 C0 00 00 60 E0 00 .`...`...`...`..
00410190 00 80 00 00 00 80 20 00 00 80 40 00 00 80 60 00 ...... ...@...`.
004101A0 00 80 80 00 00 80 A0 00 00 80 C0 00 00 80 E0 00 ................
004101B0 00 A0 00 00 00 A0 20 00 00 A0 40 00 00 A0 60 00 ...... ...@...`.
004101C0 00 A0 80 00 00 A0 A0 00 00 A0 C0 00 00 A0 E0 00 ................
004101D0 00 C0 00 00 00 C0 20 00 00 C0 40 00 00 C0 60 00 ...... ...@...`.
004101E0 00 C0 80 00 00 C0 A0 00 00 C0 C0 00 00 C0 E0 00 ................
004101F0 00 E0 00 00 00 E0 20 00 00 E0 40 00 00 E0 60 00 ...... ...@...`.
00410200 00 E0 80 00 00 E0 A0 00 00 E0 C0 00 00 E0 E0 00 ................
00410210 40 00 00 00 40 00 20 00 40 00 40 00 40 00 60 00 @...@. .@.@.@.`.
00410220 40 00 80 00 40 00 A0 00 40 00 C0 00 40 00 E0 00 @...@...@...@...
00410230 40 20 00 00 40 20 20 00 40 20 40 00 40 20 60 00 @ ..@  .@ @.@ `.
00410240 40 20 80 00 40 20 A0 00 40 20 C0 00 40 20 E0 00 @ ..@ ..@ ..@ ..
00410250 40 40 00 00 40 40 20 00 40 40 40 00 40 40 60 00 @@..@@ .@@@.@@`.
00410260 40 40 80 00 40 40 A0 00 40 40 C0 00 40 40 E0 00 @@..@@..@@..@@..
00410270 40 60 00 00 40 60 20 00 40 60 40 00 40 60 60 00 @`..@` .@`@.@``.
00410280 40 60 80 00 40 60 A0 00 40 60 C0 00 40 60 E0 00 @`..@`..@`..@`..
00410290 40 80 00 00 40 80 20 00 40 80 40 00 40 80 60 00 @...@. .@.@.@.`.
004102A0 40 80 80 00 40 80 A0 00 40 80 C0 00 40 80 E0 00 @...@...@...@...
004102B0 40 A0 00 00 40 A0 20 00 40 A0 40 00 40 A0 60 00 @...@. .@.@.@.`.
004102C0 40 A0 80 00 40 A0 A0 00 40 A0 C0 00 40 A0 E0 00 @...@...@...@...
004102D0 40 C0 00 00 40 C0 20 00 40 C0 40 00 40 C0 60 00 @...@. .@.@.@.`.
004102E0 40 C0 80 00 40 C0 A0 00 40 C0 C0 00 40 C0 E0 00 @...@...@...@...
004102F0 40 E0 00 00 40 E0 20 00 40 E0 40 00 40 E0 60 00 @...@. .@.@.@.`.
00410300 40 E0 80 00 40 E0 A0 00 40 E0 C0 00 40 E0 E0 00 @...@...@...@...
00410310 80 00 00 00 80 00 20 00 80 00 40 00 80 00 60 00 ...... ...@...`.
00410320 80 00 80 00 80 00 A0 00 80 00 C0 00 80 00 E0 00 ................
00410330 80 20 00 00 80 20 20 00 80 20 40 00 80 20 60 00 . ...  .. @.. `.
00410340 80 20 80 00 80 20 A0 00 80 20 C0 00 80 20 E0 00 . ... ... ... ..
00410350 80 40 00 00 80 40 20 00 80 40 40 00 80 40 60 00 .@...@ ..@@..@`.
00410360 80 40 80 00 80 40 A0 00 80 40 C0 00 80 40 E0 00 .@...@...@...@..
00410370 80 60 00 00 80 60 20 00 80 60 40 00 80 60 60 00 .`...` ..`@..``.
00410380 80 60 80 00 80 60 A0 00 80 60 C0 00 80 60 E0 00 .`...`...`...`..
00410390 80 80 00 00 80 80 20 00 80 80 40 00 80 80 60 00 ...... ...@...`.
004103A0 80 80 80 00 80 80 A0 00 80 80 C0 00 80 80 E0 00 ................
004103B0 80 A0 00 00 80 A0 20 00 80 A0 40 00 80 A0 60 00 ...... ...@...`.
004103C0 80 A0 80 00 80 A0 A0 00 80 A0 C0 00 80 A0 E0 00 ................
004103D0 80 C0 00 00 80 C0 20 00 80 C0 40 00 80 C0 60 00 ...... ...@...`.
004103E0 80 C0 80 00 80 C0 A0 00 80 C0 C0 00 80 C0 E0 00 ................
004103F0 80 E0 00 00 80 E0 20 00 80 E0 40 00 80 E0 60 00 ...... ...@...`.
00410400 80 E0 80 00 80 E0 A0 00 80 E0 C0 00 80 E0 E0 00 ................
00410410 C0 00 00 00 C0 00 20 00 C0 00 40 00 C0 00 60 00 ...... ...@...`.
00410420 C0 00 80 00 C0 00 A0 00 C0 00 C0 00 C0 00 E0 00 ................
00410430 C0 20 00 00 C0 20 20 00 C0 20 40 00 C0 20 60 00 . ...  .. @.. `.
00410440 C0 20 80 00 C0 20 A0 00 C0 20 C0 00 C0 20 E0 00 . ... ... ... ..
00410450 C0 40 00 00 C0 40 20 00 C0 40 40 00 C0 40 60 00 .@...@ ..@@..@`.
00410460 C0 40 80 00 C0 40 A0 00 C0 40 C0 00 C0 40 E0 00 .@...@...@...@..
00410470 C0 60 00 00 C0 60 20 00 C0 60 40 00 C0 60 60 00 .`...` ..`@..``.
00410480 C0 60 80 00 C0 60 A0 00 C0 60 C0 00 C0 60 E0 00 .`...`...`...`..
00410490 C0 80 00 00 C0 80 20 00 C0 80 40 00 C0 80 60 00 ...... ...@...`.
004104A0 C0 80 80 00 C0 80 A0 00 C0 80 C0 00 C0 80 E0 00 ................
004104B0 C0 A0 00 00 C0 A0 20 00 C0 A0 40 00 C0 A0 60 00 ...... ...@...`.
004104C0 C0 A0 80 00 C0 A0 A0 00 C0 A0 C0 00 C0 A0 E0 00 ................
004104D0 C0 C0 00 00 C0 C0 20 00 C0 C0 40 00 C0 C0 60 00 ...... ...@...`.
004104E0 C0 C0 80 00 C0 C0 A0 00 F0 FB FF 00 A4 A0 A0 00 ................
004104F0 80 80 80 00 00 00 FF 00 00 FF 00 00 00 FF FF 00 ................
00410500 FF 00 00 00 FF 00 FF 00 FF FF 00 00 FF FF FF 00 ................
00410510 00 00 00 00 00 00 00 00 00 00 00 00 00 00 00 00 ................
00410520 00 00 00 00 00 00 00 00 00 00 00 00 00 00 00 00 ................
00410530 00 00 00 00 00 00 ED A3 9A 9A 92 92 92 92 92 92 ................
00410540 92 92 92 92 92 92 92 92 92 92 92 92 92 92 92 00 ................
00410550 00 00 00 00 00 00 ED F6 07 09 09 09 09 09 09 09 ................
00410560 09 09 EC 09 09 EC EC EC EC EB EB EB EB EB 92 00 ................
00410570 00 00 00 00 00 00 ED F6 F6 F6 F6 F6 F6 F6 F6 F6 ................
00410580 F6 F6 F6 F6 F6 F6 F6 F6 09 09 09 09 09 EB 92 00 ................
00410590 00 00 00 00 00 00 ED F6 F6 F6 F6 F6 F6 F6 F6 F6 ................
004105A0 F6 F6 F6 F6 F6 F6 F6 F6 F6 F6 09 09 09 EB 92 00 ................
004105B0 00 00 00 00 00 00 ED F6 F6 F5 F5 ED ED EC EC EC ................
004105C0 E3 E3 E3 E3 E3 E3 E3 E3 E3 E3 F6 F6 09 EB 92 00 ................
004105D0 00 00 00 00 00 00 ED FF FF F5 FF FF FF F6 EC F6 ................
004105E0 F6 EC FF E3 F6 F6 EC FF E3 F6 F6 F6 F6 EB 92 00 ................
004105F0 00 00 00 00 00 00 ED FF FF F5 FF FF FF FF ED FF ................
00410600 FF EC FF E3 F6 F6 EC FF E3 F6 F6 F6 F6 EC 92 00 ................
00410610 00 00 00 00 00 00 ED FF FF F5 F5 F5 F5 F5 F5 ED ................
00410620 FF EC FF E3 F6 F6 EC FF E3 F6 F6 F6 F6 EC 92 00 ................
00410630 00 00 00 00 00 00 ED FF FF 09 FF FF FF FF F5 FF ................
00410640 FF ED FF E3 EC EC EC FF E3 F6 F6 F6 F6 EC 92 00 ................
00410650 00 00 00 00 00 00 ED FF FF 09 FF FF FF FF F5 FF ................
00410660 FF F5 FF E3 FF FF EC FF E3 F6 F6 F6 F6 EC 92 00 ................
00410670 00 00 00 00 00 00 ED FF FF 09 09 09 09 09 F5 F5 ................
00410680 FF F5 F5 E3 FF FF EC FF E3 F6 F6 F6 F6 EC 92 00 ................
00410690 00 00 00 00 00 00 ED FF FF 09 FF FF FF FF 09 FF ................
004106A0 FF FF FF FF FF FF ED ED E3 F6 F6 F6 F6 09 92 00 ................
004106B0 00 00 00 00 00 00 ED 08 08 ED 07 07 07 ED ED 08 ................
004106C0 FF FF FF F5 FF FF FF FF FF FF F6 F6 F6 09 92 00 ................
004106D0 00 00 00 00 00 00 F7 F7 F5 07 07 08 08 F6 08 ED ................
004106E0 EC 09 F5 F5 F5 F5 F5 F5 ED FF FF F6 F6 EC 92 00 ................
004106F0 00 19 18 AC 08 08 FF FF FF F6 F6 F6 F6 F6 08 07 ................
00410700 F6 FF FF 09 FF FF FF FF F5 FF FF FF F6 09 92 00 ................
00410710 00 19 B5 08 FF FF FF FF F6 F6 B5 1A 1A F6 F6 07 ................
00410720 F6 FF FF 09 FF FF FF FF F5 FF FF FF FF 09 92 00 ................
00410730 00 19 07 AC FF 08 B4 B4 B4 AB 22 1A 6B F6 F6 ED ..........".k...
00410740 F5 09 09 09 09 09 09 F5 F5 FF FF FF FF 09 92 00 ................
00410750 00 19 08 62 FF FF 08 B4 B4 62 1A 6C AB B5 F6 07 ...b.....b.l....
00410760 08 FF FF 09 FF FF FF FF F5 FF FF FF FF 09 92 00 ................
00410770 00 19 08 19 F6 FF FF 08 6B 1A 22 08 FF F6 F6 07 ........k.".....
00410780 08 FF FF 09 FF FF FF FF 09 FF FF FF FF 09 92 00 ................
00410790 00 21 08 19 07 FF FF 08 22 22 6B B4 F5 F6 F6 07 .!......""k.....
004107A0 F5 09 09 09 09 09 09 09 09 FF FF FF FF 09 92 00 ................
004107B0 00 21 08 19 AC FF F6 22 1A B5 F6 B4 B4 B4 F6 08 .!....."........
004107C0 08 FF FF 09 FF FF FF FF 09 FF FF FF FF 09 92 00 ................
004107D0 00 21 08 AC B4 FF 63 62 6C FF FF FF FF FF FF 08 .!....cbl.......
004107E0 08 FF FF 09 FF FF FF FF 07 09 09 09 09 09 92 00 ................
004107F0 00 61 08 B4 B4 FF FF FF FF FF FF FF FF FF FF F6 .a..............
00410800 07 09 09 09 09 09 09 ED A3 A3 9B 9A 9A 9A 92 00 ................
00410810 00 61 08 B5 B4 08 08 08 08 08 08 F5 B5 08 6B FF .a............k.
00410820 FF FF FF FF FF FF FF ED 09 09 09 09 09 92 F6 00 ................
00410830 00 61 B5 F6 B5 B5 B5 B5 B5 B5 B5 B5 B5 F6 61 FF .a............a.
00410840 FF FF FF FF FF FF FF ED F6 F6 09 09 92 F6 F6 00 ................
00410850 00 61 61 08 F6 08 BD BD BD BD BD BD B5 F6 61 F6 .aa...........a.
00410860 09 09 09 FF FF FF FF F5 F6 F6 09 92 F6 F6 00 00 ................
00410870 00 00 61 61 B5 08 F6 F6 F6 F6 F6 F6 F6 F6 61 FF ..aa..........a.
00410880 FF FF FF FF FF FF FF F5 F6 F6 9A F6 F6 00 00 00 ................
00410890 00 00 00 61 61 61 61 61 61 61 61 61 61 61 61 FF ...aaaaaaaaaaaa.
004108A0 FF FF FF FF FF FF FF F5 F6 9B F6 F6 00 00 00 00 ................
004108B0 00 00 00 00 00 00 07 FF FF FF FF FF FF FF FF FF ................
004108C0 FF FF FF FF FF FF FF F5 A4 F6 F6 00 00 00 00 00 ................
004108D0 00 00 00 00 00 00 07 07 07 07 07 F5 F5 F5 F5 F5 ................
004108E0 F5 F5 F5 F5 F5 F5 F5 F5 F6 F6 00 00 00 00 00 00 ................
004108F0 00 00 00 00 00 00 00 00 00 00 00 00 00 00 00 00 ................
00410900 00 00 00 00 00 00 00 00 00 00 00 00 00 00 00 00 ................
00410910 FF FF FF FF FC 00 00 01 FC 00 00 01 FC 00 00 01 ................
00410920 FC 00 00 01 FC 00 00 01 FC 00 00 01 FC 00 00 01 ................
00410930 FC 00 00 01 FC 00 00 01 FC 00 00 01 FC 00 00 01 ................
00410940 FC 00 00 01 C0 00 00 01 C0 00 00 01 80 00 00 01 ................
00410950 80 00 00 01 80 00 00 01 80 00 00 01 80 00 00 01 ................
00410960 80 00 00 01 80 00 00 01 80 00 00 01 80 00 00 01 ................
00410970 80 00 00 01 80 00 00 01 80 00 00 03 C0 00 00 07 ................
00410980 E0 00 00 0F FC 00 00 1F FC 00 00 3F FF FF FF FF ...........?....
00410990 00 00 01 00 01 00 20 20 08 00 00 00 00 00 A8 08 ......  ........
004109A0 00 00 01 00 F0 02 34 00 00 00 56 00 53 00 5F 00 ......4...V.S._.
004109B0 56 00 45 00 52 00 53 00 49 00 4F 00 4E 00 5F 00 V.E.R.S.I.O.N._.
004109C0 49 00 4E 00 46 00 4F 00 00 00 00 00 BD 04 EF FE I.N.F.O.........
004109D0 00 00 01 00 B9 C6 6C 18 B9 C6 6C 18 B9 C6 6C 18 ......l...l...l.
004109E0 B9 C6 6C 18 B9 C6 00 00 00 00 00 00 04 00 04 00 ..l.............
004109F0 01 00 00 00 00 00 00 00 00 00 00 00 00 00 00 00 ................
00410A00 50 02 00 00 00 00 53 00 74 00 72 00 69 00 6E 00 P.....S.t.r.i.n.
00410A10 67 00 46 00 69 00 6C 00 65 00 49 00 6E 00 66 00 g.F.i.l.e.I.n.f.
00410A20 6F 00 00 00 2C 02 00 00 00 00 30 00 38 00 30 00 o...,.....0.8.0.
00410A30 30 00 30 00 34 00 42 00 30 00 00 00 40 00 10 00 0.0.4.B.0...@...
00410A40 01 00 43 00 6F 00 6D 00 70 00 61 00 6E 00 79 00 ..C.o.m.p.a.n.y.
00410A50 4E 00 61 00 6D 00 65 00 00 00 00 00 67 00 6E 00 N.a.m.e.....g.n.
00410A60 34 00 54 00 52 00 69 00 6A 00 51 00 4E 00 44 00 4.T.R.i.j.Q.N.D.
00410A70 6E 00 49 00 70 00 78 00 70 00 00 00 40 00 0C 00 n.I.p.x.p...@...
00410A80 01 00 46 00 69 00 6C 00 65 00 44 00 65 00 73 00 ..F.i.l.e.D.e.s.
00410A90 63 00 72 00 69 00 70 00 74 00 69 00 6F 00 6E 00 c.r.i.p.t.i.o.n.
00410AA0 00 00 00 00 34 00 4B 00 4F 00 79 00 33 00 6C 00 ....4.K.O.y.3.l.
00410AB0 4C 00 33 00 4A 00 55 00 4A 00 00 00 38 00 0C 00 L.3.J.U.J...8...
00410AC0 01 00 46 00 69 00 6C 00 65 00 56 00 65 00 72 00 ..F.i.l.e.V.e.r.
00410AD0 73 00 69 00 6F 00 6E 00 00 00 00 00 73 00 64 00 s.i.o.n.....s.d.
00410AE0 47 00 47 00 4C 00 54 00 64 00 38 00 57 00 50 00 G.G.L.T.d.8.W.P.
00410AF0 57 00 00 00 44 00 12 00 01 00 49 00 6E 00 74 00 W...D.....I.n.t.
00410B00 65 00 72 00 6E 00 61 00 6C 00 4E 00 61 00 6D 00 e.r.n.a.l.N.a.m.
00410B10 65 00 00 00 70 00 78 00 6F 00 68 00 37 00 41 00 e...p.x.o.h.7.A.
00410B20 53 00 54 00 6D 00 75 00 6A 00 6E 00 6C 00 6D 00 S.T.m.u.j.n.l.m.
00410B30 63 00 4B 00 6E 00 00 00 44 00 10 00 01 00 4C 00 c.K.n...D.....L.
00410B40 65 00 67 00 61 00 6C 00 43 00 6F 00 70 00 79 00 e.g.a.l.C.o.p.y.
00410B50 72 00 69 00 67 00 68 00 74 00 00 00 4B 00 66 00 r.i.g.h.t...K.f.
00410B60 55 00 32 00 4D 00 64 00 44 00 50 00 71 00 79 00 U.2.M.d.D.P.q.y.
00410B70 74 00 42 00 52 00 4B 00 38 00 00 00 4C 00 11 00 t.B.R.K.8...L...
00410B80 01 00 4F 00 72 00 69 00 67 00 69 00 6E 00 61 00 ..O.r.i.g.i.n.a.
00410B90 6C 00 46 00 69 00 6C 00 65 00 6E 00 61 00 6D 00 l.F.i.l.e.n.a.m.
00410BA0 65 00 00 00 31 00 35 00 52 00 6A 00 6F 00 78 00 e...1.5.R.j.o.x.
00410BB0 42 00 6D 00 48 00 4B 00 48 00 45 00 4A 00 43 00 B.m.H.K.H.E.J.C.
00410BC0 68 00 52 00 00 00 00 00 48 00 13 00 01 00 50 00 h.R.....H.....P.
00410BD0 72 00 6F 00 64 00 75 00 63 00 74 00 4E 00 61 00 r.o.d.u.c.t.N.a.
00410BE0 6D 00 65 00 00 00 00 00 61 00 37 00 36 00 4D 00 m.e.....a.7.6.M.
00410BF0 6E 00 68 00 63 00 61 00 73 00 70 00 45 00 58 00 n.h.c.a.s.p.E.X.
00410C00 6C 00 31 00 45 00 43 00 65 00 50 00 00 00 00 00 l.1.E.C.e.P.....
00410C10 40 00 0E 00 01 00 50 00 72 00 6F 00 64 00 75 00 @.....P.r.o.d.u.
00410C20 63 00 74 00 56 00 65 00 72 00 73 00 69 00 6F 00 c.t.V.e.r.s.i.o.
00410C30 6E 00 00 00 6E 00 59 00 57 00 76 00 50 00 68 00 n...n.Y.W.v.P.h.
00410C40 54 00 51 00 4A 00 50 00 64 00 78 00 38 00 00 00 T.Q.J.P.d.x.8...
00410C50 44 00 00 00 00 00 56 00 61 00 72 00 46 00 69 00 D.....V.a.r.F.i.
00410C60 6C 00 65 00 49 00 6E 00 66 00 6F 00 00 00 00 00 l.e.I.n.f.o.....
00410C70 24 00 04 00 00 00 54 00 72 00 61 00 6E 00 73 00 $.....T.r.a.n.s.
00410C80 6C 00 61 00 74 00 69 00 6F 00 6E 00 00 00 00 00 l.a.t.i.o.n.....
00410C90 00 08 B0 04 00 00 00 00 00 00 00 00 00 00 00 00 ................
00410CA0 00 00 00 00 00 00 00 00 00 00 00 00 00 00 00 00 ................
00410CB0 00 00 00 00 00 00 00 00 00 00 00 00 00 00 00 00 ................
00410CC0 00 00 00 00 00 00 00 00 00 00 00 00 00 00 00 00 ................
00410CD0 00 00 00 00 00 00 00 00 00 00 00 00 00 00 00 00 ................
00410CE0 00 00 00 00 00 00 00 00 00 00 00 00 00 00 00 00 ................
00410CF0 00 00 00 00 00 00 00 00 00 00 00 00 00 00 00 00 ................
00410D00 00 00 00 00 00 00 00 00 00 00 00 00 00 00 00 00 ................
00410D10 00 00 00 00 00 00 00 00 00 00 00 00 00 00 00 00 ................
00410D20 00 00 00 00 00 00 00 00 00 00 00 00 00 00 00 00 ................
00410D30 00 00 00 00 00 00 00 00 00 00 00 00 00 00 00 00 ................
00410D40 00 00 00 00 00 00 00 00 00 00 00 00 00 00 00 00 ................
00410D50 00 00 00 00 00 00 00 00 00 00 00 00 00 00 00 00 ................
00410D60 00 00 00 00 00 00 00 00 00 00 00 00 00 00 00 00 ................
00410D70 00 00 00 00 00 00 00 00 00 00 00 00 00 00 00 00 ................
00410D80 00 00 00 00 00 00 00 00 00 00 00 00 00 00 00 00 ................
00410D90 00 00 00 00 00 00 00 00 00 00 00 00 00 00 00 00 ................
00410DA0 00 00 00 00 00 00 00 00 00 00 00 00 00 00 00 00 ................
00410DB0 00 00 00 00 00 00 00 00 00 00 00 00 00 00 00 00 ................
00410DC0 00 00 00 00 00 00 00 00 00 00 00 00 00 00 00 00 ................
00410DD0 00 00 00 00 00 00 00 00 00 00 00 00 00 00 00 00 ................
00410DE0 00 00 00 00 00 00 00 00 00 00 00 00 00 00 00 00 ................
00410DF0 00 00 00 00 00 00 00 00 00 00 00 00 00 00 00 00 ................
00410E00 00 00 00 00 00 00 00 00 00 00 00 00 00 00 00 00 ................
00410E10 00 00 00 00 00 00 00 00 00 00 00 00 00 00 00 00 ................
00410E20 00 00 00 00 00 00 00 00 00 00 00 00 00 00 00 00 ................
00410E30 00 00 00 00 00 00 00 00 00 00 00 00 00 00 00 00 ................
00410E40 00 00 00 00 00 00 00 00 00 00 00 00 00 00 00 00 ................
00410E50 00 00 00 00 00 00 00 00 00 00 00 00 00 00 00 00 ................
00410E60 00 00 00 00 00 00 00 00 00 00 00 00 00 00 00 00 ................
00410E70 00 00 00 00 00 00 00 00 00 00 00 00 00 00 00 00 ................
00410E80 00 00 00 00 00 00 00 00 00 00 00 00 00 00 00 00 ................
00410E90 00 00 00 00 00 00 00 00 00 00 00 00 00 00 00 00 ................
00410EA0 00 00 00 00 00 00 00 00 00 00 00 00 00 00 00 00 ................
00410EB0 00 00 00 00 00 00 00 00 00 00 00 00 00 00 00 00 ................
00410EC0 00 00 00 00 00 00 00 00 00 00 00 00 00 00 00 00 ................
00410ED0 00 00 00 00 00 00 00 00 00 00 00 00 00 00 00 00 ................
00410EE0 00 00 00 00 00 00 00 00 00 00 00 00 00 00 00 00 ................
00410EF0 00 00 00 00 00 00 00 00 00 00 00 00 00 00 00 00 ................
00410F00 00 00 00 00 00 00 00 00 00 00 00 00 00 00 00 00 ................
00410F10 00 00 00 00 00 00 00 00 00 00 00 00 00 00 00 00 ................
00410F20 00 00 00 00 00 00 00 00 00 00 00 00 00 00 00 00 ................
00410F30 00 00 00 00 00 00 00 00 00 00 00 00 00 00 00 00 ................
00410F40 00 00 00 00 00 00 00 00 00 00 00 00 00 00 00 00 ................
00410F50 00 00 00 00 00 00 00 00 00 00 00 00 00 00 00 00 ................
00410F60 00 00 00 00 00 00 00 00 00 00 00 00 00 00 00 00 ................
00410F70 00 00 00 00 00 00 00 00 00 00 00 00 00 00 00 00 ................
00410F80 00 00 00 00 00 00 00 00 00 00 00 00 00 00 00 00 ................
00410F90 00 00 00 00 00 00 00 00 00 00 00 00 00 00 00 00 ................
00410FA0 00 00 00 00 00 00 00 00 00 00 00 00 00 00 00 00 ................
00410FB0 00 00 00 00 00 00 00 00 00 00 00 00 00 00 00 00 ................
00410FC0 00 00 00 00 00 00 00 00 00 00 00 00 00 00 00 00 ................
00410FD0 00 00 00 00 00 00 00 00 00 00 00 00 00 00 00 00 ................
00410FE0 00 00 00 00 00 00 00 00 00 00 00 00 00 00 00 00 ................
00410FF0 00 00 00 00 00 00 00 00 00 00 00 00 00 00 00 00 ................
