00400000 00 00 00 00 00 00 00 00 00 00 00 00 00 00 00 00 ................
00400010 00 00 00 00 00 00 00 00 00 00 00 00 00 00 00 00 ................
00400020 00 00 00 00 00 00 00 00 00 00 00 00 00 00 00 00 ................
00400030 00 00 00 00 00 00 00 00 00 00 00 00 00 00 00 00 ................
00400040 00 00 00 00 00 00 00 00 00 00 00 00 00 00 00 00 ................
00400050 00 00 00 00 00 00 00 00 00 00 00 00 00 00 00 00 ................
00400060 00 00 00 00 00 00 00 00 00 00 00 00 00 00 00 00 ................
00400070 00 00 00 00 00 00 00 00 00 00 00 00 00 00 00 00 ................
00400080 00 00 00 00 00 00 00 00 00 00 00 00 00 00 00 00 ................
00400090 00 00 00 00 00 00 00 00 00 00 00 00 00 00 00 00 ................
004000A0 00 00 00 00 00 00 00 00 00 00 00 00 00 00 00 00 ................
004000B0 00 00 00 00 00 00 00 00 00 00 00 00 00 00 00 00 ................
004000C0 00 00 00 00 00 00 00 00 00 00 00 00 00 00 00 00 ................
004000D0 00 00 00 00 00 00 00 00 00 00 00 00 00 00 00 00 ................
004000E0 00 00 00 00 00 00 00 00 00 00 00 00 00 00 00 00 ................
004000F0 00 00 00 00 00 00 00 00 00 00 00 00 00 00 00 00 ................
00400100 00 00 00 00 00 00 00 00 00 00 00 00 00 00 00 00 ................
00400110 00 00 00 00 00 00 00 00 00 00 00 00 00 00 00 00 ................
00400120 00 00 00 00 00 00 00 00 00 00 00 00 00 00 00 00 ................
00400130 00 00 00 00 00 00 00 00 00 00 00 00 00 00 00 00 ................
00400140 00 00 00 00 00 00 00 00 00 00 00 00 00 00 00 00 ................
00400150 00 00 00 00 00 00 00 00 00 00 00 00 00 00 00 00 ................
00400160 00 00 00 00 00 00 00 00 00 00 00 00 00 00 00 00 ................
00400170 00 00 00 00 00 00 00 00 00 00 00 00 00 00 00 00 ................
00400180 00 00 00 00 00 00 00 00 00 00 00 00 00 00 00 00 ................
00400190 00 00 00 00 00 00 00 00 00 00 00 00 00 00 00 00 ................
004001A0 00 00 00 00 00 00 00 00 00 00 00 00 00 00 00 00 ................
004001B0 00 00 00 00 00 00 00 00 00 00 00 00 00 00 00 00 ................
004001C0 00 00 00 00 00 00 00 00 00 00 00 00 00 00 00 00 ................
004001D0 00 00 00 00 00 00 00 00 00 00 00 00 00 00 00 00 ................
004001E0 00 00 00 00 00 00 00 00 00 00 00 00 00 00 00 00 ................
004001F0 00 00 00 00 00 00 00 00 00 00 00 00 00 00 00 00 ................
00400200 00 00 00 00 00 00 00 00 00 00 00 00 00 00 00 00 ................
00400210 00 00 00 00 00 00 00 00 00 00 00 00 00 00 00 00 ................
00400220 00 00 00 00 00 00 00 00 00 00 00 00 00 00 00 00 ................
00400230 00 00 00 00 00 00 00 00 00 00 00 00 00 00 00 00 ................
00400240 00 00 00 00 00 00 00 00 00 00 00 00 00 00 00 00 ................
00400250 00 00 00 00 00 00 00 00 00 00 00 00 00 00 00 00 ................
00400260 00 00 00 00 00 00 00 00 00 00 00 00 00 00 00 00 ................
00400270 00 00 00 00 00 00 00 00 00 00 00 00 00 00 00 00 ................
00400280 00 00 00 00 00 00 00 00 00 00 00 00 00 00 00 00 ................
00400290 00 00 00 00 00 00 00 00 00 00 00 00 00 00 00 00 ................
004002A0 00 00 00 00 00 00 00 00 00 00 00 00 00 00 00 00 ................
004002B0 00 00 00 00 00 00 00 00 00 00 00 00 00 00 00 00 ................
004002C0 00 00 00 00 00 00 00 00 00 00 00 00 00 00 00 00 ................
004002D0 00 00 00 00 00 00 00 00 00 00 00 00 00 00 00 00 ................
004002E0 00 00 00 00 00 00 00 00 00 00 00 00 00 00 00 00 ................
004002F0 00 00 00 00 00 00 00 00 00 00 00 00 00 00 00 00 ................
00400300 00 00 00 00 00 00 00 00 00 00 00 00 00 00 00 00 ................
00400310 00 00 00 00 00 00 00 00 00 00 00 00 00 00 00 00 ................
00400320 00 00 00 00 00 00 00 00 00 00 00 00 00 00 00 00 ................
00400330 00 00 00 00 00 00 00 00 00 00 00 00 00 00 00 00 ................
00400340 00 00 00 00 00 00 00 00 00 00 00 00 00 00 00 00 ................
00400350 00 00 00 00 00 00 00 00 00 00 00 00 00 00 00 00 ................
00400360 00 00 00 00 00 00 00 00 00 00 00 00 00 00 00 00 ................
00400370 00 00 00 00 00 00 00 00 00 00 00 00 00 00 00 00 ................
00400380 00 00 00 00 00 00 00 00 00 00 00 00 00 00 00 00 ................
00400390 00 00 00 00 00 00 00 00 00 00 00 00 00 00 00 00 ................
004003A0 00 00 00 00 00 00 00 00 00 00 00 00 00 00 00 00 ................
004003B0 00 00 00 00 00 00 00 00 00 00 00 00 00 00 00 00 ................
004003C0 00 00 00 00 00 00 00 00 00 00 00 00 00 00 00 00 ................
004003D0 00 00 00 00 00 00 00 00 00 00 00 00 00 00 00 00 ................
004003E0 00 00 00 00 00 00 00 00 00 00 00 00 00 00 00 00 ................
004003F0 00 00 00 00 00 00 00 00 00 00 00 00 00 00 00 00 ................
00400400 00 00 00 00 00 00 00 00 00 00 00 00 00 00 00 00 ................
00400410 00 00 00 00 00 00 00 00 00 00 00 00 00 00 00 00 ................
00400420 00 00 00 00 00 00 00 00 00 00 00 00 00 00 00 00 ................
00400430 00 00 00 00 00 00 00 00 00 00 00 00 00 00 00 00 ................
00400440 00 00 00 00 00 00 00 00 00 00 00 00 00 00 00 00 ................
00400450 00 00 00 00 00 00 00 00 00 00 00 00 00 00 00 00 ................
00400460 00 00 00 00 00 00 00 00 00 00 00 00 00 00 00 00 ................
00400470 00 00 00 00 00 00 00 00 00 00 00 00 00 00 00 00 ................
00400480 00 00 00 00 00 00 00 00 00 00 00 00 00 00 00 00 ................
00400490 00 00 00 00 00 00 00 00 00 00 00 00 00 00 00 00 ................
004004A0 00 00 00 00 00 00 00 00 00 00 00 00 00 00 00 00 ................
004004B0 00 00 00 00 00 00 00 00 00 00 00 00 00 00 00 00 ................
004004C0 00 00 00 00 00 00 00 00 00 00 00 00 00 00 00 00 ................
004004D0 00 00 00 00 00 00 00 00 00 00 00 00 00 00 00 00 ................
004004E0 00 00 00 00 00 00 00 00 00 00 00 00 00 00 00 00 ................
004004F0 00 00 00 00 00 00 00 00 00 00 00 00 00 00 00 00 ................
00400500 00 00 00 00 00 00 00 00 00 00 00 00 00 00 00 00 ................
00400510 00 00 00 00 00 00 00 00 00 00 00 00 00 00 00 00 ................
00400520 00 00 00 00 00 00 00 00 00 00 00 00 00 00 00 00 ................
00400530 00 00 00 00 00 00 00 00 00 00 00 00 00 00 00 00 ................
00400540 00 00 00 00 00 00 00 00 00 00 00 00 00 00 00 00 ................
00400550 00 00 00 00 00 00 00 00 00 00 00 00 00 00 00 00 ................
00400560 00 00 00 00 00 00 00 00 00 00 00 00 00 00 00 00 ................
00400570 00 00 00 00 00 00 00 00 00 00 00 00 00 00 00 00 ................
00400580 00 00 00 00 00 00 00 00 00 00 00 00 00 00 00 00 ................
00400590 00 00 00 00 00 00 00 00 00 00 00 00 00 00 00 00 ................
004005A0 00 00 00 00 00 00 00 00 00 00 00 00 00 00 00 00 ................
004005B0 00 00 00 00 00 00 00 00 00 00 00 00 00 00 00 00 ................
004005C0 00 00 00 00 00 00 00 00 00 00 00 00 00 00 00 00 ................
004005D0 00 00 00 00 00 00 00 00 00 00 00 00 00 00 00 00 ................
004005E0 00 00 00 00 00 00 00 00 00 00 00 00 00 00 00 00 ................
004005F0 00 00 00 00 00 00 00 00 00 00 00 00 00 00 00 00 ................
00400600 00 00 00 00 00 00 00 00 00 00 00 00 00 00 00 00 ................
00400610 00 00 00 00 00 00 00 00 00 00 00 00 00 00 00 00 ................
00400620 00 00 00 00 00 00 00 00 00 00 00 00 00 00 00 00 ................
00400630 00 00 00 00 00 00 00 00 00 00 00 00 00 00 00 00 ................
00400640 00 00 00 00 00 00 00 00 00 00 00 00 00 00 00 00 ................
00400650 00 00 00 00 00 00 00 00 00 00 00 00 00 00 00 00 ................
00400660 00 00 00 00 00 00 00 00 00 00 00 00 00 00 00 00 ................
00400670 00 00 00 00 00 00 00 00 00 00 00 00 00 00 00 00 ................
00400680 00 00 00 00 00 00 00 00 00 00 00 00 00 00 00 00 ................
00400690 00 00 00 00 00 00 00 00 00 00 00 00 00 00 00 00 ................
004006A0 00 00 00 00 00 00 00 00 00 00 00 00 00 00 00 00 ................
004006B0 00 00 00 00 00 00 00 00 00 00 00 00 00 00 00 00 ................
004006C0 00 00 00 00 00 00 00 00 00 00 00 00 00 00 00 00 ................
004006D0 00 00 00 00 00 00 00 00 00 00 00 00 00 00 00 00 ................
004006E0 00 00 00 00 00 00 00 00 00 00 00 00 00 00 00 00 ................
004006F0 00 00 00 00 00 00 00 00 00 00 00 00 00 00 00 00 ................
00400700 00 00 00 00 00 00 00 00 00 00 00 00 00 00 00 00 ................
00400710 00 00 00 00 00 00 00 00 00 00 00 00 00 00 00 00 ................
00400720 00 00 00 00 00 00 00 00 00 00 00 00 00 00 00 00 ................
00400730 00 00 00 00 00 00 00 00 00 00 00 00 00 00 00 00 ................
00400740 00 00 00 00 00 00 00 00 00 00 00 00 00 00 00 00 ................
00400750 00 00 00 00 00 00 00 00 00 00 00 00 00 00 00 00 ................
00400760 00 00 00 00 00 00 00 00 00 00 00 00 00 00 00 00 ................
00400770 00 00 00 00 00 00 00 00 00 00 00 00 00 00 00 00 ................
00400780 00 00 00 00 00 00 00 00 00 00 00 00 00 00 00 00 ................
00400790 00 00 00 00 00 00 00 00 00 00 00 00 00 00 00 00 ................
004007A0 00 00 00 00 00 00 00 00 00 00 00 00 00 00 00 00 ................
004007B0 00 00 00 00 00 00 00 00 00 00 00 00 00 00 00 00 ................
004007C0 00 00 00 00 00 00 00 00 00 00 00 00 00 00 00 00 ................
004007D0 00 00 00 00 00 00 00 00 00 00 00 00 00 00 00 00 ................
004007E0 00 00 00 00 00 00 00 00 00 00 00 00 00 00 00 00 ................
004007F0 00 00 00 00 00 00 00 00 00 00 00 00 00 00 00 00 ................
00400800 00 00 00 00 00 00 00 00 00 00 00 00 00 00 00 00 ................
00400810 00 00 00 00 00 00 00 00 00 00 00 00 00 00 00 00 ................
00400820 00 00 00 00 00 00 00 00 00 00 00 00 00 00 00 00 ................
00400830 00 00 00 00 00 00 00 00 00 00 00 00 00 00 00 00 ................
00400840 00 00 00 00 00 00 00 00 00 00 00 00 00 00 00 00 ................
00400850 00 00 00 00 00 00 00 00 00 00 00 00 00 00 00 00 ................
00400860 00 00 00 00 00 00 00 00 00 00 00 00 00 00 00 00 ................
00400870 00 00 00 00 00 00 00 00 00 00 00 00 00 00 00 00 ................
00400880 00 00 00 00 00 00 00 00 00 00 00 00 00 00 00 00 ................
00400890 00 00 00 00 00 00 00 00 00 00 00 00 00 00 00 00 ................
004008A0 00 00 00 00 00 00 00 00 00 00 00 00 00 00 00 00 ................
004008B0 00 00 00 00 00 00 00 00 00 00 00 00 00 00 00 00 ................
004008C0 00 00 00 00 00 00 00 00 00 00 00 00 00 00 00 00 ................
004008D0 00 00 00 00 00 00 00 00 00 00 00 00 00 00 00 00 ................
004008E0 00 00 00 00 00 00 00 00 00 00 00 00 00 00 00 00 ................
004008F0 00 00 00 00 00 00 00 00 00 00 00 00 00 00 00 00 ................
00400900 00 00 00 00 00 00 00 00 00 00 00 00 00 00 00 00 ................
00400910 00 00 00 00 00 00 00 00 00 00 00 00 00 00 00 00 ................
00400920 00 00 00 00 00 00 00 00 00 00 00 00 00 00 00 00 ................
00400930 00 00 00 00 00 00 00 00 00 00 00 00 00 00 00 00 ................
00400940 00 00 00 00 00 00 00 00 00 00 00 00 00 00 00 00 ................
00400950 00 00 00 00 00 00 00 00 00 00 00 00 00 00 00 00 ................
00400960 00 00 00 00 00 00 00 00 00 00 00 00 00 00 00 00 ................
00400970 00 00 00 00 00 00 00 00 00 00 00 00 00 00 00 00 ................
00400980 00 00 00 00 00 00 00 00 00 00 00 00 00 00 00 00 ................
00400990 00 00 00 00 00 00 00 00 00 00 00 00 00 00 00 00 ................
004009A0 00 00 00 00 00 00 00 00 00 00 00 00 00 00 00 00 ................
004009B0 00 00 00 00 00 00 00 00 00 00 00 00 00 00 00 00 ................
004009C0 00 00 00 00 00 00 00 00 00 00 00 00 00 00 00 00 ................
004009D0 00 00 00 00 00 00 00 00 00 00 00 00 00 00 00 00 ................
004009E0 00 00 00 00 00 00 00 00 00 00 00 00 00 00 00 00 ................
004009F0 00 00 00 00 00 00 00 00 00 00 00 00 00 00 00 00 ................
00400A00 00 00 00 00 00 00 00 00 00 00 00 00 00 00 00 00 ................
00400A10 00 00 00 00 00 00 00 00 00 00 00 00 00 00 00 00 ................
00400A20 00 00 00 00 00 00 00 00 00 00 00 00 00 00 00 00 ................
00400A30 00 00 00 00 00 00 00 00 00 00 00 00 00 00 00 00 ................
00400A40 00 00 00 00 00 00 00 00 00 00 00 00 00 00 00 00 ................
00400A50 00 00 00 00 00 00 00 00 00 00 00 00 00 00 00 00 ................
00400A60 00 00 00 00 00 00 00 00 00 00 00 00 00 00 00 00 ................
00400A70 00 00 00 00 00 00 00 00 00 00 00 00 00 00 00 00 ................
00400A80 00 00 00 00 00 00 00 00 00 00 00 00 00 00 00 00 ................
00400A90 00 00 00 00 00 00 00 00 00 00 00 00 00 00 00 00 ................
00400AA0 00 00 00 00 00 00 00 00 00 00 00 00 00 00 00 00 ................
00400AB0 00 00 00 00 00 00 00 00 00 00 00 00 00 00 00 00 ................
00400AC0 00 00 00 00 00 00 00 00 00 00 00 00 00 00 00 00 ................
00400AD0 00 00 00 00 00 00 00 00 00 00 00 00 00 00 00 00 ................
00400AE0 00 00 00 00 00 00 00 00 00 00 00 00 00 00 00 00 ................
00400AF0 00 00 00 00 00 00 00 00 00 00 00 00 00 00 00 00 ................
00400B00 00 00 00 00 00 00 00 00 00 00 00 00 00 00 00 00 ................
00400B10 00 00 00 00 00 00 00 00 00 00 00 00 00 00 00 00 ................
00400B20 00 00 00 00 00 00 00 00 00 00 00 00 00 00 00 00 ................
00400B30 00 00 00 00 00 00 00 00 00 00 00 00 00 00 00 00 ................
00400B40 00 00 00 00 00 00 00 00 00 00 00 00 00 00 00 00 ................
00400B50 00 00 00 00 00 00 00 00 00 00 00 00 00 00 00 00 ................
00400B60 00 00 00 00 00 00 00 00 00 00 00 00 00 00 00 00 ................
00400B70 00 00 00 00 00 00 00 00 00 00 00 00 00 00 00 00 ................
00400B80 00 00 00 00 00 00 00 00 00 00 00 00 00 00 00 00 ................
00400B90 00 00 00 00 00 00 00 00 00 00 00 00 00 00 00 00 ................
00400BA0 00 00 00 00 00 00 00 00 00 00 00 00 00 00 00 00 ................
00400BB0 00 00 00 00 00 00 00 00 00 00 00 00 00 00 00 00 ................
00400BC0 00 00 00 00 00 00 00 00 00 00 00 00 00 00 00 00 ................
00400BD0 00 00 00 00 00 00 00 00 00 00 00 00 00 00 00 00 ................
00400BE0 00 00 00 00 00 00 00 00 00 00 00 00 00 00 00 00 ................
00400BF0 00 00 00 00 00 00 00 00 00 00 00 00 00 00 00 00 ................
00400C00 00 00 00 00 00 00 00 00 00 00 00 00 00 00 00 00 ................
00400C10 00 00 00 00 00 00 00 00 00 00 00 00 00 00 00 00 ................
00400C20 00 00 00 00 00 00 00 00 00 00 00 00 00 00 00 00 ................
00400C30 00 00 00 00 00 00 00 00 00 00 00 00 00 00 00 00 ................
00400C40 00 00 00 00 00 00 00 00 00 00 00 00 00 00 00 00 ................
00400C50 00 00 00 00 00 00 00 00 00 00 00 00 00 00 00 00 ................
00400C60 00 00 00 00 00 00 00 00 00 00 00 00 00 00 00 00 ................
00400C70 00 00 00 00 00 00 00 00 00 00 00 00 00 00 00 00 ................
00400C80 00 00 00 00 00 00 00 00 00 00 00 00 00 00 00 00 ................
00400C90 00 00 00 00 00 00 00 00 00 00 00 00 00 00 00 00 ................
00400CA0 00 00 00 00 00 00 00 00 00 00 00 00 00 00 00 00 ................
00400CB0 00 00 00 00 00 00 00 00 00 00 00 00 00 00 00 00 ................
00400CC0 00 00 00 00 00 00 00 00 00 00 00 00 00 00 00 00 ................
00400CD0 00 00 00 00 00 00 00 00 00 00 00 00 00 00 00 00 ................
00400CE0 00 00 00 00 00 00 00 00 00 00 00 00 00 00 00 00 ................
00400CF0 00 00 00 00 00 00 00 00 00 00 00 00 00 00 00 00 ................
00400D00 00 00 00 00 00 00 00 00 00 00 00 00 00 00 00 00 ................
00400D10 00 00 00 00 00 00 00 00 00 00 00 00 00 00 00 00 ................
00400D20 00 00 00 00 00 00 00 00 00 00 00 00 00 00 00 00 ................
00400D30 00 00 00 00 00 00 00 00 00 00 00 00 00 00 00 00 ................
00400D40 00 00 00 00 00 00 00 00 00 00 00 00 00 00 00 00 ................
00400D50 00 00 00 00 00 00 00 00 00 00 00 00 00 00 00 00 ................
00400D60 00 00 00 00 00 00 00 00 00 00 00 00 00 00 00 00 ................
00400D70 00 00 00 00 00 00 00 00 00 00 00 00 00 00 00 00 ................
00400D80 00 00 00 00 00 00 00 00 00 00 00 00 00 00 00 00 ................
00400D90 00 00 00 00 00 00 00 00 00 00 00 00 00 00 00 00 ................
00400DA0 00 00 00 00 00 00 00 00 00 00 00 00 00 00 00 00 ................
00400DB0 00 00 00 00 00 00 00 00 00 00 00 00 00 00 00 00 ................
00400DC0 00 00 00 00 00 00 00 00 00 00 00 00 00 00 00 00 ................
00400DD0 00 00 00 00 00 00 00 00 00 00 00 00 00 00 00 00 ................
00400DE0 00 00 00 00 00 00 00 00 00 00 00 00 00 00 00 00 ................
00400DF0 00 00 00 00 00 00 00 00 00 00 00 00 00 00 00 00 ................
00400E00 00 00 00 00 00 00 00 00 00 00 00 00 00 00 00 00 ................
00400E10 00 00 00 00 00 00 00 00 00 00 00 00 00 00 00 00 ................
00400E20 00 00 00 00 00 00 00 00 00 00 00 00 00 00 00 00 ................
00400E30 00 00 00 00 00 00 00 00 00 00 00 00 00 00 00 00 ................
00400E40 00 00 00 00 00 00 00 00 00 00 00 00 00 00 00 00 ................
00400E50 00 00 00 00 00 00 00 00 00 00 00 00 00 00 00 00 ................
00400E60 00 00 00 00 00 00 00 00 00 00 00 00 00 00 00 00 ................
00400E70 00 00 00 00 00 00 00 00 00 00 00 00 00 00 00 00 ................
00400E80 00 00 00 00 00 00 00 00 00 00 00 00 00 00 00 00 ................
00400E90 00 00 00 00 00 00 00 00 00 00 00 00 00 00 00 00 ................
00400EA0 00 00 00 00 00 00 00 00 00 00 00 00 00 00 00 00 ................
00400EB0 00 00 00 00 00 00 00 00 00 00 00 00 00 00 00 00 ................
00400EC0 00 00 00 00 00 00 00 00 00 00 00 00 00 00 00 00 ................
00400ED0 00 00 00 00 00 00 00 00 00 00 00 00 00 00 00 00 ................
00400EE0 00 00 00 00 00 00 00 00 00 00 00 00 00 00 00 00 ................
00400EF0 00 00 00 00 00 00 00 00 00 00 00 00 00 00 00 00 ................
00400F00 00 00 00 00 00 00 00 00 00 00 00 00 00 00 00 00 ................
00400F10 00 00 00 00 00 00 00 00 00 00 00 00 00 00 00 00 ................
00400F20 00 00 00 00 00 00 00 00 00 00 00 00 00 00 00 00 ................
00400F30 00 00 00 00 00 00 00 00 00 00 00 00 00 00 00 00 ................
00400F40 00 00 00 00 00 00 00 00 00 00 00 00 00 00 00 00 ................
00400F50 00 00 00 00 00 00 00 00 00 00 00 00 00 00 00 00 ................
00400F60 00 00 00 00 00 00 00 00 00 00 00 00 00 00 00 00 ................
00400F70 00 00 00 00 00 00 00 00 00 00 00 00 00 00 00 00 ................
00400F80 00 00 00 00 00 00 00 00 00 00 00 00 00 00 00 00 ................
00400F90 00 00 00 00 00 00 00 00 00 00 00 00 00 00 00 00 ................
00400FA0 00 00 00 00 00 00 00 00 00 00 00 00 00 00 00 00 ................
00400FB0 00 00 00 00 00 00 00 00 00 00 00 00 00 00 00 00 ................
00400FC0 00 00 00 00 00 00 00 00 00 00 00 00 00 00 00 00 ................
00400FD0 00 00 00 00 00 00 00 00 00 00 00 00 00 00 00 00 ................
00400FE0 00 00 00 00 00 00 00 00 00 00 00 00 00 00 00 00 ................
00400FF0 00 00 00 00 00 00 00 00 00 00 00 00 00 00 00 00 ................
00401000 FF 74 74 FF 89 3C 24 8D 3F 5F 42 0B FB 8B D9 4E .tt..<$.?_B....N
00401010 0B D8 4B C1 E0 03 0B F0 4B 0B F2 4F 0B F9 E8 06 ..K.....K..O....
00401020 02 00 00 74 FF 25 74                            ...t.%t        

fn00401027()
	xchg	[esp],eax
	jge	0040102C

l0040102C:
	mov	cl,cl
	pop	eax
	or	edi,eax
	mov	edi,edx
	dec	ecx
	mov	ecx,edx
	inc	edx
	mov	edx,ecx
	mov	esi,BD6B978D
	mov	eax,edi
	or	ecx,ebx
	inc	edx
	dec	eax
	mov	edx,edi
	call	00401418
	call	74B5104F
	call	44D00F7A

fn00401053()
	pop	dword ptr [esp-30]
	dec	ebx
	or	ebx,edi
	dec	edi
	inc	ebx
	dec	ebx
	inc	edx
	or	ebx,eax
	dec	edx
	or	esi,ecx
	dec	edx
	inc	esi
	or	ebx,edi
	inc	edi
	dec	edi
	call	00401205
	jz	004010E4

l00401070:
	call	244C9A74

fn00401072()
	mov	[esp],ecx
	rep	
	pop	ecx
	dec	edi
	mov	edi,esi
	dec	ebx
	inc	esi
	mov	edx,esi
	inc	edx
	or	edi,eax
	mov	edx,ebx
	or	edi,eax
	inc	esi
	pop	ecx
	inc	edx
	or	edi,eax
	inc	ebx
	call	00401191
	jmp	dword ptr [E8E825FF]
	mov	[esp],eax
	push	edi
	pop	edi
	pop	eax
	dec	edi
	inc	edx
	dec	eax
	mov	ecx,edx
	or	esi,eax
	inc	edi
	mov	ebx,edi
	or	edx,eax
	mov	ecx,eax
	inc	edi
	mov	esi,edx
	inc	ecx
	mov	ebx,edx
	or	ecx,eax
	call	00401276
	call	E93FF930

fn004010BC()
	lea	esp,[esp+04]
	dec	esi
	mov	cl,al
	sub	ch,dh
	dec	edi
	inc	ecx
	xor	bh,cl
	mov	bl,77
	inc	edi
	xor	ch,bh
	mov	cl,4C
	sub	bh,bl
	mov	cl,bl
	xor	cl,al
	call	004011B7
	call	E86585C8
	lea	esp,[esp+04]

l004010E4:
	dec	edx
	or	edi,ebx
	dec	ebx
	or	esi,edx
	mov	esi,ecx
	dec	edx
	mov	esi,ecx
	dec	edi
	mov	esi,ebx
	dec	esi
	mov	edi,eax
	push	dword ptr [ecx+08]
	inc	esi
	mov	edi,ecx
	dec	esi
	mov	edx,edi
	call	00401072
	and	eax,E8747474

fn00401108()
	pop	dword ptr [esp-34]

l0040110C:
	mov	al,21
	add	esi,B3E90627
	mov	ch,al
	mov	ebx,edi
	cmp	esi,D9B2B44B
	jnz	0040110C

l00401120:
	mov	ecx,esi
	dec	ebx
	mov	edi,edx
	dec	edi
	mov	eax,esi
	or	edx,esi
	dec	ecx
	or	ecx,eax
	mov	edx,ebx
	inc	eax
	call	004013F5
	jz	00401136

l00401136:
	jmp	eax

l00401137:
	call	480E1CB0
00401138                         74                              t      

fn00401139()
	or	ecx,esi
	inc	edi
	dec	ebx
	mov	ecx,esi
	dec	ebx
	or	edi,edx
	inc	ebx
	or	edi,edx
	inc	esi
	dec	ebx
	mov	ecx,edi
	inc	edi
	or	edi,ebx
	dec	ecx
	or	ecx,esi
	inc	ebx
	dec	edi
	mov	esi,edx
	or	ecx,edx
	mov	edi,edx
	call	00401490
	push	dword ptr [ebp+74]
	jz	00401187

l00401162:
	call	046475F4

fn00401163()
	lea	esp,[esp+04]
	or	esi,ecx
	inc	edx
	dec	esi
	inc	edi
	or	edx,edi
	inc	edx
	dec	edx
	mov	edx,eax
	or	edi,ebx
	inc	edi
	or	edi,edx
	dec	edi
	inc	ebx
	or	esi,edi
	mov	edi,ebx
	or	edi,ecx
	sub	ecx,EEEEEEEE
	mov	edx,ecx

fn00401187()
	call	004012FA
	and	eax,2574FF25
	pop	dword ptr [esp-0C]
	mov	edx,esi
	or	edi,edx
	inc	edi
	or	ebx,ecx
	inc	edi
	or	esi,edi
	inc	ebx
	dec	ebx
	and	ecx,EEEEEEEE
	or	esi,eax
	inc	esi
	dec	esi
	mov	ebx,ecx
	call	00401163
	jz	00401228

l004011B4:
	push	dword ptr [esp+esi*2-71]

fn004011B7()
	pop	dword ptr [esp-0C]
	mov	ch,0F
	or	bl,bh
	or	edi,eax
	xor	bl,ah
	or	bh,al
	sub	bl,dh
	add	bl,ch
	mov	esi,edi
	mov	cl,82
	inc	edx
	mov	eax,esi
	inc	eax
	dec	ebx
	inc	eax
	mov	ebx,edx
	call	00401027

l004011D9:
	jmp	eax

fn004011DA()
	call	E9291104
004011DB                                  25 FF E8 E8 E8            %....

fn004011E0()
	mov	[esp],ecx
	lea	edi,[edi]
	jbe	004011E7

l004011E7:
	pop	ecx
	or	ebx,esi
	mov	edi,ecx
	dec	ebx
	inc	edi
	dec	edi
	inc	ebx
	or	edi,eax
	dec	edi
	mov	ebx,edi
	dec	edi
	inc	edi
	or	edx,ecx
	push	dword ptr [eax+ecx]
	call	00401324
	and	eax,8DFF7425

fn00401205()
	lea	esp,[esp+04]

fn00401206()
	and	al,04
	mov	edi,ecx
	dec	ebx
	mov	esi,edx
	or	edx,eax
	push	dword ptr [eax+ecx]
	mov	edx,eax
	or	ebx,esi
	mov	edx,eax
	or	edx,edi
	inc	esi
	dec	edx
	mov	edx,edi
	call	004014CC
	call	2628864E

l00401228:
	and	eax,0424648D
	mov	esi,edi
	inc	edx
	or	ebx,ecx
	mov	esi,ebx
	inc	edx
	or	eax,10
	dec	esi
	mov	ebx,esi
	dec	edx
	inc	ebx
	dec	edx
	inc	edi
	dec	ebx
	call	004013A3
	and	eax,2525FF25
	jz	004011D9

l0040124C:
	and	al,04
	xor	bh,dl
	dec	esi
	xor	bl,al
	or	edi,ebx
	mov	cl,bh
	or	bh,ah
	add	bh,bl
	mov	bh,84
	mov	edi,ecx
	sub	bh,bl
	or	bl,al
	add	ch,cl
	mov	bl,dl
	inc	ecx
	call	004010BC
	jmp	eax
00401270 74 E8 25 FF 25 E8 8F 44 24 F0 8B D6 4B 40 0B C6 t.%.%..D$...K@..
00401280 49 43 8B F8 4E 0B CF E9 87 02 00 00             IC..N.......   

fn0040128C()
	pop	dword ptr [esp-18]
	push	dword ptr fs:[eax]
	inc	esi
	or	ebx,ecx
	dec	edi
	inc	edi
	mov	edi,edx
	or	esi,ebx
	dec	esi
	or	edx,eax
	inc	ecx
	dec	edi
	inc	ebx
	dec	edi
	pop	ecx
	or	edi,ebx
	call	00401378
	jz	00401321

l004012AD:
	and	eax,0487E8FF

fn004012B0()
	xchg	[esp],eax

fn004012B2()
	and	al,50
	pop	eax
	pop	eax
	mov	ebx,eax
	or	edi,ebx
	mov	ebx,edi
	dec	ecx
	or	edi,edx
	dec	edx
	mov	edi,ecx
	or	edx,ebx
	mov	esi,ebx
	or	esi,ebx
	call	0040128C

fn004012CD()
	jz	004012CE

l004012CE:
	jmp	dword ptr [240C8725]

fn004012CF()
	and	eax,240C8725

fn004012D1()
	xchg	[esp],ecx

l004012D4:
	rep	
	jz	004012D7
	pop	ecx
	dec	edx
	or	ebx,edi
	inc	edx
	dec	esi
	or	edi,edx
	mov	ecx,[ecx]
	mov	esi,ebx
	dec	esi
	or	ebx,edx
	mov	ebx,edx
	or	edi,edx
	inc	edi
	or	edx,esi
	mov	edi,eax
	or	edx,eax
	call	004010E0
	call	883F38E3

fn004012FA()
	xchg	[esp],edi
	rep	
	mov	edx,edx
	pop	edi
	inc	ebx
	mov	edi,ebx
	dec	ebx
	mov	ebx,eax
	dec	esi
	inc	esi
	or	ebx,ecx
	dec	edi
	mov	ebx,eax
	inc	edx
	or	edi,ecx
	dec	ebx
	mov	esi,eax
	or	esi,ecx
	mov	ebx,edx
	inc	edi
	call	00401465
	push	dword ptr [esp+esi*2+74]

fn00401321()
	jz	00401348

l00401323:
	and	eax,0424648D

fn00401324()
	lea	esp,[esp+04]
	dec	edi
	inc	edx
	mov	edi,ecx
	or	edi,edx
	dec	edx
	or	esi,edx
	mov	edx,ecx
	dec	esi
	or	esi,edx
	dec	edi
	pop	ecx
	mov	edx,edi
	or	edi,edx
	inc	esi
	dec	ebx
	inc	ebx
	or	edi,esi
	call	004012D1
	call	E93F8833

l00401348:
	jz	00401349

l00401349:
	jmp	eax

l0040134A:
	call	64CD394E
0040134B                                  FF 25                     .%  

fn0040134D()
	lea	esp,[esp+04]
	dec	ebx
	mov	edx,eax
	inc	edi
	dec	edi
	mov	ebx,ecx
	inc	esi
	dec	edi
	mov	esi,eax
	or	ecx,ebx
	dec	edx
	shl	eax,03
	inc	ecx
	mov	edx,edi
	dec	ebx
	mov	edx,esi
	inc	ebx
	dec	edi
	inc	edx
	call	004012B0
	jz	00401397
	and	eax,E8E874E8
	call	04647809

fn00401378()
	lea	esp,[esp+04]
	inc	edi
	or	ebx,eax
	mov	edx,eax
	inc	esi
	dec	edx
	or	edi,edx
	mov	edi,ebx
	or	edi,esi
	inc	edi
	or	ebx,edi
	dec	ebx
	or	ebx,edi
	mov	ebx,edi
	inc	edx
	dec	ebx
	inc	ebx
	shl	eax,01
	mov	esi,ebx

l00401397:
	rep	
	call	00401053
	call	74661316
	dec	dword ptr [edi+8BE82444]

fn004013A3()
	pop	dword ptr [esp-18]
	mov	edi,ebx
	inc	ebx
	dec	edi
	or	esi,edi
	mov	edx,edi
	dec	esi
	inc	ebx
	dec	edx
	or	ebx,edx
	mov	esi,ecx
	dec	edi
	inc	ebx
	dec	esi
	movzx	eax,al
	dec	edi
	or	ebx,ecx
	inc	esi
	dec	esi
	call	004011E0
	call	2628FCB3
	jz	004013CC
	mov	[esp],edx
	jmp	004013D5
	pop	edx
	dec	ebx
	or	esi,ecx
	inc	edi
	xor	bh,cl
	mov	ch,FC
	sub	cl,bl
	dec	ecx
	inc	edi
	or	esi,ecx
	or	cl,bl
	sub	ch,al
	mov	ch,42
	sub	ch,cl
	call	0040124B
	jmp	dword ptr [448FE8FF]

fn004013F5()
	pop	dword ptr [esp-10]
	dec	ebx
	or	eax,ecx
	inc	eax
	mov	eax,esp
	or	ecx,esi
	inc	esi
	dec	ebx
	inc	ebx
	dec	ebx
	or	ecx,edi
	mov	ecx,ebx
	or	esi,ecx
	mov	ecx,edi
	or	ebx,esi
	call	0040143C
	call	8E283A18

fn00401418()
	lea	esp,[esp+04]
	dec	ebx
	inc	edx
	mov	edi,eax
	dec	edx
	inc	eax
	dec	edx
	or	edi,ebx
	mov	eax,edi
	or	eax,ebx
	mov	eax,ebx
	or	eax,ebx
	dec	eax
	inc	edi
	or	ecx,edi
	call	00401108
	jmp	eax
00401438                         E8 74 74 FF                     .tt.   

fn0040143C()
	lea	esp,[esp+04]
	not	eax
	inc	ebx
	dec	ebx
	or	esi,eax
	mov	edx,ebx
	dec	edx
	inc	ebx
	mov	esi,edx
	or	edx,eax
	dec	esi
	inc	ebx
	and	eax,03
	mov	ebx,esi
	or	esi,edx
	inc	esi
	call	0040134D
	and	eax,25E82525
	call	44CF8966
	and	al,F0
	mov	esi,ebx
	or	ebx,ecx
	mov	edx,ecx
	or	ecx,ecx
	jz	00401474
	ret	
	mov	eax,ecx
	dec	ebx
	or	ecx,eax
	mov	esi,edi
	or	ebx,eax
	inc	edi
	mov	eax,edi
	or	ebx,ecx
	dec	esi
	or	eax,esi
	mov	eax,esi
	call	00401096
	jmp	dword ptr [14892574]

fn00401490()
	mov	[esp],edx
	nop	
	pop	edx
	inc	ecx
	mov	edi,eax
	or	ecx,edi
	inc	edi
	dec	esi
	inc	ebx
	dec	ecx
	or	edi,ecx
	inc	ecx
	dec	esi
	mov	ecx,ebx
	inc	ecx
	dec	ebx
	call	004014EB
	illegal	
	illegal	

fn004014AF()
	mov	[esp],ebx
	rep	
	pop	ebx
	inc	esi
	dec	edx
	mov	edx,ecx
	dec	edx
	inc	edi
	dec	edi
	mov	edi,ecx
	dec	esi
	or	edi,ecx
	mov	ebx,eax
	call	00401004
	and	eax,FFFF74E8

fn004014CC()
	lea	esp,[esp+04]
	inc	edi
	mov	edi,ecx
	dec	esi
	mov	edx,ebx
	or	edx,edi
	dec	edi
	mov	edi,esi
	pop	ecx
	or	edi,eax
	dec	ebx
	or	edi,eax
	dec	edx
	call	004014AF
	and	eax,8725FF25

fn004014EB()
	xchg	[esp],edi

fn004014EC()
	cmp	al,24
	repne	
	mov	al,al
	pop	edi
	inc	edi
	dec	ecx
	or	ecx,edi
	mov	ebx,ecx
	inc	ebx
	mov	esi,ebx
	dec	ebx
	or	ebx,edi
	dec	ecx
	or	ebx,edi
	inc	esi
	or	edi,esi
	inc	ecx
	mov	ebx,edi
	call	004013CD
	call	74B489F9
	push	dword ptr [eax+ebp*8+72]
	illegal	
	add	bh,ah
	out	83,al
	jmp	far EA83:B5B5
	xor	ch,[esi]
	and	dl,[ebp-73]
	push	edi
	cmc	
	push	ebp
	or	eax,esi
	xchg	[edi+57125587],eax
	push	ebp
	xor	dl,[edi+55]
	mov	cl,57
	shr	[ebx-25],cl
	inc	ebx
	outsd	
	xchg	[edi+92176E55],eax
	test	eax,67A9833B
	inc	ebp
	outsb	
	daa	
	sub	dword ptr [ecx+176E4547],DB
	sub	dword ptr [ebx-79],87
	push	ebp
	scasb	
	illegal	
	imul	eax,[edi+EAE7B587],B5
	mov	ch,83
	mov	ch,45
	push	C7
	in	eax,87
	scasb	
	xchg	[edi+E5E76A45],eax
	xchg	[esi+6A458787],ebp
	mul	ebp
	retf	
	sahf	
	add	esp,[ebp+55D76A45]
	push	00
	jnc	00401509
	xchg	eax,esi
	push	ebp
	inc	si
	pop	ebp
	dec	edx
	adc	ch,bl
	xchg	[ebx+B5D310A9],al
	mov	ch,83
	mov	ch,E7
	adc	dword ptr [ebp+2A],67
	push	ebp
	xchg	[ebp+A7557873],ah
	push	ebp
	lds	eax,[edi]
	jnc	00401564
	push	ebp
	daa	
	pop	ebp
	dec	edx
	xchg	eax,edi
	push	ebp
	or	dl,[edi-4E]
	pop	esp
	fld	tword ptr [ebp+63]
	xchg	[edi+734F553A],eax
	pop	eax
	mov	dl,80
	illegal	
	ja	00401547
	xchg	[eax+eax*4+63],edi
	mov	esi,14DB7A7B
	ja	00401552
	xchg	[ebx+E783EA83],eax
	mov	ch,EA
	add	dword ptr [eax+26],DC
	ja	00401560
	xchg	[edi+5B947143],eax
	xchg	[edi+878773A0],eax
	xchg	[edx+E749ED38],esi
	in	eax,dx
	push	ecx
	out	3C,al
	pusha	
	mov	ebp,A76A559B
	pop	ebp
	push	20
	push	ebp
	push	D7
	fistp	dword ptr [eax]
	xchg	[edi+83B5B587],eax
	mov	ch,E7
	sub	dword ptr [ecx+7373E700],87
	xchg	[ebp+6A],edx
	add	[ebp+60],dl
	jnc	0040159A
	xchg	eax,esi
	push	ebp
	xchg	dh,ah
	jnc	00401696
	pop	ebp
	push	40
	sub	dword ptr [ecx+E787DDE7],29
	jg	004015AD
	xchg	[ebp+6A],ebx
	xor	[ebp+0A],dl
	add	bl,bl
	lahf	
	jnc	004015B8
	xchg	[ebp+B5EA83E7],esi
	out	83,al
	jmp	far 75D7:552A
	jo	00401607
	sub	dword ptr [ecx+A76A4D67],46
	in	eax,61
	add	al,[esi]
	add	bh,ah
	wait	
	outsd	
	xchg	[edi+A3700EE5],eax
	iret	
	inc	esi
	out	56,al
	jpo	004015E2
	xchg	[ebx+4D7BDD40],eax
	push	A7
	inc	esi
	dec	ebp
	push	B7
	inc	esi
	in	eax,61
	add	al,[esi]
	add	bh,ah
	and	[edi-79],ch
	xchg	ebx,ebx
	and	ebp,[edi-79]
	xchg	[ebx+B5EAB5B5],eax
	mov	ch,3A
	push	ebp
	jc	004016B8
	jnc	004016ED
	xor	[ebp+52],dl
	push	edi
	jnc	004016D3
	add	[ebx+3A4647B1],al
	out	92,al
	jpo	0040161A
	xchg	[ebp+72],edx
	push	edi
	jnc	00401703
	add	[ebx+B183F6B1],al
	inc	esi
	out	DD,al
	jg	0040162C
	xchg	ebx,ebx
	xor	ebx,[ebx-79]
	xchg	edx,ebp
	and	edi,E7
	jmp	far 0264:55E7
	push	cs
	pop	esp
	js	0040170F
	xchg	[edx],ebp
	push	ebp
	xlat	
	and	dh,[edx+574A5580]
	push	ebp
	lea	esp,[edi-4D]
	fadd	dword ptr [edx]
	pop	esp
	js	00401732
	xchg	[edx],ebp
	push	ebp
	xlat	
	fist	dword ptr [esi-71]
	add	dword ptr [ebx+B58383EA],E7
	jmp	far 47D3:7FD3
	jl	004016C8
	inc	ebx
	jl	004016E4
	inc	ebx
	inc	ebx
	movsb	
	jge	004016C5
	dec	edx
	push	ds
	xchg	[edi+D7A95C53],eax
	pop	ebp
	push	00
	xchg	eax,edi
	in	eax,87
	xchg	[edi+976A4587],eax
	in	eax,58
	lds	edi,ecx
	inc	dword ptr [ebp+6A]
	cmpsd	
	in	eax,50
	push	eax
	push	eax
	push	eax
	inc	ebp
	push	B7
	in	eax,50
	push	eax
	push	eax
	push	eax
	fist	dword ptr [edx-71]
	add	dword ptr [ebx+B5E7EAE7],83
	sbb	dword ptr [eax+edi*2+57],87
	sub	dl,[ebp-29]
	sub	dword ptr [ecx+E583DD67],61
	add	al,[esi]
	add	bh,ah
	das	
	outsd	
	xchg	[edi+71D2F3E5],eax
	sub	al,46
	out	D9,al
	xchg	[edi+5C408387],eax
	js	004017BB
	xchg	ebx,ebx
	mov	dword ptr [edi+B5E78383],EAB5E7B5
	out	B5,al
	push	ebp
	push	edi
	push	ebp
	sbb	[ebp+74],dh
	push	edi
	push	ebp
	push	edi
	push	ebp
	aas	
	fist	dword ptr [esi+7B]
	xchg	[edi+B2C65E55],eax
	adc	bl,67
	jl	004016ED
	arpl	[esi+7F7C757B],bx
	in	eax,dx
	jnz	00401710
	xchg	[ecx+9F79AABF],ebp
	inc	esi
	push	edx
	illegal	
	jpo	00401709
	xchg	[ebp+E7B5EA83],esi
	xor	dword ptr [ebp-25],7F
	push	ebx
	pop	esp
	inc	ebx
	insd	
	sar	dword ptr [edi-79],01
	xchg	[ebx+12],esi
	ja	0040180D
	xchg	eax,ebp
	ja	00401802
	inc	ebx
	dec	esi
	jg	00401727
	xchg	[edx],eax
	push	cs
	adc	bl,[eax+edi*2+67]
	xchg	[edx],ebp
	push	ebp
	xlat	
	jnz	0040181D
	xchg	eax,edi
	xor	ch,[esi]
	and	dl,[ebp+6A]
	jnc	0040173C
	xchg	eax,esi
	fistp	dword ptr [eax]
	mov	eax,[ebx+83EA8383]
	out	B5,al
	out	E5,al
	aam	E5
	jnc	0040177E
	inc	esi
	out	14,al
	add	dword ptr [ebx+2A744683],55
	xlat	
	and	dl,cs:[ebp+4A]
	inc	edi
	push	ebp
	test	eax,678D5557
	mov	bl,F0
	illegal	
	pop	dword ptr [ebx+B5B5B583]
	jmp	far B5B5:B5EA
	sub	dword ptr [ecx+4AE732F7],6F
	xchg	[edi+77976AA3],eax
	xchg	[edi+4653B587],eax
	sub	dword ptr [ecx+73D0E730],87
	xchg	ebx,edx
	push	edi
	sub	dword ptr [ecx+A98346F7],30
	out	98,al
	add	dword ptr [ebx+976AA383],47
	xchg	[edi+7F714387],eax
	ja	004017A8
	xchg	ebx,ebx
	fisubr	dword ptr [edi-79]
	xchg	edx,ebp
	jmp	far A955:83B5
	push	ebp
	pop	dword ptr [ebp+4A]
	push	edi
	push	ebp
	sub	al,[edi+7D]
	jl	00401871
	ja	004017C2
	xchg	ebx,ebx
	add	eax,7D87876B
	fstp	tword ptr [eax]
	ja	004017CD
	xchg	eax,edx
	cmp	bl,[ecx+58]
	cmp	dword ptr [ebx+38487F33],38585980
	pusha	
	illegal	
	imul	eax,[edi+83E7B587],B5
	xor	dword ptr [edx+7BDDE780],87
	xchg	[ecx+7A7FB4CA],esi
	rol	byte ptr [edi-19],0E
	jpo	004017F9
	xchg	[edi],edi
	xor	byte ptr [ecx+626D43A3],7B
	xchg	[edi+737EDBD8],eax
	xchg	[edi+876B7DE7],eax
	xchg	edx,edx
	push	esp
	test	eax,6BADE73E
	xchg	[edi+877BDEDB],eax
	xchg	eax,edx
	cmp	al,E7
	rcr	[edx+EAB5E783],cl
	jmp	far A967:6A92
	arpl	[ebp+7E],bx
	daa	
	ror	[edi-2D],cl
	ja	00401902
	aas	
	mov	dl,80
	xchg	eax,edx
	xor	al,43
	insd	
	ror	byte ptr [edi+5C128383],01
	js	00401933
	xchg	[edx],ebp
	push	ebp
	xlat	
	fld	double ptr [esi+87C687E5]
	xchg	ebx,ebx
	xor	[edi-79],esi
	xchg	[ebx+83B5E7E7],eax
	mov	ch,EA
	add	dword ptr [ebx+71],82
	imul	eax,[edi+D35C3387],F6
	cmp	eax,67007C66
	shl	bh,01
	illegal	
	xchg	[edi+878D878A],eax
	xchg	[ecx+6B97813F],esi
	inc	ebx
	jnz	00401962
	xchg	[edi+85A77587],eax
	inc	ebx
	mov	gs:[edi+DB7A8787],es
	test	al,87
	xchg	[edi+E7EAB5EA],eax
	jmp	far 2AE7:B583
	push	ebp
	xlat	
	jnz	00401985
	xchg	eax,edi
	dec	ebp
	push	97
	inc	esi
	sub	dword ptr [ecx+576A4D47],46
	dec	ebp
	push	67
	inc	esi
	fld	double ptr [ebx+060261E5]
	add	bh,ah
	sbb	esi,[edi-79]
	xchg	ebp,esp
	nop	
	push	edi
	push	D5E746B1
	pop	dword ptr [ebx+55408383]
	push	97
	illegal	
	mov	eax,[ebx+8383B583]
	out	7D,al
	lea	edx,[edi-7D]
	add	dword ptr [edi+835FA187],A9
	push	edi
	fld	double ptr [edi+876BCFDB]
	xchg	ebp,ebx
	xchg	[ebp+6A],ecx
	mov	bh,46
	sub	dword ptr [ecx+61E54657],02
	push	es
	add	bh,ah
	sbb	al,73
	xchg	[edi+A3700EE5],eax
	iret	
	illegal	
	imul	eax,[edi+E7EAB587],83
	xor	dword ptr [ebp+6A5522E7],57
	shr	[edx+37],cl
	pop	ebp
	push	57
	pop	ebp
	push	A7
	or	dword ptr [ebp+71438747],87876FA1
	inc	ebx
	test	al,6A
	inc	edi
	pop	ebp
	push	97
	push	ebp
	test	eax,438F5567
	test	al,0A
	cmp	ebx,ebx
	outsd	
	xchg	[edi+5F578D75],eax
	illegal	
	jnc	0040193D
	xchg	[ebp+E7EAE7EA],esi
	jmp	far 552D:7AEA
	insb	
	mov	ah,7B
	push	ebp
	mov	[F0B3C7D2],eax
	push	cs
	illegal	
	jpo	00401957
	xchg	[edi+38],edi
	inc	ebx
	insd	
	retf	8777
	xchg	[ecx+2F],ebx
	outsb	
	illegal	
	ja	00401967
	xchg	edx,ebp
	mov	ch,83
	and	edi,EA
	jnc	004019F3
	illegal	
	mov	eax,[ebx+77525583]
	jnz	004019CF
	push	ebp
	mov	bl,75
	push	8B4DDB67
	add	dword ptr [ebx+436FA443],A4
	cmpsd	
	in	eax,dx
	jge	004019EB
	add	dword ptr [ebx-13],7C
	out	57,al
	mov	[97A77540],eax
	test	eax,73927363
	lea	esp,[edi+7B]
	and	esi,[ebp+68]
	jg	004019FB
	jmp	EAC39DB0
	jmp	far 83B5:E783
	and	edi,73
	adc	dl,[esi+7B07747D]
	xchg	[edi+73571255],eax
	or	al,[eax]
	sub	dword ptr [ecx+F7A983D7],32
	out	A6,al
	jpo	004019CD
	xchg	[ebx+8767976A],esp
	xchg	[edi+A9833FB5],eax
	mov	dword ptr [ebx+A983B7A9],4BE732F7
	imul	eax,[edi+F76A5D87],83
	test	eax,8B79DBA7
	add	dword ptr [ebx+B5E783EA],83
	mov	ch,5C
	push	ebp
	mov	bh,75
	push	8687E547
	xchg	[edi+80F6565D],eax
	dec	ebp
	push	esi
	test	byte ptr [eax+F6365D3A],80
	dec	ebp
	test	byte ptr ss:[eax+4683DD3E],E5
	popa	
	add	al,[esi]
	add	bh,ah
	sar	byte ptr [edi-79],87
	illegal	
	mov	eax,[ebx+E7EA8383]
	jmp	far 8383:B5E7
	sbb	dword ptr [edx+3B6D4387],AA838393
	jns	00401A52
	inc	esi
	push	edx
	xchg	eax,edx
	jz	00401AFB
	insd	
	lodsd	
	jg	00401A43
	xchg	[ebp+62],edx
	div	byte ptr [ebx+78]
	sbb	al,[ebx-5C]
	push	edi
	push	bp
	bound	edx,[edi]
	jnc	00401B44
	push	ebp
	ja	00401B30
	jnc	00401B49
	illegal	
	jg	00401A5C
	xchg	ebx,ebx
	jg	00401A61
	xchg	edi,esp
	and	edi,E7
	adc	al,77
	test	byte ptr [eax],7C
	inc	ebx
	sar	[ebp+ecx*2+5A],cl
	jpo	00401B68
	wait	
	mov	al,[A9876F4D]
	jpe	00401B19
	adc	al,37
	mul	byte ptr [esi]
	mov	dl,80
	fistp	dword ptr [ebp+77]
	xchg	[edi+61E53646],eax
	add	al,[esi]
	add	bh,ah
	xchg	[edi-79],bh
	xchg	ebp,esp
	loope	00401AF4
	mov	ch,[eax-25]
	fsave	word ptr [edi-79]
	xchg	[ebx+838383B5],eax
	jmp	far 552A:EA83
	xlat	
	jnz	00401B91
	push	eax
	xor	bl,ch
	xchg	[ebx-46],eax
	push	ebp
	pusha	
	jge	00401B26
	add	dword ptr [edi+7BDD8787],D3
	movsb	
	adc	eax,7714401C
	not	byte ptr [edi+esi*2]
	test	byte ptr [eax],7C
	adc	al,77
	test	byte ptr [ebx-2D],34
	or	[ebx+edx*8+25],bh
	add	dword ptr [ebx+BF92EAEA],43
	insd	
	fistp	dword ptr [ebx+0E028383]
	adc	bl,[eax+edi*2+57]
	xchg	[edx],ebp
	push	ebp
	xlat	
	jnz	00401BD0
	xchg	eax,edi
	xor	ch,[esi]
	and	dl,[ebp+0A]
	jnc	00401B7B
	xchg	eax,esi
	dec	ebp
	adc	eax,87878781
	push	ebp
	adc	ebx,ebx
	push	es
	jnc	00401AFD
	xchg	edx,ebp
	jmp	far B583:E7B5
	jmp	far D755:2AE7
	xor	dl,[ebp+4A]
	push	edi
	push	ebp
	or	ah,[edi-25]
	in	al,7F
	xchg	[edi+AA476A55],eax
	sub	al,83
	aas	
	stosb	
	jl	00401BF8
	cmp	ecx,edx
	mov	ebp,5D3729FB
	push	47
	mov	dl,38
	mov	[95DB57A9],eax
	jg	00401B31
	xchg	edi,esp
	mov	ch,EA
	mov	ch,5C
	js	00401C09
	xchg	[edx],ebp
	push	ebp
	xlat	
	push	es
	push	ebp
	test	eax,678D5557
	xchg	eax,edi
	mov	eax,F014B281
	mov	ah,7F
	out	63,al
	pop	dword ptr [ebx+B2AFB183]
	pop	esp
	out	8F,al
	mov	eax,[ebx+D8754383]
	xchg	eax,edi
	add	dword ptr [ebx+839779DB],83
	out	83,al
	add	dword ptr [ebx+4DE7E783],6A
	push	edi
	inc	esi
	dec	ebp
	push	67
	inc	esi
	fld	double ptr [ebx+060261E5]
	add	bh,ah
	cmp	bh,[ebx-79]
	xchg	ebp,esp
	aam	E5
	jnc	00401BB5
	inc	esi
	out	F0,al
	xchg	eax,ebx
	add	dword ptr [ebx+785C4083],67
	xchg	ebx,ebx
	jpo	00401B98
	add	dword ptr [ebx+E7B583B5],EA
	sub	edx,EA
	pop	ebp
	push	00
	cmc	
	push	ebp
	dec	ebx
	mov	byte ptr [edi+7A5D8787],67
	sub	dword ptr [ecx+00A98310],E7
	pop	ecx
	lahf	
	add	dword ptr [ebx+73300A55],12
	xchg	eax,esi
	xor	dword ptr [ecx+30A98336],83
	test	eax,9351E700
	add	dword ptr [ebx+6F52A443],7D
	jz	00401BF1
	xchg	[edi+73B9DB87],eax
	xchg	[edi+839FEEDB],eax
	sub	edx,EA
	sub	edx,EA
	jmp	far A983:46B5
	xchg	eax,edi
	out	79,al
	xchg	[edi+8E75D487],eax
	xchg	[ebx+6D],eax
	in	al,dx
	jg	00401BF7
	xchg	[ebp+74],esi
	aaa	
	jnz	00401C0B
	push	edi
	xchg	[ebx+6D],eax
	fstcw	word ptr [edi-79]
	xchg	[edx],eax
	push	cs
	adc	bl,[eax+edi*2+77]
	xchg	[edx],ebp
	push	ebp
	xlat	
	shl	[ebp+E7EAE783],cl
	in	eax,33
	mov	ecx,E746BC53
	inc	ebx
	xchg	eax,ebx
	add	dword ptr [ebx+6A4D4083],C7
	inc	esi
	dec	ebp
	push	B7
	inc	esi
	fld	double ptr [edi+61E587DD]
	add	al,[esi]
	add	bh,ah
	sbb	eax,E5878787
	test	al,83
	div	byte ptr [edx+B563D346]
	out	83,al
	mov	ch,B5
	out	EA,al
	out	F3,al
	lahf	
	add	dword ptr [ebx+6A4D4083],B7
	inc	esi
	in	eax,61
	add	al,[esi]
	add	bh,ah
	test	eax,E5878787
	jl	00401CA6
	and	[ebx+9F60E746],bh
	add	dword ptr [ebx+6A554083],C7
	pop	esp
	js	00401D5F
	xchg	[edx],ebp
	push	ebp
	xlat	
	jnz	00401D5E
	mov	bh,4D
	push	97
	inc	esi
	fstp	tword ptr [esi]
	xchg	eax,edi
	add	dword ptr [ebx+EAEAB5B5],83
	jmp	far 5522:2E32
	or	ah,[edi+55]
	xor	al,D2
	sub	dl,[edi+73]
	adc	dl,[esi+8701154D]
	xchg	[edi+4A551355],eax
	push	ebx
	adc	al,43
	jno	00401D95
	lahf	
	add	dword ptr [ebx+43574A92],71
	popf	
	lahf	
	add	dword ptr [ebx+839798DB],83
	jmp	far D383:83E7
	jg	00401CE6
	sbb	byte ptr [edx],75
	push	4A927A77
	xchg	eax,edi
	inc	ebx
	jns	00401CFD
	cmpsd	
	add	dword ptr [ebx+5C120E02],78
	xchg	[bp+si],ebp
	push	ebp
	xlat	
	xor	dh,ch
	push	ebp
	sub	eax,esi
	xchg	[edi+9BA7DB87],eax
	add	dword ptr [ebx+B58383B5],E7
	or	dword ptr [ebp+6A],57
	inc	esi
	fld	double ptr [edi+46676A4D]
	fld	double ptr [ebx+060261E5]
	add	bh,ah
	xor	[ebx+EDE58383],al
	xor	bh,[edi+7E]
	inc	esi
	out	E2,al
	lahf	
	add	dword ptr [ebx+6A554083],67
	pop	esp
	js	00401DF0
	xchg	[edx],ebp
	push	ebp
	xlat	
	in	eax,87
	add	dword ptr [edi+8F4EDB87],83838383
	jmp	far 7943:83B5
	cmp	bh,[edi-79]
	xchg	[ebp+74],edx
	mov	dl,38
	pushf	
	pop	edi
	xchg	[edi+73BBA387],eax
	and	[ebx+1C],dh
	jnc	00401DCB
	push	ebp
	pop	eax
	mov	bl,F0
	jnc	00401D62
	xchg	eax,edi
	jnz	00401D9B
	pop	edi
	mov	[B3585518],eax
	lock	
	illegal	
	jg	00401D4E
	xchg	[ebx+E783E7EA],eax
	sub	edx,1A
	fdiv	dword ptr [ebx+3C]
	jl	00401E4D
	jnc	00401D7A
	sbb	al,A3
	cmp	al,7D
	jl	00401E15
	ja	00401D66
	xchg	[ebp-65],edi
	cmp	[edi-79],dh
	xchg	[ebx+6D],eax
	sub	bl,[edi+6A558383]
	push	ebp
	dec	edx
	push	edi
	push	ebp
	sub	al,[edi-46]
	mov	edx,DB0E0247
	les	ecx,[ebx+EAE78383]
	mov	ch,B5
	aas	
	cmp	[edx+esi*4+5C],dh
	jpe	00401DF2
	js	00401DA0
	add	dword ptr [ebx+94E75C33],93
	add	dword ptr [ebx+D274BFBD],91
	mul	dh
	pop	ebp
	xchg	eax,ecx
	not	byte ptr [edi]
	stc	
	pop	esp
	js	00401E8C
	xchg	[ecx+76],ebx
	sbb	eax,[ebx+611FF659]
	cmc	
	sbb	eax,[ebx+5A1F7761]
	push	ebx
	pop	esp
	inc	ebx
	insd	
	cmp	cl,[ebx+5C128383]
	js	00401E98
	xchg	[edx],ebp
	push	ebp
	xlat	
	and	bl,bl
	add	al,9B
	add	dword ptr [ebx+83E783EA],83
	test	eax,A758E700
	add	dword ptr [ebx+8310A983],A9
	add	bh,ah
	loop	00401DE4
	add	dword ptr [ebx+73300A55],12
	xchg	eax,esi
	dec	ebp
	adc	ah,[edi]
	xor	dword ptr [ecx+106A45A6],83
	mov	cl,A6
	xor	dword ptr [ecx+A6B18317],83
	mov	cl,17
	xor	dword ptr [ecx+A711E717],83
	and	edi,83
	pop	dword ptr [ebx+9FCAE783]
	add	dword ptr [ebx+838B79DB],83
	jmp	far E7E7:B5E7
	jmp	far 8300:0A55
	test	eax,40A98350
	xor	ah,bh
	illegal	
	add	dword ptr [ebx+97D4E732],83
	adc	dword ptr [ebp+74],73
	xchg	[esi+32B6C583],dl
	out	64,al
	mov	eax,[ebx+879C1283]
	inc	edi
	xchg	[edi+55202A55],eax
	push	50
	illegal	
	xchg	eax,ebx
	add	dword ptr [ebx+E7E7E7E7],EA
	mov	ch,E7
	out	53,al
	adc	al,43
	jno	00401EE1
	mov	eax,[ebx+670A7383]
	illegal	
	mov	eax,[ebx+57725583]
	jnc	00401F56
	inc	esi
	out	62,al
	mov	[6A5D8383],eax
	xchg	eax,edi
	jnz	00401E8A
	xchg	[ebp+D3B2555F],esi
	pop	ebx
	shl	[edi-7D],cl
	jmp	far B155:83EA
	inc	edi
	jnc	00401EB3
	push	ebp
	xchg	eax,ebp
	inc	edi
	jnc	00401E9D
	fstp	tword ptr [838B]
	or	esp,DC
	xchg	[edi+33B58187],eax
	stosb	
	xchg	[edi+83468187],eax
	test	eax,8B8CE797
	add	dword ptr [ebx+838BAEDB],83
	jnc	00401F9D
	dec	ebp
	xchg	[edi-25],bh
	dec	byte ptr [ebx+B5EA8383]
	out	EA,al
	sub	edx,83
	inc	esi
	out	02,al
	cmpsd	
	add	dword ptr [ebx+A9834083],67
	in	eax,61
	add	al,[esi]
	add	bh,ah
	mov	edi,E583838B
	mov	[469DD538],eax
	out	6A,al
	cmpsd	
	add	dword ptr [ebx+6A554083],97
	pop	esp
	js	00401FD2
	xchg	[edx],ebp
	push	ebp
	xlat	
	jnz	00401FE1
	cmpsd	
	xor	ch,[esi]
	fistp	dword ptr [ebx-61]
	add	dword ptr [ebx+EAEAE7EA],E7
	inc	esi
	out	F6,al
	cmpsd	
	add	dword ptr [ebx+DC264083],77
	xchg	[edi+D5714387],eax
	xchg	eax,ebx
	add	dword ptr [ebx+878767A0],87
	fistp	dword ptr [esi+468383AF]
	in	eax,61
	add	al,[esi]
	add	bh,ah
	clc	
	mov	eax,[ebx+E7E1E583]
	mov	ch,[eax+46]
	out	AB,al
	mov	[13DB8383],eax
	scasd	
	add	dword ptr [ebx+EAEAB5EA],EA
	jmp	far E674:751A
	pop	edx
	push	ebx
	pop	esp
	inc	ebx
	insd	
	mov	eax,838383AF
	test	eax,30A983E7
	out	B0,al
	mov	eax,[ebx+004A5583]
	push	ebp
	jpe	00401F72
	push	ebp
	jbe	0040205A
	out	73,al
	jl	00402040
	push	50
	fstp	tword ptr [edi+ecx*4+E7EA8383]
	sub	edx,B5
	sub	edx,D3
	arpl	[ebp+4A],bx
	push	edi
	mov	bl,F0
	shr	[edi],cl
	push	ebp
	push	97
	fisubr	dword ptr [edx-59]
	jnz	00401F82
	pop	edi
	fisubr	dword ptr [edx+57]
	jnz	00401F95
	push	edi
	xchg	[ebx+6D],eax
	or	[ebx+6A558383],ebx
	cmpsd	
	add	cl,[esi]
	adc	bl,[eax+edi*2+47]
	xchg	ebx,ebx
	push	es
	xchg	eax,ebx
	add	dword ptr [ebx+EA83EA83],E7
	add	dword ptr [ebx+E82574FF],E8
	and	eax,448FE825
	and	al,D4
	cmp	edx,3869F14C
	jnz	00402A5F
	add	al,bh
	inc	edx
	mov	al,96
	dec	ebx
	add	cl,al
	mov	ah,dl
	mov	dl,71
	or	bh,bl
	dec	ecx
	mov	cl,dh
	sub	bl,dl
	mov	cl,al
	xor	al,dl
	or	esi,edi
	call	0040290F
	push	dword ptr [ebp+25]
	call	2444A7D9
	rep	
	jmp	0040206C
	xchg	eax,ebp
	pop	eax
	inc	edi
	shr	eax,10
	dec	edi
	mov	esi,edx
	dec	esi
	inc	esi
	add	eax,edx
	inc	esi
	inc	esi
	inc	esi
	mov	esi,edi
	dec	edi
	inc	edi
	or	esi,eax
	add	eax,ebx
	xor	bl,ch
	call	004021D2
	and	eax,74FF25FF
	jmp	dword ptr [0424648D]
	sub	cl,ah
	add	dl,cl
	mov	eax,edi
	mov	dl,BA
	sub	dl,bl
	inc	esi
	xor	ch,bl
	dec	edx
	mov	ecx,esi
	or	edi,ebx
	pop	edi
	dec	ecx
	mov	edx,ecx
	mov	dh,dl
	call	00402180
	jz	004020B3
	and	eax,7474FFFF
	and	eax,87243487
	push	edx
	pop	esi
	or	dl,ch
	inc	esi
	or	esi,ebx
	add	dh,ah
	xor	dl,al
	inc	esi
	or	dl,cl
	or	edx,eax
	dec	esi
	inc	esi
	mov	esi,ebx
	sub	dh,al
	inc	ebx
	inc	esi
	call	0040270B
	and	eax,8725FFE8
	adc	al,24
	nop	
	repne	
	pop	edx
	add	bh,dh
	or	esi,ecx
	add	eax,0032FD94
	add	bh,bl
	or	bl,cl
	sub	bh,cl
	dec	edi
	add	bh,al
	mov	bl,al
	xor	bl,ah
	call	004027D8
	and	eax,8DFF74E8
	and	al,04
	dec	esi
	add	cl,79
	add	dh,ch
	mov	dl,bl
	sub	dh,ah
	or	edx,edi
	xor	dl,bh
	mov	esi,ecx
	mov	dl,FA
	add	dl,al
	inc	esi
	mov	dl,C9
	call	004029F0
	jz	00402110
	call	8D654652
	and	al,04
	or	dl,cl
	mov	ch,6D
	dec	edx
	mov	edx,eax
	or	ecx,eax
	or	ah,dl
	dec	edx
	mov	ah,30
	inc	eax
	mov	dh,6E
	dec	eax
	sub	ebx,00000604
	dec	edx
	call	00402229
	jz	004021C4
	jz	004021C6
	xchg	[esp],edx
	jnz	00402157
	repne	
	pop	edx
	add	ch,bh
	inc	ecx
	add	cl,al
	dec	esi
	mov	esi,edi
	sub	dl,dh
	or	ecx,edx
	inc	edx
	or	dl,bl
	xor	eax,69B8610B
	xor	ch,al
	sub	ch,cl
	inc	esi
	call	00402A4C
	jz	0040219F
	call	FFB52167
	dec	dword ptr [edi+02E82444]
	in	al,dx
	sub	cl,bl
	or	dh,ah
	mov	ch,ah
	inc	ecx
	or	al,ah
	add	al,ch
	dec	esi
	or	dl,al
	dec	edx
	or	dh,cl
	mov	ecx,edx
	call	0040285B
	and	eax,FF2574E8
	lea	esp,[esp+04]
	or	edi,edx
	mov	bl,AC
	add	dl,bh
	sub	bl,cl
	mov	dl,8F
	add	bh,dl
	dec	ecx
	dec	ebx
	call	eax
	mov	ebx,edi
	add	dl,bh
	mov	dl,E8
	dec	ebx
	or	ebx,edx
	mov	dh,55
	sub	bh,ch
	inc	edx
	call	00402289
	jz	004021F1
	push	dword ptr [edi+edi*8+25]
	and	eax,24448F74
	loopne	0040218A
	scasb	
	add	bl,ah
	or	bl,bh
	xor	bh,ah
	dec	ebx
	mov	bh,6D
	or	bh,ch
	add	bl,dl
	mov	bh,ah
	or	bl,dh
	mov	bl,64
	or	edi,esi
	or	bl,dh
	call	004020E0
	and	eax,FFFFE8E8
	and	eax,048925FF
	and	al,E9
	add	[eax],eax
	add	[eax],al
	cmp	[ebp+D98A581B],ecx
	or	ecx,esi
	or	bl,dh
	sub	bh,ch
	or	edi,edx
	xor	bh,al
	mov	ecx,edi
	add	bl,al
	mov	ch,51
	or	ecx,eax
	inc	esi
	call	0040225D
	call	75290B26
	jz	00402211
	mov	[esp],edx
	jmp	00402231
	pop	edx
	mov	ah,72
	add	ah,dh
	or	esi,edx
	sub	ah,bl
	sub	cl,ch
	or	dl,al
	mov	dh,F4
	xor	ah,bh
	dec	ecx
	xor	cl,bh
	add	ch,dl
	mov	cl,1E
	mov	ecx,edx
	or	al,bh
	mov	dl,0D
	or	dh,dl
	call	00402429
	jz	004022CC
	call	E9400A82
	pop	dword ptr [esp-30]
	sub	edx,91C6816D
	xor	ch,cl
	add	bh,dh
	or	ch,dl
	xor	ch,bh
	add	bl,dl
	xor	bh,dl
	add	bl,ah
	or	ch,bh
	dec	esi
	inc	esi
	or	cl,ah
	xor	bh,al
	call	0040282E
	jmp	dword ptr [74E874FF]
	and	eax,0424648D
	xor	bl,ah
	mov	ecx,edi
	sub	bh,bl
	mov	[esp-08],eax
	add	cl,bl
	or	ecx,ebx
	mov	ch,20
	or	edi,eax
	dec	edx
	mov	bl,19
	or	bl,dl
	mov	ch,ah
	inc	edx
	call	004025E5
	jz	00402296
	push	dword ptr [edi+edi*8-18]
	call	2444ABDC
	jle	004022B9
	pop	eax
	dec	ebx
	mov	al,CE
	inc	esi
	push	dword ptr [ecx]
	add	bh,dh
	dec	edi
	or	esi,ecx
	xor	bh,cl
	add	dl,bl
	dec	edi
	or	edx,ebx
	call	0040245C
	and	eax,FFFFFF25
	and	eax,24648DE8
	add	al,8B
	ror	dword ptr [edx+32],01
	lock	
	inc	esi
	add	dl,bh
	sub	dh,bl
	mov	dl,22
	add	dl,cl
	or	esi,ebx
	inc	edx
	mov	dl,4B
	dec	esi
	xor	dl,bl
	call	00402381
	jmp	dword ptr [648D7425]
	and	al,04
	sub	bl,dh
	or	edi,ecx
	mov	edi,ecx
	add	bh,cl
	mov	bh,ch
	sub	bh,bl
	or	ebx,edi
	dec	edi
	sub	bl,ch
	add	eax,[eax+3C]
	mov	bl,1A
	mov	bh,ah
	mov	ebx,edi
	add	bh,dh
	call	004023AD
	jz	00402347
	jmp	dword ptr [0C89FF74]
	and	al,8B
	leave	
	xchg	edi,edi
	pop	ecx
	dec	edx
	mov	dl,5D
	mov	dh,bh
	dec	eax
	sub	dl,bl
	mov	dl,bh
	or	edx,eax
	sub	dh,cl
	or	dl,cl
	mov	dh,ah
	mov	esi,edx
	mov	dh,95
	add	dl,dh
	sub	dh,ah
	call	00402694
	call	25B44951
	pop	dword ptr [esp-20]
	or	bh,dl
	or	ebx,eax
	inc	esi
	add	bh,ah
	sub	bh,bl
	or	ebx,edx
	xor	bh,dh
	inc	edi
	mov	bh,dh
	mov	eax,[eax]
	mov	bh,3E
	mov	esi,ecx
	mov	bh,ch
	xor	bh,ah
	sub	bl,ch
	inc	ebx
	mov	ebx,eax
	call	00402638
	and	eax,25FFFFFF
	jmp	dword ptr [F024448F]
	add	dh,ah
	or	dh,ch
	mov	[ebx],ch
	sub	dl,bl
	or	edx,esi
	mov	dh,1D
	mov	dh,cl
	dec	esi
	inc	edx
	inc	esi
	sub	dl,ah
	mov	dh,al
	add	dh,dl
	sub	dh,bl
	or	esi,eax
	inc	edi
	call	004020BA
	push	dword ptr [ebp+25]
	jz	00402394
	call	0464883E
	or	bl,dh
	inc	ebx
	mov	esi,eax
	dec	esi
	or	esi,ecx
	inc	edi
	mov	ebx,edi
	lea	edx,[eax+000000F8]
	xor	bl,dh
	mov	esi,edi
	dec	edi
	add	bh,al
	call	00402515
	jz	004023CF
	and	eax,FF74FF74
	dec	dword ptr [ecx+DB862414]
	push	edx
	pop	edx
	pop	edx
	inc	esi
	pop	ecx
	mov	esi,ecx
	sub	dh,ch
	mov	edx,esi
	add	dh,bl
	mov	dh,cl
	inc	ebx
	or	bl,dl
	mov	bl,AE
	mov	ebx,ecx
	xor	ah,al
	dec	edx
	add	ah,bh
	call	0040296B
	jmp	dword ptr [E874E8E8]
	inc	dword ptr [edi+E4862434]
	pop	esi
	add	eax,08
	sub	bh,dl
	or	edi,ebx
	or	bl,ch
	add	bl,dl
	or	bl,cl
	or	ebx,esi
	mov	ebx,esi
	or	bl,dh
	dec	esi
	sub	bh,cl
	call	00402352
	push	dword ptr [edi+edi*8+25]
	and	eax,24448F74
	fmul	dword ptr [edx]
	illegal	
	or	ecx,esi
	mov	ecx,ebx
	or	esi,edx
	or	cl,dl
	mov	eax,ebx
	add	ch,bh
	mov	eax,69B86A05
	add	cl,dl
	or	dl,ah
	xor	cl,dl
	mov	dh,10
	mov	edx,ecx
	dec	edx
	mov	ch,ah
	sub	ch,ah
	or	dl,dh
	mov	esi,ebx
	call	00402152
	jz	00402459
	call	2454AC47
	xchg	esi,esi
	rep	
	pop	edx
	add	ah,cl
	or	esi,ecx
	inc	eax
	or	ah,dh
	or	edi,eax
	inc	edx
	or	dh,ch
	mov	edx,edi
	mov	ah,bl
	xor	bh,ch
	pop	eax
	or	bl,bh
	xor	dh,bh
	mov	dh,E8
	sub	dh,bh
	mov	edi,ecx
	call	004026DD
	and	eax,E8E8FF25
	xor	dl,ch
	mov	edx,ebx
	mov	ch,21
	xor	ah,bh
	add	ch,bh
	dec	edx
	mov	bh,E4
	add	dh,ch
	or	ebx,esi
	mov	ah,bl
	mov	edi,edx
	dec	edx
	sub	dh,cl
	add	ch,bh
	or	ah,dl
	mov	bl,92
	mov	cl,ch
	push	40
	mov	edi,eax
	or	bl,dh
	call	00402880
	illegal	
	jz	004024A1
	jz	004024A3
	and	eax,0424648D
	add	dl,cl
	or	dh,cl
	xor	dl,bl
	mov	edx,esi
	xor	dh,ch
	mov	dh,02
	or	edx,ebx
	xor	dh,ah
	mov	esi,ecx
	sub	dl,ch
	inc	esi
	ror	cl,1F
	or	dl,al
	call	004027AA
	illegal	
	jmp	eax
	call	8A29245C
	sbb	al,24
	mov	edi,edi
	pop	ebx
	or	esi,edi
	mov	dh,dl
	sub	dl,ch
	mov	esi,ebx
	add	dh,ch
	mov	dh,21
	or	dh,cl
	sub	cl,B4
	xor	dh,cl
	or	dl,ch
	mov	esi,edx
	or	esi,ecx
	mov	dh,cl
	or	dh,ch
	call	004024BC
	and	eax,FFFF7425
	jz	0040249D
	xor	al,24
	mov	eax,eax
	pop	esi
	sub	bl,dl
	xor	bl,dl
	add	bl,cl
	sub	bl,cl
	xor	bl,cl
	inc	esi
	xor	bl,ch
	or	ebx,eax
	mov	bl,ah
	mov	esi,eax
	mov	bh,FC
	add	bl,ah
	call	00402568
	call	8D660E24
	and	al,04
	add	bh,ah
	mov	ebx,edx
	mov	bl,bh
	sub	bh,cl
	or	bh,cl
	or	edi,ecx
	sub	bl,bh
	or	bh,bl
	inc	esi
	or	ebx,ecx
	mov	bl,CC
	mov	bl,ah
	mov	bl,D1
	xor	bh,dl
	sub	bl,bh
	mov	bl,cl
	call	0040293E
	jz	004025D9
	and	eax,0489FF74
	and	al,8D
	aas	
	pop	eax
	inc	esi
	mov	bh,A3
	push	dword ptr [edx+08]
	xor	bl,al
	inc	edi
	add	bh,al
	mov	bh,dh
	inc	edi
	or	bh,dl
	or	edi,ebx
	sub	bl,dl
	call	00402A7B
	and	eax,FFE8E8FF
	dec	dword ptr [ecx+5FF2243C]
	dec	esi
	mov	edx,eax
	xor	dh,ch
	mov	edx,ecx
	dec	edx
	mov	edx,ecx
	or	edx,ebx
	or	dl,al
	or	edx,edi
	add	dh,cl
	xor	dl,al
	mov	dl,ch
	or	esi,ecx
	mov	dl,B8
	call	00402106
	and	eax,2574FF74
	mov	[esp],ebx
	jmp	004025BF
	lahf	
	pop	ebx
	mov	esi,ecx
	add	bh,bl
	mov	bl,ch
	xor	bl,ah
	add	bh,dh
	xor	bh,ah
	dec	esi
	inc	edi
	inc	esi
	or	bh,al
	sub	bh,dh
	mov	bl,1F
	movzx	ebx,ah
	or	edi,edx
	or	edi,ebx
	call	00402062
	call	88400ECE
	adc	al,24
	push	edi
	pop	edi
	pop	edx
	mov	edx,esi
	sub	bl,al
	inc	edi
	mov	bl,7B
	or	bl,dh
	mov	ebx,eax
	dec	edx
	mov	al,93
	dec	edx
	or	ecx,edx
	call	00402091
	illegal	
	jz	00402679
	call	E9643293
	add	[eax],eax
	add	[eax],al
	push	ecx
	jo	00402611
	pop	ecx
	mov	bh,ch
	mov	bh,64
	xor	bl,dh
	add	bl,dl
	xor	bl,al
	sub	bl,cl
	add	bl,cl
	sub	bl,al
	mov	bl,B9
	or	ebx,ecx
	mov	bh,al
	push	ecx
	pop	eax
	sub	bh,ah
	add	bh,bl
	call	004022FB
	call	FF659AAC
	xchg	[esp],esi
	jmp	00402641
	illegal	
	pop	esi
	mov	bh,50
	add	bl,ah
	xor	bl,ch
	mov	edi,esi
	mov	bl,dh
	or	esi,ebx
	mov	bh,0D
	add	bl,ch
	xor	bh,dh
	mov	bh,CF
	add	eax,ecx
	or	edi,eax
	mov	edi,ecx
	sub	bh,dl
	add	bl,dh
	or	edi,edx
	call	00402A1E
	call	74B52592
	pop	dword ptr [esp-24]
	add	dl,ch
	dec	edi
	inc	ebx
	xor	dh,bl
	mov	dh,cl
	xor	al,dl
	dec	edi
	mov	ecx,ebx
	mov	ch,20
	add	ah,al
	mov	al,ah
	or	bh,ah
	mov	ebx,ecx
	or	al,ah
	call	004028B5
	jz	00402679
	and	eax,0489E825
	and	al,78
	add	bl,dh
	pop	eax
	or	dl,al
	mov	edx,eax
	mov	esi,edx
	or	esi,ebx
	sub	edx,C7960EB4
	inc	esi
	or	esi,ebx
	or	esi,edi
	dec	esi
	or	esi,ebx
	dec	esi
	inc	esi
	mov	esi,eax
	call	0040202E
	call	E9284CBE
	xchg	[esp],edx
	repne	
	pop	edx
	add	bl,dh
	sub	ch,bl
	or	edi,ebx
	sub	al,bl
	mov	dh,19
	xor	dl,bl
	mov	ebx,ecx
	dec	eax
	mov	cl,57
	inc	edi
	add	bl,ch
	inc	ecx
	mov	ch,cl
	or	al,bh
	pop	dword ptr [esp-2C]
	xor	dh,dl
	or	edi,eax
	inc	esi
	or	esi,edx
	or	bh,bl
	mov	bh,dh
	or	esi,ebx
	mov	bl,ah
	or	dh,bh
	mov	edi,esi
	movzx	edx,al
	xor	bh,ch
	inc	ebx
	add	bh,dh
	mov	edi,edx
	mov	bh,08
	sub	bl,al
	call	004025B6
	jz	004026F1
	call	2454AEF6
	lea	eax,[eax]
	pop	edx
	xor	dl,al
	xor	dh,bh
	inc	esi
	add	dl,ah
	xor	dl,cl
	sub	dh,al
	or	dh,al
	xor	dl,ch
	add	dh,al
	or	edx,eax
	or	dl,ch
	or	edx,ecx
	call	00402326
	jz	0040272E
	and	eax,8DE82574
	and	al,04
	dec	edx
	mov	ch,bl
	sub	ch,dl
	dec	edx
	mov	ch,dh
	or	dl,cl
	inc	edx
	push	ebx
	add	ah,dl
	add	ch,dh
	or	al,dl
	sub	cl,ah
	call	0040212C
	jmp	eax
	call	2484B756
	shr	byte ptr [edx],01
	rep	
	shr	ecx,0F
	inc	eax
	xor	dl,ch
	mov	edx,edi
	mov	al,ah
	xor	al,bh
	mov	esi,ecx
	mov	ah,B5
	xor	bh,dh
	add	bl,dl
	xor	bl,dh
	or	eax,ebx
	mov	esi,ecx
	call	00402AA1
	jmp	eax
	and	eax,148774E8
	and	al,F2
	xchg	bl,bl
	pop	edx
	sub	cl,ch
	xor	dl,dh
	add	dl,dh
	xor	dh,cl
	dec	ecx
	add	dh,ah
	dec	ecx
	add	ch,al
	mov	ecx,eax
	add	dl,bh
	or	esi,ecx
	mov	cl,[edi]
	inc	edx
	xor	dh,al
	sub	dh,dl
	call	00402AFA
	call	E9401092
	mov	[esp],esi
	push	edi
	pop	edi
	nop	
	pop	esi
	inc	esi
	mov	dl,7E
	dec	esi
	mov	esi,ebx
	sub	dh,bh
	mov	dl,ah
	add	dh,ah
	mov	dl,29
	sub	dl,bl
	not	cl
	inc	edx
	dec	esi
	mov	dl,ah
	or	edx,esi
	mov	dh,ah
	call	0040258D
	and	eax,7474FFE8
	jz	0040284B
	call	D4646C6B
	mov	edi,eax
	mov	edi,ebx
	or	bh,al
	xor	bh,bl
	inc	edi
	or	ebx,eax
	cmp	eax,0032FECB
	jnz	00402973
	mov	edi,eax
	xor	bh,ah
	inc	esi
	add	bl,ch
	call	00402606
	call	E8654D78
	jz	00402795
	inc	esp
	and	al,F0
	mov	dl,dh
	xor	bh,dl
	mov	ch,bh
	or	edx,ecx
	sub	dh,ch
	add	al,cl
	mov	bl,al
	ret	
	dec	eax
	mov	ah,25
	xor	cl,dh
	dec	edi
	sub	bl,ah
	sub	dl,ah
	call	004026BF
	and	eax,74FF2574
	and	eax,24648D25
	add	al,B7
	add	al,02
	sti	
	mov	ch,dh
	dec	ebx
	or	bh,al
	mov	bh,17
	add	bl,bh
	or	esi,edi
	mov	eax,[edx]
	inc	ecx
	mov	ebx,esi
	mov	bh,ah
	dec	ebx
	sub	bh,ah
	xor	cl,dl
	dec	edx
	mov	ecx,edi
	inc	esi
	call	004028E9
	push	dword ptr [ebp+74]
	jz	004027EB
	inc	esp
	and	al,DC
	xor	al,bh
	sub	al,cl
	or	esi,ecx
	inc	edx
	sub	dh,ch
	inc	eax
	dec	esi
	mov	ecx,edi
	or	eax,ecx
	xor	dh,cl
	add	ch,al
	mov	ch,bh
	inc	ecx
	call	00402ACB
	call	FFB44E7E
	jz	00402808
	adc	al,24
	jnc	00402885
	jmp	0040288B
	mov	[B6F18A5A],al
	or	ecx,[ebx]
	ror	byte ptr [esi+2A],01
	retf	EB32
	or	edi,ebx
	xor	bh,ah
	add	dl,ch
	mov	esi,ecx
	xor	dl,cl
	or	edi,ecx
	push	00003000
	call	0040266D
	jz	00402923
	jmp	eax
	jz	004028B2
	and	eax,24448F25
	hlt	
	call	004028BE
	mov	eax,ebx
	or	bl,bh
	mov	cl,bh
	dec	edi
	sub	dh,bl
	or	bh,dh
	mov	dh,dl
	xor	ch,dl
	mov	ch,61
	or	ebx,edi
	mov	bl,82
	sub	al,dl
	xor	ch,cl
	dec	eax
	inc	edi
	mov	bh,90
	dec	ecx
	call	004023D6
	call	003F4E5A
	jmp	eax
	and	eax,E824448F
	or	esi,ebx
	mov	cl,D7
	dec	ecx
	sub	dh,dl
	mov	bl,ah
	or	dh,bl
	mov	dh,06
	dec	ecx
	mov	dl,ch
	or	edx,edi
	push	00
	mov	dl,11
	or	dh,ch
	call	004021A3
	call	75284E83
	xchg	[esp],edi
	lea	esi,[esi]
	repne	
	pop	edi
	mov	ah,ch
	add	dh,bl
	xor	dh,bh
	or	bh,dh
	sub	ch,dh
	or	edx,edi
	mov	ch,dl
	inc	esi
	or	dl,dh
	or	esi,edx
	xor	cl,bl
	or	dl,bl
	add	ah,cl
	add	ah,cl
	mov	ch,F9
	or	cl,ah
	call	00402805
	jz	004029B0
	call	24A4B6B5
	add	al,5A
	xor	bh,bl
	or	bl,cl
	or	edi,eax
	add	bl,ah
	mov	edi,ebx
	add	bh,bl
	mov	ebx,edi
	mov	bl,8D
	dec	esi
	add	bl,cl
	or	bh,dh
	mov	bh,00
	mov	bl,bh
	dec	ebx
	add	edx,ecx
	mov	ebx,esi
	call	0040298F
	call	26289D90
	mov	[esp],edi
	jz	00402970
	lea	edx,[edx]
	pop	edi
	dec	ecx
	mov	bl,ch
	sub	dh,dl
	or	bh,dh
	or	edx,esi
	sub	bl,cl
	or	eax,ecx
	sub	bl,ah
	add	al,cl
	mov	edi,ebx
	call	00402754
	call	90289E04
	inc	esp
	and	al,CC
	mov	ch,F4
	or	bh,dh
	or	ch,ah
	mov	ecx,edx
	sub	cl,ch
	or	cl,ch
	mov	bl,ch
	inc	ebx
	mov	cl,6E
	dec	ecx
	xor	bh,dh
	sub	edx,6E397E4F
	or	cl,dl
	sub	ch,dl
	mov	ecx,edi
	mov	bl,bh
	call	004029C1
	jz	004029E1
	and	eax,E874E8E8
	lea	esp,[esp+04]
	or	esi,eax
	inc	ecx
	mov	ebx,eax
	mov	bl,3A
	mov	bh,ch
	mov	bh,A6
	or	esi,edi
	mov	ch,D9
	xor	bl,dl
	mov	ecx,esi
	or	ch,ah
	xor	bh,al
	mov	ecx,esi
	mov	bh,07
	mov	esi,ebx
	dec	esi
	call	004021FC
	push	dword ptr [ebp-01]
	jz	004029D6
	and	eax,243487E8
	lea	edx,[edx]
	pop	esi
	or	dh,cl
	inc	esi
	mov	dl,04
	mov	esi,edx
	mov	dh,bh
	or	dh,dl
	or	edx,esi
	or	dh,al
	or	edx,ecx
	mov	dl,al
	mov	ch,cl
	mov	dh,25
	xor	dl,dh
	or	edx,edi
	add	dh,cl
	call	004022D8
	call	74B49E91
	dec	dword ptr [ebp+8A042464]
	fstenv	word ptr [ebx+8ADE0BD7]
	fimul	word ptr [ebx+32]
	illegal	
	cli	
	mov	bl,al
	inc	edi
	add	bh,dh
	dec	esi
	or	esi,eax
	dec	edi
	add	bh,dh
	xor	bh,ah
	push	dword ptr [eax+10]
	mov	bh,49
	sub	bh,cl
	call	0040253B
	call	8F659F4C
	inc	esp
	and	al,E0
	mov	dl,al
	or	edx,ecx
	inc	esi
	sub	dh,bh
	mov	ecx,edi
	or	edx,ebx
	mov	dh,6F
	or	ecx,eax
	sub	dl,ch
	xor	ch,ah
	dec	edx
	mov	ecx,esi
	inc	esi
	or	dl,dh
	inc	ecx
	xor	cl,bh
	or	dl,ch
	call	0040277E
	jmp	dword ptr [E8252574]
	jmp	dword ptr [E824448F]
	add	bl,cl
	dec	esi
	mov	bh,ah
	lea	eax,[eax+78]
	or	edi,ecx
	mov	bl,bh
	inc	edi
	mov	bl,dh
	dec	ebx
	sub	bh,al
	mov	bl,31
	inc	ebx
	mov	bh,7D
	or	bl,dl
	call	00402402
	jz	00402AC4
	and	eax,24448FE8
	call	02500C6A
	ret	
	mov	bh,cl
	add	ah,dh
	add	al,ah
	or	edx,eax
	or	dh,dl
	dec	eax
	sub	bh,ch
	or	eax,edi
	mov	al,cl
	add	ah,ch
	or	ah,cl
	dec	esi
	mov	al,F5
	call	004022B4
	call	87659FCB
	xor	al,24
	jmp	00402AD4
	lodsd	
	pop	esi
	xor	dh,dl
	dec	edx
	add	ebx,00000604
	or	edx,esi
	add	dh,ch
	add	dl,bl
	sub	ch,ah
	inc	esi
	add	ch,dl
	mov	esi,eax
	xor	ah,cl
	or	esi,edx
	call	00402733
	jmp	dword ptr [742525E8]
	xchg	[esp],edx
	push	ecx
	pop	ecx
	rep	
	pop	edx
	xor	dh,bh
	mov	esi,edi
	inc	edx
	or	dl,ch
	inc	esi
	xor	dl,ah
	xor	dh,bl
	sub	dl,bl
	mov	dh,38
	sub	dh,dl
	mov	dl,96
	dec	edx
	rol	cl,1D
	sub	dh,bh
	or	esi,edx
	mov	dl,52
	call	004024E7
	jz	00402B9A
	and	eax,007425E8
	add	[eax],al
	add	[eax],al
	add	[eax],al
	add	[eax],al
	add	[eax],al
	add	[eax],al
	add	[eax],al
	add	[eax],al
	add	[eax],al
	add	[eax],al
	add	[eax],al
	add	[eax],al
	add	[eax],al
	add	[eax],al
	add	[eax],al
	add	[eax],al
	add	[eax],al
	add	[eax],al
	add	[eax],al
	add	[eax],al
	add	[eax],al
	add	[eax],al
	add	[eax],al
	add	[eax],al
	add	[eax],al
	add	[eax],al
	add	[eax],al
	add	[eax],al
	add	[eax],al
	add	[eax],al
	add	[eax],al
	add	[eax],al
	add	[eax],al
	add	[eax],al
	add	[eax],al
	add	[eax],al
	add	[eax],al
	add	[eax],al
	add	[eax],al
	add	[eax],al
	add	[eax],al
	add	[eax],al
	add	[eax],al
	add	[eax],al
	add	[eax],al
	add	[eax],al
	add	[eax],al
	add	[eax],al
	add	[eax],al
	add	[eax],al
	add	[eax],al
	add	[eax],al
	add	[eax],al
	add	[eax],al
	add	[eax],al
	add	[eax],al
	add	[eax],al
	add	[eax],al
	add	[eax],al
	add	[eax],al
	add	[eax],al
	add	[eax],al
	add	[eax],al
	add	[eax],al
	add	[eax],al
	add	[eax],al
	add	[eax],al
	add	[eax],al
	add	[eax],al
	add	[eax],al
	add	[eax],al
	add	[eax],al
	add	[eax],al
	add	[eax],al
	add	[eax],al
	add	[eax],al
	add	[eax],al
	add	[eax],al
	add	[eax],al
	add	[eax],al
	add	[eax],al
	add	[eax],al
	add	[eax],al
	add	[eax],al
	add	[eax],al
	add	[eax],al
	add	[eax],al
	add	[eax],al
	add	[eax],al
	add	[eax],al
	add	[eax],al
	add	[eax],al
	add	[eax],al
	add	[eax],al
	add	[eax],al
	add	[eax],al
	add	[eax],al
	add	[eax],al
	add	[eax],al
	add	[eax],al
	add	[eax],al
	add	[eax],al
	add	[eax],al
	add	[eax],al
	add	[eax],al
	add	[eax],al
	add	[eax],al
	add	[eax],al
	add	[eax],al
	add	[eax],al
	add	[eax],al
	add	[eax],al
	add	[eax],al
	add	[eax],al
	add	[eax],al
	add	[eax],al
	add	[eax],al
	add	[eax],al
	add	[eax],al
	add	[eax],al
	add	[eax],al
	add	[eax],al
	add	[eax],al
	add	[eax],al
	add	[eax],al
	add	[eax],al
	add	[eax],al
	add	[eax],al
	add	[eax],al
	add	[eax],al
	add	[eax],al
	add	[eax],al
	add	[eax],al
	add	[eax],al
	add	[eax],al
	add	[eax],al
	add	[eax],al
	add	[eax],al
	add	[eax],al
	add	[eax],al
	add	[eax],al
	add	[eax],al
	add	[eax],al
	add	[eax],al
	add	[eax],al
	add	[eax],al
	add	[eax],al
	add	[eax],al
	add	[eax],al
	add	[eax],al
	add	[eax],al
	add	[eax],al
	add	[eax],al
	add	[eax],al
	add	[eax],al
	add	[eax],al
	add	[eax],al
	add	[eax],al
	add	[eax],al
	add	[eax],al
	add	[eax],al
	add	[eax],al
	add	[eax],al
	add	[eax],al
	add	[eax],al
	add	[eax],al
	add	[eax],al
	add	[eax],al
	add	[eax],al
	add	[eax],al
	add	[eax],al
	add	[eax],al
	add	[eax],al
	add	[eax],al
	add	[eax],al
	add	[eax],al
	add	[eax],al
	add	[eax],al
	add	[eax],al
	add	[eax],al
	add	[eax],al
	add	[eax],al
	add	[eax],al
	add	[eax],al
	add	[eax],al
	add	[eax],al
	add	[eax],al
	add	[eax],al
	add	[eax],al
	add	[eax],al
	add	[eax],al
	add	[eax],al
	add	[eax],al
	add	[eax],al
	add	[eax],al
	add	[eax],al
	add	[eax],al
	add	[eax],al
	add	[eax],al
	add	[eax],al
	add	[eax],al
	add	[eax],al
	add	[eax],al
	add	[eax],al
	add	[eax],al
	add	[eax],al
	add	[eax],al
	add	[eax],al
	add	[eax],al
	add	[eax],al
	add	[eax],al
	add	[eax],al
	add	[eax],al
	add	[eax],al
	add	[eax],al
	add	[eax],al
	add	[eax],al
	add	[eax],al
	add	[eax],al
	add	[eax],al
	add	[eax],al
	add	[eax],al
	add	[eax],al
	add	[eax],al
	add	[eax],al
	add	[eax],al
	add	[eax],al
	add	[eax],al
	add	[eax],al
	add	[eax],al
	add	[eax],al
	add	[eax],al
	add	[eax],al
	add	[eax],al
	add	[eax],al
	add	[eax],al
	add	[eax],al
	add	[eax],al
	add	[eax],al
	add	[eax],al
	add	[eax],al
	add	[eax],al
	add	[eax],al
	add	[eax],al
	add	[eax],al
	add	[eax],al
	add	[eax],al
	add	[eax],al
	add	[eax],al
	add	[eax],al
	add	[eax],al
	add	[eax],al
	add	[eax],al
	add	[eax],al
	add	[eax],al
	add	[eax],al
	add	[eax],al
	add	[eax],al
	add	[eax],al
	add	[eax],al
	add	[eax],al
	add	[eax],al
	add	[eax],al
	add	[eax],al
	add	[eax],al
	add	[eax],al
	add	[eax],al
	add	[eax],al
	add	[eax],al
	add	[eax],al
	add	[eax],al
	add	[eax],al
	add	[eax],al
	add	[eax],al
	add	[eax],al
	add	[eax],al
	add	[eax],al
	add	[eax],al
	add	[eax],al
	add	[eax],al
	add	[eax],al
	add	[eax],al
	add	[eax],al
	add	[eax],al
	add	[eax],al
	add	[eax],al
	add	[eax],al
	add	[eax],al
	add	[eax],al
	add	[eax],al
	add	[eax],al
	add	[eax],al
	add	[eax],al
	add	[eax],al
	add	[eax],al
	add	[eax],al
	add	[eax],al
	add	[eax],al
	add	[eax],al
	add	[eax],al
	add	[eax],al
	add	[eax],al
	add	[eax],al
	add	[eax],al
	add	[eax],al
	add	[eax],al
	add	[eax],al
	add	[eax],al
	add	[eax],al
	add	[eax],al
	add	[eax],al
	add	[eax],al
	add	[eax],al
	add	[eax],al
	add	[eax],al
	add	[eax],al
	add	[eax],al
	add	[eax],al
	add	[eax],al
	add	[eax],al
	add	[eax],al
	add	[eax],al
	add	[eax],al
	add	[eax],al
	add	[eax],al
	add	[eax],al
	add	[eax],al
	add	[eax],al
	add	[eax],al
	add	[eax],al
	add	[eax],al
	add	[eax],al
	add	[eax],al
	add	[eax],al
	add	[eax],al
	add	[eax],al
	add	[eax],al
	add	[eax],al
	add	[eax],al
	add	[eax],al
	add	[eax],al
	add	[eax],al
	add	[eax],al
	add	[eax],al
	add	[eax],al
	add	[eax],al
	add	[eax],al
	add	[eax],al
	add	[eax],al
	add	[eax],al
	add	[eax],al
	add	[eax],al
	add	[eax],al
	add	[eax],al
	add	[eax],al
	add	[eax],al
	add	[eax],al
	add	[eax],al
	add	[eax],al
	add	[eax],al
	add	[eax],al
	add	[eax],al
	add	[eax],al
	add	[eax],al
	add	[eax],al
	add	[eax],al
	add	[eax],al
	add	[eax],al
	add	[eax],al
	add	[eax],al
	add	[eax],al
	add	[eax],al
	add	[eax],al
	add	[eax],al
	add	[eax],al
	add	[eax],al
	add	[eax],al
	add	[eax],al
	add	[eax],al
	add	[eax],al
	add	[eax],al
	add	[eax],al
	add	[eax],al
	add	[eax],al
	add	[eax],al
	add	[eax],al
	add	[eax],al
	add	[eax],al
	add	[eax],al
	add	[eax],al
	add	[eax],al
	add	[eax],al
	add	[eax],al
	add	[eax],al
	add	[eax],al
	add	[eax],al
	add	[eax],al
	add	[eax],al
	add	[eax],al
	add	[eax],al
	add	[eax],al
	add	[eax],al
	add	[eax],al
	add	[eax],al
	add	[eax],al
	add	[eax],al
	add	[eax],al
	add	[eax],al
	add	[eax],al
	add	[eax],al
	add	[eax],al
	add	[eax],al
	add	[eax],al
	add	[eax],al
	add	[eax],al
	add	[eax],al
	add	[eax],al
	add	[eax],al
	add	[eax],al
	add	[eax],al
	add	[eax],al
	add	[eax],al
	add	[eax],al
	add	[eax],al
	add	[eax],al
	add	[eax],al
	add	[eax],al
	add	[eax],al
	add	[eax],al
	add	[eax],al
	add	[eax],al
	add	[eax],al
	add	[eax],al
	add	[eax],al
	add	[eax],al
	add	[eax],al
	add	[eax],al
	add	[eax],al
	add	[eax],al
	add	[eax],al
	add	[eax],al
	add	[eax],al
	add	[eax],al
	add	[eax],al
	add	[eax],al
	add	[eax],al
	add	[eax],al
	add	[eax],al
	add	[eax],al
	add	[eax],al
	add	[eax],al
	add	[eax],al
	add	[eax],al
	add	[eax],al
	add	[eax],al
	add	[eax],al
	add	[eax],al
	add	[eax],al
	add	[eax],al
	add	[eax],al
	add	[eax],al
	add	[eax],al
	add	[eax],al
	add	[eax],al
	add	[eax],al
	add	[eax],al
	add	[eax],al
	add	[eax],al
	add	[eax],al
	add	[eax],al
	add	[eax],al
	add	[eax],al
	add	[eax],al
	add	[eax],al
	add	[eax],al
	add	[eax],al
	add	[eax],al
	add	[eax],al
	add	[eax],al
	add	[eax],al
	add	[eax],al
	add	[eax],al
	add	[eax],al
	add	[eax],al
	add	[eax],al
	add	[eax],al
	add	[eax],al
	add	[eax],al
	add	[eax],al
	add	[eax],al
	add	[eax],al
	add	[eax],al
	add	[eax],al
	add	[eax],al
	add	[eax],al
	add	[eax],al
	add	[eax],al
	add	[eax],al
	add	[eax],al
	add	[eax],al
	add	[eax],al
	add	[eax],al
	add	[eax],al
	add	[eax],al
	add	[eax],al
	add	[eax],al
	add	[eax],al
	add	[eax],al
	add	[eax],al
	add	[eax],al
	add	[eax],al
	add	[eax],al
	add	[eax],al
	add	[eax],al
	add	[eax],al
	add	[eax],al
	add	[eax],al
	add	[eax],al
	add	[eax],al
	add	[eax],al
	add	[eax],al
	add	[eax],al
	add	[eax],al
	add	[eax],al
	add	[eax],al
	add	[eax],al
	add	[eax],al
	add	[eax],al
	add	[eax],al
	add	[eax],al
	add	[eax],al
	add	[eax],al
	add	[eax],al
	add	[eax],al
	add	[eax],al
	add	[eax],al
	add	[eax],al
	add	[eax],al
	add	[eax],al
	add	[eax],al
	add	[eax],al
	add	[eax],al
	add	[eax],al
	add	[eax],al
	add	[eax],al
	add	[eax],al
	add	[eax],al
	add	[eax],al
	add	[eax],al
	add	[eax],al
	add	[eax],al
	add	[eax],al
	add	[eax],al
	add	[eax],al
	add	[eax],al
	add	[eax],al
	add	[eax],al
	add	[eax],al
	add	[eax],al
	add	[eax],al
	add	[eax],al
	add	[eax],al
	add	[eax],al
	add	[eax],al
	add	[eax],al
	add	[eax],al
	add	[eax],al
	add	[eax],al
	add	[eax],al
	add	[eax],al
	add	[eax],al
	add	[eax],al
	add	[eax],al
	add	[eax],al
	add	[eax],al
	add	[eax],al
	add	[eax],al
	add	[eax],al
	add	[eax],al
	add	[eax],al
	add	[eax],al
	add	[eax],al
	add	[eax],al
	add	[eax],al
	add	[eax],al
	add	[eax],al
	add	[eax],al
	add	[eax],al
	add	[eax],al
	add	[eax],al
	add	[eax],al
	add	[eax],al
	add	[eax],al
	add	[eax],al
	add	[eax],al
	add	[eax],al
	add	[eax],al
	add	[eax],al
	add	[eax],al
	add	[eax],al
	add	[eax],al
	add	[eax],al
	add	[eax],al
	add	[eax],al
	add	[eax],al
	add	[eax],al
	add	[eax],al
	add	[eax],al
	add	[eax],al
	add	[eax],al
	add	[eax],al
	add	[eax],al
	add	[eax],al
	add	[eax],al
	add	[eax],al
	add	[eax],al
	add	[eax],al
	add	[eax],al
	add	bh,bh
00403000 FF A7 E6 99 0D DB EC E4 00 00 F8 00 E8 00 A0 F3 ................
00403010 0C 00 00 18 83 00 FE F5 05 DA 9C 3F 50 22 47 59 ...........?P"GY
00403020 D6 10 00 85 52 0F 01 2D 00 34 CF 5E AC 73 B0 DC ....R..-.4.^.s..
00403030 DA 00 EF 53 00 CA C5 50 7B AF 00 00 AB 02 C8 AC ...S...P{.......
00403040 00 00 6B 01 04 55 73 14 04 23 DD 6B FF F8 D3 3C ..k..Us..#.k...<
00403050 D3 6C 00 26 FF 17 00 18 94 71 90 43 6A 63 B0 FB .l.&.....q.Cjc..
00403060 9C C2 3F B5 27 60 02 6C DB BF CB 00 87 26 C0 E6 ..?.'`.l.....&..
00403070 6F 02 5C 5A B0 57 91 83 EB 0C CD 1A 5B DD 92 B5 o.\Z.W......[...
00403080 16 07 00 08 2C 73 C8 D1 34 E3 8D 02 55 00 2B 18 ....,s..4...U.+.
00403090 FE A5 00 46 70 F7 DF 72 E9 52 5E 00 5C 00 00 31 ...Fp..r.R^.\..1
004030A0 EF FF 2A F1 C9 8E 28 99 14 89 5B FF BD 81 FB ED ..*...(...[.....
004030B0 E5 68 FF 93 6C 00 C3 FF 2E E0 D7 F7 92 49 82 2B .h..l........I.+
004030C0 8D 8D 00 F7 65 4F 47 38 3D FB 21 7B 22 35 0C 00 ....eOG8=.!{"5..
004030D0 FF 00 04 4E A3 FF 73 6C 70 89 4B 15 72 4C 00 2C ...N..slp.K.rL.,
004030E0 54 9F 23 00 FF DF 0C EA EF C2 29 00 00 5C F0 BC T.#.......)..\..
004030F0 3B 3B 63 FF 4C 96 61 09 85 7D FF 00 95 15 00 6B ;;c.L.a..}.....k
00403100 E0 B4 00 48 63 B4 F2 0B BD 15 03 A2 CC 70 00 00 ...Hc........p..
00403110 6B 74 DB B0 1E 7D 8D 1E E4 00 00 F7 6C 07 A6 B8 kt...}......l...
00403120 A0 45 E9 74 4E 7F 3F 1C DA 66 FF FF 00 5F 31 AB .E.tN.?..f..._1.
00403130 47 C4 1C 92 64 07 D1 00 FC F6 6B DE 96 48 B1 25 G...d.....k..H.%
00403140 5D 00 21 41 8C C3 B7 C1 30 EA 37 FC 32 22 00 0E ].!A....0.7.2"..
00403150 D2 60 15 4C 01 89 00 DE FF C1 19 2A 00 07 63 FB .`.L.......*..c.
00403160 38 96 FF 75 00 00 07 29 2E 19 C4 95 20 4D 3E A3 8..u...).... M>.
00403170 00 00 0F C9 75 B5 B9 88 6C 2C 86 0F 00 F5 22 DB ....u...l,....".
00403180 00 F7 44 B3 FC 14 51 E9 C5 00 97 40 91 C1 AC E2 ..D...Q....@....
00403190 00 69 75 0B 00 02 89 00 00 00 17 50 9B C0 B4 EF .iu........P....
004031A0 45 66 13 00 01 00 FC 00 09 6C 00 83 EC EF 1A DD Ef.......l......
004031B0 00 CD 54 04 B1 D9 18 00 70 C4 2B 89 31 34 30 60 ..T.....p.+.140`
004031C0 17 D7 BF 08 E1 96 E4 00 02 FB 73 18 50 38 FE E5 ..........s.P8..
004031D0 00 BF 9D 0B 00 FE 05 40 90 F7 9B F4 23 FF F0 00 .......@....#...
004031E0 6C B1 D1 AB F1 80 2C 46 FF 17 14 00 FD A1 79 8D l.....,F......y.
004031F0 36 1E 6B B4 00 8A 4D AC 82 DE 91 19 8A D3 28 B4 6.k...M.......(.
00403200 51 77 F3 E5 DF 34 D8 EB 68 1E D8 00 E0 00 FF C3 Qw...4..h.......
00403210 C8 00 BB 0A FD 23 FE FF 00 C4 FC 43 3E 08 8D 00 .....#.....C>...
00403220 1D 69 8E FF BA E1 00 EF 0C 8C 5B 08 C1 00 BB AD .i........[.....
00403230 CE F0 31 00 AE F4 85 08 AF A8 00 4F CE 72 93 86 ..1........O.r..
00403240 00 C3 05 72 35 42 49 B1 EA A3 3C 30 08 38 17 B0 ...r5BI...<0.8..
00403250 36 20 07 8E C1 E7 99 D0 B1 A8 F5 61 02 00 63 00 6 .........a..c.
00403260 F0 80 91 26 CB 45 17 0E 5B 00 17 80 5B BC E2 C3 ...&.E..[...[...
00403270 E3 AB 74 4E 47 D4 92 00 C5 18 85 6B 00 D2 00 E1 ..tNG......k....
00403280 F3 11 1C 3B FD 15 A5 F2 3E E3 B3 A8 9E DB 85 FC ...;....>.......
00403290 47 21 BF 89 C7 00 DC 8A FF 57 B4 45 58 BC 7E E5 G!.......W.EX.~.
004032A0 F4 0B 02 00 00 C2 0C 1A 4A 3F 56 09 FB 2D 00 39 ........J?V..-.9
004032B0 43 CE A7 B1 E3 12 AF 00 3A 2B FF DC 30 F7 FF FA C.......:+..0...
004032C0 00 14 4A 00 16 9D D1 B2 55 69 F9 59 E0 25 DF DE ..J.....Ui.Y.%..
004032D0 BA 38 27 00 00 94 66 00 3F 7F 1D E8 BA 00 00 AD .8'...f.?.......
004032E0 E5 50 C5 A2 FA 80 00 D8 00 2D EC 66 CD EA 99 14 .P.......-.f....
004032F0 00 1A DF 00 00 81 DB 00 DC 00 E1 89 FF 7C 14 13 .............|..
00403300 02 9C 00 06 76 7A FF A7 C9 E0 C1 00 0F 33 A0 42 ....vz.......3.B
00403310 00 00 89 61 AA 53 71 9A 1E 57 F8 1C FF 63 6C BD ...a.Sq..W...cl.
00403320 02 42 C3 70 04 7E BF A3 66 6C 7C 18 00 9C 00 22 .B.p.~..fl|...."
00403330 CC BF A8 A7 75 51 EF 46 A0 00 00 6D 9B 00 47 FF ....uQ.F...m..G.
00403340 78 BF A8 76 C3 AC 7F 6F F6 1E 60 2A 00 42 FF 00 x..v...o..`*.B..
00403350 82 37 28 93 31 6B BF E6 37 30 2E BF 07 C8 FF 72 .7(.1k..70.....r
00403360 07 8B 1A BD 7E 9E CD 96 92 E3 EA 24 3E 28 55 BE ....~......$>(U.
00403370 A1 D0 7F 4A 0B 80 9E 44 48 E7 1C FF 8E F0 50 7B ...J...DH.....P{
00403380 C2 A7 4D 03 C1 00 B3 97 AD 8C B3 73 77 E0 CC FE ..M........sw...
00403390 F9 05 EF 00 4A 86 0E FF 00 92 70 FD 7B 0D FF 6E ....J.....p.{..n
004033A0 26 5F 00 5F 0A 74 FF B9 70 C2 2A EA A3 D9 FF B1 &_._.t..p.*.....
004033B0 DC D1 85 F3 D5 08 DC D8 26 F5 03 02 0F 5A 30 A0 ........&....Z0.
004033C0 D0 1F 19 C5 A3 00 9F FA B5 5B 98 E5 3E 00 C1 05 .........[..>...
004033D0 F4 00 E3 A3 B3 36 9C F5 19 08 4D F8 AB B5 00 FF .....6....M.....
004033E0 D4 99 9B 9B EE 7E 6B 68 32 00 53 6E D3 52 12 73 .....~kh2.Sn.R.s
004033F0 4B 5E 95 54 B8 5B 23 95 87 6E 47 E1 CD 41 EB 54 K^.T.[#..nG..A.T
00403400 74 D8 E7 49 61 86 05 FF AC 02 E3 04 C0 1C 90 D0 t..Ia...........
00403410 F7 80 00 BA 6D 9A E5 40 6F FF 87 C8 86 59 20 00 ....m..@o....Y .
00403420 FE 00 68 AF 00 00 86 8D 00 05 60 C5 83 6E 71 95 ..h.......`..nq.
00403430 08 68 C9 2D 6F E7 00 C8 00 41 CC 73 7F F9 00 65 .h.-o....A.s...e
00403440 66 E0 2D 00 2E 7C 00 24 8E 8A F6 C2 79 A0 6A F6 f.-..|.$....y.j.
00403450 00 63 FF 5D 03 FA FB 36 D1 2C FF B1 05 CA 00 01 .c.]...6.,......
00403460 EB 00 B2 12 A3 00 60 A0 38 00 6C BB 04 9B 09 C0 ......`.8.l.....
00403470 D9 7B 60 D5 00 67 07 2B 83 87 B7 84 19 C3 D6 E0 .{`..g.+........
00403480 66 C8 ED 00 00 BF 5F 00 0E D9 36 FF D5 6A 79 B1 f....._...6..jy.
00403490 55 DB E0 E7 69 6A 2F 0D E3 00 F2 A4 C1 1A FF 76 U...ij/........v
004034A0 07 B5 74 E4 6D 00 B0 00 C0 86 76 BF D7 ED 61 A1 ..t.m.....v...a.
004034B0 8D 50 29 F5 84 D2 DF C2 00 C9 B9 00 08 74 00 EF .P)..........t..
004034C0 00 06 3D 5A 72 E8 42 10 0F 51 26 E6 01 DE C2 FF ..=Zr.B..Q&.....
004034D0 53 62 17 C9 00 92 C4 7A 00 20 60 78 FE B3 C2 73 Sb.....z. `x...s
004034E0 D2 7A 49 50 6F 57 0E 00 E4 DC 09 52 22 E8 00 EA .zIPoW.....R"...
004034F0 9F 1F E8 F1 27 F9 01 ED 59 72 17 F8 00 FA 9F 00 ....'...Yr......
00403500 5A D7 D6 00 68 50 12 9C 54 D7 C8 BD FF F5 EC 38 Z...hP..T......8
00403510 8A 22 8C 83 26 CE 5D C9 99 C3 A9 96 C2 A3 40 B9 ."..&.].......@.
00403520 08 76 16 4C F2 C4 D0 3C 8E 0D EB ED FF 6E A3 98 .v.L...<.....n..
00403530 00 0A 1C 0B 02 00 C8 20 49 81 91 5D 7B 0D 5E C3 ....... I..]{.^.
00403540 FF 0B 11 26 00 B1 C1 D4 EB 6B 0D 0D E8 FF 30 23 ...&.....k....0#
00403550 00 00 BF DE 32 B0 EE 00 78 1F AD 46 00 76 77 01 ....2...x..F.vw.
00403560 05 3E 94 FF FC 11 27 CE 23 8A FB B0 B7 00 2F A6 .>....'.#...../.
00403570 AE 07 7A F4 DC 2B 2C 13 C8 6C 71 FD F6 B3 14 0C ..z..+,..lq.....
00403580 80 4E 1C 3A 09 C1 E7 0A 00 04 E9 9F 49 A2 54 7A .N.:........I.Tz
00403590 80 62 FD 00 14 34 91 00 C6 00 00 BC F5 CB DF E0 .b...4..........
004035A0 7A 81 22 F7 0C 97 47 00 00 6F 70 B0 1A 17 05 93 z."...G..op.....
004035B0 E4 FE 60 EE 70 A2 F0 00 FA 29 00 08 50 EF 9C EE ..`.p....)..P...
004035C0 D9 FF 00 19 0E 00 08 08 ED 06 22 1C 9C 84 96 47 .........."....G
004035D0 27 01 CC 2C D0 6F 5C 41 8C 00 00 00 D4 1D 2A 19 '..,.o\A......*.
004035E0 44 1F 33 00 FF 00 AE BF 0F 0F E7 C0 FF 06 5C 8B D.3...........\.
004035F0 E2 59 9A 25 5D 2A D9 30 FF 48 74 00 1F E9 BD A1 .Y.%]*.0.Ht.....
00403600 B1 E9 E8 A1 CF 32 98 2E FC 7B 31 08 D2 1B 73 0D .....2...{1...s.
00403610 9B 98 B5 3F 65 E4 1F 85 DD 09 00 00 70 E5 00 D7 ...?e.......p...
00403620 FF E7 6B 00 27 50 5C 00 98 91 B0 00 AA 0E C8 31 ..k.'P\........1
00403630 4B 5A 88 72 25 61 7C 38 17 00 E6 81 04 CF 00 FB KZ.r%a|8........
00403640 10 68 D5 8B E1 2C A7 3D 9E 06 87 AE E8 19 6E A4 .h...,.=......n.
00403650 CB 85 AC 00 70 69 D0 5F 25 0A 34 48 85 0E 05 45 ....pi._%.4H...E
00403660 14 FF 00 B0 52 7D A6 F6 8F 71 F3 81 1C C5 02 2E ....R}...q......
00403670 00 62 FF 79 68 3E 03 02 3F BC 23 2E C3 BF 78 CC .b.yh>..?.#...x.
00403680 FF A3 CF 48 C0 FF 00 61 9A 3A 88 B9 00 53 00 11 ...H...a.:...S..
00403690 4C A1 FF CE 79 82 9D 62 25 47 07 3A 00 00 13 FF L...y..b%G.:....
004036A0 3B 04 7F 23 0D 34 17 14 6E 87 FF 04 00 55 2C 29 ;..#.4..n....U,)
004036B0 05 E8 74 99 4C AD 68 00 FF 36 00 00 36 0D CF F1 ..t.L.h..6..6...
004036C0 D4 C5 71 36 F7 9D 5F 83 13 20 35 08 FF 8E C5 CC ..q6.._.. 5.....
004036D0 01 A2 37 28 49 CD 5E BC 60 32 B3 B6 99 AB FF F2 ..7(I.^.`2......
004036E0 08 A1 D1 87 00 20 D1 F3 71 71 00 68 2F 50 8E 04 ..... ..qq.h/P..
004036F0 89 77 1C 4E CC 2C 50 00 20 DA B2 64 00 2C 23 00 .w.N.,P. ..d.,#.
00403700 42 70 81 42 BC 4D A4 B8 CD 96 D1 1C D9 AD A3 27 Bp.B.M.........'
00403710 61 8F 95 26 CF D8 00 01 00 73 44 FF 02 A5 0A 3C a..&.....sD....<
00403720 30 EB 7C 47 2C 6C 68 14 C7 90 37 13 00 71 32 00 0.|G,lh...7..q2.
00403730 27 73 92 C8 C9 00 8D 43 2B 6F F4 FD 43 70 66 A2 's.....C+o..Cpf.
00403740 00 A7 B3 9F FE FF 00 97 00 3E A8 3C 00 90 BD 80 .........>.<....
00403750 20 04 C7 1B 9F B0 FF 1C 08 00 89 F8 31 AA B4 70  ...........1..p
00403760 00 FF E3 D2 00 00 0A 16 20 93 55 07 A3 00 3F 5D ........ .U...?]
00403770 85 81 A2 71 FF 00 00 B4 6F 00 99 C0 81 2B 00 87 ...q....o....+..
00403780 C7 38 34 A5 8D 2A 3D B4 00 BA 62 00 FD 00 00 C3 .84..*=...b.....
00403790 60 F0 3E F8 00 6C 00 30 C5 33 FE BD 00 87 B6 00 `.>..l.0.3......
004037A0 93 01 48 E8 FF 00 CF AB 00 70 E4 F0 B7 8F FC 93 ..H......p......
004037B0 08 7B 00 98 FD 08 66 CE E3 39 6B 0C 6E DD 0E 2A .{....f..9k.n..*
004037C0 3E 36 A2 F9 00 A9 C8 EF 3A 00 DC 22 36 FF B1 64 >6......:.."6..d
004037D0 A7 00 43 00 00 B7 C5 09 FB 71 99 5A 9F 0A A3 88 ..C......q.Z....
004037E0 DA F6 D3 F5 F0 C1 8B 83 FE 4E 60 20 8E 39 D9 CC .........N` .9..
004037F0 06 15 BA D1 96 A4 DD 8C 7D D1 44 48 A0 F0 D3 56 ........}.DH...V
00403800 1E DD 85 E6 EC 00 4A 80 46 31 8F 3F 79 31 63 00 ......J.F1.?y1c.
00403810 FB 00 51 53 01 A5 E1 E8 76 00 43 20 69 03 AC 84 ..QS....v.C i...
00403820 D7 D3 13 5E 90 A0 85 CC 10 00 00 FF 3D 38 49 60 ...^........=8I`
00403830 A1 35 E2 B6 B9 A3 08 9B 20 F0 B6 E4 FF 48 40 18 .5...... ....H@.
00403840 DF F0 72 61 7E 5F 00 25 00 87 03 79 AB 58 6F C5 ..ra~_.%...y.Xo.
00403850 34 01 2F DF 4B 11 30 13 C4 F7 8E C3 B8 EA 13 A8 4./.K.0.........
00403860 39 DE 21 ED FD 3C 00 0F 0B 38 4E 40 3D 00 43 F9 9.!..<...8N@=.C.
00403870 B6 D7 1B 0C 7D 21 DE 10 60 D9 BC A9 DD E5 C8 3E ....}!..`......>
00403880 9A 00 8D 8F 00 DF 40 E4 9C 26 3D 00 87 80 67 3A ......@..&=...g:
00403890 04 68 33 5C 4D B6 69 B1 7F C7 00 75 7B AA B2 C7 .h3\M.i....u{...
004038A0 09 04 B8 34 2B 89 ED 0A 31 8F 81 07 C8 00 95 AC ...4+...1.......
004038B0 BE 5A 20 CF C9 EB 5C 8B 03 40 06 A6 00 F0 9F 17 .Z ...\..@......
004038C0 DC F7 E0 31 00 16 7E B5 24 B0 00 F0 FF 00 6C 2F ...1..~.$.....l/
004038D0 4F 7B 97 BB 70 08 C9 E4 69 ED F1 F7 68 8A 48 FF O{..p...i...h.H.
004038E0 74 2B 83 3E B7 9E 00 FF 31 FE B8 F9 9F 1B E8 20 t+.>....1...... 
004038F0 EA B6 9D 89 2E 00 4C 00 49 04 EB A0 00 18 00 8A ......L.I.......
00403900 21 91 7D 5F 63 A0 11 D7 60 09 3F D1 86 00 4F 3B !.}_c...`.?...O;
00403910 84 F6 E9 1A B1 4F 11 F2 80 5F 00 FF A2 12 00 00 .....O..._......
00403920 8B 86 0E 46 FA 79 74 63 00 00 7C F2 CA 6D 32 5C ...F.ytc..|..m2\
00403930 4C 2A C4 44 E9 8E EB 17 10 96 8F E3 00 00 51 62 L*.D..........Qb
00403940 00 E9 38 28 FA 28 17 F3 FB BA 82 00 FE 00 79 EE ..8(.(........y.
00403950 CD 99 E9 2C CE 62 D4 22 FF FF 00 87 A3 46 E4 13 ...,.b.".....F..
00403960 00 AF C9 EA 00 56 A0 00 C1 0E 79 E6 50 37 7C 00 .....V....y.P7|.
00403970 E5 9F 88 BF F4 BF FF FF 30 0E C9 3C 08 05 98 00 ........0..<....
00403980 87 39 7E EA 2F 7C 7F F0 6D 44 65 F4 0D D0 00 D9 .9~./|..mDe.....
00403990 7D 9C FF 94 0F 33 7C EE 79 EF 66 25 BC F4 20 24 }....3|.y.f%.. $
004039A0 AA 8D FF 66 F4 7C 3D 81 00 4E F3 40 3B B4 60 FE ...f.|=..N.@;.`.
004039B0 00 AF 67 1F 39 44 00 E9 1D 00 64 04 FF 2E 4B 8F ..g.9D....d...K.
004039C0 9F 8B 80 87 64 FF 05 94 A4 E6 63 00 6D 08 03 92 ....d.....c.m...
004039D0 E8 F2 8E F0 97 DF B5 84 35 00 31 DD 2D 00 59 97 ........5.1.-.Y.
004039E0 BC 93 59 6C C0 63 2D 0F E4 00 A8 80 9A 5E 00 00 ..Yl.c-......^..
004039F0 E0 0B A3 D0 02 08 F0 95 42 BB 2A 20 D7 0D FF E4 ........B.* ....
00403A00 00 41 00 00 DB CD F0 8B 74 29 16 09 5E 00 00 00 .A......t)..^...
00403A10 B8 B9 04 D4 0E 58 FF C5 F6 06 8C 06 05 39 89 00 .....X.......9..
00403A20 EF A3 6F 3F 26 B2 FF E3 00 0A 00 0E 06 41 DF 3D ..o?&........A.=
00403A30 6E 86 28 E1 02 FF FF 27 B7 61 C6 D8 25 63 F8 BD n.(....'.a..%c..
00403A40 B9 9C 4D 7C B1 B5 00 75 95 ED 9E 93 48 2B F0 00 ..M|...u....H+..
00403A50 37 7F 87 03 64 E5 B0 62 24 F6 3C BA BD 53 6E 00 7...d..b$.<..Sn.
00403A60 05 7A D5 D3 BC 08 C4 00 1A FC EF E7 E4 A7 9A 2B .z.............+
00403A70 8B 54 9A 00 A9 6D E5 44 6F D8 47 E2 4E 61 56 BD .T...m.Do.G.NaV.
00403A80 DF FF D7 D8 C5 C0 7E 10 3E 04 4B A9 5D EF C4 8E ......~.>.K.]...
00403A90 A6 30 E7 4E 01 F0 4C 1B A7 00 5D 24 C0 C1 98 00 .0.N..L...]$....
00403AA0 13 35 00 22 95 47 A2 C4 FF 00 BD D8 78 00 DD AE .5.".G......x...
00403AB0 17 9F C3 2B 80 39 FF C9 00 38 7B 9B B0 A8 00 0D ...+.9...8{.....
00403AC0 18 64 D3 ED E6 44 4D F7 2D 1B 8F B8 B7 46 92 C8 .d...DM.-....F..
00403AD0 BD 7C 88 98 FF A4 FA 00 00 24 F3 CF 20 8A 00 E7 .|.......$.. ...
00403AE0 E0 93 AA B0 A8 33 87 E1 95 00 00 61 10 59 00 7D .....3.....a.Y.}
00403AF0 45 80 A3 B1 C6 C7 35 00 79 DF 3C 2C 27 2C CF 38 E.....5.y.<,',.8
00403B00 70 00 DF 05 1F 27 16 A2 DF B0 83 C2 1A 11 70 8D p....'........p.
00403B10 27 00 CE 9F E5 00 83 00 1E 7F 05 C1 FF DA F7 75 '..............u
00403B20 FF 15 A7 62 A5 FF 00 20 D3 76 AB 86 28 50 40 C2 ...b... .v..(P@.
00403B30 00 35 64 77 0F 80 F0 45 EE 3E 0B 00 3D E9 FF 09 .5dw...E.>..=...
00403B40 3A 75 00 E6 5A 00 1C C7 C4 00 52 6F EA F8 64 C4 :u..Z.....Ro..d.
00403B50 89 CE FC F0 94 FB CC 9C 9C 0B 08 4B 00 46 DB 91 ...........K.F..
00403B60 FF 6D 01 77 D1 03 FC FB 55 FF 9B FC DF C0 83 21 .m.w....U......!
00403B70 68 7C E1 40 F9 01 EB 2C FF 5D 68 2A 22 36 11 AC h|.@...,.]h*"6..
00403B80 08 52 97 ED 00 00 53 A3 94 28 7D 17 43 96 B3 6D .R....S..(}.C..m
00403B90 6C AE 4B 7D 96 AA A0 C4 D7 81 60 C6 A0 00 04 E5 l.K}......`.....
00403BA0 3E 3C C9 FE B2 CD 40 4F 00 85 43 6F 01 A0 A9 9E ><....@O..Co....
00403BB0 2E 00 8F FF 4B 00 FF F9 A5 B0 F4 42 8A 5C CB 9D ....K......B.\..
00403BC0 00 2E 00 93 10 09 99 AA 00 DC C2 6B F2 0C 24 04 ...........k..$.
00403BD0 3C A9 78 48 28 94 D1 FF 1C F9 D0 99 FF 60 8C 1B <.xH(........`..
00403BE0 F6 7F 00 C9 00 09 66 C1 3E 00 53 85 CD 0B 01 08 ......f.>.S.....
00403BF0 18 91 C8 E9 FF 42 B3 37 B4 4B EE DB 5D FF 2D 2B .....B.7.K..].-+
00403C00 00 41 B5 8D 58 06 A3 00 84 00 0B 4B 63 94 0B 62 .A..X......Kc..b
00403C10 80 CE 2E 44 F8 00 94 F7 00 2A 02 F5 CB 37 B1 00 ...D.....*...7..
00403C20 0D 7B FF 90 C6 8D 36 6D E4 A9 42 4C 6C FF 00 00 .{....6m..BLl...
00403C30 CC FF BC 00 D1 D3 00 24 AF 8E 43 00 6E 3B 27 00 .......$..C.n;'.
00403C40 FF 85 76 C0 3F 00 A3 94 F4 34 1B CC 49 39 53 FE ..v.?....4..I9S.
00403C50 38 00 D9 41 00 CD 36 E1 B3 86 63 01 2A BA 00 81 8..A..6...c.*...
00403C60 C7 FB DC 63 27 21 7B 41 91 00 10 E7 9F C9 17 00 ...c'!{A........
00403C70 C1 48 83 4C F7 40 78 1B 00 B2 3E 79 00 D2 18 FE .H.L.@x...>y....
00403C80 02 FF 39 B0 2C 6C 0B FF BE 00 72 07 DC D4 58 C1 ..9.,l....r...X.
00403C90 3C CE 91 00 96 1C 6A 40 83 00 FA 00 7F 20 75 A7 <.....j@..... u.
00403CA0 00 FF 00 67 5C 8F DF 0C 0C 32 00 38 D0 43 00 FF ...g\....2.8.C..
00403CB0 A1 00 00 4C 41 30 43 00 FF C8 A6 F4 EB C5 B9 80 ...LA0C.........
00403CC0 7E 00 94 93 93 14 00 CF 00 CC 2B FB FF 66 4C 00 ~.........+..fL.
00403CD0 46 9F 00 71 F9 08 14 9A C0 F5 6A 37 2E 3E A8 1B F..q......j7.>..
00403CE0 8A AC 7D 27 C0 B3 C7 AE 1E F6 61 88 31 4E FF 00 ..}'......a.1N..
00403CF0 9D F1 4E 05 A4 02 02 00 70 00 80 00 CA D8 FF E1 ..N.....p.......
00403D00 D1 CD 2C 66 FE FF 8D 03 43 D8 8A 00 E0 C8 86 80 ..,f....C.......
00403D10 4B 4F 3B 61 FF 03 90 75 1F 72 1D E3 DD 1A 40 06 KO;a...u.r....@.
00403D20 D3 28 45 FB E8 0C 18 E8 A3 C0 78 00 02 C2 42 00 .(E.......x...B.
00403D30 72 8E 1A 78 54 6F 94 FF 00 5B 9A 13 CC 08 00 72 r..xTo...[.....r
00403D40 86 69 1F 83 03 E2 77 00 10 B4 54 3A DF A1 D5 F3 .i....w...T:....
00403D50 F4 01 73 0C 0A C3 1D 37 FF B5 CA AD FF 8F C0 6F ..s....7.......o
00403D60 6C 88 D8 43 D9 09 9E 00 BD 07 16 C4 00 24 C8 21 l..C.........$.!
00403D70 6A D8 0D 7B 00 46 D2 61 0D A1 49 3D 00 00 75 CA j..{.F.a..I=..u.
00403D80 38 9E 3C 77 4E 60 FA 82 C8 37 FF 9A 20 00 E4 B5 8.<wN`...7.. ...
00403D90 00 96 81 58 1E F9 D0 41 00 2D 74 0A F8 42 60 70 ...X...A.-t..B`p
00403DA0 FF 00 96 A7 65 2F 17 18 65 00 FF FF D1 2B F4 F9 ....e/..e....+..
00403DB0 F3 00 7A 07 00 ED A1 E5 D7 BF 07 72 CC 2C 00 CF ..z........r.,..
00403DC0 6D BD C0 B3 0A 35 A9 00 FF CA 1A FF 6A B1 0C 00 m....5......j...
00403DD0 A7 3E D8 67 48 AA F3 1D DB 00 B4 70 00 41 2F 99 .>.gH......p.A/.
00403DE0 F3 01 50 D9 FF 4F BD 00 00 00 81 41 0E 2B 48 8F ..P..O.....A.+H.
00403DF0 12 4E 4C C5 7D 00 A7 C0 65 36 CF 09 C1 69 FF E9 .NL.}...e6...i..
00403E00 1C 90 84 4A A1 7C 93 49 FF 0A 8F 67 00 00 58 65 ...J.|.I...g..Xe
00403E10 ED 03 A3 12 23 00 FF 1F B8 71 7F 6A 0A 5D FB 79 ....#....q.j.].y
00403E20 00 5B C1 79 20 E7 E4 67 3B 40 6A 4A 24 2E 41 52 .[.y ..g;@jJ$.AR
00403E30 96 17 DB 00 18 D1 83 5C FF 0F 92 9B 09 D5 06 24 .......\.......$
00403E40 48 60 57 58 FF E9 2A 6B D3 E1 F4 71 00 F1 26 FF H`WX..*k...q..&.
00403E50 E8 78 D1 EE 00 22 B6 CB 54 E1 0A 08 6F 6C 30 BC .x..."..T...ol0.
00403E60 00 EE 77 8F E7 03 7A 38 01 36 94 B5 EF 10 25 F1 ..w...z8.6....%.
00403E70 00 96 26 FF 3B EB 51 DA 59 FB 78 A0 F0 11 3A F2 ..&.;.Q.Y.x...:.
00403E80 2C AA B4 50 45 00 54 36 6E 24 B1 EF B7 23 8A C5 ,..PE.T6n$...#..
00403E90 E9 04 00 18 00 3E 4B 85 C2 B3 44 00 52 00 00 0A .....>K...D.R...
00403EA0 F8 C4 C6 09 CD 77 08 DB E5 18 0B C6 AE 5A D4 17 .....w.......Z..
00403EB0 20 C3 68 00 57 00 3A FF C6 6F AE 8C 09 18 FF 2A  .h.W.:..o.....*
00403EC0 3F 00 55 44 5D 7C 23 D8 F3 85 F8 98 40 00 0F F6 ?.UD]|#.....@...
00403ED0 FF 21 DF 00 DA 85 DA 7D EB 00 55 94 05 A7 E8 8F .!.....}..U.....
00403EE0 44 CA C3 51 07 80 5D 22 2F 00 76 9B F8 00 05 64 D..Q..]"/.v....d
00403EF0 44 10 C8 C7 00 52 33 BD 48 A5 00 21 47 0B 6A 18 D....R3.H..!G.j.
00403F00 0E A5 20 D0 68 60 8D 2A A4 00 FF 37 FF DD 01 C1 .. .h`.*...7....
00403F10 F1 2A 2B 08 F8 FA 81 BF 4F 17 BA FA ED D0 A6 31 .*+.....O......1
00403F20 59 EF 68 AC 10 6D 03 70 AD B5 E6 3F D7 3B 00 63 Y.h..m.p...?.;.c
00403F30 47 9F B3 45 A1 2E 4D 78 68 CF EA C0 12 08 EA F9 G..E..Mxh.......
00403F40 08 9C 0F 92 00 C4 6B 66 FF 00 E2 CC FF A3 54 47 ......kf......TG
00403F50 B1 44 39 00 42 8F 37 4B FF 81 CE D7 98 7E B3 00 .D9.B.7K.....~..
00403F60 B8 A5 66 38 A3 10 8A D4 65 24 77 64 00 D2 D6 31 ..f8....e$wd...1
00403F70 ED 03 FF 59 8B BE 3F 23 00 38 FB 53 86 B7 CB 49 ...Y..?#.8.S...I
00403F80 A3 FF 82 25 46 22 7F 3A 13 00 97 51 9E 96 45 4E ...%F".:...Q..EN
00403F90 EB 0C 76 77 89 CF B1 C4 04 11 00 48 2C 22 FF C3 ..vw.......H,"..
00403FA0 00 0B 60 70 BD 20 68 BA 31 42 2A E2 9D 51 46 25 ..`p. h.1B*..QF%
00403FB0 32 7C 7B F0 71 81 BB 7E FB FD E4 9E 68 65 00 09 2|{.q..~....he..
00403FC0 E4 10 F3 0C FC 09 5C 93 54 00 9A 88 D0 01 02 19 ......\.T.......
00403FD0 1C 3C BC 81 00 60 B4 3F 06 4D F7 B8 F5 A0 F7 B0 .<...`.?.M......
00403FE0 64 32 A3 6C 05 42 3E 6B EF C0 C7 08 E2 00 52 0F d2.l.B>k......R.
00403FF0 B7 32 0C 52 68 00 96 00 21 8D 00 FF 00 89 CF B6 .2.Rh...!.......
00404000 18 5D 11 00 56 E8 E5 D7 2F C8 00 FF EE 00 74 47 .]..V.../.....tG
00404010 01 02 80 1A CE 96 47 4D A8 00 C9 B9 B0 FF 00 2A ......GM.......*
00404020 E7 FF 26 FF 5F 3C 4F 2E 20 60 8F FF 92 A1 70 13 ..&._<O. `....p.
00404030 6A 1C 96 A0 00 19 8D 24 8A 38 B5 97 E5 11 00 0B j......$.8......
00404040 A7 34 E8 00 04 72 EC 7A 57 6A 3E 80 C2 00 83 F0 .4...r.zWj>.....
00404050 5C DA 66 15 FA C4 EC 00 E2 00 66 00 D9 39 76 9C \.f.......f..9v.
00404060 F6 5D 00 62 CE 07 ED 17 85 00 00 C1 00 53 53 BF .].b.........SS.
00404070 FF 00 2F 74 64 30 DD 00 69 E0 93 6D 10 39 68 00 ../td0..i..m.9h.
00404080 F1 39 00 99 F5 01 3F 3E C0 41 0E 69 2D 08 E3 0D .9....?>.A.i-...
00404090 06 EB 00 84 0B 4A 6F A6 00 00 00 01 83 80 8E 00 .....Jo.........
004040A0 36 25 9D 00 70 FB C0 00 2B 21 C5 11 C4 BC 0C 06 6%..p...+!......
004040B0 F9 D3 FF 62 6F C3 00 5F F8 3C 74 4B B4 FB 48 00 ...bo.._.<tK..H.
004040C0 6C D0 A5 3C FF 22 F7 08 C0 C7 56 00 95 9E C8 52 l..<."....V....R
004040D0 F0 54 FF 08 FF 5D CE 5C 72 5E 45 24 10 4B A6 00 .T...].\r^E$.K..
004040E0 8A 12 42 1B FF 00 F3 3B 22 FF A8 7F B4 F8 9C D5 ..B....;".......
004040F0 53 C0 34 06 45 35 F4 93 00 AB DF AA 00 21 19 5E S.4.E5.......!.^
00404100 00 B9 C8 81 99 AE FF C5 06 53 3A 37 FF D5 DF 38 .........S:7...8
00404110 3C E9 30 ED 00 E2 87 A5 7F 23 13 D4 99 61 FF CD <.0......#...a..
00404120 EC 5B 70 89 82 00 3C E1 88 EA AD 1D 68 87 03 76 .[p...<.....h..v
00404130 C1 00 80 7C A3 58 70 00 F7 9C 8B DD F1 00 E4 DB ...|.Xp.........
00404140 4C 63 11 95 7D 89 D2 F7 82 65 5A 8A 06 9D 00 30 Lc..}....eZ....0
00404150 AD 84 BD 0D EF 36 04 00 64 44 B7 E8 80 E0 AA BE .....6..dD......
00404160 54 71 D9 1C 20 39 EC F6 44 1E 18 4D 0C 9F 00 FF Tq.. 9..D..M....
00404170 00 00 71 4F DD 00 5C C9 95 82 00 04 0C 00 73 FF ..qO..\.......s.
00404180 FA 57 EB 1C 32 6E 8E 26 47 00 D6 4B 28 FF A7 10 .W..2n.&G..K(...
00404190 14 00 DD C2 51 D8 6F AB 0A EB F5 00 55 42 70 0B ....Q.o.....UBp.
004041A0 C9 6F 57 9C 20 06 65 88 00 00 03 00 35 00 00 E6 .oW. .e.....5...
004041B0 C8 8B 00 BD 24 CC C5 79 12 3C 87 28 0C B1 23 FF ....$..y.<.(..#.
004041C0 00 C5 00 61 41 13 CC 13 6B 01 2C 57 D3 DC BF 63 ...aA...k.,W...c
004041D0 9E 75 27 95 B2 A5 C7 64 17 79 21 0C 00 C8 F6 89 .u'....d.y!.....
004041E0 31 E1 6F AD B6 B4 C4 26 FF 30 3A DF 00 8A 79 A3 1.o....&.0:...y.
004041F0 7D 25 00 52 A1 79 72 92 54 C1 6A 00 FE 27 1D 9E }%.R.yr.T.j..'..
00404200 6C 00 CC 00 C4 03 58 EC 00 06 CA AB 36 1D FF C3 l.....X.....6...
00404210 0C FB 35 F7 2E 10 C1 86 72 47 00 B3 F5 E9 B8 58 ..5.....rG.....X
00404220 08 40 19 00 00 97 F0 74 8F 8F 54 3B 25 1A C3 37 .@.....t..T;%..7
00404230 8B 53 3C FF 00 A7 98 30 E7 D0 FF 8A F0 09 B4 E8 .S<....0........
00404240 00 5E F1 BD FF 93 08 03 00 5E B9 0C 60 00 F2 C9 .^.......^..`...
00404250 00 AF DB 00 C1 A4 70 34 57 12 EA 00 68 B6 A4 11 ......p4W...h...
00404260 84 41 FF 3A 28 00 06 4B 14 DD 3D 60 B0 3F D0 E8 .A.:(..K..=`.?..
00404270 A6 00 31 A9 14 4D 19 B8 DC CD 3E 3E B8 7E CB B1 ..1..M....>>.~..
00404280 91 B0 4E FF 40 FF F7 0A D8 66 22 52 CD EB 4E 03 ..N.@....f"R..N.
00404290 E3 AE 68 05 99 3E 42 82 C3 64 F1 2B FF 1F 22 2F ..h..>B..d.+.."/
004042A0 F3 CE 7F 72 B0 E7 B2 45 6A 00 B1 C6 2D 78 6A 15 ...r...Ej...-xj.
004042B0 14 FE AC 80 18 00 73 00 22 C1 54 4E 00 1B 19 A3 ......s.".TN....
004042C0 00 C6 2A 4C AB BC 95 52 45 B5 F9 00 8D 2E CF FF ..*L...RE.......
004042D0 BD 00 7A 25 36 20 0E C1 C4 6A 50 E4 00 B4 9F 37 ..z%6 ...jP....7
004042E0 A4 3E 9E 00 00 B0 87 B5 60 FF 92 00 CB F2 7B F4 .>......`.....{.
004042F0 8A B9 F8 1D 3C 00 82 00 B3 BF 00 00 0A 00 B1 FD ....<...........
00404300 E8 00 55 00 0D 00 A5 0B FF 5B 6C 00 6A 00 26 40 ..U......[l.j.&@
00404310 83 05 3B 16 B7 27 33 82 F3 D3 17 0D 48 6C 6A 24 ..;..'3.....Hlj$
00404320 DD 3B 84 7E 43 88 00 1B A4 0F 00 ED 9A EE 00 FF .;.~C...........
00404330 52 FD 9E D8 E7 91 FF EC 00 D0 FD 61 00 38 B5 42 R..........a.8.B
00404340 D2 74 88 DE 76 FF E0 A9 0F 41 00 C8 81 6A 8D EB .t..v....A...j..
00404350 44 60 92 E9 61 14 A9 00 C3 00 6C 2F F1 DA 00 6E D`..a.....l/...n
00404360 C0 35 03 EA 29 95 B9 9B D5 38 56 F2 2A FD 8F F1 .5..)....8V.*...
00404370 00 00 00 43 12 05 FB 00 C4 8C 00 A8 00 36 61 C0 ...C.........6a.
00404380 F8 10 FF 03 51 DF 30 0A 6D 3E F5 A4 75 46 00 01 ....Q.0.m>..uF..
00404390 20 37 00 FF 00 B0 D1 04 00 C3 00 0D F6 49 6F 51  7...........IoQ
004043A0 4C 6F B1 D1 45 EE 92 75 FF 9D 09 24 06 1A 2E 49 Lo..E..u...$...I
004043B0 F7 72 E9 2F F5 08 07 98 F0 19 90 00 3C 66 45 64 .r./........<fEd
004043C0 00 17 E2 92 2D EB 20 F4 5C 77 05 04 89 3F DC 94 ....-. .\w...?..
004043D0 0E E2 E3 EA 62 24 10 B9 00 81 81 75 00 E1 F8 E0 ....b$.....u....
004043E0 0E 76 00 00 41 04 43 7E 7C DC 54 6E 5C 06 B8 A5 .v..A.C~|.Tn\...
004043F0 F4 11 37 24 C1 1B 7C C3 00 1F 00 17 DB 1A D1 9E ..7$..|.........
00404400 FF 05 05 04 49 43 45 72 00 65 7F 9F F2 F2 8E B9 ....ICEr.e......
00404410 80 C2 17 7D 12 26 9C FF EA 24 B9 6F 6B C8 88 42 ...}.&...$.ok..B
00404420 30 79 E6 0E FB FF BA C5 FF 0E 00 12 00 48 BE 2B 0y...........H.+
00404430 00 7E F7 A2 E4 20 ED 41 00 79 CC F3 86 1C FE E7 .~... .A.y......
00404440 24 ED 40 D0 CE 1F 00 00 00 AA 5C FF EC AE 27 D3 $.@.......\...'.
00404450 B9 E2 82 39 74 B0 47 B8 67 8E DF 01 20 D2 DC 20 ...9t.G.g... .. 
00404460 91 C3 1C B4 C0 0C 6D F4 66 8B 89 16 67 3B 9B 25 ......m.f...g;.%
00404470 22 78 88 00 D2 11 00 87 D3 F7 F1 1A 20 00 AE 64 "x.......... ..d
00404480 01 00 D2 70 5A 11 55 F0 C5 0E FF BF 97 FB CC EA ...pZ.U.........
00404490 14 5F 08 B1 FF 50 ED 00 17 EF 44 80 00 75 62 1B ._...P....D..ub.
004044A0 D7 EB E7 40 45 A3 AC D8 C3 64 70 00 2B 00 79 00 ...@E....dp.+.y.
004044B0 3D B7 F0 28 03 BE FF 99 00 E1 70 E4 BE 14 FF 37 =..(......p....7
004044C0 08 8C 00 7B 42 7C BE E2 00 7F FF 4D F8 13 08 DB ...{B|.....M....
004044D0 F8 FF 38 00 B3 9D A6 A0 57 3C 27 32 FE AF 05 9B ..8.....W<'2....
004044E0 60 9E 00 9E 65 F1 3A A9 67 A0 68 30 5E EC 6E 12 `...e.:.g.h0^.n.
004044F0 00 7E E7 59 11 AB F5 00 B9 C5 76 81 8E F7 2C FF .~.Y......v...,.
00404500 12 99 3A 00 1F 00 F9 7E 5B 16 93 06 14 E0 F3 00 ..:....~[.......
00404510 00 CF EF ED 24 35 74 FB D6 4C 66 A2 11 B4 FF 62 ....$5t..Lf....b
00404520 FF 10 00 00 99 A5 FF 02 D1 42 FB 62 E2 F8 F0 D3 .........B.b....
00404530 63 9E 71 FC A9 28 FF 52 7E 08 9C B2 1C 30 CF BD c.q..(.R~....0..
00404540 78 DD 15 E8 05 73 24 44 00 00 D1 3A 2F E8 84 08 x....s$D...:/...
00404550 B8 E6 36 00 EF A2 40 CE DC AA BF 00 E5 00 61 32 ..6...@.......a2
00404560 FE 6E 3F D3 FD DD 00 1C 5E CC E1 12 FE 60 00 FA .n?.....^....`..
00404570 BD 49 EC 00 47 13 F6 00 94 80 B7 CE 00 BC 10 F2 .I..G...........
00404580 C0 FA 71 81 4E 76 69 E7 00 39 67 8E 80 C2 67 0E ..q.Nvi..9g...g.
00404590 00 BF 2E BA 4A C5 F0 DF 23 73 52 DB 68 09 A6 B0 ....J...#sR.h...
004045A0 D1 84 07 07 F6 00 E0 0D DB FF F8 AB 4C 6B 6E 5E ............Lkn^
004045B0 B9 27 40 47 F4 F9 20 E3 CC CF EC DB 77 00 1A 67 .'@G.. .....w..g
004045C0 00 00 99 65 FF 0E 98 80 A1 86 2F 00 00 5F D2 A6 ...e....../.._..
004045D0 11 2D F2 40 00 FF 97 CF 99 A0 BA 1B 04 F4 6D FF .-.@..........m.
004045E0 08 0B FE 00 8F FF 23 00 20 6C 9E 43 89 26 FF C2 ......#. l.C.&..
004045F0 E0 F9 00 C1 00 36 8F 6E B8 02 7D 31 E8 49 F7 8D .....6.n..}1.I..
00404600 1F E9 E2 F5 CF 72 0D 16 00 B1 00 00 13 34 D5 9D .....r.......4..
00404610 36 4D 33 37 94 00 86 88 2C 00 E6 F7 6F D1 1D 09 6M37....,...o...
00404620 00 0F E5 00 33 00 4E 26 A7 EB F2 1A FE 09 FF BC ....3.N&........
00404630 07 FF FF 95 1F 85 A8 88 FF DC B6 30 6F 2E 00 0F ...........0o...
00404640 70 5B 77 FF B0 CC 0C D8 09 92 B3 BF 7F 1E F1 24 p[w............$
00404650 00 0B E2 74 00 30 13 FE 0E 26 FF 8E EF 3E 00 FB ...t.0...&...>..
00404660 8F 6F B3 59 E7 C2 CC 38 13 D1 00 8A 0F 29 E6 63 .o.Y...8.....).c
00404670 DF 00 87 03 00 B8 00 C7 8B FF B7 9D 3E 5E E4 18 ............>^..
00404680 1B 17 00 42 60 28 4B 1E C2 D8 23 D3 43 41 C9 F6 ...B`(K...#.CA..
00404690 FD 6E 21 39 6E F6 D3 8D CF 31 07 9C FE 77 FF 00 .n!9n....1...w..
004046A0 2C A0 0E 9E EB A4 00 19 BC 08 DA 3D 89 11 AD B7 ,..........=....
004046B0 00 3B 49 05 6D 46 C9 D3 91 23 5A FF 00 5D 02 E8 .;I.mF...#Z..]..
004046C0 A0 86 DA 2D 00 24 00 00 38 E8 20 BF A6 B5 0D 2E ...-.$..8. .....
004046D0 0E A3 3E 9E 30 7B 43 7D 1B 05 EB A9 60 D2 00 37 ..>.0{C}....`..7
004046E0 45 14 7C A0 5F C9 00 91 00 34 C0 A3 D1 73 52 F9 E.|._....4...sR.
004046F0 8B 00 59 00 24 15 61 82 00 00 85 3A D3 94 08 00 ..Y.$.a....:....
00404700 A0 23 A3 E2 FF 48 00 50 90 03 98 00 0B CC 97 FB .#...H.P........
00404710 15 4D BD 0E 9D 1A DB 5C 27 71 D2 22 0B EA A5 C3 .M.....\'q."....
00404720 1D 00 5B C0 8D 8B 9F B6 7B B0 DC 39 6C 60 E9 84 ..[.....{..9l`..
00404730 A3 FF FF 6A 53 B9 D9 DC 29 B7 7A 9D 99 41 00 00 ...jS...).z..A..
00404740 00 99 E9 1F 8C 0D 94 25 1C EB 00 13 66 C5 53 0B .......%....f.S.
00404750 00 FF 44 8D B8 DB 88 20 0A A5 80 00 81 74 00 00 ..D.... .....t..
00404760 8C F7 18 92 53 F1 33 00 00 C9 3F 81 8B DD F6 26 ....S.3...?....&
00404770 BF 07 F1 EC FF D0 33 F1 9D CC FE 9A 00 9D DF E5 ......3.........
00404780 B3 91 AC 30 20 07 25 D1 72 F4 85 7E 15 FF C0 C9 ...0 .%.r..~....
00404790 2F FF 3B FB B6 08 81 6B 7B 3A B9 4C 11 E9 FF 0E /.;....k{:.L....
004047A0 42 DE 5A A2 1C 77 C3 71 85 29 13 40 43 B2 3A 59 B.Z..w.q.).@C.:Y
004047B0 EA 98 73 41 4C 58 00 C1 98 12 BC 6A FF CF 04 FF ..sALX.....j....
004047C0 6C A6 38 11 D1 59 28 00 15 52 56 00 00 0A C6 F3 l.8..Y(..RV.....
004047D0 C9 02 16 FF 34 02 24 3E DE 73 44 C0 00 0F E4 00 ....4.$>.sD.....
004047E0 80 1C 74 28 7D AB 98 6A ED 00 DE EE 70 00 E6 B6 ..t(}..j....p...
004047F0 1A 0F 5D 96 6C 6D 48 CC 15 18 AE FF B2 96 67 D8 ..].lmH.......g.
00404800 51 B9 63 75 49 42 FB A9 DC 48 B3 C7 39 61 95 9E Q.cuIB...H..9a..
00404810 01 00 48 22 D8 00 A3 38 C1 A2 8E 0E 90 DC 1F 54 ..H"...8.......T
00404820 46 05 FF DD 1B 3D 3B 9C 0D C5 68 2B FF AE 0B 8C F....=;...h+....
00404830 6E E9 4F F1 00 00 D5 A7 02 1B 0A 34 FF C8 E5 D4 n.O........4....
00404840 96 EE 4B 8D 4C 61 C9 05 88 FE 52 05 FD 8A 55 53 ..K.La....R...US
00404850 64 50 76 B4 EA E0 F2 6E C5 00 B3 6C B1 C8 00 87 dPv....n...l....
00404860 F7 08 62 2A 16 00 96 5A F3 D2 97 34 08 07 95 0D ..b*...Z...4....
00404870 E6 48 70 44 A8 EC 84 5F 42 82 CE 05 71 8D 00 F6 .HpD..._B...q...
00404880 35 00 7A 82 4D BB 1E 00 10 C7 C0 AA 2E 00 00 DA 5.z.M...........
00404890 A7 6B 00 00 C9 D1 A4 2C 40 F1 F6 FF FF 65 6E FA .k.....,@....en.
004048A0 29 79 F1 F6 D1 98 E6 00 BD FA 9D 30 00 B5 FF D4 )y.........0....
004048B0 41 F9 8A 57 BD B7 22 BD 5C 1B 72 98 00 09 00 13 A..W..".\.r.....
004048C0 62 17 BD 4D F6 FF 14 B8 00 30 40 1C E7 3E A5 D5 b..M.....0@..>..
004048D0 9C 3B 4B 13 FD 20 C2 9B 42 DE 00 A5 00 AE 80 CE .;K.. ..B.......
004048E0 9C DF 7C 18 71 17 47 98 50 EA CF EA D1 00 62 D6 ..|.q.G.P.....b.
004048F0 9B EC EA 3E 2C 2F 06 D2 8F 0D 9E E4 AD B1 27 BA ...>,/........'.
00404900 F0 FF FE A2 91 A0 C0 53 6F 04 00 91 00 00 E2 C8 .......So.......
00404910 01 5F 00 65 68 09 FF D4 FF 8D 7F 50 F1 A0 2F FF ._.eh......P../.
00404920 00 4B 56 2F C8 6E 80 53 36 52 B7 91 FF 95 00 FC .KV/.n.S6R......
00404930 98 C9 00 BD 4E 00 28 00 15 70 2A E6 00 AB 76 06 ....N.(..p*...v.
00404940 0B FF FF C7 38 B0 FF 2A 55 77 00 C9 00 00 D2 A8 ....8..*Uw......
00404950 2D E8 37 1E 44 AC 78 E9 5D 79 9D A8 5F 57 3A 82 -.7.D.x.]y.._W:.
00404960 00 B3 83 FF F0 F0 00 CD 0B B9 AE 88 60 74 EA FF ............`t..
00404970 11 81 46 10 FE 0E 58 A2 D4 6C 3A 65 AB 0B FF 86 ..F...X..l:e....
00404980 A9 63 5C 0C F3 8C E2 A8 9D 58 AB F3 FF 00 9B 1F .c\......X......
00404990 0A E1 78 8C 14 99 47 D7 00 B7 8C AF 34 44 9F E5 ..x...G.....4D..
004049A0 7F FD 0A 9B A4 72 E3 83 38 4B 4B E7 19 A5 FD 90 .....r..8KK.....
004049B0 E3 40 06 9B 36 03 DC 00 42 59 D9 B7 B6 77 8E 1F .@..6...BY...w..
004049C0 00 44 00 68 BB 3F 22 2E 73 DF F0 2B CA 5C 62 61 .D.h.?".s..+.\ba
004049D0 3F 8B 00 7F 00 8F 10 84 56 0C C9 2E 5C 00 D0 26 ?.......V...\..&
004049E0 AB 00 F9 71 00 C4 46 02 9A C2 D0 06 3D F4 E5 02 ...q..F.....=...
004049F0 4B B3 00 3E 5D 3D 88 00 91 38 49 00 FF BF 3D BD K..>]=...8I...=.
00404A00 9A 44 EF CD A7 F0 1A 00 FF 43 E7 00 36 6B 00 FD .D.......C..6k..
00404A10 00 FF 16 4C 59 00 C8 FF A3 00 3F 00 AE D0 B8 01 ...LY.....?.....
00404A20 60 A8 52 FB A5 E9 22 01 04 87 1E 05 98 32 92 34 `.R..."......2.4
00404A30 52 28 76 28 00 29 E3 8A F7 00 F8 82 00 00 70 BA R(v(.)........p.
00404A40 00 FF A0 B9 BE AE 67 AA E3 BA 81 0E BA C9 00 CE ......g.........
00404A50 10 36 00 E3 1F 00 00 00 00 C0 77 56 95 0E FC 70 .6........wV...p
00404A60 B3 A7 FF 66 A6 46 DC 00 A7 79 D8 3B EF A2 F5 57 ...f.F...y.;...W
00404A70 18 7A 17 94 54 37 D4 BD BF B9 05 81 00 B0 29 14 .z..T7........).
00404A80 60 7A B7 83 FF FB 00 B9 FF 93 0A 58 F2 E3 83 8D `z.........X....
00404A90 D0 0E 1D FC C7 85 10 00 F2 EA 00 D3 77 38 C2 FF ............w8..
00404AA0 00 E3 18 8A B5 94 CB 8C 61 DD 7F BF FF 89 25 B0 ........a.....%.
00404AB0 6B 83 62 1D 8A 45 1A C1 00 D7 00 85 CD 66 00 00 k.b..E.......f..
00404AC0 82 00 FF 08 33 F5 5E 98 3F 00 D3 3A AE 00 8F 9C ....3.^.?..:....
00404AD0 7E 8D 14 85 00 00 58 06 CB 3F A1 0C 00 25 7C 00 ~.....X..?...%|.
00404AE0 34 84 06 EA FE BF 40 E4 00 68 A6 B4 6C 5D DE 5C 4.....@..h..l].\
00404AF0 2E 68 FF 5B 00 DC C8 72 FF 34 C2 00 B6 C4 FF 7C .h.[...r.4.....|
00404B00 E3 38 00 32 FF 00 00 34 75 31 08 A0 4D DC 5F 51 .8.2...4u1..M._Q
00404B10 E2 0A 56 02 FF E1 6A DE 66 30 F6 B6 2A 6D BA 00 ..V...j.f0..*m..
00404B20 44 EE 00 00 30 A5 C3 BC C2 84 8F FF CA 2C 8C BF D...0........,..
00404B30 98 00 00 4B B7 03 FF 26 00 08 54 F5 0D E1 B0 81 ...K...&..T.....
00404B40 B8 5C 00 E4 48 B9 B4 25 C7 00 FF FF 00 3F DF 08 .\..H..%.....?..
00404B50 31 A7 A5 03 19 2C DF 66 00 03 00 C6 00 5C 82 C9 1....,.f.....\..
00404B60 CE FF EC CA 00 00 5D 91 D3 7A 6D 6F FE DF 00 35 ......]..zmo...5
00404B70 F6 77 C6 DA 16 4A 70 86 FE 00 00 FC 18 00 D4 00 .w...Jp.........
00404B80 00 31 00 65 7E E1 4E 7A 93 1C D3 7C 96 74 1B 49 .1.e~.Nz...|.t.I
00404B90 2F D3 00 7D FF 16 AF 20 FF 40 64 CB A2 F9 D5 7C /..}... .@d....|
00404BA0 57 F0 7D 08 00 4B 87 B0 11 5D 00 C9 D9 B3 41 94 W.}..K...]....A.
00404BB0 FF B0 FF 3E F2 23 FF D2 39 E3 68 BF FC FB CF C0 ...>.#..9.h.....
00404BC0 1F EA 7D 06 AE 00 0C 59 92 50 00 57 2B 69 7D 30 ..}....Y.P.W+i}0
00404BD0 B8 AE 9F 12 24 00 00 DF 42 FD 5B 87 70 00 72 09 ....$...B.[.p.r.
00404BE0 00 00 D3 37 A1 FF 22 1D 6C 37 A7 0C 3E 91 CB 2A ...7..".l7..>..*
00404BF0 00 EE 31 1C 6B E8 3D F4 00 02 D2 00 A0 B4 00 5F ..1.k.=........_
00404C00 25 D3 EF 00 4C 84 C8 13 E3 72 1C B7 0D 7F CC 83 %...L....r......
00404C10 A0 F6 C3 41 BB C8 B6 06 1E FC 0F FD 4C 17 63 35 ...A........L.c5
00404C20 B0 04 82 EF F2 AA C9 58 0A 04 98 C5 81 1C 4C C0 .......X......L.
00404C30 7E F4 00 DE F0 00 00 FF DA FF 7F AC A9 64 AF 6C ~............d.l
00404C40 1A 8B A8 EF 5A FF 06 00 00 FF 00 8D F1 D8 BD FB ....Z...........
00404C50 08 78 81 02 CD AB 10 FC F4 4E 0D 44 00 D7 48 FF .x.......N.D..H.
00404C60 D1 57 5E 4A 00 61 5D 8F 00 74 06 00 ED 79 12 73 .W^J.a]..t...y.s
00404C70 12 00 00 FF 1A D0 A7 81 83 E6 0E 43 37 85 E6 A5 ...........C7...
00404C80 BB F6 00 08 A5 65 08 DF CC 9F BF 45 97 00 40 90 .....e.....E..@.
00404C90 E5 2E 8B 9E 9B 66 00 28 18 77 56 A5 20 3B CB 00 .....f.(.wV. ;..
00404CA0 7C 00 70 00 54 B1 F4 9E C0 08 00 BD AA EC 3A 49 |.p.T.........:I
00404CB0 FF 00 8C 00 B7 31 FF 3D EF 7D 6F 90 27 F1 86 3A .....1.=.}o.'..:
00404CC0 72 00 00 00 1C 15 35 74 0E 3A 02 00 7D E4 C2 CF r.....5t.:..}...
00404CD0 83 04 F7 00 D7 4C 08 6C 00 23 00 16 00 FF CF B1 .....L.l.#......
00404CE0 B3 61 2E 00 A3 55 08 66 AF F8 4E 00 E1 26 3E 22 .a...U.f..N..&>"
00404CF0 25 80 06 CC 00 8A 10 00 91 CC 00 91 5C 00 FF C7 %...........\...
00404D00 00 FC 67 8E 64 70 45 48 E1 A5 07 C8 68 27 6E 79 ..g.dpEH....h'ny
00404D10 F3 00 4B 3A 44 28 61 53 00 2E 4D 0F 64 D3 BF 64 ..K:D(aS..M.d..d
00404D20 69 23 F6 C9 E0 59 19 37 86 B5 62 00 F3 DA FA 82 i#...Y.7..b.....
00404D30 84 07 7E C6 2D 00 0D FF 8F CD C7 7C 73 D9 00 7A ..~.-......|s..z
00404D40 BB D6 7F 09 BF 84 CC C2 E4 00 FF 00 DD 06 FC DD ................
00404D50 4F 21 87 62 5D 4C 60 FF FF 10 D0 D0 B9 EA 69 A1 O!.b]L`.......i.
00404D60 AD 8A 33 85 F0 A2 D8 38 16 1B E3 2F A6 A7 70 CC ..3....8.../..p.
00404D70 3C F5 89 45 E2 C5 0F ED 4F F1 81 D8 CE 6F 18 FF <..E....O....o..
00404D80 25 B6 5D 78 00 3C DC 6C DB 4C 03 08 4F 49 C6 00 %.]x.<.l.L..OI..
00404D90 F1 89 00 FB BF 3C F3 85 15 F8 41 F2 52 E1 9B F7 .....<....A.R...
00404DA0 44 E4 64 E0 77 A9 3A 00 A6 00 02 3E 00 4A 83 C7 D.d.w.:....>.J..
00404DB0 34 CC DA E6 0B FF 3D E4 1F 0A 53 9B 78 D8 3E 96 4.....=...S.x.>.
00404DC0 DF F9 0E FF C3 4D 23 FF B3 BE 83 FF 00 00 73 FF .....M#.......s.
00404DD0 BC 00 46 00 D1 CA 88 D8 2E 00 00 08 0C 00 5E CC ..F...........^.
00404DE0 FF 98 C9 64 12 81 00 D8 FF A1 9B 0C 00 2C 43 00 ...d.........,C.
00404DF0 94 00 CE 44 63 1E F1 00 FF 00 B7 EA 64 BF 00 80 ...Dc.......d...
00404E00 DA 73 A0 16 0D 0D 87 4F 90 2C 59 F7 97 10 7F AA .s.....O.,Y.....
00404E10 1F F6 FF 39 18 FF 7C 89 00 4E 4D 81 45 26 A5 78 ...9..|..NM.E&.x
00404E20 82 5B 40 EE 6B 4D 00 FF D3 FF B6 82 3F 00 47 D3 .[@.kM......?.G.
00404E30 B7 B8 39 F0 08 E5 6E FF A5 99 F0 B8 BC 14 BD 63 ..9...n........c
00404E40 92 00 A0 83 9D 92 FF 62 EF 00 06 9A A3 AC 5D 98 .......b......].
00404E50 D2 7B FF 1C 32 15 E0 61 4C 00 8D AB CE B1 5A BF .{..2..aL.....Z.
00404E60 5C 79 CC 1C AA 7B DE 62 00 9A 00 B7 00 F3 D6 6C \y...{.b.......l
00404E70 E5 61 00 FF E0 95 11 8D 6C FF 03 C3 DE 5E 2C 96 .a......l....^,.
00404E80 91 E9 00 BE 00 E0 93 0C E4 DF 74 4C A6 7F 00 AB ..........tL....
00404E90 00 02 00 45 EB 27 C9 15 01 30 EB AC 1D 43 43 00 ...E.'...0...CC.
00404EA0 00 9F 20 5C 00 E0 62 03 A8 0B 44 00 3D 96 56 5D .. \..b...D.=.V]
00404EB0 63 0F 5F 00 1C 21 41 0B F9 0A 07 00 FF 59 23 70 c._..!A......Y#p
00404EC0 1F 8B 8C F0 50 48 0D A5 C1 05 22 40 46 B1 12 44 ....PH...."@F..D
00404ED0 BE 00 80 0B 3E FA 29 B7 EC 58 00 83 02 76 C2 5F ....>.)..X...v._
00404EE0 0E 47 01 00 BE 39 0F DA 71 00 00 8E D3 56 00 C1 .G...9..q....V..
00404EF0 00 FF 09 CA 3F E4 00 6E 00 68 C6 5C 00 15 9B 98 ....?..n.h.\....
00404F00 03 96 D9 E5 7C CC 08 4A F8 0A 00 11 95 A0 DC 36 ....|..J.......6
00404F10 C8 1C 7D 2F 04 ED E8 6F 00 00 0A 10 90 4F 32 64 ..}/...o.....O2d
00404F20 37 FD FF 87 D3 AD 43 68 ED 9A 61 22 E3 03 00 FF 7.....Ch..a"....
00404F30 7C 6F A4 1C FA DB D6 0B 00 3B 23 01 E0 37 70 00 |o.......;#..7p.
00404F40 E3 5F AE 4E 6D C8 13 00 0A 93 D8 48 20 25 F2 B8 ._.Nm......H %..
00404F50 7C 3E C3 64 00 00 0B B7 00 00 20 18 84 01 0B EC |>.d...... .....
00404F60 6B 25 F2 89 47 CF DC 35 1D 26 0A E8 A9 DF 8B 00 k%..G..5.&......
00404F70 3B 35 40 E4 FE 0C AA FB D7 52 00 07 DB 09 FF 76 ;5@......R.....v
00404F80 A8 D2 00 1F 00 57 00 4D 97 0C BB 1E 24 78 E6 46 .....W.M....$x.F
00404F90 6F 6E 39 CA F9 00 67 00 2C FB 3A 00 31 DB EC 00 on9...g.,.:.1...
00404FA0 3C 4D 4D 00 00 37 0E 29 A8 BB FF 5F 00 1C 00 54 <MM..7.)..._...T
00404FB0 0D A4 60 56 07 BE 35 39 4B AB 42 32 8F 00 61 C0 ..`V..59K.B2..a.
00404FC0 00 7F 98 40 99 72 FC F8 84 E7 0F 68 FF FF 76 00 ...@.r.....h..v.
00404FD0 E8 34 A8 FF C8 CB FF FF A4 1B F3 FF 0F 52 EC 02 .4...........R..
00404FE0 A7 C6 2E 17 8C F6 5D 1C 70 22 55 62 79 71 AE 06 ......].p"Ubyq..
00404FF0 00 0A 74 3E 22 3D 47 F6 E5 20 8D 11 82 77 1C 6B ..t>"=G.. ...w.k
00405000 00 29 D7 47 C5 C2 84 00 E3 DB 83 5B FA 3D 00 7A .).G.......[.=.z
00405010 DE E1 23 00 00 EE 74 00 8F E6 AE 41 49 A4 1A 6C ..#...t....AI..l
00405020 A3 13 AE 01 FC 16 00 14 2B 75 66 CF 00 B1 23 DE ........+uf...#.
00405030 38 6E 93 35 72 A0 1D 59 34 DD D3 6E 47 E5 6F 38 8n.5r..Y4..nG.o8
00405040 98 E6 1C 6F FF 20 26 A2 FF C9 FF 86 80 EF 26 7A ...o. &.......&z
00405050 FF 8B CF 01 00 24 FF 32 00 50 81 05 00 28 6F 78 .....$.2.P...(ox
00405060 E7 46 8B 0E C6 54 9D 04 A8 40 7D 06 E0 00 C8 00 .F...T...@}.....
00405070 0E 5C 02 9B 22 2D 05 8B F9 DB C5 6F 92 C7 FF FE .\.."-.....o....
00405080 04 8F F7 87 AE 79 FF DC F7 E3 B3 04 00 16 00 57 .....y.........W
00405090 C1 E7 76 CA 60 20 6F 72 AD 08 3F E4 09 17 D0 67 ..v.` or..?....g
004050A0 A5 F7 72 8A 19 17 00 08 00 31 A3 E4 82 B3 4C C5 ..r......1....L.
004050B0 E6 E5 98 00 32 E2 DA 23 94 00 AC 27 51 E3 42 C4 ....2..#...'Q.B.
004050C0 BA 18 E0 85 48 44 8F 36 78 7B 1B C0 15 F4 B7 62 ....HD.6x{.....b
004050D0 50 2D 09 0A 92 06 17 13 7C 00 12 95 A8 86 36 DD P-......|.....6.
004050E0 AB 4F 16 FB AC E0 50 2D 0D D4 31 3A 7E F0 C3 54 .O....P-..1:~..T
004050F0 CA 57 28 9F F6 4E 61 B7 40 C0 00 8F F2 30 7A 00 .W(..Na.@....0z.
00405100 12 FF 8E 5E F1 CE 00 80 AF 00 71 C7 97 16 FF A4 ...^......q.....
00405110 00 08 8E 00 01 00 B4 CC DF 00 32 86 08 FF 00 00 ..........2.....
00405120 00 EB FF C2 44 B5 5A 5D 09 31 00 D0 00 3A 26 00 ....D.Z].1...:&.
00405130 B8 00 33 EA B0 99 82 63 D1 80 28 00 15 C0 0A CA ..3....c..(.....
00405140 04 44 A2 00 3E 95 1F 00 F1 8D 01 1C 02 43 4D 38 .D..>........CM8
00405150 3A 43 00 FF B8 AC AD 00 08 FF 60 10 A9 87 77 6C :C........`...wl
00405160 F2 23 72 FD C9 E2 DB 0F 4B 62 D9 D0 EB 8E 9F BF .#r.....Kb......
00405170 68 08 88 02 A8 24 2E 4E 00 FF 69 60 C5 92 F3 A7 h....$.N..i`....
00405180 E3 00 D9 58 EB 80 A0 E7 00 17 87 0A 5F 86 55 CB ...X........_.U.
00405190 17 09 FC 85 00 06 00 3D 79 04 1B FF 6C 06 30 6E .......=y...l.0n
004051A0 61 12 21 7B 4D 80 00 A8 C0 58 00 DA 1D C6 1F 00 a.!{M....X......
004051B0 5B 60 00 45 EB 98 FF 8E F7 80 F1 8E 6C 00 21 9E [`.E........l.!.
004051C0 AB B4 35 1E 00 C2 00 93 74 48 00 B0 98 EA 42 30 ..5.....tH....B0
004051D0 EF 7C FE 00 06 01 0A 08 B5 7C C7 C1 00 6E 10 95 .|.......|...n..
004051E0 CE 32 00 5A CD 80 FF 1B FC C4 0E BD 18 00 FD 42 .2.Z...........B
004051F0 E7 A5 27 52 BC 00 A3 E7 C0 FF 13 80 0A 20 FF CB ..'R......... ..
00405200 00 FB 31 BC 1C 0B 1F 3B 13 00 54 92 00 19 34 C7 ..1....;..T...4.
00405210 FF C5 D2 FA 5F 88 87 6E FF F7 00 FA 89 65 D6 B0 ...._..n.....e..
00405220 8D 22 79 00 54 82 BF 6C 6E 00 62 D8 2B 82 15 42 ."y.T..ln.b.+..B
00405230 0C 95 CF FD C9 C0 E0 F8 30 FB D9 83 6A 94 1F D4 ........0...j...
00405240 00 7E 96 3A DC CD 56 01 D7 0D 00 07 40 EB 81 53 .~.:..V.....@..S
00405250 E7 C3 DC 72 46 93 00 DC C5 98 00 CA 6D 00 D7 28 ...rF.......m..(
00405260 BA 44 4B 9D 7F C6 00 50 00 B1 E2 00 7D 86 8C C3 .DK....P....}...
00405270 FF 88 04 A1 29 0A 68 24 58 13 00 0C E2 3A 04 4C ....).h$X....:.L
00405280 D5 07 7F 87 86 B1 AD EE FA DD FE FF 62 94 FF A8 ............b...
00405290 5B 74 F3 0F 5E 00 FF 46 00 0C 9E 8E 00 E1 47 FF [t..^..F......G.
004052A0 18 14 61 41 4B E0 00 63 1C 36 89 1B 5A 88 E3 C5 ..aAK..c.6..Z...
004052B0 62 7B 1E 25 3D AD 04 70 6B 00 33 76 00 78 C2 F2 b{.%=..pk.3v.x..
004052C0 76 29 00 43 DE FF B0 00 FE 9D D8 00 B7 65 8C 00 v).C.........e..
004052D0 C1 00 BB 52 00 D8 C7 4C B8 95 3A ED 3C BD E3 F4 ...R...L..:.<...
004052E0 FD 19 C1 3E 03 EE 68 04 00 00 FF FF 85 56 B1 84 ...>..h......V..
004052F0 E1 D4 69 17 5C 46 15 81 F3 9F E3 8C 83 8D 3E EE ..i.\F........>.
00405300 25 EE 00 C1 00 00 FF 98 76 00 02 FF FF 5C C6 CC %.......v....\..
00405310 28 F8 00 FF 99 6A 95 C7 72 01 8D 08 1F E2 5B 00 (....j..r.....[.
00405320 00 B1 B2 2E 00 1F 79 B5 6C 00 ED 77 06 00 00 02 ......y.l..w....
00405330 01 13 8C 3A 39 90 CC 67 ED B9 70 C1 21 41 72 16 ...:9..g..p.!Ar.
00405340 00 00 BD F6 D0 C8 46 38 53 D4 E7 D8 F9 84 09 00 ......F8S.......
00405350 26 96 BF D9 3F CB 08 C2 37 8F 97 00 DE FF 65 E9 &...?...7.....e.
00405360 00 08 67 93 44 4A 35 F6 30 9E 01 6A 92 FF 1B 00 ..g.DJ5.0..j....
00405370 E0 86 B5 0C EE 00 1A BD 92 3E 00 51 15 2A 02 00 .........>.Q.*..
00405380 FF 36 43 B9 4C D5 FF 00 E5 D8 E0 EE 8D BE EF E9 .6C.L...........
00405390 00 42 BF FF B1 5D 01 01 B8 B3 1D 1E 65 00 0E 6F .B...]......e..o
004053A0 A0 80 61 EE F0 30 F1 3D 5E CE 2F 81 00 00 78 06 ..a..0.=^./...x.
004053B0 77 5B CC EB C3 82 96 23 48 03 09 C7 6A 06 97 3D w[.....#H...j..=
004053C0 0A DB 34 23 EF 78 F4 3B FB 1D BB 67 54 08 78 00 ..4#.x.;...gT.x.
004053D0 E2 DC 84 93 6D 00 79 4E FF 08 62 C9 91 00 E1 A3 ....m.yN..b.....
004053E0 41 B5 00 2E 78 C9 F0 68 02 98 00 00 08 82 2D C6 A...x..h......-.
004053F0 D3 0D 89 5F 22 00 58 7A BC 00 E6 A3 19 25 6F D3 ..._".Xz.....%o.
00405400 44 41 8C 26 53 39 1E D0 FF 00 52 38 9F 30 CC 90 DA.&S9....R8.0..
00405410 B1 F0 C0 96 E0 FF F8 60 FF 00 64 87 E3 19 10 7B .......`..d....{
00405420 FF C5 D7 00 00 62 58 69 27 84 A7 82 FF 49 1A 48 .....bXi'....I.H
00405430 FF FF 9F 00 E0 18 31 00 00 C2 E8 BB 00 71 20 7F ......1......q .
00405440 FF 45 FF 2D FF 00 AE DF F8 78 CD B4 BE 46 A1 AE .E.-.....x...F..
00405450 6C 3F B9 AD 66 F6 46 85 36 00 5F 00 4D C5 F7 00 l?..f.F.6._.M...
00405460 0A 00 CD 5C 00 90 74 00 0E 00 F1 00 7E 3D 81 7F ...\..t.....~=..
00405470 34 D7 97 FD F0 00 00 80 B7 62 78 30 3D 00 9D 07 4........bx0=...
00405480 00 49 E8 AF A3 E0 1C E2 38 45 4A 00 B1 C2 1A 06 .I......8EJ.....
00405490 73 FC 70 AF FF FF 63 07 BF 1F 79 D0 27 03 39 99 s.p...c...y.'.9.
004054A0 E0 55 F4 AF B4 3C FC 78 62 57 BB 55 4B B6 00 FF .U...<.xbW.UK...
004054B0 D7 00 33 E4 B6 E5 70 2F 5F 1E BB 3C 81 48 BF 2A ..3...p/_..<.H.*
004054C0 C0 1A 82 D0 CE 0E FF 68 FF 27 E0 D8 B2 58 80 F1 .......h.'...X..
004054D0 08 EC CB 8D E7 13 6B 00 B4 85 50 67 00 02 0F 00 ......k...Pg....
004054E0 36 00 09 D2 19 52 F6 8B FF A0 14 C1 14 26 40 7C 6....R.......&@|
004054F0 E6 A2 4B C0 00 93 D8 4F 08 F0 B1 E9 F7 8B A4 ED ..K....O........
00405500 1A 03 00 D3 6B 8A 45 00 97 B0 37 4D 9D F0 E1 9C ....k.E...7M....
00405510 75 4C 72 20 00 A4 0F 63 8A 83 AE AF 00 EF 8A 61 uLr ...c.......a
00405520 00 B1 1B BF 21 05 42 48 3E 87 67 05 01 F9 E6 F8 ....!.BH>.g.....
00405530 91 00 78 DB 92 7F 39 FB 40 FC 28 FF E1 00 B7 1F ..x...9.@.(.....
00405540 99 6C 84 00 74 00 00 14 AE E8 57 A9 2D 01 EA 58 .l..t.....W.-..X
00405550 60 1A 90 A4 33 82 37 00 00 FF EA 79 F4 0F 69 1B `...3.7....y..i.
00405560 F2 F1 AD C4 BB B7 BB 16 1B 80 84 7B BF 00 3F FF ...........{..?.
00405570 F1 E6 B4 1D 48 E3 0F 8D BD 4F 00 7F E9 61 77 54 ....H....O...awT
00405580 C4 73 1C 59 44 D1 FC 0E 34 89 02 A9 C4 2C E8 89 .s.YD...4....,..
00405590 2E AF D9 0E 07 16 0E D7 7C 2C 4F 1D 4F 00 F5 90 ........|,O.O...
004055A0 46 87 62 59 5F 00 B1 04 00 00 E3 10 FD 49 F2 EF F.bY_........I..
004055B0 71 C9 DE 86 7C C3 39 D1 9A C8 5F 79 00 23 C6 63 q...|.9..._y.#.c
004055C0 92 00 E8 04 00 CE 49 0A E0 B6 FB C8 57 3F 52 72 ......I.....W?Rr
004055D0 22 88 B5 00 70 FF 30 F5 E7 FF 9F FF 55 71 00 EF "...p.0.....Uq..
004055E0 12 4A 11 5F E4 00 27 8E CD 36 9E FF 00 44 00 A9 .J._..'..6...D..
004055F0 80 7B 0E B4 12 57 0E 00 FF 21 61 FF 24 00 F0 00 .{...W...!a.$...
00405600 8B 00 B8 00 00 7F 70 6B 00 96 D0 7B FF 40 AD BB ......pk...{.@..
00405610 F0 3B FF FD 5F E1 D0 13 57 17 D7 77 49 B9 DC 44 .;.._...W..wI..D
00405620 20 9E 5C AF 00 20 DD 88 00 B5 30 1D 0C DE FF 0F  .\.. ....0.....
00405630 E6 0F 28 A4 E8 48 0A D2 00 88 42 00 59 AB 65 4D ..(..H....B.Y.eM
00405640 00 60 EE 2B 6D 02 00 D0 92 90 32 57 1D FA 00 7C .`.+m.....2W...|
00405650 32 2A 78 5D 5E 00 F1 0F B4 2A 9F 80 04 B2 E7 9D 2*x]^....*......
00405660 0C C3 96 00 00 3F B8 6B F9 FF 78 00 B8 FF 18 30 .....?.k..x....0
00405670 F4 FF 23 8E EF 5D FF 8B 89 1F 51 00 F4 6A 27 50 ..#..]....Q..j'P
00405680 B7 00 00 46 68 00 08 67 05 59 A2 F0 D4 98 E2 00 ...Fh..g.Y......
00405690 0E 8D CE E2 07 FF 8D 2F 07 64 00 A5 87 4A FF 0A ......./.d...J..
004056A0 FB F0 72 33 5E 69 00 6D 00 4C D2 12 6F 71 89 40 ..r3^i.m.L..oq.@
004056B0 00 21 23 9C 86 7E 23 4F E3 B7 00 9B 97 DF 00 00 .!#..~#O........
004056C0 00 3F 1B 00 00 49 F3 EF 04 88 79 39 C1 F1 2F 32 .?...I....y9../2
004056D0 5E 09 7E C0 00 80 7B 5E 47 D9 14 E2 78 D0 10 93 ^.~...{^G...x...
004056E0 9A D8 00 00 FF 00 E5 A9 FF 00 CC 00 15 00 3E 43 ..............>C
004056F0 09 81 0B D8 C5 3B 14 DE 43 D4 22 40 78 BE CE 85 .....;..C."@x...
00405700 3B F0 9B 08 E6 40 20 E2 57 73 00 1E 43 A6 1F FF ;....@ .Ws..C...
00405710 13 49 C9 8C 73 C8 00 F8 00 81 E9 F4 F8 1A 26 00 .I..s.........&.
00405720 F7 97 C3 E9 00 E2 A2 7C 09 00 70 E7 A5 08 69 10 .......|..p...i.
00405730 FF 00 AB FF 00 00 FA 3B 35 FF D5 A8 B7 EA C0 B1 .......;5.......
00405740 1C 39 22 19 A6 CC 66 0F 5C 9F 00 4D 00 E5 00 8D .9"...f.\..M....
00405750 FB 50 FF 70 F3 0A A6 00 B1 FE 89 97 C7 05 00 56 .P.p...........V
00405760 EB 8F B6 08 00 59 3C 99 49 E7 51 BE 5C 8F C1 59 .....Y<.I.Q.\..Y
00405770 00 9E 00 85 B1 36 84 B2 03 FE 94 23 C8 00 81 64 .....6.....#...d
00405780 92 20 48 72 87 F0 C1 00 0D 52 01 FF 7F B8 B1 00 . Hr.....R......
00405790 62 FC 75 53 C4 B7 7D 28 00 E7 14 41 46 01 99 07 b.uS..}(...AF...
004057A0 64 0D FF 24 3C E0 41 87 27 06 1D 02 63 9D 0A 22 d..$<.A.'...c.."
004057B0 05 98 AF 00 0E C3 D2 0C F7 4F 0C D5 9F 00 5A 3B .........O....Z;
004057C0 A0 C5 71 D9 00 00 A5 E1 20 09 4A 34 DD 50 54 80 ..q..... .J4.PT.
004057D0 0D 4B 01 F9 4C 6E 1E BE 34 DF 1C 8F C9 00 53 D2 .K..Ln..4.....S.
004057E0 FF 85 00 00 40 FD 23 00 C7 11 6F B3 5A BF 15 D4 ....@.#...o.Z...
004057F0 D9 6D BF 45 79 2E 00 72 F6 40 9B 08 80 19 4D 02 .m.Ey..r.@....M.
00405800 13 1B 9B 07 00 A0 14 ED 00 64 00 4C 2C 0E 00 F1 .........d.L,...
00405810 4E 20 00 B9 00 FF 37 85 43 D1 F4 AD A1 FF 91 A5 N ....7.C.......
00405820 00 00 AF EC A5 19 20 00 FF FF 59 C3 03 F3 26 FF ...... ...Y...&.
00405830 EE 90 23 F3 F4 9C 00 56 13 67 00 3C 27 3E E4 61 ..#....V.g.<'>.a
00405840 3F 65 00 00 78 00 61 79 50 BF 45 44 00 2D 16 18 ?e..x.ayP.ED.-..
00405850 7C FF 08 05 00 0F 34 7C D7 65 8C 00 45 9A 00 2E |.....4|.e..E...
00405860 18 00 00 BB 37 7D E6 01 73 83 40 23 6A 32 0D F2 ....7}..s.@#j2..
00405870 42 00 00 00 00 00 FF 0D AF A8 81 00 6A F7 91 F9 B...........j...
00405880 F9 8A 00 00 32 0F 6B 0F 23 0A 00 48 41 0F E3 5E ....2.k.#..HA..^
00405890 37 5A FD D7 00 73 00 38 69 34 79 00 C2 E1 0C 00 7Z...s.8i4y.....
004058A0 B2 A0 0F 2D 6D 39 00 34 45 9D E1 67 05 B9 FF 0D ...-m9.4E..g....
004058B0 00 9E 05 00 07 EB 12 FC 9D A0 6E 17 F2 41 EB 00 ..........n..A..
004058C0 EF D7 AD CD 80 C9 14 DD F0 37 00 34 97 C1 6F 32 .........7.4..o2
004058D0 AC BA 7E AB 00 15 5F 73 FF CD 20 70 EE 26 0B D8 ..~..._s.. p.&..
004058E0 30 3A 00 76 00 10 FF 00 3E D9 57 60 61 08 00 B7 0:.v....>.W`a...
004058F0 BF 9F FF 00 87 00 00 37 51 1F 84 82 46 CD 00 FF .......7Q...F...
00405900 B9 33 FF 6D 00 A8 38 BE 5C 93 9A 26 01 26 00 78 .3.m..8.\..&.&.x
00405910 00 6D BC E0 52 2C BF 32 2C FB FF FF 07 12 F7 E8 .m..R,.2,.......
00405920 C9 00 4B D5 8D FF 94 77 F9 89 67 91 A4 F4 64 E9 ..K....w..g...d.
00405930 02 32 00 77 FF 19 DC A4 63 E0 57 D5 A3 B8 EC B9 .2.w....c.W.....
00405940 00 C1 D0 03 C3 7D E9 00 61 00 45 AC FF 61 00 18 .....}..a.E..a..
00405950 1A 76 1D 5A 72 30 FA E4 FD 56 B8 90 01 B7 A6 4B .v.Zr0...V.....K
00405960 0D 9A C9 CB FA BF F6 DE C3 38 92 19 8A 00 FB B8 .........8......
00405970 1A 00 99 00 59 FF 10 FF D0 4D 61 0A C4 EB 94 C2 ....Y....Ma.....
00405980 58 26 00 DB 00 82 BC 02 00 A0 27 72 27 FB 00 63 X&........'r'..c
00405990 3E 00 E2 0F 89 C8 29 03 00 08 01 05 00 FF AA E3 >.....).........
004059A0 81 10 29 C2 E7 60 6C 7A E4 C2 34 19 0E 03 2E 00 ..)..`lz..4.....
004059B0 03 95 00 1E 18 40 00 8D 45 DB A4 CF 00 EF 31 51 .....@..E.....1Q
004059C0 FF 98 00 2E 69 F5 C2 0B AC 00 00 57 3E 24 18 00 ....i......W>$..
004059D0 01 DD A3 21 D9 EF 3B 7C CC 08 27 C8 10 00 EF C8 ...!..;|..'.....
004059E0 32 58 4C 98 78 8B B8 7B 69 92 13 DB 4D 0D 4A 00 2XL.x..{i...M.J.
004059F0 FF 0B 00 97 D1 6C BA B0 B6 00 EF E1 8D 6A 00 19 .....l.......j..
00405A00 B7 E0 64 3C 6C DB 09 A6 18 1B FF 0F C3 0C 15 EA ..d<l...........
00405A10 16 70 3A 00 7A D6 00 69 E2 38 00 04 00 A9 07 C6 .p:.z..i.8......
00405A20 CC 36 FF 22 A5 EC 00 42 FB 9D 73 93 30 BF 7A 00 .6."...B..s.0.z.
00405A30 FE 00 6B A3 A7 00 4E B8 C1 E1 FF FF CE FF AE 67 ..k...N........g
00405A40 A5 4D 4E 35 5E 3C 06 01 6E CB 86 B9 D2 00 9F 9F .MN5^<..n.......
00405A50 80 42 C9 EE 94 8A 6F 61 80 C8 C1 F9 FC E4 A4 41 .B....oa.......A
00405A60 5F 1C F5 F2 00 3D FF C5 D3 58 C4 00 E5 EC 00 90 _....=...X......
00405A70 74 9D A8 0B 52 3B 2D 08 00 1B 96 1E E3 FB FA E7 t...R;-.........
00405A80 95 53 1E E8 00 30 FF 21 46 11 D6 E7 00 72 82 76 .S...0.!F....r.v
00405A90 1C 92 D4 85 00 29 4A 73 82 A5 3B BF 2A BE CE 84 .....)Js..;.*...
00405AA0 A0 77 35 7C 50 09 58 DA C4 69 47 EA 76 D1 F7 F6 .w5|P.X..iG.v...
00405AB0 00 EA BB 80 2E 00 00 00 5C 68 80 79 B5 EB 96 D2 ........\h.y....
00405AC0 26 A4 3B FB 00 C3 31 B4 00 62 41 00 D0 0B 59 47 &.;...1..bA...YG
00405AD0 10 F5 C3 19 80 41 06 78 53 E4 A7 FF 0E 9E FF A2 .....A.xS.......
00405AE0 80 4B 00 E1 E8 CA E7 FD F3 8B 77 F1 9F 44 0A CA .K........w..D..
00405AF0 76 57 07 00 51 85 C9 2D 2E 0C DF 00 B4 FF C1 1D vW..Q..-........
00405B00 29 78 B7 99 C0 4A 1B 8B 8E AC 4E C1 2E B9 FF F0 )x...J....N.....
00405B10 53 E9 00 E2 2A 9B CA 00 A8 FF FF AA 43 8C 1D 34 S...*.......C..4
00405B20 1E 9E F6 00 51 0A 54 AC 67 26 D2 BC 08 D8 FF C7 ....Q.T.g&......
00405B30 5A 40 34 5C F6 A0 CF 00 70 14 CE F6 FF C4 18 BD Z@4\....p.......
00405B40 58 38 8D AF 00 26 9E EA 00 4D 75 00 40 EF B4 01 X8...&...Mu.@...
00405B50 5C FF FF AC 00 E0 80 58 58 00 3C C1 02 28 16 65 \......XX.<..(.e
00405B60 F6 17 84 08 0C 2D B4 8C FF 04 34 04 0F 00 0F FF .....-....4.....
00405B70 3E 9C E4 85 00 41 3F 97 27 FF 00 00 0F 2F 00 FF >....A?.'..../..
00405B80 00 A0 B7 81 34 33 37 48 AB 6F 6B 9E 5F FF A9 00 ....437H.ok._...
00405B90 E4 DF 85 E2 9C D1 5A 11 BF E1 00 ED 2D 20 07 00 ......Z.....- ..
00405BA0 00 F0 BB 00 AB 01 70 C3 84 F4 B7 C0 ED 10 65 77 ......p.......ew
00405BB0 8F 05 8A 05 00 60 43 98 4D D1 38 21 0A 9B D4 00 .....`C.M.8!....
00405BC0 83 73 04 20 48 C6 BF 7A FF AB 8A 62 1A 00 3C 0F .s. H..z...b..<.
00405BD0 F5 BB 09 40 00 73 3A 84 C9 C2 7D BF C5 DB 3F 00 ...@.s:...}...?.
00405BE0 B6 F1 00 C6 30 F6 33 DE 36 B8 FA 57 DC 6A 63 C3 ....0.3.6..W.jc.
00405BF0 03 41 80 C5 68 59 8F 40 D2 18 00 FF FC 90 92 67 .A..hY.@.......g
00405C00 BC 31 00 B6 87 EC F5 F0 11 CC 27 83 00 A5 17 10 .1........'.....
00405C10 3A 6A BD C6 E4 00 00 06 1A 1A DB 00 DD 0A 06 92 :j..............
00405C20 32 96 15 54 C8 00 FD F6 00 35 98 18 FF 02 00 E7 2..T.....5......
00405C30 37 76 E7 B0 89 38 71 4F DD 1A 1E BA EC 00 AD 50 7v...8qO.......P
00405C40 00 C6 9F 52 7A F4 DA FF 8E 29 18 FF A4 00 6F 50 ...Rz....)....oP
00405C50 06 00 00 79 E7 00 82 31 00 F2 11 A8 F7 36 10 A6 ...y...1.....6..
00405C60 6F 00 89 25 E5 42 52 58 F2 D8 A1 E8 25 24 A2 43 o..%.BRX....%$.C
00405C70 EF 00 7E 00 88 B2 F5 59 00 1B 4C 7F 18 AF 6C 06 ..~....Y..L...l.
00405C80 41 10 62 02 DE 92 8C ED FF 00 3E 2A 81 DE C8 FF A.b.......>*....
00405C90 89 EE 13 A6 20 00 C9 CF 11 AD 58 FC 5D B7 22 10 .... .....X.].".
00405CA0 8F FD 0E A6 A3 00 A9 F6 A4 00 37 36 E8 6E F8 7C ..........76.n.|
00405CB0 45 8F 7E 33 89 FF 64 3F E9 FF FC 00 B6 04 FF 6C E.~3..d?.......l
00405CC0 D7 00 81 55 B2 3A A5 EB 4F D1 0C 4E 1E 7D 11 FF ...U.:..O..N.}..
00405CD0 FF FF 9F E3 0D A7 8F 01 ED 4A A2 FF 66 25 3A 00 .........J..f%:.
00405CE0 65 4D 93 69 2A 81 C9 A0 12 84 F1 77 9B FF C9 AC eM.i*......w....
00405CF0 7C E8 00 B2 EC C1 39 36 B8 72 00 66 FF 7F 00 B6 |.....96.r.f....
00405D00 6C FE BC 00 B2 92 D2 63 80 FC A8 F2 00 EB 66 00 l......c......f.
00405D10 F4 81 C3 E3 00 00 4A 61 E7 0A 91 39 00 3A FF 29 ......Ja...9.:.)
00405D20 DA 0B BA 00 C2 FF 06 69 3B 21 00 1C 6D 10 FF 62 .......i;!..m..b
00405D30 2B C9 00 F9 B3 FF 0A A2 13 AC 2E 99 A3 20 6E 30 +............ n0
00405D40 10 73 27 1C EB CA 00 84 F7 01 AD D8 B8 3A 00 8B .s'..........:..
00405D50 00 00 00 A9 00 F1 0E 00 03 02 B7 02 B1 3A 1A 07 .............:..
00405D60 82 B0 46 48 DC C4 FF 08 58 60 44 AF 8C 00 0E E9 ..FH....X`D.....
00405D70 0F 00 00 00 5D EF 00 0B 00 00 7C D7 31 E0 50 CE ....].....|.1.P.
00405D80 3B 80 6F 77 7F 49 7D 6B 9D 0C 1C AF F1 1B 74 16 ;.ow.I}k......t.
00405D90 1B C2 8F 00 C4 B3 8D C8 D2 E7 84 27 C4 00 C0 FF ...........'....
00405DA0 E7 FF 00 35 00 78 54 D8 AF C4 A9 85 C2 E8 B9 BC ...5.xT.........
00405DB0 21 7E 7B 30 C5 62 FF 0B BA D5 62 84 78 93 89 1E !~{0.b....b.x...
00405DC0 2D 9D 00 00 FF 20 CE 9A 7C FF 01 9B 7E 92 19 20 -.... ..|...~.. 
00405DD0 32 14 73 FF E1 90 00 00 D8 4E 00 6B 7F EA 60 00 2.s......N.k..`.
00405DE0 2D FF F2 96 B3 AE CF 55 3E 60 F7 F1 D8 23 E1 75 -......U>`...#.u
00405DF0 3A 02 00 1B 66 FF 8C 33 FF CF 12 05 E0 C1 F7 A3 :...f..3........
00405E00 9B 24 3F 00 00 1F D0 03 00 DB 84 14 62 18 13 CF .$?.........b...
00405E10 7F 00 1C 61 25 F5 FF 00 00 02 F2 AD 46 4C 30 82 ...a%.......FL0.
00405E20 77 07 66 D1 DE CE 61 21 8B FD 64 92 00 00 73 0E w.f...a!..d...s.
00405E30 A8 C7 10 5F FE B5 00 78 76 E0 E6 86 50 00 A8 60 ..._...xv...P..`
00405E40 FF F7 F7 00 00 00 49 45 73 78 AF FF CF C0 E7 BB ......IEsx......
00405E50 5F 00 8A D8 00 62 9F FF C0 86 7E 9D 8E 00 96 00 _....b....~.....
00405E60 00 5F 06 36 02 4F 1E 00 3A 6D 5B 26 00 64 30 C1 ._.6.O..:m[&.d0.
00405E70 9F 89 25 11 49 38 89 58 80 00 00 71 47 51 A0 F0 ..%.I8.X...qGQ..
00405E80 DB 00 FB 35 90 7B 2F 2C 7E 05 17 03 BF D3 C0 AF ...5.{/,~.......
00405E90 9E 28 94 2A 2D FF CB 00 2A D2 BD 10 98 20 C5 46 .(.*-...*.... .F
00405EA0 31 4A 9B D9 35 50 2A 73 00 17 00 ED F9 B0 BA A4 1J..5P*s........
00405EB0 0B 17 6A 01 00 17 00 95 FF 14 8A 08 3D 39 03 00 ..j.........=9..
00405EC0 2E 03 39 1A 00 9F 00 00 C5 33 B6 54 7B B2 00 DB ..9......3.T{...
00405ED0 30 FB 53 9A 92 CB F5 FF 8D BF CE 00 22 DE B9 01 0.S........."...
00405EE0 00 00 EA C7 9C 00 32 DD 6D 16 B9 1D 44 9B 12 EF ......2.m...D...
00405EF0 00 AF F2 BA 00 40 42 58 26 30 EE 00 61 F8 31 FA .....@BX&0..a.1.
00405F00 62 48 59 DE B3 C0 3E C9 8D E0 AF E2 D8 EF DA 01 bHY...>.........
00405F10 3E 38 95 02 00 D9 00 00 E5 43 F6 60 A7 9C 35 CC >8.......C.`..5.
00405F20 EF 43 2C 00 9E BA 93 1A 7B 00 04 E4 4A 00 3E AA .C,.....{...J.>.
00405F30 4C 28 F9 87 BB 89 75 E2 BC 9F BA 42 98 D2 CA 00 L(....u....B....
00405F40 0D D7 60 35 78 FF 10 83 00 42 27 00 CF A4 44 71 ..`5x....B'...Dq
00405F50 FF 73 D7 98 AE A3 A7 FD 8A 48 E5 84 12 DB FE A8 .s.......H......
00405F60 18 0A 09 00 3D 0C 8C 00 4A 90 44 32 90 08 0E EC ....=...J.D2....
00405F70 70 12 9C 50 EF 5C D6 62 E9 1F A3 F9 FF 5B 1E 4C p..P.\.b.....[.L
00405F80 BF F9 44 83 0A 00 00 FF 8F A0 9A 1B 85 0C 79 5A ..D...........yZ
00405F90 8F 3B 00 00 AA 7B 1F B3 D6 00 00 53 48 B7 81 AF .;...{.....SH...
00405FA0 7B 00 CF 98 F8 4C 20 00 18 00 CC E7 65 34 33 2C {....L .....e43,
00405FB0 EA 65 7B 64 F9 97 E8 BF 75 A7 CE 1D 9D ED FD AE .e{d....u.......
00405FC0 26 25 00 FB 24 0C B8 32 A9 20 42 AD 95 35 00 F1 &%..$..2. B..5..
00405FD0 E0 92 3E 33 48 FF 6D FA 72 F4 D8 1F 60 C8 2B EC ..>3H.m.r...`.+.
00405FE0 38 B1 20 D6 66 00 9C 05 DD 00 7C 00 42 2F F5 26 8. .f.....|.B/.&
00405FF0 9E B1 00 D3 06 94 EA 7A 1E 41 5C 33 06 55 81 00 .......z.A\3.U..
00406000 E8 00 FA BF D9 96 CF 23 B2 58 1D 7E 6D 00 C0 39 .......#.X.~m..9
00406010 00 80 F0 A3 0A CC DE BA 17 00 ED 1B 37 A2 C2 16 ............7...
00406020 00 D6 2D 6B 01 03 FF C7 02 B3 82 50 10 21 38 EF ..-k.......P.!8.
00406030 00 A1 88 70 68 2D 50 BC 9F 00 3E 93 00 00 00 F5 ...ph-P...>.....
00406040 32 D4 A7 E9 44 98 FF 7E BF A3 C4 00 93 FF AE 53 2...D..~.......S
00406050 CC 48 69 8E 3E C3 80 BC 44 50 E3 A3 00 21 A1 00 .Hi.>...DP...!..
00406060 E5 EE B4 50 10 71 00 87 1F FF 82 00 A2 00 FF 81 ...P.q..........
00406070 C9 20 31 8C FF 43 78 00 00 EF B6 E4 00 FB 47 83 . 1..Cx.......G.
00406080 FC FE 3A EF 14 E2 D0 7F 40 F0 00 FE 6E BF AE 00 ..:.....@...n...
00406090 29 E3 00 EC 35 E1 00 4D 00 FF 47 92 D0 E7 00 07 )...5..M..G.....
004060A0 1F 00 91 4E 38 00 FE A9 99 EA EE 18 AA 64 DE 7C ...N8........d.|
004060B0 C9 00 E8 01 29 00 B0 DD 00 16 91 00 B6 90 57 23 ....).........W#
004060C0 94 00 FF 62 39 00 00 F9 08 00 3B CD 5A 00 D3 10 ...b9.....;.Z...
004060D0 FB 27 C9 61 CA 54 C7 90 3C FF C2 C2 1C 5B 0B FF .'.a.T..<....[..
004060E0 BF 3D C5 88 01 F1 C8 61 F3 5D B3 B5 3A 1D 0C C8 .=.....a.]..:...
004060F0 A1 69 D4 08 00 22 9D C5 6E FF 32 54 E2 EC 00 09 .i..."..n.2T....
00406100 00 91 00 13 8A 58 C8 B3 93 00 1C 1A 82 0C F2 10 .....X..........
00406110 99 00 3B 15 00 58 2D 11 13 E3 F7 8C A1 E1 0E 00 ..;..X-.........
00406120 AC C1 FF 51 E0 04 8B 1E 53 37 2B FF 6F 11 81 42 ...Q....S7+.o..B
00406130 DA BB EB A0 C0 21 9A 00 DE AF 76 0A A1 68 00 84 .....!....v..h..
00406140 6F 1A 81 35 AF E5 C6 DD 0A 8A 00 00 0E 46 C8 C0 o..5.........F..
00406150 05 60 00 5C DC 5F D6 54 52 58 B2 90 A5 75 10 00 .`.\._.TRX...u..
00406160 8C 3D 66 A6 07 50 8B 31 00 28 38 6F 09 00 6B 81 .=f..P.1.(8o..k.
00406170 B8 EF BF D1 9D 22 FF FB BB 76 A0 C9 5A 00 00 0A ....."...v..Z...
00406180 00 60 EF 00 DA C7 5E 61 AA 1E D2 FF 81 B6 47 D1 .`....^a......G.
00406190 04 00 38 00 00 00 48 03 00 21 A9 FF C5 00 60 9C ..8...H..!....`.
004061A0 BC 3B 7C 00 A9 D8 2E 48 3D FC 7D 5C C0 19 58 00 .;|....H=.}\..X.
004061B0 00 F3 06 BF 00 56 DF 00 FB 00 0C 31 61 00 7E 49 .....V.....1a.~I
004061C0 A5 55 27 D1 BE 00 09 BC FB 70 F1 B1 00 00 CC 40 .U'......p.....@
004061D0 93 A7 69 60 E4 1F 10 A5 00 7E 3C 84 48 12 E6 A2 ..i`.....~<.H...
004061E0 8E C7 FD C9 00 C5 D2 7C AF F0 52 1C 84 ED 19 00 .......|..R.....
004061F0 C7 0E 00 E7 CC 71 14 AA 00 42 F9 0A AC 3B D8 AA .....q...B...;..
00406200 FF 00 F1 9A 00 00 80 0B 7D 64 88 44 C3 2C 6F 2D ........}d.D.,o-
00406210 81 54 EB 26 BF 00 0B 0D 24 F0 B2 56 60 88 5B BD .T.&....$..V`.[.
00406220 58 28 D8 76 38 B3 F1 00 F9 00 22 19 73 00 FF D1 X(.v8.....".s...
00406230 24 00 99 15 00 A8 34 00 CC 62 3A 00 81 02 49 93 $.....4..b:...I.
00406240 74 97 0C C1 C0 E4 A9 F5 00 47 E5 C1 9C 59 F2 BB t........G...Y..
00406250 E3 00 F8 80 74 00 BD 0D FF 4A BF 00 91 F7 76 00 ....t....J....v.
00406260 8A 66 18 18 00 19 65 FF 0F BE EA 1F B1 64 4B 23 .f....e......dK#
00406270 02 B9 86 FC F7 30 00 E0 E3 56 A0 53 5B C5 FE 05 .....0...V.S[...
00406280 BD BB 5E EF 41 C0 BE 25 2D 00 00 00 B8 0B EE AE ..^.A..%-.......
00406290 7E 00 82 79 F1 D4 01 53 7F 71 24 00 58 78 8B 3A ~..y...S.q$.Xx.:
004062A0 85 38 00 FF 92 00 F7 20 59 59 C4 5A 4C D3 76 83 .8..... YY.ZL.v.
004062B0 0E 9B 6C 2F 3C C3 10 67 30 F1 99 0E 84 5E 00 9E ..l/<..g0....^..
004062C0 F9 46 86 E3 64 3D B2 4B 26 00 FF 33 CF 00 1C A8 .F..d=.K&..3....
004062D0 04 9E 1F F1 EF C6 A7 62 98 92 00 00 E9 11 9A C6 .......b........
004062E0 FE A1 3D 63 59 C6 FF 80 00 F8 4C 8E C3 00 72 8D ..=cY.....L...r.
004062F0 15 44 DC 00 FF F8 B5 1D 06 00 8B 10 B8 28 F0 F0 .D...........(..
00406300 A8 FF FA CF 07 FF F3 7B A3 7A E2 AE 12 49 06 00 .......{.z...I..
00406310 FF 56 00 03 C0 0B BB FD 12 38 B4 00 78 F7 B2 75 .V.......8..x..u
00406320 84 40 00 4B C5 FF E5 0C B6 FC B8 19 FD 2F 90 C5 .@.K........./..
00406330 00 4B 00 13 88 72 8D 8E 78 00 64 38 09 5F 88 FA .K...r..x.d8._..
00406340 41 9D 6D 5A 00 6C 12 FF 97 D9 07 D0 F2 00 EB 67 A.mZ.l.........g
00406350 D0 00 FF 00 05 79 0C 2C B0 55 E4 CC 42 00 0A 43 .....y.,.U..B..C
00406360 F4 01 0E BF 38 1B D7 84 C0 14 AC BD 93 00 B9 04 ....8...........
00406370 01 00 02 00 8B 1C EA 00 36 7C DE 8C 00 FD 4C 76 ........6|....Lv
00406380 6C F2 CE 24 80 1D 00 72 6B 1B 00 C3 C8 00 84 81 l..$...rk.......
00406390 39 98 C0 00 CC 60 67 EA A6 20 AC F4 34 FF 73 06 9....`g.. ..4.s.
004063A0 85 47 CA 00 A9 F6 99 2C 7B 48 2A 58 ED 00 EB 4A .G.....,{H*X...J
004063B0 92 ED FD 88 D4 C7 DB D9 FF FF 63 F8 05 86 33 00 ..........c...3.
004063C0 FF 53 00 D1 96 BF CE 27 FF EA F0 F9 84 CF 40 20 .S.....'......@ 
004063D0 AD 93 00 42 00 06 2D 74 FF 7B 2A FD 03 00 EB C1 ...B..-t.{*.....
004063E0 C8 CD CD F5 C3 9F BB 00 EB 00 00 7E 7A 00 76 01 ...........~z.v.
004063F0 C2 71 D8 9D A6 A0 D1 F7 4C 68 C9 00 B7 EB 08 00 .q......Lh......
00406400 DA 00 99 F6 FF 2E 61 FF 19 3E F1 29 E4 05 17 91 ......a..>.)....
00406410 5B 00 C1 1D FF 81 58 BD 1C 02 FF 00 E4 83 23 83 [.....X.......#.
00406420 B0 BA E9 31 FF FF 04 09 8F 17 00 9B 00 70 C6 00 ...1.........p..
00406430 00 DD 7E A6 9E AA EA 04 30 CA 12 57 53 D4 12 71 ..~.....0..WS..q
00406440 9C 72 6E B0 23 6F 2B 65 FF 78 E5 71 7C E1 22 30 .rn.#o+e.x.q|."0
00406450 F0 77 E2 91 9E 00 E1 FF 00 00 E9 19 00 B4 02 00 .w..............
00406460 58 26 F5 1E 06 66 3B 47 FF 44 0F FF 00 C9 15 0C X&...f;G.D......
00406470 A9 AF 04 00 58 C9 B0 02 A7 76 FC 10 CC 00 8D E2 ....X....v......
00406480 B1 A2 9F 6F 00 32 FD 5F 00 1B B7 DB 00 8C D2 61 ...o.2._.......a
00406490 C5 00 C0 85 1B 1E 50 E2 6B 08 42 41 65 00 8A 3A ......P.k.BAe..:
004064A0 0E 79 7E F2 39 FB 0C 00 BF 00 F6 57 3F A7 6C 22 .y~.9......W?.l"
004064B0 00 4C CB 00 0C 11 F3 06 A8 62 82 E1 79 06 2D 31 .L.......b..y.-1
004064C0 A5 00 13 71 FB 9D 61 00 00 6D 06 71 45 B5 A1 00 ...q..a..m.qE...
004064D0 96 AC 8C 13 0A 90 FF 68 1E 67 FF A8 00 3E 93 A3 .......h.g...>..
004064E0 05 99 97 28 2A E3 D0 E5 28 FF 11 E5 93 FB 0E 00 ...(*...(.......
004064F0 61 F2 70 C4 CB 06 DA 00 B6 22 73 C8 AB 66 4F BF a.p......"s..fO.
00406500 83 B1 45 C6 8A 8E 5F A5 20 00 C7 FF B9 61 2D E1 ..E..._. ....a-.
00406510 48 70 CF 47 FE ED 03 CB 81 00 4B CA 46 98 1D 10 Hp.G......K.F...
00406520 F7 54 C5 7F 00 5B FF 00 40 00 00 A2 49 20 53 E1 .T...[..@...I S.
00406530 E7 0C C1 23 AA 73 48 00 8D 10 1A 99 00 F4 00 88 ...#.sH.........
00406540 92 50 00 FF 07 01 08 FD 0C FB 00 C6 02 00 5D 1F .P............].
00406550 51 9C 70 74 83 D8 8B 52 06 E7 0E 0C AF 2B 27 9C Q.pt...R.....+'.
00406560 5F B1 78 41 5D 98 00 7A 00 9B 7F BE 07 CD B6 00 _.xA]..z........
00406570 26 57 89 00 D1 3C CE 52 17 B3 00 00 0A F8 CF 00 &W...<.R........
00406580 85 CC C3 95 C6 A7 46 16 65 00 4D 1E 0F 1A B4 2F ......F.e.M..../
00406590 00 05 1E 00 C3 57 D1 FF C3 00 61 C9 B4 70 6C 4F .....W....a..plO
004065A0 00 E8 31 C0 09 B9 12 44 37 03 00 00 00 DE 50 36 ..1....D7.....P6
004065B0 EB DB FF D2 3E 36 6C 3E 3B 02 77 7F 8C DE 10 4A ....>6l>;.w....J
004065C0 00 8D 35 12 F3 21 38 00 EE E6 19 82 13 00 73 BE ..5..!8.......s.
004065D0 FB E0 D8 0A E3 6B 00 DE D0 4B 42 90 48 00 99 37 .....k...KB.H..7
004065E0 20 29 35 00 F9 B9 1E A1 8F 00 2F FF 53 00 AE 63  )5......./.S..c
004065F0 0D 77 02 E0 00 CE E7 3C FD 73 77 13 2D 57 45 FF .w.....<.sw.-WE.
00406600 00 00 00 00 00 00 00 00 00 00 00 00 00 00 00 00 ................
00406610 00 00 00 00 00 00 00 00 00 00 00 00 00 00 00 00 ................
00406620 00 00 00 00 00 00 00 00 00 00 00 00 00 00 00 00 ................
00406630 00 00 00 00 00 00 00 00 00 00 00 00 00 00 00 00 ................
00406640 00 00 00 00 00 00 00 00 00 00 00 00 00 00 00 00 ................
00406650 00 00 00 00 00 00 00 00 00 00 00 00 00 00 00 00 ................
00406660 00 00 00 00 00 00 00 00 00 00 00 00 00 00 00 00 ................
00406670 00 00 00 00 00 00 00 00 00 00 00 00 00 00 00 00 ................
00406680 00 00 00 00 00 00 00 00 00 00 00 00 00 00 00 00 ................
00406690 00 00 00 00 00 00 00 00 00 00 00 00 00 00 00 00 ................
004066A0 00 00 00 00 00 00 00 00 00 00 00 00 00 00 00 00 ................
004066B0 00 00 00 00 00 00 00 00 00 00 00 00 00 00 00 00 ................
004066C0 00 00 00 00 00 00 00 00 00 00 00 00 00 00 00 00 ................
004066D0 00 00 00 00 00 00 00 00 00 00 00 00 00 00 00 00 ................
004066E0 00 00 00 00 00 00 00 00 00 00 00 00 00 00 00 00 ................
004066F0 00 00 00 00 00 00 00 00 00 00 00 00 00 00 00 00 ................
00406700 00 00 00 00 00 00 00 00 00 00 00 00 00 00 00 00 ................
00406710 00 00 00 00 00 00 00 00 00 00 00 00 00 00 00 00 ................
00406720 00 00 00 00 00 00 00 00 00 00 00 00 00 00 00 00 ................
00406730 00 00 00 00 00 00 00 00 00 00 00 00 00 00 00 00 ................
00406740 00 00 00 00 00 00 00 00 00 00 00 00 00 00 00 00 ................
00406750 00 00 00 00 00 00 00 00 00 00 00 00 00 00 00 00 ................
00406760 00 00 00 00 00 00 00 00 00 00 00 00 00 00 00 00 ................
00406770 00 00 00 00 00 00 00 00 00 00 00 00 00 00 00 00 ................
00406780 00 00 00 00 00 00 00 00 00 00 00 00 00 00 00 00 ................
00406790 00 00 00 00 00 00 00 00 00 00 00 00 00 00 00 00 ................
004067A0 00 00 00 00 00 00 00 00 00 00 00 00 00 00 00 00 ................
004067B0 00 00 00 00 00 00 00 00 00 00 00 00 00 00 00 00 ................
004067C0 00 00 00 00 00 00 00 00 00 00 00 00 00 00 00 00 ................
004067D0 00 00 00 00 00 00 00 00 00 00 00 00 00 00 00 00 ................
004067E0 00 00 00 00 00 00 00 00 00 00 00 00 00 00 00 00 ................
004067F0 00 00 00 00 00 00 00 00 00 00 00 00 00 00 00 00 ................
00406800 00 00 00 00 00 00 00 00 00 00 00 00 00 00 00 00 ................
00406810 00 00 00 00 00 00 00 00 00 00 00 00 00 00 00 00 ................
00406820 00 00 00 00 00 00 00 00 00 00 00 00 00 00 00 00 ................
00406830 00 00 00 00 00 00 00 00 00 00 00 00 00 00 00 00 ................
00406840 00 00 00 00 00 00 00 00 00 00 00 00 00 00 00 00 ................
00406850 00 00 00 00 00 00 00 00 00 00 00 00 00 00 00 00 ................
00406860 00 00 00 00 00 00 00 00 00 00 00 00 00 00 00 00 ................
00406870 00 00 00 00 00 00 00 00 00 00 00 00 00 00 00 00 ................
00406880 00 00 00 00 00 00 00 00 00 00 00 00 00 00 00 00 ................
00406890 00 00 00 00 00 00 00 00 00 00 00 00 00 00 00 00 ................
004068A0 00 00 00 00 00 00 00 00 00 00 00 00 00 00 00 00 ................
004068B0 00 00 00 00 00 00 00 00 00 00 00 00 00 00 00 00 ................
004068C0 00 00 00 00 00 00 00 00 00 00 00 00 00 00 00 00 ................
004068D0 00 00 00 00 00 00 00 00 00 00 00 00 00 00 00 00 ................
004068E0 00 00 00 00 00 00 00 00 00 00 00 00 00 00 00 00 ................
004068F0 00 00 00 00 00 00 00 00 00 00 00 00 00 00 00 00 ................
00406900 00 00 00 00 00 00 00 00 00 00 00 00 00 00 00 00 ................
00406910 00 00 00 00 00 00 00 00 00 00 00 00 00 00 00 00 ................
00406920 00 00 00 00 00 00 00 00 00 00 00 00 00 00 00 00 ................
00406930 00 00 00 00 00 00 00 00 00 00 00 00 00 00 00 00 ................
00406940 00 00 00 00 00 00 00 00 00 00 00 00 00 00 00 00 ................
00406950 00 00 00 00 00 00 00 00 00 00 00 00 00 00 00 00 ................
00406960 00 00 00 00 00 00 00 00 00 00 00 00 00 00 00 00 ................
00406970 00 00 00 00 00 00 00 00 00 00 00 00 00 00 00 00 ................
00406980 00 00 00 00 00 00 00 00 00 00 00 00 00 00 00 00 ................
00406990 00 00 00 00 00 00 00 00 00 00 00 00 00 00 00 00 ................
004069A0 00 00 00 00 00 00 00 00 00 00 00 00 00 00 00 00 ................
004069B0 00 00 00 00 00 00 00 00 00 00 00 00 00 00 00 00 ................
004069C0 00 00 00 00 00 00 00 00 00 00 00 00 00 00 00 00 ................
004069D0 00 00 00 00 00 00 00 00 00 00 00 00 00 00 00 00 ................
004069E0 00 00 00 00 00 00 00 00 00 00 00 00 00 00 00 00 ................
004069F0 00 00 00 00 00 00 00 00 00 00 00 00 00 00 00 00 ................
00406A00 00 00 00 00 00 00 00 00 00 00 00 00 00 00 00 00 ................
00406A10 00 00 00 00 00 00 00 00 00 00 00 00 00 00 00 00 ................
00406A20 00 00 00 00 00 00 00 00 00 00 00 00 00 00 00 00 ................
00406A30 00 00 00 00 00 00 00 00 00 00 00 00 00 00 00 00 ................
00406A40 00 00 00 00 00 00 00 00 00 00 00 00 00 00 00 00 ................
00406A50 00 00 00 00 00 00 00 00 00 00 00 00 00 00 00 00 ................
00406A60 00 00 00 00 00 00 00 00 00 00 00 00 00 00 00 00 ................
00406A70 00 00 00 00 00 00 00 00 00 00 00 00 00 00 00 00 ................
00406A80 00 00 00 00 00 00 00 00 00 00 00 00 00 00 00 00 ................
00406A90 00 00 00 00 00 00 00 00 00 00 00 00 00 00 00 00 ................
00406AA0 00 00 00 00 00 00 00 00 00 00 00 00 00 00 00 00 ................
00406AB0 00 00 00 00 00 00 00 00 00 00 00 00 00 00 00 00 ................
00406AC0 00 00 00 00 00 00 00 00 00 00 00 00 00 00 00 00 ................
00406AD0 00 00 00 00 00 00 00 00 00 00 00 00 00 00 00 00 ................
00406AE0 00 00 00 00 00 00 00 00 00 00 00 00 00 00 00 00 ................
00406AF0 00 00 00 00 00 00 00 00 00 00 00 00 00 00 00 00 ................
00406B00 00 00 00 00 00 00 00 00 00 00 00 00 00 00 00 00 ................
00406B10 00 00 00 00 00 00 00 00 00 00 00 00 00 00 00 00 ................
00406B20 00 00 00 00 00 00 00 00 00 00 00 00 00 00 00 00 ................
00406B30 00 00 00 00 00 00 00 00 00 00 00 00 00 00 00 00 ................
00406B40 00 00 00 00 00 00 00 00 00 00 00 00 00 00 00 00 ................
00406B50 00 00 00 00 00 00 00 00 00 00 00 00 00 00 00 00 ................
00406B60 00 00 00 00 00 00 00 00 00 00 00 00 00 00 00 00 ................
00406B70 00 00 00 00 00 00 00 00 00 00 00 00 00 00 00 00 ................
00406B80 00 00 00 00 00 00 00 00 00 00 00 00 00 00 00 00 ................
00406B90 00 00 00 00 00 00 00 00 00 00 00 00 00 00 00 00 ................
00406BA0 00 00 00 00 00 00 00 00 00 00 00 00 00 00 00 00 ................
00406BB0 00 00 00 00 00 00 00 00 00 00 00 00 00 00 00 00 ................
00406BC0 00 00 00 00 00 00 00 00 00 00 00 00 00 00 00 00 ................
00406BD0 00 00 00 00 00 00 00 00 00 00 00 00 00 00 00 00 ................
00406BE0 00 00 00 00 00 00 00 00 00 00 00 00 00 00 00 00 ................
00406BF0 00 00 00 00 00 00 00 00 00 00 00 00 00 00 00 00 ................
00406C00 00 00 00 00 00 00 00 00 00 00 00 00 00 00 00 00 ................
00406C10 00 00 00 00 00 00 00 00 00 00 00 00 00 00 00 00 ................
00406C20 00 00 00 00 00 00 00 00 00 00 00 00 00 00 00 00 ................
00406C30 00 00 00 00 00 00 00 00 00 00 00 00 00 00 00 00 ................
00406C40 00 00 00 00 00 00 00 00 00 00 00 00 00 00 00 00 ................
00406C50 00 00 00 00 00 00 00 00 00 00 00 00 00 00 00 00 ................
00406C60 00 00 00 00 00 00 00 00 00 00 00 00 00 00 00 00 ................
00406C70 00 00 00 00 00 00 00 00 00 00 00 00 00 00 00 00 ................
00406C80 00 00 00 00 00 00 00 00 00 00 00 00 00 00 00 00 ................
00406C90 00 00 00 00 00 00 00 00 00 00 00 00 00 00 00 00 ................
00406CA0 00 00 00 00 00 00 00 00 00 00 00 00 00 00 00 00 ................
00406CB0 00 00 00 00 00 00 00 00 00 00 00 00 00 00 00 00 ................
00406CC0 00 00 00 00 00 00 00 00 00 00 00 00 00 00 00 00 ................
00406CD0 00 00 00 00 00 00 00 00 00 00 00 00 00 00 00 00 ................
00406CE0 00 00 00 00 00 00 00 00 00 00 00 00 00 00 00 00 ................
00406CF0 00 00 00 00 00 00 00 00 00 00 00 00 00 00 00 00 ................
00406D00 00 00 00 00 00 00 00 00 00 00 00 00 00 00 00 00 ................
00406D10 00 00 00 00 00 00 00 00 00 00 00 00 00 00 00 00 ................
00406D20 00 00 00 00 00 00 00 00 00 00 00 00 00 00 00 00 ................
00406D30 00 00 00 00 00 00 00 00 00 00 00 00 00 00 00 00 ................
00406D40 00 00 00 00 00 00 00 00 00 00 00 00 00 00 00 00 ................
00406D50 00 00 00 00 00 00 00 00 00 00 00 00 00 00 00 00 ................
00406D60 00 00 00 00 00 00 00 00 00 00 00 00 00 00 00 00 ................
00406D70 00 00 00 00 00 00 00 00 00 00 00 00 00 00 00 00 ................
00406D80 00 00 00 00 00 00 00 00 00 00 00 00 00 00 00 00 ................
00406D90 00 00 00 00 00 00 00 00 00 00 00 00 00 00 00 00 ................
00406DA0 00 00 00 00 00 00 00 00 00 00 00 00 00 00 00 00 ................
00406DB0 00 00 00 00 00 00 00 00 00 00 00 00 00 00 00 00 ................
00406DC0 00 00 00 00 00 00 00 00 00 00 00 00 00 00 00 00 ................
00406DD0 00 00 00 00 00 00 00 00 00 00 00 00 00 00 00 00 ................
00406DE0 00 00 00 00 00 00 00 00 00 00 00 00 00 00 00 00 ................
00406DF0 00 00 00 00 00 00 00 00 00 00 00 00 00 00 00 00 ................
00406E00 00 00 00 00 00 00 00 00 00 00 00 00 00 00 00 00 ................
00406E10 00 00 00 00 00 00 00 00 00 00 00 00 00 00 00 00 ................
00406E20 00 00 00 00 00 00 00 00 00 00 00 00 00 00 00 00 ................
00406E30 00 00 00 00 00 00 00 00 00 00 00 00 00 00 00 00 ................
00406E40 00 00 00 00 00 00 00 00 00 00 00 00 00 00 00 00 ................
00406E50 00 00 00 00 00 00 00 00 00 00 00 00 00 00 00 00 ................
00406E60 00 00 00 00 00 00 00 00 00 00 00 00 00 00 00 00 ................
00406E70 00 00 00 00 00 00 00 00 00 00 00 00 00 00 00 00 ................
00406E80 00 00 00 00 00 00 00 00 00 00 00 00 00 00 00 00 ................
00406E90 00 00 00 00 00 00 00 00 00 00 00 00 00 00 00 00 ................
00406EA0 00 00 00 00 00 00 00 00 00 00 00 00 00 00 00 00 ................
00406EB0 00 00 00 00 00 00 00 00 00 00 00 00 00 00 00 00 ................
00406EC0 00 00 00 00 00 00 00 00 00 00 00 00 00 00 00 00 ................
00406ED0 00 00 00 00 00 00 00 00 00 00 00 00 00 00 00 00 ................
00406EE0 00 00 00 00 00 00 00 00 00 00 00 00 00 00 00 00 ................
00406EF0 00 00 00 00 00 00 00 00 00 00 00 00 00 00 00 00 ................
00406F00 00 00 00 00 00 00 00 00 00 00 00 00 00 00 00 00 ................
00406F10 00 00 00 00 00 00 00 00 00 00 00 00 00 00 00 00 ................
00406F20 00 00 00 00 00 00 00 00 00 00 00 00 00 00 00 00 ................
00406F30 00 00 00 00 00 00 00 00 00 00 00 00 00 00 00 00 ................
00406F40 00 00 00 00 00 00 00 00 00 00 00 00 00 00 00 00 ................
00406F50 00 00 00 00 00 00 00 00 00 00 00 00 00 00 00 00 ................
00406F60 00 00 00 00 00 00 00 00 00 00 00 00 00 00 00 00 ................
00406F70 00 00 00 00 00 00 00 00 00 00 00 00 00 00 00 00 ................
00406F80 00 00 00 00 00 00 00 00 00 00 00 00 00 00 00 00 ................
00406F90 00 00 00 00 00 00 00 00 00 00 00 00 00 00 00 00 ................
00406FA0 00 00 00 00 00 00 00 00 00 00 00 00 00 00 00 00 ................
00406FB0 00 00 00 00 00 00 00 00 00 00 00 00 00 00 00 00 ................
00406FC0 00 00 00 00 00 00 00 00 00 00 00 00 00 00 00 00 ................
00406FD0 00 00 00 00 00 00 00 00 00 00 00 00 00 00 00 00 ................
00406FE0 00 00 00 00 00 00 00 00 00 00 00 00 00 00 00 00 ................
00406FF0 00 00 00 00 00 00 00 00 00 00 00 00 00 00 00 00 ................
00407000 00 00 00 00 00 00 00 00 00 00 00 00 00 00 00 00 ................
00407010 00 00 00 00 00 00 00 00 00 00 00 00 00 00 00 00 ................
00407020 00 00 00 00 00 00 00 00 00 00 00 00 00 00 00 00 ................
00407030 00 00 00 00 00 00 00 00 00 00 00 00 00 00 00 00 ................
00407040 00 00 00 00 00 00 00 00 00 00 00 00 00 00 00 00 ................
00407050 00 00 00 00 00 00 00 00 00 00 00 00 00 00 00 00 ................
00407060 00 00 00 00 00 00 00 00 00 00 00 00 00 00 00 00 ................
00407070 00 00 00 00 00 00 00 00 00 00 00 00 00 00 00 00 ................
00407080 00 00 00 00 00 00 00 00 00 00 00 00 00 00 00 00 ................
00407090 00 00 00 00 00 00 00 00 00 00 00 00 00 00 00 00 ................
004070A0 00 00 00 00 00 00 00 00 00 00 00 00 00 00 00 00 ................
004070B0 00 00 00 00 00 00 00 00 00 00 00 00 00 00 00 00 ................
004070C0 00 00 00 00 00 00 00 00 00 00 00 00 00 00 00 00 ................
004070D0 00 00 00 00 00 00 00 00 00 00 00 00 00 00 00 00 ................
004070E0 00 00 00 00 00 00 00 00 00 00 00 00 00 00 00 00 ................
004070F0 00 00 00 00 00 00 00 00 00 00 00 00 00 00 00 00 ................
00407100 00 00 00 00 00 00 00 00 00 00 00 00 00 00 00 00 ................
00407110 00 00 00 00 00 00 00 00 00 00 00 00 00 00 00 00 ................
00407120 00 00 00 00 00 00 00 00 00 00 00 00 00 00 00 00 ................
00407130 00 00 00 00 00 00 00 00 00 00 00 00 00 00 00 00 ................
00407140 00 00 00 00 00 00 00 00 00 00 00 00 00 00 00 00 ................
00407150 00 00 00 00 00 00 00 00 00 00 00 00 00 00 00 00 ................
00407160 00 00 00 00 00 00 00 00 00 00 00 00 00 00 00 00 ................
00407170 00 00 00 00 00 00 00 00 00 00 00 00 00 00 00 00 ................
00407180 00 00 00 00 00 00 00 00 00 00 00 00 00 00 00 00 ................
00407190 00 00 00 00 00 00 00 00 00 00 00 00 00 00 00 00 ................
004071A0 00 00 00 00 00 00 00 00 00 00 00 00 00 00 00 00 ................
004071B0 00 00 00 00 00 00 00 00 00 00 00 00 00 00 00 00 ................
004071C0 00 00 00 00 00 00 00 00 00 00 00 00 00 00 00 00 ................
004071D0 00 00 00 00 00 00 00 00 00 00 00 00 00 00 00 00 ................
004071E0 00 00 00 00 00 00 00 00 00 00 00 00 00 00 00 00 ................
004071F0 00 00 00 00 00 00 00 00 00 00 00 00 00 00 00 00 ................
00407200 00 00 00 00 00 00 00 00 00 00 00 00 00 00 00 00 ................
00407210 00 00 00 00 00 00 00 00 00 00 00 00 00 00 00 00 ................
00407220 00 00 00 00 00 00 00 00 00 00 00 00 00 00 00 00 ................
00407230 00 00 00 00 00 00 00 00 00 00 00 00 00 00 00 00 ................
00407240 00 00 00 00 00 00 00 00 00 00 00 00 00 00 00 00 ................
00407250 00 00 00 00 00 00 00 00 00 00 00 00 00 00 00 00 ................
00407260 00 00 00 00 00 00 00 00 00 00 00 00 00 00 00 00 ................
00407270 00 00 00 00 00 00 00 00 00 00 00 00 00 00 00 00 ................
00407280 00 00 00 00 00 00 00 00 00 00 00 00 00 00 00 00 ................
00407290 00 00 00 00 00 00 00 00 00 00 00 00 00 00 00 00 ................
004072A0 00 00 00 00 00 00 00 00 00 00 00 00 00 00 00 00 ................
004072B0 00 00 00 00 00 00 00 00 00 00 00 00 00 00 00 00 ................
004072C0 00 00 00 00 00 00 00 00 00 00 00 00 00 00 00 00 ................
004072D0 00 00 00 00 00 00 00 00 00 00 00 00 00 00 00 00 ................
004072E0 00 00 00 00 00 00 00 00 00 00 00 00 00 00 00 00 ................
004072F0 00 00 00 00 00 00 00 00 00 00 00 00 00 00 00 00 ................
00407300 00 00 00 00 00 00 00 00 00 00 00 00 00 00 00 00 ................
00407310 00 00 00 00 00 00 00 00 00 00 00 00 00 00 00 00 ................
00407320 00 00 00 00 00 00 00 00 00 00 00 00 00 00 00 00 ................
00407330 00 00 00 00 00 00 00 00 00 00 00 00 00 00 00 00 ................
00407340 00 00 00 00 00 00 00 00 00 00 00 00 00 00 00 00 ................
00407350 00 00 00 00 00 00 00 00 00 00 00 00 00 00 00 00 ................
00407360 00 00 00 00 00 00 00 00 00 00 00 00 00 00 00 00 ................
00407370 00 00 00 00 00 00 00 00 00 00 00 00 00 00 00 00 ................
00407380 00 00 00 00 00 00 00 00 00 00 00 00 00 00 00 00 ................
00407390 00 00 00 00 00 00 00 00 00 00 00 00 00 00 00 00 ................
004073A0 00 00 00 00 00 00 00 00 00 00 00 00 00 00 00 00 ................
004073B0 00 00 00 00 00 00 00 00 00 00 00 00 00 00 00 00 ................
004073C0 00 00 00 00 00 00 00 00 00 00 00 00 00 00 00 00 ................
004073D0 00 00 00 00 00 00 00 00 00 00 00 00 00 00 00 00 ................
004073E0 00 00 00 00 00 00 00 00 00 00 00 00 00 00 00 00 ................
004073F0 00 00 00 00 00 00 00 00 00 00 00 00 00 00 00 00 ................
00407400 00 00 00 00 00 00 00 00 00 00 00 00 00 00 00 00 ................
00407410 00 00 00 00 00 00 00 00 00 00 00 00 00 00 00 00 ................
00407420 00 00 00 00 00 00 00 00 00 00 00 00 00 00 00 00 ................
00407430 00 00 00 00 00 00 00 00 00 00 00 00 00 00 00 00 ................
00407440 00 00 00 00 00 00 00 00 00 00 00 00 00 00 00 00 ................
00407450 00 00 00 00 00 00 00 00 00 00 00 00 00 00 00 00 ................
00407460 00 00 00 00 00 00 00 00 00 00 00 00 00 00 00 00 ................
00407470 00 00 00 00 00 00 00 00 00 00 00 00 00 00 00 00 ................
00407480 00 00 00 00 00 00 00 00 00 00 00 00 00 00 00 00 ................
00407490 00 00 00 00 00 00 00 00 00 00 00 00 00 00 00 00 ................
004074A0 00 00 00 00 00 00 00 00 00 00 00 00 00 00 00 00 ................
004074B0 00 00 00 00 00 00 00 00 00 00 00 00 00 00 00 00 ................
004074C0 00 00 00 00 00 00 00 00 00 00 00 00 00 00 00 00 ................
004074D0 00 00 00 00 00 00 00 00 00 00 00 00 00 00 00 00 ................
004074E0 00 00 00 00 00 00 00 00 00 00 00 00 00 00 00 00 ................
004074F0 00 00 00 00 00 00 00 00 00 00 00 00 00 00 00 00 ................
00407500 00 00 00 00 00 00 00 00 00 00 00 00 00 00 00 00 ................
00407510 00 00 00 00 00 00 00 00 00 00 00 00 00 00 00 00 ................
00407520 00 00 00 00 00 00 00 00 00 00 00 00 00 00 00 00 ................
00407530 00 00 00 00 00 00 00 00 00 00 00 00 00 00 00 00 ................
00407540 00 00 00 00 00 00 00 00 00 00 00 00 00 00 00 00 ................
00407550 00 00 00 00 00 00 00 00 00 00 00 00 00 00 00 00 ................
00407560 00 00 00 00 00 00 00 00 00 00 00 00 00 00 00 00 ................
00407570 00 00 00 00 00 00 00 00 00 00 00 00 00 00 00 00 ................
00407580 00 00 00 00 00 00 00 00 00 00 00 00 00 00 00 00 ................
00407590 00 00 00 00 00 00 00 00 00 00 00 00 00 00 00 00 ................
004075A0 00 00 00 00 00 00 00 00 00 00 00 00 00 00 00 00 ................
004075B0 00 00 00 00 00 00 00 00 00 00 00 00 00 00 00 00 ................
004075C0 00 00 00 00 00 00 00 00 00 00 00 00 00 00 00 00 ................
004075D0 00 00 00 00 00 00 00 00 00 00 00 00 00 00 00 00 ................
004075E0 00 00 00 00 00 00 00 00 00 00 00 00 00 00 00 00 ................
004075F0 00 00 00 00 00 00 00 00 00 00 00 00 00 00 00 00 ................
00407600 00 00 00 00 00 00 00 00 00 00 00 00 00 00 00 00 ................
00407610 00 00 00 00 00 00 00 00 00 00 00 00 00 00 00 00 ................
00407620 00 00 00 00 00 00 00 00 00 00 00 00 00 00 00 00 ................
00407630 00 00 00 00 00 00 00 00 00 00 00 00 00 00 00 00 ................
00407640 00 00 00 00 00 00 00 00 00 00 00 00 00 00 00 00 ................
00407650 00 00 00 00 00 00 00 00 00 00 00 00 00 00 00 00 ................
00407660 00 00 00 00 00 00 00 00 00 00 00 00 00 00 00 00 ................
00407670 00 00 00 00 00 00 00 00 00 00 00 00 00 00 00 00 ................
00407680 00 00 00 00 00 00 00 00 00 00 00 00 00 00 00 00 ................
00407690 00 00 00 00 00 00 00 00 00 00 00 00 00 00 00 00 ................
004076A0 00 00 00 00 00 00 00 00 00 00 00 00 00 00 00 00 ................
004076B0 00 00 00 00 00 00 00 00 00 00 00 00 00 00 00 00 ................
004076C0 00 00 00 00 00 00 00 00 00 00 00 00 00 00 00 00 ................
004076D0 00 00 00 00 00 00 00 00 00 00 00 00 00 00 00 00 ................
004076E0 00 00 00 00 00 00 00 00 00 00 00 00 00 00 00 00 ................
004076F0 00 00 00 00 00 00 00 00 00 00 00 00 00 00 00 00 ................
00407700 00 00 00 00 00 00 00 00 00 00 00 00 00 00 00 00 ................
00407710 00 00 00 00 00 00 00 00 00 00 00 00 00 00 00 00 ................
00407720 00 00 00 00 00 00 00 00 00 00 00 00 00 00 00 00 ................
00407730 00 00 00 00 00 00 00 00 00 00 00 00 00 00 00 00 ................
00407740 00 00 00 00 00 00 00 00 00 00 00 00 00 00 00 00 ................
00407750 00 00 00 00 00 00 00 00 00 00 00 00 00 00 00 00 ................
00407760 00 00 00 00 00 00 00 00 00 00 00 00 00 00 00 00 ................
00407770 00 00 00 00 00 00 00 00 00 00 00 00 00 00 00 00 ................
00407780 00 00 00 00 00 00 00 00 00 00 00 00 00 00 00 00 ................
00407790 00 00 00 00 00 00 00 00 00 00 00 00 00 00 00 00 ................
004077A0 00 00 00 00 00 00 00 00 00 00 00 00 00 00 00 00 ................
004077B0 00 00 00 00 00 00 00 00 00 00 00 00 00 00 00 00 ................
004077C0 00 00 00 00 00 00 00 00 00 00 00 00 00 00 00 00 ................
004077D0 00 00 00 00 00 00 00 00 00 00 00 00 00 00 00 00 ................
004077E0 00 00 00 00 00 00 00 00 00 00 00 00 00 00 00 00 ................
004077F0 00 00 00 00 00 00 00 00 00 00 00 00 00 00 00 00 ................
00407800 00 00 00 00 00 00 00 00 00 00 00 00 00 00 00 00 ................
00407810 00 00 00 00 00 00 00 00 00 00 00 00 00 00 00 00 ................
00407820 00 00 00 00 00 00 00 00 00 00 00 00 00 00 00 00 ................
00407830 00 00 00 00 00 00 00 00 00 00 00 00 00 00 00 00 ................
00407840 00 00 00 00 00 00 00 00 00 00 00 00 00 00 00 00 ................
00407850 00 00 00 00 00 00 00 00 00 00 00 00 00 00 00 00 ................
00407860 00 00 00 00 00 00 00 00 00 00 00 00 00 00 00 00 ................
00407870 00 00 00 00 00 00 00 00 00 00 00 00 00 00 00 00 ................
00407880 00 00 00 00 00 00 00 00 00 00 00 00 00 00 00 00 ................
00407890 00 00 00 00 00 00 00 00 00 00 00 00 00 00 00 00 ................
004078A0 00 00 00 00 00 00 00 00 00 00 00 00 00 00 00 00 ................
004078B0 00 00 00 00 00 00 00 00 00 00 00 00 00 00 00 00 ................
004078C0 00 00 00 00 00 00 00 00 00 00 00 00 00 00 00 00 ................
004078D0 00 00 00 00 00 00 00 00 00 00 00 00 00 00 00 00 ................
004078E0 00 00 00 00 00 00 00 00 00 00 00 00 00 00 00 00 ................
004078F0 00 00 00 00 00 00 00 00 00 00 00 00 00 00 00 00 ................
00407900 00 00 00 00 00 00 00 00 00 00 00 00 00 00 00 00 ................
00407910 00 00 00 00 00 00 00 00 00 00 00 00 00 00 00 00 ................
00407920 00 00 00 00 00 00 00 00 00 00 00 00 00 00 00 00 ................
00407930 00 00 00 00 00 00 00 00 00 00 00 00 00 00 00 00 ................
00407940 00 00 00 00 00 00 00 00 00 00 00 00 00 00 00 00 ................
00407950 00 00 00 00 00 00 00 00 00 00 00 00 00 00 00 00 ................
00407960 00 00 00 00 00 00 00 00 00 00 00 00 00 00 00 00 ................
00407970 00 00 00 00 00 00 00 00 00 00 00 00 00 00 00 00 ................
00407980 00 00 00 00 00 00 00 00 00 00 00 00 00 00 00 00 ................
00407990 00 00 00 00 00 00 00 00 00 00 00 00 00 00 00 00 ................
004079A0 00 00 00 00 00 00 00 00 00 00 00 00 00 00 00 00 ................
004079B0 00 00 00 00 00 00 00 00 00 00 00 00 00 00 00 00 ................
004079C0 00 00 00 00 00 00 00 00 00 00 00 00 00 00 00 00 ................
004079D0 00 00 00 00 00 00 00 00 00 00 00 00 00 00 00 00 ................
004079E0 00 00 00 00 00 00 00 00 00 00 00 00 00 00 00 00 ................
004079F0 00 00 00 00 00 00 00 00 00 00 00 00 00 00 00 00 ................
00407A00 00 00 00 00 00 00 00 00 00 00 00 00 00 00 00 00 ................
00407A10 00 00 00 00 00 00 00 00 00 00 00 00 00 00 00 00 ................
00407A20 00 00 00 00 00 00 00 00 00 00 00 00 00 00 00 00 ................
00407A30 00 00 00 00 00 00 00 00 00 00 00 00 00 00 00 00 ................
00407A40 00 00 00 00 00 00 00 00 00 00 00 00 00 00 00 00 ................
00407A50 00 00 00 00 00 00 00 00 00 00 00 00 00 00 00 00 ................
00407A60 00 00 00 00 00 00 00 00 00 00 00 00 00 00 00 00 ................
00407A70 00 00 00 00 00 00 00 00 00 00 00 00 00 00 00 00 ................
00407A80 00 00 00 00 00 00 00 00 00 00 00 00 00 00 00 00 ................
00407A90 00 00 00 00 00 00 00 00 00 00 00 00 00 00 00 00 ................
00407AA0 00 00 00 00 00 00 00 00 00 00 00 00 00 00 00 00 ................
00407AB0 00 00 00 00 00 00 00 00 00 00 00 00 00 00 00 00 ................
00407AC0 00 00 00 00 00 00 00 00 00 00 00 00 00 00 00 00 ................
00407AD0 00 00 00 00 00 00 00 00 00 00 00 00 00 00 00 00 ................
00407AE0 00 00 00 00 00 00 00 00 00 00 00 00 00 00 00 00 ................
00407AF0 00 00 00 00 00 00 00 00 00 00 00 00 00 00 00 00 ................
00407B00 00 00 00 00 00 00 00 00 00 00 00 00 00 00 00 00 ................
00407B10 00 00 00 00 00 00 00 00 00 00 00 00 00 00 00 00 ................
00407B20 00 00 00 00 00 00 00 00 00 00 00 00 00 00 00 00 ................
00407B30 00 00 00 00 00 00 00 00 00 00 00 00 00 00 00 00 ................
00407B40 00 00 00 00 00 00 00 00 00 00 00 00 00 00 00 00 ................
00407B50 00 00 00 00 00 00 00 00 00 00 00 00 00 00 00 00 ................
00407B60 00 00 00 00 00 00 00 00 00 00 00 00 00 00 00 00 ................
00407B70 00 00 00 00 00 00 00 00 00 00 00 00 00 00 00 00 ................
00407B80 00 00 00 00 00 00 00 00 00 00 00 00 00 00 00 00 ................
00407B90 00 00 00 00 00 00 00 00 00 00 00 00 00 00 00 00 ................
00407BA0 00 00 00 00 00 00 00 00 00 00 00 00 00 00 00 00 ................
00407BB0 00 00 00 00 00 00 00 00 00 00 00 00 00 00 00 00 ................
00407BC0 00 00 00 00 00 00 00 00 00 00 00 00 00 00 00 00 ................
00407BD0 00 00 00 00 00 00 00 00 00 00 00 00 00 00 00 00 ................
00407BE0 00 00 00 00 00 00 00 00 00 00 00 00 00 00 00 00 ................
00407BF0 00 00 00 00 00 00 00 00 00 00 00 00 00 00 00 00 ................
00407C00 00 00 00 00 00 00 00 00 00 00 00 00 00 00 00 00 ................
00407C10 00 00 00 00 00 00 00 00 00 00 00 00 00 00 00 00 ................
00407C20 00 00 00 00 00 00 00 00 00 00 00 00 00 00 00 00 ................
00407C30 00 00 00 00 00 00 00 00 00 00 00 00 00 00 00 00 ................
00407C40 00 00 00 00 00 00 00 00 00 00 00 00 00 00 00 00 ................
00407C50 00 00 00 00 00 00 00 00 00 00 00 00 00 00 00 00 ................
00407C60 00 00 00 00 00 00 00 00 00 00 00 00 00 00 00 00 ................
00407C70 00 00 00 00 00 00 00 00 00 00 00 00 00 00 00 00 ................
00407C80 00 00 00 00 00 00 00 00 00 00 00 00 00 00 00 00 ................
00407C90 00 00 00 00 00 00 00 00 00 00 00 00 00 00 00 00 ................
00407CA0 00 00 00 00 00 00 00 00 00 00 00 00 00 00 00 00 ................
00407CB0 00 00 00 00 00 00 00 00 00 00 00 00 00 00 00 00 ................
00407CC0 00 00 00 00 00 00 00 00 00 00 00 00 00 00 00 00 ................
00407CD0 00 00 00 00 00 00 00 00 00 00 00 00 00 00 00 00 ................
00407CE0 00 00 00 00 00 00 00 00 00 00 00 00 00 00 00 00 ................
00407CF0 00 00 00 00 00 00 00 00 00 00 00 00 00 00 00 00 ................
00407D00 00 00 00 00 00 00 00 00 00 00 00 00 00 00 00 00 ................
00407D10 00 00 00 00 00 00 00 00 00 00 00 00 00 00 00 00 ................
00407D20 00 00 00 00 00 00 00 00 00 00 00 00 00 00 00 00 ................
00407D30 00 00 00 00 00 00 00 00 00 00 00 00 00 00 00 00 ................
00407D40 00 00 00 00 00 00 00 00 00 00 00 00 00 00 00 00 ................
00407D50 00 00 00 00 00 00 00 00 00 00 00 00 00 00 00 00 ................
00407D60 00 00 00 00 00 00 00 00 00 00 00 00 00 00 00 00 ................
00407D70 00 00 00 00 00 00 00 00 00 00 00 00 00 00 00 00 ................
00407D80 00 00 00 00 00 00 00 00 00 00 00 00 00 00 00 00 ................
00407D90 00 00 00 00 00 00 00 00 00 00 00 00 00 00 00 00 ................
00407DA0 00 00 00 00 00 00 00 00 00 00 00 00 00 00 00 00 ................
00407DB0 00 00 00 00 00 00 00 00 00 00 00 00 00 00 00 00 ................
00407DC0 00 00 00 00 00 00 00 00 00 00 00 00 00 00 00 00 ................
00407DD0 00 00 00 00 00 00 00 00 00 00 00 00 00 00 00 00 ................
00407DE0 00 00 00 00 00 00 00 00 00 00 00 00 00 00 00 00 ................
00407DF0 00 00 00 00 00 00 00 00 00 00 00 00 00 00 00 00 ................
00407E00 00 00 00 00 00 00 00 00 00 00 00 00 00 00 00 00 ................
00407E10 00 00 00 00 00 00 00 00 00 00 00 00 00 00 00 00 ................
00407E20 00 00 00 00 00 00 00 00 00 00 00 00 00 00 00 00 ................
00407E30 00 00 00 00 00 00 00 00 00 00 00 00 00 00 00 00 ................
00407E40 00 00 00 00 00 00 00 00 00 00 00 00 00 00 00 00 ................
00407E50 00 00 00 00 00 00 00 00 00 00 00 00 00 00 00 00 ................
00407E60 00 00 00 00 00 00 00 00 00 00 00 00 00 00 00 00 ................
00407E70 00 00 00 00 00 00 00 00 00 00 00 00 00 00 00 00 ................
00407E80 00 00 00 00 00 00 00 00 00 00 00 00 00 00 00 00 ................
00407E90 00 00 00 00 00 00 00 00 00 00 00 00 00 00 00 00 ................
00407EA0 00 00 00 00 00 00 00 00 00 00 00 00 00 00 00 00 ................
00407EB0 00 00 00 00 00 00 00 00 00 00 00 00 00 00 00 00 ................
00407EC0 00 00 00 00 00 00 00 00 00 00 00 00 00 00 00 00 ................
00407ED0 00 00 00 00 00 00 00 00 00 00 00 00 00 00 00 00 ................
00407EE0 00 00 00 00 00 00 00 00 00 00 00 00 00 00 00 00 ................
00407EF0 00 00 00 00 00 00 00 00 00 00 00 00 00 00 00 00 ................
00407F00 00 00 00 00 00 00 00 00 00 00 00 00 00 00 00 00 ................
00407F10 00 00 00 00 00 00 00 00 00 00 00 00 00 00 00 00 ................
00407F20 00 00 00 00 00 00 00 00 00 00 00 00 00 00 00 00 ................
00407F30 00 00 00 00 00 00 00 00 00 00 00 00 00 00 00 00 ................
00407F40 00 00 00 00 00 00 00 00 00 00 00 00 00 00 00 00 ................
00407F50 00 00 00 00 00 00 00 00 00 00 00 00 00 00 00 00 ................
00407F60 00 00 00 00 00 00 00 00 00 00 00 00 00 00 00 00 ................
00407F70 00 00 00 00 00 00 00 00 00 00 00 00 00 00 00 00 ................
00407F80 00 00 00 00 00 00 00 00 00 00 00 00 00 00 00 00 ................
00407F90 00 00 00 00 00 00 00 00 00 00 00 00 00 00 00 00 ................
00407FA0 00 00 00 00 00 00 00 00 00 00 00 00 00 00 00 00 ................
00407FB0 00 00 00 00 00 00 00 00 00 00 00 00 00 00 00 00 ................
00407FC0 00 00 00 00 00 00 00 00 00 00 00 00 00 00 00 00 ................
00407FD0 00 00 00 00 00 00 00 00 00 00 00 00 00 00 00 00 ................
00407FE0 00 00 00 00 00 00 00 00 00 00 00 00 00 00 00 00 ................
00407FF0 00 00 00 00 00 00 00 00 00 00 00 00 00 00 00 00 ................
00408000 00 00 00 00 00 00 00 00 00 00 00 00 00 00 00 00 ................
00408010 00 00 00 00 00 00 00 00 00 00 00 00 00 00 00 00 ................
00408020 00 00 00 00 00 00 00 00 00 00 00 00 00 00 00 00 ................
00408030 00 00 00 00 00 00 00 00 00 00 00 00 00 00 00 00 ................
00408040 00 00 00 00 00 00 00 00 00 00 00 00 00 00 00 00 ................
00408050 00 00 00 00 00 00 00 00 00 00 00 00 00 00 00 00 ................
00408060 00 00 00 00 00 00 00 00 00 00 00 00 00 00 00 00 ................
00408070 00 00 00 00 00 00 00 00 00 00 00 00 00 00 00 00 ................
00408080 00 00 00 00 00 00 00 00 00 00 00 00 00 00 00 00 ................
00408090 00 00 00 00 00 00 00 00 00 00 00 00 00 00 00 00 ................
004080A0 00 00 00 00 00 00 00 00 00 00 00 00 00 00 00 00 ................
004080B0 00 00 00 00 00 00 00 00 00 00 00 00 00 00 00 00 ................
004080C0 00 00 00 00 00 00 00 00 00 00 00 00 00 00 00 00 ................
004080D0 00 00 00 00 00 00 00 00 00 00 00 00 00 00 00 00 ................
004080E0 00 00 00 00 00 00 00 00 00 00 00 00 00 00 00 00 ................
004080F0 00 00 00 00 00 00 00 00 00 00 00 00 00 00 00 00 ................
00408100 00 00 00 00 00 00 00 00 00 00 00 00 00 00 00 00 ................
00408110 00 00 00 00 00 00 00 00 00 00 00 00 00 00 00 00 ................
00408120 00 00 00 00 00 00 00 00 00 00 00 00 00 00 00 00 ................
00408130 00 00 00 00 00 00 00 00 00 00 00 00 00 00 00 00 ................
00408140 00 00 00 00 00 00 00 00 00 00 00 00 00 00 00 00 ................
00408150 00 00 00 00 00 00 00 00 00 00 00 00 00 00 00 00 ................
00408160 00 00 00 00 00 00 00 00 00 00 00 00 00 00 00 00 ................
00408170 00 00 00 00 00 00 00 00 00 00 00 00 00 00 00 00 ................
00408180 00 00 00 00 00 00 00 00 00 00 00 00 00 00 00 00 ................
00408190 00 00 00 00 00 00 00 00 00 00 00 00 00 00 00 00 ................
004081A0 00 00 00 00 00 00 00 00 00 00 00 00 00 00 00 00 ................
004081B0 00 00 00 00 00 00 00 00 00 00 00 00 00 00 00 00 ................
004081C0 00 00 00 00 00 00 00 00 00 00 00 00 00 00 00 00 ................
004081D0 00 00 00 00 00 00 00 00 00 00 00 00 00 00 00 00 ................
004081E0 00 00 00 00 00 00 00 00 00 00 00 00 00 00 00 00 ................
004081F0 00 00 00 00 00 00 00 00 00 00 00 00 00 00 00 00 ................
00408200 00 00 00 00 00 00 00 00 00 00 00 00 00 00 00 00 ................
00408210 00 00 00 00 00 00 00 00 00 00 00 00 00 00 00 00 ................
00408220 00 00 00 00 00 00 00 00 00 00 00 00 00 00 00 00 ................
00408230 00 00 00 00 00 00 00 00 00 00 00 00 00 00 00 00 ................
00408240 00 00 00 00 00 00 00 00 00 00 00 00 00 00 00 00 ................
00408250 00 00 00 00 00 00 00 00 00 00 00 00 00 00 00 00 ................
00408260 00 00 00 00 00 00 00 00 00 00 00 00 00 00 00 00 ................
00408270 00 00 00 00 00 00 00 00 00 00 00 00 00 00 00 00 ................
00408280 00 00 00 00 00 00 00 00 00 00 00 00 00 00 00 00 ................
00408290 00 00 00 00 00 00 00 00 00 00 00 00 00 00 00 00 ................
004082A0 00 00 00 00 00 00 00 00 00 00 00 00 00 00 00 00 ................
004082B0 00 00 00 00 00 00 00 00 00 00 00 00 00 00 00 00 ................
004082C0 00 00 00 00 00 00 00 00 00 00 00 00 00 00 00 00 ................
004082D0 00 00 00 00 00 00 00 00 00 00 00 00 00 00 00 00 ................
004082E0 00 00 00 00 00 00 00 00 00 00 00 00 00 00 00 00 ................
004082F0 00 00 00 00 00 00 00 00 00 00 00 00 00 00 00 00 ................
00408300 00 00 00 00 00 00 00 00 00 00 00 00 00 00 00 00 ................
00408310 00 00 00 00 00 00 00 00 00 00 00 00 00 00 00 00 ................
00408320 00 00 00 00 00 00 00 00 00 00 00 00 00 00 00 00 ................
00408330 00 00 00 00 00 00 00 00 00 00 00 00 00 00 00 00 ................
00408340 00 00 00 00 00 00 00 00 00 00 00 00 00 00 00 00 ................
00408350 00 00 00 00 00 00 00 00 00 00 00 00 00 00 00 00 ................
00408360 00 00 00 00 00 00 00 00 00 00 00 00 00 00 00 00 ................
00408370 00 00 00 00 00 00 00 00 00 00 00 00 00 00 00 00 ................
00408380 00 00 00 00 00 00 00 00 00 00 00 00 00 00 00 00 ................
00408390 00 00 00 00 00 00 00 00 00 00 00 00 00 00 00 00 ................
004083A0 00 00 00 00 00 00 00 00 00 00 00 00 00 00 00 00 ................
004083B0 00 00 00 00 00 00 00 00 00 00 00 00 00 00 00 00 ................
004083C0 00 00 00 00 00 00 00 00 00 00 00 00 00 00 00 00 ................
004083D0 00 00 00 00 00 00 00 00 00 00 00 00 00 00 00 00 ................
004083E0 00 00 00 00 00 00 00 00 00 00 00 00 00 00 00 00 ................
004083F0 00 00 00 00 00 00 00 00 00 00 00 00 00 00 00 00 ................
00408400 00 00 00 00 00 00 00 00 00 00 00 00 00 00 00 00 ................
00408410 00 00 00 00 00 00 00 00 00 00 00 00 00 00 00 00 ................
00408420 00 00 00 00 00 00 00 00 00 00 00 00 00 00 00 00 ................
00408430 00 00 00 00 00 00 00 00 00 00 00 00 00 00 00 00 ................
00408440 00 00 00 00 00 00 00 00 00 00 00 00 00 00 00 00 ................
00408450 00 00 00 00 00 00 00 00 00 00 00 00 00 00 00 00 ................
00408460 00 00 00 00 00 00 00 00 00 00 00 00 00 00 00 00 ................
00408470 00 00 00 00 00 00 00 00 00 00 00 00 00 00 00 00 ................
00408480 00 00 00 00 00 00 00 00 00 00 00 00 00 00 00 00 ................
00408490 00 00 00 00 00 00 00 00 00 00 00 00 00 00 00 00 ................
004084A0 00 00 00 00 00 00 00 00 00 00 00 00 00 00 00 00 ................
004084B0 00 00 00 00 00 00 00 00 00 00 00 00 00 00 00 00 ................
004084C0 00 00 00 00 00 00 00 00 00 00 00 00 00 00 00 00 ................
004084D0 00 00 00 00 00 00 00 00 00 00 00 00 00 00 00 00 ................
004084E0 00 00 00 00 00 00 00 00 00 00 00 00 00 00 00 00 ................
004084F0 00 00 00 00 00 00 00 00 00 00 00 00 00 00 00 00 ................
00408500 00 00 00 00 00 00 00 00 00 00 00 00 00 00 00 00 ................
00408510 00 00 00 00 00 00 00 00 00 00 00 00 00 00 00 00 ................
00408520 00 00 00 00 00 00 00 00 00 00 00 00 00 00 00 00 ................
00408530 00 00 00 00 00 00 00 00 00 00 00 00 00 00 00 00 ................
00408540 00 00 00 00 00 00 00 00 00 00 00 00 00 00 00 00 ................
00408550 00 00 00 00 00 00 00 00 00 00 00 00 00 00 00 00 ................
00408560 00 00 00 00 00 00 00 00 00 00 00 00 00 00 00 00 ................
00408570 00 00 00 00 00 00 00 00 00 00 00 00 00 00 00 00 ................
00408580 00 00 00 00 00 00 00 00 00 00 00 00 00 00 00 00 ................
00408590 00 00 00 00 00 00 00 00 00 00 00 00 00 00 00 00 ................
004085A0 00 00 00 00 00 00 00 00 00 00 00 00 00 00 00 00 ................
004085B0 00 00 00 00 00 00 00 00 00 00 00 00 00 00 00 00 ................
004085C0 00 00 00 00 00 00 00 00 00 00 00 00 00 00 00 00 ................
004085D0 00 00 00 00 00 00 00 00 00 00 00 00 00 00 00 00 ................
004085E0 00 00 00 00 00 00 00 00 00 00 00 00 00 00 00 00 ................
004085F0 00 00 00 00 00 00 00 00 00 00 00 00 00 00 00 00 ................
00408600 00 00 00 00 00 00 00 00 00 00 00 00 00 00 00 00 ................
00408610 00 00 00 00 00 00 00 00 00 00 00 00 00 00 00 00 ................
00408620 00 00 00 00 00 00 00 00 00 00 00 00 00 00 00 00 ................
00408630 00 00 00 00 00 00 00 00 00 00 00 00 00 00 00 00 ................
00408640 00 00 00 00 00 00 00 00 00 00 00 00 00 00 00 00 ................
00408650 00 00 00 00 00 00 00 00 00 00 00 00 00 00 00 00 ................
00408660 00 00 00 00 00 00 00 00 00 00 00 00 00 00 00 00 ................
00408670 00 00 00 00 00 00 00 00 00 00 00 00 00 00 00 00 ................
00408680 00 00 00 00 00 00 00 00 00 00 00 00 00 00 00 00 ................
00408690 00 00 00 00 00 00 00 00 00 00 00 00 00 00 00 00 ................
004086A0 00 00 00 00 00 00 00 00 00 00 00 00 00 00 00 00 ................
004086B0 00 00 00 00 00 00 00 00 00 00 00 00 00 00 00 00 ................
004086C0 00 00 00 00 00 00 00 00 00 00 00 00 00 00 00 00 ................
004086D0 00 00 00 00 00 00 00 00 00 00 00 00 00 00 00 00 ................
004086E0 00 00 00 00 00 00 00 00 00 00 00 00 00 00 00 00 ................
004086F0 00 00 00 00 00 00 00 00 00 00 00 00 00 00 00 00 ................
00408700 00 00 00 00 00 00 00 00 00 00 00 00 00 00 00 00 ................
00408710 00 00 00 00 00 00 00 00 00 00 00 00 00 00 00 00 ................
00408720 00 00 00 00 00 00 00 00 00 00 00 00 00 00 00 00 ................
00408730 00 00 00 00 00 00 00 00 00 00 00 00 00 00 00 00 ................
00408740 00 00 00 00 00 00 00 00 00 00 00 00 00 00 00 00 ................
00408750 00 00 00 00 00 00 00 00 00 00 00 00 00 00 00 00 ................
00408760 00 00 00 00 00 00 00 00 00 00 00 00 00 00 00 00 ................
00408770 00 00 00 00 00 00 00 00 00 00 00 00 00 00 00 00 ................
00408780 00 00 00 00 00 00 00 00 00 00 00 00 00 00 00 00 ................
00408790 00 00 00 00 00 00 00 00 00 00 00 00 00 00 00 00 ................
004087A0 00 00 00 00 00 00 00 00 00 00 00 00 00 00 00 00 ................
004087B0 00 00 00 00 00 00 00 00 00 00 00 00 00 00 00 00 ................
004087C0 00 00 00 00 00 00 00 00 00 00 00 00 00 00 00 00 ................
004087D0 00 00 00 00 00 00 00 00 00 00 00 00 00 00 00 00 ................
004087E0 00 00 00 00 00 00 00 00 00 00 00 00 00 00 00 00 ................
004087F0 00 00 00 00 00 00 00 00 00 00 00 00 00 00 00 00 ................
00408800 00 00 00 00 00 00 00 00 00 00 00 00 00 00 00 00 ................
00408810 00 00 00 00 00 00 00 00 00 00 00 00 00 00 00 00 ................
00408820 00 00 00 00 00 00 00 00 00 00 00 00 00 00 00 00 ................
00408830 00 00 00 00 00 00 00 00 00 00 00 00 00 00 00 00 ................
00408840 00 00 00 00 00 00 00 00 00 00 00 00 00 00 00 00 ................
00408850 00 00 00 00 00 00 00 00 00 00 00 00 00 00 00 00 ................
00408860 00 00 00 00 00 00 00 00 00 00 00 00 00 00 00 00 ................
00408870 00 00 00 00 00 00 00 00 00 00 00 00 00 00 00 00 ................
00408880 00 00 00 00 00 00 00 00 00 00 00 00 00 00 00 00 ................
00408890 00 00 00 00 00 00 00 00 00 00 00 00 00 00 00 00 ................
004088A0 00 00 00 00 00 00 00 00 00 00 00 00 00 00 00 00 ................
004088B0 00 00 00 00 00 00 00 00 00 00 00 00 00 00 00 00 ................
004088C0 00 00 00 00 00 00 00 00 00 00 00 00 00 00 00 00 ................
004088D0 00 00 00 00 00 00 00 00 00 00 00 00 00 00 00 00 ................
004088E0 00 00 00 00 00 00 00 00 00 00 00 00 00 00 00 00 ................
004088F0 00 00 00 00 00 00 00 00 00 00 00 00 00 00 00 00 ................
00408900 00 00 00 00 00 00 00 00 00 00 00 00 00 00 00 00 ................
00408910 00 00 00 00 00 00 00 00 00 00 00 00 00 00 00 00 ................
00408920 00 00 00 00 00 00 00 00 00 00 00 00 00 00 00 00 ................
00408930 00 00 00 00 00 00 00 00 00 00 00 00 00 00 00 00 ................
00408940 00 00 00 00 00 00 00 00 00 00 00 00 00 00 00 00 ................
00408950 00 00 00 00 00 00 00 00 00 00 00 00 00 00 00 00 ................
00408960 00 00 00 00 00 00 00 00 00 00 00 00 00 00 00 00 ................
00408970 00 00 00 00 00 00 00 00 00 00 00 00 00 00 00 00 ................
00408980 00 00 00 00 00 00 00 00 00 00 00 00 00 00 00 00 ................
00408990 00 00 00 00 00 00 00 00 00 00 00 00 00 00 00 00 ................
004089A0 00 00 00 00 00 00 00 00 00 00 00 00 00 00 00 00 ................
004089B0 00 00 00 00 00 00 00 00 00 00 00 00 00 00 00 00 ................
004089C0 00 00 00 00 00 00 00 00 00 00 00 00 00 00 00 00 ................
004089D0 00 00 00 00 00 00 00 00 00 00 00 00 00 00 00 00 ................
004089E0 00 00 00 00 00 00 00 00 00 00 00 00 00 00 00 00 ................
004089F0 00 00 00 00 00 00 00 00 00 00 00 00 00 00 00 00 ................
00408A00 00 00 00 00 00 00 00 00 00 00 00 00 00 00 00 00 ................
00408A10 00 00 00 00 00 00 00 00 00 00 00 00 00 00 00 00 ................
00408A20 00 00 00 00 00 00 00 00 00 00 00 00 00 00 00 00 ................
00408A30 00 00 00 00 00 00 00 00 00 00 00 00 00 00 00 00 ................
00408A40 00 00 00 00 00 00 00 00 00 00 00 00 00 00 00 00 ................
00408A50 00 00 00 00 00 00 00 00 00 00 00 00 00 00 00 00 ................
00408A60 00 00 00 00 00 00 00 00 00 00 00 00 00 00 00 00 ................
00408A70 00 00 00 00 00 00 00 00 00 00 00 00 00 00 00 00 ................
00408A80 00 00 00 00 00 00 00 00 00 00 00 00 00 00 00 00 ................
00408A90 00 00 00 00 00 00 00 00 00 00 00 00 00 00 00 00 ................
00408AA0 00 00 00 00 00 00 00 00 00 00 00 00 00 00 00 00 ................
00408AB0 00 00 00 00 00 00 00 00 00 00 00 00 00 00 00 00 ................
00408AC0 00 00 00 00 00 00 00 00 00 00 00 00 00 00 00 00 ................
00408AD0 00 00 00 00 00 00 00 00 00 00 00 00 00 00 00 00 ................
00408AE0 00 00 00 00 00 00 00 00 00 00 00 00 00 00 00 00 ................
00408AF0 00 00 00 00 00 00 00 00 00 00 00 00 00 00 00 00 ................
00408B00 00 00 00 00 00 00 00 00 00 00 00 00 00 00 00 00 ................
00408B10 00 00 00 00 00 00 00 00 00 00 00 00 00 00 00 00 ................
00408B20 00 00 00 00 00 00 00 00 00 00 00 00 00 00 00 00 ................
00408B30 00 00 00 00 00 00 00 00 00 00 00 00 00 00 00 00 ................
00408B40 00 00 00 00 00 00 00 00 00 00 00 00 00 00 00 00 ................
00408B50 00 00 00 00 00 00 00 00 00 00 00 00 00 00 00 00 ................
00408B60 00 00 00 00 00 00 00 00 00 00 00 00 00 00 00 00 ................
00408B70 00 00 00 00 00 00 00 00 00 00 00 00 00 00 00 00 ................
00408B80 00 00 00 00 00 00 00 00 00 00 00 00 00 00 00 00 ................
00408B90 00 00 00 00 00 00 00 00 00 00 00 00 00 00 00 00 ................
00408BA0 00 00 00 00 00 00 00 00 00 00 00 00 00 00 00 00 ................
00408BB0 00 00 00 00 00 00 00 00 00 00 00 00 00 00 00 00 ................
00408BC0 00 00 00 00 00 00 00 00 00 00 00 00 00 00 00 00 ................
00408BD0 00 00 00 00 00 00 00 00 00 00 00 00 00 00 00 00 ................
00408BE0 00 00 00 00 00 00 00 00 00 00 00 00 00 00 00 00 ................
00408BF0 00 00 00 00 00 00 00 00 00 00 00 00 00 00 00 00 ................
00408C00 00 00 00 00 00 00 00 00 00 00 00 00 00 00 00 00 ................
00408C10 00 00 00 00 00 00 00 00 00 00 00 00 00 00 00 00 ................
00408C20 00 00 00 00 00 00 00 00 00 00 00 00 00 00 00 00 ................
00408C30 00 00 00 00 00 00 00 00 00 00 00 00 00 00 00 00 ................
00408C40 00 00 00 00 00 00 00 00 00 00 00 00 00 00 00 00 ................
00408C50 00 00 00 00 00 00 00 00 00 00 00 00 00 00 00 00 ................
00408C60 00 00 00 00 00 00 00 00 00 00 00 00 00 00 00 00 ................
00408C70 00 00 00 00 00 00 00 00 00 00 00 00 00 00 00 00 ................
00408C80 00 00 00 00 00 00 00 00 00 00 00 00 00 00 00 00 ................
00408C90 00 00 00 00 00 00 00 00 00 00 00 00 00 00 00 00 ................
00408CA0 00 00 00 00 00 00 00 00 00 00 00 00 00 00 00 00 ................
00408CB0 00 00 00 00 00 00 00 00 00 00 00 00 00 00 00 00 ................
00408CC0 00 00 00 00 00 00 00 00 00 00 00 00 00 00 00 00 ................
00408CD0 00 00 00 00 00 00 00 00 00 00 00 00 00 00 00 00 ................
00408CE0 00 00 00 00 00 00 00 00 00 00 00 00 00 00 00 00 ................
00408CF0 00 00 00 00 00 00 00 00 00 00 00 00 00 00 00 00 ................
00408D00 00 00 00 00 00 00 00 00 00 00 00 00 00 00 00 00 ................
00408D10 00 00 00 00 00 00 00 00 00 00 00 00 00 00 00 00 ................
00408D20 00 00 00 00 00 00 00 00 00 00 00 00 00 00 00 00 ................
00408D30 00 00 00 00 00 00 00 00 00 00 00 00 00 00 00 00 ................
00408D40 00 00 00 00 00 00 00 00 00 00 00 00 00 00 00 00 ................
00408D50 00 00 00 00 00 00 00 00 00 00 00 00 00 00 00 00 ................
00408D60 00 00 00 00 00 00 00 00 00 00 00 00 00 00 00 00 ................
00408D70 00 00 00 00 00 00 00 00 00 00 00 00 00 00 00 00 ................
00408D80 00 00 00 00 00 00 00 00 00 00 00 00 00 00 00 00 ................
00408D90 00 00 00 00 00 00 00 00 00 00 00 00 00 00 00 00 ................
00408DA0 00 00 00 00 00 00 00 00 00 00 00 00 00 00 00 00 ................
00408DB0 00 00 00 00 00 00 00 00 00 00 00 00 00 00 00 00 ................
00408DC0 00 00 00 00 00 00 00 00 00 00 00 00 00 00 00 00 ................
00408DD0 00 00 00 00 00 00 00 00 00 00 00 00 00 00 00 00 ................
00408DE0 00 00 00 00 00 00 00 00 00 00 00 00 00 00 00 00 ................
00408DF0 00 00 00 00 00 00 00 00 00 00 00 00 00 00 00 00 ................
00408E00 00 00 00 00 00 00 00 00 00 00 00 00 00 00 00 00 ................
00408E10 00 00 00 00 00 00 00 00 00 00 00 00 00 00 00 00 ................
00408E20 00 00 00 00 00 00 00 00 00 00 00 00 00 00 00 00 ................
00408E30 00 00 00 00 00 00 00 00 00 00 00 00 00 00 00 00 ................
00408E40 00 00 00 00 00 00 00 00 00 00 00 00 00 00 00 00 ................
00408E50 00 00 00 00 00 00 00 00 00 00 00 00 00 00 00 00 ................
00408E60 00 00 00 00 00 00 00 00 00 00 00 00 00 00 00 00 ................
00408E70 00 00 00 00 00 00 00 00 00 00 00 00 00 00 00 00 ................
00408E80 00 00 00 00 00 00 00 00 00 00 00 00 00 00 00 00 ................
00408E90 00 00 00 00 00 00 00 00 00 00 00 00 00 00 00 00 ................
00408EA0 00 00 00 00 00 00 00 00 00 00 00 00 00 00 00 00 ................
00408EB0 00 00 00 00 00 00 00 00 00 00 00 00 00 00 00 00 ................
00408EC0 00 00 00 00 00 00 00 00 00 00 00 00 00 00 00 00 ................
00408ED0 00 00 00 00 00 00 00 00 00 00 00 00 00 00 00 00 ................
00408EE0 00 00 00 00 00 00 00 00 00 00 00 00 00 00 00 00 ................
00408EF0 00 00 00 00 00 00 00 00 00 00 00 00 00 00 00 00 ................
00408F00 00 00 00 00 00 00 00 00 00 00 00 00 00 00 00 00 ................
00408F10 00 00 00 00 00 00 00 00 00 00 00 00 00 00 00 00 ................
00408F20 00 00 00 00 00 00 00 00 00 00 00 00 00 00 00 00 ................
00408F30 00 00 00 00 00 00 00 00 00 00 00 00 00 00 00 00 ................
00408F40 00 00 00 00 00 00 00 00 00 00 00 00 00 00 00 00 ................
00408F50 00 00 00 00 00 00 00 00 00 00 00 00 00 00 00 00 ................
00408F60 00 00 00 00 00 00 00 00 00 00 00 00 00 00 00 00 ................
00408F70 00 00 00 00 00 00 00 00 00 00 00 00 00 00 00 00 ................
00408F80 00 00 00 00 00 00 00 00 00 00 00 00 00 00 00 00 ................
00408F90 00 00 00 00 00 00 00 00 00 00 00 00 00 00 00 00 ................
00408FA0 00 00 00 00 00 00 00 00 00 00 00 00 00 00 00 00 ................
00408FB0 00 00 00 00 00 00 00 00 00 00 00 00 00 00 00 00 ................
00408FC0 00 00 00 00 00 00 00 00 00 00 00 00 00 00 00 00 ................
00408FD0 00 00 00 00 00 00 00 00 00 00 00 00 00 00 00 00 ................
00408FE0 00 00 00 00 00 00 00 00 00 00 00 00 00 00 00 00 ................
00408FF0 00 00 00 00 00 00 00 00 00 00 00 00 00 00 00 00 ................
00409000 00 00 00 00 00 00 00 00 00 00 00 00 00 00 00 00 ................
00409010 00 00 00 00 00 00 00 00 00 00 00 00 00 00 00 00 ................
00409020 00 00 00 00 00 00 00 00 00 00 00 00 00 00 00 00 ................
00409030 00 00 00 00 00 00 00 00 00 00 00 00 00 00 00 00 ................
00409040 00 00 00 00 00 00 00 00 00 00 00 00 00 00 00 00 ................
00409050 00 00 00 00 00 00 00 00 00 00 00 00 00 00 00 00 ................
00409060 00 00 00 00 00 00 00 00 00 00 00 00 00 00 00 00 ................
00409070 00 00 00 00 00 00 00 00 00 00 00 00 00 00 00 00 ................
00409080 00 00 00 00 00 00 00 00 00 00 00 00 00 00 00 00 ................
00409090 00 00 00 00 00 00 00 00 00 00 00 00 00 00 00 00 ................
004090A0 00 00 00 00 00 00 00 00 00 00 00 00 00 00 00 00 ................
004090B0 00 00 00 00 00 00 00 00 00 00 00 00 00 00 00 00 ................
004090C0 00 00 00 00 00 00 00 00 00 00 00 00 00 00 00 00 ................
004090D0 00 00 00 00 00 00 00 00 00 00 00 00 00 00 00 00 ................
004090E0 00 00 00 00 00 00 00 00 00 00 00 00 00 00 00 00 ................
004090F0 00 00 00 00 00 00 00 00 00 00 00 00 00 00 00 00 ................
00409100 00 00 00 00 00 00 00 00 00 00 00 00 00 00 00 00 ................
00409110 00 00 00 00 00 00 00 00 00 00 00 00 00 00 00 00 ................
00409120 00 00 00 00 00 00 00 00 00 00 00 00 00 00 00 00 ................
00409130 00 00 00 00 00 00 00 00 00 00 00 00 00 00 00 00 ................
00409140 00 00 00 00 00 00 00 00 00 00 00 00 00 00 00 00 ................
00409150 00 00 00 00 00 00 00 00 00 00 00 00 00 00 00 00 ................
00409160 00 00 00 00 00 00 00 00 00 00 00 00 00 00 00 00 ................
00409170 00 00 00 00 00 00 00 00 00 00 00 00 00 00 00 00 ................
00409180 00 00 00 00 00 00 00 00 00 00 00 00 00 00 00 00 ................
00409190 00 00 00 00 00 00 00 00 00 00 00 00 00 00 00 00 ................
004091A0 00 00 00 00 00 00 00 00 00 00 00 00 00 00 00 00 ................
004091B0 00 00 00 00 00 00 00 00 00 00 00 00 00 00 00 00 ................
004091C0 00 00 00 00 00 00 00 00 00 00 00 00 00 00 00 00 ................
004091D0 00 00 00 00 00 00 00 00 00 00 00 00 00 00 00 00 ................
004091E0 00 00 00 00 00 00 00 00 00 00 00 00 00 00 00 00 ................
004091F0 00 00 00 00 00 00 00 00 00 00 00 00 00 00 00 00 ................
00409200 00 00 00 00 00 00 00 00 00 00 00 00 00 00 00 00 ................
00409210 00 00 00 00 00 00 00 00 00 00 00 00 00 00 00 00 ................
00409220 00 00 00 00 00 00 00 00 00 00 00 00 00 00 00 00 ................
00409230 00 00 00 00 00 00 00 00 00 00 00 00 00 00 00 00 ................
00409240 00 00 00 00 00 00 00 00 00 00 00 00 00 00 00 00 ................
00409250 00 00 00 00 00 00 00 00 00 00 00 00 00 00 00 00 ................
00409260 00 00 00 00 00 00 00 00 00 00 00 00 00 00 00 00 ................
00409270 00 00 00 00 00 00 00 00 00 00 00 00 00 00 00 00 ................
00409280 00 00 00 00 00 00 00 00 00 00 00 00 00 00 00 00 ................
00409290 00 00 00 00 00 00 00 00 00 00 00 00 00 00 00 00 ................
004092A0 00 00 00 00 00 00 00 00 00 00 00 00 00 00 00 00 ................
004092B0 00 00 00 00 00 00 00 00 00 00 00 00 00 00 00 00 ................
004092C0 00 00 00 00 00 00 00 00 00 00 00 00 00 00 00 00 ................
004092D0 00 00 00 00 00 00 00 00 00 00 00 00 00 00 00 00 ................
004092E0 00 00 00 00 00 00 00 00 00 00 00 00 00 00 00 00 ................
004092F0 00 00 00 00 00 00 00 00 00 00 00 00 00 00 00 00 ................
00409300 00 00 00 00 00 00 00 00 00 00 00 00 00 00 00 00 ................
00409310 00 00 00 00 00 00 00 00 00 00 00 00 00 00 00 00 ................
00409320 00 00 00 00 00 00 00 00 00 00 00 00 00 00 00 00 ................
00409330 00 00 00 00 00 00 00 00 00 00 00 00 00 00 00 00 ................
00409340 00 00 00 00 00 00 00 00 00 00 00 00 00 00 00 00 ................
00409350 00 00 00 00 00 00 00 00 00 00 00 00 00 00 00 00 ................
00409360 00 00 00 00 00 00 00 00 00 00 00 00 00 00 00 00 ................
00409370 00 00 00 00 00 00 00 00 00 00 00 00 00 00 00 00 ................
00409380 00 00 00 00 00 00 00 00 00 00 00 00 00 00 00 00 ................
00409390 00 00 00 00 00 00 00 00 00 00 00 00 00 00 00 00 ................
004093A0 00 00 00 00 00 00 00 00 00 00 00 00 00 00 00 00 ................
004093B0 00 00 00 00 00 00 00 00 00 00 00 00 00 00 00 00 ................
004093C0 00 00 00 00 00 00 00 00 00 00 00 00 00 00 00 00 ................
004093D0 00 00 00 00 00 00 00 00 00 00 00 00 00 00 00 00 ................
004093E0 00 00 00 00 00 00 00 00 00 00 00 00 00 00 00 00 ................
004093F0 00 00 00 00 00 00 00 00 00 00 00 00 00 00 00 00 ................
00409400 00 00 00 00 00 00 00 00 00 00 00 00 00 00 00 00 ................
00409410 00 00 00 00 00 00 00 00 00 00 00 00 00 00 00 00 ................
00409420 00 00 00 00 00 00 00 00 00 00 00 00 00 00 00 00 ................
00409430 00 00 00 00 00 00 00 00 00 00 00 00 00 00 00 00 ................
00409440 00 00 00 00 00 00 00 00 00 00 00 00 00 00 00 00 ................
00409450 00 00 00 00 00 00 00 00 00 00 00 00 00 00 00 00 ................
00409460 00 00 00 00 00 00 00 00 00 00 00 00 00 00 00 00 ................
00409470 00 00 00 00 00 00 00 00 00 00 00 00 00 00 00 00 ................
00409480 00 00 00 00 00 00 00 00 00 00 00 00 00 00 00 00 ................
00409490 00 00 00 00 00 00 00 00 00 00 00 00 00 00 00 00 ................
004094A0 00 00 00 00 00 00 00 00 00 00 00 00 00 00 00 00 ................
004094B0 00 00 00 00 00 00 00 00 00 00 00 00 00 00 00 00 ................
004094C0 00 00 00 00 00 00 00 00 00 00 00 00 00 00 00 00 ................
004094D0 00 00 00 00 00 00 00 00 00 00 00 00 00 00 00 00 ................
004094E0 00 00 00 00 00 00 00 00 00 00 00 00 00 00 00 00 ................
004094F0 00 00 00 00 00 00 00 00 00 00 00 00 00 00 00 00 ................
00409500 00 00 00 00 00 00 00 00 00 00 00 00 00 00 00 00 ................
00409510 00 00 00 00 00 00 00 00 00 00 00 00 00 00 00 00 ................
00409520 00 00 00 00 00 00 00 00 00 00 00 00 00 00 00 00 ................
00409530 00 00 00 00 00 00 00 00 00 00 00 00 00 00 00 00 ................
00409540 00 00 00 00 00 00 00 00 00 00 00 00 00 00 00 00 ................
00409550 00 00 00 00 00 00 00 00 00 00 00 00 00 00 00 00 ................
00409560 00 00 00 00 00 00 00 00 00 00 00 00 00 00 00 00 ................
00409570 00 00 00 00 00 00 00 00 00 00 00 00 00 00 00 00 ................
00409580 00 00 00 00 00 00 00 00 00 00 00 00 00 00 00 00 ................
00409590 00 00 00 00 00 00 00 00 00 00 00 00 00 00 00 00 ................
004095A0 00 00 00 00 00 00 00 00 00 00 00 00 00 00 00 00 ................
004095B0 00 00 00 00 00 00 00 00 00 00 00 00 00 00 00 00 ................
004095C0 00 00 00 00 00 00 00 00 00 00 00 00 00 00 00 00 ................
004095D0 00 00 00 00 00 00 00 00 00 00 00 00 00 00 00 00 ................
004095E0 00 00 00 00 00 00 00 00 00 00 00 00 00 00 00 00 ................
004095F0 00 00 00 00 00 00 00 00 00 00 00 00 00 00 00 00 ................
00409600 00 00 00 00 00 00 00 00 00 00 00 00 00 00 00 00 ................
00409610 00 00 00 00 00 00 00 00 00 00 00 00 00 00 00 00 ................
00409620 00 00 00 00 00 00 00 00 00 00 00 00 00 00 00 00 ................
00409630 00 00 00 00 00 00 00 00 00 00 00 00 00 00 00 00 ................
00409640 00 00 00 00 00 00 00 00 00 00 00 00 00 00 00 00 ................
00409650 00 00 00 00 00 00 00 00 00 00 00 00 00 00 00 00 ................
00409660 00 00 00 00 00 00 00 00 00 00 00 00 00 00 00 00 ................
00409670 00 00 00 00 00 00 00 00 00 00 00 00 00 00 00 00 ................
00409680 00 00 00 00 00 00 00 00 00 00 00 00 00 00 00 00 ................
00409690 00 00 00 00 00 00 00 00 00 00 00 00 00 00 00 00 ................
004096A0 00 00 00 00 00 00 00 00 00 00 00 00 00 00 00 00 ................
004096B0 00 00 00 00 00 00 00 00 00 00 00 00 00 00 00 00 ................
004096C0 00 00 00 00 00 00 00 00 00 00 00 00 00 00 00 00 ................
004096D0 00 00 00 00 00 00 00 00 00 00 00 00 00 00 00 00 ................
004096E0 00 00 00 00 00 00 00 00 00 00 00 00 00 00 00 00 ................
004096F0 00 00 00 00 00 00 00 00 00 00 00 00 00 00 00 00 ................
00409700 00 00 00 00 00 00 00 00 00 00 00 00 00 00 00 00 ................
00409710 00 00 00 00 00 00 00 00 00 00 00 00 00 00 00 00 ................
00409720 00 00 00 00 00 00 00 00 00 00 00 00 00 00 00 00 ................
00409730 00 00 00 00 00 00 00 00 00 00 00 00 00 00 00 00 ................
00409740 00 00 00 00 00 00 00 00 00 00 00 00 00 00 00 00 ................
00409750 00 00 00 00 00 00 00 00 00 00 00 00 00 00 00 00 ................
00409760 00 00 00 00 00 00 00 00 00 00 00 00 00 00 00 00 ................
00409770 00 00 00 00 00 00 00 00 00 00 00 00 00 00 00 00 ................
00409780 00 00 00 00 00 00 00 00 00 00 00 00 00 00 00 00 ................
00409790 00 00 00 00 00 00 00 00 00 00 00 00 00 00 00 00 ................
004097A0 00 00 00 00 00 00 00 00 00 00 00 00 00 00 00 00 ................
004097B0 00 00 00 00 00 00 00 00 00 00 00 00 00 00 00 00 ................
004097C0 00 00 00 00 00 00 00 00 00 00 00 00 00 00 00 00 ................
004097D0 00 00 00 00 00 00 00 00 00 00 00 00 00 00 00 00 ................
004097E0 00 00 00 00 00 00 00 00 00 00 00 00 00 00 00 00 ................
004097F0 00 00 00 00 00 00 00 00 00 00 00 00 00 00 00 00 ................
00409800 00 00 00 00 00 00 00 00 00 00 00 00 00 00 00 00 ................
00409810 00 00 00 00 00 00 00 00 00 00 00 00 00 00 00 00 ................
00409820 00 00 00 00 00 00 00 00 00 00 00 00 00 00 00 00 ................
00409830 00 00 00 00 00 00 00 00 00 00 00 00 00 00 00 00 ................
00409840 00 00 00 00 00 00 00 00 00 00 00 00 00 00 00 00 ................
00409850 00 00 00 00 00 00 00 00 00 00 00 00 00 00 00 00 ................
00409860 00 00 00 00 00 00 00 00 00 00 00 00 00 00 00 00 ................
00409870 00 00 00 00 00 00 00 00 00 00 00 00 00 00 00 00 ................
00409880 00 00 00 00 00 00 00 00 00 00 00 00 00 00 00 00 ................
00409890 00 00 00 00 00 00 00 00 00 00 00 00 00 00 00 00 ................
004098A0 00 00 00 00 00 00 00 00 00 00 00 00 00 00 00 00 ................
004098B0 00 00 00 00 00 00 00 00 00 00 00 00 00 00 00 00 ................
004098C0 00 00 00 00 00 00 00 00 00 00 00 00 00 00 00 00 ................
004098D0 00 00 00 00 00 00 00 00 00 00 00 00 00 00 00 00 ................
004098E0 00 00 00 00 00 00 00 00 00 00 00 00 00 00 00 00 ................
004098F0 00 00 00 00 00 00 00 00 00 00 00 00 00 00 00 00 ................
00409900 00 00 00 00 00 00 00 00 00 00 00 00 00 00 00 00 ................
00409910 00 00 00 00 00 00 00 00 00 00 00 00 00 00 00 00 ................
00409920 00 00 00 00 00 00 00 00 00 00 00 00 00 00 00 00 ................
00409930 00 00 00 00 00 00 00 00 00 00 00 00 00 00 00 00 ................
00409940 00 00 00 00 00 00 00 00 00 00 00 00 00 00 00 00 ................
00409950 00 00 00 00 00 00 00 00 00 00 00 00 00 00 00 00 ................
00409960 00 00 00 00 00 00 00 00 00 00 00 00 00 00 00 00 ................
00409970 00 00 00 00 00 00 00 00 00 00 00 00 00 00 00 00 ................
00409980 00 00 00 00 00 00 00 00 00 00 00 00 00 00 00 00 ................
00409990 00 00 00 00 00 00 00 00 00 00 00 00 00 00 00 00 ................
004099A0 00 00 00 00 00 00 00 00 00 00 00 00 00 00 00 00 ................
004099B0 00 00 00 00 00 00 00 00 00 00 00 00 00 00 00 00 ................
004099C0 00 00 00 00 00 00 00 00 00 00 00 00 00 00 00 00 ................
004099D0 00 00 00 00 00 00 00 00 00 00 00 00 00 00 00 00 ................
004099E0 00 00 00 00 00 00 00 00 00 00 00 00 00 00 00 00 ................
004099F0 00 00 00 00 00 00 00 00 00 00 00 00 00 00 00 00 ................
00409A00 00 00 00 00 00 00 00 00 00 00 00 00 00 00 00 00 ................
00409A10 00 00 00 00 00 00 00 00 00 00 00 00 00 00 00 00 ................
00409A20 00 00 00 00 00 00 00 00 00 00 00 00 00 00 00 00 ................
00409A30 00 00 00 00 00 00 00 00 00 00 00 00 00 00 00 00 ................
00409A40 00 00 00 00 00 00 00 00 00 00 00 00 00 00 00 00 ................
00409A50 00 00 00 00 00 00 00 00 00 00 00 00 00 00 00 00 ................
00409A60 00 00 00 00 00 00 00 00 00 00 00 00 00 00 00 00 ................
00409A70 00 00 00 00 00 00 00 00 00 00 00 00 00 00 00 00 ................
00409A80 00 00 00 00 00 00 00 00 00 00 00 00 00 00 00 00 ................
00409A90 00 00 00 00 00 00 00 00 00 00 00 00 00 00 00 00 ................
00409AA0 00 00 00 00 00 00 00 00 00 00 00 00 00 00 00 00 ................
00409AB0 00 00 00 00 00 00 00 00 00 00 00 00 00 00 00 00 ................
00409AC0 00 00 00 00 00 00 00 00 00 00 00 00 00 00 00 00 ................
00409AD0 00 00 00 00 00 00 00 00 00 00 00 00 00 00 00 00 ................
00409AE0 00 00 00 00 00 00 00 00 00 00 00 00 00 00 00 00 ................
00409AF0 00 00 00 00 00 00 00 00 00 00 00 00 00 00 00 00 ................
00409B00 00 00 00 00 00 00 00 00 00 00 00 00 00 00 00 00 ................
00409B10 00 00 00 00 00 00 00 00 00 00 00 00 00 00 00 00 ................
00409B20 00 00 00 00 00 00 00 00 00 00 00 00 00 00 00 00 ................
00409B30 00 00 00 00 00 00 00 00 00 00 00 00 00 00 00 00 ................
00409B40 00 00 00 00 00 00 00 00 00 00 00 00 00 00 00 00 ................
00409B50 00 00 00 00 00 00 00 00 00 00 00 00 00 00 00 00 ................
00409B60 00 00 00 00 00 00 00 00 00 00 00 00 00 00 00 00 ................
00409B70 00 00 00 00 00 00 00 00 00 00 00 00 00 00 00 00 ................
00409B80 00 00 00 00 00 00 00 00 00 00 00 00 00 00 00 00 ................
00409B90 00 00 00 00 00 00 00 00 00 00 00 00 00 00 00 00 ................
00409BA0 00 00 00 00 00 00 00 00 00 00 00 00 00 00 00 00 ................
00409BB0 00 00 00 00 00 00 00 00 00 00 00 00 00 00 00 00 ................
00409BC0 00 00 00 00 00 00 00 00 00 00 00 00 00 00 00 00 ................
00409BD0 00 00 00 00 00 00 00 00 00 00 00 00 00 00 00 00 ................
00409BE0 00 00 00 00 00 00 00 00 00 00 00 00 00 00 00 00 ................
00409BF0 00 00 00 00 00 00 00 00 00 00 00 00 00 00 00 00 ................
00409C00 00 00 00 00 00 00 00 00 00 00 00 00 00 00 00 00 ................
00409C10 00 00 00 00 00 00 00 00 00 00 00 00 00 00 00 00 ................
00409C20 00 00 00 00 00 00 00 00 00 00 00 00 00 00 00 00 ................
00409C30 00 00 00 00 00 00 00 00 00 00 00 00 00 00 00 00 ................
00409C40 00 00 00 00 00 00 00 00 00 00 00 00 00 00 00 00 ................
00409C50 00 00 00 00 00 00 00 00 00 00 00 00 00 00 00 00 ................
00409C60 00 00 00 00 00 00 00 00 00 00 00 00 00 00 00 00 ................
00409C70 00 00 00 00 00 00 00 00 00 00 00 00 00 00 00 00 ................
00409C80 00 00 00 00 00 00 00 00 00 00 00 00 00 00 00 00 ................
00409C90 00 00 00 00 00 00 00 00 00 00 00 00 00 00 00 00 ................
00409CA0 00 00 00 00 00 00 00 00 00 00 00 00 00 00 00 00 ................
00409CB0 00 00 00 00 00 00 00 00 00 00 00 00 00 00 00 00 ................
00409CC0 00 00 00 00 00 00 00 00 00 00 00 00 00 00 00 00 ................
00409CD0 00 00 00 00 00 00 00 00 00 00 00 00 00 00 00 00 ................
00409CE0 00 00 00 00 00 00 00 00 00 00 00 00 00 00 00 00 ................
00409CF0 00 00 00 00 00 00 00 00 00 00 00 00 00 00 00 00 ................
00409D00 00 00 00 00 00 00 00 00 00 00 00 00 00 00 00 00 ................
00409D10 00 00 00 00 00 00 00 00 00 00 00 00 00 00 00 00 ................
00409D20 00 00 00 00 00 00 00 00 00 00 00 00 00 00 00 00 ................
00409D30 00 00 00 00 00 00 00 00 00 00 00 00 00 00 00 00 ................
00409D40 00 00 00 00 00 00 00 00 00 00 00 00 00 00 00 00 ................
00409D50 00 00 00 00 00 00 00 00 00 00 00 00 00 00 00 00 ................
00409D60 00 00 00 00 00 00 00 00 00 00 00 00 00 00 00 00 ................
00409D70 00 00 00 00 00 00 00 00 00 00 00 00 00 00 00 00 ................
00409D80 00 00 00 00 00 00 00 00 00 00 00 00 00 00 00 00 ................
00409D90 00 00 00 00 00 00 00 00 00 00 00 00 00 00 00 00 ................
00409DA0 00 00 00 00 00 00 00 00 00 00 00 00 00 00 00 00 ................
00409DB0 00 00 00 00 00 00 00 00 00 00 00 00 00 00 00 00 ................
00409DC0 00 00 00 00 00 00 00 00 00 00 00 00 00 00 00 00 ................
00409DD0 00 00 00 00 00 00 00 00 00 00 00 00 00 00 00 00 ................
00409DE0 00 00 00 00 00 00 00 00 00 00 00 00 00 00 00 00 ................
00409DF0 00 00 00 00 00 00 00 00 00 00 00 00 00 00 00 00 ................
00409E00 00 00 00 00 00 00 00 00 00 00 00 00 00 00 00 00 ................
00409E10 00 00 00 00 00 00 00 00 00 00 00 00 00 00 00 00 ................
00409E20 00 00 00 00 00 00 00 00 00 00 00 00 00 00 00 00 ................
00409E30 00 00 00 00 00 00 00 00 00 00 00 00 00 00 00 00 ................
00409E40 00 00 00 00 00 00 00 00 00 00 00 00 00 00 00 00 ................
00409E50 00 00 00 00 00 00 00 00 00 00 00 00 00 00 00 00 ................
00409E60 00 00 00 00 00 00 00 00 00 00 00 00 00 00 00 00 ................
00409E70 00 00 00 00 00 00 00 00 00 00 00 00 00 00 00 00 ................
00409E80 00 00 00 00 00 00 00 00 00 00 00 00 00 00 00 00 ................
00409E90 00 00 00 00 00 00 00 00 00 00 00 00 00 00 00 00 ................
00409EA0 00 00 00 00 00 00 00 00 00 00 00 00 00 00 00 00 ................
00409EB0 00 00 00 00 00 00 00 00 00 00 00 00 00 00 00 00 ................
00409EC0 00 00 00 00 00 00 00 00 00 00 00 00 00 00 00 00 ................
00409ED0 00 00 00 00 00 00 00 00 00 00 00 00 00 00 00 00 ................
00409EE0 00 00 00 00 00 00 00 00 00 00 00 00 00 00 00 00 ................
00409EF0 00 00 00 00 00 00 00 00 00 00 00 00 00 00 00 00 ................
00409F00 00 00 00 00 00 00 00 00 00 00 00 00 00 00 00 00 ................
00409F10 00 00 00 00 00 00 00 00 00 00 00 00 00 00 00 00 ................
00409F20 00 00 00 00 00 00 00 00 00 00 00 00 00 00 00 00 ................
00409F30 00 00 00 00 00 00 00 00 00 00 00 00 00 00 00 00 ................
00409F40 00 00 00 00 00 00 00 00 00 00 00 00 00 00 00 00 ................
00409F50 00 00 00 00 00 00 00 00 00 00 00 00 00 00 00 00 ................
00409F60 00 00 00 00 00 00 00 00 00 00 00 00 00 00 00 00 ................
00409F70 00 00 00 00 00 00 00 00 00 00 00 00 00 00 00 00 ................
00409F80 00 00 00 00 00 00 00 00 00 00 00 00 00 00 00 00 ................
00409F90 00 00 00 00 00 00 00 00 00 00 00 00 00 00 00 00 ................
00409FA0 00 00 00 00 00 00 00 00 00 00 00 00 00 00 00 00 ................
00409FB0 00 00 00 00 00 00 00 00 00 00 00 00 00 00 00 00 ................
00409FC0 00 00 00 00 00 00 00 00 00 00 00 00 00 00 00 00 ................
00409FD0 00 00 00 00 00 00 00 00 00 00 00 00 00 00 00 00 ................
00409FE0 00 00 00 00 00 00 00 00 00 00 00 00 00 00 00 00 ................
00409FF0 00 00 00 00 00 00 00 00 00 00 00 00 00 00 00 00 ................
0040A000 00 00 00 00 00 00 00 00 00 00 00 00 00 00 00 00 ................
0040A010 00 00 00 00 00 00 00 00 00 00 00 00 00 00 00 00 ................
0040A020 00 00 00 00 00 00 00 00 00 00 00 00 00 00 00 00 ................
0040A030 00 00 00 00 00 00 00 00 00 00 00 00 00 00 00 00 ................
0040A040 00 00 00 00 00 00 00 00 00 00 00 00 00 00 00 00 ................
0040A050 00 00 00 00 00 00 00 00 00 00 00 00 00 00 00 00 ................
0040A060 00 00 00 00 00 00 00 00 00 00 00 00 00 00 00 00 ................
0040A070 00 00 00 00 00 00 00 00 00 00 00 00 00 00 00 00 ................
0040A080 00 00 00 00 00 00 00 00 00 00 00 00 00 00 00 00 ................
0040A090 00 00 00 00 00 00 00 00 00 00 00 00 00 00 00 00 ................
0040A0A0 00 00 00 00 00 00 00 00 00 00 00 00 00 00 00 00 ................
0040A0B0 00 00 00 00 00 00 00 00 00 00 00 00 00 00 00 00 ................
0040A0C0 00 00 00 00 00 00 00 00 00 00 00 00 00 00 00 00 ................
0040A0D0 00 00 00 00 00 00 00 00 00 00 00 00 00 00 00 00 ................
0040A0E0 00 00 00 00 00 00 00 00 00 00 00 00 00 00 00 00 ................
0040A0F0 00 00 00 00 00 00 00 00 00 00 00 00 00 00 00 00 ................
0040A100 00 00 00 00 00 00 00 00 00 00 00 00 00 00 00 00 ................
0040A110 00 00 00 00 00 00 00 00 00 00 00 00 00 00 00 00 ................
0040A120 00 00 00 00 00 00 00 00 00 00 00 00 00 00 00 00 ................
0040A130 00 00 00 00 00 00 00 00 00 00 00 00 00 00 00 00 ................
0040A140 00 00 00 00 00 00 00 00 00 00 00 00 00 00 00 00 ................
0040A150 00 00 00 00 00 00 00 00 00 00 00 00 00 00 00 00 ................
0040A160 00 00 00 00 00 00 00 00 00 00 00 00 00 00 00 00 ................
0040A170 00 00 00 00 00 00 00 00 00 00 00 00 00 00 00 00 ................
0040A180 00 00 00 00 00 00 00 00 00 00 00 00 00 00 00 00 ................
0040A190 00 00 00 00 00 00 00 00 00 00 00 00 00 00 00 00 ................
0040A1A0 00 00 00 00 00 00 00 00 00 00 00 00 00 00 00 00 ................
0040A1B0 00 00 00 00 00 00 00 00 00 00 00 00 00 00 00 00 ................
0040A1C0 00 00 00 00 00 00 00 00 00 00 00 00 00 00 00 00 ................
0040A1D0 00 00 00 00 00 00 00 00 00 00 00 00 00 00 00 00 ................
0040A1E0 00 00 00 00 00 00 00 00 00 00 00 00 00 00 00 00 ................
0040A1F0 00 00 00 00 00 00 00 00 00 00 00 00 00 00 00 00 ................
0040A200 00 00 00 00 00 00 00 00 00 00 00 00 00 00 00 00 ................
0040A210 00 00 00 00 00 00 00 00 00 00 00 00 00 00 00 00 ................
0040A220 00 00 00 00 00 00 00 00 00 00 00 00 00 00 00 00 ................
0040A230 00 00 00 00 00 00 00 00 00 00 00 00 00 00 00 00 ................
0040A240 00 00 00 00 00 00 00 00 00 00 00 00 00 00 00 00 ................
0040A250 00 00 00 00 00 00 00 00 00 00 00 00 00 00 00 00 ................
0040A260 00 00 00 00 00 00 00 00 00 00 00 00 00 00 00 00 ................
0040A270 00 00 00 00 00 00 00 00 00 00 00 00 00 00 00 00 ................
0040A280 00 00 00 00 00 00 00 00 00 00 00 00 00 00 00 00 ................
0040A290 00 00 00 00 00 00 00 00 00 00 00 00 00 00 00 00 ................
0040A2A0 00 00 00 00 00 00 00 00 00 00 00 00 00 00 00 00 ................
0040A2B0 00 00 00 00 00 00 00 00 00 00 00 00 00 00 00 00 ................
0040A2C0 00 00 00 00 00 00 00 00 00 00 00 00 00 00 00 00 ................
0040A2D0 00 00 00 00 00 00 00 00 00 00 00 00 00 00 00 00 ................
0040A2E0 00 00 00 00 00 00 00 00 00 00 00 00 00 00 00 00 ................
0040A2F0 00 00 00 00 00 00 00 00 00 00 00 00 00 00 00 00 ................
0040A300 00 00 00 00 00 00 00 00 00 00 00 00 00 00 00 00 ................
0040A310 00 00 00 00 00 00 00 00 00 00 00 00 00 00 00 00 ................
0040A320 00 00 00 00 00 00 00 00 00 00 00 00 00 00 00 00 ................
0040A330 00 00 00 00 00 00 00 00 00 00 00 00 00 00 00 00 ................
0040A340 00 00 00 00 00 00 00 00 00 00 00 00 00 00 00 00 ................
0040A350 00 00 00 00 00 00 00 00 00 00 00 00 00 00 00 00 ................
0040A360 00 00 00 00 00 00 00 00 00 00 00 00 00 00 00 00 ................
0040A370 00 00 00 00 00 00 00 00 00 00 00 00 00 00 00 00 ................
0040A380 00 00 00 00 00 00 00 00 00 00 00 00 00 00 00 00 ................
0040A390 00 00 00 00 00 00 00 00 00 00 00 00 00 00 00 00 ................
0040A3A0 00 00 00 00 00 00 00 00 00 00 00 00 00 00 00 00 ................
0040A3B0 00 00 00 00 00 00 00 00 00 00 00 00 00 00 00 00 ................
0040A3C0 00 00 00 00 00 00 00 00 00 00 00 00 00 00 00 00 ................
0040A3D0 00 00 00 00 00 00 00 00 00 00 00 00 00 00 00 00 ................
0040A3E0 00 00 00 00 00 00 00 00 00 00 00 00 00 00 00 00 ................
0040A3F0 00 00 00 00 00 00 00 00 00 00 00 00 00 00 00 00 ................
0040A400 00 00 00 00 00 00 00 00 00 00 00 00 00 00 00 00 ................
0040A410 00 00 00 00 00 00 00 00 00 00 00 00 00 00 00 00 ................
0040A420 00 00 00 00 00 00 00 00 00 00 00 00 00 00 00 00 ................
0040A430 00 00 00 00 00 00 00 00 00 00 00 00 00 00 00 00 ................
0040A440 00 00 00 00 00 00 00 00 00 00 00 00 00 00 00 00 ................
0040A450 00 00 00 00 00 00 00 00 00 00 00 00 00 00 00 00 ................
0040A460 00 00 00 00 00 00 00 00 00 00 00 00 00 00 00 00 ................
0040A470 00 00 00 00 00 00 00 00 00 00 00 00 00 00 00 00 ................
0040A480 00 00 00 00 00 00 00 00 00 00 00 00 00 00 00 00 ................
0040A490 00 00 00 00 00 00 00 00 00 00 00 00 00 00 00 00 ................
0040A4A0 00 00 00 00 00 00 00 00 00 00 00 00 00 00 00 00 ................
0040A4B0 00 00 00 00 00 00 00 00 00 00 00 00 00 00 00 00 ................
0040A4C0 00 00 00 00 00 00 00 00 00 00 00 00 00 00 00 00 ................
0040A4D0 00 00 00 00 00 00 00 00 00 00 00 00 00 00 00 00 ................
0040A4E0 00 00 00 00 00 00 00 00 00 00 00 00 00 00 00 00 ................
0040A4F0 00 00 00 00 00 00 00 00 00 00 00 00 00 00 00 00 ................
0040A500 00 00 00 00 00 00 00 00 00 00 00 00 00 00 00 00 ................
0040A510 00 00 00 00 00 00 00 00 00 00 00 00 00 00 00 00 ................
0040A520 00 00 00 00 00 00 00 00 00 00 00 00 00 00 00 00 ................
0040A530 00 00 00 00 00 00 00 00 00 00 00 00 00 00 00 00 ................
0040A540 00 00 00 00 00 00 00 00 00 00 00 00 00 00 00 00 ................
0040A550 00 00 00 00 00 00 00 00 00 00 00 00 00 00 00 00 ................
0040A560 00 00 00 00 00 00 00 00 00 00 00 00 00 00 00 00 ................
0040A570 00 00 00 00 00 00 00 00 00 00 00 00 00 00 00 00 ................
0040A580 00 00 00 00 00 00 00 00 00 00 00 00 00 00 00 00 ................
0040A590 00 00 00 00 00 00 00 00 00 00 00 00 00 00 00 00 ................
0040A5A0 00 00 00 00 00 00 00 00 00 00 00 00 00 00 00 00 ................
0040A5B0 00 00 00 00 00 00 00 00 00 00 00 00 00 00 00 00 ................
0040A5C0 00 00 00 00 00 00 00 00 00 00 00 00 00 00 00 00 ................
0040A5D0 00 00 00 00 00 00 00 00 00 00 00 00 00 00 00 00 ................
0040A5E0 00 00 00 00 00 00 00 00 00 00 00 00 00 00 00 00 ................
0040A5F0 00 00 00 00 00 00 00 00 00 00 00 00 00 00 00 00 ................
0040A600 00 00 00 00 00 00 00 00 00 00 00 00 00 00 00 00 ................
0040A610 00 00 00 00 00 00 00 00 00 00 00 00 00 00 00 00 ................
0040A620 00 00 00 00 00 00 00 00 00 00 00 00 00 00 00 00 ................
0040A630 00 00 00 00 00 00 00 00 00 00 00 00 00 00 00 00 ................
0040A640 00 00 00 00 00 00 00 00 00 00 00 00 00 00 00 00 ................
0040A650 00 00 00 00 00 00 00 00 00 00 00 00 00 00 00 00 ................
0040A660 00 00 00 00 00 00 00 00 00 00 00 00 00 00 00 00 ................
0040A670 00 00 00 00 00 00 00 00 00 00 00 00 00 00 00 00 ................
0040A680 00 00 00 00 00 00 00 00 00 00 00 00 00 00 00 00 ................
0040A690 00 00 00 00 00 00 00 00 00 00 00 00 00 00 00 00 ................
0040A6A0 00 00 00 00 00 00 00 00 00 00 00 00 00 00 00 00 ................
0040A6B0 00 00 00 00 00 00 00 00 00 00 00 00 00 00 00 00 ................
0040A6C0 00 00 00 00 00 00 00 00 00 00 00 00 00 00 00 00 ................
0040A6D0 00 00 00 00 00 00 00 00 00 00 00 00 00 00 00 00 ................
0040A6E0 00 00 00 00 00 00 00 00 00 00 00 00 00 00 00 00 ................
0040A6F0 00 00 00 00 00 00 00 00 00 00 00 00 00 00 00 00 ................
0040A700 00 00 00 00 00 00 00 00 00 00 00 00 00 00 00 00 ................
0040A710 00 00 00 00 00 00 00 00 00 00 00 00 00 00 00 00 ................
0040A720 00 00 00 00 00 00 00 00 00 00 00 00 00 00 00 00 ................
0040A730 00 00 00 00 00 00 00 00 00 00 00 00 00 00 00 00 ................
0040A740 00 00 00 00 00 00 00 00 00 00 00 00 00 00 00 00 ................
0040A750 00 00 00 00 00 00 00 00 00 00 00 00 00 00 00 00 ................
0040A760 00 00 00 00 00 00 00 00 00 00 00 00 00 00 00 00 ................
0040A770 00 00 00 00 00 00 00 00 00 00 00 00 00 00 00 00 ................
0040A780 00 00 00 00 00 00 00 00 00 00 00 00 00 00 00 00 ................
0040A790 00 00 00 00 00 00 00 00 00 00 00 00 00 00 00 00 ................
0040A7A0 00 00 00 00 00 00 00 00 00 00 00 00 00 00 00 00 ................
0040A7B0 00 00 00 00 00 00 00 00 00 00 00 00 00 00 00 00 ................
0040A7C0 00 00 00 00 00 00 00 00 00 00 00 00 00 00 00 00 ................
0040A7D0 00 00 00 00 00 00 00 00 00 00 00 00 00 00 00 00 ................
0040A7E0 00 00 00 00 00 00 00 00 00 00 00 00 00 00 00 00 ................
0040A7F0 00 00 00 00 00 00 00 00 00 00 00 00 00 00 00 00 ................
0040A800 00 00 00 00 00 00 00 00 00 00 00 00 00 00 00 00 ................
0040A810 00 00 00 00 00 00 00 00 00 00 00 00 00 00 00 00 ................
0040A820 00 00 00 00 00 00 00 00 00 00 00 00 00 00 00 00 ................
0040A830 00 00 00 00 00 00 00 00 00 00 00 00 00 00 00 00 ................
0040A840 00 00 00 00 00 00 00 00 00 00 00 00 00 00 00 00 ................
0040A850 00 00 00 00 00 00 00 00 00 00 00 00 00 00 00 00 ................
0040A860 00 00 00 00 00 00 00 00 00 00 00 00 00 00 00 00 ................
0040A870 00 00 00 00 00 00 00 00 00 00 00 00 00 00 00 00 ................
0040A880 00 00 00 00 00 00 00 00 00 00 00 00 00 00 00 00 ................
0040A890 00 00 00 00 00 00 00 00 00 00 00 00 00 00 00 00 ................
0040A8A0 00 00 00 00 00 00 00 00 00 00 00 00 00 00 00 00 ................
0040A8B0 00 00 00 00 00 00 00 00 00 00 00 00 00 00 00 00 ................
0040A8C0 00 00 00 00 00 00 00 00 00 00 00 00 00 00 00 00 ................
0040A8D0 00 00 00 00 00 00 00 00 00 00 00 00 00 00 00 00 ................
0040A8E0 00 00 00 00 00 00 00 00 00 00 00 00 00 00 00 00 ................
0040A8F0 00 00 00 00 00 00 00 00 00 00 00 00 00 00 00 00 ................
0040A900 00 00 00 00 00 00 00 00 00 00 00 00 00 00 00 00 ................
0040A910 00 00 00 00 00 00 00 00 00 00 00 00 00 00 00 00 ................
0040A920 00 00 00 00 00 00 00 00 00 00 00 00 00 00 00 00 ................
0040A930 00 00 00 00 00 00 00 00 00 00 00 00 00 00 00 00 ................
0040A940 00 00 00 00 00 00 00 00 00 00 00 00 00 00 00 00 ................
0040A950 00 00 00 00 00 00 00 00 00 00 00 00 00 00 00 00 ................
0040A960 00 00 00 00 00 00 00 00 00 00 00 00 00 00 00 00 ................
0040A970 00 00 00 00 00 00 00 00 00 00 00 00 00 00 00 00 ................
0040A980 00 00 00 00 00 00 00 00 00 00 00 00 00 00 00 00 ................
0040A990 00 00 00 00 00 00 00 00 00 00 00 00 00 00 00 00 ................
0040A9A0 00 00 00 00 00 00 00 00 00 00 00 00 00 00 00 00 ................
0040A9B0 00 00 00 00 00 00 00 00 00 00 00 00 00 00 00 00 ................
0040A9C0 00 00 00 00 00 00 00 00 00 00 00 00 00 00 00 00 ................
0040A9D0 00 00 00 00 00 00 00 00 00 00 00 00 00 00 00 00 ................
0040A9E0 00 00 00 00 00 00 00 00 00 00 00 00 00 00 00 00 ................
0040A9F0 00 00 00 00 00 00 00 00 00 00 00 00 00 00 00 00 ................
0040AA00 00 00 00 00 00 00 00 00 00 00 00 00 00 00 00 00 ................
0040AA10 00 00 00 00 00 00 00 00 00 00 00 00 00 00 00 00 ................
0040AA20 00 00 00 00 00 00 00 00 00 00 00 00 00 00 00 00 ................
0040AA30 00 00 00 00 00 00 00 00 00 00 00 00 00 00 00 00 ................
0040AA40 00 00 00 00 00 00 00 00 00 00 00 00 00 00 00 00 ................
0040AA50 00 00 00 00 00 00 00 00 00 00 00 00 00 00 00 00 ................
0040AA60 00 00 00 00 00 00 00 00 00 00 00 00 00 00 00 00 ................
0040AA70 00 00 00 00 00 00 00 00 00 00 00 00 00 00 00 00 ................
0040AA80 00 00 00 00 00 00 00 00 00 00 00 00 00 00 00 00 ................
0040AA90 00 00 00 00 00 00 00 00 00 00 00 00 00 00 00 00 ................
0040AAA0 00 00 00 00 00 00 00 00 00 00 00 00 00 00 00 00 ................
0040AAB0 00 00 00 00 00 00 00 00 00 00 00 00 00 00 00 00 ................
0040AAC0 00 00 00 00 00 00 00 00 00 00 00 00 00 00 00 00 ................
0040AAD0 00 00 00 00 00 00 00 00 00 00 00 00 00 00 00 00 ................
0040AAE0 00 00 00 00 00 00 00 00 00 00 00 00 00 00 00 00 ................
0040AAF0 00 00 00 00 00 00 00 00 00 00 00 00 00 00 00 00 ................
0040AB00 00 00 00 00 00 00 00 00 00 00 00 00 00 00 00 00 ................
0040AB10 00 00 00 00 00 00 00 00 00 00 00 00 00 00 00 00 ................
0040AB20 00 00 00 00 00 00 00 00 00 00 00 00 00 00 00 00 ................
0040AB30 00 00 00 00 00 00 00 00 00 00 00 00 00 00 00 00 ................
0040AB40 00 00 00 00 00 00 00 00 00 00 00 00 00 00 00 00 ................
0040AB50 00 00 00 00 00 00 00 00 00 00 00 00 00 00 00 00 ................
0040AB60 00 00 00 00 00 00 00 00 00 00 00 00 00 00 00 00 ................
0040AB70 00 00 00 00 00 00 00 00 00 00 00 00 00 00 00 00 ................
0040AB80 00 00 00 00 00 00 00 00 00 00 00 00 00 00 00 00 ................
0040AB90 00 00 00 00 00 00 00 00 00 00 00 00 00 00 00 00 ................
0040ABA0 00 00 00 00 00 00 00 00 00 00 00 00 00 00 00 00 ................
0040ABB0 00 00 00 00 00 00 00 00 00 00 00 00 00 00 00 00 ................
0040ABC0 00 00 00 00 00 00 00 00 00 00 00 00 00 00 00 00 ................
0040ABD0 00 00 00 00 00 00 00 00 00 00 00 00 00 00 00 00 ................
0040ABE0 00 00 00 00 00 00 00 00 00 00 00 00 00 00 00 00 ................
0040ABF0 00 00 00 00 00 00 00 00 00 00 00 00 00 00 00 00 ................
0040AC00 00 00 00 00 00 00 00 00 00 00 00 00 00 00 00 00 ................
0040AC10 00 00 00 00 00 00 00 00 00 00 00 00 00 00 00 00 ................
0040AC20 00 00 00 00 00 00 00 00 00 00 00 00 00 00 00 00 ................
0040AC30 00 00 00 00 00 00 00 00 00 00 00 00 00 00 00 00 ................
0040AC40 00 00 00 00 00 00 00 00 00 00 00 00 00 00 00 00 ................
0040AC50 00 00 00 00 00 00 00 00 00 00 00 00 00 00 00 00 ................
0040AC60 00 00 00 00 00 00 00 00 00 00 00 00 00 00 00 00 ................
0040AC70 00 00 00 00 00 00 00 00 00 00 00 00 00 00 00 00 ................
0040AC80 00 00 00 00 00 00 00 00 00 00 00 00 00 00 00 00 ................
0040AC90 00 00 00 00 00 00 00 00 00 00 00 00 00 00 00 00 ................
0040ACA0 00 00 00 00 00 00 00 00 00 00 00 00 00 00 00 00 ................
0040ACB0 00 00 00 00 00 00 00 00 00 00 00 00 00 00 00 00 ................
0040ACC0 00 00 00 00 00 00 00 00 00 00 00 00 00 00 00 00 ................
0040ACD0 00 00 00 00 00 00 00 00 00 00 00 00 00 00 00 00 ................
0040ACE0 00 00 00 00 00 00 00 00 00 00 00 00 00 00 00 00 ................
0040ACF0 00 00 00 00 00 00 00 00 00 00 00 00 00 00 00 00 ................
0040AD00 00 00 00 00 00 00 00 00 00 00 00 00 00 00 00 00 ................
0040AD10 00 00 00 00 00 00 00 00 00 00 00 00 00 00 00 00 ................
0040AD20 00 00 00 00 00 00 00 00 00 00 00 00 00 00 00 00 ................
0040AD30 00 00 00 00 00 00 00 00 00 00 00 00 00 00 00 00 ................
0040AD40 00 00 00 00 00 00 00 00 00 00 00 00 00 00 00 00 ................
0040AD50 00 00 00 00 00 00 00 00 00 00 00 00 00 00 00 00 ................
0040AD60 00 00 00 00 00 00 00 00 00 00 00 00 00 00 00 00 ................
0040AD70 00 00 00 00 00 00 00 00 00 00 00 00 00 00 00 00 ................
0040AD80 00 00 00 00 00 00 00 00 00 00 00 00 00 00 00 00 ................
0040AD90 00 00 00 00 00 00 00 00 00 00 00 00 00 00 00 00 ................
0040ADA0 00 00 00 00 00 00 00 00 00 00 00 00 00 00 00 00 ................
0040ADB0 00 00 00 00 00 00 00 00 00 00 00 00 00 00 00 00 ................
0040ADC0 00 00 00 00 00 00 00 00 00 00 00 00 00 00 00 00 ................
0040ADD0 00 00 00 00 00 00 00 00 00 00 00 00 00 00 00 00 ................
0040ADE0 00 00 00 00 00 00 00 00 00 00 00 00 00 00 00 00 ................
0040ADF0 00 00 00 00 00 00 00 00 00 00 00 00 00 00 00 00 ................
0040AE00 00 00 00 00 00 00 00 00 00 00 00 00 00 00 00 00 ................
0040AE10 00 00 00 00 00 00 00 00 00 00 00 00 00 00 00 00 ................
0040AE20 00 00 00 00 00 00 00 00 00 00 00 00 00 00 00 00 ................
0040AE30 00 00 00 00 00 00 00 00 00 00 00 00 00 00 00 00 ................
0040AE40 00 00 00 00 00 00 00 00 00 00 00 00 00 00 00 00 ................
0040AE50 00 00 00 00 00 00 00 00 00 00 00 00 00 00 00 00 ................
0040AE60 00 00 00 00 00 00 00 00 00 00 00 00 00 00 00 00 ................
0040AE70 00 00 00 00 00 00 00 00 00 00 00 00 00 00 00 00 ................
0040AE80 00 00 00 00 00 00 00 00 00 00 00 00 00 00 00 00 ................
0040AE90 00 00 00 00 00 00 00 00 00 00 00 00 00 00 00 00 ................
0040AEA0 00 00 00 00 00 00 00 00 00 00 00 00 00 00 00 00 ................
0040AEB0 00 00 00 00 00 00 00 00 00 00 00 00 00 00 00 00 ................
0040AEC0 00 00 00 00 00 00 00 00 00 00 00 00 00 00 00 00 ................
0040AED0 00 00 00 00 00 00 00 00 00 00 00 00 00 00 00 00 ................
0040AEE0 00 00 00 00 00 00 00 00 00 00 00 00 00 00 00 00 ................
0040AEF0 00 00 00 00 00 00 00 00 00 00 00 00 00 00 00 00 ................
0040AF00 00 00 00 00 00 00 00 00 00 00 00 00 00 00 00 00 ................
0040AF10 00 00 00 00 00 00 00 00 00 00 00 00 00 00 00 00 ................
0040AF20 00 00 00 00 00 00 00 00 00 00 00 00 00 00 00 00 ................
0040AF30 00 00 00 00 00 00 00 00 00 00 00 00 00 00 00 00 ................
0040AF40 00 00 00 00 00 00 00 00 00 00 00 00 00 00 00 00 ................
0040AF50 00 00 00 00 00 00 00 00 00 00 00 00 00 00 00 00 ................
0040AF60 00 00 00 00 00 00 00 00 00 00 00 00 00 00 00 00 ................
0040AF70 00 00 00 00 00 00 00 00 00 00 00 00 00 00 00 00 ................
0040AF80 00 00 00 00 00 00 00 00 00 00 00 00 00 00 00 00 ................
0040AF90 00 00 00 00 00 00 00 00 00 00 00 00 00 00 00 00 ................
0040AFA0 00 00 00 00 00 00 00 00 00 00 00 00 00 00 00 00 ................
0040AFB0 00 00 00 00 00 00 00 00 00 00 00 00 00 00 00 00 ................
0040AFC0 00 00 00 00 00 00 00 00 00 00 00 00 00 00 00 00 ................
0040AFD0 00 00 00 00 00 00 00 00 00 00 00 00 00 00 00 00 ................
0040AFE0 00 00 00 00 00 00 00 00 00 00 00 00 00 00 00 00 ................
0040AFF0 00 00 00 00 00 00 00 00 00 00 00 00 00 00 00 00 ................
0040B000 00 00 00 00 00 00 00 00 00 00 00 00 00 00 00 00 ................
0040B010 00 00 00 00 00 00 00 00 00 00 00 00 00 00 00 00 ................
0040B020 00 00 00 00 00 00 00 00 00 00 00 00 00 00 00 00 ................
0040B030 00 00 00 00 00 00 00 00 00 00 00 00 00 00 00 00 ................
0040B040 00 00 00 00 00 00 00 00 00 00 00 00 00 00 00 00 ................
0040B050 00 00 00 00 00 00 00 00 00 00 00 00 00 00 00 00 ................
0040B060 00 00 00 00 00 00 00 00 00 00 00 00 00 00 00 00 ................
0040B070 00 00 00 00 00 00 00 00 00 00 00 00 00 00 00 00 ................
0040B080 00 00 00 00 00 00 00 00 00 00 00 00 00 00 00 00 ................
0040B090 00 00 00 00 00 00 00 00 00 00 00 00 00 00 00 00 ................
0040B0A0 00 00 00 00 00 00 00 00 00 00 00 00 00 00 00 00 ................
0040B0B0 00 00 00 00 00 00 00 00 00 00 00 00 00 00 00 00 ................
0040B0C0 00 00 00 00 00 00 00 00 00 00 00 00 00 00 00 00 ................
0040B0D0 00 00 00 00 00 00 00 00 00 00 00 00 00 00 00 00 ................
0040B0E0 00 00 00 00 00 00 00 00 00 00 00 00 00 00 00 00 ................
0040B0F0 00 00 00 00 00 00 00 00 00 00 00 00 00 00 00 00 ................
0040B100 00 00 00 00 00 00 00 00 00 00 00 00 00 00 00 00 ................
0040B110 00 00 00 00 00 00 00 00 00 00 00 00 00 00 00 00 ................
0040B120 00 00 00 00 00 00 00 00 00 00 00 00 00 00 00 00 ................
0040B130 00 00 00 00 00 00 00 00 00 00 00 00 00 00 00 00 ................
0040B140 00 00 00 00 00 00 00 00 00 00 00 00 00 00 00 00 ................
0040B150 00 00 00 00 00 00 00 00 00 00 00 00 00 00 00 00 ................
0040B160 00 00 00 00 00 00 00 00 00 00 00 00 00 00 00 00 ................
0040B170 00 00 00 00 00 00 00 00 00 00 00 00 00 00 00 00 ................
0040B180 00 00 00 00 00 00 00 00 00 00 00 00 00 00 00 00 ................
0040B190 00 00 00 00 00 00 00 00 00 00 00 00 00 00 00 00 ................
0040B1A0 00 00 00 00 00 00 00 00 00 00 00 00 00 00 00 00 ................
0040B1B0 00 00 00 00 00 00 00 00 00 00 00 00 00 00 00 00 ................
0040B1C0 00 00 00 00 00 00 00 00 00 00 00 00 00 00 00 00 ................
0040B1D0 00 00 00 00 00 00 00 00 00 00 00 00 00 00 00 00 ................
0040B1E0 00 00 00 00 00 00 00 00 00 00 00 00 00 00 00 00 ................
0040B1F0 00 00 00 00 00 00 00 00 00 00 00 00 00 00 00 00 ................
0040B200 00 00 00 00 00 00 00 00 00 00 00 00 00 00 00 00 ................
0040B210 00 00 00 00 00 00 00 00 00 00 00 00 00 00 00 00 ................
0040B220 00 00 00 00 00 00 00 00 00 00 00 00 00 00 00 00 ................
0040B230 00 00 00 00 00 00 00 00 00 00 00 00 00 00 00 00 ................
0040B240 00 00 00 00 00 00 00 00 00 00 00 00 00 00 00 00 ................
0040B250 00 00 00 00 00 00 00 00 00 00 00 00 00 00 00 00 ................
0040B260 00 00 00 00 00 00 00 00 00 00 00 00 00 00 00 00 ................
0040B270 00 00 00 00 00 00 00 00 00 00 00 00 00 00 00 00 ................
0040B280 00 00 00 00 00 00 00 00 00 00 00 00 00 00 00 00 ................
0040B290 00 00 00 00 00 00 00 00 00 00 00 00 00 00 00 00 ................
0040B2A0 00 00 00 00 00 00 00 00 00 00 00 00 00 00 00 00 ................
0040B2B0 00 00 00 00 00 00 00 00 00 00 00 00 00 00 00 00 ................
0040B2C0 00 00 00 00 00 00 00 00 00 00 00 00 00 00 00 00 ................
0040B2D0 00 00 00 00 00 00 00 00 00 00 00 00 00 00 00 00 ................
0040B2E0 00 00 00 00 00 00 00 00 00 00 00 00 00 00 00 00 ................
0040B2F0 00 00 00 00 00 00 00 00 00 00 00 00 00 00 00 00 ................
0040B300 00 00 00 00 00 00 00 00 00 00 00 00 00 00 00 00 ................
0040B310 00 00 00 00 00 00 00 00 00 00 00 00 00 00 00 00 ................
0040B320 00 00 00 00 00 00 00 00 00 00 00 00 00 00 00 00 ................
0040B330 00 00 00 00 00 00 00 00 00 00 00 00 00 00 00 00 ................
0040B340 00 00 00 00 00 00 00 00 00 00 00 00 00 00 00 00 ................
0040B350 00 00 00 00 00 00 00 00 00 00 00 00 00 00 00 00 ................
0040B360 00 00 00 00 00 00 00 00 00 00 00 00 00 00 00 00 ................
0040B370 00 00 00 00 00 00 00 00 00 00 00 00 00 00 00 00 ................
0040B380 00 00 00 00 00 00 00 00 00 00 00 00 00 00 00 00 ................
0040B390 00 00 00 00 00 00 00 00 00 00 00 00 00 00 00 00 ................
0040B3A0 00 00 00 00 00 00 00 00 00 00 00 00 00 00 00 00 ................
0040B3B0 00 00 00 00 00 00 00 00 00 00 00 00 00 00 00 00 ................
0040B3C0 00 00 00 00 00 00 00 00 00 00 00 00 00 00 00 00 ................
0040B3D0 00 00 00 00 00 00 00 00 00 00 00 00 00 00 00 00 ................
0040B3E0 00 00 00 00 00 00 00 00 00 00 00 00 00 00 00 00 ................
0040B3F0 00 00 00 00 00 00 00 00 00 00 00 00 00 00 00 00 ................
0040B400 00 00 00 00 00 00 00 00 00 00 00 00 00 00 00 00 ................
0040B410 00 00 00 00 00 00 00 00 00 00 00 00 00 00 00 00 ................
0040B420 00 00 00 00 00 00 00 00 00 00 00 00 00 00 00 00 ................
0040B430 00 00 00 00 00 00 00 00 00 00 00 00 00 00 00 00 ................
0040B440 00 00 00 00 00 00 00 00 00 00 00 00 00 00 00 00 ................
0040B450 00 00 00 00 00 00 00 00 00 00 00 00 00 00 00 00 ................
0040B460 00 00 00 00 00 00 00 00 00 00 00 00 00 00 00 00 ................
0040B470 00 00 00 00 00 00 00 00 00 00 00 00 00 00 00 00 ................
0040B480 00 00 00 00 00 00 00 00 00 00 00 00 00 00 00 00 ................
0040B490 00 00 00 00 00 00 00 00 00 00 00 00 00 00 00 00 ................
0040B4A0 00 00 00 00 00 00 00 00 00 00 00 00 00 00 00 00 ................
0040B4B0 00 00 00 00 00 00 00 00 00 00 00 00 00 00 00 00 ................
0040B4C0 00 00 00 00 00 00 00 00 00 00 00 00 00 00 00 00 ................
0040B4D0 00 00 00 00 00 00 00 00 00 00 00 00 00 00 00 00 ................
0040B4E0 00 00 00 00 00 00 00 00 00 00 00 00 00 00 00 00 ................
0040B4F0 00 00 00 00 00 00 00 00 00 00 00 00 00 00 00 00 ................
0040B500 00 00 00 00 00 00 00 00 00 00 00 00 00 00 00 00 ................
0040B510 00 00 00 00 00 00 00 00 00 00 00 00 00 00 00 00 ................
0040B520 00 00 00 00 00 00 00 00 00 00 00 00 00 00 00 00 ................
0040B530 00 00 00 00 00 00 00 00 00 00 00 00 00 00 00 00 ................
0040B540 00 00 00 00 00 00 00 00 00 00 00 00 00 00 00 00 ................
0040B550 00 00 00 00 00 00 00 00 00 00 00 00 00 00 00 00 ................
0040B560 00 00 00 00 00 00 00 00 00 00 00 00 00 00 00 00 ................
0040B570 00 00 00 00 00 00 00 00 00 00 00 00 00 00 00 00 ................
0040B580 00 00 00 00 00 00 00 00 00 00 00 00 00 00 00 00 ................
0040B590 00 00 00 00 00 00 00 00 00 00 00 00 00 00 00 00 ................
0040B5A0 00 00 00 00 00 00 00 00 00 00 00 00 00 00 00 00 ................
0040B5B0 00 00 00 00 00 00 00 00 00 00 00 00 00 00 00 00 ................
0040B5C0 00 00 00 00 00 00 00 00 00 00 00 00 00 00 00 00 ................
0040B5D0 00 00 00 00 00 00 00 00 00 00 00 00 00 00 00 00 ................
0040B5E0 00 00 00 00 00 00 00 00 00 00 00 00 00 00 00 00 ................
0040B5F0 00 00 00 00 00 00 00 00 00 00 00 00 00 00 00 00 ................
0040B600 00 00 00 00 00 00 00 00 00 00 00 00 00 00 00 00 ................
0040B610 00 00 00 00 00 00 00 00 00 00 00 00 00 00 00 00 ................
0040B620 00 00 00 00 00 00 00 00 00 00 00 00 00 00 00 00 ................
0040B630 00 00 00 00 00 00 00 00 00 00 00 00 00 00 00 00 ................
0040B640 00 00 00 00 00 00 00 00 00 00 00 00 00 00 00 00 ................
0040B650 00 00 00 00 00 00 00 00 00 00 00 00 00 00 00 00 ................
0040B660 00 00 00 00 00 00 00 00 00 00 00 00 00 00 00 00 ................
0040B670 00 00 00 00 00 00 00 00 00 00 00 00 00 00 00 00 ................
0040B680 00 00 00 00 00 00 00 00 00 00 00 00 00 00 00 00 ................
0040B690 00 00 00 00 00 00 00 00 00 00 00 00 00 00 00 00 ................
0040B6A0 00 00 00 00 00 00 00 00 00 00 00 00 00 00 00 00 ................
0040B6B0 00 00 00 00 00 00 00 00 00 00 00 00 00 00 00 00 ................
0040B6C0 00 00 00 00 00 00 00 00 00 00 00 00 00 00 00 00 ................
0040B6D0 00 00 00 00 00 00 00 00 00 00 00 00 00 00 00 00 ................
0040B6E0 00 00 00 00 00 00 00 00 00 00 00 00 00 00 00 00 ................
0040B6F0 00 00 00 00 00 00 00 00 00 00 00 00 00 00 00 00 ................
0040B700 00 00 00 00 00 00 00 00 00 00 00 00 00 00 00 00 ................
0040B710 00 00 00 00 00 00 00 00 00 00 00 00 00 00 00 00 ................
0040B720 00 00 00 00 00 00 00 00 00 00 00 00 00 00 00 00 ................
0040B730 00 00 00 00 00 00 00 00 00 00 00 00 00 00 00 00 ................
0040B740 00 00 00 00 00 00 00 00 00 00 00 00 00 00 00 00 ................
0040B750 00 00 00 00 00 00 00 00 00 00 00 00 00 00 00 00 ................
0040B760 00 00 00 00 00 00 00 00 00 00 00 00 00 00 00 00 ................
0040B770 00 00 00 00 00 00 00 00 00 00 00 00 00 00 00 00 ................
0040B780 00 00 00 00 00 00 00 00 00 00 00 00 00 00 00 00 ................
0040B790 00 00 00 00 00 00 00 00 00 00 00 00 00 00 00 00 ................
0040B7A0 00 00 00 00 00 00 00 00 00 00 00 00 00 00 00 00 ................
0040B7B0 00 00 00 00 00 00 00 00 00 00 00 00 00 00 00 00 ................
0040B7C0 00 00 00 00 00 00 00 00 00 00 00 00 00 00 00 00 ................
0040B7D0 00 00 00 00 00 00 00 00 00 00 00 00 00 00 00 00 ................
0040B7E0 00 00 00 00 00 00 00 00 00 00 00 00 00 00 00 00 ................
0040B7F0 00 00 00 00 00 00 00 00 00 00 00 00 00 00 00 00 ................
0040B800 00 00 00 00 00 00 00 00 00 00 00 00 00 00 00 00 ................
0040B810 00 00 00 00 00 00 00 00 00 00 00 00 00 00 00 00 ................
0040B820 00 00 00 00 00 00 00 00 00 00 00 00 00 00 00 00 ................
0040B830 00 00 00 00 00 00 00 00 00 00 00 00 00 00 00 00 ................
0040B840 00 00 00 00 00 00 00 00 00 00 00 00 00 00 00 00 ................
0040B850 00 00 00 00 00 00 00 00 00 00 00 00 00 00 00 00 ................
0040B860 00 00 00 00 00 00 00 00 00 00 00 00 00 00 00 00 ................
0040B870 00 00 00 00 00 00 00 00 00 00 00 00 00 00 00 00 ................
0040B880 00 00 00 00 00 00 00 00 00 00 00 00 00 00 00 00 ................
0040B890 00 00 00 00 00 00 00 00 00 00 00 00 00 00 00 00 ................
0040B8A0 00 00 00 00 00 00 00 00 00 00 00 00 00 00 00 00 ................
0040B8B0 00 00 00 00 00 00 00 00 00 00 00 00 00 00 00 00 ................
0040B8C0 00 00 00 00 00 00 00 00 00 00 00 00 00 00 00 00 ................
0040B8D0 00 00 00 00 00 00 00 00 00 00 00 00 00 00 00 00 ................
0040B8E0 00 00 00 00 00 00 00 00 00 00 00 00 00 00 00 00 ................
0040B8F0 00 00 00 00 00 00 00 00 00 00 00 00 00 00 00 00 ................
0040B900 00 00 00 00 00 00 00 00 00 00 00 00 00 00 00 00 ................
0040B910 00 00 00 00 00 00 00 00 00 00 00 00 00 00 00 00 ................
0040B920 00 00 00 00 00 00 00 00 00 00 00 00 00 00 00 00 ................
0040B930 00 00 00 00 00 00 00 00 00 00 00 00 00 00 00 00 ................
0040B940 00 00 00 00 00 00 00 00 00 00 00 00 00 00 00 00 ................
0040B950 00 00 00 00 00 00 00 00 00 00 00 00 00 00 00 00 ................
0040B960 00 00 00 00 00 00 00 00 00 00 00 00 00 00 00 00 ................
0040B970 00 00 00 00 00 00 00 00 00 00 00 00 00 00 00 00 ................
0040B980 00 00 00 00 00 00 00 00 00 00 00 00 00 00 00 00 ................
0040B990 00 00 00 00 00 00 00 00 00 00 00 00 00 00 00 00 ................
0040B9A0 00 00 00 00 00 00 00 00 00 00 00 00 00 00 00 00 ................
0040B9B0 00 00 00 00 00 00 00 00 00 00 00 00 00 00 00 00 ................
0040B9C0 00 00 00 00 00 00 00 00 00 00 00 00 00 00 00 00 ................
0040B9D0 00 00 00 00 00 00 00 00 00 00 00 00 00 00 00 00 ................
0040B9E0 00 00 00 00 00 00 00 00 00 00 00 00 00 00 00 00 ................
0040B9F0 00 00 00 00 00 00 00 00 00 00 00 00 00 00 00 00 ................
0040BA00 00 00 00 00 00 00 00 00 00 00 00 00 00 00 00 00 ................
0040BA10 00 00 00 00 00 00 00 00 00 00 00 00 00 00 00 00 ................
0040BA20 00 00 00 00 00 00 00 00 00 00 00 00 00 00 00 00 ................
0040BA30 00 00 00 00 00 00 00 00 00 00 00 00 00 00 00 00 ................
0040BA40 00 00 00 00 00 00 00 00 00 00 00 00 00 00 00 00 ................
0040BA50 00 00 00 00 00 00 00 00 00 00 00 00 00 00 00 00 ................
0040BA60 00 00 00 00 00 00 00 00 00 00 00 00 00 00 00 00 ................
0040BA70 00 00 00 00 00 00 00 00 00 00 00 00 00 00 00 00 ................
0040BA80 00 00 00 00 00 00 00 00 00 00 00 00 00 00 00 00 ................
0040BA90 00 00 00 00 00 00 00 00 00 00 00 00 00 00 00 00 ................
0040BAA0 00 00 00 00 00 00 00 00 00 00 00 00 00 00 00 00 ................
0040BAB0 00 00 00 00 00 00 00 00 00 00 00 00 00 00 00 00 ................
0040BAC0 00 00 00 00 00 00 00 00 00 00 00 00 00 00 00 00 ................
0040BAD0 00 00 00 00 00 00 00 00 00 00 00 00 00 00 00 00 ................
0040BAE0 00 00 00 00 00 00 00 00 00 00 00 00 00 00 00 00 ................
0040BAF0 00 00 00 00 00 00 00 00 00 00 00 00 00 00 00 00 ................
0040BB00 00 00 00 00 00 00 00 00 00 00 00 00 00 00 00 00 ................
0040BB10 00 00 00 00 00 00 00 00 00 00 00 00 00 00 00 00 ................
0040BB20 00 00 00 00 00 00 00 00 00 00 00 00 00 00 00 00 ................
0040BB30 00 00 00 00 00 00 00 00 00 00 00 00 00 00 00 00 ................
0040BB40 00 00 00 00 00 00 00 00 00 00 00 00 00 00 00 00 ................
0040BB50 00 00 00 00 00 00 00 00 00 00 00 00 00 00 00 00 ................
0040BB60 00 00 00 00 00 00 00 00 00 00 00 00 00 00 00 00 ................
0040BB70 00 00 00 00 00 00 00 00 00 00 00 00 00 00 00 00 ................
0040BB80 00 00 00 00 00 00 00 00 00 00 00 00 00 00 00 00 ................
0040BB90 00 00 00 00 00 00 00 00 00 00 00 00 00 00 00 00 ................
0040BBA0 00 00 00 00 00 00 00 00 00 00 00 00 00 00 00 00 ................
0040BBB0 00 00 00 00 00 00 00 00 00 00 00 00 00 00 00 00 ................
0040BBC0 00 00 00 00 00 00 00 00 00 00 00 00 00 00 00 00 ................
0040BBD0 00 00 00 00 00 00 00 00 00 00 00 00 00 00 00 00 ................
0040BBE0 00 00 00 00 00 00 00 00 00 00 00 00 00 00 00 00 ................
0040BBF0 00 00 00 00 00 00 00 00 00 00 00 00 00 00 00 00 ................
0040BC00 00 00 00 00 00 00 00 00 00 00 00 00 00 00 00 00 ................
0040BC10 00 00 00 00 00 00 00 00 00 00 00 00 00 00 00 00 ................
0040BC20 00 00 00 00 00 00 00 00 00 00 00 00 00 00 00 00 ................
0040BC30 00 00 00 00 00 00 00 00 00 00 00 00 00 00 00 00 ................
0040BC40 00 00 00 00 00 00 00 00 00 00 00 00 00 00 00 00 ................
0040BC50 00 00 00 00 00 00 00 00 00 00 00 00 00 00 00 00 ................
0040BC60 00 00 00 00 00 00 00 00 00 00 00 00 00 00 00 00 ................
0040BC70 00 00 00 00 00 00 00 00 00 00 00 00 00 00 00 00 ................
0040BC80 00 00 00 00 00 00 00 00 00 00 00 00 00 00 00 00 ................
0040BC90 00 00 00 00 00 00 00 00 00 00 00 00 00 00 00 00 ................
0040BCA0 00 00 00 00 00 00 00 00 00 00 00 00 00 00 00 00 ................
0040BCB0 00 00 00 00 00 00 00 00 00 00 00 00 00 00 00 00 ................
0040BCC0 00 00 00 00 00 00 00 00 00 00 00 00 00 00 00 00 ................
0040BCD0 00 00 00 00 00 00 00 00 00 00 00 00 00 00 00 00 ................
0040BCE0 00 00 00 00 00 00 00 00 00 00 00 00 00 00 00 00 ................
0040BCF0 00 00 00 00 00 00 00 00 00 00 00 00 00 00 00 00 ................
0040BD00 00 00 00 00 00 00 00 00 00 00 00 00 00 00 00 00 ................
0040BD10 00 00 00 00 00 00 00 00 00 00 00 00 00 00 00 00 ................
0040BD20 00 00 00 00 00 00 00 00 00 00 00 00 00 00 00 00 ................
0040BD30 00 00 00 00 00 00 00 00 00 00 00 00 00 00 00 00 ................
0040BD40 00 00 00 00 00 00 00 00 00 00 00 00 00 00 00 00 ................
0040BD50 00 00 00 00 00 00 00 00 00 00 00 00 00 00 00 00 ................
0040BD60 00 00 00 00 00 00 00 00 00 00 00 00 00 00 00 00 ................
0040BD70 00 00 00 00 00 00 00 00 00 00 00 00 00 00 00 00 ................
0040BD80 00 00 00 00 00 00 00 00 00 00 00 00 00 00 00 00 ................
0040BD90 00 00 00 00 00 00 00 00 00 00 00 00 00 00 00 00 ................
0040BDA0 00 00 00 00 00 00 00 00 00 00 00 00 00 00 00 00 ................
0040BDB0 00 00 00 00 00 00 00 00 00 00 00 00 00 00 00 00 ................
0040BDC0 00 00 00 00 00 00 00 00 00 00 00 00 00 00 00 00 ................
0040BDD0 00 00 00 00 00 00 00 00 00 00 00 00 00 00 00 00 ................
0040BDE0 00 00 00 00 00 00 00 00 00 00 00 00 00 00 00 00 ................
0040BDF0 00 00 00 00 00 00 00 00 00 00 00 00 00 00 00 00 ................
0040BE00 00 00 00 00 00 00 00 00 00 00 00 00 00 00 00 00 ................
0040BE10 00 00 00 00 00 00 00 00 00 00 00 00 00 00 00 00 ................
0040BE20 00 00 00 00 00 00 00 00 00 00 00 00 00 00 00 00 ................
0040BE30 00 00 00 00 00 00 00 00 00 00 00 00 00 00 00 00 ................
0040BE40 00 00 00 00 00 00 00 00 00 00 00 00 00 00 00 00 ................
0040BE50 00 00 00 00 00 00 00 00 00 00 00 00 00 00 00 00 ................
0040BE60 00 00 00 00 00 00 00 00 00 00 00 00 00 00 00 00 ................
0040BE70 00 00 00 00 00 00 00 00 00 00 00 00 00 00 00 00 ................
0040BE80 00 00 00 00 00 00 00 00 00 00 00 00 00 00 00 00 ................
0040BE90 00 00 00 00 00 00 00 00 00 00 00 00 00 00 00 00 ................
0040BEA0 00 00 00 00 00 00 00 00 00 00 00 00 00 00 00 00 ................
0040BEB0 00 00 00 00 00 00 00 00 00 00 00 00 00 00 00 00 ................
0040BEC0 00 00 00 00 00 00 00 00 00 00 00 00 00 00 00 00 ................
0040BED0 00 00 00 00 00 00 00 00 00 00 00 00 00 00 00 00 ................
0040BEE0 00 00 00 00 00 00 00 00 00 00 00 00 00 00 00 00 ................
0040BEF0 00 00 00 00 00 00 00 00 00 00 00 00 00 00 00 00 ................
0040BF00 00 00 00 00 00 00 00 00 00 00 00 00 00 00 00 00 ................
0040BF10 00 00 00 00 00 00 00 00 00 00 00 00 00 00 00 00 ................
0040BF20 00 00 00 00 00 00 00 00 00 00 00 00 00 00 00 00 ................
0040BF30 00 00 00 00 00 00 00 00 00 00 00 00 00 00 00 00 ................
0040BF40 00 00 00 00 00 00 00 00 00 00 00 00 00 00 00 00 ................
0040BF50 00 00 00 00 00 00 00 00 00 00 00 00 00 00 00 00 ................
0040BF60 00 00 00 00 00 00 00 00 00 00 00 00 00 00 00 00 ................
0040BF70 00 00 00 00 00 00 00 00 00 00 00 00 00 00 00 00 ................
0040BF80 00 00 00 00 00 00 00 00 00 00 00 00 00 00 00 00 ................
0040BF90 00 00 00 00 00 00 00 00 00 00 00 00 00 00 00 00 ................
0040BFA0 00 00 00 00 00 00 00 00 00 00 00 00 00 00 00 00 ................
0040BFB0 00 00 00 00 00 00 00 00 00 00 00 00 00 00 00 00 ................
0040BFC0 00 00 00 00 00 00 00 00 00 00 00 00 00 00 00 00 ................
0040BFD0 00 00 00 00 00 00 00 00 00 00 00 00 00 00 00 00 ................
0040BFE0 00 00 00 00 00 00 00 00 00 00 00 00 00 00 00 00 ................
0040BFF0 00 00 00 00 00 00 00 00 00 00 00 00 00 00 00 00 ................
0040C000 00 00 00 00 00 00 00 00 00 00 00 00 00 00 00 00 ................
0040C010 00 00 00 00 00 00 00 00 00 00 00 00 00 00 00 00 ................
0040C020 00 00 00 00 00 00 00 00 00 00 00 00 00 00 00 00 ................
0040C030 00 00 00 00 00 00 00 00 00 00 00 00 00 00 00 00 ................
0040C040 00 00 00 00 00 00 00 00 00 00 00 00 00 00 00 00 ................
0040C050 00 00 00 00 00 00 00 00 00 00 00 00 00 00 00 00 ................
0040C060 00 00 00 00 00 00 00 00 00 00 00 00 00 00 00 00 ................
0040C070 00 00 00 00 00 00 00 00 00 00 00 00 00 00 00 00 ................
0040C080 00 00 00 00 00 00 00 00 00 00 00 00 00 00 00 00 ................
0040C090 00 00 00 00 00 00 00 00 00 00 00 00 00 00 00 00 ................
0040C0A0 00 00 00 00 00 00 00 00 00 00 00 00 00 00 00 00 ................
0040C0B0 00 00 00 00 00 00 00 00 00 00 00 00 00 00 00 00 ................
0040C0C0 00 00 00 00 00 00 00 00 00 00 00 00 00 00 00 00 ................
0040C0D0 00 00 00 00 00 00 00 00 00 00 00 00 00 00 00 00 ................
0040C0E0 00 00 00 00 00 00 00 00 00 00 00 00 00 00 00 00 ................
0040C0F0 00 00 00 00 00 00 00 00 00 00 00 00 00 00 00 00 ................
0040C100 00 00 00 00 00 00 00 00 00 00 00 00 00 00 00 00 ................
0040C110 00 00 00 00 00 00 00 00 00 00 00 00 00 00 00 00 ................
0040C120 00 00 00 00 00 00 00 00 00 00 00 00 00 00 00 00 ................
0040C130 00 00 00 00 00 00 00 00 00 00 00 00 00 00 00 00 ................
0040C140 00 00 00 00 00 00 00 00 00 00 00 00 00 00 00 00 ................
0040C150 00 00 00 00 00 00 00 00 00 00 00 00 00 00 00 00 ................
0040C160 00 00 00 00 00 00 00 00 00 00 00 00 00 00 00 00 ................
0040C170 00 00 00 00 00 00 00 00 00 00 00 00 00 00 00 00 ................
0040C180 00 00 00 00 00 00 00 00 00 00 00 00 00 00 00 00 ................
0040C190 00 00 00 00 00 00 00 00 00 00 00 00 00 00 00 00 ................
0040C1A0 00 00 00 00 00 00 00 00 00 00 00 00 00 00 00 00 ................
0040C1B0 00 00 00 00 00 00 00 00 00 00 00 00 00 00 00 00 ................
0040C1C0 00 00 00 00 00 00 00 00 00 00 00 00 00 00 00 00 ................
0040C1D0 00 00 00 00 00 00 00 00 00 00 00 00 00 00 00 00 ................
0040C1E0 00 00 00 00 00 00 00 00 00 00 00 00 00 00 00 00 ................
0040C1F0 00 00 00 00 00 00 00 00 00 00 00 00 00 00 00 00 ................
0040C200 00 00 00 00 00 00 00 00 00 00 00 00 00 00 00 00 ................
0040C210 00 00 00 00 00 00 00 00 00 00 00 00 00 00 00 00 ................
0040C220 00 00 00 00 00 00 00 00 00 00 00 00 00 00 00 00 ................
0040C230 00 00 00 00 00 00 00 00 00 00 00 00 00 00 00 00 ................
0040C240 00 00 00 00 00 00 00 00 00 00 00 00 00 00 00 00 ................
0040C250 00 00 00 00 00 00 00 00 00 00 00 00 00 00 00 00 ................
0040C260 00 00 00 00 00 00 00 00 00 00 00 00 00 00 00 00 ................
0040C270 00 00 00 00 00 00 00 00 00 00 00 00 00 00 00 00 ................
0040C280 00 00 00 00 00 00 00 00 00 00 00 00 00 00 00 00 ................
0040C290 00 00 00 00 00 00 00 00 00 00 00 00 00 00 00 00 ................
0040C2A0 00 00 00 00 00 00 00 00 00 00 00 00 00 00 00 00 ................
0040C2B0 00 00 00 00 00 00 00 00 00 00 00 00 00 00 00 00 ................
0040C2C0 00 00 00 00 00 00 00 00 00 00 00 00 00 00 00 00 ................
0040C2D0 00 00 00 00 00 00 00 00 00 00 00 00 00 00 00 00 ................
0040C2E0 00 00 00 00 00 00 00 00 00 00 00 00 00 00 00 00 ................
0040C2F0 00 00 00 00 00 00 00 00 00 00 00 00 00 00 00 00 ................
0040C300 00 00 00 00 00 00 00 00 00 00 00 00 00 00 00 00 ................
0040C310 00 00 00 00 00 00 00 00 00 00 00 00 00 00 00 00 ................
0040C320 00 00 00 00 00 00 00 00 00 00 00 00 00 00 00 00 ................
0040C330 00 00 00 00 00 00 00 00 00 00 00 00 00 00 00 00 ................
0040C340 00 00 00 00 00 00 00 00 00 00 00 00 00 00 00 00 ................
0040C350 00 00 00 00 00 00 00 00 00 00 00 00 00 00 00 00 ................
0040C360 00 00 00 00 00 00 00 00 00 00 00 00 00 00 00 00 ................
0040C370 00 00 00 00 00 00 00 00 00 00 00 00 00 00 00 00 ................
0040C380 00 00 00 00 00 00 00 00 00 00 00 00 00 00 00 00 ................
0040C390 00 00 00 00 00 00 00 00 00 00 00 00 00 00 00 00 ................
0040C3A0 00 00 00 00 00 00 00 00 00 00 00 00 00 00 00 00 ................
0040C3B0 00 00 00 00 00 00 00 00 00 00 00 00 00 00 00 00 ................
0040C3C0 00 00 00 00 00 00 00 00 00 00 00 00 00 00 00 00 ................
0040C3D0 00 00 00 00 00 00 00 00 00 00 00 00 00 00 00 00 ................
0040C3E0 00 00 00 00 00 00 00 00 00 00 00 00 00 00 00 00 ................
0040C3F0 00 00 00 00 00 00 00 00 00 00 00 00 00 00 00 00 ................
0040C400 00 00 00 00 00 00 00 00 00 00 00 00 00 00 00 00 ................
0040C410 00 00 00 00 00 00 00 00 00 00 00 00 00 00 00 00 ................
0040C420 00 00 00 00 00 00 00 00 00 00 00 00 00 00 00 00 ................
0040C430 00 00 00 00 00 00 00 00 00 00 00 00 00 00 00 00 ................
0040C440 00 00 00 00 00 00 00 00 00 00 00 00 00 00 00 00 ................
0040C450 00 00 00 00 00 00 00 00 00 00 00 00 00 00 00 00 ................
0040C460 00 00 00 00 00 00 00 00 00 00 00 00 00 00 00 00 ................
0040C470 00 00 00 00 00 00 00 00 00 00 00 00 00 00 00 00 ................
0040C480 00 00 00 00 00 00 00 00 00 00 00 00 00 00 00 00 ................
0040C490 00 00 00 00 00 00 00 00 00 00 00 00 00 00 00 00 ................
0040C4A0 00 00 00 00 00 00 00 00 00 00 00 00 00 00 00 00 ................
0040C4B0 00 00 00 00 00 00 00 00 00 00 00 00 00 00 00 00 ................
0040C4C0 00 00 00 00 00 00 00 00 00 00 00 00 00 00 00 00 ................
0040C4D0 00 00 00 00 00 00 00 00 00 00 00 00 00 00 00 00 ................
0040C4E0 00 00 00 00 00 00 00 00 00 00 00 00 00 00 00 00 ................
0040C4F0 00 00 00 00 00 00 00 00 00 00 00 00 00 00 00 00 ................
0040C500 00 00 00 00 00 00 00 00 00 00 00 00 00 00 00 00 ................
0040C510 00 00 00 00 00 00 00 00 00 00 00 00 00 00 00 00 ................
0040C520 00 00 00 00 00 00 00 00 00 00 00 00 00 00 00 00 ................
0040C530 00 00 00 00 00 00 00 00 00 00 00 00 00 00 00 00 ................
0040C540 00 00 00 00 00 00 00 00 00 00 00 00 00 00 00 00 ................
0040C550 00 00 00 00 00 00 00 00 00 00 00 00 00 00 00 00 ................
0040C560 00 00 00 00 00 00 00 00 00 00 00 00 00 00 00 00 ................
0040C570 00 00 00 00 00 00 00 00 00 00 00 00 00 00 00 00 ................
0040C580 00 00 00 00 00 00 00 00 00 00 00 00 00 00 00 00 ................
0040C590 00 00 00 00 00 00 00 00 00 00 00 00 00 00 00 00 ................
0040C5A0 00 00 00 00 00 00 00 00 00 00 00 00 00 00 00 00 ................
0040C5B0 00 00 00 00 00 00 00 00 00 00 00 00 00 00 00 00 ................
0040C5C0 00 00 00 00 00 00 00 00 00 00 00 00 00 00 00 00 ................
0040C5D0 00 00 00 00 00 00 00 00 00 00 00 00 00 00 00 00 ................
0040C5E0 00 00 00 00 00 00 00 00 00 00 00 00 00 00 00 00 ................
0040C5F0 00 00 00 00 00 00 00 00 00 00 00 00 00 00 00 00 ................
0040C600 00 00 00 00 00 00 00 00 00 00 00 00 00 00 00 00 ................
0040C610 00 00 00 00 00 00 00 00 00 00 00 00 00 00 00 00 ................
0040C620 00 00 00 00 00 00 00 00 00 00 00 00 00 00 00 00 ................
0040C630 00 00 00 00 00 00 00 00 00 00 00 00 00 00 00 00 ................
0040C640 00 00 00 00 00 00 00 00 00 00 00 00 00 00 00 00 ................
0040C650 00 00 00 00 00 00 00 00 00 00 00 00 00 00 00 00 ................
0040C660 00 00 00 00 00 00 00 00 00 00 00 00 00 00 00 00 ................
0040C670 00 00 00 00 00 00 00 00 00 00 00 00 00 00 00 00 ................
0040C680 00 00 00 00 00 00 00 00 00 00 00 00 00 00 00 00 ................
0040C690 00 00 00 00 00 00 00 00 00 00 00 00 00 00 00 00 ................
0040C6A0 00 00 00 00 00 00 00 00 00 00 00 00 00 00 00 00 ................
0040C6B0 00 00 00 00 00 00 00 00 00 00 00 00 00 00 00 00 ................
0040C6C0 00 00 00 00 00 00 00 00 00 00 00 00 00 00 00 00 ................
0040C6D0 00 00 00 00 00 00 00 00 00 00 00 00 00 00 00 00 ................
0040C6E0 00 00 00 00 00 00 00 00 00 00 00 00 00 00 00 00 ................
0040C6F0 00 00 00 00 00 00 00 00 00 00 00 00 00 00 00 00 ................
0040C700 00 00 00 00 00 00 00 00 00 00 00 00 00 00 00 00 ................
0040C710 00 00 00 00 00 00 00 00 00 00 00 00 00 00 00 00 ................
0040C720 00 00 00 00 00 00 00 00 00 00 00 00 00 00 00 00 ................
0040C730 00 00 00 00 00 00 00 00 00 00 00 00 00 00 00 00 ................
0040C740 00 00 00 00 00 00 00 00 00 00 00 00 00 00 00 00 ................
0040C750 00 00 00 00 00 00 00 00 00 00 00 00 00 00 00 00 ................
0040C760 00 00 00 00 00 00 00 00 00 00 00 00 00 00 00 00 ................
0040C770 00 00 00 00 00 00 00 00 00 00 00 00 00 00 00 00 ................
0040C780 00 00 00 00 00 00 00 00 00 00 00 00 00 00 00 00 ................
0040C790 00 00 00 00 00 00 00 00 00 00 00 00 00 00 00 00 ................
0040C7A0 00 00 00 00 00 00 00 00 00 00 00 00 00 00 00 00 ................
0040C7B0 00 00 00 00 00 00 00 00 00 00 00 00 00 00 00 00 ................
0040C7C0 00 00 00 00 00 00 00 00 00 00 00 00 00 00 00 00 ................
0040C7D0 00 00 00 00 00 00 00 00 00 00 00 00 00 00 00 00 ................
0040C7E0 00 00 00 00 00 00 00 00 00 00 00 00 00 00 00 00 ................
0040C7F0 00 00 00 00 00 00 00 00 00 00 00 00 00 00 00 00 ................
0040C800 00 00 00 00 00 00 00 00 00 00 00 00 00 00 00 00 ................
0040C810 00 00 00 00 00 00 00 00 00 00 00 00 00 00 00 00 ................
0040C820 00 00 00 00 00 00 00 00 00 00 00 00 00 00 00 00 ................
0040C830 00 00 00 00 00 00 00 00 00 00 00 00 00 00 00 00 ................
0040C840 00 00 00 00 00 00 00 00 00 00 00 00 00 00 00 00 ................
0040C850 00 00 00 00 00 00 00 00 00 00 00 00 00 00 00 00 ................
0040C860 00 00 00 00 00 00 00 00 00 00 00 00 00 00 00 00 ................
0040C870 00 00 00 00 00 00 00 00 00 00 00 00 00 00 00 00 ................
0040C880 00 00 00 00 00 00 00 00 00 00 00 00 00 00 00 00 ................
0040C890 00 00 00 00 00 00 00 00 00 00 00 00 00 00 00 00 ................
0040C8A0 00 00 00 00 00 00 00 00 00 00 00 00 00 00 00 00 ................
0040C8B0 00 00 00 00 00 00 00 00 00 00 00 00 00 00 00 00 ................
0040C8C0 00 00 00 00 00 00 00 00 00 00 00 00 00 00 00 00 ................
0040C8D0 00 00 00 00 00 00 00 00 00 00 00 00 00 00 00 00 ................
0040C8E0 00 00 00 00 00 00 00 00 00 00 00 00 00 00 00 00 ................
0040C8F0 00 00 00 00 00 00 00 00 00 00 00 00 00 00 00 00 ................
0040C900 00 00 00 00 00 00 00 00 00 00 00 00 00 00 00 00 ................
0040C910 00 00 00 00 00 00 00 00 00 00 00 00 00 00 00 00 ................
0040C920 00 00 00 00 00 00 00 00 00 00 00 00 00 00 00 00 ................
0040C930 00 00 00 00 00 00 00 00 00 00 00 00 00 00 00 00 ................
0040C940 00 00 00 00 00 00 00 00 00 00 00 00 00 00 00 00 ................
0040C950 00 00 00 00 00 00 00 00 00 00 00 00 00 00 00 00 ................
0040C960 00 00 00 00 00 00 00 00 00 00 00 00 00 00 00 00 ................
0040C970 00 00 00 00 00 00 00 00 00 00 00 00 00 00 00 00 ................
0040C980 00 00 00 00 00 00 00 00 00 00 00 00 00 00 00 00 ................
0040C990 00 00 00 00 00 00 00 00 00 00 00 00 00 00 00 00 ................
0040C9A0 00 00 00 00 00 00 00 00 00 00 00 00 00 00 00 00 ................
0040C9B0 00 00 00 00 00 00 00 00 00 00 00 00 00 00 00 00 ................
0040C9C0 00 00 00 00 00 00 00 00 00 00 00 00 00 00 00 00 ................
0040C9D0 00 00 00 00 00 00 00 00 00 00 00 00 00 00 00 00 ................
0040C9E0 00 00 00 00 00 00 00 00 00 00 00 00 00 00 00 00 ................
0040C9F0 00 00 00 00 00 00 00 00 00 00 00 00 00 00 00 00 ................
0040CA00 00 00 00 00 00 00 00 00 00 00 00 00 00 00 00 00 ................
0040CA10 00 00 00 00 00 00 00 00 00 00 00 00 00 00 00 00 ................
0040CA20 00 00 00 00 00 00 00 00 00 00 00 00 00 00 00 00 ................
0040CA30 00 00 00 00 00 00 00 00 00 00 00 00 00 00 00 00 ................
0040CA40 00 00 00 00 00 00 00 00 00 00 00 00 00 00 00 00 ................
0040CA50 00 00 00 00 00 00 00 00 00 00 00 00 00 00 00 00 ................
0040CA60 00 00 00 00 00 00 00 00 00 00 00 00 00 00 00 00 ................
0040CA70 00 00 00 00 00 00 00 00 00 00 00 00 00 00 00 00 ................
0040CA80 00 00 00 00 00 00 00 00 00 00 00 00 00 00 00 00 ................
0040CA90 00 00 00 00 00 00 00 00 00 00 00 00 00 00 00 00 ................
0040CAA0 00 00 00 00 00 00 00 00 00 00 00 00 00 00 00 00 ................
0040CAB0 00 00 00 00 00 00 00 00 00 00 00 00 00 00 00 00 ................
0040CAC0 00 00 00 00 00 00 00 00 00 00 00 00 00 00 00 00 ................
0040CAD0 00 00 00 00 00 00 00 00 00 00 00 00 00 00 00 00 ................
0040CAE0 00 00 00 00 00 00 00 00 00 00 00 00 00 00 00 00 ................
0040CAF0 00 00 00 00 00 00 00 00 00 00 00 00 00 00 00 00 ................
0040CB00 00 00 00 00 00 00 00 00 00 00 00 00 00 00 00 00 ................
0040CB10 00 00 00 00 00 00 00 00 00 00 00 00 00 00 00 00 ................
0040CB20 00 00 00 00 00 00 00 00 00 00 00 00 00 00 00 00 ................
0040CB30 00 00 00 00 00 00 00 00 00 00 00 00 00 00 00 00 ................
0040CB40 00 00 00 00 00 00 00 00 00 00 00 00 00 00 00 00 ................
0040CB50 00 00 00 00 00 00 00 00 00 00 00 00 00 00 00 00 ................
0040CB60 00 00 00 00 00 00 00 00 00 00 00 00 00 00 00 00 ................
0040CB70 00 00 00 00 00 00 00 00 00 00 00 00 00 00 00 00 ................
0040CB80 00 00 00 00 00 00 00 00 00 00 00 00 00 00 00 00 ................
0040CB90 00 00 00 00 00 00 00 00 00 00 00 00 00 00 00 00 ................
0040CBA0 00 00 00 00 00 00 00 00 00 00 00 00 00 00 00 00 ................
0040CBB0 00 00 00 00 00 00 00 00 00 00 00 00 00 00 00 00 ................
0040CBC0 00 00 00 00 00 00 00 00 00 00 00 00 00 00 00 00 ................
0040CBD0 00 00 00 00 00 00 00 00 00 00 00 00 00 00 00 00 ................
0040CBE0 00 00 00 00 00 00 00 00 00 00 00 00 00 00 00 00 ................
0040CBF0 00 00 00 00 00 00 00 00 00 00 00 00 00 00 00 00 ................
0040CC00 00 00 00 00 00 00 00 00 00 00 00 00 00 00 00 00 ................
0040CC10 00 00 00 00 00 00 00 00 00 00 00 00 00 00 00 00 ................
0040CC20 00 00 00 00 00 00 00 00 00 00 00 00 00 00 00 00 ................
0040CC30 00 00 00 00 00 00 00 00 00 00 00 00 00 00 00 00 ................
0040CC40 00 00 00 00 00 00 00 00 00 00 00 00 00 00 00 00 ................
0040CC50 00 00 00 00 00 00 00 00 00 00 00 00 00 00 00 00 ................
0040CC60 00 00 00 00 00 00 00 00 00 00 00 00 00 00 00 00 ................
0040CC70 00 00 00 00 00 00 00 00 00 00 00 00 00 00 00 00 ................
0040CC80 00 00 00 00 00 00 00 00 00 00 00 00 00 00 00 00 ................
0040CC90 00 00 00 00 00 00 00 00 00 00 00 00 00 00 00 00 ................
0040CCA0 00 00 00 00 00 00 00 00 00 00 00 00 00 00 00 00 ................
0040CCB0 00 00 00 00 00 00 00 00 00 00 00 00 00 00 00 00 ................
0040CCC0 00 00 00 00 00 00 00 00 00 00 00 00 00 00 00 00 ................
0040CCD0 00 00 00 00 00 00 00 00 00 00 00 00 00 00 00 00 ................
0040CCE0 00 00 00 00 00 00 00 00 00 00 00 00 00 00 00 00 ................
0040CCF0 00 00 00 00 00 00 00 00 00 00 00 00 00 00 00 00 ................
0040CD00 00 00 00 00 00 00 00 00 00 00 00 00 00 00 00 00 ................
0040CD10 00 00 00 00 00 00 00 00 00 00 00 00 00 00 00 00 ................
0040CD20 00 00 00 00 00 00 00 00 00 00 00 00 00 00 00 00 ................
0040CD30 00 00 00 00 00 00 00 00 00 00 00 00 00 00 00 00 ................
0040CD40 00 00 00 00 00 00 00 00 00 00 00 00 00 00 00 00 ................
0040CD50 00 00 00 00 00 00 00 00 00 00 00 00 00 00 00 00 ................
0040CD60 00 00 00 00 00 00 00 00 00 00 00 00 00 00 00 00 ................
0040CD70 00 00 00 00 00 00 00 00 00 00 00 00 00 00 00 00 ................
0040CD80 00 00 00 00 00 00 00 00 00 00 00 00 00 00 00 00 ................
0040CD90 00 00 00 00 00 00 00 00 00 00 00 00 00 00 00 00 ................
0040CDA0 00 00 00 00 00 00 00 00 00 00 00 00 00 00 00 00 ................
0040CDB0 00 00 00 00 00 00 00 00 00 00 00 00 00 00 00 00 ................
0040CDC0 00 00 00 00 00 00 00 00 00 00 00 00 00 00 00 00 ................
0040CDD0 00 00 00 00 00 00 00 00 00 00 00 00 00 00 00 00 ................
0040CDE0 00 00 00 00 00 00 00 00 00 00 00 00 00 00 00 00 ................
0040CDF0 00 00 00 00 00 00 00 00 00 00 00 00 00 00 00 00 ................
0040CE00 00 00 00 00 00 00 00 00 00 00 00 00 00 00 00 00 ................
0040CE10 00 00 00 00 00 00 00 00 00 00 00 00 00 00 00 00 ................
0040CE20 00 00 00 00 00 00 00 00 00 00 00 00 00 00 00 00 ................
0040CE30 00 00 00 00 00 00 00 00 00 00 00 00 00 00 00 00 ................
0040CE40 00 00 00 00 00 00 00 00 00 00 00 00 00 00 00 00 ................
0040CE50 00 00 00 00 00 00 00 00 00 00 00 00 00 00 00 00 ................
0040CE60 00 00 00 00 00 00 00 00 00 00 00 00 00 00 00 00 ................
0040CE70 00 00 00 00 00 00 00 00 00 00 00 00 00 00 00 00 ................
0040CE80 00 00 00 00 00 00 00 00 00 00 00 00 00 00 00 00 ................
0040CE90 00 00 00 00 00 00 00 00 00 00 00 00 00 00 00 00 ................
0040CEA0 00 00 00 00 00 00 00 00 00 00 00 00 00 00 00 00 ................
0040CEB0 00 00 00 00 00 00 00 00 00 00 00 00 00 00 00 00 ................
0040CEC0 00 00 00 00 00 00 00 00 00 00 00 00 00 00 00 00 ................
0040CED0 00 00 00 00 00 00 00 00 00 00 00 00 00 00 00 00 ................
0040CEE0 00 00 00 00 00 00 00 00 00 00 00 00 00 00 00 00 ................
0040CEF0 00 00 00 00 00 00 00 00 00 00 00 00 00 00 00 00 ................
0040CF00 00 00 00 00 00 00 00 00 00 00 00 00 00 00 00 00 ................
0040CF10 00 00 00 00 00 00 00 00 00 00 00 00 00 00 00 00 ................
0040CF20 00 00 00 00 00 00 00 00 00 00 00 00 00 00 00 00 ................
0040CF30 00 00 00 00 00 00 00 00 00 00 00 00 00 00 00 00 ................
0040CF40 00 00 00 00 00 00 00 00 00 00 00 00 00 00 00 00 ................
0040CF50 00 00 00 00 00 00 00 00 00 00 00 00 00 00 00 00 ................
0040CF60 00 00 00 00 00 00 00 00 00 00 00 00 00 00 00 00 ................
0040CF70 00 00 00 00 00 00 00 00 00 00 00 00 00 00 00 00 ................
0040CF80 00 00 00 00 00 00 00 00 00 00 00 00 00 00 00 00 ................
0040CF90 00 00 00 00 00 00 00 00 00 00 00 00 00 00 00 00 ................
0040CFA0 00 00 00 00 00 00 00 00 00 00 00 00 00 00 00 00 ................
0040CFB0 00 00 00 00 00 00 00 00 00 00 00 00 00 00 00 00 ................
0040CFC0 00 00 00 00 00 00 00 00 00 00 00 00 00 00 00 00 ................
0040CFD0 00 00 00 00 00 00 00 00 00 00 00 00 00 00 00 00 ................
0040CFE0 00 00 00 00 00 00 00 00 00 00 00 00 00 00 00 00 ................
0040CFF0 00 00 00 00 00 00 00 00 00 00 00 00 00 00 00 00 ................
0040D000 00 00 00 00 00 00 00 00 00 00 00 00 00 00 00 00 ................
0040D010 00 00 00 00 00 00 00 00 00 00 00 00 00 00 00 00 ................
0040D020 00 00 00 00 00 00 00 00 00 00 00 00 00 00 00 00 ................
0040D030 00 00 00 00 00 00 00 00 00 00 00 00 00 00 00 00 ................
0040D040 00 00 00 00 00 00 00 00 00 00 00 00 00 00 00 00 ................
0040D050 00 00 00 00 00 00 00 00 00 00 00 00 00 00 00 00 ................
0040D060 00 00 00 00 00 00 00 00 00 00 00 00 00 00 00 00 ................
0040D070 00 00 00 00 00 00 00 00 00 00 00 00 00 00 00 00 ................
0040D080 00 00 00 00 00 00 00 00 00 00 00 00 00 00 00 00 ................
0040D090 00 00 00 00 00 00 00 00 00 00 00 00 00 00 00 00 ................
0040D0A0 00 00 00 00 00 00 00 00 00 00 00 00 00 00 00 00 ................
0040D0B0 00 00 00 00 00 00 00 00 00 00 00 00 00 00 00 00 ................
0040D0C0 00 00 00 00 00 00 00 00 00 00 00 00 00 00 00 00 ................
0040D0D0 00 00 00 00 00 00 00 00 00 00 00 00 00 00 00 00 ................
0040D0E0 00 00 00 00 00 00 00 00 00 00 00 00 00 00 00 00 ................
0040D0F0 00 00 00 00 00 00 00 00 00 00 00 00 00 00 00 00 ................
0040D100 00 00 00 00 00 00 00 00 00 00 00 00 00 00 00 00 ................
0040D110 00 00 00 00 00 00 00 00 00 00 00 00 00 00 00 00 ................
0040D120 00 00 00 00 00 00 00 00 00 00 00 00 00 00 00 00 ................
0040D130 00 00 00 00 00 00 00 00 00 00 00 00 00 00 00 00 ................
0040D140 00 00 00 00 00 00 00 00 00 00 00 00 00 00 00 00 ................
0040D150 00 00 00 00 00 00 00 00 00 00 00 00 00 00 00 00 ................
0040D160 00 00 00 00 00 00 00 00 00 00 00 00 00 00 00 00 ................
0040D170 00 00 00 00 00 00 00 00 00 00 00 00 00 00 00 00 ................
0040D180 00 00 00 00 00 00 00 00 00 00 00 00 00 00 00 00 ................
0040D190 00 00 00 00 00 00 00 00 00 00 00 00 00 00 00 00 ................
0040D1A0 00 00 00 00 00 00 00 00 00 00 00 00 00 00 00 00 ................
0040D1B0 00 00 00 00 00 00 00 00 00 00 00 00 00 00 00 00 ................
0040D1C0 00 00 00 00 00 00 00 00 00 00 00 00 00 00 00 00 ................
0040D1D0 00 00 00 00 00 00 00 00 00 00 00 00 00 00 00 00 ................
0040D1E0 00 00 00 00 00 00 00 00 00 00 00 00 00 00 00 00 ................
0040D1F0 00 00 00 00 00 00 00 00 00 00 00 00 00 00 00 00 ................
0040D200 00 00 00 00 00 00 00 00 00 00 00 00 00 00 00 00 ................
0040D210 00 00 00 00 00 00 00 00 00 00 00 00 00 00 00 00 ................
0040D220 00 00 00 00 00 00 00 00 00 00 00 00 00 00 00 00 ................
0040D230 00 00 00 00 00 00 00 00 00 00 00 00 00 00 00 00 ................
0040D240 00 00 00 00 00 00 00 00 00 00 00 00 00 00 00 00 ................
0040D250 00 00 00 00 00 00 00 00 00 00 00 00 00 00 00 00 ................
0040D260 00 00 00 00 00 00 00 00 00 00 00 00 00 00 00 00 ................
0040D270 00 00 00 00 00 00 00 00 00 00 00 00 00 00 00 00 ................
0040D280 00 00 00 00 00 00 00 00 00 00 00 00 00 00 00 00 ................
0040D290 00 00 00 00 00 00 00 00 00 00 00 00 00 00 00 00 ................
0040D2A0 00 00 00 00 00 00 00 00 00 00 00 00 00 00 00 00 ................
0040D2B0 00 00 00 00 00 00 00 00 00 00 00 00 00 00 00 00 ................
0040D2C0 00 00 00 00 00 00 00 00 00 00 00 00 00 00 00 00 ................
0040D2D0 00 00 00 00 00 00 00 00 00 00 00 00 00 00 00 00 ................
0040D2E0 00 00 00 00 00 00 00 00 00 00 00 00 00 00 00 00 ................
0040D2F0 00 00 00 00 00 00 00 00 00 00 00 00 00 00 00 00 ................
0040D300 00 00 00 00 00 00 00 00 00 00 00 00 00 00 00 00 ................
0040D310 00 00 00 00 00 00 00 00 00 00 00 00 00 00 00 00 ................
0040D320 00 00 00 00 00 00 00 00 00 00 00 00 00 00 00 00 ................
0040D330 00 00 00 00 00 00 00 00 00 00 00 00 00 00 00 00 ................
0040D340 00 00 00 00 00 00 00 00 00 00 00 00 00 00 00 00 ................
0040D350 00 00 00 00 00 00 00 00 00 00 00 00 00 00 00 00 ................
0040D360 00 00 00 00 00 00 00 00 00 00 00 00 00 00 00 00 ................
0040D370 00 00 00 00 00 00 00 00 00 00 00 00 00 00 00 00 ................
0040D380 00 00 00 00 00 00 00 00 00 00 00 00 00 00 00 00 ................
0040D390 00 00 00 00 00 00 00 00 00 00 00 00 00 00 00 00 ................
0040D3A0 00 00 00 00 00 00 00 00 00 00 00 00 00 00 00 00 ................
0040D3B0 00 00 00 00 00 00 00 00 00 00 00 00 00 00 00 00 ................
0040D3C0 00 00 00 00 00 00 00 00 00 00 00 00 00 00 00 00 ................
0040D3D0 00 00 00 00 00 00 00 00 00 00 00 00 00 00 00 00 ................
0040D3E0 00 00 00 00 00 00 00 00 00 00 00 00 00 00 00 00 ................
0040D3F0 00 00 00 00 00 00 00 00 00 00 00 00 00 00 00 00 ................
0040D400 00 00 00 00 00 00 00 00 00 00 00 00 00 00 00 00 ................
0040D410 00 00 00 00 00 00 00 00 00 00 00 00 00 00 00 00 ................
0040D420 00 00 00 00 00 00 00 00 00 00 00 00 00 00 00 00 ................
0040D430 00 00 00 00 00 00 00 00 00 00 00 00 00 00 00 00 ................
0040D440 00 00 00 00 00 00 00 00 00 00 00 00 00 00 00 00 ................
0040D450 00 00 00 00 00 00 00 00 00 00 00 00 00 00 00 00 ................
0040D460 00 00 00 00 00 00 00 00 00 00 00 00 00 00 00 00 ................
0040D470 00 00 00 00 00 00 00 00 00 00 00 00 00 00 00 00 ................
0040D480 00 00 00 00 00 00 00 00 00 00 00 00 00 00 00 00 ................
0040D490 00 00 00 00 00 00 00 00 00 00 00 00 00 00 00 00 ................
0040D4A0 00 00 00 00 00 00 00 00 00 00 00 00 00 00 00 00 ................
0040D4B0 00 00 00 00 00 00 00 00 00 00 00 00 00 00 00 00 ................
0040D4C0 00 00 00 00 00 00 00 00 00 00 00 00 00 00 00 00 ................
0040D4D0 00 00 00 00 00 00 00 00 00 00 00 00 00 00 00 00 ................
0040D4E0 00 00 00 00 00 00 00 00 00 00 00 00 00 00 00 00 ................
0040D4F0 00 00 00 00 00 00 00 00 00 00 00 00 00 00 00 00 ................
0040D500 00 00 00 00 00 00 00 00 00 00 00 00 00 00 00 00 ................
0040D510 00 00 00 00 00 00 00 00 00 00 00 00 00 00 00 00 ................
0040D520 00 00 00 00 00 00 00 00 00 00 00 00 00 00 00 00 ................
0040D530 00 00 00 00 00 00 00 00 00 00 00 00 00 00 00 00 ................
0040D540 00 00 00 00 00 00 00 00 00 00 00 00 00 00 00 00 ................
0040D550 00 00 00 00 00 00 00 00 00 00 00 00 00 00 00 00 ................
0040D560 00 00 00 00 00 00 00 00 00 00 00 00 00 00 00 00 ................
0040D570 00 00 00 00 00 00 00 00 00 00 00 00 00 00 00 00 ................
0040D580 00 00 00 00 00 00 00 00 00 00 00 00 00 00 00 00 ................
0040D590 00 00 00 00 00 00 00 00 00 00 00 00 00 00 00 00 ................
0040D5A0 00 00 00 00 00 00 00 00 00 00 00 00 00 00 00 00 ................
0040D5B0 00 00 00 00 00 00 00 00 00 00 00 00 00 00 00 00 ................
0040D5C0 00 00 00 00 00 00 00 00 00 00 00 00 00 00 00 00 ................
0040D5D0 00 00 00 00 00 00 00 00 00 00 00 00 00 00 00 00 ................
0040D5E0 00 00 00 00 00 00 00 00 00 00 00 00 00 00 00 00 ................
0040D5F0 00 00 00 00 00 00 00 00 00 00 00 00 00 00 00 00 ................
0040D600 00 00 00 00 00 00 00 00 00 00 00 00 00 00 00 00 ................
0040D610 00 00 00 00 00 00 00 00 00 00 00 00 00 00 00 00 ................
0040D620 00 00 00 00 00 00 00 00 00 00 00 00 00 00 00 00 ................
0040D630 00 00 00 00 00 00 00 00 00 00 00 00 00 00 00 00 ................
0040D640 00 00 00 00 00 00 00 00 00 00 00 00 00 00 00 00 ................
0040D650 00 00 00 00 00 00 00 00 00 00 00 00 00 00 00 00 ................
0040D660 00 00 00 00 00 00 00 00 00 00 00 00 00 00 00 00 ................
0040D670 00 00 00 00 00 00 00 00 00 00 00 00 00 00 00 00 ................
0040D680 00 00 00 00 00 00 00 00 00 00 00 00 00 00 00 00 ................
0040D690 00 00 00 00 00 00 00 00 00 00 00 00 00 00 00 00 ................
0040D6A0 00 00 00 00 00 00 00 00 00 00 00 00 00 00 00 00 ................
0040D6B0 00 00 00 00 00 00 00 00 00 00 00 00 00 00 00 00 ................
0040D6C0 00 00 00 00 00 00 00 00 00 00 00 00 00 00 00 00 ................
0040D6D0 00 00 00 00 00 00 00 00 00 00 00 00 00 00 00 00 ................
0040D6E0 00 00 00 00 00 00 00 00 00 00 00 00 00 00 00 00 ................
0040D6F0 00 00 00 00 00 00 00 00 00 00 00 00 00 00 00 00 ................
0040D700 00 00 00 00 00 00 00 00 00 00 00 00 00 00 00 00 ................
0040D710 00 00 00 00 00 00 00 00 00 00 00 00 00 00 00 00 ................
0040D720 00 00 00 00 00 00 00 00 00 00 00 00 00 00 00 00 ................
0040D730 00 00 00 00 00 00 00 00 00 00 00 00 00 00 00 00 ................
0040D740 00 00 00 00 00 00 00 00 00 00 00 00 00 00 00 00 ................
0040D750 00 00 00 00 00 00 00 00 00 00 00 00 00 00 00 00 ................
0040D760 00 00 00 00 00 00 00 00 00 00 00 00 00 00 00 00 ................
0040D770 00 00 00 00 00 00 00 00 00 00 00 00 00 00 00 00 ................
0040D780 00 00 00 00 00 00 00 00 00 00 00 00 00 00 00 00 ................
0040D790 00 00 00 00 00 00 00 00 00 00 00 00 00 00 00 00 ................
0040D7A0 00 00 00 00 00 00 00 00 00 00 00 00 00 00 00 00 ................
0040D7B0 00 00 00 00 00 00 00 00 00 00 00 00 00 00 00 00 ................
0040D7C0 00 00 00 00 00 00 00 00 00 00 00 00 00 00 00 00 ................
0040D7D0 00 00 00 00 00 00 00 00 00 00 00 00 00 00 00 00 ................
0040D7E0 00 00 00 00 00 00 00 00 00 00 00 00 00 00 00 00 ................
0040D7F0 00 00 00 00 00 00 00 00 00 00 00 00 00 00 00 00 ................
0040D800 00 00 00 00 00 00 00 00 00 00 00 00 00 00 00 00 ................
0040D810 00 00 00 00 00 00 00 00 00 00 00 00 00 00 00 00 ................
0040D820 00 00 00 00 00 00 00 00 00 00 00 00 00 00 00 00 ................
0040D830 00 00 00 00 00 00 00 00 00 00 00 00 00 00 00 00 ................
0040D840 00 00 00 00 00 00 00 00 00 00 00 00 00 00 00 00 ................
0040D850 00 00 00 00 00 00 00 00 00 00 00 00 00 00 00 00 ................
0040D860 00 00 00 00 00 00 00 00 00 00 00 00 00 00 00 00 ................
0040D870 00 00 00 00 00 00 00 00 00 00 00 00 00 00 00 00 ................
0040D880 00 00 00 00 00 00 00 00 00 00 00 00 00 00 00 00 ................
0040D890 00 00 00 00 00 00 00 00 00 00 00 00 00 00 00 00 ................
0040D8A0 00 00 00 00 00 00 00 00 00 00 00 00 00 00 00 00 ................
0040D8B0 00 00 00 00 00 00 00 00 00 00 00 00 00 00 00 00 ................
0040D8C0 00 00 00 00 00 00 00 00 00 00 00 00 00 00 00 00 ................
0040D8D0 00 00 00 00 00 00 00 00 00 00 00 00 00 00 00 00 ................
0040D8E0 00 00 00 00 00 00 00 00 00 00 00 00 00 00 00 00 ................
0040D8F0 00 00 00 00 00 00 00 00 00 00 00 00 00 00 00 00 ................
0040D900 00 00 00 00 00 00 00 00 00 00 00 00 00 00 00 00 ................
0040D910 00 00 00 00 00 00 00 00 00 00 00 00 00 00 00 00 ................
0040D920 00 00 00 00 00 00 00 00 00 00 00 00 00 00 00 00 ................
0040D930 00 00 00 00 00 00 00 00 00 00 00 00 00 00 00 00 ................
0040D940 00 00 00 00 00 00 00 00 00 00 00 00 00 00 00 00 ................
0040D950 00 00 00 00 00 00 00 00 00 00 00 00 00 00 00 00 ................
0040D960 00 00 00 00 00 00 00 00 00 00 00 00 00 00 00 00 ................
0040D970 00 00 00 00 00 00 00 00 00 00 00 00 00 00 00 00 ................
0040D980 00 00 00 00 00 00 00 00 00 00 00 00 00 00 00 00 ................
0040D990 00 00 00 00 00 00 00 00 00 00 00 00 00 00 00 00 ................
0040D9A0 00 00 00 00 00 00 00 00 00 00 00 00 00 00 00 00 ................
0040D9B0 00 00 00 00 00 00 00 00 00 00 00 00 00 00 00 00 ................
0040D9C0 00 00 00 00 00 00 00 00 00 00 00 00 00 00 00 00 ................
0040D9D0 00 00 00 00 00 00 00 00 00 00 00 00 00 00 00 00 ................
0040D9E0 00 00 00 00 00 00 00 00 00 00 00 00 00 00 00 00 ................
0040D9F0 00 00 00 00 00 00 00 00 00 00 00 00 00 00 00 00 ................
0040DA00 00 00 00 00 00 00 00 00 00 00 00 00 00 00 00 00 ................
0040DA10 00 00 00 00 00 00 00 00 00 00 00 00 00 00 00 00 ................
0040DA20 00 00 00 00 00 00 00 00 00 00 00 00 00 00 00 00 ................
0040DA30 00 00 00 00 00 00 00 00 00 00 00 00 00 00 00 00 ................
0040DA40 00 00 00 00 00 00 00 00 00 00 00 00 00 00 00 00 ................
0040DA50 00 00 00 00 00 00 00 00 00 00 00 00 00 00 00 00 ................
0040DA60 00 00 00 00 00 00 00 00 00 00 00 00 00 00 00 00 ................
0040DA70 00 00 00 00 00 00 00 00 00 00 00 00 00 00 00 00 ................
0040DA80 00 00 00 00 00 00 00 00 00 00 00 00 00 00 00 00 ................
0040DA90 00 00 00 00 00 00 00 00 00 00 00 00 00 00 00 00 ................
0040DAA0 00 00 00 00 00 00 00 00 00 00 00 00 00 00 00 00 ................
0040DAB0 00 00 00 00 00 00 00 00 00 00 00 00 00 00 00 00 ................
0040DAC0 00 00 00 00 00 00 00 00 00 00 00 00 00 00 00 00 ................
0040DAD0 00 00 00 00 00 00 00 00 00 00 00 00 00 00 00 00 ................
0040DAE0 00 00 00 00 00 00 00 00 00 00 00 00 00 00 00 00 ................
0040DAF0 00 00 00 00 00 00 00 00 00 00 00 00 00 00 00 00 ................
0040DB00 00 00 00 00 00 00 00 00 00 00 00 00 00 00 00 00 ................
0040DB10 00 00 00 00 00 00 00 00 00 00 00 00 00 00 00 00 ................
0040DB20 00 00 00 00 00 00 00 00 00 00 00 00 00 00 00 00 ................
0040DB30 00 00 00 00 00 00 00 00 00 00 00 00 00 00 00 00 ................
0040DB40 00 00 00 00 00 00 00 00 00 00 00 00 00 00 00 00 ................
0040DB50 00 00 00 00 00 00 00 00 00 00 00 00 00 00 00 00 ................
0040DB60 00 00 00 00 00 00 00 00 00 00 00 00 00 00 00 00 ................
0040DB70 00 00 00 00 00 00 00 00 00 00 00 00 00 00 00 00 ................
0040DB80 00 00 00 00 00 00 00 00 00 00 00 00 00 00 00 00 ................
0040DB90 00 00 00 00 00 00 00 00 00 00 00 00 00 00 00 00 ................
0040DBA0 00 00 00 00 00 00 00 00 00 00 00 00 00 00 00 00 ................
0040DBB0 00 00 00 00 00 00 00 00 00 00 00 00 00 00 00 00 ................
0040DBC0 00 00 00 00 00 00 00 00 00 00 00 00 00 00 00 00 ................
0040DBD0 00 00 00 00 00 00 00 00 00 00 00 00 00 00 00 00 ................
0040DBE0 00 00 00 00 00 00 00 00 00 00 00 00 00 00 00 00 ................
0040DBF0 00 00 00 00 00 00 00 00 00 00 00 00 00 00 00 00 ................
0040DC00 00 00 00 00 00 00 00 00 00 00 00 00 00 00 00 00 ................
0040DC10 00 00 00 00 00 00 00 00 00 00 00 00 00 00 00 00 ................
0040DC20 00 00 00 00 00 00 00 00 00 00 00 00 00 00 00 00 ................
0040DC30 00 00 00 00 00 00 00 00 00 00 00 00 00 00 00 00 ................
0040DC40 00 00 00 00 00 00 00 00 00 00 00 00 00 00 00 00 ................
0040DC50 00 00 00 00 00 00 00 00 00 00 00 00 00 00 00 00 ................
0040DC60 00 00 00 00 00 00 00 00 00 00 00 00 00 00 00 00 ................
0040DC70 00 00 00 00 00 00 00 00 00 00 00 00 00 00 00 00 ................
0040DC80 00 00 00 00 00 00 00 00 00 00 00 00 00 00 00 00 ................
0040DC90 00 00 00 00 00 00 00 00 00 00 00 00 00 00 00 00 ................
0040DCA0 00 00 00 00 00 00 00 00 00 00 00 00 00 00 00 00 ................
0040DCB0 00 00 00 00 00 00 00 00 00 00 00 00 00 00 00 00 ................
0040DCC0 00 00 00 00 00 00 00 00 00 00 00 00 00 00 00 00 ................
0040DCD0 00 00 00 00 00 00 00 00 00 00 00 00 00 00 00 00 ................
0040DCE0 00 00 00 00 00 00 00 00 00 00 00 00 00 00 00 00 ................
0040DCF0 00 00 00 00 00 00 00 00 00 00 00 00 00 00 00 00 ................
0040DD00 00 00 00 00 00 00 00 00 00 00 00 00 00 00 00 00 ................
0040DD10 00 00 00 00 00 00 00 00 00 00 00 00 00 00 00 00 ................
0040DD20 00 00 00 00 00 00 00 00 00 00 00 00 00 00 00 00 ................
0040DD30 00 00 00 00 00 00 00 00 00 00 00 00 00 00 00 00 ................
0040DD40 00 00 00 00 00 00 00 00 00 00 00 00 00 00 00 00 ................
0040DD50 00 00 00 00 00 00 00 00 00 00 00 00 00 00 00 00 ................
0040DD60 00 00 00 00 00 00 00 00 00 00 00 00 00 00 00 00 ................
0040DD70 00 00 00 00 00 00 00 00 00 00 00 00 00 00 00 00 ................
0040DD80 00 00 00 00 00 00 00 00 00 00 00 00 00 00 00 00 ................
0040DD90 00 00 00 00 00 00 00 00 00 00 00 00 00 00 00 00 ................
0040DDA0 00 00 00 00 00 00 00 00 00 00 00 00 00 00 00 00 ................
0040DDB0 00 00 00 00 00 00 00 00 00 00 00 00 00 00 00 00 ................
0040DDC0 00 00 00 00 00 00 00 00 00 00 00 00 00 00 00 00 ................
0040DDD0 00 00 00 00 00 00 00 00 00 00 00 00 00 00 00 00 ................
0040DDE0 00 00 00 00 00 00 00 00 00 00 00 00 00 00 00 00 ................
0040DDF0 00 00 00 00 00 00 00 00 00 00 00 00 00 00 00 00 ................
0040DE00 00 00 00 00 00 00 00 00 00 00 00 00 00 00 00 00 ................
0040DE10 00 00 00 00 00 00 00 00 00 00 00 00 00 00 00 00 ................
0040DE20 00 00 00 00 00 00 00 00 00 00 00 00 00 00 00 00 ................
0040DE30 00 00 00 00 00 00 00 00 00 00 00 00 00 00 00 00 ................
0040DE40 00 00 00 00 00 00 00 00 00 00 00 00 00 00 00 00 ................
0040DE50 00 00 00 00 00 00 00 00 00 00 00 00 00 00 00 00 ................
0040DE60 00 00 00 00 00 00 00 00 00 00 00 00 00 00 00 00 ................
0040DE70 00 00 00 00 00 00 00 00 00 00 00 00 00 00 00 00 ................
0040DE80 00 00 00 00 00 00 00 00 00 00 00 00 00 00 00 00 ................
0040DE90 00 00 00 00 00 00 00 00 00 00 00 00 00 00 00 00 ................
0040DEA0 00 00 00 00 00 00 00 00 00 00 00 00 00 00 00 00 ................
0040DEB0 00 00 00 00 00 00 00 00 00 00 00 00 00 00 00 00 ................
0040DEC0 00 00 00 00 00 00 00 00 00 00 00 00 00 00 00 00 ................
0040DED0 00 00 00 00 00 00 00 00 00 00 00 00 00 00 00 00 ................
0040DEE0 00 00 00 00 00 00 00 00 00 00 00 00 00 00 00 00 ................
0040DEF0 00 00 00 00 00 00 00 00 00 00 00 00 00 00 00 00 ................
0040DF00 00 00 00 00 00 00 00 00 00 00 00 00 00 00 00 00 ................
0040DF10 00 00 00 00 00 00 00 00 00 00 00 00 00 00 00 00 ................
0040DF20 00 00 00 00 00 00 00 00 00 00 00 00 00 00 00 00 ................
0040DF30 00 00 00 00 00 00 00 00 00 00 00 00 00 00 00 00 ................
0040DF40 00 00 00 00 00 00 00 00 00 00 00 00 00 00 00 00 ................
0040DF50 00 00 00 00 00 00 00 00 00 00 00 00 00 00 00 00 ................
0040DF60 00 00 00 00 00 00 00 00 00 00 00 00 00 00 00 00 ................
0040DF70 00 00 00 00 00 00 00 00 00 00 00 00 00 00 00 00 ................
0040DF80 00 00 00 00 00 00 00 00 00 00 00 00 00 00 00 00 ................
0040DF90 00 00 00 00 00 00 00 00 00 00 00 00 00 00 00 00 ................
0040DFA0 00 00 00 00 00 00 00 00 00 00 00 00 00 00 00 00 ................
0040DFB0 00 00 00 00 00 00 00 00 00 00 00 00 00 00 00 00 ................
0040DFC0 00 00 00 00 00 00 00 00 00 00 00 00 00 00 00 00 ................
0040DFD0 00 00 00 00 00 00 00 00 00 00 00 00 00 00 00 00 ................
0040DFE0 00 00 00 00 00 00 00 00 00 00 00 00 00 00 00 00 ................
0040DFF0 00 00 00 00 00 00 00 00 00 00 00 00 00 00 00 00 ................
0040E000 00 00 00 00 00 00 00 00 00 00 00 00 00 00 00 00 ................
0040E010 00 00 00 00 00 00 00 00 00 00 00 00 00 00 00 00 ................
0040E020 00 00 00 00 00 00 00 00 00 00 00 00 00 00 00 00 ................
0040E030 00 00 00 00 00 00 00 00 00 00 00 00 00 00 00 00 ................
0040E040 00 00 00 00 00 00 00 00 00 00 00 00 00 00 00 00 ................
0040E050 00 00 00 00 00 00 00 00 00 00 00 00 00 00 00 00 ................
0040E060 00 00 00 00 00 00 00 00 00 00 00 00 00 00 00 00 ................
0040E070 00 00 00 00 00 00 00 00 00 00 00 00 00 00 00 00 ................
0040E080 00 00 00 00 00 00 00 00 00 00 00 00 00 00 00 00 ................
0040E090 00 00 00 00 00 00 00 00 00 00 00 00 00 00 00 00 ................
0040E0A0 00 00 00 00 00 00 00 00 00 00 00 00 00 00 00 00 ................
0040E0B0 00 00 00 00 00 00 00 00 00 00 00 00 00 00 00 00 ................
0040E0C0 00 00 00 00 00 00 00 00 00 00 00 00 00 00 00 00 ................
0040E0D0 00 00 00 00 00 00 00 00 00 00 00 00 00 00 00 00 ................
0040E0E0 00 00 00 00 00 00 00 00 00 00 00 00 00 00 00 00 ................
0040E0F0 00 00 00 00 00 00 00 00 00 00 00 00 00 00 00 00 ................
0040E100 00 00 00 00 00 00 00 00 00 00 00 00 00 00 00 00 ................
0040E110 00 00 00 00 00 00 00 00 00 00 00 00 00 00 00 00 ................
0040E120 00 00 00 00 00 00 00 00 00 00 00 00 00 00 00 00 ................
0040E130 00 00 00 00 00 00 00 00 00 00 00 00 00 00 00 00 ................
0040E140 00 00 00 00 00 00 00 00 00 00 00 00 00 00 00 00 ................
0040E150 00 00 00 00 00 00 00 00 00 00 00 00 00 00 00 00 ................
0040E160 00 00 00 00 00 00 00 00 00 00 00 00 00 00 00 00 ................
0040E170 00 00 00 00 00 00 00 00 00 00 00 00 00 00 00 00 ................
0040E180 00 00 00 00 00 00 00 00 00 00 00 00 00 00 00 00 ................
0040E190 00 00 00 00 00 00 00 00 00 00 00 00 00 00 00 00 ................
0040E1A0 00 00 00 00 00 00 00 00 00 00 00 00 00 00 00 00 ................
0040E1B0 00 00 00 00 00 00 00 00 00 00 00 00 00 00 00 00 ................
0040E1C0 00 00 00 00 00 00 00 00 00 00 00 00 00 00 00 00 ................
0040E1D0 00 00 00 00 00 00 00 00 00 00 00 00 00 00 00 00 ................
0040E1E0 00 00 00 00 00 00 00 00 00 00 00 00 00 00 00 00 ................
0040E1F0 00 00 00 00 00 00 00 00 00 00 00 00 00 00 00 00 ................
0040E200 00 00 00 00 00 00 00 00 00 00 00 00 00 00 00 00 ................
0040E210 00 00 00 00 00 00 00 00 00 00 00 00 00 00 00 00 ................
0040E220 00 00 00 00 00 00 00 00 00 00 00 00 00 00 00 00 ................
0040E230 00 00 00 00 00 00 00 00 00 00 00 00 00 00 00 00 ................
0040E240 00 00 00 00 00 00 00 00 00 00 00 00 00 00 00 00 ................
0040E250 00 00 00 00 00 00 00 00 00 00 00 00 00 00 00 00 ................
0040E260 00 00 00 00 00 00 00 00 00 00 00 00 00 00 00 00 ................
0040E270 00 00 00 00 00 00 00 00 00 00 00 00 00 00 00 00 ................
0040E280 00 00 00 00 00 00 00 00 00 00 00 00 00 00 00 00 ................
0040E290 00 00 00 00 00 00 00 00 00 00 00 00 00 00 00 00 ................
0040E2A0 00 00 00 00 00 00 00 00 00 00 00 00 00 00 00 00 ................
0040E2B0 00 00 00 00 00 00 00 00 00 00 00 00 00 00 00 00 ................
0040E2C0 00 00 00 00 00 00 00 00 00 00 00 00 00 00 00 00 ................
0040E2D0 00 00 00 00 00 00 00 00 00 00 00 00 00 00 00 00 ................
0040E2E0 00 00 00 00 00 00 00 00 00 00 00 00 00 00 00 00 ................
0040E2F0 00 00 00 00 00 00 00 00 00 00 00 00 00 00 00 00 ................
0040E300 00 00 00 00 00 00 00 00 00 00 00 00 00 00 00 00 ................
0040E310 00 00 00 00 00 00 00 00 00 00 00 00 00 00 00 00 ................
0040E320 00 00 00 00 00 00 00 00 00 00 00 00 00 00 00 00 ................
0040E330 00 00 00 00 00 00 00 00 00 00 00 00 00 00 00 00 ................
0040E340 00 00 00 00 00 00 00 00 00 00 00 00 00 00 00 00 ................
0040E350 00 00 00 00 00 00 00 00 00 00 00 00 00 00 00 00 ................
0040E360 00 00 00 00 00 00 00 00 00 00 00 00 00 00 00 00 ................
0040E370 00 00 00 00 00 00 00 00 00 00 00 00 00 00 00 00 ................
0040E380 00 00 00 00 00 00 00 00 00 00 00 00 00 00 00 00 ................
0040E390 00 00 00 00 00 00 00 00 00 00 00 00 00 00 00 00 ................
0040E3A0 00 00 00 00 00 00 00 00 00 00 00 00 00 00 00 00 ................
0040E3B0 00 00 00 00 00 00 00 00 00 00 00 00 00 00 00 00 ................
0040E3C0 00 00 00 00 00 00 00 00 00 00 00 00 00 00 00 00 ................
0040E3D0 00 00 00 00 00 00 00 00 00 00 00 00 00 00 00 00 ................
0040E3E0 00 00 00 00 00 00 00 00 00 00 00 00 00 00 00 00 ................
0040E3F0 00 00 00 00 00 00 00 00 00 00 00 00 00 00 00 00 ................
0040E400 00 00 00 00 00 00 00 00 00 00 00 00 00 00 00 00 ................
0040E410 00 00 00 00 00 00 00 00 00 00 00 00 00 00 00 00 ................
0040E420 00 00 00 00 00 00 00 00 00 00 00 00 00 00 00 00 ................
0040E430 00 00 00 00 00 00 00 00 00 00 00 00 00 00 00 00 ................
0040E440 00 00 00 00 00 00 00 00 00 00 00 00 00 00 00 00 ................
0040E450 00 00 00 00 00 00 00 00 00 00 00 00 00 00 00 00 ................
0040E460 00 00 00 00 00 00 00 00 00 00 00 00 00 00 00 00 ................
0040E470 00 00 00 00 00 00 00 00 00 00 00 00 00 00 00 00 ................
0040E480 00 00 00 00 00 00 00 00 00 00 00 00 00 00 00 00 ................
0040E490 00 00 00 00 00 00 00 00 00 00 00 00 00 00 00 00 ................
0040E4A0 00 00 00 00 00 00 00 00 00 00 00 00 00 00 00 00 ................
0040E4B0 00 00 00 00 00 00 00 00 00 00 00 00 00 00 00 00 ................
0040E4C0 00 00 00 00 00 00 00 00 00 00 00 00 00 00 00 00 ................
0040E4D0 00 00 00 00 00 00 00 00 00 00 00 00 00 00 00 00 ................
0040E4E0 00 00 00 00 00 00 00 00 00 00 00 00 00 00 00 00 ................
0040E4F0 00 00 00 00 00 00 00 00 00 00 00 00 00 00 00 00 ................
0040E500 00 00 00 00 00 00 00 00 00 00 00 00 00 00 00 00 ................
0040E510 00 00 00 00 00 00 00 00 00 00 00 00 00 00 00 00 ................
0040E520 00 00 00 00 00 00 00 00 00 00 00 00 00 00 00 00 ................
0040E530 00 00 00 00 00 00 00 00 00 00 00 00 00 00 00 00 ................
0040E540 00 00 00 00 00 00 00 00 00 00 00 00 00 00 00 00 ................
0040E550 00 00 00 00 00 00 00 00 00 00 00 00 00 00 00 00 ................
0040E560 00 00 00 00 00 00 00 00 00 00 00 00 00 00 00 00 ................
0040E570 00 00 00 00 00 00 00 00 00 00 00 00 00 00 00 00 ................
0040E580 00 00 00 00 00 00 00 00 00 00 00 00 00 00 00 00 ................
0040E590 00 00 00 00 00 00 00 00 00 00 00 00 00 00 00 00 ................
0040E5A0 00 00 00 00 00 00 00 00 00 00 00 00 00 00 00 00 ................
0040E5B0 00 00 00 00 00 00 00 00 00 00 00 00 00 00 00 00 ................
0040E5C0 00 00 00 00 00 00 00 00 00 00 00 00 00 00 00 00 ................
0040E5D0 00 00 00 00 00 00 00 00 00 00 00 00 00 00 00 00 ................
0040E5E0 00 00 00 00 00 00 00 00 00 00 00 00 00 00 00 00 ................
0040E5F0 00 00 00 00 00 00 00 00 00 00 00 00 00 00 00 00 ................
0040E600 00 00 00 00 00 00 00 00 00 00 00 00 00 00 00 00 ................
0040E610 00 00 00 00 00 00 00 00 00 00 00 00 00 00 00 00 ................
0040E620 00 00 00 00 00 00 00 00 00 00 00 00 00 00 00 00 ................
0040E630 00 00 00 00 00 00 00 00 00 00 00 00 00 00 00 00 ................
0040E640 00 00 00 00 00 00 00 00 00 00 00 00 00 00 00 00 ................
0040E650 00 00 00 00 00 00 00 00 00 00 00 00 00 00 00 00 ................
0040E660 00 00 00 00 00 00 00 00 00 00 00 00 00 00 00 00 ................
0040E670 00 00 00 00 00 00 00 00 00 00 00 00 00 00 00 00 ................
0040E680 00 00 00 00 00 00 00 00 00 00 00 00 00 00 00 00 ................
0040E690 00 00 00 00 00 00 00 00 00 00 00 00 00 00 00 00 ................
0040E6A0 00 00 00 00 00 00 00 00 00 00 00 00 00 00 00 00 ................
0040E6B0 00 00 00 00 00 00 00 00 00 00 00 00 00 00 00 00 ................
0040E6C0 00 00 00 00 00 00 00 00 00 00 00 00 00 00 00 00 ................
0040E6D0 00 00 00 00 00 00 00 00 00 00 00 00 00 00 00 00 ................
0040E6E0 00 00 00 00 00 00 00 00 00 00 00 00 00 00 00 00 ................
0040E6F0 00 00 00 00 00 00 00 00 00 00 00 00 00 00 00 00 ................
0040E700 00 00 00 00 00 00 00 00 00 00 00 00 00 00 00 00 ................
0040E710 00 00 00 00 00 00 00 00 00 00 00 00 00 00 00 00 ................
0040E720 00 00 00 00 00 00 00 00 00 00 00 00 00 00 00 00 ................
0040E730 00 00 00 00 00 00 00 00 00 00 00 00 00 00 00 00 ................
0040E740 00 00 00 00 00 00 00 00 00 00 00 00 00 00 00 00 ................
0040E750 00 00 00 00 00 00 00 00 00 00 00 00 00 00 00 00 ................
0040E760 00 00 00 00 00 00 00 00 00 00 00 00 00 00 00 00 ................
0040E770 00 00 00 00 00 00 00 00 00 00 00 00 00 00 00 00 ................
0040E780 00 00 00 00 00 00 00 00 00 00 00 00 00 00 00 00 ................
0040E790 00 00 00 00 00 00 00 00 00 00 00 00 00 00 00 00 ................
0040E7A0 00 00 00 00 00 00 00 00 00 00 00 00 00 00 00 00 ................
0040E7B0 00 00 00 00 00 00 00 00 00 00 00 00 00 00 00 00 ................
0040E7C0 00 00 00 00 00 00 00 00 00 00 00 00 00 00 00 00 ................
0040E7D0 00 00 00 00 00 00 00 00 00 00 00 00 00 00 00 00 ................
0040E7E0 00 00 00 00 00 00 00 00 00 00 00 00 00 00 00 00 ................
0040E7F0 00 00 00 00 00 00 00 00 00 00 00 00 00 00 00 00 ................
0040E800 00 00 00 00 00 00 00 00 00 00 00 00 00 00 00 00 ................
0040E810 00 00 00 00 00 00 00 00 00 00 00 00 00 00 00 00 ................
0040E820 00 00 00 00 00 00 00 00 00 00 00 00 00 00 00 00 ................
0040E830 00 00 00 00 00 00 00 00 00 00 00 00 00 00 00 00 ................
0040E840 00 00 00 00 00 00 00 00 00 00 00 00 00 00 00 00 ................
0040E850 00 00 00 00 00 00 00 00 00 00 00 00 00 00 00 00 ................
0040E860 00 00 00 00 00 00 00 00 00 00 00 00 00 00 00 00 ................
0040E870 00 00 00 00 00 00 00 00 00 00 00 00 00 00 00 00 ................
0040E880 00 00 00 00 00 00 00 00 00 00 00 00 00 00 00 00 ................
0040E890 00 00 00 00 00 00 00 00 00 00 00 00 00 00 00 00 ................
0040E8A0 00 00 00 00 00 00 00 00 00 00 00 00 00 00 00 00 ................
0040E8B0 00 00 00 00 00 00 00 00 00 00 00 00 00 00 00 00 ................
0040E8C0 00 00 00 00 00 00 00 00 00 00 00 00 00 00 00 00 ................
0040E8D0 00 00 00 00 00 00 00 00 00 00 00 00 00 00 00 00 ................
0040E8E0 00 00 00 00 00 00 00 00 00 00 00 00 00 00 00 00 ................
0040E8F0 00 00 00 00 00 00 00 00 00 00 00 00 00 00 00 00 ................
0040E900 00 00 00 00 00 00 00 00 00 00 00 00 00 00 00 00 ................
0040E910 00 00 00 00 00 00 00 00 00 00 00 00 00 00 00 00 ................
0040E920 00 00 00 00 00 00 00 00 00 00 00 00 00 00 00 00 ................
0040E930 00 00 00 00 00 00 00 00 00 00 00 00 00 00 00 00 ................
0040E940 00 00 00 00 00 00 00 00 00 00 00 00 00 00 00 00 ................
0040E950 00 00 00 00 00 00 00 00 00 00 00 00 00 00 00 00 ................
0040E960 00 00 00 00 00 00 00 00 00 00 00 00 00 00 00 00 ................
0040E970 00 00 00 00 00 00 00 00 00 00 00 00 00 00 00 00 ................
0040E980 00 00 00 00 00 00 00 00 00 00 00 00 00 00 00 00 ................
0040E990 00 00 00 00 00 00 00 00 00 00 00 00 00 00 00 00 ................
0040E9A0 00 00 00 00 00 00 00 00 00 00 00 00 00 00 00 00 ................
0040E9B0 00 00 00 00 00 00 00 00 00 00 00 00 00 00 00 00 ................
0040E9C0 00 00 00 00 00 00 00 00 00 00 00 00 00 00 00 00 ................
0040E9D0 00 00 00 00 00 00 00 00 00 00 00 00 00 00 00 00 ................
0040E9E0 00 00 00 00 00 00 00 00 00 00 00 00 00 00 00 00 ................
0040E9F0 00 00 00 00 00 00 00 00 00 00 00 00 00 00 00 00 ................
0040EA00 00 00 00 00 00 00 00 00 00 00 00 00 00 00 00 00 ................
0040EA10 00 00 00 00 00 00 00 00 00 00 00 00 00 00 00 00 ................
0040EA20 00 00 00 00 00 00 00 00 00 00 00 00 00 00 00 00 ................
0040EA30 00 00 00 00 00 00 00 00 00 00 00 00 00 00 00 00 ................
0040EA40 00 00 00 00 00 00 00 00 00 00 00 00 00 00 00 00 ................
0040EA50 00 00 00 00 00 00 00 00 00 00 00 00 00 00 00 00 ................
0040EA60 00 00 00 00 00 00 00 00 00 00 00 00 00 00 00 00 ................
0040EA70 00 00 00 00 00 00 00 00 00 00 00 00 00 00 00 00 ................
0040EA80 00 00 00 00 00 00 00 00 00 00 00 00 00 00 00 00 ................
0040EA90 00 00 00 00 00 00 00 00 00 00 00 00 00 00 00 00 ................
0040EAA0 00 00 00 00 00 00 00 00 00 00 00 00 00 00 00 00 ................
0040EAB0 00 00 00 00 00 00 00 00 00 00 00 00 00 00 00 00 ................
0040EAC0 00 00 00 00 00 00 00 00 00 00 00 00 00 00 00 00 ................
0040EAD0 00 00 00 00 00 00 00 00 00 00 00 00 00 00 00 00 ................
0040EAE0 00 00 00 00 00 00 00 00 00 00 00 00 00 00 00 00 ................
0040EAF0 00 00 00 00 00 00 00 00 00 00 00 00 00 00 00 00 ................
0040EB00 00 00 00 00 00 00 00 00 00 00 00 00 00 00 00 00 ................
0040EB10 00 00 00 00 00 00 00 00 00 00 00 00 00 00 00 00 ................
0040EB20 00 00 00 00 00 00 00 00 00 00 00 00 00 00 00 00 ................
0040EB30 00 00 00 00 00 00 00 00 00 00 00 00 00 00 00 00 ................
0040EB40 00 00 00 00 00 00 00 00 00 00 00 00 00 00 00 00 ................
0040EB50 00 00 00 00 00 00 00 00 00 00 00 00 00 00 00 00 ................
0040EB60 00 00 00 00 00 00 00 00 00 00 00 00 00 00 00 00 ................
0040EB70 00 00 00 00 00 00 00 00 00 00 00 00 00 00 00 00 ................
0040EB80 00 00 00 00 00 00 00 00 00 00 00 00 00 00 00 00 ................
0040EB90 00 00 00 00 00 00 00 00 00 00 00 00 00 00 00 00 ................
0040EBA0 00 00 00 00 00 00 00 00 00 00 00 00 00 00 00 00 ................
0040EBB0 00 00 00 00 00 00 00 00 00 00 00 00 00 00 00 00 ................
0040EBC0 00 00 00 00 00 00 00 00 00 00 00 00 00 00 00 00 ................
0040EBD0 00 00 00 00 00 00 00 00 00 00 00 00 00 00 00 00 ................
0040EBE0 00 00 00 00 00 00 00 00 00 00 00 00 00 00 00 00 ................
0040EBF0 00 00 00 00 00 00 00 00 00 00 00 00 00 00 00 00 ................
0040EC00 00 00 00 00 00 00 00 00 00 00 00 00 00 00 00 00 ................
0040EC10 00 00 00 00 00 00 00 00 00 00 00 00 00 00 00 00 ................
0040EC20 00 00 00 00 00 00 00 00 00 00 00 00 00 00 00 00 ................
0040EC30 00 00 00 00 00 00 00 00 00 00 00 00 00 00 00 00 ................
0040EC40 00 00 00 00 00 00 00 00 00 00 00 00 00 00 00 00 ................
0040EC50 00 00 00 00 00 00 00 00 00 00 00 00 00 00 00 00 ................
0040EC60 00 00 00 00 00 00 00 00 00 00 00 00 00 00 00 00 ................
0040EC70 00 00 00 00 00 00 00 00 00 00 00 00 00 00 00 00 ................
0040EC80 00 00 00 00 00 00 00 00 00 00 00 00 00 00 00 00 ................
0040EC90 00 00 00 00 00 00 00 00 00 00 00 00 00 00 00 00 ................
0040ECA0 00 00 00 00 00 00 00 00 00 00 00 00 00 00 00 00 ................
0040ECB0 00 00 00 00 00 00 00 00 00 00 00 00 00 00 00 00 ................
0040ECC0 00 00 00 00 00 00 00 00 00 00 00 00 00 00 00 00 ................
0040ECD0 00 00 00 00 00 00 00 00 00 00 00 00 00 00 00 00 ................
0040ECE0 00 00 00 00 00 00 00 00 00 00 00 00 00 00 00 00 ................
0040ECF0 00 00 00 00 00 00 00 00 00 00 00 00 00 00 00 00 ................
0040ED00 00 00 00 00 00 00 00 00 00 00 00 00 00 00 00 00 ................
0040ED10 00 00 00 00 00 00 00 00 00 00 00 00 00 00 00 00 ................
0040ED20 00 00 00 00 00 00 00 00 00 00 00 00 00 00 00 00 ................
0040ED30 00 00 00 00 00 00 00 00 00 00 00 00 00 00 00 00 ................
0040ED40 00 00 00 00 00 00 00 00 00 00 00 00 00 00 00 00 ................
0040ED50 00 00 00 00 00 00 00 00 00 00 00 00 00 00 00 00 ................
0040ED60 00 00 00 00 00 00 00 00 00 00 00 00 00 00 00 00 ................
0040ED70 00 00 00 00 00 00 00 00 00 00 00 00 00 00 00 00 ................
0040ED80 00 00 00 00 00 00 00 00 00 00 00 00 00 00 00 00 ................
0040ED90 00 00 00 00 00 00 00 00 00 00 00 00 00 00 00 00 ................
0040EDA0 00 00 00 00 00 00 00 00 00 00 00 00 00 00 00 00 ................
0040EDB0 00 00 00 00 00 00 00 00 00 00 00 00 00 00 00 00 ................
0040EDC0 00 00 00 00 00 00 00 00 00 00 00 00 00 00 00 00 ................
0040EDD0 00 00 00 00 00 00 00 00 00 00 00 00 00 00 00 00 ................
0040EDE0 00 00 00 00 00 00 00 00 00 00 00 00 00 00 00 00 ................
0040EDF0 00 00 00 00 00 00 00 00 00 00 00 00 00 00 00 00 ................
0040EE00 00 00 00 00 00 00 00 00 00 00 00 00 00 00 00 00 ................
0040EE10 00 00 00 00 00 00 00 00 00 00 00 00 00 00 00 00 ................
0040EE20 00 00 00 00 00 00 00 00 00 00 00 00 00 00 00 00 ................
0040EE30 00 00 00 00 00 00 00 00 00 00 00 00 00 00 00 00 ................
0040EE40 00 00 00 00 00 00 00 00 00 00 00 00 00 00 00 00 ................
0040EE50 00 00 00 00 00 00 00 00 00 00 00 00 00 00 00 00 ................
0040EE60 00 00 00 00 00 00 00 00 00 00 00 00 00 00 00 00 ................
0040EE70 00 00 00 00 00 00 00 00 00 00 00 00 00 00 00 00 ................
0040EE80 00 00 00 00 00 00 00 00 00 00 00 00 00 00 00 00 ................
0040EE90 00 00 00 00 00 00 00 00 00 00 00 00 00 00 00 00 ................
0040EEA0 00 00 00 00 00 00 00 00 00 00 00 00 00 00 00 00 ................
0040EEB0 00 00 00 00 00 00 00 00 00 00 00 00 00 00 00 00 ................
0040EEC0 00 00 00 00 00 00 00 00 00 00 00 00 00 00 00 00 ................
0040EED0 00 00 00 00 00 00 00 00 00 00 00 00 00 00 00 00 ................
0040EEE0 00 00 00 00 00 00 00 00 00 00 00 00 00 00 00 00 ................
0040EEF0 00 00 00 00 00 00 00 00 00 00 00 00 00 00 00 00 ................
0040EF00 00 00 00 00 00 00 00 00 00 00 00 00 00 00 00 00 ................
0040EF10 00 00 00 00 00 00 00 00 00 00 00 00 00 00 00 00 ................
0040EF20 00 00 00 00 00 00 00 00 00 00 00 00 00 00 00 00 ................
0040EF30 00 00 00 00 00 00 00 00 00 00 00 00 00 00 00 00 ................
0040EF40 00 00 00 00 00 00 00 00 00 00 00 00 00 00 00 00 ................
0040EF50 00 00 00 00 00 00 00 00 00 00 00 00 00 00 00 00 ................
0040EF60 00 00 00 00 00 00 00 00 00 00 00 00 00 00 00 00 ................
0040EF70 00 00 00 00 00 00 00 00 00 00 00 00 00 00 00 00 ................
0040EF80 00 00 00 00 00 00 00 00 00 00 00 00 00 00 00 00 ................
0040EF90 00 00 00 00 00 00 00 00 00 00 00 00 00 00 00 00 ................
0040EFA0 00 00 00 00 00 00 00 00 00 00 00 00 00 00 00 00 ................
0040EFB0 00 00 00 00 00 00 00 00 00 00 00 00 00 00 00 00 ................
0040EFC0 00 00 00 00 00 00 00 00 00 00 00 00 00 00 00 00 ................
0040EFD0 00 00 00 00 00 00 00 00 00 00 00 00 00 00 00 00 ................
0040EFE0 00 00 00 00 00 00 00 00 00 00 00 00 00 00 00 00 ................
0040EFF0 00 00 00 00 00 00 00 00 00 00 00 00 00 00 00 00 ................
0040F000 E8 F2 00 00 F6 F2 00 00 12 F3 00 00 20 F3 00 00 ............ ...
0040F010 2C F3 00 00 3C F3 00 00 4A F3 00 00 5A F3 00 00 ,...<...J...Z...
0040F020 6C F3 00 00 7E F3 00 00 8A F3 00 00 9C F3 00 00 l...~...........
0040F030 AA F3 00 00 B8 F3 00 00 C4 F3 00 00 D8 F3 00 00 ................
0040F040 E4 F3 00 00 F4 F3 00 00 04 F4 00 00 1C F4 00 00 ................
0040F050 2A F4 00 00 38 F4 00 00 48 F4 00 00 5A F4 00 00 *...8...H...Z...
0040F060 6C F4 00 00 7E F4 00 00 96 F4 00 00 A2 F4 00 00 l...~...........
0040F070 BA F4 00 00 C8 F4 00 00 DA F4 00 00 EC F4 00 00 ................
0040F080 FA F4 00 00 06 F5 00 00 12 F5 00 00 24 F5 00 00 ............$...
0040F090 32 F5 00 00 48 F5 00 00 58 F5 00 00 68 F5 00 00 2...H...X...h...
0040F0A0 7E F5 00 00 90 F5 00 00 9A F5 00 00 B2 F5 00 00 ~...............
0040F0B0 CC F5 00 00 DA F5 00 00 EC F5 00 00 FA F5 00 00 ................
0040F0C0 00 00 00 00 14 F6 00 00 2C F6 00 00 36 F6 00 00 ........,...6...
0040F0D0 48 F6 00 00 54 F6 00 00 66 F6 00 00 76 F6 00 00 H...T...f...v...
0040F0E0 86 F6 00 00 9A F6 00 00 AC F6 00 00 C0 F6 00 00 ................
0040F0F0 CE F6 00 00 D8 F6 00 00 EA F6 00 00 F8 F6 00 00 ................
0040F100 04 F7 00 00 10 F7 00 00 22 F7 00 00 30 F7 00 00 ........"...0...
0040F110 42 F7 00 00 50 F7 00 00 64 F7 00 00 6E F7 00 00 B...P...d...n...
0040F120 80 F7 00 00 92 F7 00 00 A2 F7 00 00 B2 F7 00 00 ................
0040F130 C6 F7 00 00 D6 F7 00 00 E6 F7 00 00 F4 F7 00 00 ................
0040F140 02 F8 00 00 14 F8 00 00 20 F8 00 00 32 F8 00 00 ........ ...2...
0040F150 00 00 00 00 00 00 00 00 94 F1 00 00 00 00 00 00 ................
0040F160 00 00 00 00 06 F6 00 00 00 F0 00 00 58 F2 00 00 ............X...
0040F170 00 00 00 00 00 00 00 00 46 F8 00 00 C4 F0 00 00 ........F.......
0040F180 00 00 00 00 00 00 00 00 00 00 00 00 00 00 00 00 ................
0040F190 00 00 00 00 E8 F2 00 00 F6 F2 00 00 12 F3 00 00 ................
0040F1A0 20 F3 00 00 2C F3 00 00 3C F3 00 00 4A F3 00 00  ...,...<...J...
0040F1B0 5A F3 00 00 6C F3 00 00 7E F3 00 00 8A F3 00 00 Z...l...~.......
0040F1C0 9C F3 00 00 AA F3 00 00 B8 F3 00 00 C4 F3 00 00 ................
0040F1D0 D8 F3 00 00 E4 F3 00 00 F4 F3 00 00 04 F4 00 00 ................
0040F1E0 1C F4 00 00 2A F4 00 00 38 F4 00 00 48 F4 00 00 ....*...8...H...
0040F1F0 5A F4 00 00 6C F4 00 00 7E F4 00 00 96 F4 00 00 Z...l...~.......
0040F200 A2 F4 00 00 BA F4 00 00 C8 F4 00 00 DA F4 00 00 ................
0040F210 EC F4 00 00 FA F4 00 00 06 F5 00 00 12 F5 00 00 ................
0040F220 24 F5 00 00 32 F5 00 00 48 F5 00 00 58 F5 00 00 $...2...H...X...
0040F230 68 F5 00 00 7E F5 00 00 90 F5 00 00 9A F5 00 00 h...~...........
0040F240 B2 F5 00 00 CC F5 00 00 DA F5 00 00 EC F5 00 00 ................
0040F250 FA F5 00 00 00 00 00 00 14 F6 00 00 2C F6 00 00 ............,...
0040F260 36 F6 00 00 48 F6 00 00 54 F6 00 00 66 F6 00 00 6...H...T...f...
0040F270 76 F6 00 00 86 F6 00 00 9A F6 00 00 AC F6 00 00 v...............
0040F280 C0 F6 00 00 CE F6 00 00 D8 F6 00 00 EA F6 00 00 ................
0040F290 F8 F6 00 00 04 F7 00 00 10 F7 00 00 22 F7 00 00 ............"...
0040F2A0 30 F7 00 00 42 F7 00 00 50 F7 00 00 64 F7 00 00 0...B...P...d...
0040F2B0 6E F7 00 00 80 F7 00 00 92 F7 00 00 A2 F7 00 00 n...............
0040F2C0 B2 F7 00 00 C6 F7 00 00 D6 F7 00 00 E6 F7 00 00 ................
0040F2D0 F4 F7 00 00 02 F8 00 00 14 F8 00 00 20 F8 00 00 ............ ...
0040F2E0 32 F8 00 00 00 00 00 00 1A 00 4C 6F 63 61 6C 41 2.........LocalA
0040F2F0 6C 6C 6F 63 00 00 1D 00 55 6E 68 61 6E 64 6C 65 lloc....Unhandle
0040F300 64 45 78 63 65 70 74 69 6F 6E 46 69 6C 74 65 72 dExceptionFilter
0040F310 00 00 21 00 43 6C 6F 73 65 48 61 6E 64 6C 65 00 ..!.CloseHandle.
0040F320 24 00 52 65 61 64 46 69 6C 65 00 00 26 00 4C 6F $.ReadFile..&.Lo
0040F330 61 64 4C 69 62 72 61 72 79 41 00 00 27 00 56 69 adLibraryA..'.Vi
0040F340 72 74 75 61 6C 46 72 65 65 00 28 00 47 65 74 56 rtualFree.(.GetV
0040F350 65 72 73 69 6F 6E 45 78 41 00 2C 00 53 65 74 46 ersionExA.,.SetF
0040F360 69 6C 65 50 6F 69 6E 74 65 72 00 00 30 00 47 65 ilePointer..0.Ge
0040F370 74 53 74 61 72 74 75 70 49 6E 66 6F 41 00 31 00 tStartupInfoA.1.
0040F380 4C 6F 63 61 6C 46 72 65 65 00 32 00 47 65 74 43 LocalFree.2.GetC
0040F390 6F 6D 6D 61 6E 64 4C 69 6E 65 41 00 36 00 48 65 ommandLineA.6.He
0040F3A0 61 70 44 65 73 74 72 6F 79 00 3C 00 46 72 65 65 apDestroy.<.Free
0040F3B0 4C 69 62 72 61 72 79 00 3D 00 6C 73 74 72 63 6D Library.=.lstrcm
0040F3C0 70 69 57 00 41 00 47 65 74 4D 6F 64 75 6C 65 48 piW.A.GetModuleH
0040F3D0 61 6E 64 6C 65 41 00 00 46 00 6C 73 74 72 63 70 andleA..F.lstrcp
0040F3E0 79 57 00 00 48 00 47 65 74 4C 61 73 74 45 72 72 yW..H.GetLastErr
0040F3F0 6F 72 00 00 4B 00 56 69 72 74 75 61 6C 41 6C 6C or..K.VirtualAll
0040F400 6F 63 00 00 4C 00 49 6E 74 65 72 6C 6F 63 6B 65 oc..L.Interlocke
0040F410 64 49 6E 63 72 65 6D 65 6E 74 00 00 4D 00 43 72 dIncrement..M.Cr
0040F420 65 61 74 65 46 69 6C 65 57 00 51 00 48 65 61 70 eateFileW.Q.Heap
0040F430 52 65 41 6C 6C 6F 63 00 52 00 56 69 72 74 75 61 ReAlloc.R.Virtua
0040F440 6C 41 6C 6C 6F 63 00 00 55 00 53 65 74 46 69 6C lAlloc..U.SetFil
0040F450 65 50 6F 69 6E 74 65 72 00 00 5A 00 53 65 74 46 ePointer..Z.SetF
0040F460 69 6C 65 50 6F 69 6E 74 65 72 00 00 5E 00 47 65 ilePointer..^.Ge
0040F470 74 53 74 61 72 74 75 70 49 6E 66 6F 57 00 64 00 tStartupInfoW.d.
0040F480 44 65 6C 65 74 65 43 72 69 74 69 63 61 6C 53 65 DeleteCriticalSe
0040F490 63 74 69 6F 6E 00 66 00 52 65 61 64 46 69 6C 65 ction.f.ReadFile
0040F4A0 00 00 6B 00 4C 65 61 76 65 43 72 69 74 69 63 61 ..k.LeaveCritica
0040F4B0 6C 53 65 63 74 69 6F 6E 00 00 71 00 46 72 65 65 lSection..q.Free
0040F4C0 4C 69 62 72 61 72 79 00 75 00 47 65 74 50 72 6F Library.u.GetPro
0040F4D0 63 41 64 64 72 65 73 73 00 00 7A 00 47 65 74 53 cAddress..z.GetS
0040F4E0 74 61 72 74 75 70 49 6E 66 6F 41 00 7D 00 48 65 tartupInfoA.}.He
0040F4F0 61 70 44 65 73 74 72 6F 79 00 82 00 6C 73 74 72 apDestroy...lstr
0040F500 63 70 79 57 00 00 85 00 6C 73 74 72 63 70 79 57 cpyW....lstrcpyW
0040F510 00 00 86 00 47 65 74 53 74 61 72 74 75 70 49 6E ....GetStartupIn
0040F520 66 6F 41 00 8B 00 56 69 72 74 75 61 6C 46 72 65 foA...VirtualFre
0040F530 65 00 8E 00 47 65 74 4D 6F 64 75 6C 65 46 69 6C e...GetModuleFil
0040F540 65 4E 61 6D 65 41 00 00 91 00 56 69 72 74 75 61 eNameA....Virtua
0040F550 6C 41 6C 6C 6F 63 00 00 95 00 56 69 72 74 75 61 lAlloc....Virtua
0040F560 6C 41 6C 6C 6F 63 00 00 96 00 47 65 74 4D 6F 64 lAlloc....GetMod
0040F570 75 6C 65 46 69 6C 65 4E 61 6D 65 41 00 00 9C 00 uleFileNameA....
0040F580 53 65 74 46 69 6C 65 50 6F 69 6E 74 65 72 00 00 SetFilePointer..
0040F590 9D 00 47 65 74 41 43 50 00 00 A2 00 45 6E 74 65 ..GetACP....Ente
0040F5A0 72 43 72 69 74 69 63 61 6C 53 65 63 74 69 6F 6E rCriticalSection
0040F5B0 00 00 A4 00 47 65 74 53 79 73 74 65 6D 54 69 6D ....GetSystemTim
0040F5C0 65 41 73 46 69 6C 65 54 69 6D 65 00 A9 00 46 72 eAsFileTime...Fr
0040F5D0 65 65 4C 69 62 72 61 72 79 00 AA 00 47 65 74 50 eeLibrary...GetP
0040F5E0 72 6F 63 41 64 64 72 65 73 73 00 00 AD 00 46 72 rocAddress....Fr
0040F5F0 65 65 4C 69 62 72 61 72 79 00 B1 00 52 65 61 64 eeLibrary...Read
0040F600 46 69 6C 65 00 00 4B 45 52 4E 45 4C 33 32 2E 44 File..KERNEL32.D
0040F610 4C 4C 00 00 24 00 53 79 73 74 65 6D 50 61 72 61 LL..$.SystemPara
0040F620 6D 65 74 65 72 73 49 6E 66 6F 57 00 28 00 47 65 metersInfoW.(.Ge
0040F630 74 4D 65 6E 75 00 2E 00 53 65 74 57 69 6E 64 6F tMenu...SetWindo
0040F640 77 54 65 78 74 57 00 00 33 00 49 73 49 63 6F 6E wTextW..3.IsIcon
0040F650 69 63 00 00 38 00 53 65 74 44 6C 67 49 74 65 6D ic..8.SetDlgItem
0040F660 54 65 78 74 57 00 3E 00 45 6E 61 62 6C 65 57 69 TextW.>.EnableWi
0040F670 6E 64 6F 77 00 00 41 00 55 70 64 61 74 65 57 69 ndow..A.UpdateWi
0040F680 6E 64 6F 77 00 00 45 00 52 65 67 69 73 74 65 72 ndow..E.Register
0040F690 43 6C 61 73 73 45 78 57 00 00 4A 00 47 65 74 57 ClassExW..J.GetW
0040F6A0 69 6E 64 6F 77 4C 6F 6E 67 57 00 00 4C 00 52 65 indowLongW..L.Re
0040F6B0 67 69 73 74 65 72 43 6C 61 73 73 45 78 57 00 00 gisterClassExW..
0040F6C0 4F 00 4C 6F 61 64 43 75 72 73 6F 72 57 00 53 00 O.LoadCursorW.S.
0040F6D0 47 65 74 4D 65 6E 75 00 54 00 53 65 74 57 69 6E GetMenu.T.SetWin
0040F6E0 64 6F 77 4C 6F 6E 67 57 00 00 5A 00 44 65 73 74 dowLongW..Z.Dest
0040F6F0 72 6F 79 49 63 6F 6E 00 60 00 53 65 74 54 69 6D royIcon.`.SetTim
0040F700 65 72 00 00 61 00 43 68 61 72 4E 65 78 74 57 00 er..a.CharNextW.
0040F710 63 00 44 69 61 6C 6F 67 42 6F 78 50 61 72 61 6D c.DialogBoxParam
0040F720 57 00 68 00 4C 6F 61 64 53 74 72 69 6E 67 57 00 W.h.LoadStringW.
0040F730 6E 00 53 63 72 65 65 6E 54 6F 43 6C 69 65 6E 74 n.ScreenToClient
0040F740 00 00 73 00 47 65 74 44 6C 67 49 74 65 6D 00 00 ..s.GetDlgItem..
0040F750 77 00 47 65 74 53 79 73 74 65 6D 4D 65 74 72 69 w.GetSystemMetri
0040F760 63 73 00 00 7C 00 53 65 74 52 65 63 74 00 7D 00 cs..|.SetRect.}.
0040F770 53 65 74 57 69 6E 64 6F 77 4C 6F 6E 67 57 00 00 SetWindowLongW..
0040F780 7E 00 53 63 72 65 65 6E 54 6F 43 6C 69 65 6E 74 ~.ScreenToClient
0040F790 00 00 82 00 53 65 74 57 69 6E 64 6F 77 50 6F 73 ....SetWindowPos
0040F7A0 00 00 88 00 47 65 74 43 75 72 73 6F 72 50 6F 73 ....GetCursorPos
0040F7B0 00 00 8A 00 44 69 73 70 61 74 63 68 4D 65 73 73 ....DispatchMess
0040F7C0 61 67 65 41 00 00 8E 00 44 65 73 74 72 6F 79 57 ageA....DestroyW
0040F7D0 69 6E 64 6F 77 00 91 00 50 6F 73 74 4D 65 73 73 indow...PostMess
0040F7E0 61 67 65 57 00 00 92 00 4C 6F 61 64 43 75 72 73 ageW....LoadCurs
0040F7F0 6F 72 57 00 96 00 4D 65 73 73 61 67 65 42 65 65 orW...MessageBee
0040F800 70 00 99 00 53 65 74 57 69 6E 64 6F 77 4C 6F 6E p...SetWindowLon
0040F810 67 57 00 00 9F 00 53 65 74 54 69 6D 65 72 00 00 gW....SetTimer..
0040F820 A5 00 52 65 6C 65 61 73 65 43 61 70 74 75 72 65 ..ReleaseCapture
0040F830 00 00 A7 00 47 65 74 53 79 73 74 65 6D 4D 65 74 ....GetSystemMet
0040F840 72 69 63 73 00 00 55 53 45 52 33 32 2E 44 4C 4C rics..USER32.DLL
0040F850 00 00 00 00 00 00 00 00 00 00 00 00 00 00 00 00 ................
0040F860 00 00 00 00 00 00 00 00 00 00 00 00 00 00 00 00 ................
0040F870 00 00 00 00 00 00 00 00 00 00 00 00 00 00 00 00 ................
0040F880 00 00 00 00 00 00 00 00 00 00 00 00 00 00 00 00 ................
0040F890 00 00 00 00 00 00 00 00 00 00 00 00 00 00 00 00 ................
0040F8A0 00 00 00 00 00 00 00 00 00 00 00 00 00 00 00 00 ................
0040F8B0 00 00 00 00 00 00 00 00 00 00 00 00 00 00 00 00 ................
0040F8C0 00 00 00 00 00 00 00 00 00 00 00 00 00 00 00 00 ................
0040F8D0 00 00 00 00 00 00 00 00 00 00 00 00 00 00 00 00 ................
0040F8E0 00 00 00 00 00 00 00 00 00 00 00 00 00 00 00 00 ................
0040F8F0 00 00 00 00 00 00 00 00 00 00 00 00 00 00 00 00 ................
0040F900 00 00 00 00 00 00 00 00 00 00 00 00 00 00 00 00 ................
0040F910 00 00 00 00 00 00 00 00 00 00 00 00 00 00 00 00 ................
0040F920 00 00 00 00 00 00 00 00 00 00 00 00 00 00 00 00 ................
0040F930 00 00 00 00 00 00 00 00 00 00 00 00 00 00 00 00 ................
0040F940 00 00 00 00 00 00 00 00 00 00 00 00 00 00 00 00 ................
0040F950 00 00 00 00 00 00 00 00 00 00 00 00 00 00 00 00 ................
0040F960 00 00 00 00 00 00 00 00 00 00 00 00 00 00 00 00 ................
0040F970 00 00 00 00 00 00 00 00 00 00 00 00 00 00 00 00 ................
0040F980 00 00 00 00 00 00 00 00 00 00 00 00 00 00 00 00 ................
0040F990 00 00 00 00 00 00 00 00 00 00 00 00 00 00 00 00 ................
0040F9A0 00 00 00 00 00 00 00 00 00 00 00 00 00 00 00 00 ................
0040F9B0 00 00 00 00 00 00 00 00 00 00 00 00 00 00 00 00 ................
0040F9C0 00 00 00 00 00 00 00 00 00 00 00 00 00 00 00 00 ................
0040F9D0 00 00 00 00 00 00 00 00 00 00 00 00 00 00 00 00 ................
0040F9E0 00 00 00 00 00 00 00 00 00 00 00 00 00 00 00 00 ................
0040F9F0 00 00 00 00 00 00 00 00 00 00 00 00 00 00 00 00 ................
0040FA00 00 00 00 00 00 00 00 00 00 00 00 00 00 00 00 00 ................
0040FA10 00 00 00 00 00 00 00 00 00 00 00 00 00 00 00 00 ................
0040FA20 00 00 00 00 00 00 00 00 00 00 00 00 00 00 00 00 ................
0040FA30 00 00 00 00 00 00 00 00 00 00 00 00 00 00 00 00 ................
0040FA40 00 00 00 00 00 00 00 00 00 00 00 00 00 00 00 00 ................
0040FA50 00 00 00 00 00 00 00 00 00 00 00 00 00 00 00 00 ................
0040FA60 00 00 00 00 00 00 00 00 00 00 00 00 00 00 00 00 ................
0040FA70 00 00 00 00 00 00 00 00 00 00 00 00 00 00 00 00 ................
0040FA80 00 00 00 00 00 00 00 00 00 00 00 00 00 00 00 00 ................
0040FA90 00 00 00 00 00 00 00 00 00 00 00 00 00 00 00 00 ................
0040FAA0 00 00 00 00 00 00 00 00 00 00 00 00 00 00 00 00 ................
0040FAB0 00 00 00 00 00 00 00 00 00 00 00 00 00 00 00 00 ................
0040FAC0 00 00 00 00 00 00 00 00 00 00 00 00 00 00 00 00 ................
0040FAD0 00 00 00 00 00 00 00 00 00 00 00 00 00 00 00 00 ................
0040FAE0 00 00 00 00 00 00 00 00 00 00 00 00 00 00 00 00 ................
0040FAF0 00 00 00 00 00 00 00 00 00 00 00 00 00 00 00 00 ................
0040FB00 00 00 00 00 00 00 00 00 00 00 00 00 00 00 00 00 ................
0040FB10 00 00 00 00 00 00 00 00 00 00 00 00 00 00 00 00 ................
0040FB20 00 00 00 00 00 00 00 00 00 00 00 00 00 00 00 00 ................
0040FB30 00 00 00 00 00 00 00 00 00 00 00 00 00 00 00 00 ................
0040FB40 00 00 00 00 00 00 00 00 00 00 00 00 00 00 00 00 ................
0040FB50 00 00 00 00 00 00 00 00 00 00 00 00 00 00 00 00 ................
0040FB60 00 00 00 00 00 00 00 00 00 00 00 00 00 00 00 00 ................
0040FB70 00 00 00 00 00 00 00 00 00 00 00 00 00 00 00 00 ................
0040FB80 00 00 00 00 00 00 00 00 00 00 00 00 00 00 00 00 ................
0040FB90 00 00 00 00 00 00 00 00 00 00 00 00 00 00 00 00 ................
0040FBA0 00 00 00 00 00 00 00 00 00 00 00 00 00 00 00 00 ................
0040FBB0 00 00 00 00 00 00 00 00 00 00 00 00 00 00 00 00 ................
0040FBC0 00 00 00 00 00 00 00 00 00 00 00 00 00 00 00 00 ................
0040FBD0 00 00 00 00 00 00 00 00 00 00 00 00 00 00 00 00 ................
0040FBE0 00 00 00 00 00 00 00 00 00 00 00 00 00 00 00 00 ................
0040FBF0 00 00 00 00 00 00 00 00 00 00 00 00 00 00 00 00 ................
0040FC00 00 00 00 00 00 00 00 00 00 00 00 00 00 00 00 00 ................
0040FC10 00 00 00 00 00 00 00 00 00 00 00 00 00 00 00 00 ................
0040FC20 00 00 00 00 00 00 00 00 00 00 00 00 00 00 00 00 ................
0040FC30 00 00 00 00 00 00 00 00 00 00 00 00 00 00 00 00 ................
0040FC40 00 00 00 00 00 00 00 00 00 00 00 00 00 00 00 00 ................
0040FC50 00 00 00 00 00 00 00 00 00 00 00 00 00 00 00 00 ................
0040FC60 00 00 00 00 00 00 00 00 00 00 00 00 00 00 00 00 ................
0040FC70 00 00 00 00 00 00 00 00 00 00 00 00 00 00 00 00 ................
0040FC80 00 00 00 00 00 00 00 00 00 00 00 00 00 00 00 00 ................
0040FC90 00 00 00 00 00 00 00 00 00 00 00 00 00 00 00 00 ................
0040FCA0 00 00 00 00 00 00 00 00 00 00 00 00 00 00 00 00 ................
0040FCB0 00 00 00 00 00 00 00 00 00 00 00 00 00 00 00 00 ................
0040FCC0 00 00 00 00 00 00 00 00 00 00 00 00 00 00 00 00 ................
0040FCD0 00 00 00 00 00 00 00 00 00 00 00 00 00 00 00 00 ................
0040FCE0 00 00 00 00 00 00 00 00 00 00 00 00 00 00 00 00 ................
0040FCF0 00 00 00 00 00 00 00 00 00 00 00 00 00 00 00 00 ................
0040FD00 00 00 00 00 00 00 00 00 00 00 00 00 00 00 00 00 ................
0040FD10 00 00 00 00 00 00 00 00 00 00 00 00 00 00 00 00 ................
0040FD20 00 00 00 00 00 00 00 00 00 00 00 00 00 00 00 00 ................
0040FD30 00 00 00 00 00 00 00 00 00 00 00 00 00 00 00 00 ................
0040FD40 00 00 00 00 00 00 00 00 00 00 00 00 00 00 00 00 ................
0040FD50 00 00 00 00 00 00 00 00 00 00 00 00 00 00 00 00 ................
0040FD60 00 00 00 00 00 00 00 00 00 00 00 00 00 00 00 00 ................
0040FD70 00 00 00 00 00 00 00 00 00 00 00 00 00 00 00 00 ................
0040FD80 00 00 00 00 00 00 00 00 00 00 00 00 00 00 00 00 ................
0040FD90 00 00 00 00 00 00 00 00 00 00 00 00 00 00 00 00 ................
0040FDA0 00 00 00 00 00 00 00 00 00 00 00 00 00 00 00 00 ................
0040FDB0 00 00 00 00 00 00 00 00 00 00 00 00 00 00 00 00 ................
0040FDC0 00 00 00 00 00 00 00 00 00 00 00 00 00 00 00 00 ................
0040FDD0 00 00 00 00 00 00 00 00 00 00 00 00 00 00 00 00 ................
0040FDE0 00 00 00 00 00 00 00 00 00 00 00 00 00 00 00 00 ................
0040FDF0 00 00 00 00 00 00 00 00 00 00 00 00 00 00 00 00 ................
0040FE00 00 00 00 00 00 00 00 00 00 00 00 00 00 00 00 00 ................
0040FE10 00 00 00 00 00 00 00 00 00 00 00 00 00 00 00 00 ................
0040FE20 00 00 00 00 00 00 00 00 00 00 00 00 00 00 00 00 ................
0040FE30 00 00 00 00 00 00 00 00 00 00 00 00 00 00 00 00 ................
0040FE40 00 00 00 00 00 00 00 00 00 00 00 00 00 00 00 00 ................
0040FE50 00 00 00 00 00 00 00 00 00 00 00 00 00 00 00 00 ................
0040FE60 00 00 00 00 00 00 00 00 00 00 00 00 00 00 00 00 ................
0040FE70 00 00 00 00 00 00 00 00 00 00 00 00 00 00 00 00 ................
0040FE80 00 00 00 00 00 00 00 00 00 00 00 00 00 00 00 00 ................
0040FE90 00 00 00 00 00 00 00 00 00 00 00 00 00 00 00 00 ................
0040FEA0 00 00 00 00 00 00 00 00 00 00 00 00 00 00 00 00 ................
0040FEB0 00 00 00 00 00 00 00 00 00 00 00 00 00 00 00 00 ................
0040FEC0 00 00 00 00 00 00 00 00 00 00 00 00 00 00 00 00 ................
0040FED0 00 00 00 00 00 00 00 00 00 00 00 00 00 00 00 00 ................
0040FEE0 00 00 00 00 00 00 00 00 00 00 00 00 00 00 00 00 ................
0040FEF0 00 00 00 00 00 00 00 00 00 00 00 00 00 00 00 00 ................
0040FF00 00 00 00 00 00 00 00 00 00 00 00 00 00 00 00 00 ................
0040FF10 00 00 00 00 00 00 00 00 00 00 00 00 00 00 00 00 ................
0040FF20 00 00 00 00 00 00 00 00 00 00 00 00 00 00 00 00 ................
0040FF30 00 00 00 00 00 00 00 00 00 00 00 00 00 00 00 00 ................
0040FF40 00 00 00 00 00 00 00 00 00 00 00 00 00 00 00 00 ................
0040FF50 00 00 00 00 00 00 00 00 00 00 00 00 00 00 00 00 ................
0040FF60 00 00 00 00 00 00 00 00 00 00 00 00 00 00 00 00 ................
0040FF70 00 00 00 00 00 00 00 00 00 00 00 00 00 00 00 00 ................
0040FF80 00 00 00 00 00 00 00 00 00 00 00 00 00 00 00 00 ................
0040FF90 00 00 00 00 00 00 00 00 00 00 00 00 00 00 00 00 ................
0040FFA0 00 00 00 00 00 00 00 00 00 00 00 00 00 00 00 00 ................
0040FFB0 00 00 00 00 00 00 00 00 00 00 00 00 00 00 00 00 ................
0040FFC0 00 00 00 00 00 00 00 00 00 00 00 00 00 00 00 00 ................
0040FFD0 00 00 00 00 00 00 00 00 00 00 00 00 00 00 00 00 ................
0040FFE0 00 00 00 00 00 00 00 00 00 00 00 00 00 00 00 00 ................
0040FFF0 00 00 00 00 00 00 00 00 00 00 00 00 00 00 00 00 ................
00410000 00 00 00 00 00 00 00 00 00 00 00 00 00 00 03 00 ................
00410010 03 00 00 00 28 00 00 80 0E 00 00 00 40 00 00 80 ....(.......@...
00410020 10 00 00 00 58 00 00 80 00 00 00 00 00 00 00 00 ....X...........
00410030 00 00 00 00 00 00 01 00 01 00 00 00 70 00 00 80 ............p...
00410040 00 00 00 00 00 00 00 00 00 00 00 00 00 00 01 00 ................
00410050 28 71 00 00 88 00 00 80 00 00 00 00 00 00 00 00 (q..............
00410060 00 00 00 00 00 00 01 00 A8 34 00 00 A0 00 00 80 .........4......
00410070 00 00 00 00 00 00 00 00 00 00 00 00 00 00 01 00 ................
00410080 19 04 00 00 B8 00 00 00 00 00 00 00 00 00 00 00 ................
00410090 00 00 00 00 00 00 01 00 19 04 00 00 C8 00 00 00 ................
004100A0 00 00 00 00 00 00 00 00 00 00 00 00 00 00 01 00 ................
004100B0 19 04 00 00 D8 00 00 00 E8 00 01 00 A8 08 00 00 ................
004100C0 00 00 00 00 00 00 00 00 90 09 01 00 14 00 00 00 ................
004100D0 00 00 00 00 00 00 00 00 A4 09 01 00 F8 02 00 00 ................
004100E0 00 00 00 00 00 00 00 00 28 00 00 00 20 00 00 00 ........(... ...
004100F0 40 00 00 00 01 00 08 00 00 00 00 00 00 04 00 00 @...............
00410100 00 00 00 00 00 00 00 00 00 00 00 00 00 00 00 00 ................
00410110 00 00 00 00 00 00 80 00 00 80 00 00 00 80 80 00 ................
00410120 80 00 00 00 80 00 80 00 80 80 00 00 C0 C0 C0 00 ................
00410130 C0 DC C0 00 F0 CA A6 00 00 20 40 00 00 20 60 00 ......... @.. `.
00410140 00 20 80 00 00 20 A0 00 00 20 C0 00 00 20 E0 00 . ... ... ... ..
00410150 00 40 00 00 00 40 20 00 00 40 40 00 00 40 60 00 .@...@ ..@@..@`.
00410160 00 40 80 00 00 40 A0 00 00 40 C0 00 00 40 E0 00 .@...@...@...@..
00410170 00 60 00 00 00 60 20 00 00 60 40 00 00 60 60 00 .`...` ..`@..``.
00410180 00 60 80 00 00 60 A0 00 00 60 C0 00 00 60 E0 00 .`...`...`...`..
00410190 00 80 00 00 00 80 20 00 00 80 40 00 00 80 60 00 ...... ...@...`.
004101A0 00 80 80 00 00 80 A0 00 00 80 C0 00 00 80 E0 00 ................
004101B0 00 A0 00 00 00 A0 20 00 00 A0 40 00 00 A0 60 00 ...... ...@...`.
004101C0 00 A0 80 00 00 A0 A0 00 00 A0 C0 00 00 A0 E0 00 ................
004101D0 00 C0 00 00 00 C0 20 00 00 C0 40 00 00 C0 60 00 ...... ...@...`.
004101E0 00 C0 80 00 00 C0 A0 00 00 C0 C0 00 00 C0 E0 00 ................
004101F0 00 E0 00 00 00 E0 20 00 00 E0 40 00 00 E0 60 00 ...... ...@...`.
00410200 00 E0 80 00 00 E0 A0 00 00 E0 C0 00 00 E0 E0 00 ................
00410210 40 00 00 00 40 00 20 00 40 00 40 00 40 00 60 00 @...@. .@.@.@.`.
00410220 40 00 80 00 40 00 A0 00 40 00 C0 00 40 00 E0 00 @...@...@...@...
00410230 40 20 00 00 40 20 20 00 40 20 40 00 40 20 60 00 @ ..@  .@ @.@ `.
00410240 40 20 80 00 40 20 A0 00 40 20 C0 00 40 20 E0 00 @ ..@ ..@ ..@ ..
00410250 40 40 00 00 40 40 20 00 40 40 40 00 40 40 60 00 @@..@@ .@@@.@@`.
00410260 40 40 80 00 40 40 A0 00 40 40 C0 00 40 40 E0 00 @@..@@..@@..@@..
00410270 40 60 00 00 40 60 20 00 40 60 40 00 40 60 60 00 @`..@` .@`@.@``.
00410280 40 60 80 00 40 60 A0 00 40 60 C0 00 40 60 E0 00 @`..@`..@`..@`..
00410290 40 80 00 00 40 80 20 00 40 80 40 00 40 80 60 00 @...@. .@.@.@.`.
004102A0 40 80 80 00 40 80 A0 00 40 80 C0 00 40 80 E0 00 @...@...@...@...
004102B0 40 A0 00 00 40 A0 20 00 40 A0 40 00 40 A0 60 00 @...@. .@.@.@.`.
004102C0 40 A0 80 00 40 A0 A0 00 40 A0 C0 00 40 A0 E0 00 @...@...@...@...
004102D0 40 C0 00 00 40 C0 20 00 40 C0 40 00 40 C0 60 00 @...@. .@.@.@.`.
004102E0 40 C0 80 00 40 C0 A0 00 40 C0 C0 00 40 C0 E0 00 @...@...@...@...
004102F0 40 E0 00 00 40 E0 20 00 40 E0 40 00 40 E0 60 00 @...@. .@.@.@.`.
00410300 40 E0 80 00 40 E0 A0 00 40 E0 C0 00 40 E0 E0 00 @...@...@...@...
00410310 80 00 00 00 80 00 20 00 80 00 40 00 80 00 60 00 ...... ...@...`.
00410320 80 00 80 00 80 00 A0 00 80 00 C0 00 80 00 E0 00 ................
00410330 80 20 00 00 80 20 20 00 80 20 40 00 80 20 60 00 . ...  .. @.. `.
00410340 80 20 80 00 80 20 A0 00 80 20 C0 00 80 20 E0 00 . ... ... ... ..
00410350 80 40 00 00 80 40 20 00 80 40 40 00 80 40 60 00 .@...@ ..@@..@`.
00410360 80 40 80 00 80 40 A0 00 80 40 C0 00 80 40 E0 00 .@...@...@...@..
00410370 80 60 00 00 80 60 20 00 80 60 40 00 80 60 60 00 .`...` ..`@..``.
00410380 80 60 80 00 80 60 A0 00 80 60 C0 00 80 60 E0 00 .`...`...`...`..
00410390 80 80 00 00 80 80 20 00 80 80 40 00 80 80 60 00 ...... ...@...`.
004103A0 80 80 80 00 80 80 A0 00 80 80 C0 00 80 80 E0 00 ................
004103B0 80 A0 00 00 80 A0 20 00 80 A0 40 00 80 A0 60 00 ...... ...@...`.
004103C0 80 A0 80 00 80 A0 A0 00 80 A0 C0 00 80 A0 E0 00 ................
004103D0 80 C0 00 00 80 C0 20 00 80 C0 40 00 80 C0 60 00 ...... ...@...`.
004103E0 80 C0 80 00 80 C0 A0 00 80 C0 C0 00 80 C0 E0 00 ................
004103F0 80 E0 00 00 80 E0 20 00 80 E0 40 00 80 E0 60 00 ...... ...@...`.
00410400 80 E0 80 00 80 E0 A0 00 80 E0 C0 00 80 E0 E0 00 ................
00410410 C0 00 00 00 C0 00 20 00 C0 00 40 00 C0 00 60 00 ...... ...@...`.
00410420 C0 00 80 00 C0 00 A0 00 C0 00 C0 00 C0 00 E0 00 ................
00410430 C0 20 00 00 C0 20 20 00 C0 20 40 00 C0 20 60 00 . ...  .. @.. `.
00410440 C0 20 80 00 C0 20 A0 00 C0 20 C0 00 C0 20 E0 00 . ... ... ... ..
00410450 C0 40 00 00 C0 40 20 00 C0 40 40 00 C0 40 60 00 .@...@ ..@@..@`.
00410460 C0 40 80 00 C0 40 A0 00 C0 40 C0 00 C0 40 E0 00 .@...@...@...@..
00410470 C0 60 00 00 C0 60 20 00 C0 60 40 00 C0 60 60 00 .`...` ..`@..``.
00410480 C0 60 80 00 C0 60 A0 00 C0 60 C0 00 C0 60 E0 00 .`...`...`...`..
00410490 C0 80 00 00 C0 80 20 00 C0 80 40 00 C0 80 60 00 ...... ...@...`.
004104A0 C0 80 80 00 C0 80 A0 00 C0 80 C0 00 C0 80 E0 00 ................
004104B0 C0 A0 00 00 C0 A0 20 00 C0 A0 40 00 C0 A0 60 00 ...... ...@...`.
004104C0 C0 A0 80 00 C0 A0 A0 00 C0 A0 C0 00 C0 A0 E0 00 ................
004104D0 C0 C0 00 00 C0 C0 20 00 C0 C0 40 00 C0 C0 60 00 ...... ...@...`.
004104E0 C0 C0 80 00 C0 C0 A0 00 F0 FB FF 00 A4 A0 A0 00 ................
004104F0 80 80 80 00 00 00 FF 00 00 FF 00 00 00 FF FF 00 ................
00410500 FF 00 00 00 FF 00 FF 00 FF FF 00 00 FF FF FF 00 ................
00410510 00 00 00 00 00 00 00 00 00 00 00 00 00 00 00 00 ................
00410520 00 00 00 00 00 00 00 00 00 00 00 00 00 00 00 00 ................
00410530 00 00 00 00 00 00 ED A3 9A 9A 92 92 92 92 92 92 ................
00410540 92 92 92 92 92 92 92 92 92 92 92 92 92 92 92 00 ................
00410550 00 00 00 00 00 00 ED F6 07 09 09 09 09 09 09 09 ................
00410560 09 09 EC 09 09 EC EC EC EC EB EB EB EB EB 92 00 ................
00410570 00 00 00 00 00 00 ED F6 F6 F6 F6 F6 F6 F6 F6 F6 ................
00410580 F6 F6 F6 F6 F6 F6 F6 F6 09 09 09 09 09 EB 92 00 ................
00410590 00 00 00 00 00 00 ED F6 F6 F6 F6 F6 F6 F6 F6 F6 ................
004105A0 F6 F6 F6 F6 F6 F6 F6 F6 F6 F6 09 09 09 EB 92 00 ................
004105B0 00 00 00 00 00 00 ED F6 F6 F5 F5 ED ED EC EC EC ................
004105C0 E3 E3 E3 E3 E3 E3 E3 E3 E3 E3 F6 F6 09 EB 92 00 ................
004105D0 00 00 00 00 00 00 ED FF FF F5 FF FF FF F6 EC F6 ................
004105E0 F6 EC FF E3 F6 F6 EC FF E3 F6 F6 F6 F6 EB 92 00 ................
004105F0 00 00 00 00 00 00 ED FF FF F5 FF FF FF FF ED FF ................
00410600 FF EC FF E3 F6 F6 EC FF E3 F6 F6 F6 F6 EC 92 00 ................
00410610 00 00 00 00 00 00 ED FF FF F5 F5 F5 F5 F5 F5 ED ................
00410620 FF EC FF E3 F6 F6 EC FF E3 F6 F6 F6 F6 EC 92 00 ................
00410630 00 00 00 00 00 00 ED FF FF 09 FF FF FF FF F5 FF ................
00410640 FF ED FF E3 EC EC EC FF E3 F6 F6 F6 F6 EC 92 00 ................
00410650 00 00 00 00 00 00 ED FF FF 09 FF FF FF FF F5 FF ................
00410660 FF F5 FF E3 FF FF EC FF E3 F6 F6 F6 F6 EC 92 00 ................
00410670 00 00 00 00 00 00 ED FF FF 09 09 09 09 09 F5 F5 ................
00410680 FF F5 F5 E3 FF FF EC FF E3 F6 F6 F6 F6 EC 92 00 ................
00410690 00 00 00 00 00 00 ED FF FF 09 FF FF FF FF 09 FF ................
004106A0 FF FF FF FF FF FF ED ED E3 F6 F6 F6 F6 09 92 00 ................
004106B0 00 00 00 00 00 00 ED 08 08 ED 07 07 07 ED ED 08 ................
004106C0 FF FF FF F5 FF FF FF FF FF FF F6 F6 F6 09 92 00 ................
004106D0 00 00 00 00 00 00 F7 F7 F5 07 07 08 08 F6 08 ED ................
004106E0 EC 09 F5 F5 F5 F5 F5 F5 ED FF FF F6 F6 EC 92 00 ................
004106F0 00 19 18 AC 08 08 FF FF FF F6 F6 F6 F6 F6 08 07 ................
00410700 F6 FF FF 09 FF FF FF FF F5 FF FF FF F6 09 92 00 ................
00410710 00 19 B5 08 FF FF FF FF F6 F6 B5 1A 1A F6 F6 07 ................
00410720 F6 FF FF 09 FF FF FF FF F5 FF FF FF FF 09 92 00 ................
00410730 00 19 07 AC FF 08 B4 B4 B4 AB 22 1A 6B F6 F6 ED ..........".k...
00410740 F5 09 09 09 09 09 09 F5 F5 FF FF FF FF 09 92 00 ................
00410750 00 19 08 62 FF FF 08 B4 B4 62 1A 6C AB B5 F6 07 ...b.....b.l....
00410760 08 FF FF 09 FF FF FF FF F5 FF FF FF FF 09 92 00 ................
00410770 00 19 08 19 F6 FF FF 08 6B 1A 22 08 FF F6 F6 07 ........k.".....
00410780 08 FF FF 09 FF FF FF FF 09 FF FF FF FF 09 92 00 ................
00410790 00 21 08 19 07 FF FF 08 22 22 6B B4 F5 F6 F6 07 .!......""k.....
004107A0 F5 09 09 09 09 09 09 09 09 FF FF FF FF 09 92 00 ................
004107B0 00 21 08 19 AC FF F6 22 1A B5 F6 B4 B4 B4 F6 08 .!....."........
004107C0 08 FF FF 09 FF FF FF FF 09 FF FF FF FF 09 92 00 ................
004107D0 00 21 08 AC B4 FF 63 62 6C FF FF FF FF FF FF 08 .!....cbl.......
004107E0 08 FF FF 09 FF FF FF FF 07 09 09 09 09 09 92 00 ................
004107F0 00 61 08 B4 B4 FF FF FF FF FF FF FF FF FF FF F6 .a..............
00410800 07 09 09 09 09 09 09 ED A3 A3 9B 9A 9A 9A 92 00 ................
00410810 00 61 08 B5 B4 08 08 08 08 08 08 F5 B5 08 6B FF .a............k.
00410820 FF FF FF FF FF FF FF ED 09 09 09 09 09 92 F6 00 ................
00410830 00 61 B5 F6 B5 B5 B5 B5 B5 B5 B5 B5 B5 F6 61 FF .a............a.
00410840 FF FF FF FF FF FF FF ED F6 F6 09 09 92 F6 F6 00 ................
00410850 00 61 61 08 F6 08 BD BD BD BD BD BD B5 F6 61 F6 .aa...........a.
00410860 09 09 09 FF FF FF FF F5 F6 F6 09 92 F6 F6 00 00 ................
00410870 00 00 61 61 B5 08 F6 F6 F6 F6 F6 F6 F6 F6 61 FF ..aa..........a.
00410880 FF FF FF FF FF FF FF F5 F6 F6 9A F6 F6 00 00 00 ................
00410890 00 00 00 61 61 61 61 61 61 61 61 61 61 61 61 FF ...aaaaaaaaaaaa.
004108A0 FF FF FF FF FF FF FF F5 F6 9B F6 F6 00 00 00 00 ................
004108B0 00 00 00 00 00 00 07 FF FF FF FF FF FF FF FF FF ................
004108C0 FF FF FF FF FF FF FF F5 A4 F6 F6 00 00 00 00 00 ................
004108D0 00 00 00 00 00 00 07 07 07 07 07 F5 F5 F5 F5 F5 ................
004108E0 F5 F5 F5 F5 F5 F5 F5 F5 F6 F6 00 00 00 00 00 00 ................
004108F0 00 00 00 00 00 00 00 00 00 00 00 00 00 00 00 00 ................
00410900 00 00 00 00 00 00 00 00 00 00 00 00 00 00 00 00 ................
00410910 FF FF FF FF FC 00 00 01 FC 00 00 01 FC 00 00 01 ................
00410920 FC 00 00 01 FC 00 00 01 FC 00 00 01 FC 00 00 01 ................
00410930 FC 00 00 01 FC 00 00 01 FC 00 00 01 FC 00 00 01 ................
00410940 FC 00 00 01 C0 00 00 01 C0 00 00 01 80 00 00 01 ................
00410950 80 00 00 01 80 00 00 01 80 00 00 01 80 00 00 01 ................
00410960 80 00 00 01 80 00 00 01 80 00 00 01 80 00 00 01 ................
00410970 80 00 00 01 80 00 00 01 80 00 00 03 C0 00 00 07 ................
00410980 E0 00 00 0F FC 00 00 1F FC 00 00 3F FF FF FF FF ...........?....
00410990 00 00 01 00 01 00 20 20 08 00 00 00 00 00 A8 08 ......  ........
004109A0 00 00 01 00 F8 02 34 00 00 00 56 00 53 00 5F 00 ......4...V.S._.
004109B0 56 00 45 00 52 00 53 00 49 00 4F 00 4E 00 5F 00 V.E.R.S.I.O.N._.
004109C0 49 00 4E 00 46 00 4F 00 00 00 00 00 BD 04 EF FE I.N.F.O.........
004109D0 00 00 01 00 2D A2 38 01 2D A2 38 01 2D A2 38 01 ....-.8.-.8.-.8.
004109E0 2D A2 38 01 2D A2 00 00 00 00 00 00 04 00 04 00 -.8.-...........
004109F0 01 00 00 00 00 00 00 00 00 00 00 00 00 00 00 00 ................
00410A00 58 02 00 00 00 00 53 00 74 00 72 00 69 00 6E 00 X.....S.t.r.i.n.
00410A10 67 00 46 00 69 00 6C 00 65 00 49 00 6E 00 66 00 g.F.i.l.e.I.n.f.
00410A20 6F 00 00 00 34 02 00 00 00 00 30 00 38 00 30 00 o...4.....0.8.0.
00410A30 30 00 30 00 34 00 42 00 30 00 00 00 48 00 13 00 0.0.4.B.0...H...
00410A40 01 00 43 00 6F 00 6D 00 70 00 61 00 6E 00 79 00 ..C.o.m.p.a.n.y.
00410A50 4E 00 61 00 6D 00 65 00 00 00 00 00 47 00 48 00 N.a.m.e.....G.H.
00410A60 50 00 46 00 6B 00 4E 00 4D 00 56 00 45 00 61 00 P.F.k.N.M.V.E.a.
00410A70 44 00 67 00 37 00 4D 00 58 00 66 00 42 00 32 00 D.g.7.M.X.f.B.2.
00410A80 00 00 00 00 50 00 13 00 01 00 46 00 69 00 6C 00 ....P.....F.i.l.
00410A90 65 00 44 00 65 00 73 00 63 00 72 00 69 00 70 00 e.D.e.s.c.r.i.p.
00410AA0 74 00 69 00 6F 00 6E 00 00 00 00 00 45 00 46 00 t.i.o.n.....E.F.
00410AB0 79 00 4E 00 46 00 4B 00 4D 00 4A 00 48 00 45 00 y.N.F.K.M.J.H.E.
00410AC0 47 00 77 00 41 00 76 00 69 00 53 00 41 00 58 00 G.w.A.v.i.S.A.X.
00410AD0 00 00 00 00 3C 00 0D 00 01 00 46 00 69 00 6C 00 ....<.....F.i.l.
00410AE0 65 00 56 00 65 00 72 00 73 00 69 00 6F 00 6E 00 e.V.e.r.s.i.o.n.
00410AF0 00 00 00 00 65 00 6C 00 31 00 56 00 66 00 42 00 ....e.l.1.V.f.B.
00410B00 50 00 46 00 65 00 6D 00 54 00 6F 00 00 00 00 00 P.F.e.m.T.o.....
00410B10 38 00 0C 00 01 00 49 00 6E 00 74 00 65 00 72 00 8.....I.n.t.e.r.
00410B20 6E 00 61 00 6C 00 4E 00 61 00 6D 00 65 00 00 00 n.a.l.N.a.m.e...
00410B30 67 00 6E 00 70 00 51 00 76 00 50 00 45 00 42 00 g.n.p.Q.v.P.E.B.
00410B40 62 00 51 00 46 00 00 00 48 00 11 00 01 00 4C 00 b.Q.F...H.....L.
00410B50 65 00 67 00 61 00 6C 00 43 00 6F 00 70 00 79 00 e.g.a.l.C.o.p.y.
00410B60 72 00 69 00 67 00 68 00 74 00 00 00 43 00 47 00 r.i.g.h.t...C.G.
00410B70 65 00 47 00 6B 00 4B 00 32 00 58 00 4E 00 49 00 e.G.k.K.2.X.N.I.
00410B80 77 00 43 00 4E 00 61 00 6F 00 71 00 00 00 00 00 w.C.N.a.o.q.....
00410B90 48 00 0F 00 01 00 4F 00 72 00 69 00 67 00 69 00 H.....O.r.i.g.i.
00410BA0 6E 00 61 00 6C 00 46 00 69 00 6C 00 65 00 6E 00 n.a.l.F.i.l.e.n.
00410BB0 61 00 6D 00 65 00 00 00 49 00 44 00 56 00 65 00 a.m.e...I.D.V.e.
00410BC0 70 00 70 00 56 00 35 00 71 00 55 00 6C 00 55 00 p.p.V.5.q.U.l.U.
00410BD0 62 00 45 00 00 00 00 00 3C 00 0D 00 01 00 50 00 b.E.....<.....P.
00410BE0 72 00 6F 00 64 00 75 00 63 00 74 00 4E 00 61 00 r.o.d.u.c.t.N.a.
00410BF0 6D 00 65 00 00 00 00 00 74 00 73 00 43 00 74 00 m.e.....t.s.C.t.
00410C00 44 00 68 00 77 00 50 00 75 00 49 00 50 00 35 00 D.h.w.P.u.I.P.5.
00410C10 00 00 00 00 44 00 0F 00 01 00 50 00 72 00 6F 00 ....D.....P.r.o.
00410C20 64 00 75 00 63 00 74 00 56 00 65 00 72 00 73 00 d.u.c.t.V.e.r.s.
00410C30 69 00 6F 00 6E 00 00 00 6A 00 35 00 77 00 51 00 i.o.n...j.5.w.Q.
00410C40 4B 00 64 00 55 00 54 00 51 00 68 00 52 00 4C 00 K.d.U.T.Q.h.R.L.
00410C50 77 00 76 00 00 00 00 00 44 00 00 00 00 00 56 00 w.v.....D.....V.
00410C60 61 00 72 00 46 00 69 00 6C 00 65 00 49 00 6E 00 a.r.F.i.l.e.I.n.
00410C70 66 00 6F 00 00 00 00 00 24 00 04 00 00 00 54 00 f.o.....$.....T.
00410C80 72 00 61 00 6E 00 73 00 6C 00 61 00 74 00 69 00 r.a.n.s.l.a.t.i.
00410C90 6F 00 6E 00 00 00 00 00 00 08 B0 04 00 00 00 00 o.n.............
00410CA0 00 00 00 00 00 00 00 00 00 00 00 00 00 00 00 00 ................
00410CB0 00 00 00 00 00 00 00 00 00 00 00 00 00 00 00 00 ................
00410CC0 00 00 00 00 00 00 00 00 00 00 00 00 00 00 00 00 ................
00410CD0 00 00 00 00 00 00 00 00 00 00 00 00 00 00 00 00 ................
00410CE0 00 00 00 00 00 00 00 00 00 00 00 00 00 00 00 00 ................
00410CF0 00 00 00 00 00 00 00 00 00 00 00 00 00 00 00 00 ................
00410D00 00 00 00 00 00 00 00 00 00 00 00 00 00 00 00 00 ................
00410D10 00 00 00 00 00 00 00 00 00 00 00 00 00 00 00 00 ................
00410D20 00 00 00 00 00 00 00 00 00 00 00 00 00 00 00 00 ................
00410D30 00 00 00 00 00 00 00 00 00 00 00 00 00 00 00 00 ................
00410D40 00 00 00 00 00 00 00 00 00 00 00 00 00 00 00 00 ................
00410D50 00 00 00 00 00 00 00 00 00 00 00 00 00 00 00 00 ................
00410D60 00 00 00 00 00 00 00 00 00 00 00 00 00 00 00 00 ................
00410D70 00 00 00 00 00 00 00 00 00 00 00 00 00 00 00 00 ................
00410D80 00 00 00 00 00 00 00 00 00 00 00 00 00 00 00 00 ................
00410D90 00 00 00 00 00 00 00 00 00 00 00 00 00 00 00 00 ................
00410DA0 00 00 00 00 00 00 00 00 00 00 00 00 00 00 00 00 ................
00410DB0 00 00 00 00 00 00 00 00 00 00 00 00 00 00 00 00 ................
00410DC0 00 00 00 00 00 00 00 00 00 00 00 00 00 00 00 00 ................
00410DD0 00 00 00 00 00 00 00 00 00 00 00 00 00 00 00 00 ................
00410DE0 00 00 00 00 00 00 00 00 00 00 00 00 00 00 00 00 ................
00410DF0 00 00 00 00 00 00 00 00 00 00 00 00 00 00 00 00 ................
00410E00 00 00 00 00 00 00 00 00 00 00 00 00 00 00 00 00 ................
00410E10 00 00 00 00 00 00 00 00 00 00 00 00 00 00 00 00 ................
00410E20 00 00 00 00 00 00 00 00 00 00 00 00 00 00 00 00 ................
00410E30 00 00 00 00 00 00 00 00 00 00 00 00 00 00 00 00 ................
00410E40 00 00 00 00 00 00 00 00 00 00 00 00 00 00 00 00 ................
00410E50 00 00 00 00 00 00 00 00 00 00 00 00 00 00 00 00 ................
00410E60 00 00 00 00 00 00 00 00 00 00 00 00 00 00 00 00 ................
00410E70 00 00 00 00 00 00 00 00 00 00 00 00 00 00 00 00 ................
00410E80 00 00 00 00 00 00 00 00 00 00 00 00 00 00 00 00 ................
00410E90 00 00 00 00 00 00 00 00 00 00 00 00 00 00 00 00 ................
00410EA0 00 00 00 00 00 00 00 00 00 00 00 00 00 00 00 00 ................
00410EB0 00 00 00 00 00 00 00 00 00 00 00 00 00 00 00 00 ................
00410EC0 00 00 00 00 00 00 00 00 00 00 00 00 00 00 00 00 ................
00410ED0 00 00 00 00 00 00 00 00 00 00 00 00 00 00 00 00 ................
00410EE0 00 00 00 00 00 00 00 00 00 00 00 00 00 00 00 00 ................
00410EF0 00 00 00 00 00 00 00 00 00 00 00 00 00 00 00 00 ................
00410F00 00 00 00 00 00 00 00 00 00 00 00 00 00 00 00 00 ................
00410F10 00 00 00 00 00 00 00 00 00 00 00 00 00 00 00 00 ................
00410F20 00 00 00 00 00 00 00 00 00 00 00 00 00 00 00 00 ................
00410F30 00 00 00 00 00 00 00 00 00 00 00 00 00 00 00 00 ................
00410F40 00 00 00 00 00 00 00 00 00 00 00 00 00 00 00 00 ................
00410F50 00 00 00 00 00 00 00 00 00 00 00 00 00 00 00 00 ................
00410F60 00 00 00 00 00 00 00 00 00 00 00 00 00 00 00 00 ................
00410F70 00 00 00 00 00 00 00 00 00 00 00 00 00 00 00 00 ................
00410F80 00 00 00 00 00 00 00 00 00 00 00 00 00 00 00 00 ................
00410F90 00 00 00 00 00 00 00 00 00 00 00 00 00 00 00 00 ................
00410FA0 00 00 00 00 00 00 00 00 00 00 00 00 00 00 00 00 ................
00410FB0 00 00 00 00 00 00 00 00 00 00 00 00 00 00 00 00 ................
00410FC0 00 00 00 00 00 00 00 00 00 00 00 00 00 00 00 00 ................
00410FD0 00 00 00 00 00 00 00 00 00 00 00 00 00 00 00 00 ................
00410FE0 00 00 00 00 00 00 00 00 00 00 00 00 00 00 00 00 ................
00410FF0 00 00 00 00 00 00 00 00 00 00 00 00 00 00 00 00 ................
