00400000 00 00 00 00 00 00 00 00 00 00 00 00 00 00 00 00 ................
00400010 00 00 00 00 00 00 00 00 00 00 00 00 00 00 00 00 ................
00400020 00 00 00 00 00 00 00 00 00 00 00 00 00 00 00 00 ................
00400030 00 00 00 00 00 00 00 00 00 00 00 00 00 00 00 00 ................
00400040 00 00 00 00 00 00 00 00 00 00 00 00 00 00 00 00 ................
00400050 00 00 00 00 00 00 00 00 00 00 00 00 00 00 00 00 ................
00400060 00 00 00 00 00 00 00 00 00 00 00 00 00 00 00 00 ................
00400070 00 00 00 00 00 00 00 00 00 00 00 00 00 00 00 00 ................
00400080 00 00 00 00 00 00 00 00 00 00 00 00 00 00 00 00 ................
00400090 00 00 00 00 00 00 00 00 00 00 00 00 00 00 00 00 ................
004000A0 00 00 00 00 00 00 00 00 00 00 00 00 00 00 00 00 ................
004000B0 00 00 00 00 00 00 00 00 00 00 00 00 00 00 00 00 ................
004000C0 00 00 00 00 00 00 00 00 00 00 00 00 00 00 00 00 ................
004000D0 00 00 00 00 00 00 00 00 00 00 00 00 00 00 00 00 ................
004000E0 00 00 00 00 00 00 00 00 00 00 00 00 00 00 00 00 ................
004000F0 00 00 00 00 00 00 00 00 00 00 00 00 00 00 00 00 ................
00400100 00 00 00 00 00 00 00 00 00 00 00 00 00 00 00 00 ................
00400110 00 00 00 00 00 00 00 00 00 00 00 00 00 00 00 00 ................
00400120 00 00 00 00 00 00 00 00 00 00 00 00 00 00 00 00 ................
00400130 00 00 00 00 00 00 00 00 00 00 00 00 00 00 00 00 ................
00400140 00 00 00 00 00 00 00 00 00 00 00 00 00 00 00 00 ................
00400150 00 00 00 00 00 00 00 00 00 00 00 00 00 00 00 00 ................
00400160 00 00 00 00 00 00 00 00 00 00 00 00 00 00 00 00 ................
00400170 00 00 00 00 00 00 00 00 00 00 00 00 00 00 00 00 ................
00400180 00 00 00 00 00 00 00 00 00 00 00 00 00 00 00 00 ................
00400190 00 00 00 00 00 00 00 00 00 00 00 00 00 00 00 00 ................
004001A0 00 00 00 00 00 00 00 00 00 00 00 00 00 00 00 00 ................
004001B0 00 00 00 00 00 00 00 00 00 00 00 00 00 00 00 00 ................
004001C0 00 00 00 00 00 00 00 00 00 00 00 00 00 00 00 00 ................
004001D0 00 00 00 00 00 00 00 00 00 00 00 00 00 00 00 00 ................
004001E0 00 00 00 00 00 00 00 00 00 00 00 00 00 00 00 00 ................
004001F0 00 00 00 00 00 00 00 00 00 00 00 00 00 00 00 00 ................
00400200 00 00 00 00 00 00 00 00 00 00 00 00 00 00 00 00 ................
00400210 00 00 00 00 00 00 00 00 00 00 00 00 00 00 00 00 ................
00400220 00 00 00 00 00 00 00 00 00 00 00 00 00 00 00 00 ................
00400230 00 00 00 00 00 00 00 00 00 00 00 00 00 00 00 00 ................
00400240 00 00 00 00 00 00 00 00 00 00 00 00 00 00 00 00 ................
00400250 00 00 00 00 00 00 00 00 00 00 00 00 00 00 00 00 ................
00400260 00 00 00 00 00 00 00 00 00 00 00 00 00 00 00 00 ................
00400270 00 00 00 00 00 00 00 00 00 00 00 00 00 00 00 00 ................
00400280 00 00 00 00 00 00 00 00 00 00 00 00 00 00 00 00 ................
00400290 00 00 00 00 00 00 00 00 00 00 00 00 00 00 00 00 ................
004002A0 00 00 00 00 00 00 00 00 00 00 00 00 00 00 00 00 ................
004002B0 00 00 00 00 00 00 00 00 00 00 00 00 00 00 00 00 ................
004002C0 00 00 00 00 00 00 00 00 00 00 00 00 00 00 00 00 ................
004002D0 00 00 00 00 00 00 00 00 00 00 00 00 00 00 00 00 ................
004002E0 00 00 00 00 00 00 00 00 00 00 00 00 00 00 00 00 ................
004002F0 00 00 00 00 00 00 00 00 00 00 00 00 00 00 00 00 ................
00400300 00 00 00 00 00 00 00 00 00 00 00 00 00 00 00 00 ................
00400310 00 00 00 00 00 00 00 00 00 00 00 00 00 00 00 00 ................
00400320 00 00 00 00 00 00 00 00 00 00 00 00 00 00 00 00 ................
00400330 00 00 00 00 00 00 00 00 00 00 00 00 00 00 00 00 ................
00400340 00 00 00 00 00 00 00 00 00 00 00 00 00 00 00 00 ................
00400350 00 00 00 00 00 00 00 00 00 00 00 00 00 00 00 00 ................
00400360 00 00 00 00 00 00 00 00 00 00 00 00 00 00 00 00 ................
00400370 00 00 00 00 00 00 00 00 00 00 00 00 00 00 00 00 ................
00400380 00 00 00 00 00 00 00 00 00 00 00 00 00 00 00 00 ................
00400390 00 00 00 00 00 00 00 00 00 00 00 00 00 00 00 00 ................
004003A0 00 00 00 00 00 00 00 00 00 00 00 00 00 00 00 00 ................
004003B0 00 00 00 00 00 00 00 00 00 00 00 00 00 00 00 00 ................
004003C0 00 00 00 00 00 00 00 00 00 00 00 00 00 00 00 00 ................
004003D0 00 00 00 00 00 00 00 00 00 00 00 00 00 00 00 00 ................
004003E0 00 00 00 00 00 00 00 00 00 00 00 00 00 00 00 00 ................
004003F0 00 00 00 00 00 00 00 00 00 00 00 00 00 00 00 00 ................
00400400 00 00 00 00 00 00 00 00 00 00 00 00 00 00 00 00 ................
00400410 00 00 00 00 00 00 00 00 00 00 00 00 00 00 00 00 ................
00400420 00 00 00 00 00 00 00 00 00 00 00 00 00 00 00 00 ................
00400430 00 00 00 00 00 00 00 00 00 00 00 00 00 00 00 00 ................
00400440 00 00 00 00 00 00 00 00 00 00 00 00 00 00 00 00 ................
00400450 00 00 00 00 00 00 00 00 00 00 00 00 00 00 00 00 ................
00400460 00 00 00 00 00 00 00 00 00 00 00 00 00 00 00 00 ................
00400470 00 00 00 00 00 00 00 00 00 00 00 00 00 00 00 00 ................
00400480 00 00 00 00 00 00 00 00 00 00 00 00 00 00 00 00 ................
00400490 00 00 00 00 00 00 00 00 00 00 00 00 00 00 00 00 ................
004004A0 00 00 00 00 00 00 00 00 00 00 00 00 00 00 00 00 ................
004004B0 00 00 00 00 00 00 00 00 00 00 00 00 00 00 00 00 ................
004004C0 00 00 00 00 00 00 00 00 00 00 00 00 00 00 00 00 ................
004004D0 00 00 00 00 00 00 00 00 00 00 00 00 00 00 00 00 ................
004004E0 00 00 00 00 00 00 00 00 00 00 00 00 00 00 00 00 ................
004004F0 00 00 00 00 00 00 00 00 00 00 00 00 00 00 00 00 ................
00400500 00 00 00 00 00 00 00 00 00 00 00 00 00 00 00 00 ................
00400510 00 00 00 00 00 00 00 00 00 00 00 00 00 00 00 00 ................
00400520 00 00 00 00 00 00 00 00 00 00 00 00 00 00 00 00 ................
00400530 00 00 00 00 00 00 00 00 00 00 00 00 00 00 00 00 ................
00400540 00 00 00 00 00 00 00 00 00 00 00 00 00 00 00 00 ................
00400550 00 00 00 00 00 00 00 00 00 00 00 00 00 00 00 00 ................
00400560 00 00 00 00 00 00 00 00 00 00 00 00 00 00 00 00 ................
00400570 00 00 00 00 00 00 00 00 00 00 00 00 00 00 00 00 ................
00400580 00 00 00 00 00 00 00 00 00 00 00 00 00 00 00 00 ................
00400590 00 00 00 00 00 00 00 00 00 00 00 00 00 00 00 00 ................
004005A0 00 00 00 00 00 00 00 00 00 00 00 00 00 00 00 00 ................
004005B0 00 00 00 00 00 00 00 00 00 00 00 00 00 00 00 00 ................
004005C0 00 00 00 00 00 00 00 00 00 00 00 00 00 00 00 00 ................
004005D0 00 00 00 00 00 00 00 00 00 00 00 00 00 00 00 00 ................
004005E0 00 00 00 00 00 00 00 00 00 00 00 00 00 00 00 00 ................
004005F0 00 00 00 00 00 00 00 00 00 00 00 00 00 00 00 00 ................
00400600 00 00 00 00 00 00 00 00 00 00 00 00 00 00 00 00 ................
00400610 00 00 00 00 00 00 00 00 00 00 00 00 00 00 00 00 ................
00400620 00 00 00 00 00 00 00 00 00 00 00 00 00 00 00 00 ................
00400630 00 00 00 00 00 00 00 00 00 00 00 00 00 00 00 00 ................
00400640 00 00 00 00 00 00 00 00 00 00 00 00 00 00 00 00 ................
00400650 00 00 00 00 00 00 00 00 00 00 00 00 00 00 00 00 ................
00400660 00 00 00 00 00 00 00 00 00 00 00 00 00 00 00 00 ................
00400670 00 00 00 00 00 00 00 00 00 00 00 00 00 00 00 00 ................
00400680 00 00 00 00 00 00 00 00 00 00 00 00 00 00 00 00 ................
00400690 00 00 00 00 00 00 00 00 00 00 00 00 00 00 00 00 ................
004006A0 00 00 00 00 00 00 00 00 00 00 00 00 00 00 00 00 ................
004006B0 00 00 00 00 00 00 00 00 00 00 00 00 00 00 00 00 ................
004006C0 00 00 00 00 00 00 00 00 00 00 00 00 00 00 00 00 ................
004006D0 00 00 00 00 00 00 00 00 00 00 00 00 00 00 00 00 ................
004006E0 00 00 00 00 00 00 00 00 00 00 00 00 00 00 00 00 ................
004006F0 00 00 00 00 00 00 00 00 00 00 00 00 00 00 00 00 ................
00400700 00 00 00 00 00 00 00 00 00 00 00 00 00 00 00 00 ................
00400710 00 00 00 00 00 00 00 00 00 00 00 00 00 00 00 00 ................
00400720 00 00 00 00 00 00 00 00 00 00 00 00 00 00 00 00 ................
00400730 00 00 00 00 00 00 00 00 00 00 00 00 00 00 00 00 ................
00400740 00 00 00 00 00 00 00 00 00 00 00 00 00 00 00 00 ................
00400750 00 00 00 00 00 00 00 00 00 00 00 00 00 00 00 00 ................
00400760 00 00 00 00 00 00 00 00 00 00 00 00 00 00 00 00 ................
00400770 00 00 00 00 00 00 00 00 00 00 00 00 00 00 00 00 ................
00400780 00 00 00 00 00 00 00 00 00 00 00 00 00 00 00 00 ................
00400790 00 00 00 00 00 00 00 00 00 00 00 00 00 00 00 00 ................
004007A0 00 00 00 00 00 00 00 00 00 00 00 00 00 00 00 00 ................
004007B0 00 00 00 00 00 00 00 00 00 00 00 00 00 00 00 00 ................
004007C0 00 00 00 00 00 00 00 00 00 00 00 00 00 00 00 00 ................
004007D0 00 00 00 00 00 00 00 00 00 00 00 00 00 00 00 00 ................
004007E0 00 00 00 00 00 00 00 00 00 00 00 00 00 00 00 00 ................
004007F0 00 00 00 00 00 00 00 00 00 00 00 00 00 00 00 00 ................
00400800 00 00 00 00 00 00 00 00 00 00 00 00 00 00 00 00 ................
00400810 00 00 00 00 00 00 00 00 00 00 00 00 00 00 00 00 ................
00400820 00 00 00 00 00 00 00 00 00 00 00 00 00 00 00 00 ................
00400830 00 00 00 00 00 00 00 00 00 00 00 00 00 00 00 00 ................
00400840 00 00 00 00 00 00 00 00 00 00 00 00 00 00 00 00 ................
00400850 00 00 00 00 00 00 00 00 00 00 00 00 00 00 00 00 ................
00400860 00 00 00 00 00 00 00 00 00 00 00 00 00 00 00 00 ................
00400870 00 00 00 00 00 00 00 00 00 00 00 00 00 00 00 00 ................
00400880 00 00 00 00 00 00 00 00 00 00 00 00 00 00 00 00 ................
00400890 00 00 00 00 00 00 00 00 00 00 00 00 00 00 00 00 ................
004008A0 00 00 00 00 00 00 00 00 00 00 00 00 00 00 00 00 ................
004008B0 00 00 00 00 00 00 00 00 00 00 00 00 00 00 00 00 ................
004008C0 00 00 00 00 00 00 00 00 00 00 00 00 00 00 00 00 ................
004008D0 00 00 00 00 00 00 00 00 00 00 00 00 00 00 00 00 ................
004008E0 00 00 00 00 00 00 00 00 00 00 00 00 00 00 00 00 ................
004008F0 00 00 00 00 00 00 00 00 00 00 00 00 00 00 00 00 ................
00400900 00 00 00 00 00 00 00 00 00 00 00 00 00 00 00 00 ................
00400910 00 00 00 00 00 00 00 00 00 00 00 00 00 00 00 00 ................
00400920 00 00 00 00 00 00 00 00 00 00 00 00 00 00 00 00 ................
00400930 00 00 00 00 00 00 00 00 00 00 00 00 00 00 00 00 ................
00400940 00 00 00 00 00 00 00 00 00 00 00 00 00 00 00 00 ................
00400950 00 00 00 00 00 00 00 00 00 00 00 00 00 00 00 00 ................
00400960 00 00 00 00 00 00 00 00 00 00 00 00 00 00 00 00 ................
00400970 00 00 00 00 00 00 00 00 00 00 00 00 00 00 00 00 ................
00400980 00 00 00 00 00 00 00 00 00 00 00 00 00 00 00 00 ................
00400990 00 00 00 00 00 00 00 00 00 00 00 00 00 00 00 00 ................
004009A0 00 00 00 00 00 00 00 00 00 00 00 00 00 00 00 00 ................
004009B0 00 00 00 00 00 00 00 00 00 00 00 00 00 00 00 00 ................
004009C0 00 00 00 00 00 00 00 00 00 00 00 00 00 00 00 00 ................
004009D0 00 00 00 00 00 00 00 00 00 00 00 00 00 00 00 00 ................
004009E0 00 00 00 00 00 00 00 00 00 00 00 00 00 00 00 00 ................
004009F0 00 00 00 00 00 00 00 00 00 00 00 00 00 00 00 00 ................
00400A00 00 00 00 00 00 00 00 00 00 00 00 00 00 00 00 00 ................
00400A10 00 00 00 00 00 00 00 00 00 00 00 00 00 00 00 00 ................
00400A20 00 00 00 00 00 00 00 00 00 00 00 00 00 00 00 00 ................
00400A30 00 00 00 00 00 00 00 00 00 00 00 00 00 00 00 00 ................
00400A40 00 00 00 00 00 00 00 00 00 00 00 00 00 00 00 00 ................
00400A50 00 00 00 00 00 00 00 00 00 00 00 00 00 00 00 00 ................
00400A60 00 00 00 00 00 00 00 00 00 00 00 00 00 00 00 00 ................
00400A70 00 00 00 00 00 00 00 00 00 00 00 00 00 00 00 00 ................
00400A80 00 00 00 00 00 00 00 00 00 00 00 00 00 00 00 00 ................
00400A90 00 00 00 00 00 00 00 00 00 00 00 00 00 00 00 00 ................
00400AA0 00 00 00 00 00 00 00 00 00 00 00 00 00 00 00 00 ................
00400AB0 00 00 00 00 00 00 00 00 00 00 00 00 00 00 00 00 ................
00400AC0 00 00 00 00 00 00 00 00 00 00 00 00 00 00 00 00 ................
00400AD0 00 00 00 00 00 00 00 00 00 00 00 00 00 00 00 00 ................
00400AE0 00 00 00 00 00 00 00 00 00 00 00 00 00 00 00 00 ................
00400AF0 00 00 00 00 00 00 00 00 00 00 00 00 00 00 00 00 ................
00400B00 00 00 00 00 00 00 00 00 00 00 00 00 00 00 00 00 ................
00400B10 00 00 00 00 00 00 00 00 00 00 00 00 00 00 00 00 ................
00400B20 00 00 00 00 00 00 00 00 00 00 00 00 00 00 00 00 ................
00400B30 00 00 00 00 00 00 00 00 00 00 00 00 00 00 00 00 ................
00400B40 00 00 00 00 00 00 00 00 00 00 00 00 00 00 00 00 ................
00400B50 00 00 00 00 00 00 00 00 00 00 00 00 00 00 00 00 ................
00400B60 00 00 00 00 00 00 00 00 00 00 00 00 00 00 00 00 ................
00400B70 00 00 00 00 00 00 00 00 00 00 00 00 00 00 00 00 ................
00400B80 00 00 00 00 00 00 00 00 00 00 00 00 00 00 00 00 ................
00400B90 00 00 00 00 00 00 00 00 00 00 00 00 00 00 00 00 ................
00400BA0 00 00 00 00 00 00 00 00 00 00 00 00 00 00 00 00 ................
00400BB0 00 00 00 00 00 00 00 00 00 00 00 00 00 00 00 00 ................
00400BC0 00 00 00 00 00 00 00 00 00 00 00 00 00 00 00 00 ................
00400BD0 00 00 00 00 00 00 00 00 00 00 00 00 00 00 00 00 ................
00400BE0 00 00 00 00 00 00 00 00 00 00 00 00 00 00 00 00 ................
00400BF0 00 00 00 00 00 00 00 00 00 00 00 00 00 00 00 00 ................
00400C00 00 00 00 00 00 00 00 00 00 00 00 00 00 00 00 00 ................
00400C10 00 00 00 00 00 00 00 00 00 00 00 00 00 00 00 00 ................
00400C20 00 00 00 00 00 00 00 00 00 00 00 00 00 00 00 00 ................
00400C30 00 00 00 00 00 00 00 00 00 00 00 00 00 00 00 00 ................
00400C40 00 00 00 00 00 00 00 00 00 00 00 00 00 00 00 00 ................
00400C50 00 00 00 00 00 00 00 00 00 00 00 00 00 00 00 00 ................
00400C60 00 00 00 00 00 00 00 00 00 00 00 00 00 00 00 00 ................
00400C70 00 00 00 00 00 00 00 00 00 00 00 00 00 00 00 00 ................
00400C80 00 00 00 00 00 00 00 00 00 00 00 00 00 00 00 00 ................
00400C90 00 00 00 00 00 00 00 00 00 00 00 00 00 00 00 00 ................
00400CA0 00 00 00 00 00 00 00 00 00 00 00 00 00 00 00 00 ................
00400CB0 00 00 00 00 00 00 00 00 00 00 00 00 00 00 00 00 ................
00400CC0 00 00 00 00 00 00 00 00 00 00 00 00 00 00 00 00 ................
00400CD0 00 00 00 00 00 00 00 00 00 00 00 00 00 00 00 00 ................
00400CE0 00 00 00 00 00 00 00 00 00 00 00 00 00 00 00 00 ................
00400CF0 00 00 00 00 00 00 00 00 00 00 00 00 00 00 00 00 ................
00400D00 00 00 00 00 00 00 00 00 00 00 00 00 00 00 00 00 ................
00400D10 00 00 00 00 00 00 00 00 00 00 00 00 00 00 00 00 ................
00400D20 00 00 00 00 00 00 00 00 00 00 00 00 00 00 00 00 ................
00400D30 00 00 00 00 00 00 00 00 00 00 00 00 00 00 00 00 ................
00400D40 00 00 00 00 00 00 00 00 00 00 00 00 00 00 00 00 ................
00400D50 00 00 00 00 00 00 00 00 00 00 00 00 00 00 00 00 ................
00400D60 00 00 00 00 00 00 00 00 00 00 00 00 00 00 00 00 ................
00400D70 00 00 00 00 00 00 00 00 00 00 00 00 00 00 00 00 ................
00400D80 00 00 00 00 00 00 00 00 00 00 00 00 00 00 00 00 ................
00400D90 00 00 00 00 00 00 00 00 00 00 00 00 00 00 00 00 ................
00400DA0 00 00 00 00 00 00 00 00 00 00 00 00 00 00 00 00 ................
00400DB0 00 00 00 00 00 00 00 00 00 00 00 00 00 00 00 00 ................
00400DC0 00 00 00 00 00 00 00 00 00 00 00 00 00 00 00 00 ................
00400DD0 00 00 00 00 00 00 00 00 00 00 00 00 00 00 00 00 ................
00400DE0 00 00 00 00 00 00 00 00 00 00 00 00 00 00 00 00 ................
00400DF0 00 00 00 00 00 00 00 00 00 00 00 00 00 00 00 00 ................
00400E00 00 00 00 00 00 00 00 00 00 00 00 00 00 00 00 00 ................
00400E10 00 00 00 00 00 00 00 00 00 00 00 00 00 00 00 00 ................
00400E20 00 00 00 00 00 00 00 00 00 00 00 00 00 00 00 00 ................
00400E30 00 00 00 00 00 00 00 00 00 00 00 00 00 00 00 00 ................
00400E40 00 00 00 00 00 00 00 00 00 00 00 00 00 00 00 00 ................
00400E50 00 00 00 00 00 00 00 00 00 00 00 00 00 00 00 00 ................
00400E60 00 00 00 00 00 00 00 00 00 00 00 00 00 00 00 00 ................
00400E70 00 00 00 00 00 00 00 00 00 00 00 00 00 00 00 00 ................
00400E80 00 00 00 00 00 00 00 00 00 00 00 00 00 00 00 00 ................
00400E90 00 00 00 00 00 00 00 00 00 00 00 00 00 00 00 00 ................
00400EA0 00 00 00 00 00 00 00 00 00 00 00 00 00 00 00 00 ................
00400EB0 00 00 00 00 00 00 00 00 00 00 00 00 00 00 00 00 ................
00400EC0 00 00 00 00 00 00 00 00 00 00 00 00 00 00 00 00 ................
00400ED0 00 00 00 00 00 00 00 00 00 00 00 00 00 00 00 00 ................
00400EE0 00 00 00 00 00 00 00 00 00 00 00 00 00 00 00 00 ................
00400EF0 00 00 00 00 00 00 00 00 00 00 00 00 00 00 00 00 ................
00400F00 00 00 00 00 00 00 00 00 00 00 00 00 00 00 00 00 ................
00400F10 00 00 00 00 00 00 00 00 00 00 00 00 00 00 00 00 ................
00400F20 00 00 00 00 00 00 00 00 00 00 00 00 00 00 00 00 ................
00400F30 00 00 00 00 00 00 00 00 00 00 00 00 00 00 00 00 ................
00400F40 00 00 00 00 00 00 00 00 00 00 00 00 00 00 00 00 ................
00400F50 00 00 00 00 00 00 00 00 00 00 00 00 00 00 00 00 ................
00400F60 00 00 00 00 00 00 00 00 00 00 00 00 00 00 00 00 ................
00400F70 00 00 00 00 00 00 00 00 00 00 00 00 00 00 00 00 ................
00400F80 00 00 00 00 00 00 00 00 00 00 00 00 00 00 00 00 ................
00400F90 00 00 00 00 00 00 00 00 00 00 00 00 00 00 00 00 ................
00400FA0 00 00 00 00 00 00 00 00 00 00 00 00 00 00 00 00 ................
00400FB0 00 00 00 00 00 00 00 00 00 00 00 00 00 00 00 00 ................
00400FC0 00 00 00 00 00 00 00 00 00 00 00 00 00 00 00 00 ................
00400FD0 00 00 00 00 00 00 00 00 00 00 00 00 00 00 00 00 ................
00400FE0 00 00 00 00 00 00 00 00 00 00 00 00 00 00 00 00 ................
00400FF0 00 00 00 00 00 00 00 00 00 00 00 00 00 00 00 00 ................
00401000 E2 A3 49 3C 6C 33 F9 2B D6 03 D9 41 03 D0 DB E2 ..I<l3.+...A....
00401010 0F 88 BD 01 00 00 87 FF 0F 89 B5 01 00 00 A5 AC ................
00401020 60 3D 8D                                        `=.            

l00401023:
	mov	edx,eax
	or	ecx,edx
	dec	ebx
	or	ecx,ebx
	inc	ecx
	sub	ebx,edi
	mov	edi,esi
	inc	ecx
	add	edx,esi
	jpe	004010AA
	jmp	00401039
	jl	0040103B
	jpo	004010AA
	or	esi,[edx]
	cmp	[ebx+CA2BDDF6],edi
	or	ecx,edi
	xor	ecx,eax
	mov	ecx,ebx
	or	edx,ebx
	add	edi,edx
	or	ecx,eax
	add	edi,edx
	inc	edi
	jz	0040114F
	push	eax
	pop	eax
	lea	edi,[edi]
	jnz	0040114F
	stc	
	xor	al,04
	illegal	
	sub	dword ptr [ecx+DE33F88B],03C80B49
	imul	dword ptr [eax+FA840F08]
	add	[eax],al
	add	[edi],cl
	xor	bl,00
	add	[eax],al
	mov	dh,dh
	mov	bl,bl
	jnc	00401174
	fsubr	dword ptr [eax+CEA392EB]

l00401091:
	mov	edi,edx
	inc	esi
	dec	edi
	add	esi,ebx
	xor	edx,esi
	xor	ebx,ecx
	jo	00401106

l0040109D:
	push	di
	pop	di
	xchg	ebx,ebx
	jno	00401106

l004010A5:
	mov	dword ptr [edi+2BBDC4F8],8ACE03D3
	in	al,dx
	dec	ebx
	or	dl,al
	dec	edi
	dec	edx
	jo	004010DF

l004010B7:
	push	edx
	pop	edx
	repne	
	jno	004010DF
	enter	35E8,46
	sub	ebx,esi
	illegal	
	sub	edi,ecx
	inc	edi
	dec	esi
	add	esi,eax
	xor	edx,ebx
	dec	edx
	add	ebx,esi
	mov	ebx,eax
	js	0040106A
	jno	004010D6
	mov	ecx,ecx
	jns	0040106A
	xchg	[ebx],cl
	hlt	
	leave	
	dec	edx

l004010DF:
	dec	edx
	xor	edx,ebx
	mov	bh,dl
	sub	cl,al
	xor	edi,eax
	sub	edi,eax
	or	cl,bl
	add	edx,eax
	inc	esi
	mov	bh,ch
	jl	00401191

l004010F7:
	jmp	004010FC

l004010FC:
	jge	00401191

l00401102:
	jmp	D16B119E

l00401106:
	sub	edx,ecx
00401108                         8B FE 0B CF 8B F1 03 F0         ........
00401110 2B F2 0B D9 0B FA 33 FB 33 D0 0F 80 03 FF FF FF +.....3.3.......

l00401120:
	mov	dx,dx
	mov	di,di
	jno	00401023

l0040112C:
	bound	edi,[edi+490D162C]

l00401131:
	dec	ecx
	xor	bh,ah
	mov	edx,ebx
	neg	ch
	sub	cl,al
	dec	ebx
	js	00401041
	lea	ax,[eax]
	jns	00401041
	mov	dl,EB
	add	ecx,esp
	inc	ecx
	add	edi,ebx
	xor	edi,edx
	xor	edx,ebx
	or	ebx,edx
	mov	ebx,ecx
	mov	esi,ecx
	or	edi,eax
	inc	ecx
	jc	004011F6
	xchg	dx,dx
	repne	
	jnc	004011F6
	mov	bh,DA
	sar	byte ptr [ebp+15],01
	fld	st(3)
	leave	
	dec	ecx
	or	esi,eax
	or	ebx,eax
	mov	eax,ebx
	or	esi,ecx
	jpe	004011AE
	mov	bl,bl
	repne	
	jpo	004011AE
	xchg	eax,edi
	push	ebx
	mov	bl,17
	mov	edx,eax
	jmp	004012A7

l00401191:
	dec	ecx
	or	edi,esi
	xor	bh,dl
	sub	bh,bl
	mov	bh,90
	sub	dl,bh
	add	cl,bh
	sub	ecx,edi
	xor	bh,bl
	jpe	00401131

l004011A4:
	rep	
	jpo	00401131
	insb	
	cmp	[edx+7D3FF756],bh
	dec	ebx
	or	edi,edx
	mov	edi,eax
	inc	esi
	or	edx,ebx
	sub	edi,ecx
	add	esi,ebx
	dec	edi
	xor	edi,ecx
	dec	ecx
	jbe	00401244
	push	si
	pop	si
	lea	ecx,[ecx]
	ja	00401244
	nop	
	add	bh,[edx+45BBF15D]
	mov	ebx,edi
	mov	edx,edi
	sub	ebx,edx
	add	edi,ecx
	add	esi,ecx
	inc	edi
	sub	ecx,edi
	dec	esi
	jz	00401268
	push	dx
	pop	dx
	xchg	esi,esi
	jnz	00401268
	mov	cl,25
	jnz	004011B1
	or	ah,al
	illegal	
	mov	edi,ecx
	or	esi,edi
	dec	ebx
	or	ebx,esi
	dec	edx
	inc	edx
	sub	esi,eax
	jo	00401005
	jpo	00401209
	jmp	0040120F
	scasd	
	jno	00401005
	illegal	
	fild	qword ptr [C16611B2]
	sub	edx,ebx
	dec	edx
	or	ecx,edx
	mov	edx,edi
	inc	esi
	add	edx,esi
	or	edx,ebx
	xor	ecx,ebx
	mov	edx,esi
	inc	edi
	jz	004010C0
	repne	
	repne	
	jnz	004010C0
	mov	edi,8877D89D
	push	ecx
	sbb	dword ptr [esi],C62BCB8B
	mov	eax,ecx
	sub	edx,ebx
	inc	eax
	sub	edx,ebx
	sub	edx,esi
	inc	ecx
	dec	eax
	jle	0040118A
	repne	
	xchg	cl,cl
	jg	0040118A
	adc	eax,0C6AECB6
	and	eax,[ebx]
	xlat	
	or	edx,ecx
	add	edx,ecx
	add	edx,eax
	wait	
	dec	ebx
	jle	0040121D
	repne	
	jg	0040121D
	jle	00401210
	cmc	
	ja	004012B1
	mov	[edi],ss
	outsd	

fn0040127F()
	push	ebp
	mov	ebp,esp
	mov	esi,ebx
	xor	edi,edx
	mov	edi,edx

l00401288:
	inc	ebx
	mov	ecx,eax
	mov	ebx,eax
	mov	ecx,edi
	mov	edx,eax

l00401290:
	ror	byte ptr [edi],01
	cmp	dl,FD
	illegal	

l00401297:
	mov	edi,edi
	jnc	00401091

l0040129F:
	mov	[AACB3039],al
	push	es
	insb	
	jno	00401290

l004012A8:
	sbb	dword ptr [ebx],00
	add	[ebx+F794D8BE],ah
	jpe	00401288

l004012B3:
	adc	eax,2929921F
	sub	[eax+edx*2+44],edx
	or	bl,[esi]
	or	[ecx],ebp
	jl	004012C5

l004012C2:
	xchg	eax,esi
	mov	al,fs:[ecx+29]

l004012C5:
	inc	esp
	and	[ecx],ebp

l004012C8:
	sub	[edx],edi
	pop	esi
	mov	esp,[eax-4E]
	xchg	eax,esi
	mov	al,2B
	mov	dl,D2
	adc	eax,19862AB0
	repne	
	and	ax,si
	illegal	
	adc	eax,2921B73B
	sub	[09DC25C5],esp
	sub	eax,21478A75
	sub	[ecx],ebp
	fimul	word ptr [esi+696717E3]
	xchg	eax,esi
	lock	
	jl	004012FC
	xchg	eax,esi
	jz	004012E1
	add	ebx,es:[ecx+ebx]
	add	ebx,esp
	or	edx,esp
	jg	0040135A
	or	cl,[edx+29291925]
	pop	ebp
	popa	
	stc	
	push	ss
	shl	ah,cl
	pop	ecx
	xchg	[ebp+86292905],dh
	pop	edi
	sub	eax,83862929
	add	eax,3C0B2929
	cmpsb	
	mov	eax,29E91D03
	sub	[ecx],ebp
	mov	ah,[CAA82929+edi]
	and	al,2D
	add	eax,646CF7A1
	xchg	[edi+0D],dl
	sub	[ecx],ebp
	repne	
	cmp	al,D6
	or	[ecx],ebp
	sub	[ecx],ebp
	adc	eax,290D3D37
	sub	edx,edx
	cld	
	out	D2,al
	cld	
	not	dl
	cld	
	mov	dh,8A
	mov	cs,[ecx]
	sub	[ecx],ebp
	pop	ebp
	and	al,59
	mov	ebp,1B093C25
	sub	[ecx],ah
	push	86D6FCD2
	mov	esp,83292931
	and	edx,ecx
	sub	[29258D3B],edx
	sub	[edx+29290D97],ecx
	xchg	eax,ecx
	add	al,0A
	pop	dword ptr [ecx+7B]
	stc	
	add	edi,[ecx+ecx]
	add	ebx,[ecx+ebx]
	add	edi,[ecx+ebp*2-13]
	or	ebp,ebp
	imul	edx,[eax+edx*2+0A],7C29191E
	mov	dh,[ecx+3129292D]
	fidiv	word ptr [eax+0AE568DB]
	mov	bh,[ebp+0D]
	sub	[ecx],ebp
	insb	
	add	edx,[ecx]
	and	eax,8A26E5FE
	jo	004013E3
	sub	[ecx],ebp
	sub	ah,[esi]
	xor	eax,8A2C2DE1
	add	al,31
	sub	[ecx],ebp
	mov	ebp,[ebx-33]
	adc	edx,[esi+803FEEC2]
	sub	[esi+292901D2],eax
	or	edi,[esi+esi*2]
	add	ebx,[esi+25]
	inc	esp
	fldcw	word ptr [ebx]
	and	ch,[ecx+0329292D]
	inc	esp
	sbb	[FCD2A65C],esp
	xchg	eax,esi
	sar	ah,cl
	mov	dh,8A
	add	al,D2
	rcl	dl,cl
	mov	cl,91
	xor	ecx,ecx
	inc	ebp
	xor	ebp,[eax-78]
	pop	es
	push	esp
	test	al,A6
	xchg	[edx],ch
	into	
	rcl	dl,cl
	mov	[ebx+68F62588],al
	xchg	[edi+8A292931],dl
	scasd	
	cmp	eax,C8252929
	out	dx,al
	cmp	[edx+2825485B],bl
	fld	dword ptr [ebx]
	jl	00401425
	add	ebp,[eax]
	enter	1E25,03
	mov	byte ptr [ebx],E8
	test	eax,0803DE25
	dec	ecx
	or	ebx,[esi+edx*8]
	add	ebx,[ecx+ebx-76]
	test	dl,dl
	rcl	dl,cl
	sub	eax,33754872
	adc	bl,[ebp+7C]
	add	edx,[esi+03747064]
	pop	esp
	or	[ebx],eax
	bound	ecx,[edx+29290104]
	lodsb	
	dec	eax
	mov	al,F1
	push	8676FCD2
	pop	esp
	cmp	eax,3CF22929
	illegal	
	imul	ebp,[ecx],37152929
	imul	edi,[ecx],FCD22929
	cmpsb	
	xchg	[esi+0D],ah
	sub	[ecx],ebp
	sar	ah,cl
	push	esi
	sar	ah,cl
	cmpsb	
	mov	al,dh
	xor	[ecx],ebp
	sub	edi,edi
	cmp	eax,05A319FA
	inc	edx
	adc	eax,29098F37
	sub	[578A095C],esp
	or	[ecx],ebp
	sub	[ebx],eax
	and	al,19
	and	eax,8A68093C
	js	004014D2
	sub	[ecx],ebp
	fdiv	dword ptr [ecx]
	mov	eax,[edi+7F]
	mov	cl,86
	imul	esi,[ecx],66D22929
	add	edi,[ecx+ecx]
	or	bl,[esi]
	or	[ecx],ebp
	jl	004014B4
	xchg	eax,esi
	mov	[ecx],ch
	daa	
	sub	[ecx],ebp
	mov	ch,[esi+21]
	sub	[ecx],ebp
	pop	dword ptr [ecx+630A2B2C]
	add	edx,[esi+19FC03A8]
	add	ebx,esp
	or	esi,edx
	fbld	tword ptr [edi]
	in	eax,42
	mov	bh,E3
	and	[edx+29292574],ecx
	illegal	
	illegal	
	sbb	cl,[ebp+5C862CF1]
	cmp	[ecx],ebp
	sub	[ebp+0A],esp
	xchg	[eax+39],dh
	sub	[ecx],ebp
	loopne	004014CA
	and	al,[ebp+0B89B9D8]
	fdivr	dword ptr [ecx+8A0AAC59]
	lahf	
	xor	[ecx],ebp
	sub	[esi],ecx
	illegal	
	add	cl,86
	mov	edi,88D2D2DA
	or	dword ptr [eax+8668F625],BB
	cmp	eax,66D22929
	or	bl,[esi]
	or	[ecx],ebp
	jl	004014A3
	mov	ss,[ecx]
	sub	[ecx],ebp
	fist	dword ptr [ebx]
	add	dword ptr [B816E73C],29E97D03
	sub	[ecx],ebp
	add	esp,[eax+19]
	add	edi,[esi]
	and	esp,[edx]
	sbb	[ebx],eax
	pusha	
	sbb	[ebx],eax
	popa	
	mov	dh,[edi+03292929]
	add	cl,ch
	in	eax,26
	mov	ah,[D9D12929+edi]
	outsd	
	out	dx,ax
	cld	
	jo	00401555
	cmp	[ecx+0C],eax
	add	eax,413B150A
	cmp	[ecx],ebp
	sub	[edx+ecx-76],eax
	jmp	far 2729:2909
	xor	dl,[eax]
	sub	eax,5EF2888D
	cwde	
	int	03
	push	293D3C86
	sub	edx,edx
	add	di,[esi+edx*8]
	or	bl,[esi]
	or	[ecx],ebp
	jl	00401506
	nop	
	xor	[ecx],ebp
	sub	[ecx-59],esp
	mov	ah,04
	jge	00401514
	inc	edx
	and	ebp,[esi]
	and	[ebx],esp
	mov	ah,[ecx]
	add	eax,F33B150A
	cmp	[ecx],ebp
	sub	[C4233944],esp
	cmp	[ecx],ecx
	adc	eax,29393F33
	sub	[eax+edx*2+44],edx
	mov	cl,[ecx]
	cmp	eax,5C492929
	add	[edi-68],bh
	aas	
	mov	bh,D1
	sub	byte ptr [ecx],80
	sub	[eax+A6A85407],ecx
	xchg	[ecx],ch
	illegal	
	ror	[eax+E5B9D2EF],cl
	push	29398286
	sub	[edx+29290981],ecx
	dec	ebp
	cmp	eax,03F66E46
	and	[ecx-7E],cl
	adc	[edx+E5610339],eax
	lds	esp,es:[edx+15]
	cmp	edi,[eax-2E]
	rcl	dl,cl
	inc	esp
	mov	bh,[esi]
	or	[ecx],ebp
	sub	esp,edx
	or	eax,8439BC33
	in	al,31
	and	eax,esi
	aam	F4
	and	[esp+ebp],ebp
	jpo	0040158A
	and	eax,4AA72929
	call	far AE97:6E90
	adc	byte ptr [edx+A62A086B],09
	xchg	eax,edi
	xchg	cl,ah
	and	eax,29DD2929
	fsubr	double ptr [ecx]
	sub	esp,esp
	pop	edx
	daa	
	illegal	
	cmp	eax,78EA6A82
	illegal	
	mul	dword ptr [edx+esi*8-33]
	mov	cl,50
	inc	esp
	or	bl,[esi]
	sbb	[ecx],ebp
	jl	00401637
	xchg	eax,esi
	mov	bh,ah
	and	[ecx],ebp
	sub	[eax+5420F0EB],ebx
	mov	ch,cs:[ebp+DC232929]
	sbb	[ecx],eax
	adc	eax,29252C1F
	sub	[ebx],eax
	and	ah,ch
	pop	esi
	retf	
	add	[ecx],ebp
	sub	[ecx],ebp
	repne	
	jmp	far 4A25:4625
	mov	ch,bl
	sub	eax,6CD72929
	rep	
	adc	eax,[ebp+edx-78]
	pop	es
	push	esp
	test	al,A6
	xchg	[esi+edx*8],bl
	rcl	dl,cl
	mov	[eax+36],dl
	repne	
	mov	gs,[eax-7A]
	leave	
	cmp	[ecx],ebp
	sub	edx,edx
	sar	ah,cl
	or	[eax+A6A85407],ecx
	xchg	ch,ah
	illegal	
	rcl	dl,cl
	mov	dh,[esi-32]
	rcl	dl,cl
	push	ecx
	sub	eax,054B4044
	and	eax,0E8A09DC
	illegal	
	rcl	dl,cl
	wait	
	mov	ebp,[ecx]
	sub	[ecx],ebp
	daa	
	adc	eax,D2D6DF37
	sar	ch,cl
	sub	[ecx],ebp
	sub	[edi],esp
	push	86D6FCD2
	dec	ecx
	and	eax,8F8A2929
	illegal	
	rcl	dl,cl
	mov	bh,[edi]
	illegal	
	rcl	dl,cl
	div	dword ptr [ebx]
	or	ecx,[eax]
	push	ebx
	mov	bl,D2
	in	al,78
	sar	ah,cl
	jbe	004016A3
	cld	
	cmpsb	
	xchg	[edx+21],dl
	sub	[ecx],ebp
	adc	eax,2B3104F3
	and	al,dh
	sub	[ecx],ebp
	sub	[edx+29292D7E],ecx
	insb	
	mov	bh,[ecx]
	cmp	[ecx],ebp
	sub	[edi+6CFF3C5E],esi
	xchg	[esi],ah
	and	[ecx],ebp
	sub	[ebx],eax
	and	al,19
	and	eax,E4D2A63C
	mov	ecx,6809E4D2
	xchg	[ecx],dl
	into	
	rcl	dl,cl
	dec	esp
	and	esp,[edx]
	mov	[edx+29292DCF],ecx
	sti	
	jmp	00401748
	sbb	eax,[esi+D2D2C2BB]
	mov	[ebp-14],ah
	add	eax,678668EB
	and	eax,66D22929
	sbb	edi,[esi]
	push	68F63C1B
	mov	bl,ah
	into	
	rcl	dl,cl
	wait	
	sbb	esi,[esi+ecx*8+2929EA8A]
	sub	[esi+D2D2DA3F],eax
	test	[edx],eax
	adc	eax,D2CE1E3B
	rol	[esi+29292DBE],cl
	mov	ah,[ecx]
	and	[ecx],ebp
	sub	[edi+3715866A],edx
	adc	ebx,edx
	rcl	dl,cl
	or	cl,gs:[edx+D2D2CEAF]
	mov	esi,86655F4E
	scasb	
	xor	[ecx],ebp
	sub	edx,esi
	cmp	al,D6
	cmp	[ecx],ebp
	sub	[ecx],ebp
	clc	
	adc	[eax-2E],ebp
	cld	
	jbe	00401702
	jno	00401754
	rcl	dl,cl
	mov	bh,[edx-2A]
	rcl	dl,cl
	sar	ah,cl
	mov	dh,8A
	illegal	
	rcl	dl,cl
	out	dx,al
	rol	byte ptr [esi-6E],01
	inc	edx
	sbb	edi,[ecx+ebx]
	push	68093C1B
	adc	dl,88
	pop	es
	push	esp
	test	al,A6
	mov	al,[edx+ebx*8-2E]
	shl	[edx],cl
	mov	ah,13
	and	esi,[esi]
	out	D2,al
	cld	
	or	[ebx],ebx
	cmp	al,C6
	push	A8540788
	cmpsb	
	xchg	[ecx],ah
	ret	D2D2
	mov	[eax+36],dl
	repne	
	mov	gs,[eax-76]
	popa	
	xor	[ecx],ebp
	sub	[ecx+edx*4],esp
	bound	ebx,esp
	sar	ah,cl
	cmpsb	
	xchg	[eax],ah
	illegal	
	rol	[ebx],cl
	cmp	al,A6
	add	eax,[esi]
	and	eax,2803D928
	mov	[663C0B2A],esp
	sar	ah,cl
	xchg	[edx+D2D2C23E],cl
	cmp	[ebp-07],edi
	cmp	edi,[edx+B0FB78C0]
	jbe	6AC62FAC
	push	es
	loopne	004017C9
	add	edi,[esi+eax*8]
	or	edi,[esi+eax*2]
	add	edi,[esi+edx*4]
	mov	bl,[edx+31]
	sub	[ecx],ebp
	add	ecx,[ecx]
	sub	eax,25DA3CAD
	add	edi,esi
	loop	004017D1
	and	eax,7E23D6FC
	add	edx,esi
	add	edi,esi
	mov	ah,[ebp+ebp+558C2929]
	and	[eax-0B],al
	xchg	[bx+di],bl
	sub	eax,23152929
	outsd	
	illegal	
	rcl	dl,cl
	in	eax,0A
	xchg	dl,dl
	sub	[ecx],ebp
	sub	[D2CEF223],edx
	shl	ch,cl
	mov	al,dh
	cmp	[ecx],ebp
	sub	[ebx-08],ecx
	call	far 3C0B:9CC8
	cmpsb	
	illegal	
	mov	[ecx],ch
	sub	[ecx],ebp
	sub	[ebx],edx
	cmp	al,D6
	mov	ch,bh
	xchg	eax,edx
	adc	dword ptr cs:[ebx],3C
	mov	byte ptr [edx+29292DE2],8F
	pop	esp
	aaa	
	push	edx
	retf	7028
	or	ebp,[ecx+ecx]
	sar	ah,cl
	push	esi
	sar	ah,cl
	cmpsb	
	xchg	ah,bh
	mov	esi,5C03D2D2
	jbe	004018AB
	inc	esp
	illegal	
	illegal	
	rcl	dl,cl
	illegal	
	mov	eax,64C0E78D
	xchg	[edi],bh
	illegal	
	rol	[ebx],cl
	and	ah,[E8D2D928]
	stc	
	xchg	fs:[ebx-3E],dh
	rcl	dl,cl
	mov	dh,bl
	and	eax,40652929
	illegal	
	and	esi,[esi]
	illegal	
	jo	00401929
	add	ebx,[ecx+ecx+25]
	inc	esp
	fstp	dword ptr [ebx]
	inc	ebx
	daa	
	sub	[ecx],ebp
	sub	[ebx],eax
	inc	ebp
	mov	dh,bl
	ret	D2D2
	mov	eax,[70EC9FEB]
	mov	edx,050CA977
	or	dl,[D2CE113B]
	rcl	dl,cl
	cld	
	xchg	dl,dl
	cld	
	jbe	00401866
	add	al,dl
	rcl	dl,cl
	mov	al,bh
	and	[ecx],ebp
	sub	[ebx+A935D93B],eax
	repne	
	xchg	[ebx+0B292925],bh
	cmp	al,D6
	and	eax,ebp
	sub	eax,edi
	cmp	[ebx],eax
	in	eax,82
	and	eax,2569E403
	cld	
	or	[ebx],eax
	les	ebp,[ecx-76]
	call	edx
	rcl	dl,cl
	jz	00401985
	add	al,11
	fsubr	st(0),st(5)
	ja	00401896
	jl	0040191B
	xchg	eax,esi
	and	esi,[esi]
	push	ss
	sub	byte ptr fs:[ecx],15
	in	eax,dx
	add	eax,[esi]
	sub	ebp,[edx+292929D2]
	sub	byte ptr [2939888A],29
	inc	ebx
	mov	dh,[ebx+2D]
	sub	[ecx],ebp
	add	eax,5082A62A
	mov	dl,[edx+21D2D2CE]
	pop	esi
	cld	
	cmp	eax,613071FF
	pop	esi
	and	ah,ch
	or	cl,[edx+D2D2C217]
	pop	edi
	test	eax,0349F95C
	cmp	ah,bl
	sub	eax,85F20370
	out	E2,al
	mov	bh,82
	outsb	
	push	ss
	dec	eax
	out	BB,al
	add	ebx,[ecx+ebx]
	add	ebx,[ecx+ecx-76]
	dec	esi
	ret	D2D2
	add	edi,[ecx+ebp*2]
	std	
	jpe	0040194B
	popa	
	std	
	sub	al,[esi]
	insd	
	popf	
	loopne	0040192B
	outsd	
	jns	0040190E
	in	eax,39
	sub	[ecx],ebp
	mov	[E2DFA6E1],al
	mov	bh,82
	add	[ebx],eax
	sbb	al,19
	loop	0040194C
	mov	dh,ch
	and	eax,3C032929
	illegal	
	lea	edi,[esi+eax*8]
	and	esp,[esi]
	add	[ebp+DC23193C],ecx
	sbb	[ecx],ebp
	mov	bl,[ecx+25]
	sub	[ecx],ebp
	mov	[33F0F639],eax
	cdq	
	push	96037C22
	jo	00401A30
	add	ebx,[ecx+ebp*2]
	add	edi,esp
	sbb	[edx+29293958],ecx
	mov	cl,6B
	mov	[E63C037E],al
	or	bl,[esi]
	cmp	[ecx],ebp
	jl	004019D7
	xchg	eax,esi
	and	esi,[esi]
	neg	byte ptr [ebx]
	cmp	al,D6
	push	D219DC2B
	shr	[ecx],cl
	sub	esp,esi
	imul	eax,[edx+04510339],19FCD2F4
	sub	byte ptr [ecx],8A
	add	edx,esi
	rcl	dl,cl
	sub	byte ptr [ecx],1B
	cmp	al,F6
	push	6819FCD2
	mov	bh,[esi+edx*8+8C50D2D2]
	in	eax,dx
	movsd	
	adc	dl,[edx+27]
	int	29
	adc	eax,D2CAAB3B
	sar	ch,cl
	pop	ds
	mov	esi,22C50468
	adc	eax,29216F3B
	sub	[ebx],eax
	xor	al,B9
	and	eax,F3154C1E
	sbb	[eax],ecx
	add	esi,[ecx+ebx*2]
	mov	dh,al
	and	[ecx],ebp
	sub	[edx+BED99587],edx
	mov	bl,[eax-3E]
	rcl	dl,cl
	add	eax,[ecx+edi]
	and	ecx,[edx+23E20309]
	or	cs:[edx+D2D2C22C],ecx
	adc	eax,F31531F3
	mov	byte ptr [edx+D2D2C6C8],37
	xchg	eax,esi
	jcxz	004019E7
	jge	00401A0E
	and	al,C2
	mov	[esi],dl
	push	ss
	push	ss
	push	ss
	adc	edi,[esi+esi*8]
	mov	[esi],dl
	push	ss
	push	ss
	push	ss
	adc	edi,[esi]
	mov	[ecx],ch
	illegal	
	sub	[ecx],ebp
	adc	edi,[esi+eax*4]
	mov	[ecx],ch
	illegal	
	sub	[ecx],ebp
	adc	edi,[esi+esi*4]
	mov	dl,[esi+5E292921]
	retf	
	das	
	push	ebx
	int	D2
	or	byte ptr [ecx],2A
	xor	eax,2A232DE1
	and	[eax+FC29CD23],esi
	fdivp	st(5),st(0)
	pop	ds
	mov	esi,3CC50468
	or	[D2C2FD3B],edx
	ror	[edx+D2D2C28D],cl
	sub	byte ptr [edi],35
	jc	00401A5E
	or	bl,[esi]
	or	[ecx],ebp
	jl	00401ABB
	xchg	eax,esi
	and	esi,[esi]
	illegal	
	jo	00401B33
	add	edi,[ecx+ecx]
	mov	dl,[edx+ecx*8]
	rcl	dl,cl
	cmc	
	pop	esi
	sbb	cl,bl
	jcxz	00401AFB
	dec	edx
	inc	dx
	cmp	[ecx+4EB93942],edi
	sub	al,[edx+39]
	mov	ecx,4E628215
	sub	al,[edx+39]
	mov	ecx,82152A4E
	sub	cl,[edx+2929218B]
	jnz	00401B0D
	leave	
	or	bh,03
	and	al,79
	and	eax,0403763C
	sbb	[E4D2A61C],esp
	imul	ebp,[eax-76],D2D2C282
	adc	eax,68CBC7FA
	daa	
	fsubr	double ptr [ecx+29]
	adc	eax,292DD737
	sub	[0B693CEF],edx
	cmp	al,D6
	add	edi,esp
	or	[ebx],eax
	into	
	adc	eax,8A6D5CEF
	jno	00401AEA
	rcl	dl,cl
	jge	00401AFE
	call	61F1CD92
	sar	ah,cl
	or	[ebx],edx
	xor	[ecx-2E],cl
	cld	
	imul	edx,[ebx],01825930
	add	esi,ecx
	lds	ebx,esi
	adc	eax,292DFE3B
	sub	[edx+ecx*4+5A],edx
	mov	esi,0D21D2D2
	xor	[esi],esp
	pushf	
	add	eax,88D28068
	pop	es
	push	esp
	test	al,A6
	xchg	[eax-0E],dl
	rcl	dl,cl
	mov	[eax+68202164],dh
	mov	bh,cl
	retf	D2D2
	pusha	
	aaa	
	xor	ebx,[ecx]
	xchg	eax,ecx
	xchg	cl,cl
	retf	D2D2
	add	ebx,[esi+esi*2+25]
	inc	esp
	fstp	dword ptr [ebx]
	inc	esp
	dec	ecx
	shl	ah,cl
	leave	
	adc	edi,[esi+edx*2]
	shl	ah,cl
	leave	
	shl	ah,cl
	pop	ecx
	shl	ah,cl
	leave	
	shl	ah,cl
	pop	ecx
	mov	cl,ah
	repne	
	rcl	dl,cl
	push	ecx
	sub	al,11
	mov	ebp,ebx
	push	cs
	jbe	00401BBD
	or	[ecx],ebp
	add	ebx,[esi]
	add	ebp,[ecx+ebx*8]
	add	edi,[eax]
	sub	eax,0B2A2589
	cmp	al,16
	add	ebx,[esi-2E]
	cld	
	push	ss
	sar	ah,cl
	xchg	fs:[ebp+29],ah
	sub	[edx+D2D2D60E],ecx
	loop	00401BD1
	illegal	
	and	ebp,[esi]
	imul	ecx,[eax+29292829],26B9180B
	sbb	ebx,[eax]
	mov	ecx,780B6C26
	mov	ecx,B9781B26
	pusha	
	adc	dl,8A
	add	eax,A0D2D2C6
	lodsd	
	xchg	eax,ebp
	iret	
	mov	eax,[36239603]
	mov	byte ptr [eax+esi*2+74],03
	cmp	al,19
	test	[ecx+edi*2],edi
	or	edi,[ecx+ebx]
	or	edi,[esi+eax*8]
	mov	bh,[ecx]
	rcl	dl,cl
	ror	al,cl
	illegal	
	fild	word ptr [ebx]
	xchg	eax,esi
	and	esi,[esi]
	illegal	
	sbb	edi,[esi+edx*8]
	push	1B69FCD2
	cmp	al,19
	push	2921688A
	sub	[ebx],ebp
	adc	esp,ecx
	mov	al,E4
	test	al,8A
	add	ch,[ecx]
	sub	[ecx],ebp
	and	ecx,[edx+FF6C97C4]
	illegal	
	jmp	far 5E0E:2165
	illegal	
	pop	esi
	push	es
	mov	dh,[ebx+87292929]
	xchg	[ecx],ch
	adc	eax,8664BA08
	cdq	
	retf	D2D2
	or	edi,[esi+esi*4]
	sar	ah,cl
	mov	dl,FC
	mov	dh,64
	mov	bl,[ecx]
	ret	D2D2
	jge	00401C77
	and	al,36
	int	44
	retf	
	sub	[ecx+29],ebp
	sub	[ebx],eax
	jl	00401CB1
	add	edi,[esi+edx]
	or	al,[ebx]
	test	byte ptr [edx+D2D2D260],FE
	sar	[ecx],cl
	cmc	
	xchg	eax,edi
	push	esi
	sub	ch,[edx+A8540788]
	cmpsb	
	xchg	cl,cl
	out	dx,al
	rcl	dl,cl
	mov	[edx+687A3785],ah
	xchg	[ebp+D2D2D2CE],ah
	or	bl,[esi]
	cmp	[ecx],ebp
	jl	00401C9E
	xchg	eax,esi
	mov	cl,[A1D2D2C2]
	illegal	
	test	[edx-60],ecx
	and	eax,0739031E
	and	eax,EE3D8A1E
	rcl	dl,cl
	and	byte ptr [ecx],E5
	dec	esp
	and	ebp,[esi]
	cmp	[8E8AD61C+eax*8],ebp
	cli	
	rcl	dl,cl
	les	esp,[edi+F517F78C]
	adc	eax,D2CAF83B
	rol	[ebx],cl
	cmp	al,C6
	push	esp
	push	eax
	inc	esp
	or	bl,[esi]
	imul	ebp,[ecx],6496037C
	mov	dh,[edi]
	illegal	
	rcl	dl,cl
	xchg	eax,ebp
	mov	ebx,4C22D93A
	jg	00401D11
	push	2A
	push	ds
	and	eax,23D20C1B
	sub	al,ah
	and	ecx,edx
	les	edx,[D2D2993B]
	ror	[edx+D2D2EED4],cl
	inc	ebp
	imul	edi,edx,E403DDE9
	sbb	[edx+CE918A3D],eax
	rcl	dl,cl
	add	esi,[eax]
	pop	ecx
	lds	esi,[edx]
	adc	eax,D2CEAD3B
	ror	[edx+D2D2CE11],cl
	stc	
	dec	ebx
	int	03
	push	ecx
	pop	ds
	and	esp,[edx]
	jns	00401D4F
	les	ebx,[ecx]
	sub	[D2F2403B],edx
	rcl	[eax+edx*2+44],cl
	or	bl,[esi]
	cmp	[ecx],ebp
	mov	dl,dh
	out	dx,al
	rcl	dl,cl
	lodsd	
	adc	al,CB
	dec	ebp
	add	[esi+D2D2C2FA],al
	adc	eax,D2BE3923
	shl	bl,cl
	and	[edi],ebp
	imul	eax,[esi+D2D2C2BA],F2E42661
	adc	eax,D2C2EE3B
	sar	[edi-76],cl
	push	cs
	retf	D2D2
	mov	byte ptr [8825AD4B],BD
	inc	edx
	mov	ch,E0
	adc	edi,[esi+edx*4]
	add	edi,[esi]
	and	eax,0803D928
	push	80561C0B
	sub	dl,dl
	cld	
	push	esi
	mov	dl,ch
	mov	esi,3037D2D2
	xchg	eax,edx
	dec	ecx
	jmp	00401DCB
	sbb	ecx,[5889CA2B+ebp]
	adc	esp,[ecx]
	adc	eax,D2C2173B
	ror	[eax+42],cl
	jns	00401D61
	dec	eax
	mov	dword ptr [E5292929],BE288A5E
	rcl	dl,cl
	pop	es
	leave	
	popa	
	illegal	
	mov	[E5693C0B],eax
	pop	esi
	repne	
	cld	
	sbb	edi,edi
	cmp	[ebp-2E],cl
	illegal	
	inc	ecx
	pop	es
	mov	eax,C08AD24D
	repne	
	rcl	dl,cl
	mov	bh,CA
	in	eax,dx
	mov	ebx,[esi-63]
	cmp	dword ptr [D2D66E86],D2
	shl	[esi-80],cl
	sub	eax,68C63C1B
	sbb	edi,[esi+esi*8]
	push	A8540788
	cmpsb	
	mov	ch,[ecx+28D2D2CA]
	and	eax,66D254A9
	sbb	edi,[esi+esi*8]
	push	A8540788
	cmpsb	
	xchg	bh,ch
	not	dl
	ror	[eax+EA46912A],cl
	push	D2D6AB86
	rcl	dl,cl
	mov	dl,[ebx+D3D2D2C2]
	cmp	[esi+eax],cl
	test	eax,DC0389F6
	or	edx,esp
	mov	bh,03
	xor	dl,[eax+edx*2+0A]
	push	ds
	sbb	[ecx],ebp
	mov	bl,[esi]
	not	dl
	shr	[ecx+28E1C7CC],cl
	xchg	eax,ebp
	or	bl,[esi]
	sbb	[ecx],ebp
	jl	00401E44
	xchg	eax,esi
	sar	ah,cl
	or	[eax+CEE18AD2],eax
	rcl	dl,cl
	illegal	
	in	eax,dx
	in	eax,dx
	illegal	
	sbb	[ecx],ebp
	jl	00401E59
	xchg	eax,esi
	jo	00401ECD
	add	edi,esp
	or	[ebx],eax
	into	
	add	ebx,[ecx+ebx]
	add	edi,[ecx+ebp*2+23]
	sub	al,ah
	mov	bh,[edi+DFD2D2DA]
	push	ss
	sar	edx,cl
	sbb	edi,[ecx+ecx]
	push	0788D280
	push	esp
	test	al,A6
	xchg	[eax],ch
	not	dl
	ror	[eax+E42E19D7],cl
	push	D2D68586
	rcl	dl,cl
	add	di,[esi+edx*8]
	or	byte ptr [ebx+7BEB29E0],95
	push	cs
	test	[ecx+ebx+25],edi
	inc	esp
	fstp	dword ptr [ebx]
	inc	ebx
	cmpsd	
	sub	[ecx],ebp
	sub	[ebx],eax
	inc	ebp
	add	ebx,[ecx+ecx]
	add	eax,EA371542
	out	dx,al
	rcl	dl,cl
	lds	ebx,[ecx+ebx]
	adc	eax,D2EE8637
	shl	[FC8A095C],cl
	ret	D2D2
	and	[esi],esp
	lock	
	add	eax,0A68A7C9
	push	ds
	cmp	[ecx],ebp
	jl	00401ED2
	xchg	eax,esi
	sub	byte ptr [eax],88
	sub	ecx,ebp
	sub	[ecx],ebp
	sbb	edi,[ecx+ebx]
	push	3C1B2980
	or	[edx+D2D2D6E8],ecx
	test	dword ptr [edx+82B842EB],08698221
	sub	al,[esi+15A62A15]
	adc	eax,8A2B09F3
	sbb	al,40
	sub	[ecx],ebp
	add	eax,8A96FC0A
	sbb	dl,cl
	rcl	dl,cl
	push	esp
	sub	eax,54DE4B60
	inc	ebp
	out	dx,ax
	push	ds
	or	[ecx],ebp
	jl	00401F17
	xchg	eax,esi
	jo	00401F8C
	add	ebx,esp
	sbb	[eax+29E95D03],edi
	sub	[ecx],ebp
	add	eax,[ecx+ebx+03]
	sbb	fs:[edx+D2D2DA56],ecx
	insb	
	mov	eax,eax
	out	D8,al
	xor	ebp,[ebx]
	mov	ebp,F12BC203
	or	esi,edi
	or	al,ah
	or	ah,cl
	dec	esi
	dec	esi
	jpe	00402287
	mov	bx,bx
	mov	si,si
	jpo	00402287
	rep	
	loop	00401F3D
	daa	
	cld	
	jg	00401F50
	illegal	
	xor	bl,ah
	or	bh,ch
	inc	ebx
	add	ebx,ecx
	mov	ebx,edi
	mov	esi,ecx
	or	esi,edi
	jl	00402B18
	xchg	bx,bx
	jge	00402B18
	bound	edi,[eax-3C]
	std	
	mov	ecx,32422242
	xlat	
	add	ah,bh
	xor	edx,edi
	add	eax,esi
	or	edx,ebx
	jle	00402B3B
	rep	
	jg	00401F93
	jg	00402B3B
	mov	dword ptr [ecx+0367E0B6],B7F98ADF
	dec	edx
	mov	bl,26
	xor	edi,esi
	xor	edi,edx
	or	bh,ch
	mov	bl,bh
	jl	0040202C
	repne	
	jge	0040202C
	not	dword ptr [ebp-27]
	or	ax,05EB
	sub	al,8B
	lock	
	dec	esi
	sub	ch,bh
	xor	cl,ah
	or	edi,ebx
	mov	edi,esi
	jc	00402318
	repne	
	mov	ecx,ecx
	jnc	00402318
	cmp	[edi],cl
	mov	ebp,95862039
	add	ebx,0000066A
	dec	esi
	sub	edx,edi
	xor	ah,bl
	mov	ecx,eax
	sub	ch,al
	dec	ecx
	xor	dh,dl
	xor	ecx,esi
	sub	edx,eax
	jle	00402ACF
	mov	ch,ch
	repne	
	jg	00402ACF
	mov	esp,A77AEBB8
	cmp	eax,414EC78B
	add	ch,dl
	or	ch,bh
	mov	dl,85
	mov	edx,edi
	add	eax,edi
	jl	004029AA
	xchg	di,di
	mov	cl,cl
	jge	004029AA
	int	03
	pop	dword ptr [ebp+4EFB0331]
	inc	esi
	mov	bh,dh
	xor	bh,dl
	xor	bh,dl
	neg	bh
	xor	bh,ah
	add	eax,08
	jz	00402C24
	xchg	si,si
	mov	bl,bl
	jnz	00402C24
	stc	
	cmp	dh,[eax-7E]
	enter	C12B,02
	les	ebp,[edx]
	jcxz	0040205E
	ret	4E46
	xor	esi,edi
	add	ah,ch
	mov	[ebx],dh
	jc	00401F35
	mov	ah,ah
	xchg	cl,cl
	jnc	00401F35
	xchg	[ebx],ecx
	mov	bh,bl
	inc	esi
	or	esi,edi
	xor	ebx,ecx
	inc	edi
	add	ch,ah
	xor	bh,ch
	xor	edx,ecx
	inc	ebx
	jl	0040217E
	rep	
	mov	bh,bh
	jge	0040217E
	push	6C
	adc	[eax+F7330CC6],eax
	sub	ah,cl
	mov	al,dh
	xor	esi,ecx
	add	eax,ebx
	mov	esi,eax
	or	al,ch
	jc	00402CEA
	lea	esi,[esi]
	jnc	00402CEA
	cld	
	mov	ebx,B8D61A95
	cld	
	or	edx,esi
	mov	al,41
	inc	eax
	add	eax,esi
	sub	eax,edi
	add	edx,ebx
	xor	dl,ch
	sub	edx,ebx
	mov	eax,edi
	sub	eax,edx
	jbe	004028FC
	ja	004020D9
	xchg	bh,bh
	ja	004028FC
	sbb	eax,493A8AF4
	mov	[F00B10B5],eax
	xor	ch,dl
	sub	edx,eax
	mov	al,bl
	or	ebx,edi
	add	edx,ecx
	push	40
	jbe	004021F3
	mov	dh,dh
	ja	004021F3
	push	es
	adc	al,53
	push	ecx
	or	al,cl
	inc	edi
	mov	al,27
	xor	ebx,esi
	sub	esi,eax
	xor	edi,esi
	xor	edx,eax
	add	dh,cl
	sub	dh,ch
	sub	bh,dl
	jc	00402A5C
	xchg	dl,dl
	jbe	00402126
	jnc	00402A5C
	outsb	
	mov	eax,B6FE0776
	push	edx
	mov	esi,ecx
	xor	ecx,eax
	add	ecx,eax
	or	ecx,ebx
	add	dh,ch
	push	ebx
	dec	ecx
	dec	edx
	or	al,cl
	jc	00402A36
	rep	
	lea	cx,[ecx]
	jnc	00402A36
	jmp	far B5C2:FB7A
	out	dx,al
	neg	ch
	sub	ebx,ecx
	push	00003000
	mov	al,bh
	xor	dh,ch
	xor	cl,ch
	add	edi,ecx
	jz	0040244B
	lea	edi,[edi]
	jnz	0040244B
	adc	al,36
	cmp	[eax+FF8DDBBB],ah
	ror	byte ptr [ecx+4E],01
	sub	esi,edx
	or	ebx,ecx
	mov	ch,D4
	dec	ecx
	neg	dl
	or	cl,bh
	add	dh,dl
	jpe	00402602
	xchg	si,si
	jpo	00402602
	inc	esp
	mov	al,93
	insb	
	dec	ebx
	stosb	
	jl	004021DA
	stc	
	inc	esi
	mov	bl,ah
	mov	bh,08
	mov	bh,dh
	sub	edi,eax
	mov	bh,ah
	add	bh,dh
	add	edi,ecx
	push	ecx
	jbe	004025DD
	jmp	004021C4
	ret	
	lea	dx,[edx]
	ja	004025DD
	mov	esp,esi
	cmpsb	
	adc	byte ptr [ebx+2BF332B2],D3
	or	edx,ecx
	add	ebx,esi
	sub	dl,bh
	inc	esi
	jbe	004023E1
	rep	
	ja	004023E1
	sub	ds:[ebp+E3F0BF28],ecx
	push	esp
	sub	ecx,ebx
	mov	cl,al
	add	dh,ah
	or	esi,ecx
	mov	cl,10
	add	dl,ah
	mov	bh,dh
	xor	eax,esi
	neg	al
	js	00402D0D
	xchg	bh,bh
	lea	cx,[ecx]
	jns	00402D0D
	lock	
	movsd	
	jle	004021BB
	dec	edx
	sub	ebx,eax
	xor	ebx,edi
	dec	edx
	mov	bh,2C
	dec	edx
	jc	00402D93
	lea	eax,[eax]
	jnc	00402D93
	add	al,EB
	add	al,98
	mov	dword ptr [edx],F6C20A9B
	fadd	double ptr [eax+C1028AEE]
	mov	ah,17
	or	esi,edx
	mov	al,bh
	mov	esi,ecx
	or	esi,ebx
	add	al,bl
	jbe	00402E82
	lea	eax,[eax]
	ja	00402E82
	mov	[edx+0B81CC47],ss
	fmul	dword ptr [edi-76]
	fadd	dword ptr [edx]
	clc	
	mov	bl,al
	mov	bh,dl
	neg	bl
	mov	esi,ebx
	movzx	ebx,ah
	mov	edi,eax
	jbe	00402750
	jno	0040227C
	ja	00402750
	jnz	00402273
	out	7E,al
	dec	eax
	inc	eax
	mov	eax,edi
	add	eax,edx
	sub	eax,ebx
	xor	esi,eax
	jz	00402595
	repne	
	jnz	00402595
	pop	es
	int	03
	into	
	adc	bl,bh
	call	FD6A65EB
	mov	bl,dh
	cmp	eax,0032FECB
	jnz	00402A68
	mov	ebx,esi
	xor	bh,ah
	jc	00402D71
	xchg	dl,dl
	jmp	004022C8
	std	
	jnc	00402D71
	mov	ebp,A34999F8
	adc	eax,C233E68A
	inc	eax
	xor	esi,edi
	add	ah,bl
	xor	esi,eax
	mov	dh,[edi]
	js	004027F0
	mov	ax,ax
	jg	004022EC
	jns	004027F0
	int	E5
	sub	ah,[eax]
	mov	edi,[esi]
	mov	eax,ecx
	xor	esi,ebx
	sub	eax,edx
	xor	ah,dl
	or	esi,ecx
	sub	eax,esi
	jpe	004025B4
	rep	
	mov	di,di
	jpo	004025B4
	js	00402330
	mov	ah,CE
	or	ebx,esi
	add	edi,eax
	inc	ecx
	dec	ebx
	add	bl,dh
	mov	cl,al
	jo	00402703
	repne	
	jmp	0040232F
	js	0040233F
	or	esi,16000003
	retf	35E9
	add	al,BD
	neg	bh
	mov	edi,edx
	or	bh,ch
	add	eax,0032FD94
	or	bh,cl
	or	bh,ch
	sub	ebx,eax
	xor	ebx,ecx
	neg	bh
	neg	bh
	jbe	00402544
	xchg	al,al
	ja	00402544
	aaa	
	add	ebx,[esi]
	cmp	ecx,edi
	add	eax,esi
	add	esi,eax
	inc	eax
	add	eax,ebx
	add	esi,ecx
	neg	al
	mov	eax,esi
	inc	esi
	jl	00402098
	jnz	0040237E
	xchg	dl,dl
	jge	00402098
	insb	
	dec	ecx
	cmp	eax,F6850FF6
	or	eax,[eax]
	add	[ebx+0AC28AC3],cl
	cld	
	mov	al,00
	add	edi,eax
	sub	dl,dh
	or	esi,edx
	or	ebx,edx
	jbe	00402EA1
	mov	dl,dl
	mov	eax,eax
	ja	00402EA1
	jpo	00402334
	illegal	
	adc	[ecx+ebx*4],cl
	jmp	004023AF
	xor	bh,dh
	or	esi,eax
	mov	ebx,edi
	add	bh,dl
	neg	bl
	dec	ebx
	add	bl,cl
	add	ebx,esi
	neg	bh
	neg	bh
	jc	00402C4D
	xchg	bh,bh
	jnc	00402C4D
	illegal	
	cmp	al,A2
	illegal	
	mov	ah,88
	xchg	[esi-75],cl
	iret	
	sub	ch,bh
	neg	bh
	sub	cl,bh
	add	cl,ah
	mov	ecx,esi
	neg	cl
	jbe	00402943
	push	edx
	pop	edx
	repne	
	ja	00402943
	inc	ebx
	js	00402460
	cmp	ebx,[ecx+02D72A1E]
	fiadd	dword ptr [esi-75]
	ror	byte ptr [ebx+0B],01
	rcr	dword ptr [eax+0B],01
	lock	
	mov	dl,ah
	inc	esi
	jo	0040221A
	jge	0040241D
	jno	0040221A
	xchg	ebp,ebp
	jcxz	0040245F
	mov	al,33
	lock	
	dec	esi
	add	ah,bl
	pop	edi
	mov	al,B0
	or	eax,ecx
	jbe	00402008
	repne	
	jmp	0040243E
	ja	00402008
	push	eax
	sbb	al,46
	test	[edx+D02B8C67],edx
	sub	ah,bl
	xor	esi,ebx
	xor	ecx,esi
	inc	eax
	dec	edi
	xor	ch,dl
	sub	ebx,ecx
	js	004028CF
	xchg	bl,bl
	jns	004028CF
	add	al,F3
	test	al,E6
	sbb	al,2B
	mov	byte ptr [eax+C78B4EB0],33
	rol	byte ptr [edx+48],01
	inc	esi
	js	00402FAC
	rep	
	jns	00402FAC
	mov	cl,A3
	jo	0040243F
	mov	al,dh
	neg	al
	xor	al,bh
	dec	ecx
	inc	esi
	dec	eax
	xor	ah,dh
	jpe	0040298A
	xchg	esi,esi
	rep	
	jpo	0040298A
	mov	edx,F61B9F23
	fild	qword ptr [edx]
	illegal	
	illegal	
	stc	
	inc	ebx
	xor	edi,eax
	lea	eax,[eax+78]
	jo	00401F9E
	xchg	dl,dl
	mov	bl,bl
	jno	00401F9E
	mov	edx,0B472EB0
	lock	
	mov	esi,ebx
	xor	al,ah
	xor	eax,edi
	add	al,cl
	mov	al,ch
	jpe	004022D4
	xchg	di,di
	mov	ch,ch
	jpo	004022D4
	aam	3E
	outsd	
	jcxz	0040256C
	and	edi,esi
	or	esi,edx
	sub	ebx,0000066A
	inc	ecx
	sub	eax,edi
	inc	esi
	add	edx,eax
	sub	eax,ecx
	dec	edx
	dec	esi
	jbe	0040285B
	jmp	0040250D
	mov	al,al
	ja	0040285B
	add	eax,0D41267F
	mov	ecx,[edx+E9C165B2]
	illegal	
	lds	ecx,[edx]
	jcxz	00402531
	illegal	
	mov	dl,ch
	neg	dh
	xor	eax,ebx
	mov	bl,22
	dec	esi
	jo	004029D0
	jle	00402538
	jno	004029D0
	jg	00402565
	jmp	00402537
	xlat	
	call	far 467F:B743
	inc	edi
	inc	esi
	add	edi,edx
	add	bl,cl
	dec	esi
	xor	bh,al
	jpe	004022A4
	jmp	0040255D
	lock	
	jpo	004022A4
	int	03
	mov	bh,3F
	repne	
	fdivrp	st(6),st(0)
	illegal	
	in	al,dx
	neg	cl
	or	ch,ah
	add	edi,ebx
	add	ebx,ecx
	add	ebx,edi
	add	bl,dh
	or	ecx,edx
	neg	cl
	jpe	00402BAF
	lea	esi,[esi]
	push	cx
	pop	cx
	jpo	00402BAF
	pop	eax
	adc	[ecx+edi*4+0234987F],edx
	rol	dword ptr [ebx],C3
	add	esi,edi
	sub	esi,eax
	inc	edi
	sub	esi,edx
	xor	al,dh
	jbe	004022F8
	jnz	004025AA
	ja	004022F8
	sub	[ecx-6A],bl
	loope	00402569
	ror	byte ptr [ebx],C7
	dec	eax
	neg	al
	neg	ah
	sub	eax,edi
	or	ah,dl
	or	ah,al
	inc	ebx
	mov	al,BE
	jbe	0040266C
	xchg	edx,edx
	xchg	dl,dl
	ja	0040266C
	fidivr	word ptr [edx+2584493A]
	pop	ax
	or	edi,ecx
	mov	bh,FD
	inc	edi
	inc	esi
	sub	esi,eax
	or	bh,ch
	or	bl,ch
	add	ebx,ecx
	dec	ebx
	jo	00402BDA
	mov	ah,ah
	jno	00402BDA
	stc	
	mov	dh,8F
	adc	eax,2A5B351F
	int	03
	mov	edx,edi
	mov	dh,ch
	inc	ecx
	dec	edx
	xor	ebx,eax
	mov	[esp-08],eax
	jle	004021D3
	push	ecx
	pop	ecx
	jg	004021D3
	mov	ch,94
	mov	esp,DC18C9E7
	outsb	
	xor	dl,al
	add	al,ch
	neg	al
	xor	dl,cl
	xor	esi,edx
	sub	ch,cl
	jle	00402C98
	repne	
	jg	00402C98
	mov	edi,62EDF3B3
	mov	bl,92
	add	ebx,esi
	add	ebx,esi
	push	dword ptr [edx+08]
	mov	bl,E6
	or	edi,ebx
	mov	bl,F1
	or	bl,dl
	jc	00402968
	mov	edi,edi
	jnc	00402968
	xor	al,1D
	leave	
	out	dx,ax
	pop	ebx
	jz	004026A9
	jnc	00402663
	fadd	double ptr [ebx]
	lock	
	inc	esi
	add	esi,edx
	xor	al,bl
	xor	esi,ebx
	jpe	0040248B
	xchg	dx,dx
	jpo	0040248B
	xchg	eax,ebp
	push	75
	out	dx,ax
	push	edi
	push	esi
	popf	
	mov	[F680C72A],al
	stosd	
	sub	esi,ecx
	mov	al,cl
	xor	eax,ecx
	mov	eax,ecx
	add	eax,edx
	sub	ah,cl
	mov	ah,dl
	jo	00402AAA
	rep	
	mov	dl,dl
	jno	00402AAA
	push	edx
	das	
	illegal	
	xor	ch,dh
	mov	eax,[edx]
	xor	bl,dl
	or	edx,edi
	add	ch,dl
	sub	edx,esi
	sub	dh,bl
	mov	dl,16
	jpe	00402C73
	repne	
	js	004026CE
	jpo	00402C73
	dec	ebx
	pushf	
	neg	byte ptr [ecx-4E]
	call	far FE0B:E349
	xor	bh,dh
	inc	edi
	add	esi,eax
	mov	bh,F6
	xor	bl,cl
	dec	edi
	mov	bl,dl
	jbe	00402645
	jns	004026F2
	jmp	004026F7
	ja	00402645
	mov	edi,ebp
	inc	ebp
	or	esi,[eax+F98BCA0B]
	mov	esi,edi
	sub	edx,CDFDFD91
	add	edi,edx
	sub	esi,edx
	jc	00402B86
	jmp	0040271E
	jnc	00402B86
	mov	dh,39
	illegal	
	xchg	eax,esp
	add	cl,al
	or	cl,dh
	sub	dh,cl
	or	dl,dh
	dec	eax
	neg	ch
	neg	cl
	or	al,ah
	mov	al,85
	mov	dh,65
	jc	00401FDD
	repne	
	jnc	00401FDD
	xchg	eax,esp
	or	eax,759E0CFF
	add	esi,ebx
	or	edi,ebx
	sub	esi,edi
	xor	esi,ecx
	sub	esi,edi
	or	esi,ecx
	mov	esi,edx
	or	esi,ebx
	or	edi,ebx
	jc	00402F59
	mov	dl,dl
	xchg	ecx,ecx
	jnc	00402F59
	xor	eax,[eax+12]
	test	edi,4BF695D9
	or	bl,ah
	mov	bh,cl
	add	esi,eax
	neg	bh
	add	ebx,edi
	sub	bl,ah
	mov	bh,7B
	mov	esi,eax
	jl	0040279B
	xchg	bx,bx
	mov	cl,cl
	jge	0040279B
	jmp	dword ptr [esi+4F]
	outsd	
	aaa	
	cdq	
	popf	
	mov	bh,C9
	or	bh,dh
	or	bh,cl
	lea	edx,[eax+000000F8]
	mov	esi,edx
	mov	bl,al
	mov	esi,eax
	jbe	004026DC
	jge	004027B5
	mov	bl,bl
	ja	004026DC
	call	E0F3308D
	jo	004027C6
	sti	
	inc	esi
	dec	ebx
	mov	bl,B2
	neg	bl
	mov	edi,esi
	or	esi,edx
	add	bl,bh
	add	edx,ecx
	mov	esi,ecx
	jbe	00402568
	jmp	004027E1
	jg	00402848
	push	edx
	pop	dx
	ja	00402568
	jmp	0040282D
	push	ss
	sub	eax,2BE12A65
	mov	dword ptr [ebx],33F00BF0
	mov	dh,D8
	mov	al,C8
	inc	esi
	jpe	00402368
	lea	dx,[edx]
	jpo	00402368
	adc	ecx,ebp
	jno	004027BA
	add	eax,ebx
	mov	ebx,ecx
	xor	edi,eax
	inc	edi
	add	edi,esi
	or	esi,edi
	neg	bl
	sub	edi,ebx
	jl	00402E57
	jnz	00402829
	jge	00402E57
	push	ebx
	mov	esi,2C178F2C
	xchg	eax,ebx
	std	
	inc	eax
	mov	al,65
	inc	edi
	sub	ecx,ebx
	neg	cl
	mov	edi,edx
	mov	al,67
	jpe	00402428
	xchg	al,al
	xchg	cl,cl
	jpo	00402428
	sub	[edi+79],dl
	stc	
	push	es
	xor	dh,[ebx+3D]
	or	ecx,edx
	mov	cl,ah
	sub	dl,ch
	or	al,dh
	inc	edx
	add	eax,ecx
	jbe	00402EEB
	lea	ax,[eax]
	mov	dh,dh
	ja	00402EEB
	sbb	[edx+68],ebx
	mov	eax,[2BEAB9D1]
	repne	
	add	bl,dl
	or	edi,eax
	mov	eax,[eax]
	inc	edi
	sub	bl,dl
	mov	ebx,edx
	add	bh,bl
	mov	esi,edi
	jl	00401F59
	jmp	0040289B
	arpl	[edi+B68D0FFF],bx
	idiv	bh
	jmp	dword ptr [edi+3F]
	cmpsb	
	mov	edx,C3D84C46
	mov	edx,ebx
	or	dh,al
	inc	eax
	sub	esi,edi
	sub	dl,dh
	neg	bh
	dec	esi
	mov	al,B3
	inc	ebx
	jo	00402405
	rep	
	repne	
	jno	00402405
	inc	edi
	illegal	
	cmpsb	
	mov	eax,ebp
	in	al,32
	retf	EB8A
	call	004028D8
	xor	ebx,esi
	neg	bh
	inc	ebx
	mov	al,F0
	or	ecx,edi
	or	dl,ah
	add	ecx,esi
	jz	00402B64
	mov	ebx,ebx
	repne	
	jnz	00402B64
	sub	cl,dh
	sbb	edx,edx
	ror	byte ptr [ebx+3AB6B2FE],01
	add	al,dl
	mov	al,cl
	add	edx,eax
	or	al,cl
	mov	ah,0F
	or	dh,ch
	jl	0040251C
	xchg	al,al
	jo	00402914
	jge	0040251C
	xor	esi,[ebp+A21C2AAA]
	fsubrp	st(6),st(0)
	neg	bl
	add	bl,ah
	or	edi,ecx
	neg	bl
	sub	bh,ah
	xor	edi,esi
	jle	0040287E
	lea	bx,[ebx]
	xchg	bh,bh
	jg	0040287E
	push	eax
	or	dword ptr [edx+6E],F58ADA32
	sub	bh,dh
	or	dh,cl
	mov	ebx,eax
	sub	edi,esi
	dec	eax
	neg	dh
	js	00402837
	xchg	ch,ch
	jns	00402837
	enter	7303,D9
	mov	edi,4F9CC3B8
	mov	bl,91
	xor	edi,eax
	add	bh,dh
	or	bh,dl
	sub	bh,dl
	dec	edi
	xor	bh,bl
	jo	004024A9
	xchg	dl,dl
	jno	004024A9
	mov	cl,AF
	push	ss
	xchg	eax,ebx
	ret	
	pop	edx
	or	esi,ebx
	mov	ah,3B
	or	al,cl
	inc	eax
	neg	ah
	mov	esi,ecx
	jo	00402AED
	jz	0040299D
	jno	00402AED
	cmpsd	
	sub	[ebx+4D816A18],ecx
	xor	ch,bh
	mov	dh,09
	sub	eax,esi
	mov	dh,ch
	mov	cl,34
	or	eax,ecx
	or	edx,ecx
	jo	004029F4
	jmp	004029BF
	jno	004029F4
	mov	ah,57
	into	
	inc	eax
	pop	es
	nop	
	cmp	dh,[ebx]
	ret	C62B
	or	ebx,esi
	add	esi,eax
	or	ebx,edi
	add	dl,ch
	mov	dl,30
	sub	bl,dh
	inc	eax
	shl	ecx,0F
	sub	dh,bl
	mov	esi,edi
	add	al,cl
	jo	00401F7F
	repne	
	jno	00401F7F
	shl	byte ptr [ecx-57],01
	popf	
	and	eax,[eax+42]
	dec	esi
	or	ecx,esi
	mov	esi,ebx
	or	esi,ebx
	xor	al,dl
	jz	00402729
	rep	
	jnz	00402729
	adc	al,DA
	adc	al,19
	aam	35
	mov	bl,26
	xor	edi,eax
	or	bl,dl
	add	ch,ah
	neg	cl
	mov	dl,al
	sub	cl,ah
	jbe	00402079
	lea	cx,[ecx]
	ja	00402079
	jno	00402AA1
	lodsd	
	add	eax,0AA47E1E
	illegal	
	sub	al,bh
	mov	ch,37
	or	edx,edi
	mov	dh,ch
	mov	ch,bh
	or	ecx,esi
	xor	cl,ah
	jle	004024F0
	rep	
	xchg	dh,dh
	jg	004024F0
	adc	[ebx],esp
	stosb	
	sub	[eax+F38A2272],ch
	add	bh,ch
	sub	bl,bh
	sub	dl,dh
	mov	dl,55
	add	dl,cl
	dec	ecx
	mov	edi,eax
	sub	bl,bh
	jz	004020BE
	xchg	cx,cx
	jz	00402A78
	jnz	004020BE
	illegal	
	xor	al,EC
	or	edi,esi
	neg	cl
	xor	esi,ebx
	mov	cl,dh
	neg	dh
	sub	edx,edi
	mov	cl,dl
	sub	al,dl
	or	bh,dh
	xor	ah,dh
	jc	00402DE0
	xchg	bl,bl
	jnc	00402DE0
	movsb	
	loopne	00402AE4
	enter	E5B4,0A
	in	eax,33
	shl	dword ptr [edx],C6
	sub	esi,edi
	xor	al,ch
	mov	esi,edi
	xor	al,ch
	xor	ah,cl
	inc	eax
	jl	00402DBD
	xchg	dl,dl
	repne	
	jge	00402DBD
	inc	eax
	jge	00402A98
	jo	00402B0E
	neg	cl
	mov	al,B5
	add	ah,bh
	dec	eax
	add	ecx,edi
	inc	eax
	jo	00402133
	rep	
	jno	00402133
	sub	esp,[esi+24]
	mov	esp,[ebx+3E]
	push	ecx
	xor	al,ah
	sub	eax,esi
	add	al,bl
	neg	ah
	or	eax,edx
	or	esi,ebx
	mov	eax,ecx
	sub	esi,edx
	inc	esi
	dec	esi
	jo	00402D2D
	lea	eax,[eax]
	mov	si,si
	jno	00402D2D
	retf	8E1C
	inc	edi
	in	eax,3A
	cwde	
	push	eax
	dec	ebx
	mov	bh,17
	mov	ebx,edx
	add	eax,ecx
	xor	edi,esi
	xor	esi,ecx
	dec	edi
	sub	esi,ebx
	jc	004023B8
	rep	
	lea	eax,[eax]
	jnc	004023B8
	std	
	hlt	
	lahf	
	movsd	
	mov	ecx,ebx
	xor	edx,esi
	neg	dh
	xor	esi,ecx
	or	eax,edx
	xor	esi,ebx
	push	dword ptr [ecx]
	mov	dl,9B
	sub	esi,eax
	or	esi,ebx
	add	dh,ch
	js	004028AB
	lea	ax,[eax]
	jns	004028AB
	test	[3215E7AF],esi
	repne	
	inc	eax
	xor	ebx,ecx
	or	ah,al
	mov	ah,dh
	xor	edx,ecx
	add	ecx,eax
	mov	ebx,esi
	pop	ecx
	jpe	00402109
	jle	00402B7C
	jpo	00402109
	in	eax,52
	mov	bh,15
	sub	ecx,edi
	mov	cl,BC
	mov	edi,ebx
	xor	cl,dh
	mov	bh,8F
	sub	bl,dl
	mov	bl,12
	add	bh,ah
	or	edi,esi
	jc	004026B5
	repne	
	jbe	00402BA1
	jnc	004026B5
	loopne	00402BB8
	fld	tword ptr [ecx]
	mov	ah,3F
	xchg	eax,esi
	imul	ecx,[edx+1BEA81EC],02
	add	dh,[edx]
	mov	bl,24
	add	cl,bl
	sub	bh,dh
	dec	ecx
	add	ebx,edx
	sub	bh,bl
	or	bl,dl
	jo	00401FBB
	jmp	00402BCF
	jno	00401FBB
	dec	edx
	loop	00402BDE
	sub	bh,dl
	add	bh,al
	add	bh,al
	xor	esi,eax
	sub	bl,ch
	add	eax,[eax+3C]
	xor	edi,esi
	xor	bh,dh
	or	bl,ah
	sub	bl,dl
	jc	0040277A
	jbe	00402BF7
	xchg	bl,bl
	jnc	0040277A
	cmpsb	
	sub	[ecx+F3334E1A],dh
	mov	ah,dh
	add	esi,eax
	inc	esi
	sub	ah,ch
	sub	esi,edx
	jl	00402CC4
	rep	
	jge	00402CC4
	mov	esi,BB1AB3C2
	movsd	
	jmp	DECA72D6
	neg	bl
	sub	bl,ah
	add	ebx,edi
	dec	edi
	mov	bh,1C
	dec	esi
	sub	edi,edx
	neg	bl
	jz	00402922
	repne	
	jmp	00402C42
	push	esi
	jnz	00402922
	call	far 4E63:EA0F
	neg	bh
	push	dword ptr [eax+10]
	dec	esi
	xor	esi,eax
	mov	bl,al
	or	ebx,esi
	mov	edi,edx
	jo	00402D4C
	mov	esi,esi
	xchg	al,al
	jno	00402D4C
	aaa	
	inc	edx
	iret	
	push	edx
	pop	esp
	jmp	00402C22
	xor	esi,esi
	illegal	
	xlat	
	add	dl,al
	mov	ch,7F
	neg	ch
	mov	ebx,eax
	sub	ebx,edi
	jo	00402EC9
	xchg	bl,bl
	lea	eax,[eax]
	jno	00402EC9
	adc	al,[ebx]
	rep	
	xlat	
	pop	ebx
	movsd	
	in	al,03
	repne	
	mov	ch,bh
	sub	dh,ch
	mov	ecx,6D1894DB
	or	esi,edi
	xor	edx,eax
	sub	edx,ecx
	xor	dh,ch
	add	dl,bh
	jz	0040246D
	jmp	00402CB9
	mov	[F7AE850F],al
	illegal	
	xor	bh,[edx+4E193CDA]
	add	esi,eax
	add	eax,ebx
	or	eax,esi
	xor	ah,bl
	add	eax,edx
	mov	eax,edx
	mov	al,cl
	or	al,ch
	jc	00402054
	lea	esi,[esi]
	jnc	00402054
	scasd	
	sub	[esi-0B],ebx
	cmp	ebx,[ebx+33E02AA6]
	lock	
	mov	al,8C
	neg	ah
	inc	eax
	sub	al,bl
	xor	eax,edx
	jo	00402238
	rep	
	jz	00402D00
	jno	00402238
	dec	ebp
	dec	edx
	add	eax,B2C88905
	xor	dl,bh
	mov	ch,al
	add	al,bh
	inc	eax
	add	eax,ebx
	or	ah,cl
	jz	00402158
	jz	00402D20
	jnz	00402158
	push	edi
	ja	00402D91
	cmp	esp,[334EB803]
	div	dword ptr [ebx]
	illegal	
	mov	esi,edx
	xor	esi,eax
	add	esi,ebx
	jl	00402F0D
	mov	esi,esi
	push	esi
	pop	esi
	jge	00402F0D
	push	esi
	sbb	cl,[43DA8BE8]
	or	bh,bl
	add	bl,ch
	dec	ebx
	or	esi,ebx
	mov	esi,edi
	add	bh,al
	jz	00402FCC
	mov	bl,bl
	rep	
	jnz	00402FCC
	dec	esp
	pop	edi
	mov	al,EC
	illegal	
	add	cl,8B
	rep	
	add	esi,eax
	xor	ebx,ecx
	sub	esi,edx
	xor	edi,ebx
	sub	bl,ah
	xor	esi,edx
	jc	004021A6
	rep	
	xchg	bx,bx
	jnc	004021A6
	mov	esi,F60BDEDA
	illegal	
	mov	dh,D0
	add	esi,edx
	mov	edi,ecx
	sub	ebx,esi
	mov	edi,esi
	neg	bl
	jpe	00402260
	lea	dx,[edx]
	jmp	00402DB0
	jpo	00402260
	hlt	
	and	bl,al
	adc	[ecx],cl
	inc	edi
	add	esi,[ebx]
	ret	
	inc	esi
	rol	dh,1E
	xor	esi,ecx
	add	al,dh
	mov	al,57
	jl	00402C03
	push	bx
	pop	bx
	mov	dl,dl
	jge	00402C03
	illegal	
	mov	bl,73
	push	ecx
	or	ah,cl
	dec	ecx
	add	dl,ch
	mov	eax,ebx
	add	esi,eax
	ret	
	xor	ecx,ebx
	xor	ecx,eax
	js	00402F31
	jmp	00402DFA
	pop	edx
	jns	00402F31
	leave	
	and	cl,[esi+62]
	js	00402E09
	inc	ecx
	dec	edi
	mov	al,90
	or	esi,eax
	mov	esi,ebx
	add	edx,ecx
	xor	dh,bl
	dec	edx
	neg	dh
	sub	dh,ah
	add	ah,ch
	jo	00402F83
	rep	
	mov	edx,edx
	jno	00402F83
	adc	dl,bl
	xlat	
	outsd	
	sti	
	mov	ah,C7
	mov	bh,bl
	add	cl,ah
	xor	esi,edi
	sub	ebx,edi
	mov	ebx,eax
	inc	eax
	xor	al,dh
	sub	dl,ah
	neg	dl
	sub	bl,dh
	jo	004020E7
	rep	
	jno	004020E7
	out	9E,al
	and	[esi-2C],esi
	movsb	
	leave	
	sub	[ebx+AEB343B4],dh
	mov	bl,46
	sub	esi,eax
	sub	bl,dl
	xor	edi,esi
	xor	bh,cl
	sub	bh,ah
	or	bl,al
	jc	0040233C
	jg	00402E72
	jl	00402E74
	jnc	0040233C
	push	gs
	ror	[ecx+2A],cl
	fdivr	double ptr [ebx+F6C78A8D]
	fadd	double ptr [esi+03]
	ret	3348
	repne	
	jo	0040268E
	mov	dl,dl
	jno	0040268E
	sti	
	push	ecx
	mov	ah,B2
	test	[esi+F6F20228],ah
	fisubr	dword ptr [edx]
	ret	D033
	sub	bh,dh
	add	bh,al
	dec	eax
	or	ah,dl
	xor	ecx,edx
	or	bh,ah
	jc	00402A82
	lea	cx,[ecx]
	push	edi
	pop	edi
	jnc	00402A82
	fld	tword ptr [edi]
	sbb	al,39
	sub	cl,bh
	inc	ecx
	neg	cl
	or	bl,cl
	sub	dh,ah
	push	00
	jpe	00402A14
	mov	ebx,ebx
	lea	si,[esi]
	jpo	00402A14
	dec	ebx
	loop	00402ECC
	adc	[ebx-09],cl
	neg	cl
	add	esi,ebx
	inc	esi
	sub	cl,dl
	add	dh,ch
	neg	al
	sub	ecx,eax
	js	00402626
	xchg	bx,bx
	jns	00402626
	sbb	eax,C60DA6BE
	sub	eax,3FC5F250
	dec	esi
	or	esi,eax
	or	esi,edx
	add	esi,ecx
	sub	esi,edx
	sub	esi,ebx
	xor	esi,ebx
	inc	esi
	cmp	eax,C03A0DB0
	jmp	0040238A
	test	eax,203F9E43
	mov	ecx,edx
	sub	ebx,edi
	xor	ecx,ebx
	sub	edx,edi
	sub	dh,dl
	mov	edi,esi
	mov	bh,ah
	xor	edi,edx
	mov	edx,eax
	jbe	004029C8
	mov	al,al
	ja	004029C8
	add	al,AF
	or	al,0C
	pop	edi
	jg	00402F2E
	jbe	00402FA8
	shr	eax,10
	xor	edi,esi
	sub	esi,eax
	add	esi,ebx
	add	edi,ecx
	add	eax,edx
	sub	esi,ecx
	mov	esi,ecx
	xor	edi,edx
	jbe	00402812
	rep	
	mov	dl,dl
	ja	00402812
	illegal	
	pop	dword ptr [eax+esi-32]
	cwde	
	jg	00402FCC
	mov	edx,edi
	mov	ah,al
	or	al,dh
	or	al,dl
	mov	eax,ebx
	mov	al,01
	xor	al,dh
	or	dh,dl
	jbe	004024CB
	rep	
	jmp	00402FA0
	ja	004024CB
	fsubr	dword ptr [ebp-5B]
	hlt	
	sbb	edi,[esi-7F]
	illegal	
	pop	esi
	cwde	
	sbb	[ebp+2A],ch
	cmc	
	neg	dh
	or	edx,ecx
	neg	al
	dec	eax
	js	00402E08
	rep	
	jns	00402E08
	illegal	
	ret	F902
	xor	bl,bh
	mov	bl,ah
	mov	ebx,edx
	pop	edx
	xor	ebx,edx
	mov	esi,edi
	js	004027C3
	jno	00402FE1
	jns	004027C3
	leave	
	illegal	
	illegal	
	adc	[edi],dh
	jz	00402FF0
	add	[eax],al
	add	[eax],al
	add	[eax],al
	add	[eax],al
	add	[eax],al
	add	[eax],al
	add	[eax],al
	add	[eax],al
00403000 00 D1 03 00 00 00 FC 02 67 0F 00 D6 C0 0C 63 A3 ........g.....c.
00403010 8B 00 DF 39 EA 17 00 AA FF 18 44 5D 86 92 6D F0 ...9......D]..m.
00403020 0F 03 4E 53 AA B7 0C 68 AA 62 B0 07 00 FF 40 00 ..NS...h.b....@.
00403030 80 00 66 C6 D1 E3 DA FF A1 BD 00 99 77 5A 01 E4 ..f.........wZ..
00403040 49 D0 7C AE 20 B7 98 02 9D CA 24 22 9E B9 7F 00 I.|. .....$"....
00403050 7B CC 66 D6 CE 56 85 10 B0 DC 47 EA D6 0C B1 7A {.f..V....G....z
00403060 EE C6 10 A1 2F 03 00 86 00 5F 8A 00 13 20 00 00 ..../...._... ..
00403070 1F 8F 6E 00 6A D0 00 E4 32 4C EF 54 1A 00 5D 9C ..n.j...2L.T..].
00403080 E6 FF 5C 00 00 97 FF 73 7D 05 F9 5A BF 71 44 24 ..\....s}..Z.qD$
00403090 EE E2 1E 95 00 00 80 4E 00 34 D4 C6 66 0E 80 F5 .......N.4..f...
004030A0 00 00 9D 76 B9 00 67 1F 42 00 18 04 8D C2 27 A3 ...v..g.B.....'.
004030B0 00 F7 B6 81 D5 00 F2 B1 55 74 00 CA 15 9D 7E 7B ........Ut....~{
004030C0 F3 83 18 68 0B 85 1C FF 20 C7 02 E7 40 FA 46 00 ...h.... ...@.F.
004030D0 20 D0 00 59 92 5A 98 10 00 01 00 FF 3C ED 00 1C  ..Y.Z......<...
004030E0 F3 21 02 67 FA A7 00 F8 99 BF 2E 50 DA 6E 20 BD .!.g.......P.n .
004030F0 80 C2 E9 A1 7D C1 D6 00 C8 38 D4 A0 00 9F C4 E4 ....}....8......
00403100 5A 00 00 20 DA A7 08 1C 97 10 FC 00 FF 35 26 00 Z.. .........5&.
00403110 5C 00 28 B7 5A 00 DF 4E FD D5 5C 36 EE 00 00 12 \.(.Z..N..\6....
00403120 E1 AE 00 68 A4 00 18 B2 8C 53 1F FD 90 64 02 7A ...h.....S...d.z
00403130 D8 00 00 63 40 08 37 1D FF C8 AD 36 07 1F 46 22 ...c@.7....6..F"
00403140 FF 66 FB 00 78 30 7C FF F1 0F F7 4E 65 20 47 F6 .f..x0|....Ne G.
00403150 17 00 F3 80 75 2A 52 8B FF FE 19 30 FF FF F8 01 ....u*R....0....
00403160 CE 7B 22 44 60 70 3A 84 2E BE 51 0C D3 D4 E8 00 .{"D`p:...Q.....
00403170 00 11 00 A1 4F 38 24 31 69 99 04 00 12 20 00 66 ....O8$1i.... .f
00403180 58 7C 50 D8 00 BB C6 54 80 F8 D6 22 E1 89 00 5A X|P....T..."...Z
00403190 82 C9 0E 1F A2 10 B1 DA 73 FB D9 7D C0 00 E8 1A ........s..}....
004031A0 DB A0 CD A6 9D 2E FA A0 93 22 97 6B AB 15 00 83 .........".k....
004031B0 3B B1 78 AF E3 FF 5B E2 A6 89 E8 8D 20 FF 6C FF ;.x...[..... .l.
004031C0 89 C5 DD 0F 98 98 5E 34 80 68 00 37 00 EC C0 38 ......^4.h.7...8
004031D0 A9 37 00 7E 36 D4 01 00 3A 00 23 08 25 A6 FF 00 .7.~6...:.#.%...
004031E0 6C 00 00 D0 00 99 95 01 20 A0 DF 00 33 62 81 00 l....... ...3b..
004031F0 E4 DA 06 13 00 AB B8 76 72 14 6B 14 41 E6 B6 23 .......vr.k.A..#
00403200 FE CE 64 22 88 B1 11 5E 5C 00 69 05 B4 39 5A 00 ..d"...^\.i..9Z.
00403210 62 F2 34 BF 72 7B 70 61 B9 EE 26 6E D8 F9 99 FF b.4.r{pa..&n....
00403220 70 EC 12 C4 78 DE 39 D6 14 75 39 27 0E 43 A3 00 p...x.9..u9'.C..
00403230 06 D6 BF 6C ED 21 30 3E D0 00 FF 00 0E 58 06 8C ...l.!0>.....X..
00403240 81 00 5B 04 00 03 46 8B 00 AD 28 D3 F6 00 C1 DB ..[...F...(.....
00403250 D4 4E A1 E1 1E 01 A1 E8 64 B7 AC 39 2D 00 41 8E .N......d..9-.A.
00403260 3C 3F 00 00 E1 D6 96 00 F0 33 03 00 00 00 56 EB <?.......3....V.
00403270 E5 FE 07 7D 00 00 61 00 00 00 6F 00 C9 09 5F 84 ...}..a...o..._.
00403280 35 00 47 04 0E A0 37 00 6D 6C 84 00 5C 05 2F 00 5.G...7.ml..\./.
00403290 30 69 1A 51 F8 5E 61 C9 06 C5 36 CB 1E DE AA 4D 0i.Q.^a...6....M
004032A0 9B 00 DA 20 BF 13 50 A2 8E C7 1C 67 62 97 4B 93 ... ..P....gb.K.
004032B0 F5 D4 13 94 FF 00 00 00 8B 98 37 ED 9B 30 FF 04 ..........7..0..
004032C0 B9 FF 37 49 9F 45 AB 96 42 0B B9 04 15 EC BD 0E ..7I.E..B.......
004032D0 81 92 C6 C6 87 07 4E 70 AE E1 FF 15 CF 16 BA 60 ......Np.......`
004032E0 C2 26 AE 18 00 B1 CF 8C 94 00 72 5A A3 E3 EB 25 .&........rZ...%
004032F0 02 D5 FF 91 18 CB 19 00 E3 91 BA 80 47 FF 00 26 ............G..&
00403300 42 61 B4 FC C5 69 D7 FB 00 45 1B 8B BA 00 3D 6F Ba...i...E....=o
00403310 3A C8 81 2E BA 25 78 54 CE 03 8C 00 35 FF 26 40 :....%xT....5.&@
00403320 00 1B B6 67 08 00 87 1B FF 0B 72 04 82 A0 A0 34 ...g......r....4
00403330 67 00 00 E2 67 73 43 3E 76 53 94 05 6F E3 58 CF g...gsC>vS..o.X.
00403340 A8 DC 08 2F 4C 00 83 26 68 01 E0 DA 00 70 86 C8 .../L..&h....p..
00403350 DE B0 F6 B5 BA 36 CF 00 C3 E5 00 41 7F 33 DD A5 .....6.....A.3..
00403360 72 A4 40 6D 31 83 20 83 00 D9 00 39 00 E9 30 E8 r.@m1. ....9..0.
00403370 E8 8B E1 1E 3E FE 7D B5 DF C4 D7 FF 4A C3 FF 18 ....>.}.....J...
00403380 00 48 BA 06 83 8F A6 0B 81 FF FF 7A 00 89 96 B9 .H.........z....
00403390 D4 EE 97 1C 6C 30 7B 21 F6 AD A4 0C 8B 00 24 A7 ....l0{!......$.
004033A0 AE 20 FF C6 04 00 BB 00 00 21 C2 4A 0D 00 4C 40 . .......!.J..L@
004033B0 CD 01 08 01 8D 42 00 A2 B9 99 05 2B 33 00 DC 00 .....B.....+3...
004033C0 70 8D 00 00 23 9C ED 30 30 1D 61 10 10 C7 00 88 p...#..00.a.....
004033D0 A2 03 00 6D 3A 00 00 17 FD 3F 3C 02 B7 23 63 A4 ...m:....?<..#c.
004033E0 F7 00 5B 20 FF F7 EF 77 00 3F CF A9 CA 32 79 BF ..[ ...w.?...2y.
004033F0 00 BB 3A F2 29 00 61 57 79 C2 05 06 E4 CE 90 CF ..:.).aWy.......
00403400 AA 35 BA 58 EE 12 FF 95 00 FE 60 FD C6 9D 0F 9D .5.X......`.....
00403410 E1 1E 00 4B 00 1E 69 20 A1 69 CD 00 D1 B3 7B F6 ...K..i .i....{.
00403420 00 3F 73 43 81 68 AE DE FF 8F 58 C5 EA 80 09 1E .?sC.h....X.....
00403430 6F 07 A1 00 F5 DB C2 4F A0 2F 5E FF 8D 31 F7 14 o......O./^..1..
00403440 E6 FF A9 15 80 00 DA 5E 00 80 2A 65 70 0A 08 20 .......^..*ep.. 
00403450 00 12 51 6D 02 7C 3B 9D 49 5D 7D F8 6F 58 1F 51 ..Qm.|;.I]}.oX.Q
00403460 C2 46 32 8B 10 36 1D 8C 40 6E 32 00 1A A0 91 98 .F2..6..@n2.....
00403470 05 00 77 4D 08 18 FF B5 FF 0C D9 20 FF CF 30 AC ..wM....... ..0.
00403480 D6 2A 3C 72 D1 A3 49 0A 3A 9F 00 33 E6 00 55 10 .*<r..I.:..3..U.
00403490 00 7D 8E E2 CB 06 00 3F 0E 4B 11 16 00 FD DF C7 .}.....?.K......
004034A0 A7 40 2D 2A 0D 11 8E 45 71 DF 4C C2 E2 AA 72 7F .@-*...Eq.L...r.
004034B0 FF 52 94 90 C8 4E 2F F4 00 07 3E 36 19 13 B4 26 .R...N/...>6...&
004034C0 08 00 C3 B8 A6 00 74 3D 42 69 9C 10 F8 42 C0 00 ......t=Bi...B..
004034D0 5F 5E 6C AC FC 01 7F FF 59 05 83 A2 33 36 53 02 _^l.....Y...36S.
004034E0 00 A2 E3 85 FA D4 A0 08 6E EB 9A B9 24 84 36 D2 ........n...$.6.
004034F0 93 FF AD F2 73 00 62 23 C7 E9 4C 4F 17 AC 82 EB ....s.b#..LO....
00403500 FF D9 84 00 18 8C BC DD 38 73 8D FD 17 A1 E8 18 ........8s......
00403510 5E 41 45 3C 57 83 35 40 1E 2B 72 2A 80 00 E3 24 ^AE<W.5@.+r*...$
00403520 F8 16 5B 09 00 FA AC 90 00 E4 10 9E 00 3D 1A E6 ..[..........=..
00403530 A7 FC 66 AB 86 00 83 3B CC D8 C7 FD 65 40 C6 C1 ..f....;....e@..
00403540 1D 6C 30 C2 CA 7F 9C AF 2C 38 7B 67 63 4E 0D 49 .l0.....,8{gcN.I
00403550 62 5A FF D3 00 F6 00 83 83 38 BC DD FC F3 BC 26 bZ.......8.....&
00403560 1B 06 10 FF 16 62 73 2B 61 1A F4 DF 00 EF DE F6 .....bs+a.......
00403570 50 A7 19 F8 E8 58 FF 8F 87 CE 75 F3 69 69 9A 00 P....X....u.ii..
00403580 33 FF AB 70 CC 00 17 E1 EB 00 C5 61 00 64 00 2E 3..p.......a.d..
00403590 82 E0 F7 2F 7D 0B 00 33 FA FF A9 06 FF D8 60 93 .../}..3......`.
004035A0 52 70 72 80 0F FE 00 B8 00 F4 00 4A 4E 6D D5 50 Rpr........JNm.P
004035B0 1F 34 E5 62 35 CE 7B 00 9D 00 03 BA B7 91 80 FE .4.b5.{.........
004035C0 80 00 40 98 AC CF DE 54 00 2C 5A 45 B2 FF C4 D0 ..@....T.,ZE....
004035D0 3F AC 00 00 6F 00 02 24 47 F5 C9 91 F0 E3 00 CC ?...o..$G.......
004035E0 C9 24 00 E0 03 92 CE BE 21 8E C1 89 AE 0A 81 94 .$......!.......
004035F0 56 70 81 7F 05 C7 4D A3 2B 97 00 08 42 D5 67 99 Vp....M.+...B.g.
00403600 81 54 9C 00 4E 96 FA 23 3B AE 95 6C 7F 4F 0E 00 .T..N..#;..l.O..
00403610 D7 87 3A 7D 5F 18 4E 00 64 A4 6F 00 00 00 1A 3C ..:}_.N.d.o....<
00403620 ED E0 93 0B 24 FF 35 01 36 D8 FB AD EB 4A A2 05 ....$.5.6....J..
00403630 CE 52 75 8F BD 00 00 CC 4B 64 D2 6B 74 F1 5F 7E .Ru.....Kd.kt._~
00403640 31 1D D1 EB C0 7E 07 DF 20 EF 69 63 B1 F8 93 FE 1....~.. .ic....
00403650 3D EE EF FF E1 4F 97 A3 63 EF 6A 17 00 10 C3 9E =....O..c.j.....
00403660 6C 10 D5 00 FF C5 76 69 19 A8 5B 08 25 33 5E 53 l.....vi..[.%3^S
00403670 D9 74 B4 EB 00 C4 FF AF 84 1C DD 00 3E C3 7F 00 .t..........>...
00403680 B2 00 00 FF 36 46 A0 4E EB 87 44 D5 E4 00 AF CF ....6F.N..D.....
00403690 11 8E A1 28 9C 00 60 AC 0F 42 E3 E4 D1 27 00 25 ...(..`..B...'.%
004036A0 0C 11 CC 2A 75 AE DD C0 F2 F0 36 49 18 99 6E 72 ...*u.....6I..nr
004036B0 04 5C 33 88 74 CA 04 60 BE E6 FF F4 9E 00 84 24 .\3.t..`.......$
004036C0 E4 E6 C2 CC 04 8A 20 26 33 00 DF CB CA 1C FF CD ...... &3.......
004036D0 90 DC BB F3 97 3E E3 62 10 21 C6 79 24 00 78 8B .....>.b.!.y$.x.
004036E0 97 36 10 2F 40 07 03 7A 04 F3 FF 7B 97 79 6B 00 .6./@..z...{.yk.
004036F0 14 34 00 1E A1 CD 34 BA EC 4A 22 29 84 70 95 76 .4....4..J").p.v
00403700 B7 92 BC 16 31 B9 75 38 85 B7 3F 70 00 18 21 3B ....1.u8..?p..!;
00403710 00 00 79 00 BE EF 63 86 F6 9C 94 C3 26 7D 00 0F ..y...c.....&}..
00403720 00 34 44 6E D5 A4 90 51 00 27 FF A1 18 EF 39 DB .4Dn...Q.'....9.
00403730 FF 00 FF 36 00 8E E6 8D 82 7F 95 A4 30 B9 05 B4 ...6........0...
00403740 45 EB FF 00 34 21 D6 1B 0B A0 40 73 7E 00 00 00 E...4!....@s~...
00403750 5C 4A 7B 71 53 00 B8 91 F1 AD 06 C1 C2 90 B6 89 \J{qS...........
00403760 24 7F B3 5E 25 FD 13 08 FF 02 14 90 02 EA 76 00 $..^%.........v.
00403770 C2 EC F0 00 3F 00 80 45 B8 26 B9 00 D2 B9 C2 6D ....?..E.&.....m
00403780 70 B3 BF C4 CF FF 03 96 42 FF 5C 00 BF 72 41 00 p.......B.\..rA.
00403790 10 FA 19 0B 00 9C 01 D1 81 E9 9E 12 7E B8 7E 3E ............~.~>
004037A0 55 C8 FF 8B D2 DE 60 18 0C 00 B9 0A A1 7F E9 BA U.....`.........
004037B0 D7 C6 2A 16 E2 86 DE 00 43 F6 AB 6D 3D B4 62 0E ..*.....C..m=.b.
004037C0 00 BF 86 00 00 E6 34 02 90 F1 65 FB FB 75 5F 9B ......4...e..u_.
004037D0 EE 9F 84 60 B1 94 BE 73 73 10 6C 44 00 0E 71 5A ...`...ss.lD..qZ
004037E0 E6 00 2A 00 22 7E 00 2E 3A D8 AA CA 0A 40 5C 4C ..*."~..:....@\L
004037F0 00 26 33 F5 7B 5F BF 2C 07 AB 60 98 11 43 81 93 .&3.{_.,..`..C..
00403800 36 0A 7F 17 F0 4C 00 85 E2 00 34 8B F0 00 23 00 6....L....4...#.
00403810 94 00 CA E3 19 30 C3 93 00 21 CC A7 34 CD 00 FF .....0...!..4...
00403820 B1 1C 00 5B 0F 8E C6 39 28 26 38 01 C3 84 4C 74 ...[...9(&8...Lt
00403830 34 C4 81 C1 00 DB EA D8 4B A1 FF DE BF C7 3A CD 4.......K.....:.
00403840 02 5A F1 83 8B 7E 57 00 BB CD 31 7C 92 54 C4 14 .Z...~W...1|.T..
00403850 E3 6F 22 35 00 B3 00 DF 06 59 91 C2 16 87 00 48 .o"5.....Y.....H
00403860 AE 4E 00 00 E7 22 CE 7C 00 08 42 0E 0E 81 00 A0 .N...".|..B.....
00403870 EC 00 06 57 A9 CB D3 EA E4 1D 00 C4 8F 17 C1 7E ...W...........~
00403880 6A 6E 22 17 06 FA ED 30 8C BF 6C CC C4 9D 00 6C jn"....0..l....l
00403890 94 9F 24 B5 B6 00 F3 8A 00 E6 97 67 5B FF 31 27 ..$........g[.1'
004038A0 04 2E 24 18 F5 01 01 D8 DA A4 00 00 D8 CF 21 D4 ..$...........!.
004038B0 38 FF C3 01 25 1C 00 0F C2 4E 91 B1 00 0C A3 83 8...%....N......
004038C0 00 ED 2A 19 8F 0D D8 DA 9F 7C B8 13 79 ED E9 F1 ..*......|..y...
004038D0 36 1F 7C 00 E6 04 03 22 BC 4F B0 CD 7C 46 AF 79 6.|....".O..|F.y
004038E0 00 16 95 E2 FF 00 E4 12 E3 E7 39 CC 7C FF A1 66 ..........9.|..f
004038F0 75 1D 00 FF 1C 6D 2A E7 2A DF 7F AB 72 D3 B0 F4 u....m*.*...r...
00403900 C9 A5 72 FF 00 00 FD 4A 59 00 7C 00 93 26 7B 4C ..r....JY.|..&{L
00403910 AB FF A9 20 43 E0 FF 2C E1 0C 7B 17 00 F6 11 3E ... C..,..{....>
00403920 B0 01 00 00 9C 9B 9A 8B 70 0B CC CB 5B 54 EC BA ........p...[T..
00403930 A6 31 5A FF 00 30 BA 59 A1 9C D7 64 00 38 54 0F .1Z..0.Y...d.8T.
00403940 A6 7B 3A 82 82 FF FF D3 96 9C 2C AF 41 C9 57 01 .{:.......,.A.W.
00403950 00 85 4F FF 22 71 E9 60 85 00 C4 09 90 D0 80 73 ..O."q.`.......s
00403960 DC C7 78 CF 3D 56 00 06 90 00 32 2F 9A 9A B6 33 ..x.=V....2/...3
00403970 6F 18 92 FD 6E 14 10 F6 8B F6 6D 37 01 FF F2 15 o...n.....m7....
00403980 B6 38 00 F0 10 27 08 C4 5A 2C 00 00 42 E4 87 7A .8...'..Z,..B..z
00403990 02 C4 FD 33 7C F4 06 0E 2F B2 5D 84 FF 2D 9B FA ...3|.../.]..-..
004039A0 55 7A 71 5D A7 00 B3 59 02 00 8F 1C C0 FF A9 A9 Uzq]...Y........
004039B0 08 E5 1E 47 FF 7E 85 2A 48 3B F9 50 74 12 48 52 ...G.~.*H;.Pt.HR
004039C0 D0 E1 09 00 00 D3 4F FC FF DB 5A 7E 14 C7 7F E9 ......O...Z~....
004039D0 D1 C6 DB 19 04 FB 00 0B F2 41 B3 00 B1 86 86 FF .........A......
004039E0 BB 3E FF FF 14 44 EA AF AB 00 00 C6 0D AF 4C E4 .>...D........L.
004039F0 FF 59 21 00 01 F1 10 2E 81 5D 00 79 20 5B DF 00 .Y!......].y [..
00403A00 5A AC D0 23 25 AB 00 C7 1C 61 2C CA 1B 68 B4 EF Z..#%....a,..h..
00403A10 34 DF BC D7 00 00 BB 0E A9 18 16 E5 FF EF 00 06 4...............
00403A20 71 FF 61 C2 9A C4 1B 1C 39 97 36 20 B4 53 74 0C q.a.....9.6 .St.
00403A30 0B F5 CB 28 FB 2C F9 31 93 00 1E 90 FF 4F 35 E3 ...(.,.1.....O5.
00403A40 68 ED 10 10 23 55 AC 83 8B 91 7D FF F0 00 00 00 h...#U....}.....
00403A50 00 D2 BC 26 32 B2 5C 46 05 0E 14 1F 5D C6 FF D5 ...&2.\F....]...
00403A60 FC 95 01 00 FD 04 00 04 19 74 EA 0C 00 A1 BB 74 .........t.....t
00403A70 00 6D 40 8D D4 66 47 3F 8E DB 88 AA 6F E1 00 43 .m@..fG?....o..C
00403A80 9A 2A 7B 9B 00 FF 22 24 00 B8 AC 0C 0F 2A B0 A2 .*{..."$.....*..
00403A90 E0 C8 2F 5E E7 00 BF B4 F5 01 58 43 8F 61 0E 7E ../^......XC.a.~
00403AA0 54 45 6F FE 24 80 6D 00 3A ED 36 0E F4 46 6E A1 TEo.$.m.:.6..Fn.
00403AB0 77 00 F0 28 08 FF 64 00 00 D2 43 CC CD AE 21 19 w..(..d...C...!.
00403AC0 9A E2 00 DD 8C F7 5D 7D 80 36 3C 08 93 23 85 00 ......]}.6<..#..
00403AD0 B2 70 FD 41 5E 24 DF DC 0E 76 70 56 54 9F 00 80 .p.A^$...vpVT...
00403AE0 82 F5 08 DB 00 F8 4A E8 00 A4 A5 B3 EE 91 33 69 ......J.......3i
00403AF0 9F 00 80 3E A3 6B 34 3D FF 9C E3 2F 0A AF 3A A8 ...>.k4=.../..:.
00403B00 20 C0 4F 54 DA A9 ED FF 3D EF DB 00 FF 18 80 0F  .OT....=.......
00403B10 00 C7 30 00 3D FC 80 1C D0 00 02 0E D4 EB 84 00 ..0.=...........
00403B20 00 FF 08 ED 00 45 00 52 DF 9B 69 B0 8C 7C 00 DA .....E.R..i..|..
00403B30 B8 D3 90 55 C2 E5 2F 52 29 40 C7 20 66 F5 B6 44 ...U../R)@. f..D
00403B40 D9 EC F4 00 A9 28 34 EF 46 00 4F EB F0 82 F8 A4 .....(4.F.O.....
00403B50 9F 17 23 05 00 C3 74 30 EF 32 46 00 AD 8F D0 C4 ..#...t0.2F.....
00403B60 DF 62 FF B8 20 4A 36 1B FF 95 89 5E A9 9C D0 6F .b.. J6....^...o
00403B70 39 C1 02 DB DB BD 0B FC 0E 41 FA FF CE 5E 29 27 9........A...^)'
00403B80 00 1B 00 07 86 FF 1E 64 60 00 01 B5 C6 00 81 44 .......d`......D
00403B90 5C 01 47 C1 72 38 FF AB FF 9F C3 9A B5 02 92 17 \.G.r8..........
00403BA0 96 E4 00 CC C3 3F C6 E0 00 32 F7 95 0F AF 5F 3B .....?...2...._;
00403BB0 16 5C 1D 00 46 02 00 FF 39 1C 3A 3A 7C 6C C6 00 .\..F...9.::|l..
00403BC0 FD 1D 00 FF 00 61 06 12 14 7F EA D2 3A 92 00 00 .....a......:...
00403BD0 00 8E 03 5E 1C 9F 81 A3 1B FF 85 00 FC DA 8B 00 ...^............
00403BE0 00 5D 9F 8A F0 41 86 D9 9D 00 00 8C FB 4F FF FE .]...A.......O..
00403BF0 E2 F3 16 61 22 52 CC 87 03 E1 26 84 9E FD 07 BB ...a"R....&.....
00403C00 38 ED 6C 3E D3 59 06 F4 36 8C FF F6 FF BB 31 D6 8.l>.Y..6.....1.
00403C10 17 84 D5 8C FD E1 18 ED 06 1D A7 BC 38 A3 10 E1 ............8...
00403C20 00 60 10 03 80 66 98 31 7E 07 00 C8 00 00 4D 00 .`...f.1~.....M.
00403C30 9C 3E CF 66 F0 3A 0A 4F A1 E2 80 BF 1D C1 08 1F .>.f.:.O........
00403C40 33 00 B1 D0 01 FF 99 BE FF 14 73 D3 7A E4 82 7D 3.........s.z..}
00403C50 E9 F9 17 A7 DA 5F A1 70 83 D4 9E 00 82 8D DC FF ....._.p........
00403C60 11 07 77 FD 85 35 63 F9 55 65 22 54 A5 7B 67 00 ..w..5c.Ue"T.{g.
00403C70 4E C3 FF C0 A7 6D D1 29 A6 30 14 1C D7 F7 36 C2 N....m.).0....6.
00403C80 69 BF EA CE 92 1C 50 27 06 EC 09 13 CC FF 1A A7 i.....P'........
00403C90 81 BE BB B0 BC 00 3C 00 30 B8 00 73 92 6F 74 5B ......<.0..s.ot[
00403CA0 4B 00 7A FD 69 89 6C 27 AE B6 78 D8 A2 81 5A F0 K.z.i.l'..x...Z.
00403CB0 4E 00 54 BF B9 3E C0 AB 00 B4 0A D7 0E 91 DC 48 N.T..>.........H
00403CC0 A5 F4 CB 66 C3 2F 00 26 1F FF 00 1E 96 00 3E 00 ...f./.&......>.
00403CD0 20 7C FE E5 A4 7C 8B 61 78 08 C3 CA 00 00 00 71  |...|.ax......q
00403CE0 8A 6E 1F 2E 3D 83 56 1B 20 92 04 64 F8 99 1D 12 .n..=.V. ..d....
00403CF0 F2 C1 3B 00 0F 68 96 E4 08 78 F6 FA D1 33 58 D5 ..;..h...x...3X.
00403D00 AA 00 E1 7C 43 5A D6 57 03 6E B3 75 E3 B7 C7 86 ...|CZ.W.n.u....
00403D10 B2 FF FF 48 D1 A7 80 4C E4 37 00 81 09 9B 20 5A ...H...L.7.... Z
00403D20 00 45 64 0C C6 B9 F8 A9 04 F4 EF 3C 93 F3 E7 05 .Ed........<....
00403D30 45 B0 50 6C 00 1A 1E DD 54 75 00 D4 38 E4 4C E7 E.Pl....Tu..8.L.
00403D40 FB B4 0F FC 04 94 00 F8 86 A4 2D 1B C9 4C 00 CE ..........-..L..
00403D50 69 E4 93 6F DB D2 D3 FF 75 63 06 00 00 E7 E1 62 i..o....uc.....b
00403D60 BA 36 04 E6 F0 1A 26 F9 7C 4A 68 43 B8 00 7F 00 .6....&.|JhC....
00403D70 07 28 FF D9 FF 73 1E 52 50 F5 00 3E 20 48 10 60 .(...s.RP..> H.`
00403D80 57 ED 0D C6 B3 80 DB 95 36 DE A3 C5 03 00 B7 00 W.......6.......
00403D90 08 93 DF FF 72 DA F3 6E 5E E1 5A C4 5F 88 22 0B ....r..n^.Z._.".
00403DA0 A1 01 81 F9 23 A2 07 2A 78 00 78 7D F8 92 67 14 ....#..*x.x}..g.
00403DB0 00 41 9F 37 24 08 94 7C B7 25 25 00 CC 00 C7 D6 .A.7$..|.%%.....
00403DC0 2D 00 FD 1A B2 B2 80 08 07 10 8B 00 00 3E 00 CB -............>..
00403DD0 41 E2 F8 7F 77 57 FD 08 37 FA AF 04 D8 75 00 20 A...wW..7....u. 
00403DE0 65 02 A2 C5 81 00 E2 D4 16 CA 5E 3E F8 FF F9 A9 e.........^>....
00403DF0 40 BF BE 5C 74 0F EC F3 FF 7E CD 3C 39 09 D6 E1 @..\t....~.<9...
00403E00 0C 8D 98 74 B9 39 00 06 00 FF 3C AB 00 7D 3B 2B ...t.9....<..};+
00403E10 E6 3E FF 00 14 5B 00 09 1E 00 E7 FA 2E 14 C5 EB .>...[..........
00403E20 4B 00 01 B2 0C D0 00 7F B8 3C EC 76 6F 5D 26 5D K........<.vo]&]
00403E30 FF 00 61 43 00 00 B2 EA 00 84 1C 2B 00 E0 BC 5D ..aC.......+...]
00403E40 0D C6 57 A5 FF 5C 2A 1F 7B 00 C6 05 51 FF 97 00 ..W..\*.{...Q...
00403E50 69 15 2D 79 AC 7F A2 42 00 00 71 3E B9 B5 BC D3 i.-y...B..q>....
00403E60 91 AA A3 19 E3 E0 D3 00 8B 79 33 0C 06 2C 67 86 .........y3..,g.
00403E70 EA 00 B2 FF 88 FF FF A7 C1 96 0E 7F 14 FF AB 51 ...............Q
00403E80 DB FF 00 67 E7 FF 36 1A D8 B3 4A B0 E0 14 D2 06 ...g..6...J.....
00403E90 3A 00 04 43 34 DE 12 D8 0C F7 ED AD D8 F3 0B 98 :..C4...........
00403EA0 9A FF 2E E4 00 00 00 4F FF 0A 29 E1 A1 AB FF 56 .......O..)....V
00403EB0 00 2D BC 79 46 87 C2 00 18 00 00 4A 8F F5 52 B6 .-.yF......J..R.
00403EC0 A8 D0 B1 80 FD A4 76 78 81 E4 1C B3 1A B1 EF AA ......vx........
00403ED0 B4 00 08 2A DB C4 58 00 F3 5E E7 19 F7 31 E8 D6 ...*..X..^...1..
00403EE0 40 00 FF A9 FB ED 83 F8 56 00 78 09 00 00 C1 F7 @.......V.x.....
00403EF0 FF 89 00 C3 D2 F5 70 B8 4F 7B 00 6F D5 4E 52 70 ......p.O{.o.NRp
00403F00 29 C1 B9 FF A7 DC 00 69 E0 BE 9E CB 9F 5F 1E 4B )......i....._.K
00403F10 00 41 62 2C 4E 26 38 D1 18 F2 E1 8D 00 B9 6A 0A .Ab,N&8.......j.
00403F20 00 88 31 00 24 CB A0 00 23 1F 93 3D 00 00 58 01 ..1.$...#..=..X.
00403F30 35 3F B0 9F 11 57 4D CD B7 1D FF 81 16 1D D6 F5 5?...WM.........
00403F40 04 7D 6F 78 AD CE 70 5F 00 88 A1 7E 77 40 8B 24 .}ox..p_...~w@.$
00403F50 00 FF 6C F5 62 45 1F 4E 99 F5 47 0F C6 08 FF 1C ..l.bE.N..G.....
00403F60 00 00 1E 00 AF 43 CD 00 C9 00 B0 00 01 9C C3 4F .....C.........O
00403F70 C6 1A C9 7F FA 00 C3 1E FF 7E 09 E3 5F 67 00 00 .........~.._g..
00403F80 A4 00 02 B6 E8 00 BD 3A 81 90 9B 67 08 B9 9C 00 .......:...g....
00403F90 A5 00 48 D7 BF 9B 00 14 F3 4C 25 81 57 FF 00 B4 ..H......L%.W...
00403FA0 7F 00 FD 65 43 0B FC D2 87 ED 7E AA 37 F0 BD 93 ...eC.....~.7...
00403FB0 B1 FF 00 00 C7 61 00 3A 9E A4 20 CB 67 6F 22 62 .....a.:.. .go"b
00403FC0 B5 63 D9 F3 39 D7 5A 38 61 00 84 F3 AA F1 01 33 .c..9.Z8a......3
00403FD0 4C AF B1 FF 00 26 16 FF 71 00 89 34 48 95 70 5D L....&..q..4H.p]
00403FE0 CE F6 1A FF BD 00 37 D1 00 2D D0 95 98 C9 47 FF ......7..-....G.
00403FF0 FD B9 4D 9F 14 F2 FC EF FA FA 68 E4 CB 7D 1E DE ..M.......h..}..
00404000 F7 75 51 48 EC 28 E6 D0 42 86 23 D6 69 72 DE D1 .uQH.(..B.#.ir..
00404010 83 00 C5 C5 00 00 87 00 00 B0 D9 CE 3B 33 FF 33 ............;3.3
00404020 94 00 82 1A EF 85 39 25 9B 9A FF 00 B1 FF A0 6A ......9%.......j
00404030 DF D2 57 7B 52 BD 1E C1 CB 71 15 A6 31 19 AE 92 ..W{R....q..1...
00404040 00 F4 00 00 C7 00 0E ED 00 93 1F 34 00 31 00 9C ...........4.1..
00404050 FF 00 DF 1E 2E A3 DD 50 00 0C 1A FF EF 10 01 53 .......P.......S
00404060 14 DA B1 00 00 A3 83 00 1F 92 09 C0 47 A0 42 00 ............G.B.
00404070 80 A6 00 A0 1D 8A 1C 05 26 C3 00 C0 32 5B 2E EF ........&...2[..
00404080 00 0C 26 A7 23 89 10 94 CE 45 E2 2E 00 29 2C 19 ..&.#....E...),.
00404090 59 BB E0 31 FF 56 E4 62 28 FF 1E 7E 7C DE 50 67 Y..1.V.b(..~|.Pg
004040A0 8C 78 BD 7B E1 AE FC D6 DB 93 00 7D 00 00 34 63 .x.{.......}..4c
004040B0 E1 93 1A 83 7C 5C 02 70 FF E0 84 2D 4F 00 01 10 ....|\.p...-O...
004040C0 36 38 4E 2E 49 37 49 A6 C0 EF 1B 26 33 03 14 1B 68N.I7I....&3...
004040D0 B9 0E B1 14 00 00 8F FF ED 00 00 E2 00 A4 86 F8 ................
004040E0 D3 4E 4D 3F 23 33 00 1E FF 09 00 F0 00 81 05 7D .NM?#3.........}
004040F0 3A FD 81 00 BF 24 41 00 00 22 39 48 E3 66 19 9E :....$A.."9H.f..
00404100 D7 42 3F 91 9D 18 14 38 FE 18 7A 3E 7B 3F 10 9C .B?....8..z>{?..
00404110 E1 55 EF D6 00 9F 9E FD FF 00 FF 84 88 00 FF A7 .U..............
00404120 00 8A FC 28 00 1B 0C 1B 00 44 AC 00 8E 07 51 37 ...(.....D....Q7
00404130 46 68 38 69 FF 00 00 C1 A3 E5 FF 9E B4 60 3E 52 Fh8i.........`>R
00404140 00 D2 1D 5F 4C 37 D5 50 6A EE AC 87 69 F9 19 B6 ..._L7.Pj...i...
00404150 46 03 33 80 F9 0B 9A FF 80 AD DE 74 88 43 40 71 F.3........t.C@q
00404160 8D 99 00 1E 91 81 C2 54 7E 16 E3 4E 05 76 14 00 .......T~..N.v..
00404170 39 72 2E 4D FF 40 03 00 0D 00 C4 DD 00 FE FF DA 9r.M.@..........
00404180 34 00 D8 D3 02 DD F0 00 A6 E6 00 17 5D 47 2A E5 4...........]G*.
00404190 FF FF 70 E7 9F 91 43 88 54 70 CC A2 38 B8 86 A0 ..p...C.Tp..8...
004041A0 FB 3C E1 AF 7C F7 FF C2 DB 01 00 34 84 1A 00 FB .<..|......4....
004041B0 17 18 7D F1 F7 FE 76 FF 00 00 19 70 ED FD A7 00 ..}...v....p....
004041C0 D2 D1 04 F6 12 FF 2F 3B 17 C0 F6 75 46 37 F0 1A ....../;...uF7..
004041D0 3A ED 17 5A 62 7C 1D D2 47 8E 8B 71 9F 6D 15 FF :..Zb|..G..q.m..
004041E0 B6 00 59 7E 80 00 11 C5 60 04 0B 38 43 F6 F8 63 ..Y~....`..8C..c
004041F0 70 00 91 38 3F CF 07 04 1B 39 00 C7 97 F5 15 C6 p..8?....9......
00404200 54 A7 09 F7 AC A3 6C C1 A4 03 5F 24 AB C7 D1 82 T.....l..._$....
00404210 00 00 FE 6A FE 00 E2 C2 D3 78 B7 FF 05 14 F7 6C ...j.....x.....l
00404220 82 06 FD 85 10 00 E0 72 C5 77 00 E5 E0 F8 00 40 .......r.w.....@
00404230 02 03 12 6B BE DD 00 65 DB B8 CD 14 EE 3B 00 29 ...k...e.....;.)
00404240 35 00 D9 7A FE AF 6C B5 C6 18 FD FF 9D FC 00 E2 5..z..l.........
00404250 BF 60 AB 88 85 83 70 1B 00 95 3A 98 05 9D C2 00 .`....p...:.....
00404260 00 8A 00 00 02 8C 78 B8 93 FD 36 32 00 7C 32 DF ......x...62.|2.
00404270 0C 0D DB 05 3D 7D E7 50 3C E3 55 E8 52 0F 2A 40 ....=}.P<.U.R.*@
00404280 3D 8D 26 5D F6 42 C5 00 25 6B 22 B8 FF 71 47 70 =.&].B..%k"..qGp
00404290 E0 DF 01 E0 DE 00 60 A9 EB FC 00 9B 80 7C E0 9F ......`......|..
004042A0 6D 05 36 09 17 05 FF E1 3A 51 BB 6F 00 19 00 00 m.6.....:Q.o....
004042B0 8C 00 4C 31 3E 54 FF 00 4E E2 9C 32 8D 93 EF AB ..L1>T..N..2....
004042C0 1B 9F 78 98 37 1A 3C FE E0 34 00 34 09 44 A5 D6 ..x.7.<..4.4.D..
004042D0 90 02 00 0A 00 06 4F 10 F3 00 5E 73 36 D3 6B 06 ......O...^s6.k.
004042E0 E3 B3 FF CD 00 00 67 98 DB CC 4B D6 67 7D 29 2C ......g...K.g}),
004042F0 5D 31 FB 02 27 00 70 73 F9 53 00 05 77 93 8D 55 ]1..'.ps.S..w..U
00404300 A8 6B 31 C7 8B 8A 9A 00 30 0E 4F A3 67 FE B1 47 .k1.....0.O.g..G
00404310 76 D2 00 7E 94 6E 62 00 DB 00 0C CB 5B DD F8 8C v..~.nb.....[...
00404320 D1 4A 47 17 7B DE 6E C2 EB 39 FF 87 0A 20 2C FF .JG.{.n..9... ,.
00404330 E6 FF 38 FF 60 C6 13 14 8B 0B AD 40 4D 08 D8 1C ..8.`......@M...
00404340 B6 47 46 54 3E AF 00 00 00 FF 8E 17 CB F1 E6 12 .GFT>...........
00404350 00 E0 58 E6 2D 8C 40 3F FF DC 0D 02 81 16 71 4B ..X.-.@?......qK
00404360 8B E5 C4 C5 96 3B B7 38 24 DA 21 00 70 73 E8 89 .....;.8$.!.ps..
00404370 90 AA 93 94 04 00 60 1C E5 12 57 11 5D CC 00 D8 ......`...W.]...
00404380 CF FD 30 00 1F 02 9D 79 D4 1A 22 02 31 42 FA 48 ..0....y..".1B.H
00404390 64 FF 00 3B 8C A8 A3 43 E3 E2 A5 07 70 6B 02 8A d..;...C....pk..
004043A0 CE 42 00 FF 99 0C 00 64 D7 E3 6C 95 E9 00 24 00 .B.....d..l...$.
004043B0 57 CA DF 20 5F 9C 89 1B 39 1C F0 02 5F 5E 3D 72 W.. _...9..._^=r
004043C0 4B 8A B8 81 63 00 F3 25 C6 00 00 E4 CE 56 E7 64 K...c..%.....V.d
004043D0 92 12 BB 98 FF E0 AC 9E 16 09 8C 40 40 E2 30 FF ...........@@.0.
004043E0 EF 9C 1F C4 58 0C D7 00 71 20 51 00 0A 00 05 06 ....X...q Q.....
004043F0 B9 00 00 00 61 D8 18 9D 4F FF 32 E1 A9 00 00 AA ....a...O.2.....
00404400 00 C2 B2 00 C3 D3 32 80 BA 1A CE 8E 46 6F C6 FF ......2.....Fo..
00404410 E2 4C 9F E9 21 00 45 76 6D 23 4B FF 00 BC D7 38 .L..!.Evm#K....8
00404420 4F 36 1A 61 FF 30 27 EA A7 5D 00 04 05 E9 E2 85 O6.a.0'..]......
00404430 70 18 22 81 02 E5 A0 1B C2 0E AD 8F 79 81 5C ED p.".........y.\.
00404440 0D 39 0A FF 83 B2 4F 00 98 DD 68 59 11 D8 40 16 .9....O...hY..@.
00404450 38 71 D2 9F CF C6 A7 00 00 BF 06 05 91 AB 50 8E 8q............P.
00404460 B4 D3 AE 6A D6 83 00 53 12 22 25 74 DC E7 47 8D ...j...S."%t..G.
00404470 87 FA 89 5C A6 5C 67 63 85 6C 6D 00 43 F4 E3 01 ...\.\gc.lm.C...
00404480 FC DF BF B9 56 FD 72 D7 72 3A 5C B0 F6 3A 13 0D ....V.r.r:\..:..
00404490 4F 00 F3 99 DA F1 47 40 A4 43 DE A8 00 A1 6B 44 O.....G@.C....kD
004044A0 D7 C2 FF 3A 00 FF 92 C6 21 2C D4 23 A1 59 C9 A0 ...:....!,.#.Y..
004044B0 00 F2 D1 02 A0 CA 33 FF FF 65 EE D3 26 E9 14 E8 ......3..e..&...
004044C0 B6 B0 00 F5 B7 00 04 09 03 1C F9 D2 88 00 DF 00 ................
004044D0 8F C0 A5 DB B1 00 0F 39 FF 28 00 0B 00 13 89 54 .......9.(.....T
004044E0 37 22 8C BF FE 00 F8 05 00 24 A0 7E 00 E7 00 41 7".......$.~...A
004044F0 00 E4 DE 45 73 41 75 52 64 06 00 F8 40 00 0B C4 ...EsAuRd...@...
00404500 B4 F8 8D DD F4 02 7C 50 36 80 AB EF C2 BC 94 20 ......|P6...... 
00404510 00 03 AC 2D 64 95 00 6B C8 3A 51 ED 13 F9 45 7A ...-d..k.:Q...Ez
00404520 E8 50 05 48 A9 FF FF 28 F9 83 00 60 46 2A 87 8C .P.H...(...`F*..
00404530 76 00 13 2F 87 B2 77 F7 06 7F FC 08 FA 09 52 2F v../..w.......R/
00404540 67 70 18 54 70 E2 88 79 46 00 F9 00 FB 25 E8 FD gp.Tp..yF....%..
00404550 7F 9A 46 4C E8 94 F2 FF 00 00 00 79 9A 00 2A BB ..FL.......y..*.
00404560 47 47 C7 98 51 F6 A5 00 10 E4 EC 5C D3 FF 81 14 GG..Q......\....
00404570 FF 4A 14 6E 00 35 5F 14 FF 04 AE FC 00 27 3D FF .J.n.5_......'=.
00404580 AF 4A 54 06 C5 79 14 7E 32 B1 00 05 E7 0B 00 CE .JT..y.~2.......
00404590 79 42 92 0E D8 04 E0 6F FF A3 8C 00 83 E1 AF E1 yB.....o........
004045A0 ED 85 DE 00 00 03 FF B3 FF 79 5C B5 00 7B C2 00 .........y\..{..
004045B0 1A 97 FF 00 71 1E 7F 6E 1C 1A 99 5B 41 F9 41 A3 ....q..n...[A.A.
004045C0 23 FF CE F8 FF 0B BF DD C6 DD 8B 13 78 FF 00 00 #...........x...
004045D0 E9 7D E1 AA 44 C0 0D 35 08 96 01 B1 74 A2 2E 01 .}..D..5....t...
004045E0 F0 60 C6 0E AE FF B9 E2 38 AA 6F C0 C9 D1 4E 31 .`......8.o...N1
004045F0 83 89 00 D2 A2 C4 FE 89 2B 06 3A 7C 93 60 BF 82 ........+.:|.`..
00404600 C9 48 51 73 00 06 C7 C8 FF B7 A0 AC 1C 85 5E 00 .HQs..........^.
00404610 E5 00 37 8E 02 7C 7B 05 FC D1 84 1A 00 81 19 F0 ..7..|{.........
00404620 9F EA FA 4E 65 87 31 40 BC FE 15 D6 FF F0 44 FF ...Ne.1@......D.
00404630 63 B8 49 3B 6A 82 5B 73 D8 10 1C DC 5E EB 4E 2C c.I;j.[s....^.N,
00404640 00 00 17 FF 9F 02 9F 94 9C 00 C5 7C C6 72 00 66 ...........|.r.f
00404650 40 00 FD 55 4C AF 42 00 6F F8 E1 90 78 FF 7A 00 @..UL.B.o...x.z.
00404660 E4 BC 72 14 00 00 FF C2 11 1A B6 43 96 A7 E4 9D ..r........C....
00404670 0F A1 04 3C 70 BE 81 4A 0D 3B 8E F0 1C 00 9B 29 ...<p..J.;.....)
00404680 FD B2 EC 00 1F 35 0C 4C 9E F9 D6 3A AD E7 DB 00 .....5.L...:....
00404690 84 51 00 6F DC 42 2C 9A 00 D3 00 26 8F 00 B4 01 .Q.o.B,....&....
004046A0 7D 52 10 00 B1 07 6A 00 C3 09 78 87 00 7F 9F 41 }R....j...x....A
004046B0 E1 00 F9 66 0F A8 9C 7C 15 16 EC 11 6E FF B4 FF ...f...|....n...
004046C0 27 8C F4 FF DF 0B 00 06 F8 F2 00 10 78 01 FF 06 '...........x...
004046D0 A6 0C 40 90 1F 00 04 58 C0 3E 81 A7 00 A1 1E FF ..@....X.>......
004046E0 DC FF 59 64 C0 48 87 00 A2 5F 00 E0 E1 B1 30 DB ..Yd.H..._....0.
004046F0 75 00 00 4E 80 FF 04 A9 21 5A AE 65 FF D4 B1 01 u..N....!Z.e....
00404700 2C 18 9D 50 7F 05 DB DD EF 00 28 AC 00 00 00 FB ,..P......(.....
00404710 FB 99 BC 9A AF E7 84 39 F9 49 76 0A FF F5 8C 3E .......9.Iv....>
00404720 36 80 2F 00 00 53 7B 4C B3 9F 00 88 00 15 00 D2 6./..S{L........
00404730 D2 69 4C 46 00 30 8B E3 00 A9 42 FF D4 F8 FF 20 .iLF.0....B.... 
00404740 BA C4 E2 00 32 0B 5A 00 BA 87 41 77 68 9C FF E5 ....2.Z...Awh...
00404750 8B 32 00 00 A9 FD C2 67 3F C6 7B 00 0F 00 B0 C3 .2.....g?.{.....
00404760 16 FC F5 10 F0 FF DF A6 46 12 8F 19 B0 A1 75 C1 ........F.....u.
00404770 F8 32 CF 00 17 60 00 9A 60 A9 62 CA 10 64 8A DA .2...`..`.b..d..
00404780 14 DF 19 DF C6 2B 00 47 79 2A 40 53 93 9D 4E 04 .....+.Gy*@S..N.
00404790 C1 9C 50 92 00 38 90 00 60 34 CD FF B3 92 E8 BD ..P..8..`4......
004047A0 00 D7 31 B8 1D CC 87 00 ED 5F FF F4 29 00 6E 77 ..1......_..).nw
004047B0 B4 EC 72 21 00 3C FF 17 03 CD 6C 16 0A BA 79 BA ..r!.<....l...y.
004047C0 13 CC 53 6A 07 E5 22 FF 39 90 45 3E A3 39 30 DC ..Sj..".9.E>.90.
004047D0 A5 00 F8 DE 11 FE 6B FF E6 B8 5B FF BB B0 91 2B ......k...[....+
004047E0 35 00 2A 73 00 09 00 DA 02 E7 E1 FF 00 9E 46 60 5.*s..........F`
004047F0 C5 BD 13 FC 33 00 FC F6 1C 93 21 C8 2E 88 D4 48 ....3.....!....H
00404800 00 00 88 38 03 36 A1 FF DE 4C BB 24 04 FB 93 9E ...8.6...L.$....
00404810 62 00 00 00 1D 06 00 2A 60 0C 18 69 46 1C 61 44 b......*`..iF.aD
00404820 0D 61 DC FF 0A DB CD 68 A7 D9 39 8D 83 D3 CC 3D .a.....h..9....=
00404830 00 A5 77 35 20 25 74 50 21 76 5C 2B AA 19 F9 10 ..w5 %tP!v\+....
00404840 CA 54 67 FF EC FF C1 8F 9B 7B D4 00 00 0A A5 00 .Tg......{......
00404850 4E 5A 75 B5 BF FF 4E B1 C2 86 EE D1 3F A3 90 52 NZu...N.....?..R
00404860 36 30 4E 2A 01 D3 61 F0 EB 77 5E 41 6E 93 97 4E 60N*..a..w^An..N
00404870 55 E1 58 46 00 F4 00 0E CF F9 00 5D 00 86 82 96 U.XF.......]....
00404880 AB 00 00 52 10 18 00 00 38 FB 16 00 C3 6F 3E 9C ...R....8....o>.
00404890 97 87 02 00 9C 2F A7 0C 34 08 01 6F 51 C1 B5 EF ...../..4..oQ...
004048A0 FF 1F 84 DD 5F 5E 2F 52 93 00 4B 62 5F 00 A1 F7 ...._^/R..Kb_...
004048B0 19 00 E7 DB FA 57 09 5B 5E 07 06 99 FF 4E 71 00 .....W.[^....Nq.
004048C0 FF 36 73 C6 23 69 00 99 06 1B F7 89 83 9A 66 2A .6s.#i........f*
004048D0 25 D1 C1 45 B8 8D 1C 00 00 D6 BB 66 45 50 00 53 %..E.......fEP.S
004048E0 CE E8 12 DA DE F8 E6 00 07 FF 00 31 00 C1 D9 2E ...........1....
004048F0 C5 F2 4B 8F 00 00 21 5E 00 F3 AD F5 3E 72 80 2B ..K...!^....>r.+
00404900 00 5A 08 8B 0F 32 10 00 A1 53 35 24 AA B3 00 D2 .Z...2...S5$....
00404910 CC 6F E4 A1 CB 00 B5 FF 00 64 B2 BF E5 14 D7 DD .o.......d......
00404920 04 A8 00 E1 C3 BB FF 8D 22 C2 33 00 00 00 2A 5B ........".3...*[
00404930 00 04 1E 86 00 44 DB 12 6A B7 89 00 FA 0B 24 00 .....D..j.....$.
00404940 00 80 00 FF ED C9 62 FF 4F FF 19 61 38 9B 3C E7 ......b.O..a8.<.
00404950 EF 00 04 2B 00 00 AC B0 4C 8A 54 71 5A AE D2 6C ...+....L.TqZ..l
00404960 CD 18 C2 8E 00 BD E4 00 11 00 1B DF 6C 6E E4 00 ............ln..
00404970 00 E1 D3 00 F7 49 82 C4 01 68 00 60 A8 38 6E E6 .....I...h.`.8n.
00404980 DB 40 96 DE A5 C4 83 00 73 00 FF EF 8C CE 09 05 .@......s.......
00404990 1B FF 41 2C 3F 0E BF 75 FF 5E 3C 52 F2 23 49 D3 ..A,?..u.^<R.#I.
004049A0 3E CC 58 6D AA C9 8B FF EB 14 7D 16 1E BF B4 FD >.Xm......}.....
004049B0 40 4C 39 2E C8 6F 4E C1 1A 14 93 FA A2 EC 2A 89 @L9..oN.......*.
004049C0 00 B5 8E 18 8D 9A 14 36 07 85 5F 00 A0 30 0F 46 .......6.._..0.F
004049D0 76 A5 20 C3 00 F0 00 3F FC E6 09 CA 23 99 0C 7D v. ....?....#..}
004049E0 2F 00 B4 93 06 41 57 41 37 5C AE 2C D3 E2 72 E7 /....AWA7\.,..r.
004049F0 2E 61 AB F3 02 4C EF C7 CE CF 00 50 C3 34 13 44 .a...L.....P.4.D
00404A00 FD 64 B9 DE 29 A2 E3 B4 E6 0C B8 B9 26 EC 32 3D .d..).......&.2=
00404A10 AA 6C 00 E7 EC 06 F1 00 3E B1 24 B3 5F A9 6A 37 .l......>.$._.j7
00404A20 00 82 FF 00 90 33 4E FF 0D 43 67 32 02 20 BC 11 .....3N..Cg2. ..
00404A30 60 60 73 39 E5 9E D0 89 ED FC 72 51 6F 06 FE 0E ``s9......rQo...
00404A40 B7 80 C1 91 FC 33 16 00 18 00 F4 00 E7 9F 54 44 .....3........TD
00404A50 44 36 4B 64 44 0C 00 9C 34 61 9C 48 70 FB 21 C2 D6KdD...4a.Hp.!.
00404A60 00 82 E1 39 06 4D D9 FF CC 00 00 50 00 60 F7 4B ...9.M.....P.`.K
00404A70 06 52 FF 2A 58 80 08 FF 37 FF C9 40 11 A9 00 88 .R.*X...7..@....
00404A80 A0 60 7D AB 85 7D CB B7 CC E5 63 B3 D4 42 00 00 .`}..}....c..B..
00404A90 D2 08 C4 FD 35 08 E4 78 52 76 1C 06 B1 2F B7 E8 ....5..xRv.../..
00404AA0 67 88 28 FB 00 BC 45 16 54 CE E4 41 FF FF A3 B7 g.(...E.T..A....
00404AB0 2D 28 4D D1 39 1C DA 00 FF FF 7B 00 FF D3 E0 80 -(M.9.....{.....
00404AC0 AE 38 65 3B 17 69 00 00 53 FF 48 C1 17 CC F9 0D .8e;.i..S.H.....
00404AD0 C0 E7 B3 51 62 A6 7C 27 BF 50 00 20 00 35 DF FD ...Qb.|'.P. .5..
00404AE0 47 9E 2A 9D AE C9 F7 AF CA 00 5D 05 61 FF 99 00 G.*.......].a...
00404AF0 38 6C 35 FF 4B 8B BF FF 00 A8 B0 00 0C BF 00 0C 8l5.K...........
00404B00 34 00 E9 57 8B 06 6A 0B FF 87 F7 7E 90 61 64 45 4..W..j....~.adE
00404B10 E9 D7 B8 70 6E 38 40 F5 00 E3 8C 92 88 9C E5 08 ...pn8@.........
00404B20 A7 CE 21 58 7E 00 EE BA 53 B6 5F C1 A9 33 5A AB ..!X~...S._..3Z.
00404B30 AD 09 47 00 BF 3A 19 D0 C1 00 58 00 A7 A7 01 1C ..G..:....X.....
00404B40 1C 93 E8 21 B1 42 0E D8 10 84 37 00 C8 68 D5 22 ...!.B....7..h."
00404B50 00 64 03 00 A2 3B 19 20 FF E1 A6 60 1A 5E FF BF .d...;. ...`.^..
00404B60 E3 FC D0 BB 25 D2 F4 A9 DA 84 DC 40 1E 97 57 E7 ....%......@..W.
00404B70 D6 AD 55 4C 75 56 DF 00 00 2A 03 EF 6F AF FF DE ..ULuV...*..o...
00404B80 14 00 CF 9E 65 7B B2 14 BB C9 E9 86 2B 36 29 F1 ....e{......+6).
00404B90 3D AB 15 C0 60 B1 7E 52 BB E8 4F FF D1 85 72 EB =...`.~R..O...r.
00404BA0 9B BA 1B 55 76 00 CB 00 B7 9D 40 00 09 DB 26 32 ...Uv.....@...&2
00404BB0 2B 3E 06 2D 8D 6C 4E 43 18 E3 80 FF ED 47 CA 39 +>.-.lNC.....G.9
00404BC0 45 96 62 F3 19 FF F9 00 1D FF 47 EF 3A 78 00 B7 E.b.......G.:x..
00404BD0 7E A0 B1 4E FF 00 C2 DF 28 00 AF 0C 6B 6A 40 28 ~..N....(...kj@(
00404BE0 1B 1C 15 73 74 7C 77 EF EB 3E 00 04 E8 7D 55 71 ...st|w..>...}Uq
00404BF0 00 84 AC 00 DC 01 00 0D A4 A0 4B D4 72 EB 2A 4A ..........K.r.*J
00404C00 3E F5 36 61 FD FE 1C D4 22 B4 DD 11 76 25 6A 81 >.6a...."...v%j.
00404C10 26 00 1C 33 E9 B9 00 FF B3 97 9F 00 78 44 00 11 &..3........xD..
00404C20 BD 00 85 3A 0E B8 00 18 30 FB FF 9D 00 46 00 3B ...:....0....F.;
00404C30 04 C9 65 FF 00 80 47 BB 90 00 00 00 19 F1 00 7A ..e...G........z
00404C40 38 68 8A 63 9C 01 7C 86 01 E5 52 2E 40 60 A0 C2 8h.c..|...R.@`..
00404C50 05 5A 20 F7 08 4C 74 00 DB 00 02 00 5F F8 DB B9 .Z ..Lt....._...
00404C60 16 64 71 4A 20 3D 00 01 5C 48 8F 00 C6 8F 80 C6 .dqJ =..\H......
00404C70 FB 00 00 07 A4 0B 75 00 29 FF 67 38 3A 8B 16 07 ......u.).g8:...
00404C80 41 00 9D 00 09 5E 7E 00 71 3C 52 38 E0 C2 FF 00 A....^~.q<R8....
00404C90 91 00 5F 00 86 19 20 00 83 DB C3 00 7C 0D 03 FF .._... .....|...
00404CA0 C1 DA 00 0D 58 42 66 99 E4 FF 1B 0E F0 FF 10 02 ....XBf.........
00404CB0 18 F9 B9 00 6D A5 C6 0C 4C A0 FE 52 29 00 64 75 ....m...L..R).du
00404CC0 A9 FF F3 49 DB 88 24 39 B7 00 7A 24 1A 41 7D 06 ...I..$9..z$.A}.
00404CD0 D6 8F 00 A5 53 A0 FF 00 C2 69 BF 00 00 69 58 01 ....S....i...iX.
00404CE0 C4 30 A6 BA FA 2C C1 F0 01 E4 5E 7F 1B 00 96 E6 .0...,....^.....
00404CF0 5F 0C 4B 00 00 C0 00 60 0D 00 21 FA 0A BF 0B 26 _.K....`..!....&
00404D00 C8 7D 59 ED 00 F9 B6 C3 10 00 00 2D 5F A7 1A 12 .}Y........-_...
00404D10 B3 27 F7 88 42 E6 D2 00 C5 75 9A 27 D0 AF 00 3A .'..B....u.'...:
00404D20 B9 0C B2 00 32 FB C1 FF 64 22 EC 37 FF 00 D5 00 ....2...d".7....
00404D30 25 6A F5 A0 A7 0C 2C D6 E9 00 87 2A C4 00 00 83 %j....,....*....
00404D40 A8 1E 09 86 FD FF F1 13 F0 08 8A 0C 3C 14 F0 0F ............<...
00404D50 A7 BD 5C CA 05 00 10 14 40 AB C4 6A 72 24 B9 B4 ..\.....@..jr$..
00404D60 71 48 C0 57 E1 00 20 53 25 F3 00 62 54 13 18 44 qH.W.. S%..bT..D
00404D70 34 FE 73 22 C0 7F 4B F8 3C 64 31 CF EE E1 5B 00 4.s"..K.<d1...[.
00404D80 A8 89 49 F2 70 00 48 80 FE 1D 5D D8 A3 79 A0 82 ..I.p.H...]..y..
00404D90 01 A2 10 41 E5 FD E1 7E F8 BC B5 3A D6 74 00 1D ...A...~...:.t..
00404DA0 CB D1 95 B1 3A 11 DB 00 EE 2B 36 FB 4E 8C 68 00 ....:....+6.N.h.
00404DB0 67 E8 68 B9 72 E8 8F 2B FF 13 21 85 A4 65 A5 00 g.h.r..+..!..e..
00404DC0 94 6B 32 E0 02 26 4F 00 2E 87 00 B0 00 FF D3 00 .k2..&O.........
00404DD0 64 DD 41 6D 54 0C 2D 70 13 00 44 00 81 00 FF 22 d.AmT.-p..D...."
00404DE0 18 00 A3 29 00 6A 4B FF EC 00 4A 00 A7 00 E0 96 ...).jK...J.....
00404DF0 A2 A0 80 FF 07 F6 5E FF 41 FC FF C8 58 AD FF B4 ......^.A...X...
00404E00 5C 85 6A 3E CE 00 8D FF 00 A6 00 7B FF 0F 00 CE \.j>.......{....
00404E10 11 25 00 82 19 4A AE FF DE 32 26 E0 A3 D1 DD F2 .%...J...2&.....
00404E20 C4 19 DD 2A 77 9F 3C 50 9E C7 BF 83 00 B0 00 B0 ...*w.<P........
00404E30 00 88 76 DC 00 31 D9 E0 55 2B 8F 00 D9 87 36 38 ..v..1..U+....68
00404E40 7F 80 C6 FC 94 FF 06 33 30 73 BB B1 E1 B0 CD 0D .......30s......
00404E50 54 FF 49 38 F6 39 DA 0E 1C 35 25 E1 00 DF 72 1D T.I8.9...5%...r.
00404E60 1C 7A 83 DA 00 CB 95 CC 80 EF 74 F3 7C 00 6B A1 .z........t.|.k.
00404E70 BD 87 00 00 00 FD 1C CC 0D 00 0D 07 48 04 30 12 ............H.0.
00404E80 11 29 87 4F 29 80 CB C6 84 26 8A AB 0B A5 3A 80 .).O)....&....:.
00404E90 68 91 23 24 75 46 F3 12 65 4D 09 5B C8 26 43 00 h.#$uF..eM.[.&C.
00404EA0 04 49 00 8D FF 00 EE C7 DE FF 10 F2 74 DA 73 10 .I..........t.s.
00404EB0 00 00 B8 00 FF 84 4D F1 79 5A 11 1B 80 0B 8D BA ......M.yZ......
00404EC0 3F A8 00 5C A2 DF 80 47 41 DE 00 EF 24 52 00 B0 ?..\...GA...$R..
00404ED0 DB B8 0C 8C 00 FF C2 7C D8 22 00 6D 90 79 EE 5F .......|.".m.y._
00404EE0 F9 FF 00 63 EB 8A E4 E7 76 1C B4 24 6F F2 7C 23 ...c....v..$o.|#
00404EF0 00 08 00 7F 00 46 C5 EE 60 87 CC 42 A7 38 D1 59 .....F..`..B.8.Y
00404F00 FF 00 4C 7A FF 00 58 00 FF FF D2 96 10 9F E0 96 ..Lz..X.........
00404F10 F9 58 00 32 00 2E 21 07 0A 00 DF 58 8F 00 BD 00 .X.2..!....X....
00404F20 E3 BE 53 01 00 B3 69 69 39 AC A4 B1 71 27 4C 75 ..S...ii9...q'Lu
00404F30 0A 00 24 00 F1 6F 00 00 02 E5 28 B8 FF 2B 5A 0C ..$..o....(..+Z.
00404F40 78 9E 00 14 2D 18 90 B1 F6 DB 80 A5 8B 6C F5 2C x...-........l.,
00404F50 CF D1 2D FF 9B 00 EC 10 B7 38 19 8B 11 FF 88 00 ..-......8......
00404F60 0A 97 C6 89 00 00 FF B5 02 E3 E6 22 17 31 00 00 ...........".1..
00404F70 97 FF 84 21 8F 00 00 FF 6C 76 EE 54 6B D6 DE E5 ...!....lv.Tk...
00404F80 3B CE C0 34 B2 D9 19 00 D6 FC 0F 00 00 A0 50 B4 ;..4..........P.
00404F90 83 04 A6 C4 19 00 98 D2 7E 78 B5 00 9D 44 FF 1D ........~x...D..
00404FA0 D8 E2 65 4E 30 00 00 AF 78 31 00 16 4C FF 3C CD ..eN0...x1..L.<.
00404FB0 FE C9 6D 50 DB BD 00 0E 39 D1 0D 3F F2 A9 AE 00 ..mP....9..?....
00404FC0 FE 84 42 72 00 C5 E3 72 00 42 FA 6F ED 57 47 FF ..Br...r.B.o.WG.
00404FD0 12 1D F9 22 0F B9 B6 67 83 81 A7 F0 82 27 84 E0 ..."...g.....'..
00404FE0 00 3B D8 DF 6A B2 53 94 AF 6D 5B 3C 04 00 E4 26 .;..j.S..m[<...&
00404FF0 C9 B7 F0 5A 2E D7 21 58 AF 43 C6 00 55 D2 3B 20 ...Z..!X.C..U.; 
00405000 CF 62 42 5F 0D F9 48 98 0E 00 FF 00 00 1F 01 86 .bB_..H.........
00405010 3A 93 00 F0 1C E1 00 59 2B 4C 00 D4 EF 65 8A 6F :......Y+L...e.o
00405020 DF 11 0C 81 03 78 F6 1A 00 44 51 AE 57 65 94 48 .....x...DQ.We.H
00405030 B6 12 D7 E6 73 45 A1 32 4D 1F 1E A1 65 00 B1 21 ....sE.2M...e..!
00405040 00 50 2A 41 00 0B 73 55 10 4A 00 5E 76 1F B3 5B .P*A..sU.J.^v..[
00405050 46 FD 29 B6 78 0A 21 C4 00 C7 38 70 D3 00 8E 01 F.).x.!...8p....
00405060 00 06 30 24 8E 94 11 D4 C2 71 20 A1 00 A3 18 C4 ..0$.....q .....
00405070 0D E9 08 A5 FF 0E 74 F2 16 00 87 45 00 87 56 96 ......t....E..V.
00405080 9E F4 3F C7 00 C4 C5 4D 84 C1 01 66 11 0C 6B 8A ..?....M...f..k.
00405090 ED 7D D8 D7 16 44 C3 DC D2 2C 24 28 BF FF 87 A8 .}...D...,$(....
004050A0 00 D9 97 2D 5F 00 00 02 30 14 00 9B 6A 30 E6 4D ...-_...0...j0.M
004050B0 00 05 31 19 45 B3 DC A3 FF B9 00 3E 7B 88 B1 0B ..1.E......>{...
004050C0 0E 67 FF 89 00 92 D8 31 94 FF 87 24 19 C7 4E B7 .g.....1...$..N.
004050D0 CC 08 83 08 8E FF D9 16 F9 FF 8D 94 00 1C CF 87 ................
004050E0 41 78 FB 8F ED 68 C2 75 7E D0 16 1C C8 6F 31 16 Ax...h.u~....o1.
004050F0 0E 28 86 A4 14 EE 66 B8 70 54 A8 74 8C B5 B4 87 .(....f.pT.t....
00405100 00 AF 00 BD E1 BC 7D FF 91 4B 00 48 12 F9 00 DB ......}..K.H....
00405110 96 1D 42 46 36 07 ED 40 E1 8D FF 01 D2 E9 D2 00 ..BF6..@........
00405120 84 25 77 CC 34 A0 6C 03 B8 8F 0E 8F 1B FF 00 B6 .%w.4.l.........
00405130 58 FF 88 C1 28 0F 23 B0 EB 8F 00 0E 00 B3 34 8D X...(.#.......4.
00405140 EC E1 8F 10 0C 8B 00 6E 66 C2 9E 00 B8 1B E2 FF .......nf.......
00405150 FF 6B C0 FF E5 4B EC 10 03 47 00 8D BF 02 29 5F .k...K...G....)_
00405160 3B 54 9D 16 6C 28 8F 66 00 10 2A 81 00 00 8C 01 ;T..l(.f..*.....
00405170 71 A6 F5 4E C8 3F 7E 00 98 77 06 10 A2 8F 00 FD q..N.?~..w......
00405180 BF 50 E1 49 BA C2 37 D1 44 F3 2B C2 F4 20 46 00 .P.I..7.D.+.. F.
00405190 6B D4 D1 DB 42 80 33 81 47 D2 0F 26 21 8B 1D 86 k...B.3.G..&!...
004051A0 93 4B 45 29 02 85 2E F2 ED 2E 84 00 76 00 CC 3E .KE)........v..>
004051B0 93 ED 0E CD 00 4B 97 F4 88 BB 00 CE FF 2B 00 F1 .....K.......+..
004051C0 DF 9F 56 F4 92 4D EA 20 00 EA 35 FF 06 00 C2 FF ..V..M. ..5.....
004051D0 B5 D7 4E 03 A0 0B EC F3 00 37 7F 11 F5 18 10 00 ..N......7......
004051E0 41 00 69 5B B4 00 37 7A AC FF 4B 89 DB 91 14 D0 A.i[..7z..K.....
004051F0 9B EC F7 B3 C6 0D 7A 5E D2 9E 00 79 EA 41 07 00 ......z^...y.A..
00405200 AD D5 70 84 D7 6A 96 B8 E5 00 D3 CF 64 02 F2 7D ..p..j......d..}
00405210 8C A6 B1 FF C5 00 2F 58 05 FF FF 0E 23 53 B3 3E ....../X....#S.>
00405220 6E 3A 00 29 02 E5 42 C2 C8 00 0F E3 62 E0 24 36 n:.)..B.....b.$6
00405230 5C 00 00 40 05 2D 36 8F 45 05 FF 4A F0 00 41 C0 \..@.-6.E..J..A.
00405240 0A A0 00 71 00 7D 2B A5 8A F4 0D 8B 05 90 54 C6 ...q.}+.......T.
00405250 5E 94 00 49 ED 86 F1 23 F2 D4 E8 72 25 00 71 50 ^..I...#...r%.qP
00405260 F1 6A 1D 55 00 A7 FA 81 FB 00 40 1E 75 E3 0E 13 .j.U......@.u...
00405270 0B FF 26 4C 66 00 71 9E E8 EF 74 B1 38 69 00 C7 ..&Lf.q...t.8i..
00405280 B9 E8 00 26 71 A4 47 23 42 B8 24 0B F6 5E 46 80 ...&q.G#B.$..^F.
00405290 FD 4A 68 91 00 BF D4 7A CB 8C A5 8C A9 0A 6B D9 .Jh....z......k.
004052A0 8A A0 3E 13 AC 17 D1 B3 F7 54 60 BC 4F F6 5C 88 ..>......T`.O.\.
004052B0 88 06 59 BA 35 49 72 CF F3 00 FF 6E 1C 00 09 50 ..Y.5Ir....n...P
004052C0 7C BC E7 7A 00 A3 08 DF 52 05 00 F8 99 AE B5 06 |..z....R.......
004052D0 09 E7 0E E2 68 5C 8F 00 A1 03 00 D5 00 C7 FE 70 ....h\.........p
004052E0 46 40 CB BE 72 55 A5 BB 56 FA 53 3A F7 2D 2D 87 F@..rU..V.S:.--.
004052F0 73 D1 FF D4 36 15 57 BF 12 B9 00 91 64 D3 0C 76 s...6.W.....d..v
00405300 B4 A9 7C DF 47 85 1A 3A 77 AF CA 6C F4 7D 00 00 ..|.G..:w..l.}..
00405310 AF CC 20 00 39 EF 70 EA 15 99 1F 03 FF 46 BD 00 .. .9.p......F..
00405320 FA 00 3B 01 08 64 F3 00 F0 8B 36 8B EA B2 21 6C ..;..d....6...!l
00405330 00 F8 ED 00 38 04 21 8D 6D 00 C0 B3 00 C0 31 A8 ....8.!.m.....1.
00405340 1F 07 FF F7 D4 00 D7 1D A2 65 26 AC 00 FF 8F 10 .........e&.....
00405350 00 A6 DB F4 81 00 AE 24 00 00 DB 86 1F 79 06 E4 .......$.....y..
00405360 39 00 50 FF 28 19 51 C7 0E 25 BB 08 8C 00 48 D4 9.P.(.Q..%....H.
00405370 23 9A EA 74 C7 11 4C 00 CE 00 00 30 10 00 37 5C #..t..L....0..7\
00405380 8C 67 45 FF 08 00 00 FE 83 BD A3 8A 66 85 37 00 .gE.........f.7.
00405390 B4 89 36 7B 75 FA 41 F9 97 A0 41 D4 49 5B 7B FF ..6{u.A...A.I[{.
004053A0 98 86 7A 00 81 D4 83 00 1A 51 E5 03 31 51 D8 7F ..z......Q..1Q..
004053B0 98 AD FF 9E 4A 6A 23 35 B8 24 3B F3 22 5A 38 17 ....Jj#5.$;."Z8.
004053C0 30 00 F1 01 00 E2 3C 0F 00 00 00 AD FF 61 CB 00 0.....<......a..
004053D0 7F 00 C7 FC 0C C8 BB AC 78 00 EF B0 8F 94 AD 5A ........x......Z
004053E0 17 7E 26 B2 DF 01 AB 00 8A 79 96 2E 56 CE 40 98 .~&......y..V.@.
004053F0 9C F4 00 8F A8 88 13 9B 04 D0 5B E1 27 00 B8 A0 ..........[.'...
00405400 28 3F 8B 00 3B 00 04 FF 81 33 C2 B1 FF 09 49 83 (?..;....3....I.
00405410 82 00 7A AA E8 C3 A1 18 44 A7 9C 7D 1C 72 B5 DD ..z.....D..}.r..
00405420 4A 5D D0 BF 7F 8D EC 02 4F D1 82 6C 59 99 1D 7E J]......O..lY..~
00405430 55 51 4C 9E 7F FB 58 47 1C 90 46 91 32 1C 5E 37 UQL...XG..F.2.^7
00405440 81 15 C8 00 82 63 7A 00 AE 65 0B 06 4A C6 17 9A .....cz..e..J...
00405450 39 66 0D BC 55 00 FF BB 04 C1 A9 81 93 3F 6D 24 9f..U........?m$
00405460 BB 64 31 53 D5 CC 68 C1 86 C6 AF 71 8F D8 03 9C .d1S..h....q....
00405470 1B 4E 32 A8 F4 93 10 78 BD 2C 00 30 D3 B0 00 ED .N2....x.,.0....
00405480 D9 FF CF D2 F9 00 1B 00 41 6A 48 78 FF 21 49 C9 ........AjHx.!I.
00405490 51 28 21 7C 85 6E 1B 00 C9 C3 98 37 C2 42 5E 4E Q(!|.n.....7.B^N
004054A0 FD 00 E2 D0 58 7D E8 06 DF 2A B0 FF 16 00 C9 85 ....X}...*......
004054B0 CF 4C A8 93 66 FF 3F FF 00 E0 BD CA 7A 45 00 F7 .L..f.?.....zE..
004054C0 39 1E B2 82 85 32 89 0B 31 AF D1 C5 86 85 A0 07 9....2..1.......
004054D0 00 CA 51 FF AF 00 00 77 D4 17 18 80 C3 F4 C6 2E ..Q....w........
004054E0 54 73 B5 0C 02 C5 C8 F3 E7 40 B0 00 36 2E CA B9 Ts.......@..6...
004054F0 00 00 1C 12 00 1A B3 10 7B 4B 84 10 3F 8F 01 E1 ........{K..?...
00405500 FF 92 00 C7 88 ED A9 00 56 45 06 05 86 D7 22 97 ........VE....".
00405510 85 17 4F C9 0E C4 47 00 B0 0A BF 8E 5D EF 00 9F ..O...G.....]...
00405520 33 00 9A 37 E3 89 EB 23 21 B8 A3 43 0F 0C 7C 00 3..7...#!..C..|.
00405530 F1 2F 7E C8 04 C9 B4 26 6B BF 7D FD 57 00 1A 44 ./~....&k.}.W..D
00405540 FF 7F 56 00 6F C8 FF 25 82 EF 5E A1 E0 D9 21 00 ..V.o..%..^...!.
00405550 5F D6 0C F9 DB 1A FF 16 2E BD 41 E6 31 09 00 0F _.........A.1...
00405560 FF 36 5B EF 79 B3 22 13 FF 00 22 FF B8 70 31 00 .6[.y."..."..p1.
00405570 74 1A 40 33 FF 27 B7 3C F1 00 00 89 76 34 D6 C2 t.@3.'.<....v4..
00405580 CF 00 00 84 A2 25 AE 00 EB E9 00 D5 24 59 76 06 .....%......$Yv.
00405590 0B CF FB A3 FF 2E E9 E1 21 AC E4 00 A5 C5 EB 71 ........!......q
004055A0 8E E3 F7 C6 10 00 7B E7 23 61 00 2E 29 B3 B3 71 ......{.#a..)..q
004055B0 88 5E 0D 2C 16 3D F8 00 07 20 B8 74 00 82 7F 08 .^.,.=... .t....
004055C0 00 EB 19 B4 65 2D 1E 00 A2 C8 00 00 EE FF 31 20 ....e-........1 
004055D0 46 6E B6 00 D7 00 58 D8 00 4A 2F 5C FC 56 E0 78 Fn....X..J/\.V.x
004055E0 E6 00 0E 79 0D 4C B5 00 40 A9 1C 95 5F 6E 00 F1 ...y.L..@..._n..
004055F0 C4 34 E0 0D 40 D5 A4 17 5A 0C EF 0D 67 75 36 00 .4..@...Z...gu6.
00405600 F3 5F 4C 60 1C 8D DF 29 61 AC 07 85 31 4C C6 FF ._L`...)a...1L..
00405610 EC 3D 0D A2 E1 7C 15 38 2B 86 10 8D 7C A7 8C A0 .=...|.8+...|...
00405620 C1 1A F6 6C 34 58 01 FF AE 7C D4 E0 D4 CD F0 9D ...l4X...|......
00405630 DC 5A 23 FE 01 7E FF 2B 4A 33 A3 00 F3 CC 78 AA .Z#..~.+J3....x.
00405640 00 16 18 05 3B 68 5A 94 85 10 60 00 2E 7F 04 1C ....;hZ...`.....
00405650 63 0E B8 9E A3 CB C0 6E 8D 00 19 8D 97 25 23 8A c......n.....%#.
00405660 FB 2A 7E 22 09 00 00 DC 00 00 0B 2D 00 FF 00 F3 .*~".......-....
00405670 7C EF A9 73 82 5E E4 87 88 3D 8E 76 F1 00 C4 14 |..s.^...=.v....
00405680 D9 B4 03 00 00 44 E1 FD 38 42 67 E0 1F 00 F4 36 .....D..8Bg....6
00405690 3F 00 48 97 00 CC 23 60 C0 FA E3 00 00 D2 F7 58 ?.H...#`.......X
004056A0 00 00 1E 0B 88 7A B8 B1 79 D1 DB 3A 4E 23 F4 1A .....z..y..:N#..
004056B0 FB 8F 00 5A 4C EF D3 0C B7 8D 90 89 3D 0A 7E 6F ...ZL.......=.~o
004056C0 CD 5D 8D 00 4C BE 22 76 B7 1F FF 14 C8 10 4E 2C .]..L."v......N,
004056D0 43 C2 5F 16 77 57 1C 00 E4 EF 57 FF FF 39 05 F5 C._.wW....W..9..
004056E0 9C 00 AC 14 E6 AD 00 99 15 9F 00 83 88 50 8F BC .............P..
004056F0 28 09 72 6F 85 CD CF E7 00 D9 9F D3 63 00 F3 A8 (.ro........c...
00405700 00 47 7B 5E 18 44 B5 08 E4 00 DC 59 96 39 00 00 .G{^.D.....Y.9..
00405710 58 31 90 32 0B FE C4 00 20 3F FD 90 0A 05 30 A3 X1.2.... ?....0.
00405720 00 00 00 95 B6 80 93 85 7E 5B 37 1C 70 B1 38 A4 ........~[7.p.8.
00405730 32 C6 E3 D8 1C 3D E5 CC 69 A5 00 00 86 FF 8A 67 2....=..i......g
00405740 99 C3 00 00 FB D1 89 00 00 73 AA C3 49 32 14 65 .........s..I2.e
00405750 CB 4E 69 00 64 C9 40 C3 E2 61 00 A0 0E A0 D3 C5 .Ni.d.@..a......
00405760 D1 80 48 0D C3 FF FF 0A 60 84 10 00 00 37 DD A5 ..H.....`....7..
00405770 3E 07 00 8D E8 48 01 20 4E DD 04 BB FF 8E 56 04 >....H. N.....V.
00405780 D1 55 F7 30 2E 94 00 23 B7 E4 73 25 CA 00 94 E3 .U.0...#..s%....
00405790 1B 77 0A DD E0 AA 4A 00 0B 00 5E 5D 03 5A 67 EF .w....J...^].Zg.
004057A0 C3 FA 33 13 FF BD 42 6A 58 CC 9D 00 26 91 49 16 ..3...BjX...&.I.
004057B0 FF 43 D2 1F 2F 03 89 09 82 56 BD FF BF 75 15 87 .C../....V...u..
004057C0 DF 4C B0 98 08 6A A4 C1 E6 A1 B0 A0 48 49 20 E5 .L...j......HI .
004057D0 78 CB BD 38 0A A3 8A FC F9 3A 97 A5 73 FF D0 68 x..8.....:..s..h
004057E0 09 7F C6 73 8F F1 00 FF 00 C1 56 F7 0B 69 E9 12 ...s......V..i..
004057F0 59 00 E3 0A 4E 70 E8 D9 68 C0 38 9B 3F D5 82 D4 Y...Np..h.8.?...
00405800 E3 EA D4 E4 AC E4 A3 19 74 06 C3 C7 64 64 81 A0 ........t...dd..
00405810 C3 25 3E 8A 00 00 23 FF A9 6E 7F 00 B1 52 C4 09 .%>...#..n...R..
00405820 C1 3C B5 B0 CC 0F 78 BF EF 00 48 96 6A B8 5A 34 .<....x...H.j.Z4
00405830 1F 12 BE C0 F8 B4 3F 00 00 62 FE 42 FF 20 55 7C ......?..b.B. U|
00405840 F8 84 89 87 5E E4 85 19 AB 18 FD BA 00 B3 AB F1 ....^...........
00405850 C4 C3 3C 50 00 41 51 69 00 72 F7 F6 FF 0A 8F 78 ..<P.AQi.r.....x
00405860 A5 00 B6 B0 1E 55 D5 82 00 4C 04 9F 08 90 79 9F .....U...L....y.
00405870 DE A5 17 00 F9 FF 00 C2 00 A4 79 19 F6 A4 FC 00 ..........y.....
00405880 63 F4 00 00 00 30 30 90 F6 F0 B2 E3 3A ED C7 BA c....00.....:...
00405890 E0 06 00 5B 00 44 E1 22 06 03 D2 60 E6 AA B8 88 ...[.D."...`....
004058A0 00 5E E0 6E B1 3E AC 00 A2 C8 00 18 14 EE 21 10 .^.n.>........!.
004058B0 47 76 FF B8 B9 F1 07 1F 7C FD 8B FE 2E 0E 4F 6F Gv......|.....Oo
004058C0 F6 13 61 7B 80 BF FF 8B 98 AC 25 3B 02 3A 28 FF ..a{......%;.:(.
004058D0 00 DF 5B E4 8C 81 02 7F BA 44 00 00 00 00 1D E0 ..[......D......
004058E0 BD 70 64 B4 00 23 06 2E C7 BF 40 00 3D 90 D2 BF .pd..#....@.=...
004058F0 16 8C 84 00 49 DF 82 92 D4 AF 00 11 21 99 DD 00 ....I.......!...
00405900 40 01 97 CC FF 74 53 98 83 DD C0 00 00 49 EE A1 @....tS......I..
00405910 1F 40 6C EF 06 00 8F 6F 08 10 02 00 00 E2 F6 C4 .@l....o........
00405920 4D 54 D0 30 EB 5C CF 00 D1 7C E2 74 B9 D8 DD C1 MT.0.\...|.t....
00405930 00 FE D6 46 58 38 80 54 39 94 E8 D1 E1 00 E0 97 ...FX8.T9.......
00405940 34 05 20 B3 90 D0 A3 00 00 50 43 A7 7C E8 9D 84 4. ......PC.|...
00405950 FF B3 60 38 70 22 F8 78 F2 00 67 00 1A A2 00 2F ..`8p".x..g..../
00405960 00 DC 66 A7 EE CA 48 E6 9C CF 12 FF 0A C8 95 00 ..f...H.........
00405970 05 00 2D 46 29 2A CC 00 1C E6 66 AD CF FF 78 00 ..-F)*....f...x.
00405980 83 8F 7B FF 66 40 8D 68 61 9C 1C 84 77 14 6E 7D ..{.f@.ha...w.n}
00405990 EC D9 CC F8 46 33 0A 23 00 6E 43 3E 38 79 77 FF ....F3.#.nC>8yw.
004059A0 FF 9F FF 26 D6 35 99 34 53 31 FD 69 9A 67 20 06 ...&.5.4S1.i.g .
004059B0 A7 29 2A C2 1D 73 DB 5E 9B 85 F7 07 93 D7 A2 71 .)*..s.^.......q
004059C0 47 D8 6C C7 03 8B 68 00 58 5C E7 EF 62 63 00 58 G.l...h.X\..bc.X
004059D0 EA 5E C2 FF 56 A7 A6 00 00 30 BF 24 1A 4E 06 24 .^..V....0.$.N.$
004059E0 6A 60 50 FC 89 C9 00 56 BA E2 61 00 00 E2 98 00 j`P....V..a.....
004059F0 1B 00 00 31 20 7F 00 B8 59 00 19 12 DC 64 63 BC ...1 ...Y....dc.
00405A00 63 AE BD 13 DF 9A 94 FF 86 89 A1 CB 45 95 BD FF c...........E...
00405A10 77 71 E1 59 AF 63 00 BD 08 27 02 7C B8 36 9E 00 wq.Y.c...'.|.6..
00405A20 00 21 B5 D2 A4 90 34 50 BA 99 8B F2 5E A8 FF 00 .!....4P....^...
00405A30 8F 91 70 DA 0A 4E 93 29 2F 38 E8 35 7A BD F0 3D ..p..N.)/8.5z..=
00405A40 9B A8 5A FA 00 9C 82 DE 1B 75 00 C1 DF 14 B8 DB ..Z......u......
00405A50 80 8E 58 4D 14 CF AC 63 37 C8 07 18 84 CD 72 DF ..XM...c7.....r.
00405A60 58 CE 20 FA 00 B6 DC 98 FF AC 50 00 DB 00 62 82 X. .......P...b.
00405A70 3C 11 B5 61 93 90 F3 00 66 00 69 A7 C6 7B FF 2C <..a....f.i..{.,
00405A80 A1 84 70 04 A2 B3 FE 80 89 C7 BC 15 CA B0 54 3A ..p...........T:
00405A90 BF 53 1E 94 C1 D7 00 00 00 75 3B 36 97 EC 1B A1 .S.......u;6....
00405AA0 BA EF 49 9D 01 18 43 E5 10 FF 6A 80 2A 9F E0 E7 ..I...C...j.*...
00405AB0 9B B3 FF 4F 18 C1 FF 0C E1 94 5F 02 07 69 EE A0 ...O......_..i..
00405AC0 06 0B 6B 66 3E 70 CD D2 CE BE 3C 21 CF 12 A5 8C ..kf>p....<!....
00405AD0 C7 67 6A 23 AB F6 C4 8C 00 E3 00 FF 8D 24 E4 DC .gj#.........$..
00405AE0 28 90 3D 00 00 EC 1F F8 08 E1 9C 00 5E 30 18 17 (.=.........^0..
00405AF0 2A FF 04 BB BD 00 19 76 E2 B5 E4 FF 3F 90 00 7B *......v....?..{
00405B00 8E AB 4F F1 62 36 13 4E D6 80 73 DE 3F D9 AE FF ..O.b6.N..s.?...
00405B10 00 49 F0 BF F6 CE AB FF 00 F3 BD 0E 00 0D 00 00 .I..............
00405B20 16 7A 59 FA 10 E7 D0 1F CD 88 3D 41 83 00 7E 54 .zY.......=A..~T
00405B30 E8 C4 51 3D 15 00 74 C0 4A CF FB A6 72 34 0C 18 ..Q=..t.J...r4..
00405B40 8B FF 3D B1 10 FF B2 F9 00 C4 60 6A 99 00 F4 B1 ..=.......`j....
00405B50 39 00 4E 00 24 10 BE A3 54 00 9E BD 26 DF AF EA 9.N.$...T...&...
00405B60 B5 58 7D 98 B3 72 FE FB 03 69 B9 BA CC 6C 00 79 .X}..r...i...l.y
00405B70 B4 7E 5D C3 04 F1 14 EF E5 F9 D6 7E 83 C5 D7 1D .~]........~....
00405B80 FF A3 E0 A4 5A 00 71 00 83 B9 2E BA FF B3 C3 45 ....Z.q........E
00405B90 E7 5A 00 DC 30 9E DE 00 82 5C 16 28 FE A5 FF BA .Z..0....\.(....
00405BA0 9F CF 9D 86 04 57 8B 59 ED 30 E3 F5 E4 00 36 9A .....W.Y.0....6.
00405BB0 64 B9 02 6D 3C E2 A4 75 51 BB C8 78 00 80 38 0C d..m<..uQ..x..8.
00405BC0 9C ED 04 A8 FF 89 FF 29 31 B7 33 00 41 00 00 4B .......)1.3.A..K
00405BD0 FF F2 6E 4B FF E8 C7 C1 62 00 62 00 2A DA 00 78 ..nK....b.b.*..x
00405BE0 9B 00 41 B4 00 00 F4 39 D1 79 FF C9 9E 7C 4F A6 ..A....9.y...|O.
00405BF0 B1 4E 4D 10 F0 30 00 7E 45 F8 5D 34 00 00 BD 50 .NM..0.~E.]4...P
00405C00 00 E3 00 D9 B7 03 00 59 F9 38 CA CF FF C7 22 06 .......Y.8....".
00405C10 B0 00 73 00 DE 1D 3A FF 87 43 BC CD FF 00 34 00 ..s...:..C....4.
00405C20 2E 13 55 2B 04 7C 97 43 35 05 5C FF E9 39 DC FD ..U+.|.C5.\..9..
00405C30 FB 00 E1 6F 1E 9C 3C 4D 38 00 CA F0 FF 70 07 05 ...o..<M8....p..
00405C40 F3 5F 00 B2 3C 8F 00 CB 00 7E 00 55 00 BF B9 DD ._..<....~.U....
00405C50 F8 00 51 3D FB 80 00 0A E6 57 F9 B4 9D 00 2D 77 ..Q=.....W....-w
00405C60 C3 DE 00 00 69 06 FF 31 4D A8 AC 7B E2 21 6C F0 ....i..1M..{.!l.
00405C70 18 85 BD FD 55 0F FF 7F 9F BB C9 00 0F EF 9D F6 ....U...........
00405C80 FF BF E9 1E 00 00 D8 00 2F 8D 00 C6 0D 33 7D 0F ......../....3}.
00405C90 39 FF 16 00 00 FF FE B9 9E 5C 10 94 C6 37 7E 63 9........\...7~c
00405CA0 9C 00 4D 0E 94 0E 03 DF 86 73 00 EC CC 5A DD 82 ..M......s...Z..
00405CB0 00 05 A7 D4 E9 2D A5 E2 30 00 00 8F B4 CD 2F C4 .....-..0...../.
00405CC0 84 C7 41 00 00 00 8F 19 E8 70 F5 C2 00 18 33 FE ..A......p....3.
00405CD0 07 7F 47 B6 44 5D 66 00 C5 29 98 5F 7D 00 0E 80 ..G.D]f..)._}...
00405CE0 40 82 13 5C FF 32 70 96 BC 36 BB C5 08 00 00 BB @..\.2p..6......
00405CF0 C4 DE 59 30 00 8A 60 B2 D6 91 0A 2F 0B FF 6B 00 ..Y0..`..../..k.
00405D00 D5 07 B6 01 A1 00 13 91 7A 7B F8 1E 77 FF D4 02 ........z{..w...
00405D10 00 87 03 82 98 13 5E 0C 73 3E F5 00 EC 69 C5 FD ......^.s>...i..
00405D20 DA 08 AD CC 00 35 4A 65 AC FF D8 F2 D9 36 00 82 .....5Je.....6..
00405D30 D4 81 03 E8 1B 91 16 80 E3 4B 7E 66 D1 D4 AC CC .........K~f....
00405D40 31 49 AF 00 3E 38 C4 CF 4C 72 B7 FA 95 2E 5A 7C 1I..>8..Lr....Z|
00405D50 79 79 CC 0A 06 98 B2 69 60 25 A3 00 00 64 F8 00 yy.....i`%...d..
00405D60 00 0C CD 19 B6 7F C7 EC C6 A0 27 49 83 17 E6 00 ..........'I....
00405D70 7B FF 5A F2 14 33 F4 00 2E D1 3F A3 48 81 1A FD {.Z..3....?.H...
00405D80 00 D5 D0 91 04 07 7C BB 00 59 00 88 8B 00 A0 00 ......|..Y......
00405D90 7B 20 C6 00 A8 00 3D 60 62 A9 15 B3 00 D5 33 F6 { ....=`b.....3.
00405DA0 C7 81 00 64 6F 7B B7 9E 9E F5 F8 88 C0 C4 57 D9 ...do{........W.
00405DB0 35 6F 6A 40 62 00 79 B6 00 CD 00 A2 C0 D1 21 F4 5oj@b.y.......!.
00405DC0 60 4E 9D CA 2C 20 2B 3C 10 40 16 E0 A3 B0 5B 9B `N.., +<.@....[.
00405DD0 00 92 FF 00 B5 00 7D 5A 48 BE DC 96 A1 A3 40 00 ......}ZH.....@.
00405DE0 97 70 00 FC 36 BF EA 3E A8 13 06 11 11 C9 9E 91 .p..6..>........
00405DF0 8C 85 61 80 D4 2F C2 DF 00 CB 5C A8 D3 A3 00 48 ..a../....\....H
00405E00 71 7A 7F 10 03 9D 98 00 B1 98 28 44 00 EA 14 A0 qz........(D....
00405E10 C0 FF 0D DE 1F 00 18 00 82 22 00 FF 00 00 B7 49 .........".....I
00405E20 AA 3A 21 05 10 D8 FD 99 0A 72 22 5F C3 C3 9A 22 .:!......r"_..."
00405E30 20 0C 88 CE EF 6C F7 EA 00 D1 B0 00 0E F1 FF BC  ....l..........
00405E40 CE 84 8D 1A BE FB 9D FB 31 2A 13 92 A7 57 5E F0 ........1*...W^.
00405E50 4B 37 B9 E6 A0 31 00 91 10 FF 14 41 15 2A D9 2A K7...1.....A.*.*
00405E60 60 FF 04 0C D7 D5 16 98 FF 2C DC 26 00 BA 42 88 `........,.&..B.
00405E70 9E B1 00 00 18 71 C4 00 B1 00 F9 B4 FF 00 CA B6 .....q..........
00405E80 C4 FE EB D9 42 8B 9F E0 59 F7 BF E3 E4 07 49 FD ....B...Y.....I.
00405E90 3E FA 06 00 00 7C 76 00 F0 41 30 89 00 49 FF 00 >....|v..A0..I..
00405EA0 39 40 FF C3 5E 00 41 7D 7A F4 95 03 5C E4 47 42 9@..^.A}z...\.GB
00405EB0 73 C8 B0 1D 00 99 8A C7 00 3E A4 30 EB 26 03 1D s........>.0.&..
00405EC0 B0 60 87 47 3E 89 85 00 FB 47 6A 6F 88 77 C7 29 .`.G>....Gjo.w.)
00405ED0 46 7B 2E D5 00 00 20 C6 4C 73 91 00 00 54 E6 86 F{.... .Ls...T..
00405EE0 00 00 00 9B 00 03 00 70 EF 00 8D 17 17 F9 70 74 .......p......pt
00405EF0 07 68 5C 00 73 72 40 44 C3 70 1D A5 9D 00 00 6D .h\.sr@D.p.....m
00405F00 06 3B F9 D1 20 43 3F 00 2D 13 A0 C3 3B 93 1F 3A .;.. C?.-...;..:
00405F10 2A 00 C7 00 87 EC 00 16 FB D4 2E 08 FF 5E 00 00 *............^..
00405F20 8E 00 14 00 40 D4 86 00 FF C7 00 00 00 00 4C 79 ....@.........Ly
00405F30 FB A6 3E DD 00 8A 00 FF FF 50 FF FF D3 00 85 F1 ..>......P......
00405F40 53 4D FF 00 6B BA 8A A3 0F 85 C3 30 6E A7 38 8B SM..k......0n.8.
00405F50 FF 66 E0 0B F6 65 FF EF 62 35 E1 00 00 FF 02 BB .f...e..b5......
00405F60 4C 8B 30 8F 6C A0 AB 10 A1 00 35 FF 09 1E 00 E2 L.0.l.....5.....
00405F70 1D 69 82 FF 8D 05 A7 F7 8A 21 CF AE 00 BB C7 90 .i.......!......
00405F80 BC 9F D7 80 88 FC B8 18 0A 07 49 1B 04 ED 8F 35 ..........I....5
00405F90 00 1D 7A 00 3C 00 90 40 C0 B4 17 51 C3 19 00 B0 ..z.<..@...Q....
00405FA0 98 00 DF 15 F9 2C 91 BF FF DE 6C 06 72 54 70 3E .....,....l.rTp>
00405FB0 28 00 31 EF 77 09 00 00 1C 86 00 1B C8 00 88 FF (.1.w...........
00405FC0 3E 70 36 EB 56 34 F0 18 13 F4 00 D5 40 04 C9 8D >p6.V4......@...
00405FD0 00 48 44 00 2B FE 48 BC BF 48 06 C0 72 BC 6B 60 .HD.+.H..H..r.k`
00405FE0 1F C2 B9 74 57 00 86 B3 4A CF 42 0C 3A 75 00 00 ...tW...J.B.:u..
00405FF0 E3 CB 0F 92 E7 6C 00 FD CE 5D 35 BE EE 20 00 1F .....l...]5.. ..
00406000 00 EC 00 00 ED 5F AE 9C FF FF FF 23 EA DB 00 A2 ....._.....#....
00406010 00 ED E8 98 14 F9 DF BB DD C4 02 32 58 FF 89 0F ...........2X...
00406020 C7 14 83 8F A7 BD 84 C6 70 94 FF F3 7E 3E 4D D8 ........p...~>M.
00406030 FF 17 00 00 58 E3 93 9F FC E0 FF 57 00 FF 91 5C ....X......W...\
00406040 B4 C8 35 37 D5 1E 94 C8 3E 00 51 3C C4 D5 00 5D ..57....>.Q<...]
00406050 9D 5D F2 00 B8 9F 29 55 BC B0 FE 04 1F A1 00 47 .]....)U.......G
00406060 C7 71 A5 81 8D 18 87 08 F1 B3 D3 59 FF FF 77 67 .q.........Y..wg
00406070 F6 9C F5 00 C2 3C FF ED 22 68 47 48 36 15 64 D3 .....<.."hGH6.d.
00406080 5B A7 F5 F1 72 00 29 7B 22 8A 8C C5 58 00 81 FD [...r.){"...X...
00406090 00 28 33 0F 28 79 1D 4A 89 41 36 0B 00 1B 94 D1 .(3.(y.J.A6.....
004060A0 28 D6 9B 0E 6B 10 92 67 16 14 1E F2 15 72 DF 64 (...k..g.....r.d
004060B0 20 3C 00 01 88 44 DF 00 F3 2C 00 90 50 BA 82 EB  <...D...,..P...
004060C0 78 C2 00 00 F4 ED 51 73 9A 5F F1 40 5B 95 67 00 x.....Qs._.@[.g.
004060D0 0F E0 A9 D2 8D 11 FB A2 00 42 37 10 66 45 99 3F .........B7.fE.?
004060E0 00 93 94 00 2A 51 00 14 8F BE DC 00 00 FF AD B6 ....*Q..........
004060F0 9D D2 E2 CB C4 8B E0 47 CB 85 1A 64 00 90 09 F0 .......G...d....
00406100 6F 96 00 41 58 00 78 CD DD 36 00 00 A3 00 6F 78 o..AX.x..6....ox
00406110 E9 3B 92 61 30 00 89 FF CE 00 4F D5 00 48 00 CE .;.a0.....O..H..
00406120 1C 7F 26 A1 AF C7 DD 3D 19 26 FF 29 46 E4 00 E2 ..&....=.&.)F...
00406130 42 E6 DB 00 EC 18 8F 86 CE 2E D1 D0 A3 FF 00 96 B...............
00406140 8E 8A 95 3B 11 E2 69 83 D4 BD 93 C8 F3 C9 82 44 ...;..i........D
00406150 24 21 00 26 F1 4B 00 30 17 E1 DC 00 E6 C4 53 46 $!.&.K.0......SF
00406160 8C 7B E4 E1 C5 FF BB 46 B3 7B 1D 21 FF B2 7F 04 .{.....F.{.!....
00406170 00 9B C4 12 74 FF D0 D0 B9 2A FE 40 1E 1E FF C4 ....t....*.@....
00406180 A8 00 32 12 1E D0 70 B7 6A 42 2B C2 00 67 FF 19 ..2...p.jB+..g..
00406190 82 1D D2 DE FB 88 8B D4 78 00 84 41 AE 00 00 17 ........x..A....
004061A0 30 41 47 2E FF 00 35 2C 00 00 14 00 AC 88 14 EA 0AG...5,........
004061B0 FF 0D CF E2 80 17 D4 DE FF 76 EE A2 00 F0 61 00 .........v....a.
004061C0 7E F0 1B 10 FB DC F7 00 27 CE E8 8F 5B FF 8C 8D ~.......'...[...
004061D0 54 27 2F 77 62 03 2D 5D 2A F8 13 00 2B E6 71 CD T'/wb.-]*...+.q.
004061E0 C5 81 85 00 F7 82 20 31 0F 11 28 B4 B7 82 53 92 ...... 1..(...S.
004061F0 6E 30 00 A1 BC 24 87 37 26 36 E8 00 82 C1 A3 5E n0...$.7&6.....^
00406200 99 19 E6 A4 AF B3 0C 00 51 83 C2 BB 00 86 69 C3 ........Q.....i.
00406210 B9 3D 33 00 EB 2D 26 00 18 BA 56 B0 4B 1C FF 00 .=3..-&...V.K...
00406220 00 42 F4 FF FD 88 B7 DB 7F F6 60 91 00 15 7C 01 .B........`...|.
00406230 8D 01 82 D7 83 43 0A 30 00 5E 15 3B A6 40 8F 2F .....C.0.^.;.@./
00406240 00 23 3A E0 F4 C4 C9 4F 26 65 2C EE EF A6 D1 30 .#:....O&e,....0
00406250 89 0B 00 E9 60 B2 51 28 93 01 5C 48 07 BC 24 E0 ....`.Q(..\H..$.
00406260 6C 09 B2 F1 10 06 56 00 A9 00 EB 3A 9E 88 F7 00 l.....V....:....
00406270 32 FF FC D0 00 0B DA 00 F7 07 61 A3 95 EF A0 26 2.........a....&
00406280 FF B3 C5 74 D6 52 A0 00 1E 2B 37 0F 58 04 3E C0 ...t.R...+7.X.>.
00406290 7E 46 F5 08 33 34 3A FF C2 00 C0 00 00 00 6A 3B ~F..34:.......j;
004062A0 D3 39 31 8E 07 00 C8 8B 04 20 94 20 9E 68 C0 DB .91...... . .h..
004062B0 BF D2 00 FF B2 FE 8C D3 0B C1 1B FF 20 83 0F AC ............ ...
004062C0 D7 EA FF 9B B7 B4 E0 07 F8 00 6E EC 1A CD 0F D1 ..........n.....
004062D0 95 CC B9 5E 38 9B 00 1B AE FF 8C 0B A2 B8 4A 90 ...^8.........J.
004062E0 62 68 BE C0 1D 00 CB 32 72 F6 86 A5 C8 CD FF 00 bh.....2r.......
004062F0 60 70 00 0B 00 43 FE 00 90 40 3F 35 1C 61 83 00 `p...C...@?5.a..
00406300 A4 E2 68 7D 5F 47 54 00 ED 00 EB 9E 0C EC 41 D5 ..h}_GT.......A.
00406310 01 63 8F 65 0D 00 6A C9 FF D0 D3 08 55 4F 79 A3 .c.e..j.....UOy.
00406320 05 C5 5A DC 00 51 FF 00 1A 5F 7D 00 5F 1A 2C 0F ..Z..Q..._}._.,.
00406330 A5 28 7E 19 08 D0 6B B3 FF 19 F7 89 64 46 00 40 .(~...k.....dF.@
00406340 FB 00 54 89 05 7D B9 A2 A4 C5 68 CD 25 ED 00 FF ..T..}....h.%...
00406350 1F 18 00 84 FF F9 20 A1 02 38 C1 23 CB 00 93 D5 ...... ..8.#....
00406360 37 F0 FF 04 8E 36 F8 00 FF BB D8 00 12 12 68 37 7....6........h7
00406370 06 7D 65 40 20 28 5C 8E CF 96 E5 FF 9E BD 12 BF .}e@ (\.........
00406380 43 20 7D BE AD 47 94 FF C3 CF 65 84 00 57 9D 0F C }..G....e..W..
00406390 01 FB 3A 60 A7 8A 11 22 87 D6 AB 00 30 FF CC 00 ..:`..."....0...
004063A0 91 C5 7F 3C 7B C1 7C E0 CC BF DA 00 9D 30 BC 02 ...<{.|......0..
004063B0 E0 13 C2 A6 3C 00 90 5B EA EF 97 00 00 63 D2 56 ....<..[.....c.V
004063C0 33 23 28 FF 66 A3 D9 05 ED 30 FF BB 95 2A 10 52 3#(.f....0...*.R
004063D0 00 FF DF C2 2A 44 83 36 26 EF E7 00 C5 DF 00 65 ....*D.6&......e
004063E0 72 FE 5C D2 FF 83 00 DC 02 03 33 C8 BF 00 00 03 r.\.......3.....
004063F0 AE 5B C4 61 39 00 D1 D6 AE 71 59 6F DB 04 C2 26 .[.a9....qYo...&
00406400 9B C9 00 62 10 69 85 8B 00 0E 00 0C CA 5E 45 66 ...b.i.......^Ef
00406410 00 1C 2C 5D 00 F7 8F 73 31 A4 A6 F9 27 C2 62 0B ..,]...s1...'.b.
00406420 0F DF 30 88 EB 00 FF 07 58 53 DF A5 82 F3 17 D9 ..0.....XS......
00406430 DF 00 60 03 C0 0A C8 58 67 08 8E 13 4F B3 C8 FD ..`....Xg...O...
00406440 60 42 98 6F 00 80 43 1C 1B 00 95 FF CA 6A CC E3 `B.o..C......j..
00406450 D1 00 FF 01 9E 3A 77 86 52 08 C7 CF B8 DB A0 11 .....:w.R.......
00406460 78 00 A1 00 00 00 1A 41 36 00 87 E4 71 09 02 06 x......A6...q...
00406470 91 29 B3 88 00 31 BF 04 80 10 E6 BD D9 6F CD 46 .)...1.......o.F
00406480 00 3A 85 74 98 00 E2 FF C3 F6 EB 80 22 F0 FF 4C .:.t........"..L
00406490 10 D6 00 00 00 C3 C1 6F 94 FF 3A 23 E7 06 58 00 .......o..:#..X.
004064A0 73 00 F4 25 1B 43 B4 FF 00 00 E9 70 4F 9F 17 7A s..%.C.....pO..z
004064B0 47 ED FF BD 28 4C DF D0 19 BD 94 73 00 3F 82 1D G...(L.....s.?..
004064C0 1C DF A2 0F 39 F3 68 91 F3 FF 10 72 72 09 07 29 ....9.h....rr..)
004064D0 EC DA BA F0 29 FB 3D FC 60 00 15 00 79 40 FF 4B ....).=.`...y@.K
004064E0 03 00 E9 79 C3 46 FF 73 BF 4B AF E7 8B 3F 48 8D ...y.F.s.K...?H.
004064F0 A8 03 E9 8B DD A0 3F F7 00 27 FF A7 13 FB F4 1F ......?..'......
00406500 1F 70 04 44 67 00 15 A6 C9 C0 DD 85 F6 29 F9 06 .p.Dg........)..
00406510 F7 7D 00 A3 E1 00 1F 50 D6 18 20 DE 00 CC FF F9 .}.....P.. .....
00406520 00 CC 00 00 A1 FF FB 2A 00 00 C1 0C FE 3E 88 D1 .......*.....>..
00406530 D0 77 8F 49 11 60 87 F7 0C 6C 93 C1 48 61 86 B2 .w.I.`...l..Ha..
00406540 E4 31 77 00 50 0C 40 00 43 F8 03 FF BB E9 78 D5 .1w.P.@.C.....x.
00406550 7A 00 D4 08 22 13 84 00 C5 02 91 4F 6C 39 78 C2 z..."......Ol9x.
00406560 6B 66 C4 B8 8C 3C 25 FF 0B 5F 07 1B 83 7C 5E BB kf...<%.._...|^.
00406570 C9 1C AC 22 F5 B3 66 FE 36 2D D9 BF 46 21 77 9C ..."..f.6-..F!w.
00406580 73 00 72 3C C3 00 4E 74 40 00 00 2E B7 37 75 92 s.r<..Nt@....7u.
00406590 C0 4D D3 30 FF C9 0E 78 A0 EE 57 AC 00 00 DF AB .M.0...x..W.....
004065A0 88 47 4F 9F 81 34 B0 1C 60 AE 60 11 B2 3A D8 0D .GO..4..`.`..:..
004065B0 D3 44 08 C1 00 F3 87 00 84 A2 A1 44 EF CF 00 74 .D.........D...t
004065C0 8D 8C A8 06 00 D9 2B 4D 7D 49 B4 EA 99 C5 C0 E4 ......+M}I......
004065D0 A4 2A 21 26 BF 0E 97 5D 1A F3 8D 78 B4 1E A4 9F .*!&...]...x....
004065E0 63 5C FF 00 DC 81 78 08 DF 7A EA 8F 00 00 4D 00 c\....x..z....M.
004065F0 E8 BF 4D 96 83 26 DB 00 00 00 00 6A D8 64 24 CC ..M..&.....j.d$.
00406600 00 00 00 00 00 00 00 00 00 00 00 00 00 00 00 00 ................
00406610 00 00 00 00 00 00 00 00 00 00 00 00 00 00 00 00 ................
00406620 00 00 00 00 00 00 00 00 00 00 00 00 00 00 00 00 ................
00406630 00 00 00 00 00 00 00 00 00 00 00 00 00 00 00 00 ................
00406640 00 00 00 00 00 00 00 00 00 00 00 00 00 00 00 00 ................
00406650 00 00 00 00 00 00 00 00 00 00 00 00 00 00 00 00 ................
00406660 00 00 00 00 00 00 00 00 00 00 00 00 00 00 00 00 ................
00406670 00 00 00 00 00 00 00 00 00 00 00 00 00 00 00 00 ................
00406680 00 00 00 00 00 00 00 00 00 00 00 00 00 00 00 00 ................
00406690 00 00 00 00 00 00 00 00 00 00 00 00 00 00 00 00 ................
004066A0 00 00 00 00 00 00 00 00 00 00 00 00 00 00 00 00 ................
004066B0 00 00 00 00 00 00 00 00 00 00 00 00 00 00 00 00 ................
004066C0 00 00 00 00 00 00 00 00 00 00 00 00 00 00 00 00 ................
004066D0 00 00 00 00 00 00 00 00 00 00 00 00 00 00 00 00 ................
004066E0 00 00 00 00 00 00 00 00 00 00 00 00 00 00 00 00 ................
004066F0 00 00 00 00 00 00 00 00 00 00 00 00 00 00 00 00 ................
00406700 00 00 00 00 00 00 00 00 00 00 00 00 00 00 00 00 ................
00406710 00 00 00 00 00 00 00 00 00 00 00 00 00 00 00 00 ................
00406720 00 00 00 00 00 00 00 00 00 00 00 00 00 00 00 00 ................
00406730 00 00 00 00 00 00 00 00 00 00 00 00 00 00 00 00 ................
00406740 00 00 00 00 00 00 00 00 00 00 00 00 00 00 00 00 ................
00406750 00 00 00 00 00 00 00 00 00 00 00 00 00 00 00 00 ................
00406760 00 00 00 00 00 00 00 00 00 00 00 00 00 00 00 00 ................
00406770 00 00 00 00 00 00 00 00 00 00 00 00 00 00 00 00 ................
00406780 00 00 00 00 00 00 00 00 00 00 00 00 00 00 00 00 ................
00406790 00 00 00 00 00 00 00 00 00 00 00 00 00 00 00 00 ................
004067A0 00 00 00 00 00 00 00 00 00 00 00 00 00 00 00 00 ................
004067B0 00 00 00 00 00 00 00 00 00 00 00 00 00 00 00 00 ................
004067C0 00 00 00 00 00 00 00 00 00 00 00 00 00 00 00 00 ................
004067D0 00 00 00 00 00 00 00 00 00 00 00 00 00 00 00 00 ................
004067E0 00 00 00 00 00 00 00 00 00 00 00 00 00 00 00 00 ................
004067F0 00 00 00 00 00 00 00 00 00 00 00 00 00 00 00 00 ................
00406800 00 00 00 00 00 00 00 00 00 00 00 00 00 00 00 00 ................
00406810 00 00 00 00 00 00 00 00 00 00 00 00 00 00 00 00 ................
00406820 00 00 00 00 00 00 00 00 00 00 00 00 00 00 00 00 ................
00406830 00 00 00 00 00 00 00 00 00 00 00 00 00 00 00 00 ................
00406840 00 00 00 00 00 00 00 00 00 00 00 00 00 00 00 00 ................
00406850 00 00 00 00 00 00 00 00 00 00 00 00 00 00 00 00 ................
00406860 00 00 00 00 00 00 00 00 00 00 00 00 00 00 00 00 ................
00406870 00 00 00 00 00 00 00 00 00 00 00 00 00 00 00 00 ................
00406880 00 00 00 00 00 00 00 00 00 00 00 00 00 00 00 00 ................
00406890 00 00 00 00 00 00 00 00 00 00 00 00 00 00 00 00 ................
004068A0 00 00 00 00 00 00 00 00 00 00 00 00 00 00 00 00 ................
004068B0 00 00 00 00 00 00 00 00 00 00 00 00 00 00 00 00 ................
004068C0 00 00 00 00 00 00 00 00 00 00 00 00 00 00 00 00 ................
004068D0 00 00 00 00 00 00 00 00 00 00 00 00 00 00 00 00 ................
004068E0 00 00 00 00 00 00 00 00 00 00 00 00 00 00 00 00 ................
004068F0 00 00 00 00 00 00 00 00 00 00 00 00 00 00 00 00 ................
00406900 00 00 00 00 00 00 00 00 00 00 00 00 00 00 00 00 ................
00406910 00 00 00 00 00 00 00 00 00 00 00 00 00 00 00 00 ................
00406920 00 00 00 00 00 00 00 00 00 00 00 00 00 00 00 00 ................
00406930 00 00 00 00 00 00 00 00 00 00 00 00 00 00 00 00 ................
00406940 00 00 00 00 00 00 00 00 00 00 00 00 00 00 00 00 ................
00406950 00 00 00 00 00 00 00 00 00 00 00 00 00 00 00 00 ................
00406960 00 00 00 00 00 00 00 00 00 00 00 00 00 00 00 00 ................
00406970 00 00 00 00 00 00 00 00 00 00 00 00 00 00 00 00 ................
00406980 00 00 00 00 00 00 00 00 00 00 00 00 00 00 00 00 ................
00406990 00 00 00 00 00 00 00 00 00 00 00 00 00 00 00 00 ................
004069A0 00 00 00 00 00 00 00 00 00 00 00 00 00 00 00 00 ................
004069B0 00 00 00 00 00 00 00 00 00 00 00 00 00 00 00 00 ................
004069C0 00 00 00 00 00 00 00 00 00 00 00 00 00 00 00 00 ................
004069D0 00 00 00 00 00 00 00 00 00 00 00 00 00 00 00 00 ................
004069E0 00 00 00 00 00 00 00 00 00 00 00 00 00 00 00 00 ................
004069F0 00 00 00 00 00 00 00 00 00 00 00 00 00 00 00 00 ................
00406A00 00 00 00 00 00 00 00 00 00 00 00 00 00 00 00 00 ................
00406A10 00 00 00 00 00 00 00 00 00 00 00 00 00 00 00 00 ................
00406A20 00 00 00 00 00 00 00 00 00 00 00 00 00 00 00 00 ................
00406A30 00 00 00 00 00 00 00 00 00 00 00 00 00 00 00 00 ................
00406A40 00 00 00 00 00 00 00 00 00 00 00 00 00 00 00 00 ................
00406A50 00 00 00 00 00 00 00 00 00 00 00 00 00 00 00 00 ................
00406A60 00 00 00 00 00 00 00 00 00 00 00 00 00 00 00 00 ................
00406A70 00 00 00 00 00 00 00 00 00 00 00 00 00 00 00 00 ................
00406A80 00 00 00 00 00 00 00 00 00 00 00 00 00 00 00 00 ................
00406A90 00 00 00 00 00 00 00 00 00 00 00 00 00 00 00 00 ................
00406AA0 00 00 00 00 00 00 00 00 00 00 00 00 00 00 00 00 ................
00406AB0 00 00 00 00 00 00 00 00 00 00 00 00 00 00 00 00 ................
00406AC0 00 00 00 00 00 00 00 00 00 00 00 00 00 00 00 00 ................
00406AD0 00 00 00 00 00 00 00 00 00 00 00 00 00 00 00 00 ................
00406AE0 00 00 00 00 00 00 00 00 00 00 00 00 00 00 00 00 ................
00406AF0 00 00 00 00 00 00 00 00 00 00 00 00 00 00 00 00 ................
00406B00 00 00 00 00 00 00 00 00 00 00 00 00 00 00 00 00 ................
00406B10 00 00 00 00 00 00 00 00 00 00 00 00 00 00 00 00 ................
00406B20 00 00 00 00 00 00 00 00 00 00 00 00 00 00 00 00 ................
00406B30 00 00 00 00 00 00 00 00 00 00 00 00 00 00 00 00 ................
00406B40 00 00 00 00 00 00 00 00 00 00 00 00 00 00 00 00 ................
00406B50 00 00 00 00 00 00 00 00 00 00 00 00 00 00 00 00 ................
00406B60 00 00 00 00 00 00 00 00 00 00 00 00 00 00 00 00 ................
00406B70 00 00 00 00 00 00 00 00 00 00 00 00 00 00 00 00 ................
00406B80 00 00 00 00 00 00 00 00 00 00 00 00 00 00 00 00 ................
00406B90 00 00 00 00 00 00 00 00 00 00 00 00 00 00 00 00 ................
00406BA0 00 00 00 00 00 00 00 00 00 00 00 00 00 00 00 00 ................
00406BB0 00 00 00 00 00 00 00 00 00 00 00 00 00 00 00 00 ................
00406BC0 00 00 00 00 00 00 00 00 00 00 00 00 00 00 00 00 ................
00406BD0 00 00 00 00 00 00 00 00 00 00 00 00 00 00 00 00 ................
00406BE0 00 00 00 00 00 00 00 00 00 00 00 00 00 00 00 00 ................
00406BF0 00 00 00 00 00 00 00 00 00 00 00 00 00 00 00 00 ................
00406C00 00 00 00 00 00 00 00 00 00 00 00 00 00 00 00 00 ................
00406C10 00 00 00 00 00 00 00 00 00 00 00 00 00 00 00 00 ................
00406C20 00 00 00 00 00 00 00 00 00 00 00 00 00 00 00 00 ................
00406C30 00 00 00 00 00 00 00 00 00 00 00 00 00 00 00 00 ................
00406C40 00 00 00 00 00 00 00 00 00 00 00 00 00 00 00 00 ................
00406C50 00 00 00 00 00 00 00 00 00 00 00 00 00 00 00 00 ................
00406C60 00 00 00 00 00 00 00 00 00 00 00 00 00 00 00 00 ................
00406C70 00 00 00 00 00 00 00 00 00 00 00 00 00 00 00 00 ................
00406C80 00 00 00 00 00 00 00 00 00 00 00 00 00 00 00 00 ................
00406C90 00 00 00 00 00 00 00 00 00 00 00 00 00 00 00 00 ................
00406CA0 00 00 00 00 00 00 00 00 00 00 00 00 00 00 00 00 ................
00406CB0 00 00 00 00 00 00 00 00 00 00 00 00 00 00 00 00 ................
00406CC0 00 00 00 00 00 00 00 00 00 00 00 00 00 00 00 00 ................
00406CD0 00 00 00 00 00 00 00 00 00 00 00 00 00 00 00 00 ................
00406CE0 00 00 00 00 00 00 00 00 00 00 00 00 00 00 00 00 ................
00406CF0 00 00 00 00 00 00 00 00 00 00 00 00 00 00 00 00 ................
00406D00 00 00 00 00 00 00 00 00 00 00 00 00 00 00 00 00 ................
00406D10 00 00 00 00 00 00 00 00 00 00 00 00 00 00 00 00 ................
00406D20 00 00 00 00 00 00 00 00 00 00 00 00 00 00 00 00 ................
00406D30 00 00 00 00 00 00 00 00 00 00 00 00 00 00 00 00 ................
00406D40 00 00 00 00 00 00 00 00 00 00 00 00 00 00 00 00 ................
00406D50 00 00 00 00 00 00 00 00 00 00 00 00 00 00 00 00 ................
00406D60 00 00 00 00 00 00 00 00 00 00 00 00 00 00 00 00 ................
00406D70 00 00 00 00 00 00 00 00 00 00 00 00 00 00 00 00 ................
00406D80 00 00 00 00 00 00 00 00 00 00 00 00 00 00 00 00 ................
00406D90 00 00 00 00 00 00 00 00 00 00 00 00 00 00 00 00 ................
00406DA0 00 00 00 00 00 00 00 00 00 00 00 00 00 00 00 00 ................
00406DB0 00 00 00 00 00 00 00 00 00 00 00 00 00 00 00 00 ................
00406DC0 00 00 00 00 00 00 00 00 00 00 00 00 00 00 00 00 ................
00406DD0 00 00 00 00 00 00 00 00 00 00 00 00 00 00 00 00 ................
00406DE0 00 00 00 00 00 00 00 00 00 00 00 00 00 00 00 00 ................
00406DF0 00 00 00 00 00 00 00 00 00 00 00 00 00 00 00 00 ................
00406E00 00 00 00 00 00 00 00 00 00 00 00 00 00 00 00 00 ................
00406E10 00 00 00 00 00 00 00 00 00 00 00 00 00 00 00 00 ................
00406E20 00 00 00 00 00 00 00 00 00 00 00 00 00 00 00 00 ................
00406E30 00 00 00 00 00 00 00 00 00 00 00 00 00 00 00 00 ................
00406E40 00 00 00 00 00 00 00 00 00 00 00 00 00 00 00 00 ................
00406E50 00 00 00 00 00 00 00 00 00 00 00 00 00 00 00 00 ................
00406E60 00 00 00 00 00 00 00 00 00 00 00 00 00 00 00 00 ................
00406E70 00 00 00 00 00 00 00 00 00 00 00 00 00 00 00 00 ................
00406E80 00 00 00 00 00 00 00 00 00 00 00 00 00 00 00 00 ................
00406E90 00 00 00 00 00 00 00 00 00 00 00 00 00 00 00 00 ................
00406EA0 00 00 00 00 00 00 00 00 00 00 00 00 00 00 00 00 ................
00406EB0 00 00 00 00 00 00 00 00 00 00 00 00 00 00 00 00 ................
00406EC0 00 00 00 00 00 00 00 00 00 00 00 00 00 00 00 00 ................
00406ED0 00 00 00 00 00 00 00 00 00 00 00 00 00 00 00 00 ................
00406EE0 00 00 00 00 00 00 00 00 00 00 00 00 00 00 00 00 ................
00406EF0 00 00 00 00 00 00 00 00 00 00 00 00 00 00 00 00 ................
00406F00 00 00 00 00 00 00 00 00 00 00 00 00 00 00 00 00 ................
00406F10 00 00 00 00 00 00 00 00 00 00 00 00 00 00 00 00 ................
00406F20 00 00 00 00 00 00 00 00 00 00 00 00 00 00 00 00 ................
00406F30 00 00 00 00 00 00 00 00 00 00 00 00 00 00 00 00 ................
00406F40 00 00 00 00 00 00 00 00 00 00 00 00 00 00 00 00 ................
00406F50 00 00 00 00 00 00 00 00 00 00 00 00 00 00 00 00 ................
00406F60 00 00 00 00 00 00 00 00 00 00 00 00 00 00 00 00 ................
00406F70 00 00 00 00 00 00 00 00 00 00 00 00 00 00 00 00 ................
00406F80 00 00 00 00 00 00 00 00 00 00 00 00 00 00 00 00 ................
00406F90 00 00 00 00 00 00 00 00 00 00 00 00 00 00 00 00 ................
00406FA0 00 00 00 00 00 00 00 00 00 00 00 00 00 00 00 00 ................
00406FB0 00 00 00 00 00 00 00 00 00 00 00 00 00 00 00 00 ................
00406FC0 00 00 00 00 00 00 00 00 00 00 00 00 00 00 00 00 ................
00406FD0 00 00 00 00 00 00 00 00 00 00 00 00 00 00 00 00 ................
00406FE0 00 00 00 00 00 00 00 00 00 00 00 00 00 00 00 00 ................
00406FF0 00 00 00 00 00 00 00 00 00 00 00 00 00 00 00 00 ................
00407000 00 00 00 00 00 00 00 00 00 00 00 00 00 00 00 00 ................
00407010 00 00 00 00 00 00 00 00 00 00 00 00 00 00 00 00 ................
00407020 00 00 00 00 00 00 00 00 00 00 00 00 00 00 00 00 ................
00407030 00 00 00 00 00 00 00 00 00 00 00 00 00 00 00 00 ................
00407040 00 00 00 00 00 00 00 00 00 00 00 00 00 00 00 00 ................
00407050 00 00 00 00 00 00 00 00 00 00 00 00 00 00 00 00 ................
00407060 00 00 00 00 00 00 00 00 00 00 00 00 00 00 00 00 ................
00407070 00 00 00 00 00 00 00 00 00 00 00 00 00 00 00 00 ................
00407080 00 00 00 00 00 00 00 00 00 00 00 00 00 00 00 00 ................
00407090 00 00 00 00 00 00 00 00 00 00 00 00 00 00 00 00 ................
004070A0 00 00 00 00 00 00 00 00 00 00 00 00 00 00 00 00 ................
004070B0 00 00 00 00 00 00 00 00 00 00 00 00 00 00 00 00 ................
004070C0 00 00 00 00 00 00 00 00 00 00 00 00 00 00 00 00 ................
004070D0 00 00 00 00 00 00 00 00 00 00 00 00 00 00 00 00 ................
004070E0 00 00 00 00 00 00 00 00 00 00 00 00 00 00 00 00 ................
004070F0 00 00 00 00 00 00 00 00 00 00 00 00 00 00 00 00 ................
00407100 00 00 00 00 00 00 00 00 00 00 00 00 00 00 00 00 ................
00407110 00 00 00 00 00 00 00 00 00 00 00 00 00 00 00 00 ................
00407120 00 00 00 00 00 00 00 00 00 00 00 00 00 00 00 00 ................
00407130 00 00 00 00 00 00 00 00 00 00 00 00 00 00 00 00 ................
00407140 00 00 00 00 00 00 00 00 00 00 00 00 00 00 00 00 ................
00407150 00 00 00 00 00 00 00 00 00 00 00 00 00 00 00 00 ................
00407160 00 00 00 00 00 00 00 00 00 00 00 00 00 00 00 00 ................
00407170 00 00 00 00 00 00 00 00 00 00 00 00 00 00 00 00 ................
00407180 00 00 00 00 00 00 00 00 00 00 00 00 00 00 00 00 ................
00407190 00 00 00 00 00 00 00 00 00 00 00 00 00 00 00 00 ................
004071A0 00 00 00 00 00 00 00 00 00 00 00 00 00 00 00 00 ................
004071B0 00 00 00 00 00 00 00 00 00 00 00 00 00 00 00 00 ................
004071C0 00 00 00 00 00 00 00 00 00 00 00 00 00 00 00 00 ................
004071D0 00 00 00 00 00 00 00 00 00 00 00 00 00 00 00 00 ................
004071E0 00 00 00 00 00 00 00 00 00 00 00 00 00 00 00 00 ................
004071F0 00 00 00 00 00 00 00 00 00 00 00 00 00 00 00 00 ................
00407200 00 00 00 00 00 00 00 00 00 00 00 00 00 00 00 00 ................
00407210 00 00 00 00 00 00 00 00 00 00 00 00 00 00 00 00 ................
00407220 00 00 00 00 00 00 00 00 00 00 00 00 00 00 00 00 ................
00407230 00 00 00 00 00 00 00 00 00 00 00 00 00 00 00 00 ................
00407240 00 00 00 00 00 00 00 00 00 00 00 00 00 00 00 00 ................
00407250 00 00 00 00 00 00 00 00 00 00 00 00 00 00 00 00 ................
00407260 00 00 00 00 00 00 00 00 00 00 00 00 00 00 00 00 ................
00407270 00 00 00 00 00 00 00 00 00 00 00 00 00 00 00 00 ................
00407280 00 00 00 00 00 00 00 00 00 00 00 00 00 00 00 00 ................
00407290 00 00 00 00 00 00 00 00 00 00 00 00 00 00 00 00 ................
004072A0 00 00 00 00 00 00 00 00 00 00 00 00 00 00 00 00 ................
004072B0 00 00 00 00 00 00 00 00 00 00 00 00 00 00 00 00 ................
004072C0 00 00 00 00 00 00 00 00 00 00 00 00 00 00 00 00 ................
004072D0 00 00 00 00 00 00 00 00 00 00 00 00 00 00 00 00 ................
004072E0 00 00 00 00 00 00 00 00 00 00 00 00 00 00 00 00 ................
004072F0 00 00 00 00 00 00 00 00 00 00 00 00 00 00 00 00 ................
00407300 00 00 00 00 00 00 00 00 00 00 00 00 00 00 00 00 ................
00407310 00 00 00 00 00 00 00 00 00 00 00 00 00 00 00 00 ................
00407320 00 00 00 00 00 00 00 00 00 00 00 00 00 00 00 00 ................
00407330 00 00 00 00 00 00 00 00 00 00 00 00 00 00 00 00 ................
00407340 00 00 00 00 00 00 00 00 00 00 00 00 00 00 00 00 ................
00407350 00 00 00 00 00 00 00 00 00 00 00 00 00 00 00 00 ................
00407360 00 00 00 00 00 00 00 00 00 00 00 00 00 00 00 00 ................
00407370 00 00 00 00 00 00 00 00 00 00 00 00 00 00 00 00 ................
00407380 00 00 00 00 00 00 00 00 00 00 00 00 00 00 00 00 ................
00407390 00 00 00 00 00 00 00 00 00 00 00 00 00 00 00 00 ................
004073A0 00 00 00 00 00 00 00 00 00 00 00 00 00 00 00 00 ................
004073B0 00 00 00 00 00 00 00 00 00 00 00 00 00 00 00 00 ................
004073C0 00 00 00 00 00 00 00 00 00 00 00 00 00 00 00 00 ................
004073D0 00 00 00 00 00 00 00 00 00 00 00 00 00 00 00 00 ................
004073E0 00 00 00 00 00 00 00 00 00 00 00 00 00 00 00 00 ................
004073F0 00 00 00 00 00 00 00 00 00 00 00 00 00 00 00 00 ................
00407400 00 00 00 00 00 00 00 00 00 00 00 00 00 00 00 00 ................
00407410 00 00 00 00 00 00 00 00 00 00 00 00 00 00 00 00 ................
00407420 00 00 00 00 00 00 00 00 00 00 00 00 00 00 00 00 ................
00407430 00 00 00 00 00 00 00 00 00 00 00 00 00 00 00 00 ................
00407440 00 00 00 00 00 00 00 00 00 00 00 00 00 00 00 00 ................
00407450 00 00 00 00 00 00 00 00 00 00 00 00 00 00 00 00 ................
00407460 00 00 00 00 00 00 00 00 00 00 00 00 00 00 00 00 ................
00407470 00 00 00 00 00 00 00 00 00 00 00 00 00 00 00 00 ................
00407480 00 00 00 00 00 00 00 00 00 00 00 00 00 00 00 00 ................
00407490 00 00 00 00 00 00 00 00 00 00 00 00 00 00 00 00 ................
004074A0 00 00 00 00 00 00 00 00 00 00 00 00 00 00 00 00 ................
004074B0 00 00 00 00 00 00 00 00 00 00 00 00 00 00 00 00 ................
004074C0 00 00 00 00 00 00 00 00 00 00 00 00 00 00 00 00 ................
004074D0 00 00 00 00 00 00 00 00 00 00 00 00 00 00 00 00 ................
004074E0 00 00 00 00 00 00 00 00 00 00 00 00 00 00 00 00 ................
004074F0 00 00 00 00 00 00 00 00 00 00 00 00 00 00 00 00 ................
00407500 00 00 00 00 00 00 00 00 00 00 00 00 00 00 00 00 ................
00407510 00 00 00 00 00 00 00 00 00 00 00 00 00 00 00 00 ................
00407520 00 00 00 00 00 00 00 00 00 00 00 00 00 00 00 00 ................
00407530 00 00 00 00 00 00 00 00 00 00 00 00 00 00 00 00 ................
00407540 00 00 00 00 00 00 00 00 00 00 00 00 00 00 00 00 ................
00407550 00 00 00 00 00 00 00 00 00 00 00 00 00 00 00 00 ................
00407560 00 00 00 00 00 00 00 00 00 00 00 00 00 00 00 00 ................
00407570 00 00 00 00 00 00 00 00 00 00 00 00 00 00 00 00 ................
00407580 00 00 00 00 00 00 00 00 00 00 00 00 00 00 00 00 ................
00407590 00 00 00 00 00 00 00 00 00 00 00 00 00 00 00 00 ................
004075A0 00 00 00 00 00 00 00 00 00 00 00 00 00 00 00 00 ................
004075B0 00 00 00 00 00 00 00 00 00 00 00 00 00 00 00 00 ................
004075C0 00 00 00 00 00 00 00 00 00 00 00 00 00 00 00 00 ................
004075D0 00 00 00 00 00 00 00 00 00 00 00 00 00 00 00 00 ................
004075E0 00 00 00 00 00 00 00 00 00 00 00 00 00 00 00 00 ................
004075F0 00 00 00 00 00 00 00 00 00 00 00 00 00 00 00 00 ................
00407600 00 00 00 00 00 00 00 00 00 00 00 00 00 00 00 00 ................
00407610 00 00 00 00 00 00 00 00 00 00 00 00 00 00 00 00 ................
00407620 00 00 00 00 00 00 00 00 00 00 00 00 00 00 00 00 ................
00407630 00 00 00 00 00 00 00 00 00 00 00 00 00 00 00 00 ................
00407640 00 00 00 00 00 00 00 00 00 00 00 00 00 00 00 00 ................
00407650 00 00 00 00 00 00 00 00 00 00 00 00 00 00 00 00 ................
00407660 00 00 00 00 00 00 00 00 00 00 00 00 00 00 00 00 ................
00407670 00 00 00 00 00 00 00 00 00 00 00 00 00 00 00 00 ................
00407680 00 00 00 00 00 00 00 00 00 00 00 00 00 00 00 00 ................
00407690 00 00 00 00 00 00 00 00 00 00 00 00 00 00 00 00 ................
004076A0 00 00 00 00 00 00 00 00 00 00 00 00 00 00 00 00 ................
004076B0 00 00 00 00 00 00 00 00 00 00 00 00 00 00 00 00 ................
004076C0 00 00 00 00 00 00 00 00 00 00 00 00 00 00 00 00 ................
004076D0 00 00 00 00 00 00 00 00 00 00 00 00 00 00 00 00 ................
004076E0 00 00 00 00 00 00 00 00 00 00 00 00 00 00 00 00 ................
004076F0 00 00 00 00 00 00 00 00 00 00 00 00 00 00 00 00 ................
00407700 00 00 00 00 00 00 00 00 00 00 00 00 00 00 00 00 ................
00407710 00 00 00 00 00 00 00 00 00 00 00 00 00 00 00 00 ................
00407720 00 00 00 00 00 00 00 00 00 00 00 00 00 00 00 00 ................
00407730 00 00 00 00 00 00 00 00 00 00 00 00 00 00 00 00 ................
00407740 00 00 00 00 00 00 00 00 00 00 00 00 00 00 00 00 ................
00407750 00 00 00 00 00 00 00 00 00 00 00 00 00 00 00 00 ................
00407760 00 00 00 00 00 00 00 00 00 00 00 00 00 00 00 00 ................
00407770 00 00 00 00 00 00 00 00 00 00 00 00 00 00 00 00 ................
00407780 00 00 00 00 00 00 00 00 00 00 00 00 00 00 00 00 ................
00407790 00 00 00 00 00 00 00 00 00 00 00 00 00 00 00 00 ................
004077A0 00 00 00 00 00 00 00 00 00 00 00 00 00 00 00 00 ................
004077B0 00 00 00 00 00 00 00 00 00 00 00 00 00 00 00 00 ................
004077C0 00 00 00 00 00 00 00 00 00 00 00 00 00 00 00 00 ................
004077D0 00 00 00 00 00 00 00 00 00 00 00 00 00 00 00 00 ................
004077E0 00 00 00 00 00 00 00 00 00 00 00 00 00 00 00 00 ................
004077F0 00 00 00 00 00 00 00 00 00 00 00 00 00 00 00 00 ................
00407800 00 00 00 00 00 00 00 00 00 00 00 00 00 00 00 00 ................
00407810 00 00 00 00 00 00 00 00 00 00 00 00 00 00 00 00 ................
00407820 00 00 00 00 00 00 00 00 00 00 00 00 00 00 00 00 ................
00407830 00 00 00 00 00 00 00 00 00 00 00 00 00 00 00 00 ................
00407840 00 00 00 00 00 00 00 00 00 00 00 00 00 00 00 00 ................
00407850 00 00 00 00 00 00 00 00 00 00 00 00 00 00 00 00 ................
00407860 00 00 00 00 00 00 00 00 00 00 00 00 00 00 00 00 ................
00407870 00 00 00 00 00 00 00 00 00 00 00 00 00 00 00 00 ................
00407880 00 00 00 00 00 00 00 00 00 00 00 00 00 00 00 00 ................
00407890 00 00 00 00 00 00 00 00 00 00 00 00 00 00 00 00 ................
004078A0 00 00 00 00 00 00 00 00 00 00 00 00 00 00 00 00 ................
004078B0 00 00 00 00 00 00 00 00 00 00 00 00 00 00 00 00 ................
004078C0 00 00 00 00 00 00 00 00 00 00 00 00 00 00 00 00 ................
004078D0 00 00 00 00 00 00 00 00 00 00 00 00 00 00 00 00 ................
004078E0 00 00 00 00 00 00 00 00 00 00 00 00 00 00 00 00 ................
004078F0 00 00 00 00 00 00 00 00 00 00 00 00 00 00 00 00 ................
00407900 00 00 00 00 00 00 00 00 00 00 00 00 00 00 00 00 ................
00407910 00 00 00 00 00 00 00 00 00 00 00 00 00 00 00 00 ................
00407920 00 00 00 00 00 00 00 00 00 00 00 00 00 00 00 00 ................
00407930 00 00 00 00 00 00 00 00 00 00 00 00 00 00 00 00 ................
00407940 00 00 00 00 00 00 00 00 00 00 00 00 00 00 00 00 ................
00407950 00 00 00 00 00 00 00 00 00 00 00 00 00 00 00 00 ................
00407960 00 00 00 00 00 00 00 00 00 00 00 00 00 00 00 00 ................
00407970 00 00 00 00 00 00 00 00 00 00 00 00 00 00 00 00 ................
00407980 00 00 00 00 00 00 00 00 00 00 00 00 00 00 00 00 ................
00407990 00 00 00 00 00 00 00 00 00 00 00 00 00 00 00 00 ................
004079A0 00 00 00 00 00 00 00 00 00 00 00 00 00 00 00 00 ................
004079B0 00 00 00 00 00 00 00 00 00 00 00 00 00 00 00 00 ................
004079C0 00 00 00 00 00 00 00 00 00 00 00 00 00 00 00 00 ................
004079D0 00 00 00 00 00 00 00 00 00 00 00 00 00 00 00 00 ................
004079E0 00 00 00 00 00 00 00 00 00 00 00 00 00 00 00 00 ................
004079F0 00 00 00 00 00 00 00 00 00 00 00 00 00 00 00 00 ................
00407A00 00 00 00 00 00 00 00 00 00 00 00 00 00 00 00 00 ................
00407A10 00 00 00 00 00 00 00 00 00 00 00 00 00 00 00 00 ................
00407A20 00 00 00 00 00 00 00 00 00 00 00 00 00 00 00 00 ................
00407A30 00 00 00 00 00 00 00 00 00 00 00 00 00 00 00 00 ................
00407A40 00 00 00 00 00 00 00 00 00 00 00 00 00 00 00 00 ................
00407A50 00 00 00 00 00 00 00 00 00 00 00 00 00 00 00 00 ................
00407A60 00 00 00 00 00 00 00 00 00 00 00 00 00 00 00 00 ................
00407A70 00 00 00 00 00 00 00 00 00 00 00 00 00 00 00 00 ................
00407A80 00 00 00 00 00 00 00 00 00 00 00 00 00 00 00 00 ................
00407A90 00 00 00 00 00 00 00 00 00 00 00 00 00 00 00 00 ................
00407AA0 00 00 00 00 00 00 00 00 00 00 00 00 00 00 00 00 ................
00407AB0 00 00 00 00 00 00 00 00 00 00 00 00 00 00 00 00 ................
00407AC0 00 00 00 00 00 00 00 00 00 00 00 00 00 00 00 00 ................
00407AD0 00 00 00 00 00 00 00 00 00 00 00 00 00 00 00 00 ................
00407AE0 00 00 00 00 00 00 00 00 00 00 00 00 00 00 00 00 ................
00407AF0 00 00 00 00 00 00 00 00 00 00 00 00 00 00 00 00 ................
00407B00 00 00 00 00 00 00 00 00 00 00 00 00 00 00 00 00 ................
00407B10 00 00 00 00 00 00 00 00 00 00 00 00 00 00 00 00 ................
00407B20 00 00 00 00 00 00 00 00 00 00 00 00 00 00 00 00 ................
00407B30 00 00 00 00 00 00 00 00 00 00 00 00 00 00 00 00 ................
00407B40 00 00 00 00 00 00 00 00 00 00 00 00 00 00 00 00 ................
00407B50 00 00 00 00 00 00 00 00 00 00 00 00 00 00 00 00 ................
00407B60 00 00 00 00 00 00 00 00 00 00 00 00 00 00 00 00 ................
00407B70 00 00 00 00 00 00 00 00 00 00 00 00 00 00 00 00 ................
00407B80 00 00 00 00 00 00 00 00 00 00 00 00 00 00 00 00 ................
00407B90 00 00 00 00 00 00 00 00 00 00 00 00 00 00 00 00 ................
00407BA0 00 00 00 00 00 00 00 00 00 00 00 00 00 00 00 00 ................
00407BB0 00 00 00 00 00 00 00 00 00 00 00 00 00 00 00 00 ................
00407BC0 00 00 00 00 00 00 00 00 00 00 00 00 00 00 00 00 ................
00407BD0 00 00 00 00 00 00 00 00 00 00 00 00 00 00 00 00 ................
00407BE0 00 00 00 00 00 00 00 00 00 00 00 00 00 00 00 00 ................
00407BF0 00 00 00 00 00 00 00 00 00 00 00 00 00 00 00 00 ................
00407C00 00 00 00 00 00 00 00 00 00 00 00 00 00 00 00 00 ................
00407C10 00 00 00 00 00 00 00 00 00 00 00 00 00 00 00 00 ................
00407C20 00 00 00 00 00 00 00 00 00 00 00 00 00 00 00 00 ................
00407C30 00 00 00 00 00 00 00 00 00 00 00 00 00 00 00 00 ................
00407C40 00 00 00 00 00 00 00 00 00 00 00 00 00 00 00 00 ................
00407C50 00 00 00 00 00 00 00 00 00 00 00 00 00 00 00 00 ................
00407C60 00 00 00 00 00 00 00 00 00 00 00 00 00 00 00 00 ................
00407C70 00 00 00 00 00 00 00 00 00 00 00 00 00 00 00 00 ................
00407C80 00 00 00 00 00 00 00 00 00 00 00 00 00 00 00 00 ................
00407C90 00 00 00 00 00 00 00 00 00 00 00 00 00 00 00 00 ................
00407CA0 00 00 00 00 00 00 00 00 00 00 00 00 00 00 00 00 ................
00407CB0 00 00 00 00 00 00 00 00 00 00 00 00 00 00 00 00 ................
00407CC0 00 00 00 00 00 00 00 00 00 00 00 00 00 00 00 00 ................
00407CD0 00 00 00 00 00 00 00 00 00 00 00 00 00 00 00 00 ................
00407CE0 00 00 00 00 00 00 00 00 00 00 00 00 00 00 00 00 ................
00407CF0 00 00 00 00 00 00 00 00 00 00 00 00 00 00 00 00 ................
00407D00 00 00 00 00 00 00 00 00 00 00 00 00 00 00 00 00 ................
00407D10 00 00 00 00 00 00 00 00 00 00 00 00 00 00 00 00 ................
00407D20 00 00 00 00 00 00 00 00 00 00 00 00 00 00 00 00 ................
00407D30 00 00 00 00 00 00 00 00 00 00 00 00 00 00 00 00 ................
00407D40 00 00 00 00 00 00 00 00 00 00 00 00 00 00 00 00 ................
00407D50 00 00 00 00 00 00 00 00 00 00 00 00 00 00 00 00 ................
00407D60 00 00 00 00 00 00 00 00 00 00 00 00 00 00 00 00 ................
00407D70 00 00 00 00 00 00 00 00 00 00 00 00 00 00 00 00 ................
00407D80 00 00 00 00 00 00 00 00 00 00 00 00 00 00 00 00 ................
00407D90 00 00 00 00 00 00 00 00 00 00 00 00 00 00 00 00 ................
00407DA0 00 00 00 00 00 00 00 00 00 00 00 00 00 00 00 00 ................
00407DB0 00 00 00 00 00 00 00 00 00 00 00 00 00 00 00 00 ................
00407DC0 00 00 00 00 00 00 00 00 00 00 00 00 00 00 00 00 ................
00407DD0 00 00 00 00 00 00 00 00 00 00 00 00 00 00 00 00 ................
00407DE0 00 00 00 00 00 00 00 00 00 00 00 00 00 00 00 00 ................
00407DF0 00 00 00 00 00 00 00 00 00 00 00 00 00 00 00 00 ................
00407E00 00 00 00 00 00 00 00 00 00 00 00 00 00 00 00 00 ................
00407E10 00 00 00 00 00 00 00 00 00 00 00 00 00 00 00 00 ................
00407E20 00 00 00 00 00 00 00 00 00 00 00 00 00 00 00 00 ................
00407E30 00 00 00 00 00 00 00 00 00 00 00 00 00 00 00 00 ................
00407E40 00 00 00 00 00 00 00 00 00 00 00 00 00 00 00 00 ................
00407E50 00 00 00 00 00 00 00 00 00 00 00 00 00 00 00 00 ................
00407E60 00 00 00 00 00 00 00 00 00 00 00 00 00 00 00 00 ................
00407E70 00 00 00 00 00 00 00 00 00 00 00 00 00 00 00 00 ................
00407E80 00 00 00 00 00 00 00 00 00 00 00 00 00 00 00 00 ................
00407E90 00 00 00 00 00 00 00 00 00 00 00 00 00 00 00 00 ................
00407EA0 00 00 00 00 00 00 00 00 00 00 00 00 00 00 00 00 ................
00407EB0 00 00 00 00 00 00 00 00 00 00 00 00 00 00 00 00 ................
00407EC0 00 00 00 00 00 00 00 00 00 00 00 00 00 00 00 00 ................
00407ED0 00 00 00 00 00 00 00 00 00 00 00 00 00 00 00 00 ................
00407EE0 00 00 00 00 00 00 00 00 00 00 00 00 00 00 00 00 ................
00407EF0 00 00 00 00 00 00 00 00 00 00 00 00 00 00 00 00 ................
00407F00 00 00 00 00 00 00 00 00 00 00 00 00 00 00 00 00 ................
00407F10 00 00 00 00 00 00 00 00 00 00 00 00 00 00 00 00 ................
00407F20 00 00 00 00 00 00 00 00 00 00 00 00 00 00 00 00 ................
00407F30 00 00 00 00 00 00 00 00 00 00 00 00 00 00 00 00 ................
00407F40 00 00 00 00 00 00 00 00 00 00 00 00 00 00 00 00 ................
00407F50 00 00 00 00 00 00 00 00 00 00 00 00 00 00 00 00 ................
00407F60 00 00 00 00 00 00 00 00 00 00 00 00 00 00 00 00 ................
00407F70 00 00 00 00 00 00 00 00 00 00 00 00 00 00 00 00 ................
00407F80 00 00 00 00 00 00 00 00 00 00 00 00 00 00 00 00 ................
00407F90 00 00 00 00 00 00 00 00 00 00 00 00 00 00 00 00 ................
00407FA0 00 00 00 00 00 00 00 00 00 00 00 00 00 00 00 00 ................
00407FB0 00 00 00 00 00 00 00 00 00 00 00 00 00 00 00 00 ................
00407FC0 00 00 00 00 00 00 00 00 00 00 00 00 00 00 00 00 ................
00407FD0 00 00 00 00 00 00 00 00 00 00 00 00 00 00 00 00 ................
00407FE0 00 00 00 00 00 00 00 00 00 00 00 00 00 00 00 00 ................
00407FF0 00 00 00 00 00 00 00 00 00 00 00 00 00 00 00 00 ................
00408000 00 00 00 00 00 00 00 00 00 00 00 00 00 00 00 00 ................
00408010 00 00 00 00 00 00 00 00 00 00 00 00 00 00 00 00 ................
00408020 00 00 00 00 00 00 00 00 00 00 00 00 00 00 00 00 ................
00408030 00 00 00 00 00 00 00 00 00 00 00 00 00 00 00 00 ................
00408040 00 00 00 00 00 00 00 00 00 00 00 00 00 00 00 00 ................
00408050 00 00 00 00 00 00 00 00 00 00 00 00 00 00 00 00 ................
00408060 00 00 00 00 00 00 00 00 00 00 00 00 00 00 00 00 ................
00408070 00 00 00 00 00 00 00 00 00 00 00 00 00 00 00 00 ................
00408080 00 00 00 00 00 00 00 00 00 00 00 00 00 00 00 00 ................
00408090 00 00 00 00 00 00 00 00 00 00 00 00 00 00 00 00 ................
004080A0 00 00 00 00 00 00 00 00 00 00 00 00 00 00 00 00 ................
004080B0 00 00 00 00 00 00 00 00 00 00 00 00 00 00 00 00 ................
004080C0 00 00 00 00 00 00 00 00 00 00 00 00 00 00 00 00 ................
004080D0 00 00 00 00 00 00 00 00 00 00 00 00 00 00 00 00 ................
004080E0 00 00 00 00 00 00 00 00 00 00 00 00 00 00 00 00 ................
004080F0 00 00 00 00 00 00 00 00 00 00 00 00 00 00 00 00 ................
00408100 00 00 00 00 00 00 00 00 00 00 00 00 00 00 00 00 ................
00408110 00 00 00 00 00 00 00 00 00 00 00 00 00 00 00 00 ................
00408120 00 00 00 00 00 00 00 00 00 00 00 00 00 00 00 00 ................
00408130 00 00 00 00 00 00 00 00 00 00 00 00 00 00 00 00 ................
00408140 00 00 00 00 00 00 00 00 00 00 00 00 00 00 00 00 ................
00408150 00 00 00 00 00 00 00 00 00 00 00 00 00 00 00 00 ................
00408160 00 00 00 00 00 00 00 00 00 00 00 00 00 00 00 00 ................
00408170 00 00 00 00 00 00 00 00 00 00 00 00 00 00 00 00 ................
00408180 00 00 00 00 00 00 00 00 00 00 00 00 00 00 00 00 ................
00408190 00 00 00 00 00 00 00 00 00 00 00 00 00 00 00 00 ................
004081A0 00 00 00 00 00 00 00 00 00 00 00 00 00 00 00 00 ................
004081B0 00 00 00 00 00 00 00 00 00 00 00 00 00 00 00 00 ................
004081C0 00 00 00 00 00 00 00 00 00 00 00 00 00 00 00 00 ................
004081D0 00 00 00 00 00 00 00 00 00 00 00 00 00 00 00 00 ................
004081E0 00 00 00 00 00 00 00 00 00 00 00 00 00 00 00 00 ................
004081F0 00 00 00 00 00 00 00 00 00 00 00 00 00 00 00 00 ................
00408200 00 00 00 00 00 00 00 00 00 00 00 00 00 00 00 00 ................
00408210 00 00 00 00 00 00 00 00 00 00 00 00 00 00 00 00 ................
00408220 00 00 00 00 00 00 00 00 00 00 00 00 00 00 00 00 ................
00408230 00 00 00 00 00 00 00 00 00 00 00 00 00 00 00 00 ................
00408240 00 00 00 00 00 00 00 00 00 00 00 00 00 00 00 00 ................
00408250 00 00 00 00 00 00 00 00 00 00 00 00 00 00 00 00 ................
00408260 00 00 00 00 00 00 00 00 00 00 00 00 00 00 00 00 ................
00408270 00 00 00 00 00 00 00 00 00 00 00 00 00 00 00 00 ................
00408280 00 00 00 00 00 00 00 00 00 00 00 00 00 00 00 00 ................
00408290 00 00 00 00 00 00 00 00 00 00 00 00 00 00 00 00 ................
004082A0 00 00 00 00 00 00 00 00 00 00 00 00 00 00 00 00 ................
004082B0 00 00 00 00 00 00 00 00 00 00 00 00 00 00 00 00 ................
004082C0 00 00 00 00 00 00 00 00 00 00 00 00 00 00 00 00 ................
004082D0 00 00 00 00 00 00 00 00 00 00 00 00 00 00 00 00 ................
004082E0 00 00 00 00 00 00 00 00 00 00 00 00 00 00 00 00 ................
004082F0 00 00 00 00 00 00 00 00 00 00 00 00 00 00 00 00 ................
00408300 00 00 00 00 00 00 00 00 00 00 00 00 00 00 00 00 ................
00408310 00 00 00 00 00 00 00 00 00 00 00 00 00 00 00 00 ................
00408320 00 00 00 00 00 00 00 00 00 00 00 00 00 00 00 00 ................
00408330 00 00 00 00 00 00 00 00 00 00 00 00 00 00 00 00 ................
00408340 00 00 00 00 00 00 00 00 00 00 00 00 00 00 00 00 ................
00408350 00 00 00 00 00 00 00 00 00 00 00 00 00 00 00 00 ................
00408360 00 00 00 00 00 00 00 00 00 00 00 00 00 00 00 00 ................
00408370 00 00 00 00 00 00 00 00 00 00 00 00 00 00 00 00 ................
00408380 00 00 00 00 00 00 00 00 00 00 00 00 00 00 00 00 ................
00408390 00 00 00 00 00 00 00 00 00 00 00 00 00 00 00 00 ................
004083A0 00 00 00 00 00 00 00 00 00 00 00 00 00 00 00 00 ................
004083B0 00 00 00 00 00 00 00 00 00 00 00 00 00 00 00 00 ................
004083C0 00 00 00 00 00 00 00 00 00 00 00 00 00 00 00 00 ................
004083D0 00 00 00 00 00 00 00 00 00 00 00 00 00 00 00 00 ................
004083E0 00 00 00 00 00 00 00 00 00 00 00 00 00 00 00 00 ................
004083F0 00 00 00 00 00 00 00 00 00 00 00 00 00 00 00 00 ................
00408400 00 00 00 00 00 00 00 00 00 00 00 00 00 00 00 00 ................
00408410 00 00 00 00 00 00 00 00 00 00 00 00 00 00 00 00 ................
00408420 00 00 00 00 00 00 00 00 00 00 00 00 00 00 00 00 ................
00408430 00 00 00 00 00 00 00 00 00 00 00 00 00 00 00 00 ................
00408440 00 00 00 00 00 00 00 00 00 00 00 00 00 00 00 00 ................
00408450 00 00 00 00 00 00 00 00 00 00 00 00 00 00 00 00 ................
00408460 00 00 00 00 00 00 00 00 00 00 00 00 00 00 00 00 ................
00408470 00 00 00 00 00 00 00 00 00 00 00 00 00 00 00 00 ................
00408480 00 00 00 00 00 00 00 00 00 00 00 00 00 00 00 00 ................
00408490 00 00 00 00 00 00 00 00 00 00 00 00 00 00 00 00 ................
004084A0 00 00 00 00 00 00 00 00 00 00 00 00 00 00 00 00 ................
004084B0 00 00 00 00 00 00 00 00 00 00 00 00 00 00 00 00 ................
004084C0 00 00 00 00 00 00 00 00 00 00 00 00 00 00 00 00 ................
004084D0 00 00 00 00 00 00 00 00 00 00 00 00 00 00 00 00 ................
004084E0 00 00 00 00 00 00 00 00 00 00 00 00 00 00 00 00 ................
004084F0 00 00 00 00 00 00 00 00 00 00 00 00 00 00 00 00 ................
00408500 00 00 00 00 00 00 00 00 00 00 00 00 00 00 00 00 ................
00408510 00 00 00 00 00 00 00 00 00 00 00 00 00 00 00 00 ................
00408520 00 00 00 00 00 00 00 00 00 00 00 00 00 00 00 00 ................
00408530 00 00 00 00 00 00 00 00 00 00 00 00 00 00 00 00 ................
00408540 00 00 00 00 00 00 00 00 00 00 00 00 00 00 00 00 ................
00408550 00 00 00 00 00 00 00 00 00 00 00 00 00 00 00 00 ................
00408560 00 00 00 00 00 00 00 00 00 00 00 00 00 00 00 00 ................
00408570 00 00 00 00 00 00 00 00 00 00 00 00 00 00 00 00 ................
00408580 00 00 00 00 00 00 00 00 00 00 00 00 00 00 00 00 ................
00408590 00 00 00 00 00 00 00 00 00 00 00 00 00 00 00 00 ................
004085A0 00 00 00 00 00 00 00 00 00 00 00 00 00 00 00 00 ................
004085B0 00 00 00 00 00 00 00 00 00 00 00 00 00 00 00 00 ................
004085C0 00 00 00 00 00 00 00 00 00 00 00 00 00 00 00 00 ................
004085D0 00 00 00 00 00 00 00 00 00 00 00 00 00 00 00 00 ................
004085E0 00 00 00 00 00 00 00 00 00 00 00 00 00 00 00 00 ................
004085F0 00 00 00 00 00 00 00 00 00 00 00 00 00 00 00 00 ................
00408600 00 00 00 00 00 00 00 00 00 00 00 00 00 00 00 00 ................
00408610 00 00 00 00 00 00 00 00 00 00 00 00 00 00 00 00 ................
00408620 00 00 00 00 00 00 00 00 00 00 00 00 00 00 00 00 ................
00408630 00 00 00 00 00 00 00 00 00 00 00 00 00 00 00 00 ................
00408640 00 00 00 00 00 00 00 00 00 00 00 00 00 00 00 00 ................
00408650 00 00 00 00 00 00 00 00 00 00 00 00 00 00 00 00 ................
00408660 00 00 00 00 00 00 00 00 00 00 00 00 00 00 00 00 ................
00408670 00 00 00 00 00 00 00 00 00 00 00 00 00 00 00 00 ................
00408680 00 00 00 00 00 00 00 00 00 00 00 00 00 00 00 00 ................
00408690 00 00 00 00 00 00 00 00 00 00 00 00 00 00 00 00 ................
004086A0 00 00 00 00 00 00 00 00 00 00 00 00 00 00 00 00 ................
004086B0 00 00 00 00 00 00 00 00 00 00 00 00 00 00 00 00 ................
004086C0 00 00 00 00 00 00 00 00 00 00 00 00 00 00 00 00 ................
004086D0 00 00 00 00 00 00 00 00 00 00 00 00 00 00 00 00 ................
004086E0 00 00 00 00 00 00 00 00 00 00 00 00 00 00 00 00 ................
004086F0 00 00 00 00 00 00 00 00 00 00 00 00 00 00 00 00 ................
00408700 00 00 00 00 00 00 00 00 00 00 00 00 00 00 00 00 ................
00408710 00 00 00 00 00 00 00 00 00 00 00 00 00 00 00 00 ................
00408720 00 00 00 00 00 00 00 00 00 00 00 00 00 00 00 00 ................
00408730 00 00 00 00 00 00 00 00 00 00 00 00 00 00 00 00 ................
00408740 00 00 00 00 00 00 00 00 00 00 00 00 00 00 00 00 ................
00408750 00 00 00 00 00 00 00 00 00 00 00 00 00 00 00 00 ................
00408760 00 00 00 00 00 00 00 00 00 00 00 00 00 00 00 00 ................
00408770 00 00 00 00 00 00 00 00 00 00 00 00 00 00 00 00 ................
00408780 00 00 00 00 00 00 00 00 00 00 00 00 00 00 00 00 ................
00408790 00 00 00 00 00 00 00 00 00 00 00 00 00 00 00 00 ................
004087A0 00 00 00 00 00 00 00 00 00 00 00 00 00 00 00 00 ................
004087B0 00 00 00 00 00 00 00 00 00 00 00 00 00 00 00 00 ................
004087C0 00 00 00 00 00 00 00 00 00 00 00 00 00 00 00 00 ................
004087D0 00 00 00 00 00 00 00 00 00 00 00 00 00 00 00 00 ................
004087E0 00 00 00 00 00 00 00 00 00 00 00 00 00 00 00 00 ................
004087F0 00 00 00 00 00 00 00 00 00 00 00 00 00 00 00 00 ................
00408800 00 00 00 00 00 00 00 00 00 00 00 00 00 00 00 00 ................
00408810 00 00 00 00 00 00 00 00 00 00 00 00 00 00 00 00 ................
00408820 00 00 00 00 00 00 00 00 00 00 00 00 00 00 00 00 ................
00408830 00 00 00 00 00 00 00 00 00 00 00 00 00 00 00 00 ................
00408840 00 00 00 00 00 00 00 00 00 00 00 00 00 00 00 00 ................
00408850 00 00 00 00 00 00 00 00 00 00 00 00 00 00 00 00 ................
00408860 00 00 00 00 00 00 00 00 00 00 00 00 00 00 00 00 ................
00408870 00 00 00 00 00 00 00 00 00 00 00 00 00 00 00 00 ................
00408880 00 00 00 00 00 00 00 00 00 00 00 00 00 00 00 00 ................
00408890 00 00 00 00 00 00 00 00 00 00 00 00 00 00 00 00 ................
004088A0 00 00 00 00 00 00 00 00 00 00 00 00 00 00 00 00 ................
004088B0 00 00 00 00 00 00 00 00 00 00 00 00 00 00 00 00 ................
004088C0 00 00 00 00 00 00 00 00 00 00 00 00 00 00 00 00 ................
004088D0 00 00 00 00 00 00 00 00 00 00 00 00 00 00 00 00 ................
004088E0 00 00 00 00 00 00 00 00 00 00 00 00 00 00 00 00 ................
004088F0 00 00 00 00 00 00 00 00 00 00 00 00 00 00 00 00 ................
00408900 00 00 00 00 00 00 00 00 00 00 00 00 00 00 00 00 ................
00408910 00 00 00 00 00 00 00 00 00 00 00 00 00 00 00 00 ................
00408920 00 00 00 00 00 00 00 00 00 00 00 00 00 00 00 00 ................
00408930 00 00 00 00 00 00 00 00 00 00 00 00 00 00 00 00 ................
00408940 00 00 00 00 00 00 00 00 00 00 00 00 00 00 00 00 ................
00408950 00 00 00 00 00 00 00 00 00 00 00 00 00 00 00 00 ................
00408960 00 00 00 00 00 00 00 00 00 00 00 00 00 00 00 00 ................
00408970 00 00 00 00 00 00 00 00 00 00 00 00 00 00 00 00 ................
00408980 00 00 00 00 00 00 00 00 00 00 00 00 00 00 00 00 ................
00408990 00 00 00 00 00 00 00 00 00 00 00 00 00 00 00 00 ................
004089A0 00 00 00 00 00 00 00 00 00 00 00 00 00 00 00 00 ................
004089B0 00 00 00 00 00 00 00 00 00 00 00 00 00 00 00 00 ................
004089C0 00 00 00 00 00 00 00 00 00 00 00 00 00 00 00 00 ................
004089D0 00 00 00 00 00 00 00 00 00 00 00 00 00 00 00 00 ................
004089E0 00 00 00 00 00 00 00 00 00 00 00 00 00 00 00 00 ................
004089F0 00 00 00 00 00 00 00 00 00 00 00 00 00 00 00 00 ................
00408A00 00 00 00 00 00 00 00 00 00 00 00 00 00 00 00 00 ................
00408A10 00 00 00 00 00 00 00 00 00 00 00 00 00 00 00 00 ................
00408A20 00 00 00 00 00 00 00 00 00 00 00 00 00 00 00 00 ................
00408A30 00 00 00 00 00 00 00 00 00 00 00 00 00 00 00 00 ................
00408A40 00 00 00 00 00 00 00 00 00 00 00 00 00 00 00 00 ................
00408A50 00 00 00 00 00 00 00 00 00 00 00 00 00 00 00 00 ................
00408A60 00 00 00 00 00 00 00 00 00 00 00 00 00 00 00 00 ................
00408A70 00 00 00 00 00 00 00 00 00 00 00 00 00 00 00 00 ................
00408A80 00 00 00 00 00 00 00 00 00 00 00 00 00 00 00 00 ................
00408A90 00 00 00 00 00 00 00 00 00 00 00 00 00 00 00 00 ................
00408AA0 00 00 00 00 00 00 00 00 00 00 00 00 00 00 00 00 ................
00408AB0 00 00 00 00 00 00 00 00 00 00 00 00 00 00 00 00 ................
00408AC0 00 00 00 00 00 00 00 00 00 00 00 00 00 00 00 00 ................
00408AD0 00 00 00 00 00 00 00 00 00 00 00 00 00 00 00 00 ................
00408AE0 00 00 00 00 00 00 00 00 00 00 00 00 00 00 00 00 ................
00408AF0 00 00 00 00 00 00 00 00 00 00 00 00 00 00 00 00 ................
00408B00 00 00 00 00 00 00 00 00 00 00 00 00 00 00 00 00 ................
00408B10 00 00 00 00 00 00 00 00 00 00 00 00 00 00 00 00 ................
00408B20 00 00 00 00 00 00 00 00 00 00 00 00 00 00 00 00 ................
00408B30 00 00 00 00 00 00 00 00 00 00 00 00 00 00 00 00 ................
00408B40 00 00 00 00 00 00 00 00 00 00 00 00 00 00 00 00 ................
00408B50 00 00 00 00 00 00 00 00 00 00 00 00 00 00 00 00 ................
00408B60 00 00 00 00 00 00 00 00 00 00 00 00 00 00 00 00 ................
00408B70 00 00 00 00 00 00 00 00 00 00 00 00 00 00 00 00 ................
00408B80 00 00 00 00 00 00 00 00 00 00 00 00 00 00 00 00 ................
00408B90 00 00 00 00 00 00 00 00 00 00 00 00 00 00 00 00 ................
00408BA0 00 00 00 00 00 00 00 00 00 00 00 00 00 00 00 00 ................
00408BB0 00 00 00 00 00 00 00 00 00 00 00 00 00 00 00 00 ................
00408BC0 00 00 00 00 00 00 00 00 00 00 00 00 00 00 00 00 ................
00408BD0 00 00 00 00 00 00 00 00 00 00 00 00 00 00 00 00 ................
00408BE0 00 00 00 00 00 00 00 00 00 00 00 00 00 00 00 00 ................
00408BF0 00 00 00 00 00 00 00 00 00 00 00 00 00 00 00 00 ................
00408C00 00 00 00 00 00 00 00 00 00 00 00 00 00 00 00 00 ................
00408C10 00 00 00 00 00 00 00 00 00 00 00 00 00 00 00 00 ................
00408C20 00 00 00 00 00 00 00 00 00 00 00 00 00 00 00 00 ................
00408C30 00 00 00 00 00 00 00 00 00 00 00 00 00 00 00 00 ................
00408C40 00 00 00 00 00 00 00 00 00 00 00 00 00 00 00 00 ................
00408C50 00 00 00 00 00 00 00 00 00 00 00 00 00 00 00 00 ................
00408C60 00 00 00 00 00 00 00 00 00 00 00 00 00 00 00 00 ................
00408C70 00 00 00 00 00 00 00 00 00 00 00 00 00 00 00 00 ................
00408C80 00 00 00 00 00 00 00 00 00 00 00 00 00 00 00 00 ................
00408C90 00 00 00 00 00 00 00 00 00 00 00 00 00 00 00 00 ................
00408CA0 00 00 00 00 00 00 00 00 00 00 00 00 00 00 00 00 ................
00408CB0 00 00 00 00 00 00 00 00 00 00 00 00 00 00 00 00 ................
00408CC0 00 00 00 00 00 00 00 00 00 00 00 00 00 00 00 00 ................
00408CD0 00 00 00 00 00 00 00 00 00 00 00 00 00 00 00 00 ................
00408CE0 00 00 00 00 00 00 00 00 00 00 00 00 00 00 00 00 ................
00408CF0 00 00 00 00 00 00 00 00 00 00 00 00 00 00 00 00 ................
00408D00 00 00 00 00 00 00 00 00 00 00 00 00 00 00 00 00 ................
00408D10 00 00 00 00 00 00 00 00 00 00 00 00 00 00 00 00 ................
00408D20 00 00 00 00 00 00 00 00 00 00 00 00 00 00 00 00 ................
00408D30 00 00 00 00 00 00 00 00 00 00 00 00 00 00 00 00 ................
00408D40 00 00 00 00 00 00 00 00 00 00 00 00 00 00 00 00 ................
00408D50 00 00 00 00 00 00 00 00 00 00 00 00 00 00 00 00 ................
00408D60 00 00 00 00 00 00 00 00 00 00 00 00 00 00 00 00 ................
00408D70 00 00 00 00 00 00 00 00 00 00 00 00 00 00 00 00 ................
00408D80 00 00 00 00 00 00 00 00 00 00 00 00 00 00 00 00 ................
00408D90 00 00 00 00 00 00 00 00 00 00 00 00 00 00 00 00 ................
00408DA0 00 00 00 00 00 00 00 00 00 00 00 00 00 00 00 00 ................
00408DB0 00 00 00 00 00 00 00 00 00 00 00 00 00 00 00 00 ................
00408DC0 00 00 00 00 00 00 00 00 00 00 00 00 00 00 00 00 ................
00408DD0 00 00 00 00 00 00 00 00 00 00 00 00 00 00 00 00 ................
00408DE0 00 00 00 00 00 00 00 00 00 00 00 00 00 00 00 00 ................
00408DF0 00 00 00 00 00 00 00 00 00 00 00 00 00 00 00 00 ................
00408E00 00 00 00 00 00 00 00 00 00 00 00 00 00 00 00 00 ................
00408E10 00 00 00 00 00 00 00 00 00 00 00 00 00 00 00 00 ................
00408E20 00 00 00 00 00 00 00 00 00 00 00 00 00 00 00 00 ................
00408E30 00 00 00 00 00 00 00 00 00 00 00 00 00 00 00 00 ................
00408E40 00 00 00 00 00 00 00 00 00 00 00 00 00 00 00 00 ................
00408E50 00 00 00 00 00 00 00 00 00 00 00 00 00 00 00 00 ................
00408E60 00 00 00 00 00 00 00 00 00 00 00 00 00 00 00 00 ................
00408E70 00 00 00 00 00 00 00 00 00 00 00 00 00 00 00 00 ................
00408E80 00 00 00 00 00 00 00 00 00 00 00 00 00 00 00 00 ................
00408E90 00 00 00 00 00 00 00 00 00 00 00 00 00 00 00 00 ................
00408EA0 00 00 00 00 00 00 00 00 00 00 00 00 00 00 00 00 ................
00408EB0 00 00 00 00 00 00 00 00 00 00 00 00 00 00 00 00 ................
00408EC0 00 00 00 00 00 00 00 00 00 00 00 00 00 00 00 00 ................
00408ED0 00 00 00 00 00 00 00 00 00 00 00 00 00 00 00 00 ................
00408EE0 00 00 00 00 00 00 00 00 00 00 00 00 00 00 00 00 ................
00408EF0 00 00 00 00 00 00 00 00 00 00 00 00 00 00 00 00 ................
00408F00 00 00 00 00 00 00 00 00 00 00 00 00 00 00 00 00 ................
00408F10 00 00 00 00 00 00 00 00 00 00 00 00 00 00 00 00 ................
00408F20 00 00 00 00 00 00 00 00 00 00 00 00 00 00 00 00 ................
00408F30 00 00 00 00 00 00 00 00 00 00 00 00 00 00 00 00 ................
00408F40 00 00 00 00 00 00 00 00 00 00 00 00 00 00 00 00 ................
00408F50 00 00 00 00 00 00 00 00 00 00 00 00 00 00 00 00 ................
00408F60 00 00 00 00 00 00 00 00 00 00 00 00 00 00 00 00 ................
00408F70 00 00 00 00 00 00 00 00 00 00 00 00 00 00 00 00 ................
00408F80 00 00 00 00 00 00 00 00 00 00 00 00 00 00 00 00 ................
00408F90 00 00 00 00 00 00 00 00 00 00 00 00 00 00 00 00 ................
00408FA0 00 00 00 00 00 00 00 00 00 00 00 00 00 00 00 00 ................
00408FB0 00 00 00 00 00 00 00 00 00 00 00 00 00 00 00 00 ................
00408FC0 00 00 00 00 00 00 00 00 00 00 00 00 00 00 00 00 ................
00408FD0 00 00 00 00 00 00 00 00 00 00 00 00 00 00 00 00 ................
00408FE0 00 00 00 00 00 00 00 00 00 00 00 00 00 00 00 00 ................
00408FF0 00 00 00 00 00 00 00 00 00 00 00 00 00 00 00 00 ................
00409000 00 00 00 00 00 00 00 00 00 00 00 00 00 00 00 00 ................
00409010 00 00 00 00 00 00 00 00 00 00 00 00 00 00 00 00 ................
00409020 00 00 00 00 00 00 00 00 00 00 00 00 00 00 00 00 ................
00409030 00 00 00 00 00 00 00 00 00 00 00 00 00 00 00 00 ................
00409040 00 00 00 00 00 00 00 00 00 00 00 00 00 00 00 00 ................
00409050 00 00 00 00 00 00 00 00 00 00 00 00 00 00 00 00 ................
00409060 00 00 00 00 00 00 00 00 00 00 00 00 00 00 00 00 ................
00409070 00 00 00 00 00 00 00 00 00 00 00 00 00 00 00 00 ................
00409080 00 00 00 00 00 00 00 00 00 00 00 00 00 00 00 00 ................
00409090 00 00 00 00 00 00 00 00 00 00 00 00 00 00 00 00 ................
004090A0 00 00 00 00 00 00 00 00 00 00 00 00 00 00 00 00 ................
004090B0 00 00 00 00 00 00 00 00 00 00 00 00 00 00 00 00 ................
004090C0 00 00 00 00 00 00 00 00 00 00 00 00 00 00 00 00 ................
004090D0 00 00 00 00 00 00 00 00 00 00 00 00 00 00 00 00 ................
004090E0 00 00 00 00 00 00 00 00 00 00 00 00 00 00 00 00 ................
004090F0 00 00 00 00 00 00 00 00 00 00 00 00 00 00 00 00 ................
00409100 00 00 00 00 00 00 00 00 00 00 00 00 00 00 00 00 ................
00409110 00 00 00 00 00 00 00 00 00 00 00 00 00 00 00 00 ................
00409120 00 00 00 00 00 00 00 00 00 00 00 00 00 00 00 00 ................
00409130 00 00 00 00 00 00 00 00 00 00 00 00 00 00 00 00 ................
00409140 00 00 00 00 00 00 00 00 00 00 00 00 00 00 00 00 ................
00409150 00 00 00 00 00 00 00 00 00 00 00 00 00 00 00 00 ................
00409160 00 00 00 00 00 00 00 00 00 00 00 00 00 00 00 00 ................
00409170 00 00 00 00 00 00 00 00 00 00 00 00 00 00 00 00 ................
00409180 00 00 00 00 00 00 00 00 00 00 00 00 00 00 00 00 ................
00409190 00 00 00 00 00 00 00 00 00 00 00 00 00 00 00 00 ................
004091A0 00 00 00 00 00 00 00 00 00 00 00 00 00 00 00 00 ................
004091B0 00 00 00 00 00 00 00 00 00 00 00 00 00 00 00 00 ................
004091C0 00 00 00 00 00 00 00 00 00 00 00 00 00 00 00 00 ................
004091D0 00 00 00 00 00 00 00 00 00 00 00 00 00 00 00 00 ................
004091E0 00 00 00 00 00 00 00 00 00 00 00 00 00 00 00 00 ................
004091F0 00 00 00 00 00 00 00 00 00 00 00 00 00 00 00 00 ................
00409200 00 00 00 00 00 00 00 00 00 00 00 00 00 00 00 00 ................
00409210 00 00 00 00 00 00 00 00 00 00 00 00 00 00 00 00 ................
00409220 00 00 00 00 00 00 00 00 00 00 00 00 00 00 00 00 ................
00409230 00 00 00 00 00 00 00 00 00 00 00 00 00 00 00 00 ................
00409240 00 00 00 00 00 00 00 00 00 00 00 00 00 00 00 00 ................
00409250 00 00 00 00 00 00 00 00 00 00 00 00 00 00 00 00 ................
00409260 00 00 00 00 00 00 00 00 00 00 00 00 00 00 00 00 ................
00409270 00 00 00 00 00 00 00 00 00 00 00 00 00 00 00 00 ................
00409280 00 00 00 00 00 00 00 00 00 00 00 00 00 00 00 00 ................
00409290 00 00 00 00 00 00 00 00 00 00 00 00 00 00 00 00 ................
004092A0 00 00 00 00 00 00 00 00 00 00 00 00 00 00 00 00 ................
004092B0 00 00 00 00 00 00 00 00 00 00 00 00 00 00 00 00 ................
004092C0 00 00 00 00 00 00 00 00 00 00 00 00 00 00 00 00 ................
004092D0 00 00 00 00 00 00 00 00 00 00 00 00 00 00 00 00 ................
004092E0 00 00 00 00 00 00 00 00 00 00 00 00 00 00 00 00 ................
004092F0 00 00 00 00 00 00 00 00 00 00 00 00 00 00 00 00 ................
00409300 00 00 00 00 00 00 00 00 00 00 00 00 00 00 00 00 ................
00409310 00 00 00 00 00 00 00 00 00 00 00 00 00 00 00 00 ................
00409320 00 00 00 00 00 00 00 00 00 00 00 00 00 00 00 00 ................
00409330 00 00 00 00 00 00 00 00 00 00 00 00 00 00 00 00 ................
00409340 00 00 00 00 00 00 00 00 00 00 00 00 00 00 00 00 ................
00409350 00 00 00 00 00 00 00 00 00 00 00 00 00 00 00 00 ................
00409360 00 00 00 00 00 00 00 00 00 00 00 00 00 00 00 00 ................
00409370 00 00 00 00 00 00 00 00 00 00 00 00 00 00 00 00 ................
00409380 00 00 00 00 00 00 00 00 00 00 00 00 00 00 00 00 ................
00409390 00 00 00 00 00 00 00 00 00 00 00 00 00 00 00 00 ................
004093A0 00 00 00 00 00 00 00 00 00 00 00 00 00 00 00 00 ................
004093B0 00 00 00 00 00 00 00 00 00 00 00 00 00 00 00 00 ................
004093C0 00 00 00 00 00 00 00 00 00 00 00 00 00 00 00 00 ................
004093D0 00 00 00 00 00 00 00 00 00 00 00 00 00 00 00 00 ................
004093E0 00 00 00 00 00 00 00 00 00 00 00 00 00 00 00 00 ................
004093F0 00 00 00 00 00 00 00 00 00 00 00 00 00 00 00 00 ................
00409400 00 00 00 00 00 00 00 00 00 00 00 00 00 00 00 00 ................
00409410 00 00 00 00 00 00 00 00 00 00 00 00 00 00 00 00 ................
00409420 00 00 00 00 00 00 00 00 00 00 00 00 00 00 00 00 ................
00409430 00 00 00 00 00 00 00 00 00 00 00 00 00 00 00 00 ................
00409440 00 00 00 00 00 00 00 00 00 00 00 00 00 00 00 00 ................
00409450 00 00 00 00 00 00 00 00 00 00 00 00 00 00 00 00 ................
00409460 00 00 00 00 00 00 00 00 00 00 00 00 00 00 00 00 ................
00409470 00 00 00 00 00 00 00 00 00 00 00 00 00 00 00 00 ................
00409480 00 00 00 00 00 00 00 00 00 00 00 00 00 00 00 00 ................
00409490 00 00 00 00 00 00 00 00 00 00 00 00 00 00 00 00 ................
004094A0 00 00 00 00 00 00 00 00 00 00 00 00 00 00 00 00 ................
004094B0 00 00 00 00 00 00 00 00 00 00 00 00 00 00 00 00 ................
004094C0 00 00 00 00 00 00 00 00 00 00 00 00 00 00 00 00 ................
004094D0 00 00 00 00 00 00 00 00 00 00 00 00 00 00 00 00 ................
004094E0 00 00 00 00 00 00 00 00 00 00 00 00 00 00 00 00 ................
004094F0 00 00 00 00 00 00 00 00 00 00 00 00 00 00 00 00 ................
00409500 00 00 00 00 00 00 00 00 00 00 00 00 00 00 00 00 ................
00409510 00 00 00 00 00 00 00 00 00 00 00 00 00 00 00 00 ................
00409520 00 00 00 00 00 00 00 00 00 00 00 00 00 00 00 00 ................
00409530 00 00 00 00 00 00 00 00 00 00 00 00 00 00 00 00 ................
00409540 00 00 00 00 00 00 00 00 00 00 00 00 00 00 00 00 ................
00409550 00 00 00 00 00 00 00 00 00 00 00 00 00 00 00 00 ................
00409560 00 00 00 00 00 00 00 00 00 00 00 00 00 00 00 00 ................
00409570 00 00 00 00 00 00 00 00 00 00 00 00 00 00 00 00 ................
00409580 00 00 00 00 00 00 00 00 00 00 00 00 00 00 00 00 ................
00409590 00 00 00 00 00 00 00 00 00 00 00 00 00 00 00 00 ................
004095A0 00 00 00 00 00 00 00 00 00 00 00 00 00 00 00 00 ................
004095B0 00 00 00 00 00 00 00 00 00 00 00 00 00 00 00 00 ................
004095C0 00 00 00 00 00 00 00 00 00 00 00 00 00 00 00 00 ................
004095D0 00 00 00 00 00 00 00 00 00 00 00 00 00 00 00 00 ................
004095E0 00 00 00 00 00 00 00 00 00 00 00 00 00 00 00 00 ................
004095F0 00 00 00 00 00 00 00 00 00 00 00 00 00 00 00 00 ................
00409600 00 00 00 00 00 00 00 00 00 00 00 00 00 00 00 00 ................
00409610 00 00 00 00 00 00 00 00 00 00 00 00 00 00 00 00 ................
00409620 00 00 00 00 00 00 00 00 00 00 00 00 00 00 00 00 ................
00409630 00 00 00 00 00 00 00 00 00 00 00 00 00 00 00 00 ................
00409640 00 00 00 00 00 00 00 00 00 00 00 00 00 00 00 00 ................
00409650 00 00 00 00 00 00 00 00 00 00 00 00 00 00 00 00 ................
00409660 00 00 00 00 00 00 00 00 00 00 00 00 00 00 00 00 ................
00409670 00 00 00 00 00 00 00 00 00 00 00 00 00 00 00 00 ................
00409680 00 00 00 00 00 00 00 00 00 00 00 00 00 00 00 00 ................
00409690 00 00 00 00 00 00 00 00 00 00 00 00 00 00 00 00 ................
004096A0 00 00 00 00 00 00 00 00 00 00 00 00 00 00 00 00 ................
004096B0 00 00 00 00 00 00 00 00 00 00 00 00 00 00 00 00 ................
004096C0 00 00 00 00 00 00 00 00 00 00 00 00 00 00 00 00 ................
004096D0 00 00 00 00 00 00 00 00 00 00 00 00 00 00 00 00 ................
004096E0 00 00 00 00 00 00 00 00 00 00 00 00 00 00 00 00 ................
004096F0 00 00 00 00 00 00 00 00 00 00 00 00 00 00 00 00 ................
00409700 00 00 00 00 00 00 00 00 00 00 00 00 00 00 00 00 ................
00409710 00 00 00 00 00 00 00 00 00 00 00 00 00 00 00 00 ................
00409720 00 00 00 00 00 00 00 00 00 00 00 00 00 00 00 00 ................
00409730 00 00 00 00 00 00 00 00 00 00 00 00 00 00 00 00 ................
00409740 00 00 00 00 00 00 00 00 00 00 00 00 00 00 00 00 ................
00409750 00 00 00 00 00 00 00 00 00 00 00 00 00 00 00 00 ................
00409760 00 00 00 00 00 00 00 00 00 00 00 00 00 00 00 00 ................
00409770 00 00 00 00 00 00 00 00 00 00 00 00 00 00 00 00 ................
00409780 00 00 00 00 00 00 00 00 00 00 00 00 00 00 00 00 ................
00409790 00 00 00 00 00 00 00 00 00 00 00 00 00 00 00 00 ................
004097A0 00 00 00 00 00 00 00 00 00 00 00 00 00 00 00 00 ................
004097B0 00 00 00 00 00 00 00 00 00 00 00 00 00 00 00 00 ................
004097C0 00 00 00 00 00 00 00 00 00 00 00 00 00 00 00 00 ................
004097D0 00 00 00 00 00 00 00 00 00 00 00 00 00 00 00 00 ................
004097E0 00 00 00 00 00 00 00 00 00 00 00 00 00 00 00 00 ................
004097F0 00 00 00 00 00 00 00 00 00 00 00 00 00 00 00 00 ................
00409800 00 00 00 00 00 00 00 00 00 00 00 00 00 00 00 00 ................
00409810 00 00 00 00 00 00 00 00 00 00 00 00 00 00 00 00 ................
00409820 00 00 00 00 00 00 00 00 00 00 00 00 00 00 00 00 ................
00409830 00 00 00 00 00 00 00 00 00 00 00 00 00 00 00 00 ................
00409840 00 00 00 00 00 00 00 00 00 00 00 00 00 00 00 00 ................
00409850 00 00 00 00 00 00 00 00 00 00 00 00 00 00 00 00 ................
00409860 00 00 00 00 00 00 00 00 00 00 00 00 00 00 00 00 ................
00409870 00 00 00 00 00 00 00 00 00 00 00 00 00 00 00 00 ................
00409880 00 00 00 00 00 00 00 00 00 00 00 00 00 00 00 00 ................
00409890 00 00 00 00 00 00 00 00 00 00 00 00 00 00 00 00 ................
004098A0 00 00 00 00 00 00 00 00 00 00 00 00 00 00 00 00 ................
004098B0 00 00 00 00 00 00 00 00 00 00 00 00 00 00 00 00 ................
004098C0 00 00 00 00 00 00 00 00 00 00 00 00 00 00 00 00 ................
004098D0 00 00 00 00 00 00 00 00 00 00 00 00 00 00 00 00 ................
004098E0 00 00 00 00 00 00 00 00 00 00 00 00 00 00 00 00 ................
004098F0 00 00 00 00 00 00 00 00 00 00 00 00 00 00 00 00 ................
00409900 00 00 00 00 00 00 00 00 00 00 00 00 00 00 00 00 ................
00409910 00 00 00 00 00 00 00 00 00 00 00 00 00 00 00 00 ................
00409920 00 00 00 00 00 00 00 00 00 00 00 00 00 00 00 00 ................
00409930 00 00 00 00 00 00 00 00 00 00 00 00 00 00 00 00 ................
00409940 00 00 00 00 00 00 00 00 00 00 00 00 00 00 00 00 ................
00409950 00 00 00 00 00 00 00 00 00 00 00 00 00 00 00 00 ................
00409960 00 00 00 00 00 00 00 00 00 00 00 00 00 00 00 00 ................
00409970 00 00 00 00 00 00 00 00 00 00 00 00 00 00 00 00 ................
00409980 00 00 00 00 00 00 00 00 00 00 00 00 00 00 00 00 ................
00409990 00 00 00 00 00 00 00 00 00 00 00 00 00 00 00 00 ................
004099A0 00 00 00 00 00 00 00 00 00 00 00 00 00 00 00 00 ................
004099B0 00 00 00 00 00 00 00 00 00 00 00 00 00 00 00 00 ................
004099C0 00 00 00 00 00 00 00 00 00 00 00 00 00 00 00 00 ................
004099D0 00 00 00 00 00 00 00 00 00 00 00 00 00 00 00 00 ................
004099E0 00 00 00 00 00 00 00 00 00 00 00 00 00 00 00 00 ................
004099F0 00 00 00 00 00 00 00 00 00 00 00 00 00 00 00 00 ................
00409A00 00 00 00 00 00 00 00 00 00 00 00 00 00 00 00 00 ................
00409A10 00 00 00 00 00 00 00 00 00 00 00 00 00 00 00 00 ................
00409A20 00 00 00 00 00 00 00 00 00 00 00 00 00 00 00 00 ................
00409A30 00 00 00 00 00 00 00 00 00 00 00 00 00 00 00 00 ................
00409A40 00 00 00 00 00 00 00 00 00 00 00 00 00 00 00 00 ................
00409A50 00 00 00 00 00 00 00 00 00 00 00 00 00 00 00 00 ................
00409A60 00 00 00 00 00 00 00 00 00 00 00 00 00 00 00 00 ................
00409A70 00 00 00 00 00 00 00 00 00 00 00 00 00 00 00 00 ................
00409A80 00 00 00 00 00 00 00 00 00 00 00 00 00 00 00 00 ................
00409A90 00 00 00 00 00 00 00 00 00 00 00 00 00 00 00 00 ................
00409AA0 00 00 00 00 00 00 00 00 00 00 00 00 00 00 00 00 ................
00409AB0 00 00 00 00 00 00 00 00 00 00 00 00 00 00 00 00 ................
00409AC0 00 00 00 00 00 00 00 00 00 00 00 00 00 00 00 00 ................
00409AD0 00 00 00 00 00 00 00 00 00 00 00 00 00 00 00 00 ................
00409AE0 00 00 00 00 00 00 00 00 00 00 00 00 00 00 00 00 ................
00409AF0 00 00 00 00 00 00 00 00 00 00 00 00 00 00 00 00 ................
00409B00 00 00 00 00 00 00 00 00 00 00 00 00 00 00 00 00 ................
00409B10 00 00 00 00 00 00 00 00 00 00 00 00 00 00 00 00 ................
00409B20 00 00 00 00 00 00 00 00 00 00 00 00 00 00 00 00 ................
00409B30 00 00 00 00 00 00 00 00 00 00 00 00 00 00 00 00 ................
00409B40 00 00 00 00 00 00 00 00 00 00 00 00 00 00 00 00 ................
00409B50 00 00 00 00 00 00 00 00 00 00 00 00 00 00 00 00 ................
00409B60 00 00 00 00 00 00 00 00 00 00 00 00 00 00 00 00 ................
00409B70 00 00 00 00 00 00 00 00 00 00 00 00 00 00 00 00 ................
00409B80 00 00 00 00 00 00 00 00 00 00 00 00 00 00 00 00 ................
00409B90 00 00 00 00 00 00 00 00 00 00 00 00 00 00 00 00 ................
00409BA0 00 00 00 00 00 00 00 00 00 00 00 00 00 00 00 00 ................
00409BB0 00 00 00 00 00 00 00 00 00 00 00 00 00 00 00 00 ................
00409BC0 00 00 00 00 00 00 00 00 00 00 00 00 00 00 00 00 ................
00409BD0 00 00 00 00 00 00 00 00 00 00 00 00 00 00 00 00 ................
00409BE0 00 00 00 00 00 00 00 00 00 00 00 00 00 00 00 00 ................
00409BF0 00 00 00 00 00 00 00 00 00 00 00 00 00 00 00 00 ................
00409C00 00 00 00 00 00 00 00 00 00 00 00 00 00 00 00 00 ................
00409C10 00 00 00 00 00 00 00 00 00 00 00 00 00 00 00 00 ................
00409C20 00 00 00 00 00 00 00 00 00 00 00 00 00 00 00 00 ................
00409C30 00 00 00 00 00 00 00 00 00 00 00 00 00 00 00 00 ................
00409C40 00 00 00 00 00 00 00 00 00 00 00 00 00 00 00 00 ................
00409C50 00 00 00 00 00 00 00 00 00 00 00 00 00 00 00 00 ................
00409C60 00 00 00 00 00 00 00 00 00 00 00 00 00 00 00 00 ................
00409C70 00 00 00 00 00 00 00 00 00 00 00 00 00 00 00 00 ................
00409C80 00 00 00 00 00 00 00 00 00 00 00 00 00 00 00 00 ................
00409C90 00 00 00 00 00 00 00 00 00 00 00 00 00 00 00 00 ................
00409CA0 00 00 00 00 00 00 00 00 00 00 00 00 00 00 00 00 ................
00409CB0 00 00 00 00 00 00 00 00 00 00 00 00 00 00 00 00 ................
00409CC0 00 00 00 00 00 00 00 00 00 00 00 00 00 00 00 00 ................
00409CD0 00 00 00 00 00 00 00 00 00 00 00 00 00 00 00 00 ................
00409CE0 00 00 00 00 00 00 00 00 00 00 00 00 00 00 00 00 ................
00409CF0 00 00 00 00 00 00 00 00 00 00 00 00 00 00 00 00 ................
00409D00 00 00 00 00 00 00 00 00 00 00 00 00 00 00 00 00 ................
00409D10 00 00 00 00 00 00 00 00 00 00 00 00 00 00 00 00 ................
00409D20 00 00 00 00 00 00 00 00 00 00 00 00 00 00 00 00 ................
00409D30 00 00 00 00 00 00 00 00 00 00 00 00 00 00 00 00 ................
00409D40 00 00 00 00 00 00 00 00 00 00 00 00 00 00 00 00 ................
00409D50 00 00 00 00 00 00 00 00 00 00 00 00 00 00 00 00 ................
00409D60 00 00 00 00 00 00 00 00 00 00 00 00 00 00 00 00 ................
00409D70 00 00 00 00 00 00 00 00 00 00 00 00 00 00 00 00 ................
00409D80 00 00 00 00 00 00 00 00 00 00 00 00 00 00 00 00 ................
00409D90 00 00 00 00 00 00 00 00 00 00 00 00 00 00 00 00 ................
00409DA0 00 00 00 00 00 00 00 00 00 00 00 00 00 00 00 00 ................
00409DB0 00 00 00 00 00 00 00 00 00 00 00 00 00 00 00 00 ................
00409DC0 00 00 00 00 00 00 00 00 00 00 00 00 00 00 00 00 ................
00409DD0 00 00 00 00 00 00 00 00 00 00 00 00 00 00 00 00 ................
00409DE0 00 00 00 00 00 00 00 00 00 00 00 00 00 00 00 00 ................
00409DF0 00 00 00 00 00 00 00 00 00 00 00 00 00 00 00 00 ................
00409E00 00 00 00 00 00 00 00 00 00 00 00 00 00 00 00 00 ................
00409E10 00 00 00 00 00 00 00 00 00 00 00 00 00 00 00 00 ................
00409E20 00 00 00 00 00 00 00 00 00 00 00 00 00 00 00 00 ................
00409E30 00 00 00 00 00 00 00 00 00 00 00 00 00 00 00 00 ................
00409E40 00 00 00 00 00 00 00 00 00 00 00 00 00 00 00 00 ................
00409E50 00 00 00 00 00 00 00 00 00 00 00 00 00 00 00 00 ................
00409E60 00 00 00 00 00 00 00 00 00 00 00 00 00 00 00 00 ................
00409E70 00 00 00 00 00 00 00 00 00 00 00 00 00 00 00 00 ................
00409E80 00 00 00 00 00 00 00 00 00 00 00 00 00 00 00 00 ................
00409E90 00 00 00 00 00 00 00 00 00 00 00 00 00 00 00 00 ................
00409EA0 00 00 00 00 00 00 00 00 00 00 00 00 00 00 00 00 ................
00409EB0 00 00 00 00 00 00 00 00 00 00 00 00 00 00 00 00 ................
00409EC0 00 00 00 00 00 00 00 00 00 00 00 00 00 00 00 00 ................
00409ED0 00 00 00 00 00 00 00 00 00 00 00 00 00 00 00 00 ................
00409EE0 00 00 00 00 00 00 00 00 00 00 00 00 00 00 00 00 ................
00409EF0 00 00 00 00 00 00 00 00 00 00 00 00 00 00 00 00 ................
00409F00 00 00 00 00 00 00 00 00 00 00 00 00 00 00 00 00 ................
00409F10 00 00 00 00 00 00 00 00 00 00 00 00 00 00 00 00 ................
00409F20 00 00 00 00 00 00 00 00 00 00 00 00 00 00 00 00 ................
00409F30 00 00 00 00 00 00 00 00 00 00 00 00 00 00 00 00 ................
00409F40 00 00 00 00 00 00 00 00 00 00 00 00 00 00 00 00 ................
00409F50 00 00 00 00 00 00 00 00 00 00 00 00 00 00 00 00 ................
00409F60 00 00 00 00 00 00 00 00 00 00 00 00 00 00 00 00 ................
00409F70 00 00 00 00 00 00 00 00 00 00 00 00 00 00 00 00 ................
00409F80 00 00 00 00 00 00 00 00 00 00 00 00 00 00 00 00 ................
00409F90 00 00 00 00 00 00 00 00 00 00 00 00 00 00 00 00 ................
00409FA0 00 00 00 00 00 00 00 00 00 00 00 00 00 00 00 00 ................
00409FB0 00 00 00 00 00 00 00 00 00 00 00 00 00 00 00 00 ................
00409FC0 00 00 00 00 00 00 00 00 00 00 00 00 00 00 00 00 ................
00409FD0 00 00 00 00 00 00 00 00 00 00 00 00 00 00 00 00 ................
00409FE0 00 00 00 00 00 00 00 00 00 00 00 00 00 00 00 00 ................
00409FF0 00 00 00 00 00 00 00 00 00 00 00 00 00 00 00 00 ................
0040A000 00 00 00 00 00 00 00 00 00 00 00 00 00 00 00 00 ................
0040A010 00 00 00 00 00 00 00 00 00 00 00 00 00 00 00 00 ................
0040A020 00 00 00 00 00 00 00 00 00 00 00 00 00 00 00 00 ................
0040A030 00 00 00 00 00 00 00 00 00 00 00 00 00 00 00 00 ................
0040A040 00 00 00 00 00 00 00 00 00 00 00 00 00 00 00 00 ................
0040A050 00 00 00 00 00 00 00 00 00 00 00 00 00 00 00 00 ................
0040A060 00 00 00 00 00 00 00 00 00 00 00 00 00 00 00 00 ................
0040A070 00 00 00 00 00 00 00 00 00 00 00 00 00 00 00 00 ................
0040A080 00 00 00 00 00 00 00 00 00 00 00 00 00 00 00 00 ................
0040A090 00 00 00 00 00 00 00 00 00 00 00 00 00 00 00 00 ................
0040A0A0 00 00 00 00 00 00 00 00 00 00 00 00 00 00 00 00 ................
0040A0B0 00 00 00 00 00 00 00 00 00 00 00 00 00 00 00 00 ................
0040A0C0 00 00 00 00 00 00 00 00 00 00 00 00 00 00 00 00 ................
0040A0D0 00 00 00 00 00 00 00 00 00 00 00 00 00 00 00 00 ................
0040A0E0 00 00 00 00 00 00 00 00 00 00 00 00 00 00 00 00 ................
0040A0F0 00 00 00 00 00 00 00 00 00 00 00 00 00 00 00 00 ................
0040A100 00 00 00 00 00 00 00 00 00 00 00 00 00 00 00 00 ................
0040A110 00 00 00 00 00 00 00 00 00 00 00 00 00 00 00 00 ................
0040A120 00 00 00 00 00 00 00 00 00 00 00 00 00 00 00 00 ................
0040A130 00 00 00 00 00 00 00 00 00 00 00 00 00 00 00 00 ................
0040A140 00 00 00 00 00 00 00 00 00 00 00 00 00 00 00 00 ................
0040A150 00 00 00 00 00 00 00 00 00 00 00 00 00 00 00 00 ................
0040A160 00 00 00 00 00 00 00 00 00 00 00 00 00 00 00 00 ................
0040A170 00 00 00 00 00 00 00 00 00 00 00 00 00 00 00 00 ................
0040A180 00 00 00 00 00 00 00 00 00 00 00 00 00 00 00 00 ................
0040A190 00 00 00 00 00 00 00 00 00 00 00 00 00 00 00 00 ................
0040A1A0 00 00 00 00 00 00 00 00 00 00 00 00 00 00 00 00 ................
0040A1B0 00 00 00 00 00 00 00 00 00 00 00 00 00 00 00 00 ................
0040A1C0 00 00 00 00 00 00 00 00 00 00 00 00 00 00 00 00 ................
0040A1D0 00 00 00 00 00 00 00 00 00 00 00 00 00 00 00 00 ................
0040A1E0 00 00 00 00 00 00 00 00 00 00 00 00 00 00 00 00 ................
0040A1F0 00 00 00 00 00 00 00 00 00 00 00 00 00 00 00 00 ................
0040A200 00 00 00 00 00 00 00 00 00 00 00 00 00 00 00 00 ................
0040A210 00 00 00 00 00 00 00 00 00 00 00 00 00 00 00 00 ................
0040A220 00 00 00 00 00 00 00 00 00 00 00 00 00 00 00 00 ................
0040A230 00 00 00 00 00 00 00 00 00 00 00 00 00 00 00 00 ................
0040A240 00 00 00 00 00 00 00 00 00 00 00 00 00 00 00 00 ................
0040A250 00 00 00 00 00 00 00 00 00 00 00 00 00 00 00 00 ................
0040A260 00 00 00 00 00 00 00 00 00 00 00 00 00 00 00 00 ................
0040A270 00 00 00 00 00 00 00 00 00 00 00 00 00 00 00 00 ................
0040A280 00 00 00 00 00 00 00 00 00 00 00 00 00 00 00 00 ................
0040A290 00 00 00 00 00 00 00 00 00 00 00 00 00 00 00 00 ................
0040A2A0 00 00 00 00 00 00 00 00 00 00 00 00 00 00 00 00 ................
0040A2B0 00 00 00 00 00 00 00 00 00 00 00 00 00 00 00 00 ................
0040A2C0 00 00 00 00 00 00 00 00 00 00 00 00 00 00 00 00 ................
0040A2D0 00 00 00 00 00 00 00 00 00 00 00 00 00 00 00 00 ................
0040A2E0 00 00 00 00 00 00 00 00 00 00 00 00 00 00 00 00 ................
0040A2F0 00 00 00 00 00 00 00 00 00 00 00 00 00 00 00 00 ................
0040A300 00 00 00 00 00 00 00 00 00 00 00 00 00 00 00 00 ................
0040A310 00 00 00 00 00 00 00 00 00 00 00 00 00 00 00 00 ................
0040A320 00 00 00 00 00 00 00 00 00 00 00 00 00 00 00 00 ................
0040A330 00 00 00 00 00 00 00 00 00 00 00 00 00 00 00 00 ................
0040A340 00 00 00 00 00 00 00 00 00 00 00 00 00 00 00 00 ................
0040A350 00 00 00 00 00 00 00 00 00 00 00 00 00 00 00 00 ................
0040A360 00 00 00 00 00 00 00 00 00 00 00 00 00 00 00 00 ................
0040A370 00 00 00 00 00 00 00 00 00 00 00 00 00 00 00 00 ................
0040A380 00 00 00 00 00 00 00 00 00 00 00 00 00 00 00 00 ................
0040A390 00 00 00 00 00 00 00 00 00 00 00 00 00 00 00 00 ................
0040A3A0 00 00 00 00 00 00 00 00 00 00 00 00 00 00 00 00 ................
0040A3B0 00 00 00 00 00 00 00 00 00 00 00 00 00 00 00 00 ................
0040A3C0 00 00 00 00 00 00 00 00 00 00 00 00 00 00 00 00 ................
0040A3D0 00 00 00 00 00 00 00 00 00 00 00 00 00 00 00 00 ................
0040A3E0 00 00 00 00 00 00 00 00 00 00 00 00 00 00 00 00 ................
0040A3F0 00 00 00 00 00 00 00 00 00 00 00 00 00 00 00 00 ................
0040A400 00 00 00 00 00 00 00 00 00 00 00 00 00 00 00 00 ................
0040A410 00 00 00 00 00 00 00 00 00 00 00 00 00 00 00 00 ................
0040A420 00 00 00 00 00 00 00 00 00 00 00 00 00 00 00 00 ................
0040A430 00 00 00 00 00 00 00 00 00 00 00 00 00 00 00 00 ................
0040A440 00 00 00 00 00 00 00 00 00 00 00 00 00 00 00 00 ................
0040A450 00 00 00 00 00 00 00 00 00 00 00 00 00 00 00 00 ................
0040A460 00 00 00 00 00 00 00 00 00 00 00 00 00 00 00 00 ................
0040A470 00 00 00 00 00 00 00 00 00 00 00 00 00 00 00 00 ................
0040A480 00 00 00 00 00 00 00 00 00 00 00 00 00 00 00 00 ................
0040A490 00 00 00 00 00 00 00 00 00 00 00 00 00 00 00 00 ................
0040A4A0 00 00 00 00 00 00 00 00 00 00 00 00 00 00 00 00 ................
0040A4B0 00 00 00 00 00 00 00 00 00 00 00 00 00 00 00 00 ................
0040A4C0 00 00 00 00 00 00 00 00 00 00 00 00 00 00 00 00 ................
0040A4D0 00 00 00 00 00 00 00 00 00 00 00 00 00 00 00 00 ................
0040A4E0 00 00 00 00 00 00 00 00 00 00 00 00 00 00 00 00 ................
0040A4F0 00 00 00 00 00 00 00 00 00 00 00 00 00 00 00 00 ................
0040A500 00 00 00 00 00 00 00 00 00 00 00 00 00 00 00 00 ................
0040A510 00 00 00 00 00 00 00 00 00 00 00 00 00 00 00 00 ................
0040A520 00 00 00 00 00 00 00 00 00 00 00 00 00 00 00 00 ................
0040A530 00 00 00 00 00 00 00 00 00 00 00 00 00 00 00 00 ................
0040A540 00 00 00 00 00 00 00 00 00 00 00 00 00 00 00 00 ................
0040A550 00 00 00 00 00 00 00 00 00 00 00 00 00 00 00 00 ................
0040A560 00 00 00 00 00 00 00 00 00 00 00 00 00 00 00 00 ................
0040A570 00 00 00 00 00 00 00 00 00 00 00 00 00 00 00 00 ................
0040A580 00 00 00 00 00 00 00 00 00 00 00 00 00 00 00 00 ................
0040A590 00 00 00 00 00 00 00 00 00 00 00 00 00 00 00 00 ................
0040A5A0 00 00 00 00 00 00 00 00 00 00 00 00 00 00 00 00 ................
0040A5B0 00 00 00 00 00 00 00 00 00 00 00 00 00 00 00 00 ................
0040A5C0 00 00 00 00 00 00 00 00 00 00 00 00 00 00 00 00 ................
0040A5D0 00 00 00 00 00 00 00 00 00 00 00 00 00 00 00 00 ................
0040A5E0 00 00 00 00 00 00 00 00 00 00 00 00 00 00 00 00 ................
0040A5F0 00 00 00 00 00 00 00 00 00 00 00 00 00 00 00 00 ................
0040A600 00 00 00 00 00 00 00 00 00 00 00 00 00 00 00 00 ................
0040A610 00 00 00 00 00 00 00 00 00 00 00 00 00 00 00 00 ................
0040A620 00 00 00 00 00 00 00 00 00 00 00 00 00 00 00 00 ................
0040A630 00 00 00 00 00 00 00 00 00 00 00 00 00 00 00 00 ................
0040A640 00 00 00 00 00 00 00 00 00 00 00 00 00 00 00 00 ................
0040A650 00 00 00 00 00 00 00 00 00 00 00 00 00 00 00 00 ................
0040A660 00 00 00 00 00 00 00 00 00 00 00 00 00 00 00 00 ................
0040A670 00 00 00 00 00 00 00 00 00 00 00 00 00 00 00 00 ................
0040A680 00 00 00 00 00 00 00 00 00 00 00 00 00 00 00 00 ................
0040A690 00 00 00 00 00 00 00 00 00 00 00 00 00 00 00 00 ................
0040A6A0 00 00 00 00 00 00 00 00 00 00 00 00 00 00 00 00 ................
0040A6B0 00 00 00 00 00 00 00 00 00 00 00 00 00 00 00 00 ................
0040A6C0 00 00 00 00 00 00 00 00 00 00 00 00 00 00 00 00 ................
0040A6D0 00 00 00 00 00 00 00 00 00 00 00 00 00 00 00 00 ................
0040A6E0 00 00 00 00 00 00 00 00 00 00 00 00 00 00 00 00 ................
0040A6F0 00 00 00 00 00 00 00 00 00 00 00 00 00 00 00 00 ................
0040A700 00 00 00 00 00 00 00 00 00 00 00 00 00 00 00 00 ................
0040A710 00 00 00 00 00 00 00 00 00 00 00 00 00 00 00 00 ................
0040A720 00 00 00 00 00 00 00 00 00 00 00 00 00 00 00 00 ................
0040A730 00 00 00 00 00 00 00 00 00 00 00 00 00 00 00 00 ................
0040A740 00 00 00 00 00 00 00 00 00 00 00 00 00 00 00 00 ................
0040A750 00 00 00 00 00 00 00 00 00 00 00 00 00 00 00 00 ................
0040A760 00 00 00 00 00 00 00 00 00 00 00 00 00 00 00 00 ................
0040A770 00 00 00 00 00 00 00 00 00 00 00 00 00 00 00 00 ................
0040A780 00 00 00 00 00 00 00 00 00 00 00 00 00 00 00 00 ................
0040A790 00 00 00 00 00 00 00 00 00 00 00 00 00 00 00 00 ................
0040A7A0 00 00 00 00 00 00 00 00 00 00 00 00 00 00 00 00 ................
0040A7B0 00 00 00 00 00 00 00 00 00 00 00 00 00 00 00 00 ................
0040A7C0 00 00 00 00 00 00 00 00 00 00 00 00 00 00 00 00 ................
0040A7D0 00 00 00 00 00 00 00 00 00 00 00 00 00 00 00 00 ................
0040A7E0 00 00 00 00 00 00 00 00 00 00 00 00 00 00 00 00 ................
0040A7F0 00 00 00 00 00 00 00 00 00 00 00 00 00 00 00 00 ................
0040A800 00 00 00 00 00 00 00 00 00 00 00 00 00 00 00 00 ................
0040A810 00 00 00 00 00 00 00 00 00 00 00 00 00 00 00 00 ................
0040A820 00 00 00 00 00 00 00 00 00 00 00 00 00 00 00 00 ................
0040A830 00 00 00 00 00 00 00 00 00 00 00 00 00 00 00 00 ................
0040A840 00 00 00 00 00 00 00 00 00 00 00 00 00 00 00 00 ................
0040A850 00 00 00 00 00 00 00 00 00 00 00 00 00 00 00 00 ................
0040A860 00 00 00 00 00 00 00 00 00 00 00 00 00 00 00 00 ................
0040A870 00 00 00 00 00 00 00 00 00 00 00 00 00 00 00 00 ................
0040A880 00 00 00 00 00 00 00 00 00 00 00 00 00 00 00 00 ................
0040A890 00 00 00 00 00 00 00 00 00 00 00 00 00 00 00 00 ................
0040A8A0 00 00 00 00 00 00 00 00 00 00 00 00 00 00 00 00 ................
0040A8B0 00 00 00 00 00 00 00 00 00 00 00 00 00 00 00 00 ................
0040A8C0 00 00 00 00 00 00 00 00 00 00 00 00 00 00 00 00 ................
0040A8D0 00 00 00 00 00 00 00 00 00 00 00 00 00 00 00 00 ................
0040A8E0 00 00 00 00 00 00 00 00 00 00 00 00 00 00 00 00 ................
0040A8F0 00 00 00 00 00 00 00 00 00 00 00 00 00 00 00 00 ................
0040A900 00 00 00 00 00 00 00 00 00 00 00 00 00 00 00 00 ................
0040A910 00 00 00 00 00 00 00 00 00 00 00 00 00 00 00 00 ................
0040A920 00 00 00 00 00 00 00 00 00 00 00 00 00 00 00 00 ................
0040A930 00 00 00 00 00 00 00 00 00 00 00 00 00 00 00 00 ................
0040A940 00 00 00 00 00 00 00 00 00 00 00 00 00 00 00 00 ................
0040A950 00 00 00 00 00 00 00 00 00 00 00 00 00 00 00 00 ................
0040A960 00 00 00 00 00 00 00 00 00 00 00 00 00 00 00 00 ................
0040A970 00 00 00 00 00 00 00 00 00 00 00 00 00 00 00 00 ................
0040A980 00 00 00 00 00 00 00 00 00 00 00 00 00 00 00 00 ................
0040A990 00 00 00 00 00 00 00 00 00 00 00 00 00 00 00 00 ................
0040A9A0 00 00 00 00 00 00 00 00 00 00 00 00 00 00 00 00 ................
0040A9B0 00 00 00 00 00 00 00 00 00 00 00 00 00 00 00 00 ................
0040A9C0 00 00 00 00 00 00 00 00 00 00 00 00 00 00 00 00 ................
0040A9D0 00 00 00 00 00 00 00 00 00 00 00 00 00 00 00 00 ................
0040A9E0 00 00 00 00 00 00 00 00 00 00 00 00 00 00 00 00 ................
0040A9F0 00 00 00 00 00 00 00 00 00 00 00 00 00 00 00 00 ................
0040AA00 00 00 00 00 00 00 00 00 00 00 00 00 00 00 00 00 ................
0040AA10 00 00 00 00 00 00 00 00 00 00 00 00 00 00 00 00 ................
0040AA20 00 00 00 00 00 00 00 00 00 00 00 00 00 00 00 00 ................
0040AA30 00 00 00 00 00 00 00 00 00 00 00 00 00 00 00 00 ................
0040AA40 00 00 00 00 00 00 00 00 00 00 00 00 00 00 00 00 ................
0040AA50 00 00 00 00 00 00 00 00 00 00 00 00 00 00 00 00 ................
0040AA60 00 00 00 00 00 00 00 00 00 00 00 00 00 00 00 00 ................
0040AA70 00 00 00 00 00 00 00 00 00 00 00 00 00 00 00 00 ................
0040AA80 00 00 00 00 00 00 00 00 00 00 00 00 00 00 00 00 ................
0040AA90 00 00 00 00 00 00 00 00 00 00 00 00 00 00 00 00 ................
0040AAA0 00 00 00 00 00 00 00 00 00 00 00 00 00 00 00 00 ................
0040AAB0 00 00 00 00 00 00 00 00 00 00 00 00 00 00 00 00 ................
0040AAC0 00 00 00 00 00 00 00 00 00 00 00 00 00 00 00 00 ................
0040AAD0 00 00 00 00 00 00 00 00 00 00 00 00 00 00 00 00 ................
0040AAE0 00 00 00 00 00 00 00 00 00 00 00 00 00 00 00 00 ................
0040AAF0 00 00 00 00 00 00 00 00 00 00 00 00 00 00 00 00 ................
0040AB00 00 00 00 00 00 00 00 00 00 00 00 00 00 00 00 00 ................
0040AB10 00 00 00 00 00 00 00 00 00 00 00 00 00 00 00 00 ................
0040AB20 00 00 00 00 00 00 00 00 00 00 00 00 00 00 00 00 ................
0040AB30 00 00 00 00 00 00 00 00 00 00 00 00 00 00 00 00 ................
0040AB40 00 00 00 00 00 00 00 00 00 00 00 00 00 00 00 00 ................
0040AB50 00 00 00 00 00 00 00 00 00 00 00 00 00 00 00 00 ................
0040AB60 00 00 00 00 00 00 00 00 00 00 00 00 00 00 00 00 ................
0040AB70 00 00 00 00 00 00 00 00 00 00 00 00 00 00 00 00 ................
0040AB80 00 00 00 00 00 00 00 00 00 00 00 00 00 00 00 00 ................
0040AB90 00 00 00 00 00 00 00 00 00 00 00 00 00 00 00 00 ................
0040ABA0 00 00 00 00 00 00 00 00 00 00 00 00 00 00 00 00 ................
0040ABB0 00 00 00 00 00 00 00 00 00 00 00 00 00 00 00 00 ................
0040ABC0 00 00 00 00 00 00 00 00 00 00 00 00 00 00 00 00 ................
0040ABD0 00 00 00 00 00 00 00 00 00 00 00 00 00 00 00 00 ................
0040ABE0 00 00 00 00 00 00 00 00 00 00 00 00 00 00 00 00 ................
0040ABF0 00 00 00 00 00 00 00 00 00 00 00 00 00 00 00 00 ................
0040AC00 00 00 00 00 00 00 00 00 00 00 00 00 00 00 00 00 ................
0040AC10 00 00 00 00 00 00 00 00 00 00 00 00 00 00 00 00 ................
0040AC20 00 00 00 00 00 00 00 00 00 00 00 00 00 00 00 00 ................
0040AC30 00 00 00 00 00 00 00 00 00 00 00 00 00 00 00 00 ................
0040AC40 00 00 00 00 00 00 00 00 00 00 00 00 00 00 00 00 ................
0040AC50 00 00 00 00 00 00 00 00 00 00 00 00 00 00 00 00 ................
0040AC60 00 00 00 00 00 00 00 00 00 00 00 00 00 00 00 00 ................
0040AC70 00 00 00 00 00 00 00 00 00 00 00 00 00 00 00 00 ................
0040AC80 00 00 00 00 00 00 00 00 00 00 00 00 00 00 00 00 ................
0040AC90 00 00 00 00 00 00 00 00 00 00 00 00 00 00 00 00 ................
0040ACA0 00 00 00 00 00 00 00 00 00 00 00 00 00 00 00 00 ................
0040ACB0 00 00 00 00 00 00 00 00 00 00 00 00 00 00 00 00 ................
0040ACC0 00 00 00 00 00 00 00 00 00 00 00 00 00 00 00 00 ................
0040ACD0 00 00 00 00 00 00 00 00 00 00 00 00 00 00 00 00 ................
0040ACE0 00 00 00 00 00 00 00 00 00 00 00 00 00 00 00 00 ................
0040ACF0 00 00 00 00 00 00 00 00 00 00 00 00 00 00 00 00 ................
0040AD00 00 00 00 00 00 00 00 00 00 00 00 00 00 00 00 00 ................
0040AD10 00 00 00 00 00 00 00 00 00 00 00 00 00 00 00 00 ................
0040AD20 00 00 00 00 00 00 00 00 00 00 00 00 00 00 00 00 ................
0040AD30 00 00 00 00 00 00 00 00 00 00 00 00 00 00 00 00 ................
0040AD40 00 00 00 00 00 00 00 00 00 00 00 00 00 00 00 00 ................
0040AD50 00 00 00 00 00 00 00 00 00 00 00 00 00 00 00 00 ................
0040AD60 00 00 00 00 00 00 00 00 00 00 00 00 00 00 00 00 ................
0040AD70 00 00 00 00 00 00 00 00 00 00 00 00 00 00 00 00 ................
0040AD80 00 00 00 00 00 00 00 00 00 00 00 00 00 00 00 00 ................
0040AD90 00 00 00 00 00 00 00 00 00 00 00 00 00 00 00 00 ................
0040ADA0 00 00 00 00 00 00 00 00 00 00 00 00 00 00 00 00 ................
0040ADB0 00 00 00 00 00 00 00 00 00 00 00 00 00 00 00 00 ................
0040ADC0 00 00 00 00 00 00 00 00 00 00 00 00 00 00 00 00 ................
0040ADD0 00 00 00 00 00 00 00 00 00 00 00 00 00 00 00 00 ................
0040ADE0 00 00 00 00 00 00 00 00 00 00 00 00 00 00 00 00 ................
0040ADF0 00 00 00 00 00 00 00 00 00 00 00 00 00 00 00 00 ................
0040AE00 00 00 00 00 00 00 00 00 00 00 00 00 00 00 00 00 ................
0040AE10 00 00 00 00 00 00 00 00 00 00 00 00 00 00 00 00 ................
0040AE20 00 00 00 00 00 00 00 00 00 00 00 00 00 00 00 00 ................
0040AE30 00 00 00 00 00 00 00 00 00 00 00 00 00 00 00 00 ................
0040AE40 00 00 00 00 00 00 00 00 00 00 00 00 00 00 00 00 ................
0040AE50 00 00 00 00 00 00 00 00 00 00 00 00 00 00 00 00 ................
0040AE60 00 00 00 00 00 00 00 00 00 00 00 00 00 00 00 00 ................
0040AE70 00 00 00 00 00 00 00 00 00 00 00 00 00 00 00 00 ................
0040AE80 00 00 00 00 00 00 00 00 00 00 00 00 00 00 00 00 ................
0040AE90 00 00 00 00 00 00 00 00 00 00 00 00 00 00 00 00 ................
0040AEA0 00 00 00 00 00 00 00 00 00 00 00 00 00 00 00 00 ................
0040AEB0 00 00 00 00 00 00 00 00 00 00 00 00 00 00 00 00 ................
0040AEC0 00 00 00 00 00 00 00 00 00 00 00 00 00 00 00 00 ................
0040AED0 00 00 00 00 00 00 00 00 00 00 00 00 00 00 00 00 ................
0040AEE0 00 00 00 00 00 00 00 00 00 00 00 00 00 00 00 00 ................
0040AEF0 00 00 00 00 00 00 00 00 00 00 00 00 00 00 00 00 ................
0040AF00 00 00 00 00 00 00 00 00 00 00 00 00 00 00 00 00 ................
0040AF10 00 00 00 00 00 00 00 00 00 00 00 00 00 00 00 00 ................
0040AF20 00 00 00 00 00 00 00 00 00 00 00 00 00 00 00 00 ................
0040AF30 00 00 00 00 00 00 00 00 00 00 00 00 00 00 00 00 ................
0040AF40 00 00 00 00 00 00 00 00 00 00 00 00 00 00 00 00 ................
0040AF50 00 00 00 00 00 00 00 00 00 00 00 00 00 00 00 00 ................
0040AF60 00 00 00 00 00 00 00 00 00 00 00 00 00 00 00 00 ................
0040AF70 00 00 00 00 00 00 00 00 00 00 00 00 00 00 00 00 ................
0040AF80 00 00 00 00 00 00 00 00 00 00 00 00 00 00 00 00 ................
0040AF90 00 00 00 00 00 00 00 00 00 00 00 00 00 00 00 00 ................
0040AFA0 00 00 00 00 00 00 00 00 00 00 00 00 00 00 00 00 ................
0040AFB0 00 00 00 00 00 00 00 00 00 00 00 00 00 00 00 00 ................
0040AFC0 00 00 00 00 00 00 00 00 00 00 00 00 00 00 00 00 ................
0040AFD0 00 00 00 00 00 00 00 00 00 00 00 00 00 00 00 00 ................
0040AFE0 00 00 00 00 00 00 00 00 00 00 00 00 00 00 00 00 ................
0040AFF0 00 00 00 00 00 00 00 00 00 00 00 00 00 00 00 00 ................
0040B000 00 00 00 00 00 00 00 00 00 00 00 00 00 00 00 00 ................
0040B010 00 00 00 00 00 00 00 00 00 00 00 00 00 00 00 00 ................
0040B020 00 00 00 00 00 00 00 00 00 00 00 00 00 00 00 00 ................
0040B030 00 00 00 00 00 00 00 00 00 00 00 00 00 00 00 00 ................
0040B040 00 00 00 00 00 00 00 00 00 00 00 00 00 00 00 00 ................
0040B050 00 00 00 00 00 00 00 00 00 00 00 00 00 00 00 00 ................
0040B060 00 00 00 00 00 00 00 00 00 00 00 00 00 00 00 00 ................
0040B070 00 00 00 00 00 00 00 00 00 00 00 00 00 00 00 00 ................
0040B080 00 00 00 00 00 00 00 00 00 00 00 00 00 00 00 00 ................
0040B090 00 00 00 00 00 00 00 00 00 00 00 00 00 00 00 00 ................
0040B0A0 00 00 00 00 00 00 00 00 00 00 00 00 00 00 00 00 ................
0040B0B0 00 00 00 00 00 00 00 00 00 00 00 00 00 00 00 00 ................
0040B0C0 00 00 00 00 00 00 00 00 00 00 00 00 00 00 00 00 ................
0040B0D0 00 00 00 00 00 00 00 00 00 00 00 00 00 00 00 00 ................
0040B0E0 00 00 00 00 00 00 00 00 00 00 00 00 00 00 00 00 ................
0040B0F0 00 00 00 00 00 00 00 00 00 00 00 00 00 00 00 00 ................
0040B100 00 00 00 00 00 00 00 00 00 00 00 00 00 00 00 00 ................
0040B110 00 00 00 00 00 00 00 00 00 00 00 00 00 00 00 00 ................
0040B120 00 00 00 00 00 00 00 00 00 00 00 00 00 00 00 00 ................
0040B130 00 00 00 00 00 00 00 00 00 00 00 00 00 00 00 00 ................
0040B140 00 00 00 00 00 00 00 00 00 00 00 00 00 00 00 00 ................
0040B150 00 00 00 00 00 00 00 00 00 00 00 00 00 00 00 00 ................
0040B160 00 00 00 00 00 00 00 00 00 00 00 00 00 00 00 00 ................
0040B170 00 00 00 00 00 00 00 00 00 00 00 00 00 00 00 00 ................
0040B180 00 00 00 00 00 00 00 00 00 00 00 00 00 00 00 00 ................
0040B190 00 00 00 00 00 00 00 00 00 00 00 00 00 00 00 00 ................
0040B1A0 00 00 00 00 00 00 00 00 00 00 00 00 00 00 00 00 ................
0040B1B0 00 00 00 00 00 00 00 00 00 00 00 00 00 00 00 00 ................
0040B1C0 00 00 00 00 00 00 00 00 00 00 00 00 00 00 00 00 ................
0040B1D0 00 00 00 00 00 00 00 00 00 00 00 00 00 00 00 00 ................
0040B1E0 00 00 00 00 00 00 00 00 00 00 00 00 00 00 00 00 ................
0040B1F0 00 00 00 00 00 00 00 00 00 00 00 00 00 00 00 00 ................
0040B200 00 00 00 00 00 00 00 00 00 00 00 00 00 00 00 00 ................
0040B210 00 00 00 00 00 00 00 00 00 00 00 00 00 00 00 00 ................
0040B220 00 00 00 00 00 00 00 00 00 00 00 00 00 00 00 00 ................
0040B230 00 00 00 00 00 00 00 00 00 00 00 00 00 00 00 00 ................
0040B240 00 00 00 00 00 00 00 00 00 00 00 00 00 00 00 00 ................
0040B250 00 00 00 00 00 00 00 00 00 00 00 00 00 00 00 00 ................
0040B260 00 00 00 00 00 00 00 00 00 00 00 00 00 00 00 00 ................
0040B270 00 00 00 00 00 00 00 00 00 00 00 00 00 00 00 00 ................
0040B280 00 00 00 00 00 00 00 00 00 00 00 00 00 00 00 00 ................
0040B290 00 00 00 00 00 00 00 00 00 00 00 00 00 00 00 00 ................
0040B2A0 00 00 00 00 00 00 00 00 00 00 00 00 00 00 00 00 ................
0040B2B0 00 00 00 00 00 00 00 00 00 00 00 00 00 00 00 00 ................
0040B2C0 00 00 00 00 00 00 00 00 00 00 00 00 00 00 00 00 ................
0040B2D0 00 00 00 00 00 00 00 00 00 00 00 00 00 00 00 00 ................
0040B2E0 00 00 00 00 00 00 00 00 00 00 00 00 00 00 00 00 ................
0040B2F0 00 00 00 00 00 00 00 00 00 00 00 00 00 00 00 00 ................
0040B300 00 00 00 00 00 00 00 00 00 00 00 00 00 00 00 00 ................
0040B310 00 00 00 00 00 00 00 00 00 00 00 00 00 00 00 00 ................
0040B320 00 00 00 00 00 00 00 00 00 00 00 00 00 00 00 00 ................
0040B330 00 00 00 00 00 00 00 00 00 00 00 00 00 00 00 00 ................
0040B340 00 00 00 00 00 00 00 00 00 00 00 00 00 00 00 00 ................
0040B350 00 00 00 00 00 00 00 00 00 00 00 00 00 00 00 00 ................
0040B360 00 00 00 00 00 00 00 00 00 00 00 00 00 00 00 00 ................
0040B370 00 00 00 00 00 00 00 00 00 00 00 00 00 00 00 00 ................
0040B380 00 00 00 00 00 00 00 00 00 00 00 00 00 00 00 00 ................
0040B390 00 00 00 00 00 00 00 00 00 00 00 00 00 00 00 00 ................
0040B3A0 00 00 00 00 00 00 00 00 00 00 00 00 00 00 00 00 ................
0040B3B0 00 00 00 00 00 00 00 00 00 00 00 00 00 00 00 00 ................
0040B3C0 00 00 00 00 00 00 00 00 00 00 00 00 00 00 00 00 ................
0040B3D0 00 00 00 00 00 00 00 00 00 00 00 00 00 00 00 00 ................
0040B3E0 00 00 00 00 00 00 00 00 00 00 00 00 00 00 00 00 ................
0040B3F0 00 00 00 00 00 00 00 00 00 00 00 00 00 00 00 00 ................
0040B400 00 00 00 00 00 00 00 00 00 00 00 00 00 00 00 00 ................
0040B410 00 00 00 00 00 00 00 00 00 00 00 00 00 00 00 00 ................
0040B420 00 00 00 00 00 00 00 00 00 00 00 00 00 00 00 00 ................
0040B430 00 00 00 00 00 00 00 00 00 00 00 00 00 00 00 00 ................
0040B440 00 00 00 00 00 00 00 00 00 00 00 00 00 00 00 00 ................
0040B450 00 00 00 00 00 00 00 00 00 00 00 00 00 00 00 00 ................
0040B460 00 00 00 00 00 00 00 00 00 00 00 00 00 00 00 00 ................
0040B470 00 00 00 00 00 00 00 00 00 00 00 00 00 00 00 00 ................
0040B480 00 00 00 00 00 00 00 00 00 00 00 00 00 00 00 00 ................
0040B490 00 00 00 00 00 00 00 00 00 00 00 00 00 00 00 00 ................
0040B4A0 00 00 00 00 00 00 00 00 00 00 00 00 00 00 00 00 ................
0040B4B0 00 00 00 00 00 00 00 00 00 00 00 00 00 00 00 00 ................
0040B4C0 00 00 00 00 00 00 00 00 00 00 00 00 00 00 00 00 ................
0040B4D0 00 00 00 00 00 00 00 00 00 00 00 00 00 00 00 00 ................
0040B4E0 00 00 00 00 00 00 00 00 00 00 00 00 00 00 00 00 ................
0040B4F0 00 00 00 00 00 00 00 00 00 00 00 00 00 00 00 00 ................
0040B500 00 00 00 00 00 00 00 00 00 00 00 00 00 00 00 00 ................
0040B510 00 00 00 00 00 00 00 00 00 00 00 00 00 00 00 00 ................
0040B520 00 00 00 00 00 00 00 00 00 00 00 00 00 00 00 00 ................
0040B530 00 00 00 00 00 00 00 00 00 00 00 00 00 00 00 00 ................
0040B540 00 00 00 00 00 00 00 00 00 00 00 00 00 00 00 00 ................
0040B550 00 00 00 00 00 00 00 00 00 00 00 00 00 00 00 00 ................
0040B560 00 00 00 00 00 00 00 00 00 00 00 00 00 00 00 00 ................
0040B570 00 00 00 00 00 00 00 00 00 00 00 00 00 00 00 00 ................
0040B580 00 00 00 00 00 00 00 00 00 00 00 00 00 00 00 00 ................
0040B590 00 00 00 00 00 00 00 00 00 00 00 00 00 00 00 00 ................
0040B5A0 00 00 00 00 00 00 00 00 00 00 00 00 00 00 00 00 ................
0040B5B0 00 00 00 00 00 00 00 00 00 00 00 00 00 00 00 00 ................
0040B5C0 00 00 00 00 00 00 00 00 00 00 00 00 00 00 00 00 ................
0040B5D0 00 00 00 00 00 00 00 00 00 00 00 00 00 00 00 00 ................
0040B5E0 00 00 00 00 00 00 00 00 00 00 00 00 00 00 00 00 ................
0040B5F0 00 00 00 00 00 00 00 00 00 00 00 00 00 00 00 00 ................
0040B600 00 00 00 00 00 00 00 00 00 00 00 00 00 00 00 00 ................
0040B610 00 00 00 00 00 00 00 00 00 00 00 00 00 00 00 00 ................
0040B620 00 00 00 00 00 00 00 00 00 00 00 00 00 00 00 00 ................
0040B630 00 00 00 00 00 00 00 00 00 00 00 00 00 00 00 00 ................
0040B640 00 00 00 00 00 00 00 00 00 00 00 00 00 00 00 00 ................
0040B650 00 00 00 00 00 00 00 00 00 00 00 00 00 00 00 00 ................
0040B660 00 00 00 00 00 00 00 00 00 00 00 00 00 00 00 00 ................
0040B670 00 00 00 00 00 00 00 00 00 00 00 00 00 00 00 00 ................
0040B680 00 00 00 00 00 00 00 00 00 00 00 00 00 00 00 00 ................
0040B690 00 00 00 00 00 00 00 00 00 00 00 00 00 00 00 00 ................
0040B6A0 00 00 00 00 00 00 00 00 00 00 00 00 00 00 00 00 ................
0040B6B0 00 00 00 00 00 00 00 00 00 00 00 00 00 00 00 00 ................
0040B6C0 00 00 00 00 00 00 00 00 00 00 00 00 00 00 00 00 ................
0040B6D0 00 00 00 00 00 00 00 00 00 00 00 00 00 00 00 00 ................
0040B6E0 00 00 00 00 00 00 00 00 00 00 00 00 00 00 00 00 ................
0040B6F0 00 00 00 00 00 00 00 00 00 00 00 00 00 00 00 00 ................
0040B700 00 00 00 00 00 00 00 00 00 00 00 00 00 00 00 00 ................
0040B710 00 00 00 00 00 00 00 00 00 00 00 00 00 00 00 00 ................
0040B720 00 00 00 00 00 00 00 00 00 00 00 00 00 00 00 00 ................
0040B730 00 00 00 00 00 00 00 00 00 00 00 00 00 00 00 00 ................
0040B740 00 00 00 00 00 00 00 00 00 00 00 00 00 00 00 00 ................
0040B750 00 00 00 00 00 00 00 00 00 00 00 00 00 00 00 00 ................
0040B760 00 00 00 00 00 00 00 00 00 00 00 00 00 00 00 00 ................
0040B770 00 00 00 00 00 00 00 00 00 00 00 00 00 00 00 00 ................
0040B780 00 00 00 00 00 00 00 00 00 00 00 00 00 00 00 00 ................
0040B790 00 00 00 00 00 00 00 00 00 00 00 00 00 00 00 00 ................
0040B7A0 00 00 00 00 00 00 00 00 00 00 00 00 00 00 00 00 ................
0040B7B0 00 00 00 00 00 00 00 00 00 00 00 00 00 00 00 00 ................
0040B7C0 00 00 00 00 00 00 00 00 00 00 00 00 00 00 00 00 ................
0040B7D0 00 00 00 00 00 00 00 00 00 00 00 00 00 00 00 00 ................
0040B7E0 00 00 00 00 00 00 00 00 00 00 00 00 00 00 00 00 ................
0040B7F0 00 00 00 00 00 00 00 00 00 00 00 00 00 00 00 00 ................
0040B800 00 00 00 00 00 00 00 00 00 00 00 00 00 00 00 00 ................
0040B810 00 00 00 00 00 00 00 00 00 00 00 00 00 00 00 00 ................
0040B820 00 00 00 00 00 00 00 00 00 00 00 00 00 00 00 00 ................
0040B830 00 00 00 00 00 00 00 00 00 00 00 00 00 00 00 00 ................
0040B840 00 00 00 00 00 00 00 00 00 00 00 00 00 00 00 00 ................
0040B850 00 00 00 00 00 00 00 00 00 00 00 00 00 00 00 00 ................
0040B860 00 00 00 00 00 00 00 00 00 00 00 00 00 00 00 00 ................
0040B870 00 00 00 00 00 00 00 00 00 00 00 00 00 00 00 00 ................
0040B880 00 00 00 00 00 00 00 00 00 00 00 00 00 00 00 00 ................
0040B890 00 00 00 00 00 00 00 00 00 00 00 00 00 00 00 00 ................
0040B8A0 00 00 00 00 00 00 00 00 00 00 00 00 00 00 00 00 ................
0040B8B0 00 00 00 00 00 00 00 00 00 00 00 00 00 00 00 00 ................
0040B8C0 00 00 00 00 00 00 00 00 00 00 00 00 00 00 00 00 ................
0040B8D0 00 00 00 00 00 00 00 00 00 00 00 00 00 00 00 00 ................
0040B8E0 00 00 00 00 00 00 00 00 00 00 00 00 00 00 00 00 ................
0040B8F0 00 00 00 00 00 00 00 00 00 00 00 00 00 00 00 00 ................
0040B900 00 00 00 00 00 00 00 00 00 00 00 00 00 00 00 00 ................
0040B910 00 00 00 00 00 00 00 00 00 00 00 00 00 00 00 00 ................
0040B920 00 00 00 00 00 00 00 00 00 00 00 00 00 00 00 00 ................
0040B930 00 00 00 00 00 00 00 00 00 00 00 00 00 00 00 00 ................
0040B940 00 00 00 00 00 00 00 00 00 00 00 00 00 00 00 00 ................
0040B950 00 00 00 00 00 00 00 00 00 00 00 00 00 00 00 00 ................
0040B960 00 00 00 00 00 00 00 00 00 00 00 00 00 00 00 00 ................
0040B970 00 00 00 00 00 00 00 00 00 00 00 00 00 00 00 00 ................
0040B980 00 00 00 00 00 00 00 00 00 00 00 00 00 00 00 00 ................
0040B990 00 00 00 00 00 00 00 00 00 00 00 00 00 00 00 00 ................
0040B9A0 00 00 00 00 00 00 00 00 00 00 00 00 00 00 00 00 ................
0040B9B0 00 00 00 00 00 00 00 00 00 00 00 00 00 00 00 00 ................
0040B9C0 00 00 00 00 00 00 00 00 00 00 00 00 00 00 00 00 ................
0040B9D0 00 00 00 00 00 00 00 00 00 00 00 00 00 00 00 00 ................
0040B9E0 00 00 00 00 00 00 00 00 00 00 00 00 00 00 00 00 ................
0040B9F0 00 00 00 00 00 00 00 00 00 00 00 00 00 00 00 00 ................
0040BA00 00 00 00 00 00 00 00 00 00 00 00 00 00 00 00 00 ................
0040BA10 00 00 00 00 00 00 00 00 00 00 00 00 00 00 00 00 ................
0040BA20 00 00 00 00 00 00 00 00 00 00 00 00 00 00 00 00 ................
0040BA30 00 00 00 00 00 00 00 00 00 00 00 00 00 00 00 00 ................
0040BA40 00 00 00 00 00 00 00 00 00 00 00 00 00 00 00 00 ................
0040BA50 00 00 00 00 00 00 00 00 00 00 00 00 00 00 00 00 ................
0040BA60 00 00 00 00 00 00 00 00 00 00 00 00 00 00 00 00 ................
0040BA70 00 00 00 00 00 00 00 00 00 00 00 00 00 00 00 00 ................
0040BA80 00 00 00 00 00 00 00 00 00 00 00 00 00 00 00 00 ................
0040BA90 00 00 00 00 00 00 00 00 00 00 00 00 00 00 00 00 ................
0040BAA0 00 00 00 00 00 00 00 00 00 00 00 00 00 00 00 00 ................
0040BAB0 00 00 00 00 00 00 00 00 00 00 00 00 00 00 00 00 ................
0040BAC0 00 00 00 00 00 00 00 00 00 00 00 00 00 00 00 00 ................
0040BAD0 00 00 00 00 00 00 00 00 00 00 00 00 00 00 00 00 ................
0040BAE0 00 00 00 00 00 00 00 00 00 00 00 00 00 00 00 00 ................
0040BAF0 00 00 00 00 00 00 00 00 00 00 00 00 00 00 00 00 ................
0040BB00 00 00 00 00 00 00 00 00 00 00 00 00 00 00 00 00 ................
0040BB10 00 00 00 00 00 00 00 00 00 00 00 00 00 00 00 00 ................
0040BB20 00 00 00 00 00 00 00 00 00 00 00 00 00 00 00 00 ................
0040BB30 00 00 00 00 00 00 00 00 00 00 00 00 00 00 00 00 ................
0040BB40 00 00 00 00 00 00 00 00 00 00 00 00 00 00 00 00 ................
0040BB50 00 00 00 00 00 00 00 00 00 00 00 00 00 00 00 00 ................
0040BB60 00 00 00 00 00 00 00 00 00 00 00 00 00 00 00 00 ................
0040BB70 00 00 00 00 00 00 00 00 00 00 00 00 00 00 00 00 ................
0040BB80 00 00 00 00 00 00 00 00 00 00 00 00 00 00 00 00 ................
0040BB90 00 00 00 00 00 00 00 00 00 00 00 00 00 00 00 00 ................
0040BBA0 00 00 00 00 00 00 00 00 00 00 00 00 00 00 00 00 ................
0040BBB0 00 00 00 00 00 00 00 00 00 00 00 00 00 00 00 00 ................
0040BBC0 00 00 00 00 00 00 00 00 00 00 00 00 00 00 00 00 ................
0040BBD0 00 00 00 00 00 00 00 00 00 00 00 00 00 00 00 00 ................
0040BBE0 00 00 00 00 00 00 00 00 00 00 00 00 00 00 00 00 ................
0040BBF0 00 00 00 00 00 00 00 00 00 00 00 00 00 00 00 00 ................
0040BC00 00 00 00 00 00 00 00 00 00 00 00 00 00 00 00 00 ................
0040BC10 00 00 00 00 00 00 00 00 00 00 00 00 00 00 00 00 ................
0040BC20 00 00 00 00 00 00 00 00 00 00 00 00 00 00 00 00 ................
0040BC30 00 00 00 00 00 00 00 00 00 00 00 00 00 00 00 00 ................
0040BC40 00 00 00 00 00 00 00 00 00 00 00 00 00 00 00 00 ................
0040BC50 00 00 00 00 00 00 00 00 00 00 00 00 00 00 00 00 ................
0040BC60 00 00 00 00 00 00 00 00 00 00 00 00 00 00 00 00 ................
0040BC70 00 00 00 00 00 00 00 00 00 00 00 00 00 00 00 00 ................
0040BC80 00 00 00 00 00 00 00 00 00 00 00 00 00 00 00 00 ................
0040BC90 00 00 00 00 00 00 00 00 00 00 00 00 00 00 00 00 ................
0040BCA0 00 00 00 00 00 00 00 00 00 00 00 00 00 00 00 00 ................
0040BCB0 00 00 00 00 00 00 00 00 00 00 00 00 00 00 00 00 ................
0040BCC0 00 00 00 00 00 00 00 00 00 00 00 00 00 00 00 00 ................
0040BCD0 00 00 00 00 00 00 00 00 00 00 00 00 00 00 00 00 ................
0040BCE0 00 00 00 00 00 00 00 00 00 00 00 00 00 00 00 00 ................
0040BCF0 00 00 00 00 00 00 00 00 00 00 00 00 00 00 00 00 ................
0040BD00 00 00 00 00 00 00 00 00 00 00 00 00 00 00 00 00 ................
0040BD10 00 00 00 00 00 00 00 00 00 00 00 00 00 00 00 00 ................
0040BD20 00 00 00 00 00 00 00 00 00 00 00 00 00 00 00 00 ................
0040BD30 00 00 00 00 00 00 00 00 00 00 00 00 00 00 00 00 ................
0040BD40 00 00 00 00 00 00 00 00 00 00 00 00 00 00 00 00 ................
0040BD50 00 00 00 00 00 00 00 00 00 00 00 00 00 00 00 00 ................
0040BD60 00 00 00 00 00 00 00 00 00 00 00 00 00 00 00 00 ................
0040BD70 00 00 00 00 00 00 00 00 00 00 00 00 00 00 00 00 ................
0040BD80 00 00 00 00 00 00 00 00 00 00 00 00 00 00 00 00 ................
0040BD90 00 00 00 00 00 00 00 00 00 00 00 00 00 00 00 00 ................
0040BDA0 00 00 00 00 00 00 00 00 00 00 00 00 00 00 00 00 ................
0040BDB0 00 00 00 00 00 00 00 00 00 00 00 00 00 00 00 00 ................
0040BDC0 00 00 00 00 00 00 00 00 00 00 00 00 00 00 00 00 ................
0040BDD0 00 00 00 00 00 00 00 00 00 00 00 00 00 00 00 00 ................
0040BDE0 00 00 00 00 00 00 00 00 00 00 00 00 00 00 00 00 ................
0040BDF0 00 00 00 00 00 00 00 00 00 00 00 00 00 00 00 00 ................
0040BE00 00 00 00 00 00 00 00 00 00 00 00 00 00 00 00 00 ................
0040BE10 00 00 00 00 00 00 00 00 00 00 00 00 00 00 00 00 ................
0040BE20 00 00 00 00 00 00 00 00 00 00 00 00 00 00 00 00 ................
0040BE30 00 00 00 00 00 00 00 00 00 00 00 00 00 00 00 00 ................
0040BE40 00 00 00 00 00 00 00 00 00 00 00 00 00 00 00 00 ................
0040BE50 00 00 00 00 00 00 00 00 00 00 00 00 00 00 00 00 ................
0040BE60 00 00 00 00 00 00 00 00 00 00 00 00 00 00 00 00 ................
0040BE70 00 00 00 00 00 00 00 00 00 00 00 00 00 00 00 00 ................
0040BE80 00 00 00 00 00 00 00 00 00 00 00 00 00 00 00 00 ................
0040BE90 00 00 00 00 00 00 00 00 00 00 00 00 00 00 00 00 ................
0040BEA0 00 00 00 00 00 00 00 00 00 00 00 00 00 00 00 00 ................
0040BEB0 00 00 00 00 00 00 00 00 00 00 00 00 00 00 00 00 ................
0040BEC0 00 00 00 00 00 00 00 00 00 00 00 00 00 00 00 00 ................
0040BED0 00 00 00 00 00 00 00 00 00 00 00 00 00 00 00 00 ................
0040BEE0 00 00 00 00 00 00 00 00 00 00 00 00 00 00 00 00 ................
0040BEF0 00 00 00 00 00 00 00 00 00 00 00 00 00 00 00 00 ................
0040BF00 00 00 00 00 00 00 00 00 00 00 00 00 00 00 00 00 ................
0040BF10 00 00 00 00 00 00 00 00 00 00 00 00 00 00 00 00 ................
0040BF20 00 00 00 00 00 00 00 00 00 00 00 00 00 00 00 00 ................
0040BF30 00 00 00 00 00 00 00 00 00 00 00 00 00 00 00 00 ................
0040BF40 00 00 00 00 00 00 00 00 00 00 00 00 00 00 00 00 ................
0040BF50 00 00 00 00 00 00 00 00 00 00 00 00 00 00 00 00 ................
0040BF60 00 00 00 00 00 00 00 00 00 00 00 00 00 00 00 00 ................
0040BF70 00 00 00 00 00 00 00 00 00 00 00 00 00 00 00 00 ................
0040BF80 00 00 00 00 00 00 00 00 00 00 00 00 00 00 00 00 ................
0040BF90 00 00 00 00 00 00 00 00 00 00 00 00 00 00 00 00 ................
0040BFA0 00 00 00 00 00 00 00 00 00 00 00 00 00 00 00 00 ................
0040BFB0 00 00 00 00 00 00 00 00 00 00 00 00 00 00 00 00 ................
0040BFC0 00 00 00 00 00 00 00 00 00 00 00 00 00 00 00 00 ................
0040BFD0 00 00 00 00 00 00 00 00 00 00 00 00 00 00 00 00 ................
0040BFE0 00 00 00 00 00 00 00 00 00 00 00 00 00 00 00 00 ................
0040BFF0 00 00 00 00 00 00 00 00 00 00 00 00 00 00 00 00 ................
0040C000 00 00 00 00 00 00 00 00 00 00 00 00 00 00 00 00 ................
0040C010 00 00 00 00 00 00 00 00 00 00 00 00 00 00 00 00 ................
0040C020 00 00 00 00 00 00 00 00 00 00 00 00 00 00 00 00 ................
0040C030 00 00 00 00 00 00 00 00 00 00 00 00 00 00 00 00 ................
0040C040 00 00 00 00 00 00 00 00 00 00 00 00 00 00 00 00 ................
0040C050 00 00 00 00 00 00 00 00 00 00 00 00 00 00 00 00 ................
0040C060 00 00 00 00 00 00 00 00 00 00 00 00 00 00 00 00 ................
0040C070 00 00 00 00 00 00 00 00 00 00 00 00 00 00 00 00 ................
0040C080 00 00 00 00 00 00 00 00 00 00 00 00 00 00 00 00 ................
0040C090 00 00 00 00 00 00 00 00 00 00 00 00 00 00 00 00 ................
0040C0A0 00 00 00 00 00 00 00 00 00 00 00 00 00 00 00 00 ................
0040C0B0 00 00 00 00 00 00 00 00 00 00 00 00 00 00 00 00 ................
0040C0C0 00 00 00 00 00 00 00 00 00 00 00 00 00 00 00 00 ................
0040C0D0 00 00 00 00 00 00 00 00 00 00 00 00 00 00 00 00 ................
0040C0E0 00 00 00 00 00 00 00 00 00 00 00 00 00 00 00 00 ................
0040C0F0 00 00 00 00 00 00 00 00 00 00 00 00 00 00 00 00 ................
0040C100 00 00 00 00 00 00 00 00 00 00 00 00 00 00 00 00 ................
0040C110 00 00 00 00 00 00 00 00 00 00 00 00 00 00 00 00 ................
0040C120 00 00 00 00 00 00 00 00 00 00 00 00 00 00 00 00 ................
0040C130 00 00 00 00 00 00 00 00 00 00 00 00 00 00 00 00 ................
0040C140 00 00 00 00 00 00 00 00 00 00 00 00 00 00 00 00 ................
0040C150 00 00 00 00 00 00 00 00 00 00 00 00 00 00 00 00 ................
0040C160 00 00 00 00 00 00 00 00 00 00 00 00 00 00 00 00 ................
0040C170 00 00 00 00 00 00 00 00 00 00 00 00 00 00 00 00 ................
0040C180 00 00 00 00 00 00 00 00 00 00 00 00 00 00 00 00 ................
0040C190 00 00 00 00 00 00 00 00 00 00 00 00 00 00 00 00 ................
0040C1A0 00 00 00 00 00 00 00 00 00 00 00 00 00 00 00 00 ................
0040C1B0 00 00 00 00 00 00 00 00 00 00 00 00 00 00 00 00 ................
0040C1C0 00 00 00 00 00 00 00 00 00 00 00 00 00 00 00 00 ................
0040C1D0 00 00 00 00 00 00 00 00 00 00 00 00 00 00 00 00 ................
0040C1E0 00 00 00 00 00 00 00 00 00 00 00 00 00 00 00 00 ................
0040C1F0 00 00 00 00 00 00 00 00 00 00 00 00 00 00 00 00 ................
0040C200 00 00 00 00 00 00 00 00 00 00 00 00 00 00 00 00 ................
0040C210 00 00 00 00 00 00 00 00 00 00 00 00 00 00 00 00 ................
0040C220 00 00 00 00 00 00 00 00 00 00 00 00 00 00 00 00 ................
0040C230 00 00 00 00 00 00 00 00 00 00 00 00 00 00 00 00 ................
0040C240 00 00 00 00 00 00 00 00 00 00 00 00 00 00 00 00 ................
0040C250 00 00 00 00 00 00 00 00 00 00 00 00 00 00 00 00 ................
0040C260 00 00 00 00 00 00 00 00 00 00 00 00 00 00 00 00 ................
0040C270 00 00 00 00 00 00 00 00 00 00 00 00 00 00 00 00 ................
0040C280 00 00 00 00 00 00 00 00 00 00 00 00 00 00 00 00 ................
0040C290 00 00 00 00 00 00 00 00 00 00 00 00 00 00 00 00 ................
0040C2A0 00 00 00 00 00 00 00 00 00 00 00 00 00 00 00 00 ................
0040C2B0 00 00 00 00 00 00 00 00 00 00 00 00 00 00 00 00 ................
0040C2C0 00 00 00 00 00 00 00 00 00 00 00 00 00 00 00 00 ................
0040C2D0 00 00 00 00 00 00 00 00 00 00 00 00 00 00 00 00 ................
0040C2E0 00 00 00 00 00 00 00 00 00 00 00 00 00 00 00 00 ................
0040C2F0 00 00 00 00 00 00 00 00 00 00 00 00 00 00 00 00 ................
0040C300 00 00 00 00 00 00 00 00 00 00 00 00 00 00 00 00 ................
0040C310 00 00 00 00 00 00 00 00 00 00 00 00 00 00 00 00 ................
0040C320 00 00 00 00 00 00 00 00 00 00 00 00 00 00 00 00 ................
0040C330 00 00 00 00 00 00 00 00 00 00 00 00 00 00 00 00 ................
0040C340 00 00 00 00 00 00 00 00 00 00 00 00 00 00 00 00 ................
0040C350 00 00 00 00 00 00 00 00 00 00 00 00 00 00 00 00 ................
0040C360 00 00 00 00 00 00 00 00 00 00 00 00 00 00 00 00 ................
0040C370 00 00 00 00 00 00 00 00 00 00 00 00 00 00 00 00 ................
0040C380 00 00 00 00 00 00 00 00 00 00 00 00 00 00 00 00 ................
0040C390 00 00 00 00 00 00 00 00 00 00 00 00 00 00 00 00 ................
0040C3A0 00 00 00 00 00 00 00 00 00 00 00 00 00 00 00 00 ................
0040C3B0 00 00 00 00 00 00 00 00 00 00 00 00 00 00 00 00 ................
0040C3C0 00 00 00 00 00 00 00 00 00 00 00 00 00 00 00 00 ................
0040C3D0 00 00 00 00 00 00 00 00 00 00 00 00 00 00 00 00 ................
0040C3E0 00 00 00 00 00 00 00 00 00 00 00 00 00 00 00 00 ................
0040C3F0 00 00 00 00 00 00 00 00 00 00 00 00 00 00 00 00 ................
0040C400 00 00 00 00 00 00 00 00 00 00 00 00 00 00 00 00 ................
0040C410 00 00 00 00 00 00 00 00 00 00 00 00 00 00 00 00 ................
0040C420 00 00 00 00 00 00 00 00 00 00 00 00 00 00 00 00 ................
0040C430 00 00 00 00 00 00 00 00 00 00 00 00 00 00 00 00 ................
0040C440 00 00 00 00 00 00 00 00 00 00 00 00 00 00 00 00 ................
0040C450 00 00 00 00 00 00 00 00 00 00 00 00 00 00 00 00 ................
0040C460 00 00 00 00 00 00 00 00 00 00 00 00 00 00 00 00 ................
0040C470 00 00 00 00 00 00 00 00 00 00 00 00 00 00 00 00 ................
0040C480 00 00 00 00 00 00 00 00 00 00 00 00 00 00 00 00 ................
0040C490 00 00 00 00 00 00 00 00 00 00 00 00 00 00 00 00 ................
0040C4A0 00 00 00 00 00 00 00 00 00 00 00 00 00 00 00 00 ................
0040C4B0 00 00 00 00 00 00 00 00 00 00 00 00 00 00 00 00 ................
0040C4C0 00 00 00 00 00 00 00 00 00 00 00 00 00 00 00 00 ................
0040C4D0 00 00 00 00 00 00 00 00 00 00 00 00 00 00 00 00 ................
0040C4E0 00 00 00 00 00 00 00 00 00 00 00 00 00 00 00 00 ................
0040C4F0 00 00 00 00 00 00 00 00 00 00 00 00 00 00 00 00 ................
0040C500 00 00 00 00 00 00 00 00 00 00 00 00 00 00 00 00 ................
0040C510 00 00 00 00 00 00 00 00 00 00 00 00 00 00 00 00 ................
0040C520 00 00 00 00 00 00 00 00 00 00 00 00 00 00 00 00 ................
0040C530 00 00 00 00 00 00 00 00 00 00 00 00 00 00 00 00 ................
0040C540 00 00 00 00 00 00 00 00 00 00 00 00 00 00 00 00 ................
0040C550 00 00 00 00 00 00 00 00 00 00 00 00 00 00 00 00 ................
0040C560 00 00 00 00 00 00 00 00 00 00 00 00 00 00 00 00 ................
0040C570 00 00 00 00 00 00 00 00 00 00 00 00 00 00 00 00 ................
0040C580 00 00 00 00 00 00 00 00 00 00 00 00 00 00 00 00 ................
0040C590 00 00 00 00 00 00 00 00 00 00 00 00 00 00 00 00 ................
0040C5A0 00 00 00 00 00 00 00 00 00 00 00 00 00 00 00 00 ................
0040C5B0 00 00 00 00 00 00 00 00 00 00 00 00 00 00 00 00 ................
0040C5C0 00 00 00 00 00 00 00 00 00 00 00 00 00 00 00 00 ................
0040C5D0 00 00 00 00 00 00 00 00 00 00 00 00 00 00 00 00 ................
0040C5E0 00 00 00 00 00 00 00 00 00 00 00 00 00 00 00 00 ................
0040C5F0 00 00 00 00 00 00 00 00 00 00 00 00 00 00 00 00 ................
0040C600 00 00 00 00 00 00 00 00 00 00 00 00 00 00 00 00 ................
0040C610 00 00 00 00 00 00 00 00 00 00 00 00 00 00 00 00 ................
0040C620 00 00 00 00 00 00 00 00 00 00 00 00 00 00 00 00 ................
0040C630 00 00 00 00 00 00 00 00 00 00 00 00 00 00 00 00 ................
0040C640 00 00 00 00 00 00 00 00 00 00 00 00 00 00 00 00 ................
0040C650 00 00 00 00 00 00 00 00 00 00 00 00 00 00 00 00 ................
0040C660 00 00 00 00 00 00 00 00 00 00 00 00 00 00 00 00 ................
0040C670 00 00 00 00 00 00 00 00 00 00 00 00 00 00 00 00 ................
0040C680 00 00 00 00 00 00 00 00 00 00 00 00 00 00 00 00 ................
0040C690 00 00 00 00 00 00 00 00 00 00 00 00 00 00 00 00 ................
0040C6A0 00 00 00 00 00 00 00 00 00 00 00 00 00 00 00 00 ................
0040C6B0 00 00 00 00 00 00 00 00 00 00 00 00 00 00 00 00 ................
0040C6C0 00 00 00 00 00 00 00 00 00 00 00 00 00 00 00 00 ................
0040C6D0 00 00 00 00 00 00 00 00 00 00 00 00 00 00 00 00 ................
0040C6E0 00 00 00 00 00 00 00 00 00 00 00 00 00 00 00 00 ................
0040C6F0 00 00 00 00 00 00 00 00 00 00 00 00 00 00 00 00 ................
0040C700 00 00 00 00 00 00 00 00 00 00 00 00 00 00 00 00 ................
0040C710 00 00 00 00 00 00 00 00 00 00 00 00 00 00 00 00 ................
0040C720 00 00 00 00 00 00 00 00 00 00 00 00 00 00 00 00 ................
0040C730 00 00 00 00 00 00 00 00 00 00 00 00 00 00 00 00 ................
0040C740 00 00 00 00 00 00 00 00 00 00 00 00 00 00 00 00 ................
0040C750 00 00 00 00 00 00 00 00 00 00 00 00 00 00 00 00 ................
0040C760 00 00 00 00 00 00 00 00 00 00 00 00 00 00 00 00 ................
0040C770 00 00 00 00 00 00 00 00 00 00 00 00 00 00 00 00 ................
0040C780 00 00 00 00 00 00 00 00 00 00 00 00 00 00 00 00 ................
0040C790 00 00 00 00 00 00 00 00 00 00 00 00 00 00 00 00 ................
0040C7A0 00 00 00 00 00 00 00 00 00 00 00 00 00 00 00 00 ................
0040C7B0 00 00 00 00 00 00 00 00 00 00 00 00 00 00 00 00 ................
0040C7C0 00 00 00 00 00 00 00 00 00 00 00 00 00 00 00 00 ................
0040C7D0 00 00 00 00 00 00 00 00 00 00 00 00 00 00 00 00 ................
0040C7E0 00 00 00 00 00 00 00 00 00 00 00 00 00 00 00 00 ................
0040C7F0 00 00 00 00 00 00 00 00 00 00 00 00 00 00 00 00 ................
0040C800 00 00 00 00 00 00 00 00 00 00 00 00 00 00 00 00 ................
0040C810 00 00 00 00 00 00 00 00 00 00 00 00 00 00 00 00 ................
0040C820 00 00 00 00 00 00 00 00 00 00 00 00 00 00 00 00 ................
0040C830 00 00 00 00 00 00 00 00 00 00 00 00 00 00 00 00 ................
0040C840 00 00 00 00 00 00 00 00 00 00 00 00 00 00 00 00 ................
0040C850 00 00 00 00 00 00 00 00 00 00 00 00 00 00 00 00 ................
0040C860 00 00 00 00 00 00 00 00 00 00 00 00 00 00 00 00 ................
0040C870 00 00 00 00 00 00 00 00 00 00 00 00 00 00 00 00 ................
0040C880 00 00 00 00 00 00 00 00 00 00 00 00 00 00 00 00 ................
0040C890 00 00 00 00 00 00 00 00 00 00 00 00 00 00 00 00 ................
0040C8A0 00 00 00 00 00 00 00 00 00 00 00 00 00 00 00 00 ................
0040C8B0 00 00 00 00 00 00 00 00 00 00 00 00 00 00 00 00 ................
0040C8C0 00 00 00 00 00 00 00 00 00 00 00 00 00 00 00 00 ................
0040C8D0 00 00 00 00 00 00 00 00 00 00 00 00 00 00 00 00 ................
0040C8E0 00 00 00 00 00 00 00 00 00 00 00 00 00 00 00 00 ................
0040C8F0 00 00 00 00 00 00 00 00 00 00 00 00 00 00 00 00 ................
0040C900 00 00 00 00 00 00 00 00 00 00 00 00 00 00 00 00 ................
0040C910 00 00 00 00 00 00 00 00 00 00 00 00 00 00 00 00 ................
0040C920 00 00 00 00 00 00 00 00 00 00 00 00 00 00 00 00 ................
0040C930 00 00 00 00 00 00 00 00 00 00 00 00 00 00 00 00 ................
0040C940 00 00 00 00 00 00 00 00 00 00 00 00 00 00 00 00 ................
0040C950 00 00 00 00 00 00 00 00 00 00 00 00 00 00 00 00 ................
0040C960 00 00 00 00 00 00 00 00 00 00 00 00 00 00 00 00 ................
0040C970 00 00 00 00 00 00 00 00 00 00 00 00 00 00 00 00 ................
0040C980 00 00 00 00 00 00 00 00 00 00 00 00 00 00 00 00 ................
0040C990 00 00 00 00 00 00 00 00 00 00 00 00 00 00 00 00 ................
0040C9A0 00 00 00 00 00 00 00 00 00 00 00 00 00 00 00 00 ................
0040C9B0 00 00 00 00 00 00 00 00 00 00 00 00 00 00 00 00 ................
0040C9C0 00 00 00 00 00 00 00 00 00 00 00 00 00 00 00 00 ................
0040C9D0 00 00 00 00 00 00 00 00 00 00 00 00 00 00 00 00 ................
0040C9E0 00 00 00 00 00 00 00 00 00 00 00 00 00 00 00 00 ................
0040C9F0 00 00 00 00 00 00 00 00 00 00 00 00 00 00 00 00 ................
0040CA00 00 00 00 00 00 00 00 00 00 00 00 00 00 00 00 00 ................
0040CA10 00 00 00 00 00 00 00 00 00 00 00 00 00 00 00 00 ................
0040CA20 00 00 00 00 00 00 00 00 00 00 00 00 00 00 00 00 ................
0040CA30 00 00 00 00 00 00 00 00 00 00 00 00 00 00 00 00 ................
0040CA40 00 00 00 00 00 00 00 00 00 00 00 00 00 00 00 00 ................
0040CA50 00 00 00 00 00 00 00 00 00 00 00 00 00 00 00 00 ................
0040CA60 00 00 00 00 00 00 00 00 00 00 00 00 00 00 00 00 ................
0040CA70 00 00 00 00 00 00 00 00 00 00 00 00 00 00 00 00 ................
0040CA80 00 00 00 00 00 00 00 00 00 00 00 00 00 00 00 00 ................
0040CA90 00 00 00 00 00 00 00 00 00 00 00 00 00 00 00 00 ................
0040CAA0 00 00 00 00 00 00 00 00 00 00 00 00 00 00 00 00 ................
0040CAB0 00 00 00 00 00 00 00 00 00 00 00 00 00 00 00 00 ................
0040CAC0 00 00 00 00 00 00 00 00 00 00 00 00 00 00 00 00 ................
0040CAD0 00 00 00 00 00 00 00 00 00 00 00 00 00 00 00 00 ................
0040CAE0 00 00 00 00 00 00 00 00 00 00 00 00 00 00 00 00 ................
0040CAF0 00 00 00 00 00 00 00 00 00 00 00 00 00 00 00 00 ................
0040CB00 00 00 00 00 00 00 00 00 00 00 00 00 00 00 00 00 ................
0040CB10 00 00 00 00 00 00 00 00 00 00 00 00 00 00 00 00 ................
0040CB20 00 00 00 00 00 00 00 00 00 00 00 00 00 00 00 00 ................
0040CB30 00 00 00 00 00 00 00 00 00 00 00 00 00 00 00 00 ................
0040CB40 00 00 00 00 00 00 00 00 00 00 00 00 00 00 00 00 ................
0040CB50 00 00 00 00 00 00 00 00 00 00 00 00 00 00 00 00 ................
0040CB60 00 00 00 00 00 00 00 00 00 00 00 00 00 00 00 00 ................
0040CB70 00 00 00 00 00 00 00 00 00 00 00 00 00 00 00 00 ................
0040CB80 00 00 00 00 00 00 00 00 00 00 00 00 00 00 00 00 ................
0040CB90 00 00 00 00 00 00 00 00 00 00 00 00 00 00 00 00 ................
0040CBA0 00 00 00 00 00 00 00 00 00 00 00 00 00 00 00 00 ................
0040CBB0 00 00 00 00 00 00 00 00 00 00 00 00 00 00 00 00 ................
0040CBC0 00 00 00 00 00 00 00 00 00 00 00 00 00 00 00 00 ................
0040CBD0 00 00 00 00 00 00 00 00 00 00 00 00 00 00 00 00 ................
0040CBE0 00 00 00 00 00 00 00 00 00 00 00 00 00 00 00 00 ................
0040CBF0 00 00 00 00 00 00 00 00 00 00 00 00 00 00 00 00 ................
0040CC00 00 00 00 00 00 00 00 00 00 00 00 00 00 00 00 00 ................
0040CC10 00 00 00 00 00 00 00 00 00 00 00 00 00 00 00 00 ................
0040CC20 00 00 00 00 00 00 00 00 00 00 00 00 00 00 00 00 ................
0040CC30 00 00 00 00 00 00 00 00 00 00 00 00 00 00 00 00 ................
0040CC40 00 00 00 00 00 00 00 00 00 00 00 00 00 00 00 00 ................
0040CC50 00 00 00 00 00 00 00 00 00 00 00 00 00 00 00 00 ................
0040CC60 00 00 00 00 00 00 00 00 00 00 00 00 00 00 00 00 ................
0040CC70 00 00 00 00 00 00 00 00 00 00 00 00 00 00 00 00 ................
0040CC80 00 00 00 00 00 00 00 00 00 00 00 00 00 00 00 00 ................
0040CC90 00 00 00 00 00 00 00 00 00 00 00 00 00 00 00 00 ................
0040CCA0 00 00 00 00 00 00 00 00 00 00 00 00 00 00 00 00 ................
0040CCB0 00 00 00 00 00 00 00 00 00 00 00 00 00 00 00 00 ................
0040CCC0 00 00 00 00 00 00 00 00 00 00 00 00 00 00 00 00 ................
0040CCD0 00 00 00 00 00 00 00 00 00 00 00 00 00 00 00 00 ................
0040CCE0 00 00 00 00 00 00 00 00 00 00 00 00 00 00 00 00 ................
0040CCF0 00 00 00 00 00 00 00 00 00 00 00 00 00 00 00 00 ................
0040CD00 00 00 00 00 00 00 00 00 00 00 00 00 00 00 00 00 ................
0040CD10 00 00 00 00 00 00 00 00 00 00 00 00 00 00 00 00 ................
0040CD20 00 00 00 00 00 00 00 00 00 00 00 00 00 00 00 00 ................
0040CD30 00 00 00 00 00 00 00 00 00 00 00 00 00 00 00 00 ................
0040CD40 00 00 00 00 00 00 00 00 00 00 00 00 00 00 00 00 ................
0040CD50 00 00 00 00 00 00 00 00 00 00 00 00 00 00 00 00 ................
0040CD60 00 00 00 00 00 00 00 00 00 00 00 00 00 00 00 00 ................
0040CD70 00 00 00 00 00 00 00 00 00 00 00 00 00 00 00 00 ................
0040CD80 00 00 00 00 00 00 00 00 00 00 00 00 00 00 00 00 ................
0040CD90 00 00 00 00 00 00 00 00 00 00 00 00 00 00 00 00 ................
0040CDA0 00 00 00 00 00 00 00 00 00 00 00 00 00 00 00 00 ................
0040CDB0 00 00 00 00 00 00 00 00 00 00 00 00 00 00 00 00 ................
0040CDC0 00 00 00 00 00 00 00 00 00 00 00 00 00 00 00 00 ................
0040CDD0 00 00 00 00 00 00 00 00 00 00 00 00 00 00 00 00 ................
0040CDE0 00 00 00 00 00 00 00 00 00 00 00 00 00 00 00 00 ................
0040CDF0 00 00 00 00 00 00 00 00 00 00 00 00 00 00 00 00 ................
0040CE00 00 00 00 00 00 00 00 00 00 00 00 00 00 00 00 00 ................
0040CE10 00 00 00 00 00 00 00 00 00 00 00 00 00 00 00 00 ................
0040CE20 00 00 00 00 00 00 00 00 00 00 00 00 00 00 00 00 ................
0040CE30 00 00 00 00 00 00 00 00 00 00 00 00 00 00 00 00 ................
0040CE40 00 00 00 00 00 00 00 00 00 00 00 00 00 00 00 00 ................
0040CE50 00 00 00 00 00 00 00 00 00 00 00 00 00 00 00 00 ................
0040CE60 00 00 00 00 00 00 00 00 00 00 00 00 00 00 00 00 ................
0040CE70 00 00 00 00 00 00 00 00 00 00 00 00 00 00 00 00 ................
0040CE80 00 00 00 00 00 00 00 00 00 00 00 00 00 00 00 00 ................
0040CE90 00 00 00 00 00 00 00 00 00 00 00 00 00 00 00 00 ................
0040CEA0 00 00 00 00 00 00 00 00 00 00 00 00 00 00 00 00 ................
0040CEB0 00 00 00 00 00 00 00 00 00 00 00 00 00 00 00 00 ................
0040CEC0 00 00 00 00 00 00 00 00 00 00 00 00 00 00 00 00 ................
0040CED0 00 00 00 00 00 00 00 00 00 00 00 00 00 00 00 00 ................
0040CEE0 00 00 00 00 00 00 00 00 00 00 00 00 00 00 00 00 ................
0040CEF0 00 00 00 00 00 00 00 00 00 00 00 00 00 00 00 00 ................
0040CF00 00 00 00 00 00 00 00 00 00 00 00 00 00 00 00 00 ................
0040CF10 00 00 00 00 00 00 00 00 00 00 00 00 00 00 00 00 ................
0040CF20 00 00 00 00 00 00 00 00 00 00 00 00 00 00 00 00 ................
0040CF30 00 00 00 00 00 00 00 00 00 00 00 00 00 00 00 00 ................
0040CF40 00 00 00 00 00 00 00 00 00 00 00 00 00 00 00 00 ................
0040CF50 00 00 00 00 00 00 00 00 00 00 00 00 00 00 00 00 ................
0040CF60 00 00 00 00 00 00 00 00 00 00 00 00 00 00 00 00 ................
0040CF70 00 00 00 00 00 00 00 00 00 00 00 00 00 00 00 00 ................
0040CF80 00 00 00 00 00 00 00 00 00 00 00 00 00 00 00 00 ................
0040CF90 00 00 00 00 00 00 00 00 00 00 00 00 00 00 00 00 ................
0040CFA0 00 00 00 00 00 00 00 00 00 00 00 00 00 00 00 00 ................
0040CFB0 00 00 00 00 00 00 00 00 00 00 00 00 00 00 00 00 ................
0040CFC0 00 00 00 00 00 00 00 00 00 00 00 00 00 00 00 00 ................
0040CFD0 00 00 00 00 00 00 00 00 00 00 00 00 00 00 00 00 ................
0040CFE0 00 00 00 00 00 00 00 00 00 00 00 00 00 00 00 00 ................
0040CFF0 00 00 00 00 00 00 00 00 00 00 00 00 00 00 00 00 ................
0040D000 00 00 00 00 00 00 00 00 00 00 00 00 00 00 00 00 ................
0040D010 00 00 00 00 00 00 00 00 00 00 00 00 00 00 00 00 ................
0040D020 00 00 00 00 00 00 00 00 00 00 00 00 00 00 00 00 ................
0040D030 00 00 00 00 00 00 00 00 00 00 00 00 00 00 00 00 ................
0040D040 00 00 00 00 00 00 00 00 00 00 00 00 00 00 00 00 ................
0040D050 00 00 00 00 00 00 00 00 00 00 00 00 00 00 00 00 ................
0040D060 00 00 00 00 00 00 00 00 00 00 00 00 00 00 00 00 ................
0040D070 00 00 00 00 00 00 00 00 00 00 00 00 00 00 00 00 ................
0040D080 00 00 00 00 00 00 00 00 00 00 00 00 00 00 00 00 ................
0040D090 00 00 00 00 00 00 00 00 00 00 00 00 00 00 00 00 ................
0040D0A0 00 00 00 00 00 00 00 00 00 00 00 00 00 00 00 00 ................
0040D0B0 00 00 00 00 00 00 00 00 00 00 00 00 00 00 00 00 ................
0040D0C0 00 00 00 00 00 00 00 00 00 00 00 00 00 00 00 00 ................
0040D0D0 00 00 00 00 00 00 00 00 00 00 00 00 00 00 00 00 ................
0040D0E0 00 00 00 00 00 00 00 00 00 00 00 00 00 00 00 00 ................
0040D0F0 00 00 00 00 00 00 00 00 00 00 00 00 00 00 00 00 ................
0040D100 00 00 00 00 00 00 00 00 00 00 00 00 00 00 00 00 ................
0040D110 00 00 00 00 00 00 00 00 00 00 00 00 00 00 00 00 ................
0040D120 00 00 00 00 00 00 00 00 00 00 00 00 00 00 00 00 ................
0040D130 00 00 00 00 00 00 00 00 00 00 00 00 00 00 00 00 ................
0040D140 00 00 00 00 00 00 00 00 00 00 00 00 00 00 00 00 ................
0040D150 00 00 00 00 00 00 00 00 00 00 00 00 00 00 00 00 ................
0040D160 00 00 00 00 00 00 00 00 00 00 00 00 00 00 00 00 ................
0040D170 00 00 00 00 00 00 00 00 00 00 00 00 00 00 00 00 ................
0040D180 00 00 00 00 00 00 00 00 00 00 00 00 00 00 00 00 ................
0040D190 00 00 00 00 00 00 00 00 00 00 00 00 00 00 00 00 ................
0040D1A0 00 00 00 00 00 00 00 00 00 00 00 00 00 00 00 00 ................
0040D1B0 00 00 00 00 00 00 00 00 00 00 00 00 00 00 00 00 ................
0040D1C0 00 00 00 00 00 00 00 00 00 00 00 00 00 00 00 00 ................
0040D1D0 00 00 00 00 00 00 00 00 00 00 00 00 00 00 00 00 ................
0040D1E0 00 00 00 00 00 00 00 00 00 00 00 00 00 00 00 00 ................
0040D1F0 00 00 00 00 00 00 00 00 00 00 00 00 00 00 00 00 ................
0040D200 00 00 00 00 00 00 00 00 00 00 00 00 00 00 00 00 ................
0040D210 00 00 00 00 00 00 00 00 00 00 00 00 00 00 00 00 ................
0040D220 00 00 00 00 00 00 00 00 00 00 00 00 00 00 00 00 ................
0040D230 00 00 00 00 00 00 00 00 00 00 00 00 00 00 00 00 ................
0040D240 00 00 00 00 00 00 00 00 00 00 00 00 00 00 00 00 ................
0040D250 00 00 00 00 00 00 00 00 00 00 00 00 00 00 00 00 ................
0040D260 00 00 00 00 00 00 00 00 00 00 00 00 00 00 00 00 ................
0040D270 00 00 00 00 00 00 00 00 00 00 00 00 00 00 00 00 ................
0040D280 00 00 00 00 00 00 00 00 00 00 00 00 00 00 00 00 ................
0040D290 00 00 00 00 00 00 00 00 00 00 00 00 00 00 00 00 ................
0040D2A0 00 00 00 00 00 00 00 00 00 00 00 00 00 00 00 00 ................
0040D2B0 00 00 00 00 00 00 00 00 00 00 00 00 00 00 00 00 ................
0040D2C0 00 00 00 00 00 00 00 00 00 00 00 00 00 00 00 00 ................
0040D2D0 00 00 00 00 00 00 00 00 00 00 00 00 00 00 00 00 ................
0040D2E0 00 00 00 00 00 00 00 00 00 00 00 00 00 00 00 00 ................
0040D2F0 00 00 00 00 00 00 00 00 00 00 00 00 00 00 00 00 ................
0040D300 00 00 00 00 00 00 00 00 00 00 00 00 00 00 00 00 ................
0040D310 00 00 00 00 00 00 00 00 00 00 00 00 00 00 00 00 ................
0040D320 00 00 00 00 00 00 00 00 00 00 00 00 00 00 00 00 ................
0040D330 00 00 00 00 00 00 00 00 00 00 00 00 00 00 00 00 ................
0040D340 00 00 00 00 00 00 00 00 00 00 00 00 00 00 00 00 ................
0040D350 00 00 00 00 00 00 00 00 00 00 00 00 00 00 00 00 ................
0040D360 00 00 00 00 00 00 00 00 00 00 00 00 00 00 00 00 ................
0040D370 00 00 00 00 00 00 00 00 00 00 00 00 00 00 00 00 ................
0040D380 00 00 00 00 00 00 00 00 00 00 00 00 00 00 00 00 ................
0040D390 00 00 00 00 00 00 00 00 00 00 00 00 00 00 00 00 ................
0040D3A0 00 00 00 00 00 00 00 00 00 00 00 00 00 00 00 00 ................
0040D3B0 00 00 00 00 00 00 00 00 00 00 00 00 00 00 00 00 ................
0040D3C0 00 00 00 00 00 00 00 00 00 00 00 00 00 00 00 00 ................
0040D3D0 00 00 00 00 00 00 00 00 00 00 00 00 00 00 00 00 ................
0040D3E0 00 00 00 00 00 00 00 00 00 00 00 00 00 00 00 00 ................
0040D3F0 00 00 00 00 00 00 00 00 00 00 00 00 00 00 00 00 ................
0040D400 00 00 00 00 00 00 00 00 00 00 00 00 00 00 00 00 ................
0040D410 00 00 00 00 00 00 00 00 00 00 00 00 00 00 00 00 ................
0040D420 00 00 00 00 00 00 00 00 00 00 00 00 00 00 00 00 ................
0040D430 00 00 00 00 00 00 00 00 00 00 00 00 00 00 00 00 ................
0040D440 00 00 00 00 00 00 00 00 00 00 00 00 00 00 00 00 ................
0040D450 00 00 00 00 00 00 00 00 00 00 00 00 00 00 00 00 ................
0040D460 00 00 00 00 00 00 00 00 00 00 00 00 00 00 00 00 ................
0040D470 00 00 00 00 00 00 00 00 00 00 00 00 00 00 00 00 ................
0040D480 00 00 00 00 00 00 00 00 00 00 00 00 00 00 00 00 ................
0040D490 00 00 00 00 00 00 00 00 00 00 00 00 00 00 00 00 ................
0040D4A0 00 00 00 00 00 00 00 00 00 00 00 00 00 00 00 00 ................
0040D4B0 00 00 00 00 00 00 00 00 00 00 00 00 00 00 00 00 ................
0040D4C0 00 00 00 00 00 00 00 00 00 00 00 00 00 00 00 00 ................
0040D4D0 00 00 00 00 00 00 00 00 00 00 00 00 00 00 00 00 ................
0040D4E0 00 00 00 00 00 00 00 00 00 00 00 00 00 00 00 00 ................
0040D4F0 00 00 00 00 00 00 00 00 00 00 00 00 00 00 00 00 ................
0040D500 00 00 00 00 00 00 00 00 00 00 00 00 00 00 00 00 ................
0040D510 00 00 00 00 00 00 00 00 00 00 00 00 00 00 00 00 ................
0040D520 00 00 00 00 00 00 00 00 00 00 00 00 00 00 00 00 ................
0040D530 00 00 00 00 00 00 00 00 00 00 00 00 00 00 00 00 ................
0040D540 00 00 00 00 00 00 00 00 00 00 00 00 00 00 00 00 ................
0040D550 00 00 00 00 00 00 00 00 00 00 00 00 00 00 00 00 ................
0040D560 00 00 00 00 00 00 00 00 00 00 00 00 00 00 00 00 ................
0040D570 00 00 00 00 00 00 00 00 00 00 00 00 00 00 00 00 ................
0040D580 00 00 00 00 00 00 00 00 00 00 00 00 00 00 00 00 ................
0040D590 00 00 00 00 00 00 00 00 00 00 00 00 00 00 00 00 ................
0040D5A0 00 00 00 00 00 00 00 00 00 00 00 00 00 00 00 00 ................
0040D5B0 00 00 00 00 00 00 00 00 00 00 00 00 00 00 00 00 ................
0040D5C0 00 00 00 00 00 00 00 00 00 00 00 00 00 00 00 00 ................
0040D5D0 00 00 00 00 00 00 00 00 00 00 00 00 00 00 00 00 ................
0040D5E0 00 00 00 00 00 00 00 00 00 00 00 00 00 00 00 00 ................
0040D5F0 00 00 00 00 00 00 00 00 00 00 00 00 00 00 00 00 ................
0040D600 00 00 00 00 00 00 00 00 00 00 00 00 00 00 00 00 ................
0040D610 00 00 00 00 00 00 00 00 00 00 00 00 00 00 00 00 ................
0040D620 00 00 00 00 00 00 00 00 00 00 00 00 00 00 00 00 ................
0040D630 00 00 00 00 00 00 00 00 00 00 00 00 00 00 00 00 ................
0040D640 00 00 00 00 00 00 00 00 00 00 00 00 00 00 00 00 ................
0040D650 00 00 00 00 00 00 00 00 00 00 00 00 00 00 00 00 ................
0040D660 00 00 00 00 00 00 00 00 00 00 00 00 00 00 00 00 ................
0040D670 00 00 00 00 00 00 00 00 00 00 00 00 00 00 00 00 ................
0040D680 00 00 00 00 00 00 00 00 00 00 00 00 00 00 00 00 ................
0040D690 00 00 00 00 00 00 00 00 00 00 00 00 00 00 00 00 ................
0040D6A0 00 00 00 00 00 00 00 00 00 00 00 00 00 00 00 00 ................
0040D6B0 00 00 00 00 00 00 00 00 00 00 00 00 00 00 00 00 ................
0040D6C0 00 00 00 00 00 00 00 00 00 00 00 00 00 00 00 00 ................
0040D6D0 00 00 00 00 00 00 00 00 00 00 00 00 00 00 00 00 ................
0040D6E0 00 00 00 00 00 00 00 00 00 00 00 00 00 00 00 00 ................
0040D6F0 00 00 00 00 00 00 00 00 00 00 00 00 00 00 00 00 ................
0040D700 00 00 00 00 00 00 00 00 00 00 00 00 00 00 00 00 ................
0040D710 00 00 00 00 00 00 00 00 00 00 00 00 00 00 00 00 ................
0040D720 00 00 00 00 00 00 00 00 00 00 00 00 00 00 00 00 ................
0040D730 00 00 00 00 00 00 00 00 00 00 00 00 00 00 00 00 ................
0040D740 00 00 00 00 00 00 00 00 00 00 00 00 00 00 00 00 ................
0040D750 00 00 00 00 00 00 00 00 00 00 00 00 00 00 00 00 ................
0040D760 00 00 00 00 00 00 00 00 00 00 00 00 00 00 00 00 ................
0040D770 00 00 00 00 00 00 00 00 00 00 00 00 00 00 00 00 ................
0040D780 00 00 00 00 00 00 00 00 00 00 00 00 00 00 00 00 ................
0040D790 00 00 00 00 00 00 00 00 00 00 00 00 00 00 00 00 ................
0040D7A0 00 00 00 00 00 00 00 00 00 00 00 00 00 00 00 00 ................
0040D7B0 00 00 00 00 00 00 00 00 00 00 00 00 00 00 00 00 ................
0040D7C0 00 00 00 00 00 00 00 00 00 00 00 00 00 00 00 00 ................
0040D7D0 00 00 00 00 00 00 00 00 00 00 00 00 00 00 00 00 ................
0040D7E0 00 00 00 00 00 00 00 00 00 00 00 00 00 00 00 00 ................
0040D7F0 00 00 00 00 00 00 00 00 00 00 00 00 00 00 00 00 ................
0040D800 00 00 00 00 00 00 00 00 00 00 00 00 00 00 00 00 ................
0040D810 00 00 00 00 00 00 00 00 00 00 00 00 00 00 00 00 ................
0040D820 00 00 00 00 00 00 00 00 00 00 00 00 00 00 00 00 ................
0040D830 00 00 00 00 00 00 00 00 00 00 00 00 00 00 00 00 ................
0040D840 00 00 00 00 00 00 00 00 00 00 00 00 00 00 00 00 ................
0040D850 00 00 00 00 00 00 00 00 00 00 00 00 00 00 00 00 ................
0040D860 00 00 00 00 00 00 00 00 00 00 00 00 00 00 00 00 ................
0040D870 00 00 00 00 00 00 00 00 00 00 00 00 00 00 00 00 ................
0040D880 00 00 00 00 00 00 00 00 00 00 00 00 00 00 00 00 ................
0040D890 00 00 00 00 00 00 00 00 00 00 00 00 00 00 00 00 ................
0040D8A0 00 00 00 00 00 00 00 00 00 00 00 00 00 00 00 00 ................
0040D8B0 00 00 00 00 00 00 00 00 00 00 00 00 00 00 00 00 ................
0040D8C0 00 00 00 00 00 00 00 00 00 00 00 00 00 00 00 00 ................
0040D8D0 00 00 00 00 00 00 00 00 00 00 00 00 00 00 00 00 ................
0040D8E0 00 00 00 00 00 00 00 00 00 00 00 00 00 00 00 00 ................
0040D8F0 00 00 00 00 00 00 00 00 00 00 00 00 00 00 00 00 ................
0040D900 00 00 00 00 00 00 00 00 00 00 00 00 00 00 00 00 ................
0040D910 00 00 00 00 00 00 00 00 00 00 00 00 00 00 00 00 ................
0040D920 00 00 00 00 00 00 00 00 00 00 00 00 00 00 00 00 ................
0040D930 00 00 00 00 00 00 00 00 00 00 00 00 00 00 00 00 ................
0040D940 00 00 00 00 00 00 00 00 00 00 00 00 00 00 00 00 ................
0040D950 00 00 00 00 00 00 00 00 00 00 00 00 00 00 00 00 ................
0040D960 00 00 00 00 00 00 00 00 00 00 00 00 00 00 00 00 ................
0040D970 00 00 00 00 00 00 00 00 00 00 00 00 00 00 00 00 ................
0040D980 00 00 00 00 00 00 00 00 00 00 00 00 00 00 00 00 ................
0040D990 00 00 00 00 00 00 00 00 00 00 00 00 00 00 00 00 ................
0040D9A0 00 00 00 00 00 00 00 00 00 00 00 00 00 00 00 00 ................
0040D9B0 00 00 00 00 00 00 00 00 00 00 00 00 00 00 00 00 ................
0040D9C0 00 00 00 00 00 00 00 00 00 00 00 00 00 00 00 00 ................
0040D9D0 00 00 00 00 00 00 00 00 00 00 00 00 00 00 00 00 ................
0040D9E0 00 00 00 00 00 00 00 00 00 00 00 00 00 00 00 00 ................
0040D9F0 00 00 00 00 00 00 00 00 00 00 00 00 00 00 00 00 ................
0040DA00 00 00 00 00 00 00 00 00 00 00 00 00 00 00 00 00 ................
0040DA10 00 00 00 00 00 00 00 00 00 00 00 00 00 00 00 00 ................
0040DA20 00 00 00 00 00 00 00 00 00 00 00 00 00 00 00 00 ................
0040DA30 00 00 00 00 00 00 00 00 00 00 00 00 00 00 00 00 ................
0040DA40 00 00 00 00 00 00 00 00 00 00 00 00 00 00 00 00 ................
0040DA50 00 00 00 00 00 00 00 00 00 00 00 00 00 00 00 00 ................
0040DA60 00 00 00 00 00 00 00 00 00 00 00 00 00 00 00 00 ................
0040DA70 00 00 00 00 00 00 00 00 00 00 00 00 00 00 00 00 ................
0040DA80 00 00 00 00 00 00 00 00 00 00 00 00 00 00 00 00 ................
0040DA90 00 00 00 00 00 00 00 00 00 00 00 00 00 00 00 00 ................
0040DAA0 00 00 00 00 00 00 00 00 00 00 00 00 00 00 00 00 ................
0040DAB0 00 00 00 00 00 00 00 00 00 00 00 00 00 00 00 00 ................
0040DAC0 00 00 00 00 00 00 00 00 00 00 00 00 00 00 00 00 ................
0040DAD0 00 00 00 00 00 00 00 00 00 00 00 00 00 00 00 00 ................
0040DAE0 00 00 00 00 00 00 00 00 00 00 00 00 00 00 00 00 ................
0040DAF0 00 00 00 00 00 00 00 00 00 00 00 00 00 00 00 00 ................
0040DB00 00 00 00 00 00 00 00 00 00 00 00 00 00 00 00 00 ................
0040DB10 00 00 00 00 00 00 00 00 00 00 00 00 00 00 00 00 ................
0040DB20 00 00 00 00 00 00 00 00 00 00 00 00 00 00 00 00 ................
0040DB30 00 00 00 00 00 00 00 00 00 00 00 00 00 00 00 00 ................
0040DB40 00 00 00 00 00 00 00 00 00 00 00 00 00 00 00 00 ................
0040DB50 00 00 00 00 00 00 00 00 00 00 00 00 00 00 00 00 ................
0040DB60 00 00 00 00 00 00 00 00 00 00 00 00 00 00 00 00 ................
0040DB70 00 00 00 00 00 00 00 00 00 00 00 00 00 00 00 00 ................
0040DB80 00 00 00 00 00 00 00 00 00 00 00 00 00 00 00 00 ................
0040DB90 00 00 00 00 00 00 00 00 00 00 00 00 00 00 00 00 ................
0040DBA0 00 00 00 00 00 00 00 00 00 00 00 00 00 00 00 00 ................
0040DBB0 00 00 00 00 00 00 00 00 00 00 00 00 00 00 00 00 ................
0040DBC0 00 00 00 00 00 00 00 00 00 00 00 00 00 00 00 00 ................
0040DBD0 00 00 00 00 00 00 00 00 00 00 00 00 00 00 00 00 ................
0040DBE0 00 00 00 00 00 00 00 00 00 00 00 00 00 00 00 00 ................
0040DBF0 00 00 00 00 00 00 00 00 00 00 00 00 00 00 00 00 ................
0040DC00 00 00 00 00 00 00 00 00 00 00 00 00 00 00 00 00 ................
0040DC10 00 00 00 00 00 00 00 00 00 00 00 00 00 00 00 00 ................
0040DC20 00 00 00 00 00 00 00 00 00 00 00 00 00 00 00 00 ................
0040DC30 00 00 00 00 00 00 00 00 00 00 00 00 00 00 00 00 ................
0040DC40 00 00 00 00 00 00 00 00 00 00 00 00 00 00 00 00 ................
0040DC50 00 00 00 00 00 00 00 00 00 00 00 00 00 00 00 00 ................
0040DC60 00 00 00 00 00 00 00 00 00 00 00 00 00 00 00 00 ................
0040DC70 00 00 00 00 00 00 00 00 00 00 00 00 00 00 00 00 ................
0040DC80 00 00 00 00 00 00 00 00 00 00 00 00 00 00 00 00 ................
0040DC90 00 00 00 00 00 00 00 00 00 00 00 00 00 00 00 00 ................
0040DCA0 00 00 00 00 00 00 00 00 00 00 00 00 00 00 00 00 ................
0040DCB0 00 00 00 00 00 00 00 00 00 00 00 00 00 00 00 00 ................
0040DCC0 00 00 00 00 00 00 00 00 00 00 00 00 00 00 00 00 ................
0040DCD0 00 00 00 00 00 00 00 00 00 00 00 00 00 00 00 00 ................
0040DCE0 00 00 00 00 00 00 00 00 00 00 00 00 00 00 00 00 ................
0040DCF0 00 00 00 00 00 00 00 00 00 00 00 00 00 00 00 00 ................
0040DD00 00 00 00 00 00 00 00 00 00 00 00 00 00 00 00 00 ................
0040DD10 00 00 00 00 00 00 00 00 00 00 00 00 00 00 00 00 ................
0040DD20 00 00 00 00 00 00 00 00 00 00 00 00 00 00 00 00 ................
0040DD30 00 00 00 00 00 00 00 00 00 00 00 00 00 00 00 00 ................
0040DD40 00 00 00 00 00 00 00 00 00 00 00 00 00 00 00 00 ................
0040DD50 00 00 00 00 00 00 00 00 00 00 00 00 00 00 00 00 ................
0040DD60 00 00 00 00 00 00 00 00 00 00 00 00 00 00 00 00 ................
0040DD70 00 00 00 00 00 00 00 00 00 00 00 00 00 00 00 00 ................
0040DD80 00 00 00 00 00 00 00 00 00 00 00 00 00 00 00 00 ................
0040DD90 00 00 00 00 00 00 00 00 00 00 00 00 00 00 00 00 ................
0040DDA0 00 00 00 00 00 00 00 00 00 00 00 00 00 00 00 00 ................
0040DDB0 00 00 00 00 00 00 00 00 00 00 00 00 00 00 00 00 ................
0040DDC0 00 00 00 00 00 00 00 00 00 00 00 00 00 00 00 00 ................
0040DDD0 00 00 00 00 00 00 00 00 00 00 00 00 00 00 00 00 ................
0040DDE0 00 00 00 00 00 00 00 00 00 00 00 00 00 00 00 00 ................
0040DDF0 00 00 00 00 00 00 00 00 00 00 00 00 00 00 00 00 ................
0040DE00 00 00 00 00 00 00 00 00 00 00 00 00 00 00 00 00 ................
0040DE10 00 00 00 00 00 00 00 00 00 00 00 00 00 00 00 00 ................
0040DE20 00 00 00 00 00 00 00 00 00 00 00 00 00 00 00 00 ................
0040DE30 00 00 00 00 00 00 00 00 00 00 00 00 00 00 00 00 ................
0040DE40 00 00 00 00 00 00 00 00 00 00 00 00 00 00 00 00 ................
0040DE50 00 00 00 00 00 00 00 00 00 00 00 00 00 00 00 00 ................
0040DE60 00 00 00 00 00 00 00 00 00 00 00 00 00 00 00 00 ................
0040DE70 00 00 00 00 00 00 00 00 00 00 00 00 00 00 00 00 ................
0040DE80 00 00 00 00 00 00 00 00 00 00 00 00 00 00 00 00 ................
0040DE90 00 00 00 00 00 00 00 00 00 00 00 00 00 00 00 00 ................
0040DEA0 00 00 00 00 00 00 00 00 00 00 00 00 00 00 00 00 ................
0040DEB0 00 00 00 00 00 00 00 00 00 00 00 00 00 00 00 00 ................
0040DEC0 00 00 00 00 00 00 00 00 00 00 00 00 00 00 00 00 ................
0040DED0 00 00 00 00 00 00 00 00 00 00 00 00 00 00 00 00 ................
0040DEE0 00 00 00 00 00 00 00 00 00 00 00 00 00 00 00 00 ................
0040DEF0 00 00 00 00 00 00 00 00 00 00 00 00 00 00 00 00 ................
0040DF00 00 00 00 00 00 00 00 00 00 00 00 00 00 00 00 00 ................
0040DF10 00 00 00 00 00 00 00 00 00 00 00 00 00 00 00 00 ................
0040DF20 00 00 00 00 00 00 00 00 00 00 00 00 00 00 00 00 ................
0040DF30 00 00 00 00 00 00 00 00 00 00 00 00 00 00 00 00 ................
0040DF40 00 00 00 00 00 00 00 00 00 00 00 00 00 00 00 00 ................
0040DF50 00 00 00 00 00 00 00 00 00 00 00 00 00 00 00 00 ................
0040DF60 00 00 00 00 00 00 00 00 00 00 00 00 00 00 00 00 ................
0040DF70 00 00 00 00 00 00 00 00 00 00 00 00 00 00 00 00 ................
0040DF80 00 00 00 00 00 00 00 00 00 00 00 00 00 00 00 00 ................
0040DF90 00 00 00 00 00 00 00 00 00 00 00 00 00 00 00 00 ................
0040DFA0 00 00 00 00 00 00 00 00 00 00 00 00 00 00 00 00 ................
0040DFB0 00 00 00 00 00 00 00 00 00 00 00 00 00 00 00 00 ................
0040DFC0 00 00 00 00 00 00 00 00 00 00 00 00 00 00 00 00 ................
0040DFD0 00 00 00 00 00 00 00 00 00 00 00 00 00 00 00 00 ................
0040DFE0 00 00 00 00 00 00 00 00 00 00 00 00 00 00 00 00 ................
0040DFF0 00 00 00 00 00 00 00 00 00 00 00 00 00 00 00 00 ................
0040E000 00 00 00 00 00 00 00 00 00 00 00 00 00 00 00 00 ................
0040E010 00 00 00 00 00 00 00 00 00 00 00 00 00 00 00 00 ................
0040E020 00 00 00 00 00 00 00 00 00 00 00 00 00 00 00 00 ................
0040E030 00 00 00 00 00 00 00 00 00 00 00 00 00 00 00 00 ................
0040E040 00 00 00 00 00 00 00 00 00 00 00 00 00 00 00 00 ................
0040E050 00 00 00 00 00 00 00 00 00 00 00 00 00 00 00 00 ................
0040E060 00 00 00 00 00 00 00 00 00 00 00 00 00 00 00 00 ................
0040E070 00 00 00 00 00 00 00 00 00 00 00 00 00 00 00 00 ................
0040E080 00 00 00 00 00 00 00 00 00 00 00 00 00 00 00 00 ................
0040E090 00 00 00 00 00 00 00 00 00 00 00 00 00 00 00 00 ................
0040E0A0 00 00 00 00 00 00 00 00 00 00 00 00 00 00 00 00 ................
0040E0B0 00 00 00 00 00 00 00 00 00 00 00 00 00 00 00 00 ................
0040E0C0 00 00 00 00 00 00 00 00 00 00 00 00 00 00 00 00 ................
0040E0D0 00 00 00 00 00 00 00 00 00 00 00 00 00 00 00 00 ................
0040E0E0 00 00 00 00 00 00 00 00 00 00 00 00 00 00 00 00 ................
0040E0F0 00 00 00 00 00 00 00 00 00 00 00 00 00 00 00 00 ................
0040E100 00 00 00 00 00 00 00 00 00 00 00 00 00 00 00 00 ................
0040E110 00 00 00 00 00 00 00 00 00 00 00 00 00 00 00 00 ................
0040E120 00 00 00 00 00 00 00 00 00 00 00 00 00 00 00 00 ................
0040E130 00 00 00 00 00 00 00 00 00 00 00 00 00 00 00 00 ................
0040E140 00 00 00 00 00 00 00 00 00 00 00 00 00 00 00 00 ................
0040E150 00 00 00 00 00 00 00 00 00 00 00 00 00 00 00 00 ................
0040E160 00 00 00 00 00 00 00 00 00 00 00 00 00 00 00 00 ................
0040E170 00 00 00 00 00 00 00 00 00 00 00 00 00 00 00 00 ................
0040E180 00 00 00 00 00 00 00 00 00 00 00 00 00 00 00 00 ................
0040E190 00 00 00 00 00 00 00 00 00 00 00 00 00 00 00 00 ................
0040E1A0 00 00 00 00 00 00 00 00 00 00 00 00 00 00 00 00 ................
0040E1B0 00 00 00 00 00 00 00 00 00 00 00 00 00 00 00 00 ................
0040E1C0 00 00 00 00 00 00 00 00 00 00 00 00 00 00 00 00 ................
0040E1D0 00 00 00 00 00 00 00 00 00 00 00 00 00 00 00 00 ................
0040E1E0 00 00 00 00 00 00 00 00 00 00 00 00 00 00 00 00 ................
0040E1F0 00 00 00 00 00 00 00 00 00 00 00 00 00 00 00 00 ................
0040E200 00 00 00 00 00 00 00 00 00 00 00 00 00 00 00 00 ................
0040E210 00 00 00 00 00 00 00 00 00 00 00 00 00 00 00 00 ................
0040E220 00 00 00 00 00 00 00 00 00 00 00 00 00 00 00 00 ................
0040E230 00 00 00 00 00 00 00 00 00 00 00 00 00 00 00 00 ................
0040E240 00 00 00 00 00 00 00 00 00 00 00 00 00 00 00 00 ................
0040E250 00 00 00 00 00 00 00 00 00 00 00 00 00 00 00 00 ................
0040E260 00 00 00 00 00 00 00 00 00 00 00 00 00 00 00 00 ................
0040E270 00 00 00 00 00 00 00 00 00 00 00 00 00 00 00 00 ................
0040E280 00 00 00 00 00 00 00 00 00 00 00 00 00 00 00 00 ................
0040E290 00 00 00 00 00 00 00 00 00 00 00 00 00 00 00 00 ................
0040E2A0 00 00 00 00 00 00 00 00 00 00 00 00 00 00 00 00 ................
0040E2B0 00 00 00 00 00 00 00 00 00 00 00 00 00 00 00 00 ................
0040E2C0 00 00 00 00 00 00 00 00 00 00 00 00 00 00 00 00 ................
0040E2D0 00 00 00 00 00 00 00 00 00 00 00 00 00 00 00 00 ................
0040E2E0 00 00 00 00 00 00 00 00 00 00 00 00 00 00 00 00 ................
0040E2F0 00 00 00 00 00 00 00 00 00 00 00 00 00 00 00 00 ................
0040E300 00 00 00 00 00 00 00 00 00 00 00 00 00 00 00 00 ................
0040E310 00 00 00 00 00 00 00 00 00 00 00 00 00 00 00 00 ................
0040E320 00 00 00 00 00 00 00 00 00 00 00 00 00 00 00 00 ................
0040E330 00 00 00 00 00 00 00 00 00 00 00 00 00 00 00 00 ................
0040E340 00 00 00 00 00 00 00 00 00 00 00 00 00 00 00 00 ................
0040E350 00 00 00 00 00 00 00 00 00 00 00 00 00 00 00 00 ................
0040E360 00 00 00 00 00 00 00 00 00 00 00 00 00 00 00 00 ................
0040E370 00 00 00 00 00 00 00 00 00 00 00 00 00 00 00 00 ................
0040E380 00 00 00 00 00 00 00 00 00 00 00 00 00 00 00 00 ................
0040E390 00 00 00 00 00 00 00 00 00 00 00 00 00 00 00 00 ................
0040E3A0 00 00 00 00 00 00 00 00 00 00 00 00 00 00 00 00 ................
0040E3B0 00 00 00 00 00 00 00 00 00 00 00 00 00 00 00 00 ................
0040E3C0 00 00 00 00 00 00 00 00 00 00 00 00 00 00 00 00 ................
0040E3D0 00 00 00 00 00 00 00 00 00 00 00 00 00 00 00 00 ................
0040E3E0 00 00 00 00 00 00 00 00 00 00 00 00 00 00 00 00 ................
0040E3F0 00 00 00 00 00 00 00 00 00 00 00 00 00 00 00 00 ................
0040E400 00 00 00 00 00 00 00 00 00 00 00 00 00 00 00 00 ................
0040E410 00 00 00 00 00 00 00 00 00 00 00 00 00 00 00 00 ................
0040E420 00 00 00 00 00 00 00 00 00 00 00 00 00 00 00 00 ................
0040E430 00 00 00 00 00 00 00 00 00 00 00 00 00 00 00 00 ................
0040E440 00 00 00 00 00 00 00 00 00 00 00 00 00 00 00 00 ................
0040E450 00 00 00 00 00 00 00 00 00 00 00 00 00 00 00 00 ................
0040E460 00 00 00 00 00 00 00 00 00 00 00 00 00 00 00 00 ................
0040E470 00 00 00 00 00 00 00 00 00 00 00 00 00 00 00 00 ................
0040E480 00 00 00 00 00 00 00 00 00 00 00 00 00 00 00 00 ................
0040E490 00 00 00 00 00 00 00 00 00 00 00 00 00 00 00 00 ................
0040E4A0 00 00 00 00 00 00 00 00 00 00 00 00 00 00 00 00 ................
0040E4B0 00 00 00 00 00 00 00 00 00 00 00 00 00 00 00 00 ................
0040E4C0 00 00 00 00 00 00 00 00 00 00 00 00 00 00 00 00 ................
0040E4D0 00 00 00 00 00 00 00 00 00 00 00 00 00 00 00 00 ................
0040E4E0 00 00 00 00 00 00 00 00 00 00 00 00 00 00 00 00 ................
0040E4F0 00 00 00 00 00 00 00 00 00 00 00 00 00 00 00 00 ................
0040E500 00 00 00 00 00 00 00 00 00 00 00 00 00 00 00 00 ................
0040E510 00 00 00 00 00 00 00 00 00 00 00 00 00 00 00 00 ................
0040E520 00 00 00 00 00 00 00 00 00 00 00 00 00 00 00 00 ................
0040E530 00 00 00 00 00 00 00 00 00 00 00 00 00 00 00 00 ................
0040E540 00 00 00 00 00 00 00 00 00 00 00 00 00 00 00 00 ................
0040E550 00 00 00 00 00 00 00 00 00 00 00 00 00 00 00 00 ................
0040E560 00 00 00 00 00 00 00 00 00 00 00 00 00 00 00 00 ................
0040E570 00 00 00 00 00 00 00 00 00 00 00 00 00 00 00 00 ................
0040E580 00 00 00 00 00 00 00 00 00 00 00 00 00 00 00 00 ................
0040E590 00 00 00 00 00 00 00 00 00 00 00 00 00 00 00 00 ................
0040E5A0 00 00 00 00 00 00 00 00 00 00 00 00 00 00 00 00 ................
0040E5B0 00 00 00 00 00 00 00 00 00 00 00 00 00 00 00 00 ................
0040E5C0 00 00 00 00 00 00 00 00 00 00 00 00 00 00 00 00 ................
0040E5D0 00 00 00 00 00 00 00 00 00 00 00 00 00 00 00 00 ................
0040E5E0 00 00 00 00 00 00 00 00 00 00 00 00 00 00 00 00 ................
0040E5F0 00 00 00 00 00 00 00 00 00 00 00 00 00 00 00 00 ................
0040E600 00 00 00 00 00 00 00 00 00 00 00 00 00 00 00 00 ................
0040E610 00 00 00 00 00 00 00 00 00 00 00 00 00 00 00 00 ................
0040E620 00 00 00 00 00 00 00 00 00 00 00 00 00 00 00 00 ................
0040E630 00 00 00 00 00 00 00 00 00 00 00 00 00 00 00 00 ................
0040E640 00 00 00 00 00 00 00 00 00 00 00 00 00 00 00 00 ................
0040E650 00 00 00 00 00 00 00 00 00 00 00 00 00 00 00 00 ................
0040E660 00 00 00 00 00 00 00 00 00 00 00 00 00 00 00 00 ................
0040E670 00 00 00 00 00 00 00 00 00 00 00 00 00 00 00 00 ................
0040E680 00 00 00 00 00 00 00 00 00 00 00 00 00 00 00 00 ................
0040E690 00 00 00 00 00 00 00 00 00 00 00 00 00 00 00 00 ................
0040E6A0 00 00 00 00 00 00 00 00 00 00 00 00 00 00 00 00 ................
0040E6B0 00 00 00 00 00 00 00 00 00 00 00 00 00 00 00 00 ................
0040E6C0 00 00 00 00 00 00 00 00 00 00 00 00 00 00 00 00 ................
0040E6D0 00 00 00 00 00 00 00 00 00 00 00 00 00 00 00 00 ................
0040E6E0 00 00 00 00 00 00 00 00 00 00 00 00 00 00 00 00 ................
0040E6F0 00 00 00 00 00 00 00 00 00 00 00 00 00 00 00 00 ................
0040E700 00 00 00 00 00 00 00 00 00 00 00 00 00 00 00 00 ................
0040E710 00 00 00 00 00 00 00 00 00 00 00 00 00 00 00 00 ................
0040E720 00 00 00 00 00 00 00 00 00 00 00 00 00 00 00 00 ................
0040E730 00 00 00 00 00 00 00 00 00 00 00 00 00 00 00 00 ................
0040E740 00 00 00 00 00 00 00 00 00 00 00 00 00 00 00 00 ................
0040E750 00 00 00 00 00 00 00 00 00 00 00 00 00 00 00 00 ................
0040E760 00 00 00 00 00 00 00 00 00 00 00 00 00 00 00 00 ................
0040E770 00 00 00 00 00 00 00 00 00 00 00 00 00 00 00 00 ................
0040E780 00 00 00 00 00 00 00 00 00 00 00 00 00 00 00 00 ................
0040E790 00 00 00 00 00 00 00 00 00 00 00 00 00 00 00 00 ................
0040E7A0 00 00 00 00 00 00 00 00 00 00 00 00 00 00 00 00 ................
0040E7B0 00 00 00 00 00 00 00 00 00 00 00 00 00 00 00 00 ................
0040E7C0 00 00 00 00 00 00 00 00 00 00 00 00 00 00 00 00 ................
0040E7D0 00 00 00 00 00 00 00 00 00 00 00 00 00 00 00 00 ................
0040E7E0 00 00 00 00 00 00 00 00 00 00 00 00 00 00 00 00 ................
0040E7F0 00 00 00 00 00 00 00 00 00 00 00 00 00 00 00 00 ................
0040E800 00 00 00 00 00 00 00 00 00 00 00 00 00 00 00 00 ................
0040E810 00 00 00 00 00 00 00 00 00 00 00 00 00 00 00 00 ................
0040E820 00 00 00 00 00 00 00 00 00 00 00 00 00 00 00 00 ................
0040E830 00 00 00 00 00 00 00 00 00 00 00 00 00 00 00 00 ................
0040E840 00 00 00 00 00 00 00 00 00 00 00 00 00 00 00 00 ................
0040E850 00 00 00 00 00 00 00 00 00 00 00 00 00 00 00 00 ................
0040E860 00 00 00 00 00 00 00 00 00 00 00 00 00 00 00 00 ................
0040E870 00 00 00 00 00 00 00 00 00 00 00 00 00 00 00 00 ................
0040E880 00 00 00 00 00 00 00 00 00 00 00 00 00 00 00 00 ................
0040E890 00 00 00 00 00 00 00 00 00 00 00 00 00 00 00 00 ................
0040E8A0 00 00 00 00 00 00 00 00 00 00 00 00 00 00 00 00 ................
0040E8B0 00 00 00 00 00 00 00 00 00 00 00 00 00 00 00 00 ................
0040E8C0 00 00 00 00 00 00 00 00 00 00 00 00 00 00 00 00 ................
0040E8D0 00 00 00 00 00 00 00 00 00 00 00 00 00 00 00 00 ................
0040E8E0 00 00 00 00 00 00 00 00 00 00 00 00 00 00 00 00 ................
0040E8F0 00 00 00 00 00 00 00 00 00 00 00 00 00 00 00 00 ................
0040E900 00 00 00 00 00 00 00 00 00 00 00 00 00 00 00 00 ................
0040E910 00 00 00 00 00 00 00 00 00 00 00 00 00 00 00 00 ................
0040E920 00 00 00 00 00 00 00 00 00 00 00 00 00 00 00 00 ................
0040E930 00 00 00 00 00 00 00 00 00 00 00 00 00 00 00 00 ................
0040E940 00 00 00 00 00 00 00 00 00 00 00 00 00 00 00 00 ................
0040E950 00 00 00 00 00 00 00 00 00 00 00 00 00 00 00 00 ................
0040E960 00 00 00 00 00 00 00 00 00 00 00 00 00 00 00 00 ................
0040E970 00 00 00 00 00 00 00 00 00 00 00 00 00 00 00 00 ................
0040E980 00 00 00 00 00 00 00 00 00 00 00 00 00 00 00 00 ................
0040E990 00 00 00 00 00 00 00 00 00 00 00 00 00 00 00 00 ................
0040E9A0 00 00 00 00 00 00 00 00 00 00 00 00 00 00 00 00 ................
0040E9B0 00 00 00 00 00 00 00 00 00 00 00 00 00 00 00 00 ................
0040E9C0 00 00 00 00 00 00 00 00 00 00 00 00 00 00 00 00 ................
0040E9D0 00 00 00 00 00 00 00 00 00 00 00 00 00 00 00 00 ................
0040E9E0 00 00 00 00 00 00 00 00 00 00 00 00 00 00 00 00 ................
0040E9F0 00 00 00 00 00 00 00 00 00 00 00 00 00 00 00 00 ................
0040EA00 00 00 00 00 00 00 00 00 00 00 00 00 00 00 00 00 ................
0040EA10 00 00 00 00 00 00 00 00 00 00 00 00 00 00 00 00 ................
0040EA20 00 00 00 00 00 00 00 00 00 00 00 00 00 00 00 00 ................
0040EA30 00 00 00 00 00 00 00 00 00 00 00 00 00 00 00 00 ................
0040EA40 00 00 00 00 00 00 00 00 00 00 00 00 00 00 00 00 ................
0040EA50 00 00 00 00 00 00 00 00 00 00 00 00 00 00 00 00 ................
0040EA60 00 00 00 00 00 00 00 00 00 00 00 00 00 00 00 00 ................
0040EA70 00 00 00 00 00 00 00 00 00 00 00 00 00 00 00 00 ................
0040EA80 00 00 00 00 00 00 00 00 00 00 00 00 00 00 00 00 ................
0040EA90 00 00 00 00 00 00 00 00 00 00 00 00 00 00 00 00 ................
0040EAA0 00 00 00 00 00 00 00 00 00 00 00 00 00 00 00 00 ................
0040EAB0 00 00 00 00 00 00 00 00 00 00 00 00 00 00 00 00 ................
0040EAC0 00 00 00 00 00 00 00 00 00 00 00 00 00 00 00 00 ................
0040EAD0 00 00 00 00 00 00 00 00 00 00 00 00 00 00 00 00 ................
0040EAE0 00 00 00 00 00 00 00 00 00 00 00 00 00 00 00 00 ................
0040EAF0 00 00 00 00 00 00 00 00 00 00 00 00 00 00 00 00 ................
0040EB00 00 00 00 00 00 00 00 00 00 00 00 00 00 00 00 00 ................
0040EB10 00 00 00 00 00 00 00 00 00 00 00 00 00 00 00 00 ................
0040EB20 00 00 00 00 00 00 00 00 00 00 00 00 00 00 00 00 ................
0040EB30 00 00 00 00 00 00 00 00 00 00 00 00 00 00 00 00 ................
0040EB40 00 00 00 00 00 00 00 00 00 00 00 00 00 00 00 00 ................
0040EB50 00 00 00 00 00 00 00 00 00 00 00 00 00 00 00 00 ................
0040EB60 00 00 00 00 00 00 00 00 00 00 00 00 00 00 00 00 ................
0040EB70 00 00 00 00 00 00 00 00 00 00 00 00 00 00 00 00 ................
0040EB80 00 00 00 00 00 00 00 00 00 00 00 00 00 00 00 00 ................
0040EB90 00 00 00 00 00 00 00 00 00 00 00 00 00 00 00 00 ................
0040EBA0 00 00 00 00 00 00 00 00 00 00 00 00 00 00 00 00 ................
0040EBB0 00 00 00 00 00 00 00 00 00 00 00 00 00 00 00 00 ................
0040EBC0 00 00 00 00 00 00 00 00 00 00 00 00 00 00 00 00 ................
0040EBD0 00 00 00 00 00 00 00 00 00 00 00 00 00 00 00 00 ................
0040EBE0 00 00 00 00 00 00 00 00 00 00 00 00 00 00 00 00 ................
0040EBF0 00 00 00 00 00 00 00 00 00 00 00 00 00 00 00 00 ................
0040EC00 00 00 00 00 00 00 00 00 00 00 00 00 00 00 00 00 ................
0040EC10 00 00 00 00 00 00 00 00 00 00 00 00 00 00 00 00 ................
0040EC20 00 00 00 00 00 00 00 00 00 00 00 00 00 00 00 00 ................
0040EC30 00 00 00 00 00 00 00 00 00 00 00 00 00 00 00 00 ................
0040EC40 00 00 00 00 00 00 00 00 00 00 00 00 00 00 00 00 ................
0040EC50 00 00 00 00 00 00 00 00 00 00 00 00 00 00 00 00 ................
0040EC60 00 00 00 00 00 00 00 00 00 00 00 00 00 00 00 00 ................
0040EC70 00 00 00 00 00 00 00 00 00 00 00 00 00 00 00 00 ................
0040EC80 00 00 00 00 00 00 00 00 00 00 00 00 00 00 00 00 ................
0040EC90 00 00 00 00 00 00 00 00 00 00 00 00 00 00 00 00 ................
0040ECA0 00 00 00 00 00 00 00 00 00 00 00 00 00 00 00 00 ................
0040ECB0 00 00 00 00 00 00 00 00 00 00 00 00 00 00 00 00 ................
0040ECC0 00 00 00 00 00 00 00 00 00 00 00 00 00 00 00 00 ................
0040ECD0 00 00 00 00 00 00 00 00 00 00 00 00 00 00 00 00 ................
0040ECE0 00 00 00 00 00 00 00 00 00 00 00 00 00 00 00 00 ................
0040ECF0 00 00 00 00 00 00 00 00 00 00 00 00 00 00 00 00 ................
0040ED00 00 00 00 00 00 00 00 00 00 00 00 00 00 00 00 00 ................
0040ED10 00 00 00 00 00 00 00 00 00 00 00 00 00 00 00 00 ................
0040ED20 00 00 00 00 00 00 00 00 00 00 00 00 00 00 00 00 ................
0040ED30 00 00 00 00 00 00 00 00 00 00 00 00 00 00 00 00 ................
0040ED40 00 00 00 00 00 00 00 00 00 00 00 00 00 00 00 00 ................
0040ED50 00 00 00 00 00 00 00 00 00 00 00 00 00 00 00 00 ................
0040ED60 00 00 00 00 00 00 00 00 00 00 00 00 00 00 00 00 ................
0040ED70 00 00 00 00 00 00 00 00 00 00 00 00 00 00 00 00 ................
0040ED80 00 00 00 00 00 00 00 00 00 00 00 00 00 00 00 00 ................
0040ED90 00 00 00 00 00 00 00 00 00 00 00 00 00 00 00 00 ................
0040EDA0 00 00 00 00 00 00 00 00 00 00 00 00 00 00 00 00 ................
0040EDB0 00 00 00 00 00 00 00 00 00 00 00 00 00 00 00 00 ................
0040EDC0 00 00 00 00 00 00 00 00 00 00 00 00 00 00 00 00 ................
0040EDD0 00 00 00 00 00 00 00 00 00 00 00 00 00 00 00 00 ................
0040EDE0 00 00 00 00 00 00 00 00 00 00 00 00 00 00 00 00 ................
0040EDF0 00 00 00 00 00 00 00 00 00 00 00 00 00 00 00 00 ................
0040EE00 00 00 00 00 00 00 00 00 00 00 00 00 00 00 00 00 ................
0040EE10 00 00 00 00 00 00 00 00 00 00 00 00 00 00 00 00 ................
0040EE20 00 00 00 00 00 00 00 00 00 00 00 00 00 00 00 00 ................
0040EE30 00 00 00 00 00 00 00 00 00 00 00 00 00 00 00 00 ................
0040EE40 00 00 00 00 00 00 00 00 00 00 00 00 00 00 00 00 ................
0040EE50 00 00 00 00 00 00 00 00 00 00 00 00 00 00 00 00 ................
0040EE60 00 00 00 00 00 00 00 00 00 00 00 00 00 00 00 00 ................
0040EE70 00 00 00 00 00 00 00 00 00 00 00 00 00 00 00 00 ................
0040EE80 00 00 00 00 00 00 00 00 00 00 00 00 00 00 00 00 ................
0040EE90 00 00 00 00 00 00 00 00 00 00 00 00 00 00 00 00 ................
0040EEA0 00 00 00 00 00 00 00 00 00 00 00 00 00 00 00 00 ................
0040EEB0 00 00 00 00 00 00 00 00 00 00 00 00 00 00 00 00 ................
0040EEC0 00 00 00 00 00 00 00 00 00 00 00 00 00 00 00 00 ................
0040EED0 00 00 00 00 00 00 00 00 00 00 00 00 00 00 00 00 ................
0040EEE0 00 00 00 00 00 00 00 00 00 00 00 00 00 00 00 00 ................
0040EEF0 00 00 00 00 00 00 00 00 00 00 00 00 00 00 00 00 ................
0040EF00 00 00 00 00 00 00 00 00 00 00 00 00 00 00 00 00 ................
0040EF10 00 00 00 00 00 00 00 00 00 00 00 00 00 00 00 00 ................
0040EF20 00 00 00 00 00 00 00 00 00 00 00 00 00 00 00 00 ................
0040EF30 00 00 00 00 00 00 00 00 00 00 00 00 00 00 00 00 ................
0040EF40 00 00 00 00 00 00 00 00 00 00 00 00 00 00 00 00 ................
0040EF50 00 00 00 00 00 00 00 00 00 00 00 00 00 00 00 00 ................
0040EF60 00 00 00 00 00 00 00 00 00 00 00 00 00 00 00 00 ................
0040EF70 00 00 00 00 00 00 00 00 00 00 00 00 00 00 00 00 ................
0040EF80 00 00 00 00 00 00 00 00 00 00 00 00 00 00 00 00 ................
0040EF90 00 00 00 00 00 00 00 00 00 00 00 00 00 00 00 00 ................
0040EFA0 00 00 00 00 00 00 00 00 00 00 00 00 00 00 00 00 ................
0040EFB0 00 00 00 00 00 00 00 00 00 00 00 00 00 00 00 00 ................
0040EFC0 00 00 00 00 00 00 00 00 00 00 00 00 00 00 00 00 ................
0040EFD0 00 00 00 00 00 00 00 00 00 00 00 00 00 00 00 00 ................
0040EFE0 00 00 00 00 00 00 00 00 00 00 00 00 00 00 00 00 ................
0040EFF0 00 00 00 00 00 00 00 00 00 00 00 00 00 00 00 00 ................
0040F000 B0 F2 00 00 CC F2 00 00 D8 F2 00 00 EC F2 00 00 ................
0040F010 02 F3 00 00 12 F3 00 00 28 F3 00 00 3A F3 00 00 ........(...:...
0040F020 58 F3 00 00 68 F3 00 00 80 F3 00 00 9E F3 00 00 X...h...........
0040F030 AA F3 00 00 BA F3 00 00 C8 F3 00 00 DC F3 00 00 ................
0040F040 F0 F3 00 00 FC F3 00 00 18 F4 00 00 32 F4 00 00 ............2...
0040F050 44 F4 00 00 54 F4 00 00 64 F4 00 00 70 F4 00 00 D...T...d...p...
0040F060 80 F4 00 00 98 F4 00 00 A6 F4 00 00 BA F4 00 00 ................
0040F070 D6 F4 00 00 EA F4 00 00 08 F5 00 00 1A F5 00 00 ................
0040F080 28 F5 00 00 38 F5 00 00 44 F5 00 00 50 F5 00 00 (...8...D...P...
0040F090 60 F5 00 00 70 F5 00 00 86 F5 00 00 98 F5 00 00 `...p...........
0040F0A0 A8 F5 00 00 B4 F5 00 00 CA F5 00 00 E2 F5 00 00 ................
0040F0B0 FA F5 00 00 04 F6 00 00 22 F6 00 00 36 F6 00 00 ........"...6...
0040F0C0 42 F6 00 00 4E F6 00 00 00 00 00 00 72 F6 00 00 B...N.......r...
0040F0D0 84 F6 00 00 90 F6 00 00 A2 F6 00 00 B0 F6 00 00 ................
0040F0E0 C0 F6 00 00 D0 F6 00 00 DC F6 00 00 F0 F6 00 00 ................
0040F0F0 FE F6 00 00 0E F7 00 00 20 F7 00 00 32 F7 00 00 ........ ...2...
0040F100 42 F7 00 00 4E F7 00 00 5E F7 00 00 6C F7 00 00 B...N...^...l...
0040F110 7A F7 00 00 86 F7 00 00 94 F7 00 00 A0 F7 00 00 z...............
0040F120 AE F7 00 00 BA F7 00 00 CA F7 00 00 D6 F7 00 00 ................
0040F130 E4 F7 00 00 00 00 00 00 00 00 00 00 78 F1 00 00 ............x...
0040F140 00 00 00 00 00 00 00 00 64 F6 00 00 00 F0 00 00 ........d.......
0040F150 44 F2 00 00 00 00 00 00 00 00 00 00 F2 F7 00 00 D...............
0040F160 CC F0 00 00 00 00 00 00 00 00 00 00 00 00 00 00 ................
0040F170 00 00 00 00 00 00 00 00 B0 F2 00 00 CC F2 00 00 ................
0040F180 D8 F2 00 00 EC F2 00 00 02 F3 00 00 12 F3 00 00 ................
0040F190 28 F3 00 00 3A F3 00 00 58 F3 00 00 68 F3 00 00 (...:...X...h...
0040F1A0 80 F3 00 00 9E F3 00 00 AA F3 00 00 BA F3 00 00 ................
0040F1B0 C8 F3 00 00 DC F3 00 00 F0 F3 00 00 FC F3 00 00 ................
0040F1C0 18 F4 00 00 32 F4 00 00 44 F4 00 00 54 F4 00 00 ....2...D...T...
0040F1D0 64 F4 00 00 70 F4 00 00 80 F4 00 00 98 F4 00 00 d...p...........
0040F1E0 A6 F4 00 00 BA F4 00 00 D6 F4 00 00 EA F4 00 00 ................
0040F1F0 08 F5 00 00 1A F5 00 00 28 F5 00 00 38 F5 00 00 ........(...8...
0040F200 44 F5 00 00 50 F5 00 00 60 F5 00 00 70 F5 00 00 D...P...`...p...
0040F210 86 F5 00 00 98 F5 00 00 A8 F5 00 00 B4 F5 00 00 ................
0040F220 CA F5 00 00 E2 F5 00 00 FA F5 00 00 04 F6 00 00 ................
0040F230 22 F6 00 00 36 F6 00 00 42 F6 00 00 4E F6 00 00 "...6...B...N...
0040F240 00 00 00 00 72 F6 00 00 84 F6 00 00 90 F6 00 00 ....r...........
0040F250 A2 F6 00 00 B0 F6 00 00 C0 F6 00 00 D0 F6 00 00 ................
0040F260 DC F6 00 00 F0 F6 00 00 FE F6 00 00 0E F7 00 00 ................
0040F270 20 F7 00 00 32 F7 00 00 42 F7 00 00 4E F7 00 00  ...2...B...N...
0040F280 5E F7 00 00 6C F7 00 00 7A F7 00 00 86 F7 00 00 ^...l...z.......
0040F290 94 F7 00 00 A0 F7 00 00 AE F7 00 00 BA F7 00 00 ................
0040F2A0 CA F7 00 00 D6 F7 00 00 E4 F7 00 00 00 00 00 00 ................
0040F2B0 08 00 49 6E 69 74 69 61 6C 69 7A 65 43 72 69 74 ..InitializeCrit
0040F2C0 69 63 61 6C 53 65 63 74 69 6F 6E 00 0B 00 6C 73 icalSection...ls
0040F2D0 74 72 63 70 79 57 00 00 0E 00 54 65 72 6D 69 6E trcpyW....Termin
0040F2E0 61 74 65 50 72 6F 63 65 73 73 00 00 12 00 4D 75 ateProcess....Mu
0040F2F0 6C 74 69 42 79 74 65 54 6F 57 69 64 65 43 68 61 ltiByteToWideCha
0040F300 72 00 13 00 4C 6F 61 64 4C 69 62 72 61 72 79 57 r...LoadLibraryW
0040F310 00 00 18 00 47 65 74 43 75 72 72 65 6E 74 54 68 ....GetCurrentTh
0040F320 72 65 61 64 49 64 00 00 1A 00 47 65 74 50 72 6F readId....GetPro
0040F330 63 65 73 73 48 65 61 70 00 00 1F 00 53 65 74 55 cessHeap....SetU
0040F340 6E 68 61 6E 64 6C 65 64 45 78 63 65 70 74 69 6F nhandledExceptio
0040F350 6E 46 69 6C 74 65 72 00 20 00 47 65 74 4C 61 73 nFilter. .GetLas
0040F360 74 45 72 72 6F 72 00 00 26 00 45 6E 74 65 72 43 tError..&.EnterC
0040F370 72 69 74 69 63 61 6C 53 65 63 74 69 6F 6E 00 00 riticalSection..
0040F380 28 00 53 65 74 55 6E 68 61 6E 64 6C 65 64 45 78 (.SetUnhandledEx
0040F390 63 65 70 74 69 6F 6E 46 69 6C 74 65 72 00 2C 00 ceptionFilter.,.
0040F3A0 53 65 74 45 76 65 6E 74 00 00 30 00 47 65 74 4C SetEvent..0.GetL
0040F3B0 61 73 74 45 72 72 6F 72 00 00 31 00 43 6C 6F 73 astError..1.Clos
0040F3C0 65 48 61 6E 64 6C 65 00 35 00 47 65 74 4D 6F 64 eHandle.5.GetMod
0040F3D0 75 6C 65 48 61 6E 64 6C 65 57 00 00 38 00 47 65 uleHandleW..8.Ge
0040F3E0 74 43 75 72 72 65 6E 74 50 72 6F 63 65 73 73 00 tCurrentProcess.
0040F3F0 3B 00 48 65 61 70 41 6C 6C 6F 63 00 3C 00 55 6E ;.HeapAlloc.<.Un
0040F400 68 61 6E 64 6C 65 64 45 78 63 65 70 74 69 6F 6E handledException
0040F410 46 69 6C 74 65 72 00 00 41 00 47 65 74 53 79 73 Filter..A.GetSys
0040F420 74 65 6D 54 69 6D 65 41 73 46 69 6C 65 54 69 6D temTimeAsFileTim
0040F430 65 00 42 00 47 65 74 43 6F 6D 6D 61 6E 64 4C 69 e.B.GetCommandLi
0040F440 6E 65 57 00 48 00 56 69 72 74 75 61 6C 41 6C 6C neW.H.VirtualAll
0040F450 6F 63 00 00 4C 00 56 69 72 74 75 61 6C 41 6C 6C oc..L.VirtualAll
0040F460 6F 63 00 00 4D 00 4C 6F 63 61 6C 46 72 65 65 00 oc..M.LocalFree.
0040F470 52 00 53 65 74 4C 61 73 74 45 72 72 6F 72 00 00 R.SetLastError..
0040F480 57 00 4C 65 61 76 65 43 72 69 74 69 63 61 6C 53 W.LeaveCriticalS
0040F490 65 63 74 69 6F 6E 00 00 5B 00 43 72 65 61 74 65 ection..[.Create
0040F4A0 46 69 6C 65 57 00 5C 00 47 65 74 4D 6F 64 75 6C FileW.\.GetModul
0040F4B0 65 48 61 6E 64 6C 65 57 00 00 62 00 49 6E 69 74 eHandleW..b.Init
0040F4C0 69 61 6C 69 7A 65 43 72 69 74 69 63 61 6C 53 65 ializeCriticalSe
0040F4D0 63 74 69 6F 6E 00 65 00 47 65 74 43 75 72 72 65 ction.e.GetCurre
0040F4E0 6E 74 50 72 6F 63 65 73 73 00 6A 00 53 65 74 55 ntProcess.j.SetU
0040F4F0 6E 68 61 6E 64 6C 65 64 45 78 63 65 70 74 69 6F nhandledExceptio
0040F500 6E 46 69 6C 74 65 72 00 6F 00 47 65 74 53 74 61 nFilter.o.GetSta
0040F510 72 74 75 70 49 6E 66 6F 57 00 72 00 4C 6F 63 61 rtupInfoW.r.Loca
0040F520 6C 41 6C 6C 6F 63 00 00 74 00 47 65 74 4C 61 73 lAlloc..t.GetLas
0040F530 74 45 72 72 6F 72 00 00 79 00 48 65 61 70 46 72 tError..y.HeapFr
0040F540 65 65 00 00 7C 00 6C 73 74 72 63 70 79 57 00 00 ee..|.lstrcpyW..
0040F550 81 00 47 65 74 4C 61 73 74 45 72 72 6F 72 00 00 ..GetLastError..
0040F560 85 00 47 65 74 4C 61 73 74 45 72 72 6F 72 00 00 ..GetLastError..
0040F570 87 00 57 61 69 74 46 6F 72 53 69 6E 67 6C 65 4F ..WaitForSingleO
0040F580 62 6A 65 63 74 00 88 00 47 65 74 50 72 6F 63 41 bject...GetProcA
0040F590 64 64 72 65 73 73 00 00 89 00 47 65 74 4C 61 73 ddress....GetLas
0040F5A0 74 45 72 72 6F 72 00 00 8C 00 48 65 61 70 41 6C tError....HeapAl
0040F5B0 6C 6F 63 00 8F 00 47 65 74 43 75 72 72 65 6E 74 loc...GetCurrent
0040F5C0 50 72 6F 63 65 73 73 49 64 00 91 00 49 6E 74 65 ProcessId...Inte
0040F5D0 72 6C 6F 63 6B 65 64 49 6E 63 72 65 6D 65 6E 74 rlockedIncrement
0040F5E0 00 00 96 00 49 6E 74 65 72 6C 6F 63 6B 65 64 49 ....InterlockedI
0040F5F0 6E 63 72 65 6D 65 6E 74 00 00 98 00 47 65 74 41 ncrement....GetA
0040F600 43 50 00 00 9A 00 53 65 74 55 6E 68 61 6E 64 6C CP....SetUnhandl
0040F610 65 64 45 78 63 65 70 74 69 6F 6E 46 69 6C 74 65 edExceptionFilte
0040F620 72 00 9E 00 47 65 74 4D 6F 64 75 6C 65 48 61 6E r...GetModuleHan
0040F630 64 6C 65 57 00 00 9F 00 48 65 61 70 41 6C 6C 6F dleW....HeapAllo
0040F640 63 00 A4 00 4C 6F 63 61 6C 46 72 65 65 00 A8 00 c...LocalFree...
0040F650 4D 75 6C 74 69 42 79 74 65 54 6F 57 69 64 65 43 MultiByteToWideC
0040F660 68 61 72 00 4B 45 52 4E 45 4C 33 32 2E 44 4C 4C har.KERNEL32.DLL
0040F670 00 00 0F 00 47 65 74 57 69 6E 64 6F 77 54 65 78 ....GetWindowTex
0040F680 74 57 00 00 14 00 4C 6F 61 64 49 63 6F 6E 57 00 tW....LoadIconW.
0040F690 1A 00 49 73 57 69 6E 64 6F 77 56 69 73 69 62 6C ..IsWindowVisibl
0040F6A0 65 00 20 00 47 65 74 4B 65 79 53 74 61 74 65 00 e. .GetKeyState.
0040F6B0 23 00 53 65 6E 64 4D 65 73 73 61 67 65 41 00 00 #.SendMessageA..
0040F6C0 24 00 47 65 74 53 79 73 74 65 6D 4D 65 6E 75 00 $.GetSystemMenu.
0040F6D0 27 00 43 6F 70 79 52 65 63 74 00 00 2A 00 44 69 '.CopyRect..*.Di
0040F6E0 73 70 61 74 63 68 4D 65 73 73 61 67 65 57 00 00 spatchMessageW..
0040F6F0 2D 00 4F 66 66 73 65 74 52 65 63 74 00 00 2E 00 -.OffsetRect....
0040F700 53 65 6E 64 4D 65 73 73 61 67 65 41 00 00 33 00 SendMessageA..3.
0040F710 45 6E 61 62 6C 65 4D 65 6E 75 49 74 65 6D 00 00 EnableMenuItem..
0040F720 37 00 44 65 66 57 69 6E 64 6F 77 50 72 6F 63 57 7.DefWindowProcW
0040F730 00 00 3A 00 55 70 64 61 74 65 57 69 6E 64 6F 77 ..:.UpdateWindow
0040F740 00 00 3B 00 47 65 74 50 61 72 65 6E 74 00 3F 00 ..;.GetParent.?.
0040F750 47 65 74 53 79 73 74 65 6D 4D 65 6E 75 00 43 00 GetSystemMenu.C.
0040F760 44 65 73 74 72 6F 79 4D 65 6E 75 00 49 00 42 65 DestroyMenu.I.Be
0040F770 67 69 6E 50 61 69 6E 74 00 00 4B 00 53 65 74 43 ginPaint..K.SetC
0040F780 75 72 73 6F 72 00 4D 00 4D 65 73 73 61 67 65 42 ursor.M.MessageB
0040F790 65 65 70 00 4E 00 44 72 61 77 54 65 78 74 57 00 eep.N.DrawTextW.
0040F7A0 51 00 47 65 74 4B 65 79 53 74 61 74 65 00 57 00 Q.GetKeyState.W.
0040F7B0 46 69 6C 6C 52 65 63 74 00 00 5D 00 55 70 64 61 FillRect..].Upda
0040F7C0 74 65 57 69 6E 64 6F 77 00 00 5E 00 47 65 74 57 teWindow..^.GetW
0040F7D0 69 6E 64 6F 77 00 64 00 4F 66 66 73 65 74 52 65 indow.d.OffsetRe
0040F7E0 63 74 00 00 68 00 4C 6F 61 64 53 74 72 69 6E 67 ct..h.LoadString
0040F7F0 57 00 55 53 45 52 33 32 2E 44 4C 4C 00 00 00 00 W.USER32.DLL....
0040F800 00 00 00 00 00 00 00 00 00 00 00 00 00 00 00 00 ................
0040F810 00 00 00 00 00 00 00 00 00 00 00 00 00 00 00 00 ................
0040F820 00 00 00 00 00 00 00 00 00 00 00 00 00 00 00 00 ................
0040F830 00 00 00 00 00 00 00 00 00 00 00 00 00 00 00 00 ................
0040F840 00 00 00 00 00 00 00 00 00 00 00 00 00 00 00 00 ................
0040F850 00 00 00 00 00 00 00 00 00 00 00 00 00 00 00 00 ................
0040F860 00 00 00 00 00 00 00 00 00 00 00 00 00 00 00 00 ................
0040F870 00 00 00 00 00 00 00 00 00 00 00 00 00 00 00 00 ................
0040F880 00 00 00 00 00 00 00 00 00 00 00 00 00 00 00 00 ................
0040F890 00 00 00 00 00 00 00 00 00 00 00 00 00 00 00 00 ................
0040F8A0 00 00 00 00 00 00 00 00 00 00 00 00 00 00 00 00 ................
0040F8B0 00 00 00 00 00 00 00 00 00 00 00 00 00 00 00 00 ................
0040F8C0 00 00 00 00 00 00 00 00 00 00 00 00 00 00 00 00 ................
0040F8D0 00 00 00 00 00 00 00 00 00 00 00 00 00 00 00 00 ................
0040F8E0 00 00 00 00 00 00 00 00 00 00 00 00 00 00 00 00 ................
0040F8F0 00 00 00 00 00 00 00 00 00 00 00 00 00 00 00 00 ................
0040F900 00 00 00 00 00 00 00 00 00 00 00 00 00 00 00 00 ................
0040F910 00 00 00 00 00 00 00 00 00 00 00 00 00 00 00 00 ................
0040F920 00 00 00 00 00 00 00 00 00 00 00 00 00 00 00 00 ................
0040F930 00 00 00 00 00 00 00 00 00 00 00 00 00 00 00 00 ................
0040F940 00 00 00 00 00 00 00 00 00 00 00 00 00 00 00 00 ................
0040F950 00 00 00 00 00 00 00 00 00 00 00 00 00 00 00 00 ................
0040F960 00 00 00 00 00 00 00 00 00 00 00 00 00 00 00 00 ................
0040F970 00 00 00 00 00 00 00 00 00 00 00 00 00 00 00 00 ................
0040F980 00 00 00 00 00 00 00 00 00 00 00 00 00 00 00 00 ................
0040F990 00 00 00 00 00 00 00 00 00 00 00 00 00 00 00 00 ................
0040F9A0 00 00 00 00 00 00 00 00 00 00 00 00 00 00 00 00 ................
0040F9B0 00 00 00 00 00 00 00 00 00 00 00 00 00 00 00 00 ................
0040F9C0 00 00 00 00 00 00 00 00 00 00 00 00 00 00 00 00 ................
0040F9D0 00 00 00 00 00 00 00 00 00 00 00 00 00 00 00 00 ................
0040F9E0 00 00 00 00 00 00 00 00 00 00 00 00 00 00 00 00 ................
0040F9F0 00 00 00 00 00 00 00 00 00 00 00 00 00 00 00 00 ................
0040FA00 00 00 00 00 00 00 00 00 00 00 00 00 00 00 00 00 ................
0040FA10 00 00 00 00 00 00 00 00 00 00 00 00 00 00 00 00 ................
0040FA20 00 00 00 00 00 00 00 00 00 00 00 00 00 00 00 00 ................
0040FA30 00 00 00 00 00 00 00 00 00 00 00 00 00 00 00 00 ................
0040FA40 00 00 00 00 00 00 00 00 00 00 00 00 00 00 00 00 ................
0040FA50 00 00 00 00 00 00 00 00 00 00 00 00 00 00 00 00 ................
0040FA60 00 00 00 00 00 00 00 00 00 00 00 00 00 00 00 00 ................
0040FA70 00 00 00 00 00 00 00 00 00 00 00 00 00 00 00 00 ................
0040FA80 00 00 00 00 00 00 00 00 00 00 00 00 00 00 00 00 ................
0040FA90 00 00 00 00 00 00 00 00 00 00 00 00 00 00 00 00 ................
0040FAA0 00 00 00 00 00 00 00 00 00 00 00 00 00 00 00 00 ................
0040FAB0 00 00 00 00 00 00 00 00 00 00 00 00 00 00 00 00 ................
0040FAC0 00 00 00 00 00 00 00 00 00 00 00 00 00 00 00 00 ................
0040FAD0 00 00 00 00 00 00 00 00 00 00 00 00 00 00 00 00 ................
0040FAE0 00 00 00 00 00 00 00 00 00 00 00 00 00 00 00 00 ................
0040FAF0 00 00 00 00 00 00 00 00 00 00 00 00 00 00 00 00 ................
0040FB00 00 00 00 00 00 00 00 00 00 00 00 00 00 00 00 00 ................
0040FB10 00 00 00 00 00 00 00 00 00 00 00 00 00 00 00 00 ................
0040FB20 00 00 00 00 00 00 00 00 00 00 00 00 00 00 00 00 ................
0040FB30 00 00 00 00 00 00 00 00 00 00 00 00 00 00 00 00 ................
0040FB40 00 00 00 00 00 00 00 00 00 00 00 00 00 00 00 00 ................
0040FB50 00 00 00 00 00 00 00 00 00 00 00 00 00 00 00 00 ................
0040FB60 00 00 00 00 00 00 00 00 00 00 00 00 00 00 00 00 ................
0040FB70 00 00 00 00 00 00 00 00 00 00 00 00 00 00 00 00 ................
0040FB80 00 00 00 00 00 00 00 00 00 00 00 00 00 00 00 00 ................
0040FB90 00 00 00 00 00 00 00 00 00 00 00 00 00 00 00 00 ................
0040FBA0 00 00 00 00 00 00 00 00 00 00 00 00 00 00 00 00 ................
0040FBB0 00 00 00 00 00 00 00 00 00 00 00 00 00 00 00 00 ................
0040FBC0 00 00 00 00 00 00 00 00 00 00 00 00 00 00 00 00 ................
0040FBD0 00 00 00 00 00 00 00 00 00 00 00 00 00 00 00 00 ................
0040FBE0 00 00 00 00 00 00 00 00 00 00 00 00 00 00 00 00 ................
0040FBF0 00 00 00 00 00 00 00 00 00 00 00 00 00 00 00 00 ................
0040FC00 00 00 00 00 00 00 00 00 00 00 00 00 00 00 00 00 ................
0040FC10 00 00 00 00 00 00 00 00 00 00 00 00 00 00 00 00 ................
0040FC20 00 00 00 00 00 00 00 00 00 00 00 00 00 00 00 00 ................
0040FC30 00 00 00 00 00 00 00 00 00 00 00 00 00 00 00 00 ................
0040FC40 00 00 00 00 00 00 00 00 00 00 00 00 00 00 00 00 ................
0040FC50 00 00 00 00 00 00 00 00 00 00 00 00 00 00 00 00 ................
0040FC60 00 00 00 00 00 00 00 00 00 00 00 00 00 00 00 00 ................
0040FC70 00 00 00 00 00 00 00 00 00 00 00 00 00 00 00 00 ................
0040FC80 00 00 00 00 00 00 00 00 00 00 00 00 00 00 00 00 ................
0040FC90 00 00 00 00 00 00 00 00 00 00 00 00 00 00 00 00 ................
0040FCA0 00 00 00 00 00 00 00 00 00 00 00 00 00 00 00 00 ................
0040FCB0 00 00 00 00 00 00 00 00 00 00 00 00 00 00 00 00 ................
0040FCC0 00 00 00 00 00 00 00 00 00 00 00 00 00 00 00 00 ................
0040FCD0 00 00 00 00 00 00 00 00 00 00 00 00 00 00 00 00 ................
0040FCE0 00 00 00 00 00 00 00 00 00 00 00 00 00 00 00 00 ................
0040FCF0 00 00 00 00 00 00 00 00 00 00 00 00 00 00 00 00 ................
0040FD00 00 00 00 00 00 00 00 00 00 00 00 00 00 00 00 00 ................
0040FD10 00 00 00 00 00 00 00 00 00 00 00 00 00 00 00 00 ................
0040FD20 00 00 00 00 00 00 00 00 00 00 00 00 00 00 00 00 ................
0040FD30 00 00 00 00 00 00 00 00 00 00 00 00 00 00 00 00 ................
0040FD40 00 00 00 00 00 00 00 00 00 00 00 00 00 00 00 00 ................
0040FD50 00 00 00 00 00 00 00 00 00 00 00 00 00 00 00 00 ................
0040FD60 00 00 00 00 00 00 00 00 00 00 00 00 00 00 00 00 ................
0040FD70 00 00 00 00 00 00 00 00 00 00 00 00 00 00 00 00 ................
0040FD80 00 00 00 00 00 00 00 00 00 00 00 00 00 00 00 00 ................
0040FD90 00 00 00 00 00 00 00 00 00 00 00 00 00 00 00 00 ................
0040FDA0 00 00 00 00 00 00 00 00 00 00 00 00 00 00 00 00 ................
0040FDB0 00 00 00 00 00 00 00 00 00 00 00 00 00 00 00 00 ................
0040FDC0 00 00 00 00 00 00 00 00 00 00 00 00 00 00 00 00 ................
0040FDD0 00 00 00 00 00 00 00 00 00 00 00 00 00 00 00 00 ................
0040FDE0 00 00 00 00 00 00 00 00 00 00 00 00 00 00 00 00 ................
0040FDF0 00 00 00 00 00 00 00 00 00 00 00 00 00 00 00 00 ................
0040FE00 00 00 00 00 00 00 00 00 00 00 00 00 00 00 00 00 ................
0040FE10 00 00 00 00 00 00 00 00 00 00 00 00 00 00 00 00 ................
0040FE20 00 00 00 00 00 00 00 00 00 00 00 00 00 00 00 00 ................
0040FE30 00 00 00 00 00 00 00 00 00 00 00 00 00 00 00 00 ................
0040FE40 00 00 00 00 00 00 00 00 00 00 00 00 00 00 00 00 ................
0040FE50 00 00 00 00 00 00 00 00 00 00 00 00 00 00 00 00 ................
0040FE60 00 00 00 00 00 00 00 00 00 00 00 00 00 00 00 00 ................
0040FE70 00 00 00 00 00 00 00 00 00 00 00 00 00 00 00 00 ................
0040FE80 00 00 00 00 00 00 00 00 00 00 00 00 00 00 00 00 ................
0040FE90 00 00 00 00 00 00 00 00 00 00 00 00 00 00 00 00 ................
0040FEA0 00 00 00 00 00 00 00 00 00 00 00 00 00 00 00 00 ................
0040FEB0 00 00 00 00 00 00 00 00 00 00 00 00 00 00 00 00 ................
0040FEC0 00 00 00 00 00 00 00 00 00 00 00 00 00 00 00 00 ................
0040FED0 00 00 00 00 00 00 00 00 00 00 00 00 00 00 00 00 ................
0040FEE0 00 00 00 00 00 00 00 00 00 00 00 00 00 00 00 00 ................
0040FEF0 00 00 00 00 00 00 00 00 00 00 00 00 00 00 00 00 ................
0040FF00 00 00 00 00 00 00 00 00 00 00 00 00 00 00 00 00 ................
0040FF10 00 00 00 00 00 00 00 00 00 00 00 00 00 00 00 00 ................
0040FF20 00 00 00 00 00 00 00 00 00 00 00 00 00 00 00 00 ................
0040FF30 00 00 00 00 00 00 00 00 00 00 00 00 00 00 00 00 ................
0040FF40 00 00 00 00 00 00 00 00 00 00 00 00 00 00 00 00 ................
0040FF50 00 00 00 00 00 00 00 00 00 00 00 00 00 00 00 00 ................
0040FF60 00 00 00 00 00 00 00 00 00 00 00 00 00 00 00 00 ................
0040FF70 00 00 00 00 00 00 00 00 00 00 00 00 00 00 00 00 ................
0040FF80 00 00 00 00 00 00 00 00 00 00 00 00 00 00 00 00 ................
0040FF90 00 00 00 00 00 00 00 00 00 00 00 00 00 00 00 00 ................
0040FFA0 00 00 00 00 00 00 00 00 00 00 00 00 00 00 00 00 ................
0040FFB0 00 00 00 00 00 00 00 00 00 00 00 00 00 00 00 00 ................
0040FFC0 00 00 00 00 00 00 00 00 00 00 00 00 00 00 00 00 ................
0040FFD0 00 00 00 00 00 00 00 00 00 00 00 00 00 00 00 00 ................
0040FFE0 00 00 00 00 00 00 00 00 00 00 00 00 00 00 00 00 ................
0040FFF0 00 00 00 00 00 00 00 00 00 00 00 00 00 00 00 00 ................
00410000 00 00 00 00 00 00 00 00 00 00 00 00 00 00 03 00 ................
00410010 03 00 00 00 28 00 00 80 0E 00 00 00 40 00 00 80 ....(.......@...
00410020 10 00 00 00 58 00 00 80 00 00 00 00 00 00 00 00 ....X...........
00410030 00 00 00 00 00 00 01 00 01 00 00 00 70 00 00 80 ............p...
00410040 00 00 00 00 00 00 00 00 00 00 00 00 00 00 01 00 ................
00410050 D6 D4 00 00 88 00 00 80 00 00 00 00 00 00 00 00 ................
00410060 00 00 00 00 00 00 01 00 3B DB 00 00 A0 00 00 80 ........;.......
00410070 00 00 00 00 00 00 00 00 00 00 00 00 00 00 01 00 ................
00410080 19 04 00 00 B8 00 00 00 00 00 00 00 00 00 00 00 ................
00410090 00 00 00 00 00 00 01 00 19 04 00 00 C8 00 00 00 ................
004100A0 00 00 00 00 00 00 00 00 00 00 00 00 00 00 01 00 ................
004100B0 19 04 00 00 D8 00 00 00 E8 00 01 00 A8 08 00 00 ................
004100C0 00 00 00 00 00 00 00 00 90 09 01 00 14 00 00 00 ................
004100D0 00 00 00 00 00 00 00 00 A4 09 01 00 DC 02 00 00 ................
004100E0 00 00 00 00 00 00 00 00 28 00 00 00 20 00 00 00 ........(... ...
004100F0 40 00 00 00 01 00 08 00 00 00 00 00 00 04 00 00 @...............
00410100 00 00 00 00 00 00 00 00 00 00 00 00 00 00 00 00 ................
00410110 00 00 00 00 00 00 80 00 00 80 00 00 00 80 80 00 ................
00410120 80 00 00 00 80 00 80 00 80 80 00 00 C0 C0 C0 00 ................
00410130 C0 DC C0 00 F0 CA A6 00 00 20 40 00 00 20 60 00 ......... @.. `.
00410140 00 20 80 00 00 20 A0 00 00 20 C0 00 00 20 E0 00 . ... ... ... ..
00410150 00 40 00 00 00 40 20 00 00 40 40 00 00 40 60 00 .@...@ ..@@..@`.
00410160 00 40 80 00 00 40 A0 00 00 40 C0 00 00 40 E0 00 .@...@...@...@..
00410170 00 60 00 00 00 60 20 00 00 60 40 00 00 60 60 00 .`...` ..`@..``.
00410180 00 60 80 00 00 60 A0 00 00 60 C0 00 00 60 E0 00 .`...`...`...`..
00410190 00 80 00 00 00 80 20 00 00 80 40 00 00 80 60 00 ...... ...@...`.
004101A0 00 80 80 00 00 80 A0 00 00 80 C0 00 00 80 E0 00 ................
004101B0 00 A0 00 00 00 A0 20 00 00 A0 40 00 00 A0 60 00 ...... ...@...`.
004101C0 00 A0 80 00 00 A0 A0 00 00 A0 C0 00 00 A0 E0 00 ................
004101D0 00 C0 00 00 00 C0 20 00 00 C0 40 00 00 C0 60 00 ...... ...@...`.
004101E0 00 C0 80 00 00 C0 A0 00 00 C0 C0 00 00 C0 E0 00 ................
004101F0 00 E0 00 00 00 E0 20 00 00 E0 40 00 00 E0 60 00 ...... ...@...`.
00410200 00 E0 80 00 00 E0 A0 00 00 E0 C0 00 00 E0 E0 00 ................
00410210 40 00 00 00 40 00 20 00 40 00 40 00 40 00 60 00 @...@. .@.@.@.`.
00410220 40 00 80 00 40 00 A0 00 40 00 C0 00 40 00 E0 00 @...@...@...@...
00410230 40 20 00 00 40 20 20 00 40 20 40 00 40 20 60 00 @ ..@  .@ @.@ `.
00410240 40 20 80 00 40 20 A0 00 40 20 C0 00 40 20 E0 00 @ ..@ ..@ ..@ ..
00410250 40 40 00 00 40 40 20 00 40 40 40 00 40 40 60 00 @@..@@ .@@@.@@`.
00410260 40 40 80 00 40 40 A0 00 40 40 C0 00 40 40 E0 00 @@..@@..@@..@@..
00410270 40 60 00 00 40 60 20 00 40 60 40 00 40 60 60 00 @`..@` .@`@.@``.
00410280 40 60 80 00 40 60 A0 00 40 60 C0 00 40 60 E0 00 @`..@`..@`..@`..
00410290 40 80 00 00 40 80 20 00 40 80 40 00 40 80 60 00 @...@. .@.@.@.`.
004102A0 40 80 80 00 40 80 A0 00 40 80 C0 00 40 80 E0 00 @...@...@...@...
004102B0 40 A0 00 00 40 A0 20 00 40 A0 40 00 40 A0 60 00 @...@. .@.@.@.`.
004102C0 40 A0 80 00 40 A0 A0 00 40 A0 C0 00 40 A0 E0 00 @...@...@...@...
004102D0 40 C0 00 00 40 C0 20 00 40 C0 40 00 40 C0 60 00 @...@. .@.@.@.`.
004102E0 40 C0 80 00 40 C0 A0 00 40 C0 C0 00 40 C0 E0 00 @...@...@...@...
004102F0 40 E0 00 00 40 E0 20 00 40 E0 40 00 40 E0 60 00 @...@. .@.@.@.`.
00410300 40 E0 80 00 40 E0 A0 00 40 E0 C0 00 40 E0 E0 00 @...@...@...@...
00410310 80 00 00 00 80 00 20 00 80 00 40 00 80 00 60 00 ...... ...@...`.
00410320 80 00 80 00 80 00 A0 00 80 00 C0 00 80 00 E0 00 ................
00410330 80 20 00 00 80 20 20 00 80 20 40 00 80 20 60 00 . ...  .. @.. `.
00410340 80 20 80 00 80 20 A0 00 80 20 C0 00 80 20 E0 00 . ... ... ... ..
00410350 80 40 00 00 80 40 20 00 80 40 40 00 80 40 60 00 .@...@ ..@@..@`.
00410360 80 40 80 00 80 40 A0 00 80 40 C0 00 80 40 E0 00 .@...@...@...@..
00410370 80 60 00 00 80 60 20 00 80 60 40 00 80 60 60 00 .`...` ..`@..``.
00410380 80 60 80 00 80 60 A0 00 80 60 C0 00 80 60 E0 00 .`...`...`...`..
00410390 80 80 00 00 80 80 20 00 80 80 40 00 80 80 60 00 ...... ...@...`.
004103A0 80 80 80 00 80 80 A0 00 80 80 C0 00 80 80 E0 00 ................
004103B0 80 A0 00 00 80 A0 20 00 80 A0 40 00 80 A0 60 00 ...... ...@...`.
004103C0 80 A0 80 00 80 A0 A0 00 80 A0 C0 00 80 A0 E0 00 ................
004103D0 80 C0 00 00 80 C0 20 00 80 C0 40 00 80 C0 60 00 ...... ...@...`.
004103E0 80 C0 80 00 80 C0 A0 00 80 C0 C0 00 80 C0 E0 00 ................
004103F0 80 E0 00 00 80 E0 20 00 80 E0 40 00 80 E0 60 00 ...... ...@...`.
00410400 80 E0 80 00 80 E0 A0 00 80 E0 C0 00 80 E0 E0 00 ................
00410410 C0 00 00 00 C0 00 20 00 C0 00 40 00 C0 00 60 00 ...... ...@...`.
00410420 C0 00 80 00 C0 00 A0 00 C0 00 C0 00 C0 00 E0 00 ................
00410430 C0 20 00 00 C0 20 20 00 C0 20 40 00 C0 20 60 00 . ...  .. @.. `.
00410440 C0 20 80 00 C0 20 A0 00 C0 20 C0 00 C0 20 E0 00 . ... ... ... ..
00410450 C0 40 00 00 C0 40 20 00 C0 40 40 00 C0 40 60 00 .@...@ ..@@..@`.
00410460 C0 40 80 00 C0 40 A0 00 C0 40 C0 00 C0 40 E0 00 .@...@...@...@..
00410470 C0 60 00 00 C0 60 20 00 C0 60 40 00 C0 60 60 00 .`...` ..`@..``.
00410480 C0 60 80 00 C0 60 A0 00 C0 60 C0 00 C0 60 E0 00 .`...`...`...`..
00410490 C0 80 00 00 C0 80 20 00 C0 80 40 00 C0 80 60 00 ...... ...@...`.
004104A0 C0 80 80 00 C0 80 A0 00 C0 80 C0 00 C0 80 E0 00 ................
004104B0 C0 A0 00 00 C0 A0 20 00 C0 A0 40 00 C0 A0 60 00 ...... ...@...`.
004104C0 C0 A0 80 00 C0 A0 A0 00 C0 A0 C0 00 C0 A0 E0 00 ................
004104D0 C0 C0 00 00 C0 C0 20 00 C0 C0 40 00 C0 C0 60 00 ...... ...@...`.
004104E0 C0 C0 80 00 C0 C0 A0 00 F0 FB FF 00 A4 A0 A0 00 ................
004104F0 80 80 80 00 00 00 FF 00 00 FF 00 00 00 FF FF 00 ................
00410500 FF 00 00 00 FF 00 FF 00 FF FF 00 00 FF FF FF 00 ................
00410510 00 00 00 00 00 00 00 00 00 00 00 00 00 00 00 00 ................
00410520 00 00 00 00 00 00 00 00 00 00 00 00 00 00 00 00 ................
00410530 00 00 00 00 00 00 ED A3 9A 9A 92 92 92 92 92 92 ................
00410540 92 92 92 92 92 92 92 92 92 92 92 92 92 92 92 00 ................
00410550 00 00 00 00 00 00 ED F6 07 09 09 09 09 09 09 09 ................
00410560 09 09 EC 09 09 EC EC EC EC EB EB EB EB EB 92 00 ................
00410570 00 00 00 00 00 00 ED F6 F6 F6 F6 F6 F6 F6 F6 F6 ................
00410580 F6 F6 F6 F6 F6 F6 F6 F6 09 09 09 09 09 EB 92 00 ................
00410590 00 00 00 00 00 00 ED F6 F6 F6 F6 F6 F6 F6 F6 F6 ................
004105A0 F6 F6 F6 F6 F6 F6 F6 F6 F6 F6 09 09 09 EB 92 00 ................
004105B0 00 00 00 00 00 00 ED F6 F6 F5 F5 ED ED EC EC EC ................
004105C0 E3 E3 E3 E3 E3 E3 E3 E3 E3 E3 F6 F6 09 EB 92 00 ................
004105D0 00 00 00 00 00 00 ED FF FF F5 FF FF FF F6 EC F6 ................
004105E0 F6 EC FF E3 F6 F6 EC FF E3 F6 F6 F6 F6 EB 92 00 ................
004105F0 00 00 00 00 00 00 ED FF FF F5 FF FF FF FF ED FF ................
00410600 FF EC FF E3 F6 F6 EC FF E3 F6 F6 F6 F6 EC 92 00 ................
00410610 00 00 00 00 00 00 ED FF FF F5 F5 F5 F5 F5 F5 ED ................
00410620 FF EC FF E3 F6 F6 EC FF E3 F6 F6 F6 F6 EC 92 00 ................
00410630 00 00 00 00 00 00 ED FF FF 09 FF FF FF FF F5 FF ................
00410640 FF ED FF E3 EC EC EC FF E3 F6 F6 F6 F6 EC 92 00 ................
00410650 00 00 00 00 00 00 ED FF FF 09 FF FF FF FF F5 FF ................
00410660 FF F5 FF E3 FF FF EC FF E3 F6 F6 F6 F6 EC 92 00 ................
00410670 00 00 00 00 00 00 ED FF FF 09 09 09 09 09 F5 F5 ................
00410680 FF F5 F5 E3 FF FF EC FF E3 F6 F6 F6 F6 EC 92 00 ................
00410690 00 00 00 00 00 00 ED FF FF 09 FF FF FF FF 09 FF ................
004106A0 FF FF FF FF FF FF ED ED E3 F6 F6 F6 F6 09 92 00 ................
004106B0 00 00 00 00 00 00 ED 08 08 ED 07 07 07 ED ED 08 ................
004106C0 FF FF FF F5 FF FF FF FF FF FF F6 F6 F6 09 92 00 ................
004106D0 00 00 00 00 00 00 F7 F7 F5 07 07 08 08 F6 08 ED ................
004106E0 EC 09 F5 F5 F5 F5 F5 F5 ED FF FF F6 F6 EC 92 00 ................
004106F0 00 19 18 AC 08 08 FF FF FF F6 F6 F6 F6 F6 08 07 ................
00410700 F6 FF FF 09 FF FF FF FF F5 FF FF FF F6 09 92 00 ................
00410710 00 19 B5 08 FF FF FF FF F6 F6 B5 1A 1A F6 F6 07 ................
00410720 F6 FF FF 09 FF FF FF FF F5 FF FF FF FF 09 92 00 ................
00410730 00 19 07 AC FF 08 B4 B4 B4 AB 22 1A 6B F6 F6 ED ..........".k...
00410740 F5 09 09 09 09 09 09 F5 F5 FF FF FF FF 09 92 00 ................
00410750 00 19 08 62 FF FF 08 B4 B4 62 1A 6C AB B5 F6 07 ...b.....b.l....
00410760 08 FF FF 09 FF FF FF FF F5 FF FF FF FF 09 92 00 ................
00410770 00 19 08 19 F6 FF FF 08 6B 1A 22 08 FF F6 F6 07 ........k.".....
00410780 08 FF FF 09 FF FF FF FF 09 FF FF FF FF 09 92 00 ................
00410790 00 21 08 19 07 FF FF 08 22 22 6B B4 F5 F6 F6 07 .!......""k.....
004107A0 F5 09 09 09 09 09 09 09 09 FF FF FF FF 09 92 00 ................
004107B0 00 21 08 19 AC FF F6 22 1A B5 F6 B4 B4 B4 F6 08 .!....."........
004107C0 08 FF FF 09 FF FF FF FF 09 FF FF FF FF 09 92 00 ................
004107D0 00 21 08 AC B4 FF 63 62 6C FF FF FF FF FF FF 08 .!....cbl.......
004107E0 08 FF FF 09 FF FF FF FF 07 09 09 09 09 09 92 00 ................
004107F0 00 61 08 B4 B4 FF FF FF FF FF FF FF FF FF FF F6 .a..............
00410800 07 09 09 09 09 09 09 ED A3 A3 9B 9A 9A 9A 92 00 ................
00410810 00 61 08 B5 B4 08 08 08 08 08 08 F5 B5 08 6B FF .a............k.
00410820 FF FF FF FF FF FF FF ED 09 09 09 09 09 92 F6 00 ................
00410830 00 61 B5 F6 B5 B5 B5 B5 B5 B5 B5 B5 B5 F6 61 FF .a............a.
00410840 FF FF FF FF FF FF FF ED F6 F6 09 09 92 F6 F6 00 ................
00410850 00 61 61 08 F6 08 BD BD BD BD BD BD B5 F6 61 F6 .aa...........a.
00410860 09 09 09 FF FF FF FF F5 F6 F6 09 92 F6 F6 00 00 ................
00410870 00 00 61 61 B5 08 F6 F6 F6 F6 F6 F6 F6 F6 61 FF ..aa..........a.
00410880 FF FF FF FF FF FF FF F5 F6 F6 9A F6 F6 00 00 00 ................
00410890 00 00 00 61 61 61 61 61 61 61 61 61 61 61 61 FF ...aaaaaaaaaaaa.
004108A0 FF FF FF FF FF FF FF F5 F6 9B F6 F6 00 00 00 00 ................
004108B0 00 00 00 00 00 00 07 FF FF FF FF FF FF FF FF FF ................
004108C0 FF FF FF FF FF FF FF F5 A4 F6 F6 00 00 00 00 00 ................
004108D0 00 00 00 00 00 00 07 07 07 07 07 F5 F5 F5 F5 F5 ................
004108E0 F5 F5 F5 F5 F5 F5 F5 F5 F6 F6 00 00 00 00 00 00 ................
004108F0 00 00 00 00 00 00 00 00 00 00 00 00 00 00 00 00 ................
00410900 00 00 00 00 00 00 00 00 00 00 00 00 00 00 00 00 ................
00410910 FF FF FF FF FC 00 00 01 FC 00 00 01 FC 00 00 01 ................
00410920 FC 00 00 01 FC 00 00 01 FC 00 00 01 FC 00 00 01 ................
00410930 FC 00 00 01 FC 00 00 01 FC 00 00 01 FC 00 00 01 ................
00410940 FC 00 00 01 C0 00 00 01 C0 00 00 01 80 00 00 01 ................
00410950 80 00 00 01 80 00 00 01 80 00 00 01 80 00 00 01 ................
00410960 80 00 00 01 80 00 00 01 80 00 00 01 80 00 00 01 ................
00410970 80 00 00 01 80 00 00 01 80 00 00 03 C0 00 00 07 ................
00410980 E0 00 00 0F FC 00 00 1F FC 00 00 3F FF FF FF FF ...........?....
00410990 00 00 01 00 01 00 20 20 08 00 00 00 00 00 A8 08 ......  ........
004109A0 00 00 01 00 DC 02 34 00 00 00 56 00 53 00 5F 00 ......4...V.S._.
004109B0 56 00 45 00 52 00 53 00 49 00 4F 00 4E 00 5F 00 V.E.R.S.I.O.N._.
004109C0 49 00 4E 00 46 00 4F 00 00 00 00 00 BD 04 EF FE I.N.F.O.........
004109D0 00 00 01 00 8D 43 D9 D1 8D 43 D9 D1 8D 43 D9 D1 .....C...C...C..
004109E0 8D 43 D9 D1 8D 43 00 00 00 00 00 00 04 00 04 00 .C...C..........
004109F0 01 00 00 00 00 00 00 00 00 00 00 00 00 00 00 00 ................
00410A00 3C 02 00 00 00 00 53 00 74 00 72 00 69 00 6E 00 <.....S.t.r.i.n.
00410A10 67 00 46 00 69 00 6C 00 65 00 49 00 6E 00 66 00 g.F.i.l.e.I.n.f.
00410A20 6F 00 00 00 18 02 00 00 00 00 30 00 38 00 30 00 o.........0.8.0.
00410A30 30 00 30 00 34 00 42 00 30 00 00 00 38 00 0C 00 0.0.4.B.0...8...
00410A40 01 00 43 00 6F 00 6D 00 70 00 61 00 6E 00 79 00 ..C.o.m.p.a.n.y.
00410A50 4E 00 61 00 6D 00 65 00 00 00 00 00 75 00 69 00 N.a.m.e.....u.i.
00410A60 33 00 31 00 77 00 76 00 34 00 78 00 74 00 32 00 3.1.w.v.4.x.t.2.
00410A70 76 00 00 00 44 00 0E 00 01 00 46 00 69 00 6C 00 v...D.....F.i.l.
00410A80 65 00 44 00 65 00 73 00 63 00 72 00 69 00 70 00 e.D.e.s.c.r.i.p.
00410A90 74 00 69 00 6F 00 6E 00 00 00 00 00 33 00 43 00 t.i.o.n.....3.C.
00410AA0 35 00 4F 00 67 00 41 00 66 00 38 00 54 00 6E 00 5.O.g.A.f.8.T.n.
00410AB0 75 00 59 00 32 00 00 00 3C 00 0D 00 01 00 46 00 u.Y.2...<.....F.
00410AC0 69 00 6C 00 65 00 56 00 65 00 72 00 73 00 69 00 i.l.e.V.e.r.s.i.
00410AD0 6F 00 6E 00 00 00 00 00 42 00 38 00 76 00 64 00 o.n.....B.8.v.d.
00410AE0 43 00 46 00 6A 00 4B 00 35 00 64 00 6C 00 34 00 C.F.j.K.5.d.l.4.
00410AF0 00 00 00 00 48 00 14 00 01 00 49 00 6E 00 74 00 ....H.....I.n.t.
00410B00 65 00 72 00 6E 00 61 00 6C 00 4E 00 61 00 6D 00 e.r.n.a.l.N.a.m.
00410B10 65 00 00 00 4A 00 77 00 77 00 6D 00 49 00 51 00 e...J.w.w.m.I.Q.
00410B20 52 00 61 00 34 00 70 00 50 00 61 00 48 00 71 00 R.a.4.p.P.a.H.q.
00410B30 45 00 55 00 49 00 38 00 51 00 00 00 40 00 0D 00 E.U.I.8.Q...@...
00410B40 01 00 4C 00 65 00 67 00 61 00 6C 00 43 00 6F 00 ..L.e.g.a.l.C.o.
00410B50 70 00 79 00 72 00 69 00 67 00 68 00 74 00 00 00 p.y.r.i.g.h.t...
00410B60 47 00 6A 00 4E 00 37 00 33 00 4E 00 50 00 6C 00 G.j.N.7.3.N.P.l.
00410B70 36 00 44 00 45 00 70 00 00 00 00 00 4C 00 12 00 6.D.E.p.....L...
00410B80 01 00 4F 00 72 00 69 00 67 00 69 00 6E 00 61 00 ..O.r.i.g.i.n.a.
00410B90 6C 00 46 00 69 00 6C 00 65 00 6E 00 61 00 6D 00 l.F.i.l.e.n.a.m.
00410BA0 65 00 00 00 46 00 68 00 63 00 48 00 6B 00 72 00 e...F.h.c.H.k.r.
00410BB0 6D 00 53 00 47 00 34 00 4B 00 4D 00 4C 00 6F 00 m.S.G.4.K.M.L.o.
00410BC0 31 00 42 00 41 00 00 00 38 00 0C 00 01 00 50 00 1.B.A...8.....P.
00410BD0 72 00 6F 00 64 00 75 00 63 00 74 00 4E 00 61 00 r.o.d.u.c.t.N.a.
00410BE0 6D 00 65 00 00 00 00 00 6A 00 64 00 46 00 68 00 m.e.....j.d.F.h.
00410BF0 35 00 76 00 32 00 37 00 68 00 46 00 4A 00 00 00 5.v.2.7.h.F.J...
00410C00 3C 00 0C 00 01 00 50 00 72 00 6F 00 64 00 75 00 <.....P.r.o.d.u.
00410C10 63 00 74 00 56 00 65 00 72 00 73 00 69 00 6F 00 c.t.V.e.r.s.i.o.
00410C20 6E 00 00 00 56 00 45 00 4D 00 58 00 6F 00 34 00 n...V.E.M.X.o.4.
00410C30 37 00 33 00 73 00 41 00 64 00 00 00 44 00 00 00 7.3.s.A.d...D...
00410C40 00 00 56 00 61 00 72 00 46 00 69 00 6C 00 65 00 ..V.a.r.F.i.l.e.
00410C50 49 00 6E 00 66 00 6F 00 00 00 00 00 24 00 04 00 I.n.f.o.....$...
00410C60 00 00 54 00 72 00 61 00 6E 00 73 00 6C 00 61 00 ..T.r.a.n.s.l.a.
00410C70 74 00 69 00 6F 00 6E 00 00 00 00 00 00 08 B0 04 t.i.o.n.........
00410C80 00 00 00 00 00 00 00 00 00 00 00 00 00 00 00 00 ................
00410C90 00 00 00 00 00 00 00 00 00 00 00 00 00 00 00 00 ................
00410CA0 00 00 00 00 00 00 00 00 00 00 00 00 00 00 00 00 ................
00410CB0 00 00 00 00 00 00 00 00 00 00 00 00 00 00 00 00 ................
00410CC0 00 00 00 00 00 00 00 00 00 00 00 00 00 00 00 00 ................
00410CD0 00 00 00 00 00 00 00 00 00 00 00 00 00 00 00 00 ................
00410CE0 00 00 00 00 00 00 00 00 00 00 00 00 00 00 00 00 ................
00410CF0 00 00 00 00 00 00 00 00 00 00 00 00 00 00 00 00 ................
00410D00 00 00 00 00 00 00 00 00 00 00 00 00 00 00 00 00 ................
00410D10 00 00 00 00 00 00 00 00 00 00 00 00 00 00 00 00 ................
00410D20 00 00 00 00 00 00 00 00 00 00 00 00 00 00 00 00 ................
00410D30 00 00 00 00 00 00 00 00 00 00 00 00 00 00 00 00 ................
00410D40 00 00 00 00 00 00 00 00 00 00 00 00 00 00 00 00 ................
00410D50 00 00 00 00 00 00 00 00 00 00 00 00 00 00 00 00 ................
00410D60 00 00 00 00 00 00 00 00 00 00 00 00 00 00 00 00 ................
00410D70 00 00 00 00 00 00 00 00 00 00 00 00 00 00 00 00 ................
00410D80 00 00 00 00 00 00 00 00 00 00 00 00 00 00 00 00 ................
00410D90 00 00 00 00 00 00 00 00 00 00 00 00 00 00 00 00 ................
00410DA0 00 00 00 00 00 00 00 00 00 00 00 00 00 00 00 00 ................
00410DB0 00 00 00 00 00 00 00 00 00 00 00 00 00 00 00 00 ................
00410DC0 00 00 00 00 00 00 00 00 00 00 00 00 00 00 00 00 ................
00410DD0 00 00 00 00 00 00 00 00 00 00 00 00 00 00 00 00 ................
00410DE0 00 00 00 00 00 00 00 00 00 00 00 00 00 00 00 00 ................
00410DF0 00 00 00 00 00 00 00 00 00 00 00 00 00 00 00 00 ................
00410E00 00 00 00 00 00 00 00 00 00 00 00 00 00 00 00 00 ................
00410E10 00 00 00 00 00 00 00 00 00 00 00 00 00 00 00 00 ................
00410E20 00 00 00 00 00 00 00 00 00 00 00 00 00 00 00 00 ................
00410E30 00 00 00 00 00 00 00 00 00 00 00 00 00 00 00 00 ................
00410E40 00 00 00 00 00 00 00 00 00 00 00 00 00 00 00 00 ................
00410E50 00 00 00 00 00 00 00 00 00 00 00 00 00 00 00 00 ................
00410E60 00 00 00 00 00 00 00 00 00 00 00 00 00 00 00 00 ................
00410E70 00 00 00 00 00 00 00 00 00 00 00 00 00 00 00 00 ................
00410E80 00 00 00 00 00 00 00 00 00 00 00 00 00 00 00 00 ................
00410E90 00 00 00 00 00 00 00 00 00 00 00 00 00 00 00 00 ................
00410EA0 00 00 00 00 00 00 00 00 00 00 00 00 00 00 00 00 ................
00410EB0 00 00 00 00 00 00 00 00 00 00 00 00 00 00 00 00 ................
00410EC0 00 00 00 00 00 00 00 00 00 00 00 00 00 00 00 00 ................
00410ED0 00 00 00 00 00 00 00 00 00 00 00 00 00 00 00 00 ................
00410EE0 00 00 00 00 00 00 00 00 00 00 00 00 00 00 00 00 ................
00410EF0 00 00 00 00 00 00 00 00 00 00 00 00 00 00 00 00 ................
00410F00 00 00 00 00 00 00 00 00 00 00 00 00 00 00 00 00 ................
00410F10 00 00 00 00 00 00 00 00 00 00 00 00 00 00 00 00 ................
00410F20 00 00 00 00 00 00 00 00 00 00 00 00 00 00 00 00 ................
00410F30 00 00 00 00 00 00 00 00 00 00 00 00 00 00 00 00 ................
00410F40 00 00 00 00 00 00 00 00 00 00 00 00 00 00 00 00 ................
00410F50 00 00 00 00 00 00 00 00 00 00 00 00 00 00 00 00 ................
00410F60 00 00 00 00 00 00 00 00 00 00 00 00 00 00 00 00 ................
00410F70 00 00 00 00 00 00 00 00 00 00 00 00 00 00 00 00 ................
00410F80 00 00 00 00 00 00 00 00 00 00 00 00 00 00 00 00 ................
00410F90 00 00 00 00 00 00 00 00 00 00 00 00 00 00 00 00 ................
00410FA0 00 00 00 00 00 00 00 00 00 00 00 00 00 00 00 00 ................
00410FB0 00 00 00 00 00 00 00 00 00 00 00 00 00 00 00 00 ................
00410FC0 00 00 00 00 00 00 00 00 00 00 00 00 00 00 00 00 ................
00410FD0 00 00 00 00 00 00 00 00 00 00 00 00 00 00 00 00 ................
00410FE0 00 00 00 00 00 00 00 00 00 00 00 00 00 00 00 00 ................
00410FF0 00 00 00 00 00 00 00 00 00 00 00 00 00 00 00 00 ................
00411000 
...end of image
