00400000 00 00 00 00 00 00 00 00 00 00 00 00 00 00 00 00 ................
00400010 00 00 00 00 00 00 00 00 00 00 00 00 00 00 00 00 ................
00400020 00 00 00 00 00 00 00 00 00 00 00 00 00 00 00 00 ................
00400030 00 00 00 00 00 00 00 00 00 00 00 00 00 00 00 00 ................
00400040 00 00 00 00 00 00 00 00 00 00 00 00 00 00 00 00 ................
00400050 00 00 00 00 00 00 00 00 00 00 00 00 00 00 00 00 ................
00400060 00 00 00 00 00 00 00 00 00 00 00 00 00 00 00 00 ................
00400070 00 00 00 00 00 00 00 00 00 00 00 00 00 00 00 00 ................
00400080 00 00 00 00 00 00 00 00 00 00 00 00 00 00 00 00 ................
00400090 00 00 00 00 00 00 00 00 00 00 00 00 00 00 00 00 ................
004000A0 00 00 00 00 00 00 00 00 00 00 00 00 00 00 00 00 ................
004000B0 00 00 00 00 00 00 00 00 00 00 00 00 00 00 00 00 ................
004000C0 00 00 00 00 00 00 00 00 00 00 00 00 00 00 00 00 ................
004000D0 00 00 00 00 00 00 00 00 00 00 00 00 00 00 00 00 ................
004000E0 00 00 00 00 00 00 00 00 00 00 00 00 00 00 00 00 ................
004000F0 00 00 00 00 00 00 00 00 00 00 00 00 00 00 00 00 ................
00400100 00 00 00 00 00 00 00 00 00 00 00 00 00 00 00 00 ................
00400110 00 00 00 00 00 00 00 00 00 00 00 00 00 00 00 00 ................
00400120 00 00 00 00 00 00 00 00 00 00 00 00 00 00 00 00 ................
00400130 00 00 00 00 00 00 00 00 00 00 00 00 00 00 00 00 ................
00400140 00 00 00 00 00 00 00 00 00 00 00 00 00 00 00 00 ................
00400150 00 00 00 00 00 00 00 00 00 00 00 00 00 00 00 00 ................
00400160 00 00 00 00 00 00 00 00 00 00 00 00 00 00 00 00 ................
00400170 00 00 00 00 00 00 00 00 00 00 00 00 00 00 00 00 ................
00400180 00 00 00 00 00 00 00 00 00 00 00 00 00 00 00 00 ................
00400190 00 00 00 00 00 00 00 00 00 00 00 00 00 00 00 00 ................
004001A0 00 00 00 00 00 00 00 00 00 00 00 00 00 00 00 00 ................
004001B0 00 00 00 00 00 00 00 00 00 00 00 00 00 00 00 00 ................
004001C0 00 00 00 00 00 00 00 00 00 00 00 00 00 00 00 00 ................
004001D0 00 00 00 00 00 00 00 00 00 00 00 00 00 00 00 00 ................
004001E0 00 00 00 00 00 00 00 00 00 00 00 00 00 00 00 00 ................
004001F0 00 00 00 00 00 00 00 00 00 00 00 00 00 00 00 00 ................
00400200 00 00 00 00 00 00 00 00 00 00 00 00 00 00 00 00 ................
00400210 00 00 00 00 00 00 00 00 00 00 00 00 00 00 00 00 ................
00400220 00 00 00 00 00 00 00 00 00 00 00 00 00 00 00 00 ................
00400230 00 00 00 00 00 00 00 00 00 00 00 00 00 00 00 00 ................
00400240 00 00 00 00 00 00 00 00 00 00 00 00 00 00 00 00 ................
00400250 00 00 00 00 00 00 00 00 00 00 00 00 00 00 00 00 ................
00400260 00 00 00 00 00 00 00 00 00 00 00 00 00 00 00 00 ................
00400270 00 00 00 00 00 00 00 00 00 00 00 00 00 00 00 00 ................
00400280 00 00 00 00 00 00 00 00 00 00 00 00 00 00 00 00 ................
00400290 00 00 00 00 00 00 00 00 00 00 00 00 00 00 00 00 ................
004002A0 00 00 00 00 00 00 00 00 00 00 00 00 00 00 00 00 ................
004002B0 00 00 00 00 00 00 00 00 00 00 00 00 00 00 00 00 ................
004002C0 00 00 00 00 00 00 00 00 00 00 00 00 00 00 00 00 ................
004002D0 00 00 00 00 00 00 00 00 00 00 00 00 00 00 00 00 ................
004002E0 00 00 00 00 00 00 00 00 00 00 00 00 00 00 00 00 ................
004002F0 00 00 00 00 00 00 00 00 00 00 00 00 00 00 00 00 ................
00400300 00 00 00 00 00 00 00 00 00 00 00 00 00 00 00 00 ................
00400310 00 00 00 00 00 00 00 00 00 00 00 00 00 00 00 00 ................
00400320 00 00 00 00 00 00 00 00 00 00 00 00 00 00 00 00 ................
00400330 00 00 00 00 00 00 00 00 00 00 00 00 00 00 00 00 ................
00400340 00 00 00 00 00 00 00 00 00 00 00 00 00 00 00 00 ................
00400350 00 00 00 00 00 00 00 00 00 00 00 00 00 00 00 00 ................
00400360 00 00 00 00 00 00 00 00 00 00 00 00 00 00 00 00 ................
00400370 00 00 00 00 00 00 00 00 00 00 00 00 00 00 00 00 ................
00400380 00 00 00 00 00 00 00 00 00 00 00 00 00 00 00 00 ................
00400390 00 00 00 00 00 00 00 00 00 00 00 00 00 00 00 00 ................
004003A0 00 00 00 00 00 00 00 00 00 00 00 00 00 00 00 00 ................
004003B0 00 00 00 00 00 00 00 00 00 00 00 00 00 00 00 00 ................
004003C0 00 00 00 00 00 00 00 00 00 00 00 00 00 00 00 00 ................
004003D0 00 00 00 00 00 00 00 00 00 00 00 00 00 00 00 00 ................
004003E0 00 00 00 00 00 00 00 00 00 00 00 00 00 00 00 00 ................
004003F0 00 00 00 00 00 00 00 00 00 00 00 00 00 00 00 00 ................
00400400 00 00 00 00 00 00 00 00 00 00 00 00 00 00 00 00 ................
00400410 00 00 00 00 00 00 00 00 00 00 00 00 00 00 00 00 ................
00400420 00 00 00 00 00 00 00 00 00 00 00 00 00 00 00 00 ................
00400430 00 00 00 00 00 00 00 00 00 00 00 00 00 00 00 00 ................
00400440 00 00 00 00 00 00 00 00 00 00 00 00 00 00 00 00 ................
00400450 00 00 00 00 00 00 00 00 00 00 00 00 00 00 00 00 ................
00400460 00 00 00 00 00 00 00 00 00 00 00 00 00 00 00 00 ................
00400470 00 00 00 00 00 00 00 00 00 00 00 00 00 00 00 00 ................
00400480 00 00 00 00 00 00 00 00 00 00 00 00 00 00 00 00 ................
00400490 00 00 00 00 00 00 00 00 00 00 00 00 00 00 00 00 ................
004004A0 00 00 00 00 00 00 00 00 00 00 00 00 00 00 00 00 ................
004004B0 00 00 00 00 00 00 00 00 00 00 00 00 00 00 00 00 ................
004004C0 00 00 00 00 00 00 00 00 00 00 00 00 00 00 00 00 ................
004004D0 00 00 00 00 00 00 00 00 00 00 00 00 00 00 00 00 ................
004004E0 00 00 00 00 00 00 00 00 00 00 00 00 00 00 00 00 ................
004004F0 00 00 00 00 00 00 00 00 00 00 00 00 00 00 00 00 ................
00400500 00 00 00 00 00 00 00 00 00 00 00 00 00 00 00 00 ................
00400510 00 00 00 00 00 00 00 00 00 00 00 00 00 00 00 00 ................
00400520 00 00 00 00 00 00 00 00 00 00 00 00 00 00 00 00 ................
00400530 00 00 00 00 00 00 00 00 00 00 00 00 00 00 00 00 ................
00400540 00 00 00 00 00 00 00 00 00 00 00 00 00 00 00 00 ................
00400550 00 00 00 00 00 00 00 00 00 00 00 00 00 00 00 00 ................
00400560 00 00 00 00 00 00 00 00 00 00 00 00 00 00 00 00 ................
00400570 00 00 00 00 00 00 00 00 00 00 00 00 00 00 00 00 ................
00400580 00 00 00 00 00 00 00 00 00 00 00 00 00 00 00 00 ................
00400590 00 00 00 00 00 00 00 00 00 00 00 00 00 00 00 00 ................
004005A0 00 00 00 00 00 00 00 00 00 00 00 00 00 00 00 00 ................
004005B0 00 00 00 00 00 00 00 00 00 00 00 00 00 00 00 00 ................
004005C0 00 00 00 00 00 00 00 00 00 00 00 00 00 00 00 00 ................
004005D0 00 00 00 00 00 00 00 00 00 00 00 00 00 00 00 00 ................
004005E0 00 00 00 00 00 00 00 00 00 00 00 00 00 00 00 00 ................
004005F0 00 00 00 00 00 00 00 00 00 00 00 00 00 00 00 00 ................
00400600 00 00 00 00 00 00 00 00 00 00 00 00 00 00 00 00 ................
00400610 00 00 00 00 00 00 00 00 00 00 00 00 00 00 00 00 ................
00400620 00 00 00 00 00 00 00 00 00 00 00 00 00 00 00 00 ................
00400630 00 00 00 00 00 00 00 00 00 00 00 00 00 00 00 00 ................
00400640 00 00 00 00 00 00 00 00 00 00 00 00 00 00 00 00 ................
00400650 00 00 00 00 00 00 00 00 00 00 00 00 00 00 00 00 ................
00400660 00 00 00 00 00 00 00 00 00 00 00 00 00 00 00 00 ................
00400670 00 00 00 00 00 00 00 00 00 00 00 00 00 00 00 00 ................
00400680 00 00 00 00 00 00 00 00 00 00 00 00 00 00 00 00 ................
00400690 00 00 00 00 00 00 00 00 00 00 00 00 00 00 00 00 ................
004006A0 00 00 00 00 00 00 00 00 00 00 00 00 00 00 00 00 ................
004006B0 00 00 00 00 00 00 00 00 00 00 00 00 00 00 00 00 ................
004006C0 00 00 00 00 00 00 00 00 00 00 00 00 00 00 00 00 ................
004006D0 00 00 00 00 00 00 00 00 00 00 00 00 00 00 00 00 ................
004006E0 00 00 00 00 00 00 00 00 00 00 00 00 00 00 00 00 ................
004006F0 00 00 00 00 00 00 00 00 00 00 00 00 00 00 00 00 ................
00400700 00 00 00 00 00 00 00 00 00 00 00 00 00 00 00 00 ................
00400710 00 00 00 00 00 00 00 00 00 00 00 00 00 00 00 00 ................
00400720 00 00 00 00 00 00 00 00 00 00 00 00 00 00 00 00 ................
00400730 00 00 00 00 00 00 00 00 00 00 00 00 00 00 00 00 ................
00400740 00 00 00 00 00 00 00 00 00 00 00 00 00 00 00 00 ................
00400750 00 00 00 00 00 00 00 00 00 00 00 00 00 00 00 00 ................
00400760 00 00 00 00 00 00 00 00 00 00 00 00 00 00 00 00 ................
00400770 00 00 00 00 00 00 00 00 00 00 00 00 00 00 00 00 ................
00400780 00 00 00 00 00 00 00 00 00 00 00 00 00 00 00 00 ................
00400790 00 00 00 00 00 00 00 00 00 00 00 00 00 00 00 00 ................
004007A0 00 00 00 00 00 00 00 00 00 00 00 00 00 00 00 00 ................
004007B0 00 00 00 00 00 00 00 00 00 00 00 00 00 00 00 00 ................
004007C0 00 00 00 00 00 00 00 00 00 00 00 00 00 00 00 00 ................
004007D0 00 00 00 00 00 00 00 00 00 00 00 00 00 00 00 00 ................
004007E0 00 00 00 00 00 00 00 00 00 00 00 00 00 00 00 00 ................
004007F0 00 00 00 00 00 00 00 00 00 00 00 00 00 00 00 00 ................
00400800 00 00 00 00 00 00 00 00 00 00 00 00 00 00 00 00 ................
00400810 00 00 00 00 00 00 00 00 00 00 00 00 00 00 00 00 ................
00400820 00 00 00 00 00 00 00 00 00 00 00 00 00 00 00 00 ................
00400830 00 00 00 00 00 00 00 00 00 00 00 00 00 00 00 00 ................
00400840 00 00 00 00 00 00 00 00 00 00 00 00 00 00 00 00 ................
00400850 00 00 00 00 00 00 00 00 00 00 00 00 00 00 00 00 ................
00400860 00 00 00 00 00 00 00 00 00 00 00 00 00 00 00 00 ................
00400870 00 00 00 00 00 00 00 00 00 00 00 00 00 00 00 00 ................
00400880 00 00 00 00 00 00 00 00 00 00 00 00 00 00 00 00 ................
00400890 00 00 00 00 00 00 00 00 00 00 00 00 00 00 00 00 ................
004008A0 00 00 00 00 00 00 00 00 00 00 00 00 00 00 00 00 ................
004008B0 00 00 00 00 00 00 00 00 00 00 00 00 00 00 00 00 ................
004008C0 00 00 00 00 00 00 00 00 00 00 00 00 00 00 00 00 ................
004008D0 00 00 00 00 00 00 00 00 00 00 00 00 00 00 00 00 ................
004008E0 00 00 00 00 00 00 00 00 00 00 00 00 00 00 00 00 ................
004008F0 00 00 00 00 00 00 00 00 00 00 00 00 00 00 00 00 ................
00400900 00 00 00 00 00 00 00 00 00 00 00 00 00 00 00 00 ................
00400910 00 00 00 00 00 00 00 00 00 00 00 00 00 00 00 00 ................
00400920 00 00 00 00 00 00 00 00 00 00 00 00 00 00 00 00 ................
00400930 00 00 00 00 00 00 00 00 00 00 00 00 00 00 00 00 ................
00400940 00 00 00 00 00 00 00 00 00 00 00 00 00 00 00 00 ................
00400950 00 00 00 00 00 00 00 00 00 00 00 00 00 00 00 00 ................
00400960 00 00 00 00 00 00 00 00 00 00 00 00 00 00 00 00 ................
00400970 00 00 00 00 00 00 00 00 00 00 00 00 00 00 00 00 ................
00400980 00 00 00 00 00 00 00 00 00 00 00 00 00 00 00 00 ................
00400990 00 00 00 00 00 00 00 00 00 00 00 00 00 00 00 00 ................
004009A0 00 00 00 00 00 00 00 00 00 00 00 00 00 00 00 00 ................
004009B0 00 00 00 00 00 00 00 00 00 00 00 00 00 00 00 00 ................
004009C0 00 00 00 00 00 00 00 00 00 00 00 00 00 00 00 00 ................
004009D0 00 00 00 00 00 00 00 00 00 00 00 00 00 00 00 00 ................
004009E0 00 00 00 00 00 00 00 00 00 00 00 00 00 00 00 00 ................
004009F0 00 00 00 00 00 00 00 00 00 00 00 00 00 00 00 00 ................
00400A00 00 00 00 00 00 00 00 00 00 00 00 00 00 00 00 00 ................
00400A10 00 00 00 00 00 00 00 00 00 00 00 00 00 00 00 00 ................
00400A20 00 00 00 00 00 00 00 00 00 00 00 00 00 00 00 00 ................
00400A30 00 00 00 00 00 00 00 00 00 00 00 00 00 00 00 00 ................
00400A40 00 00 00 00 00 00 00 00 00 00 00 00 00 00 00 00 ................
00400A50 00 00 00 00 00 00 00 00 00 00 00 00 00 00 00 00 ................
00400A60 00 00 00 00 00 00 00 00 00 00 00 00 00 00 00 00 ................
00400A70 00 00 00 00 00 00 00 00 00 00 00 00 00 00 00 00 ................
00400A80 00 00 00 00 00 00 00 00 00 00 00 00 00 00 00 00 ................
00400A90 00 00 00 00 00 00 00 00 00 00 00 00 00 00 00 00 ................
00400AA0 00 00 00 00 00 00 00 00 00 00 00 00 00 00 00 00 ................
00400AB0 00 00 00 00 00 00 00 00 00 00 00 00 00 00 00 00 ................
00400AC0 00 00 00 00 00 00 00 00 00 00 00 00 00 00 00 00 ................
00400AD0 00 00 00 00 00 00 00 00 00 00 00 00 00 00 00 00 ................
00400AE0 00 00 00 00 00 00 00 00 00 00 00 00 00 00 00 00 ................
00400AF0 00 00 00 00 00 00 00 00 00 00 00 00 00 00 00 00 ................
00400B00 00 00 00 00 00 00 00 00 00 00 00 00 00 00 00 00 ................
00400B10 00 00 00 00 00 00 00 00 00 00 00 00 00 00 00 00 ................
00400B20 00 00 00 00 00 00 00 00 00 00 00 00 00 00 00 00 ................
00400B30 00 00 00 00 00 00 00 00 00 00 00 00 00 00 00 00 ................
00400B40 00 00 00 00 00 00 00 00 00 00 00 00 00 00 00 00 ................
00400B50 00 00 00 00 00 00 00 00 00 00 00 00 00 00 00 00 ................
00400B60 00 00 00 00 00 00 00 00 00 00 00 00 00 00 00 00 ................
00400B70 00 00 00 00 00 00 00 00 00 00 00 00 00 00 00 00 ................
00400B80 00 00 00 00 00 00 00 00 00 00 00 00 00 00 00 00 ................
00400B90 00 00 00 00 00 00 00 00 00 00 00 00 00 00 00 00 ................
00400BA0 00 00 00 00 00 00 00 00 00 00 00 00 00 00 00 00 ................
00400BB0 00 00 00 00 00 00 00 00 00 00 00 00 00 00 00 00 ................
00400BC0 00 00 00 00 00 00 00 00 00 00 00 00 00 00 00 00 ................
00400BD0 00 00 00 00 00 00 00 00 00 00 00 00 00 00 00 00 ................
00400BE0 00 00 00 00 00 00 00 00 00 00 00 00 00 00 00 00 ................
00400BF0 00 00 00 00 00 00 00 00 00 00 00 00 00 00 00 00 ................
00400C00 00 00 00 00 00 00 00 00 00 00 00 00 00 00 00 00 ................
00400C10 00 00 00 00 00 00 00 00 00 00 00 00 00 00 00 00 ................
00400C20 00 00 00 00 00 00 00 00 00 00 00 00 00 00 00 00 ................
00400C30 00 00 00 00 00 00 00 00 00 00 00 00 00 00 00 00 ................
00400C40 00 00 00 00 00 00 00 00 00 00 00 00 00 00 00 00 ................
00400C50 00 00 00 00 00 00 00 00 00 00 00 00 00 00 00 00 ................
00400C60 00 00 00 00 00 00 00 00 00 00 00 00 00 00 00 00 ................
00400C70 00 00 00 00 00 00 00 00 00 00 00 00 00 00 00 00 ................
00400C80 00 00 00 00 00 00 00 00 00 00 00 00 00 00 00 00 ................
00400C90 00 00 00 00 00 00 00 00 00 00 00 00 00 00 00 00 ................
00400CA0 00 00 00 00 00 00 00 00 00 00 00 00 00 00 00 00 ................
00400CB0 00 00 00 00 00 00 00 00 00 00 00 00 00 00 00 00 ................
00400CC0 00 00 00 00 00 00 00 00 00 00 00 00 00 00 00 00 ................
00400CD0 00 00 00 00 00 00 00 00 00 00 00 00 00 00 00 00 ................
00400CE0 00 00 00 00 00 00 00 00 00 00 00 00 00 00 00 00 ................
00400CF0 00 00 00 00 00 00 00 00 00 00 00 00 00 00 00 00 ................
00400D00 00 00 00 00 00 00 00 00 00 00 00 00 00 00 00 00 ................
00400D10 00 00 00 00 00 00 00 00 00 00 00 00 00 00 00 00 ................
00400D20 00 00 00 00 00 00 00 00 00 00 00 00 00 00 00 00 ................
00400D30 00 00 00 00 00 00 00 00 00 00 00 00 00 00 00 00 ................
00400D40 00 00 00 00 00 00 00 00 00 00 00 00 00 00 00 00 ................
00400D50 00 00 00 00 00 00 00 00 00 00 00 00 00 00 00 00 ................
00400D60 00 00 00 00 00 00 00 00 00 00 00 00 00 00 00 00 ................
00400D70 00 00 00 00 00 00 00 00 00 00 00 00 00 00 00 00 ................
00400D80 00 00 00 00 00 00 00 00 00 00 00 00 00 00 00 00 ................
00400D90 00 00 00 00 00 00 00 00 00 00 00 00 00 00 00 00 ................
00400DA0 00 00 00 00 00 00 00 00 00 00 00 00 00 00 00 00 ................
00400DB0 00 00 00 00 00 00 00 00 00 00 00 00 00 00 00 00 ................
00400DC0 00 00 00 00 00 00 00 00 00 00 00 00 00 00 00 00 ................
00400DD0 00 00 00 00 00 00 00 00 00 00 00 00 00 00 00 00 ................
00400DE0 00 00 00 00 00 00 00 00 00 00 00 00 00 00 00 00 ................
00400DF0 00 00 00 00 00 00 00 00 00 00 00 00 00 00 00 00 ................
00400E00 00 00 00 00 00 00 00 00 00 00 00 00 00 00 00 00 ................
00400E10 00 00 00 00 00 00 00 00 00 00 00 00 00 00 00 00 ................
00400E20 00 00 00 00 00 00 00 00 00 00 00 00 00 00 00 00 ................
00400E30 00 00 00 00 00 00 00 00 00 00 00 00 00 00 00 00 ................
00400E40 00 00 00 00 00 00 00 00 00 00 00 00 00 00 00 00 ................
00400E50 00 00 00 00 00 00 00 00 00 00 00 00 00 00 00 00 ................
00400E60 00 00 00 00 00 00 00 00 00 00 00 00 00 00 00 00 ................
00400E70 00 00 00 00 00 00 00 00 00 00 00 00 00 00 00 00 ................
00400E80 00 00 00 00 00 00 00 00 00 00 00 00 00 00 00 00 ................
00400E90 00 00 00 00 00 00 00 00 00 00 00 00 00 00 00 00 ................
00400EA0 00 00 00 00 00 00 00 00 00 00 00 00 00 00 00 00 ................
00400EB0 00 00 00 00 00 00 00 00 00 00 00 00 00 00 00 00 ................
00400EC0 00 00 00 00 00 00 00 00 00 00 00 00 00 00 00 00 ................
00400ED0 00 00 00 00 00 00 00 00 00 00 00 00 00 00 00 00 ................
00400EE0 00 00 00 00 00 00 00 00 00 00 00 00 00 00 00 00 ................
00400EF0 00 00 00 00 00 00 00 00 00 00 00 00 00 00 00 00 ................
00400F00 00 00 00 00 00 00 00 00 00 00 00 00 00 00 00 00 ................
00400F10 00 00 00 00 00 00 00 00 00 00 00 00 00 00 00 00 ................
00400F20 00 00 00 00 00 00 00 00 00 00 00 00 00 00 00 00 ................
00400F30 00 00 00 00 00 00 00 00 00 00 00 00 00 00 00 00 ................
00400F40 00 00 00 00 00 00 00 00 00 00 00 00 00 00 00 00 ................
00400F50 00 00 00 00 00 00 00 00 00 00 00 00 00 00 00 00 ................
00400F60 00 00 00 00 00 00 00 00 00 00 00 00 00 00 00 00 ................
00400F70 00 00 00 00 00 00 00 00 00 00 00 00 00 00 00 00 ................
00400F80 00 00 00 00 00 00 00 00 00 00 00 00 00 00 00 00 ................
00400F90 00 00 00 00 00 00 00 00 00 00 00 00 00 00 00 00 ................
00400FA0 00 00 00 00 00 00 00 00 00 00 00 00 00 00 00 00 ................
00400FB0 00 00 00 00 00 00 00 00 00 00 00 00 00 00 00 00 ................
00400FC0 00 00 00 00 00 00 00 00 00 00 00 00 00 00 00 00 ................
00400FD0 00 00 00 00 00 00 00 00 00 00 00 00 00 00 00 00 ................
00400FE0 00 00 00 00 00 00 00 00 00 00 00 00 00 00 00 00 ................
00400FF0 00 00 00 00 00 00 00 00 00 00 00 00 00 00 00 00 ................
00401000 C8 26 26 DF 6F 03 CA 43 33 CA 2B D8 03 F0 2B FE .&&.o..C3.+...+.
00401010 03 D7 03 CB DB E2 7C 0A 86 ED 7D 06 0E 58 22 52 ......|...}..X"R
00401020 81 CE 03 CA 47 4F 03 DE 33 CE 33 CF 0B FB 8B F0 ....GO..3.3.....
00401030 33 D8 0F 8A 15 02 00 00 66 8D 09 0F 8B 0C 02 00 3.......f.......
00401040 00 3E 99 E8 CF                                  .>...          

l00401045:
	mov	ecx,edx
	sub	ebx,edi
	inc	ebx
	xor	ebx,ecx
	dec	ecx
	add	ecx,edi
	mov	ebx,esi
	sub	ecx,eax
	sub	edx,eax
	jle	00401231

l0040105B:
	mov	si,si
	lea	edi,[edi]
	jg	00401231

l00401066:
	fadd	dword ptr [ecx]
	arpl	dx,bx
	or	[ecx+0AD18AC6],ecx
	int	32
	call	FB430579
	inc	esi
	or	cl,bh
	inc	esi
	xor	bl,cl
	sub	bh,bl
	js	004010D1
	jc	00401083
	jmp	00401089
	illegal	
	jns	004010D1
	or	cl,dh
	mov	dword ptr [ebx+338D9456],F38B48FA
	dec	ecx
	dec	ecx
	dec	eax
	jl	00401151
	jmp	004010A6
	xchg	[esi-75],esp
	test	byte ptr [edi],8D
	mov	[F2000000],al
	dec	esi
	add	eax,8BFB8BB2
	rol	byte ptr [ebx+2B],01
	enter	414F,0B
	ror	dword ptr [edi],01
	mov	ss,[edx+66000000]
	xchg	eax,eax
	jg	00401176
	jbe	004010A3
	rep	
	mov	esi,edx
	dec	edi
	sub	ecx,eax
	mov	dh,cl
	neg	bh
	mov	dh,bh
	mov	dl,0B
	or	bl,dh
	jle	0040112B
	jmp	004010E8
	lahf	
	jg	0040112B
	push	AA
	aaa	
	inc	byte ptr [ebx-75]
	illegal	
	add	esi,ecx
	xor	edi,ebx
	sub	esi,eax
	sub	ebx,esi
	or	ebx,eax
	sub	edx,ebx
	jl	004011B6
	repne	
	jge	004011B6
	dec	esi
	illegal	
	pop	esp
	repne	
	dec	edi
	inc	ebx
	test	al,08
	jz	00401116
	ret	
	leave	
	mov	ebx,ecx
	jz	004010EE
	jmp	00401120
	mov	dh,dh
	jnz	004010EE
	jnz	004010B2
	insd	
	cmp	byte ptr [edx+D62BA571],33
	iret	
	xor	ch,bl
	xor	edx,ebx
	xor	dl,ch
	or	bl,al
	or	ch,bl
	mov	bh,8B
	inc	edx
	inc	edi
	jl	004010B3
	repne	
	jge	004010B3
	lodsd	
	mov	[A9241E6F],al
	push	esi
	mov	edi,eax
	mov	ebx,ecx
	sub	edx,ebx
	dec	esi
	inc	esi
	add	ecx,eax
	add	edx,ebx
	dec	ebx
	mov	edi,esi
	or	eax,esi
	jl	0040116C
	rep	
	jge	0040116C
	inc	esp
	adc	eax,4AFA170B
	sub	esi,edx
	mov	ebx,esi
	jmp	00401281
	xor	ebx,edi
	inc	edx
	xor	esi,edx
	xor	esi,eax
	xor	edx,ebx
	sub	esi,ecx
	xor	ecx,edx
	mov	ebx,edi
	jo	00401005
	jmp	00401190
	jno	00401005
	mov	[42E38036],eax
	mov	bh,37
	mov	[ebx],ecx

l0040119E:
	or	ecx,esi
	sub	edx,edi
	illegal	
	dec	edi
	inc	edi
	xor	ecx,edx
	mov	edi,edx
	jz	004011D8
	repne	
	jnz	004011D8
	illegal	
	inc	ebx
	jge	004011DF
	pop	edi
	add	esi,ebx
	inc	ecx
	or	ecx,edi
	inc	esi
	or	edi,edx
	dec	ecx
	inc	eax
	add	ecx,ebx
	jo	00401092
	xchg	eax,eax
	jno	00401092
	lodsb	
	xchg	eax,esp
	jcxz	0040121E
	jnz	00401174
	push	ebx
	push	edx
	sub	edi,ecx
	mov	ecx,ebx
	sub	esi,edi
	mov	ecx,edx
	mov	ecx,eax
	xor	ecx,esi
	sub	edx,esi
	or	ebx,edi
	jz	0040110F
	mov	cl,cl
	jnz	0040110F
	ja	004011F9
	xor	bh,[edi]

l004011FA:
	sub	ebx,esi
	inc	ebx
	or	edx,edi
	inc	ecx
	or	edx,ebx
	sub	esi,edi
	jz	0040119E

l00401206:
	jmp	0040120B

l0040120B:
	repne	
	jnz	0040119E
	pop	edi
	jg	00401211
	sub	[ebp-75],edx

fn00401212()
	push	ebp
	mov	ebp,esp
	mov	ecx,ebx
	or	edx,edi
	mov	edi,eax
	or	edx,ebx
	dec	ecx
	inc	edx
	jo	00401045

l00401225:
	jc	00401227

l00401227:
	jno	00401045

l0040122D:
	sti	
	std	
	jns	0040129B

l00401231:
	xor	ecx,esi
	sub	ebx,esi
	dec	ecx
	add	edi,eax
	xor	edi,ecx
	add	edx,edi
	inc	edx
	jc	00401264

l0040123F:
	lea	di,[edi]
	xchg	ch,ch
	jnc	00401264

l00401246:
	add	[ecx+FFE646E6],ebp
	jpe	0040128F

l0040124E:
	inc	edx
	wait	
	add	ecx,edi
	xor	esi,edi
	dec	edx
	jc	004011FA

l00401257:
	xchg	bh,bh
	xchg	si,si
	jnc	004011FA

l0040125E:
	sub	eax,7FDA223E
	outsd	

l00401264:
	mov	ecx,eax
	inc	esi
	xor	ebx,edi
	inc	esi
	mov	edx,esi
	xor	ecx,edx
	or	esi,ecx
	jl	0040106D
	repne	
	jge	0040106D
	mov	edi,E87D6190
	sub	cl,[esi]
	add	[eax],al
	int	D7
	outsb	
	test	al,91
	pop	esp
	jno	00401217
	mov	esi,esi

l0040128F:
	imul	byte ptr [eax]
	popf	
	outsb	
	inc	ebp
	clc	
	popa	
	mov	bh,dh
	inc	ecx

l0040129B:
	cli	
	xor	[ebp+896CCE94],ah
	mov	eax,edi
	pop	esp
	push	ds
	jo	00401250
	adc	[ebx+edx],dl
	mov	eax,edi
	xor	[ecx+39],dh
	adc	ecx,[edx+292AF111]
	test	eax,89892491
	mov	[ecx],edx
	illegal	
	imul	ebp,[ebx],39
	xchg	eax,ecx
	sbb	ch,[esi-77]
	mov	[esi+esi*4+A4898972],edx
	xor	esp,[eax]
	dec	ebx
	imul	byte ptr [eax]
	popf	
	outsb	
	inc	ebp
	mov	bh,dh
	sbb	eax,8A9D008A
	add	[ecx+8970E691],ch
	mov	[edx-3E],edi
	outsd	
	xchg	eax,esp
	sub	ebp,[ebx-77]
	mov	esp,ebp
	sub	byte ptr [ebp-7B],A3
	cwde	
	mov	dl,B4
	or	[esi+ebx*2+6B],edi
	mov	bh,9B
	leave	
	rep	
	mov	bl,9B
	mov	cl,24
	shr	[esi-64],cl
	lodsb	
	stosd	
	outsb	
	xchg	eax,esp
	shl	[esi-77],cl
	mov	[ecx+38],eax
	cmp	[esi],esi
	push	esi
	cld	
	stosd	
	jno	0040129E
	and	dh,dh
	xchg	eax,ebp
	push	ds
	or	eax,895960F6
	mov	[ecx+F6751BF6],ecx
	mov	[F675AEEE],eax
	sbb	esi,[ebp-6C]
	movsb	
	insd	
	mov	[ecx+A8953BC0],ecx
	push	ebp
	jpo	0040136F
	outsb	
	sub	[ecx+8A95008A],ch
	add	[ebp+73DE911E],cl
	mov	[ecx+71853082],ecx
	mov	[ecx+37ED7A89],ecx
	insd	
	mov	[ecx+8A99008A],ecx
	add	[ebp-6C],bh
	inc	edx
	insd	
	mov	[ecx+8AECA2E0],ecx
	mov	[edx+32],eax
	xchg	eax,ecx
	pop	ebp
	jo	004012F3
	mov	[edx+89798530],eax
	mov	[ecx+7159ED7A],ecx
	mov	[ecx+91A9008A],ecx
	sbb	[edi-77],ch
	mov	[edx+008AA500],ecx
	test	eax,8A878A94
	mov	ah,[edx-3C]
	xchg	eax,esp
	sub	al,26
	jg	0040140C
	mov	edi,30F47930
	test	esi,esi
	add	[ecx-0A],dh
	xchg	[edx-41],edi
	sub	[esp+edx*4-21],bl
	insd	
	mov	[ecx+896E4C94],ecx
	mov	esp,edx
	loopne	0040141D
	push	edi
	push	ss
	out	dx,al
	lea	edi,[edx-3E]
	jnz	004013E7
	div	byte ptr [edx]
	outsb	
	stosd	
	imul	byte ptr [ebp-0F]
	outsb	
	stosd	
	xchg	eax,esp
	retf	
	insd	
	mov	[ecx+896DFA94],ecx
	mov	[ecx+esi*8+C889896D],edx
	jns	0040140F
	inc	ecx
	mov	cl,D7
	mov	bh,[ecx+896DABB4]
	and	dh,dh
	xchg	eax,ebp
	out	dx,al
	lodsd	
	cdq	
	mov	al,[eax]
	jno	004013DD
	xor	[ecx+2AF11139],al
	sub	[ecx+896B8794],ebp
	mov	[edx],ecx
	pop	esp
	or	al,B5
	push	esi
	clc	
	aaa	
	mul	byte ptr [esi-0A]
	cmp	[ecx+76],dh
	cmpsb	
	jpe	004013EF
	jpo	0040138D
	mov	[ecx+7A753846],ecx
	in	eax,dx
	xchg	eax,esp
	mov	[ecx+71286E89],ecx
	xchg	eax,esp
	mov	[F6898989],al
	insd	
	out	dx,al
	xchg	eax,esp
	jno	004013B2
	and	ch,[edi-77]
	mov	[ebp-33],esi
	stosb	
	cld	
	shrd	[ecx+EEB98275],edx,81
	test	[edx-10],edi
	ror	dword ptr [ecx+466E8989],01
	outsb	
	or	[ecx+6C],dh
	bound	edx,[ebp+6F898989]
	mov	[FE8A59F3],fs
	inc	ecx
	mov	bh,dh
	mov	bh,dh
	inc	ecx
	mov	bh,dh
	mov	bh,dh
	xchg	eax,ecx
	fidiv	word ptr [eax-77]
	mov	[ecx+89896F2C],edx
	xchg	eax,ecx
	and	al,74
	mov	[ecx+89723B94],ecx
	mov	[C3209046],edi
	aaa	
	rol	ah,cl
	outsb	
	sub	[ecx-6C],dh
	inc	edi
	insd	
	mov	[ecx+6E752EF6],ecx
	xor	[ecx+39],dh
	xchg	eax,ecx
	pop	ds
	mov	cl,[edx+8530F48A]
	out	dx,al
	inc	esi
	mov	[edx-13],edi
	sahf	
	outsd	
	mov	[ecx+896FB394],ecx
	mov	[eax],eax
	xchg	eax,esi
	mov	dh,36
	add	al,EC
	or	[ebp-76],dh
	mov	cl,[ecx+8A730289]
	add	[ebp+13],dh
	mov	[ebx+ebp*4+13898971],edx
	mov	eax,edi
	xor	[ebp-6C],bh
	xchg	eax,esi
	insb	
	mov	[ecx+83DCF727],ecx
	mov	edx,F6226B11
	sub	[ecx+6E],dh
	inc	ebp
	clc	
	out	09,al
	mov	[ecx+7666F689],ecx
	cmpsb	
	jpe	004014BF
	xchg	eax,esi
	outsb	
	mov	[ecx+9E40E496],ecx
	push	ebx
	mov	dl,A6
	out	dx,al
	scasd	
	imul	ebp,esi,94
	imul	esi,[esi-4C],7A
	lock	
	loope	00401559
	mov	[ecx+EE6D266E],ecx
	push	es
	insd	
	jno	0040156D
	repne	
	push	8A
	mov	cl,[edx+6C3B942A]
	mov	[ecx+CF5792AC],ecx
	pop	esp
	add	[esi-76],cl
	add	[ecx+919D008A],dl
	stc	
	jo	00401498
	mov	esi,esi
	cmp	[ecx+F6452CF6],ch
	sub	eax,AC6E516C
	hlt	
	xor	[ebp+94A928F6],dh
	push	1589896C
	ret	994F
	outsd	
	fisubr	dword ptr [eax+81AEECB0]
	mov	[ecx+744C9489],ecx
	mov	[ecx+5D2EF61C],ecx
	outsb	
	xor	[ebp+6E7536F6],bl
	cmp	[ecx+3979FE8A],ch
	sbb	al,94
	scasb	
	mov	[ecx+76E09489],ecx
	inc	esp
	in	eax,60
	not	byte ptr [ebp+F6221F1E]
	sub	[ecx-0A],dh
	sahf	
	push	esi
	and	[ebp+6E],dh
	inc	ebp
	clc	
	out	E9,al
	mov	[ecx+87F29489],ecx
	mov	cl,[edx+B73801A0]
	wait	
	illegal	
	cmp	[edx+6D918500],ecx
	outsd	
	mov	[ecx+8947EED6],ecx
	jpe	00401577
	cmp	[ecx+ecx*4-77],dh
	out	dx,al
	scasb	
	pop	ebp
	xchg	eax,esp
	dec	ebp
	outsb	
	mov	[ecx+ECFECAC8],ecx
	xor	bl,[esi-01]
	ret	
	mov	ah,F6
	jge	0040158D
	scasd	
	jns	004015B3
	mov	[ecx-77],ecx
	mov	esp,esi
	xor	eax,35F8C94D
	dec	ebp
	leave	
	sbb	al,F4
	sbb	eax,B594C94D
	outsb	
	mov	[ecx+FD7D3B52],ecx
	ret	
	mov	edi,8971ABB4
	and	dh,dh
	xchg	eax,ebp
	push	ds
	pop	ds
	and	dh,dh
	or	[ebp-6C],dh
	and	[edi-77],ch
	mov	[eax+26],eax
	adc	[esp+eax*4-04],edx
	jc	004015D6
	outsd	
	out	dx,al
	or	dword ptr [edx],2C2C6B02
	loopne	00401576
	loope	00401650
	mov	[ecx+7D22A1E9],ecx
	jpo	004015EB
	cmc	
	cdq	
	cli	
	xor	[ecx+B5B5B511],al
	mov	ch,FA
	xor	[ebp+11],bh
	mov	ch,B5
	mov	ch,B5
	cli	
	xor	[ecx+893F8911],bl
	mov	edx,edi
	xor	[ecx+89707794],dl
	mov	[edx+0393D39F],ebx
	fst	dword ptr [ecx+89896B0F]
	imul	byte ptr [esi]
	jnz	0040168B
	xor	[ecx+8A4DFE8A],ch
	illegal	
	cmp	[edi+ecx*2+0A898971],edx
	mov	esi,[edx+2627270A]
	mov	ah,AB
	jno	004015BF
	and	dh,dh
	xchg	eax,ebp
	out	dx,al
	lodsd	
	test	[esi],ebx
	xchg	eax,esi
	xor	al,76
	movsd	
	illegal	
	adc	eax,B5008A5F
	mov	al,[eax]
	mov	ecx,8AFB911E
	mov	cl,[edx+6BED911E]
	mov	[ecx+896F4894],ecx
	mov	[esi+7C],ecx
	adc	edi,[ecx]
	mov	ecx,B4760081
	jpe	00401657
	sub	ebp,[esi-77]
	mov	esp,esi
	xor	[ecx+89891185],ch
	mov	[ecx+118530FA],ecx
	xor	[ecx],bl
	push	es
	lea	edx,[eax+ebx+F28A8A8A]
	out	E4,al
	arpl	[ecx+221F6865],bx
	div	byte ptr [eax]
	jno	004016FC
	dec	ecx
	inc	ebp
	mul	byte ptr [eax]
	jno	0040168A
	dec	ecx
	add	[esi-55],ebp
	test	byte ptr [ecx+896EEA94],89
	mov	cl,94
	mov	dword ptr [ecx+edi],3975008A
	adc	ecx,esi
	sub	ch,[ecx]
	test	eax,8A850E91
	mov	dl,[ecx]
	daa	
	lodsd	
	adc	byte ptr [edi+8A049139],8A
	mov	cl,[edx+6FD594B9]
	mov	[ecx+9B9BB9A5],ecx
	leave	
	push	ecx
	mov	al,EE
	or	[ebp+73],dh
	sti	
	das	
	imul	byte ptr [esi+73C49B3E]
	mov	[ecx+6E7C8289],ecx
	mov	eax,[A36EA46E]
	div	byte ptr [ebx+89701594]
	mov	esp,ecx
	xchg	eax,edx
	int	03
	mov	al,[856991D8]
	mov	cl,[edx+82AD2711]
	xchg	eax,edi
	cmp	[ecx+8A8A8A3F],edx
	mov	bh,[ecx+30F86C13]
	cmp	dword ptr [ecx],947D30F8
	add	esi,[edx-77]
	mov	[edi+013B00F7],eax
	mov	ss,[esi+7538F673]
	jle	004016EA
	xchg	eax,esp
	dec	ebp
	insb	
	mov	[ecx+548530F6],ecx
	xor	[ecx+5473C9EE],al
	xor	[ebp-6C],dh
	jz	0040179D
	mov	[ecx+60768902],ecx
	aam	58
	pop	dword ptr [89098911]
	mov	eax,edi
	xor	[ebp+39],dh
	clc	
	xor	[ecx+39],dh
	adc	ecx,[edx+292AF111]
	test	eax,FA867296
	sub	byte ptr [eax+910A2108],C1
	xchg	[edx+11D6118A],cl
	outsb	
	jge	0040179C
	xchg	eax,ecx
	mov	bh,87
	mov	cl,[edx+ABB4B98A]
	jno	004016F7
	and	dh,dh
	xchg	eax,ebp
	xchg	eax,esp
	xchg	eax,ebx
	imul	ecx,[ecx+8C65C289],72
	fdivr	dword ptr [edi+B0F6A8F1]
	mov	esi,82F61F6C
	push	esi
	cdq	
	jle	00401756
	xchg	eax,esp
	jnc	004017FB
	mov	[ecx+398689D8],ecx
	dec	eax
	shr	[esi],cl
	mov	al,[eax]
	lea	ebx,[esi]
	xchg	eax,ecx
	fsubr	dword ptr [esi-77]
	mov	esp,esi
	xor	[ebp+8A81008A],cl
	add	[ebp+8940911E],cl
	mov	[ecx+6D853082],ecx
	mov	[ecx+6C3B9489],ecx
	mov	[ecx+B0BD0E07],ecx
	or	dl,[eax+eax*4+96898970]
	insd	
	neg	byte ptr [ebx+3E]
	leave	
	inc	esi
	sahf	
	add	[ecx-6C],cl
	pop	dword ptr [eax-77]
	mov	[eax],edi
	cmp	eax,7AD36021
	lock	
	jbe	0040184A
	mov	[ecx+75ABB426],ecx
	mov	[eax],esp
	not	byte ptr [ebp+9AC34596]
	sahf	
	pop	ss
	sbb	ah,dh
	hlt	
	adc	ebp,[esp+edx*4+0A]
	insd	
	mov	[ecx+A6B9A4E6],ecx
	insd	
	dec	ebp
	cmpsb	
	insd	
	dec	ebp
	xchg	eax,esp
	adc	eax,F589896F
	sbb	[esi+edx*4+5BF6E977],ebx
	xchg	eax,esi
	lds	esi,esi
	xor	ebx,[ecx+3E]
	leave	
	xchg	eax,esi
	add	eax,3B72C9AC
	insb	
	xchg	eax,esi
	sti	
	pop	esp
	mov	eax,0B71F610
	outsd	
	xchg	eax,ebp
	pop	ds
	and	dh,dh
	add	[ecx-0A],dh
	xchg	esi,esi
	cmp	[ebp-0A],dh
	and	[ecx-6C],bh
	lahf	
	outsb	
	mov	[ecx+03C3E08F],ecx
	dec	edi
	mov	cx,cs
	out	dx,al
	or	[ebp-77],dh
	jpe	00401832
	out	dx,ax
	xchg	[edx+8130F68A],ecx
	sub	ah,[edi]
	mov	ah,94
	in	eax,dx
	jo	004017DA
	mov	esi,ebx
	adc	ecx,edi
	rep	
	loope	00401896
	leave	
	and	al,EE
	scasd	
	insd	
	sub	al,46
	cmp	[ebp+70C1EB7A],al
	mov	[ecx+B426272A],ecx
	xchg	eax,esp
	retf	
	or	dword ptr [edx+639AAE8A],87
	illegal	
	cld	
	cmp	[ecx+8A8A88C4],edx
	cmp	[esi+1F95F620],ebp
	xchg	eax,esp
	mov	esp,F4898970
	or	[ecx],bl
	dec	edi
	xor	al,EE
	lodsb	
	imul	ecx,[edi],EE
	inc	esp
	mov	[edx-10],edi
	add	ecx,[edx+EB408A8A]
	cmp	dword ptr [ecx],36
	inc	esi
	xor	[ecx+7A],dh
	lock	
	push	F68A8A8A
	sub	esp,[ecx-6C]
	ja	00401838
	mov	cl,[edx+A267FBCA]
	add	ch,ah
	illegal	
	push	es
	jnz	00401844
	jpe	004018AD
	rol	dword ptr [esi+272A8A8A],26
	mov	ah,AB
	insd	
	mov	[eax],esp
	xchg	eax,esp
	hlt	
	test	[edx+F0E7088A],ecx
	and	edi,[ebx+1B]
	daa	
	mov	ah,AB
	jnz	00401863
	and	dh,dh
	xchg	eax,ebp
	out	dx,al
	lodsd	
	test	[esi],ebx
	pop	ds
	xchg	eax,esp
	mov	eax,[978A8A86]
	wait	
	push	ebp
	std	
	ja	00401927
	mov	al,[eax]
	popf	
	xchg	eax,ecx
	xchg	eax,ecx
	insb	
	mov	[ecx+8A831994],ecx
	mov	cl,[edx+8A398D00]
	add	[ebp+8A832A94],bl
	mov	bh,[edi]
	sub	esi,[eax+9B463DBB]
	arpl	[ecx+8A8A884B],bx
	mov	bh,[ecx+397D30F8]
	adc	ecx,esi
	sub	ch,[ecx]
	test	eax,8A847C91
	mov	dl,[ecx]
	lodsb	
	push	edi
	mov	eax,[7291397C]
	mov	[edx+94B98A8A],cl
	xor	[ebx-77],ebp
	mov	[DD4951DC],ecx
	test	eax,95F620EE
	out	dx,al
	lodsd	
	mov	ch,1E
	adc	ecx,[ecx+B1F63C7A]
	in	al,dx
	mov	[edx+94898989],cs
	in	al,87
	mov	cl,[edx+0285CF0C]
	dec	eax
	jz	004019C4
	sub	al,09
	inc	esp
	mov	[edx-10],edi
	mov	al,6D
	mov	[ecx+3983EB40],ecx
	inc	esi
	scasb	
	jpe	0040195F
	lea	eax,[edi+32F68A8A]
	dec	ebp
	outsb	
	stosd	
	and	al,94
	cmp	eax,BA8A8A83
	ja	0040198B
	pop	ss
	xor	ebx,ebx
	clc	
	sbb	eax,131BC94D
	mov	bh,[ecx]
	adc	ecx,esi
	sub	ch,[ecx]
	test	eax,8A840A91
	mov	dl,[ecx]
	illegal	
	adc	[esi+7D],ebp
	xchg	eax,esp
	mov	[318A8A87],al
	das	
	inc	eax
	cmpsd	
	mov	byte ptr [eax-03],8E
	xchg	eax,esp
	mov	edi,318A8A85
	lodsb	
	xchg	eax,ecx
	jpe	0040195E
	test	eax,71C27A7A
	in	al,dx
	xchg	eax,esp
	cmp	[ebx],ah
	mov	[ecx+8A85CC94],ecx
	mov	cl,dh
	std	
	clc	
	outsb	
	and	dh,dh
	xor	[ebp+56],dh
	xor	[ebp-0C],bl
	xor	[ebp-0C],dh
	xor	[ecx+89790809],al
	jpe	004019C6
	adc	al,87
	mov	cl,[edx+8A84DA94]
	mov	dh,[BDD81893]
	and	bl,bh
	loop	00401996
	jnz	00401976
	and	dh,dh
	xchg	eax,ebp
	mov	al,[eax]
	jno	00401A07
	mov	dl,[ecx]
	illegal	
	sub	ch,[ecx]
	test	eax,8A845F91
	mov	dl,[ecx]
	mov	ss,[esi-13]
	mov	al,[85559139]
	mov	cl,[edx+8A84AF94]
	mov	bh,[ebx]
	mov	dword ptr [ebp-22],B45EECAB
	xchg	eax,esp
	stosd	
	xchg	[edx+AC31DC8A],cl
	test	eax,EC91D571
	outsb	
	mov	[ecx+89088948],ecx
	mov	[edx-12],edi
	illegal	
	xchg	[edx+7085098A],cl
	xchg	eax,esp
	call	82CAA4C1
	lahf	
	jbe	00401A95
	neg	byte ptr [ecx]
	imul	ebp,[esi+7B],F46131F6
	cmp	[ebp+3E7528F6],al
	mov	ah,94
	jbe	004019D8
	mov	cl,[edx+896EB294]
	mov	[edx+6D],ebp
	std	
	mov	ecx,92530A26
	out	dx,al
	lodsd	
	test	eax,edi
	xor	[ebp+79008A39],al
	clc	
	xor	[ebp+39],dh
	clc	
	xor	[ecx+39],dh
	xchg	eax,esi
	inc	ebx
	mov	dl,F0
	pop	dword ptr [edx]
	jz	00401A70
	jle	00401A6A
	scasd	
	jno	00401A13
	sub	[ebx+C27A8A8A],eax
	outsd	
	jpe	00401A4A
	or	dword ptr [edi],7A8A92EC
	xchg	eax,esp
	fiadd	word ptr [edx+ecx*4+42B1B48A]
	jmp	00401A22
	mov	ecx,B47130F6
	stosd	
	jno	00401A29
	and	dh,dh
	xchg	eax,ebp
	xchg	eax,esp
	fiadd	word ptr [ebp+40218A8A]
	jpe	00401A2C
	mov	ebp,118A13EE
	illegal	
	sub	ch,[ecx]
	test	eax,8A812691
	mov	dl,[ecx]
	lds	esi,[ebp-51]
	illegal	
	xchg	eax,ecx
	cld	
	xchg	[edx+F6B98A8A],cl
	xor	[ebp+8A6394B4],al
	mov	cl,[edx+588B8A03]
	fld	st(2)
	stosd	
	sub	ah,cs:[edi]
	mov	ah,AB
	jnz	00401A67
	and	dh,dh
	xchg	eax,ebp
	sub	esi,esi
	add	[ebp-0A],dh
	or	[ecx-6C],dh
	imul	ecx,[bx+di+2B89],71
	cmpsd	
	jg	00401A90
	jpe	00401AE2
	mov	[ecx+ecx*4-77],ebp
	leave	
	xchg	eax,ecx
	jmp	far 7A89:896B
	out	dx,al
	aas	
	imul	ecx,[ecx+2C6BBE89],D9
	jns	00401A9C
	cli	
	imul	ecx,[ecx+89B99489],89
	mov	[ebp+5D],ebp
	dec	esp
	mov	byte ptr [eax+eax*4],B0
	inc	esi
	adc	[ecx+FA89893F],ecx
	xor	[ebp+6868BA11],cl
	add	edx,edi
	xor	[ebp+6EA930F6],dl
	dec	ecx
	inc	ebp
	div	byte ptr [ecx]
	cmp	esp,esi
	cmp	[ebp+008A4913],ah
	movsd	
	xchg	eax,esp
	lodsb	
	outsb	
	mov	[ecx+9299BD87],ecx
	bound	esi,[ebx+ebp*4+F6208971]
	xchg	eax,ebp
	out	dx,al
	lodsd	
	sbb	dword ptr [esi],8717941F
	mov	cl,[edx+76359643]
	or	ebp,[ebx+70]
	mov	esi,6E963EF6
	idiv	dh
	jns	00401BD6
	add	[ecx-0A],dh
	push	es
	jns	00401BDC
	or	[ecx-6C],dh
	js	00401AF6
	mov	cl,[edx+896E2794]
	mov	[edx+F64E89DD],edi
	xor	[ecx+896DABB4],bl
	and	dh,dh
	xchg	eax,ebp
	out	dx,al
	lodsd	
	jge	00401B84
	xor	[ebp+84729439],al
	mov	cl,[edx+09FA95D5]
	arpl	di,bx
	fdiv	st(0),st(4)
	xor	[ecx+5978F60D],ch
	mov	[ecx+712CF489],ecx
	mov	al,[eax]
	movsd	
	mov	al,[eax]
	test	eax,896B3991
	mov	[ecx+448A8A82],edx
	mov	esp,58C692AA
	sti	
	mov	di,ds
	pop	ebp
	hlt	
	xor	[ecx+3E],bh
	wait	
	add	byte ptr [eax],75
	rep	
	sub	eax,4DF38A64
	arpl	cx,bx
	or	eax,6DF18A64
	arpl	[esi+esi*2],bx
	mov	ah,94
	add	byte ptr [esi+1F7B8A8A],6E
	jc	00401C40
	leave	
	jpe	00401BD6
	mov	cl,[bp+si+7A8A]
	lock	
	stc	
	xchg	[edx+6694D38A],cl
	insb	
	mov	[ecx+896CD891],ecx
	mov	[esi-4A],edx
	xchg	eax,esp
	push	edx
	insb	
	mov	[ecx+9D2F31A9],ecx
	lodsd	
	sbb	dh,al
	out	dx,al
	lodsb	
	push	es
	xchg	eax,esp
	iret	
	imul	ecx,[ecx+0694EE89],D5
	sbb	al,F3
	mov	bl,94
	lahf	
	jg	00401BA8
	mov	ch,[esi+esi*2+63]
	loop	00401C8C
	and	eax,5968F60D
	mov	[ecx+7526F689],ecx
	neg	byte ptr [esi]
	jnz	00401C29
	illegal	
	xchg	eax,esi
	jo	00401BCC
	les	ecx,[ecx+2FF68989]
	inc	esi
	mov	dl,7A
	lock	
	illegal	
	mov	[ecx+71008A89],ecx
	xchg	eax,esp
	in	al,89
	mov	[ecx+F349A8D9],ecx
	rol	dl,C1
	jle	00401C25
	outsb	
	add	[ebp+827393EE],al
	mov	[CD7EB3F6],eax
	xchg	eax,esp
	fadd	dword ptr [ebx+CC1B8A8A]
	neg	dword ptr [esp+eax*2]
	pop	es
	pop	edx
	dec	ebp
	clc	
	xor	al,6C
	in	al,dx
	test	[ecx+25],dl
	cli	
	imul	edi,[edx-10],00
	xchg	[edx+5DA6218A],cl
	dec	ebp
	and	ecx,eax
	outsb	
	mov	[ecx+949B3E89],ecx
	mov	esp,3F89896B
	dec	edi
	rol	dword ptr [ebp+F638C7DA],AE
	outsb	
	dec	ecx
	inc	ebp
	mov	bl,[ecx]
	cmp	eax,854B911E
	mov	cl,[edx+7989C426]
	mov	[ecx+F6A120F6],ecx
	xor	[ebp+8A818D94],dh
	mov	dh,[ebp+0FFB8CEA]
	xor	eax,008A79AC
	xchg	eax,ecx
	adc	ecx,[ecx+89897D91]
	mov	esp,esi
	xor	[ebp+6EA928F6],bl
	inc	ebp
	in	al,dx
	scasb	
	imul	ebp,[ecx+ecx*4-77],947526F6
	and	bh,[edi-76]
	mov	al,[7B6BD194]
	sti	
	xor	bh,dl
	das	
	popa	
	mov	al,[eax]
	jns	00401CE9
	das	
	xchg	eax,esi
	jnc	00401CEA
	aas	
	inc	esi
	jpo	00401D72
	lock	
	dec	edx
	mov	cl,[edx+9C942A8A]
	xchg	[edx+E59F678A],cl
	dec	edi
	sub	[ebx+esi*8],ecx
	lea	eax,[ebp+A63E09BB]
	int	BE
	imul	edx,[ecx+898989EF],FE
	jg	00401D59
	mov	ah,91
	or	[ecx+B5948989],cl
	mov	[edx+61EB938A],cl
	mov	dh,dl
	jpe	00401D1D
	xchg	eax,esi
	test	[edx+89FB918A],ecx
	mov	[ecx+8A832E94],ecx
	mov	dl,ch
	pushf	
	xchg	eax,ecx
	jpe	00401D2D
	jl	00401DAE
	mov	[ecx+8A85B594],ecx
	mov	bh,dl
	cmp	bl,[ebp+FA502920]
	pop	esp
	cmp	[ebx],edx
	mov	[ebx],edx
	mov	[ecx],edx
	illegal	
	sub	ch,[ecx]
	test	eax,8A80C091
	mov	dl,[ecx]
	mov	edi,393E4D8A
	xchg	eax,esp
	int	86
	mov	cl,[edx+EF2D0C5A]
	mov	esi,1171008A
	illegal	
	sub	ch,[ecx]
	test	eax,8A80E191
	mov	dl,[ecx]
	sbb	byte ptr [ebx+91390415],D7
	or	dword ptr [edx+F6B98A8A],C0948530
	mov	[edx+CB2DB28A],cl
	dec	ecx
	xor	[edi],ch
	xchg	eax,esp
	add	[edx+9B6B8A8A],cl
	add	[eax-0D],dh
	pop	edi
	das	
	pop	ebx
	wait	
	scasb	
	mov	ah,2C
	xchg	eax,esp
	jmp	dword ptr [ecx+ecx*4-77]
	mov	ebp,04FC4B3A
	inc	esi
	lodsb	
	mov	[esi],fs
	mov	ah,AB
	insd	
	mov	[eax],esp
	not	byte ptr [ebp+89114913]
	pop	ecx
	mov	[ecx+397530F8],ecx
	xchg	eax,esp
	mov	[548A8A7D],eax
	outsd	
	out	25,al
	iret	
	jc	00401D82
	jns	00401D62
	and	dh,dh
	xchg	eax,ebp
	push	ds
	idiv	byte ptr [eax]
	jnz	00401DD7
	sub	[ecx-6C],dh
	jl	00401D6E
	mov	cl,[edx+407930F6]
	mov	al,[AC405B8A]
	mov	cl,5C
	xchg	eax,esp
	mov	al,88
	mov	cl,[edx+78A01DCE]
	cmp	edx,esi
	mov	dh,[ebx+ebp*4+F6208975]
	xchg	eax,ebp
	and	bh,[esi]
	leave	
	idiv	byte ptr [eax]
	jnz	00401E03
	or	[ecx+7E],dh
	shr	[edx],cl
	xchg	eax,esp
	rol	[edx+22848A8A],cl
	xchg	eax,esp
	push	cs
	cmp	eax,F61C4947
	ja	00401E91
	mov	bl,3E
	leave	
	xchg	eax,esp
	cmp	eax,[esi+C9AC8A8A]
	jc	00401E6A
	insb	
	xchg	eax,esp
	push	edx
	xchg	[edx+2C49638A],cl
	and	byte ptr [edx],F6
	cmp	[ecx-0A],bh
	add	[ebp-0A],dh
	or	[ecx+7E],dh
	int	F6
	mov	dl,2A
	daa	
	xchg	eax,esi
	mov	ebp,08E6A2B0
	scasd	
	xchg	eax,ecx
	popa	
	test	[edx+AEEE248A],cl
	push	ecx
	xor	al,76
	mov	ah,7A
	lock	
	mov	[948A8A7F],al
	call	7BCAA8E8
	jpo	00401E57
	illegal	
	push	esi
	mov	[ecx],ss
	cmpsd	
	lodsb	
	cmpsb	
	insd	
	dec	ebp
	jpe	00401E0C
	sahf	
	cmpsd	
	lodsb	
	cmpsb	
	insd	
	dec	ebp
	cmpsd	
	lodsb	
	jpe	00401E16
	lodsb	
	xchg	eax,esp
	xchg	eax,esi
	mov	[edx+D999C78A],cl
	fistp	qword ptr [ecx]
	adc	ecx,esi
	sub	ch,[ecx]
	test	eax,8A7D0991
	mov	dl,[ecx]
	pop	esi
	cld	
	jbe	00401E56
	cmp	[ecx+8A8A82DF],edx
	mov	bh,[ecx+399930F8]
	clc	
	xor	[ebp-6C],bh
	into	
	xchg	[edx+E88D6A8A],ecx
	cmp	ah,[eax]
	clc	
	xor	al,8A
	out	dx,al
	lodsb	
	push	es
	out	dx,al
	test	[esi],al
	jpe	00401EAE
	sbb	al,88
	mov	cl,[edx+F67130F6]
	cmp	[ebp-0A],dh
	and	[ecx+3C],bh
	jno	00401F0A
	jns	00401E64
	insd	
	test	[edx+CFA5918A],ecx
	cmc	
	fcom	st(0),st(4)
	mov	[ecx+5EFD0989],ecx
	inc	eax
	mov	[ecx+8A390989],ecx
	add	[ebp+8A85E291],al
	mov	dl,[edi+esi*8+6E8A8A7F]
	xor	[ecx-08],dh
	dec	ecx
	imul	edx,[ebx+eax+A88A8A7F],37
	jno	00401EFF
	popa	
	mov	al,[eax]
	test	eax,8A810E91
	mov	dh,dh
	xor	[ecx+496EB1F6],ch
	inc	ebp
	test	byte ptr [ecx+51],6E
	lodsb	
	hlt	
	xor	[ecx+8A88EA94],bh
	mov	al,[ecx-10]
	in	al,dx
	inc	ebx
	xor	ch,dl
	xchg	eax,ecx
	inc	byte ptr [edi+B45E8A8A]
	xchg	eax,ecx
	adc	eax,FB8A8A87
	jpo	00401EE3
	push	esi
	add	eax,05F4514D
	dec	ebp
	or	al,B4
	stosd	
	jno	00401ECB
	illegal	
	xchg	eax,ecx
	illegal	
	xchg	eax,ecx
	pushf	
	mov	cl,FB
	test	dh,dh
	xor	[ecx+F6A130F4],al
	xor	[ebp+8A831E94],dl
	mov	dl,[esp+esi+CB8A8A83]
	push	6B4BFFAD
	mov	edx,153E08BF
	mov	ebp,8A615CD0
	test	dword ptr [edx+02D9F6DC],8A2CB5EC
	in	al,dx
	mov	dl,ah
	jpe	00402EB4
	mov	dh,dh
	jmp	00401F8A
	lodsb	
	jpo	00402EB4
	fcomp	double ptr [ebx]
	adc	al,B9
	jge	00401FA4
	imul	ecx,[ebx+8BC402DE],2ADCF6FE
	fild	qword ptr [edx]
	fiadd	word ptr [esi+0F]
	mov	[eax],dl
	or	eax,[eax]
	add	[edx+08890FED],cl
	or	eax,[eax]
	add	ch,dl
	fisubr	word ptr [ebp+FC32583B]
	sub	eax,esi
	add	dh,ah
	xor	eax,edx
	or	dl,bl
	sub	ebx,eax
	jle	0040253F
	mov	dh,dh
	jg	0040253F
	adc	al,E1
	xor	esi,ebp
	mov	eax,[03E0B7FB]
	shl	byte ptr [edx],01
	std	
	inc	edx
	or	ebx,ecx
	mov	bl,2B
	sub	dl,ch
	dec	ebx
	or	bh,bl
	jz	004027E9
	mov	ax,ax
	jnz	004027E9
	mov	esi,eax
	inc	ebp
	retf	D1CE
	or	bh,ch
	add	edx,edi
	add	bh,dh
	inc	edx
	xor	dh,bl
	mov	ecx,edi
	sub	ecx,esi
	or	ebx,ecx
	inc	edx
	jo	00402D87
	mov	bh,bh
	jno	00402D87
	ficom	word ptr [edx-28]
	scasb	
	outsb	
	leave	
	mov	ecx,ebx
	dec	edx
	or	edx,eax
	neg	bl
	pop	ecx
	xor	dl,ah
	mov	al,4F
	add	edi,ecx
	sub	ebx,ecx
	jl	0040227F
	push	edx
	pop	edx
	jge	0040227F
	retf	7EE4
	movsd	
	xor	ecx,[edx]
	mov	edx,C22AC20B
	sub	ah,al
	sub	eax,esi
	mov	eax,E504C277
	sub	cl,ch
	jpe	00402632
	mov	ebx,ebx
	xchg	bh,bh
	jpo	00402632
	neg	byte ptr [edx+4839E1F2]
	or	bl,bh
	inc	ebx
	sub	edx,esi
	sub	bh,ch
	dec	ebx
	or	edx,edi
	jl	00402A22
	repne	
	jge	0040207D
	jge	00402A22
	xchg	eax,esi
	insb	
	lahf	
	imul	dword ptr [ebx]
	cli	
	add	ebx,esi
	add	esi,edx
	add	esi,edx
	or	bl,ch
	xor	bh,ch
	push	dword ptr [eax+10]
	xor	bl,ah
	or	bl,dl
	or	edi,eax
	jz	00402F6D
	push	ebx
	pop	ebx
	jnz	00402F6D
	sbb	ecx,[eax]
	lodsd	
	xlat	
	arpl	[esi+ecx*2+02],bx
	out	2B,al
	illegal	
	fsave	word ptr [eax+02D0034A]
	illegal	
	rol	dword ptr [edx],01
	fadd	dword ptr [edi+0F]
	adc	byte ptr [eax],0E
	add	[eax],al
	mov	ax,ax
	jnc	00402ED8
	lodsb	
	adc	[eax-29],ch
	pop	esi
	dec	ecx
	mov	dh,ch
	sub	dh,al
	add	ecx,eax
	xor	dl,ah
	jbe	00401FB7
	js	004020E7
	ja	00401FB7
	xor	dh,ch
	cwde	
	jg	0040211D
	illegal	
	illegal	
	imul	dword ptr [ebx]
	ror	byte ptr [edi],01
	mov	dh,D0
	add	bh,dh
	mov	bl,bh
	mov	bl,85
	or	bh,cl
	dec	esi
	jbe	00402D61
	mov	bh,bh
	rep	
	ja	00402D61
	in	al,34
	bound	ebp,eax
	pop	ds
	dec	ebx
	inc	ebx
	mov	bl,ah
	xor	ebx,esi
	xor	ebx,edi
	or	ebx,esi
	inc	ebx
	cmp	edx,305AE9C4
	jmp	00402DEF
	adc	cl,[ecx+F6310429]
	pop	ebp
	xor	ecx,edx
	sub	al,bl
	inc	eax
	inc	eax
	dec	edx
	add	bl,cl
	mov	bl,ch
	sub	cl,ch
	mov	ch,dl
	jz	00402020
	rep	
	jnz	00402020
	jmp	004021C4
	popf	
	mov	edx,9A1DAE3F
	sub	esi,ebx
	or	edi,eax
	xor	edi,esi
	sub	ebx,ecx
	or	dl,ah
	add	edx,esi
	xor	esi,edx
	neg	bl
	sub	ebx,ecx
	sub	dl,bh
	jo	004020F5
	repne	
	jno	004020F5
	jge	004021DA
	jns	004021D9
	mov	eax,DA8B0FDE
	xor	dl,ah
	or	dl,al
	mov	dl,al
	dec	edx
	sub	ebx,edi
	add	bl,dh
	mov	dl,cl
	mov	edx,ecx
	xor	bl,cl
	jo	00402B98
	mov	al,al
	jno	00402B98
	pop	edi
	mov	al,72
	das	
	test	bl,cl
	cmp	[ebx],esi
	dec	byte ptr [ebx]
	test	dword ptr [ebx],2BF12BF3
	fidiv	word ptr [edx]
	fdiv	double ptr [edx]
	std	
	lea	eax,[eax+78]
	mov	esi,edx
	or	esi,eax
	jbe	00402BE0
	push	si
	pop	si
	jmp	004021C7
	add	[edi],ecx
	xchg	[ebx],edx
	or	al,[eax]
	add	[edx],al
	hlt	
	pop	ds
	and	eax,FD0ACF71
	add	edx,ebx
	or	dl,bl
	xor	bh,ch
	add	ebx,eax
	inc	edx
	jbe	00402069
	lea	cx,[ecx]
	ja	00402069
	wait	
	les	edx,[eax+ebp*8-1E]
	test	[edx],dh
	fmul	dword ptr [edx+47F3B3DE]
	sub	edi,edx
	add	bl,dl
	jz	00402C05
	rep	
	jnz	00402C05
	loop	00402236
	jnz	0040220E
	add	dword ptr [ecx+0B],2AF103F9
	illegal	
	push	00
	add	ebx,eax
	dec	ebx
	js	004029DE
	lea	edi,[edi]
	mov	bh,bh
	jns	004029DE
	push	edi
	jz	004021E1
	jz	00402212
	push	ecx
	push	cs
	out	dx,al
	sub	bl,cl
	or	dl,bl
	add	cl,bl
	sub	edx,edi
	or	esi,eax
	mov	bh,B9
	jbe	004020D5
	mov	bx,bx
	lea	eax,[eax]
	ja	004020D5
	sub	esp,3C429456
	push	ecx
	dec	edx
	add	ebx,eax
	or	edx,ebx
	add	edx,esi
	sub	dl,ch
	neg	bh
	dec	ebx
	add	cl,EE
	jle	0040217A
	rep	
	xchg	ax,ax
	jg	0040217A
	out	09,al
	xchg	eax,ecx
	inc	ecx
	mov	[ebp-4F],cs
	dec	eax
	mov	eax,ebx
	dec	eax
	mov	dl,ah
	add	dl,al
	mov	al,ch
	dec	ebx
	sub	bh,ah
	jbe	004024A8
	repne	
	push	esi
	pop	esi
	ja	004024A8
	movsd	
	xchg	eax,edi
	jo	004022D5
	xchg	eax,esi
	mov	ah,C0
	sub	edi,eax
	mov	ebx,edx
	or	bl,dh
	xor	edx,ecx
	add	bl,cl
	dec	esi
	jbe	00402210
	rep	
	rep	
	ja	00402210
	illegal	
	add	cl,[edi]
	jcxz	00402274
	inc	esp
	neg	bh
	sub	bh,al
	inc	edi
	xor	ebx,eax
	or	bl,ah
	sub	esi,edx
	sub	bh,ah
	neg	bh
	neg	bh
	jle	004023F0
	lea	bx,[ebx]
	jmp	004022DF
	jg	004023F0
	mov	ebx,3516DB90
	pop	es
	or	ch,[edx]
	out	dx,al
	dec	ecx
	neg	ah
	add	cl,bh
	or	ah,ch
	mov	ch,F8
	mov	dh,bl
	sub	bh,ah
	dec	edx
	or	bl,al
	xor	eax,edi
	inc	eax
	mov	ch,0B
	mov	ecx,esi
	xor	ecx,edx
	jbe	004026BC
	repne	
	ja	004026BC
	adc	al,57
	aam	44
	call	far F80A:D72B
	xor	dl,ch
	sub	edx,esi
	sub	edx,edi
	add	dl,ah
	inc	edx
	mov	bl,4B
	xor	edx,ebx
	jo	00402F22
	mov	bl,bl
	jno	00402F22
	retf	4D23
	sub	[esi+48],ah
	sbb	eax,esp
	inc	esi
	mov	edx,ecx
	or	ebx,edi
	dec	ebx
	mov	dl,1B
	xor	edx,eax
	xor	ebx,eax
	neg	dl
	xor	ebx,edx
	jbe	0040235D
	lea	edi,[edi]
	ja	0040235D
	jno	0040235B
	sbb	al,65
	or	ah,[edi]
	inc	ebx
	add	edx,eax
	mov	dh,B9
	sub	edx,esi
	neg	bl
	sub	dl,ah
	jo	004027C8
	xchg	cx,cx
	jno	004027C8
	loope	00402326
	out	07,al
	push	ebx
	sub	edi,ebx
	inc	edi
	inc	esi
	lea	edx,[eax+000000F8]
	mov	bl,28
	dec	edi
	mov	bl,C2
	neg	bh
	jc	004022C0
	mov	eax,eax
	repne	
	jnc	004022C0
	aam	A6
	ficomp	dword ptr [ebx+ecx*2]
	sub	edx,[eax+F78B0BB1]
	mov	cl,BB
	or	edi,ebx
	add	cl,dl
	add	ch,cl
	dec	ebx
	add	edi,esi
	xor	ebx,ecx
	neg	bl
	jz	004029B4
	xchg	si,si
	xchg	si,si
	jnz	004029B4
	sub	[ebx+F8810A7B],esp
	retf	
	illegal	
	add	[edi],cl
	test	[esi+0A],eax
	add	[eax],al
	xor	ebx,eax
	sub	edi,esi
	or	edi,ebx
	dec	ebx
	or	bh,dl
	xor	bh,ch
	jc	0040245E
	lea	edi,[edi]
	jnc	0040245E
	xchg	eax,edi
	xor	al,A5
	mov	al,45
	dec	esp
	or	esi,ecx
	xor	bl,dh
	add	bh,al
	dec	esi
	sub	bl,cl
	neg	bh
	mov	ebx,eax
	push	dword ptr [edx+08]
	jz	00402E90
	mov	ax,ax
	lea	ebx,[ebx]
	jnz	00402E90
	push	esp
	pusha	
	and	dword ptr [edx+1F],E0
	xor	ebx,ecx
	or	edi,ecx
	add	ebx,esi
	sub	esi,edi
	mov	esi,eax
	dec	ebx
	jpe	00402FB3
	repne	
	mov	ecx,ecx
	jpo	00402FB3
	mov	esp,5376C4A3
	loopne	00402497
	or	esi,edi
	dec	ebx
	sub	cl,ch
	mov	bh,ah
	neg	dl
	add	bh,ah
	mov	ch,B2
	mov	bl,AA
	jle	00401F6E
	js	00402450
	jg	00401F6E
	int	16
	pusha	
	insd	
	xlat	
	rol	[ebp+35],cl
	add	esi,ebx
	xor	bh,al
	mov	ebx,edx
	or	bh,ch
	sub	edi,esi
	xor	bl,ch
	inc	edi
	add	esi,ebx
	add	bh,al
	jle	00402831
	mov	edi,edi
	rep	
	jg	00402831
	illegal	
	out	9A,al
	jns	00402447
	hlt	
	inc	ecx
	mov	esi,eax
	add	bl,ah
	mov	edi,edx
	or	bl,cl
	mov	bh,50
	add	bl,dh
	mov	eax,[edx]
	mov	bl,04
	jo	004025C8
	mov	edi,edi
	jno	004025C8
	xchg	eax,edi
	fidiv	word ptr [edi+eax*4]
	neg	dl
	or	ebx,eax
	mov	bl,52
	mov	al,88
	or	edi,esi
	dec	edx
	or	ebx,edi
	mov	edi,eax
	jc	00402E1D
	mov	dh,dh
	jmp	004024C5
	push	0952830F
	add	[eax],al
	and	[eax],cl
	mov	[eax-47],ch
	adc	bh,[ecx-0A]
	fbstp	tword ptr [ebx]
	fdiv	dword ptr [ebx+2A4B4B30]
	in	al,dx
	dec	ecx
	add	ecx,eax
	jc	00402919
	xchg	al,al
	push	dx
	pop	dx
	jnc	00402919
	outsd	
	mov	ecx,[ecx+30]
	add	al,[2AFC2A43]
	sti	
	mov	ebx,edi
	xor	ebx,edi
	mov	bh,6B
	inc	ebx
	xor	bl,cl
	jle	0040293C
	rep	
	lea	bx,[ebx]
	jg	0040293C
	jz	00402526
	push	42
	sub	[ebx+DE8BD72A],cl
	mov	eax,esi
	mov	al,8C
	or	eax,ebx
	mov	edx,edi
	js	0040296A
	mov	edi,edi
	jge	00402531
	jns	0040296A
	adc	eax,D340DCAB
	rol	byte ptr [ebx],01
	illegal	
	fstenv	word ptr [ebx]
	rol	[edx],cl
	jmp	FD4B1673
	or	edx,edi
	jc	00402B72
	mov	edx,edx
	jnc	00402B72
	push	cs
	mov	edx,88FCE976
	enter	0213,F1
	mov	edx,esi
	or	bh,ch
	dec	ebx
	add	edi,ecx
	or	cl,bl
	jpe	00402CBE
	rep	
	push	esi
	pop	esi
	jpo	00402CBE
	inc	byte ptr [ebp-78]
	dec	eax
	fisubr	word ptr [ebx]
	fiadd	dword ptr [edx+2A]
	cli	
	xor	cl,8E
	or	ebx,edi
	inc	edx
	mov	ebx,ecx
	sub	edx,eax
	sub	edx,edi
	jpe	004028CC
	jle	00402599
	jns	0040259B
	jpo	004028CC
	sbb	ecx,esp
	pop	edi
	sbb	[0E8AD303],edi
	neg	dl
	neg	bh
	mov	dl,02
	mov	dl,dh
	js	00402A91
	xchg	dh,dh
	jns	00402A91
	pop	dword ptr [edx+D696CFF5]
	xor	eax,8BD60B14
	enter	DFF6,2A
	aam	2B
	fimul	word ptr [edx]
	illegal	
	xchg	bh,al
	cld	
	illegal	
	mov	di,di
	mov	ah,ah
	ja	004022A1
	daa	
	xchg	eax,edx
	iret	
	inc	esp
	repne	
	or	bh,dl
	xor	edi,eax
	add	bh,bl
	dec	esi
	mov	ebx,eax
	mov	bh,3E
	jle	004023CD
	jmp	00402600
	jg	004023CD
	xchg	eax,esi
	sti	
	pop	ds
	out	dx,ax
	cmp	byte ptr [ecx],66
	xor	esi,edx
	mov	bh,ch
	or	edi,ecx
	mov	esi,ecx
	mov	bh,cl
	add	edi,edx
	add	eax,ecx
	dec	esi
	jl	00402C77
	xchg	ax,ax
	jge	00402C77
	aas	
	or	edx,[ebx-0C]
	insd	
	inc	ebp
	xlat	
	or	ch,dl
	mov	ecx,ebx
	or	bl,dl
	sub	bh,cl
	or	bh,dl
	mov	bl,dl
	xor	edx,eax
	mov	ecx,esi
	sub	ecx,esi
	sub	ecx,edi
	jbe	00402B4C
	jc	0040264E
	ja	00402B4C
	ror	ebp,01
	pop	edx
	pushf	
	leave	
	dec	eax
	neg	bh
	mov	ebx,edx
	inc	eax
	add	ebx,edx
	or	eax,edi
	mov	edi,esi
	mov	eax,edx
	add	ebx,ecx
	jo	0040277C
	xchg	dx,dx
	push	bx
	pop	bx
	jno	0040277C
	idiv	dword ptr [ebx+B03519D7]
	insd	
	mov	bh,0E
	mov	edx,ebx
	xor	dh,bh
	inc	esi
	sub	esi,ecx
	dec	edi
	sub	eax,ebx
	jle	00402F43
	xchg	edi,edi
	repne	
	jg	00402F43
	jno	0040268E
	fld	double ptr [ebx+F30BDC02]
	xor	bl,al
	sub	ebx,edi
	xor	ebx,ecx
	or	bl,bh
	dec	ebx
	or	bh,bl
	jle	00402728
	repne	
	mov	dh,dh
	jg	00402728
	js	0040271E
	lahf	
	mov	dword ptr [ecx+0006B7C7],DF324900
	dec	edx
	add	ch,dh
	neg	ah
	jbe	0040251B
	jmp	004026D5
	ja	0040251B
	in	al,D1
	cld	
	illegal	
	or	al,[ebx]
	xlat	
	inc	edx
	dec	edx
	inc	edx
	add	dl,bl
	sub	cl,E9
	mov	bh,ah
	sub	ebx,eax
	dec	ebx
	jo	004028F4
	push	bx
	pop	bx
	mov	edx,edx
	jno	004028F4
	pop	esp
	inc	edx
	lds	ebp,[edx+esi*8+D903CBA0]
	add	esi,ecx
	sub	ebx,eax
	inc	ebx
	or	bl,al
	inc	esi
	mov	bh,bl
	neg	bh
	mov	bh,40
	jl	004027A1
	push	eax
	pop	eax
	xchg	ah,ah
	jge	004027A1
	test	eax,8AE03343
	fstenv	word ptr [ebx+94C081C3]
	std	
	xor	al,[eax]
	mov	edi,eax
	add	esi,edi
	or	esi,edi
	xor	bh,al
	mov	bl,bh
	jbe	004025EA
	mov	ax,ax
	xchg	di,di
	ja	004025EA
	bound	esi,ebp
	illegal	
	pop	es
	adc	edx,[ebx+74]
	repne	
	inc	esi
	mov	edi,ecx
	shr	eax,10
	inc	edi
	inc	esi
	add	eax,edx
	or	esi,edx
	xor	edi,ebx
	sub	edi,esi
	sub	edi,ecx
	js	00402BB9
	mov	ecx,ecx
	jns	00402BB9
	or	[ebx-59],ch
	pop	es
	int	33
	cli	
	or	bh,cl
	mov	dl,6C
	sub	dh,bl
	add	al,bl
	xor	bh,dh
	sub	eax,esi
	push	dword ptr [ecx]
	inc	ebx
	add	dh,al
	jpe	00402D38
	repne	
	repne	
	jpo	00402D38
	hlt	
	inc	esi
	test	dword ptr [ebp+43],8A08C083
	sti	
	xor	edi,esi
	inc	esi
	xor	bl,dl
	add	ebx,edi
	sub	esi,eax
	or	edi,edx
	mov	bl,ch
	jpe	00402B28
	mov	al,al
	jpo	00402B28
	mov	ecx,ecx
	or	al,6E
	mov	ch,00
	mov	ebx,ecx
	inc	edi
	add	edx,edi
	mov	dl,B6
	neg	bl
	or	ebx,edx
	mov	dh,65
	neg	dh
	jpe	004021D3
	jnz	004027DF
	jpo	004021D3
	inc	edi
	inc	esp
	sub	[ebx],bh
	xor	ebx,edx
	add	bl,cl
	add	dh,al
	neg	dl
	add	edx,eax
	dec	ebx
	or	edx,esi
	mov	bl,02
	jpe	00402340
	rep	
	jpo	00402340
	push	ecx
	mov	ah,00
	das	
	mov	ebp,FD8AD903
	or	dl,ch
	or	dh,dl
	sub	edi,000006B7
	or	ah,cl
	add	edx,esi
	dec	ecx
	jle	00401FFC
	jpe	00402825
	mov	al,al
	jg	00401FFC
	test	al,9D
	push	cs
	inc	byte ptr [edi+2A]
	fcom	dword ptr [ecx+58]
	mov	bh,bl
	add	bh,ah
	add	bh,ch
	sub	bl,ch
	or	esi,eax
	jz	00402417
	jmp	0040284B
	jnz	00402417
	dec	ebp
	out	47,al
	dec	esi
	aam	D7
	add	bl,ah
	add	bl,bh
	sub	edi,ebx
	inc	ebx
	xor	ch,dl
	add	cl,ah
	or	cl,dh
	or	edi,ecx
	xor	cl,dl
	add	esi,ebx
	jl	00402486
	mov	al,al
	jge	00402486
	cmp	al,91
	xchg	eax,edi
	mov	ch,[ebx]
	iret	
	mov	bl,AA
	mov	ecx,edx
	sub	edx,31C04ACC
	xor	ch,ah
	neg	bh
	neg	ch
	inc	ecx
	xor	esi,edi
	xor	cl,ah
	jc	00402E41
	repne	
	jnc	00402E41
	inc	esi
	sbb	dword ptr [ecx],BB50043F
	insb	
	mov	bh,ch
	xor	esi,eax
	neg	bl
	xor	bh,ch
	mov	bl,19
	xor	bl,dl
	add	bh,dl
	js	0040260D
	xchg	esi,esi
	jns	0040260D
	jno	00402921
	shl	byte ptr [esi+04],01
	scasb	
	retf	
	or	dword ptr [edx],03D60BFC
	fimul	dword ptr [ebx]
	illegal	
	mov	ebx,edx
	neg	cl
	sub	dl,cl
	dec	edx
	add	edx,eax
	or	edx,ecx
	jbe	00402319
	lea	dx,[edx]
	jz	004028EA
	ja	00402319
	sti	
	shl	byte ptr [4BDF03DA],8B
	fdiv	st(0),st(6)
	fidiv	dword ptr [ebx]
	fiadd	word ptr [ebx]
	illegal	
	shr	byte ptr [ebx],01
	fimul	word ptr [edi]
	mov	[edi-07],cl
	illegal	
	ja	0040290B
	xchg	dh,dh
	jns	00402258
	adc	edx,[esp+eax*4-70]
	test	[ecx],esp
	inc	ebx
	add	bh,ah
	mov	cl,dl
	mov	edx,edi
	or	edx,esi
	sub	edx,eax
	jc	004025A6
	jmp	00402930
	mov	ecx,830F368D
	outsb	
	cld	
	illegal	
	ror	[esi-33],cl
	fild	dword ptr [ecx+A5163CEA]
	iret	
	add	bl,ah
	mov	bl,BE
	dec	ebx
	mov	ebx,edx
	xor	ebx,edi
	or	ebx,ecx
	neg	bl
	mov	bh,bl
	mov	bh,al
	jle	00402119
	push	edi
	pop	edi
	repne	
	jg	00402119
	out	dx,ax
	jbe	004029CA
	jge	004029C8
	adc	bl,[edx+57D08B55]
	inc	eax
	mov	edx,ebx
	add	ecx,ebx
	sub	ah,dh
	mov	cl,B6
	neg	bh
	add	eax,ecx
	jbe	0040280A
	mov	bh,bh
	ja	0040280A
	add	eax,[edi+9541677F]
	and	[edx+8BDF3342],dh
	illegal	
	rol	byte ptr [ebx+2A],01
	fbstp	tword ptr [ebx]
	illegal	
	jpe	004024F8
	jmp	004029A9
	jpo	004024F8
	into	
	insb	
	cmp	ebx,ecx
	push	ebp
	neg	ch
	sub	ebx,edi
	or	ecx,eax
	xor	bh,dl
	mov	esi,edx
	sub	edx,CE3FB4F8
	add	cl,bl
	jz	00402857
	push	si
	pop	si
	lea	ecx,[ecx]
	jnz	00402857
	add	ecx,[ebp-40]
	wait	
	popf	
	inc	byte ptr [edi+43]
	sub	bl,ah
	sub	cl,al
	or	ecx,edi
	inc	ebx
	sub	edi,eax
	jz	00402561
	jnz	004029F1
	repne	
	jnz	00402561
	mov	bh,20
	jno	00402A62
	xchg	eax,ebp
	or	dword ptr [ebx+0B],B3D92AF2
	jg	004029B9
	cmp	[ebx+33],cl
	stc	
	or	bl,dh
	js	0040237C
	xchg	bh,bh
	xchg	cl,cl
	jns	0040237C
	imul	ah
	sbb	[edx+F52A9F86],edi
	mov	bl,E4
	add	ebx,edx
	add	ebx,eax
	or	bh,bl
	or	ebx,edi
	add	edx,ebx
	jc	00402990
	xchg	dx,dx
	jnc	00402990
	lea	esp,[ebx+C7B7CEE2]
	and	eax,D32AEC8A
	mov	ch,6B
	mov	edi,ecx
	or	al,ah
	dec	ecx
	add	bh,ch
	jc	00402C57
	mov	di,di
	mov	bl,bl
	jnc	00402C57
	mov	esp,99C5FC8E
	add	ecx,esi
	or	ebx,eax
	mov	cl,24
	xor	dl,cl
	mov	dl,bh
	sub	edx,ecx
	or	bh,ch
	inc	edx
	jo	004024D2
	jmp	00402A83
	ja	00402A85
	jno	004024D2
	push	edi
	call	far 3789:7C77
	xor	bh,ch
	add	edx,ebx
	sub	ebx,edx
	or	dh,cl
	or	edx,eax
	or	edx,eax
	mov	ebx,ecx
	neg	dl
	add	edx,ecx
	jpe	004026E0
	jmp	00402AAF
	mov	ecx,FC2B8B0F
	illegal	
	enter	B126,69
	cmc	
	xor	ah,dh
	or	ah,bl
	shl	ecx,0F
	neg	ah
	xor	dh,bl
	mov	bh,3E
	sub	eax,esi
	jc	0040265A
	lea	edx,[edx]
	rep	
	jnc	0040265A
	pop	ecx
	outsd	
	mov	[ecx+2BF003AD],al
	into	
	or	esi,ecx
	add	ecx,esi
	xor	ecx,esi
	sub	dh,al
	mov	[esp-08],eax
	add	edi,eax
	mov	ch,B7
	mov	edx,ebx
	jc	00402439
	xchg	ah,ah
	rep	
	jnc	00402439
	jle	00402AA5
	inc	ebp
	int	51
	sub	byte ptr [eax],43
	xor	dl,ch
	mov	bl,F1
	mov	edx,ebx
	mov	[edi],cl
	or	ebx,ecx
	mov	bh,DA
	jle	00401FD7
	repne	
	repne	
	jg	00401FD7
	cmp	eax,F67D368C
	fild	word ptr [ebx]
	repne	
	or	esi,edx
	inc	ebx
	inc	edi
	inc	edi
	xor	bl,dl
	mov	bl,7A
	mov	eax,[eax]
	jz	004028A8
	xchg	ebx,ebx
	mov	bl,bl
	jnz	004028A8
	jmp	far 463D:7725
	neg	cl
	add	bl,dl
	xor	eax,E504CE96
	sub	bh,dh
	or	bl,al
	xor	ecx,ebx
	mov	dh,bh
	jpe	00402F8E
	rep	
	jpo	00402F8E
	mov	bh,55
	aam	8E
	ja	00402BBF
	lodsb	
	mov	ch,dh
	sub	eax,ebx
	neg	dh
	sub	dl,al
	add	bh,ch
	mov	ebx,eax
	inc	edx
	add	ecx,edx
	or	edx,edi
	sub	al,ah
	jo	004022FC
	mov	edx,edx
	jno	004022FC
	push	edi
	mov	ecx,32581931
	lock	
	xor	dl,al
	xor	dl,dh
	or	ebx,edx
	inc	edx
	xor	bl,ch
	dec	edx
	jc	00402580
	jbe	00402BAC
	jnc	00402580
	movsb	
	mov	edx,31795826
	xor	ebp,[ebx]
	test	dword ptr [esi+46],FB33F033
	add	edi,ebx
	xor	esi,ecx
	inc	esi
	xor	esi,ebx
	add	eax,ebx
	jc	004026A2
	repne	
	jpo	00402BD3
	jnc	004026A2
	jcxz	00402BFC
	loope	00402C55
	sub	eax,0246B30C
	fidiv	dword ptr [ebx]
	fld	dword ptr [esi+32]
	fdiv	dword ptr [ebx]
	test	dword ptr [ebx],16860FFE
	sti	
	illegal	
	mov	cx,cx
	mov	bl,bl
	ja	00402708
	jns	00402BA5
	mov	[ecx-0C],ss
	iret	
	loop	00402C72
	mov	bh,ah
	or	ebx,eax
	xor	ebx,eax
	dec	esi
	add	edx,ecx
	sub	esi,edx
	or	ecx,edi
	add	bh,dh
	or	cl,dl
	add	bl,cl
	js	00402DD1
	push	bx
	pop	bx
	jno	00402C24
	jns	00402DD1
	illegal	
	illegal	
	nop	
	push	ds
	sub	edi,esi
	inc	esi
	sub	ah,dh
	mov	dl,71
	mov	al,B6
	neg	ah
	or	edi,eax
	neg	dl
	xor	edi,edx
	sub	dl,al
	jz	00402DAA
	jno	00402C4A
	lea	bx,[ebx]
	jnz	00402DAA
	wait	
	out	dx,al
	inc	esi
	mov	bl,14
	inc	eax
	sub	eax,esi
	sub	ch,dh
	or	bh,cl
	or	ch,dh
	or	ebx,edi
	xor	cl,bl
	mov	bl,C8
	inc	ecx
	jle	00402CE6
	jge	00402C6D
	jg	00402CE6
	retf	
	nop	
	xor	eax,edx
	lodsd	
	shr	dword ptr [ebp+39],F6
	fbstp	tword ptr [ebx]
	rep	
	add	ebx,edx
	sub	bh,ch
	mov	ebx,ecx
	mov	bh,41
	jc	00402087
	repne	
	xchg	bl,bl
	jnc	00402087
	pop	es
	int	03
	add	esi,[eax+72]
	sti	
	neg	bh
	mov	ch,76
	add	cl,ah
	xor	ch,bh
	sub	cl,al
	mov	cl,ah
	inc	ecx
	jo	004023A3
	mov	dh,dh
	push	eax
	pop	eax
	jno	004023A3
	xchg	ebx,edx
	aas	
	xor	ebx,[ebx+46D37A34]
	xor	dh,al
	sub	ebx,esi
	call	eax
	xor	cl,bh
	or	ecx,edx
	mov	edx,esi
	or	edx,esi
	xor	ch,bl
	add	dh,al
	jpe	00402ADD
	mov	bl,bl
	xchg	ax,ax
	jpo	00402ADD
	or	[ebx+04],ebp
	push	esi
	xor	dl,dh
	mov	dl,al
	mov	edx,eax
	or	dh,dl
	ret	
	sub	eax,edx
	neg	dh
	jl	004022EC
	push	dx
	pop	dx
	rep	
	jge	004022EC
	lds	eax,[edx+54]
	jz	00402D43
	cmp	eax,DC0A52BB
	sub	bl,dh
	mov	esi,ecx
	mov	edi,ebx
	xor	esi,eax
	mov	bh,al
	sub	bl,dl
	add	ebx,eax
	jpe	004021F3
	jmp	00402D28
	scasd	
	mov	ax,ax
	jpo	004021F3
	push	ecx
	outsd	
	stosb	
	sub	eax,8A246C04
	lds	ecx,[ebx]
	fmul	dword ptr [edx]
	ret	
	add	bh,bl
	mov	dl,C2
	or	dh,bh
	xor	edx,eax
	sub	bl,cl
	pop	eax
	jl	0040215A
	xchg	cl,cl
	xchg	edx,edx
	jge	0040215A
	dec	esp
	aam	53
	and	bl,[edi+67]
	mul	dword ptr [ecx-75]
	illegal	
	fild	dword ptr [edi-76]
	cli	
	xor	bh,dl
	dec	edi
	or	bl,dh
	add	bh,ah
	xor	ebx,eax
	sub	bl,ah
	jl	00402EFA
	jl	00402D7B
	jge	00402EFA
	mov	ch,[ebx]
	int	03
	mov	[D103F3D5],eax
	xor	ah,cl
	xor	edx,ecx
	sub	cl,dh
	mov	ah,65
	inc	edx
	jle	00402045
	jmp	00402D9E
	jl	00402DA0
	jg	00402045
	lds	eax,esi
	mov	cl,6D
	mov	dh,bh
	shr	ecx,0F
	add	edi,ebx
	neg	bl
	or	bh,bl
	mov	edi,esi
	js	00401F97
	jmp	00402DC3
	out	0F,al
	mov	esi,ecx
	illegal	
	illegal	
	add	[ebx+4C44F844],ebx
	jc	00402DFD
	add	edi,ebx
	mov	cl,FC
	neg	ch
	add	bh,bl
	add	cl,al
	sub	esi,edx
	jc	0040287C
	mov	esi,esi
	jnc	0040287C
	and	al,[eax+ebx*4]
	fimul	dword ptr [edi]
	test	[edx+33FFFFFC],eax
	illegal	
	xlat	
	mov	bl,cl
	sub	edx,edi
	neg	ah
	sub	dh,ch
	sub	eax,esi
	neg	bh
	jz	00402A46
	jmp	00402E10
	jnz	00402A46
	pop	dword ptr [ecx-1F]
	test	bh,ah
	mov	ch,A0
	add	eax,esi
	dec	ecx
	sub	bh,dh
	mov	esi,ebx
	or	ebx,ecx
	dec	ebx
	sub	ebx,ecx
	xor	dh,ch
	xor	esi,edi
	neg	al
	jle	00402C2F
	jo	00402E37
	jg	00402C2F
	push	cs
	hlt	
	jge	00402EBB
	inc	esi
	inc	ecx
	xor	bh,dl
	dec	ebx
	xor	esi,ecx
	xor	ecx,esi
	sub	ch,dl
	sub	edi,edx
	jc	00402C99
	jmp	00402E59
	jnc	00402C99
	lodsd	
	adc	al,[ebx+56]
	xchg	[ebx+ebp],bh
	into	
	mov	ah,4C
	xor	ecx,edi
	mov	dh,ah
	or	bl,dh
	add	eax,ecx
	or	bl,ah
	add	eax,ecx
	push	00003000
	sub	bl,ch
	jc	00402681
	push	edi
	pop	edi
	jnc	00402681
	push	esi
	sbb	byte ptr [ecx-5F],18
	fmul	dword ptr [edi-49]
	xchg	[ebx],dh
	sti	
	inc	ebx
	or	bh,bl
	xor	ebx,eax
	mov	edi,ecx
	dec	ebx
	xor	ebx,edi
	mov	bl,dh
	jle	004021A2
	mov	dh,dh
	rep	
	jg	004021A2
	and	eax,8B8618A3
	clc	
	mov	cl,A3
	mov	al,72
	mov	eax,edx
	add	ebx,esi
	inc	esi
	xor	al,bh
	mov	ebx,edi
	jz	00402234
	mov	cx,cx
	mov	dl,dl
	jnz	00402234
	stc	
	cmp	al,8D
	test	[ebx],ebp
	ret	
	inc	esi
	neg	cl
	or	eax,ecx
	inc	ecx
	push	40
	xor	edi,esi
	sub	ecx,ebx
	sub	ah,cl
	jo	00402E65
	jge	00402EF0
	jno	00402E65
	push	ss
	or	ecx,[eax+14]
	movzx	ebx,ah
	mov	esi,ebx
	sub	esi,edx
	inc	esi
	xor	edi,eax
	add	esi,ecx
	or	esi,ebx
	inc	edi
	mov	edi,eax
	jo	00402756
	mov	al,al
	rep	
	jno	00402756
	outsd	
	dec	ecx
	inc	esi
	ret	
	push	edx
	sahf	
	mov	eax,[8BD72B01]
	illegal	
	add	bh,bl
	neg	dl
	or	dl,dh
	or	ebx,eax
	add	edx,ecx
	jl	00402B09
	lea	edi,[edi]
	jge	00402B09
	illegal	
	cdq	
	shl	byte ptr [eax+2B],C3
	add	bl,cl
	mov	cl,dl
	dec	eax
	mov	ch,43
	sub	ebx,edi
	call	00402F53
	inc	ebx
	jo	00402136
	jmp	00402F5F
	jno	00402136
	add	dl,[edx+eax-2D]
	scasd	
	dec	esi
	imul	esi,edi,11B7DBF6
	add	bl,al
	inc	ebx
	neg	bl
	or	esi,edi
	mov	bh,42
	sub	bh,dh
	xor	bl,al
	jle	00402FD2
	mov	ch,ch
	lea	ecx,[ecx]
	jg	00402FD2
	mov	ebp,F733A44B
	out	dx,al
	sbb	al,82
	mov	bl,dh
	mov	dh,C6
	mov	ecx,edx
	mov	cl,ah
	or	ecx,eax
	add	bl,ah
	xor	ecx,ebx
	jl	00402A69
	jbe	00402FA4
	mov	di,di
	jge	00402A69
	mov	edi,43BC27FC
	mov	ch,[ebx]
	repne	
	add	eax,[eax+3C]
	neg	bh
	sub	ebx,edx
	mov	edi,esi
	dec	edi
	jbe	004029FE
	js	00402FC7
	ja	004029FE
	cdq	
	adc	eax,F6EFC7D2
	fbstp	tword ptr [edi+F9324E41]
	xor	bl,al
	pop	edx
	sub	edi,eax
	mov	bh,C0
	jle	00402D0C
	push	edx
	pop	edx
	push	cx
	pop	cx
	jg	00402D0C
	push	esi
	shl	dword ptr [esi+00003869],01
	add	[eax],al
	add	[eax],al
	add	[eax],al
	add	[esi],dl
00403000 16 6E 0D 00 91 BD 0A 00 2E 80 1E 11 C1 6C 00 1E .n...........l..
00403010 9C FE 4A 27 0C FF 63 30 C7 70 E5 E4 74 CE 86 4D ..J'..c0.p..t..M
00403020 17 98 F1 8C 89 3C 7F B8 00 AF 37 33 59 42 02 55 .....<....73YB.U
00403030 F7 7D 1B 94 B9 F1 93 FD 07 B4 B5 66 DE 00 FF A7 .}.........f....
00403040 AE A5 12 00 3D 00 19 A6 C9 B8 0A FF 11 02 B7 FE ....=...........
00403050 00 00 AE 1F CE F1 2A 35 72 A7 73 39 2C 72 3A 53 ......*5r.s9,r:S
00403060 00 0E 6D 81 1A FF B2 8D A0 07 6F 58 B1 E6 21 75 ..m.......oX..!u
00403070 F8 C9 DF 71 F6 85 06 00 37 7A 01 F6 00 C7 FD 44 ...q....7z.....D
00403080 00 D1 CA FF A3 E9 7F 33 A0 48 8B FB 16 71 00 7B .......3.H...q.{
00403090 1E 00 31 44 FB 00 FE 3E BE B0 E6 B8 EC 9D F9 26 ..1D...>.......&
004030A0 96 00 00 76 F0 49 7C 00 1B E4 3E 6A 12 E0 FE 71 ...v.I|...>j...q
004030B0 76 96 E4 38 2C 1C E8 C4 00 BC 67 00 04 7C 3E 9A v..8,.....g..|>.
004030C0 7E 01 63 83 86 2A 30 41 86 28 B3 FF 3A A4 08 59 ~.c..*0A.(..:..Y
004030D0 41 76 86 00 00 00 40 CF FF C1 F7 C4 AE 57 00 47 Av....@......W.G
004030E0 7E 0A 38 70 00 EB 2D 99 9A 64 D3 F8 00 6D E1 82 ~.8p..-..d...m..
004030F0 B3 26 24 B1 87 00 38 00 09 F9 19 00 B7 21 32 EB .&$...8......!2.
00403100 9F 0E D1 32 29 01 00 FF 9F 22 2E 78 10 28 CA 98 ...2)....".x.(..
00403110 E0 85 2F 0D 00 00 BE 51 00 8D 6D 00 91 4C E4 63 ../....Q..m..L.c
00403120 70 72 D9 3C FF 14 1F D5 38 6F BD 4B 9E 00 2A F7 pr.<....8o.K..*.
00403130 B0 C4 00 FF 2E FB 1E DE D0 58 25 DF AB B8 0D 00 .........X%.....
00403140 ED 00 69 8D FF 21 CE FC 10 6E 00 00 62 35 D7 88 ..i..!...n..b5..
00403150 56 CC EB D1 C2 C3 10 BB 44 45 83 72 00 A4 69 7B V.......DE.r..i{
00403160 FF 00 12 00 F6 0A E2 3B 74 32 EB 40 BA 34 8B AB .......;t2.@.4..
00403170 00 16 C5 02 FF EF 00 01 B3 51 0B 1E 28 69 F2 E7 .........Q..(i..
00403180 E2 85 04 7C F9 E0 E0 72 82 ED F6 78 A2 92 00 00 ...|...r...x....
00403190 00 1C 28 C3 7E 86 7F 00 62 94 C3 6E BB D8 33 FF ..(.~...b..n..3.
004031A0 4E 0A 00 12 C5 00 83 81 06 9F BD 6B 47 10 E8 7A N..........kG..z
004031B0 E1 71 E9 00 0C D4 B0 92 00 BA A0 87 E5 B0 DE 1D .q..............
004031C0 B0 FD 0E 00 C8 C0 4F D6 9C C2 72 CF 06 4F 6C 6A ......O...r..Olj
004031D0 0B 00 94 64 00 28 AB 00 23 00 A8 DB 9B 08 10 79 ...d.(..#......y
004031E0 C2 E2 09 3B 12 DF 35 35 00 B9 50 7F 00 BF FC DE ...;..55..P.....
004031F0 E8 87 8B 97 D1 A9 51 7A EE 9B 00 04 22 42 97 F3 ......Qz...."B..
00403200 47 68 C6 65 DE E6 18 40 44 00 9F 00 75 4F A8 D5 Gh.e...@D...uO..
00403210 18 B5 B8 1A D2 89 93 A0 00 80 C0 9E 00 8C CE F8 ................
00403220 4A AD 8E F9 69 B7 14 EF 00 D6 09 70 39 39 A8 DC J...i......p99..
00403230 FF B4 F1 89 00 40 16 8A 3F 3D C0 15 4B 30 41 5A .....@..?=..K0AZ
00403240 05 18 20 80 AB DA 24 7B 79 74 A1 00 F8 01 A1 00 .. ...${yt......
00403250 56 14 00 B8 00 71 FF 27 37 97 00 03 EA 77 05 53 V....q.'7....w.S
00403260 98 8A F0 3B C9 1C 1D D6 64 00 22 CA 0F F0 DA FB ...;....d.".....
00403270 45 20 14 19 E5 00 00 44 4F 38 5B 26 9F 16 9C FF E .....DO8[&....
00403280 16 3D C5 F3 B1 00 26 00 22 43 26 83 00 0C 00 A4 .=....&."C&.....
00403290 F7 00 77 FF 00 34 BF E3 01 70 51 AF 47 AC B5 9C ..w..4...pQ.G...
004032A0 38 00 00 4E C4 26 00 35 53 56 6E 9E 0B 0D 0F 08 8..N.&.5SVn.....
004032B0 B7 CE 5C FF BD 11 6F 5C 00 D9 6D 87 93 FD FF B7 ..\...o\..m.....
004032C0 38 EC B5 96 00 4C F9 00 68 04 1C E7 E6 06 0A 90 8....L..h.......
004032D0 A1 C4 06 EF 14 E0 6F FB 13 31 32 44 26 08 81 A7 ......o..12D&...
004032E0 E2 14 3D AF C5 FF B3 00 11 D8 00 00 94 88 7D 1B ..=...........}.
004032F0 00 2D 14 00 D7 92 63 8E FF A0 5C BF 52 2E B4 E8 .-....c...\.R...
00403300 D3 49 F2 FA A1 3F E8 C8 C0 36 A3 5F A9 6C DD 76 .I...?...6._.l.v
00403310 00 28 D0 7F F0 5F 80 10 00 9B 61 11 0F B2 17 8E .(..._....a.....
00403320 50 02 EC 38 27 00 CE 4C 40 AC B6 AC 00 F7 B3 00 P..8'..L@.......
00403330 5A CE 00 60 DC E7 7F E5 47 3C B8 FF 00 CC 10 4F Z..`....G<.....O
00403340 79 FF 5A F6 BB 10 00 23 9A 00 25 00 7C 3B 4D 08 y.Z....#..%.|;M.
00403350 0B 43 80 DC 3B 11 00 8B B4 AD 81 F2 BE 1B 18 51 .C..;..........Q
00403360 92 00 FE A3 E6 80 00 89 8E 91 10 DC 00 8E 20 2A .............. *
00403370 AE 5D 0B C1 29 FF 00 76 07 C6 F6 22 FF F2 52 35 .]..)..v..."..R5
00403380 6E 1A BB F1 A6 C6 EC 5E 89 43 20 C8 A8 10 74 C0 n......^.C ...t.
00403390 A7 5C DB 83 00 1B 0C 49 2D EF 4D 03 CF 16 48 1C .\.....I-.M...H.
004033A0 06 00 A5 EC 64 60 00 F9 EB 00 9E 3A F9 62 29 FF ....d`.....:.b).
004033B0 E8 00 52 DB 65 AC E7 6C 00 A9 B3 82 03 68 98 E3 ..R.e..l.....h..
004033C0 F3 CF F3 0C 84 A4 00 86 7E 38 55 59 27 8A 00 9C ........~8UY'...
004033D0 63 D0 2A 70 3A AA 66 85 17 21 44 18 C9 1D 82 33 c.*p:.f..!D....3
004033E0 D5 1C FF 43 8E 4A F1 97 23 74 7D 2E A9 6C F1 00 ...C.J..#t}..l..
004033F0 93 00 74 FF 07 98 A5 21 00 A2 12 1B 1E 0E 2A 19 ..t....!......*.
00403400 53 3B B0 2B 4F CB 28 10 D6 E6 D1 FF 73 94 34 0F S;.+O.(.....s.4.
00403410 D8 C2 B0 38 8A 2C D3 00 F6 6F CE 04 62 FF 5A 87 ...8.,...o..b.Z.
00403420 FF 00 53 5F 67 1B 90 00 A4 40 C0 B1 AC 00 E1 42 ..S_g....@.....B
00403430 E5 E3 C9 19 30 84 74 A8 7C 97 C7 37 06 68 BD 81 ....0.t.|..7.h..
00403440 44 BE 46 D0 79 16 53 36 45 19 12 28 EE C1 17 86 D.F.y.S6E..(....
00403450 CA 11 27 CD FF 08 A4 BD F2 00 02 BD A7 6D B8 BA ..'..........m..
00403460 D2 00 41 66 EA 1A D3 00 07 93 07 9F F2 4F C9 AB ..Af.........O..
00403470 73 9B D1 28 52 8A 10 39 E7 6D D9 E3 86 A7 28 00 s..(R..9.m....(.
00403480 E1 C4 89 3D FF 43 26 73 00 BB E3 37 76 63 46 66 ...=.C&s...7vcFf
00403490 38 17 00 4A 95 00 00 9B 80 B4 39 A1 1B 00 DF 15 8..J......9.....
004034A0 40 63 C5 62 29 8B AE B3 F7 66 C3 AC 00 86 21 E9 @c.b)....f....!.
004034B0 39 03 00 27 6F 39 71 1C FF DE 00 BC C7 2E 10 FD 9..'o9q.........
004034C0 85 D3 4D 01 08 00 32 3B 0B 96 0E 10 C7 73 04 91 ..M...2;.....s..
004034D0 2D 81 E8 B7 45 C8 E7 03 FF 48 63 37 70 0D 73 C4 -...E....Hc7p.s.
004034E0 9C 55 5A 56 18 38 F0 1E D0 02 1A 02 E3 1E 7A 14 .UZV.8........z.
004034F0 70 BA 81 FF 5A 83 E2 B3 F3 C0 FF 5E FA 00 20 00 p...Z......^.. .
00403500 04 5C 1C 5E 00 B7 D2 D2 EC 00 51 F1 AF C0 00 01 .\.^......Q.....
00403510 BB 81 5C 00 38 0E 5C CC D8 4A B2 20 AE 08 07 00 ..\.8.\..J. ....
00403520 F7 F0 8E 00 F9 D5 63 50 30 27 CF A3 DB 02 00 B6 ......cP0'......
00403530 BC 0A 00 22 6F 39 BF F5 3F 4C 90 93 F8 04 31 E0 ..."o9..?L....1.
00403540 00 00 52 04 DE 7E 00 3D 8D A7 C3 D9 C2 17 C7 E6 ..R..~.=........
00403550 00 A5 43 63 27 96 74 00 A0 68 FF DA 00 4A 9F F6 ..Cc'.t..h...J..
00403560 00 BA DC C2 00 E2 E1 C1 77 E0 16 2F 8C 16 D6 00 ........w../....
00403570 AF 09 FF 6F 00 00 95 04 00 16 9D 0D 00 7E 0E FF ...o.........~..
00403580 DA EA 1F A7 A0 3D C7 42 33 93 6C 00 88 89 DD 00 .....=.B3.l.....
00403590 EA 00 0A EF 00 FF A6 84 04 7F E9 15 1E 42 5F 24 .............B_$
004035A0 B7 FF A5 A2 76 FA 7F 5A AD 1E 4C 35 F6 A4 EB 4A ....v..Z..L5...J
004035B0 5C 08 F0 F9 09 00 59 72 48 80 70 CB E1 00 FF C4 \.....YrH.p.....
004035C0 8A E9 00 89 95 56 22 FF D6 FF 55 C3 00 C2 59 78 .....V"...U...Yx
004035D0 47 A9 E3 16 FE C1 51 FF CE CB 03 18 00 80 30 0E G.....Q.......0.
004035E0 46 4E 6B 57 00 E6 E3 47 50 3F F8 74 72 00 00 3D FNkW...GP?.tr..=
004035F0 75 F9 BF FF DF E0 00 94 E1 FA 4B 82 FF 17 B6 33 u.........K....3
00403600 E2 26 45 13 6E 2B F8 91 00 ED 3F 0C 00 B8 3D 07 .&E.n+....?...=.
00403610 3A 76 16 DE 7D CC FD E0 94 57 00 EA 00 03 C5 2A :v..}....W.....*
00403620 9E 74 00 3A 09 1B 0C 00 8A C0 80 C4 81 BA FD 8D .t.:............
00403630 60 A5 2A 54 F0 A1 00 9A FF AD 42 DE 00 FF 05 01 `.*T......B.....
00403640 B4 00 CE 73 08 6B 00 94 00 B7 AD A3 BD EC 81 58 ...s.k.........X
00403650 CB 6B 05 2B B3 C1 00 A6 01 06 00 00 73 80 00 03 .k.+........s...
00403660 6E 53 92 F8 FA FC E7 BC 1F 31 9B E7 FF 09 F1 7B nS.......1.....{
00403670 F6 00 95 C3 9B 00 49 71 5C E8 04 B1 00 0E 1F 4D ......Iq\......M
00403680 E6 79 2E 00 5B CA 1B E9 00 87 00 08 B3 00 33 F2 .y..[.........3.
00403690 00 D8 78 C5 39 2C 3B FF 89 80 AB D8 35 E1 64 D4 ..x.9,;.....5.d.
004036A0 DC 00 19 9C 10 7C 67 C5 F6 E1 C3 02 61 B8 C4 BC .....|g.....a...
004036B0 89 48 E2 79 A0 DE D6 F8 00 5E C0 FF 02 7F 00 00 .H.y.....^......
004036C0 87 BA F2 73 04 00 E8 8F 00 FF 32 D8 D0 16 CE AC ...s......2.....
004036D0 C8 FF 00 01 00 8F 0B A4 FF FA 85 D5 0B E6 AA 55 ...............U
004036E0 33 E5 79 66 96 EF 8F 65 0C D1 82 D8 DE BE F7 C5 3.yf...e........
004036F0 A6 85 1D E1 5C 70 00 4D AC 30 00 AB 67 02 0E BF ....\p.M.0..g...
00403700 00 00 A8 00 00 24 6C D6 8A D5 F2 5D 19 89 F3 08 .....$l....]....
00403710 58 7F C0 FE 80 E1 71 DD E7 00 8C 5A 2E 4B 39 C6 X.....q....Z.K9.
00403720 9F 45 00 00 74 98 EF 34 7B 7D 14 E3 7B E4 C7 E0 .E..t..4{}..{...
00403730 CE A8 95 9E 7B F8 81 F2 F7 ED 0F 6B 24 99 2D 60 ....{......k$.-`
00403740 73 E0 EC 97 7C 00 10 78 87 82 05 4D 78 1A 00 B0 s...|..x...Mx...
00403750 CF C6 3C 00 85 D5 23 2D 04 00 3F 87 DB CC F7 68 ..<...#-..?....h
00403760 32 B5 FF 44 E6 FF FF 19 0C 02 0F CF 83 69 00 00 2..D.........i..
00403770 B9 01 11 00 21 C3 B0 0D 00 12 6F A3 61 D2 9A 89 ....!.....o.a...
00403780 0B 46 84 D1 83 B6 FA 5F 00 00 44 5F 69 B7 80 97 .F....._..D_i...
00403790 38 00 1C 01 A5 27 02 88 C2 51 0E 99 B1 27 02 F8 8....'...Q...'..
004037A0 C5 A8 D3 96 00 68 98 32 10 B1 A5 FF 19 F7 7C F9 .....h.2......|.
004037B0 9E 00 00 82 15 DC 25 00 FF 04 49 00 C2 81 7C 4B ......%...I...|K
004037C0 BF 4B FF 71 EC 21 09 23 61 A9 00 F8 F3 67 00 FF .K.q.!.#a....g..
004037D0 00 12 70 EF 10 00 A2 87 37 00 00 68 4D 51 59 00 ..p.....7..hMQY.
004037E0 00 E7 19 6F F5 A2 19 2E B3 0B A8 AD 23 41 06 00 ...o........#A..
004037F0 5E B3 00 B8 D2 99 00 B0 08 EA CB 7B D8 91 A1 D1 ^..........{....
00403800 09 34 98 27 AA E0 B1 0E FD 96 26 C9 82 AE 0E 24 .4.'......&....$
00403810 1C 22 CE 4C 5D 0D 48 FD A0 F0 42 80 FF 23 A9 00 .".L].H...B..#..
00403820 00 E0 04 06 F9 A2 00 00 F7 95 38 C6 00 F1 7F 85 ..........8.....
00403830 58 AB 5F 3E B2 B8 C4 4C 8B 02 20 70 61 66 BA 44 X._>...L.. paf.D
00403840 38 99 00 53 93 16 80 B1 00 0B 36 19 60 1C 00 31 8..S......6.`..1
00403850 25 7D B0 77 CD FC EE 00 D9 89 DD FF 10 2B 7A 95 %}.w.........+z.
00403860 18 FF 00 5A FF FF 12 89 C0 3C 8C 00 CA 17 16 88 ...Z.....<......
00403870 18 80 00 87 A6 00 16 AC 23 22 B2 00 30 85 61 97 ........#"..0.a.
00403880 8E A5 07 CF 18 8F 3E 9F 00 18 75 3F 00 41 A5 9D ......>...u?.A..
00403890 06 12 47 00 87 0D 00 53 FF 1C BD 1D 67 7E 5E CB ..G....S....g~^.
004038A0 00 60 E9 A2 1A DB F6 91 8E 0B 42 00 77 3C 7D 7D .`........B.w<}}
004038B0 29 40 6F DC DE 03 57 06 98 B3 00 30 26 38 9A 00 )@o...W....0&8..
004038C0 18 ED 5F 0E 75 8B 14 00 E2 66 BD 41 86 9F ED 06 .._.u....f.A....
004038D0 64 F6 30 0A 69 00 32 BA 8D DC E3 2E F2 E0 E0 1F d.0.i.2.........
004038E0 C2 85 FB 20 3D AF D2 FF E6 BC 28 0D 00 FF D4 23 ... =.....(....#
004038F0 D3 06 93 52 A0 3F 43 DC 3B 25 00 4B 59 83 79 3A ...R.?C.;%.KY.y:
00403900 17 CE 78 FD 97 AA 39 FF 89 3A B3 84 75 00 00 0D ..x...9..:..u...
00403910 1C E2 4D C1 C0 D6 57 33 64 D6 E0 7F 7D DE 9B 8F ..M...W3d...}...
00403920 E0 EA 5C D3 A6 9D 72 12 B6 EE C5 A8 00 2B 84 77 ..\...r......+.w
00403930 E3 23 20 8B BA 00 34 2D 00 0F 00 83 00 AE 00 D4 .# ...4-........
00403940 1E 18 C5 72 F8 DF 2E 4A 02 9A 4F 78 D2 7C 60 64 ...r...J..Ox.|`d
00403950 FF CC 0D CB C8 D1 9A 3D 00 04 78 49 DD CB 59 38 .......=..xI..Y8
00403960 91 71 1E FF 58 F0 0C 0B B1 80 BD E6 00 7C 05 62 .q..X........|.b
00403970 F2 EA B1 62 38 FF 8B 83 00 EF 6F 39 BE B1 82 0D ...b8.....o9....
00403980 F7 10 C0 00 4D AF 4D FF 89 00 06 00 F8 FF E6 00 ....M.M.........
00403990 8E 47 6D 00 C2 E0 BD 1E 42 00 00 37 C9 00 F6 CE .Gm.....B..7....
004039A0 E1 8E CA 00 DA 00 C6 00 95 7B E2 00 6D C9 00 00 .........{..m...
004039B0 00 76 3F E9 C6 C8 67 00 78 3E 34 36 67 08 24 D0 .v?...g.x>46g.$.
004039C0 58 9A 00 5F 06 38 A9 32 CC 6C 00 9A 00 FF F8 C2 X.._.8.2.l......
004039D0 35 E5 74 35 37 00 81 00 0B B0 6B 81 CF 5C E9 79 5.t57.....k..\.y
004039E0 00 D5 48 A0 F8 5E 77 C7 3D 6C A8 FF 00 37 4F 35 ..H..^w.=l...7O5
004039F0 8D BE 30 9B 6F 94 2D B0 00 85 73 00 D1 00 38 32 ..0.o.-...s...82
00403A00 00 C6 12 FF 2E 7E 58 00 2B 7E 16 B9 A3 58 77 B1 .....~X.+~...Xw.
00403A10 00 FF 96 97 F3 71 7F 9E 00 C1 74 F6 A3 4B 7D 39 .....q....t..K}9
00403A20 E8 67 49 B1 5E B7 11 00 AF 34 83 EE 62 27 04 08 .gI.^....4..b'..
00403A30 9C FF 14 E3 67 48 77 00 9F 01 17 62 A1 C0 13 C7 ....gHw....b....
00403A40 00 A5 14 D3 FD FB 63 00 4B 95 00 00 13 2A 94 44 ......c.K....*.D
00403A50 FF D8 80 FE 00 9A 30 DB 00 25 07 3A EA E1 18 00 ......0..%.:....
00403A60 14 E4 26 78 00 5A 62 08 A7 00 1F C8 10 59 97 C9 ..&x.Zb......Y..
00403A70 00 1E 77 FF 9E F5 13 FF 7C 00 3A 56 71 00 DC 8E ..w.....|.:Vq...
00403A80 53 84 A6 F7 8A 8F FF C9 7A 08 ED 8A 77 C0 C8 1C S.......z...w...
00403A90 4F 97 66 42 4E 79 0E 60 4D 85 F6 AC AF 2E 94 00 O.fBNy.`M.......
00403AA0 58 8F 0F 00 7E 7A DE 12 B0 48 E8 6E 00 C6 00 1E X...~z...H.n....
00403AB0 00 3A CF 7F AA 0C AD 7F 93 F6 C4 00 BF 69 E8 2D .:...........i.-
00403AC0 F3 AC 33 E7 32 1F BD 32 71 6D 04 C8 E1 69 93 2C ..3.2..2qm...i.,
00403AD0 C7 21 70 7B 60 1B DB 00 00 C6 39 FF C9 0D 6F 1C .!p{`.....9...o.
00403AE0 B0 5A 00 C8 71 53 25 9D E6 CC 7D ED 00 5F 2D BC .Z..qS%...}.._-.
00403AF0 9F C1 03 B4 2B 51 00 4A 50 00 18 00 2D A2 EB C6 ....+Q.JP...-...
00403B00 6A 3C 69 D5 F6 FF C8 2D D4 F9 01 ED F4 81 3A F3 j<i....-......:.
00403B10 46 00 32 03 3A 00 00 71 10 FF E5 EB 33 1B 08 40 F.2.:..q....3..@
00403B20 00 00 AD 2A D0 E2 0E FD 07 49 7B 36 00 18 6A 04 ...*.....I{6..j.
00403B30 93 3B 06 E3 14 D6 12 44 00 95 D0 0D 20 41 02 00 .;.....D.... A..
00403B40 FF 00 7A 04 00 00 24 DB 2C 6A E4 00 38 5F DF 19 ..z...$.,j..8_..
00403B50 7A 9D DB BD 00 89 38 2E 15 62 91 07 02 72 66 E8 z.....8..b...rf.
00403B60 7E 1E 98 C7 8A FF 52 2C FF 68 86 FF 06 53 F6 2B ~.....R,.h...S.+
00403B70 EF 6E 48 D2 47 0A F2 A2 E0 21 6F D8 26 68 08 61 .nH.G....!o.&h.a
00403B80 E3 CA 50 B4 3E E2 80 70 9E A6 00 4F 00 1D F8 C8 ..P.>..p...O....
00403B90 0E 00 18 FF 2E 07 64 88 C6 A2 34 00 0B E4 40 C2 ......d...4...@.
00403BA0 F2 08 90 3E 9C 9D 9F 71 00 BB C5 43 0B A5 A8 FD ...>...q...C....
00403BB0 AA 00 00 BC 8F EA 00 FF 71 62 A4 72 7B 27 0F 20 ........qb.r{'. 
00403BC0 5A 92 F3 CC 90 63 88 E9 B8 9E DC 27 B1 48 3D 42 Z....c.....'.H=B
00403BD0 00 FF B7 44 FF 28 B1 87 E7 CD 56 00 0F 1C 36 00 ...D.(....V...6.
00403BE0 05 E0 9A 80 F7 24 FF 17 54 00 F9 C1 D3 20 DF 18 .....$..T.... ..
00403BF0 00 0A 72 EB 00 00 82 1B FE 6E C6 32 0A 1A 00 8D ..r......n.2....
00403C00 E1 4A 03 9D 3C 03 F7 CF 5A 94 FF 3A 96 28 00 4A .J..<...Z..:.(.J
00403C10 50 F0 CE 00 FA E4 50 EE F0 F2 93 FF EE 20 A2 4B P.....P...... .K
00403C20 D7 CA FF 82 FF B5 AE 0D 22 C7 65 87 DE B3 10 00 ........".e.....
00403C30 1B 76 89 CE FB 36 11 81 FB 9A 81 00 F1 00 23 76 .v...6........#v
00403C40 3A C2 89 64 11 94 00 84 41 FF 10 00 9F 47 01 07 :..d....A....G..
00403C50 40 D9 FC 00 00 FB FF 0F DF D7 A9 5E D5 FF F3 FC @..........^....
00403C60 1D E7 A3 C1 1E 8F F8 72 03 FF 00 FF FB 89 00 62 .......r.......b
00403C70 13 42 C7 C2 13 00 60 63 00 FA 00 B9 37 02 18 0A .B....`c....7...
00403C80 1F DB D2 44 6E 00 C3 C4 18 5F 7C F3 00 68 3E F4 ...Dn...._|..h>.
00403C90 A8 13 FF 00 CF 9F D2 00 9D EB 8F 50 D2 0E BF 00 ...........P....
00403CA0 20 53 F2 A4 0D 13 61 F9 06 17 94 E8 61 CB 54 00  S....a.....a.T.
00403CB0 BA FF 7F 43 28 5F 9C 81 BE 95 FF 56 1F BF 32 0B ...C(_.....V..2.
00403CC0 89 FF D1 00 9D 50 42 FC E2 60 9D C7 FF E1 EE 60 .....PB..`.....`
00403CD0 79 DB 17 36 82 70 FF 80 91 CC B8 FA D0 F3 1A B3 y..6.p..........
00403CE0 89 AD E1 3F 00 30 98 C4 08 31 38 BE 13 FF 0A 93 ...?.0...18.....
00403CF0 76 A8 5C D8 FF 78 C7 BA 7F DB CE 39 9C 47 43 C0 v.\..x.....9.GC.
00403D00 06 57 48 A4 FF 55 45 36 B5 2D 8C 81 1E F5 47 7F .WH..UE6.-....G.
00403D10 37 B8 3E 5C 65 DA F8 92 00 4A B8 84 6D CD 00 2C 7.>\e....J..m..,
00403D20 E8 B8 FE C8 E2 1A FD 0C EA 70 00 00 35 7E 30 F5 .........p..5~0.
00403D30 00 27 94 D7 00 F1 5E 4A FF BF 78 02 E0 BA FA 8E .'....^J..x.....
00403D40 75 64 7A FB 00 00 00 E0 97 6D FF 17 87 24 90 45 udz......m...$.E
00403D50 7A B8 AC 2B 08 A6 4F 7B 8C D1 11 C3 53 BA 11 D4 z..+..O{....S...
00403D60 82 4D E7 57 6F F7 00 06 F8 70 00 AB 25 D4 69 61 .M.Wo....p..%.ia
00403D70 7B C7 5B 2C 21 1D A8 00 A9 F4 79 00 91 42 3E 16 {.[,!.....y..B>.
00403D80 BD 5C 00 4D 00 DF EA 24 A8 08 B0 21 C4 00 BC 00 .\.M...$...!....
00403D90 20 00 3E 86 00 27 E8 70 67 B8 55 7B 3A 92 FF C5  .>..'.pg.U{:...
00403DA0 FF 38 D1 16 99 6E 98 93 E3 2D 02 16 69 54 FF 1C .8...n...-..iT..
00403DB0 39 00 5E 31 EF 81 00 81 E8 00 66 F8 00 9C 22 FF 9.^1......f...".
00403DC0 8E DF C6 06 8F 0F 00 CE 58 D7 00 C1 B5 C3 51 20 ........X.....Q 
00403DD0 00 14 B7 4B 80 DE 33 17 00 53 00 44 00 69 FF 54 ...K..3..S.D.i.T
00403DE0 D7 8C 00 5E DA 0F DA 47 48 00 7E 41 56 E1 C0 94 ...^...GH.~AV...
00403DF0 3E CE 39 E8 3D 89 F6 A1 26 F5 48 39 00 83 00 F0 >.9.=...&.H9....
00403E00 E4 AD 45 24 50 DA 78 D3 95 29 00 9F 00 E4 4C 3D ..E$P.x..)....L=
00403E10 25 24 89 82 D0 54 0C 87 63 93 54 31 00 7B 1F 35 %$...T..c.T1.{.5
00403E20 0F B6 00 75 3F 4A 28 03 00 FE 70 F3 3C 56 07 5D ...u?J(...p.<V.]
00403E30 00 00 B6 EA 13 ED 20 00 0A B0 00 AD 2E F1 FF AE ...... .........
00403E40 1F 8C 83 3A 28 7C 6A 80 F1 8D 0F 22 A0 FF C5 86 ...:(|j...."....
00403E50 27 E0 00 40 00 49 C9 35 5B FD 18 7D C7 B5 8D 5E '..@.I.5[..}...^
00403E60 0F 81 00 00 00 43 00 61 05 DF BF 3B A1 00 77 98 .....C.a...;..w.
00403E70 1F 57 EE A8 BD 00 00 4B 40 C1 15 FF FE EF C7 E5 .W.....K@.......
00403E80 76 06 36 00 65 11 0F C0 8F 73 3B FF FF 1C 74 30 v.6.e....s;...t0
00403E90 AA FF 90 E9 83 2B 7D B7 60 19 D8 71 E9 66 5B 42 .....+}.`..q.f[B
00403EA0 F5 00 6C AF 10 C3 D1 90 1A CA 19 1A D6 E5 0C 83 ..l.............
00403EB0 C3 E0 11 46 D9 D2 F0 7D 79 EB 29 C7 4D FE 00 DB ...F...}y.).M...
00403EC0 CB EA 21 E7 00 23 E6 1A 0F FF 5C 71 25 00 38 8F ..!..#....\q%.8.
00403ED0 00 8B 80 07 8B 87 74 92 00 EB D2 2D BB 55 07 45 ......t....-.U.E
00403EE0 8F 00 FF 00 58 15 FA 5C E2 3F 66 20 06 53 6E 28 ....X..\.?f .Sn(
00403EF0 A1 6E BA B4 1E 1B A4 04 3D 04 E2 3C C1 20 B1 00 .n......=..<. ..
00403F00 EC 54 25 94 67 91 7D AB 57 70 54 81 E4 FF 53 C7 .T%.g.}.WpT...S.
00403F10 7F 62 00 00 34 B4 3B 12 21 6E 72 13 C8 03 00 05 .b..4.;.!nr.....
00403F20 00 A0 B7 F1 87 FF 7D 20 1C 0B 39 CD 55 19 7A 03 ......} ..9.U.z.
00403F30 4A 29 67 14 15 2E FB 13 80 05 FC 85 3D 17 D2 00 J)g.........=...
00403F40 00 F1 FF 37 35 FA 00 89 05 C3 4D 5B 00 FF 80 84 ...75.....M[....
00403F50 81 C0 BC 3F 82 00 7A E6 7D CF 46 EF FF 5E FE 02 ...?..z.}.F..^..
00403F60 11 44 26 39 A0 D8 A3 93 6C D6 E0 80 01 8C 8F 63 .D&9....l......c
00403F70 8A E6 2F CB 00 E2 A3 DF 94 0F B0 D7 72 1F 65 2C ../.........r.e,
00403F80 02 FF 31 9A 99 FF FF C1 48 97 06 84 40 77 8D ED ..1.....H...@w..
00403F90 C6 6E 14 24 07 B9 7B B3 DC 8C 02 4E 4F 36 CC 01 .n.$..{....NO6..
00403FA0 A1 1D 29 00 3E 7D 2A 6B 51 00 FF A5 00 97 54 FB ..).>}*kQ.....T.
00403FB0 60 B4 0C FE 00 AC EB 62 43 B5 FF C6 3C D1 68 FF `......bC...<.h.
00403FC0 34 67 48 3A 00 00 23 E5 CC CC 49 BD 30 00 A4 D2 4gH:..#...I.0...
00403FD0 00 DF 27 06 93 46 9D 00 01 80 95 B0 E5 32 38 20 ..'..F.......28 
00403FE0 FF B0 D3 E5 44 FD C8 00 60 00 40 BD FF 44 F8 BF ....D...`.@..D..
00403FF0 19 20 BA A7 22 FF 1C E3 35 84 26 B3 E1 A0 3F 00 . .."...5.&...?.
00404000 F0 C6 9E 01 62 D8 43 01 50 FF 44 C2 00 96 9F A9 ....b.C.P.D.....
00404010 77 CD A0 B4 6E 10 24 47 49 D8 C8 00 E9 FF 00 11 w...n.$GI.......
00404020 00 FF 75 00 58 BA E6 F1 63 39 E6 03 ED 01 98 8B ..u.X...c9......
00404030 77 33 F0 22 74 53 8C 4C BA 7E 75 88 00 1D D0 00 w3."tS.L.~u.....
00404040 27 C8 59 FF 93 38 8B C6 97 0C 87 68 00 A7 B7 50 '.Y..8.....h...P
00404050 9C FF 72 EF E2 87 00 34 AD 19 33 9E 34 C6 BE 5B ..r....4..3.4..[
00404060 FF EA 42 17 A3 79 E9 BE FF 6C FF D6 7F 1B 5A 9E ..B..y...l....Z.
00404070 1D B3 68 FF 77 2C 3A EB 7D 5B 4C B5 1C 3A 25 92 ..h.w,:.}[L..:%.
00404080 21 3F E5 3F 72 26 EB 42 00 86 00 A6 64 48 98 FF !?.?r&.B....dH..
00404090 D9 54 00 60 0E 26 84 00 8A 58 0A CF E0 C9 10 70 .T.`.&...X.....p
004040A0 7F F3 14 69 48 67 4A 66 D8 73 D2 5C 9E F7 0C ED ...iHgJf.s.\....
004040B0 A3 4F EF 00 6A E5 F8 FA 00 42 8C 96 2E BE E1 4E .O..j....B.....N
004040C0 AE 9F 15 78 D9 FF 52 2C 8B D0 CF 1B AE 1C 84 7F ...x..R,........
004040D0 5C 72 58 4A AC E6 14 8C 46 00 AF 18 FA BA 07 06 \rXJ....F.......
004040E0 F7 34 28 D4 00 D3 80 6E 23 00 BA 0D 00 06 3F FF .4(....n#.....?.
004040F0 9E 7A 09 91 FF 76 38 98 7A 9A 10 00 73 82 59 C0 .z...v8.z...s.Y.
00404100 62 49 1C 2A 00 D8 13 00 E3 C3 97 40 D3 8C 51 00 bI.*.......@..Q.
00404110 BC C5 08 FF D6 C0 C7 F7 03 26 BE B9 AE ED 6B 38 .........&....k8
00404120 EF 82 00 5B D2 00 6E 05 1A 8A 24 24 E5 93 FD CC ...[..n...$$....
00404130 1B 7D 1D 23 C4 00 74 00 05 B2 D5 00 6F BB C8 78 .}.#..t.....o..x
00404140 6D 7B 2F 84 8D 18 23 8C 0C BC D9 17 F5 28 78 00 m{/...#......(x.
00404150 90 98 61 F7 81 A6 6E E5 03 11 21 61 0C 80 20 5C ..a...n...!a.. \
00404160 E1 C0 89 4F 20 14 12 00 69 F9 A8 9E 00 A3 E1 00 ...O ...i.......
00404170 C9 13 00 13 F6 B0 D4 A8 00 BE C9 35 D0 A5 11 48 ...........5...H
00404180 E0 CA FF F9 66 7B FC 03 D6 BE 66 1A 1F 9D 22 80 ....f{....f...".
00404190 EC F6 4C 47 00 7D 00 4C 3D 46 FF 8D 18 CB 56 2D ..LG.}.L=F....V-
004041A0 42 DE FF 7A 69 A6 20 82 00 00 00 87 00 F5 FF 00 B..zi. .........
004041B0 00 AD 99 20 D5 1B 6D 00 FD 6B 04 00 23 38 CF 09 ... ..m..k..#8..
004041C0 FF 54 66 33 00 F7 96 85 CC F3 C2 64 01 3C 60 63 .Tf3.......d.<`c
004041D0 FF FF 49 10 5F 6A 7A 0A B0 28 36 50 C6 AB FF A7 ..I._jz..(6P....
004041E0 74 03 1D C5 C7 D8 7E 4C 0F 85 58 A7 00 EB FF 5C t.....~L..X....\
004041F0 BF 18 63 23 D0 FF 0B E4 10 B8 19 E2 FF 5F C7 8B ..c#........._..
00404200 18 E6 9F BF BA BF 00 AE 00 F9 E9 37 D8 51 BA 55 ...........7.Q.U
00404210 BE B9 1C 08 D0 AF 00 85 4A 38 ED E2 BE 00 00 43 ........J8.....C
00404220 9E D8 E3 01 00 32 FC 7A 18 48 00 00 C1 86 DB 4E .....2.z.H.....N
00404230 E5 46 C3 26 17 FF 21 42 74 03 D6 5C 04 3D 46 21 .F.&..!Bt..\.=F!
00404240 FD BB FD F6 FB FD FC C2 00 BF 03 13 46 6B DD 00 ............Fk..
00404250 8E 5D 00 00 C8 CE E6 B1 FF 31 72 00 04 51 78 08 .].......1r..Qx.
00404260 A0 00 13 D8 42 D5 FF F9 27 FF 19 34 FF 32 1E B9 ....B...'..4.2..
00404270 01 46 84 08 29 BB F1 FA 10 16 C0 D0 20 6E 15 62 .F..)....... n.b
00404280 3F CC 45 6C FF FF DE 62 DE A0 5C E1 20 50 00 70 ?.El...b..\. P.p
00404290 6E 9F 00 F0 F7 94 61 7F 4B 59 7F B6 B4 72 00 24 n.....a.KY...r.$
004042A0 E1 5A 15 36 35 F6 14 38 E1 3A 85 37 4C 43 FF 17 .Z.65..8.:.7LC..
004042B0 67 E0 62 00 00 32 6C 00 00 05 50 3A 4B EB BF E2 g.b..2l...P:K...
004042C0 88 54 1A 95 65 00 8C 8F 00 B8 26 00 71 4A B4 E2 .T..e.....&.qJ..
004042D0 77 EE 00 B4 AB 05 BE 35 93 98 A9 DA 34 86 FB 62 w......5....4..b
004042E0 BD 74 2A 3C E1 6D 6B 50 00 72 00 D5 C0 33 15 37 .t*<.mkP.r...3.7
004042F0 DE CD 7E 63 9D 27 B9 C7 FC 37 5F DE A7 7F C0 8A ..~c.'...7_.....
00404300 25 63 4F 93 00 9A 00 C8 61 EC 0C 8D 2C A5 C7 3E %cO.....a...,..>
00404310 43 7B 00 8E ED B4 59 DE 1B 00 2C 2F 81 7D FB 21 C{....Y...,/.}.!
00404320 41 02 FD 0B DE E3 00 DF AC 3E 02 FF 00 59 00 07 A........>...Y..
00404330 D0 00 80 FA 00 03 FF D6 80 72 4B AC CE F1 08 F5 .........rK.....
00404340 A0 00 E5 0E C7 E2 10 EF 20 C6 83 A1 FF D2 00 C2 ........ .......
00404350 CF A7 FA 89 A2 DC 00 BF 13 7D 45 61 1F E1 26 C3 .........}Ea..&.
00404360 81 F4 8C FF B8 FE B8 FF 41 9C AC 0F 25 B8 2C 81 ........A...%.,.
00404370 0B 69 1F E0 E0 3C F7 94 FE C0 8A 65 C5 A3 00 5F .i...<.....e..._
00404380 8D F8 0A FF 09 00 43 39 BF 7A 00 8B 1C 2D 8A 79 ......C9.z...-.y
00404390 C0 B7 34 48 27 00 F9 6E F2 3C C5 72 EA 00 F2 40 ..4H'..n.<.r...@
004043A0 97 E1 E3 00 34 00 00 98 05 91 00 41 0A E5 DC BA ....4......A....
004043B0 6D 8F F8 8F A7 6D 33 09 00 E9 7B AF 3C 3C 32 D4 m....m3...{.<<2.
004043C0 DD 02 E4 AB FF A7 18 A7 7F 84 FF 28 1A 78 62 C1 ...........(.xb.
004043D0 00 06 C5 E3 41 A3 FF 27 33 79 AC 2D 05 00 6D 42 ....A..'3y.-..mB
004043E0 3A F3 00 B7 94 91 98 18 5E 0F FF 00 0E 58 00 41 :.......^....X.A
004043F0 08 07 F2 4A 89 1C 52 EA 1C 76 B3 07 D8 FF FF 06 ...J..R..v......
00404400 08 FC 00 00 09 A2 45 28 DE BF 4D AA 1C AF 75 00 ......E(..M...u.
00404410 4B D9 00 94 F4 0E 12 F9 5C 00 FE 00 F6 E7 46 04 K.......\.....F.
00404420 48 FB 40 00 3E 71 69 00 A2 7F E3 0C 99 00 FF 63 H.@.>qi........c
00404430 F3 E3 E9 F5 68 42 02 53 22 14 40 F2 07 31 87 BC ....hB.S".@..1..
00404440 0F A4 43 83 40 CD 02 A6 20 E4 00 EF DA FD C9 D8 ..C.@... .......
00404450 00 82 7C 9D 63 FF 17 F4 79 B5 96 93 85 00 00 FE ..|.c...y.......
00404460 C4 7E 16 DB 16 35 66 3F E4 B3 BF 02 9D B6 A9 FB .~...5f?........
00404470 94 FF 9C DD 65 99 FF 6A 22 00 11 F2 FF 00 40 85 ....e..j".....@.
00404480 8A 82 48 D1 00 D8 56 6E 42 91 EB 9D 26 41 75 AA ..H...VnB...&Au.
00404490 00 0E 00 7D 7D 2A 00 DB 1F 5C 03 FE ED CF 05 6F ...}}*...\.....o
004044A0 00 A4 00 B4 6F 00 50 FF 6C 00 58 AC A9 BE 04 63 ....o.P.l.X....c
004044B0 40 2E 93 1F 0B 0B 35 97 00 5D 87 1F 11 FE F2 00 @.....5..]......
004044C0 04 A3 40 34 00 15 E1 FF D7 FF 0F 00 37 03 88 9C ..@4........7...
004044D0 EF 39 FC 5E F4 37 00 9E FF 2B 9C 00 24 FD 25 69 .9.^.7...+..$.%i
004044E0 02 C3 00 00 E6 52 F2 F5 4E 92 00 90 9E 85 FF BD .....R..N.......
004044F0 4F 06 80 FF D8 0C 00 5E 64 AA F5 F6 00 C6 00 DC O......^d.......
00404500 23 81 23 6A 28 3D 00 E0 BE 02 E4 00 5C 00 69 39 #.#j(=......\.i9
00404510 32 A1 42 04 66 00 3B B6 31 A1 FF C7 00 EF D2 FF 2.B.f.;.1.......
00404520 00 70 FF 66 00 1F FF 3A DC 20 F5 FF 53 D6 61 0E .p.f...:. ..S.a.
00404530 00 15 C4 ED B1 00 2E 41 0B 65 FF 2C 99 EE 39 91 .......A.e.,..9.
00404540 FF 89 E1 33 8B 64 02 8B 91 70 6E C6 35 80 C8 01 ...3.d...pn.5...
00404550 00 43 C0 27 81 48 A4 83 00 56 26 CC B3 C6 4E 45 .C.'.H...V&...NE
00404560 C6 32 00 33 38 E7 BF 15 86 DF 62 8D E8 95 98 1D .2.38.....b.....
00404570 05 FB 63 56 00 81 D1 4C F0 82 46 4A FF FB 00 ED ..cV...L..FJ....
00404580 00 FF 00 00 00 72 FF 44 90 90 8E 57 C3 02 36 8C .....r.D...W..6.
00404590 37 E0 00 17 80 23 00 7B 5A A0 1A 00 FF 08 32 73 7....#.{Z.....2s
004045A0 F0 00 E3 C6 80 76 9D D8 FF 00 3F A0 5F 21 FF 99 .....v....?._!..
004045B0 42 0C D1 07 79 34 F4 CF 35 4F 94 2C A6 7B 60 18 B...y4..5O.,.{`.
004045C0 76 E3 B5 C6 07 19 C0 D0 39 85 00 E0 9D 12 04 00 v.......9.......
004045D0 C6 63 00 41 BE 00 0A 58 B7 C7 74 4D 7D 16 A1 4F .c.A...X..tM}..O
004045E0 FF 22 EE 00 00 C4 00 FD 86 E9 56 6E 3E 72 5F 4D ."........Vn>r_M
004045F0 F2 00 03 A3 43 2F FF E9 8A 83 28 FD 1B 11 61 7E ....C/....(...a~
00404600 5A 0B C7 B4 58 88 C5 51 4F 18 A4 50 B0 A4 00 1D Z...X..QO..P....
00404610 42 00 E2 11 6E FA 00 46 FF 3E C5 AF 00 0E C1 5F B...n..F.>....._
00404620 F1 3A 1D 2A A5 39 FF F3 20 EF 76 82 62 C6 00 00 .:.*.9.. .v.b...
00404630 75 D9 10 43 00 1E D1 5E FF 04 0F F9 06 00 00 08 u..C...^........
00404640 50 00 00 78 A3 00 F3 2F 00 E0 71 00 32 0D 76 28 P..x.../..q.2.v(
00404650 B4 96 A4 00 2A 6E 86 66 A2 10 89 E4 FF 29 20 68 ....*n.f.....) h
00404660 00 02 FF 38 FE 00 A2 56 5D 90 91 5D A7 48 00 1D ...8...V]..].H..
00404670 36 D6 7D F8 00 44 00 45 FF 6E FF 91 54 00 C4 CF 6.}..D.E.n..T...
00404680 CD A7 FF F7 8E D6 FF 59 50 00 1E BB 40 4D 00 84 .......YP...@M..
00404690 FE AD 3D 00 00 1F DB 42 BA EF 1C 83 FF 14 69 EB ..=....B......i.
004046A0 ED 13 D6 0C FF FF C5 2B ED 18 00 16 98 2C BF 85 .......+.....,..
004046B0 52 03 EC 00 13 18 68 C0 5A 8D 01 32 E8 57 63 00 R.....h.Z..2.Wc.
004046C0 29 43 FE 9D 13 15 9B 6D 80 00 80 D6 28 00 A1 42 )C.....m....(..B
004046D0 72 44 7D 40 44 B9 60 7E 5A 54 D7 2E 60 FA 00 98 rD}@D.`~ZT..`...
004046E0 23 1F 80 A0 FF 00 00 00 94 6C 7C D0 FF D3 FF 41 #........l|....A
004046F0 6E E9 18 3A 8D 00 09 FF E2 E1 9E 83 74 12 C6 00 n..:........t...
00404700 9F 51 6E 00 2C FF 0A 63 06 00 52 FF 98 42 E2 FC .Qn.,..c..R..B..
00404710 77 06 B4 6D 0A 00 12 00 74 AB B0 48 00 70 8C 00 w..m....t..H.p..
00404720 51 E7 00 33 F0 33 33 FF 9D 36 DC CD E3 00 4D DE Q..3.33..6....M.
00404730 52 0B 00 A0 23 86 F1 69 00 8E 12 02 0E F6 3B 00 R...#..i......;.
00404740 CD B3 2E BE 7A E3 73 C7 FC FF F4 7C 40 6D 18 97 ....z.s....|@m..
00404750 39 6F BF D9 00 A4 BE FB 00 25 FF 64 1E 2D A3 17 9o.......%.d.-..
00404760 0C 47 FF E3 40 00 E5 1D AD 00 F8 3B 7F FD 3E F7 .G..@......;..>.
00404770 78 3D A1 5F 42 A5 00 EA C0 43 C9 D2 FF 00 40 02 x=._B....C....@.
00404780 34 C1 23 FA 3A E2 DC 00 C7 00 04 81 A0 FF 71 00 4.#.:.........q.
00404790 61 F1 5A 23 FF 37 F6 5F 94 2D 6A C3 81 B9 6D 06 a.Z#.7._.-j...m.
004047A0 BE E4 87 97 20 00 0E 10 CC 3C 1D DE 00 CB 5C 29 .... ....<....\)
004047B0 99 FD 29 00 89 79 88 21 0B 1D E9 9B 7D 34 11 00 ..)..y.!....}4..
004047C0 C1 98 99 08 00 DD 5C B0 A8 00 32 12 0F 8C 87 BB ......\...2.....
004047D0 26 36 00 97 1E FF 95 65 4A 95 00 00 76 6C 00 5F &6.....eJ...vl._
004047E0 31 75 FE CC 98 E0 4F 7D 9A 43 0C BB 00 F4 0E 20 1u....O}.C..... 
004047F0 65 FF 1A 0D 2F 13 58 04 1B 5A 8F 04 B1 C0 A1 5D e.../.X..Z.....]
00404800 FC CC 1C BB FB 4C FE DE 1F 00 E2 2A 0A 85 0B F5 .....L.....*....
00404810 42 00 31 7D 00 66 B8 6D CB 23 D1 FB 00 D1 44 FC B.1}.f.m.#....D.
00404820 4A 00 52 FF 13 77 4C 00 B5 80 D6 D3 E2 00 00 FF J.R..wL.........
00404830 9A A4 17 B9 6D DF 05 18 EE 07 00 04 F6 C3 C9 27 ....m..........'
00404840 AF 98 A1 D6 17 C8 F6 DC 58 1D 6F 2B FF 24 A2 70 ........X.o+.$.p
00404850 37 8A 57 5E F6 89 1E 00 40 B0 2E FB EB 7C 1D E7 7.W^....@....|..
00404860 C7 7C 01 25 DF 00 E4 68 42 E4 48 F7 86 C8 8D 00 .|.%...hB.H.....
00404870 26 C1 1E D5 00 00 4C 4D B1 20 7A FE 00 FE A2 00 &.....LM. z.....
00404880 AB B3 C9 99 A5 03 0B C7 86 D1 00 0C 32 FC 00 50 ............2..P
00404890 00 54 A9 E3 F8 D3 48 06 E9 BE A3 4E 00 13 E0 14 .T....H....N....
004048A0 C1 00 12 00 D2 86 0D 24 D4 DB 68 70 8F B1 03 EC .......$..hp....
004048B0 C7 B3 1C D7 EA 39 65 17 03 F1 39 00 3B CF A3 46 .....9e...9.;..F
004048C0 85 81 80 00 C1 00 5E 9C E3 00 BA 8C 93 E9 8F 8A ......^.........
004048D0 0F D8 FD C3 AF 22 A1 00 D3 8C FF 7B C7 23 B6 10 .....".....{.#..
004048E0 20 00 BA BF AF 2B B6 FB 00 C1 E6 DF A3 95 5E 00  ....+........^.
004048F0 1E FF DD 6C 9A 45 F2 F6 6E 16 75 C5 BD 54 66 99 ...l.E..n.u..Tf.
00404900 11 11 C1 A2 00 B6 51 A8 00 E8 FF 00 66 48 C0 32 ......Q.....fH.2
00404910 D9 17 17 BE 4C 93 13 25 61 11 00 FF 9B CA FF 0F ....L..%a.......
00404920 EB 69 FC 00 B3 75 D4 55 2E 0C 1F 37 00 76 00 3E .i...u.U...7.v.>
00404930 CB FF AE 46 00 48 F2 80 27 FF 00 61 83 3E 87 32 ...F.H..'..a.>.2
00404940 8B 00 20 FF D0 21 0D 59 2E 59 3C FF FC 50 16 E4 .. ..!.Y.Y<..P..
00404950 18 06 FE 93 41 20 5B 00 FC 00 00 8D 91 1C 1C 43 ....A [........C
00404960 00 A8 F9 00 E8 38 25 F6 D9 00 BC FF 77 5A 07 56 .....8%.....wZ.V
00404970 DE 66 55 41 EE 47 A5 BD D5 B7 00 B0 CF 2E 14 A1 .fUA.G..........
00404980 4C 95 AC C1 71 5A C0 AD FF CB A0 B3 D7 DA FF 9F L...qZ..........
00404990 1D 01 D0 0E 77 D1 BA 00 FF 4E 00 1E 8F 15 30 8C ....w....N....0.
004049A0 DF E0 51 D0 AA 00 42 BC C9 7E ED DC 0F 95 7C B4 ..Q...B..~....|.
004049B0 FF 89 B4 64 91 54 EF 00 00 54 A5 A6 F3 64 FE E6 ...d.T...T...d..
004049C0 A9 DF 17 00 00 37 91 EA 00 C9 55 7C 05 00 9A C6 .....7....U|....
004049D0 C1 35 00 84 F4 E8 29 30 97 06 06 00 73 7B 76 7F .5....)0....s{v.
004049E0 0D F6 82 6C D2 ED 00 76 82 0C 36 E3 9F FB 6F 00 ...l...v..6...o.
004049F0 89 02 14 CF AC 0F B0 00 86 E8 87 2C E3 8C C7 0B ...........,....
00404A00 EC 8B 33 06 3F 53 4A 98 46 16 F6 DC 15 CC F3 6F ..3.?SJ.F......o
00404A10 00 49 61 2B 00 CE DE 2C F3 5E B0 00 E1 0D EE 71 .Ia+...,.^.....q
00404A20 77 D2 5E 0A E6 D1 00 E1 2E 00 9B 00 B7 86 C9 7A w.^............z
00404A30 05 00 00 6E 81 00 EF 75 4D 00 59 1C C1 B7 3A AC ...n...uM.Y...:.
00404A40 0E 57 A7 00 77 00 70 00 39 76 FF 48 A4 00 00 0B .W..w.p.9v.H....
00404A50 04 14 00 00 33 00 8D 7E 00 85 00 EB FF 18 73 00 ....3..~......s.
00404A60 00 00 18 86 BA FF 8A 1D 59 C6 5A 73 E3 AD B3 86 ........Y.Zs....
00404A70 C1 44 5E FF 00 1F 68 06 00 34 00 ED 3F 64 F5 5F .D^...h..4..?d._
00404A80 B4 41 F7 A0 54 D1 FE D4 00 00 DB 34 A0 F6 00 82 .A..T......4....
00404A90 7F A4 13 00 C5 CF 0E 76 D1 63 76 FF 41 48 67 00 .......v.cv.AHg.
00404AA0 F6 00 85 FF A7 00 00 29 90 22 66 A6 47 85 58 AB .......)."f.G.X.
00404AB0 00 23 00 C5 AB 18 19 4B FF 9C 7B 26 36 11 C7 D1 .#.....K..{&6...
00404AC0 42 B5 C3 9E 5B 12 70 9D 99 00 1B 1B 03 80 11 00 B...[.p.........
00404AD0 8A 06 00 CD 00 16 27 83 00 5F 4F F1 81 72 1F FF ......'.._O..r..
00404AE0 CB 31 1E A7 7F 00 71 22 8F A9 93 0F 96 33 A2 FE .1....q".....3..
00404AF0 5F 25 B0 58 00 00 57 01 38 DC 2C C8 A1 00 00 55 _%.X..W.8.,....U
00404B00 41 14 81 FB 72 D8 54 56 2B 6F 28 C7 BF 51 5C 00 A...r.TV+o(..Q\.
00404B10 FF 81 FC 17 40 3D FD EB 47 45 FC 8E A1 00 ED 1F ....@=..GE......
00404B20 FF 81 DC 00 B7 12 4F FF 00 E6 F9 51 0F E1 EF DA ......O....Q....
00404B30 AF 5A FF 35 90 47 43 1C 08 81 FC 01 66 00 C7 34 .Z.5.GC.....f..4
00404B40 20 5B FF C4 00 0A EB 2A 17 86 5E CC 3C 39 2E BF  [.....*..^.<9..
00404B50 41 3B 00 E5 98 9B 75 6A 9C 00 27 06 00 F9 00 D0 A;....uj..'.....
00404B60 00 59 E6 FC EE FF FF 55 1C DB F1 3C 22 0A 8D 43 .Y.....U...<"..C
00404B70 F7 97 6B DE 0E 9B 80 11 BF AE 00 1E 57 A8 B0 00 ..k.........W...
00404B80 75 7D 0F 00 4E 3E 3B DB 93 1A EE B4 9F A0 27 C2 u}..N>;.......'.
00404B90 E2 2E 02 00 B5 60 ED BC 00 7F E3 16 F5 00 D6 8E .....`..........
00404BA0 46 89 C6 F7 EE CA 00 00 CD F6 E0 DF 98 44 83 07 F............D..
00404BB0 FC 2B 90 6F 2F 42 62 FF ED 00 90 B5 00 C4 4F 2D .+.o/Bb.......O-
00404BC0 1B FF AC 1F 3C 88 C0 C1 5E 2B 27 0C 6B 38 00 BD ....<...^+'.k8..
00404BD0 DF FF 65 0E C6 D3 48 00 A0 00 CC 19 EF 41 A1 58 ..e...H......A.X
00404BE0 00 1B F7 1B 00 B8 1E FF 02 00 06 69 0A 5A F8 00 ...........i.Z..
00404BF0 00 2D 14 00 76 8F 00 00 F8 00 02 00 DD 4E 12 98 .-..v........N..
00404C00 1C 63 FA 00 09 8D 00 00 F7 E8 50 D6 63 51 87 89 .c........P.cQ..
00404C10 CD 1E DF 10 E4 54 DF 82 00 F7 57 AD 4F 27 41 38 .....T....W.O'A8
00404C20 98 F5 D2 F8 B4 29 40 F8 00 3B D2 9B E9 9B 0B 56 .....)@..;.....V
00404C30 C0 33 77 B5 00 D8 92 7B 67 91 77 71 C8 2F 01 AD .3w....{g.wq./..
00404C40 00 85 99 69 4B 92 A7 9F 1C F1 08 A1 1D BD BB 35 ...iK..........5
00404C50 C0 B1 36 00 C5 0B 5A 00 AD 4B 00 00 B7 50 30 B8 ..6...Z..K...P0.
00404C60 FF FF 8E EC D1 68 87 DD 3C EC 9D 63 46 2D 40 DC .....h..<..cF-@.
00404C70 10 3F 3A 26 C0 A0 97 60 50 00 F0 00 00 12 80 05 .?:&...`P.......
00404C80 62 38 CF 42 FB 48 87 BE 67 33 8F 9B 23 FF FF C5 b8.B.H..g3..#...
00404C90 58 BB 57 F7 AE F2 84 AF 53 25 65 EC 00 FF F3 64 X.W.....S%e....d
00404CA0 96 04 D6 BF 0F EB 2C 21 0E F5 C0 A1 34 EE 06 3C ......,!....4..<
00404CB0 71 00 66 12 76 62 B4 D0 F0 00 55 AA BF D8 39 FF q.f.vb....U...9.
00404CC0 BC 68 95 F4 CC 43 23 00 0C D4 7F A5 C4 AF 28 00 .h...C#.......(.
00404CD0 D3 8F 36 FF 21 31 18 00 76 88 2B FF 15 A3 00 51 ..6.!1..v.+....Q
00404CE0 00 00 A2 93 68 81 EE 0E FF 36 AF 00 25 FF 42 0F ....h....6..%.B.
00404CF0 37 ED CE B5 4A 3E 0C 00 00 6E 08 F8 C0 E0 40 A8 7...J>...n....@.
00404D00 33 E7 E1 50 FE 9F 00 05 A9 52 86 BC 12 00 15 49 3..P.....R.....I
00404D10 61 A3 54 FF 16 AF CD BE 4D EE 95 E9 5A 91 C2 14 a.T.....M...Z...
00404D20 BD 00 4F 21 3C 7E AB 59 8F 5D CB 5C 00 43 E4 71 ..O!<~.Y.].\.C.q
00404D30 BF 00 C3 4E CF 40 8D 47 4D D4 06 95 1E FF 8B 1F ...N.@.GM.......
00404D40 F5 4E CB 00 00 00 5E 00 5A FF D7 D6 22 21 81 04 .N....^.Z..."!..
00404D50 73 CB BF 38 47 77 B2 2A 0F 6E 7A A6 00 FF B2 43 s..8Gw.*.nz....C
00404D60 73 7F 00 00 86 3F F1 00 EF 69 7A FF 00 BF 29 40 s....?...iz...)@
00404D70 B8 19 64 53 67 06 5F FE A4 90 BC DE FF 37 D6 5E ..dSg._......7.^
00404D80 1A 91 DD 8C 79 E5 D3 BF 9B 89 A3 12 82 A1 78 9B ....y.........x.
00404D90 5E BB 04 2C F8 0C E7 FE 34 00 1A 72 5C 9D FF EE ^..,....4..r\...
00404DA0 DF 54 E4 72 00 3A C0 D9 C9 6A 23 7F 00 6D 71 97 .T.r.:...j#..mq.
00404DB0 4A 00 F9 3E 8D A4 BD 58 FD E0 12 1D 67 D1 FD FF J..>...X....g...
00404DC0 28 00 E4 83 B4 9F 00 5F 47 54 36 F4 00 24 3F 9E (......_GT6..$?.
00404DD0 FE B4 FB F9 DC 45 00 00 F3 65 5E 6D 00 00 83 B2 .....E...e^m....
00404DE0 D7 00 FF 9C FB F6 83 B1 A8 00 FF FF CB 4A 10 00 .............J..
00404DF0 6D 74 DA 7E 16 00 94 F3 C6 CE 15 8D 29 30 4C A0 mt.~........)0L.
00404E00 F8 70 21 00 00 9C 99 D9 39 A3 4E EC 31 E4 B8 3C .p!.....9.N.1..<
00404E10 28 CA 0C EF 00 7D A1 3C C8 27 D9 FF 89 00 FA DC (....}.<.'......
00404E20 FF FD 37 FF 00 40 73 45 D7 EE 4B 68 40 FE BD 60 ..7..@sE..Kh@..`
00404E30 19 FB FF 7B 4D CC 00 22 7E 91 00 61 63 00 03 9F ...{M.."~..ac...
00404E40 50 FF 83 88 68 C0 36 64 42 0A 93 04 8E 00 E5 8D P...h.6dB.......
00404E50 78 26 7D 44 E1 DE C8 00 64 9C 10 69 7B FF DE 15 x&}D....d..i{...
00404E60 20 82 22 E6 D2 08 D5 44 63 00 00 B7 4A 77 FF ED  ."....Dc...Jw..
00404E70 08 3C D8 00 B8 E3 AC 55 FF C2 00 5D 27 D2 9B 60 .<.....U...]'..`
00404E80 AE 40 4D C0 F7 00 00 E9 60 97 84 00 22 FD B1 67 .@M.....`..."..g
00404E90 77 3D AC D2 53 00 8B 3A 0D F0 06 49 B7 11 80 F4 w=..S..:...I....
00404EA0 EE E8 00 01 FF 7B 1F 01 4E 5F 00 C7 36 74 01 00 .....{..N_..6t..
00404EB0 FF F3 02 A2 5C 73 00 CD 61 80 FF D0 A5 F4 99 26 ....\s..a......&
00404EC0 71 3F 00 74 BB 65 75 EF 3E C9 02 05 53 A4 00 87 q?.t.eu.>...S...
00404ED0 40 9C A9 51 7F C1 DB 70 33 2C 91 E5 37 01 51 BA @..Q...p3,..7.Q.
00404EE0 8E A5 EA E4 E6 E7 69 FF 8A 00 00 00 7C 00 5E 93 ......i.....|.^.
00404EF0 33 9E 5E 84 17 FE EE E2 63 7B 37 05 0C 40 4C 00 3.^.....c{7..@L.
00404F00 FF 00 10 9B AE 06 00 85 A5 D0 02 04 A8 46 AE FF .............F..
00404F10 08 FD 40 8B 74 25 8D 42 25 00 1E C3 7E CA A7 FF ..@.t%.B%...~...
00404F20 8C A0 20 8D ED 8B 02 C4 42 29 FA 3A 9A 2D 0F D2 .. .....B).:.-..
00404F30 60 E7 93 CF 94 AC 00 CE 00 73 1F 25 58 CD 7A C3 `........s.%X.z.
00404F40 A0 86 00 E0 9F 47 03 C0 9A 00 1D 00 7F 61 0E 82 .....G.......a..
00404F50 8F AE 67 C1 A1 D8 4B B8 63 00 15 00 E3 6F 1D B3 ..g...K.c....o..
00404F60 15 D8 73 87 EE 39 00 FD 19 4E 04 1C C3 7F 32 E8 ..s..9...N....2.
00404F70 90 A6 9F E1 36 BD 6B 00 1C 9A 00 B1 89 7A 16 0D ....6.k......z..
00404F80 B4 56 FF 7B 4C E8 FD 00 78 91 9E FF 00 E0 48 64 .V.{L...x.....Hd
00404F90 CB 38 ED 06 37 9A 58 00 65 0B F6 49 B3 BD FB 4A .8..7.X.e..I...J
00404FA0 78 B0 43 D8 67 00 02 25 AE BF 11 E8 F2 47 99 20 x.C.g..%.....G. 
00404FB0 C7 3B 7B 13 F3 18 00 D1 8B 2D 9A 97 5C DB 00 50 .;{......-..\..P
00404FC0 67 75 36 2D 0F 07 FF 10 09 3D 8C 16 9C 00 6C 70 gu6-.....=....lp
00404FD0 69 00 E7 33 00 A6 DB 93 2B 70 00 5E 38 FF 36 B7 i..3....+p.^8.6.
00404FE0 00 8F 13 74 BC 92 26 40 12 4F 30 2F 22 20 D0 FE ...t..&@.O0/" ..
00404FF0 45 6C 57 AC CF C0 8E 7C 1C 13 DD 68 7A D3 5C 33 ElW....|...hz.\3
00405000 D1 13 71 99 81 7D 00 FE 15 A1 C1 85 87 9B C9 9F ..q..}..........
00405010 00 9E F8 B7 68 FC 8B 02 00 CF 8C 7D A0 D2 3F 00 ....h......}..?.
00405020 D0 57 06 00 E3 34 00 FA 00 54 41 24 5F 3A C5 2C .W...4...TA$_:.,
00405030 FF 2E 44 C6 0E CE 18 57 F0 21 FE D9 37 00 5D EB ..D....W.!..7.].
00405040 00 4E B5 93 2A E7 57 39 FF 27 0F 22 74 75 0C 3A .N..*.W9.'."tu.:
00405050 E5 25 00 D2 D2 50 45 00 A0 00 00 68 70 5C 47 59 .%...PE....hp\GY
00405060 00 80 1C 10 58 00 1C 85 67 E6 A5 00 10 5E 04 31 ....X...g....^.1
00405070 7B F8 AA 18 86 1E DC 98 0A F3 FF FF F7 71 F9 1B {............q..
00405080 C6 46 70 00 9E 5A 59 F1 EF A8 6E 83 BA E5 00 00 .Fp..ZY...n.....
00405090 0F CE AF F3 C0 00 EC 05 03 69 6C 13 00 58 90 FF .........il..X..
004050A0 D4 87 AE 44 61 31 7C 10 F8 0A 02 BB 7F 00 26 D6 ...Da1|.......&.
004050B0 17 A9 8A 51 FB C2 7A E0 94 C2 64 00 00 9E 83 15 ...Q..z...d.....
004050C0 F2 1E 30 76 B0 49 00 00 0E 71 1F 9D B4 20 12 AA ..0v.I...q... ..
004050D0 17 2C C6 A6 03 75 00 20 FF 06 E2 89 ED C4 EF 5D .,...u. .......]
004050E0 02 AE 24 00 FB 1E 22 78 5F 0F 73 84 97 00 81 7A ..$..."x_.s....z
004050F0 E1 4D FF 62 9C 88 A5 BE 93 04 38 10 C3 E3 E1 FF .M.b......8.....
00405100 A5 FC DD 88 7F 2E B6 6F B3 EA 30 95 8F B0 AD 7A .......o..0....z
00405110 FF FF 97 D2 7F 00 95 63 00 A8 C3 D5 F0 79 C1 C7 .......c.....y..
00405120 84 4D 5C 32 E8 10 AD 89 13 FC 00 A4 DC EE 77 91 .M\2..........w.
00405130 09 60 B4 32 4F 72 54 0E E3 AF BD 00 20 17 E0 15 .`.2OrT..... ...
00405140 D0 E5 FF A3 39 B6 30 9B 8F 48 7A E7 D0 05 07 DA ....9.0..Hz.....
00405150 34 B4 3A DF 05 80 F3 60 3B C1 01 88 1C 81 67 93 4.:....`;.....g.
00405160 10 22 34 0A AE 20 BD 05 0A 31 00 04 7B ED 1A F5 ."4.. ...1..{...
00405170 00 76 AF AB 00 39 71 00 00 91 84 35 97 AD 2F 04 .v...9q....5../.
00405180 80 35 11 00 CF 47 80 A2 FF 4A 43 F3 CD 63 08 5C .5...G...JC..c.\
00405190 00 7D 40 99 20 18 6C 4D 2C B0 8C DE 0D 00 E3 70 .}@. .lM,......p
004051A0 EE 8B E4 88 00 4C FF F6 50 3F B2 B8 E8 00 1C 61 .....L..P?.....a
004051B0 FF 23 2F B9 10 00 2A 81 E2 58 DE FF 82 C1 8C 35 .#/...*..X.....5
004051C0 CC 07 1C 00 DD 47 0B 71 2C FF 0E BD 00 20 00 00 .....G.q,.... ..
004051D0 C3 8A 77 21 02 0A 92 37 E5 B4 D1 31 9D B8 94 20 ..w!...7...1... 
004051E0 A6 B1 D6 86 52 00 FF 8C BC 52 AA 36 A7 EE 25 BB ....R....R.6..%.
004051F0 CD 60 28 00 6E E1 00 78 E4 E5 A9 49 F4 97 30 FF .`(.n..x...I..0.
00405200 53 FF FF 00 9F FF 47 0C DB 00 6C 00 ED CA 4C EC S.....G...l...L.
00405210 00 4B 00 89 EF C8 8A FF AC 34 00 5A A4 BF F1 EC .K.......4.Z....
00405220 00 CC 02 4E D8 E7 91 6E 90 06 FF 77 FF 8F 8D E7 ...N...n...w....
00405230 80 FC FF 20 FF 88 43 C3 FB C3 FF 22 A5 9E 00 07 ... ..C...."....
00405240 7A 14 17 41 D4 00 E1 C4 3F 3A 7A 22 16 E6 C2 61 z..A....?:z"...a
00405250 00 67 78 FF 67 F7 00 F7 A6 94 00 07 00 08 09 63 .gx.g..........c
00405260 8B 2D D1 F5 1A 01 8A 6B B8 1C 6D 27 36 B2 BB DF .-.....k..m'6...
00405270 C1 D8 04 BB 3F 31 33 DC 70 84 A0 33 35 00 66 41 ....?13.p..35.fA
00405280 40 3F 7F 78 9F C3 A7 26 D3 BF 52 ED 24 25 69 03 @?.x...&..R.$%i.
00405290 BF 0A 5E FF 97 DD 07 1E 6B CF 41 79 00 61 81 93 ..^.....k.Ay.a..
004052A0 00 00 06 8C BA 58 A1 09 FC 2C C7 7C 8D 94 46 10 .....X...,.|..F.
004052B0 DC C5 50 20 A0 2A C3 00 D3 85 88 44 DD CE 7B 00 ..P .*.....D..{.
004052C0 C7 F4 00 80 A0 27 4E 3F 24 CF E4 B0 47 B6 F1 9B .....'N?$...G...
004052D0 B9 AC 19 CA 1A 27 00 F8 00 00 3E B1 20 D7 78 91 .....'....>. .x.
004052E0 C9 02 E4 00 00 21 9D 00 FF 94 53 23 C8 74 00 30 .....!....S#.t.0
004052F0 56 A8 01 1B 00 E2 B4 24 35 34 3A BD 46 C6 33 65 V......$54:.F.3e
00405300 6C 82 F3 05 B5 00 AF 2B 5C 10 4B 0B 00 65 47 C3 l......+\.K..eG.
00405310 F6 64 04 F1 23 30 FF C2 AE 0B 24 E4 C6 AF C8 37 .d..#0....$....7
00405320 C8 8A 1F 20 00 62 06 09 7B 83 EA 99 3D 60 94 FF ... .b..{...=`..
00405330 BE 3E 90 EC E3 00 B0 1F D0 A0 DC A3 7F 10 4E 3E .>............N>
00405340 86 C4 08 AA 02 DE 80 C3 1E 19 8E 9C 87 9F 58 51 ..............XQ
00405350 01 93 FF AC 56 72 42 0E 70 3C 34 CB 49 9D CF B8 ....VrB.p<4.I...
00405360 26 2F 40 04 00 FD 88 6B 0D 65 E8 3B E2 D2 FF CE &/@....k.e.;....
00405370 49 0C 71 3E 94 E1 AB CD 81 ED 48 92 E3 23 00 00 I.q>......H..#..
00405380 C1 2F DF FF 60 32 54 5C D5 27 11 C1 F9 00 00 FF ./..`2T\.'......
00405390 10 34 D7 00 FF A0 95 11 F4 24 93 00 49 32 E0 18 .4.......$..I2..
004053A0 7F 5D DD DA 03 D1 A6 E8 C7 00 26 3E FF 00 7D 87 .]........&>..}.
004053B0 FF 68 FF DC 0A 4B 31 55 52 0A 50 FF F3 0A F6 FF .h...K1UR.P.....
004053C0 00 FF AD 58 02 81 B7 00 11 00 13 C6 8D 42 4B 01 ...X.........BK.
004053D0 FF 46 50 1E 18 EC 00 2E 36 07 02 00 00 96 18 67 .FP.....6......g
004053E0 00 30 0F 21 FF 9C 48 13 7A C0 7F EB 80 FF 84 C6 .0.!..H.z.......
004053F0 AB F4 4C 62 CE BA 82 33 B9 65 05 03 26 32 E4 F7 ..Lb...3.e..&2..
00405400 7F 60 C0 A3 D4 00 FF D3 7F 79 C0 12 12 00 3F 71 .`.......y....?q
00405410 A5 7E 9F 00 02 DB B8 07 D7 00 FD C8 ED 00 5D 7E .~............]~
00405420 02 B6 34 D7 00 3C 73 26 DB D9 B0 31 FF FB 7C 02 ..4..<s&...1..|.
00405430 A0 85 06 FF BA FD F1 43 B1 26 A2 00 23 15 6C 83 .......C.&..#.l.
00405440 D0 F7 8C 2C 64 4E 3F DF D2 C9 4D C1 F1 6A 00 5A ...,dN?...M..j.Z
00405450 96 1E D6 D1 AF FF 0E 8D FF 00 40 71 E1 1E 47 00 ..........@q..G.
00405460 36 E8 5C 76 26 1B D6 D8 9B 95 36 2E FF 5D 2B 5A 6.\v&.....6..]+Z
00405470 57 C1 F6 54 1C 10 00 3A B1 27 08 00 20 BF 0E 20 W..T...:.'.. .. 
00405480 F7 7C CD 00 00 00 AC 00 16 FF 9C F6 0E AA 60 B9 .|............`.
00405490 00 94 41 DC 26 00 0F C3 00 6F E5 9A 06 9F 9D 00 ..A.&....o......
004054A0 89 8F 00 A7 9E 56 DF 08 A1 4B 39 5B CF 00 3E FF .....V...K9[..>.
004054B0 FC 83 A3 F0 00 04 40 04 6C 00 79 01 DE 21 40 E3 ......@.l.y..!@.
004054C0 39 1E E6 12 C9 00 80 51 81 F9 6B 3A 88 00 C6 4C 9......Q..k:...L
004054D0 00 F0 00 00 00 D0 C2 00 8E D4 E1 2D 4F 19 06 CE ...........-O...
004054E0 82 FB 49 01 D3 60 4E F9 BD 83 30 74 80 26 23 EE ..I..`N...0t.&#.
004054F0 28 8A FF A1 20 21 BE 00 F0 44 D9 68 08 F1 B5 54 (... !...D.h...T
00405500 DB 1B 0C 10 51 C5 60 80 FF 00 C3 00 B5 28 F9 30 ....Q.`......(.0
00405510 65 C0 EF 24 C3 10 F0 00 20 0B 00 13 26 3B 00 81 e..$.... ...&;..
00405520 12 FF 3B CF 1F 76 CB 27 FF 00 56 00 8B BD E4 9F ..;..v.'..V.....
00405530 00 05 6E FF 77 24 AE 07 57 F9 90 DA B4 FD 80 00 ..n.w$..W.......
00405540 49 24 2C 23 9C 43 61 00 8C D8 4D 58 57 00 80 20 I$,#.Ca...MXW.. 
00405550 C1 F5 CA 1F 64 00 00 F3 51 2B A0 CC C8 8A 00 22 ....d...Q+....."
00405560 84 00 A3 E6 C2 73 0D 14 11 C2 3A E8 10 FD 77 CA .....s....:...w.
00405570 00 0F 6E 74 00 B2 51 F3 39 0D 00 C1 7E 3E A0 C1 ..nt..Q.9...~>..
00405580 00 1E 19 7A D1 44 62 93 2F FF CF FF 00 11 A8 70 ...z.Db./......p
00405590 00 00 A1 EE B4 E5 CD 5B E9 50 0A 06 17 39 4E 09 .......[.P...9N.
004055A0 29 D9 62 00 E8 24 B2 88 69 CF 4F 00 A1 00 68 07 ).b..$..i.O...h.
004055B0 E0 53 16 BB 2C 13 DC 0A DC D3 FF 81 32 B1 98 91 .S..,.......2...
004055C0 B6 9B 22 00 EC 96 10 EF 03 7F 68 32 78 99 72 47 ..".......h2x.rG
004055D0 82 00 FF 71 22 6C 0F 0B 2D 51 10 00 00 3D 1E 00 ...q"l..-Q...=..
004055E0 95 8F 5D 87 EB E4 66 51 01 00 9C 00 8E A9 00 DA ..]...fQ........
004055F0 48 7B 22 84 A8 40 E4 C0 9E EB FF DC FA C1 9C 6D H{"..@.........m
00405600 F7 30 90 04 0D BF D9 8D FF FF 7F 02 4E 0C FF 5C .0..........N..\
00405610 C4 90 51 11 00 00 72 A8 51 2D EB A3 6E 1B 29 04 ..Q...r.Q-..n.).
00405620 99 35 BC 61 00 56 D3 32 A6 00 87 A6 90 43 00 32 .5.a.V.2.....C.2
00405630 B4 55 C6 27 43 00 2A B6 B8 42 88 DE 87 B1 01 DD .U.'C.*..B......
00405640 C2 3D 9C C7 8C 18 95 2A 18 2B 24 44 00 E6 1B D0 .=.....*.+$D....
00405650 C7 A4 FF 11 3A 8F 9F 55 B5 FF FF 2E 79 3D 1E 00 ....:..U....y=..
00405660 EE 00 00 DC C6 12 1A B3 0C FF 00 4E C6 FF B6 00 ...........N....
00405670 D0 3B C1 C2 00 D5 5E 0F 41 7A FF 06 54 FD FD 90 .;....^.Az..T...
00405680 00 E4 69 CC 08 FF D8 33 7F 06 46 0B 42 27 9F 3F ..i....3..F.B'.?
00405690 23 DA 11 46 AF D9 89 56 A8 FF 4F 72 04 14 FF EC #..F...V..Or....
004056A0 DD 89 00 5C 3C FC 08 00 18 2E 70 50 DF 40 00 58 ...\<.....pP.@.X
004056B0 1D 14 C7 4B 6F FF 3A 6B 9F 5A CC E7 00 46 EF 68 ...Ko.:k.Z...F.h
004056C0 6B F5 00 91 8C C7 F4 CE CB F8 58 FF 00 00 E3 D2 k.........X.....
004056D0 95 C7 27 B3 8A 01 3F 61 10 00 86 00 FF 00 84 CF ..'...?a........
004056E0 78 63 2F 0E AE 42 A8 3A 00 97 CE 94 51 A8 6C AF xc/..B.:....Q.l.
004056F0 75 0B F3 C5 A8 8B D3 83 FF 7E 9D 17 63 64 00 01 u........~..cd..
00405700 00 D5 71 FB 00 85 04 A6 00 0A 72 3B FD A2 61 11 ..q.......r;..a.
00405710 00 17 3C 3D C2 CD F1 17 00 CB 71 C2 0A A0 12 60 ..<=......q....`
00405720 C2 EF 00 B5 B9 61 00 6A F0 DD 2F E7 DA 56 7A 00 .....a.j../..Vz.
00405730 A9 3A 63 70 59 00 34 53 00 2B 67 A2 FF FC 54 7C .:cpY.4S.+g...T|
00405740 8B 15 03 0C A4 00 93 02 39 1D 00 D5 9C 4D 99 66 ........9....M.f
00405750 05 40 DE 30 2A F1 00 50 C8 B7 00 38 4F 00 C2 99 .@.0*..P...8O...
00405760 6B FF 40 B4 21 75 36 00 FF A9 00 00 DC 1F 00 00 k.@.!u6.........
00405770 53 F7 A6 00 C0 C6 2E B0 07 10 13 31 CB C0 8E F0 S..........1....
00405780 5C 2E 19 AB AA E8 94 EB D4 F6 0A 02 63 F0 61 52 \...........c.aR
00405790 FE 60 54 39 BE 8D FE 98 00 FF 26 07 F6 CC EA DF .`T9......&.....
004057A0 1D 71 93 3E C1 5F C7 E5 FF 12 1C 72 7F 5E 00 46 .q.>._.....r.^.F
004057B0 F8 86 FF 1C 70 00 01 B3 00 0E 54 2E 0E 6E 00 F3 ....p.....T..n..
004057C0 41 07 04 20 BB FF 74 A7 D0 40 62 14 DE 74 D1 66 A.. ..t..@b..t.f
004057D0 00 77 4F 08 EB 1F 26 85 8D 08 07 86 EB 3C 86 00 .wO...&......<..
004057E0 7F FA 4A 31 D6 14 8F 79 00 02 5C 04 69 FF 02 DC ..J1...y..\.i...
004057F0 D1 2E F4 00 AF E1 92 00 67 C1 00 2D FB 00 00 8D ........g..-....
00405800 35 DE E7 19 83 AE 68 5B 01 68 FF B4 28 3F 10 29 5.....h[.h..(?.)
00405810 4E FF B5 2F 96 08 54 CF E1 3E 31 3F FB C4 01 43 N../..T..>1?...C
00405820 A8 02 F3 00 0E 8B 7A B3 FF E0 BC 30 A0 FF 50 4C ......z....0..PL
00405830 DD FF 00 2D D4 47 ED 30 C1 BC 00 AF 99 F3 0E 38 ...-.G.0.......8
00405840 4F F7 7A 00 00 79 53 06 00 D2 46 AE 80 00 00 82 O.z..yS...F.....
00405850 A9 BC C3 A7 8D 37 9E FD 77 00 14 06 85 9E C4 07 .....7..w.......
00405860 63 29 08 9A 1A 08 00 FB C0 0C 6B 3B 05 0D 3F 00 c)........k;..?.
00405870 06 B0 F3 04 4E B2 B0 9F 0A 3C 8B 03 ED 00 EB C3 ....N....<......
00405880 7B 09 46 77 05 28 22 6B 01 02 2E FF C8 21 B2 7D {.Fw.("k.....!.}
00405890 FD FF B9 85 0F 26 00 05 52 FF CB 0D 00 FF 92 83 .....&..R.......
004058A0 61 68 04 00 B4 A9 4B 20 34 61 A8 00 11 87 86 00 ah....K 4a......
004058B0 DD F9 FB CB 85 20 36 E8 F4 D1 00 4F BC B2 7E 00 ..... 6....O..~.
004058C0 00 1B 21 24 BD FF D5 C7 00 FB 68 1F 22 85 FF 78 ..!$......h."..x
004058D0 00 5A EC 3A E8 24 A1 02 08 BB E6 80 62 30 77 E8 .Z.:.$......b0w.
004058E0 9B 75 BF FF 00 C7 13 93 99 3C 14 C0 06 0E F2 3A .u.......<.....:
004058F0 99 8D 1C 06 81 00 C0 00 19 CF 88 51 00 10 11 F1 ...........Q....
00405900 0E FF 00 96 0A 6E 40 A9 37 3D ED 7D 28 3D 56 3C .....n@.7=.}(=V<
00405910 00 3C B0 00 7A 33 E2 DC E3 F6 3F 8E AB FF C9 08 .<..z3....?.....
00405920 C7 10 9A 41 00 C1 FB 5C 4A 61 C3 67 00 B3 00 67 ...A...\Ja.g...g
00405930 8B 3F 00 1F 7C 56 E2 3A F7 02 8C B5 02 5F 98 AE .?..|V.:....._..
00405940 B4 19 44 C6 E7 7F 00 2E 76 2D 12 09 00 89 76 00 ..D.....v-....v.
00405950 F4 D8 5A 75 FA B0 D8 5A FF 86 00 C4 9F 43 00 1C ..Zu...Z.....C..
00405960 53 00 00 00 24 60 70 4D CD E3 1B DE B0 DF 73 65 S...$`pM......se
00405970 00 0F 16 C6 F2 61 47 00 09 1B 58 00 00 7B F5 00 .....aG...X..{..
00405980 30 69 72 FF 00 B7 7E FF AE C3 1C A3 62 4A 00 FF 0ir...~.....bJ..
00405990 E8 00 26 05 44 43 40 1F EA 0C 1E 0C 63 87 A6 84 ..&.DC@.....c...
004059A0 FF D9 00 2F CD 52 CE 8A 10 CF 00 FC 81 30 FB 93 .../.R.......0..
004059B0 BD 75 73 00 80 2F C9 C3 32 2F 8F 8D 9C 09 00 5F .us../..2/....._
004059C0 9D 74 FD 3B A4 B4 BF 85 54 35 00 A3 05 EA 00 27 .t.;....T5.....'
004059D0 F1 67 2B 5C 20 31 99 72 02 8B 30 B9 C2 37 56 4A .g+\ 1.r..0..7VJ
004059E0 D5 71 20 FF F0 00 84 90 A0 12 37 30 99 00 C6 62 .q .......70...b
004059F0 84 93 F9 3D 89 18 61 79 49 00 C6 00 60 B2 BC 7F ...=..ayI...`...
00405A00 FF 94 00 1C 00 2A 44 9E AC 7B 1D 6A 00 B5 20 A7 .....*D..{.j.. .
00405A10 BB 50 00 C9 AA CC 41 88 00 7C 3D AD 1D 00 C0 A1 .P....A..|=.....
00405A20 D8 48 00 24 40 BD 00 00 EE 44 00 5E DD 63 AE BB .H.$@....D.^.c..
00405A30 9C 2E 28 09 3B 90 3F B4 00 96 E4 F1 EE 00 1E 6C ..(.;.?........l
00405A40 98 78 AA A7 64 FC 4D 34 00 59 AF A0 00 00 D2 00 .x..d.M4.Y......
00405A50 FA 21 86 CE 4A 80 13 06 73 25 B1 C3 6C 00 E1 3E .!..J...s%..l..>
00405A60 F6 24 B3 28 A0 64 00 06 62 13 A7 EA 05 65 E8 55 .$.(.d..b....e.U
00405A70 B7 94 45 00 AF A4 5E 02 EB DF CE 36 CB 9C 7B 0B ..E...^....6..{.
00405A80 8E FC 6C 57 85 69 00 00 74 0A FF 90 47 F7 FB 00 ..lW.i..t...G...
00405A90 50 93 98 39 3F BD E3 05 3E 7A 00 0E 93 9A 03 CB P..9?...>z......
00405AA0 DD FE 56 59 E0 45 39 00 00 A0 BD CD 2C 1E 10 0C ..VY.E9.....,...
00405AB0 00 86 F8 C7 9E FF B5 70 FF 63 5D 00 4E 47 B8 34 .......p.c].NG.4
00405AC0 00 E9 C1 70 58 58 A8 38 03 00 53 5A 00 78 C5 2A ...pXX.8..SZ.x.*
00405AD0 E2 F1 F4 E0 DE 38 81 FF 4A 43 32 C1 00 F3 DD D0 .....8..JC2.....
00405AE0 00 2A F1 C2 A6 00 7C 00 63 09 FF 00 4C 66 71 02 .*....|.c...Lfq.
00405AF0 C6 23 FF B1 83 C1 6C 13 E4 1E D7 8E 75 3B A9 AF .#....l.....u;..
00405B00 DB 8E 26 D2 13 17 96 AF FF 09 00 73 40 03 34 25 ..&........s@.4%
00405B10 00 00 6B C2 9D C1 E9 6A 47 75 EB 04 61 86 03 FF ..k....jGu..a...
00405B20 1D E8 00 88 44 A3 85 3B 34 6F 81 6A 22 1A 54 EB ....D..;4o.j".T.
00405B30 2C 0C D7 14 00 75 00 76 40 F1 D9 97 29 0D FD BF ,....u.v@...)...
00405B40 14 7A DF 00 51 37 A2 F9 FE AB F1 49 63 1A 38 ED .z..Q7.....Ic.8.
00405B50 FE FF FA FF 2A 39 1C 28 6A 00 AA 33 FF EC 00 EA ....*9.(j..3....
00405B60 00 12 42 EF 7C C0 7A F6 C0 26 AA 7D 91 A8 90 DF ..B.|.z..&.}....
00405B70 7A ED 00 BC 00 1A 2A 7D 7A 00 00 00 C8 30 C6 62 z.....*}z....0.b
00405B80 E3 C3 17 01 A7 AD 08 26 FF 92 E7 C6 00 01 B5 A6 .......&........
00405B90 00 FF D5 D7 95 8F 5D 00 FF 88 FB FF CF 00 D6 00 ......].........
00405BA0 8A D1 99 AE 11 BF E7 C1 A3 00 24 E7 E1 4A 03 00 ..........$..J..
00405BB0 5C 9E 9A EB F4 A6 00 FE 1D 83 B9 83 00 4B 39 D3 \............K9.
00405BC0 8B 9B E8 00 88 4D 05 FF 08 30 92 DA E0 31 00 A6 .....M...0...1..
00405BD0 70 4D FF 01 8D 4B 8D FE 16 00 8F 00 00 06 A5 A7 pM...K..........
00405BE0 05 AF 98 F5 00 DC A0 1A D0 C4 00 06 40 D6 26 25 ............@.&%
00405BF0 80 18 00 CC 70 93 00 60 42 E5 EB 29 C6 DB 9F 4E ....p..`B..)...N
00405C00 E0 64 4E 50 C3 FF C8 D6 D9 18 52 13 00 DB 13 B9 .dNP......R.....
00405C10 FF 1F 00 AC 23 00 F8 62 6C 91 81 E2 94 51 00 06 ....#..bl....Q..
00405C20 07 F1 85 C7 EE 80 00 F3 3B 85 DC B9 6F 1D A5 BD ........;...o...
00405C30 99 50 9B 00 D2 93 0F 90 6C B6 C2 38 4B FB 70 00 .P......l..8K.p.
00405C40 7C 14 C5 C6 FF B4 E0 09 1F 8B 6F 50 A7 F5 57 FD |.........oP..W.
00405C50 31 98 8D 01 EC 01 FF 0C 37 18 94 A8 F8 0D 13 E6 1.......7.......
00405C60 3D FF 23 DE FF FF F5 00 C2 23 E7 00 17 3A 00 91 =.#......#...:..
00405C70 9D 00 26 E3 FF 85 F9 EE 00 2D 00 4E 8E 68 66 41 ..&......-.N.hfA
00405C80 B3 00 C1 BA 00 DA F6 DF 82 74 BF 6E 7A DF E8 06 .........t.nz...
00405C90 05 77 FF A4 EC 00 AA F1 CE B1 76 33 B8 3D 19 B2 .w........v3.=..
00405CA0 3C 32 12 DD CA 69 17 4E AD D8 3A 42 57 00 43 55 <2...i.N..:BW.CU
00405CB0 00 E1 AC D8 FF 89 F2 60 00 00 06 52 00 DA A4 75 .......`...R...u
00405CC0 94 00 E9 DA 30 37 7A DB 3F C0 88 F6 4E 71 00 BD ....07z.?...Nq..
00405CD0 00 00 FF 09 00 E2 78 34 9E 54 0B 28 B6 90 D2 4F ......x4.T.(...O
00405CE0 F2 00 00 7C 0A 54 35 BF 0E 00 5F CC 2E EC 27 00 ...|.T5..._...'.
00405CF0 09 6C 32 30 96 66 0B FC 00 6B 31 C1 00 D4 D1 00 .l20.f...k1.....
00405D00 ED 12 D1 00 AC 00 A0 00 42 FF CB 3B C0 22 7E 24 ........B..;."~$
00405D10 87 BA 28 7F 47 00 C1 B9 0A 85 00 95 C4 00 DB CE ..(.G...........
00405D20 82 3A 36 5D E1 9D 80 49 94 CC 09 95 FF CF 65 00 .:6]...I......e.
00405D30 C9 80 7F 1C 61 74 1A B6 00 26 00 00 52 60 0C 4E ....at...&..R`.N
00405D40 BC D2 5F 29 4C 54 C3 72 A2 6E 5A 64 00 00 F7 1F .._)LT.r.nZd....
00405D50 C3 96 05 0E D0 7B AD 92 F0 51 58 7F EE EF 0B 04 .....{...QX.....
00405D60 0C 25 42 9D 00 74 4F E4 38 7E 8F 00 66 CB 92 30 .%B..tO.8~..f..0
00405D70 EC 75 FF 13 00 7B 83 00 72 C0 FF 00 0A DE EC 3F .u...{..r......?
00405D80 9C 25 7F FF 64 8E 76 4D 00 FF 7D DB FF 04 0F 0E .%..d.vM..}.....
00405D90 00 00 81 3C 7E 46 4A 0F 06 14 00 6D 00 B3 E0 0E ...<~FJ....m....
00405DA0 29 DC 82 19 11 8D 00 88 3A 4A 14 D5 00 5F EA B2 ).......:J..._..
00405DB0 3F 7A 64 DC 0B 00 00 0A DC A1 D6 81 B6 B3 60 00 ?zd...........`.
00405DC0 A2 51 7C 1B 45 BD 00 D7 11 3C 00 41 26 B6 BA 46 .Q|.E....<.A&..F
00405DD0 DE 45 14 E2 34 36 4B 2E B1 E7 00 62 64 02 7E E6 .E..46K....bd.~.
00405DE0 6A BF 0B A1 61 BA 00 98 88 C4 7B C7 C9 D8 1B 03 j...a.....{.....
00405DF0 22 D0 27 10 00 48 A0 00 83 A1 D8 00 81 75 A7 8E ".'..H.......u..
00405E00 53 01 5C 17 09 83 E7 00 FF 35 CD 49 9C 00 68 DF S.\......5.I..h.
00405E10 96 E0 00 2A E0 02 00 53 6C 00 23 CD FB 83 36 14 ...*...Sl.#...6.
00405E20 00 72 67 11 4D BD 4B 00 96 44 04 09 8D 00 46 D1 .rg.M.K..D....F.
00405E30 FF FF B4 D1 32 E2 53 F7 25 4E 84 B9 08 B3 00 FF ....2.S.%N......
00405E40 4C 94 3A 00 16 1F DE 00 4D 00 3B 92 9F F3 C5 1A L.:.....M.;.....
00405E50 00 28 D0 43 B2 96 C1 2F DF B0 B2 1D 00 00 C9 F3 .(.C.../........
00405E60 FF 2F D9 C1 0C FF 7F 60 63 78 61 00 A2 78 D0 8D ./.....`cxa..x..
00405E70 00 66 83 A7 BF FE BC 47 FE A7 34 FF 02 00 00 8C .f.....G..4.....
00405E80 FD 06 8A 50 29 77 8F ED EF 77 94 01 F8 0A F6 3F ...P)w...w.....?
00405E90 F8 BA C9 14 F3 02 5A 56 C2 C8 00 BB EA 44 14 63 ......ZV.....D.c
00405EA0 0F 4C 3A 9A 15 7C E7 49 00 8C 9A 00 B3 DF 00 F8 .L:..|.I........
00405EB0 14 00 5C 93 B8 57 87 CE 44 16 02 5D 42 7C CC F0 ..\..W..D..]B|..
00405EC0 E5 84 4D 08 00 5F 57 AE 3E F2 DF 15 ED 00 CC 7B ..M.._W.>......{
00405ED0 55 17 FF 18 63 21 23 1B 61 D1 82 AE 00 32 50 00 U...c!#.a....2P.
00405EE0 56 29 00 FF DA 40 0C 18 F8 4D 66 01 00 C0 12 40 V)...@...Mf....@
00405EF0 C9 A9 21 AA FE 00 05 59 C8 40 DE 00 FB 8F 10 D2 ..!....Y.@......
00405F00 1A A9 00 78 00 E3 02 35 03 4A 00 60 75 10 16 7B ...x...5.J.`u..{
00405F10 60 86 FB 6E 03 00 56 CF 1F 00 DC 00 D4 E3 00 0C `..n..V.........
00405F20 24 CB 01 FB C4 34 E5 D4 95 8D 7C 9C 2B F9 27 43 $....4....|.+.'C
00405F30 5B C8 22 00 16 00 9A C3 0A C0 F5 D8 F8 0A 34 B1 [."...........4.
00405F40 71 02 00 62 E7 00 3C 05 B0 AF 44 B5 FF 80 00 FF q..b..<...D.....
00405F50 B6 FE 00 F4 00 00 C6 8D 3F 68 80 EF 00 00 DD 98 ........?h......
00405F60 73 FF E1 F8 5B FF 5A 90 FF 3E A3 09 E4 B2 11 44 s...[.Z..>.....D
00405F70 23 00 F6 7D F8 53 2B 39 00 A1 23 C3 74 00 BD FF #..}.S+9..#.t...
00405F80 92 B7 00 FF 85 FA 21 B9 7B 1C 88 9E D5 AD 55 5F ......!.{.....U_
00405F90 82 00 12 2D 50 82 00 7E 7C FF 00 00 80 00 CC 6A ...-P..~|......j
00405FA0 D6 04 F3 00 C9 5C 80 00 6F 00 8D C0 AA E1 C0 67 .....\..o......g
00405FB0 00 07 3A 21 9D 3E 66 00 2E A9 F6 A3 30 62 73 8F ..:!.>f.....0bs.
00405FC0 64 00 00 9B 28 85 1E FE A0 6F 0C 62 FF 00 D3 8D d...(....o.b....
00405FD0 24 80 00 28 00 00 9E 8C 06 CB ED 9F BD 21 70 58 $..(.........!pX
00405FE0 FF 00 B5 29 EE 99 00 00 54 D5 89 59 81 00 A9 09 ...)....T..Y....
00405FF0 53 D1 97 BF 30 06 1A D1 BF 24 D8 C7 85 FF 54 00 S...0....$....T.
00406000 CF 04 FF 00 20 02 DD FF 18 39 3F C2 AA C8 00 3E .... ....9?....>
00406010 83 00 30 29 54 00 60 09 CA 2D 95 9C 95 02 8D F7 ..0)T.`..-......
00406020 48 00 00 D9 1B 00 EA 28 7A 0B B7 C9 56 70 64 00 H......(z...Vpd.
00406030 40 31 42 3C 80 16 00 B0 0B 1D 13 38 00 B6 7E 49 @1B<.......8..~I
00406040 C4 C2 77 98 3D 42 CA 82 00 B5 E6 60 1E 00 FF C1 ..w.=B.....`....
00406050 00 26 B2 3F CC 36 6C 58 5B C5 00 AA FF 00 E1 FD .&.?.6lX[.......
00406060 45 8B 78 B0 F6 C6 73 00 18 D8 30 10 00 04 AE 89 E.x...s...0.....
00406070 B5 00 F5 00 77 94 52 64 B2 2E 02 66 0E 01 CD CD ....w.Rd...f....
00406080 80 1B CE CA 7B 48 57 8A 80 BC 00 32 99 B1 00 FF ....{HW....2....
00406090 10 F5 E8 EB DE 2F 44 A5 EB 91 44 56 33 D0 00 00 ...../D...DV3...
004060A0 B1 B1 ED 01 FF C4 6D FF 85 5B F1 D3 BF 05 7C A4 ......m..[....|.
004060B0 07 02 00 82 D3 5A 46 F2 ED C9 40 E1 AD 02 7B 15 .....ZF...@...{.
004060C0 04 94 31 0C 00 C7 C5 51 53 BF FF 11 4F 39 BA FB ..1....QS...O9..
004060D0 31 87 95 08 D1 00 00 FE CD 77 6A 7A 82 64 FB E3 1........wjz.d..
004060E0 F2 00 C8 06 B5 5F 00 6E 90 00 21 6C 55 74 FF 07 ....._.n..!lUt..
004060F0 4E 38 F4 00 CC 61 80 10 64 78 87 00 6C 00 22 F9 N8...a..dx..l.".
00406100 F8 00 00 D5 CA DC C3 00 0E 2E C0 00 85 A3 E3 0F ................
00406110 AD 00 C8 F7 D0 EC 67 FF 26 F8 56 00 E0 0E 00 E0 ......g.&.V.....
00406120 67 01 E2 00 4D 08 8D 03 DB AE 00 77 00 1A 6C 0F g...M......w..l.
00406130 CD B3 F4 00 04 9F 8F 00 45 58 0B 00 52 7E 18 9A ........EX..R~..
00406140 1E 18 B7 BF 5B 1D 4C 82 75 5F 00 00 FE F0 36 C4 ....[.L.u_....6.
00406150 90 25 D7 00 25 C3 9D 13 54 FE 3D AE FF 00 A0 D6 .%..%...T.=.....
00406160 A0 EA 2C 0E 17 FF 00 FF 6E 1C C1 0F 88 00 F2 C0 ..,.....n.......
00406170 62 A7 51 00 CB FF 5C 00 00 00 59 FB 94 B9 00 00 b.Q...\...Y.....
00406180 3E DF 00 00 18 87 00 88 C3 00 5B E4 ED B3 AE C1 >.........[.....
00406190 00 41 46 00 7C 00 00 66 F1 33 86 BF 21 A7 00 38 .AF.|..f.3..!..8
004061A0 D3 77 93 71 C1 C2 E9 69 D5 B0 DC CB C9 13 D4 00 .w.q...i........
004061B0 F3 20 CA 25 70 EF 42 FF FF C0 BD A5 0B 00 C5 FF . .%p.B.........
004061C0 12 ED 35 D1 13 1C 00 80 84 98 FE 87 D4 00 DB 54 ..5............T
004061D0 00 12 87 30 5D F3 00 AE E9 17 19 7F FF 42 31 5A ...0]........B1Z
004061E0 00 00 A8 45 1A F7 79 D1 A8 54 86 83 9E 07 9A 00 ...E..y..T......
004061F0 41 00 1C A2 6B A3 DF 8D 32 FF FF 0D 48 00 F8 AF A...k...2...H...
00406200 1F 08 F0 37 28 80 C9 00 FB 99 0A 30 28 FD FF A9 ...7(......0(...
00406210 00 78 0E B4 00 E2 D6 10 00 FF 00 00 19 00 CE E0 .x..............
00406220 88 50 DC 00 2E 75 00 00 FF BB F2 00 00 00 78 B5 .P...u........x.
00406230 CB B8 D3 FA D4 CF 00 00 B1 42 41 C0 81 C5 CE B4 .........BA.....
00406240 DA 00 75 B0 13 83 9B E9 94 C5 30 D4 8C 52 B0 69 ..u.......0..R.i
00406250 CE 00 E8 AE CB A0 B6 14 82 76 E3 6E 00 19 00 41 .........v.n...A
00406260 36 69 A3 00 26 EE 85 EA 29 00 A9 7E C4 98 FF E1 6i..&...)..~....
00406270 89 00 00 C3 B8 00 91 F8 8C A1 33 F1 00 FF 07 F0 ..........3.....
00406280 FD 38 37 40 4A FF 68 B3 FF CB 90 3B 00 04 00 B1 .87@J.h....;....
00406290 66 00 B9 88 FF DF 06 1B D5 6F 2D 00 FF 7C 8F 78 f........o-..|.x
004062A0 C6 CB B9 3F 00 8E 4E A0 0E 4C CA 08 DF 3A 44 5C ...?..N..L...:D\
004062B0 DD 01 45 12 DE A0 03 13 5C 43 85 7B F7 BD 8B 00 ..E.....\C.{....
004062C0 00 7E FF FF D1 A7 5C 00 F4 20 96 FF EF 52 BF FC .~....\.. ...R..
004062D0 5A 00 00 00 6D 3A 73 D0 2F CE 9A BB 18 00 E6 FF Z...m:s./.......
004062E0 38 65 00 10 B6 19 40 C3 DD 0D 5C 48 13 61 20 F1 8e....@...\H.a .
004062F0 FB 70 9C 9A 00 8B B8 00 9F FF 21 7D EA E8 D3 00 .p........!}....
00406300 93 A9 1C 5D 5D E7 29 51 81 BC 55 2F E4 63 00 55 ...]].)Q..U/.c.U
00406310 19 6D 20 CD 7D 86 38 BC FF EA 0E 56 A9 F7 31 4A .m .}.8....V..1J
00406320 CA 00 54 16 DB E7 AE CB 00 01 9B 7A 28 0C AB 00 ..T........z(...
00406330 13 1C 1B 9E 1F 00 60 98 F5 90 F4 D5 00 13 91 EF ......`.........
00406340 F8 57 00 78 AA 59 2D 18 66 12 D2 F0 60 1C F4 16 .W.x.Y-.f...`...
00406350 27 A1 CD FD 9C CB FE B6 95 38 00 AB DD 00 F9 26 '........8.....&
00406360 83 C4 E6 F1 B9 E8 5D C7 04 2D 08 FF CD 20 48 55 ......]..-... HU
00406370 DF 9C 00 C0 8F 14 08 76 D7 64 F0 79 0A 9B 4D FF .......v.d.y..M.
00406380 EA 00 00 88 4C 5F 00 05 31 39 1F 00 00 FF 00 97 ....L_..19......
00406390 D4 00 26 71 2B 00 00 00 58 CA F2 4D 00 2C 82 66 ..&q+...X..M.,.f
004063A0 47 18 4C 2D 74 1F 00 00 B0 A1 2E 14 19 20 F7 24 G.L-t........ .$
004063B0 6B A0 D1 C4 B9 DE 66 00 95 DB 3B 5C F9 85 D3 82 k.....f...;\....
004063C0 F5 27 1B 00 7F E7 7F 2A 11 F6 0F C4 2A C4 F0 E7 .'.....*....*...
004063D0 CC 6C 79 5C B3 18 B9 59 0C 07 B8 60 00 08 7F 72 .ly\...Y...`...r
004063E0 6D 00 02 00 A5 5B 72 66 1A 80 C5 E1 6F 2E D1 99 m....[rf....o...
004063F0 E8 06 4F 34 00 50 24 84 B4 1E 72 FF 0A 00 0F DC ..O4.P$...r.....
00406400 03 D9 00 44 FD AF 92 46 97 0B 1C 74 E0 43 93 70 ...D...F...t.C.p
00406410 A3 09 4E ED 00 FC FF DA 82 91 00 70 D9 87 C1 D7 ..N........p....
00406420 74 33 69 75 92 76 FF 75 00 7F CE 76 69 00 4C 00 t3iu.v.u...vi.L.
00406430 AB 00 00 FD 00 D3 FF 60 33 B7 18 9F 1D 8D BC CB .......`3.......
00406440 FF 74 A1 CA 00 00 54 89 7A 7D CF 92 38 7C E0 ED .t....T.z}..8|..
00406450 B3 3A 41 00 FF B1 F5 99 FF 71 99 12 46 FF 95 E0 .:A......q..F...
00406460 10 86 B9 A5 00 00 00 1E 9B 94 63 38 C4 4C 00 9D ..........c8.L..
00406470 6B 80 00 C8 F5 35 9C 10 30 00 85 51 00 AF 9B B5 k....5..0..Q....
00406480 D4 B7 A0 3C 32 10 00 87 9B 88 01 00 00 BF BC 00 ...<2...........
00406490 BD E8 3D 59 D0 8A 54 02 AC 1E A9 93 7C 9B C8 2D ..=Y..T.....|..-
004064A0 00 2B 00 00 51 00 00 C1 FA E4 79 FF 82 37 EB E8 .+..Q.....y..7..
004064B0 00 02 CC 4A 7E 04 FF FE 43 00 AD E1 5E BF 7A D1 ...J~...C...^.z.
004064C0 80 BF 18 78 43 AF FD 8E EF 42 1D 3C BE CF 4D C2 ...xC....B.<..M.
004064D0 00 BA 91 E3 27 EA 0E 22 00 6C 00 0C 8F 83 FE 02 ....'..".l......
004064E0 5E 00 1B CB 00 FD C0 72 8D 0D C1 9D 14 E7 B2 7D ^......r.......}
004064F0 00 BF FF 00 FE 61 00 75 C0 00 7B 98 48 0E 42 EF .....a.u..{.H.B.
00406500 08 D0 08 00 E8 C4 DB 22 00 AE FF 00 84 36 20 00 .......".....6 .
00406510 AC 36 90 41 CD EB 00 49 2C 5E 00 F1 5E 91 C4 4F .6.A...I,^..^..O
00406520 00 90 52 DA FF 73 75 49 FB C8 39 89 88 8C C3 C8 ..R..suI..9.....
00406530 81 2F 00 34 CE 04 8F FA FF 24 17 FF 2F 09 14 FF ./.4.....$../...
00406540 19 00 99 07 5D 78 BD 9B 79 4F FF DC D9 00 C3 CD ....]x..yO......
00406550 BB AA FF 12 00 15 AD 36 C8 C9 63 9C 00 BF 00 F6 .......6..c.....
00406560 80 90 00 6C 61 FD D1 4C 94 D0 EF 6E 67 4C A0 0B ...la..L...ngL..
00406570 11 94 00 53 7C FF F2 54 00 D1 87 04 0E 00 51 00 ...S|..T......Q.
00406580 9E 26 E1 85 0C 48 14 D3 2D AC BB EF E7 2D EF 7D .&...H..-....-.}
00406590 00 00 2D FF 9D 67 AD 2F B8 E1 FF 5F F6 25 99 88 ..-..g./..._.%..
004065A0 3D E8 72 F5 6C 00 00 33 7E 81 54 0A 58 00 00 30 =.r.l..3~.T.X..0
004065B0 31 05 91 EC C8 03 B9 86 FF 78 DC 4B 85 D5 88 7F 1........x.K....
004065C0 58 A5 DB F3 3E FF 3E 00 CD 91 17 AD C6 F8 2F 82 X...>.>......./.
004065D0 D9 4C F7 3F 34 83 00 4C 70 5D 84 A1 26 15 00 B3 .L.?4..Lp]..&...
004065E0 31 40 F4 9C EC 6B 96 8D D6 22 04 CD 89 12 5C D4 1@...k..."....\.
004065F0 C0 A8 1E 26 F2 20 E5 C3 D4 00 00 50 E3 4F 30 25 ...&. .....P.O0%
00406600 00 00 00 00 00 00 00 00 00 00 00 00 00 00 00 00 ................
00406610 00 00 00 00 00 00 00 00 00 00 00 00 00 00 00 00 ................
00406620 00 00 00 00 00 00 00 00 00 00 00 00 00 00 00 00 ................
00406630 00 00 00 00 00 00 00 00 00 00 00 00 00 00 00 00 ................
00406640 00 00 00 00 00 00 00 00 00 00 00 00 00 00 00 00 ................
00406650 00 00 00 00 00 00 00 00 00 00 00 00 00 00 00 00 ................
00406660 00 00 00 00 00 00 00 00 00 00 00 00 00 00 00 00 ................
00406670 00 00 00 00 00 00 00 00 00 00 00 00 00 00 00 00 ................
00406680 00 00 00 00 00 00 00 00 00 00 00 00 00 00 00 00 ................
00406690 00 00 00 00 00 00 00 00 00 00 00 00 00 00 00 00 ................
004066A0 00 00 00 00 00 00 00 00 00 00 00 00 00 00 00 00 ................
004066B0 00 00 00 00 00 00 00 00 00 00 00 00 00 00 00 00 ................
004066C0 00 00 00 00 00 00 00 00 00 00 00 00 00 00 00 00 ................
004066D0 00 00 00 00 00 00 00 00 00 00 00 00 00 00 00 00 ................
004066E0 00 00 00 00 00 00 00 00 00 00 00 00 00 00 00 00 ................
004066F0 00 00 00 00 00 00 00 00 00 00 00 00 00 00 00 00 ................
00406700 00 00 00 00 00 00 00 00 00 00 00 00 00 00 00 00 ................
00406710 00 00 00 00 00 00 00 00 00 00 00 00 00 00 00 00 ................
00406720 00 00 00 00 00 00 00 00 00 00 00 00 00 00 00 00 ................
00406730 00 00 00 00 00 00 00 00 00 00 00 00 00 00 00 00 ................
00406740 00 00 00 00 00 00 00 00 00 00 00 00 00 00 00 00 ................
00406750 00 00 00 00 00 00 00 00 00 00 00 00 00 00 00 00 ................
00406760 00 00 00 00 00 00 00 00 00 00 00 00 00 00 00 00 ................
00406770 00 00 00 00 00 00 00 00 00 00 00 00 00 00 00 00 ................
00406780 00 00 00 00 00 00 00 00 00 00 00 00 00 00 00 00 ................
00406790 00 00 00 00 00 00 00 00 00 00 00 00 00 00 00 00 ................
004067A0 00 00 00 00 00 00 00 00 00 00 00 00 00 00 00 00 ................
004067B0 00 00 00 00 00 00 00 00 00 00 00 00 00 00 00 00 ................
004067C0 00 00 00 00 00 00 00 00 00 00 00 00 00 00 00 00 ................
004067D0 00 00 00 00 00 00 00 00 00 00 00 00 00 00 00 00 ................
004067E0 00 00 00 00 00 00 00 00 00 00 00 00 00 00 00 00 ................
004067F0 00 00 00 00 00 00 00 00 00 00 00 00 00 00 00 00 ................
00406800 00 00 00 00 00 00 00 00 00 00 00 00 00 00 00 00 ................
00406810 00 00 00 00 00 00 00 00 00 00 00 00 00 00 00 00 ................
00406820 00 00 00 00 00 00 00 00 00 00 00 00 00 00 00 00 ................
00406830 00 00 00 00 00 00 00 00 00 00 00 00 00 00 00 00 ................
00406840 00 00 00 00 00 00 00 00 00 00 00 00 00 00 00 00 ................
00406850 00 00 00 00 00 00 00 00 00 00 00 00 00 00 00 00 ................
00406860 00 00 00 00 00 00 00 00 00 00 00 00 00 00 00 00 ................
00406870 00 00 00 00 00 00 00 00 00 00 00 00 00 00 00 00 ................
00406880 00 00 00 00 00 00 00 00 00 00 00 00 00 00 00 00 ................
00406890 00 00 00 00 00 00 00 00 00 00 00 00 00 00 00 00 ................
004068A0 00 00 00 00 00 00 00 00 00 00 00 00 00 00 00 00 ................
004068B0 00 00 00 00 00 00 00 00 00 00 00 00 00 00 00 00 ................
004068C0 00 00 00 00 00 00 00 00 00 00 00 00 00 00 00 00 ................
004068D0 00 00 00 00 00 00 00 00 00 00 00 00 00 00 00 00 ................
004068E0 00 00 00 00 00 00 00 00 00 00 00 00 00 00 00 00 ................
004068F0 00 00 00 00 00 00 00 00 00 00 00 00 00 00 00 00 ................
00406900 00 00 00 00 00 00 00 00 00 00 00 00 00 00 00 00 ................
00406910 00 00 00 00 00 00 00 00 00 00 00 00 00 00 00 00 ................
00406920 00 00 00 00 00 00 00 00 00 00 00 00 00 00 00 00 ................
00406930 00 00 00 00 00 00 00 00 00 00 00 00 00 00 00 00 ................
00406940 00 00 00 00 00 00 00 00 00 00 00 00 00 00 00 00 ................
00406950 00 00 00 00 00 00 00 00 00 00 00 00 00 00 00 00 ................
00406960 00 00 00 00 00 00 00 00 00 00 00 00 00 00 00 00 ................
00406970 00 00 00 00 00 00 00 00 00 00 00 00 00 00 00 00 ................
00406980 00 00 00 00 00 00 00 00 00 00 00 00 00 00 00 00 ................
00406990 00 00 00 00 00 00 00 00 00 00 00 00 00 00 00 00 ................
004069A0 00 00 00 00 00 00 00 00 00 00 00 00 00 00 00 00 ................
004069B0 00 00 00 00 00 00 00 00 00 00 00 00 00 00 00 00 ................
004069C0 00 00 00 00 00 00 00 00 00 00 00 00 00 00 00 00 ................
004069D0 00 00 00 00 00 00 00 00 00 00 00 00 00 00 00 00 ................
004069E0 00 00 00 00 00 00 00 00 00 00 00 00 00 00 00 00 ................
004069F0 00 00 00 00 00 00 00 00 00 00 00 00 00 00 00 00 ................
00406A00 00 00 00 00 00 00 00 00 00 00 00 00 00 00 00 00 ................
00406A10 00 00 00 00 00 00 00 00 00 00 00 00 00 00 00 00 ................
00406A20 00 00 00 00 00 00 00 00 00 00 00 00 00 00 00 00 ................
00406A30 00 00 00 00 00 00 00 00 00 00 00 00 00 00 00 00 ................
00406A40 00 00 00 00 00 00 00 00 00 00 00 00 00 00 00 00 ................
00406A50 00 00 00 00 00 00 00 00 00 00 00 00 00 00 00 00 ................
00406A60 00 00 00 00 00 00 00 00 00 00 00 00 00 00 00 00 ................
00406A70 00 00 00 00 00 00 00 00 00 00 00 00 00 00 00 00 ................
00406A80 00 00 00 00 00 00 00 00 00 00 00 00 00 00 00 00 ................
00406A90 00 00 00 00 00 00 00 00 00 00 00 00 00 00 00 00 ................
00406AA0 00 00 00 00 00 00 00 00 00 00 00 00 00 00 00 00 ................
00406AB0 00 00 00 00 00 00 00 00 00 00 00 00 00 00 00 00 ................
00406AC0 00 00 00 00 00 00 00 00 00 00 00 00 00 00 00 00 ................
00406AD0 00 00 00 00 00 00 00 00 00 00 00 00 00 00 00 00 ................
00406AE0 00 00 00 00 00 00 00 00 00 00 00 00 00 00 00 00 ................
00406AF0 00 00 00 00 00 00 00 00 00 00 00 00 00 00 00 00 ................
00406B00 00 00 00 00 00 00 00 00 00 00 00 00 00 00 00 00 ................
00406B10 00 00 00 00 00 00 00 00 00 00 00 00 00 00 00 00 ................
00406B20 00 00 00 00 00 00 00 00 00 00 00 00 00 00 00 00 ................
00406B30 00 00 00 00 00 00 00 00 00 00 00 00 00 00 00 00 ................
00406B40 00 00 00 00 00 00 00 00 00 00 00 00 00 00 00 00 ................
00406B50 00 00 00 00 00 00 00 00 00 00 00 00 00 00 00 00 ................
00406B60 00 00 00 00 00 00 00 00 00 00 00 00 00 00 00 00 ................
00406B70 00 00 00 00 00 00 00 00 00 00 00 00 00 00 00 00 ................
00406B80 00 00 00 00 00 00 00 00 00 00 00 00 00 00 00 00 ................
00406B90 00 00 00 00 00 00 00 00 00 00 00 00 00 00 00 00 ................
00406BA0 00 00 00 00 00 00 00 00 00 00 00 00 00 00 00 00 ................
00406BB0 00 00 00 00 00 00 00 00 00 00 00 00 00 00 00 00 ................
00406BC0 00 00 00 00 00 00 00 00 00 00 00 00 00 00 00 00 ................
00406BD0 00 00 00 00 00 00 00 00 00 00 00 00 00 00 00 00 ................
00406BE0 00 00 00 00 00 00 00 00 00 00 00 00 00 00 00 00 ................
00406BF0 00 00 00 00 00 00 00 00 00 00 00 00 00 00 00 00 ................
00406C00 00 00 00 00 00 00 00 00 00 00 00 00 00 00 00 00 ................
00406C10 00 00 00 00 00 00 00 00 00 00 00 00 00 00 00 00 ................
00406C20 00 00 00 00 00 00 00 00 00 00 00 00 00 00 00 00 ................
00406C30 00 00 00 00 00 00 00 00 00 00 00 00 00 00 00 00 ................
00406C40 00 00 00 00 00 00 00 00 00 00 00 00 00 00 00 00 ................
00406C50 00 00 00 00 00 00 00 00 00 00 00 00 00 00 00 00 ................
00406C60 00 00 00 00 00 00 00 00 00 00 00 00 00 00 00 00 ................
00406C70 00 00 00 00 00 00 00 00 00 00 00 00 00 00 00 00 ................
00406C80 00 00 00 00 00 00 00 00 00 00 00 00 00 00 00 00 ................
00406C90 00 00 00 00 00 00 00 00 00 00 00 00 00 00 00 00 ................
00406CA0 00 00 00 00 00 00 00 00 00 00 00 00 00 00 00 00 ................
00406CB0 00 00 00 00 00 00 00 00 00 00 00 00 00 00 00 00 ................
00406CC0 00 00 00 00 00 00 00 00 00 00 00 00 00 00 00 00 ................
00406CD0 00 00 00 00 00 00 00 00 00 00 00 00 00 00 00 00 ................
00406CE0 00 00 00 00 00 00 00 00 00 00 00 00 00 00 00 00 ................
00406CF0 00 00 00 00 00 00 00 00 00 00 00 00 00 00 00 00 ................
00406D00 00 00 00 00 00 00 00 00 00 00 00 00 00 00 00 00 ................
00406D10 00 00 00 00 00 00 00 00 00 00 00 00 00 00 00 00 ................
00406D20 00 00 00 00 00 00 00 00 00 00 00 00 00 00 00 00 ................
00406D30 00 00 00 00 00 00 00 00 00 00 00 00 00 00 00 00 ................
00406D40 00 00 00 00 00 00 00 00 00 00 00 00 00 00 00 00 ................
00406D50 00 00 00 00 00 00 00 00 00 00 00 00 00 00 00 00 ................
00406D60 00 00 00 00 00 00 00 00 00 00 00 00 00 00 00 00 ................
00406D70 00 00 00 00 00 00 00 00 00 00 00 00 00 00 00 00 ................
00406D80 00 00 00 00 00 00 00 00 00 00 00 00 00 00 00 00 ................
00406D90 00 00 00 00 00 00 00 00 00 00 00 00 00 00 00 00 ................
00406DA0 00 00 00 00 00 00 00 00 00 00 00 00 00 00 00 00 ................
00406DB0 00 00 00 00 00 00 00 00 00 00 00 00 00 00 00 00 ................
00406DC0 00 00 00 00 00 00 00 00 00 00 00 00 00 00 00 00 ................
00406DD0 00 00 00 00 00 00 00 00 00 00 00 00 00 00 00 00 ................
00406DE0 00 00 00 00 00 00 00 00 00 00 00 00 00 00 00 00 ................
00406DF0 00 00 00 00 00 00 00 00 00 00 00 00 00 00 00 00 ................
00406E00 00 00 00 00 00 00 00 00 00 00 00 00 00 00 00 00 ................
00406E10 00 00 00 00 00 00 00 00 00 00 00 00 00 00 00 00 ................
00406E20 00 00 00 00 00 00 00 00 00 00 00 00 00 00 00 00 ................
00406E30 00 00 00 00 00 00 00 00 00 00 00 00 00 00 00 00 ................
00406E40 00 00 00 00 00 00 00 00 00 00 00 00 00 00 00 00 ................
00406E50 00 00 00 00 00 00 00 00 00 00 00 00 00 00 00 00 ................
00406E60 00 00 00 00 00 00 00 00 00 00 00 00 00 00 00 00 ................
00406E70 00 00 00 00 00 00 00 00 00 00 00 00 00 00 00 00 ................
00406E80 00 00 00 00 00 00 00 00 00 00 00 00 00 00 00 00 ................
00406E90 00 00 00 00 00 00 00 00 00 00 00 00 00 00 00 00 ................
00406EA0 00 00 00 00 00 00 00 00 00 00 00 00 00 00 00 00 ................
00406EB0 00 00 00 00 00 00 00 00 00 00 00 00 00 00 00 00 ................
00406EC0 00 00 00 00 00 00 00 00 00 00 00 00 00 00 00 00 ................
00406ED0 00 00 00 00 00 00 00 00 00 00 00 00 00 00 00 00 ................
00406EE0 00 00 00 00 00 00 00 00 00 00 00 00 00 00 00 00 ................
00406EF0 00 00 00 00 00 00 00 00 00 00 00 00 00 00 00 00 ................
00406F00 00 00 00 00 00 00 00 00 00 00 00 00 00 00 00 00 ................
00406F10 00 00 00 00 00 00 00 00 00 00 00 00 00 00 00 00 ................
00406F20 00 00 00 00 00 00 00 00 00 00 00 00 00 00 00 00 ................
00406F30 00 00 00 00 00 00 00 00 00 00 00 00 00 00 00 00 ................
00406F40 00 00 00 00 00 00 00 00 00 00 00 00 00 00 00 00 ................
00406F50 00 00 00 00 00 00 00 00 00 00 00 00 00 00 00 00 ................
00406F60 00 00 00 00 00 00 00 00 00 00 00 00 00 00 00 00 ................
00406F70 00 00 00 00 00 00 00 00 00 00 00 00 00 00 00 00 ................
00406F80 00 00 00 00 00 00 00 00 00 00 00 00 00 00 00 00 ................
00406F90 00 00 00 00 00 00 00 00 00 00 00 00 00 00 00 00 ................
00406FA0 00 00 00 00 00 00 00 00 00 00 00 00 00 00 00 00 ................
00406FB0 00 00 00 00 00 00 00 00 00 00 00 00 00 00 00 00 ................
00406FC0 00 00 00 00 00 00 00 00 00 00 00 00 00 00 00 00 ................
00406FD0 00 00 00 00 00 00 00 00 00 00 00 00 00 00 00 00 ................
00406FE0 00 00 00 00 00 00 00 00 00 00 00 00 00 00 00 00 ................
00406FF0 00 00 00 00 00 00 00 00 00 00 00 00 00 00 00 00 ................
00407000 00 00 00 00 00 00 00 00 00 00 00 00 00 00 00 00 ................
00407010 00 00 00 00 00 00 00 00 00 00 00 00 00 00 00 00 ................
00407020 00 00 00 00 00 00 00 00 00 00 00 00 00 00 00 00 ................
00407030 00 00 00 00 00 00 00 00 00 00 00 00 00 00 00 00 ................
00407040 00 00 00 00 00 00 00 00 00 00 00 00 00 00 00 00 ................
00407050 00 00 00 00 00 00 00 00 00 00 00 00 00 00 00 00 ................
00407060 00 00 00 00 00 00 00 00 00 00 00 00 00 00 00 00 ................
00407070 00 00 00 00 00 00 00 00 00 00 00 00 00 00 00 00 ................
00407080 00 00 00 00 00 00 00 00 00 00 00 00 00 00 00 00 ................
00407090 00 00 00 00 00 00 00 00 00 00 00 00 00 00 00 00 ................
004070A0 00 00 00 00 00 00 00 00 00 00 00 00 00 00 00 00 ................
004070B0 00 00 00 00 00 00 00 00 00 00 00 00 00 00 00 00 ................
004070C0 00 00 00 00 00 00 00 00 00 00 00 00 00 00 00 00 ................
004070D0 00 00 00 00 00 00 00 00 00 00 00 00 00 00 00 00 ................
004070E0 00 00 00 00 00 00 00 00 00 00 00 00 00 00 00 00 ................
004070F0 00 00 00 00 00 00 00 00 00 00 00 00 00 00 00 00 ................
00407100 00 00 00 00 00 00 00 00 00 00 00 00 00 00 00 00 ................
00407110 00 00 00 00 00 00 00 00 00 00 00 00 00 00 00 00 ................
00407120 00 00 00 00 00 00 00 00 00 00 00 00 00 00 00 00 ................
00407130 00 00 00 00 00 00 00 00 00 00 00 00 00 00 00 00 ................
00407140 00 00 00 00 00 00 00 00 00 00 00 00 00 00 00 00 ................
00407150 00 00 00 00 00 00 00 00 00 00 00 00 00 00 00 00 ................
00407160 00 00 00 00 00 00 00 00 00 00 00 00 00 00 00 00 ................
00407170 00 00 00 00 00 00 00 00 00 00 00 00 00 00 00 00 ................
00407180 00 00 00 00 00 00 00 00 00 00 00 00 00 00 00 00 ................
00407190 00 00 00 00 00 00 00 00 00 00 00 00 00 00 00 00 ................
004071A0 00 00 00 00 00 00 00 00 00 00 00 00 00 00 00 00 ................
004071B0 00 00 00 00 00 00 00 00 00 00 00 00 00 00 00 00 ................
004071C0 00 00 00 00 00 00 00 00 00 00 00 00 00 00 00 00 ................
004071D0 00 00 00 00 00 00 00 00 00 00 00 00 00 00 00 00 ................
004071E0 00 00 00 00 00 00 00 00 00 00 00 00 00 00 00 00 ................
004071F0 00 00 00 00 00 00 00 00 00 00 00 00 00 00 00 00 ................
00407200 00 00 00 00 00 00 00 00 00 00 00 00 00 00 00 00 ................
00407210 00 00 00 00 00 00 00 00 00 00 00 00 00 00 00 00 ................
00407220 00 00 00 00 00 00 00 00 00 00 00 00 00 00 00 00 ................
00407230 00 00 00 00 00 00 00 00 00 00 00 00 00 00 00 00 ................
00407240 00 00 00 00 00 00 00 00 00 00 00 00 00 00 00 00 ................
00407250 00 00 00 00 00 00 00 00 00 00 00 00 00 00 00 00 ................
00407260 00 00 00 00 00 00 00 00 00 00 00 00 00 00 00 00 ................
00407270 00 00 00 00 00 00 00 00 00 00 00 00 00 00 00 00 ................
00407280 00 00 00 00 00 00 00 00 00 00 00 00 00 00 00 00 ................
00407290 00 00 00 00 00 00 00 00 00 00 00 00 00 00 00 00 ................
004072A0 00 00 00 00 00 00 00 00 00 00 00 00 00 00 00 00 ................
004072B0 00 00 00 00 00 00 00 00 00 00 00 00 00 00 00 00 ................
004072C0 00 00 00 00 00 00 00 00 00 00 00 00 00 00 00 00 ................
004072D0 00 00 00 00 00 00 00 00 00 00 00 00 00 00 00 00 ................
004072E0 00 00 00 00 00 00 00 00 00 00 00 00 00 00 00 00 ................
004072F0 00 00 00 00 00 00 00 00 00 00 00 00 00 00 00 00 ................
00407300 00 00 00 00 00 00 00 00 00 00 00 00 00 00 00 00 ................
00407310 00 00 00 00 00 00 00 00 00 00 00 00 00 00 00 00 ................
00407320 00 00 00 00 00 00 00 00 00 00 00 00 00 00 00 00 ................
00407330 00 00 00 00 00 00 00 00 00 00 00 00 00 00 00 00 ................
00407340 00 00 00 00 00 00 00 00 00 00 00 00 00 00 00 00 ................
00407350 00 00 00 00 00 00 00 00 00 00 00 00 00 00 00 00 ................
00407360 00 00 00 00 00 00 00 00 00 00 00 00 00 00 00 00 ................
00407370 00 00 00 00 00 00 00 00 00 00 00 00 00 00 00 00 ................
00407380 00 00 00 00 00 00 00 00 00 00 00 00 00 00 00 00 ................
00407390 00 00 00 00 00 00 00 00 00 00 00 00 00 00 00 00 ................
004073A0 00 00 00 00 00 00 00 00 00 00 00 00 00 00 00 00 ................
004073B0 00 00 00 00 00 00 00 00 00 00 00 00 00 00 00 00 ................
004073C0 00 00 00 00 00 00 00 00 00 00 00 00 00 00 00 00 ................
004073D0 00 00 00 00 00 00 00 00 00 00 00 00 00 00 00 00 ................
004073E0 00 00 00 00 00 00 00 00 00 00 00 00 00 00 00 00 ................
004073F0 00 00 00 00 00 00 00 00 00 00 00 00 00 00 00 00 ................
00407400 00 00 00 00 00 00 00 00 00 00 00 00 00 00 00 00 ................
00407410 00 00 00 00 00 00 00 00 00 00 00 00 00 00 00 00 ................
00407420 00 00 00 00 00 00 00 00 00 00 00 00 00 00 00 00 ................
00407430 00 00 00 00 00 00 00 00 00 00 00 00 00 00 00 00 ................
00407440 00 00 00 00 00 00 00 00 00 00 00 00 00 00 00 00 ................
00407450 00 00 00 00 00 00 00 00 00 00 00 00 00 00 00 00 ................
00407460 00 00 00 00 00 00 00 00 00 00 00 00 00 00 00 00 ................
00407470 00 00 00 00 00 00 00 00 00 00 00 00 00 00 00 00 ................
00407480 00 00 00 00 00 00 00 00 00 00 00 00 00 00 00 00 ................
00407490 00 00 00 00 00 00 00 00 00 00 00 00 00 00 00 00 ................
004074A0 00 00 00 00 00 00 00 00 00 00 00 00 00 00 00 00 ................
004074B0 00 00 00 00 00 00 00 00 00 00 00 00 00 00 00 00 ................
004074C0 00 00 00 00 00 00 00 00 00 00 00 00 00 00 00 00 ................
004074D0 00 00 00 00 00 00 00 00 00 00 00 00 00 00 00 00 ................
004074E0 00 00 00 00 00 00 00 00 00 00 00 00 00 00 00 00 ................
004074F0 00 00 00 00 00 00 00 00 00 00 00 00 00 00 00 00 ................
00407500 00 00 00 00 00 00 00 00 00 00 00 00 00 00 00 00 ................
00407510 00 00 00 00 00 00 00 00 00 00 00 00 00 00 00 00 ................
00407520 00 00 00 00 00 00 00 00 00 00 00 00 00 00 00 00 ................
00407530 00 00 00 00 00 00 00 00 00 00 00 00 00 00 00 00 ................
00407540 00 00 00 00 00 00 00 00 00 00 00 00 00 00 00 00 ................
00407550 00 00 00 00 00 00 00 00 00 00 00 00 00 00 00 00 ................
00407560 00 00 00 00 00 00 00 00 00 00 00 00 00 00 00 00 ................
00407570 00 00 00 00 00 00 00 00 00 00 00 00 00 00 00 00 ................
00407580 00 00 00 00 00 00 00 00 00 00 00 00 00 00 00 00 ................
00407590 00 00 00 00 00 00 00 00 00 00 00 00 00 00 00 00 ................
004075A0 00 00 00 00 00 00 00 00 00 00 00 00 00 00 00 00 ................
004075B0 00 00 00 00 00 00 00 00 00 00 00 00 00 00 00 00 ................
004075C0 00 00 00 00 00 00 00 00 00 00 00 00 00 00 00 00 ................
004075D0 00 00 00 00 00 00 00 00 00 00 00 00 00 00 00 00 ................
004075E0 00 00 00 00 00 00 00 00 00 00 00 00 00 00 00 00 ................
004075F0 00 00 00 00 00 00 00 00 00 00 00 00 00 00 00 00 ................
00407600 00 00 00 00 00 00 00 00 00 00 00 00 00 00 00 00 ................
00407610 00 00 00 00 00 00 00 00 00 00 00 00 00 00 00 00 ................
00407620 00 00 00 00 00 00 00 00 00 00 00 00 00 00 00 00 ................
00407630 00 00 00 00 00 00 00 00 00 00 00 00 00 00 00 00 ................
00407640 00 00 00 00 00 00 00 00 00 00 00 00 00 00 00 00 ................
00407650 00 00 00 00 00 00 00 00 00 00 00 00 00 00 00 00 ................
00407660 00 00 00 00 00 00 00 00 00 00 00 00 00 00 00 00 ................
00407670 00 00 00 00 00 00 00 00 00 00 00 00 00 00 00 00 ................
00407680 00 00 00 00 00 00 00 00 00 00 00 00 00 00 00 00 ................
00407690 00 00 00 00 00 00 00 00 00 00 00 00 00 00 00 00 ................
004076A0 00 00 00 00 00 00 00 00 00 00 00 00 00 00 00 00 ................
004076B0 00 00 00 00 00 00 00 00 00 00 00 00 00 00 00 00 ................
004076C0 00 00 00 00 00 00 00 00 00 00 00 00 00 00 00 00 ................
004076D0 00 00 00 00 00 00 00 00 00 00 00 00 00 00 00 00 ................
004076E0 00 00 00 00 00 00 00 00 00 00 00 00 00 00 00 00 ................
004076F0 00 00 00 00 00 00 00 00 00 00 00 00 00 00 00 00 ................
00407700 00 00 00 00 00 00 00 00 00 00 00 00 00 00 00 00 ................
00407710 00 00 00 00 00 00 00 00 00 00 00 00 00 00 00 00 ................
00407720 00 00 00 00 00 00 00 00 00 00 00 00 00 00 00 00 ................
00407730 00 00 00 00 00 00 00 00 00 00 00 00 00 00 00 00 ................
00407740 00 00 00 00 00 00 00 00 00 00 00 00 00 00 00 00 ................
00407750 00 00 00 00 00 00 00 00 00 00 00 00 00 00 00 00 ................
00407760 00 00 00 00 00 00 00 00 00 00 00 00 00 00 00 00 ................
00407770 00 00 00 00 00 00 00 00 00 00 00 00 00 00 00 00 ................
00407780 00 00 00 00 00 00 00 00 00 00 00 00 00 00 00 00 ................
00407790 00 00 00 00 00 00 00 00 00 00 00 00 00 00 00 00 ................
004077A0 00 00 00 00 00 00 00 00 00 00 00 00 00 00 00 00 ................
004077B0 00 00 00 00 00 00 00 00 00 00 00 00 00 00 00 00 ................
004077C0 00 00 00 00 00 00 00 00 00 00 00 00 00 00 00 00 ................
004077D0 00 00 00 00 00 00 00 00 00 00 00 00 00 00 00 00 ................
004077E0 00 00 00 00 00 00 00 00 00 00 00 00 00 00 00 00 ................
004077F0 00 00 00 00 00 00 00 00 00 00 00 00 00 00 00 00 ................
00407800 00 00 00 00 00 00 00 00 00 00 00 00 00 00 00 00 ................
00407810 00 00 00 00 00 00 00 00 00 00 00 00 00 00 00 00 ................
00407820 00 00 00 00 00 00 00 00 00 00 00 00 00 00 00 00 ................
00407830 00 00 00 00 00 00 00 00 00 00 00 00 00 00 00 00 ................
00407840 00 00 00 00 00 00 00 00 00 00 00 00 00 00 00 00 ................
00407850 00 00 00 00 00 00 00 00 00 00 00 00 00 00 00 00 ................
00407860 00 00 00 00 00 00 00 00 00 00 00 00 00 00 00 00 ................
00407870 00 00 00 00 00 00 00 00 00 00 00 00 00 00 00 00 ................
00407880 00 00 00 00 00 00 00 00 00 00 00 00 00 00 00 00 ................
00407890 00 00 00 00 00 00 00 00 00 00 00 00 00 00 00 00 ................
004078A0 00 00 00 00 00 00 00 00 00 00 00 00 00 00 00 00 ................
004078B0 00 00 00 00 00 00 00 00 00 00 00 00 00 00 00 00 ................
004078C0 00 00 00 00 00 00 00 00 00 00 00 00 00 00 00 00 ................
004078D0 00 00 00 00 00 00 00 00 00 00 00 00 00 00 00 00 ................
004078E0 00 00 00 00 00 00 00 00 00 00 00 00 00 00 00 00 ................
004078F0 00 00 00 00 00 00 00 00 00 00 00 00 00 00 00 00 ................
00407900 00 00 00 00 00 00 00 00 00 00 00 00 00 00 00 00 ................
00407910 00 00 00 00 00 00 00 00 00 00 00 00 00 00 00 00 ................
00407920 00 00 00 00 00 00 00 00 00 00 00 00 00 00 00 00 ................
00407930 00 00 00 00 00 00 00 00 00 00 00 00 00 00 00 00 ................
00407940 00 00 00 00 00 00 00 00 00 00 00 00 00 00 00 00 ................
00407950 00 00 00 00 00 00 00 00 00 00 00 00 00 00 00 00 ................
00407960 00 00 00 00 00 00 00 00 00 00 00 00 00 00 00 00 ................
00407970 00 00 00 00 00 00 00 00 00 00 00 00 00 00 00 00 ................
00407980 00 00 00 00 00 00 00 00 00 00 00 00 00 00 00 00 ................
00407990 00 00 00 00 00 00 00 00 00 00 00 00 00 00 00 00 ................
004079A0 00 00 00 00 00 00 00 00 00 00 00 00 00 00 00 00 ................
004079B0 00 00 00 00 00 00 00 00 00 00 00 00 00 00 00 00 ................
004079C0 00 00 00 00 00 00 00 00 00 00 00 00 00 00 00 00 ................
004079D0 00 00 00 00 00 00 00 00 00 00 00 00 00 00 00 00 ................
004079E0 00 00 00 00 00 00 00 00 00 00 00 00 00 00 00 00 ................
004079F0 00 00 00 00 00 00 00 00 00 00 00 00 00 00 00 00 ................
00407A00 00 00 00 00 00 00 00 00 00 00 00 00 00 00 00 00 ................
00407A10 00 00 00 00 00 00 00 00 00 00 00 00 00 00 00 00 ................
00407A20 00 00 00 00 00 00 00 00 00 00 00 00 00 00 00 00 ................
00407A30 00 00 00 00 00 00 00 00 00 00 00 00 00 00 00 00 ................
00407A40 00 00 00 00 00 00 00 00 00 00 00 00 00 00 00 00 ................
00407A50 00 00 00 00 00 00 00 00 00 00 00 00 00 00 00 00 ................
00407A60 00 00 00 00 00 00 00 00 00 00 00 00 00 00 00 00 ................
00407A70 00 00 00 00 00 00 00 00 00 00 00 00 00 00 00 00 ................
00407A80 00 00 00 00 00 00 00 00 00 00 00 00 00 00 00 00 ................
00407A90 00 00 00 00 00 00 00 00 00 00 00 00 00 00 00 00 ................
00407AA0 00 00 00 00 00 00 00 00 00 00 00 00 00 00 00 00 ................
00407AB0 00 00 00 00 00 00 00 00 00 00 00 00 00 00 00 00 ................
00407AC0 00 00 00 00 00 00 00 00 00 00 00 00 00 00 00 00 ................
00407AD0 00 00 00 00 00 00 00 00 00 00 00 00 00 00 00 00 ................
00407AE0 00 00 00 00 00 00 00 00 00 00 00 00 00 00 00 00 ................
00407AF0 00 00 00 00 00 00 00 00 00 00 00 00 00 00 00 00 ................
00407B00 00 00 00 00 00 00 00 00 00 00 00 00 00 00 00 00 ................
00407B10 00 00 00 00 00 00 00 00 00 00 00 00 00 00 00 00 ................
00407B20 00 00 00 00 00 00 00 00 00 00 00 00 00 00 00 00 ................
00407B30 00 00 00 00 00 00 00 00 00 00 00 00 00 00 00 00 ................
00407B40 00 00 00 00 00 00 00 00 00 00 00 00 00 00 00 00 ................
00407B50 00 00 00 00 00 00 00 00 00 00 00 00 00 00 00 00 ................
00407B60 00 00 00 00 00 00 00 00 00 00 00 00 00 00 00 00 ................
00407B70 00 00 00 00 00 00 00 00 00 00 00 00 00 00 00 00 ................
00407B80 00 00 00 00 00 00 00 00 00 00 00 00 00 00 00 00 ................
00407B90 00 00 00 00 00 00 00 00 00 00 00 00 00 00 00 00 ................
00407BA0 00 00 00 00 00 00 00 00 00 00 00 00 00 00 00 00 ................
00407BB0 00 00 00 00 00 00 00 00 00 00 00 00 00 00 00 00 ................
00407BC0 00 00 00 00 00 00 00 00 00 00 00 00 00 00 00 00 ................
00407BD0 00 00 00 00 00 00 00 00 00 00 00 00 00 00 00 00 ................
00407BE0 00 00 00 00 00 00 00 00 00 00 00 00 00 00 00 00 ................
00407BF0 00 00 00 00 00 00 00 00 00 00 00 00 00 00 00 00 ................
00407C00 00 00 00 00 00 00 00 00 00 00 00 00 00 00 00 00 ................
00407C10 00 00 00 00 00 00 00 00 00 00 00 00 00 00 00 00 ................
00407C20 00 00 00 00 00 00 00 00 00 00 00 00 00 00 00 00 ................
00407C30 00 00 00 00 00 00 00 00 00 00 00 00 00 00 00 00 ................
00407C40 00 00 00 00 00 00 00 00 00 00 00 00 00 00 00 00 ................
00407C50 00 00 00 00 00 00 00 00 00 00 00 00 00 00 00 00 ................
00407C60 00 00 00 00 00 00 00 00 00 00 00 00 00 00 00 00 ................
00407C70 00 00 00 00 00 00 00 00 00 00 00 00 00 00 00 00 ................
00407C80 00 00 00 00 00 00 00 00 00 00 00 00 00 00 00 00 ................
00407C90 00 00 00 00 00 00 00 00 00 00 00 00 00 00 00 00 ................
00407CA0 00 00 00 00 00 00 00 00 00 00 00 00 00 00 00 00 ................
00407CB0 00 00 00 00 00 00 00 00 00 00 00 00 00 00 00 00 ................
00407CC0 00 00 00 00 00 00 00 00 00 00 00 00 00 00 00 00 ................
00407CD0 00 00 00 00 00 00 00 00 00 00 00 00 00 00 00 00 ................
00407CE0 00 00 00 00 00 00 00 00 00 00 00 00 00 00 00 00 ................
00407CF0 00 00 00 00 00 00 00 00 00 00 00 00 00 00 00 00 ................
00407D00 00 00 00 00 00 00 00 00 00 00 00 00 00 00 00 00 ................
00407D10 00 00 00 00 00 00 00 00 00 00 00 00 00 00 00 00 ................
00407D20 00 00 00 00 00 00 00 00 00 00 00 00 00 00 00 00 ................
00407D30 00 00 00 00 00 00 00 00 00 00 00 00 00 00 00 00 ................
00407D40 00 00 00 00 00 00 00 00 00 00 00 00 00 00 00 00 ................
00407D50 00 00 00 00 00 00 00 00 00 00 00 00 00 00 00 00 ................
00407D60 00 00 00 00 00 00 00 00 00 00 00 00 00 00 00 00 ................
00407D70 00 00 00 00 00 00 00 00 00 00 00 00 00 00 00 00 ................
00407D80 00 00 00 00 00 00 00 00 00 00 00 00 00 00 00 00 ................
00407D90 00 00 00 00 00 00 00 00 00 00 00 00 00 00 00 00 ................
00407DA0 00 00 00 00 00 00 00 00 00 00 00 00 00 00 00 00 ................
00407DB0 00 00 00 00 00 00 00 00 00 00 00 00 00 00 00 00 ................
00407DC0 00 00 00 00 00 00 00 00 00 00 00 00 00 00 00 00 ................
00407DD0 00 00 00 00 00 00 00 00 00 00 00 00 00 00 00 00 ................
00407DE0 00 00 00 00 00 00 00 00 00 00 00 00 00 00 00 00 ................
00407DF0 00 00 00 00 00 00 00 00 00 00 00 00 00 00 00 00 ................
00407E00 00 00 00 00 00 00 00 00 00 00 00 00 00 00 00 00 ................
00407E10 00 00 00 00 00 00 00 00 00 00 00 00 00 00 00 00 ................
00407E20 00 00 00 00 00 00 00 00 00 00 00 00 00 00 00 00 ................
00407E30 00 00 00 00 00 00 00 00 00 00 00 00 00 00 00 00 ................
00407E40 00 00 00 00 00 00 00 00 00 00 00 00 00 00 00 00 ................
00407E50 00 00 00 00 00 00 00 00 00 00 00 00 00 00 00 00 ................
00407E60 00 00 00 00 00 00 00 00 00 00 00 00 00 00 00 00 ................
00407E70 00 00 00 00 00 00 00 00 00 00 00 00 00 00 00 00 ................
00407E80 00 00 00 00 00 00 00 00 00 00 00 00 00 00 00 00 ................
00407E90 00 00 00 00 00 00 00 00 00 00 00 00 00 00 00 00 ................
00407EA0 00 00 00 00 00 00 00 00 00 00 00 00 00 00 00 00 ................
00407EB0 00 00 00 00 00 00 00 00 00 00 00 00 00 00 00 00 ................
00407EC0 00 00 00 00 00 00 00 00 00 00 00 00 00 00 00 00 ................
00407ED0 00 00 00 00 00 00 00 00 00 00 00 00 00 00 00 00 ................
00407EE0 00 00 00 00 00 00 00 00 00 00 00 00 00 00 00 00 ................
00407EF0 00 00 00 00 00 00 00 00 00 00 00 00 00 00 00 00 ................
00407F00 00 00 00 00 00 00 00 00 00 00 00 00 00 00 00 00 ................
00407F10 00 00 00 00 00 00 00 00 00 00 00 00 00 00 00 00 ................
00407F20 00 00 00 00 00 00 00 00 00 00 00 00 00 00 00 00 ................
00407F30 00 00 00 00 00 00 00 00 00 00 00 00 00 00 00 00 ................
00407F40 00 00 00 00 00 00 00 00 00 00 00 00 00 00 00 00 ................
00407F50 00 00 00 00 00 00 00 00 00 00 00 00 00 00 00 00 ................
00407F60 00 00 00 00 00 00 00 00 00 00 00 00 00 00 00 00 ................
00407F70 00 00 00 00 00 00 00 00 00 00 00 00 00 00 00 00 ................
00407F80 00 00 00 00 00 00 00 00 00 00 00 00 00 00 00 00 ................
00407F90 00 00 00 00 00 00 00 00 00 00 00 00 00 00 00 00 ................
00407FA0 00 00 00 00 00 00 00 00 00 00 00 00 00 00 00 00 ................
00407FB0 00 00 00 00 00 00 00 00 00 00 00 00 00 00 00 00 ................
00407FC0 00 00 00 00 00 00 00 00 00 00 00 00 00 00 00 00 ................
00407FD0 00 00 00 00 00 00 00 00 00 00 00 00 00 00 00 00 ................
00407FE0 00 00 00 00 00 00 00 00 00 00 00 00 00 00 00 00 ................
00407FF0 00 00 00 00 00 00 00 00 00 00 00 00 00 00 00 00 ................
00408000 00 00 00 00 00 00 00 00 00 00 00 00 00 00 00 00 ................
00408010 00 00 00 00 00 00 00 00 00 00 00 00 00 00 00 00 ................
00408020 00 00 00 00 00 00 00 00 00 00 00 00 00 00 00 00 ................
00408030 00 00 00 00 00 00 00 00 00 00 00 00 00 00 00 00 ................
00408040 00 00 00 00 00 00 00 00 00 00 00 00 00 00 00 00 ................
00408050 00 00 00 00 00 00 00 00 00 00 00 00 00 00 00 00 ................
00408060 00 00 00 00 00 00 00 00 00 00 00 00 00 00 00 00 ................
00408070 00 00 00 00 00 00 00 00 00 00 00 00 00 00 00 00 ................
00408080 00 00 00 00 00 00 00 00 00 00 00 00 00 00 00 00 ................
00408090 00 00 00 00 00 00 00 00 00 00 00 00 00 00 00 00 ................
004080A0 00 00 00 00 00 00 00 00 00 00 00 00 00 00 00 00 ................
004080B0 00 00 00 00 00 00 00 00 00 00 00 00 00 00 00 00 ................
004080C0 00 00 00 00 00 00 00 00 00 00 00 00 00 00 00 00 ................
004080D0 00 00 00 00 00 00 00 00 00 00 00 00 00 00 00 00 ................
004080E0 00 00 00 00 00 00 00 00 00 00 00 00 00 00 00 00 ................
004080F0 00 00 00 00 00 00 00 00 00 00 00 00 00 00 00 00 ................
00408100 00 00 00 00 00 00 00 00 00 00 00 00 00 00 00 00 ................
00408110 00 00 00 00 00 00 00 00 00 00 00 00 00 00 00 00 ................
00408120 00 00 00 00 00 00 00 00 00 00 00 00 00 00 00 00 ................
00408130 00 00 00 00 00 00 00 00 00 00 00 00 00 00 00 00 ................
00408140 00 00 00 00 00 00 00 00 00 00 00 00 00 00 00 00 ................
00408150 00 00 00 00 00 00 00 00 00 00 00 00 00 00 00 00 ................
00408160 00 00 00 00 00 00 00 00 00 00 00 00 00 00 00 00 ................
00408170 00 00 00 00 00 00 00 00 00 00 00 00 00 00 00 00 ................
00408180 00 00 00 00 00 00 00 00 00 00 00 00 00 00 00 00 ................
00408190 00 00 00 00 00 00 00 00 00 00 00 00 00 00 00 00 ................
004081A0 00 00 00 00 00 00 00 00 00 00 00 00 00 00 00 00 ................
004081B0 00 00 00 00 00 00 00 00 00 00 00 00 00 00 00 00 ................
004081C0 00 00 00 00 00 00 00 00 00 00 00 00 00 00 00 00 ................
004081D0 00 00 00 00 00 00 00 00 00 00 00 00 00 00 00 00 ................
004081E0 00 00 00 00 00 00 00 00 00 00 00 00 00 00 00 00 ................
004081F0 00 00 00 00 00 00 00 00 00 00 00 00 00 00 00 00 ................
00408200 00 00 00 00 00 00 00 00 00 00 00 00 00 00 00 00 ................
00408210 00 00 00 00 00 00 00 00 00 00 00 00 00 00 00 00 ................
00408220 00 00 00 00 00 00 00 00 00 00 00 00 00 00 00 00 ................
00408230 00 00 00 00 00 00 00 00 00 00 00 00 00 00 00 00 ................
00408240 00 00 00 00 00 00 00 00 00 00 00 00 00 00 00 00 ................
00408250 00 00 00 00 00 00 00 00 00 00 00 00 00 00 00 00 ................
00408260 00 00 00 00 00 00 00 00 00 00 00 00 00 00 00 00 ................
00408270 00 00 00 00 00 00 00 00 00 00 00 00 00 00 00 00 ................
00408280 00 00 00 00 00 00 00 00 00 00 00 00 00 00 00 00 ................
00408290 00 00 00 00 00 00 00 00 00 00 00 00 00 00 00 00 ................
004082A0 00 00 00 00 00 00 00 00 00 00 00 00 00 00 00 00 ................
004082B0 00 00 00 00 00 00 00 00 00 00 00 00 00 00 00 00 ................
004082C0 00 00 00 00 00 00 00 00 00 00 00 00 00 00 00 00 ................
004082D0 00 00 00 00 00 00 00 00 00 00 00 00 00 00 00 00 ................
004082E0 00 00 00 00 00 00 00 00 00 00 00 00 00 00 00 00 ................
004082F0 00 00 00 00 00 00 00 00 00 00 00 00 00 00 00 00 ................
00408300 00 00 00 00 00 00 00 00 00 00 00 00 00 00 00 00 ................
00408310 00 00 00 00 00 00 00 00 00 00 00 00 00 00 00 00 ................
00408320 00 00 00 00 00 00 00 00 00 00 00 00 00 00 00 00 ................
00408330 00 00 00 00 00 00 00 00 00 00 00 00 00 00 00 00 ................
00408340 00 00 00 00 00 00 00 00 00 00 00 00 00 00 00 00 ................
00408350 00 00 00 00 00 00 00 00 00 00 00 00 00 00 00 00 ................
00408360 00 00 00 00 00 00 00 00 00 00 00 00 00 00 00 00 ................
00408370 00 00 00 00 00 00 00 00 00 00 00 00 00 00 00 00 ................
00408380 00 00 00 00 00 00 00 00 00 00 00 00 00 00 00 00 ................
00408390 00 00 00 00 00 00 00 00 00 00 00 00 00 00 00 00 ................
004083A0 00 00 00 00 00 00 00 00 00 00 00 00 00 00 00 00 ................
004083B0 00 00 00 00 00 00 00 00 00 00 00 00 00 00 00 00 ................
004083C0 00 00 00 00 00 00 00 00 00 00 00 00 00 00 00 00 ................
004083D0 00 00 00 00 00 00 00 00 00 00 00 00 00 00 00 00 ................
004083E0 00 00 00 00 00 00 00 00 00 00 00 00 00 00 00 00 ................
004083F0 00 00 00 00 00 00 00 00 00 00 00 00 00 00 00 00 ................
00408400 00 00 00 00 00 00 00 00 00 00 00 00 00 00 00 00 ................
00408410 00 00 00 00 00 00 00 00 00 00 00 00 00 00 00 00 ................
00408420 00 00 00 00 00 00 00 00 00 00 00 00 00 00 00 00 ................
00408430 00 00 00 00 00 00 00 00 00 00 00 00 00 00 00 00 ................
00408440 00 00 00 00 00 00 00 00 00 00 00 00 00 00 00 00 ................
00408450 00 00 00 00 00 00 00 00 00 00 00 00 00 00 00 00 ................
00408460 00 00 00 00 00 00 00 00 00 00 00 00 00 00 00 00 ................
00408470 00 00 00 00 00 00 00 00 00 00 00 00 00 00 00 00 ................
00408480 00 00 00 00 00 00 00 00 00 00 00 00 00 00 00 00 ................
00408490 00 00 00 00 00 00 00 00 00 00 00 00 00 00 00 00 ................
004084A0 00 00 00 00 00 00 00 00 00 00 00 00 00 00 00 00 ................
004084B0 00 00 00 00 00 00 00 00 00 00 00 00 00 00 00 00 ................
004084C0 00 00 00 00 00 00 00 00 00 00 00 00 00 00 00 00 ................
004084D0 00 00 00 00 00 00 00 00 00 00 00 00 00 00 00 00 ................
004084E0 00 00 00 00 00 00 00 00 00 00 00 00 00 00 00 00 ................
004084F0 00 00 00 00 00 00 00 00 00 00 00 00 00 00 00 00 ................
00408500 00 00 00 00 00 00 00 00 00 00 00 00 00 00 00 00 ................
00408510 00 00 00 00 00 00 00 00 00 00 00 00 00 00 00 00 ................
00408520 00 00 00 00 00 00 00 00 00 00 00 00 00 00 00 00 ................
00408530 00 00 00 00 00 00 00 00 00 00 00 00 00 00 00 00 ................
00408540 00 00 00 00 00 00 00 00 00 00 00 00 00 00 00 00 ................
00408550 00 00 00 00 00 00 00 00 00 00 00 00 00 00 00 00 ................
00408560 00 00 00 00 00 00 00 00 00 00 00 00 00 00 00 00 ................
00408570 00 00 00 00 00 00 00 00 00 00 00 00 00 00 00 00 ................
00408580 00 00 00 00 00 00 00 00 00 00 00 00 00 00 00 00 ................
00408590 00 00 00 00 00 00 00 00 00 00 00 00 00 00 00 00 ................
004085A0 00 00 00 00 00 00 00 00 00 00 00 00 00 00 00 00 ................
004085B0 00 00 00 00 00 00 00 00 00 00 00 00 00 00 00 00 ................
004085C0 00 00 00 00 00 00 00 00 00 00 00 00 00 00 00 00 ................
004085D0 00 00 00 00 00 00 00 00 00 00 00 00 00 00 00 00 ................
004085E0 00 00 00 00 00 00 00 00 00 00 00 00 00 00 00 00 ................
004085F0 00 00 00 00 00 00 00 00 00 00 00 00 00 00 00 00 ................
00408600 00 00 00 00 00 00 00 00 00 00 00 00 00 00 00 00 ................
00408610 00 00 00 00 00 00 00 00 00 00 00 00 00 00 00 00 ................
00408620 00 00 00 00 00 00 00 00 00 00 00 00 00 00 00 00 ................
00408630 00 00 00 00 00 00 00 00 00 00 00 00 00 00 00 00 ................
00408640 00 00 00 00 00 00 00 00 00 00 00 00 00 00 00 00 ................
00408650 00 00 00 00 00 00 00 00 00 00 00 00 00 00 00 00 ................
00408660 00 00 00 00 00 00 00 00 00 00 00 00 00 00 00 00 ................
00408670 00 00 00 00 00 00 00 00 00 00 00 00 00 00 00 00 ................
00408680 00 00 00 00 00 00 00 00 00 00 00 00 00 00 00 00 ................
00408690 00 00 00 00 00 00 00 00 00 00 00 00 00 00 00 00 ................
004086A0 00 00 00 00 00 00 00 00 00 00 00 00 00 00 00 00 ................
004086B0 00 00 00 00 00 00 00 00 00 00 00 00 00 00 00 00 ................
004086C0 00 00 00 00 00 00 00 00 00 00 00 00 00 00 00 00 ................
004086D0 00 00 00 00 00 00 00 00 00 00 00 00 00 00 00 00 ................
004086E0 00 00 00 00 00 00 00 00 00 00 00 00 00 00 00 00 ................
004086F0 00 00 00 00 00 00 00 00 00 00 00 00 00 00 00 00 ................
00408700 00 00 00 00 00 00 00 00 00 00 00 00 00 00 00 00 ................
00408710 00 00 00 00 00 00 00 00 00 00 00 00 00 00 00 00 ................
00408720 00 00 00 00 00 00 00 00 00 00 00 00 00 00 00 00 ................
00408730 00 00 00 00 00 00 00 00 00 00 00 00 00 00 00 00 ................
00408740 00 00 00 00 00 00 00 00 00 00 00 00 00 00 00 00 ................
00408750 00 00 00 00 00 00 00 00 00 00 00 00 00 00 00 00 ................
00408760 00 00 00 00 00 00 00 00 00 00 00 00 00 00 00 00 ................
00408770 00 00 00 00 00 00 00 00 00 00 00 00 00 00 00 00 ................
00408780 00 00 00 00 00 00 00 00 00 00 00 00 00 00 00 00 ................
00408790 00 00 00 00 00 00 00 00 00 00 00 00 00 00 00 00 ................
004087A0 00 00 00 00 00 00 00 00 00 00 00 00 00 00 00 00 ................
004087B0 00 00 00 00 00 00 00 00 00 00 00 00 00 00 00 00 ................
004087C0 00 00 00 00 00 00 00 00 00 00 00 00 00 00 00 00 ................
004087D0 00 00 00 00 00 00 00 00 00 00 00 00 00 00 00 00 ................
004087E0 00 00 00 00 00 00 00 00 00 00 00 00 00 00 00 00 ................
004087F0 00 00 00 00 00 00 00 00 00 00 00 00 00 00 00 00 ................
00408800 00 00 00 00 00 00 00 00 00 00 00 00 00 00 00 00 ................
00408810 00 00 00 00 00 00 00 00 00 00 00 00 00 00 00 00 ................
00408820 00 00 00 00 00 00 00 00 00 00 00 00 00 00 00 00 ................
00408830 00 00 00 00 00 00 00 00 00 00 00 00 00 00 00 00 ................
00408840 00 00 00 00 00 00 00 00 00 00 00 00 00 00 00 00 ................
00408850 00 00 00 00 00 00 00 00 00 00 00 00 00 00 00 00 ................
00408860 00 00 00 00 00 00 00 00 00 00 00 00 00 00 00 00 ................
00408870 00 00 00 00 00 00 00 00 00 00 00 00 00 00 00 00 ................
00408880 00 00 00 00 00 00 00 00 00 00 00 00 00 00 00 00 ................
00408890 00 00 00 00 00 00 00 00 00 00 00 00 00 00 00 00 ................
004088A0 00 00 00 00 00 00 00 00 00 00 00 00 00 00 00 00 ................
004088B0 00 00 00 00 00 00 00 00 00 00 00 00 00 00 00 00 ................
004088C0 00 00 00 00 00 00 00 00 00 00 00 00 00 00 00 00 ................
004088D0 00 00 00 00 00 00 00 00 00 00 00 00 00 00 00 00 ................
004088E0 00 00 00 00 00 00 00 00 00 00 00 00 00 00 00 00 ................
004088F0 00 00 00 00 00 00 00 00 00 00 00 00 00 00 00 00 ................
00408900 00 00 00 00 00 00 00 00 00 00 00 00 00 00 00 00 ................
00408910 00 00 00 00 00 00 00 00 00 00 00 00 00 00 00 00 ................
00408920 00 00 00 00 00 00 00 00 00 00 00 00 00 00 00 00 ................
00408930 00 00 00 00 00 00 00 00 00 00 00 00 00 00 00 00 ................
00408940 00 00 00 00 00 00 00 00 00 00 00 00 00 00 00 00 ................
00408950 00 00 00 00 00 00 00 00 00 00 00 00 00 00 00 00 ................
00408960 00 00 00 00 00 00 00 00 00 00 00 00 00 00 00 00 ................
00408970 00 00 00 00 00 00 00 00 00 00 00 00 00 00 00 00 ................
00408980 00 00 00 00 00 00 00 00 00 00 00 00 00 00 00 00 ................
00408990 00 00 00 00 00 00 00 00 00 00 00 00 00 00 00 00 ................
004089A0 00 00 00 00 00 00 00 00 00 00 00 00 00 00 00 00 ................
004089B0 00 00 00 00 00 00 00 00 00 00 00 00 00 00 00 00 ................
004089C0 00 00 00 00 00 00 00 00 00 00 00 00 00 00 00 00 ................
004089D0 00 00 00 00 00 00 00 00 00 00 00 00 00 00 00 00 ................
004089E0 00 00 00 00 00 00 00 00 00 00 00 00 00 00 00 00 ................
004089F0 00 00 00 00 00 00 00 00 00 00 00 00 00 00 00 00 ................
00408A00 00 00 00 00 00 00 00 00 00 00 00 00 00 00 00 00 ................
00408A10 00 00 00 00 00 00 00 00 00 00 00 00 00 00 00 00 ................
00408A20 00 00 00 00 00 00 00 00 00 00 00 00 00 00 00 00 ................
00408A30 00 00 00 00 00 00 00 00 00 00 00 00 00 00 00 00 ................
00408A40 00 00 00 00 00 00 00 00 00 00 00 00 00 00 00 00 ................
00408A50 00 00 00 00 00 00 00 00 00 00 00 00 00 00 00 00 ................
00408A60 00 00 00 00 00 00 00 00 00 00 00 00 00 00 00 00 ................
00408A70 00 00 00 00 00 00 00 00 00 00 00 00 00 00 00 00 ................
00408A80 00 00 00 00 00 00 00 00 00 00 00 00 00 00 00 00 ................
00408A90 00 00 00 00 00 00 00 00 00 00 00 00 00 00 00 00 ................
00408AA0 00 00 00 00 00 00 00 00 00 00 00 00 00 00 00 00 ................
00408AB0 00 00 00 00 00 00 00 00 00 00 00 00 00 00 00 00 ................
00408AC0 00 00 00 00 00 00 00 00 00 00 00 00 00 00 00 00 ................
00408AD0 00 00 00 00 00 00 00 00 00 00 00 00 00 00 00 00 ................
00408AE0 00 00 00 00 00 00 00 00 00 00 00 00 00 00 00 00 ................
00408AF0 00 00 00 00 00 00 00 00 00 00 00 00 00 00 00 00 ................
00408B00 00 00 00 00 00 00 00 00 00 00 00 00 00 00 00 00 ................
00408B10 00 00 00 00 00 00 00 00 00 00 00 00 00 00 00 00 ................
00408B20 00 00 00 00 00 00 00 00 00 00 00 00 00 00 00 00 ................
00408B30 00 00 00 00 00 00 00 00 00 00 00 00 00 00 00 00 ................
00408B40 00 00 00 00 00 00 00 00 00 00 00 00 00 00 00 00 ................
00408B50 00 00 00 00 00 00 00 00 00 00 00 00 00 00 00 00 ................
00408B60 00 00 00 00 00 00 00 00 00 00 00 00 00 00 00 00 ................
00408B70 00 00 00 00 00 00 00 00 00 00 00 00 00 00 00 00 ................
00408B80 00 00 00 00 00 00 00 00 00 00 00 00 00 00 00 00 ................
00408B90 00 00 00 00 00 00 00 00 00 00 00 00 00 00 00 00 ................
00408BA0 00 00 00 00 00 00 00 00 00 00 00 00 00 00 00 00 ................
00408BB0 00 00 00 00 00 00 00 00 00 00 00 00 00 00 00 00 ................
00408BC0 00 00 00 00 00 00 00 00 00 00 00 00 00 00 00 00 ................
00408BD0 00 00 00 00 00 00 00 00 00 00 00 00 00 00 00 00 ................
00408BE0 00 00 00 00 00 00 00 00 00 00 00 00 00 00 00 00 ................
00408BF0 00 00 00 00 00 00 00 00 00 00 00 00 00 00 00 00 ................
00408C00 00 00 00 00 00 00 00 00 00 00 00 00 00 00 00 00 ................
00408C10 00 00 00 00 00 00 00 00 00 00 00 00 00 00 00 00 ................
00408C20 00 00 00 00 00 00 00 00 00 00 00 00 00 00 00 00 ................
00408C30 00 00 00 00 00 00 00 00 00 00 00 00 00 00 00 00 ................
00408C40 00 00 00 00 00 00 00 00 00 00 00 00 00 00 00 00 ................
00408C50 00 00 00 00 00 00 00 00 00 00 00 00 00 00 00 00 ................
00408C60 00 00 00 00 00 00 00 00 00 00 00 00 00 00 00 00 ................
00408C70 00 00 00 00 00 00 00 00 00 00 00 00 00 00 00 00 ................
00408C80 00 00 00 00 00 00 00 00 00 00 00 00 00 00 00 00 ................
00408C90 00 00 00 00 00 00 00 00 00 00 00 00 00 00 00 00 ................
00408CA0 00 00 00 00 00 00 00 00 00 00 00 00 00 00 00 00 ................
00408CB0 00 00 00 00 00 00 00 00 00 00 00 00 00 00 00 00 ................
00408CC0 00 00 00 00 00 00 00 00 00 00 00 00 00 00 00 00 ................
00408CD0 00 00 00 00 00 00 00 00 00 00 00 00 00 00 00 00 ................
00408CE0 00 00 00 00 00 00 00 00 00 00 00 00 00 00 00 00 ................
00408CF0 00 00 00 00 00 00 00 00 00 00 00 00 00 00 00 00 ................
00408D00 00 00 00 00 00 00 00 00 00 00 00 00 00 00 00 00 ................
00408D10 00 00 00 00 00 00 00 00 00 00 00 00 00 00 00 00 ................
00408D20 00 00 00 00 00 00 00 00 00 00 00 00 00 00 00 00 ................
00408D30 00 00 00 00 00 00 00 00 00 00 00 00 00 00 00 00 ................
00408D40 00 00 00 00 00 00 00 00 00 00 00 00 00 00 00 00 ................
00408D50 00 00 00 00 00 00 00 00 00 00 00 00 00 00 00 00 ................
00408D60 00 00 00 00 00 00 00 00 00 00 00 00 00 00 00 00 ................
00408D70 00 00 00 00 00 00 00 00 00 00 00 00 00 00 00 00 ................
00408D80 00 00 00 00 00 00 00 00 00 00 00 00 00 00 00 00 ................
00408D90 00 00 00 00 00 00 00 00 00 00 00 00 00 00 00 00 ................
00408DA0 00 00 00 00 00 00 00 00 00 00 00 00 00 00 00 00 ................
00408DB0 00 00 00 00 00 00 00 00 00 00 00 00 00 00 00 00 ................
00408DC0 00 00 00 00 00 00 00 00 00 00 00 00 00 00 00 00 ................
00408DD0 00 00 00 00 00 00 00 00 00 00 00 00 00 00 00 00 ................
00408DE0 00 00 00 00 00 00 00 00 00 00 00 00 00 00 00 00 ................
00408DF0 00 00 00 00 00 00 00 00 00 00 00 00 00 00 00 00 ................
00408E00 00 00 00 00 00 00 00 00 00 00 00 00 00 00 00 00 ................
00408E10 00 00 00 00 00 00 00 00 00 00 00 00 00 00 00 00 ................
00408E20 00 00 00 00 00 00 00 00 00 00 00 00 00 00 00 00 ................
00408E30 00 00 00 00 00 00 00 00 00 00 00 00 00 00 00 00 ................
00408E40 00 00 00 00 00 00 00 00 00 00 00 00 00 00 00 00 ................
00408E50 00 00 00 00 00 00 00 00 00 00 00 00 00 00 00 00 ................
00408E60 00 00 00 00 00 00 00 00 00 00 00 00 00 00 00 00 ................
00408E70 00 00 00 00 00 00 00 00 00 00 00 00 00 00 00 00 ................
00408E80 00 00 00 00 00 00 00 00 00 00 00 00 00 00 00 00 ................
00408E90 00 00 00 00 00 00 00 00 00 00 00 00 00 00 00 00 ................
00408EA0 00 00 00 00 00 00 00 00 00 00 00 00 00 00 00 00 ................
00408EB0 00 00 00 00 00 00 00 00 00 00 00 00 00 00 00 00 ................
00408EC0 00 00 00 00 00 00 00 00 00 00 00 00 00 00 00 00 ................
00408ED0 00 00 00 00 00 00 00 00 00 00 00 00 00 00 00 00 ................
00408EE0 00 00 00 00 00 00 00 00 00 00 00 00 00 00 00 00 ................
00408EF0 00 00 00 00 00 00 00 00 00 00 00 00 00 00 00 00 ................
00408F00 00 00 00 00 00 00 00 00 00 00 00 00 00 00 00 00 ................
00408F10 00 00 00 00 00 00 00 00 00 00 00 00 00 00 00 00 ................
00408F20 00 00 00 00 00 00 00 00 00 00 00 00 00 00 00 00 ................
00408F30 00 00 00 00 00 00 00 00 00 00 00 00 00 00 00 00 ................
00408F40 00 00 00 00 00 00 00 00 00 00 00 00 00 00 00 00 ................
00408F50 00 00 00 00 00 00 00 00 00 00 00 00 00 00 00 00 ................
00408F60 00 00 00 00 00 00 00 00 00 00 00 00 00 00 00 00 ................
00408F70 00 00 00 00 00 00 00 00 00 00 00 00 00 00 00 00 ................
00408F80 00 00 00 00 00 00 00 00 00 00 00 00 00 00 00 00 ................
00408F90 00 00 00 00 00 00 00 00 00 00 00 00 00 00 00 00 ................
00408FA0 00 00 00 00 00 00 00 00 00 00 00 00 00 00 00 00 ................
00408FB0 00 00 00 00 00 00 00 00 00 00 00 00 00 00 00 00 ................
00408FC0 00 00 00 00 00 00 00 00 00 00 00 00 00 00 00 00 ................
00408FD0 00 00 00 00 00 00 00 00 00 00 00 00 00 00 00 00 ................
00408FE0 00 00 00 00 00 00 00 00 00 00 00 00 00 00 00 00 ................
00408FF0 00 00 00 00 00 00 00 00 00 00 00 00 00 00 00 00 ................
00409000 00 00 00 00 00 00 00 00 00 00 00 00 00 00 00 00 ................
00409010 00 00 00 00 00 00 00 00 00 00 00 00 00 00 00 00 ................
00409020 00 00 00 00 00 00 00 00 00 00 00 00 00 00 00 00 ................
00409030 00 00 00 00 00 00 00 00 00 00 00 00 00 00 00 00 ................
00409040 00 00 00 00 00 00 00 00 00 00 00 00 00 00 00 00 ................
00409050 00 00 00 00 00 00 00 00 00 00 00 00 00 00 00 00 ................
00409060 00 00 00 00 00 00 00 00 00 00 00 00 00 00 00 00 ................
00409070 00 00 00 00 00 00 00 00 00 00 00 00 00 00 00 00 ................
00409080 00 00 00 00 00 00 00 00 00 00 00 00 00 00 00 00 ................
00409090 00 00 00 00 00 00 00 00 00 00 00 00 00 00 00 00 ................
004090A0 00 00 00 00 00 00 00 00 00 00 00 00 00 00 00 00 ................
004090B0 00 00 00 00 00 00 00 00 00 00 00 00 00 00 00 00 ................
004090C0 00 00 00 00 00 00 00 00 00 00 00 00 00 00 00 00 ................
004090D0 00 00 00 00 00 00 00 00 00 00 00 00 00 00 00 00 ................
004090E0 00 00 00 00 00 00 00 00 00 00 00 00 00 00 00 00 ................
004090F0 00 00 00 00 00 00 00 00 00 00 00 00 00 00 00 00 ................
00409100 00 00 00 00 00 00 00 00 00 00 00 00 00 00 00 00 ................
00409110 00 00 00 00 00 00 00 00 00 00 00 00 00 00 00 00 ................
00409120 00 00 00 00 00 00 00 00 00 00 00 00 00 00 00 00 ................
00409130 00 00 00 00 00 00 00 00 00 00 00 00 00 00 00 00 ................
00409140 00 00 00 00 00 00 00 00 00 00 00 00 00 00 00 00 ................
00409150 00 00 00 00 00 00 00 00 00 00 00 00 00 00 00 00 ................
00409160 00 00 00 00 00 00 00 00 00 00 00 00 00 00 00 00 ................
00409170 00 00 00 00 00 00 00 00 00 00 00 00 00 00 00 00 ................
00409180 00 00 00 00 00 00 00 00 00 00 00 00 00 00 00 00 ................
00409190 00 00 00 00 00 00 00 00 00 00 00 00 00 00 00 00 ................
004091A0 00 00 00 00 00 00 00 00 00 00 00 00 00 00 00 00 ................
004091B0 00 00 00 00 00 00 00 00 00 00 00 00 00 00 00 00 ................
004091C0 00 00 00 00 00 00 00 00 00 00 00 00 00 00 00 00 ................
004091D0 00 00 00 00 00 00 00 00 00 00 00 00 00 00 00 00 ................
004091E0 00 00 00 00 00 00 00 00 00 00 00 00 00 00 00 00 ................
004091F0 00 00 00 00 00 00 00 00 00 00 00 00 00 00 00 00 ................
00409200 00 00 00 00 00 00 00 00 00 00 00 00 00 00 00 00 ................
00409210 00 00 00 00 00 00 00 00 00 00 00 00 00 00 00 00 ................
00409220 00 00 00 00 00 00 00 00 00 00 00 00 00 00 00 00 ................
00409230 00 00 00 00 00 00 00 00 00 00 00 00 00 00 00 00 ................
00409240 00 00 00 00 00 00 00 00 00 00 00 00 00 00 00 00 ................
00409250 00 00 00 00 00 00 00 00 00 00 00 00 00 00 00 00 ................
00409260 00 00 00 00 00 00 00 00 00 00 00 00 00 00 00 00 ................
00409270 00 00 00 00 00 00 00 00 00 00 00 00 00 00 00 00 ................
00409280 00 00 00 00 00 00 00 00 00 00 00 00 00 00 00 00 ................
00409290 00 00 00 00 00 00 00 00 00 00 00 00 00 00 00 00 ................
004092A0 00 00 00 00 00 00 00 00 00 00 00 00 00 00 00 00 ................
004092B0 00 00 00 00 00 00 00 00 00 00 00 00 00 00 00 00 ................
004092C0 00 00 00 00 00 00 00 00 00 00 00 00 00 00 00 00 ................
004092D0 00 00 00 00 00 00 00 00 00 00 00 00 00 00 00 00 ................
004092E0 00 00 00 00 00 00 00 00 00 00 00 00 00 00 00 00 ................
004092F0 00 00 00 00 00 00 00 00 00 00 00 00 00 00 00 00 ................
00409300 00 00 00 00 00 00 00 00 00 00 00 00 00 00 00 00 ................
00409310 00 00 00 00 00 00 00 00 00 00 00 00 00 00 00 00 ................
00409320 00 00 00 00 00 00 00 00 00 00 00 00 00 00 00 00 ................
00409330 00 00 00 00 00 00 00 00 00 00 00 00 00 00 00 00 ................
00409340 00 00 00 00 00 00 00 00 00 00 00 00 00 00 00 00 ................
00409350 00 00 00 00 00 00 00 00 00 00 00 00 00 00 00 00 ................
00409360 00 00 00 00 00 00 00 00 00 00 00 00 00 00 00 00 ................
00409370 00 00 00 00 00 00 00 00 00 00 00 00 00 00 00 00 ................
00409380 00 00 00 00 00 00 00 00 00 00 00 00 00 00 00 00 ................
00409390 00 00 00 00 00 00 00 00 00 00 00 00 00 00 00 00 ................
004093A0 00 00 00 00 00 00 00 00 00 00 00 00 00 00 00 00 ................
004093B0 00 00 00 00 00 00 00 00 00 00 00 00 00 00 00 00 ................
004093C0 00 00 00 00 00 00 00 00 00 00 00 00 00 00 00 00 ................
004093D0 00 00 00 00 00 00 00 00 00 00 00 00 00 00 00 00 ................
004093E0 00 00 00 00 00 00 00 00 00 00 00 00 00 00 00 00 ................
004093F0 00 00 00 00 00 00 00 00 00 00 00 00 00 00 00 00 ................
00409400 00 00 00 00 00 00 00 00 00 00 00 00 00 00 00 00 ................
00409410 00 00 00 00 00 00 00 00 00 00 00 00 00 00 00 00 ................
00409420 00 00 00 00 00 00 00 00 00 00 00 00 00 00 00 00 ................
00409430 00 00 00 00 00 00 00 00 00 00 00 00 00 00 00 00 ................
00409440 00 00 00 00 00 00 00 00 00 00 00 00 00 00 00 00 ................
00409450 00 00 00 00 00 00 00 00 00 00 00 00 00 00 00 00 ................
00409460 00 00 00 00 00 00 00 00 00 00 00 00 00 00 00 00 ................
00409470 00 00 00 00 00 00 00 00 00 00 00 00 00 00 00 00 ................
00409480 00 00 00 00 00 00 00 00 00 00 00 00 00 00 00 00 ................
00409490 00 00 00 00 00 00 00 00 00 00 00 00 00 00 00 00 ................
004094A0 00 00 00 00 00 00 00 00 00 00 00 00 00 00 00 00 ................
004094B0 00 00 00 00 00 00 00 00 00 00 00 00 00 00 00 00 ................
004094C0 00 00 00 00 00 00 00 00 00 00 00 00 00 00 00 00 ................
004094D0 00 00 00 00 00 00 00 00 00 00 00 00 00 00 00 00 ................
004094E0 00 00 00 00 00 00 00 00 00 00 00 00 00 00 00 00 ................
004094F0 00 00 00 00 00 00 00 00 00 00 00 00 00 00 00 00 ................
00409500 00 00 00 00 00 00 00 00 00 00 00 00 00 00 00 00 ................
00409510 00 00 00 00 00 00 00 00 00 00 00 00 00 00 00 00 ................
00409520 00 00 00 00 00 00 00 00 00 00 00 00 00 00 00 00 ................
00409530 00 00 00 00 00 00 00 00 00 00 00 00 00 00 00 00 ................
00409540 00 00 00 00 00 00 00 00 00 00 00 00 00 00 00 00 ................
00409550 00 00 00 00 00 00 00 00 00 00 00 00 00 00 00 00 ................
00409560 00 00 00 00 00 00 00 00 00 00 00 00 00 00 00 00 ................
00409570 00 00 00 00 00 00 00 00 00 00 00 00 00 00 00 00 ................
00409580 00 00 00 00 00 00 00 00 00 00 00 00 00 00 00 00 ................
00409590 00 00 00 00 00 00 00 00 00 00 00 00 00 00 00 00 ................
004095A0 00 00 00 00 00 00 00 00 00 00 00 00 00 00 00 00 ................
004095B0 00 00 00 00 00 00 00 00 00 00 00 00 00 00 00 00 ................
004095C0 00 00 00 00 00 00 00 00 00 00 00 00 00 00 00 00 ................
004095D0 00 00 00 00 00 00 00 00 00 00 00 00 00 00 00 00 ................
004095E0 00 00 00 00 00 00 00 00 00 00 00 00 00 00 00 00 ................
004095F0 00 00 00 00 00 00 00 00 00 00 00 00 00 00 00 00 ................
00409600 00 00 00 00 00 00 00 00 00 00 00 00 00 00 00 00 ................
00409610 00 00 00 00 00 00 00 00 00 00 00 00 00 00 00 00 ................
00409620 00 00 00 00 00 00 00 00 00 00 00 00 00 00 00 00 ................
00409630 00 00 00 00 00 00 00 00 00 00 00 00 00 00 00 00 ................
00409640 00 00 00 00 00 00 00 00 00 00 00 00 00 00 00 00 ................
00409650 00 00 00 00 00 00 00 00 00 00 00 00 00 00 00 00 ................
00409660 00 00 00 00 00 00 00 00 00 00 00 00 00 00 00 00 ................
00409670 00 00 00 00 00 00 00 00 00 00 00 00 00 00 00 00 ................
00409680 00 00 00 00 00 00 00 00 00 00 00 00 00 00 00 00 ................
00409690 00 00 00 00 00 00 00 00 00 00 00 00 00 00 00 00 ................
004096A0 00 00 00 00 00 00 00 00 00 00 00 00 00 00 00 00 ................
004096B0 00 00 00 00 00 00 00 00 00 00 00 00 00 00 00 00 ................
004096C0 00 00 00 00 00 00 00 00 00 00 00 00 00 00 00 00 ................
004096D0 00 00 00 00 00 00 00 00 00 00 00 00 00 00 00 00 ................
004096E0 00 00 00 00 00 00 00 00 00 00 00 00 00 00 00 00 ................
004096F0 00 00 00 00 00 00 00 00 00 00 00 00 00 00 00 00 ................
00409700 00 00 00 00 00 00 00 00 00 00 00 00 00 00 00 00 ................
00409710 00 00 00 00 00 00 00 00 00 00 00 00 00 00 00 00 ................
00409720 00 00 00 00 00 00 00 00 00 00 00 00 00 00 00 00 ................
00409730 00 00 00 00 00 00 00 00 00 00 00 00 00 00 00 00 ................
00409740 00 00 00 00 00 00 00 00 00 00 00 00 00 00 00 00 ................
00409750 00 00 00 00 00 00 00 00 00 00 00 00 00 00 00 00 ................
00409760 00 00 00 00 00 00 00 00 00 00 00 00 00 00 00 00 ................
00409770 00 00 00 00 00 00 00 00 00 00 00 00 00 00 00 00 ................
00409780 00 00 00 00 00 00 00 00 00 00 00 00 00 00 00 00 ................
00409790 00 00 00 00 00 00 00 00 00 00 00 00 00 00 00 00 ................
004097A0 00 00 00 00 00 00 00 00 00 00 00 00 00 00 00 00 ................
004097B0 00 00 00 00 00 00 00 00 00 00 00 00 00 00 00 00 ................
004097C0 00 00 00 00 00 00 00 00 00 00 00 00 00 00 00 00 ................
004097D0 00 00 00 00 00 00 00 00 00 00 00 00 00 00 00 00 ................
004097E0 00 00 00 00 00 00 00 00 00 00 00 00 00 00 00 00 ................
004097F0 00 00 00 00 00 00 00 00 00 00 00 00 00 00 00 00 ................
00409800 00 00 00 00 00 00 00 00 00 00 00 00 00 00 00 00 ................
00409810 00 00 00 00 00 00 00 00 00 00 00 00 00 00 00 00 ................
00409820 00 00 00 00 00 00 00 00 00 00 00 00 00 00 00 00 ................
00409830 00 00 00 00 00 00 00 00 00 00 00 00 00 00 00 00 ................
00409840 00 00 00 00 00 00 00 00 00 00 00 00 00 00 00 00 ................
00409850 00 00 00 00 00 00 00 00 00 00 00 00 00 00 00 00 ................
00409860 00 00 00 00 00 00 00 00 00 00 00 00 00 00 00 00 ................
00409870 00 00 00 00 00 00 00 00 00 00 00 00 00 00 00 00 ................
00409880 00 00 00 00 00 00 00 00 00 00 00 00 00 00 00 00 ................
00409890 00 00 00 00 00 00 00 00 00 00 00 00 00 00 00 00 ................
004098A0 00 00 00 00 00 00 00 00 00 00 00 00 00 00 00 00 ................
004098B0 00 00 00 00 00 00 00 00 00 00 00 00 00 00 00 00 ................
004098C0 00 00 00 00 00 00 00 00 00 00 00 00 00 00 00 00 ................
004098D0 00 00 00 00 00 00 00 00 00 00 00 00 00 00 00 00 ................
004098E0 00 00 00 00 00 00 00 00 00 00 00 00 00 00 00 00 ................
004098F0 00 00 00 00 00 00 00 00 00 00 00 00 00 00 00 00 ................
00409900 00 00 00 00 00 00 00 00 00 00 00 00 00 00 00 00 ................
00409910 00 00 00 00 00 00 00 00 00 00 00 00 00 00 00 00 ................
00409920 00 00 00 00 00 00 00 00 00 00 00 00 00 00 00 00 ................
00409930 00 00 00 00 00 00 00 00 00 00 00 00 00 00 00 00 ................
00409940 00 00 00 00 00 00 00 00 00 00 00 00 00 00 00 00 ................
00409950 00 00 00 00 00 00 00 00 00 00 00 00 00 00 00 00 ................
00409960 00 00 00 00 00 00 00 00 00 00 00 00 00 00 00 00 ................
00409970 00 00 00 00 00 00 00 00 00 00 00 00 00 00 00 00 ................
00409980 00 00 00 00 00 00 00 00 00 00 00 00 00 00 00 00 ................
00409990 00 00 00 00 00 00 00 00 00 00 00 00 00 00 00 00 ................
004099A0 00 00 00 00 00 00 00 00 00 00 00 00 00 00 00 00 ................
004099B0 00 00 00 00 00 00 00 00 00 00 00 00 00 00 00 00 ................
004099C0 00 00 00 00 00 00 00 00 00 00 00 00 00 00 00 00 ................
004099D0 00 00 00 00 00 00 00 00 00 00 00 00 00 00 00 00 ................
004099E0 00 00 00 00 00 00 00 00 00 00 00 00 00 00 00 00 ................
004099F0 00 00 00 00 00 00 00 00 00 00 00 00 00 00 00 00 ................
00409A00 00 00 00 00 00 00 00 00 00 00 00 00 00 00 00 00 ................
00409A10 00 00 00 00 00 00 00 00 00 00 00 00 00 00 00 00 ................
00409A20 00 00 00 00 00 00 00 00 00 00 00 00 00 00 00 00 ................
00409A30 00 00 00 00 00 00 00 00 00 00 00 00 00 00 00 00 ................
00409A40 00 00 00 00 00 00 00 00 00 00 00 00 00 00 00 00 ................
00409A50 00 00 00 00 00 00 00 00 00 00 00 00 00 00 00 00 ................
00409A60 00 00 00 00 00 00 00 00 00 00 00 00 00 00 00 00 ................
00409A70 00 00 00 00 00 00 00 00 00 00 00 00 00 00 00 00 ................
00409A80 00 00 00 00 00 00 00 00 00 00 00 00 00 00 00 00 ................
00409A90 00 00 00 00 00 00 00 00 00 00 00 00 00 00 00 00 ................
00409AA0 00 00 00 00 00 00 00 00 00 00 00 00 00 00 00 00 ................
00409AB0 00 00 00 00 00 00 00 00 00 00 00 00 00 00 00 00 ................
00409AC0 00 00 00 00 00 00 00 00 00 00 00 00 00 00 00 00 ................
00409AD0 00 00 00 00 00 00 00 00 00 00 00 00 00 00 00 00 ................
00409AE0 00 00 00 00 00 00 00 00 00 00 00 00 00 00 00 00 ................
00409AF0 00 00 00 00 00 00 00 00 00 00 00 00 00 00 00 00 ................
00409B00 00 00 00 00 00 00 00 00 00 00 00 00 00 00 00 00 ................
00409B10 00 00 00 00 00 00 00 00 00 00 00 00 00 00 00 00 ................
00409B20 00 00 00 00 00 00 00 00 00 00 00 00 00 00 00 00 ................
00409B30 00 00 00 00 00 00 00 00 00 00 00 00 00 00 00 00 ................
00409B40 00 00 00 00 00 00 00 00 00 00 00 00 00 00 00 00 ................
00409B50 00 00 00 00 00 00 00 00 00 00 00 00 00 00 00 00 ................
00409B60 00 00 00 00 00 00 00 00 00 00 00 00 00 00 00 00 ................
00409B70 00 00 00 00 00 00 00 00 00 00 00 00 00 00 00 00 ................
00409B80 00 00 00 00 00 00 00 00 00 00 00 00 00 00 00 00 ................
00409B90 00 00 00 00 00 00 00 00 00 00 00 00 00 00 00 00 ................
00409BA0 00 00 00 00 00 00 00 00 00 00 00 00 00 00 00 00 ................
00409BB0 00 00 00 00 00 00 00 00 00 00 00 00 00 00 00 00 ................
00409BC0 00 00 00 00 00 00 00 00 00 00 00 00 00 00 00 00 ................
00409BD0 00 00 00 00 00 00 00 00 00 00 00 00 00 00 00 00 ................
00409BE0 00 00 00 00 00 00 00 00 00 00 00 00 00 00 00 00 ................
00409BF0 00 00 00 00 00 00 00 00 00 00 00 00 00 00 00 00 ................
00409C00 00 00 00 00 00 00 00 00 00 00 00 00 00 00 00 00 ................
00409C10 00 00 00 00 00 00 00 00 00 00 00 00 00 00 00 00 ................
00409C20 00 00 00 00 00 00 00 00 00 00 00 00 00 00 00 00 ................
00409C30 00 00 00 00 00 00 00 00 00 00 00 00 00 00 00 00 ................
00409C40 00 00 00 00 00 00 00 00 00 00 00 00 00 00 00 00 ................
00409C50 00 00 00 00 00 00 00 00 00 00 00 00 00 00 00 00 ................
00409C60 00 00 00 00 00 00 00 00 00 00 00 00 00 00 00 00 ................
00409C70 00 00 00 00 00 00 00 00 00 00 00 00 00 00 00 00 ................
00409C80 00 00 00 00 00 00 00 00 00 00 00 00 00 00 00 00 ................
00409C90 00 00 00 00 00 00 00 00 00 00 00 00 00 00 00 00 ................
00409CA0 00 00 00 00 00 00 00 00 00 00 00 00 00 00 00 00 ................
00409CB0 00 00 00 00 00 00 00 00 00 00 00 00 00 00 00 00 ................
00409CC0 00 00 00 00 00 00 00 00 00 00 00 00 00 00 00 00 ................
00409CD0 00 00 00 00 00 00 00 00 00 00 00 00 00 00 00 00 ................
00409CE0 00 00 00 00 00 00 00 00 00 00 00 00 00 00 00 00 ................
00409CF0 00 00 00 00 00 00 00 00 00 00 00 00 00 00 00 00 ................
00409D00 00 00 00 00 00 00 00 00 00 00 00 00 00 00 00 00 ................
00409D10 00 00 00 00 00 00 00 00 00 00 00 00 00 00 00 00 ................
00409D20 00 00 00 00 00 00 00 00 00 00 00 00 00 00 00 00 ................
00409D30 00 00 00 00 00 00 00 00 00 00 00 00 00 00 00 00 ................
00409D40 00 00 00 00 00 00 00 00 00 00 00 00 00 00 00 00 ................
00409D50 00 00 00 00 00 00 00 00 00 00 00 00 00 00 00 00 ................
00409D60 00 00 00 00 00 00 00 00 00 00 00 00 00 00 00 00 ................
00409D70 00 00 00 00 00 00 00 00 00 00 00 00 00 00 00 00 ................
00409D80 00 00 00 00 00 00 00 00 00 00 00 00 00 00 00 00 ................
00409D90 00 00 00 00 00 00 00 00 00 00 00 00 00 00 00 00 ................
00409DA0 00 00 00 00 00 00 00 00 00 00 00 00 00 00 00 00 ................
00409DB0 00 00 00 00 00 00 00 00 00 00 00 00 00 00 00 00 ................
00409DC0 00 00 00 00 00 00 00 00 00 00 00 00 00 00 00 00 ................
00409DD0 00 00 00 00 00 00 00 00 00 00 00 00 00 00 00 00 ................
00409DE0 00 00 00 00 00 00 00 00 00 00 00 00 00 00 00 00 ................
00409DF0 00 00 00 00 00 00 00 00 00 00 00 00 00 00 00 00 ................
00409E00 00 00 00 00 00 00 00 00 00 00 00 00 00 00 00 00 ................
00409E10 00 00 00 00 00 00 00 00 00 00 00 00 00 00 00 00 ................
00409E20 00 00 00 00 00 00 00 00 00 00 00 00 00 00 00 00 ................
00409E30 00 00 00 00 00 00 00 00 00 00 00 00 00 00 00 00 ................
00409E40 00 00 00 00 00 00 00 00 00 00 00 00 00 00 00 00 ................
00409E50 00 00 00 00 00 00 00 00 00 00 00 00 00 00 00 00 ................
00409E60 00 00 00 00 00 00 00 00 00 00 00 00 00 00 00 00 ................
00409E70 00 00 00 00 00 00 00 00 00 00 00 00 00 00 00 00 ................
00409E80 00 00 00 00 00 00 00 00 00 00 00 00 00 00 00 00 ................
00409E90 00 00 00 00 00 00 00 00 00 00 00 00 00 00 00 00 ................
00409EA0 00 00 00 00 00 00 00 00 00 00 00 00 00 00 00 00 ................
00409EB0 00 00 00 00 00 00 00 00 00 00 00 00 00 00 00 00 ................
00409EC0 00 00 00 00 00 00 00 00 00 00 00 00 00 00 00 00 ................
00409ED0 00 00 00 00 00 00 00 00 00 00 00 00 00 00 00 00 ................
00409EE0 00 00 00 00 00 00 00 00 00 00 00 00 00 00 00 00 ................
00409EF0 00 00 00 00 00 00 00 00 00 00 00 00 00 00 00 00 ................
00409F00 00 00 00 00 00 00 00 00 00 00 00 00 00 00 00 00 ................
00409F10 00 00 00 00 00 00 00 00 00 00 00 00 00 00 00 00 ................
00409F20 00 00 00 00 00 00 00 00 00 00 00 00 00 00 00 00 ................
00409F30 00 00 00 00 00 00 00 00 00 00 00 00 00 00 00 00 ................
00409F40 00 00 00 00 00 00 00 00 00 00 00 00 00 00 00 00 ................
00409F50 00 00 00 00 00 00 00 00 00 00 00 00 00 00 00 00 ................
00409F60 00 00 00 00 00 00 00 00 00 00 00 00 00 00 00 00 ................
00409F70 00 00 00 00 00 00 00 00 00 00 00 00 00 00 00 00 ................
00409F80 00 00 00 00 00 00 00 00 00 00 00 00 00 00 00 00 ................
00409F90 00 00 00 00 00 00 00 00 00 00 00 00 00 00 00 00 ................
00409FA0 00 00 00 00 00 00 00 00 00 00 00 00 00 00 00 00 ................
00409FB0 00 00 00 00 00 00 00 00 00 00 00 00 00 00 00 00 ................
00409FC0 00 00 00 00 00 00 00 00 00 00 00 00 00 00 00 00 ................
00409FD0 00 00 00 00 00 00 00 00 00 00 00 00 00 00 00 00 ................
00409FE0 00 00 00 00 00 00 00 00 00 00 00 00 00 00 00 00 ................
00409FF0 00 00 00 00 00 00 00 00 00 00 00 00 00 00 00 00 ................
0040A000 00 00 00 00 00 00 00 00 00 00 00 00 00 00 00 00 ................
0040A010 00 00 00 00 00 00 00 00 00 00 00 00 00 00 00 00 ................
0040A020 00 00 00 00 00 00 00 00 00 00 00 00 00 00 00 00 ................
0040A030 00 00 00 00 00 00 00 00 00 00 00 00 00 00 00 00 ................
0040A040 00 00 00 00 00 00 00 00 00 00 00 00 00 00 00 00 ................
0040A050 00 00 00 00 00 00 00 00 00 00 00 00 00 00 00 00 ................
0040A060 00 00 00 00 00 00 00 00 00 00 00 00 00 00 00 00 ................
0040A070 00 00 00 00 00 00 00 00 00 00 00 00 00 00 00 00 ................
0040A080 00 00 00 00 00 00 00 00 00 00 00 00 00 00 00 00 ................
0040A090 00 00 00 00 00 00 00 00 00 00 00 00 00 00 00 00 ................
0040A0A0 00 00 00 00 00 00 00 00 00 00 00 00 00 00 00 00 ................
0040A0B0 00 00 00 00 00 00 00 00 00 00 00 00 00 00 00 00 ................
0040A0C0 00 00 00 00 00 00 00 00 00 00 00 00 00 00 00 00 ................
0040A0D0 00 00 00 00 00 00 00 00 00 00 00 00 00 00 00 00 ................
0040A0E0 00 00 00 00 00 00 00 00 00 00 00 00 00 00 00 00 ................
0040A0F0 00 00 00 00 00 00 00 00 00 00 00 00 00 00 00 00 ................
0040A100 00 00 00 00 00 00 00 00 00 00 00 00 00 00 00 00 ................
0040A110 00 00 00 00 00 00 00 00 00 00 00 00 00 00 00 00 ................
0040A120 00 00 00 00 00 00 00 00 00 00 00 00 00 00 00 00 ................
0040A130 00 00 00 00 00 00 00 00 00 00 00 00 00 00 00 00 ................
0040A140 00 00 00 00 00 00 00 00 00 00 00 00 00 00 00 00 ................
0040A150 00 00 00 00 00 00 00 00 00 00 00 00 00 00 00 00 ................
0040A160 00 00 00 00 00 00 00 00 00 00 00 00 00 00 00 00 ................
0040A170 00 00 00 00 00 00 00 00 00 00 00 00 00 00 00 00 ................
0040A180 00 00 00 00 00 00 00 00 00 00 00 00 00 00 00 00 ................
0040A190 00 00 00 00 00 00 00 00 00 00 00 00 00 00 00 00 ................
0040A1A0 00 00 00 00 00 00 00 00 00 00 00 00 00 00 00 00 ................
0040A1B0 00 00 00 00 00 00 00 00 00 00 00 00 00 00 00 00 ................
0040A1C0 00 00 00 00 00 00 00 00 00 00 00 00 00 00 00 00 ................
0040A1D0 00 00 00 00 00 00 00 00 00 00 00 00 00 00 00 00 ................
0040A1E0 00 00 00 00 00 00 00 00 00 00 00 00 00 00 00 00 ................
0040A1F0 00 00 00 00 00 00 00 00 00 00 00 00 00 00 00 00 ................
0040A200 00 00 00 00 00 00 00 00 00 00 00 00 00 00 00 00 ................
0040A210 00 00 00 00 00 00 00 00 00 00 00 00 00 00 00 00 ................
0040A220 00 00 00 00 00 00 00 00 00 00 00 00 00 00 00 00 ................
0040A230 00 00 00 00 00 00 00 00 00 00 00 00 00 00 00 00 ................
0040A240 00 00 00 00 00 00 00 00 00 00 00 00 00 00 00 00 ................
0040A250 00 00 00 00 00 00 00 00 00 00 00 00 00 00 00 00 ................
0040A260 00 00 00 00 00 00 00 00 00 00 00 00 00 00 00 00 ................
0040A270 00 00 00 00 00 00 00 00 00 00 00 00 00 00 00 00 ................
0040A280 00 00 00 00 00 00 00 00 00 00 00 00 00 00 00 00 ................
0040A290 00 00 00 00 00 00 00 00 00 00 00 00 00 00 00 00 ................
0040A2A0 00 00 00 00 00 00 00 00 00 00 00 00 00 00 00 00 ................
0040A2B0 00 00 00 00 00 00 00 00 00 00 00 00 00 00 00 00 ................
0040A2C0 00 00 00 00 00 00 00 00 00 00 00 00 00 00 00 00 ................
0040A2D0 00 00 00 00 00 00 00 00 00 00 00 00 00 00 00 00 ................
0040A2E0 00 00 00 00 00 00 00 00 00 00 00 00 00 00 00 00 ................
0040A2F0 00 00 00 00 00 00 00 00 00 00 00 00 00 00 00 00 ................
0040A300 00 00 00 00 00 00 00 00 00 00 00 00 00 00 00 00 ................
0040A310 00 00 00 00 00 00 00 00 00 00 00 00 00 00 00 00 ................
0040A320 00 00 00 00 00 00 00 00 00 00 00 00 00 00 00 00 ................
0040A330 00 00 00 00 00 00 00 00 00 00 00 00 00 00 00 00 ................
0040A340 00 00 00 00 00 00 00 00 00 00 00 00 00 00 00 00 ................
0040A350 00 00 00 00 00 00 00 00 00 00 00 00 00 00 00 00 ................
0040A360 00 00 00 00 00 00 00 00 00 00 00 00 00 00 00 00 ................
0040A370 00 00 00 00 00 00 00 00 00 00 00 00 00 00 00 00 ................
0040A380 00 00 00 00 00 00 00 00 00 00 00 00 00 00 00 00 ................
0040A390 00 00 00 00 00 00 00 00 00 00 00 00 00 00 00 00 ................
0040A3A0 00 00 00 00 00 00 00 00 00 00 00 00 00 00 00 00 ................
0040A3B0 00 00 00 00 00 00 00 00 00 00 00 00 00 00 00 00 ................
0040A3C0 00 00 00 00 00 00 00 00 00 00 00 00 00 00 00 00 ................
0040A3D0 00 00 00 00 00 00 00 00 00 00 00 00 00 00 00 00 ................
0040A3E0 00 00 00 00 00 00 00 00 00 00 00 00 00 00 00 00 ................
0040A3F0 00 00 00 00 00 00 00 00 00 00 00 00 00 00 00 00 ................
0040A400 00 00 00 00 00 00 00 00 00 00 00 00 00 00 00 00 ................
0040A410 00 00 00 00 00 00 00 00 00 00 00 00 00 00 00 00 ................
0040A420 00 00 00 00 00 00 00 00 00 00 00 00 00 00 00 00 ................
0040A430 00 00 00 00 00 00 00 00 00 00 00 00 00 00 00 00 ................
0040A440 00 00 00 00 00 00 00 00 00 00 00 00 00 00 00 00 ................
0040A450 00 00 00 00 00 00 00 00 00 00 00 00 00 00 00 00 ................
0040A460 00 00 00 00 00 00 00 00 00 00 00 00 00 00 00 00 ................
0040A470 00 00 00 00 00 00 00 00 00 00 00 00 00 00 00 00 ................
0040A480 00 00 00 00 00 00 00 00 00 00 00 00 00 00 00 00 ................
0040A490 00 00 00 00 00 00 00 00 00 00 00 00 00 00 00 00 ................
0040A4A0 00 00 00 00 00 00 00 00 00 00 00 00 00 00 00 00 ................
0040A4B0 00 00 00 00 00 00 00 00 00 00 00 00 00 00 00 00 ................
0040A4C0 00 00 00 00 00 00 00 00 00 00 00 00 00 00 00 00 ................
0040A4D0 00 00 00 00 00 00 00 00 00 00 00 00 00 00 00 00 ................
0040A4E0 00 00 00 00 00 00 00 00 00 00 00 00 00 00 00 00 ................
0040A4F0 00 00 00 00 00 00 00 00 00 00 00 00 00 00 00 00 ................
0040A500 00 00 00 00 00 00 00 00 00 00 00 00 00 00 00 00 ................
0040A510 00 00 00 00 00 00 00 00 00 00 00 00 00 00 00 00 ................
0040A520 00 00 00 00 00 00 00 00 00 00 00 00 00 00 00 00 ................
0040A530 00 00 00 00 00 00 00 00 00 00 00 00 00 00 00 00 ................
0040A540 00 00 00 00 00 00 00 00 00 00 00 00 00 00 00 00 ................
0040A550 00 00 00 00 00 00 00 00 00 00 00 00 00 00 00 00 ................
0040A560 00 00 00 00 00 00 00 00 00 00 00 00 00 00 00 00 ................
0040A570 00 00 00 00 00 00 00 00 00 00 00 00 00 00 00 00 ................
0040A580 00 00 00 00 00 00 00 00 00 00 00 00 00 00 00 00 ................
0040A590 00 00 00 00 00 00 00 00 00 00 00 00 00 00 00 00 ................
0040A5A0 00 00 00 00 00 00 00 00 00 00 00 00 00 00 00 00 ................
0040A5B0 00 00 00 00 00 00 00 00 00 00 00 00 00 00 00 00 ................
0040A5C0 00 00 00 00 00 00 00 00 00 00 00 00 00 00 00 00 ................
0040A5D0 00 00 00 00 00 00 00 00 00 00 00 00 00 00 00 00 ................
0040A5E0 00 00 00 00 00 00 00 00 00 00 00 00 00 00 00 00 ................
0040A5F0 00 00 00 00 00 00 00 00 00 00 00 00 00 00 00 00 ................
0040A600 00 00 00 00 00 00 00 00 00 00 00 00 00 00 00 00 ................
0040A610 00 00 00 00 00 00 00 00 00 00 00 00 00 00 00 00 ................
0040A620 00 00 00 00 00 00 00 00 00 00 00 00 00 00 00 00 ................
0040A630 00 00 00 00 00 00 00 00 00 00 00 00 00 00 00 00 ................
0040A640 00 00 00 00 00 00 00 00 00 00 00 00 00 00 00 00 ................
0040A650 00 00 00 00 00 00 00 00 00 00 00 00 00 00 00 00 ................
0040A660 00 00 00 00 00 00 00 00 00 00 00 00 00 00 00 00 ................
0040A670 00 00 00 00 00 00 00 00 00 00 00 00 00 00 00 00 ................
0040A680 00 00 00 00 00 00 00 00 00 00 00 00 00 00 00 00 ................
0040A690 00 00 00 00 00 00 00 00 00 00 00 00 00 00 00 00 ................
0040A6A0 00 00 00 00 00 00 00 00 00 00 00 00 00 00 00 00 ................
0040A6B0 00 00 00 00 00 00 00 00 00 00 00 00 00 00 00 00 ................
0040A6C0 00 00 00 00 00 00 00 00 00 00 00 00 00 00 00 00 ................
0040A6D0 00 00 00 00 00 00 00 00 00 00 00 00 00 00 00 00 ................
0040A6E0 00 00 00 00 00 00 00 00 00 00 00 00 00 00 00 00 ................
0040A6F0 00 00 00 00 00 00 00 00 00 00 00 00 00 00 00 00 ................
0040A700 00 00 00 00 00 00 00 00 00 00 00 00 00 00 00 00 ................
0040A710 00 00 00 00 00 00 00 00 00 00 00 00 00 00 00 00 ................
0040A720 00 00 00 00 00 00 00 00 00 00 00 00 00 00 00 00 ................
0040A730 00 00 00 00 00 00 00 00 00 00 00 00 00 00 00 00 ................
0040A740 00 00 00 00 00 00 00 00 00 00 00 00 00 00 00 00 ................
0040A750 00 00 00 00 00 00 00 00 00 00 00 00 00 00 00 00 ................
0040A760 00 00 00 00 00 00 00 00 00 00 00 00 00 00 00 00 ................
0040A770 00 00 00 00 00 00 00 00 00 00 00 00 00 00 00 00 ................
0040A780 00 00 00 00 00 00 00 00 00 00 00 00 00 00 00 00 ................
0040A790 00 00 00 00 00 00 00 00 00 00 00 00 00 00 00 00 ................
0040A7A0 00 00 00 00 00 00 00 00 00 00 00 00 00 00 00 00 ................
0040A7B0 00 00 00 00 00 00 00 00 00 00 00 00 00 00 00 00 ................
0040A7C0 00 00 00 00 00 00 00 00 00 00 00 00 00 00 00 00 ................
0040A7D0 00 00 00 00 00 00 00 00 00 00 00 00 00 00 00 00 ................
0040A7E0 00 00 00 00 00 00 00 00 00 00 00 00 00 00 00 00 ................
0040A7F0 00 00 00 00 00 00 00 00 00 00 00 00 00 00 00 00 ................
0040A800 00 00 00 00 00 00 00 00 00 00 00 00 00 00 00 00 ................
0040A810 00 00 00 00 00 00 00 00 00 00 00 00 00 00 00 00 ................
0040A820 00 00 00 00 00 00 00 00 00 00 00 00 00 00 00 00 ................
0040A830 00 00 00 00 00 00 00 00 00 00 00 00 00 00 00 00 ................
0040A840 00 00 00 00 00 00 00 00 00 00 00 00 00 00 00 00 ................
0040A850 00 00 00 00 00 00 00 00 00 00 00 00 00 00 00 00 ................
0040A860 00 00 00 00 00 00 00 00 00 00 00 00 00 00 00 00 ................
0040A870 00 00 00 00 00 00 00 00 00 00 00 00 00 00 00 00 ................
0040A880 00 00 00 00 00 00 00 00 00 00 00 00 00 00 00 00 ................
0040A890 00 00 00 00 00 00 00 00 00 00 00 00 00 00 00 00 ................
0040A8A0 00 00 00 00 00 00 00 00 00 00 00 00 00 00 00 00 ................
0040A8B0 00 00 00 00 00 00 00 00 00 00 00 00 00 00 00 00 ................
0040A8C0 00 00 00 00 00 00 00 00 00 00 00 00 00 00 00 00 ................
0040A8D0 00 00 00 00 00 00 00 00 00 00 00 00 00 00 00 00 ................
0040A8E0 00 00 00 00 00 00 00 00 00 00 00 00 00 00 00 00 ................
0040A8F0 00 00 00 00 00 00 00 00 00 00 00 00 00 00 00 00 ................
0040A900 00 00 00 00 00 00 00 00 00 00 00 00 00 00 00 00 ................
0040A910 00 00 00 00 00 00 00 00 00 00 00 00 00 00 00 00 ................
0040A920 00 00 00 00 00 00 00 00 00 00 00 00 00 00 00 00 ................
0040A930 00 00 00 00 00 00 00 00 00 00 00 00 00 00 00 00 ................
0040A940 00 00 00 00 00 00 00 00 00 00 00 00 00 00 00 00 ................
0040A950 00 00 00 00 00 00 00 00 00 00 00 00 00 00 00 00 ................
0040A960 00 00 00 00 00 00 00 00 00 00 00 00 00 00 00 00 ................
0040A970 00 00 00 00 00 00 00 00 00 00 00 00 00 00 00 00 ................
0040A980 00 00 00 00 00 00 00 00 00 00 00 00 00 00 00 00 ................
0040A990 00 00 00 00 00 00 00 00 00 00 00 00 00 00 00 00 ................
0040A9A0 00 00 00 00 00 00 00 00 00 00 00 00 00 00 00 00 ................
0040A9B0 00 00 00 00 00 00 00 00 00 00 00 00 00 00 00 00 ................
0040A9C0 00 00 00 00 00 00 00 00 00 00 00 00 00 00 00 00 ................
0040A9D0 00 00 00 00 00 00 00 00 00 00 00 00 00 00 00 00 ................
0040A9E0 00 00 00 00 00 00 00 00 00 00 00 00 00 00 00 00 ................
0040A9F0 00 00 00 00 00 00 00 00 00 00 00 00 00 00 00 00 ................
0040AA00 00 00 00 00 00 00 00 00 00 00 00 00 00 00 00 00 ................
0040AA10 00 00 00 00 00 00 00 00 00 00 00 00 00 00 00 00 ................
0040AA20 00 00 00 00 00 00 00 00 00 00 00 00 00 00 00 00 ................
0040AA30 00 00 00 00 00 00 00 00 00 00 00 00 00 00 00 00 ................
0040AA40 00 00 00 00 00 00 00 00 00 00 00 00 00 00 00 00 ................
0040AA50 00 00 00 00 00 00 00 00 00 00 00 00 00 00 00 00 ................
0040AA60 00 00 00 00 00 00 00 00 00 00 00 00 00 00 00 00 ................
0040AA70 00 00 00 00 00 00 00 00 00 00 00 00 00 00 00 00 ................
0040AA80 00 00 00 00 00 00 00 00 00 00 00 00 00 00 00 00 ................
0040AA90 00 00 00 00 00 00 00 00 00 00 00 00 00 00 00 00 ................
0040AAA0 00 00 00 00 00 00 00 00 00 00 00 00 00 00 00 00 ................
0040AAB0 00 00 00 00 00 00 00 00 00 00 00 00 00 00 00 00 ................
0040AAC0 00 00 00 00 00 00 00 00 00 00 00 00 00 00 00 00 ................
0040AAD0 00 00 00 00 00 00 00 00 00 00 00 00 00 00 00 00 ................
0040AAE0 00 00 00 00 00 00 00 00 00 00 00 00 00 00 00 00 ................
0040AAF0 00 00 00 00 00 00 00 00 00 00 00 00 00 00 00 00 ................
0040AB00 00 00 00 00 00 00 00 00 00 00 00 00 00 00 00 00 ................
0040AB10 00 00 00 00 00 00 00 00 00 00 00 00 00 00 00 00 ................
0040AB20 00 00 00 00 00 00 00 00 00 00 00 00 00 00 00 00 ................
0040AB30 00 00 00 00 00 00 00 00 00 00 00 00 00 00 00 00 ................
0040AB40 00 00 00 00 00 00 00 00 00 00 00 00 00 00 00 00 ................
0040AB50 00 00 00 00 00 00 00 00 00 00 00 00 00 00 00 00 ................
0040AB60 00 00 00 00 00 00 00 00 00 00 00 00 00 00 00 00 ................
0040AB70 00 00 00 00 00 00 00 00 00 00 00 00 00 00 00 00 ................
0040AB80 00 00 00 00 00 00 00 00 00 00 00 00 00 00 00 00 ................
0040AB90 00 00 00 00 00 00 00 00 00 00 00 00 00 00 00 00 ................
0040ABA0 00 00 00 00 00 00 00 00 00 00 00 00 00 00 00 00 ................
0040ABB0 00 00 00 00 00 00 00 00 00 00 00 00 00 00 00 00 ................
0040ABC0 00 00 00 00 00 00 00 00 00 00 00 00 00 00 00 00 ................
0040ABD0 00 00 00 00 00 00 00 00 00 00 00 00 00 00 00 00 ................
0040ABE0 00 00 00 00 00 00 00 00 00 00 00 00 00 00 00 00 ................
0040ABF0 00 00 00 00 00 00 00 00 00 00 00 00 00 00 00 00 ................
0040AC00 00 00 00 00 00 00 00 00 00 00 00 00 00 00 00 00 ................
0040AC10 00 00 00 00 00 00 00 00 00 00 00 00 00 00 00 00 ................
0040AC20 00 00 00 00 00 00 00 00 00 00 00 00 00 00 00 00 ................
0040AC30 00 00 00 00 00 00 00 00 00 00 00 00 00 00 00 00 ................
0040AC40 00 00 00 00 00 00 00 00 00 00 00 00 00 00 00 00 ................
0040AC50 00 00 00 00 00 00 00 00 00 00 00 00 00 00 00 00 ................
0040AC60 00 00 00 00 00 00 00 00 00 00 00 00 00 00 00 00 ................
0040AC70 00 00 00 00 00 00 00 00 00 00 00 00 00 00 00 00 ................
0040AC80 00 00 00 00 00 00 00 00 00 00 00 00 00 00 00 00 ................
0040AC90 00 00 00 00 00 00 00 00 00 00 00 00 00 00 00 00 ................
0040ACA0 00 00 00 00 00 00 00 00 00 00 00 00 00 00 00 00 ................
0040ACB0 00 00 00 00 00 00 00 00 00 00 00 00 00 00 00 00 ................
0040ACC0 00 00 00 00 00 00 00 00 00 00 00 00 00 00 00 00 ................
0040ACD0 00 00 00 00 00 00 00 00 00 00 00 00 00 00 00 00 ................
0040ACE0 00 00 00 00 00 00 00 00 00 00 00 00 00 00 00 00 ................
0040ACF0 00 00 00 00 00 00 00 00 00 00 00 00 00 00 00 00 ................
0040AD00 00 00 00 00 00 00 00 00 00 00 00 00 00 00 00 00 ................
0040AD10 00 00 00 00 00 00 00 00 00 00 00 00 00 00 00 00 ................
0040AD20 00 00 00 00 00 00 00 00 00 00 00 00 00 00 00 00 ................
0040AD30 00 00 00 00 00 00 00 00 00 00 00 00 00 00 00 00 ................
0040AD40 00 00 00 00 00 00 00 00 00 00 00 00 00 00 00 00 ................
0040AD50 00 00 00 00 00 00 00 00 00 00 00 00 00 00 00 00 ................
0040AD60 00 00 00 00 00 00 00 00 00 00 00 00 00 00 00 00 ................
0040AD70 00 00 00 00 00 00 00 00 00 00 00 00 00 00 00 00 ................
0040AD80 00 00 00 00 00 00 00 00 00 00 00 00 00 00 00 00 ................
0040AD90 00 00 00 00 00 00 00 00 00 00 00 00 00 00 00 00 ................
0040ADA0 00 00 00 00 00 00 00 00 00 00 00 00 00 00 00 00 ................
0040ADB0 00 00 00 00 00 00 00 00 00 00 00 00 00 00 00 00 ................
0040ADC0 00 00 00 00 00 00 00 00 00 00 00 00 00 00 00 00 ................
0040ADD0 00 00 00 00 00 00 00 00 00 00 00 00 00 00 00 00 ................
0040ADE0 00 00 00 00 00 00 00 00 00 00 00 00 00 00 00 00 ................
0040ADF0 00 00 00 00 00 00 00 00 00 00 00 00 00 00 00 00 ................
0040AE00 00 00 00 00 00 00 00 00 00 00 00 00 00 00 00 00 ................
0040AE10 00 00 00 00 00 00 00 00 00 00 00 00 00 00 00 00 ................
0040AE20 00 00 00 00 00 00 00 00 00 00 00 00 00 00 00 00 ................
0040AE30 00 00 00 00 00 00 00 00 00 00 00 00 00 00 00 00 ................
0040AE40 00 00 00 00 00 00 00 00 00 00 00 00 00 00 00 00 ................
0040AE50 00 00 00 00 00 00 00 00 00 00 00 00 00 00 00 00 ................
0040AE60 00 00 00 00 00 00 00 00 00 00 00 00 00 00 00 00 ................
0040AE70 00 00 00 00 00 00 00 00 00 00 00 00 00 00 00 00 ................
0040AE80 00 00 00 00 00 00 00 00 00 00 00 00 00 00 00 00 ................
0040AE90 00 00 00 00 00 00 00 00 00 00 00 00 00 00 00 00 ................
0040AEA0 00 00 00 00 00 00 00 00 00 00 00 00 00 00 00 00 ................
0040AEB0 00 00 00 00 00 00 00 00 00 00 00 00 00 00 00 00 ................
0040AEC0 00 00 00 00 00 00 00 00 00 00 00 00 00 00 00 00 ................
0040AED0 00 00 00 00 00 00 00 00 00 00 00 00 00 00 00 00 ................
0040AEE0 00 00 00 00 00 00 00 00 00 00 00 00 00 00 00 00 ................
0040AEF0 00 00 00 00 00 00 00 00 00 00 00 00 00 00 00 00 ................
0040AF00 00 00 00 00 00 00 00 00 00 00 00 00 00 00 00 00 ................
0040AF10 00 00 00 00 00 00 00 00 00 00 00 00 00 00 00 00 ................
0040AF20 00 00 00 00 00 00 00 00 00 00 00 00 00 00 00 00 ................
0040AF30 00 00 00 00 00 00 00 00 00 00 00 00 00 00 00 00 ................
0040AF40 00 00 00 00 00 00 00 00 00 00 00 00 00 00 00 00 ................
0040AF50 00 00 00 00 00 00 00 00 00 00 00 00 00 00 00 00 ................
0040AF60 00 00 00 00 00 00 00 00 00 00 00 00 00 00 00 00 ................
0040AF70 00 00 00 00 00 00 00 00 00 00 00 00 00 00 00 00 ................
0040AF80 00 00 00 00 00 00 00 00 00 00 00 00 00 00 00 00 ................
0040AF90 00 00 00 00 00 00 00 00 00 00 00 00 00 00 00 00 ................
0040AFA0 00 00 00 00 00 00 00 00 00 00 00 00 00 00 00 00 ................
0040AFB0 00 00 00 00 00 00 00 00 00 00 00 00 00 00 00 00 ................
0040AFC0 00 00 00 00 00 00 00 00 00 00 00 00 00 00 00 00 ................
0040AFD0 00 00 00 00 00 00 00 00 00 00 00 00 00 00 00 00 ................
0040AFE0 00 00 00 00 00 00 00 00 00 00 00 00 00 00 00 00 ................
0040AFF0 00 00 00 00 00 00 00 00 00 00 00 00 00 00 00 00 ................
0040B000 00 00 00 00 00 00 00 00 00 00 00 00 00 00 00 00 ................
0040B010 00 00 00 00 00 00 00 00 00 00 00 00 00 00 00 00 ................
0040B020 00 00 00 00 00 00 00 00 00 00 00 00 00 00 00 00 ................
0040B030 00 00 00 00 00 00 00 00 00 00 00 00 00 00 00 00 ................
0040B040 00 00 00 00 00 00 00 00 00 00 00 00 00 00 00 00 ................
0040B050 00 00 00 00 00 00 00 00 00 00 00 00 00 00 00 00 ................
0040B060 00 00 00 00 00 00 00 00 00 00 00 00 00 00 00 00 ................
0040B070 00 00 00 00 00 00 00 00 00 00 00 00 00 00 00 00 ................
0040B080 00 00 00 00 00 00 00 00 00 00 00 00 00 00 00 00 ................
0040B090 00 00 00 00 00 00 00 00 00 00 00 00 00 00 00 00 ................
0040B0A0 00 00 00 00 00 00 00 00 00 00 00 00 00 00 00 00 ................
0040B0B0 00 00 00 00 00 00 00 00 00 00 00 00 00 00 00 00 ................
0040B0C0 00 00 00 00 00 00 00 00 00 00 00 00 00 00 00 00 ................
0040B0D0 00 00 00 00 00 00 00 00 00 00 00 00 00 00 00 00 ................
0040B0E0 00 00 00 00 00 00 00 00 00 00 00 00 00 00 00 00 ................
0040B0F0 00 00 00 00 00 00 00 00 00 00 00 00 00 00 00 00 ................
0040B100 00 00 00 00 00 00 00 00 00 00 00 00 00 00 00 00 ................
0040B110 00 00 00 00 00 00 00 00 00 00 00 00 00 00 00 00 ................
0040B120 00 00 00 00 00 00 00 00 00 00 00 00 00 00 00 00 ................
0040B130 00 00 00 00 00 00 00 00 00 00 00 00 00 00 00 00 ................
0040B140 00 00 00 00 00 00 00 00 00 00 00 00 00 00 00 00 ................
0040B150 00 00 00 00 00 00 00 00 00 00 00 00 00 00 00 00 ................
0040B160 00 00 00 00 00 00 00 00 00 00 00 00 00 00 00 00 ................
0040B170 00 00 00 00 00 00 00 00 00 00 00 00 00 00 00 00 ................
0040B180 00 00 00 00 00 00 00 00 00 00 00 00 00 00 00 00 ................
0040B190 00 00 00 00 00 00 00 00 00 00 00 00 00 00 00 00 ................
0040B1A0 00 00 00 00 00 00 00 00 00 00 00 00 00 00 00 00 ................
0040B1B0 00 00 00 00 00 00 00 00 00 00 00 00 00 00 00 00 ................
0040B1C0 00 00 00 00 00 00 00 00 00 00 00 00 00 00 00 00 ................
0040B1D0 00 00 00 00 00 00 00 00 00 00 00 00 00 00 00 00 ................
0040B1E0 00 00 00 00 00 00 00 00 00 00 00 00 00 00 00 00 ................
0040B1F0 00 00 00 00 00 00 00 00 00 00 00 00 00 00 00 00 ................
0040B200 00 00 00 00 00 00 00 00 00 00 00 00 00 00 00 00 ................
0040B210 00 00 00 00 00 00 00 00 00 00 00 00 00 00 00 00 ................
0040B220 00 00 00 00 00 00 00 00 00 00 00 00 00 00 00 00 ................
0040B230 00 00 00 00 00 00 00 00 00 00 00 00 00 00 00 00 ................
0040B240 00 00 00 00 00 00 00 00 00 00 00 00 00 00 00 00 ................
0040B250 00 00 00 00 00 00 00 00 00 00 00 00 00 00 00 00 ................
0040B260 00 00 00 00 00 00 00 00 00 00 00 00 00 00 00 00 ................
0040B270 00 00 00 00 00 00 00 00 00 00 00 00 00 00 00 00 ................
0040B280 00 00 00 00 00 00 00 00 00 00 00 00 00 00 00 00 ................
0040B290 00 00 00 00 00 00 00 00 00 00 00 00 00 00 00 00 ................
0040B2A0 00 00 00 00 00 00 00 00 00 00 00 00 00 00 00 00 ................
0040B2B0 00 00 00 00 00 00 00 00 00 00 00 00 00 00 00 00 ................
0040B2C0 00 00 00 00 00 00 00 00 00 00 00 00 00 00 00 00 ................
0040B2D0 00 00 00 00 00 00 00 00 00 00 00 00 00 00 00 00 ................
0040B2E0 00 00 00 00 00 00 00 00 00 00 00 00 00 00 00 00 ................
0040B2F0 00 00 00 00 00 00 00 00 00 00 00 00 00 00 00 00 ................
0040B300 00 00 00 00 00 00 00 00 00 00 00 00 00 00 00 00 ................
0040B310 00 00 00 00 00 00 00 00 00 00 00 00 00 00 00 00 ................
0040B320 00 00 00 00 00 00 00 00 00 00 00 00 00 00 00 00 ................
0040B330 00 00 00 00 00 00 00 00 00 00 00 00 00 00 00 00 ................
0040B340 00 00 00 00 00 00 00 00 00 00 00 00 00 00 00 00 ................
0040B350 00 00 00 00 00 00 00 00 00 00 00 00 00 00 00 00 ................
0040B360 00 00 00 00 00 00 00 00 00 00 00 00 00 00 00 00 ................
0040B370 00 00 00 00 00 00 00 00 00 00 00 00 00 00 00 00 ................
0040B380 00 00 00 00 00 00 00 00 00 00 00 00 00 00 00 00 ................
0040B390 00 00 00 00 00 00 00 00 00 00 00 00 00 00 00 00 ................
0040B3A0 00 00 00 00 00 00 00 00 00 00 00 00 00 00 00 00 ................
0040B3B0 00 00 00 00 00 00 00 00 00 00 00 00 00 00 00 00 ................
0040B3C0 00 00 00 00 00 00 00 00 00 00 00 00 00 00 00 00 ................
0040B3D0 00 00 00 00 00 00 00 00 00 00 00 00 00 00 00 00 ................
0040B3E0 00 00 00 00 00 00 00 00 00 00 00 00 00 00 00 00 ................
0040B3F0 00 00 00 00 00 00 00 00 00 00 00 00 00 00 00 00 ................
0040B400 00 00 00 00 00 00 00 00 00 00 00 00 00 00 00 00 ................
0040B410 00 00 00 00 00 00 00 00 00 00 00 00 00 00 00 00 ................
0040B420 00 00 00 00 00 00 00 00 00 00 00 00 00 00 00 00 ................
0040B430 00 00 00 00 00 00 00 00 00 00 00 00 00 00 00 00 ................
0040B440 00 00 00 00 00 00 00 00 00 00 00 00 00 00 00 00 ................
0040B450 00 00 00 00 00 00 00 00 00 00 00 00 00 00 00 00 ................
0040B460 00 00 00 00 00 00 00 00 00 00 00 00 00 00 00 00 ................
0040B470 00 00 00 00 00 00 00 00 00 00 00 00 00 00 00 00 ................
0040B480 00 00 00 00 00 00 00 00 00 00 00 00 00 00 00 00 ................
0040B490 00 00 00 00 00 00 00 00 00 00 00 00 00 00 00 00 ................
0040B4A0 00 00 00 00 00 00 00 00 00 00 00 00 00 00 00 00 ................
0040B4B0 00 00 00 00 00 00 00 00 00 00 00 00 00 00 00 00 ................
0040B4C0 00 00 00 00 00 00 00 00 00 00 00 00 00 00 00 00 ................
0040B4D0 00 00 00 00 00 00 00 00 00 00 00 00 00 00 00 00 ................
0040B4E0 00 00 00 00 00 00 00 00 00 00 00 00 00 00 00 00 ................
0040B4F0 00 00 00 00 00 00 00 00 00 00 00 00 00 00 00 00 ................
0040B500 00 00 00 00 00 00 00 00 00 00 00 00 00 00 00 00 ................
0040B510 00 00 00 00 00 00 00 00 00 00 00 00 00 00 00 00 ................
0040B520 00 00 00 00 00 00 00 00 00 00 00 00 00 00 00 00 ................
0040B530 00 00 00 00 00 00 00 00 00 00 00 00 00 00 00 00 ................
0040B540 00 00 00 00 00 00 00 00 00 00 00 00 00 00 00 00 ................
0040B550 00 00 00 00 00 00 00 00 00 00 00 00 00 00 00 00 ................
0040B560 00 00 00 00 00 00 00 00 00 00 00 00 00 00 00 00 ................
0040B570 00 00 00 00 00 00 00 00 00 00 00 00 00 00 00 00 ................
0040B580 00 00 00 00 00 00 00 00 00 00 00 00 00 00 00 00 ................
0040B590 00 00 00 00 00 00 00 00 00 00 00 00 00 00 00 00 ................
0040B5A0 00 00 00 00 00 00 00 00 00 00 00 00 00 00 00 00 ................
0040B5B0 00 00 00 00 00 00 00 00 00 00 00 00 00 00 00 00 ................
0040B5C0 00 00 00 00 00 00 00 00 00 00 00 00 00 00 00 00 ................
0040B5D0 00 00 00 00 00 00 00 00 00 00 00 00 00 00 00 00 ................
0040B5E0 00 00 00 00 00 00 00 00 00 00 00 00 00 00 00 00 ................
0040B5F0 00 00 00 00 00 00 00 00 00 00 00 00 00 00 00 00 ................
0040B600 00 00 00 00 00 00 00 00 00 00 00 00 00 00 00 00 ................
0040B610 00 00 00 00 00 00 00 00 00 00 00 00 00 00 00 00 ................
0040B620 00 00 00 00 00 00 00 00 00 00 00 00 00 00 00 00 ................
0040B630 00 00 00 00 00 00 00 00 00 00 00 00 00 00 00 00 ................
0040B640 00 00 00 00 00 00 00 00 00 00 00 00 00 00 00 00 ................
0040B650 00 00 00 00 00 00 00 00 00 00 00 00 00 00 00 00 ................
0040B660 00 00 00 00 00 00 00 00 00 00 00 00 00 00 00 00 ................
0040B670 00 00 00 00 00 00 00 00 00 00 00 00 00 00 00 00 ................
0040B680 00 00 00 00 00 00 00 00 00 00 00 00 00 00 00 00 ................
0040B690 00 00 00 00 00 00 00 00 00 00 00 00 00 00 00 00 ................
0040B6A0 00 00 00 00 00 00 00 00 00 00 00 00 00 00 00 00 ................
0040B6B0 00 00 00 00 00 00 00 00 00 00 00 00 00 00 00 00 ................
0040B6C0 00 00 00 00 00 00 00 00 00 00 00 00 00 00 00 00 ................
0040B6D0 00 00 00 00 00 00 00 00 00 00 00 00 00 00 00 00 ................
0040B6E0 00 00 00 00 00 00 00 00 00 00 00 00 00 00 00 00 ................
0040B6F0 00 00 00 00 00 00 00 00 00 00 00 00 00 00 00 00 ................
0040B700 00 00 00 00 00 00 00 00 00 00 00 00 00 00 00 00 ................
0040B710 00 00 00 00 00 00 00 00 00 00 00 00 00 00 00 00 ................
0040B720 00 00 00 00 00 00 00 00 00 00 00 00 00 00 00 00 ................
0040B730 00 00 00 00 00 00 00 00 00 00 00 00 00 00 00 00 ................
0040B740 00 00 00 00 00 00 00 00 00 00 00 00 00 00 00 00 ................
0040B750 00 00 00 00 00 00 00 00 00 00 00 00 00 00 00 00 ................
0040B760 00 00 00 00 00 00 00 00 00 00 00 00 00 00 00 00 ................
0040B770 00 00 00 00 00 00 00 00 00 00 00 00 00 00 00 00 ................
0040B780 00 00 00 00 00 00 00 00 00 00 00 00 00 00 00 00 ................
0040B790 00 00 00 00 00 00 00 00 00 00 00 00 00 00 00 00 ................
0040B7A0 00 00 00 00 00 00 00 00 00 00 00 00 00 00 00 00 ................
0040B7B0 00 00 00 00 00 00 00 00 00 00 00 00 00 00 00 00 ................
0040B7C0 00 00 00 00 00 00 00 00 00 00 00 00 00 00 00 00 ................
0040B7D0 00 00 00 00 00 00 00 00 00 00 00 00 00 00 00 00 ................
0040B7E0 00 00 00 00 00 00 00 00 00 00 00 00 00 00 00 00 ................
0040B7F0 00 00 00 00 00 00 00 00 00 00 00 00 00 00 00 00 ................
0040B800 00 00 00 00 00 00 00 00 00 00 00 00 00 00 00 00 ................
0040B810 00 00 00 00 00 00 00 00 00 00 00 00 00 00 00 00 ................
0040B820 00 00 00 00 00 00 00 00 00 00 00 00 00 00 00 00 ................
0040B830 00 00 00 00 00 00 00 00 00 00 00 00 00 00 00 00 ................
0040B840 00 00 00 00 00 00 00 00 00 00 00 00 00 00 00 00 ................
0040B850 00 00 00 00 00 00 00 00 00 00 00 00 00 00 00 00 ................
0040B860 00 00 00 00 00 00 00 00 00 00 00 00 00 00 00 00 ................
0040B870 00 00 00 00 00 00 00 00 00 00 00 00 00 00 00 00 ................
0040B880 00 00 00 00 00 00 00 00 00 00 00 00 00 00 00 00 ................
0040B890 00 00 00 00 00 00 00 00 00 00 00 00 00 00 00 00 ................
0040B8A0 00 00 00 00 00 00 00 00 00 00 00 00 00 00 00 00 ................
0040B8B0 00 00 00 00 00 00 00 00 00 00 00 00 00 00 00 00 ................
0040B8C0 00 00 00 00 00 00 00 00 00 00 00 00 00 00 00 00 ................
0040B8D0 00 00 00 00 00 00 00 00 00 00 00 00 00 00 00 00 ................
0040B8E0 00 00 00 00 00 00 00 00 00 00 00 00 00 00 00 00 ................
0040B8F0 00 00 00 00 00 00 00 00 00 00 00 00 00 00 00 00 ................
0040B900 00 00 00 00 00 00 00 00 00 00 00 00 00 00 00 00 ................
0040B910 00 00 00 00 00 00 00 00 00 00 00 00 00 00 00 00 ................
0040B920 00 00 00 00 00 00 00 00 00 00 00 00 00 00 00 00 ................
0040B930 00 00 00 00 00 00 00 00 00 00 00 00 00 00 00 00 ................
0040B940 00 00 00 00 00 00 00 00 00 00 00 00 00 00 00 00 ................
0040B950 00 00 00 00 00 00 00 00 00 00 00 00 00 00 00 00 ................
0040B960 00 00 00 00 00 00 00 00 00 00 00 00 00 00 00 00 ................
0040B970 00 00 00 00 00 00 00 00 00 00 00 00 00 00 00 00 ................
0040B980 00 00 00 00 00 00 00 00 00 00 00 00 00 00 00 00 ................
0040B990 00 00 00 00 00 00 00 00 00 00 00 00 00 00 00 00 ................
0040B9A0 00 00 00 00 00 00 00 00 00 00 00 00 00 00 00 00 ................
0040B9B0 00 00 00 00 00 00 00 00 00 00 00 00 00 00 00 00 ................
0040B9C0 00 00 00 00 00 00 00 00 00 00 00 00 00 00 00 00 ................
0040B9D0 00 00 00 00 00 00 00 00 00 00 00 00 00 00 00 00 ................
0040B9E0 00 00 00 00 00 00 00 00 00 00 00 00 00 00 00 00 ................
0040B9F0 00 00 00 00 00 00 00 00 00 00 00 00 00 00 00 00 ................
0040BA00 00 00 00 00 00 00 00 00 00 00 00 00 00 00 00 00 ................
0040BA10 00 00 00 00 00 00 00 00 00 00 00 00 00 00 00 00 ................
0040BA20 00 00 00 00 00 00 00 00 00 00 00 00 00 00 00 00 ................
0040BA30 00 00 00 00 00 00 00 00 00 00 00 00 00 00 00 00 ................
0040BA40 00 00 00 00 00 00 00 00 00 00 00 00 00 00 00 00 ................
0040BA50 00 00 00 00 00 00 00 00 00 00 00 00 00 00 00 00 ................
0040BA60 00 00 00 00 00 00 00 00 00 00 00 00 00 00 00 00 ................
0040BA70 00 00 00 00 00 00 00 00 00 00 00 00 00 00 00 00 ................
0040BA80 00 00 00 00 00 00 00 00 00 00 00 00 00 00 00 00 ................
0040BA90 00 00 00 00 00 00 00 00 00 00 00 00 00 00 00 00 ................
0040BAA0 00 00 00 00 00 00 00 00 00 00 00 00 00 00 00 00 ................
0040BAB0 00 00 00 00 00 00 00 00 00 00 00 00 00 00 00 00 ................
0040BAC0 00 00 00 00 00 00 00 00 00 00 00 00 00 00 00 00 ................
0040BAD0 00 00 00 00 00 00 00 00 00 00 00 00 00 00 00 00 ................
0040BAE0 00 00 00 00 00 00 00 00 00 00 00 00 00 00 00 00 ................
0040BAF0 00 00 00 00 00 00 00 00 00 00 00 00 00 00 00 00 ................
0040BB00 00 00 00 00 00 00 00 00 00 00 00 00 00 00 00 00 ................
0040BB10 00 00 00 00 00 00 00 00 00 00 00 00 00 00 00 00 ................
0040BB20 00 00 00 00 00 00 00 00 00 00 00 00 00 00 00 00 ................
0040BB30 00 00 00 00 00 00 00 00 00 00 00 00 00 00 00 00 ................
0040BB40 00 00 00 00 00 00 00 00 00 00 00 00 00 00 00 00 ................
0040BB50 00 00 00 00 00 00 00 00 00 00 00 00 00 00 00 00 ................
0040BB60 00 00 00 00 00 00 00 00 00 00 00 00 00 00 00 00 ................
0040BB70 00 00 00 00 00 00 00 00 00 00 00 00 00 00 00 00 ................
0040BB80 00 00 00 00 00 00 00 00 00 00 00 00 00 00 00 00 ................
0040BB90 00 00 00 00 00 00 00 00 00 00 00 00 00 00 00 00 ................
0040BBA0 00 00 00 00 00 00 00 00 00 00 00 00 00 00 00 00 ................
0040BBB0 00 00 00 00 00 00 00 00 00 00 00 00 00 00 00 00 ................
0040BBC0 00 00 00 00 00 00 00 00 00 00 00 00 00 00 00 00 ................
0040BBD0 00 00 00 00 00 00 00 00 00 00 00 00 00 00 00 00 ................
0040BBE0 00 00 00 00 00 00 00 00 00 00 00 00 00 00 00 00 ................
0040BBF0 00 00 00 00 00 00 00 00 00 00 00 00 00 00 00 00 ................
0040BC00 00 00 00 00 00 00 00 00 00 00 00 00 00 00 00 00 ................
0040BC10 00 00 00 00 00 00 00 00 00 00 00 00 00 00 00 00 ................
0040BC20 00 00 00 00 00 00 00 00 00 00 00 00 00 00 00 00 ................
0040BC30 00 00 00 00 00 00 00 00 00 00 00 00 00 00 00 00 ................
0040BC40 00 00 00 00 00 00 00 00 00 00 00 00 00 00 00 00 ................
0040BC50 00 00 00 00 00 00 00 00 00 00 00 00 00 00 00 00 ................
0040BC60 00 00 00 00 00 00 00 00 00 00 00 00 00 00 00 00 ................
0040BC70 00 00 00 00 00 00 00 00 00 00 00 00 00 00 00 00 ................
0040BC80 00 00 00 00 00 00 00 00 00 00 00 00 00 00 00 00 ................
0040BC90 00 00 00 00 00 00 00 00 00 00 00 00 00 00 00 00 ................
0040BCA0 00 00 00 00 00 00 00 00 00 00 00 00 00 00 00 00 ................
0040BCB0 00 00 00 00 00 00 00 00 00 00 00 00 00 00 00 00 ................
0040BCC0 00 00 00 00 00 00 00 00 00 00 00 00 00 00 00 00 ................
0040BCD0 00 00 00 00 00 00 00 00 00 00 00 00 00 00 00 00 ................
0040BCE0 00 00 00 00 00 00 00 00 00 00 00 00 00 00 00 00 ................
0040BCF0 00 00 00 00 00 00 00 00 00 00 00 00 00 00 00 00 ................
0040BD00 00 00 00 00 00 00 00 00 00 00 00 00 00 00 00 00 ................
0040BD10 00 00 00 00 00 00 00 00 00 00 00 00 00 00 00 00 ................
0040BD20 00 00 00 00 00 00 00 00 00 00 00 00 00 00 00 00 ................
0040BD30 00 00 00 00 00 00 00 00 00 00 00 00 00 00 00 00 ................
0040BD40 00 00 00 00 00 00 00 00 00 00 00 00 00 00 00 00 ................
0040BD50 00 00 00 00 00 00 00 00 00 00 00 00 00 00 00 00 ................
0040BD60 00 00 00 00 00 00 00 00 00 00 00 00 00 00 00 00 ................
0040BD70 00 00 00 00 00 00 00 00 00 00 00 00 00 00 00 00 ................
0040BD80 00 00 00 00 00 00 00 00 00 00 00 00 00 00 00 00 ................
0040BD90 00 00 00 00 00 00 00 00 00 00 00 00 00 00 00 00 ................
0040BDA0 00 00 00 00 00 00 00 00 00 00 00 00 00 00 00 00 ................
0040BDB0 00 00 00 00 00 00 00 00 00 00 00 00 00 00 00 00 ................
0040BDC0 00 00 00 00 00 00 00 00 00 00 00 00 00 00 00 00 ................
0040BDD0 00 00 00 00 00 00 00 00 00 00 00 00 00 00 00 00 ................
0040BDE0 00 00 00 00 00 00 00 00 00 00 00 00 00 00 00 00 ................
0040BDF0 00 00 00 00 00 00 00 00 00 00 00 00 00 00 00 00 ................
0040BE00 00 00 00 00 00 00 00 00 00 00 00 00 00 00 00 00 ................
0040BE10 00 00 00 00 00 00 00 00 00 00 00 00 00 00 00 00 ................
0040BE20 00 00 00 00 00 00 00 00 00 00 00 00 00 00 00 00 ................
0040BE30 00 00 00 00 00 00 00 00 00 00 00 00 00 00 00 00 ................
0040BE40 00 00 00 00 00 00 00 00 00 00 00 00 00 00 00 00 ................
0040BE50 00 00 00 00 00 00 00 00 00 00 00 00 00 00 00 00 ................
0040BE60 00 00 00 00 00 00 00 00 00 00 00 00 00 00 00 00 ................
0040BE70 00 00 00 00 00 00 00 00 00 00 00 00 00 00 00 00 ................
0040BE80 00 00 00 00 00 00 00 00 00 00 00 00 00 00 00 00 ................
0040BE90 00 00 00 00 00 00 00 00 00 00 00 00 00 00 00 00 ................
0040BEA0 00 00 00 00 00 00 00 00 00 00 00 00 00 00 00 00 ................
0040BEB0 00 00 00 00 00 00 00 00 00 00 00 00 00 00 00 00 ................
0040BEC0 00 00 00 00 00 00 00 00 00 00 00 00 00 00 00 00 ................
0040BED0 00 00 00 00 00 00 00 00 00 00 00 00 00 00 00 00 ................
0040BEE0 00 00 00 00 00 00 00 00 00 00 00 00 00 00 00 00 ................
0040BEF0 00 00 00 00 00 00 00 00 00 00 00 00 00 00 00 00 ................
0040BF00 00 00 00 00 00 00 00 00 00 00 00 00 00 00 00 00 ................
0040BF10 00 00 00 00 00 00 00 00 00 00 00 00 00 00 00 00 ................
0040BF20 00 00 00 00 00 00 00 00 00 00 00 00 00 00 00 00 ................
0040BF30 00 00 00 00 00 00 00 00 00 00 00 00 00 00 00 00 ................
0040BF40 00 00 00 00 00 00 00 00 00 00 00 00 00 00 00 00 ................
0040BF50 00 00 00 00 00 00 00 00 00 00 00 00 00 00 00 00 ................
0040BF60 00 00 00 00 00 00 00 00 00 00 00 00 00 00 00 00 ................
0040BF70 00 00 00 00 00 00 00 00 00 00 00 00 00 00 00 00 ................
0040BF80 00 00 00 00 00 00 00 00 00 00 00 00 00 00 00 00 ................
0040BF90 00 00 00 00 00 00 00 00 00 00 00 00 00 00 00 00 ................
0040BFA0 00 00 00 00 00 00 00 00 00 00 00 00 00 00 00 00 ................
0040BFB0 00 00 00 00 00 00 00 00 00 00 00 00 00 00 00 00 ................
0040BFC0 00 00 00 00 00 00 00 00 00 00 00 00 00 00 00 00 ................
0040BFD0 00 00 00 00 00 00 00 00 00 00 00 00 00 00 00 00 ................
0040BFE0 00 00 00 00 00 00 00 00 00 00 00 00 00 00 00 00 ................
0040BFF0 00 00 00 00 00 00 00 00 00 00 00 00 00 00 00 00 ................
0040C000 00 00 00 00 00 00 00 00 00 00 00 00 00 00 00 00 ................
0040C010 00 00 00 00 00 00 00 00 00 00 00 00 00 00 00 00 ................
0040C020 00 00 00 00 00 00 00 00 00 00 00 00 00 00 00 00 ................
0040C030 00 00 00 00 00 00 00 00 00 00 00 00 00 00 00 00 ................
0040C040 00 00 00 00 00 00 00 00 00 00 00 00 00 00 00 00 ................
0040C050 00 00 00 00 00 00 00 00 00 00 00 00 00 00 00 00 ................
0040C060 00 00 00 00 00 00 00 00 00 00 00 00 00 00 00 00 ................
0040C070 00 00 00 00 00 00 00 00 00 00 00 00 00 00 00 00 ................
0040C080 00 00 00 00 00 00 00 00 00 00 00 00 00 00 00 00 ................
0040C090 00 00 00 00 00 00 00 00 00 00 00 00 00 00 00 00 ................
0040C0A0 00 00 00 00 00 00 00 00 00 00 00 00 00 00 00 00 ................
0040C0B0 00 00 00 00 00 00 00 00 00 00 00 00 00 00 00 00 ................
0040C0C0 00 00 00 00 00 00 00 00 00 00 00 00 00 00 00 00 ................
0040C0D0 00 00 00 00 00 00 00 00 00 00 00 00 00 00 00 00 ................
0040C0E0 00 00 00 00 00 00 00 00 00 00 00 00 00 00 00 00 ................
0040C0F0 00 00 00 00 00 00 00 00 00 00 00 00 00 00 00 00 ................
0040C100 00 00 00 00 00 00 00 00 00 00 00 00 00 00 00 00 ................
0040C110 00 00 00 00 00 00 00 00 00 00 00 00 00 00 00 00 ................
0040C120 00 00 00 00 00 00 00 00 00 00 00 00 00 00 00 00 ................
0040C130 00 00 00 00 00 00 00 00 00 00 00 00 00 00 00 00 ................
0040C140 00 00 00 00 00 00 00 00 00 00 00 00 00 00 00 00 ................
0040C150 00 00 00 00 00 00 00 00 00 00 00 00 00 00 00 00 ................
0040C160 00 00 00 00 00 00 00 00 00 00 00 00 00 00 00 00 ................
0040C170 00 00 00 00 00 00 00 00 00 00 00 00 00 00 00 00 ................
0040C180 00 00 00 00 00 00 00 00 00 00 00 00 00 00 00 00 ................
0040C190 00 00 00 00 00 00 00 00 00 00 00 00 00 00 00 00 ................
0040C1A0 00 00 00 00 00 00 00 00 00 00 00 00 00 00 00 00 ................
0040C1B0 00 00 00 00 00 00 00 00 00 00 00 00 00 00 00 00 ................
0040C1C0 00 00 00 00 00 00 00 00 00 00 00 00 00 00 00 00 ................
0040C1D0 00 00 00 00 00 00 00 00 00 00 00 00 00 00 00 00 ................
0040C1E0 00 00 00 00 00 00 00 00 00 00 00 00 00 00 00 00 ................
0040C1F0 00 00 00 00 00 00 00 00 00 00 00 00 00 00 00 00 ................
0040C200 00 00 00 00 00 00 00 00 00 00 00 00 00 00 00 00 ................
0040C210 00 00 00 00 00 00 00 00 00 00 00 00 00 00 00 00 ................
0040C220 00 00 00 00 00 00 00 00 00 00 00 00 00 00 00 00 ................
0040C230 00 00 00 00 00 00 00 00 00 00 00 00 00 00 00 00 ................
0040C240 00 00 00 00 00 00 00 00 00 00 00 00 00 00 00 00 ................
0040C250 00 00 00 00 00 00 00 00 00 00 00 00 00 00 00 00 ................
0040C260 00 00 00 00 00 00 00 00 00 00 00 00 00 00 00 00 ................
0040C270 00 00 00 00 00 00 00 00 00 00 00 00 00 00 00 00 ................
0040C280 00 00 00 00 00 00 00 00 00 00 00 00 00 00 00 00 ................
0040C290 00 00 00 00 00 00 00 00 00 00 00 00 00 00 00 00 ................
0040C2A0 00 00 00 00 00 00 00 00 00 00 00 00 00 00 00 00 ................
0040C2B0 00 00 00 00 00 00 00 00 00 00 00 00 00 00 00 00 ................
0040C2C0 00 00 00 00 00 00 00 00 00 00 00 00 00 00 00 00 ................
0040C2D0 00 00 00 00 00 00 00 00 00 00 00 00 00 00 00 00 ................
0040C2E0 00 00 00 00 00 00 00 00 00 00 00 00 00 00 00 00 ................
0040C2F0 00 00 00 00 00 00 00 00 00 00 00 00 00 00 00 00 ................
0040C300 00 00 00 00 00 00 00 00 00 00 00 00 00 00 00 00 ................
0040C310 00 00 00 00 00 00 00 00 00 00 00 00 00 00 00 00 ................
0040C320 00 00 00 00 00 00 00 00 00 00 00 00 00 00 00 00 ................
0040C330 00 00 00 00 00 00 00 00 00 00 00 00 00 00 00 00 ................
0040C340 00 00 00 00 00 00 00 00 00 00 00 00 00 00 00 00 ................
0040C350 00 00 00 00 00 00 00 00 00 00 00 00 00 00 00 00 ................
0040C360 00 00 00 00 00 00 00 00 00 00 00 00 00 00 00 00 ................
0040C370 00 00 00 00 00 00 00 00 00 00 00 00 00 00 00 00 ................
0040C380 00 00 00 00 00 00 00 00 00 00 00 00 00 00 00 00 ................
0040C390 00 00 00 00 00 00 00 00 00 00 00 00 00 00 00 00 ................
0040C3A0 00 00 00 00 00 00 00 00 00 00 00 00 00 00 00 00 ................
0040C3B0 00 00 00 00 00 00 00 00 00 00 00 00 00 00 00 00 ................
0040C3C0 00 00 00 00 00 00 00 00 00 00 00 00 00 00 00 00 ................
0040C3D0 00 00 00 00 00 00 00 00 00 00 00 00 00 00 00 00 ................
0040C3E0 00 00 00 00 00 00 00 00 00 00 00 00 00 00 00 00 ................
0040C3F0 00 00 00 00 00 00 00 00 00 00 00 00 00 00 00 00 ................
0040C400 00 00 00 00 00 00 00 00 00 00 00 00 00 00 00 00 ................
0040C410 00 00 00 00 00 00 00 00 00 00 00 00 00 00 00 00 ................
0040C420 00 00 00 00 00 00 00 00 00 00 00 00 00 00 00 00 ................
0040C430 00 00 00 00 00 00 00 00 00 00 00 00 00 00 00 00 ................
0040C440 00 00 00 00 00 00 00 00 00 00 00 00 00 00 00 00 ................
0040C450 00 00 00 00 00 00 00 00 00 00 00 00 00 00 00 00 ................
0040C460 00 00 00 00 00 00 00 00 00 00 00 00 00 00 00 00 ................
0040C470 00 00 00 00 00 00 00 00 00 00 00 00 00 00 00 00 ................
0040C480 00 00 00 00 00 00 00 00 00 00 00 00 00 00 00 00 ................
0040C490 00 00 00 00 00 00 00 00 00 00 00 00 00 00 00 00 ................
0040C4A0 00 00 00 00 00 00 00 00 00 00 00 00 00 00 00 00 ................
0040C4B0 00 00 00 00 00 00 00 00 00 00 00 00 00 00 00 00 ................
0040C4C0 00 00 00 00 00 00 00 00 00 00 00 00 00 00 00 00 ................
0040C4D0 00 00 00 00 00 00 00 00 00 00 00 00 00 00 00 00 ................
0040C4E0 00 00 00 00 00 00 00 00 00 00 00 00 00 00 00 00 ................
0040C4F0 00 00 00 00 00 00 00 00 00 00 00 00 00 00 00 00 ................
0040C500 00 00 00 00 00 00 00 00 00 00 00 00 00 00 00 00 ................
0040C510 00 00 00 00 00 00 00 00 00 00 00 00 00 00 00 00 ................
0040C520 00 00 00 00 00 00 00 00 00 00 00 00 00 00 00 00 ................
0040C530 00 00 00 00 00 00 00 00 00 00 00 00 00 00 00 00 ................
0040C540 00 00 00 00 00 00 00 00 00 00 00 00 00 00 00 00 ................
0040C550 00 00 00 00 00 00 00 00 00 00 00 00 00 00 00 00 ................
0040C560 00 00 00 00 00 00 00 00 00 00 00 00 00 00 00 00 ................
0040C570 00 00 00 00 00 00 00 00 00 00 00 00 00 00 00 00 ................
0040C580 00 00 00 00 00 00 00 00 00 00 00 00 00 00 00 00 ................
0040C590 00 00 00 00 00 00 00 00 00 00 00 00 00 00 00 00 ................
0040C5A0 00 00 00 00 00 00 00 00 00 00 00 00 00 00 00 00 ................
0040C5B0 00 00 00 00 00 00 00 00 00 00 00 00 00 00 00 00 ................
0040C5C0 00 00 00 00 00 00 00 00 00 00 00 00 00 00 00 00 ................
0040C5D0 00 00 00 00 00 00 00 00 00 00 00 00 00 00 00 00 ................
0040C5E0 00 00 00 00 00 00 00 00 00 00 00 00 00 00 00 00 ................
0040C5F0 00 00 00 00 00 00 00 00 00 00 00 00 00 00 00 00 ................
0040C600 00 00 00 00 00 00 00 00 00 00 00 00 00 00 00 00 ................
0040C610 00 00 00 00 00 00 00 00 00 00 00 00 00 00 00 00 ................
0040C620 00 00 00 00 00 00 00 00 00 00 00 00 00 00 00 00 ................
0040C630 00 00 00 00 00 00 00 00 00 00 00 00 00 00 00 00 ................
0040C640 00 00 00 00 00 00 00 00 00 00 00 00 00 00 00 00 ................
0040C650 00 00 00 00 00 00 00 00 00 00 00 00 00 00 00 00 ................
0040C660 00 00 00 00 00 00 00 00 00 00 00 00 00 00 00 00 ................
0040C670 00 00 00 00 00 00 00 00 00 00 00 00 00 00 00 00 ................
0040C680 00 00 00 00 00 00 00 00 00 00 00 00 00 00 00 00 ................
0040C690 00 00 00 00 00 00 00 00 00 00 00 00 00 00 00 00 ................
0040C6A0 00 00 00 00 00 00 00 00 00 00 00 00 00 00 00 00 ................
0040C6B0 00 00 00 00 00 00 00 00 00 00 00 00 00 00 00 00 ................
0040C6C0 00 00 00 00 00 00 00 00 00 00 00 00 00 00 00 00 ................
0040C6D0 00 00 00 00 00 00 00 00 00 00 00 00 00 00 00 00 ................
0040C6E0 00 00 00 00 00 00 00 00 00 00 00 00 00 00 00 00 ................
0040C6F0 00 00 00 00 00 00 00 00 00 00 00 00 00 00 00 00 ................
0040C700 00 00 00 00 00 00 00 00 00 00 00 00 00 00 00 00 ................
0040C710 00 00 00 00 00 00 00 00 00 00 00 00 00 00 00 00 ................
0040C720 00 00 00 00 00 00 00 00 00 00 00 00 00 00 00 00 ................
0040C730 00 00 00 00 00 00 00 00 00 00 00 00 00 00 00 00 ................
0040C740 00 00 00 00 00 00 00 00 00 00 00 00 00 00 00 00 ................
0040C750 00 00 00 00 00 00 00 00 00 00 00 00 00 00 00 00 ................
0040C760 00 00 00 00 00 00 00 00 00 00 00 00 00 00 00 00 ................
0040C770 00 00 00 00 00 00 00 00 00 00 00 00 00 00 00 00 ................
0040C780 00 00 00 00 00 00 00 00 00 00 00 00 00 00 00 00 ................
0040C790 00 00 00 00 00 00 00 00 00 00 00 00 00 00 00 00 ................
0040C7A0 00 00 00 00 00 00 00 00 00 00 00 00 00 00 00 00 ................
0040C7B0 00 00 00 00 00 00 00 00 00 00 00 00 00 00 00 00 ................
0040C7C0 00 00 00 00 00 00 00 00 00 00 00 00 00 00 00 00 ................
0040C7D0 00 00 00 00 00 00 00 00 00 00 00 00 00 00 00 00 ................
0040C7E0 00 00 00 00 00 00 00 00 00 00 00 00 00 00 00 00 ................
0040C7F0 00 00 00 00 00 00 00 00 00 00 00 00 00 00 00 00 ................
0040C800 00 00 00 00 00 00 00 00 00 00 00 00 00 00 00 00 ................
0040C810 00 00 00 00 00 00 00 00 00 00 00 00 00 00 00 00 ................
0040C820 00 00 00 00 00 00 00 00 00 00 00 00 00 00 00 00 ................
0040C830 00 00 00 00 00 00 00 00 00 00 00 00 00 00 00 00 ................
0040C840 00 00 00 00 00 00 00 00 00 00 00 00 00 00 00 00 ................
0040C850 00 00 00 00 00 00 00 00 00 00 00 00 00 00 00 00 ................
0040C860 00 00 00 00 00 00 00 00 00 00 00 00 00 00 00 00 ................
0040C870 00 00 00 00 00 00 00 00 00 00 00 00 00 00 00 00 ................
0040C880 00 00 00 00 00 00 00 00 00 00 00 00 00 00 00 00 ................
0040C890 00 00 00 00 00 00 00 00 00 00 00 00 00 00 00 00 ................
0040C8A0 00 00 00 00 00 00 00 00 00 00 00 00 00 00 00 00 ................
0040C8B0 00 00 00 00 00 00 00 00 00 00 00 00 00 00 00 00 ................
0040C8C0 00 00 00 00 00 00 00 00 00 00 00 00 00 00 00 00 ................
0040C8D0 00 00 00 00 00 00 00 00 00 00 00 00 00 00 00 00 ................
0040C8E0 00 00 00 00 00 00 00 00 00 00 00 00 00 00 00 00 ................
0040C8F0 00 00 00 00 00 00 00 00 00 00 00 00 00 00 00 00 ................
0040C900 00 00 00 00 00 00 00 00 00 00 00 00 00 00 00 00 ................
0040C910 00 00 00 00 00 00 00 00 00 00 00 00 00 00 00 00 ................
0040C920 00 00 00 00 00 00 00 00 00 00 00 00 00 00 00 00 ................
0040C930 00 00 00 00 00 00 00 00 00 00 00 00 00 00 00 00 ................
0040C940 00 00 00 00 00 00 00 00 00 00 00 00 00 00 00 00 ................
0040C950 00 00 00 00 00 00 00 00 00 00 00 00 00 00 00 00 ................
0040C960 00 00 00 00 00 00 00 00 00 00 00 00 00 00 00 00 ................
0040C970 00 00 00 00 00 00 00 00 00 00 00 00 00 00 00 00 ................
0040C980 00 00 00 00 00 00 00 00 00 00 00 00 00 00 00 00 ................
0040C990 00 00 00 00 00 00 00 00 00 00 00 00 00 00 00 00 ................
0040C9A0 00 00 00 00 00 00 00 00 00 00 00 00 00 00 00 00 ................
0040C9B0 00 00 00 00 00 00 00 00 00 00 00 00 00 00 00 00 ................
0040C9C0 00 00 00 00 00 00 00 00 00 00 00 00 00 00 00 00 ................
0040C9D0 00 00 00 00 00 00 00 00 00 00 00 00 00 00 00 00 ................
0040C9E0 00 00 00 00 00 00 00 00 00 00 00 00 00 00 00 00 ................
0040C9F0 00 00 00 00 00 00 00 00 00 00 00 00 00 00 00 00 ................
0040CA00 00 00 00 00 00 00 00 00 00 00 00 00 00 00 00 00 ................
0040CA10 00 00 00 00 00 00 00 00 00 00 00 00 00 00 00 00 ................
0040CA20 00 00 00 00 00 00 00 00 00 00 00 00 00 00 00 00 ................
0040CA30 00 00 00 00 00 00 00 00 00 00 00 00 00 00 00 00 ................
0040CA40 00 00 00 00 00 00 00 00 00 00 00 00 00 00 00 00 ................
0040CA50 00 00 00 00 00 00 00 00 00 00 00 00 00 00 00 00 ................
0040CA60 00 00 00 00 00 00 00 00 00 00 00 00 00 00 00 00 ................
0040CA70 00 00 00 00 00 00 00 00 00 00 00 00 00 00 00 00 ................
0040CA80 00 00 00 00 00 00 00 00 00 00 00 00 00 00 00 00 ................
0040CA90 00 00 00 00 00 00 00 00 00 00 00 00 00 00 00 00 ................
0040CAA0 00 00 00 00 00 00 00 00 00 00 00 00 00 00 00 00 ................
0040CAB0 00 00 00 00 00 00 00 00 00 00 00 00 00 00 00 00 ................
0040CAC0 00 00 00 00 00 00 00 00 00 00 00 00 00 00 00 00 ................
0040CAD0 00 00 00 00 00 00 00 00 00 00 00 00 00 00 00 00 ................
0040CAE0 00 00 00 00 00 00 00 00 00 00 00 00 00 00 00 00 ................
0040CAF0 00 00 00 00 00 00 00 00 00 00 00 00 00 00 00 00 ................
0040CB00 00 00 00 00 00 00 00 00 00 00 00 00 00 00 00 00 ................
0040CB10 00 00 00 00 00 00 00 00 00 00 00 00 00 00 00 00 ................
0040CB20 00 00 00 00 00 00 00 00 00 00 00 00 00 00 00 00 ................
0040CB30 00 00 00 00 00 00 00 00 00 00 00 00 00 00 00 00 ................
0040CB40 00 00 00 00 00 00 00 00 00 00 00 00 00 00 00 00 ................
0040CB50 00 00 00 00 00 00 00 00 00 00 00 00 00 00 00 00 ................
0040CB60 00 00 00 00 00 00 00 00 00 00 00 00 00 00 00 00 ................
0040CB70 00 00 00 00 00 00 00 00 00 00 00 00 00 00 00 00 ................
0040CB80 00 00 00 00 00 00 00 00 00 00 00 00 00 00 00 00 ................
0040CB90 00 00 00 00 00 00 00 00 00 00 00 00 00 00 00 00 ................
0040CBA0 00 00 00 00 00 00 00 00 00 00 00 00 00 00 00 00 ................
0040CBB0 00 00 00 00 00 00 00 00 00 00 00 00 00 00 00 00 ................
0040CBC0 00 00 00 00 00 00 00 00 00 00 00 00 00 00 00 00 ................
0040CBD0 00 00 00 00 00 00 00 00 00 00 00 00 00 00 00 00 ................
0040CBE0 00 00 00 00 00 00 00 00 00 00 00 00 00 00 00 00 ................
0040CBF0 00 00 00 00 00 00 00 00 00 00 00 00 00 00 00 00 ................
0040CC00 00 00 00 00 00 00 00 00 00 00 00 00 00 00 00 00 ................
0040CC10 00 00 00 00 00 00 00 00 00 00 00 00 00 00 00 00 ................
0040CC20 00 00 00 00 00 00 00 00 00 00 00 00 00 00 00 00 ................
0040CC30 00 00 00 00 00 00 00 00 00 00 00 00 00 00 00 00 ................
0040CC40 00 00 00 00 00 00 00 00 00 00 00 00 00 00 00 00 ................
0040CC50 00 00 00 00 00 00 00 00 00 00 00 00 00 00 00 00 ................
0040CC60 00 00 00 00 00 00 00 00 00 00 00 00 00 00 00 00 ................
0040CC70 00 00 00 00 00 00 00 00 00 00 00 00 00 00 00 00 ................
0040CC80 00 00 00 00 00 00 00 00 00 00 00 00 00 00 00 00 ................
0040CC90 00 00 00 00 00 00 00 00 00 00 00 00 00 00 00 00 ................
0040CCA0 00 00 00 00 00 00 00 00 00 00 00 00 00 00 00 00 ................
0040CCB0 00 00 00 00 00 00 00 00 00 00 00 00 00 00 00 00 ................
0040CCC0 00 00 00 00 00 00 00 00 00 00 00 00 00 00 00 00 ................
0040CCD0 00 00 00 00 00 00 00 00 00 00 00 00 00 00 00 00 ................
0040CCE0 00 00 00 00 00 00 00 00 00 00 00 00 00 00 00 00 ................
0040CCF0 00 00 00 00 00 00 00 00 00 00 00 00 00 00 00 00 ................
0040CD00 00 00 00 00 00 00 00 00 00 00 00 00 00 00 00 00 ................
0040CD10 00 00 00 00 00 00 00 00 00 00 00 00 00 00 00 00 ................
0040CD20 00 00 00 00 00 00 00 00 00 00 00 00 00 00 00 00 ................
0040CD30 00 00 00 00 00 00 00 00 00 00 00 00 00 00 00 00 ................
0040CD40 00 00 00 00 00 00 00 00 00 00 00 00 00 00 00 00 ................
0040CD50 00 00 00 00 00 00 00 00 00 00 00 00 00 00 00 00 ................
0040CD60 00 00 00 00 00 00 00 00 00 00 00 00 00 00 00 00 ................
0040CD70 00 00 00 00 00 00 00 00 00 00 00 00 00 00 00 00 ................
0040CD80 00 00 00 00 00 00 00 00 00 00 00 00 00 00 00 00 ................
0040CD90 00 00 00 00 00 00 00 00 00 00 00 00 00 00 00 00 ................
0040CDA0 00 00 00 00 00 00 00 00 00 00 00 00 00 00 00 00 ................
0040CDB0 00 00 00 00 00 00 00 00 00 00 00 00 00 00 00 00 ................
0040CDC0 00 00 00 00 00 00 00 00 00 00 00 00 00 00 00 00 ................
0040CDD0 00 00 00 00 00 00 00 00 00 00 00 00 00 00 00 00 ................
0040CDE0 00 00 00 00 00 00 00 00 00 00 00 00 00 00 00 00 ................
0040CDF0 00 00 00 00 00 00 00 00 00 00 00 00 00 00 00 00 ................
0040CE00 00 00 00 00 00 00 00 00 00 00 00 00 00 00 00 00 ................
0040CE10 00 00 00 00 00 00 00 00 00 00 00 00 00 00 00 00 ................
0040CE20 00 00 00 00 00 00 00 00 00 00 00 00 00 00 00 00 ................
0040CE30 00 00 00 00 00 00 00 00 00 00 00 00 00 00 00 00 ................
0040CE40 00 00 00 00 00 00 00 00 00 00 00 00 00 00 00 00 ................
0040CE50 00 00 00 00 00 00 00 00 00 00 00 00 00 00 00 00 ................
0040CE60 00 00 00 00 00 00 00 00 00 00 00 00 00 00 00 00 ................
0040CE70 00 00 00 00 00 00 00 00 00 00 00 00 00 00 00 00 ................
0040CE80 00 00 00 00 00 00 00 00 00 00 00 00 00 00 00 00 ................
0040CE90 00 00 00 00 00 00 00 00 00 00 00 00 00 00 00 00 ................
0040CEA0 00 00 00 00 00 00 00 00 00 00 00 00 00 00 00 00 ................
0040CEB0 00 00 00 00 00 00 00 00 00 00 00 00 00 00 00 00 ................
0040CEC0 00 00 00 00 00 00 00 00 00 00 00 00 00 00 00 00 ................
0040CED0 00 00 00 00 00 00 00 00 00 00 00 00 00 00 00 00 ................
0040CEE0 00 00 00 00 00 00 00 00 00 00 00 00 00 00 00 00 ................
0040CEF0 00 00 00 00 00 00 00 00 00 00 00 00 00 00 00 00 ................
0040CF00 00 00 00 00 00 00 00 00 00 00 00 00 00 00 00 00 ................
0040CF10 00 00 00 00 00 00 00 00 00 00 00 00 00 00 00 00 ................
0040CF20 00 00 00 00 00 00 00 00 00 00 00 00 00 00 00 00 ................
0040CF30 00 00 00 00 00 00 00 00 00 00 00 00 00 00 00 00 ................
0040CF40 00 00 00 00 00 00 00 00 00 00 00 00 00 00 00 00 ................
0040CF50 00 00 00 00 00 00 00 00 00 00 00 00 00 00 00 00 ................
0040CF60 00 00 00 00 00 00 00 00 00 00 00 00 00 00 00 00 ................
0040CF70 00 00 00 00 00 00 00 00 00 00 00 00 00 00 00 00 ................
0040CF80 00 00 00 00 00 00 00 00 00 00 00 00 00 00 00 00 ................
0040CF90 00 00 00 00 00 00 00 00 00 00 00 00 00 00 00 00 ................
0040CFA0 00 00 00 00 00 00 00 00 00 00 00 00 00 00 00 00 ................
0040CFB0 00 00 00 00 00 00 00 00 00 00 00 00 00 00 00 00 ................
0040CFC0 00 00 00 00 00 00 00 00 00 00 00 00 00 00 00 00 ................
0040CFD0 00 00 00 00 00 00 00 00 00 00 00 00 00 00 00 00 ................
0040CFE0 00 00 00 00 00 00 00 00 00 00 00 00 00 00 00 00 ................
0040CFF0 00 00 00 00 00 00 00 00 00 00 00 00 00 00 00 00 ................
0040D000 00 00 00 00 00 00 00 00 00 00 00 00 00 00 00 00 ................
0040D010 00 00 00 00 00 00 00 00 00 00 00 00 00 00 00 00 ................
0040D020 00 00 00 00 00 00 00 00 00 00 00 00 00 00 00 00 ................
0040D030 00 00 00 00 00 00 00 00 00 00 00 00 00 00 00 00 ................
0040D040 00 00 00 00 00 00 00 00 00 00 00 00 00 00 00 00 ................
0040D050 00 00 00 00 00 00 00 00 00 00 00 00 00 00 00 00 ................
0040D060 00 00 00 00 00 00 00 00 00 00 00 00 00 00 00 00 ................
0040D070 00 00 00 00 00 00 00 00 00 00 00 00 00 00 00 00 ................
0040D080 00 00 00 00 00 00 00 00 00 00 00 00 00 00 00 00 ................
0040D090 00 00 00 00 00 00 00 00 00 00 00 00 00 00 00 00 ................
0040D0A0 00 00 00 00 00 00 00 00 00 00 00 00 00 00 00 00 ................
0040D0B0 00 00 00 00 00 00 00 00 00 00 00 00 00 00 00 00 ................
0040D0C0 00 00 00 00 00 00 00 00 00 00 00 00 00 00 00 00 ................
0040D0D0 00 00 00 00 00 00 00 00 00 00 00 00 00 00 00 00 ................
0040D0E0 00 00 00 00 00 00 00 00 00 00 00 00 00 00 00 00 ................
0040D0F0 00 00 00 00 00 00 00 00 00 00 00 00 00 00 00 00 ................
0040D100 00 00 00 00 00 00 00 00 00 00 00 00 00 00 00 00 ................
0040D110 00 00 00 00 00 00 00 00 00 00 00 00 00 00 00 00 ................
0040D120 00 00 00 00 00 00 00 00 00 00 00 00 00 00 00 00 ................
0040D130 00 00 00 00 00 00 00 00 00 00 00 00 00 00 00 00 ................
0040D140 00 00 00 00 00 00 00 00 00 00 00 00 00 00 00 00 ................
0040D150 00 00 00 00 00 00 00 00 00 00 00 00 00 00 00 00 ................
0040D160 00 00 00 00 00 00 00 00 00 00 00 00 00 00 00 00 ................
0040D170 00 00 00 00 00 00 00 00 00 00 00 00 00 00 00 00 ................
0040D180 00 00 00 00 00 00 00 00 00 00 00 00 00 00 00 00 ................
0040D190 00 00 00 00 00 00 00 00 00 00 00 00 00 00 00 00 ................
0040D1A0 00 00 00 00 00 00 00 00 00 00 00 00 00 00 00 00 ................
0040D1B0 00 00 00 00 00 00 00 00 00 00 00 00 00 00 00 00 ................
0040D1C0 00 00 00 00 00 00 00 00 00 00 00 00 00 00 00 00 ................
0040D1D0 00 00 00 00 00 00 00 00 00 00 00 00 00 00 00 00 ................
0040D1E0 00 00 00 00 00 00 00 00 00 00 00 00 00 00 00 00 ................
0040D1F0 00 00 00 00 00 00 00 00 00 00 00 00 00 00 00 00 ................
0040D200 00 00 00 00 00 00 00 00 00 00 00 00 00 00 00 00 ................
0040D210 00 00 00 00 00 00 00 00 00 00 00 00 00 00 00 00 ................
0040D220 00 00 00 00 00 00 00 00 00 00 00 00 00 00 00 00 ................
0040D230 00 00 00 00 00 00 00 00 00 00 00 00 00 00 00 00 ................
0040D240 00 00 00 00 00 00 00 00 00 00 00 00 00 00 00 00 ................
0040D250 00 00 00 00 00 00 00 00 00 00 00 00 00 00 00 00 ................
0040D260 00 00 00 00 00 00 00 00 00 00 00 00 00 00 00 00 ................
0040D270 00 00 00 00 00 00 00 00 00 00 00 00 00 00 00 00 ................
0040D280 00 00 00 00 00 00 00 00 00 00 00 00 00 00 00 00 ................
0040D290 00 00 00 00 00 00 00 00 00 00 00 00 00 00 00 00 ................
0040D2A0 00 00 00 00 00 00 00 00 00 00 00 00 00 00 00 00 ................
0040D2B0 00 00 00 00 00 00 00 00 00 00 00 00 00 00 00 00 ................
0040D2C0 00 00 00 00 00 00 00 00 00 00 00 00 00 00 00 00 ................
0040D2D0 00 00 00 00 00 00 00 00 00 00 00 00 00 00 00 00 ................
0040D2E0 00 00 00 00 00 00 00 00 00 00 00 00 00 00 00 00 ................
0040D2F0 00 00 00 00 00 00 00 00 00 00 00 00 00 00 00 00 ................
0040D300 00 00 00 00 00 00 00 00 00 00 00 00 00 00 00 00 ................
0040D310 00 00 00 00 00 00 00 00 00 00 00 00 00 00 00 00 ................
0040D320 00 00 00 00 00 00 00 00 00 00 00 00 00 00 00 00 ................
0040D330 00 00 00 00 00 00 00 00 00 00 00 00 00 00 00 00 ................
0040D340 00 00 00 00 00 00 00 00 00 00 00 00 00 00 00 00 ................
0040D350 00 00 00 00 00 00 00 00 00 00 00 00 00 00 00 00 ................
0040D360 00 00 00 00 00 00 00 00 00 00 00 00 00 00 00 00 ................
0040D370 00 00 00 00 00 00 00 00 00 00 00 00 00 00 00 00 ................
0040D380 00 00 00 00 00 00 00 00 00 00 00 00 00 00 00 00 ................
0040D390 00 00 00 00 00 00 00 00 00 00 00 00 00 00 00 00 ................
0040D3A0 00 00 00 00 00 00 00 00 00 00 00 00 00 00 00 00 ................
0040D3B0 00 00 00 00 00 00 00 00 00 00 00 00 00 00 00 00 ................
0040D3C0 00 00 00 00 00 00 00 00 00 00 00 00 00 00 00 00 ................
0040D3D0 00 00 00 00 00 00 00 00 00 00 00 00 00 00 00 00 ................
0040D3E0 00 00 00 00 00 00 00 00 00 00 00 00 00 00 00 00 ................
0040D3F0 00 00 00 00 00 00 00 00 00 00 00 00 00 00 00 00 ................
0040D400 00 00 00 00 00 00 00 00 00 00 00 00 00 00 00 00 ................
0040D410 00 00 00 00 00 00 00 00 00 00 00 00 00 00 00 00 ................
0040D420 00 00 00 00 00 00 00 00 00 00 00 00 00 00 00 00 ................
0040D430 00 00 00 00 00 00 00 00 00 00 00 00 00 00 00 00 ................
0040D440 00 00 00 00 00 00 00 00 00 00 00 00 00 00 00 00 ................
0040D450 00 00 00 00 00 00 00 00 00 00 00 00 00 00 00 00 ................
0040D460 00 00 00 00 00 00 00 00 00 00 00 00 00 00 00 00 ................
0040D470 00 00 00 00 00 00 00 00 00 00 00 00 00 00 00 00 ................
0040D480 00 00 00 00 00 00 00 00 00 00 00 00 00 00 00 00 ................
0040D490 00 00 00 00 00 00 00 00 00 00 00 00 00 00 00 00 ................
0040D4A0 00 00 00 00 00 00 00 00 00 00 00 00 00 00 00 00 ................
0040D4B0 00 00 00 00 00 00 00 00 00 00 00 00 00 00 00 00 ................
0040D4C0 00 00 00 00 00 00 00 00 00 00 00 00 00 00 00 00 ................
0040D4D0 00 00 00 00 00 00 00 00 00 00 00 00 00 00 00 00 ................
0040D4E0 00 00 00 00 00 00 00 00 00 00 00 00 00 00 00 00 ................
0040D4F0 00 00 00 00 00 00 00 00 00 00 00 00 00 00 00 00 ................
0040D500 00 00 00 00 00 00 00 00 00 00 00 00 00 00 00 00 ................
0040D510 00 00 00 00 00 00 00 00 00 00 00 00 00 00 00 00 ................
0040D520 00 00 00 00 00 00 00 00 00 00 00 00 00 00 00 00 ................
0040D530 00 00 00 00 00 00 00 00 00 00 00 00 00 00 00 00 ................
0040D540 00 00 00 00 00 00 00 00 00 00 00 00 00 00 00 00 ................
0040D550 00 00 00 00 00 00 00 00 00 00 00 00 00 00 00 00 ................
0040D560 00 00 00 00 00 00 00 00 00 00 00 00 00 00 00 00 ................
0040D570 00 00 00 00 00 00 00 00 00 00 00 00 00 00 00 00 ................
0040D580 00 00 00 00 00 00 00 00 00 00 00 00 00 00 00 00 ................
0040D590 00 00 00 00 00 00 00 00 00 00 00 00 00 00 00 00 ................
0040D5A0 00 00 00 00 00 00 00 00 00 00 00 00 00 00 00 00 ................
0040D5B0 00 00 00 00 00 00 00 00 00 00 00 00 00 00 00 00 ................
0040D5C0 00 00 00 00 00 00 00 00 00 00 00 00 00 00 00 00 ................
0040D5D0 00 00 00 00 00 00 00 00 00 00 00 00 00 00 00 00 ................
0040D5E0 00 00 00 00 00 00 00 00 00 00 00 00 00 00 00 00 ................
0040D5F0 00 00 00 00 00 00 00 00 00 00 00 00 00 00 00 00 ................
0040D600 00 00 00 00 00 00 00 00 00 00 00 00 00 00 00 00 ................
0040D610 00 00 00 00 00 00 00 00 00 00 00 00 00 00 00 00 ................
0040D620 00 00 00 00 00 00 00 00 00 00 00 00 00 00 00 00 ................
0040D630 00 00 00 00 00 00 00 00 00 00 00 00 00 00 00 00 ................
0040D640 00 00 00 00 00 00 00 00 00 00 00 00 00 00 00 00 ................
0040D650 00 00 00 00 00 00 00 00 00 00 00 00 00 00 00 00 ................
0040D660 00 00 00 00 00 00 00 00 00 00 00 00 00 00 00 00 ................
0040D670 00 00 00 00 00 00 00 00 00 00 00 00 00 00 00 00 ................
0040D680 00 00 00 00 00 00 00 00 00 00 00 00 00 00 00 00 ................
0040D690 00 00 00 00 00 00 00 00 00 00 00 00 00 00 00 00 ................
0040D6A0 00 00 00 00 00 00 00 00 00 00 00 00 00 00 00 00 ................
0040D6B0 00 00 00 00 00 00 00 00 00 00 00 00 00 00 00 00 ................
0040D6C0 00 00 00 00 00 00 00 00 00 00 00 00 00 00 00 00 ................
0040D6D0 00 00 00 00 00 00 00 00 00 00 00 00 00 00 00 00 ................
0040D6E0 00 00 00 00 00 00 00 00 00 00 00 00 00 00 00 00 ................
0040D6F0 00 00 00 00 00 00 00 00 00 00 00 00 00 00 00 00 ................
0040D700 00 00 00 00 00 00 00 00 00 00 00 00 00 00 00 00 ................
0040D710 00 00 00 00 00 00 00 00 00 00 00 00 00 00 00 00 ................
0040D720 00 00 00 00 00 00 00 00 00 00 00 00 00 00 00 00 ................
0040D730 00 00 00 00 00 00 00 00 00 00 00 00 00 00 00 00 ................
0040D740 00 00 00 00 00 00 00 00 00 00 00 00 00 00 00 00 ................
0040D750 00 00 00 00 00 00 00 00 00 00 00 00 00 00 00 00 ................
0040D760 00 00 00 00 00 00 00 00 00 00 00 00 00 00 00 00 ................
0040D770 00 00 00 00 00 00 00 00 00 00 00 00 00 00 00 00 ................
0040D780 00 00 00 00 00 00 00 00 00 00 00 00 00 00 00 00 ................
0040D790 00 00 00 00 00 00 00 00 00 00 00 00 00 00 00 00 ................
0040D7A0 00 00 00 00 00 00 00 00 00 00 00 00 00 00 00 00 ................
0040D7B0 00 00 00 00 00 00 00 00 00 00 00 00 00 00 00 00 ................
0040D7C0 00 00 00 00 00 00 00 00 00 00 00 00 00 00 00 00 ................
0040D7D0 00 00 00 00 00 00 00 00 00 00 00 00 00 00 00 00 ................
0040D7E0 00 00 00 00 00 00 00 00 00 00 00 00 00 00 00 00 ................
0040D7F0 00 00 00 00 00 00 00 00 00 00 00 00 00 00 00 00 ................
0040D800 00 00 00 00 00 00 00 00 00 00 00 00 00 00 00 00 ................
0040D810 00 00 00 00 00 00 00 00 00 00 00 00 00 00 00 00 ................
0040D820 00 00 00 00 00 00 00 00 00 00 00 00 00 00 00 00 ................
0040D830 00 00 00 00 00 00 00 00 00 00 00 00 00 00 00 00 ................
0040D840 00 00 00 00 00 00 00 00 00 00 00 00 00 00 00 00 ................
0040D850 00 00 00 00 00 00 00 00 00 00 00 00 00 00 00 00 ................
0040D860 00 00 00 00 00 00 00 00 00 00 00 00 00 00 00 00 ................
0040D870 00 00 00 00 00 00 00 00 00 00 00 00 00 00 00 00 ................
0040D880 00 00 00 00 00 00 00 00 00 00 00 00 00 00 00 00 ................
0040D890 00 00 00 00 00 00 00 00 00 00 00 00 00 00 00 00 ................
0040D8A0 00 00 00 00 00 00 00 00 00 00 00 00 00 00 00 00 ................
0040D8B0 00 00 00 00 00 00 00 00 00 00 00 00 00 00 00 00 ................
0040D8C0 00 00 00 00 00 00 00 00 00 00 00 00 00 00 00 00 ................
0040D8D0 00 00 00 00 00 00 00 00 00 00 00 00 00 00 00 00 ................
0040D8E0 00 00 00 00 00 00 00 00 00 00 00 00 00 00 00 00 ................
0040D8F0 00 00 00 00 00 00 00 00 00 00 00 00 00 00 00 00 ................
0040D900 00 00 00 00 00 00 00 00 00 00 00 00 00 00 00 00 ................
0040D910 00 00 00 00 00 00 00 00 00 00 00 00 00 00 00 00 ................
0040D920 00 00 00 00 00 00 00 00 00 00 00 00 00 00 00 00 ................
0040D930 00 00 00 00 00 00 00 00 00 00 00 00 00 00 00 00 ................
0040D940 00 00 00 00 00 00 00 00 00 00 00 00 00 00 00 00 ................
0040D950 00 00 00 00 00 00 00 00 00 00 00 00 00 00 00 00 ................
0040D960 00 00 00 00 00 00 00 00 00 00 00 00 00 00 00 00 ................
0040D970 00 00 00 00 00 00 00 00 00 00 00 00 00 00 00 00 ................
0040D980 00 00 00 00 00 00 00 00 00 00 00 00 00 00 00 00 ................
0040D990 00 00 00 00 00 00 00 00 00 00 00 00 00 00 00 00 ................
0040D9A0 00 00 00 00 00 00 00 00 00 00 00 00 00 00 00 00 ................
0040D9B0 00 00 00 00 00 00 00 00 00 00 00 00 00 00 00 00 ................
0040D9C0 00 00 00 00 00 00 00 00 00 00 00 00 00 00 00 00 ................
0040D9D0 00 00 00 00 00 00 00 00 00 00 00 00 00 00 00 00 ................
0040D9E0 00 00 00 00 00 00 00 00 00 00 00 00 00 00 00 00 ................
0040D9F0 00 00 00 00 00 00 00 00 00 00 00 00 00 00 00 00 ................
0040DA00 00 00 00 00 00 00 00 00 00 00 00 00 00 00 00 00 ................
0040DA10 00 00 00 00 00 00 00 00 00 00 00 00 00 00 00 00 ................
0040DA20 00 00 00 00 00 00 00 00 00 00 00 00 00 00 00 00 ................
0040DA30 00 00 00 00 00 00 00 00 00 00 00 00 00 00 00 00 ................
0040DA40 00 00 00 00 00 00 00 00 00 00 00 00 00 00 00 00 ................
0040DA50 00 00 00 00 00 00 00 00 00 00 00 00 00 00 00 00 ................
0040DA60 00 00 00 00 00 00 00 00 00 00 00 00 00 00 00 00 ................
0040DA70 00 00 00 00 00 00 00 00 00 00 00 00 00 00 00 00 ................
0040DA80 00 00 00 00 00 00 00 00 00 00 00 00 00 00 00 00 ................
0040DA90 00 00 00 00 00 00 00 00 00 00 00 00 00 00 00 00 ................
0040DAA0 00 00 00 00 00 00 00 00 00 00 00 00 00 00 00 00 ................
0040DAB0 00 00 00 00 00 00 00 00 00 00 00 00 00 00 00 00 ................
0040DAC0 00 00 00 00 00 00 00 00 00 00 00 00 00 00 00 00 ................
0040DAD0 00 00 00 00 00 00 00 00 00 00 00 00 00 00 00 00 ................
0040DAE0 00 00 00 00 00 00 00 00 00 00 00 00 00 00 00 00 ................
0040DAF0 00 00 00 00 00 00 00 00 00 00 00 00 00 00 00 00 ................
0040DB00 00 00 00 00 00 00 00 00 00 00 00 00 00 00 00 00 ................
0040DB10 00 00 00 00 00 00 00 00 00 00 00 00 00 00 00 00 ................
0040DB20 00 00 00 00 00 00 00 00 00 00 00 00 00 00 00 00 ................
0040DB30 00 00 00 00 00 00 00 00 00 00 00 00 00 00 00 00 ................
0040DB40 00 00 00 00 00 00 00 00 00 00 00 00 00 00 00 00 ................
0040DB50 00 00 00 00 00 00 00 00 00 00 00 00 00 00 00 00 ................
0040DB60 00 00 00 00 00 00 00 00 00 00 00 00 00 00 00 00 ................
0040DB70 00 00 00 00 00 00 00 00 00 00 00 00 00 00 00 00 ................
0040DB80 00 00 00 00 00 00 00 00 00 00 00 00 00 00 00 00 ................
0040DB90 00 00 00 00 00 00 00 00 00 00 00 00 00 00 00 00 ................
0040DBA0 00 00 00 00 00 00 00 00 00 00 00 00 00 00 00 00 ................
0040DBB0 00 00 00 00 00 00 00 00 00 00 00 00 00 00 00 00 ................
0040DBC0 00 00 00 00 00 00 00 00 00 00 00 00 00 00 00 00 ................
0040DBD0 00 00 00 00 00 00 00 00 00 00 00 00 00 00 00 00 ................
0040DBE0 00 00 00 00 00 00 00 00 00 00 00 00 00 00 00 00 ................
0040DBF0 00 00 00 00 00 00 00 00 00 00 00 00 00 00 00 00 ................
0040DC00 00 00 00 00 00 00 00 00 00 00 00 00 00 00 00 00 ................
0040DC10 00 00 00 00 00 00 00 00 00 00 00 00 00 00 00 00 ................
0040DC20 00 00 00 00 00 00 00 00 00 00 00 00 00 00 00 00 ................
0040DC30 00 00 00 00 00 00 00 00 00 00 00 00 00 00 00 00 ................
0040DC40 00 00 00 00 00 00 00 00 00 00 00 00 00 00 00 00 ................
0040DC50 00 00 00 00 00 00 00 00 00 00 00 00 00 00 00 00 ................
0040DC60 00 00 00 00 00 00 00 00 00 00 00 00 00 00 00 00 ................
0040DC70 00 00 00 00 00 00 00 00 00 00 00 00 00 00 00 00 ................
0040DC80 00 00 00 00 00 00 00 00 00 00 00 00 00 00 00 00 ................
0040DC90 00 00 00 00 00 00 00 00 00 00 00 00 00 00 00 00 ................
0040DCA0 00 00 00 00 00 00 00 00 00 00 00 00 00 00 00 00 ................
0040DCB0 00 00 00 00 00 00 00 00 00 00 00 00 00 00 00 00 ................
0040DCC0 00 00 00 00 00 00 00 00 00 00 00 00 00 00 00 00 ................
0040DCD0 00 00 00 00 00 00 00 00 00 00 00 00 00 00 00 00 ................
0040DCE0 00 00 00 00 00 00 00 00 00 00 00 00 00 00 00 00 ................
0040DCF0 00 00 00 00 00 00 00 00 00 00 00 00 00 00 00 00 ................
0040DD00 00 00 00 00 00 00 00 00 00 00 00 00 00 00 00 00 ................
0040DD10 00 00 00 00 00 00 00 00 00 00 00 00 00 00 00 00 ................
0040DD20 00 00 00 00 00 00 00 00 00 00 00 00 00 00 00 00 ................
0040DD30 00 00 00 00 00 00 00 00 00 00 00 00 00 00 00 00 ................
0040DD40 00 00 00 00 00 00 00 00 00 00 00 00 00 00 00 00 ................
0040DD50 00 00 00 00 00 00 00 00 00 00 00 00 00 00 00 00 ................
0040DD60 00 00 00 00 00 00 00 00 00 00 00 00 00 00 00 00 ................
0040DD70 00 00 00 00 00 00 00 00 00 00 00 00 00 00 00 00 ................
0040DD80 00 00 00 00 00 00 00 00 00 00 00 00 00 00 00 00 ................
0040DD90 00 00 00 00 00 00 00 00 00 00 00 00 00 00 00 00 ................
0040DDA0 00 00 00 00 00 00 00 00 00 00 00 00 00 00 00 00 ................
0040DDB0 00 00 00 00 00 00 00 00 00 00 00 00 00 00 00 00 ................
0040DDC0 00 00 00 00 00 00 00 00 00 00 00 00 00 00 00 00 ................
0040DDD0 00 00 00 00 00 00 00 00 00 00 00 00 00 00 00 00 ................
0040DDE0 00 00 00 00 00 00 00 00 00 00 00 00 00 00 00 00 ................
0040DDF0 00 00 00 00 00 00 00 00 00 00 00 00 00 00 00 00 ................
0040DE00 00 00 00 00 00 00 00 00 00 00 00 00 00 00 00 00 ................
0040DE10 00 00 00 00 00 00 00 00 00 00 00 00 00 00 00 00 ................
0040DE20 00 00 00 00 00 00 00 00 00 00 00 00 00 00 00 00 ................
0040DE30 00 00 00 00 00 00 00 00 00 00 00 00 00 00 00 00 ................
0040DE40 00 00 00 00 00 00 00 00 00 00 00 00 00 00 00 00 ................
0040DE50 00 00 00 00 00 00 00 00 00 00 00 00 00 00 00 00 ................
0040DE60 00 00 00 00 00 00 00 00 00 00 00 00 00 00 00 00 ................
0040DE70 00 00 00 00 00 00 00 00 00 00 00 00 00 00 00 00 ................
0040DE80 00 00 00 00 00 00 00 00 00 00 00 00 00 00 00 00 ................
0040DE90 00 00 00 00 00 00 00 00 00 00 00 00 00 00 00 00 ................
0040DEA0 00 00 00 00 00 00 00 00 00 00 00 00 00 00 00 00 ................
0040DEB0 00 00 00 00 00 00 00 00 00 00 00 00 00 00 00 00 ................
0040DEC0 00 00 00 00 00 00 00 00 00 00 00 00 00 00 00 00 ................
0040DED0 00 00 00 00 00 00 00 00 00 00 00 00 00 00 00 00 ................
0040DEE0 00 00 00 00 00 00 00 00 00 00 00 00 00 00 00 00 ................
0040DEF0 00 00 00 00 00 00 00 00 00 00 00 00 00 00 00 00 ................
0040DF00 00 00 00 00 00 00 00 00 00 00 00 00 00 00 00 00 ................
0040DF10 00 00 00 00 00 00 00 00 00 00 00 00 00 00 00 00 ................
0040DF20 00 00 00 00 00 00 00 00 00 00 00 00 00 00 00 00 ................
0040DF30 00 00 00 00 00 00 00 00 00 00 00 00 00 00 00 00 ................
0040DF40 00 00 00 00 00 00 00 00 00 00 00 00 00 00 00 00 ................
0040DF50 00 00 00 00 00 00 00 00 00 00 00 00 00 00 00 00 ................
0040DF60 00 00 00 00 00 00 00 00 00 00 00 00 00 00 00 00 ................
0040DF70 00 00 00 00 00 00 00 00 00 00 00 00 00 00 00 00 ................
0040DF80 00 00 00 00 00 00 00 00 00 00 00 00 00 00 00 00 ................
0040DF90 00 00 00 00 00 00 00 00 00 00 00 00 00 00 00 00 ................
0040DFA0 00 00 00 00 00 00 00 00 00 00 00 00 00 00 00 00 ................
0040DFB0 00 00 00 00 00 00 00 00 00 00 00 00 00 00 00 00 ................
0040DFC0 00 00 00 00 00 00 00 00 00 00 00 00 00 00 00 00 ................
0040DFD0 00 00 00 00 00 00 00 00 00 00 00 00 00 00 00 00 ................
0040DFE0 00 00 00 00 00 00 00 00 00 00 00 00 00 00 00 00 ................
0040DFF0 00 00 00 00 00 00 00 00 00 00 00 00 00 00 00 00 ................
0040E000 00 00 00 00 00 00 00 00 00 00 00 00 00 00 00 00 ................
0040E010 00 00 00 00 00 00 00 00 00 00 00 00 00 00 00 00 ................
0040E020 00 00 00 00 00 00 00 00 00 00 00 00 00 00 00 00 ................
0040E030 00 00 00 00 00 00 00 00 00 00 00 00 00 00 00 00 ................
0040E040 00 00 00 00 00 00 00 00 00 00 00 00 00 00 00 00 ................
0040E050 00 00 00 00 00 00 00 00 00 00 00 00 00 00 00 00 ................
0040E060 00 00 00 00 00 00 00 00 00 00 00 00 00 00 00 00 ................
0040E070 00 00 00 00 00 00 00 00 00 00 00 00 00 00 00 00 ................
0040E080 00 00 00 00 00 00 00 00 00 00 00 00 00 00 00 00 ................
0040E090 00 00 00 00 00 00 00 00 00 00 00 00 00 00 00 00 ................
0040E0A0 00 00 00 00 00 00 00 00 00 00 00 00 00 00 00 00 ................
0040E0B0 00 00 00 00 00 00 00 00 00 00 00 00 00 00 00 00 ................
0040E0C0 00 00 00 00 00 00 00 00 00 00 00 00 00 00 00 00 ................
0040E0D0 00 00 00 00 00 00 00 00 00 00 00 00 00 00 00 00 ................
0040E0E0 00 00 00 00 00 00 00 00 00 00 00 00 00 00 00 00 ................
0040E0F0 00 00 00 00 00 00 00 00 00 00 00 00 00 00 00 00 ................
0040E100 00 00 00 00 00 00 00 00 00 00 00 00 00 00 00 00 ................
0040E110 00 00 00 00 00 00 00 00 00 00 00 00 00 00 00 00 ................
0040E120 00 00 00 00 00 00 00 00 00 00 00 00 00 00 00 00 ................
0040E130 00 00 00 00 00 00 00 00 00 00 00 00 00 00 00 00 ................
0040E140 00 00 00 00 00 00 00 00 00 00 00 00 00 00 00 00 ................
0040E150 00 00 00 00 00 00 00 00 00 00 00 00 00 00 00 00 ................
0040E160 00 00 00 00 00 00 00 00 00 00 00 00 00 00 00 00 ................
0040E170 00 00 00 00 00 00 00 00 00 00 00 00 00 00 00 00 ................
0040E180 00 00 00 00 00 00 00 00 00 00 00 00 00 00 00 00 ................
0040E190 00 00 00 00 00 00 00 00 00 00 00 00 00 00 00 00 ................
0040E1A0 00 00 00 00 00 00 00 00 00 00 00 00 00 00 00 00 ................
0040E1B0 00 00 00 00 00 00 00 00 00 00 00 00 00 00 00 00 ................
0040E1C0 00 00 00 00 00 00 00 00 00 00 00 00 00 00 00 00 ................
0040E1D0 00 00 00 00 00 00 00 00 00 00 00 00 00 00 00 00 ................
0040E1E0 00 00 00 00 00 00 00 00 00 00 00 00 00 00 00 00 ................
0040E1F0 00 00 00 00 00 00 00 00 00 00 00 00 00 00 00 00 ................
0040E200 00 00 00 00 00 00 00 00 00 00 00 00 00 00 00 00 ................
0040E210 00 00 00 00 00 00 00 00 00 00 00 00 00 00 00 00 ................
0040E220 00 00 00 00 00 00 00 00 00 00 00 00 00 00 00 00 ................
0040E230 00 00 00 00 00 00 00 00 00 00 00 00 00 00 00 00 ................
0040E240 00 00 00 00 00 00 00 00 00 00 00 00 00 00 00 00 ................
0040E250 00 00 00 00 00 00 00 00 00 00 00 00 00 00 00 00 ................
0040E260 00 00 00 00 00 00 00 00 00 00 00 00 00 00 00 00 ................
0040E270 00 00 00 00 00 00 00 00 00 00 00 00 00 00 00 00 ................
0040E280 00 00 00 00 00 00 00 00 00 00 00 00 00 00 00 00 ................
0040E290 00 00 00 00 00 00 00 00 00 00 00 00 00 00 00 00 ................
0040E2A0 00 00 00 00 00 00 00 00 00 00 00 00 00 00 00 00 ................
0040E2B0 00 00 00 00 00 00 00 00 00 00 00 00 00 00 00 00 ................
0040E2C0 00 00 00 00 00 00 00 00 00 00 00 00 00 00 00 00 ................
0040E2D0 00 00 00 00 00 00 00 00 00 00 00 00 00 00 00 00 ................
0040E2E0 00 00 00 00 00 00 00 00 00 00 00 00 00 00 00 00 ................
0040E2F0 00 00 00 00 00 00 00 00 00 00 00 00 00 00 00 00 ................
0040E300 00 00 00 00 00 00 00 00 00 00 00 00 00 00 00 00 ................
0040E310 00 00 00 00 00 00 00 00 00 00 00 00 00 00 00 00 ................
0040E320 00 00 00 00 00 00 00 00 00 00 00 00 00 00 00 00 ................
0040E330 00 00 00 00 00 00 00 00 00 00 00 00 00 00 00 00 ................
0040E340 00 00 00 00 00 00 00 00 00 00 00 00 00 00 00 00 ................
0040E350 00 00 00 00 00 00 00 00 00 00 00 00 00 00 00 00 ................
0040E360 00 00 00 00 00 00 00 00 00 00 00 00 00 00 00 00 ................
0040E370 00 00 00 00 00 00 00 00 00 00 00 00 00 00 00 00 ................
0040E380 00 00 00 00 00 00 00 00 00 00 00 00 00 00 00 00 ................
0040E390 00 00 00 00 00 00 00 00 00 00 00 00 00 00 00 00 ................
0040E3A0 00 00 00 00 00 00 00 00 00 00 00 00 00 00 00 00 ................
0040E3B0 00 00 00 00 00 00 00 00 00 00 00 00 00 00 00 00 ................
0040E3C0 00 00 00 00 00 00 00 00 00 00 00 00 00 00 00 00 ................
0040E3D0 00 00 00 00 00 00 00 00 00 00 00 00 00 00 00 00 ................
0040E3E0 00 00 00 00 00 00 00 00 00 00 00 00 00 00 00 00 ................
0040E3F0 00 00 00 00 00 00 00 00 00 00 00 00 00 00 00 00 ................
0040E400 00 00 00 00 00 00 00 00 00 00 00 00 00 00 00 00 ................
0040E410 00 00 00 00 00 00 00 00 00 00 00 00 00 00 00 00 ................
0040E420 00 00 00 00 00 00 00 00 00 00 00 00 00 00 00 00 ................
0040E430 00 00 00 00 00 00 00 00 00 00 00 00 00 00 00 00 ................
0040E440 00 00 00 00 00 00 00 00 00 00 00 00 00 00 00 00 ................
0040E450 00 00 00 00 00 00 00 00 00 00 00 00 00 00 00 00 ................
0040E460 00 00 00 00 00 00 00 00 00 00 00 00 00 00 00 00 ................
0040E470 00 00 00 00 00 00 00 00 00 00 00 00 00 00 00 00 ................
0040E480 00 00 00 00 00 00 00 00 00 00 00 00 00 00 00 00 ................
0040E490 00 00 00 00 00 00 00 00 00 00 00 00 00 00 00 00 ................
0040E4A0 00 00 00 00 00 00 00 00 00 00 00 00 00 00 00 00 ................
0040E4B0 00 00 00 00 00 00 00 00 00 00 00 00 00 00 00 00 ................
0040E4C0 00 00 00 00 00 00 00 00 00 00 00 00 00 00 00 00 ................
0040E4D0 00 00 00 00 00 00 00 00 00 00 00 00 00 00 00 00 ................
0040E4E0 00 00 00 00 00 00 00 00 00 00 00 00 00 00 00 00 ................
0040E4F0 00 00 00 00 00 00 00 00 00 00 00 00 00 00 00 00 ................
0040E500 00 00 00 00 00 00 00 00 00 00 00 00 00 00 00 00 ................
0040E510 00 00 00 00 00 00 00 00 00 00 00 00 00 00 00 00 ................
0040E520 00 00 00 00 00 00 00 00 00 00 00 00 00 00 00 00 ................
0040E530 00 00 00 00 00 00 00 00 00 00 00 00 00 00 00 00 ................
0040E540 00 00 00 00 00 00 00 00 00 00 00 00 00 00 00 00 ................
0040E550 00 00 00 00 00 00 00 00 00 00 00 00 00 00 00 00 ................
0040E560 00 00 00 00 00 00 00 00 00 00 00 00 00 00 00 00 ................
0040E570 00 00 00 00 00 00 00 00 00 00 00 00 00 00 00 00 ................
0040E580 00 00 00 00 00 00 00 00 00 00 00 00 00 00 00 00 ................
0040E590 00 00 00 00 00 00 00 00 00 00 00 00 00 00 00 00 ................
0040E5A0 00 00 00 00 00 00 00 00 00 00 00 00 00 00 00 00 ................
0040E5B0 00 00 00 00 00 00 00 00 00 00 00 00 00 00 00 00 ................
0040E5C0 00 00 00 00 00 00 00 00 00 00 00 00 00 00 00 00 ................
0040E5D0 00 00 00 00 00 00 00 00 00 00 00 00 00 00 00 00 ................
0040E5E0 00 00 00 00 00 00 00 00 00 00 00 00 00 00 00 00 ................
0040E5F0 00 00 00 00 00 00 00 00 00 00 00 00 00 00 00 00 ................
0040E600 00 00 00 00 00 00 00 00 00 00 00 00 00 00 00 00 ................
0040E610 00 00 00 00 00 00 00 00 00 00 00 00 00 00 00 00 ................
0040E620 00 00 00 00 00 00 00 00 00 00 00 00 00 00 00 00 ................
0040E630 00 00 00 00 00 00 00 00 00 00 00 00 00 00 00 00 ................
0040E640 00 00 00 00 00 00 00 00 00 00 00 00 00 00 00 00 ................
0040E650 00 00 00 00 00 00 00 00 00 00 00 00 00 00 00 00 ................
0040E660 00 00 00 00 00 00 00 00 00 00 00 00 00 00 00 00 ................
0040E670 00 00 00 00 00 00 00 00 00 00 00 00 00 00 00 00 ................
0040E680 00 00 00 00 00 00 00 00 00 00 00 00 00 00 00 00 ................
0040E690 00 00 00 00 00 00 00 00 00 00 00 00 00 00 00 00 ................
0040E6A0 00 00 00 00 00 00 00 00 00 00 00 00 00 00 00 00 ................
0040E6B0 00 00 00 00 00 00 00 00 00 00 00 00 00 00 00 00 ................
0040E6C0 00 00 00 00 00 00 00 00 00 00 00 00 00 00 00 00 ................
0040E6D0 00 00 00 00 00 00 00 00 00 00 00 00 00 00 00 00 ................
0040E6E0 00 00 00 00 00 00 00 00 00 00 00 00 00 00 00 00 ................
0040E6F0 00 00 00 00 00 00 00 00 00 00 00 00 00 00 00 00 ................
0040E700 00 00 00 00 00 00 00 00 00 00 00 00 00 00 00 00 ................
0040E710 00 00 00 00 00 00 00 00 00 00 00 00 00 00 00 00 ................
0040E720 00 00 00 00 00 00 00 00 00 00 00 00 00 00 00 00 ................
0040E730 00 00 00 00 00 00 00 00 00 00 00 00 00 00 00 00 ................
0040E740 00 00 00 00 00 00 00 00 00 00 00 00 00 00 00 00 ................
0040E750 00 00 00 00 00 00 00 00 00 00 00 00 00 00 00 00 ................
0040E760 00 00 00 00 00 00 00 00 00 00 00 00 00 00 00 00 ................
0040E770 00 00 00 00 00 00 00 00 00 00 00 00 00 00 00 00 ................
0040E780 00 00 00 00 00 00 00 00 00 00 00 00 00 00 00 00 ................
0040E790 00 00 00 00 00 00 00 00 00 00 00 00 00 00 00 00 ................
0040E7A0 00 00 00 00 00 00 00 00 00 00 00 00 00 00 00 00 ................
0040E7B0 00 00 00 00 00 00 00 00 00 00 00 00 00 00 00 00 ................
0040E7C0 00 00 00 00 00 00 00 00 00 00 00 00 00 00 00 00 ................
0040E7D0 00 00 00 00 00 00 00 00 00 00 00 00 00 00 00 00 ................
0040E7E0 00 00 00 00 00 00 00 00 00 00 00 00 00 00 00 00 ................
0040E7F0 00 00 00 00 00 00 00 00 00 00 00 00 00 00 00 00 ................
0040E800 00 00 00 00 00 00 00 00 00 00 00 00 00 00 00 00 ................
0040E810 00 00 00 00 00 00 00 00 00 00 00 00 00 00 00 00 ................
0040E820 00 00 00 00 00 00 00 00 00 00 00 00 00 00 00 00 ................
0040E830 00 00 00 00 00 00 00 00 00 00 00 00 00 00 00 00 ................
0040E840 00 00 00 00 00 00 00 00 00 00 00 00 00 00 00 00 ................
0040E850 00 00 00 00 00 00 00 00 00 00 00 00 00 00 00 00 ................
0040E860 00 00 00 00 00 00 00 00 00 00 00 00 00 00 00 00 ................
0040E870 00 00 00 00 00 00 00 00 00 00 00 00 00 00 00 00 ................
0040E880 00 00 00 00 00 00 00 00 00 00 00 00 00 00 00 00 ................
0040E890 00 00 00 00 00 00 00 00 00 00 00 00 00 00 00 00 ................
0040E8A0 00 00 00 00 00 00 00 00 00 00 00 00 00 00 00 00 ................
0040E8B0 00 00 00 00 00 00 00 00 00 00 00 00 00 00 00 00 ................
0040E8C0 00 00 00 00 00 00 00 00 00 00 00 00 00 00 00 00 ................
0040E8D0 00 00 00 00 00 00 00 00 00 00 00 00 00 00 00 00 ................
0040E8E0 00 00 00 00 00 00 00 00 00 00 00 00 00 00 00 00 ................
0040E8F0 00 00 00 00 00 00 00 00 00 00 00 00 00 00 00 00 ................
0040E900 00 00 00 00 00 00 00 00 00 00 00 00 00 00 00 00 ................
0040E910 00 00 00 00 00 00 00 00 00 00 00 00 00 00 00 00 ................
0040E920 00 00 00 00 00 00 00 00 00 00 00 00 00 00 00 00 ................
0040E930 00 00 00 00 00 00 00 00 00 00 00 00 00 00 00 00 ................
0040E940 00 00 00 00 00 00 00 00 00 00 00 00 00 00 00 00 ................
0040E950 00 00 00 00 00 00 00 00 00 00 00 00 00 00 00 00 ................
0040E960 00 00 00 00 00 00 00 00 00 00 00 00 00 00 00 00 ................
0040E970 00 00 00 00 00 00 00 00 00 00 00 00 00 00 00 00 ................
0040E980 00 00 00 00 00 00 00 00 00 00 00 00 00 00 00 00 ................
0040E990 00 00 00 00 00 00 00 00 00 00 00 00 00 00 00 00 ................
0040E9A0 00 00 00 00 00 00 00 00 00 00 00 00 00 00 00 00 ................
0040E9B0 00 00 00 00 00 00 00 00 00 00 00 00 00 00 00 00 ................
0040E9C0 00 00 00 00 00 00 00 00 00 00 00 00 00 00 00 00 ................
0040E9D0 00 00 00 00 00 00 00 00 00 00 00 00 00 00 00 00 ................
0040E9E0 00 00 00 00 00 00 00 00 00 00 00 00 00 00 00 00 ................
0040E9F0 00 00 00 00 00 00 00 00 00 00 00 00 00 00 00 00 ................
0040EA00 00 00 00 00 00 00 00 00 00 00 00 00 00 00 00 00 ................
0040EA10 00 00 00 00 00 00 00 00 00 00 00 00 00 00 00 00 ................
0040EA20 00 00 00 00 00 00 00 00 00 00 00 00 00 00 00 00 ................
0040EA30 00 00 00 00 00 00 00 00 00 00 00 00 00 00 00 00 ................
0040EA40 00 00 00 00 00 00 00 00 00 00 00 00 00 00 00 00 ................
0040EA50 00 00 00 00 00 00 00 00 00 00 00 00 00 00 00 00 ................
0040EA60 00 00 00 00 00 00 00 00 00 00 00 00 00 00 00 00 ................
0040EA70 00 00 00 00 00 00 00 00 00 00 00 00 00 00 00 00 ................
0040EA80 00 00 00 00 00 00 00 00 00 00 00 00 00 00 00 00 ................
0040EA90 00 00 00 00 00 00 00 00 00 00 00 00 00 00 00 00 ................
0040EAA0 00 00 00 00 00 00 00 00 00 00 00 00 00 00 00 00 ................
0040EAB0 00 00 00 00 00 00 00 00 00 00 00 00 00 00 00 00 ................
0040EAC0 00 00 00 00 00 00 00 00 00 00 00 00 00 00 00 00 ................
0040EAD0 00 00 00 00 00 00 00 00 00 00 00 00 00 00 00 00 ................
0040EAE0 00 00 00 00 00 00 00 00 00 00 00 00 00 00 00 00 ................
0040EAF0 00 00 00 00 00 00 00 00 00 00 00 00 00 00 00 00 ................
0040EB00 00 00 00 00 00 00 00 00 00 00 00 00 00 00 00 00 ................
0040EB10 00 00 00 00 00 00 00 00 00 00 00 00 00 00 00 00 ................
0040EB20 00 00 00 00 00 00 00 00 00 00 00 00 00 00 00 00 ................
0040EB30 00 00 00 00 00 00 00 00 00 00 00 00 00 00 00 00 ................
0040EB40 00 00 00 00 00 00 00 00 00 00 00 00 00 00 00 00 ................
0040EB50 00 00 00 00 00 00 00 00 00 00 00 00 00 00 00 00 ................
0040EB60 00 00 00 00 00 00 00 00 00 00 00 00 00 00 00 00 ................
0040EB70 00 00 00 00 00 00 00 00 00 00 00 00 00 00 00 00 ................
0040EB80 00 00 00 00 00 00 00 00 00 00 00 00 00 00 00 00 ................
0040EB90 00 00 00 00 00 00 00 00 00 00 00 00 00 00 00 00 ................
0040EBA0 00 00 00 00 00 00 00 00 00 00 00 00 00 00 00 00 ................
0040EBB0 00 00 00 00 00 00 00 00 00 00 00 00 00 00 00 00 ................
0040EBC0 00 00 00 00 00 00 00 00 00 00 00 00 00 00 00 00 ................
0040EBD0 00 00 00 00 00 00 00 00 00 00 00 00 00 00 00 00 ................
0040EBE0 00 00 00 00 00 00 00 00 00 00 00 00 00 00 00 00 ................
0040EBF0 00 00 00 00 00 00 00 00 00 00 00 00 00 00 00 00 ................
0040EC00 00 00 00 00 00 00 00 00 00 00 00 00 00 00 00 00 ................
0040EC10 00 00 00 00 00 00 00 00 00 00 00 00 00 00 00 00 ................
0040EC20 00 00 00 00 00 00 00 00 00 00 00 00 00 00 00 00 ................
0040EC30 00 00 00 00 00 00 00 00 00 00 00 00 00 00 00 00 ................
0040EC40 00 00 00 00 00 00 00 00 00 00 00 00 00 00 00 00 ................
0040EC50 00 00 00 00 00 00 00 00 00 00 00 00 00 00 00 00 ................
0040EC60 00 00 00 00 00 00 00 00 00 00 00 00 00 00 00 00 ................
0040EC70 00 00 00 00 00 00 00 00 00 00 00 00 00 00 00 00 ................
0040EC80 00 00 00 00 00 00 00 00 00 00 00 00 00 00 00 00 ................
0040EC90 00 00 00 00 00 00 00 00 00 00 00 00 00 00 00 00 ................
0040ECA0 00 00 00 00 00 00 00 00 00 00 00 00 00 00 00 00 ................
0040ECB0 00 00 00 00 00 00 00 00 00 00 00 00 00 00 00 00 ................
0040ECC0 00 00 00 00 00 00 00 00 00 00 00 00 00 00 00 00 ................
0040ECD0 00 00 00 00 00 00 00 00 00 00 00 00 00 00 00 00 ................
0040ECE0 00 00 00 00 00 00 00 00 00 00 00 00 00 00 00 00 ................
0040ECF0 00 00 00 00 00 00 00 00 00 00 00 00 00 00 00 00 ................
0040ED00 00 00 00 00 00 00 00 00 00 00 00 00 00 00 00 00 ................
0040ED10 00 00 00 00 00 00 00 00 00 00 00 00 00 00 00 00 ................
0040ED20 00 00 00 00 00 00 00 00 00 00 00 00 00 00 00 00 ................
0040ED30 00 00 00 00 00 00 00 00 00 00 00 00 00 00 00 00 ................
0040ED40 00 00 00 00 00 00 00 00 00 00 00 00 00 00 00 00 ................
0040ED50 00 00 00 00 00 00 00 00 00 00 00 00 00 00 00 00 ................
0040ED60 00 00 00 00 00 00 00 00 00 00 00 00 00 00 00 00 ................
0040ED70 00 00 00 00 00 00 00 00 00 00 00 00 00 00 00 00 ................
0040ED80 00 00 00 00 00 00 00 00 00 00 00 00 00 00 00 00 ................
0040ED90 00 00 00 00 00 00 00 00 00 00 00 00 00 00 00 00 ................
0040EDA0 00 00 00 00 00 00 00 00 00 00 00 00 00 00 00 00 ................
0040EDB0 00 00 00 00 00 00 00 00 00 00 00 00 00 00 00 00 ................
0040EDC0 00 00 00 00 00 00 00 00 00 00 00 00 00 00 00 00 ................
0040EDD0 00 00 00 00 00 00 00 00 00 00 00 00 00 00 00 00 ................
0040EDE0 00 00 00 00 00 00 00 00 00 00 00 00 00 00 00 00 ................
0040EDF0 00 00 00 00 00 00 00 00 00 00 00 00 00 00 00 00 ................
0040EE00 00 00 00 00 00 00 00 00 00 00 00 00 00 00 00 00 ................
0040EE10 00 00 00 00 00 00 00 00 00 00 00 00 00 00 00 00 ................
0040EE20 00 00 00 00 00 00 00 00 00 00 00 00 00 00 00 00 ................
0040EE30 00 00 00 00 00 00 00 00 00 00 00 00 00 00 00 00 ................
0040EE40 00 00 00 00 00 00 00 00 00 00 00 00 00 00 00 00 ................
0040EE50 00 00 00 00 00 00 00 00 00 00 00 00 00 00 00 00 ................
0040EE60 00 00 00 00 00 00 00 00 00 00 00 00 00 00 00 00 ................
0040EE70 00 00 00 00 00 00 00 00 00 00 00 00 00 00 00 00 ................
0040EE80 00 00 00 00 00 00 00 00 00 00 00 00 00 00 00 00 ................
0040EE90 00 00 00 00 00 00 00 00 00 00 00 00 00 00 00 00 ................
0040EEA0 00 00 00 00 00 00 00 00 00 00 00 00 00 00 00 00 ................
0040EEB0 00 00 00 00 00 00 00 00 00 00 00 00 00 00 00 00 ................
0040EEC0 00 00 00 00 00 00 00 00 00 00 00 00 00 00 00 00 ................
0040EED0 00 00 00 00 00 00 00 00 00 00 00 00 00 00 00 00 ................
0040EEE0 00 00 00 00 00 00 00 00 00 00 00 00 00 00 00 00 ................
0040EEF0 00 00 00 00 00 00 00 00 00 00 00 00 00 00 00 00 ................
0040EF00 00 00 00 00 00 00 00 00 00 00 00 00 00 00 00 00 ................
0040EF10 00 00 00 00 00 00 00 00 00 00 00 00 00 00 00 00 ................
0040EF20 00 00 00 00 00 00 00 00 00 00 00 00 00 00 00 00 ................
0040EF30 00 00 00 00 00 00 00 00 00 00 00 00 00 00 00 00 ................
0040EF40 00 00 00 00 00 00 00 00 00 00 00 00 00 00 00 00 ................
0040EF50 00 00 00 00 00 00 00 00 00 00 00 00 00 00 00 00 ................
0040EF60 00 00 00 00 00 00 00 00 00 00 00 00 00 00 00 00 ................
0040EF70 00 00 00 00 00 00 00 00 00 00 00 00 00 00 00 00 ................
0040EF80 00 00 00 00 00 00 00 00 00 00 00 00 00 00 00 00 ................
0040EF90 00 00 00 00 00 00 00 00 00 00 00 00 00 00 00 00 ................
0040EFA0 00 00 00 00 00 00 00 00 00 00 00 00 00 00 00 00 ................
0040EFB0 00 00 00 00 00 00 00 00 00 00 00 00 00 00 00 00 ................
0040EFC0 00 00 00 00 00 00 00 00 00 00 00 00 00 00 00 00 ................
0040EFD0 00 00 00 00 00 00 00 00 00 00 00 00 00 00 00 00 ................
0040EFE0 00 00 00 00 00 00 00 00 00 00 00 00 00 00 00 00 ................
0040EFF0 00 00 00 00 00 00 00 00 00 00 00 00 00 00 00 00 ................
0040F000 F8 F2 00 00 08 F3 00 00 16 F3 00 00 22 F3 00 00 ............"...
0040F010 2E F3 00 00 44 F3 00 00 54 F3 00 00 60 F3 00 00 ....D...T...`...
0040F020 76 F3 00 00 84 F3 00 00 96 F3 00 00 A6 F3 00 00 v...............
0040F030 BE F3 00 00 CE F3 00 00 EC F3 00 00 02 F4 00 00 ................
0040F040 12 F4 00 00 20 F4 00 00 2C F4 00 00 40 F4 00 00 .... ...,...@...
0040F050 56 F4 00 00 66 F4 00 00 80 F4 00 00 90 F4 00 00 V...f...........
0040F060 A4 F4 00 00 BC F4 00 00 D0 F4 00 00 DC F4 00 00 ................
0040F070 EA F4 00 00 00 F5 00 00 0E F5 00 00 1A F5 00 00 ................
0040F080 34 F5 00 00 4C F5 00 00 60 F5 00 00 7A F5 00 00 4...L...`...z...
0040F090 88 F5 00 00 9E F5 00 00 BC F5 00 00 C8 F5 00 00 ................
0040F0A0 D6 F5 00 00 E8 F5 00 00 F4 F5 00 00 08 F6 00 00 ................
0040F0B0 14 F6 00 00 30 F6 00 00 42 F6 00 00 4E F6 00 00 ....0...B...N...
0040F0C0 64 F6 00 00 00 00 00 00 84 F6 00 00 90 F6 00 00 d...............
0040F0D0 9E F6 00 00 AA F6 00 00 B8 F6 00 00 C8 F6 00 00 ................
0040F0E0 DC F6 00 00 F2 F6 00 00 00 F7 00 00 12 F7 00 00 ................
0040F0F0 1E F7 00 00 30 F7 00 00 42 F7 00 00 50 F7 00 00 ....0...B...P...
0040F100 66 F7 00 00 74 F7 00 00 80 F7 00 00 92 F7 00 00 f...t...........
0040F110 A2 F7 00 00 B2 F7 00 00 BE F7 00 00 CA F7 00 00 ................
0040F120 D6 F7 00 00 E2 F7 00 00 F8 F7 00 00 06 F8 00 00 ................
0040F130 12 F8 00 00 22 F8 00 00 30 F8 00 00 42 F8 00 00 ...."...0...B...
0040F140 52 F8 00 00 60 F8 00 00 70 F8 00 00 7C F8 00 00 R...`...p...|...
0040F150 88 F8 00 00 94 F8 00 00 00 00 00 00 00 00 00 00 ................
0040F160 9C F1 00 00 00 00 00 00 00 00 00 00 76 F6 00 00 ............v...
0040F170 00 F0 00 00 64 F2 00 00 00 00 00 00 00 00 00 00 ....d...........
0040F180 A0 F8 00 00 C8 F0 00 00 00 00 00 00 00 00 00 00 ................
0040F190 00 00 00 00 00 00 00 00 00 00 00 00 F8 F2 00 00 ................
0040F1A0 08 F3 00 00 16 F3 00 00 22 F3 00 00 2E F3 00 00 ........".......
0040F1B0 44 F3 00 00 54 F3 00 00 60 F3 00 00 76 F3 00 00 D...T...`...v...
0040F1C0 84 F3 00 00 96 F3 00 00 A6 F3 00 00 BE F3 00 00 ................
0040F1D0 CE F3 00 00 EC F3 00 00 02 F4 00 00 12 F4 00 00 ................
0040F1E0 20 F4 00 00 2C F4 00 00 40 F4 00 00 56 F4 00 00  ...,...@...V...
0040F1F0 66 F4 00 00 80 F4 00 00 90 F4 00 00 A4 F4 00 00 f...............
0040F200 BC F4 00 00 D0 F4 00 00 DC F4 00 00 EA F4 00 00 ................
0040F210 00 F5 00 00 0E F5 00 00 1A F5 00 00 34 F5 00 00 ............4...
0040F220 4C F5 00 00 60 F5 00 00 7A F5 00 00 88 F5 00 00 L...`...z.......
0040F230 9E F5 00 00 BC F5 00 00 C8 F5 00 00 D6 F5 00 00 ................
0040F240 E8 F5 00 00 F4 F5 00 00 08 F6 00 00 14 F6 00 00 ................
0040F250 30 F6 00 00 42 F6 00 00 4E F6 00 00 64 F6 00 00 0...B...N...d...
0040F260 00 00 00 00 84 F6 00 00 90 F6 00 00 9E F6 00 00 ................
0040F270 AA F6 00 00 B8 F6 00 00 C8 F6 00 00 DC F6 00 00 ................
0040F280 F2 F6 00 00 00 F7 00 00 12 F7 00 00 1E F7 00 00 ................
0040F290 30 F7 00 00 42 F7 00 00 50 F7 00 00 66 F7 00 00 0...B...P...f...
0040F2A0 74 F7 00 00 80 F7 00 00 92 F7 00 00 A2 F7 00 00 t...............
0040F2B0 B2 F7 00 00 BE F7 00 00 CA F7 00 00 D6 F7 00 00 ................
0040F2C0 E2 F7 00 00 F8 F7 00 00 06 F8 00 00 12 F8 00 00 ................
0040F2D0 22 F8 00 00 30 F8 00 00 42 F8 00 00 52 F8 00 00 "...0...B...R...
0040F2E0 60 F8 00 00 70 F8 00 00 7C F8 00 00 88 F8 00 00 `...p...|.......
0040F2F0 94 F8 00 00 00 00 00 00 11 00 43 72 65 61 74 65 ..........Create
0040F300 54 68 72 65 61 64 00 00 13 00 48 65 61 70 44 65 Thread....HeapDe
0040F310 73 74 72 6F 79 00 19 00 48 65 61 70 41 6C 6C 6F stroy...HeapAllo
0040F320 63 00 1B 00 48 65 61 70 46 72 65 65 00 00 1F 00 c...HeapFree....
0040F330 47 65 74 4D 6F 64 75 6C 65 46 69 6C 65 4E 61 6D GetModuleFileNam
0040F340 65 41 00 00 25 00 56 69 72 74 75 61 6C 41 6C 6C eA..%.VirtualAll
0040F350 6F 63 00 00 2B 00 52 65 61 64 46 69 6C 65 00 00 oc..+.ReadFile..
0040F360 2F 00 57 69 64 65 43 68 61 72 54 6F 4D 75 6C 74 /.WideCharToMult
0040F370 69 42 79 74 65 00 30 00 48 65 61 70 52 65 41 6C iByte.0.HeapReAl
0040F380 6C 6F 63 00 31 00 47 65 74 43 6F 6D 6D 61 6E 64 loc.1.GetCommand
0040F390 4C 69 6E 65 57 00 33 00 56 69 72 74 75 61 6C 41 LineW.3.VirtualA
0040F3A0 6C 6C 6F 63 00 00 34 00 4C 65 61 76 65 43 72 69 lloc..4.LeaveCri
0040F3B0 74 69 63 61 6C 53 65 63 74 69 6F 6E 00 00 3A 00 ticalSection..:.
0040F3C0 53 65 74 4C 61 73 74 45 72 72 6F 72 00 00 3D 00 SetLastError..=.
0040F3D0 53 65 74 55 6E 68 61 6E 64 6C 65 64 45 78 63 65 SetUnhandledExce
0040F3E0 70 74 69 6F 6E 46 69 6C 74 65 72 00 41 00 4D 75 ptionFilter.A.Mu
0040F3F0 6C 74 69 42 79 74 65 54 6F 57 69 64 65 43 68 61 ltiByteToWideCha
0040F400 72 00 43 00 56 69 72 74 75 61 6C 41 6C 6C 6F 63 r.C.VirtualAlloc
0040F410 00 00 49 00 48 65 61 70 52 65 41 6C 6C 6F 63 00 ..I.HeapReAlloc.
0040F420 4C 00 4C 6F 63 61 6C 46 72 65 65 00 4D 00 54 65 L.LocalFree.M.Te
0040F430 72 6D 69 6E 61 74 65 50 72 6F 63 65 73 73 00 00 rminateProcess..
0040F440 52 00 57 61 69 74 46 6F 72 53 69 6E 67 6C 65 4F R.WaitForSingleO
0040F450 62 6A 65 63 74 00 55 00 4C 6F 61 64 4C 69 62 72 bject.U.LoadLibr
0040F460 61 72 79 57 00 00 57 00 51 75 65 72 79 50 65 72 aryW..W.QueryPer
0040F470 66 6F 72 6D 61 6E 63 65 43 6F 75 6E 74 65 72 00 formanceCounter.
0040F480 5D 00 47 65 74 54 69 63 6B 43 6F 75 6E 74 00 00 ].GetTickCount..
0040F490 62 00 47 65 74 4D 6F 64 75 6C 65 48 61 6E 64 6C b.GetModuleHandl
0040F4A0 65 57 00 00 66 00 4C 65 61 76 65 43 72 69 74 69 eW..f.LeaveCriti
0040F4B0 63 61 6C 53 65 63 74 69 6F 6E 00 00 68 00 47 65 calSection..h.Ge
0040F4C0 74 4D 6F 64 75 6C 65 48 61 6E 64 6C 65 41 00 00 tModuleHandleA..
0040F4D0 6E 00 52 65 61 64 46 69 6C 65 00 00 71 00 43 72 n.ReadFile..q.Cr
0040F4E0 65 61 74 65 46 69 6C 65 57 00 74 00 47 65 74 43 eateFileW.t.GetC
0040F4F0 75 72 72 65 6E 74 50 72 6F 63 65 73 73 49 64 00 urrentProcessId.
0040F500 77 00 48 65 61 70 52 65 41 6C 6C 6F 63 00 7A 00 w.HeapReAlloc.z.
0040F510 6C 73 74 72 63 70 79 57 00 00 7F 00 51 75 65 72 lstrcpyW....Quer
0040F520 79 50 65 72 66 6F 72 6D 61 6E 63 65 43 6F 75 6E yPerformanceCoun
0040F530 74 65 72 00 83 00 49 6E 74 65 72 6C 6F 63 6B 65 ter...Interlocke
0040F540 64 44 65 63 72 65 6D 65 6E 74 00 00 88 00 47 65 dDecrement....Ge
0040F550 74 4D 6F 64 75 6C 65 48 61 6E 64 6C 65 57 00 00 tModuleHandleW..
0040F560 8C 00 51 75 65 72 79 50 65 72 66 6F 72 6D 61 6E ..QueryPerforman
0040F570 63 65 43 6F 75 6E 74 65 72 00 91 00 48 65 61 70 ceCounter...Heap
0040F580 44 65 73 74 72 6F 79 00 92 00 57 69 64 65 43 68 Destroy...WideCh
0040F590 61 72 54 6F 4D 75 6C 74 69 42 79 74 65 00 95 00 arToMultiByte...
0040F5A0 53 65 74 55 6E 68 61 6E 64 6C 65 64 45 78 63 65 SetUnhandledExce
0040F5B0 70 74 69 6F 6E 46 69 6C 74 65 72 00 98 00 48 65 ptionFilter...He
0040F5C0 61 70 46 72 65 65 00 00 9A 00 48 65 61 70 44 65 apFree....HeapDe
0040F5D0 73 74 72 6F 79 00 9F 00 47 65 74 53 74 61 72 74 stroy...GetStart
0040F5E0 75 70 49 6E 66 6F 41 00 A3 00 6C 73 74 72 6C 65 upInfoA...lstrle
0040F5F0 6E 57 00 00 A7 00 47 65 74 4D 6F 64 75 6C 65 48 nW....GetModuleH
0040F600 61 6E 64 6C 65 57 00 00 A9 00 4C 6F 63 61 6C 46 andleW....LocalF
0040F610 72 65 65 00 AF 00 49 6E 69 74 69 61 6C 69 7A 65 ree...Initialize
0040F620 43 72 69 74 69 63 61 6C 53 65 63 74 69 6F 6E 00 CriticalSection.
0040F630 B2 00 53 65 74 46 69 6C 65 50 6F 69 6E 74 65 72 ..SetFilePointer
0040F640 00 00 B5 00 57 72 69 74 65 46 69 6C 65 00 B8 00 ....WriteFile...
0040F650 47 65 74 4D 6F 64 75 6C 65 46 69 6C 65 4E 61 6D GetModuleFileNam
0040F660 65 41 00 00 BC 00 47 65 74 50 72 6F 63 65 73 73 eA....GetProcess
0040F670 48 65 61 70 00 00 4B 45 52 4E 45 4C 33 32 2E 44 Heap..KERNEL32.D
0040F680 4C 4C 00 00 2E 00 47 65 74 57 69 6E 64 6F 77 00 LL....GetWindow.
0040F690 33 00 4C 6F 61 64 49 6D 61 67 65 57 00 00 39 00 3.LoadImageW..9.
0040F6A0 43 6F 70 79 52 65 63 74 00 00 3D 00 47 65 74 4D CopyRect..=.GetM
0040F6B0 65 73 73 61 67 65 57 00 3E 00 47 65 74 43 6C 69 essageW.>.GetCli
0040F6C0 65 6E 74 52 65 63 74 00 41 00 44 69 73 70 61 74 entRect.A.Dispat
0040F6D0 63 68 4D 65 73 73 61 67 65 57 00 00 42 00 43 72 chMessageW..B.Cr
0040F6E0 65 61 74 65 44 69 61 6C 6F 67 50 61 72 61 6D 57 eateDialogParamW
0040F6F0 00 00 46 00 4C 6F 61 64 43 75 72 73 6F 72 57 00 ..F.LoadCursorW.
0040F700 4A 00 43 72 65 61 74 65 57 69 6E 64 6F 77 45 78 J.CreateWindowEx
0040F710 57 00 4B 00 53 65 74 43 75 72 73 6F 72 00 50 00 W.K.SetCursor.P.
0040F720 44 65 66 57 69 6E 64 6F 77 50 72 6F 63 57 00 00 DefWindowProcW..
0040F730 52 00 52 65 6C 65 61 73 65 43 61 70 74 75 72 65 R.ReleaseCapture
0040F740 00 00 53 00 4D 65 73 73 61 67 65 42 6F 78 41 00 ..S.MessageBoxA.
0040F750 56 00 43 72 65 61 74 65 44 69 61 6C 6F 67 50 61 V.CreateDialogPa
0040F760 72 61 6D 57 00 00 58 00 46 69 6E 64 57 69 6E 64 ramW..X.FindWind
0040F770 6F 77 57 00 59 00 49 73 49 63 6F 6E 69 63 00 00 owW.Y.IsIconic..
0040F780 5E 00 53 65 74 44 6C 67 49 74 65 6D 54 65 78 74 ^.SetDlgItemText
0040F790 57 00 62 00 47 65 74 57 69 6E 64 6F 77 52 65 63 W.b.GetWindowRec
0040F7A0 74 00 63 00 53 65 6E 64 4D 65 73 73 61 67 65 57 t.c.SendMessageW
0040F7B0 00 00 69 00 49 73 57 69 6E 64 6F 77 00 00 6C 00 ..i.IsWindow..l.
0040F7C0 43 68 61 72 4E 65 78 74 57 00 6E 00 43 68 61 72 CharNextW.n.Char
0040F7D0 4E 65 78 74 57 00 72 00 53 65 74 54 69 6D 65 72 NextW.r.SetTimer
0040F7E0 00 00 78 00 53 65 74 46 6F 72 65 67 72 6F 75 6E ..x.SetForegroun
0040F7F0 64 57 69 6E 64 6F 77 00 79 00 47 65 74 44 6C 67 dWindow.y.GetDlg
0040F800 49 74 65 6D 00 00 7F 00 53 65 74 43 75 72 73 6F Item....SetCurso
0040F810 72 00 85 00 44 65 73 74 72 6F 79 57 69 6E 64 6F r...DestroyWindo
0040F820 77 00 8A 00 47 65 74 4B 65 79 53 74 61 74 65 00 w...GetKeyState.
0040F830 8E 00 52 65 67 69 73 74 65 72 43 6C 61 73 73 57 ..RegisterClassW
0040F840 00 00 91 00 47 65 74 43 75 72 73 6F 72 50 6F 73 ....GetCursorPos
0040F850 00 00 96 00 4C 6F 61 64 43 75 72 73 6F 72 57 00 ....LoadCursorW.
0040F860 97 00 47 65 74 44 6C 67 43 74 72 6C 49 44 00 00 ..GetDlgCtrlID..
0040F870 9C 00 45 6E 64 50 61 69 6E 74 00 00 9F 00 53 65 ..EndPaint....Se
0040F880 74 43 75 72 73 6F 72 00 A4 00 44 72 61 77 54 65 tCursor...DrawTe
0040F890 78 74 57 00 A7 00 47 65 74 46 6F 63 75 73 00 00 xtW...GetFocus..
0040F8A0 55 53 45 52 33 32 2E 44 4C 4C 00 00 00 00 00 00 USER32.DLL......
0040F8B0 00 00 00 00 00 00 00 00 00 00 00 00 00 00 00 00 ................
0040F8C0 00 00 00 00 00 00 00 00 00 00 00 00 00 00 00 00 ................
0040F8D0 00 00 00 00 00 00 00 00 00 00 00 00 00 00 00 00 ................
0040F8E0 00 00 00 00 00 00 00 00 00 00 00 00 00 00 00 00 ................
0040F8F0 00 00 00 00 00 00 00 00 00 00 00 00 00 00 00 00 ................
0040F900 00 00 00 00 00 00 00 00 00 00 00 00 00 00 00 00 ................
0040F910 00 00 00 00 00 00 00 00 00 00 00 00 00 00 00 00 ................
0040F920 00 00 00 00 00 00 00 00 00 00 00 00 00 00 00 00 ................
0040F930 00 00 00 00 00 00 00 00 00 00 00 00 00 00 00 00 ................
0040F940 00 00 00 00 00 00 00 00 00 00 00 00 00 00 00 00 ................
0040F950 00 00 00 00 00 00 00 00 00 00 00 00 00 00 00 00 ................
0040F960 00 00 00 00 00 00 00 00 00 00 00 00 00 00 00 00 ................
0040F970 00 00 00 00 00 00 00 00 00 00 00 00 00 00 00 00 ................
0040F980 00 00 00 00 00 00 00 00 00 00 00 00 00 00 00 00 ................
0040F990 00 00 00 00 00 00 00 00 00 00 00 00 00 00 00 00 ................
0040F9A0 00 00 00 00 00 00 00 00 00 00 00 00 00 00 00 00 ................
0040F9B0 00 00 00 00 00 00 00 00 00 00 00 00 00 00 00 00 ................
0040F9C0 00 00 00 00 00 00 00 00 00 00 00 00 00 00 00 00 ................
0040F9D0 00 00 00 00 00 00 00 00 00 00 00 00 00 00 00 00 ................
0040F9E0 00 00 00 00 00 00 00 00 00 00 00 00 00 00 00 00 ................
0040F9F0 00 00 00 00 00 00 00 00 00 00 00 00 00 00 00 00 ................
0040FA00 00 00 00 00 00 00 00 00 00 00 00 00 00 00 00 00 ................
0040FA10 00 00 00 00 00 00 00 00 00 00 00 00 00 00 00 00 ................
0040FA20 00 00 00 00 00 00 00 00 00 00 00 00 00 00 00 00 ................
0040FA30 00 00 00 00 00 00 00 00 00 00 00 00 00 00 00 00 ................
0040FA40 00 00 00 00 00 00 00 00 00 00 00 00 00 00 00 00 ................
0040FA50 00 00 00 00 00 00 00 00 00 00 00 00 00 00 00 00 ................
0040FA60 00 00 00 00 00 00 00 00 00 00 00 00 00 00 00 00 ................
0040FA70 00 00 00 00 00 00 00 00 00 00 00 00 00 00 00 00 ................
0040FA80 00 00 00 00 00 00 00 00 00 00 00 00 00 00 00 00 ................
0040FA90 00 00 00 00 00 00 00 00 00 00 00 00 00 00 00 00 ................
0040FAA0 00 00 00 00 00 00 00 00 00 00 00 00 00 00 00 00 ................
0040FAB0 00 00 00 00 00 00 00 00 00 00 00 00 00 00 00 00 ................
0040FAC0 00 00 00 00 00 00 00 00 00 00 00 00 00 00 00 00 ................
0040FAD0 00 00 00 00 00 00 00 00 00 00 00 00 00 00 00 00 ................
0040FAE0 00 00 00 00 00 00 00 00 00 00 00 00 00 00 00 00 ................
0040FAF0 00 00 00 00 00 00 00 00 00 00 00 00 00 00 00 00 ................
0040FB00 00 00 00 00 00 00 00 00 00 00 00 00 00 00 00 00 ................
0040FB10 00 00 00 00 00 00 00 00 00 00 00 00 00 00 00 00 ................
0040FB20 00 00 00 00 00 00 00 00 00 00 00 00 00 00 00 00 ................
0040FB30 00 00 00 00 00 00 00 00 00 00 00 00 00 00 00 00 ................
0040FB40 00 00 00 00 00 00 00 00 00 00 00 00 00 00 00 00 ................
0040FB50 00 00 00 00 00 00 00 00 00 00 00 00 00 00 00 00 ................
0040FB60 00 00 00 00 00 00 00 00 00 00 00 00 00 00 00 00 ................
0040FB70 00 00 00 00 00 00 00 00 00 00 00 00 00 00 00 00 ................
0040FB80 00 00 00 00 00 00 00 00 00 00 00 00 00 00 00 00 ................
0040FB90 00 00 00 00 00 00 00 00 00 00 00 00 00 00 00 00 ................
0040FBA0 00 00 00 00 00 00 00 00 00 00 00 00 00 00 00 00 ................
0040FBB0 00 00 00 00 00 00 00 00 00 00 00 00 00 00 00 00 ................
0040FBC0 00 00 00 00 00 00 00 00 00 00 00 00 00 00 00 00 ................
0040FBD0 00 00 00 00 00 00 00 00 00 00 00 00 00 00 00 00 ................
0040FBE0 00 00 00 00 00 00 00 00 00 00 00 00 00 00 00 00 ................
0040FBF0 00 00 00 00 00 00 00 00 00 00 00 00 00 00 00 00 ................
0040FC00 00 00 00 00 00 00 00 00 00 00 00 00 00 00 00 00 ................
0040FC10 00 00 00 00 00 00 00 00 00 00 00 00 00 00 00 00 ................
0040FC20 00 00 00 00 00 00 00 00 00 00 00 00 00 00 00 00 ................
0040FC30 00 00 00 00 00 00 00 00 00 00 00 00 00 00 00 00 ................
0040FC40 00 00 00 00 00 00 00 00 00 00 00 00 00 00 00 00 ................
0040FC50 00 00 00 00 00 00 00 00 00 00 00 00 00 00 00 00 ................
0040FC60 00 00 00 00 00 00 00 00 00 00 00 00 00 00 00 00 ................
0040FC70 00 00 00 00 00 00 00 00 00 00 00 00 00 00 00 00 ................
0040FC80 00 00 00 00 00 00 00 00 00 00 00 00 00 00 00 00 ................
0040FC90 00 00 00 00 00 00 00 00 00 00 00 00 00 00 00 00 ................
0040FCA0 00 00 00 00 00 00 00 00 00 00 00 00 00 00 00 00 ................
0040FCB0 00 00 00 00 00 00 00 00 00 00 00 00 00 00 00 00 ................
0040FCC0 00 00 00 00 00 00 00 00 00 00 00 00 00 00 00 00 ................
0040FCD0 00 00 00 00 00 00 00 00 00 00 00 00 00 00 00 00 ................
0040FCE0 00 00 00 00 00 00 00 00 00 00 00 00 00 00 00 00 ................
0040FCF0 00 00 00 00 00 00 00 00 00 00 00 00 00 00 00 00 ................
0040FD00 00 00 00 00 00 00 00 00 00 00 00 00 00 00 00 00 ................
0040FD10 00 00 00 00 00 00 00 00 00 00 00 00 00 00 00 00 ................
0040FD20 00 00 00 00 00 00 00 00 00 00 00 00 00 00 00 00 ................
0040FD30 00 00 00 00 00 00 00 00 00 00 00 00 00 00 00 00 ................
0040FD40 00 00 00 00 00 00 00 00 00 00 00 00 00 00 00 00 ................
0040FD50 00 00 00 00 00 00 00 00 00 00 00 00 00 00 00 00 ................
0040FD60 00 00 00 00 00 00 00 00 00 00 00 00 00 00 00 00 ................
0040FD70 00 00 00 00 00 00 00 00 00 00 00 00 00 00 00 00 ................
0040FD80 00 00 00 00 00 00 00 00 00 00 00 00 00 00 00 00 ................
0040FD90 00 00 00 00 00 00 00 00 00 00 00 00 00 00 00 00 ................
0040FDA0 00 00 00 00 00 00 00 00 00 00 00 00 00 00 00 00 ................
0040FDB0 00 00 00 00 00 00 00 00 00 00 00 00 00 00 00 00 ................
0040FDC0 00 00 00 00 00 00 00 00 00 00 00 00 00 00 00 00 ................
0040FDD0 00 00 00 00 00 00 00 00 00 00 00 00 00 00 00 00 ................
0040FDE0 00 00 00 00 00 00 00 00 00 00 00 00 00 00 00 00 ................
0040FDF0 00 00 00 00 00 00 00 00 00 00 00 00 00 00 00 00 ................
0040FE00 00 00 00 00 00 00 00 00 00 00 00 00 00 00 00 00 ................
0040FE10 00 00 00 00 00 00 00 00 00 00 00 00 00 00 00 00 ................
0040FE20 00 00 00 00 00 00 00 00 00 00 00 00 00 00 00 00 ................
0040FE30 00 00 00 00 00 00 00 00 00 00 00 00 00 00 00 00 ................
0040FE40 00 00 00 00 00 00 00 00 00 00 00 00 00 00 00 00 ................
0040FE50 00 00 00 00 00 00 00 00 00 00 00 00 00 00 00 00 ................
0040FE60 00 00 00 00 00 00 00 00 00 00 00 00 00 00 00 00 ................
0040FE70 00 00 00 00 00 00 00 00 00 00 00 00 00 00 00 00 ................
0040FE80 00 00 00 00 00 00 00 00 00 00 00 00 00 00 00 00 ................
0040FE90 00 00 00 00 00 00 00 00 00 00 00 00 00 00 00 00 ................
0040FEA0 00 00 00 00 00 00 00 00 00 00 00 00 00 00 00 00 ................
0040FEB0 00 00 00 00 00 00 00 00 00 00 00 00 00 00 00 00 ................
0040FEC0 00 00 00 00 00 00 00 00 00 00 00 00 00 00 00 00 ................
0040FED0 00 00 00 00 00 00 00 00 00 00 00 00 00 00 00 00 ................
0040FEE0 00 00 00 00 00 00 00 00 00 00 00 00 00 00 00 00 ................
0040FEF0 00 00 00 00 00 00 00 00 00 00 00 00 00 00 00 00 ................
0040FF00 00 00 00 00 00 00 00 00 00 00 00 00 00 00 00 00 ................
0040FF10 00 00 00 00 00 00 00 00 00 00 00 00 00 00 00 00 ................
0040FF20 00 00 00 00 00 00 00 00 00 00 00 00 00 00 00 00 ................
0040FF30 00 00 00 00 00 00 00 00 00 00 00 00 00 00 00 00 ................
0040FF40 00 00 00 00 00 00 00 00 00 00 00 00 00 00 00 00 ................
0040FF50 00 00 00 00 00 00 00 00 00 00 00 00 00 00 00 00 ................
0040FF60 00 00 00 00 00 00 00 00 00 00 00 00 00 00 00 00 ................
0040FF70 00 00 00 00 00 00 00 00 00 00 00 00 00 00 00 00 ................
0040FF80 00 00 00 00 00 00 00 00 00 00 00 00 00 00 00 00 ................
0040FF90 00 00 00 00 00 00 00 00 00 00 00 00 00 00 00 00 ................
0040FFA0 00 00 00 00 00 00 00 00 00 00 00 00 00 00 00 00 ................
0040FFB0 00 00 00 00 00 00 00 00 00 00 00 00 00 00 00 00 ................
0040FFC0 00 00 00 00 00 00 00 00 00 00 00 00 00 00 00 00 ................
0040FFD0 00 00 00 00 00 00 00 00 00 00 00 00 00 00 00 00 ................
0040FFE0 00 00 00 00 00 00 00 00 00 00 00 00 00 00 00 00 ................
0040FFF0 00 00 00 00 00 00 00 00 00 00 00 00 00 00 00 00 ................
00410000 00 00 00 00 00 00 00 00 00 00 00 00 00 00 03 00 ................
00410010 03 00 00 00 28 00 00 80 0E 00 00 00 40 00 00 80 ....(.......@...
00410020 10 00 00 00 58 00 00 80 00 00 00 00 00 00 00 00 ....X...........
00410030 00 00 00 00 00 00 01 00 01 00 00 00 70 00 00 80 ............p...
00410040 00 00 00 00 00 00 00 00 00 00 00 00 00 00 01 00 ................
00410050 63 BA 00 00 88 00 00 80 00 00 00 00 00 00 00 00 c...............
00410060 00 00 00 00 00 00 01 00 11 7C 00 00 A0 00 00 80 .........|......
00410070 00 00 00 00 00 00 00 00 00 00 00 00 00 00 01 00 ................
00410080 19 04 00 00 B8 00 00 00 00 00 00 00 00 00 00 00 ................
00410090 00 00 00 00 00 00 01 00 19 04 00 00 C8 00 00 00 ................
004100A0 00 00 00 00 00 00 00 00 00 00 00 00 00 00 01 00 ................
004100B0 19 04 00 00 D8 00 00 00 E8 00 01 00 A8 08 00 00 ................
004100C0 00 00 00 00 00 00 00 00 90 09 01 00 14 00 00 00 ................
004100D0 00 00 00 00 00 00 00 00 A4 09 01 00 E8 02 00 00 ................
004100E0 00 00 00 00 00 00 00 00 28 00 00 00 20 00 00 00 ........(... ...
004100F0 40 00 00 00 01 00 08 00 00 00 00 00 00 04 00 00 @...............
00410100 00 00 00 00 00 00 00 00 00 00 00 00 00 00 00 00 ................
00410110 00 00 00 00 00 00 80 00 00 80 00 00 00 80 80 00 ................
00410120 80 00 00 00 80 00 80 00 80 80 00 00 C0 C0 C0 00 ................
00410130 C0 DC C0 00 F0 CA A6 00 00 20 40 00 00 20 60 00 ......... @.. `.
00410140 00 20 80 00 00 20 A0 00 00 20 C0 00 00 20 E0 00 . ... ... ... ..
00410150 00 40 00 00 00 40 20 00 00 40 40 00 00 40 60 00 .@...@ ..@@..@`.
00410160 00 40 80 00 00 40 A0 00 00 40 C0 00 00 40 E0 00 .@...@...@...@..
00410170 00 60 00 00 00 60 20 00 00 60 40 00 00 60 60 00 .`...` ..`@..``.
00410180 00 60 80 00 00 60 A0 00 00 60 C0 00 00 60 E0 00 .`...`...`...`..
00410190 00 80 00 00 00 80 20 00 00 80 40 00 00 80 60 00 ...... ...@...`.
004101A0 00 80 80 00 00 80 A0 00 00 80 C0 00 00 80 E0 00 ................
004101B0 00 A0 00 00 00 A0 20 00 00 A0 40 00 00 A0 60 00 ...... ...@...`.
004101C0 00 A0 80 00 00 A0 A0 00 00 A0 C0 00 00 A0 E0 00 ................
004101D0 00 C0 00 00 00 C0 20 00 00 C0 40 00 00 C0 60 00 ...... ...@...`.
004101E0 00 C0 80 00 00 C0 A0 00 00 C0 C0 00 00 C0 E0 00 ................
004101F0 00 E0 00 00 00 E0 20 00 00 E0 40 00 00 E0 60 00 ...... ...@...`.
00410200 00 E0 80 00 00 E0 A0 00 00 E0 C0 00 00 E0 E0 00 ................
00410210 40 00 00 00 40 00 20 00 40 00 40 00 40 00 60 00 @...@. .@.@.@.`.
00410220 40 00 80 00 40 00 A0 00 40 00 C0 00 40 00 E0 00 @...@...@...@...
00410230 40 20 00 00 40 20 20 00 40 20 40 00 40 20 60 00 @ ..@  .@ @.@ `.
00410240 40 20 80 00 40 20 A0 00 40 20 C0 00 40 20 E0 00 @ ..@ ..@ ..@ ..
00410250 40 40 00 00 40 40 20 00 40 40 40 00 40 40 60 00 @@..@@ .@@@.@@`.
00410260 40 40 80 00 40 40 A0 00 40 40 C0 00 40 40 E0 00 @@..@@..@@..@@..
00410270 40 60 00 00 40 60 20 00 40 60 40 00 40 60 60 00 @`..@` .@`@.@``.
00410280 40 60 80 00 40 60 A0 00 40 60 C0 00 40 60 E0 00 @`..@`..@`..@`..
00410290 40 80 00 00 40 80 20 00 40 80 40 00 40 80 60 00 @...@. .@.@.@.`.
004102A0 40 80 80 00 40 80 A0 00 40 80 C0 00 40 80 E0 00 @...@...@...@...
004102B0 40 A0 00 00 40 A0 20 00 40 A0 40 00 40 A0 60 00 @...@. .@.@.@.`.
004102C0 40 A0 80 00 40 A0 A0 00 40 A0 C0 00 40 A0 E0 00 @...@...@...@...
004102D0 40 C0 00 00 40 C0 20 00 40 C0 40 00 40 C0 60 00 @...@. .@.@.@.`.
004102E0 40 C0 80 00 40 C0 A0 00 40 C0 C0 00 40 C0 E0 00 @...@...@...@...
004102F0 40 E0 00 00 40 E0 20 00 40 E0 40 00 40 E0 60 00 @...@. .@.@.@.`.
00410300 40 E0 80 00 40 E0 A0 00 40 E0 C0 00 40 E0 E0 00 @...@...@...@...
00410310 80 00 00 00 80 00 20 00 80 00 40 00 80 00 60 00 ...... ...@...`.
00410320 80 00 80 00 80 00 A0 00 80 00 C0 00 80 00 E0 00 ................
00410330 80 20 00 00 80 20 20 00 80 20 40 00 80 20 60 00 . ...  .. @.. `.
00410340 80 20 80 00 80 20 A0 00 80 20 C0 00 80 20 E0 00 . ... ... ... ..
00410350 80 40 00 00 80 40 20 00 80 40 40 00 80 40 60 00 .@...@ ..@@..@`.
00410360 80 40 80 00 80 40 A0 00 80 40 C0 00 80 40 E0 00 .@...@...@...@..
00410370 80 60 00 00 80 60 20 00 80 60 40 00 80 60 60 00 .`...` ..`@..``.
00410380 80 60 80 00 80 60 A0 00 80 60 C0 00 80 60 E0 00 .`...`...`...`..
00410390 80 80 00 00 80 80 20 00 80 80 40 00 80 80 60 00 ...... ...@...`.
004103A0 80 80 80 00 80 80 A0 00 80 80 C0 00 80 80 E0 00 ................
004103B0 80 A0 00 00 80 A0 20 00 80 A0 40 00 80 A0 60 00 ...... ...@...`.
004103C0 80 A0 80 00 80 A0 A0 00 80 A0 C0 00 80 A0 E0 00 ................
004103D0 80 C0 00 00 80 C0 20 00 80 C0 40 00 80 C0 60 00 ...... ...@...`.
004103E0 80 C0 80 00 80 C0 A0 00 80 C0 C0 00 80 C0 E0 00 ................
004103F0 80 E0 00 00 80 E0 20 00 80 E0 40 00 80 E0 60 00 ...... ...@...`.
00410400 80 E0 80 00 80 E0 A0 00 80 E0 C0 00 80 E0 E0 00 ................
00410410 C0 00 00 00 C0 00 20 00 C0 00 40 00 C0 00 60 00 ...... ...@...`.
00410420 C0 00 80 00 C0 00 A0 00 C0 00 C0 00 C0 00 E0 00 ................
00410430 C0 20 00 00 C0 20 20 00 C0 20 40 00 C0 20 60 00 . ...  .. @.. `.
00410440 C0 20 80 00 C0 20 A0 00 C0 20 C0 00 C0 20 E0 00 . ... ... ... ..
00410450 C0 40 00 00 C0 40 20 00 C0 40 40 00 C0 40 60 00 .@...@ ..@@..@`.
00410460 C0 40 80 00 C0 40 A0 00 C0 40 C0 00 C0 40 E0 00 .@...@...@...@..
00410470 C0 60 00 00 C0 60 20 00 C0 60 40 00 C0 60 60 00 .`...` ..`@..``.
00410480 C0 60 80 00 C0 60 A0 00 C0 60 C0 00 C0 60 E0 00 .`...`...`...`..
00410490 C0 80 00 00 C0 80 20 00 C0 80 40 00 C0 80 60 00 ...... ...@...`.
004104A0 C0 80 80 00 C0 80 A0 00 C0 80 C0 00 C0 80 E0 00 ................
004104B0 C0 A0 00 00 C0 A0 20 00 C0 A0 40 00 C0 A0 60 00 ...... ...@...`.
004104C0 C0 A0 80 00 C0 A0 A0 00 C0 A0 C0 00 C0 A0 E0 00 ................
004104D0 C0 C0 00 00 C0 C0 20 00 C0 C0 40 00 C0 C0 60 00 ...... ...@...`.
004104E0 C0 C0 80 00 C0 C0 A0 00 F0 FB FF 00 A4 A0 A0 00 ................
004104F0 80 80 80 00 00 00 FF 00 00 FF 00 00 00 FF FF 00 ................
00410500 FF 00 00 00 FF 00 FF 00 FF FF 00 00 FF FF FF 00 ................
00410510 00 00 00 00 00 00 00 00 00 00 00 00 00 00 00 00 ................
00410520 00 00 00 00 00 00 00 00 00 00 00 00 00 00 00 00 ................
00410530 00 00 00 00 00 00 ED A3 9A 9A 92 92 92 92 92 92 ................
00410540 92 92 92 92 92 92 92 92 92 92 92 92 92 92 92 00 ................
00410550 00 00 00 00 00 00 ED F6 07 09 09 09 09 09 09 09 ................
00410560 09 09 EC 09 09 EC EC EC EC EB EB EB EB EB 92 00 ................
00410570 00 00 00 00 00 00 ED F6 F6 F6 F6 F6 F6 F6 F6 F6 ................
00410580 F6 F6 F6 F6 F6 F6 F6 F6 09 09 09 09 09 EB 92 00 ................
00410590 00 00 00 00 00 00 ED F6 F6 F6 F6 F6 F6 F6 F6 F6 ................
004105A0 F6 F6 F6 F6 F6 F6 F6 F6 F6 F6 09 09 09 EB 92 00 ................
004105B0 00 00 00 00 00 00 ED F6 F6 F5 F5 ED ED EC EC EC ................
004105C0 E3 E3 E3 E3 E3 E3 E3 E3 E3 E3 F6 F6 09 EB 92 00 ................
004105D0 00 00 00 00 00 00 ED FF FF F5 FF FF FF F6 EC F6 ................
004105E0 F6 EC FF E3 F6 F6 EC FF E3 F6 F6 F6 F6 EB 92 00 ................
004105F0 00 00 00 00 00 00 ED FF FF F5 FF FF FF FF ED FF ................
00410600 FF EC FF E3 F6 F6 EC FF E3 F6 F6 F6 F6 EC 92 00 ................
00410610 00 00 00 00 00 00 ED FF FF F5 F5 F5 F5 F5 F5 ED ................
00410620 FF EC FF E3 F6 F6 EC FF E3 F6 F6 F6 F6 EC 92 00 ................
00410630 00 00 00 00 00 00 ED FF FF 09 FF FF FF FF F5 FF ................
00410640 FF ED FF E3 EC EC EC FF E3 F6 F6 F6 F6 EC 92 00 ................
00410650 00 00 00 00 00 00 ED FF FF 09 FF FF FF FF F5 FF ................
00410660 FF F5 FF E3 FF FF EC FF E3 F6 F6 F6 F6 EC 92 00 ................
00410670 00 00 00 00 00 00 ED FF FF 09 09 09 09 09 F5 F5 ................
00410680 FF F5 F5 E3 FF FF EC FF E3 F6 F6 F6 F6 EC 92 00 ................
00410690 00 00 00 00 00 00 ED FF FF 09 FF FF FF FF 09 FF ................
004106A0 FF FF FF FF FF FF ED ED E3 F6 F6 F6 F6 09 92 00 ................
004106B0 00 00 00 00 00 00 ED 08 08 ED 07 07 07 ED ED 08 ................
004106C0 FF FF FF F5 FF FF FF FF FF FF F6 F6 F6 09 92 00 ................
004106D0 00 00 00 00 00 00 F7 F7 F5 07 07 08 08 F6 08 ED ................
004106E0 EC 09 F5 F5 F5 F5 F5 F5 ED FF FF F6 F6 EC 92 00 ................
004106F0 00 19 18 AC 08 08 FF FF FF F6 F6 F6 F6 F6 08 07 ................
00410700 F6 FF FF 09 FF FF FF FF F5 FF FF FF F6 09 92 00 ................
00410710 00 19 B5 08 FF FF FF FF F6 F6 B5 1A 1A F6 F6 07 ................
00410720 F6 FF FF 09 FF FF FF FF F5 FF FF FF FF 09 92 00 ................
00410730 00 19 07 AC FF 08 B4 B4 B4 AB 22 1A 6B F6 F6 ED ..........".k...
00410740 F5 09 09 09 09 09 09 F5 F5 FF FF FF FF 09 92 00 ................
00410750 00 19 08 62 FF FF 08 B4 B4 62 1A 6C AB B5 F6 07 ...b.....b.l....
00410760 08 FF FF 09 FF FF FF FF F5 FF FF FF FF 09 92 00 ................
00410770 00 19 08 19 F6 FF FF 08 6B 1A 22 08 FF F6 F6 07 ........k.".....
00410780 08 FF FF 09 FF FF FF FF 09 FF FF FF FF 09 92 00 ................
00410790 00 21 08 19 07 FF FF 08 22 22 6B B4 F5 F6 F6 07 .!......""k.....
004107A0 F5 09 09 09 09 09 09 09 09 FF FF FF FF 09 92 00 ................
004107B0 00 21 08 19 AC FF F6 22 1A B5 F6 B4 B4 B4 F6 08 .!....."........
004107C0 08 FF FF 09 FF FF FF FF 09 FF FF FF FF 09 92 00 ................
004107D0 00 21 08 AC B4 FF 63 62 6C FF FF FF FF FF FF 08 .!....cbl.......
004107E0 08 FF FF 09 FF FF FF FF 07 09 09 09 09 09 92 00 ................
004107F0 00 61 08 B4 B4 FF FF FF FF FF FF FF FF FF FF F6 .a..............
00410800 07 09 09 09 09 09 09 ED A3 A3 9B 9A 9A 9A 92 00 ................
00410810 00 61 08 B5 B4 08 08 08 08 08 08 F5 B5 08 6B FF .a............k.
00410820 FF FF FF FF FF FF FF ED 09 09 09 09 09 92 F6 00 ................
00410830 00 61 B5 F6 B5 B5 B5 B5 B5 B5 B5 B5 B5 F6 61 FF .a............a.
00410840 FF FF FF FF FF FF FF ED F6 F6 09 09 92 F6 F6 00 ................
00410850 00 61 61 08 F6 08 BD BD BD BD BD BD B5 F6 61 F6 .aa...........a.
00410860 09 09 09 FF FF FF FF F5 F6 F6 09 92 F6 F6 00 00 ................
00410870 00 00 61 61 B5 08 F6 F6 F6 F6 F6 F6 F6 F6 61 FF ..aa..........a.
00410880 FF FF FF FF FF FF FF F5 F6 F6 9A F6 F6 00 00 00 ................
00410890 00 00 00 61 61 61 61 61 61 61 61 61 61 61 61 FF ...aaaaaaaaaaaa.
004108A0 FF FF FF FF FF FF FF F5 F6 9B F6 F6 00 00 00 00 ................
004108B0 00 00 00 00 00 00 07 FF FF FF FF FF FF FF FF FF ................
004108C0 FF FF FF FF FF FF FF F5 A4 F6 F6 00 00 00 00 00 ................
004108D0 00 00 00 00 00 00 07 07 07 07 07 F5 F5 F5 F5 F5 ................
004108E0 F5 F5 F5 F5 F5 F5 F5 F5 F6 F6 00 00 00 00 00 00 ................
004108F0 00 00 00 00 00 00 00 00 00 00 00 00 00 00 00 00 ................
00410900 00 00 00 00 00 00 00 00 00 00 00 00 00 00 00 00 ................
00410910 FF FF FF FF FC 00 00 01 FC 00 00 01 FC 00 00 01 ................
00410920 FC 00 00 01 FC 00 00 01 FC 00 00 01 FC 00 00 01 ................
00410930 FC 00 00 01 FC 00 00 01 FC 00 00 01 FC 00 00 01 ................
00410940 FC 00 00 01 C0 00 00 01 C0 00 00 01 80 00 00 01 ................
00410950 80 00 00 01 80 00 00 01 80 00 00 01 80 00 00 01 ................
00410960 80 00 00 01 80 00 00 01 80 00 00 01 80 00 00 01 ................
00410970 80 00 00 01 80 00 00 01 80 00 00 03 C0 00 00 07 ................
00410980 E0 00 00 0F FC 00 00 1F FC 00 00 3F FF FF FF FF ...........?....
00410990 00 00 01 00 01 00 20 20 08 00 00 00 00 00 A8 08 ......  ........
004109A0 00 00 01 00 E8 02 34 00 00 00 56 00 53 00 5F 00 ......4...V.S._.
004109B0 56 00 45 00 52 00 53 00 49 00 4F 00 4E 00 5F 00 V.E.R.S.I.O.N._.
004109C0 49 00 4E 00 46 00 4F 00 00 00 00 00 BD 04 EF FE I.N.F.O.........
004109D0 00 00 01 00 C6 BF 4E F6 C6 BF 4E F6 C6 BF 4E F6 ......N...N...N.
004109E0 C6 BF 4E F6 C6 BF 00 00 00 00 00 00 04 00 04 00 ..N.............
004109F0 01 00 00 00 00 00 00 00 00 00 00 00 00 00 00 00 ................
00410A00 48 02 00 00 00 00 53 00 74 00 72 00 69 00 6E 00 H.....S.t.r.i.n.
00410A10 67 00 46 00 69 00 6C 00 65 00 49 00 6E 00 66 00 g.F.i.l.e.I.n.f.
00410A20 6F 00 00 00 24 02 00 00 00 00 30 00 38 00 30 00 o...$.....0.8.0.
00410A30 30 00 30 00 34 00 42 00 30 00 00 00 3C 00 0E 00 0.0.4.B.0...<...
00410A40 01 00 43 00 6F 00 6D 00 70 00 61 00 6E 00 79 00 ..C.o.m.p.a.n.y.
00410A50 4E 00 61 00 6D 00 65 00 00 00 00 00 57 00 4F 00 N.a.m.e.....W.O.
00410A60 54 00 32 00 43 00 50 00 4E 00 78 00 77 00 31 00 T.2.C.P.N.x.w.1.
00410A70 36 00 52 00 59 00 00 00 4C 00 11 00 01 00 46 00 6.R.Y...L.....F.
00410A80 69 00 6C 00 65 00 44 00 65 00 73 00 63 00 72 00 i.l.e.D.e.s.c.r.
00410A90 69 00 70 00 74 00 69 00 6F 00 6E 00 00 00 00 00 i.p.t.i.o.n.....
00410AA0 6E 00 36 00 77 00 6C 00 68 00 66 00 62 00 52 00 n.6.w.l.h.f.b.R.
00410AB0 52 00 71 00 74 00 70 00 6D 00 6F 00 4A 00 6A 00 R.q.t.p.m.o.J.j.
00410AC0 00 00 00 00 3C 00 0D 00 01 00 46 00 69 00 6C 00 ....<.....F.i.l.
00410AD0 65 00 56 00 65 00 72 00 73 00 69 00 6F 00 6E 00 e.V.e.r.s.i.o.n.
00410AE0 00 00 00 00 4C 00 42 00 57 00 63 00 6F 00 4A 00 ....L.B.W.c.o.J.
00410AF0 33 00 75 00 64 00 65 00 66 00 6F 00 00 00 00 00 3.u.d.e.f.o.....
00410B00 38 00 0C 00 01 00 49 00 6E 00 74 00 65 00 72 00 8.....I.n.t.e.r.
00410B10 6E 00 61 00 6C 00 4E 00 61 00 6D 00 65 00 00 00 n.a.l.N.a.m.e...
00410B20 41 00 78 00 71 00 47 00 69 00 37 00 41 00 76 00 A.x.q.G.i.7.A.v.
00410B30 59 00 71 00 64 00 00 00 44 00 0F 00 01 00 4C 00 Y.q.d...D.....L.
00410B40 65 00 67 00 61 00 6C 00 43 00 6F 00 70 00 79 00 e.g.a.l.C.o.p.y.
00410B50 72 00 69 00 67 00 68 00 74 00 00 00 63 00 75 00 r.i.g.h.t...c.u.
00410B60 6F 00 62 00 53 00 71 00 34 00 6E 00 62 00 44 00 o.b.S.q.4.n.b.D.
00410B70 78 00 4B 00 4B 00 63 00 00 00 00 00 48 00 10 00 x.K.K.c.....H...
00410B80 01 00 4F 00 72 00 69 00 67 00 69 00 6E 00 61 00 ..O.r.i.g.i.n.a.
00410B90 6C 00 46 00 69 00 6C 00 65 00 6E 00 61 00 6D 00 l.F.i.l.e.n.a.m.
00410BA0 65 00 00 00 46 00 64 00 55 00 43 00 65 00 36 00 e...F.d.U.C.e.6.
00410BB0 64 00 75 00 64 00 36 00 56 00 31 00 36 00 62 00 d.u.d.6.V.1.6.b.
00410BC0 6D 00 00 00 38 00 0C 00 01 00 50 00 72 00 6F 00 m...8.....P.r.o.
00410BD0 64 00 75 00 63 00 74 00 4E 00 61 00 6D 00 65 00 d.u.c.t.N.a.m.e.
00410BE0 00 00 00 00 74 00 49 00 64 00 59 00 53 00 55 00 ....t.I.d.Y.S.U.
00410BF0 55 00 67 00 67 00 42 00 44 00 00 00 4C 00 13 00 U.g.g.B.D...L...
00410C00 01 00 50 00 72 00 6F 00 64 00 75 00 63 00 74 00 ..P.r.o.d.u.c.t.
00410C10 56 00 65 00 72 00 73 00 69 00 6F 00 6E 00 00 00 V.e.r.s.i.o.n...
00410C20 55 00 34 00 42 00 37 00 62 00 71 00 75 00 79 00 U.4.B.7.b.q.u.y.
00410C30 57 00 78 00 6A 00 4A 00 6F 00 6F 00 43 00 74 00 W.x.j.J.o.o.C.t.
00410C40 4B 00 55 00 00 00 00 00 44 00 00 00 00 00 56 00 K.U.....D.....V.
00410C50 61 00 72 00 46 00 69 00 6C 00 65 00 49 00 6E 00 a.r.F.i.l.e.I.n.
00410C60 66 00 6F 00 00 00 00 00 24 00 04 00 00 00 54 00 f.o.....$.....T.
00410C70 72 00 61 00 6E 00 73 00 6C 00 61 00 74 00 69 00 r.a.n.s.l.a.t.i.
00410C80 6F 00 6E 00 00 00 00 00 00 08 B0 04 00 00 00 00 o.n.............
00410C90 00 00 00 00 00 00 00 00 00 00 00 00 00 00 00 00 ................
00410CA0 00 00 00 00 00 00 00 00 00 00 00 00 00 00 00 00 ................
00410CB0 00 00 00 00 00 00 00 00 00 00 00 00 00 00 00 00 ................
00410CC0 00 00 00 00 00 00 00 00 00 00 00 00 00 00 00 00 ................
00410CD0 00 00 00 00 00 00 00 00 00 00 00 00 00 00 00 00 ................
00410CE0 00 00 00 00 00 00 00 00 00 00 00 00 00 00 00 00 ................
00410CF0 00 00 00 00 00 00 00 00 00 00 00 00 00 00 00 00 ................
00410D00 00 00 00 00 00 00 00 00 00 00 00 00 00 00 00 00 ................
00410D10 00 00 00 00 00 00 00 00 00 00 00 00 00 00 00 00 ................
00410D20 00 00 00 00 00 00 00 00 00 00 00 00 00 00 00 00 ................
00410D30 00 00 00 00 00 00 00 00 00 00 00 00 00 00 00 00 ................
00410D40 00 00 00 00 00 00 00 00 00 00 00 00 00 00 00 00 ................
00410D50 00 00 00 00 00 00 00 00 00 00 00 00 00 00 00 00 ................
00410D60 00 00 00 00 00 00 00 00 00 00 00 00 00 00 00 00 ................
00410D70 00 00 00 00 00 00 00 00 00 00 00 00 00 00 00 00 ................
00410D80 00 00 00 00 00 00 00 00 00 00 00 00 00 00 00 00 ................
00410D90 00 00 00 00 00 00 00 00 00 00 00 00 00 00 00 00 ................
00410DA0 00 00 00 00 00 00 00 00 00 00 00 00 00 00 00 00 ................
00410DB0 00 00 00 00 00 00 00 00 00 00 00 00 00 00 00 00 ................
00410DC0 00 00 00 00 00 00 00 00 00 00 00 00 00 00 00 00 ................
00410DD0 00 00 00 00 00 00 00 00 00 00 00 00 00 00 00 00 ................
00410DE0 00 00 00 00 00 00 00 00 00 00 00 00 00 00 00 00 ................
00410DF0 00 00 00 00 00 00 00 00 00 00 00 00 00 00 00 00 ................
00410E00 00 00 00 00 00 00 00 00 00 00 00 00 00 00 00 00 ................
00410E10 00 00 00 00 00 00 00 00 00 00 00 00 00 00 00 00 ................
00410E20 00 00 00 00 00 00 00 00 00 00 00 00 00 00 00 00 ................
00410E30 00 00 00 00 00 00 00 00 00 00 00 00 00 00 00 00 ................
00410E40 00 00 00 00 00 00 00 00 00 00 00 00 00 00 00 00 ................
00410E50 00 00 00 00 00 00 00 00 00 00 00 00 00 00 00 00 ................
00410E60 00 00 00 00 00 00 00 00 00 00 00 00 00 00 00 00 ................
00410E70 00 00 00 00 00 00 00 00 00 00 00 00 00 00 00 00 ................
00410E80 00 00 00 00 00 00 00 00 00 00 00 00 00 00 00 00 ................
00410E90 00 00 00 00 00 00 00 00 00 00 00 00 00 00 00 00 ................
00410EA0 00 00 00 00 00 00 00 00 00 00 00 00 00 00 00 00 ................
00410EB0 00 00 00 00 00 00 00 00 00 00 00 00 00 00 00 00 ................
00410EC0 00 00 00 00 00 00 00 00 00 00 00 00 00 00 00 00 ................
00410ED0 00 00 00 00 00 00 00 00 00 00 00 00 00 00 00 00 ................
00410EE0 00 00 00 00 00 00 00 00 00 00 00 00 00 00 00 00 ................
00410EF0 00 00 00 00 00 00 00 00 00 00 00 00 00 00 00 00 ................
00410F00 00 00 00 00 00 00 00 00 00 00 00 00 00 00 00 00 ................
00410F10 00 00 00 00 00 00 00 00 00 00 00 00 00 00 00 00 ................
00410F20 00 00 00 00 00 00 00 00 00 00 00 00 00 00 00 00 ................
00410F30 00 00 00 00 00 00 00 00 00 00 00 00 00 00 00 00 ................
00410F40 00 00 00 00 00 00 00 00 00 00 00 00 00 00 00 00 ................
00410F50 00 00 00 00 00 00 00 00 00 00 00 00 00 00 00 00 ................
00410F60 00 00 00 00 00 00 00 00 00 00 00 00 00 00 00 00 ................
00410F70 00 00 00 00 00 00 00 00 00 00 00 00 00 00 00 00 ................
00410F80 00 00 00 00 00 00 00 00 00 00 00 00 00 00 00 00 ................
00410F90 00 00 00 00 00 00 00 00 00 00 00 00 00 00 00 00 ................
00410FA0 00 00 00 00 00 00 00 00 00 00 00 00 00 00 00 00 ................
00410FB0 00 00 00 00 00 00 00 00 00 00 00 00 00 00 00 00 ................
00410FC0 00 00 00 00 00 00 00 00 00 00 00 00 00 00 00 00 ................
00410FD0 00 00 00 00 00 00 00 00 00 00 00 00 00 00 00 00 ................
00410FE0 00 00 00 00 00 00 00 00 00 00 00 00 00 00 00 00 ................
00410FF0 00 00 00 00 00 00 00 00 00 00 00 00 00 00 00 00 ................
