00400000 00 00 00 00 00 00 00 00 00 00 00 00 00 00 00 00 ................
00400010 00 00 00 00 00 00 00 00 00 00 00 00 00 00 00 00 ................
00400020 00 00 00 00 00 00 00 00 00 00 00 00 00 00 00 00 ................
00400030 00 00 00 00 00 00 00 00 00 00 00 00 00 00 00 00 ................
00400040 00 00 00 00 00 00 00 00 00 00 00 00 00 00 00 00 ................
00400050 00 00 00 00 00 00 00 00 00 00 00 00 00 00 00 00 ................
00400060 00 00 00 00 00 00 00 00 00 00 00 00 00 00 00 00 ................
00400070 00 00 00 00 00 00 00 00 00 00 00 00 00 00 00 00 ................
00400080 00 00 00 00 00 00 00 00 00 00 00 00 00 00 00 00 ................
00400090 00 00 00 00 00 00 00 00 00 00 00 00 00 00 00 00 ................
004000A0 00 00 00 00 00 00 00 00 00 00 00 00 00 00 00 00 ................
004000B0 00 00 00 00 00 00 00 00 00 00 00 00 00 00 00 00 ................
004000C0 00 00 00 00 00 00 00 00 00 00 00 00 00 00 00 00 ................
004000D0 00 00 00 00 00 00 00 00 00 00 00 00 00 00 00 00 ................
004000E0 00 00 00 00 00 00 00 00 00 00 00 00 00 00 00 00 ................
004000F0 00 00 00 00 00 00 00 00 00 00 00 00 00 00 00 00 ................
00400100 00 00 00 00 00 00 00 00 00 00 00 00 00 00 00 00 ................
00400110 00 00 00 00 00 00 00 00 00 00 00 00 00 00 00 00 ................
00400120 00 00 00 00 00 00 00 00 00 00 00 00 00 00 00 00 ................
00400130 00 00 00 00 00 00 00 00 00 00 00 00 00 00 00 00 ................
00400140 00 00 00 00 00 00 00 00 00 00 00 00 00 00 00 00 ................
00400150 00 00 00 00 00 00 00 00 00 00 00 00 00 00 00 00 ................
00400160 00 00 00 00 00 00 00 00 00 00 00 00 00 00 00 00 ................
00400170 00 00 00 00 00 00 00 00 00 00 00 00 00 00 00 00 ................
00400180 00 00 00 00 00 00 00 00 00 00 00 00 00 00 00 00 ................
00400190 00 00 00 00 00 00 00 00 00 00 00 00 00 00 00 00 ................
004001A0 00 00 00 00 00 00 00 00 00 00 00 00 00 00 00 00 ................
004001B0 00 00 00 00 00 00 00 00 00 00 00 00 00 00 00 00 ................
004001C0 00 00 00 00 00 00 00 00 00 00 00 00 00 00 00 00 ................
004001D0 00 00 00 00 00 00 00 00 00 00 00 00 00 00 00 00 ................
004001E0 00 00 00 00 00 00 00 00 00 00 00 00 00 00 00 00 ................
004001F0 00 00 00 00 00 00 00 00 00 00 00 00 00 00 00 00 ................
00400200 00 00 00 00 00 00 00 00 00 00 00 00 00 00 00 00 ................
00400210 00 00 00 00 00 00 00 00 00 00 00 00 00 00 00 00 ................
00400220 00 00 00 00 00 00 00 00 00 00 00 00 00 00 00 00 ................
00400230 00 00 00 00 00 00 00 00 00 00 00 00 00 00 00 00 ................
00400240 00 00 00 00 00 00 00 00 00 00 00 00 00 00 00 00 ................
00400250 00 00 00 00 00 00 00 00 00 00 00 00 00 00 00 00 ................
00400260 00 00 00 00 00 00 00 00 00 00 00 00 00 00 00 00 ................
00400270 00 00 00 00 00 00 00 00 00 00 00 00 00 00 00 00 ................
00400280 00 00 00 00 00 00 00 00 00 00 00 00 00 00 00 00 ................
00400290 00 00 00 00 00 00 00 00 00 00 00 00 00 00 00 00 ................
004002A0 00 00 00 00 00 00 00 00 00 00 00 00 00 00 00 00 ................
004002B0 00 00 00 00 00 00 00 00 00 00 00 00 00 00 00 00 ................
004002C0 00 00 00 00 00 00 00 00 00 00 00 00 00 00 00 00 ................
004002D0 00 00 00 00 00 00 00 00 00 00 00 00 00 00 00 00 ................
004002E0 00 00 00 00 00 00 00 00 00 00 00 00 00 00 00 00 ................
004002F0 00 00 00 00 00 00 00 00 00 00 00 00 00 00 00 00 ................
00400300 00 00 00 00 00 00 00 00 00 00 00 00 00 00 00 00 ................
00400310 00 00 00 00 00 00 00 00 00 00 00 00 00 00 00 00 ................
00400320 00 00 00 00 00 00 00 00 00 00 00 00 00 00 00 00 ................
00400330 00 00 00 00 00 00 00 00 00 00 00 00 00 00 00 00 ................
00400340 00 00 00 00 00 00 00 00 00 00 00 00 00 00 00 00 ................
00400350 00 00 00 00 00 00 00 00 00 00 00 00 00 00 00 00 ................
00400360 00 00 00 00 00 00 00 00 00 00 00 00 00 00 00 00 ................
00400370 00 00 00 00 00 00 00 00 00 00 00 00 00 00 00 00 ................
00400380 00 00 00 00 00 00 00 00 00 00 00 00 00 00 00 00 ................
00400390 00 00 00 00 00 00 00 00 00 00 00 00 00 00 00 00 ................
004003A0 00 00 00 00 00 00 00 00 00 00 00 00 00 00 00 00 ................
004003B0 00 00 00 00 00 00 00 00 00 00 00 00 00 00 00 00 ................
004003C0 00 00 00 00 00 00 00 00 00 00 00 00 00 00 00 00 ................
004003D0 00 00 00 00 00 00 00 00 00 00 00 00 00 00 00 00 ................
004003E0 00 00 00 00 00 00 00 00 00 00 00 00 00 00 00 00 ................
004003F0 00 00 00 00 00 00 00 00 00 00 00 00 00 00 00 00 ................
00400400 00 00 00 00 00 00 00 00 00 00 00 00 00 00 00 00 ................
00400410 00 00 00 00 00 00 00 00 00 00 00 00 00 00 00 00 ................
00400420 00 00 00 00 00 00 00 00 00 00 00 00 00 00 00 00 ................
00400430 00 00 00 00 00 00 00 00 00 00 00 00 00 00 00 00 ................
00400440 00 00 00 00 00 00 00 00 00 00 00 00 00 00 00 00 ................
00400450 00 00 00 00 00 00 00 00 00 00 00 00 00 00 00 00 ................
00400460 00 00 00 00 00 00 00 00 00 00 00 00 00 00 00 00 ................
00400470 00 00 00 00 00 00 00 00 00 00 00 00 00 00 00 00 ................
00400480 00 00 00 00 00 00 00 00 00 00 00 00 00 00 00 00 ................
00400490 00 00 00 00 00 00 00 00 00 00 00 00 00 00 00 00 ................
004004A0 00 00 00 00 00 00 00 00 00 00 00 00 00 00 00 00 ................
004004B0 00 00 00 00 00 00 00 00 00 00 00 00 00 00 00 00 ................
004004C0 00 00 00 00 00 00 00 00 00 00 00 00 00 00 00 00 ................
004004D0 00 00 00 00 00 00 00 00 00 00 00 00 00 00 00 00 ................
004004E0 00 00 00 00 00 00 00 00 00 00 00 00 00 00 00 00 ................
004004F0 00 00 00 00 00 00 00 00 00 00 00 00 00 00 00 00 ................
00400500 00 00 00 00 00 00 00 00 00 00 00 00 00 00 00 00 ................
00400510 00 00 00 00 00 00 00 00 00 00 00 00 00 00 00 00 ................
00400520 00 00 00 00 00 00 00 00 00 00 00 00 00 00 00 00 ................
00400530 00 00 00 00 00 00 00 00 00 00 00 00 00 00 00 00 ................
00400540 00 00 00 00 00 00 00 00 00 00 00 00 00 00 00 00 ................
00400550 00 00 00 00 00 00 00 00 00 00 00 00 00 00 00 00 ................
00400560 00 00 00 00 00 00 00 00 00 00 00 00 00 00 00 00 ................
00400570 00 00 00 00 00 00 00 00 00 00 00 00 00 00 00 00 ................
00400580 00 00 00 00 00 00 00 00 00 00 00 00 00 00 00 00 ................
00400590 00 00 00 00 00 00 00 00 00 00 00 00 00 00 00 00 ................
004005A0 00 00 00 00 00 00 00 00 00 00 00 00 00 00 00 00 ................
004005B0 00 00 00 00 00 00 00 00 00 00 00 00 00 00 00 00 ................
004005C0 00 00 00 00 00 00 00 00 00 00 00 00 00 00 00 00 ................
004005D0 00 00 00 00 00 00 00 00 00 00 00 00 00 00 00 00 ................
004005E0 00 00 00 00 00 00 00 00 00 00 00 00 00 00 00 00 ................
004005F0 00 00 00 00 00 00 00 00 00 00 00 00 00 00 00 00 ................
00400600 00 00 00 00 00 00 00 00 00 00 00 00 00 00 00 00 ................
00400610 00 00 00 00 00 00 00 00 00 00 00 00 00 00 00 00 ................
00400620 00 00 00 00 00 00 00 00 00 00 00 00 00 00 00 00 ................
00400630 00 00 00 00 00 00 00 00 00 00 00 00 00 00 00 00 ................
00400640 00 00 00 00 00 00 00 00 00 00 00 00 00 00 00 00 ................
00400650 00 00 00 00 00 00 00 00 00 00 00 00 00 00 00 00 ................
00400660 00 00 00 00 00 00 00 00 00 00 00 00 00 00 00 00 ................
00400670 00 00 00 00 00 00 00 00 00 00 00 00 00 00 00 00 ................
00400680 00 00 00 00 00 00 00 00 00 00 00 00 00 00 00 00 ................
00400690 00 00 00 00 00 00 00 00 00 00 00 00 00 00 00 00 ................
004006A0 00 00 00 00 00 00 00 00 00 00 00 00 00 00 00 00 ................
004006B0 00 00 00 00 00 00 00 00 00 00 00 00 00 00 00 00 ................
004006C0 00 00 00 00 00 00 00 00 00 00 00 00 00 00 00 00 ................
004006D0 00 00 00 00 00 00 00 00 00 00 00 00 00 00 00 00 ................
004006E0 00 00 00 00 00 00 00 00 00 00 00 00 00 00 00 00 ................
004006F0 00 00 00 00 00 00 00 00 00 00 00 00 00 00 00 00 ................
00400700 00 00 00 00 00 00 00 00 00 00 00 00 00 00 00 00 ................
00400710 00 00 00 00 00 00 00 00 00 00 00 00 00 00 00 00 ................
00400720 00 00 00 00 00 00 00 00 00 00 00 00 00 00 00 00 ................
00400730 00 00 00 00 00 00 00 00 00 00 00 00 00 00 00 00 ................
00400740 00 00 00 00 00 00 00 00 00 00 00 00 00 00 00 00 ................
00400750 00 00 00 00 00 00 00 00 00 00 00 00 00 00 00 00 ................
00400760 00 00 00 00 00 00 00 00 00 00 00 00 00 00 00 00 ................
00400770 00 00 00 00 00 00 00 00 00 00 00 00 00 00 00 00 ................
00400780 00 00 00 00 00 00 00 00 00 00 00 00 00 00 00 00 ................
00400790 00 00 00 00 00 00 00 00 00 00 00 00 00 00 00 00 ................
004007A0 00 00 00 00 00 00 00 00 00 00 00 00 00 00 00 00 ................
004007B0 00 00 00 00 00 00 00 00 00 00 00 00 00 00 00 00 ................
004007C0 00 00 00 00 00 00 00 00 00 00 00 00 00 00 00 00 ................
004007D0 00 00 00 00 00 00 00 00 00 00 00 00 00 00 00 00 ................
004007E0 00 00 00 00 00 00 00 00 00 00 00 00 00 00 00 00 ................
004007F0 00 00 00 00 00 00 00 00 00 00 00 00 00 00 00 00 ................
00400800 00 00 00 00 00 00 00 00 00 00 00 00 00 00 00 00 ................
00400810 00 00 00 00 00 00 00 00 00 00 00 00 00 00 00 00 ................
00400820 00 00 00 00 00 00 00 00 00 00 00 00 00 00 00 00 ................
00400830 00 00 00 00 00 00 00 00 00 00 00 00 00 00 00 00 ................
00400840 00 00 00 00 00 00 00 00 00 00 00 00 00 00 00 00 ................
00400850 00 00 00 00 00 00 00 00 00 00 00 00 00 00 00 00 ................
00400860 00 00 00 00 00 00 00 00 00 00 00 00 00 00 00 00 ................
00400870 00 00 00 00 00 00 00 00 00 00 00 00 00 00 00 00 ................
00400880 00 00 00 00 00 00 00 00 00 00 00 00 00 00 00 00 ................
00400890 00 00 00 00 00 00 00 00 00 00 00 00 00 00 00 00 ................
004008A0 00 00 00 00 00 00 00 00 00 00 00 00 00 00 00 00 ................
004008B0 00 00 00 00 00 00 00 00 00 00 00 00 00 00 00 00 ................
004008C0 00 00 00 00 00 00 00 00 00 00 00 00 00 00 00 00 ................
004008D0 00 00 00 00 00 00 00 00 00 00 00 00 00 00 00 00 ................
004008E0 00 00 00 00 00 00 00 00 00 00 00 00 00 00 00 00 ................
004008F0 00 00 00 00 00 00 00 00 00 00 00 00 00 00 00 00 ................
00400900 00 00 00 00 00 00 00 00 00 00 00 00 00 00 00 00 ................
00400910 00 00 00 00 00 00 00 00 00 00 00 00 00 00 00 00 ................
00400920 00 00 00 00 00 00 00 00 00 00 00 00 00 00 00 00 ................
00400930 00 00 00 00 00 00 00 00 00 00 00 00 00 00 00 00 ................
00400940 00 00 00 00 00 00 00 00 00 00 00 00 00 00 00 00 ................
00400950 00 00 00 00 00 00 00 00 00 00 00 00 00 00 00 00 ................
00400960 00 00 00 00 00 00 00 00 00 00 00 00 00 00 00 00 ................
00400970 00 00 00 00 00 00 00 00 00 00 00 00 00 00 00 00 ................
00400980 00 00 00 00 00 00 00 00 00 00 00 00 00 00 00 00 ................
00400990 00 00 00 00 00 00 00 00 00 00 00 00 00 00 00 00 ................
004009A0 00 00 00 00 00 00 00 00 00 00 00 00 00 00 00 00 ................
004009B0 00 00 00 00 00 00 00 00 00 00 00 00 00 00 00 00 ................
004009C0 00 00 00 00 00 00 00 00 00 00 00 00 00 00 00 00 ................
004009D0 00 00 00 00 00 00 00 00 00 00 00 00 00 00 00 00 ................
004009E0 00 00 00 00 00 00 00 00 00 00 00 00 00 00 00 00 ................
004009F0 00 00 00 00 00 00 00 00 00 00 00 00 00 00 00 00 ................
00400A00 00 00 00 00 00 00 00 00 00 00 00 00 00 00 00 00 ................
00400A10 00 00 00 00 00 00 00 00 00 00 00 00 00 00 00 00 ................
00400A20 00 00 00 00 00 00 00 00 00 00 00 00 00 00 00 00 ................
00400A30 00 00 00 00 00 00 00 00 00 00 00 00 00 00 00 00 ................
00400A40 00 00 00 00 00 00 00 00 00 00 00 00 00 00 00 00 ................
00400A50 00 00 00 00 00 00 00 00 00 00 00 00 00 00 00 00 ................
00400A60 00 00 00 00 00 00 00 00 00 00 00 00 00 00 00 00 ................
00400A70 00 00 00 00 00 00 00 00 00 00 00 00 00 00 00 00 ................
00400A80 00 00 00 00 00 00 00 00 00 00 00 00 00 00 00 00 ................
00400A90 00 00 00 00 00 00 00 00 00 00 00 00 00 00 00 00 ................
00400AA0 00 00 00 00 00 00 00 00 00 00 00 00 00 00 00 00 ................
00400AB0 00 00 00 00 00 00 00 00 00 00 00 00 00 00 00 00 ................
00400AC0 00 00 00 00 00 00 00 00 00 00 00 00 00 00 00 00 ................
00400AD0 00 00 00 00 00 00 00 00 00 00 00 00 00 00 00 00 ................
00400AE0 00 00 00 00 00 00 00 00 00 00 00 00 00 00 00 00 ................
00400AF0 00 00 00 00 00 00 00 00 00 00 00 00 00 00 00 00 ................
00400B00 00 00 00 00 00 00 00 00 00 00 00 00 00 00 00 00 ................
00400B10 00 00 00 00 00 00 00 00 00 00 00 00 00 00 00 00 ................
00400B20 00 00 00 00 00 00 00 00 00 00 00 00 00 00 00 00 ................
00400B30 00 00 00 00 00 00 00 00 00 00 00 00 00 00 00 00 ................
00400B40 00 00 00 00 00 00 00 00 00 00 00 00 00 00 00 00 ................
00400B50 00 00 00 00 00 00 00 00 00 00 00 00 00 00 00 00 ................
00400B60 00 00 00 00 00 00 00 00 00 00 00 00 00 00 00 00 ................
00400B70 00 00 00 00 00 00 00 00 00 00 00 00 00 00 00 00 ................
00400B80 00 00 00 00 00 00 00 00 00 00 00 00 00 00 00 00 ................
00400B90 00 00 00 00 00 00 00 00 00 00 00 00 00 00 00 00 ................
00400BA0 00 00 00 00 00 00 00 00 00 00 00 00 00 00 00 00 ................
00400BB0 00 00 00 00 00 00 00 00 00 00 00 00 00 00 00 00 ................
00400BC0 00 00 00 00 00 00 00 00 00 00 00 00 00 00 00 00 ................
00400BD0 00 00 00 00 00 00 00 00 00 00 00 00 00 00 00 00 ................
00400BE0 00 00 00 00 00 00 00 00 00 00 00 00 00 00 00 00 ................
00400BF0 00 00 00 00 00 00 00 00 00 00 00 00 00 00 00 00 ................
00400C00 00 00 00 00 00 00 00 00 00 00 00 00 00 00 00 00 ................
00400C10 00 00 00 00 00 00 00 00 00 00 00 00 00 00 00 00 ................
00400C20 00 00 00 00 00 00 00 00 00 00 00 00 00 00 00 00 ................
00400C30 00 00 00 00 00 00 00 00 00 00 00 00 00 00 00 00 ................
00400C40 00 00 00 00 00 00 00 00 00 00 00 00 00 00 00 00 ................
00400C50 00 00 00 00 00 00 00 00 00 00 00 00 00 00 00 00 ................
00400C60 00 00 00 00 00 00 00 00 00 00 00 00 00 00 00 00 ................
00400C70 00 00 00 00 00 00 00 00 00 00 00 00 00 00 00 00 ................
00400C80 00 00 00 00 00 00 00 00 00 00 00 00 00 00 00 00 ................
00400C90 00 00 00 00 00 00 00 00 00 00 00 00 00 00 00 00 ................
00400CA0 00 00 00 00 00 00 00 00 00 00 00 00 00 00 00 00 ................
00400CB0 00 00 00 00 00 00 00 00 00 00 00 00 00 00 00 00 ................
00400CC0 00 00 00 00 00 00 00 00 00 00 00 00 00 00 00 00 ................
00400CD0 00 00 00 00 00 00 00 00 00 00 00 00 00 00 00 00 ................
00400CE0 00 00 00 00 00 00 00 00 00 00 00 00 00 00 00 00 ................
00400CF0 00 00 00 00 00 00 00 00 00 00 00 00 00 00 00 00 ................
00400D00 00 00 00 00 00 00 00 00 00 00 00 00 00 00 00 00 ................
00400D10 00 00 00 00 00 00 00 00 00 00 00 00 00 00 00 00 ................
00400D20 00 00 00 00 00 00 00 00 00 00 00 00 00 00 00 00 ................
00400D30 00 00 00 00 00 00 00 00 00 00 00 00 00 00 00 00 ................
00400D40 00 00 00 00 00 00 00 00 00 00 00 00 00 00 00 00 ................
00400D50 00 00 00 00 00 00 00 00 00 00 00 00 00 00 00 00 ................
00400D60 00 00 00 00 00 00 00 00 00 00 00 00 00 00 00 00 ................
00400D70 00 00 00 00 00 00 00 00 00 00 00 00 00 00 00 00 ................
00400D80 00 00 00 00 00 00 00 00 00 00 00 00 00 00 00 00 ................
00400D90 00 00 00 00 00 00 00 00 00 00 00 00 00 00 00 00 ................
00400DA0 00 00 00 00 00 00 00 00 00 00 00 00 00 00 00 00 ................
00400DB0 00 00 00 00 00 00 00 00 00 00 00 00 00 00 00 00 ................
00400DC0 00 00 00 00 00 00 00 00 00 00 00 00 00 00 00 00 ................
00400DD0 00 00 00 00 00 00 00 00 00 00 00 00 00 00 00 00 ................
00400DE0 00 00 00 00 00 00 00 00 00 00 00 00 00 00 00 00 ................
00400DF0 00 00 00 00 00 00 00 00 00 00 00 00 00 00 00 00 ................
00400E00 00 00 00 00 00 00 00 00 00 00 00 00 00 00 00 00 ................
00400E10 00 00 00 00 00 00 00 00 00 00 00 00 00 00 00 00 ................
00400E20 00 00 00 00 00 00 00 00 00 00 00 00 00 00 00 00 ................
00400E30 00 00 00 00 00 00 00 00 00 00 00 00 00 00 00 00 ................
00400E40 00 00 00 00 00 00 00 00 00 00 00 00 00 00 00 00 ................
00400E50 00 00 00 00 00 00 00 00 00 00 00 00 00 00 00 00 ................
00400E60 00 00 00 00 00 00 00 00 00 00 00 00 00 00 00 00 ................
00400E70 00 00 00 00 00 00 00 00 00 00 00 00 00 00 00 00 ................
00400E80 00 00 00 00 00 00 00 00 00 00 00 00 00 00 00 00 ................
00400E90 00 00 00 00 00 00 00 00 00 00 00 00 00 00 00 00 ................
00400EA0 00 00 00 00 00 00 00 00 00 00 00 00 00 00 00 00 ................
00400EB0 00 00 00 00 00 00 00 00 00 00 00 00 00 00 00 00 ................
00400EC0 00 00 00 00 00 00 00 00 00 00 00 00 00 00 00 00 ................
00400ED0 00 00 00 00 00 00 00 00 00 00 00 00 00 00 00 00 ................
00400EE0 00 00 00 00 00 00 00 00 00 00 00 00 00 00 00 00 ................
00400EF0 00 00 00 00 00 00 00 00 00 00 00 00 00 00 00 00 ................
00400F00 00 00 00 00 00 00 00 00 00 00 00 00 00 00 00 00 ................
00400F10 00 00 00 00 00 00 00 00 00 00 00 00 00 00 00 00 ................
00400F20 00 00 00 00 00 00 00 00 00 00 00 00 00 00 00 00 ................
00400F30 00 00 00 00 00 00 00 00 00 00 00 00 00 00 00 00 ................
00400F40 00 00 00 00 00 00 00 00 00 00 00 00 00 00 00 00 ................
00400F50 00 00 00 00 00 00 00 00 00 00 00 00 00 00 00 00 ................
00400F60 00 00 00 00 00 00 00 00 00 00 00 00 00 00 00 00 ................
00400F70 00 00 00 00 00 00 00 00 00 00 00 00 00 00 00 00 ................
00400F80 00 00 00 00 00 00 00 00 00 00 00 00 00 00 00 00 ................
00400F90 00 00 00 00 00 00 00 00 00 00 00 00 00 00 00 00 ................
00400FA0 00 00 00 00 00 00 00 00 00 00 00 00 00 00 00 00 ................
00400FB0 00 00 00 00 00 00 00 00 00 00 00 00 00 00 00 00 ................
00400FC0 00 00 00 00                                     ....           

l00400FC4:
	add	[eax],al
	add	[eax],al
	add	[eax],al
	add	[eax],al
	add	[eax],al
	add	[eax],al
	add	[eax],al
	add	[eax],al
	add	[eax],al
	add	[eax],al
	add	[eax],al
	add	[eax],al
	add	[eax],al
	add	[eax],al
	add	[eax],al
	add	[eax],al
	add	[eax],al
	add	[eax],al
	add	[eax],al
	add	[eax],al
	add	[eax],al
	add	[eax],al
	add	[eax],al
	add	[eax],al
	add	[eax],al
	add	[eax],al
	add	[eax],al
	add	[eax],al
	add	[eax],al
	add	[eax],al
00401000 E8 25 25 FF 25 74 74                            .%%.%tt        

fn00401007()
	dec	ecx
	mov	ebx,edi
	inc	edi
	dec	esi
	inc	esi
	dec	esi
	or	edi,eax
	mov	edi,ecx
	dec	ecx
	inc	edi
	dec	ecx
	inc	edi
	mov	esi,ecx
	or	edi,edx
	inc	ebx
	or	ebx,edx
	dec	edi
	mov	ebx,edi
	or	esi,edx
	jle	004013DA

l00401028:
	lea	edi,[edi]
	jg	004013DA

l00401030:
	jz	004010A6

l00401032:
	and	eax,7425E8FF
	jz	00400FC4

l00401039:
	cli	
	or	edi,ecx
	inc	edi
	mov	edi,ebx
	or	edi,ecx
	inc	edx
	dec	esi
	mov	edx,edi
	inc	edi
	dec	edx
	inc	esi
	push	dword ptr [ecx+08]
	mov	edx,esi
	dec	ebx
	or	esi,edx
	mov	esi,ebx
	dec	ebx
	inc	esi
	mov	esi,edi
	jz	004010C1

l00401058:
	jo	0040105A

l0040105A:
	mov	esi,esi
	jnz	004010C1

l0040105E:
	push	dword ptr [edi+edi*8+74]
	jz	0040106F

l00401064:
	mov	dword ptr [eax+0B],F98B46F3
	or	ebx,esi
	mov	ebx,eax

l0040106F:
	inc	ebx
	or	ebx,eax
	dec	esi
	mov	ebx,edi
	inc	edi
	mov	esi,eax
	inc	esi
	mov	edx,esi
	js	0040136F
	lea	ecx,[ecx]
	jns	0040136F
	jz	00401073
	and	eax,0BFFE8E8

l0040108F:
	or	ebx,edi
	inc	esi
	mov	esi,ecx
	dec	ebx
	mov	ebx,ecx
	inc	ebx
	xor	ch,bl
	add	bh,dl
	mov	edi,edx
	dec	esi
	or	ebx,ecx
	sub	cl,dl
	or	esi,edx
	or	bh,ch

l004010A6:
	std	
	sub	ch,al
	dec	ebx
	sub	bl,bh
	dec	edi
	jle	004011EF

l004010B3:
	repne	
	nop	
	jg	004011EF
	and	eax,25252525
	and	eax,8B4AF00B

l004010C1:
	or	esi,eax
	dec	edx
	mov	edx,ebx
	dec	edi
	inc	esi
	dec	ebx
	or	edi,eax
	pop	ecx
	or	ebx,ecx
	mov	edx,ebx
	dec	ebx
	inc	edi
	or	ebx,ecx
	inc	edx
	dec	edx
	or	edi,ebx
	mov	ebx,edx
	inc	edi
	and	ecx,EEEEEEEE
	js	00401461

l004010E7:
	push	ebx
	pop	ebx
	jns	00401461

l004010EF:
	illegal	
	and	eax,8B41E825
	retf	0B43
	repne	
	dec	ecx
	or	edx,eax
	mov	ebx,edx
	or	ebx,esi
	mov	edi,eax
	dec	ebx
	mov	esi,ecx
	push	dword ptr fs:[eax]
	dec	edx
	or	edx,ebx
	jl	00401221
	push	ecx
	pop	ecx
	jge	00401221
	jmp	dword ptr [FA8B7425]
	or	esi,edi
	dec	ebx
	or	esi,ebx
	dec	edi
	or	edx,edi
	movzx	eax,al
	inc	edx
	mov	ebx,eax
	or	edx,ecx
	inc	edi
	or	esi,ecx
	mov	edx,ecx
	inc	ebx
	dec	edx
	inc	esi
	js	0040133F
	mov	edx,edx
	jmp	00401145
	jns	0040133F
	illegal	
	call	418B1077
	or	esi,edi
	inc	edi
	mov	edi,ebx
	dec	edx
	shl	eax,03
	mov	edi,ebx
	or	ecx,edi
	dec	ecx
	inc	edi
	mov	ebx,edx
	or	edx,edi
	jc	004010F4
	repne	
	jnc	004010F4
	call	FF658657
	and	eax,D18BFFFF
	inc	esi
	mov	edx,ebx
	or	eax,10
	or	edi,ecx
	dec	esi
	inc	esi
	or	ebx,edx
	inc	edi
	dec	esi
	or	edx,ebx
	mov	ebx,eax
	dec	edi
	or	esi,ebx
	mov	edx,ebx
	inc	ebx
	jl	0040111E
	nop	
	jge	0040111E
	call	FFB4370A
	call	DACBE292
	or	edi,eax
	dec	edx
	inc	esi
	mov	esi,edx
	inc	esi
	or	ecx,edi
	dec	ecx
	or	ebx,esi
	dec	edi
	and	eax,03
	inc	edx
	mov	ecx,esi
	dec	ebx
	inc	esi
	mov	esi,ebx
	js	00401150
	nop	
	jpe	004011B7
	jns	00401150
	call	8B65FAA6
	test	dword ptr [esi+0B],DE8B4AF3
	or	edi,edx
	mov	edi,ebx
	or	esi,edi
	mov	esi,ebx
	dec	edx
	or	edx,edi
	mov	edx,ecx
	dec	edx
	inc	esi
	shl	eax,01
	mov	ebx,edi
	inc	edi
	js	004012E1
	nop	
	lea	edi,[edi]
	jns	004012E1
	jz	004011E9
	illegal	
	call	E8428665

l004011EF:
	add	ch,al
	dec	ecx
	mov	bl,ch
	dec	ebx
	mov	bl,bh
	or	edi,ebx
	inc	edi
	mov	ch,A6
	add	bl,dl
	or	ecx,edx
	sub	ch,ah
	mov	bl,al
	dec	esi
	mov	ecx,esi
	xor	ch,dl
	or	ecx,ebx
	jc	00401436
	repne	
	jge	00401214
	jnc	00401436
	jz	00401204
	jz	00401206
	call	49838697
	inc	edx
	or	ebx,esi
	dec	ebx
	mov	edx,edi
	dec	esi
	mov	ebx,ecx
	inc	ecx
	mov	esi,edi
	dec	edx
	mov	edx,ecx
	inc	edi
	dec	ecx
	mov	ebx,esi
	pop	ecx
	dec	esi
	or	edx,esi
	jz	004011BD
	mov	edi,edi
	jnz	004011BD
	and	eax,74FF74E8
	and	eax,D68B25FF
	dec	edx
	pop	ecx
	dec	edx
	inc	edi
	dec	esi
	inc	edx
	dec	edi
	mov	edi,eax
	or	edx,esi
	dec	edx
	mov	ebx,eax
	dec	edi
	or	edi,ecx
	mov	ecx,[ecx]
	jbe	00401038
	rep	
	ja	00401038
	push	dword ptr [esp+esi*2-01]
	jz	00401277
	and	eax,46FB8BE8
	mov	edi,esi
	dec	ebx
	mov	edx,esi
	dec	ebx
	mov	edx,ecx
	dec	edx
	mov	edx,esi
	or	ebx,ecx
	dec	esi
	inc	edi
	pop	ecx
	inc	esi
	jle	00401407
	push	edi
	pop	edi
	jg	00401407
	and	eax,FFFFE8E8
	mov	esi,eax
	shl	eax,03
	inc	edi
	mov	edx,edi
	dec	edi
	inc	esi
	or	esi,ebx
	dec	edi
	or	ebx,edi
	dec	edi
	mov	esi,edi
	dec	edx
	mov	edi,esi
	dec	ebx
	mov	esi,ecx
	or	edi,ecx
	jo	00401172
	repne	
	nop	
	jno	00401172
	illegal	
	jz	004012CC
	jz	004012CE
	dec	esi
	or	edi,ecx
	mov	ebx,edx
	inc	esi
	dec	ebx
	inc	esi
	or	edi,eax
	mov	ecx,edx
	inc	ebx
	jmp	004014F0
	or	edx,ebx
	dec	edi
	inc	edi
	or	edi,edx
	mov	ebx,eax
	or	esi,ecx
	inc	edx
	dec	ebx
	mov	edi,ecx
	dec	edi
	mov	edi,esi
	inc	edx
	mov	esi,edx
	or	ebx,edx
	mov	edx,esi
	push	dword ptr [eax+ecx]
	inc	edi
	jo	0040127A
	mov	ecx,ecx
	jnc	00401307
	jno	0040127A
	call	74653911
	and	eax,F20BD08B
	sub	ecx,EEEEEEEE
	dec	edi
	mov	ebx,edi
	dec	ebx
	inc	edx
	or	edx,ecx
	mov	esi,edi
	inc	edx
	dec	esi
	inc	edi
	mov	edi,ebx
	inc	edx
	mov	esi,ecx
	inc	ebx
	jc	004013A9
	jno	00401333
	lea	eax,[eax]
	jnc	004013A9
	jz	0040135E
	jz	00401323
	jz	00401325
	and	eax,F28B4EFF
	inc	edx
	push	dword ptr [eax+ecx]
	dec	esi
	mov	ebx,edi
	or	edx,eax
	inc	ebx
	dec	edx
	mov	esi,edi
	dec	esi
	mov	edx,ebx
	or	ebx,edi
	inc	edi
	dec	edi
	or	ebx,esi
	inc	ebx
	jz	00401250
	push	edi
	pop	edi
	jnz	00401250
	call	E865886B
	jz	00401393
	jmp	dword ptr [edx]
	fld	double ptr [edx]
	jcxz	004012F5
	shl	edi,6B
	cmp	al,dl
	dec	edx
	sub	bl,ch
	cmp	ecx,6AAB9ED4
	jnz	0040136F
	mov	edx,esi
	dec	ecx
	inc	ecx
	mov	ebx,edx
	or	esi,eax
	mov	esi,eax
	or	edi,ecx
	mov	eax,ebx
	or	edi,eax
	jle	004014BC
	jge	0040139C
	lea	esi,[esi]
	jg	004014BC
	jz	0040138E
	call	F0CB88AA
	or	edx,ecx
	or	ecx,ecx
	jz	004013B2
	ret	
	mov	edi,ecx
	inc	ecx
	dec	edi
	or	edi,esi
	mov	eax,ecx
	inc	esi
	or	edi,edx
	inc	esi
	mov	ebx,eax
	or	eax,esi
	mov	edi,edx
	or	esi,eax
	dec	edx
	inc	edi
	jo	004012CF
	repne	
	jno	004012CF
	call	FFB487FF

l004013DA:
	dec	ecx
	inc	edi
	mov	edi,eax
	dec	edi
	mov	ecx,edi
	or	ebx,ecx
	dec	edi
	inc	esi
	mov	ecx,esi
	inc	ecx
	mov	ecx,ebx
	inc	edi
	dec	esi
	mov	edi,eax
	or	esi,ebx
	dec	edi
	jc	0040108F

l004013F7:
	mov	eax,eax
	jnc	0040108F

l004013FF:
	call	FF6588EC
	call	F94C137D
	inc	ebx
	dec	edi
	inc	ebx
	mov	ebx,edi
	or	edx,esi
	mov	edx,ecx
	dec	ebx
	mov	edx,ecx
	or	edx,esi
	mov	edx,ecx
	or	ebx,edx
	mov	edi,ecx
	dec	ebx
	inc	edx
	dec	esi
	jz	004012A1
	mov	esi,esi
	jnz	004012A1
	call	74B488A7
	jz	00401434
	call	DD730BC5
	or	ecx,eax
	inc	edi
	or	bl,cl
	mov	esi,ebx
	dec	ebx
	or	ebx,eax
	mov	ebx,ecx
	or	ecx,edx
	xor	ch,al
	mov	ecx,edx
	inc	ecx
	dec	ecx
	mov	esi,ecx
	inc	edi
	dec	esi
	mov	ebx,edi
	inc	edi
	jbe	0040148E
	jno	00401459
	ja	0040148E
	illegal	
	call	8BB488D6

l00401461:
	mov	esi,ebx
	or	esi,eax
	inc	edx
	or	esi,edx
	dec	ebx
	inc	edx
	or	ebx,esi
	inc	edi
	or	esi,edx
	mov	ebx,esi
	dec	ebx
	mov	edi,eax
	or	edi,ecx
	inc	edi
	or	edx,ebx
	mov	edi,ebx
	inc	ebx
	jl	00401313
	jnc	00401484
	jge	00401313
	call	8B65FD77
	dec	byte ptr [ebx]
	retf	0B48
	dec	byte ptr [ecx-75]
	fimul	word ptr [eax+46]
	or	ecx,edx
	dec	edi
	mov	ecx,edi
	or	edx,ecx
	mov	ecx,84FE7DD2
	inc	edi
	jbe	00401063
	nop	
	ja	00401063
	jz	0040152A
	call	FFB513E0
	and	eax,46D08B41
	mov	eax,esp
	mov	esi,edx
	inc	edi
	mov	ebx,edi
	inc	edi
	dec	esi
	mov	ecx,ebx
	dec	esi
	or	ebx,ecx
	inc	edx
	or	esi,ebx
	mov	edx,esi
	dec	edi
	mov	esi,edx
	or	ecx,edi
	jpe	00401197
	lea	eax,[eax]
	jmp	004014E5
	jpo	00401197
	jz	004014D5
	push	dword ptr [ebp-18]
	sub	[edi],cl
	add	[eax],al
	push	edi
	push	edi
	test	al,57
	call	far 0AA8:A857
	test	al,C8
	les	ecx,eax
	enter	08CC,6A
	movsd	
	fmul	st(0),st(0)
	enter	0FC8,DA
	cmc	
	fmul	st(0),st(0)
	enter	2BE9,C8
	enter	A4C8,D9
	les	ecx,eax
	enter	1A0A,AA
	sub	[esi+4A],ecx
	dec	eax
	test	al,E9
	fmul	st(0),st(0)
	enter	AEAA,A8
	not	ecx
	or	ch,[eax+C8C8C804]
	int	03
	or	[ebp+edx*2+CCC8C8C4],ah
	test	al,9A
	test	al,CC
	call	far B83D:16A8
	fcompp	
	cmp	[esi],bl
	mov	[3D870FC8],al
	sub	dh,al
	inc	esp
	int	03
	enter	C8C8,A2
	les	esp,[edx+edi*2+7DC8C8D8]
	or	fs:[eax+ebx*8+5B],bh
	jl	0040153A
	pop	ebx
	jo	0040152A
	movsb	
	out	D8,al
	enter	CCC8,57
	push	edi
	push	edi
	test	al,CC
	test	al,B9
	ror	al,C8
	cmp	eax,283D48D7
	fmul	st(0),st(3)
	sti	
	cmp	eax,C5DCABCB
	and	eax,96CC08D7
	test	al,A2
	enter	80A8,DC
	enter	25C8,D7
	sbb	[7EDC4876],bh
	sti	
	movsb	
	ror	eax,C8
	enter	9A57,CC
	int	03
	call	far 2C3D:599C
	dec	esi
	jc	004015CD
	sar	dword ptr [ebx],C8
	push	ss
	cmp	eax,C99F6EB8
	cmp	eax,F63D3B36
	sub	ebx,[ecx+D4ADA44E]
	enter	57C8,57
	call	far 3DCC:9AA8
	fistp	qword ptr [ebx]
	fcom	st(0),st(7)
	dec	eax
	int	03
	sahf	
	pop	ebx
	int	03
	sahf	
	sub	ecx,[edx]
	test	al,26
	ror	al,C8
	illegal	
	stosd	
	aas	
	and	al,0F
	illegal	
	jns	0040160A
	enter	CCC8,96
	test	al,CC
	xchg	eax,esi
	sbb	[eax+C8C8C0A6],ch
	cmp	eax,95A44836
	ror	al,01
	enter	CC9A,57
	call	far 247E:9A57
	shr	dword ptr [ebx],C8
	push	ss
	cmp	eax,F8D9DEB8
	push	ds
	adc	ch,[esi+3D]
	xlat	
	sub	ebx,esp
	retf	
	sti	
	cmp	eax,CB3D2B16
	jmp	far E83D:C1DC
	cmp	eax,80DC4B8A
	cmp	eax,36256B2A
	clc	
	movsb	
	illegal	
	fmul	st(0),st(0)
	enter	9AA8,9A
	call	far 16C8:3BC1
	cmp	eax,3D6E12B8
	xchg	eax,esi
	sub	edi,[3B363DF0]
	cmp	eax,C5C60B16
	add	al,bl
	enter	A4C8,54
	das	
	enter	C6C8,A4
	add	al,bl
	enter	B9C8,06
	movsb	
	loope	00401688
	enter	CCC8,A8
	call	far 4BDD:C6A8
	les	ecx,eax
	enter	7E3D,3B
	fdiv	double ptr [esi+48]
	int	03
	xchg	eax,esi
	mov	eax,1E5896CC
	test	al,11
	sub	ecx,eax
	enter	D7EC,F8
	sub	ecx,eax
	enter	0FC8,DA
	leave	
	ror	al,C8
	int	03
	xchg	eax,esi
	mov	ah,cl
	xchg	eax,esi
	cwde	
	int	03
	xchg	eax,esi
	pop	eax
	push	ds
	test	al,48
	les	ecx,eax
	enter	D725,58
	movsb	
	movsd	
	ror	al,C8
	call	far A857:57A8
	aam	C4
	enter	A8C8,89
	les	ecx,eax
	enter	1CA8,C0
	enter	25C8,D7
	dec	eax
	pop	edx
	cmp	eax,C8C88B37
	enter	C725,2B
	int	03
	xchg	eax,esi
	js	0040168B
	xchg	eax,esi
	dec	eax
	test	al,50
	lock	
	int	03
	int	03
	cmp	eax,7EDC1876
	sti	
	int	03
	sahf	
	sbb	cl,ah
	xchg	eax,esi
	sbb	ah,cl
	xchg	eax,esi
	dec	eax
	movsb	
	sbb	eax,57C8C82B
	push	edi
	push	edi
	call	far C8D8:A56A
	enter	0FC8,DA
	xchg	eax,esi
	int	03
	int	03
	jmp	C908DFCB
	lahf	
	add	[edx+31],dl
	test	al,52
	cmp	[eax+E4822804],ebp
	cmp	eax,D725E8D7
	push	A4B8D73D
	push	esi
	fmul	st(0),st(0)
	enter	72A4,DC
	enter	A8C8,9A
	int	03
	call	far CC33:96CC
	xchg	eax,esi
	sub	ecx,[96CC6BD3]
	or	ecx,[23BC7BD3]
	cmp	eax,0F80FF93
	illegal	
	jc	00401703
	enter	4EC8,72
	jle	00401755
	sar	dword ptr [ebx],C8
	push	ss
	cmp	eax,F8D9DEB8
	push	ds
	movsb	
	mov	ecx,9AC8C8DC
	test	al,57
	int	03
	push	edi
	int	03
	test	al,CC
	pop	ecx
	popf	
	shr	byte ptr [eax+C8C8D860],9E
	nop	
	lahf	
	and	al,A8
	add	al,D8
	enter	0FC8,DE
	sub	bl,al
	enter	9FC8,C9
	test	al,D9
	fmul	st(0),st(0)
	enter	DE0F,32
	fmul	st(0),st(0)
	enter	C09D,C7
	mov	[ebx],ecx
	test	al,99
	fmul	st(0),st(0)
	enter	C903,9E
	in	al,dx
	movsb	
	jpo	00401755
	enter	CCC8,9A
	test	al,9A
	test	al,0A
	xor	eax,A20A2BD7
	int	03
	stosb	
	sub	[esi+4A],ecx
	dec	eax
	test	al,22
	les	ecx,eax
	enter	F9AA,3B
	rcr	dword ptr [esi+F05EA80A],01
	int	03
	int	03
	int	03
	or	[C124F8D7],bh
	cmp	ecx,eax
	push	ss
	cmp	eax,2B96CCB8
	mov	[4E29AACC],al
	dec	edx
	dec	eax
	test	al,5B
	les	ecx,eax
	enter	D3A4,C4
	enter	CCC8,9A
	call	far 8B22:3D57
	lahf	
	leave	
	mov	esp,2FC9C52B
	add	esp,DE
	lds	eax,eax
	push	edx
	fsubrp	st(7),st(0)
	enter	8096,97
	ret	0AE0
	call	edi
	sub	edx,[esi+6BC33D23]
	movsb	
	add	eax,BCC8C8C4
	fdivr	dword ptr [FFC99F03]
	sbb	al,A4
	repne	
	les	ecx,eax
	enter	CCA8,57
	call	far 0ACC:CC57
	xor	eax,A20A2BD7
	int	03
	stosb	
	sub	[esi+4A],ecx
	dec	eax
	test	al,0C
	enter	C8C8,AA
	mov	ebp,0A98DCAA
	test	al,A8
	hlt	
	int	03
	int	03
	int	03
	or	[ecx+eax*8],ah
	sub	ecx,eax
	push	ss
	cmp	eax,F8D9DEB8
	xor	eax,CC0AF8D7
	xchg	eax,esi
	or	esi,[32A43BD7]
	int	03
	int	03
	int	03
	call	far A8CC:A8A8
	stosb	
	sub	[esi+4A],ecx
	dec	eax
	test	al,61
	enter	C8C8,AA
	push	edx
	push	ds
	rol	bl,0A
	test	al,9D
	hlt	
	int	03
	int	03
	int	03
	or	[C1242BD7],bh
	sub	ecx,eax
	push	ss
	cmp	eax,CAC8AAB8
	enter	35C8,D7
	cmp	edi,[ebp+57579AA8]
	test	al,A8
	cmp	eax,C124F8D7
	sub	ecx,eax
	push	ss
	cmp	eax,E8D9DEB8
	push	ds
	adc	ch,[esi+3D]
	xlat	
	cmp	edi,[edi+D7251BD7]
	cmp	esp,[F6CAE8D7]
	or	ecx,eax
	illegal	
	xchg	al,dl
	enter	0FC8,91
	xlat	
	or	esp,[ecx+edx*4+A8C8C8DC]
	call	far CCCC:9A57
	push	edi
	stosb	
	enter	C893,C8
	or	eax,C8AAA8D7
	xchg	eax,ebx
	enter	0DC8,D7
	pop	eax
	stosb	
	ret	F234
	mov	eax,3DB8D70D
	xlat	
	dec	eax
	fmul	st(0),st(3)
	sti	
	cmp	eax,36250A2A
	js	00401869
	retf	
	int	03
	xchg	eax,esi
	js	00401898
	xchg	eax,esi
	dec	eax
	movsb	
	jnz	004018C9
	int	03
	int	03
	test	al,9A
	int	03
	push	edi
	call	far 247E:72CC
	shr	dword ptr [ebx],C8
	push	ss
	cmp	eax,3D5A1EB8
	pop	ss
	mov	ecx,eax
	enter	3DC8,02
	cmp	edi,[3BDDDE60]
	cmp	eax,033D3B02
	movsb	
	xchg	eax,esp
	lock	
	int	03
	int	03
	movsb	
	illegal	
	int	03
	int	03
	int	03
	call	far AA9A:A8A8
	pop	esp
	mov	edi,A80A14DA
	cmp	al,CC
	int	03
	int	03
	or	[ecx+eax*8],ah
	fmul	st(0),st(0)
	push	ss
	cmp	eax,88D9DEB8
	int	03
	xchg	eax,esi
	sub	esi,[AA0AE8D7]
	sub	[esi+4A],ecx
	dec	eax
	test	al,85
	int	03
	int	03
	int	03
	stosb	
	jc	0040190A
	in	al,dx
	mov	al,0A
	test	al,20
	clc	
	int	03
	int	03
	movsb	
	jo	00401918
	enter	57C8,CC
	call	far CC57:57CC
	xchg	eax,esi
	call	1E98B017
	test	al,5C
	clc	
	int	03
	int	03
	in	al,dx
	xlat	
	clc	
	fmul	st(0),st(0)
	enter	9AC8,33
	or	cl,ah
	xchg	eax,esi
	sbb	[eax+C8C8DCE0],ch
	movsb	
	sub	eax,ecx
	enter	CCC8,96
	pop	eax
	or	cl,ah
	xchg	eax,esi
	sbb	[edx+579AA8A8],bh
	int	03
	int	03
	illegal	
	sub	dh,al
	int	03
	int	03
	jle	004019A2
	rcr	eax,C8
	push	ss
	cmp	eax,AACBA2B8
	enter	C88B,C8
	xor	eax,A20A3BD7
	enter	D735,2B
	or	ah,[edx+F04DA4CC]
	int	03
	int	03
	call	far 9A9A:9AA8
	push	edi
	int	03
	jl	0040197D
	pop	ebx
	illegal	
	sbb	al,70
	lds	edi,[eax+ebx*8+5B]
	jo	00401975
	illegal	
	lds	esi,[E4C6C426]
	jmp	1008E9F2
	illegal	
	imul	edi,esp,7C6ACCCC
	sbb	ebx,[ebx+6A]
	lahf	
	leave	
	movsb	
	jmp	004019C8
	int	03
	int	03
	or	bl,[edx]
	stosb	
	sub	[esi+4A],ecx
	dec	eax
	test	al,D4
	int	03
	int	03
	int	03
	stosb	
	scasb	
	test	al,F7
	shl	dword ptr [edi+A8CCCCFC],01
	call	far CCCC:A89A
	test	al,17
	fmul	st(0),st(0)
	enter	D7EC,F8
	or	ecx,eax
	enter	0FC8,DA
	int	F8
	int	03
	int	03
	int	03
	xchg	eax,esi
	dec	eax
	test	al,55
	hlt	
	int	03
	int	03
	int	03
	xchg	eax,esi
	js	004019D4
	xchg	eax,esi
	dec	eax
	test	al,22
	lock	
	int	03
	int	03
	cmp	eax,7EDC1876
	sti	
	xor	eax,9ECC6B7E
	jmp	00401A29
	xlat	
	js	004019EB
	sahf	
	jmp	004019EE
	sahf	
	jpo	004019F1
	sahf	
	jmp	004019F4
	sahf	
	jpo	004019F7
	sahf	
	jpo	004019D2
	mov	dh,F8
	int	03
	int	03
	int	03
	test	al,9A
	call	far 9A57:A89A
	jle	00401A21
	enter	C80B,C8
	cmp	eax,D73D6816
	cmp	[0BD1DE98+edi],ah
	stosb	
	enter	C8CB,C8
	and	eax,35C95B3A
	cmp	bl,[ebx-37]
	push	es
	and	eax,35C95B1A
	sbb	bl,[ebx-37]
	movsb	
	ret	C8C0
	enter	A8A8,CC
	int	03
	int	03
	mov	esp,A8C52A0B
	illegal	
	dec	eax
	illegal	
	in	eax,dx
	sub	eax,esi
	movsb	
	bound	ecx,eax
	enter	243F,96
	mov	eax,F848D725
	stosb	
	enter	C8C8,C8
	or	eax,52AAF8D7
	imul	esp,[ebx+4D],AAE8D70D
	cmp	[eax],bh
	cmp	[eax],bh
	or	eax,38AA98D7
	cmp	[eax],bh
	cmp	[ECA488D7],cl
	hlt	
	int	03
	int	03
	test	al,57
	int	03
	push	edi
	int	03
	call	far 9F3B:763D
	and	al,A4
	adc	esp,C8
	enter	3D06,33
	fsub	double ptr [eax]
	lahf	
	leave	
	mov	esp,2FC9C5D0
	add	esp,C7
	retf	C8E7
	xchg	eax,esi
	xchg	eax,esp
	xchg	eax,edi
	ret	0AE0
	call	ebp
	illegal	
	and	edx,esp
	enter	3DC8,2E
	pop	ebx
	movsb	
	mov	ah,D8
	enter	57C8,57
	call	far 5757:CC9A
	int	03
	adc	ch,[esi+3D]
	jbe	00401B1C
	fdivr	double ptr [esi-05]
	xor	eax,C8C8CA7D
	enter	7F3D,3F
	jl	00401B0E
	fidiv	dword ptr [esi+DCC8C8DC]
	jbe	00401B32
	movsb	
	jle	00401AE6
	enter	3DC8,DF
	cmp	ebx,esp
	xlat	
	sub	ecx,[edx]
	test	al,CC
	hlt	
	int	03
	int	03
	and	eax,D4A4F8D7
	fmul	st(0),st(0)
	enter	A89A,57
	test	al,0F
	fiadd	dword ptr [edx+FFC8C8C0]
	cmp	ecx,ss:[edi]
	fisub	dword ptr [esi+DCC8C8C0]
	jbe	00401B61
	movsb	
	outsb	
	ror	al,C8
	cmp	eax,A4DED83E
	sub	edi,[2BD1DE9C]
	movsb	
	sti	
	ror	al,C8
	illegal	
	ror	byte ptr [edi],01
	in	eax,dx
	call	CCECE1A7
	illegal	
	lds	ebp,[eax+A408EC3B]
	sbb	eax,eax
	enter	57C8,57
	push	edi
	push	edi
	call	far 2BC1:24A8
	enter	3D16,B8
	push	ds
	adc	ch,[esi+3D]
	idiv	byte ptr [ebx]
	pop	edx
	cmp	eax,C8C88B77
	enter	7E3D,3B
	cmp	eax,9E3D3B1E
	cmp	edi,[esp+edx*8+CCFC61A4]
	int	03
	cmp	eax,2CFF7BD3
	movsb	
	repne	
	cld	
	int	03
	int	03
	push	edi
	call	far 9A57:9A9A
	illegal	
	loopne	00401B67
	enter	A1C8,A4
	pop	ecx
	cld	
	int	03
	int	03
	test	al,21
	enter	C8C8,BF
	cmp	al,96
	arpl	[eax+C8C8C8CE],bx
	movsb	
	jz	00401B80
	enter	B9C8,04
	test	al,0F
	illegal	
	enter	C8C8,1F
	and	al,A4
	and	al,cl
	enter	05C8,2A
	lds	ecx,[eax+2B]
	mov	ecx,C8C84EA8
	enter	C8F7,F6
	enter	A4C8,A5
	enter	C8C8,A8
	int	03
	push	edi
	push	edi
	cmp	eax,14970BD7
	int	03
	add	edx,[edi+B70728C5]
	add	byte ptr [ecx+edx+1B],25
	xlat	
	or	ebx,[edi+3B96EC00]
	and	ebx,ebx
	int	03
	and	[ebx+63],ebx
	sub	[edx+67],ebx
	int	03
	sub	eax,ebx
	arpl	[esi],bx
	aas	
	and	al,96
	adc	al,7E
	and	al,A4
	jg	00401BF3
	int	03
	int	03
	test	al,57
	call	far 5BFA:25A8
	jpo	00401C64
	and	al,C1
	sub	ecx,eax
	pushf	
	pop	ecx
	jc	00401BCA
	inc	edi
	cld	
	int	03
	int	03
	rol	byte ptr [eax],96
	aam	21
	adc	edx,ebx
	add	eax,[eax]
	fstp	double ptr [edi+B0A8C724]
	int	03
	int	03
	int	03
	pop	ds
	and	al,A8
	lodsb	
	int	03
	int	03
	int	03
	add	byte ptr [eax+5BFABFDD],AB
	mov	esp,57CCCC34
	call	far F8D7:25CC
	cmp	eax,F03D2B96
	setno	byte ptr [esi+07]
	movsb	
	insd	
	ror	al,C8
	fdivrp	st(6),st(0)
	cmp	esp,[ebx]
	illegal	
	scasd	
	ror	al,C8
	cmp	eax,E5009FDD
	and	ecx,eax
	enter	ECC8,84
	fsubr	double ptr [eax-24]
	fsub	double ptr fs:[eax+3D]
	and	[esp+ecx*8+CCC8C8C4],ah
	int	03
	call	far CA23:9E57
	clc	
	aam	9E
	rcr	dh,01
	call	C8010B63
	mov	dword ptr [C49DD53D],BFEC3D12
	mov	[esi+esi*8+57CCCCCC],ah
	test	al,9A
	push	edi
	int	03
	test	al,57
	push	edi
	cmp	eax,DB3DFBC7
	les	ebp,[ebx+D725C5DC]
	cmp	[96CC4876],bh
	cmp	ah,cl
	xchg	eax,esi
	or	[esi],bl
	test	al,5D
	lock	
	int	03
	int	03
	push	ds
	test	al,52
	loopne	00401C99
	int	03
	cmp	eax,FBCBDCDD
	int	03
	mov	bl,[ebx+C838A81E]
	enter	A4C8,66
	hlt	
	int	03
	int	03
	call	far CCA8:579A
	test	al,CC
	int	03
	add	ah,[edx+29AA0ACC]
	dec	esi
	dec	edx
	dec	eax
	test	al,A8
	cld	
	int	03
	int	03
	stosb	
	mov	ebp,0A98DCAA
	test	al,C4
	in	al,CC
	int	03
	or	bl,ch
	push	ss
	cmp	eax,3D6E12B8
	or	edi,ss:[F63D3B96]
	sub	esp,[ebp+edi+A8CCCCE8]
	push	edi
	call	far 08CC:A8CC
	mov	[E8D735C4],al
	or	dh,[AA0A98D7]
	sub	[esi+4A],ecx
	dec	eax
	test	al,B5
	cld	
	int	03
	int	03
	stosb	
	pop	ds
	xchg	[edi],bh
	test	[edx],ecx
	test	al,D1
	call	090CEA0B
	xor	eax,A40A88D7
	pop	edx
	les	ecx,eax
	enter	A89A,57
	int	03
	push	edi
	push	edi
	call	far 870B:163D
	sub	eax,[edi+24724E0B]
	sar	dword ptr [ebx],C8
	push	ss
	cmp	eax,963D4AB8
	cmp	edi,[81F82BF6]
	retf	7C9F
	movsb	
	push	CCCCCCE4
	test	al,9A
	int	03
	int	03
	fsubp	st(0),st(0)
	clc	
	xchg	eax,esi
	das	
	fdivr	st(0),st(7)
	fdiv	st(0),st(6)
	sub	eax,esp
	outsd	
	illegal	
	rcr	dh,A4
	sar	byte ptr [edi],24
	illegal	
	stc	
	hlt	
	int	03
	int	03
	fdivr	double ptr [esi-28]
	fdivp	st(6),st(0)
	fsubr	dword ptr [ebx]
	illegal	
	dec	ebp
	hlt	
	int	03
	int	03
	dec	esi
	jc	00401D43
	jle	00401D89
	int	03
	int	03
	push	edi
	test	al,CC
	call	far B83D:169A
	push	ds
	adc	ch,[esi+3D]
	jbe	00401DDC
	cmp	eax,3B16BF1C
	fdivr	double ptr [esi-05]
	xor	eax,C8C8497D
	enter	7F3D,3D
	sub	edi,ss:[edi]
	jl	00401D6B
	hlt	
	int	03
	int	03
	int	03
	push	edi
	push	edi
	call	far 0A98:D735
	int	03
	xchg	eax,esi
	cmp	ecx,[edx]
	stosb	
	sub	[esi+4A],ecx
	dec	eax
	test	al,F0
	loopne	00401DAC
	int	03
	stosb	
	jc	00401DBD
	in	al,dx
	mov	al,0A
	test	al,6F
	call	090CEABA
	int	03
	xchg	eax,esi
	sub	ebp,[edx+484A4E29]
	test	al,58
	loopne	00401DC6
	int	03
	stosb	
	in	al,dx
	add	[edx+F4A80AE6],bh
	in	al,dx
	int	03
	int	03
	int	03
	or	[esi+ecx*2+9ACCCCE0],ah
	int	03
	push	edi
	call	far CCA8:57A8
	and	[eax],esp
	retf	1F84
	shl	byte ptr [eax],00
	leave	
	and	[eax],esp
	add	[eax],ch
	mov	ax,[C1C504DC]
	fsubr	st(0),st(4)
	in	al,dx
	add	al,C6
	lds	eax,[eax]
	fmul	st(0),st(0)
	enter	E4C6,00
	fmul	st(0),st(0)
	enter	D60F,0F
	call	D77DEB0D
	sub	edi,[D4A43B36]
	int	03
	int	03
	int	03
	int	03
	push	edi
	push	edi
	push	edi
	int	03
	push	edi
	call	far F896:CC0A
	test	al,3E
	les	ecx,eax
	enter	DEBD,F3
	enter	D60F,7C
	enter	C8C8,DE
	fstp	double ptr [ebx]
	fdivp	st(6),st(0)
	cmp	ecx,eax
	illegal	
	jge	00401E67
	int	03
	int	03
	dec	esi
	jc	00401EF2
	and	al,C1
	fmul	st(0),st(0)
	movsb	
	mov	edi,9ACCCCCC
	push	edi
	int	03
	int	03
	int	03
	push	edi
	pushf	
	pop	ecx
	fcom	double ptr [esi+23A0DEF8]
	in	al,dx
	pusha	
	cmp	eax,BC599C20
	das	
	cmp	eax,599C3B36
	mov	esp,F8D73DA6
	cmpsd	
	xlat	
	call	BC63E882
	push	es
	push	edi
	test	al,CC
	test	al,9A
	call	far 98D7:35CC
	or	ah,[edx+AAC8A2C8]
	sub	[esi+4A],ecx
	dec	eax
	test	al,47
	loopne	00401E89
	int	03
	stosb	
	xchg	eax,ecx
	int	03
	pop	ebx
	lahf	
	or	ch,[eax+CCCCECE3]
	int	03
	or	[AA0A98D7],dh
	sub	[esi+4A],ecx
	dec	eax
	test	al,D0
	loopne	00401EA4
	int	03
	stosb	
	lds	esi,[ebx+A80A8468]
	dec	edi
	in	al,dx
	int	03
	int	03
	int	03
	or	[9DA488D7],bh
	enter	C8C8,CC
	int	03
	push	edi
	test	al,A8
	call	far D7A7:9A57
	cmp	ebx,esi
	idiv	byte ptr [ebx]
	enter	D60F,4E
	hlt	
	int	03
	int	03
	cmp	eax,724EE8D7
	jle	00401F2E
	ror	dword ptr [ebx],C8
	push	ss
	cmp	eax,363D1EB8
	cmp	edi,[B0A42B76]
	clc	
	int	03
	int	03
	movsb	
	sar	eax,CC
	int	03
	call	far DE9A:9ACC
	dec	eax
	call	far BC9F:3DD8
	fdivr	double ptr [96DC0B9E]
	sub	edi,[F6DC0BFE]
	sub	esp,[ebx+edi*2+B5CCCCCC]
	movsd	
	enter	C8C8,CA
	call	far C8C8:971F
	enter	0ACA,CC
	xchg	eax,esi
	clc	
	test	al,0A
	enter	C8C8,A4
	enter	CCCC,CC
	fcom	st(0),st(7)
	sub	esi,[B8A4C0CB]
	lock	
	int	03
	int	03
	call	far CC9A:9ACC
	int	03
	push	edi
	int	03
	test	al,01
	hlt	
	int	03
	int	03
	illegal	
	rol	dh,01
	illegal	
	enter	C8C8,A4
	jpe	00401F0F
	int	03
	int	03
	push	es
	cmp	eax,D7DC1BDF
	sbb	[36DC3B3E],bh
	dec	eax
	int	03
	sahf	
	or	ecx,[edx]
	push	es
	test	al,BA
	hlt	
	int	03
	int	03
	movsb	
	cmpsd	
	nop	
	int	03
	int	03
	call	far 2457:9A57
	rcr	eax,C8
	push	ss
	cmp	eax,98D9DEB8
	xor	eax,C60AF8D7
	idiv	byte ptr [ebx]
	int	03
	int	03
	enter	EEC8,23
	int	03
	xchg	eax,esi
	cmp	esp,[edx+F0BBA4C8]
	int	03
	int	03
	mov	[F0D0A4C8],al
	int	03
	int	03
	int	03
	test	al,9A
	test	al,CC
	int	03
	push	edi
	call	far 0F66:C1DC
	in	eax,dx
	cmp	ebp,[edx]
	cmp	eax,C1DC7B2E
	cmp	eax,C1DC29D8
	mov	esp,9FC0BC03
	leave	
	illegal	
	fadd	st(0),st(7)
	push	dword ptr [esi]
	clc	
	illegal	
	illegal	
	loopne	00401FC1
	int	03
	dec	esi
	movsb	
	jz	00401FE2
	int	03
	int	03
	int	03
	test	al,CC
	int	03
	call	E8B51FED
	jz	00401FEF
	or	bl,al
	mov	bl,5F
	inc	esi
	add	eax,ecx
	mov	bl,al
	or	bh,bl
	or	edi,ebx
	dec	esi
	mov	bh,B4
	add	bh,ch
	mov	bh,83
	sub	bl,al
	add	bl,cl
	or	edi,eax
	mov	edi,ebx
	mov	bh,bl
	push	dword ptr [eax+10]
	jo	0040282E
	nop	
	jno	0040282E
	push	dword ptr [ebp-18]
	call	D3CB62B2
	add	cl,ah
	xor	dh,bh
	sub	dh,bh
	or	edx,ebx
	dec	ecx
	xor	al,cl
	push	ebx
	mov	cl,71
	dec	eax
	mov	ah,cl
	dec	edi
	jpe	0040272A
	jmp	0040205B
	jpo	0040272A
	jz	00402062
	and	eax,8AE7B1FF
	loop	004020AB
	or	ah,cl
	add	ah,ch
	add	dl,7B
	xor	ch,bl
	or	ch,dh
	sub	al,ch
	mov	ch,5B
	sub	al,bh
	mov	ch,EC
	or	ah,al
	sub	cl,bh
	xor	ah,bh
	dec	eax
	not	dl
	dec	ecx
	jo	0040251A
	mov	esi,esi
	lea	edi,[edi]
	jno	0040251A
	and	eax,2574E825
	jz	00402029
	sti	
	or	bl,dh
	mov	al,cl
	sub	ch,dl
	mov	eax,ecx
	xor	dl,al
	pop	ecx
	inc	edi
	or	bh,ch
	mov	eax,edx
	sub	ah,bh
	or	esi,ecx
	xor	dl,al
	inc	eax
	mov	bh,cl
	sub	dh,al
	xor	bh,dh
	or	edx,esi
	or	bl,dh
	jpe	00402172
	lea	ebx,[ebx]
	jmp	004020CE
	out	dx,al
	jpo	00402172
	push	dword ptr [esp+esi*2+25]
	jmp	dword ptr [814BE8E8]
	jmp	far 878D:7B9C
	or	bl,ah
	add	bh,al
	sub	bl,ch
	dec	ecx
	mov	edi,ecx
	dec	ecx
	xor	cl,al
	mov	bl,al
	or	ebx,edx
	sub	bl,ah
	or	esi,eax
	mov	bh,bl
	xor	ch,al
	add	bl,bh
	jle	004025AE
	jpo	00402105
	jg	004025AE
	jz	00402132
	jz	00402134
	inc	ecx
	xor	edi,FBC69642
	dec	ecx
	or	ch,dh
	mov	ch,2E
	mov	dl,al
	or	edx,ebx
	inc	edx
	xor	dl,dh
	mov	dh,46
	or	edx,esi
	mov	ch,cl
	mov	dh,0D
	inc	edx
	mov	dl,dh
	add	ah,dh
	or	edx,eax
	dec	ecx
	dec	ecx
	jo	004024E3
	mov	ebx,ebx
	jno	004024E3
	call	752895BA
	jz	004021BC
	xor	bh,bl
	add	bh,dl
	dec	ebx
	or	bh,dh
	dec	ebx
	push	ecx
	pop	eax
	xor	bl,ah
	dec	esi
	xor	bh,ch
	mov	bl,bh
	inc	esi
	xor	bh,al
	jo	00402360
	mov	eax,eax
	jno	00402360
	push	dword ptr [edi+edi*8-01]
	and	eax,49E8E825
	inc	edx
	sub	bl,dh
	or	bh,bl
	mov	eax,edi
	or	ebx,edx
	xor	dh,bl
	add	bh,ah
	or	al,dh
	add	al,cl
	mov	edi,ecx
	mov	ah,6F
	mov	edi,esi
	or	ah,al
	jpe	00402B07
	lea	edx,[edx]
	jpo	00402B07
	jz	00402210
	and	eax,4FDD02FF
	mov	eax,[eax]
	mov	bl,dl
	or	bh,bl
	or	ebx,ecx
	dec	ebx
	inc	ebx
	mov	ebx,eax
	xor	bl,dl
	inc	edi
	mov	bl,dl
	mov	edi,edx
	mov	bh,dh
	js	00402007
	jl	004021BE
	jns	00402007
	call	256546EE
	call	F5CB09F3
	add	al,bl
	dec	edi
	mov	edi,ecx
	mov	cl,4B
	mov	bl,ah
	inc	ebx
	mov	ah,62
	inc	edx
	ret	
	or	al,ah
	mov	edx,ecx
	inc	edx
	or	dl,bh
	sub	dl,al
	mov	bh,ah
	sub	cl,dh
	jbe	0040294E
	lea	edi,[edi]
	mov	edx,edx
	ja	0040294E
	jmp	eax
	illegal	
	call	0A6596EA
	test	dword ptr [edi+0A],CC8A49F1
	mov	edi,esi
	mov	edx,ebx
	add	ch,ah
	mov	ch,dh
	dec	eax
	mov	eax,edi
	sub	dh,ah
	xor	ch,cl
	jz	0040232B
	lea	edx,[edx]
	jnz	0040232B
	and	eax,32252525
	into	
	sub	al,ah
	xor	cl,bl
	sub	ah,bl
	mov	al,33
	inc	eax
	mov	al,ch
	dec	ecx
	mov	eax,edi
	sub	cl,dl
	inc	ecx
	or	ecx,esi
	mov	ch,F7
	add	cl,al
	jle	004025E4
	nop	
	jg	004025E4
	illegal	
	jz	00402279
	jz	0040227B
	call	43382DCF
	mov	dh,6B
	mov	al,dl
	or	bh,cl
	inc	esi
	or	edi,ecx
	mov	ah,02
	mov	bh,ch
	sub	ch,dl
	xor	cl,ah
	sub	ch,bh
	mov	ebx,eax
	mov	dh,ch
	add	bl,ch
	mov	bh,bl
	add	dl,bh
	jpe	004021CC
	rep	
	jpo	004021CC
	call	8A660AAF
	out	dx,al
	mov	ch,dl
	mov	ecx,eax
	or	ch,dl
	add	ch,cl
	sub	cl,al
	or	ecx,edi
	mov	ch,ah
	sub	ch,bl
	or	ch,ah
	add	ch,cl
	cmp	eax,B663C6E9
	jnz	00402131
	add	bh,al
	sub	cl,dl
	dec	esi
	mov	dh,99
	xor	bh,dh
	add	cl,bl
	jl	00402258
	rep	
	jge	00402258
	push	dword ptr [ebp+25]
	call	2A8A22AC
	out	43,al
	dec	edi
	dec	edi
	sub	dh,bl
	inc	edi
	mov	bl,9A
	call	004022D2
	add	dh,ch
	dec	ecx
	mov	edx,edi
	dec	eax
	mov	bl,18
	sub	dh,bl
	dec	ecx
	mov	cl,4F
	mov	ecx,edx
	mov	ah,80
	jl	0040209D
	lea	edx,[edx]
	jmp	004022F1
	sub	cl,[edi]
	lea	esp,[esi+FFFFFFFD]
	call	74654871
	mov	bh,cl
	or	bl,cl
	mov	esi,eax
	mov	bh,ch
	or	esi,ebx
	add	bh,dh
	or	esi,edi
	xor	bh,ch
	dec	ebx
	add	bh,cl
	mov	bl,8A
	sub	bh,al
	add	edx,ecx
	jpe	00402797
	push	ecx
	pop	ecx
	jpo	00402797
	and	eax,E8E8E825
	call	0C08AE16
	shr	[edx],cl
	les	ecx,[edx+BF0CB4CA]
	dec	ecx
	popf	
	mov	bl,8A
	mov	byte ptr [ebx],C2
	mov	al,6B
	xor	dl,cl
	dec	edx
	inc	eax
	dec	edx
	mov	eax,esi
	add	ch,dl
	jbe	0040210F
	jmp	00402355
	add	al,0F
	xchg	[ebp+edi*8+FF74FFFF],esi
	and	eax,024FE874
	sti	
	mov	bh,bl
	add	bh,dh
	xor	bl,ah
	inc	edi
	add	eax,[eax+3C]
	mov	bl,ch
	inc	esi
	mov	bh,bl
	mov	bh,1A
	mov	bh,bl
	mov	bl,5D
	or	bh,cl
	jbe	004027C9
	lea	edi,[edi]
	ja	004027C9
	jz	00402372
	push	dword ptr [edx+eax-39]
	or	al,bh
	add	ch,ah
	mov	ch,BE
	dec	ecx
	add	al,dh
	mov	cl,94
	mov	ah,bl
	xor	dl,34
	mov	ecx,edi
	xor	ch,dh
	add	cl,dh
	mov	ch,53
	inc	eax
	mov	ch,BA
	jbe	00402862
	mov	edi,edi
	repne	
	ja	00402862
	and	eax,7474FF74
	push	dword ptr [ebp+2A028B64]
	shl	byte ptr [edx],01
	dec	byte ptr [edi-75]
	enter	2DB7,02
	into	
	or	edx,esi
	add	bh,ah
	xor	dl,ah
	inc	ecx
	xor	ch,dl
	inc	ebx
	or	cl,dl
	or	ecx,eax
	inc	ebx
	dec	ecx
	jle	00402652
	push	eax
	pop	eax
	rep	
	jg	00402652
	jz	004023ED
	jmp	eax
	jz	0040237D
	sti	
	inc	ebx
	call	eax
	dec	ecx
	mov	dh,dl
	xor	dh,ch
	dec	edx
	inc	ecx
	sub	ch,bh
	dec	edi
	inc	esi
	inc	ecx
	add	ch,dl
	mov	bl,49
	inc	ebx
	or	edx,esi
	dec	edi
	jpe	004026F1
	mov	esi,esi
	nop	
	jpo	004026F1
	jz	00402440
	jz	00402491
	mov	ebx,eax
	or	edi,eax
	xor	bl,bh
	or	eax,ecx
	dec	esi
	or	edi,eax
	sub	cl,al
	inc	edi
	sub	bh,cl
	add	dl,cl
	mov	dh,bl
	push	40
	dec	edi
	xor	cl,ah
	dec	esi
	mov	cl,46
	mov	al,ah
	jbe	00402960
	nop	
	ja	00402960
	and	eax,25FF7474
	jmp	dword ptr [edx]
	clc	
	xor	ah,bh
	dec	esi
	mov	dl,al
	mov	dl,78
	or	ah,dl
	shl	ecx,0F
	inc	ebx
	mov	al,2D
	dec	esi
	or	eax,esi
	xor	dh,bl
	inc	esi
	or	esi,edx
	add	bl,bh
	or	dl,dh
	add	bh,dl
	inc	edx
	dec	edi
	jl	004026BE
	xchg	eax,eax
	xchg	ah,ah
	jge	004026BE
	jz	004024A6
	call	CC6A9985
	mov	al,bh
	or	cl,ch
	xor	ah,dl
	or	eax,esi
	mov	ch,F2
	mov	cl,dh
	inc	ebx
	mov	ah,B1
	or	ecx,eax
	xor	al,bl
	sub	ah,dl
	mov	ecx,esi
	inc	ecx
	mov	eax,ebx
	or	ch,bl
	or	ecx,eax
	or	ecx,eax
	js	004028E7
	repne	
	jmp	004024B2
	jns	004028E7
	jmp	dword ptr [E8E87474]
	jmp	dword ptr [46490BB4]
	add	al,bl
	xor	al,ch
	inc	eax
	mov	al,20
	or	cl,bl
	xor	al,cl
	mov	ah,03
	dec	eax
	mov	ch,7E
	add	al,dl
	js	00402484
	repne	
	mov	edi,edi
	jns	00402484
	push	dword ptr [eax+ebp*8+74]
	illegal	
	mov	ah,5B
	or	eax,edi
	dec	edx
	or	ch,cl
	mov	edx,eax
	mov	ch,37
	or	eax,edi
	xor	ch,cl
	mov	eax,esi
	mov	al,ch
	mov	dl,[esi]
	mov	cl,dl
	or	ch,al
	inc	ecx
	mov	eax,ecx
	or	cl,bh
	sub	cl,dl
	or	cl,al
	jbe	00402B37
	lea	ecx,[ecx]
	mov	al,al
	ja	00402B37
	push	dword ptr [ebp-18]
	dec	dword ptr [edx+0A4048C4]
	retf	CE2A
	mov	ecx,edi
	xor	ch,ah
	sub	al,bl
	inc	ecx
	sub	al,ch
	or	cl,bl
	mov	al,ch
	dec	ecx
	inc	ecx
	or	ah,dl
	jle	00402897
	repne	
	nop	
	jg	00402897
	call	2AB50DBA
	fimul	word ptr [ebx]
	illegal	
	stc	
	mov	bl,86
	xor	bh,cl
	mov	bl,cl
	sub	bh,cl
	add	bl,ah
	or	edi,eax
	add	bl,ah
	mov	bh,67
	add	bh,cl
	mov	bl,cl
	inc	esi
	add	bl,dh
	dec	esi
	jc	00402623
	nop	
	repne	
	jnc	00402623
	and	eax,FF25FFE8
	jmp	dword ptr [edx]
	in	al,dx
	add	dl,bl
	dec	esi
	add	ah,al
	mov	cl,85
	or	dl,ah
	mov	dh,81
	or	al,dh
	or	edi,ebx
	add	al,ah
	xor	al,ah
	inc	esi
	dec	edi
	pop	esi
	inc	ecx
	mov	cl,94
	xor	dh,ah
	or	ch,dl
	xor	ah,cl
	jz	004029C8
	nop	
	mov	ch,ch
	jnz	004029C8
	call	E9400EAB
	jz	004025AD
	inc	edi
	xor	bh,ah
	add	bl,dl
	mov	cl,C9
	inc	esi
	or	ebx,edx
	sub	bl,dh
	mov	bl,70
	mov	bh,ch
	dec	ebx
	mov	bl,E8
	or	bl,dl
	xor	bh,ch
	add	bl,bh
	inc	ebx
	dec	ebx
	or	esi,ebx
	jpe	004029FC
	jmp	004025D6
	jpe	004025D8
	jpo	004029FC
	call	FF654BCB
	push	dword ptr [edx]
	iret	
	mov	cl,al
	dec	ecx
	or	cl,bh
	mov	cl,dl
	xor	ch,cl
	inc	ecx
	sub	eax,499C3917
	mov	cl,57
	inc	ecx
	mov	ch,ah
	sub	ch,bh
	mov	cl,dl
	mov	ch,FB
	sub	cl,al
	mov	cl,bh
	mov	ecx,edx
	jpe	00402289
	jno	0040260F
	jmp	00402615
	jz	00402625
	mov	ebp,[esi-04]
	illegal	
	and	eax,742574FF
	jz	00402696
	jz	0040262F
	lock	
	lea	eax,[eax+78]
	inc	ebx
	mov	edi,eax
	add	bh,bl
	xor	bh,cl
	or	bl,ah
	mov	bh,al
	xor	bh,dh
	add	bl,al
	dec	ebx
	xor	bl,dl
	sub	bl,dl
	mov	bl,0C
	jc	00402A34
	lea	ecx,[ecx]
	rep	
	jnc	00402A34
	call	E8B44B77
	push	00
	add	cl,bh
	or	bl,ah
	inc	ebx
	mov	esi,edi
	add	cl,bh
	or	dl,dh
	mov	esi,eax
	xor	dh,bl
	mov	cl,AF
	mov	ch,bh
	sub	dh,dl
	add	dh,ah
	sub	cl,ah
	mov	edi,edx
	or	cl,al
	mov	bl,7D
	mov	bl,ah
	jbe	004023F1
	push	esi
	pop	esi
	mov	ebx,ebx
	ja	004023F1
	illegal	
	and	eax,7474E825
	call	333EB1DB
	shr	byte ptr [edx],01
	jcxz	00402620
	retf	
	or	al,dl
	inc	eax
	mov	edx,ecx
	or	dl,bh
	mov	eax,edi
	mov	ecx,esi
	xor	ah,ch
	or	ch,cl
	or	edx,eax
	sub	ah,al
	xor	dl,al
	jc	00402201
	repne	
	push	esi
	pop	esi
	jnc	00402201
	call	003F9BA7
	xor	[edx],ebp
	ror	dword ptr [eax-75],D0
	inc	edx
	add	bh,cl
	dec	ebx
	or	esi,edx
	sub	dh,bl
	xor	ah,cl
	sub	dh,ch
	mov	ah,19
	sub	bl,bh
	add	al,bh
	mov	bl,E3
	mov	ah,dh
	js	00402803
	xchg	bh,bh
	rep	
	jns	00402803
	and	eax,25E8FF74
	call	3319B2F3
	out	dx,al
	dec	edx
	mov	ch,89
	or	bh,dl
	sub	dl,ch
	mov	[esp-08],eax
	mov	ebx,esi
	mov	bh,A9
	or	dl,cl
	dec	esi
	add	bl,cl
	or	ecx,edi
	xor	cl,al
	sub	bh,bl
	mov	dh,AD
	jl	00402BB9
	rep	
	jmp	0040271E
	hlt	
	jge	00402BB9
	call	00289C11
	inc	dword ptr [edx]
	rep	
	mov	edx,edi
	xor	ch,al
	mov	ch,77
	or	edx,eax
	inc	edi
	xor	dh,ch
	mov	cl,bl
	mov	ecx,edi
	add	dl,ah
	or	al,bh
	mov	dh,C6
	inc	edi
	sub	ebx,0000004B
	mov	edx,ecx
	jz	0040268D
	push	edi
	pop	edi
	jnz	0040268D
	illegal	
	jmp	dword ptr [74E8FF74]
	mov	edi,esi
	dec	eax
	or	ecx,esi
	sub	cl,ch
	or	edx,ebx
	add	cl,ch
	xor	al,dl
	add	cl,ah
	inc	edx
	dec	edx
	mov	dl,1E
	add	ebx,0000004B
	mov	ch,28
	add	al,dh
	xor	dl,dh
	mov	dh,4E
	xor	ah,al
	jl	0040203B
	rep	
	jge	0040203B
	call	25B49BBA
	call	B41C320E
	ror	byte ptr [ebx],01
	repne	
	mov	ebx,esi
	xor	cl,dh
	add	cl,dl
	mov	cl,9A
	mov	bl,al
	or	cl,dh
	or	esi,eax
	mov	ebx,edi
	sub	bl,ch
	or	ch,bh
	mov	ch,72
	jbe	004020DC
	lea	edx,[edx]
	repne	
	ja	004020DC
	jz	004027E9
	and	eax,74E87425
	sub	bl,ch
	add	bh,al
	mov	bh,dl
	or	bl,dl
	inc	edi
	mov	bh,dl
	mov	ebx,edi
	inc	esi
	mov	esi,ebx
	inc	ebx
	xor	bl,ch
	sub	bh,al
	mov	edi,ebx
	lea	edx,[eax+000000F8]
	sub	bh,bl
	mov	bh,dh
	xor	bl,dl
	sub	bh,ah
	mov	esi,ebx
	jl	00402B63
	repne	
	jo	004027F9
	jge	00402B63
	push	dword ptr [eax+ebp*8-01]
	add	dh,dl
	sub	dh,bh
	pop	eax
	mov	esi,edi
	dec	edi
	mov	dh,0A
	dec	edi
	xor	dl,ch
	inc	ebx
	mov	bh,DC
	add	bl,ch
	sub	dh,bl
	or	edx,eax
	js	004028BC
	push	esi
	pop	esi
	jns	004028BC
	call	00292814
	jmp	dword ptr [8AF78B43]
	illegal	
	fild	word ptr [edx]
	cli	
	dec	esi
	mov	bh,BF
	xor	bl,bh
	sub	bh,ah
	mov	ebx,edi
	dec	esi
	mov	bh,cl
	or	bl,cl
	pop	edx
	or	edi,edx
	inc	esi
	mov	edi,edx
	mov	bl,dh
	inc	esi
	js	004022FD
	nop	
	repne	
	jns	004022FD
	call	00291086
	call	C3CC1770
	inc	ecx
	or	ecx,eax
	mov	ecx,ebx
	sub	al,cl
	sub	dl,82
	mov	ch,cl
	sub	ah,dl
	mov	ch,1A
	or	cl,dl
	dec	ecx
	or	ah,al
	inc	eax
	or	eax,ebx
	inc	eax
	dec	eax
	mov	ecx,edx
	jz	00402065
	nop	
	jnz	00402065
	jz	004028B6
	illegal	
	jz	0040287D
	and	eax,8AC30B25
	loop	004028C6
	out	0B,al
	enter	0A49,E3
	mov	cl,23
	inc	eax
	or	ecx,eax
	or	ch,dh
	dec	eax
	inc	eax
	mov	[ebx],dl
	or	ecx,esi
	sub	cl,ah
	jbe	0040291C
	mov	edi,edi
	ja	0040291C
	jmp	eax
	jz	004028A3
	jz	00402870
	add	cl,[ebx+02F332D0]
	test	dword ptr [edi],8B43D0B6
	rep	
	inc	edi
	or	bh,dl
	mov	esi,eax
	mov	bh,dl
	dec	esi
	inc	edi
	jbe	00402AD1
	repne	
	ja	00402AD1
	jz	00402956
	jz	004028E3
	push	dword ptr [esp+esi*2-50]
	or	cl,[edx+EA3249EB]
	mov	ah,al
	sub	ch,bh
	dec	ecx
	inc	ecx
	or	eax,ebx
	inc	eax
	dec	edi
	inc	eax
	sub	al,bh
	xor	al,ch
	mov	cl,dh
	or	ecx,ebx
	jo	0040222A
	jmp	0040290D
	push	ebx
	lea	edi,[edi]
	jno	0040222A
	and	eax,2525FF74
	jmp	dword ptr [5FB4E932]
	add	ah,cl
	dec	eax
	mov	ecx,edi
	mov	ah,04
	mov	al,cl
	mov	ah,6F
	xor	cl,bl
	mov	ah,cl
	mov	cl,71
	or	ecx,ebx
	or	ch,ah
	dec	eax
	xor	ch,al
	inc	ecx
	jle	004024C0
	mov	edx,edx
	jg	004024C0
	call	26401171
	call	47B4DC50
	sub	dh,ah
	add	cl,ah
	dec	edx
	inc	ebx
	mov	bh,55
	dec	esi
	mov	ch,al
	or	cl,dl
	sub	bh,bl
	dec	esi
	xor	bh,al
	add	bh,ch
	or	ch,al
	xor	ch,dh
	xor	ah,bl
	dec	ecx
	add	cl,ch
	mov	ecx,ebx
	or	cl,bh
	push	00003000
	mov	edi,edx
	or	bh,dl
	jc	004022C2
	rep	
	mov	ah,ah
	jnc	004022C2
	jz	0040298B
	jz	004029B3
	and	eax,8B4B74E8
	fbstp	tword ptr [edx]
	fmul	double ptr [ebx+FD8A46F7]
	inc	ebx
	or	bl,dl
	mov	bh,al
	add	eax,0032FD94
	sub	bl,ch
	inc	esi
	add	bl,ch
	inc	edi
	mov	esi,edx
	inc	esi
	mov	esi,edx
	sub	bl,ch
	inc	edi
	jpe	00402A95
	push	edi
	pop	edi
	jpo	00402A95
	push	dword ptr [esp+esi*2+25]
	call	4335B3F0
	dec	edx
	xor	dh,bl
	mov	al,ch
	or	al,bl
	mov	ah,ch
	xor	ch,cl
	sub	dh,dl
	inc	eax
	mov	edx,esi
	add	ch,dl
	mov	dl,72
	mov	ah,ch
	or	eax,edi
	jpe	00402760
	nop	
	jmp	004029F0
	push	ecx
	jpo	00402760
	jz	00402A6C
	jz	00402A1F
	and	eax,B3CB0A25
	mov	bl,0A
	retf	
	mov	ch,dh
	sub	edx,78728458
	mov	cl,bl
	or	ecx,ebx
	or	ch,ah
	mov	bh,B6
	or	ebx,esi
	dec	esi
	add	bl,dh
	dec	ebx
	mov	bl,8D
	sub	bl,dh
	inc	esi
	jle	004023BE
	push	edi
	pop	edi
	rep	
	jg	004023BE
	push	dword ptr [ebp-18]
	push	dword ptr [esp+esi*2+74]
	mov	edi,eax
	sub	bl,bh
	mov	esi,edi
	add	eax,08
	inc	ebx
	dec	ebx
	inc	esi
	sub	bl,dl
	inc	edi
	or	bl,bh
	dec	esi
	or	ebx,esi
	add	bl,al
	mov	bh,al
	xor	bl,ah
	mov	bh,62
	or	esi,eax
	inc	ebx
	or	esi,edi
	js	0040219E
	lea	edx,[edx]
	push	ebx
	pop	ebx
	jns	0040219E
	push	dword ptr [esp+esi*2+74]
	call	C34378B5
	dec	ebx
	or	esi,ecx
	mov	bl,82
	sub	bh,dh
	xor	bh,al
	inc	ebx
	mov	bh,bl
	dec	ebx
	or	bl,cl
	add	bl,ch
	mov	edi,eax
	jo	00402991
	repne	
	xchg	edi,edi
	jno	00402991
	jz	00402AB7
	jz	00402B08
	call	FE6B22CB
	mov	bl,dl
	dec	ebx
	xor	bl,al
	mov	bh,B0
	inc	ebx
	xor	bh,dl
	mov	bh,ah
	inc	edi
	mov	bl,ah
	cmp	eax,0032FECB
	jnz	00402172
	add	bl,dh
	inc	esi
	dec	esi
	mov	bl,78
	mov	ebx,ecx
	inc	ebx
	jl	00402148
	mov	ebx,ebx
	jge	00402148
	illegal	
	and	eax,8A7474E8
	dec	byte ptr [ebx]
	illegal	
	cld	
	mov	ebx,edx
	mov	bl,31
	mov	ebx,edi
	sub	bl,al
	dec	esi
	movzx	ebx,ah
	or	esi,edi
	or	esi,edx
	or	edi,edx
	dec	edi
	or	esi,ebx
	mov	edi,esi
	jpe	00402B90
	jmp	00402AFA
	pop	esi
	mov	eax,eax
	jpo	00402B90
	jz	00402B03
	and	eax,0B4625FF
	test	dword ptr [edx+F42A46D4],0A0FE9C1
	fdiv	dword ptr [edx]
	loop	00402AA1
	cli	
	inc	ebx
	mov	al,bh
	inc	edx
	mov	ebx,esi
	dec	edi
	jpe	0040244E
	mov	eax,eax
	xchg	dl,dl
	jpo	0040244E
	jmp	eax
	call	E8655135
	and	eax,EA32CE2A
	mov	al,F4
	mov	al,ah
	sub	al,bl
	mov	cl,dl
	add	cl,al
	rol	dl,16
	sub	ch,bh
	mov	ch,74
	dec	eax
	mov	cl,dl
	or	eax,ebx
	js	0040238C
	mov	esi,esi
	jns	0040238C
	and	eax,2A74FF74
	cli	
	sub	bl,dh
	or	bl,cl
	mov	bl,ah
	mov	bl,95
	sub	bh,cl
	inc	esi
	mov	bh,1C
	mov	bh,ah
	dec	esi
	xor	bl,dl
	inc	esi
	push	dword ptr [edx+08]
	or	bh,al
	jl	00402545
	repne	
	jge	00402545
	jz	00402BB1
	push	dword ptr [ebp+25]
	inc	edi
	shr	eax,10
	mov	edi,ebx
	or	edi,ecx
	inc	esi
	mov	edi,eax
	inc	esi
	add	eax,edx
	or	esi,edi
	inc	edi
	or	edi,esi
	inc	edi
	dec	esi
	jl	00402A6A
	rep	
	xchg	eax,eax
	jge	00402A6A
	jz	00402B9E
	push	dword ptr [edi+edi*8+02]
	rep	
	sub	bl,cl
	mov	cl,ch
	mov	dh,BC
	dec	esi
	inc	ebx
	xor	ch,dl
	inc	ebx
	or	ecx,ebx
	xor	bl,cl
	mov	ebx,eax
	xor	ah,dl
	or	edi,eax
	mov	dh,ch
	or	dl,al
	dec	edx
	mov	al,9F
	inc	esi
	jpe	00402577
	nop	
	jpo	00402577
	jmp	dword ptr [E825E8FF]
	add	[eax],al
	add	[eax],al
	add	[eax],al
	add	[eax],al
	add	[eax],al
	add	[eax],al
	add	[eax],al
	add	[eax],al
	add	[eax],al
	add	[eax],al
	add	[eax],al
	add	[eax],al
	add	[eax],al
	add	[eax],al
	add	[eax],al
	add	[eax],al
	add	[eax],al
	add	[eax],al
	add	[eax],al
	add	[eax],al
	add	[eax],al
	add	[eax],al
	add	[eax],al
	add	[eax],al
	add	[eax],al
	add	[eax],al
	add	[eax],al
	add	[eax],al
	add	[eax],al
	add	[eax],al
	add	[eax],al
	add	[eax],al
	add	[eax],al
	add	[eax],al
	add	[eax],al
	add	[eax],al
	add	[eax],al
	add	[eax],al
	add	[eax],al
	add	[eax],al
	add	[eax],al
	add	[eax],al
	add	[eax],al
	add	[eax],al
	add	[eax],al
	add	[eax],al
	add	[eax],al
	add	[eax],al
	add	[eax],al
	add	[eax],al
	add	[eax],al
	add	[eax],al
	add	[eax],al
	add	[eax],al
	add	[eax],al
	add	[eax],al
	add	[eax],al
	add	[eax],al
	add	[eax],al
	add	[eax],al
	add	[eax],al
	add	[eax],al
	add	[eax],al
	add	[eax],al
	add	[eax],al
	add	[eax],al
	add	[eax],al
	add	[eax],al
	add	[eax],al
	add	[eax],al
	add	[eax],al
	add	[eax],al
	add	[eax],al
	add	[eax],al
	add	[eax],al
	add	[eax],al
	add	[eax],al
	add	[eax],al
	add	[eax],al
	add	[eax],al
	add	[eax],al
	add	[eax],al
	add	[eax],al
	add	[eax],al
	add	[eax],al
	add	[eax],al
	add	[eax],al
	add	[eax],al
	add	[eax],al
	add	[eax],al
	add	[eax],al
	add	[eax],al
	add	[eax],al
	add	[eax],al
	add	[eax],al
	add	[eax],al
	add	[eax],al
	add	[eax],al
	add	[eax],al
	add	[eax],al
	add	[eax],al
	add	[eax],al
	add	[eax],al
	add	[eax],al
	add	[eax],al
	add	[eax],al
	add	[eax],al
	add	[eax],al
	add	[eax],al
	add	[eax],al
	add	[eax],al
	add	[eax],al
	add	[eax],al
	add	[eax],al
	add	[eax],al
	add	[eax],al
	add	[eax],al
	add	[eax],al
	add	[eax],al
	add	[eax],al
	add	[eax],al
	add	[eax],al
	add	[eax],al
	add	[eax],al
	add	[eax],al
	add	[eax],al
	add	[eax],al
	add	[eax],al
	add	[eax],al
	add	[eax],al
	add	[eax],al
	add	[eax],al
	add	[eax],al
	add	[eax],al
	add	[eax],al
	add	[eax],al
	add	[eax],al
	add	[eax],al
	add	[eax],al
	add	[eax],al
	add	[eax],al
	add	[eax],al
	add	[eax],al
	add	[eax],al
	add	[eax],al
	add	[eax],al
	add	[eax],al
	add	[eax],al
	add	[eax],al
	add	[eax],al
	add	[eax],al
	add	[eax],al
	add	[eax],al
	add	[eax],al
	add	[eax],al
	add	[eax],al
	add	[eax],al
	add	[eax],al
	add	[eax],al
	add	[eax],al
	add	[eax],al
	add	[eax],al
	add	[eax],al
	add	[eax],al
	add	[eax],al
	add	[eax],al
	add	[eax],al
	add	[eax],al
	add	[eax],al
	add	[eax],al
	add	[eax],al
	add	[eax],al
	add	[eax],al
	add	[eax],al
	add	[eax],al
	add	[eax],al
	add	[eax],al
	add	[eax],al
	add	[eax],al
	add	[eax],al
	add	[eax],al
	add	[eax],al
	add	[eax],al
	add	[eax],al
	add	[eax],al
	add	[eax],al
	add	[eax],al
	add	[eax],al
	add	[eax],al
	add	[eax],al
	add	[eax],al
	add	[eax],al
	add	[eax],al
	add	[eax],al
	add	[eax],al
	add	[eax],al
	add	[eax],al
	add	[eax],al
	add	[eax],al
	add	[eax],al
	add	[eax],al
	add	[eax],al
	add	[eax],al
	add	[eax],al
	add	[eax],al
	add	[eax],al
	add	[eax],al
	add	[eax],al
	add	[eax],al
	add	[eax],al
	add	[eax],al
	add	[eax],al
	add	[eax],al
	add	[eax],al
	add	[eax],al
	add	[eax],al
	add	[eax],al
	add	[eax],al
	add	[eax],al
	add	[eax],al
	add	[eax],al
	add	[eax],al
	add	[eax],al
	add	[eax],al
	add	[eax],al
	add	[eax],al
	add	[eax],al
	add	[eax],al
	add	[eax],al
	add	[eax],al
	add	[eax],al
	add	[eax],al
	add	[eax],al
	add	[eax],al
	add	[eax],al
	add	[eax],al
	add	[eax],al
	add	[eax],al
	add	[eax],al
	add	[eax],al
	add	[eax],al
	add	[eax],al
	add	[eax],al
	add	[eax],al
	add	[eax],al
	add	[eax],al
	add	[eax],al
	add	[eax],al
	add	[eax],al
	add	[eax],al
	add	[eax],al
	add	[eax],al
	add	[eax],al
	add	[eax],al
	add	[eax],al
	add	[eax],al
	add	[eax],al
	add	[eax],al
	add	[eax],al
	add	[eax],al
	add	[eax],al
	add	[eax],al
	add	[eax],al
	add	[eax],al
	add	[eax],al
	add	[eax],al
	add	[eax],al
	add	[eax],al
	add	[eax],al
	add	[eax],al
	add	[eax],al
	add	[eax],al
	add	[eax],al
	add	[eax],al
	add	[eax],al
	add	[eax],al
	add	[eax],al
	add	[eax],al
	add	[eax],al
	add	[eax],al
	add	[eax],al
	add	[eax],al
	add	[eax],al
	add	[eax],al
	add	[eax],al
	add	[eax],al
	add	[eax],al
	add	[eax],al
	add	[eax],al
	add	[eax],al
	add	[eax],al
	add	[eax],al
	add	[eax],al
	add	[eax],al
	add	[eax],al
	add	[eax],al
	add	[eax],al
	add	[eax],al
	add	[eax],al
	add	[eax],al
	add	[eax],al
	add	[eax],al
	add	[eax],al
	add	[eax],al
	add	[eax],al
	add	[eax],al
	add	[eax],al
	add	[eax],al
	add	[eax],al
	add	[eax],al
	add	[eax],al
	add	[eax],al
	add	[eax],al
	add	[eax],al
	add	[eax],al
	add	[eax],al
	add	[eax],al
	add	[eax],al
	add	[eax],al
	add	[eax],al
	add	[eax],al
	add	[eax],al
	add	[eax],al
	add	[eax],al
	add	[eax],al
	add	[eax],al
	add	[eax],al
	add	[eax],al
	add	[eax],al
	add	[eax],al
	add	[eax],al
	add	[eax],al
	add	[eax],al
	add	[eax],al
	add	[eax],al
	add	[eax],al
	add	[eax],al
	add	[eax],al
	add	[eax],al
	add	[eax],al
	add	[eax],al
	add	[eax],al
	add	[eax],al
	add	[eax],al
	add	[eax],al
	add	[eax],al
	add	[eax],al
	add	[eax],al
	add	[eax],al
	add	[eax],al
	add	[eax],al
	add	[eax],al
	add	[eax],al
	add	[eax],al
	add	[eax],al
	add	[eax],al
	add	[eax],al
	add	[eax],al
	add	[eax],al
	add	[eax],al
	add	[eax],al
	add	[eax],al
	add	[eax],al
	add	[eax],al
	add	[eax],al
	add	[eax],al
	add	[eax],al
	add	[eax],al
	add	[eax],al
	add	[eax],al
	add	[eax],al
	add	[eax],al
	add	[eax],al
	add	[eax],al
	add	[eax],al
	add	[eax],al
	add	[eax],al
	add	[eax],al
	add	[eax],al
	add	[eax],al
	add	[eax],al
	add	[eax],al
	add	[eax],al
	add	[eax],al
	add	[eax],al
	add	[eax],al
	add	[eax],al
	add	[eax],al
	add	[eax],al
	add	[eax],al
	add	[eax],al
	add	[eax],al
	add	[eax],al
	add	[eax],al
	add	[eax],al
	add	[eax],al
	add	[eax],al
	add	[eax],al
	add	[eax],al
	add	[eax],al
	add	[eax],al
	add	[eax],al
	add	[eax],al
	add	[eax],al
	add	[eax],al
	add	[eax],al
	add	[eax],al
	add	[eax],al
	add	[eax],al
	add	[eax],al
	add	[eax],al
	add	[eax],al
	add	[eax],al
	add	[eax],al
	add	[eax],al
	add	[eax],al
	add	[eax],al
	add	[eax],al
	add	[eax],al
	add	[eax],al
	add	[eax],al
	add	[eax],al
	add	[eax],al
	add	[eax],al
	add	[eax],al
	add	[eax],al
	add	[eax],al
	add	[eax],al
	add	[eax],al
	add	[eax],al
	add	[eax],al
	add	[eax],al
	add	[eax],al
	add	[eax],al
	add	[eax],al
	add	[eax],al
	add	[eax],al
	add	[eax],al
	add	[eax],al
	add	[eax],al
	add	[eax],al
	add	[eax],al
	add	[eax],al
	add	[eax],al
	add	[eax],al
	add	[eax],al
	add	[eax],al
	add	[eax],al
	add	[eax],al
	add	[eax],al
	add	[eax],al
	add	[eax],al
	add	[eax],al
	add	[eax],al
	add	[eax],al
	add	[eax],al
	add	[eax],al
	add	[eax],al
	add	[eax],al
	add	[eax],al
	add	[eax],al
	add	[eax],al
	add	[eax],al
	add	[eax],al
	add	[eax],al
	add	[eax],al
	add	[eax],al
	add	[eax],al
	add	[eax],al
	add	[eax],al
	add	[eax],al
	add	[eax],al
	add	[eax],al
	add	[eax],al
	add	[eax],al
	add	[eax],al
	add	[eax],al
	add	[eax],al
	add	[eax],al
	add	[eax],al
	add	[eax],al
	add	[eax],al
	add	[eax],al
	add	[eax],al
	add	[eax],al
	add	[eax],al
	add	[eax],al
	add	[eax],al
	add	[eax],al
	add	[eax],al
	add	[eax],al
	add	[eax],al
	add	[eax],al
	add	[eax],al
	add	[eax],al
	add	[eax],al
	add	[eax],al
	add	[eax],al
	add	[eax],al
	add	[eax],al
	add	[eax],al
	add	[eax],al
	add	[eax],al
	add	[eax],al
	add	[eax],al
	add	[eax],al
	add	[eax],al
	add	[eax],al
	add	[eax],al
	add	[eax],al
	add	[eax],al
	add	[eax],al
	add	[eax],al
	add	[eax],al
	add	[eax],al
	add	[eax],al
	add	[eax],al
	add	[eax],al
	add	[eax],al
	add	[eax],al
	add	[eax],al
	add	[eax],al
	add	bh,bh
00403000 FF 01 E9 39 E6 42 73 A6 A3 4E 00 7F FD C9 7E 70 ...9.Bs..N....~p
00403010 5A EE 60 64 2A 1C DE 00 D8 04 A6 06 8F 70 40 EC Z.`d*........p@.
00403020 C3 6E 00 3C E8 60 2C 03 64 00 97 D3 DB 34 9B F3 .n.<.`,.d....4..
00403030 5C 30 EA 08 D5 E1 92 20 A3 18 FF AE 95 7F 46 A1 \0..... ......F.
00403040 C2 C3 97 B8 83 2A E4 0F 01 63 00 00 70 27 CC 99 .....*...c..p'..
00403050 60 E2 EA 30 06 00 00 F6 56 FF 8D 00 00 76 00 DB `..0....V....v..
00403060 FF 27 00 73 FD 19 7C FF 02 41 A7 BC 00 DA 0E 96 .'.s..|..A......
00403070 9D 21 A7 35 95 6E BA 02 08 A0 0B 72 25 18 3F B7 .!.5.n.....r%.?.
00403080 00 82 8D 66 E7 45 35 C3 6B 49 D1 2F 00 76 CF 0E ...f.E5.kI./.v..
00403090 00 A7 C2 E5 CC 00 59 66 92 6C 08 B9 66 F1 CF 44 ......Yf.l..f..D
004030A0 3D 93 CD 1C D7 7B FF 2D FA 00 61 8F 80 DE 0D 00 =....{.-..a.....
004030B0 1D 27 BE 99 28 93 81 65 C0 DC 71 8E FF 85 B4 00 .'..(..e..q.....
004030C0 CF E2 00 00 FF 3F 05 A6 27 00 60 1E 73 9E FA 7C .....?..'.`.s..|
004030D0 75 BD 7C 80 A7 00 55 B8 BC 10 9B 00 E7 38 FB F0 u.|...U......8..
004030E0 76 D6 FF 00 01 E7 B0 60 FF 00 00 CC 00 32 18 9B v......`.....2..
004030F0 FF 97 6C 00 D4 80 00 FF CF 9B E2 00 D9 4F 00 C6 ..l..........O..
00403100 FF 9D 28 A7 89 00 F9 FF F2 FD C0 8F B9 32 EC 57 ..(..........2.W
00403110 0C 9C A4 A9 00 20 E7 4D A2 7E BB 46 64 F9 DC A4 ..... .M.~.Fd...
00403120 1C C6 00 00 E6 27 00 DA 03 E5 06 70 A4 9D 08 97 .....'.....p....
00403130 0D 4A 21 9E 59 B9 18 FE 00 00 AF 80 E6 FF 67 3D .J!.Y.........g=
00403140 05 0D 80 11 C4 D4 D7 00 55 97 35 CD 13 43 8B 84 ........U.5..C..
00403150 93 D2 FF 8C 0B 39 99 03 00 E2 00 F6 BC 84 16 C4 .....9..........
00403160 DD 74 00 08 20 CB C1 20 D2 A1 34 B7 EB 55 F1 9A .t.. .. ..4..U..
00403170 8C 80 05 47 AE 00 FA B0 81 04 00 AC 00 8E 18 D7 ...G............
00403180 19 83 29 5C 00 A4 9A 49 A7 B0 20 E5 97 B2 FF 00 ..)\...I.. .....
00403190 EA 3F 6E 1B 43 2C 00 FF E3 02 00 FF 68 00 15 FF .?n.C,......h...
004031A0 96 1A 07 FF 48 FF 00 6C 7D 3E 0F E0 41 11 F6 86 ....H..l}>..A...
004031B0 00 8D 2E 97 0D D3 E0 E0 49 01 89 92 80 FF 00 AD ........I.......
004031C0 B3 6A C1 03 92 16 00 0C 7E D1 BD 33 BD AC 00 F8 .j......~..3....
004031D0 23 7E 18 10 3E 17 7A EB 5E 00 00 FC 08 71 6D 40 #~..>.z.^....qm@
004031E0 01 3A 95 00 A9 BF B6 90 12 32 AC C2 50 C4 F5 58 .:.......2..P..X
004031F0 F8 DB 38 45 00 EE 01 9C 92 2C 85 02 7E B5 D5 6F ..8E.....,..~..o
00403200 9C 3A F9 70 1A 02 54 0C 50 ED 58 4B 00 19 5E F6 .:.p..T.P.XK..^.
00403210 83 06 84 12 00 A0 C7 92 E8 0C DA 02 2E BC 0B B5 ................
00403220 4E 2F ED 00 83 4A C8 8E 93 CE AA 77 2D A3 A8 00 N/...J.....w-...
00403230 B4 CB 0D B2 00 A1 7F 02 14 40 20 42 EF 0D 00 6C .........@ B...l
00403240 BA 00 00 4F 9C AA 00 E2 B5 78 14 B6 B3 69 FF 00 ...O.....x...i..
00403250 91 13 BB DB 95 00 00 A8 BA B7 DB C2 00 B6 00 B1 ................
00403260 7F 64 1D 07 06 CF 28 93 BD D4 F6 12 CB 37 70 FB .d....(......7p.
00403270 1C 75 2C 0C E0 FF BB 9C 47 C7 D3 25 04 D9 B9 FF .u,.....G..%....
00403280 81 A7 4D A5 00 48 00 1A CB 06 39 00 B8 2A DD FF ..M..H....9..*..
00403290 C6 F4 F1 FF E6 3F 00 00 09 06 EE CE 47 E0 06 73 .....?......G..s
004032A0 00 DE 00 FC FB 41 7E 78 20 B5 98 78 00 28 85 5E .....A~x ..x.(.^
004032B0 83 BF 64 A2 00 A3 F0 CF 9A 63 F5 FA 61 C2 6C 28 ..d......c..a.l(
004032C0 C7 3A 85 EB 32 B1 4A 9D 3D D7 72 67 78 30 AF C3 .:..2.J.=.rgx0..
004032D0 74 36 00 9F 00 71 0D AA 00 80 C0 42 A5 DB DC 71 t6...q.....B...q
004032E0 F1 05 31 42 24 53 EC 3A FF 85 F1 84 78 28 01 00 ..1B$S.:....x(..
004032F0 F4 7E C7 32 00 FF B0 AF 6E 40 00 8F B0 E9 0B 53 .~.2....n@.....S
00403300 9E FF 57 00 FF 89 00 00 20 83 08 19 27 F5 00 AA ..W..... ...'...
00403310 08 B5 CA 64 24 AF 07 04 BB 87 4B 1D 3E A3 5B 59 ...d$.....K.>.[Y
00403320 9D E4 83 5F 8E 6E 28 F3 FA 2A 8D 14 CB 18 00 00 ..._.n(..*......
00403330 00 F1 FF 00 FF E5 C0 CC 00 51 46 00 B2 D0 3A 3E .........QF...:>
00403340 01 74 D4 00 E1 40 5A 87 00 64 00 04 09 F4 80 00 .t...@Z..d......
00403350 9C 00 82 10 FF 40 43 29 84 02 62 C5 EA A3 5E 51 .....@C)..b...^Q
00403360 98 12 8B 00 00 DE 4D 88 00 56 32 5A F1 14 47 18 ......M..V2Z..G.
00403370 27 B7 8C C6 90 86 CF 35 C5 35 29 07 F9 4B 7F 73 '......5.5)..K.s
00403380 6C BF 96 C4 33 93 CD D6 1E 83 66 00 FF 59 78 8D l...3.....f..Yx.
00403390 22 8C 77 FB FF 3B DA 62 DE A4 12 4C 81 E0 29 81 ".w..;.b...L..).
004033A0 67 13 0B 00 D9 FF 9B 1C 00 28 C4 BE 1D FB 00 08 g........(......
004033B0 53 9C 2E 07 20 C5 4F 81 FD E2 7B 00 47 60 B9 FF S... .O...{.G`..
004033C0 06 60 80 AD BF 6A 04 00 1F BF 35 5B FF 86 33 00 .`...j....5[..3.
004033D0 9A E5 BD 4B 0F 00 43 C8 A5 8C A6 79 A3 FF 74 FF ...K..C....y..t.
004033E0 B4 4B 00 0C 8D 8D DD EB 84 0D 0C 8B D2 00 0C FC .K..............
004033F0 00 F6 D8 04 00 E8 17 89 8D 95 00 0C B7 B1 FF 95 ................
00403400 0F 00 B3 37 00 A5 17 A3 2B BF E9 D7 85 A0 65 D5 ...7....+.....e.
00403410 CF F7 80 B0 01 00 A7 33 35 88 00 9D 31 35 18 03 .......35...15..
00403420 B9 FF 47 8E 28 A3 ED DC 00 97 78 3B 00 58 3F EE ..G.(.....x;.X?.
00403430 8B 76 41 21 7D C1 13 01 42 32 B4 00 2C 82 BD FB .vA!}...B2..,...
00403440 FF D9 76 82 7D D0 5C E3 05 90 8F 2B 98 1A 8E CA ..v.}.\....+....
00403450 D8 4A A8 00 AF 00 00 A8 4D FF E5 07 D1 60 28 0E .J......M....`(.
00403460 11 FF 67 00 FF 44 80 00 9D F1 C5 40 B8 3F 82 FF ..g..D.....@.?..
00403470 28 DD E0 07 00 9E 9D 4F A7 8D 19 2B 00 C1 12 95 (......O...+....
00403480 39 95 4A 41 FF 70 90 FB FE 13 45 00 DD 33 00 27 9.JA.p....E..3.'
00403490 66 62 E7 F5 1D FF A2 4B 0B FF BD C0 60 5A 4C D0 fb.....K....`ZL.
004034A0 96 CE 35 F4 D2 52 BF 36 91 DE C2 00 3F 29 81 A8 ..5..R.6....?)..
004034B0 0B 22 97 E5 8C 0E B0 11 F0 00 07 68 E5 82 1F A5 .".........h....
004034C0 35 00 07 65 53 34 CD 21 00 39 AC 9B F9 15 90 8C 5..eS4.!.9......
004034D0 E6 00 CC 00 0B FF 69 F5 41 BB 81 D5 A2 00 00 49 ......i.A......I
004034E0 12 ED 9C 8A 03 B1 5E 50 FF CE 0A 3A 1A 45 1E 00 ......^P...:.E..
004034F0 D9 7E 6B 00 1A 68 08 FC 08 C0 EE 31 68 04 FF 71 .~k..h.....1h..q
00403500 A5 D1 82 17 69 A0 8D 0E 00 07 81 B1 0A C6 00 00 ....i...........
00403510 62 51 1E FB A0 B4 D8 38 79 20 2E 1D D8 E7 79 C4 bQ.....8y ....y.
00403520 00 80 FF 81 95 05 51 39 7B 26 1B 1D C9 36 58 C1 ......Q9{&...6X.
00403530 00 70 F2 90 60 00 68 30 00 B7 77 43 44 00 00 58 .p..`.h0..wCD..X
00403540 1F 0A 99 AB C6 55 54 5A 04 01 7F 00 DA 96 98 EB .....UTZ........
00403550 98 66 00 00 DD 1D 21 E1 00 28 00 00 01 D7 C8 78 .f....!..(.....x
00403560 20 63 93 16 D8 30 6C 1C BC 82 70 8B 00 B6 F3 20  c...0l...p.... 
00403570 0B 00 8B 97 35 00 AD 18 D3 0D AE 72 A0 17 C1 D6 ....5......r....
00403580 B0 4A F9 8D 41 78 37 6B E3 02 CA 64 DD 03 33 3E .J..Ax7k...d..3>
00403590 4B D5 FF FF A6 4B 0C 00 3F B8 00 B0 62 09 9A B9 K....K..?...b...
004035A0 E9 00 20 00 27 58 9A 3F 96 81 00 69 F4 E9 42 1F .. .'X.?...i..B.
004035B0 9C 00 ED 06 10 2A 78 E1 9C FF D4 C1 00 46 3C DC .....*x......F<.
004035C0 DE 0C 9E 1D 17 8F 25 00 A9 D0 F4 74 C5 07 00 82 ......%....t....
004035D0 00 10 BE A2 FF 24 EF A0 FF F0 37 3A E0 FA 26 AB .....$....7:..&.
004035E0 00 EE B6 00 E0 00 00 10 B0 DF 00 00 1C 8F C0 AB ................
004035F0 72 74 F4 FD FF 59 02 22 5A BA 78 00 58 0C CE F7 rt...Y."Z.x.X...
00403600 00 18 44 C2 06 CB CC 00 F4 CC 3B CE 98 03 87 42 ..D.......;....B
00403610 87 0E 43 24 16 E2 7D 26 83 00 FF CF 00 FA C7 FF ..C$..}&........
00403620 FF 03 DF A7 57 00 90 B6 F7 93 20 D0 60 5E 05 FF ....W..... .`^..
00403630 10 00 E2 00 46 20 58 A1 84 F4 3B 57 C8 BD DF 23 ....F X...;W...#
00403640 77 FF 70 00 37 2D 1B 5B 23 30 FF CD 00 E2 A4 06 w.p.7-.[#0......
00403650 6E 53 00 F8 9D 3B C5 4F 00 FE 22 D0 56 8B 06 FF nS...;.O..".V...
00403660 08 8E 94 7F 00 D0 FF 87 38 80 6D 8C A7 1A A2 D4 ........8.m.....
00403670 E7 A3 33 E2 00 F4 FF 0F 00 F0 31 37 45 ED F0 60 ..3.......17E..`
00403680 CE 30 C7 20 7F E4 46 B2 B7 76 E6 36 79 93 24 E0 .0. ..F..v.6y.$.
00403690 01 00 CA 07 DB 85 AD 0D 00 AB 00 EA 1F 26 98 BE .............&..
004036A0 28 DF DE 4C F6 DB 1D 00 90 17 00 00 D7 6E F3 5F (..L.........n._
004036B0 F4 A7 6F 81 33 00 E7 7E 46 6C AD F0 FF 01 C3 1E ..o.3..~Fl......
004036C0 74 9B D4 AD A9 04 D5 00 74 F0 B9 33 67 A0 19 A8 t.......t..3g...
004036D0 F5 00 18 4A E1 FF F8 61 C8 0B 93 A1 00 25 BE CA ...J...a.....%..
004036E0 80 01 8A B0 4A 00 7A 78 46 15 90 40 35 0E D5 44 ....J.zxF..@5..D
004036F0 86 11 05 2C 07 F1 28 A3 A4 9A 44 00 00 01 FB E7 ...,..(...D.....
00403700 00 00 FF 3C 70 49 77 E9 19 EE FF FE 2C EA 67 40 ...<pIw.....,.g@
00403710 96 91 C4 7F 0B 39 FF 01 06 41 0D 00 1E B4 00 00 .....9...A......
00403720 52 D7 F2 FA 9A 7F BC 2F 62 C6 29 F1 FF 47 6B 4C R....../b.)..GkL
00403730 E3 86 CD 52 00 F8 BE 8A 00 64 37 3E 00 FC 00 FF ...R.....d7>....
00403740 F3 3C 74 00 E2 10 66 20 D8 65 F2 53 B3 16 E0 E0 .<t...f .e.S....
00403750 ED EC 7B FF 11 E1 27 03 F3 05 EC DA 90 7D 61 FD ..{...'......}a.
00403760 EB 1F 01 3B 18 91 B7 6F F6 07 16 14 62 F7 00 FA ...;...o....b...
00403770 00 3C B5 34 00 E8 F8 F7 9A 26 84 D7 67 20 1E 0D .<.4.....&..g ..
00403780 98 08 FF 34 43 5B 79 00 30 6F 46 E9 55 00 44 E3 ...4C[y.0oF.U.D.
00403790 9C 00 00 00 DE 66 44 00 60 1B 01 CC BD 81 93 62 .....fD.`......b
004037A0 78 55 39 81 09 B2 B6 EB E1 48 7F 7F 3F 4A 00 1E xU9......H..?J..
004037B0 60 00 C7 EB B4 00 CD 01 13 13 BE 50 00 D5 6B 00 `..........P..k.
004037C0 F1 E8 00 CA F9 FF 23 57 E9 00 00 EF 50 FD FF B3 ......#W....P...
004037D0 00 8B FF 0E 69 FF 5E BE 83 D6 CA 9E 8F 4D 8F 2C ....i.^......M.,
004037E0 55 A2 00 D8 E3 47 FF 27 10 05 FC 97 FA 2B 5E 7D U....G.'.....+^}
004037F0 8D 0A FF A8 00 D6 F2 6E B6 F0 9D 4A 99 82 63 38 .......n...J..c8
00403800 99 39 98 FF 00 54 3D 50 D8 18 E2 47 AC 1C D1 5A .9...T=P...G...Z
00403810 FF 9A 36 FF 8F 00 F4 03 00 FE CB 57 69 61 0D 00 ..6........Wia..
00403820 5E 05 70 00 02 1E 34 F6 5E 00 1E E0 B7 6F 0C 00 ^.p...4.^....o..
00403830 94 13 63 00 6F D3 00 18 D3 C3 44 F8 AE 00 EC FF ..c.o.....D.....
00403840 35 88 7B 02 F4 C1 1E 00 70 F3 8F FF C5 62 32 8F 5.{.....p....b2.
00403850 F3 0A 1F 00 84 8B 9D D2 C0 30 09 FE C4 5D 98 42 .........0...].B
00403860 C4 6C DF A3 F8 AF 58 78 00 10 B8 7C 6E 02 C3 89 .l....Xx...|n...
00403870 D6 99 36 80 06 7C 77 FB 8C DB 1A 94 EA 01 62 30 ..6..|w.......b0
00403880 3D 16 1C 80 C4 FF CA 26 1C 00 02 14 68 34 2B 1A =......&....h4+.
00403890 07 42 39 00 A0 00 21 A3 07 83 07 15 81 DB EE 00 .B9...!.........
004038A0 E5 6F FF C8 C4 E2 40 24 D7 09 02 01 CC 01 F8 A2 .o....@$........
004038B0 A7 77 65 6F 11 BF 6A C3 B7 9C 32 00 00 D3 08 D9 .weo..j...2.....
004038C0 44 5B 5A 67 73 D2 8A 80 6C F8 33 C7 DF FD CB 00 D[Zgs...l.3.....
004038D0 01 54 8E 37 33 B0 A0 18 EF 86 00 73 EF BF 63 EB .T.73......s..c.
004038E0 36 04 08 6A FF 3B 03 7D A8 B7 19 7B 11 B6 3F E7 6..j.;.}...{..?.
004038F0 FF FF 2C 6F 28 AE D4 36 15 C8 0E B0 FF 69 00 AA ..,o(..6.....i..
00403900 00 BF 00 C7 A4 20 14 9E 3B 00 86 71 E6 00 6E 00 ..... ..;..q..n.
00403910 E8 7F F8 2E D1 A6 0B 72 A4 18 33 DE 39 FF FA 84 .......r..3.9...
00403920 86 1F 00 45 BE 77 DE F3 B7 1D A8 35 72 66 89 60 ...E.w.....5rf.`
00403930 AC E6 48 FF 39 D8 FF 2B 40 6A 76 AD D7 B4 31 BE ..H.9..+@jv...1.
00403940 2E F6 00 A5 43 ED C2 9C FF 28 87 94 84 5D FF DB ....C....(...]..
00403950 FA 3D A3 A6 FF 00 20 33 3C 6C 24 D0 00 02 7E F6 .=.... 3<l$...~.
00403960 04 BF CB 00 00 00 96 1B 00 5E 00 00 BB 84 C6 00 .........^......
00403970 C7 02 A2 F0 E2 04 AE 2E 96 81 24 24 EE E4 CB 82 ..........$$....
00403980 00 C5 77 8E 24 C0 8D FC 3B 2C 9B 40 F3 11 FB FF ..w.$...;,.@....
00403990 0D 00 D1 1F 08 BC 80 20 00 58 1C 06 A3 DF C9 23 ....... .X.....#
004039A0 CB C7 00 1D 9D 50 DC FF FF E8 00 F7 2A 23 58 FD .....P......*#X.
004039B0 FE 50 DA D3 92 3A 00 C6 FB 30 3B 30 BC 28 00 00 .P...:...0;0.(..
004039C0 F7 08 00 43 05 BE 9D 40 70 1B 00 27 8C 7C B3 24 ...C...@p..'.|.$
004039D0 34 45 51 99 0C 9C 0A C1 00 61 00 0A E0 FF 08 12 4EQ......a......
004039E0 9D 16 50 59 1F 2F F7 00 82 B6 CB 48 7B BE AA 00 ..PY./.....H{...
004039F0 57 FF 51 CB 2E E9 61 91 0B 20 50 0D 21 F7 DB C1 W.Q...a.. P.!...
00403A00 84 3E 6A DD 5A 70 B4 41 C1 BC 00 78 45 39 6E A8 .>j.Zp.A...xE9n.
00403A10 00 84 D9 AE 0F 8E 56 AE B4 D2 58 B6 5C 2D BE B3 ......V...X.\-..
00403A20 7C 8E 38 B0 00 F0 96 ED C1 F8 46 B7 97 31 BA A5 |.8.......F..1..
00403A30 85 57 00 70 2C F8 7F 45 D4 AF 64 FF D8 00 5F 88 .W.p,..E..d..._.
00403A40 2F FD 42 10 8A 00 C7 28 80 A5 42 80 60 40 70 17 /.B....(..B.`@p.
00403A50 E7 E3 B6 50 EB FB 00 29 BE B6 84 FF B9 3A AB E0 ...P...).....:..
00403A60 3C E2 64 A0 C1 00 7A 04 00 54 27 23 00 8F 7C 0E <.d...z..T'#..|.
00403A70 00 C2 C3 6E 8B 98 7F 39 00 54 F7 70 E1 A0 E4 23 ...n...9.T.p...#
00403A80 91 1E 9A 61 8C A3 94 6C BD 98 01 87 20 50 00 44 ...a...l.... P.D
00403A90 9B 1A CC 60 C4 00 45 5C E8 55 C8 F1 C6 DE 48 E4 ...`..E\.U....H.
00403AA0 BA D3 FF 0E 5F 56 FF E6 62 FB FB 45 7B B7 9C 00 ...._V..b..E{...
00403AB0 68 C8 F9 43 12 13 E5 82 91 02 43 C8 0E 60 CD FF h..C......C..`..
00403AC0 C6 DD 00 3B 2E EF D3 A3 EF CB 07 69 27 FF 11 C6 ...;.......i'...
00403AD0 34 E8 CC D3 6A AB A8 39 E3 92 49 29 14 03 38 52 4...j..9..I)..8R
00403AE0 A0 BF 84 8A 84 3A FF DC 07 88 F8 39 FF D1 00 42 .....:.....9...B
00403AF0 40 BE 8A 48 FF 01 F3 00 30 68 00 93 47 BA 4B 0A @..H....0h..G.K.
00403B00 FF 1C 25 06 28 F3 0F 99 12 B1 C4 8A DE C5 8A C0 ..%.(...........
00403B10 7A AA 8C B3 2D FC 2A 5E 83 E2 A4 80 BC A3 78 CC z...-.*^......x.
00403B20 2C 19 00 6B 0E 66 0C 44 6E C0 96 A8 12 B8 00 58 ,..k.f.Dn......X
00403B30 1C 00 18 4D 8D 04 4C C5 5B E2 FF 5A 25 48 00 CA ...M..L.[..Z%H..
00403B40 DF 92 F6 CA C4 24 32 4D 37 07 C1 4C 9F 94 3A 4D .....$2M7..L..:M
00403B50 0E D9 00 39 53 8B 69 0A B0 14 F9 DA 97 E6 D1 01 ...9S.i.........
00403B60 C0 DF 8E 83 23 E0 90 C7 76 B6 DE A1 E1 00 CE 02 ....#...v.......
00403B70 06 D1 9B E7 01 ED FF 00 85 DF 44 00 9B 02 00 FF ..........D.....
00403B80 59 31 00 00 AB C5 07 86 1C 9B 45 9C 1E FE 8B 4B Y1........E....K
00403B90 88 00 14 00 9C CA FB 8E 38 A1 E2 A5 A2 4A 94 71 ........8....J.q
00403BA0 81 01 63 80 00 99 00 15 C3 1C 00 86 05 97 00 19 ..c.............
00403BB0 8A FB 27 FF F4 2D 00 E0 08 D6 EB 1F C9 D7 B4 60 ..'..-.........`
00403BC0 00 AD 00 89 E7 77 9C 5C B9 DF EA 9C AC FF FF 18 .....w.\........
00403BD0 3F F8 4C FF 3E 5E 10 D2 FF D3 45 77 62 39 34 00 ?.L.>^....Ewb94.
00403BE0 5A 71 7B FF 64 FF 06 D0 81 00 00 87 59 F9 8C C6 Zq{.d.......Y...
00403BF0 10 35 8D 28 77 E5 FF 72 FF 00 A6 00 56 30 00 5E .5.(w..r....V0.^
00403C00 B8 F9 80 10 3C 6B D6 9E 00 58 EB D0 08 53 23 BF ....<k...X...S#.
00403C10 C8 8A 6E 46 C8 1E 79 18 00 02 F7 C4 D6 F0 8F 9E ..nF..y.........
00403C20 00 8D 6E F7 28 4C BB F3 00 00 93 F5 07 39 F4 05 ..n.(L.......9..
00403C30 00 E8 00 69 C5 82 E9 FB D1 E4 00 06 FF D3 EE 36 ...i...........6
00403C40 FE 17 FF 38 78 6F BF 68 BB 93 81 F7 FC 0C FF 19 ...8xo.h........
00403C50 11 D4 BC 30 56 D2 FA 70 F1 DC 23 00 3E 25 A5 E9 ...0V..p..#.>%..
00403C60 37 70 3E FF E0 EF 5D 15 80 03 00 36 60 00 78 08 7p>...]....6`.x.
00403C70 C1 67 D0 44 77 21 9F 5D 34 FF C5 0E 5C 7A 81 3F .g.Dw!.]4...\z.?
00403C80 07 13 9D 87 2B 2C 00 7C 58 FF 00 5F 18 CD 89 06 ....+,.|X.._....
00403C90 00 7A E7 2F EF E3 00 00 86 BF 40 17 00 E2 E0 3A .z./......@....:
00403CA0 C4 13 0D 27 C8 00 00 D5 00 0E FA DC 77 BF E2 E8 ...'........w...
00403CB0 13 CF FF 4E 00 82 08 0E 8E 7F 81 AF 5D B0 05 BA ...N........]...
00403CC0 21 00 00 00 00 07 43 1E 00 0C 66 C6 DC B7 2C 80 !.....C...f...,.
00403CD0 E1 F8 08 CE 00 F3 AD 6A 48 98 00 5B 0A 8F 19 FF .......jH..[....
00403CE0 00 92 D8 36 D7 E8 F5 CB E5 93 00 E2 95 E1 00 EE ...6............
00403CF0 10 BD 00 BD 92 57 DB 85 72 7E A0 E4 38 C4 F1 0A .....W..r~..8...
00403D00 EF 8C 57 1B BF C2 FF 00 00 E6 7B A3 48 4C 0A 3C ..W.......{.HL.<
00403D10 92 FF 06 11 00 1B A5 00 C9 ED 79 38 04 8D 71 D8 ..........y8..q.
00403D20 62 22 00 B3 F6 FF 2E 71 BE 51 26 0C CB 6F 6A EB b".....q.Q&..oj.
00403D30 87 C5 DE EF 38 3A 54 75 EA 11 EE F0 39 D2 E1 49 ....8:Tu....9..I
00403D40 92 C9 FF D9 61 3E 02 4B 94 79 3A 5C 00 00 5D F7 ....a>.K.y:\..].
00403D50 DB 23 6E E7 85 00 F7 92 FB 0B 1D 00 4F FF BE 7A .#n.........O..z
00403D60 F6 C4 E2 FF FF 46 DA CC 94 AC 27 96 39 B1 E7 00 .....F....'.9...
00403D70 7C 92 10 42 FB F5 26 00 4F 66 03 13 79 EF C0 7A |..B..&.Of..y..z
00403D80 00 5D 99 B7 FB C2 52 EB 21 8C 9C 2B 85 67 93 00 .]....R.!..+.g..
00403D90 BF 71 00 8A 00 BA 13 32 00 9F E4 80 99 00 36 B7 .q.....2......6.
00403DA0 42 FF E6 58 41 FF A1 08 9B FB 69 62 43 40 44 29 B..XA.....ibC@D)
00403DB0 ED D8 16 00 00 00 E6 69 F6 FF C9 C5 00 1B 05 12 .......i........
00403DC0 B8 23 00 C8 02 FF 3B FF 7E 00 85 DB BF B8 1E 34 .#....;.~......4
00403DD0 00 C5 68 01 F5 E1 7B 57 E1 00 FF 00 9B DC 7E 5D ..h...{W......~]
00403DE0 44 DE F3 C5 2B 76 7D 06 06 C6 FF 00 FF 42 69 91 D...+v}......Bi.
00403DF0 00 E3 42 67 00 7E 76 C0 9E B1 38 13 0B 5E 17 5A ..Bg.~v...8..^.Z
00403E00 0F 00 AC CB A2 93 4B 00 5D 6C 00 8D B7 E2 E9 13 ......K.]l......
00403E10 02 51 C4 A0 DC 4A CC 00 99 F0 C0 01 4C 63 F6 0C .Q...J......Lc..
00403E20 00 E1 28 3D F0 A1 96 72 E7 48 69 00 C5 8B 4B DE ..(=...r.Hi...K.
00403E30 51 E9 E6 58 00 61 AF 44 F6 0A 1E 7C 37 00 23 C1 Q..X.a.D...|7.#.
00403E40 C9 53 53 E6 F0 FF A5 EA 2D 0F 24 A2 F1 31 FF 7A .SS.....-.$..1.z
00403E50 FF 93 0E 66 00 C1 72 DF E8 6C FE 00 5B 24 70 BD ...f..r..l..[$p.
00403E60 B4 28 F3 2A 2B D1 A0 12 93 1C 98 6E 3C 20 39 05 .(.*+......n< 9.
00403E70 FF 03 26 20 54 27 74 00 AA 0B 3B 58 10 AB 00 5E ..& T't...;X...^
00403E80 A2 2E 2D 7A D0 FD 00 FB AD 0E 00 86 92 00 84 B4 ..-z............
00403E90 3C 00 FD 74 39 00 76 F6 8B 76 2E 1E 39 EC 08 0F <..t9.v..v..9...
00403EA0 08 0F 1F 8E F7 32 A3 90 91 92 00 C5 E2 31 00 00 .....2.......1..
00403EB0 64 00 E6 B3 DB 94 E5 5C 26 74 84 28 00 4F 00 72 d......\&t.(.O.r
00403EC0 FC 3A 71 9D 1C 52 FB 44 30 63 5D 10 D9 00 45 C0 .:q..R.D0c]...E.
00403ED0 22 4E 00 36 45 72 30 00 AC 28 02 30 87 63 FF DF "N.6Er0..(.0.c..
00403EE0 0B 49 FA C0 32 00 FF FE 8B 5B 00 59 E9 5B CA 00 .I..2....[.Y.[..
00403EF0 F6 7D F0 44 71 C3 1C 6B C0 1B 11 FE EE 00 00 FD .}.Dq..k........
00403F00 C3 7E 00 ED B8 AE 15 00 24 D2 B5 41 B9 54 9B 17 .~......$..A.T..
00403F10 46 06 69 9B 8C 2E 48 E7 C0 93 B1 FF 51 C7 20 6E F.i...H.....Q. n
00403F20 37 FF 0B FF 63 20 9E 00 00 1F 5F 8D 4F CA AD 30 7...c ...._.O..0
00403F30 74 00 8B 4F 44 A6 09 41 33 E4 00 3E 00 67 5D 2D t..OD..A3..>.g]-
00403F40 95 48 CB A5 C9 9D BF 39 D6 BC 06 46 FF 04 16 1B .H.....9...F....
00403F50 1B C7 00 C9 5F 00 E1 2A 17 EB F3 DE 02 3B 61 AC ...._..*.....;a.
00403F60 D5 48 D5 40 CC 5E 8C F2 75 00 2C 34 9E 43 00 10 .H.@.^..u.,4.C..
00403F70 00 2C 8D 0D 30 DF 9F B7 19 F8 03 E7 00 18 BF 1B .,..0...........
00403F80 93 F4 00 1F F3 30 6D 38 89 90 0C F9 83 FC 2F FF .....0m8....../.
00403F90 E6 18 E3 18 00 05 F8 A9 89 00 18 2C 74 5D 04 6D ...........,t].m
00403FA0 FA 20 A3 90 7E FF 0D 4C B2 60 00 52 50 8D 43 D7 . ..~..L.`.RP.C.
00403FB0 E7 02 00 00 B7 B7 30 00 30 74 79 62 92 BE 80 6F ......0.0tyb...o
00403FC0 32 6B 2C FF 10 FF 27 00 FE 8B 00 5C 66 E2 F5 FC 2k,...'....\f...
00403FD0 00 24 00 57 BE DA 00 FF EE C4 EA 10 3C C6 ED E7 .$.W........<...
00403FE0 00 13 7F 69 2D FF E8 05 E8 98 00 1F 1C D7 1F E6 ...i-...........
00403FF0 00 50 F1 35 34 E7 DD 41 2E A1 81 2E 09 09 A6 00 .P.54..A........
00404000 FF B5 0A D3 6A 4C 00 EC F3 4D 53 0E 00 FF 26 21 ....jL...MS...&!
00404010 24 37 83 DA 86 3C 08 4E 64 39 E7 F9 4D 2B 83 E0 $7...<.Nd9..M+..
00404020 3B D6 06 AB 29 9E 48 00 D9 00 09 EA AB E9 8F CF ;...).H.........
00404030 A0 5C 0B A9 31 8E 00 EE 7D FF 96 71 F1 C3 00 F7 .\..1...}..q....
00404040 C5 EF 00 6E 71 7B B2 00 8D 00 E4 C0 BC 90 00 86 ...nq{..........
00404050 06 73 40 1C 98 E6 34 78 E4 04 98 1E F7 CF 27 31 .s@...4x......'1
00404060 04 BD 00 B4 C2 F1 F5 3E 60 AC FF 00 B1 8B DF 04 .......>`.......
00404070 00 FB 28 64 72 BD 00 00 B1 C3 00 78 FF E3 0A 34 ..(dr......x...4
00404080 F4 B3 00 75 C5 DC FF 29 BF EE CD 88 CD C5 66 FF ...u...)......f.
00404090 BB 10 47 83 BC A9 00 00 39 00 75 75 36 B0 2C 18 ..G.....9.uu6.,.
004040A0 5A 67 C6 20 00 8F 62 95 D5 85 00 8F 73 36 8D 38 Zg. ..b.....s6.8
004040B0 00 00 24 BC C1 90 D8 00 24 98 87 B0 03 0A 76 12 ..$.....$.....v.
004040C0 8D FC B6 00 22 BB 83 79 F5 65 F7 E5 8D B4 C8 FA ...."..y.e......
004040D0 5F 89 9C AC 71 78 F0 B1 3D 00 8D D4 00 DE 7B 32 _...qx..=.....{2
004040E0 00 EF 09 00 95 E8 4C 40 45 EF A0 CA 07 17 FF EA ......L@E.......
004040F0 63 70 31 75 FA 4F 9F 50 00 95 B5 97 C6 EF AA 81 cp1u.O.P........
00404100 07 FF 9F E7 3F FF 50 B0 80 F1 31 70 03 E6 A6 0E ....?.P...1p....
00404110 00 26 D9 00 41 99 8F FC 40 D6 0D 8B 6E DD E1 DF .&..A...@...n...
00404120 E0 00 C7 C6 11 7B FF 00 10 F7 B4 14 46 39 C1 F7 .....{......F9..
00404130 8E 77 00 00 79 0E 00 3B F5 11 64 8B 12 30 36 45 .w..y..;..d..06E
00404140 19 06 D9 64 38 E2 2A CD 81 7A ED 00 68 15 E2 FF ...d8.*..z..h...
00404150 EF 00 74 40 3C D1 0D 11 00 68 F8 C1 F2 00 2D A1 ..t@<....h....-.
00404160 62 F3 3F 7C 76 FF BB 98 7A 00 B5 71 EE B6 91 0C b.?|v...z..q....
00404170 00 89 64 A1 87 98 0B BA D2 D5 83 81 52 00 F6 02 ..d.........R...
00404180 6D 00 91 71 CA 00 63 EA D0 FF 00 9F 0F 6F 1B 00 m..q..c......o..
00404190 CD 51 6B 8E B2 89 9D 23 5C 00 9E F6 00 12 60 B6 .Qk....#\.....`.
004041A0 9E 45 FD 00 86 00 E2 00 72 00 A4 2A 6E E8 6C 30 .E......r..*n.l0
004041B0 F6 32 14 A4 7E 00 E8 78 E0 B1 2F AA 98 A1 35 FF .2..~..x../...5.
004041C0 C7 81 87 A2 F4 19 4F F4 65 5C B0 00 91 C1 66 0B ......O.e\....f.
004041D0 9A EC A3 BA FF 36 00 20 F9 D6 01 00 C1 1D FA 88 .....6. ........
004041E0 AC 09 00 18 7D D8 5F 41 34 25 B4 B2 F8 26 22 05 ....}._A4%...&".
004041F0 01 00 28 0E 82 39 FF 00 51 DB 11 DF 73 F5 11 4E ..(..9..Q...s..N
00404200 71 78 00 E3 00 B9 A9 91 E4 FF E3 36 AD 59 C8 23 qx.........6.Y.#
00404210 C4 19 3A 90 71 BF C2 D9 35 6D 72 72 63 53 40 FA ..:.q...5mrrcS@.
00404220 D5 EF 70 FB 67 EF FF 91 FF 7C 8E 28 04 F1 46 95 ..p.g....|.(..F.
00404230 3C FF D6 83 9F E2 FF 10 B4 9C AB B3 81 26 8E 74 <............&.t
00404240 3F 5F 49 59 F9 B9 BC 91 93 00 FA 11 5A FE 64 28 ?_IY........Z.d(
00404250 61 93 0E 00 34 FF 1B B4 61 CD B2 6E 00 00 35 B2 a...4...a..n..5.
00404260 09 00 AE DA 58 A2 83 20 2A 00 78 B3 13 BE 00 00 ....X.. *.x.....
00404270 0F 73 84 E1 D3 00 36 F4 F8 71 EC 72 D7 D5 A2 19 .s....6..q.r....
00404280 BB 00 39 51 C9 70 49 00 05 39 79 FF AE FF FF 10 ..9Q.pI..9y.....
00404290 5D 07 00 00 46 00 4F 23 63 FA FF 38 63 4C 20 73 ]...F.O#c..8cL s
004042A0 A9 03 72 0B 1A 3F C5 99 52 A1 49 00 56 D1 4E E3 ..r..?..R.I.V.N.
004042B0 00 A8 56 06 00 17 0A 08 A3 16 7A 46 86 F7 01 30 ..V.......zF...0
004042C0 B8 18 5D 9A 00 B5 2E FE F8 69 CD 96 3B 49 EA 00 ..]......i..;I..
004042D0 C1 E2 87 00 DD 5C 00 66 80 00 A0 91 22 32 F0 0C .....\.f...."2..
004042E0 66 15 FE 84 5B B1 80 F3 6C C1 A1 05 89 FF 86 15 f...[...l.......
004042F0 FD C1 0B 5F 00 30 61 05 FE 78 2F 1B 00 A9 9C 25 ..._.0a..x/....%
00404300 01 E5 F5 FF A2 00 10 FA 72 E6 0F ED 80 6F 87 FF ........r....o..
00404310 0E 01 02 00 E3 BB 00 78 D4 93 4F 2A 02 42 FF 06 .......x..O*.B..
00404320 26 8F 0B F4 A6 00 7F 00 BD FF 53 68 54 00 38 00 &.........ShT.8.
00404330 E2 E9 00 93 55 B7 42 99 8F 00 FF 00 E9 6C 00 AC ....U.B......l..
00404340 49 B1 84 28 52 2C C5 C9 30 66 BD 43 47 E6 D8 6D I..(R,..0f.CG..m
00404350 0C 16 28 C2 51 41 00 5A 2F 00 00 3A 1E 98 8A E9 ..(.QA.Z/..:....
00404360 ED 00 EB D1 84 00 B7 D2 00 FF 78 FB 0D 3F 80 DC ..........x..?..
00404370 32 D4 3F 6F 90 B0 00 29 00 12 10 E0 5B D3 28 F9 2.?o...)....[.(.
00404380 3C D4 00 1A 4C 00 7F F0 6C 6A 15 45 80 D0 00 70 <...L...lj.E...p
00404390 04 E7 00 DF 2F 26 8C 28 0D CE 35 6B FA 7E 39 80 ..../&.(..5k.~9.
004043A0 50 20 C0 10 10 D5 DB 8C 84 00 2E EE 40 5C 73 F4 P ..........@\s.
004043B0 50 F5 84 9E 36 25 B0 12 36 1C 04 C9 FF 1D EB 7A P...6%..6......z
004043C0 ED 4A E3 F5 0A EC 9F 00 6B 77 DB F0 24 96 00 6C .J......kw..$..l
004043D0 18 00 6D 00 E1 08 00 EA D7 D3 82 F0 98 21 FF 28 ..m..........!.(
004043E0 00 97 00 32 8F 0D 1B 61 00 29 0C 22 28 00 72 30 ...2...a.)."(.r0
004043F0 6D 88 1A C1 8A FF 67 2C 0E 6F 00 01 00 00 DD EF m.....g,.o......
00404400 CB 47 56 FB C4 7D A0 24 10 FD E9 68 08 D7 2B FF .GV..}.$...h..+.
00404410 7E D1 E8 45 00 FC BF C3 87 00 67 DF CF 76 FF 19 ~..E......g..v..
00404420 8E EC C0 CF 77 FF 52 9F F5 00 FA BE 1A 37 00 81 ....w.R......7..
00404430 00 F8 F0 84 9C 3B 61 A1 A9 72 B8 02 D5 06 D1 49 .....;a..r.....I
00404440 E4 5E E8 A3 FF 63 00 C6 09 3D FE 2A 0A 8C 1B 4F .^...c...=.*...O
00404450 DC 01 56 A0 44 A0 73 BF 2B 5C D2 4F 2B 00 7A 00 ..V.D.s.+\.O+.z.
00404460 7C 00 4C EB 40 8D 00 8E F3 1B E0 00 F4 D6 00 00 |.L.@...........
00404470 EF 22 88 00 FA 00 00 74 D9 CD 00 EF 00 00 6F DD .".....t......o.
00404480 49 00 68 00 00 09 01 00 03 30 9E 95 24 00 46 02 I.h......0..$.F.
00404490 6D F7 B3 FF 3C 63 00 68 00 D8 98 07 73 AC B8 48 m...<c.h....s..H
004044A0 AA FF AA 65 68 00 83 1D 9C 00 02 D6 7E 0E 2C 42 ...eh.......~.,B
004044B0 00 EF FF C6 FF 74 03 D1 08 00 7F 91 88 00 FF AC .....t..........
004044C0 15 4C 00 46 11 18 D6 0A 00 CB E9 00 15 24 00 3E .L.F.........$.>
004044D0 C0 13 14 0A F6 62 09 66 C2 22 88 0C 66 CB EA EA .....b.f."..f...
004044E0 69 6D FF FA 33 E1 00 CE 00 3D 84 00 31 33 80 99 im..3....=..13..
004044F0 8D FF D1 00 6C 39 00 C3 DC 2D DB FF A8 3E DA 00 ....l9...-...>..
00404500 C7 CF CE 00 36 B2 AE D7 00 09 3F 2F AA 30 00 00 ....6.....?/.0..
00404510 2D 9D 76 DB 36 4C CE 3E 2D 6C DB 05 00 CF 50 CE -.v.6L.>-l....P.
00404520 D5 58 AB 53 ED A7 15 CF 2C FF C2 28 C1 38 60 ED .X.S....,..(.8`.
00404530 40 A1 21 37 24 85 76 C1 43 F0 4B BF 41 FF 83 02 @.!7$.v.C.K.A...
00404540 BA 6A 00 00 BB 84 D0 B1 EB BE 10 44 C9 EB 53 9A .j.........D..S.
00404550 D4 85 00 E3 29 C3 DA 00 E1 C5 00 00 E8 E6 2A BF ....).........*.
00404560 5B 7B FF 00 CC 88 FE FF D5 FF 34 C2 43 3E 4E 07 [{........4.C>N.
00404570 9A 6E FF 7A B5 00 6E 03 E7 64 00 71 0C C3 4E 39 .n.z..n..d.q..N9
00404580 81 D3 74 96 67 92 D8 86 B1 50 7E 9A FF 35 AD F9 ..t.g....P~..5..
00404590 8D 00 00 00 4C 64 ED 8A 14 43 77 B9 BC 58 1F F0 ....Ld...Cw..X..
004045A0 FF 82 8C B2 E8 EF 00 0F FF 61 19 35 E8 46 D5 B4 .........a.5.F..
004045B0 00 1B 17 00 CC 00 D0 7E 00 F4 A2 CE 19 AA 14 38 .......~.......8
004045C0 25 6E 79 00 00 00 E8 00 D9 49 04 D2 39 54 00 00 %ny......I..9T..
004045D0 6D C7 83 00 A2 2F 3D 00 64 E1 EC 86 6A A0 3C 22 m..../=.d...j.<"
004045E0 0D FF FD 7A DD 00 04 BC DF E3 FF 33 9D 00 84 83 ...z.......3....
004045F0 D4 8D 3A 7D 00 6C 00 00 34 6E 5A A9 BC 69 91 67 ..:}.l..4nZ..i.g
00404600 21 01 37 B2 00 32 3B 01 70 0D 55 E7 21 E0 D1 1C !.7..2;.p.U.!...
00404610 00 4E 86 FF 00 A3 0C 08 F8 8A 82 B3 71 69 80 83 .N..........qi..
00404620 8F 00 35 D8 0D 7C 93 30 95 EF E9 30 49 00 8D 37 ..5..|.0...0I..7
00404630 BB 42 02 D3 B5 C0 ED 83 01 0C 00 E3 0F 7C 2D 54 .B...........|-T
00404640 40 2B 42 36 98 8A 36 F5 49 40 3E 6E 64 E9 58 C9 @+B6..6.I@>nd.X.
00404650 1F EA 67 B2 97 98 EC 54 DA 88 25 08 3C 83 9E 1C ..g....T..%.<...
00404660 FF 21 1E 75 A8 0C 0A 00 CC 1D 64 1B E8 0C 55 00 .!.u......d...U.
00404670 BC 96 38 88 E5 F6 CE 12 40 F9 00 00 29 30 18 00 ..8.....@...)0..
00404680 3C 17 30 8F 00 F7 D0 64 98 59 8C F1 00 E1 45 00 <.0....d.Y....E.
00404690 47 AD B4 6F F9 62 F4 03 78 00 40 00 53 BA E5 C1 G..o.b..x.@.S...
004046A0 46 1E E3 00 7F 4C FF C3 09 9B C5 9D 00 BC 88 05 F....L..........
004046B0 1B 13 38 7C CB 54 3B 32 2C CF 6A 22 0C C1 FF 90 ..8|.T;2,.j"....
004046C0 46 00 10 08 03 FF 39 95 CD 7D 1B BB 7B 75 56 82 F.....9..}..{uV.
004046D0 11 D8 70 2F 6C 00 4A F1 C9 DB 45 C7 B0 C0 D1 32 ..p/l.J...E....2
004046E0 C6 01 FF 09 87 2E 78 28 3B CE FF 33 5D 57 26 1B ......x(;..3]W&.
004046F0 17 74 7D 7B 18 84 B9 57 48 53 00 19 00 00 E4 00 .t}{...WHS......
00404700 8B B4 F0 55 B3 CE AE 82 3F 04 1C 26 E6 F6 FF 46 ...U....?..&...F
00404710 FF 7D 08 00 FF E1 FF 58 2C 72 A3 C7 00 83 FF 26 .}.....X,r.....&
00404720 40 43 70 71 A9 45 69 7C B1 71 08 94 00 10 AC 3C @Cpq.Ei|.q.....<
00404730 5F 81 7C 11 99 E8 00 FF C0 41 26 DE 59 00 91 07 _.|......A&.Y...
00404740 00 7E 00 07 9E 69 0C 15 82 2C C2 D1 23 00 1D 00 .~...i...,..#...
00404750 EC C1 74 B0 C4 D4 26 72 49 21 49 00 D3 EB B0 00 ..t...&rI!I.....
00404760 00 19 F1 57 D6 46 C6 4E 00 7D 00 3A B5 E6 F7 3C ...W.F.N.}.:...<
00404770 91 C8 6C 60 E8 F6 7A 37 38 00 9A A1 12 B6 60 11 ..l`..z78.....`.
00404780 7E B4 06 66 C3 9E AE DC DA 48 00 98 F7 32 00 2D ~..f.....H...2.-
00404790 EF 69 99 98 00 05 A7 FF B9 55 45 12 20 F4 16 73 .i.......UE. ..s
004047A0 05 00 00 00 5D 46 00 C6 69 F4 1C FF AD FF 00 FD ....]F..i.......
004047B0 FF F7 F9 FF A0 46 66 66 6F A5 00 22 4D EB A7 71 .....Fffo.."M..q
004047C0 74 6D 27 86 00 39 83 C0 29 70 FF FB 7C 00 87 1B tm'..9..)p..|...
004047D0 00 18 9B 5B 06 00 F8 F8 FF C5 36 34 00 FD FF 00 ...[......64....
004047E0 5C 2E 1A 00 C5 17 19 C3 48 00 EA F1 04 00 51 48 \.......H.....QH
004047F0 B8 64 6C 3F EE F3 C7 01 00 E0 4F 70 89 9E 0B 00 .dl?......Op....
00404800 C7 16 8F 0A D1 9B 3F 1E 84 59 FF 0B 93 40 FF 23 ......?..Y...@.#
00404810 52 AA 24 0B 00 7B 55 00 C1 34 96 54 72 FF 03 87 R.$..{U..4.Tr...
00404820 7F C0 FF 65 C4 AA B0 66 FF 00 BF 29 D4 31 12 A8 ...e...f...).1..
00404830 31 90 01 0D 00 4F 7B 40 00 FF 16 92 C2 9F 64 44 1....O{@......dD
00404840 30 C6 98 E7 92 58 00 1A 00 14 07 74 FF 78 00 70 0....X.....t.x.p
00404850 11 CE B5 4A F9 1D 23 89 B2 13 EE FA 29 6C 04 7A ...J..#.....)l.z
00404860 F2 F7 00 FF D4 00 19 00 00 E7 B2 F2 00 00 00 AB ................
00404870 DA 49 E9 FF 15 9E 70 00 00 3E 14 E9 4A 3E C8 C5 .I....p..>..J>..
00404880 BE 16 9A 07 E1 39 5D 85 15 BB 61 00 C2 2A 6A 84 .....9]...a..*j.
00404890 00 E5 D3 0C 58 68 70 98 EF 05 EE 00 76 4F 83 3E ....Xhp.....vO.>
004048A0 15 26 F9 00 2F 7A 6A 0B DA 3D 00 00 00 B8 04 4E .&../zj..=.....N
004048B0 4E 5D 63 62 D7 8B B4 99 22 EC BC 23 D3 7F 33 74 N]cb...."..#..3t
004048C0 20 85 27 00 1A EF 5C 4E EF 00 97 C8 D2 28 FD 12  .'...\N.....(..
004048D0 A9 80 9F 10 00 E1 AF 56 D5 00 F8 57 D4 00 08 4E .......V...W...N
004048E0 92 6C FF FB 36 8F 02 BA AE 7E 00 00 D7 AF D8 F7 .l..6....~......
004048F0 65 96 37 D2 29 FF CD 5C 78 EF 00 3F D9 1B BC 13 e.7.)..\x..?....
00404900 83 92 FF A9 D0 F9 D7 B2 6C 25 C7 B2 C9 8E 80 34 ........l%.....4
00404910 1F 99 A7 01 75 98 30 36 7C 00 74 22 B1 3E BF 48 ....u.06|.t".>.H
00404920 47 DF 7F C7 F9 DC C1 8E FF F2 80 9C B6 BD D6 5C G..............\
00404930 0A 80 8F 0D 37 00 FD BE FD 00 00 76 02 00 01 9D ....7......v....
00404940 1B 5C F2 5A 2A 35 02 EE 00 64 AB 96 AD 07 EB 7D .\.Z*5...d.....}
00404950 FC 03 ED DE 41 09 00 7B CF 00 F1 FC FB 00 D9 03 ....A..{........
00404960 4A 72 4B E8 A8 00 AC 43 23 32 00 FB 03 12 86 34 JrK....C#2.....4
00404970 8D 00 06 04 30 FF A0 9C 00 03 2F A9 FF 83 76 9A ....0...../...v.
00404980 2D 00 D4 00 F0 5C 08 00 25 80 0E 72 6F 83 C8 2B -....\..%..ro..+
00404990 13 D4 12 26 DC 30 76 92 C5 00 00 02 2F 02 0E F2 ...&.0v...../...
004049A0 EB 2D E5 40 3F 61 FF D5 AB 0C CA 00 93 57 EC DF .-.@?a.......W..
004049B0 14 C7 02 07 4E D6 00 A5 FB 8C 77 A2 13 AB CD 81 ....N.....w.....
004049C0 35 17 5F 37 04 C9 28 13 85 2C B4 B6 91 38 C7 27 5._7..(..,...8.'
004049D0 CC 00 00 D0 EF 00 00 7A 90 F8 D4 E0 E5 9D 62 F1 .......z......b.
004049E0 0D 23 28 97 24 B5 FF DF 06 EB 58 5D CC 0F 83 15 .#(.$.....X]....
004049F0 DC 7C A8 5D E1 9E 0F 31 67 8C EB E7 00 FF C8 41 .|.]...1g......A
00404A00 6C 91 02 80 00 1A FB 7F E9 36 F7 3F DB 3B 0E E1 l........6.?.;..
00404A10 FC 95 00 B9 80 ED 2C FF 1C 00 C9 21 03 FF 00 FD ......,....!....
00404A20 0E 00 38 87 7D 59 AE 2D E9 2B 3C 1B F8 0B 5F 52 ..8.}Y.-.+<..._R
00404A30 CE 00 B1 FF 00 00 86 E7 2E DD 11 69 CE 3C 5D F1 ...........i.<].
00404A40 00 71 3C 5D 26 00 C2 FF 00 AE 65 2D 0B 0E F3 E4 .q<]&.....e-....
00404A50 0D F7 9F 0D 81 00 81 31 C1 30 36 FF 28 9F 9E 19 .......1.06.(...
00404A60 FF 8C 9B BF 70 C1 4B FF E2 03 20 D0 CC 4D FF 8B ....p.K... ..M..
00404A70 B0 83 1F 38 24 34 43 C6 03 5F B7 FF 9A 0C F4 B6 ...8$4C.._......
00404A80 00 DD CD 52 43 DC 8D 3F 38 03 45 C2 E2 2C 3D E1 ...RC..?8.E..,=.
00404A90 DB 71 BE FD C1 DC 20 F8 06 7E 65 31 FF 00 16 6B .q.... ..~e1...k
00404AA0 81 5D 58 00 5B 8E 94 63 39 A8 FC DA F5 A4 BD F5 .]X.[..c9.......
00404AB0 65 74 00 84 F1 DA 01 EA D4 32 FF 00 3C 34 74 CD et.......2..<4t.
00404AC0 00 59 31 41 9B 7D C1 E3 74 FF 0E F1 BD 2C 00 82 .Y1A.}..t....,..
00404AD0 E7 25 DE 00 00 81 1E 65 BD 98 A3 07 87 84 4E 83 .%.....e......N.
00404AE0 9A 31 2F 44 E4 BA EF 08 39 A4 86 DF 7A C7 93 EE .1/D....9...z...
00404AF0 CF CC 00 B1 2E 00 2C 00 00 2A 00 67 B6 A6 FF F6 ......,..*.g....
00404B00 1B 9C E3 CF BC 67 BB 3E 38 FF 00 15 0C D9 72 38 .....g.>8.....r8
00404B10 13 E4 9F 0D 56 B9 D2 1F 23 00 FF E5 44 C4 A1 9E ....V...#...D...
00404B20 5A 9B 00 F2 BA 49 20 4C 4F DF FF 52 58 2E 00 04 Z....I LO..RX...
00404B30 CF FF 88 39 E5 00 E6 FF 4C 68 00 F6 1C 98 ED 00 ...9....Lh......
00404B40 00 00 7B DC 12 F5 B5 00 E5 00 00 54 42 91 5F CF ..{........TB._.
00404B50 AF CB 32 03 1A 82 5C 08 4C A8 E8 1B 2D 00 82 FF ..2...\.L...-...
00404B60 09 A4 C3 11 64 D5 56 13 00 12 70 A0 2F A9 F1 00 ....d.V...p./...
00404B70 84 D7 1A F2 DC 02 AF 1E E8 FF E1 66 1C 04 00 AC ...........f....
00404B80 63 BF 40 E3 F8 D6 00 7B 26 00 A0 A2 C0 F2 82 51 c.@....{&......Q
00404B90 FF EF F4 A7 C0 6A FF 52 AE 61 A5 C3 4B AA 00 FF .....j.R.a..K...
00404BA0 26 ED 87 37 4F 97 45 E7 E3 83 00 E8 80 58 FF 93 &..7O.E......X..
00404BB0 00 82 60 7E C3 7F AE E8 B9 B2 9E 7F E2 EC AD BD ..`~............
00404BC0 C4 74 36 84 16 18 88 00 97 97 72 8E 29 00 D6 00 .t6.......r.)...
00404BD0 00 1F 16 3F 23 D0 00 D5 03 E4 00 DF 00 68 4C 79 ...?#........hLy
00404BE0 2B 82 57 9D 00 C2 CF 52 01 F4 00 2C 85 00 C0 C7 +.W....R...,....
00404BF0 62 86 73 35 D7 00 84 C0 44 F0 00 E6 26 06 07 37 b.s5....D...&..7
00404C00 15 09 00 00 00 2E 00 92 B7 E8 2D A1 08 38 BE 6B ..........-..8.k
00404C10 8B 00 00 56 49 41 45 94 AA 5A 17 82 85 DA DE A5 ...VIAE..Z......
00404C20 D0 93 FF EE CA 1B 00 6F 00 C5 F7 00 B5 39 8D DC .......o.....9..
00404C30 18 3C D5 3B 6D 37 81 00 00 54 85 A7 F3 00 C4 00 .<.;m7...T......
00404C40 74 E8 F0 FF 44 5B 16 D6 00 6F 2D 11 BC CF BC 18 t...D[...o-.....
00404C50 EC 1E 2C 9E 00 B1 F8 0E 20 B8 9A 26 23 0E 23 58 ..,..... ..&#.#X
00404C60 79 AF 16 77 0A CF F1 56 F0 20 00 07 87 62 96 B4 y..w...V. ...b..
00404C70 7C AE 8F FF 33 1C 0B 00 00 37 2C 05 B1 00 12 FF |...3....7,.....
00404C80 D7 00 52 DA F3 00 00 7F 0B 00 F3 00 AE B4 88 CF ..R.............
00404C90 00 E6 AD B9 04 E3 51 FF FB 00 9B FF 11 12 00 E8 ......Q.........
00404CA0 BC 7B 88 23 7F 7A 48 A2 B9 81 16 77 10 00 26 83 .{.#.zH....w..&.
00404CB0 33 9C D9 5F 1A 1B 80 D1 C2 EE F3 8B B0 F7 68 3C 3.._..........h<
00404CC0 5C 7B 00 09 00 42 08 00 FF 44 60 C6 27 37 78 00 \{...B...D`.'7x.
00404CD0 E4 37 AA F3 16 4C DC F4 FF 96 B4 6A 9F BB 8C 7B .7...L.....j...{
00404CE0 CE 3C E4 7A 80 70 08 8A D8 03 B4 AE 1E 3A 72 E9 .<.z.p.......:r.
00404CF0 00 00 36 CF 00 C3 FF 44 C3 74 37 E6 2A 24 EA 8A ..6....D.t7.*$..
00404D00 27 A1 47 31 DA FF 4F 90 1C CB 16 D8 05 BD E7 4D '.G1..O........M
00404D10 D0 A2 8D 00 40 00 18 B7 0D 67 1E 41 00 9F 89 6B ....@....g.A...k
00404D20 D8 7D E1 6C 00 FF 00 96 47 F4 C2 86 1B B5 31 E1 .}.l....G.....1.
00404D30 90 C6 F8 9D 2A DB 8C 62 9A D2 D3 06 7C D1 48 19 ....*..b....|.H.
00404D40 00 F2 CA DF 4C 00 30 F7 B1 E3 6F B1 FF D9 C2 33 ....L.0...o....3
00404D50 C8 D2 3F DC 22 1E B5 0C BD 00 CA AF 1D FD F1 FF ..?."...........
00404D60 A8 D1 2D 83 A3 00 00 00 38 6B D1 E9 00 D2 D9 00 ..-.....8k......
00404D70 61 A5 2A A4 00 4C 7F 02 97 FF 43 89 C1 EC C9 00 a.*..L....C.....
00404D80 AA 18 C7 F5 F0 01 16 E4 34 C8 B7 FB 26 83 08 00 ........4...&...
00404D90 9B CB 16 FF 52 74 A0 00 47 D0 00 3E CF 00 00 C5 ....Rt..G..>....
00404DA0 A5 FF 67 B8 00 C5 FF 03 00 65 9A AE 40 00 F3 59 ..g......e..@..Y
00404DB0 F7 00 0D 23 86 FB 7D FF A5 30 67 4C 00 1D 3E 8D ...#..}..0gL..>.
00404DC0 98 3A FF 8E A9 84 C4 6F 41 7B FF 34 FF E7 A0 86 .:.....oA{.4....
00404DD0 D2 D1 96 7C E2 EC 55 01 79 BF 30 0E 31 C7 01 B9 ...|..U.y.0.1...
00404DE0 D3 B2 14 00 6B 00 B7 52 14 0E 00 EF 02 D0 85 C2 ....k..R........
00404DF0 87 3A 5F 00 85 F6 F3 5E 85 03 FF A8 D2 48 E2 04 .:_....^.....H..
00404E00 81 25 6F 71 0C 87 4B FF A9 B6 D6 38 00 6F FF CC .%oq..K....8.o..
00404E10 1E 6A E3 5D 41 99 92 E8 00 92 00 3A F8 D1 90 0C .j.]A......:....
00404E20 60 BF A0 FA 00 79 00 CA 85 86 04 7F 7B 16 60 64 `....y......{.`d
00404E30 05 D9 6C EE CF 0D B5 7B 88 66 87 21 17 0A 48 8B ..l....{.f.!..H.
00404E40 E8 00 A6 40 00 F4 9B 9C DF C5 00 42 8A 82 B2 A2 ...@.......B....
00404E50 01 74 DB 7E 73 97 EB ED BC FB 68 12 60 2E 71 FF .t.~s.....h.`.q.
00404E60 7E 97 00 55 11 CA 40 08 00 99 E7 39 6B 06 00 92 ~..U..@....9k...
00404E70 D5 E4 59 01 58 B7 F6 28 09 00 AF 00 FF 88 D9 00 ..Y.X..(........
00404E80 30 00 0B A4 97 1F FF D3 64 1B 00 FE 97 CF 7D EE 0.......d.....}.
00404E90 6A E3 2C 83 FB 00 9F 44 E9 FF 38 15 55 20 91 AB j.,....D..8.U ..
00404EA0 00 A0 65 73 28 70 33 01 1C F0 D5 FB CC 15 76 4D ..es(p3.......vM
00404EB0 3F A3 D8 CC BF 68 00 0F FB 10 29 26 40 92 52 71 ?....h....)&@.Rq
00404EC0 C2 DE 84 E1 5D 00 D7 80 0B 6E F4 AE F7 77 CD 6F ....]....n...w.o
00404ED0 00 FF F7 FC DF 60 00 54 68 6F A5 3D 56 28 09 4B .....`.Tho.=V(.K
00404EE0 A2 7B 76 4E 00 91 8B D3 F7 40 FF 47 47 04 53 32 .{vN.....@.GG.S2
00404EF0 67 E8 DB B0 D9 A1 2F E7 08 07 B9 CC F1 C6 80 89 g...../.........
00404F00 6F EF 79 18 81 2A 4A 0F C9 FF EA 45 17 C4 CE C1 o.y..*J....E....
00404F10 1A 5C AF 9B 4A 90 0A 1D FF 00 58 C2 42 00 36 0F .\..J.....X.B.6.
00404F20 DC 5A F4 92 85 8F 97 0B 00 B3 2B 00 21 61 72 00 .Z........+.!ar.
00404F30 79 59 4B D0 0A 00 C8 1F FF CE FF D5 B7 F1 DA AF yYK.............
00404F40 D1 FB AE 00 64 C4 22 30 8D 09 31 FF BF DF 1E FF ....d."0..1.....
00404F50 26 65 F4 4A 44 A2 FF 4C ED 68 B0 08 9A 55 FC 00 &e.JD..L.h...U..
00404F60 00 21 75 FF 0A 18 2E 40 FF 99 FF 00 E5 F0 8A 8A .!u....@........
00404F70 52 80 AE C5 00 B0 D7 EC 6B FF 42 F5 22 67 E4 4A R.......k.B."g.J
00404F80 7C EC 9A 3D C0 09 D5 A8 62 10 EC 78 31 B4 00 58 |..=....b..x1..X
00404F90 00 31 81 AA C4 3A F3 1D D6 28 38 71 EB BD DE 13 .1...:...(8q....
00404FA0 50 1D AB 68 72 DA 60 00 24 FF 00 3E 15 62 12 FA P..hr.`.$..>.b..
00404FB0 00 E4 1B 8F FF 77 D7 9A 45 73 05 87 FF 5B 00 70 .....w..Es...[.p
00404FC0 8B 4C 64 D2 35 00 00 E3 00 20 64 CC 74 5A B6 91 .Ld.5.... d.tZ..
00404FD0 D7 AF 92 69 E4 5C 92 00 00 23 61 EC C7 FB 98 FE ...i.\...#a.....
00404FE0 00 00 17 38 EF 16 3D 23 34 00 F6 F3 68 EA 2A A3 ...8..=#4...h.*.
00404FF0 A2 00 F1 1B 54 8D 18 D5 2B 39 12 F2 00 0F EA 41 ....T...+9.....A
00405000 FB 00 3D 8F 14 D8 86 CC A7 09 53 5E 29 9C 45 FF ..=.......S^).E.
00405010 3B 28 00 95 4D 16 AB 23 FC 00 40 00 08 BD 3B 21 ;(..M..#..@...;!
00405020 1B 2A 5C A5 B7 2A D9 0C EB AB 31 F9 20 FF 60 AD .*\..*....1. .`.
00405030 00 24 D6 00 1F 06 63 DF FD 89 DF 48 5A 00 A1 FF .$....c....HZ...
00405040 91 F4 A8 00 FA 2E 70 17 FD 70 59 19 9C 00 9D F7 ......p..pY.....
00405050 20 EC 01 74 0C 53 4B 8C 7F 00 21 63 53 FE E3 8F  ..t.SK...!cS...
00405060 83 14 78 BE 1D 8C 00 00 82 B9 10 E6 FC EF 52 15 ..x...........R.
00405070 00 18 22 04 7A D0 00 8E 00 5B 3E 03 EF E2 67 2C ..".z....[>...g,
00405080 80 6D FF A6 34 01 00 F8 FF DA 00 12 02 F3 B2 00 .m..4...........
00405090 14 32 A4 0E 00 BC 69 2B 11 AE 30 34 02 1B D6 E3 .2....i+..04....
004050A0 36 30 89 00 E9 48 85 3F 95 2E C3 07 EC B7 3B BB 60...H.?......;.
004050B0 21 00 CE 16 26 C8 EB 06 1A 72 F1 40 7E 4C 68 0C !...&....r.@~Lh.
004050C0 A6 0B 25 01 00 BF B1 54 00 00 72 D2 2A FF 36 F0 ..%....T..r.*.6.
004050D0 7A BF D9 0E 7C 0A B0 39 9A 2A 1D 35 22 49 D2 C7 z...|..9.*.5"I..
004050E0 00 35 1C CB 5F 38 67 50 21 D2 5E AA A4 42 59 C4 .5.._8gP!.^..BY.
004050F0 05 F8 00 17 67 BD 0F 9F 16 8B 1A F4 25 FF 00 EA ....g.......%...
00405100 9A D2 90 B0 42 B9 4C 86 54 D8 37 53 A8 00 BD 00 ....B.L.T.7S....
00405110 EA E4 BA 18 00 75 38 64 64 05 00 F1 04 78 00 80 .....u8dd....x..
00405120 39 1F 00 42 69 00 02 00 C0 00 77 FF 86 0A 5C 03 9..Bi.....w...\.
00405130 99 AE 8B 1D 33 39 C6 3B 93 15 3F D2 C6 63 51 8A ....39.;..?..cQ.
00405140 CC 3A 2D 00 2A 04 9C 43 17 CA 20 D7 00 E3 00 AF .:-.*..C.. .....
00405150 BE 94 B8 F1 17 00 00 32 57 C8 00 69 8D FB 9A 35 .......2W..i...5
00405160 6A 3C 77 07 A4 F3 03 5C 51 5C 9A B1 6D 00 8E F1 j<w....\Q\..m...
00405170 A1 A3 11 FF 26 53 C4 DF 24 9D 24 05 69 F9 73 DE ....&S..$.$.i.s.
00405180 12 00 8E 05 14 7B C6 3F E6 13 00 E5 78 81 19 63 .....{.?....x..c
00405190 4B AD FF AB FB 1B 00 FD FF 27 10 86 61 74 86 5C K........'..at.\
004051A0 1B 00 7B A8 F1 B1 D4 00 12 CA C0 77 65 00 46 F2 ..{........we.F.
004051B0 EF 3B CF 93 F5 FE 9C 6D 0B 6D 30 52 90 97 B0 00 .;.....m.m0R....
004051C0 0A 62 7A 00 02 F7 45 88 9C 00 3C 00 FF C8 00 D9 .bz...E...<.....
004051D0 B7 8F FC 7D 00 52 B5 D0 99 D7 A7 2F D6 62 14 65 ...}.R...../.b.e
004051E0 0E 88 00 00 78 D1 FB 7E 26 7B 98 10 00 74 00 7B ....x..~&{...t.{
004051F0 B4 E1 81 5C 84 2E 69 27 81 72 90 0F DE 52 92 FF ...\..i'.r...R..
00405200 76 27 00 3B 0A 9C 11 F0 99 F9 00 FF 28 EF 24 00 v'.;........(.$.
00405210 18 FF 6F FB 00 00 00 CE 77 A0 A0 F5 43 12 98 75 ..o.....w...C..u
00405220 C0 16 FF 00 10 ED 00 47 DD 6A D6 56 46 C5 0C 92 .......G.j.VF...
00405230 00 03 D5 01 1C 1C 62 4D 38 4D 31 FF DF 29 62 00 ......bM8M1..)b.
00405240 EA DE D8 64 AE 00 5A 72 E7 A4 44 7F 9B 83 91 05 ...d..Zr..D.....
00405250 25 93 F0 AC 90 03 00 30 00 77 FF 51 91 7C 00 8D %......0.w.Q.|..
00405260 1D 12 5F D9 3A FF EE 4E 65 C4 00 E0 14 00 CA 55 .._.:..Ne......U
00405270 1A 12 D7 E9 06 FD 9B 3C 8E 3A C1 B7 34 00 3E 99 .......<.:..4.>.
00405280 00 9A 00 79 7B C1 CB 39 4A CD EF 7C F2 67 32 4F ...y{..9J..|.g2O
00405290 A3 73 E4 28 71 4F BC 15 6D A1 18 E3 9D F1 19 70 .s.(qO..m......p
004052A0 00 FF AD FA 1B 07 E4 65 5E F5 67 76 E5 D6 3E 22 .......e^.gv..>"
004052B0 99 5E 1A C5 C3 A5 C8 0B 62 E4 00 0B 51 6A C6 78 .^......b...Qj.x
004052C0 03 F8 19 2F FF 80 00 9B 23 C6 00 00 B1 6A B3 63 .../....#....j.c
004052D0 EC FC 42 07 30 1F DF C0 78 E6 46 00 00 81 96 96 ..B.0...x.F.....
004052E0 28 13 AF 15 6F 00 00 6C 0E FE 01 22 02 81 A4 A1 (...o..l..."....
004052F0 D7 40 CB 9C 57 67 7E 9B 03 22 B9 53 C5 D6 FE 59 .@..Wg~..".S...Y
00405300 00 E1 24 00 88 00 7A 00 0A 0F 01 44 7B 02 00 34 ..$...z....D{..4
00405310 B0 48 B8 BE FF 08 C3 29 00 74 27 B9 ED 00 94 4C .H.....).t'....L
00405320 77 09 67 00 B2 84 00 00 4D 99 00 80 C8 00 20 CE w.g.....M..... .
00405330 D2 00 00 3E 00 1E C7 DF FF 57 88 1B 6F C7 71 FF ...>.....W..o.q.
00405340 22 C1 8C 00 9F DF 6D 00 D4 78 C4 6C C3 93 B4 27 ".....m..x.l...'
00405350 00 BD E7 E6 6F 2B B7 C9 78 00 A5 FF C7 B6 74 00 ....o+..x.....t.
00405360 B5 F3 FC 00 DE 40 DC 2E CF 74 81 CF B3 FD FF B3 .....@...t......
00405370 60 52 0F 55 FF F3 C5 00 44 C9 7B 42 AF 15 5D FF `R.U....D.{B..].
00405380 FF FE 2A 00 2A 03 47 94 10 DB F8 3E 6C 0C 16 AE ..*.*.G....>l...
00405390 9C 87 00 F9 00 51 BC C5 14 E4 D2 11 D9 00 00 05 .....Q..........
004053A0 62 DC BD 68 B2 EF AF E0 5E A3 E0 70 D0 ED 47 BF b..h....^..p..G.
004053B0 10 8D C4 00 6B FC 29 8D E4 00 60 A4 9B 72 33 1F ....k.)...`..r3.
004053C0 14 0D 78 EA 1F C9 17 96 16 37 4D 00 00 82 9B 01 ..x......7M.....
004053D0 67 C1 2E 65 B0 0C 88 46 E6 60 00 4F FD C1 66 34 g..e...F.`.O..f4
004053E0 50 20 AE 4D 0D 2A 00 0D FB 7D CA C8 1F 81 92 EE P .M.*...}......
004053F0 35 26 D2 53 9F B8 00 45 F5 B1 00 00 00 00 1A 5C 5&.S...E.......\
00405400 5E 7F E8 CD F7 29 01 8C 00 3C 57 9E A8 30 00 00 ^....)...<W..0..
00405410 3F E2 6F 81 0C BB 7C 0A 26 A9 00 AD C8 00 BF BB ?.o...|.&.......
00405420 99 26 2D 1C 11 06 F2 A4 07 E1 A3 00 BF CB 3C 74 .&-...........<t
00405430 40 1A 00 00 7A 31 00 91 23 4A FD D1 38 C0 1D 0C @...z1..#J..8...
00405440 FD 00 71 63 51 DE 86 26 BF FC 00 00 09 42 E9 00 ..qcQ..&.....B..
00405450 EA 58 47 39 BE 0D DD C6 7D 00 FF D0 A8 6A 7A EF .XG9....}....jz.
00405460 27 00 8E 40 3E F9 E2 5A 76 12 DD DD 1B 78 FB 61 '..@>..Zv....x.a
00405470 86 69 56 44 8A 14 FC 02 00 06 00 83 3D 30 58 04 .iVD........=0X.
00405480 3A B6 06 E7 00 6B 36 E3 C0 CA 3D 00 E7 2E 64 BA :....k6...=...d.
00405490 47 09 38 95 D0 FB 65 E1 02 A4 00 5E 00 72 E4 68 G.8...e....^.r.h
004054A0 0C A5 A7 2D 65 00 FD 1C 46 CF F2 CC 00 82 FF BA ...-e...F.......
004054B0 B9 8D 00 7B 0F 00 03 E3 A0 49 10 46 00 5C A5 00 ...{.....I.F.\..
004054C0 2D 92 A8 6A 25 98 5E 11 44 20 05 FF 1B 21 8B A9 -..j%.^.D ...!..
004054D0 01 81 F2 C7 62 CF 1B E5 08 12 79 E8 0B EC A2 06 ....b.....y.....
004054E0 44 2B 80 18 38 EC DE B5 3D E3 32 FA 00 00 00 53 D+..8...=.2....S
004054F0 F5 00 23 EC 95 B7 72 6C FF 55 4D 54 00 AC 2E 7C ..#...rl.UMT...|
00405500 9B AE 2F FF 00 79 FF FF 4D 7B 69 0F 1E BC FD 7C ../..y..M{i....|
00405510 F8 28 03 22 0B 20 E5 00 05 30 FF 11 E9 FF 0F 52 .(.". ...0.....R
00405520 59 41 1C CA 22 E1 E8 31 C3 08 2C 70 FF 6F 00 FF YA.."..1..,p.o..
00405530 DF 3E 50 05 A6 82 E3 FF 76 7B 00 00 00 60 A1 00 .>P.....v{...`..
00405540 EE A5 EF EE 8F D1 E0 B8 39 00 00 BD DD 73 6E 7B ........9....sn{
00405550 00 00 00 EC 00 E9 9B FF 78 BC F6 34 FA 70 00 00 ........x..4.p..
00405560 00 F4 00 48 50 FD 6D 96 8B 32 F2 00 10 83 B2 94 ...HP.m..2......
00405570 B1 B5 EF 17 FF 90 00 00 D5 6A 87 EF 62 70 40 23 .........j..bp@#
00405580 ED 54 2F 85 0E 2C 1E 4C 39 FF 0C 7B 9C BA 94 33 .T/..,.L9..{...3
00405590 BD 94 49 FF D7 48 18 F2 82 E4 A5 E6 E7 82 A6 04 ..I..H..........
004055A0 57 10 02 92 2D FF 93 00 3B 92 4C 2F 02 77 B0 00 W...-...;.L/.w..
004055B0 E1 B8 00 7F 80 90 47 06 2A BD 00 3C F1 00 E3 F5 ......G.*..<....
004055C0 67 74 98 00 DA FE 96 00 12 00 8F 6E 22 CE 00 55 gt.........n"..U
004055D0 68 FF 00 58 CD C3 90 04 90 31 70 B2 20 42 1B AB h..X.....1p. B..
004055E0 BD 1F 37 F4 CF E5 28 9A 6A 04 A6 58 4C 3B 20 58 ..7...(.j..XL; X
004055F0 A7 3E FF FF 91 30 CD 40 9D 40 FF 79 00 E2 30 E8 .>...0.@.@.y..0.
00405600 F1 C5 D9 99 02 00 9C 97 42 50 41 B8 39 38 30 F4 ........BPA.980.
00405610 2E 1F 10 A2 94 86 73 0D EE B0 00 00 58 D7 00 84 ......s.....X...
00405620 FF 61 47 32 81 F4 BC FA 96 00 25 5B 79 01 40 27 .aG2......%[y.@'
00405630 F0 14 00 23 0D 4F 63 00 7A 35 1D 79 00 27 46 02 ...#.Oc.z5.y.'F.
00405640 0E 39 FC 04 3F 07 00 00 DC 0B 3E 69 0A 20 D1 17 .9..?.....>i. ..
00405650 C2 5B 0D DD 08 51 37 60 42 8D ED E1 FF 2B A4 A7 .[...Q7`B....+..
00405660 AE 00 15 FF FD 08 38 0C 99 BC FF 24 FF 00 7F 00 ......8....$....
00405670 70 7A 10 06 F3 AA D5 C1 E7 C9 00 F3 00 04 FB 06 pz..............
00405680 FF 2E 31 B0 4E C0 D1 E1 00 BE F3 E1 19 A7 FF C3 ..1.N...........
00405690 CC 63 76 B0 69 99 D8 30 BB 52 DF 0D 20 65 05 F4 .cv.i..0.R.. e..
004056A0 26 42 A3 57 1B 00 13 D0 BE 54 DB BB 90 DD 91 F2 &B.W.....T......
004056B0 2E A0 BF 24 60 FD 07 00 71 E1 C4 15 C0 07 CF F0 ...$`...q.......
004056C0 31 69 18 73 D1 03 62 00 0A 18 2D F3 A0 83 00 4A 1i.s..b...-....J
004056D0 0D 9C 08 DC 68 4B 06 73 FF 56 0C 94 8D 86 FB 1D ....hK.s.V......
004056E0 FF 5C 95 57 00 38 00 8D 3A C6 04 C7 00 B4 00 41 .\.W.8..:......A
004056F0 62 46 3F 01 20 02 72 D7 A1 FF 31 19 6E 6C 00 AA bF?. .r...1.nl..
00405700 D1 61 33 AB 26 DB 16 BD 50 FF 56 00 00 52 00 00 .a3.&...P.V..R..
00405710 24 13 87 08 86 00 B7 A6 B4 A3 ED 23 6F 4C 61 80 $..........#oLa.
00405720 00 0B 93 FF 02 EE 19 CB 3C A1 DD 00 B5 DD F9 30 ........<......0
00405730 E8 FF 96 D1 52 DC A4 B6 00 0D 56 CE 92 52 C5 59 ....R.....V..R.Y
00405740 CE 3A CF 50 23 FD 2F 00 29 99 01 8E 16 FF D6 2D .:.P#./.)......-
00405750 0B FF 31 00 C2 94 41 5E 14 00 8D 41 00 EE 00 71 ..1...A^...A...q
00405760 23 35 2D F9 A6 2D 2B D8 FF 1E F0 A3 25 E8 00 FF #5-..-+.....%...
00405770 C3 83 00 FF FD 13 78 20 90 3A 00 14 63 32 A0 03 ......x .:..c2..
00405780 7E 41 ED 61 11 5F FF 00 C5 00 C5 DC FF 00 CB 03 ~A.a._..........
00405790 6B DA 6B 57 16 C8 95 A7 AB 79 73 00 A5 05 39 D8 k.kW.....ys...9.
004057A0 59 D0 61 32 42 46 00 00 0A 96 76 04 E3 A8 E3 00 Y.a2BF....v.....
004057B0 44 EF E8 A7 4C 10 73 F2 B7 C3 A3 D3 24 17 00 FF D...L.s.....$...
004057C0 21 33 DD 35 15 E2 87 11 A4 78 FB 6F 00 00 27 68 !3.5.....x.o..'h
004057D0 C9 BC 00 10 B1 00 FF 22 F9 00 8E 00 A0 29 6A E8 .......".....)j.
004057E0 C7 C7 43 00 00 B0 51 FF A9 01 00 45 0B 0E EF B2 ..C...Q....E....
004057F0 D5 FE 87 00 74 6B 39 D6 2D F3 4E FF 78 E7 1D EE ....tk9.-.N.x...
00405800 00 5C 53 9E B9 36 49 AB 00 A9 FF 82 B1 96 00 20 .\S..6I........ 
00405810 10 95 E0 F8 E6 27 DF E7 05 5C 48 31 22 64 FF FF .....'...\H1"d..
00405820 34 30 C6 FC 94 51 35 54 99 9F 31 3E B9 A0 00 00 40...Q5T..1>....
00405830 7E 44 4D 4C A5 10 B1 D3 1F 7F 00 C6 08 86 DA 02 ~DML............
00405840 76 D2 0D 98 21 B8 00 9F CB B8 B0 F5 EB 66 E1 74 v...!........f.t
00405850 0A 68 14 7B FF 4F 48 37 2B ED 7A E9 72 00 84 60 .h.{.OH7+.z.r..`
00405860 11 84 9A C7 81 83 16 DF 99 12 AD D3 14 00 E0 04 ................
00405870 B8 E7 B0 5F FA 8F D8 30 45 5C 00 00 20 DA 00 00 ..._...0E\.. ...
00405880 96 FF 00 00 FF 04 1C FF 0F B7 FF FD FF 1B 00 00 ................
00405890 AB 94 7B FD 49 94 84 F7 D2 85 99 E7 98 CF 1C 56 ..{.I..........V
004058A0 1C E8 3F 32 61 2E FF 83 1D 13 45 16 5D 54 34 9C ..?2a.....E.]T4.
004058B0 28 79 F2 6D 00 D8 C4 B5 FA 52 FF D3 00 D4 AA 16 (y.m.....R......
004058C0 BE B8 32 D9 3F 00 9E 00 02 01 B7 87 00 9D 00 3E ..2.?..........>
004058D0 B1 38 04 D9 7B B8 95 51 2E 00 F8 00 8A 5E 00 C3 .8..{..Q.....^..
004058E0 DA F1 36 78 AA 09 31 DE 1C AF 89 7F 00 C7 E5 ED ..6x..1.........
004058F0 6A F2 00 2C 23 0F 1B 53 BD FF 3D 3A E4 A6 B9 40 j..,#..S..=:...@
00405900 1C 6B 00 61 40 00 5C 83 9B 96 08 00 D8 D2 89 E7 .k.a@.\.........
00405910 EB C2 00 00 C5 FF 9D 37 DA C8 C5 F8 06 BC 68 2E .......7......h.
00405920 27 14 00 3C D5 1E 62 7C AB 97 18 02 FF D2 D3 65 '..<..b|.......e
00405930 77 E2 6F 2E CC FF 5B 51 15 C8 FE 00 11 E4 47 00 w.o...[Q......G.
00405940 0E A3 2F C3 00 A6 F8 E9 59 05 C0 00 9D DA FE 13 ../.....Y.......
00405950 00 27 08 35 B0 65 1F 85 38 FF E8 21 52 9E FF 00 .'.5.e..8..!R...
00405960 FF 89 1A 1D 41 FF 14 D8 78 F6 F1 C9 F3 00 5C E9 ....A...x.....\.
00405970 7F AC 00 49 8F 90 45 1C B5 4B 50 00 8F 00 85 E8 ...I..E..KP.....
00405980 00 68 38 BA B2 00 02 57 FF 33 D8 8E C6 34 7D 00 .h8....W.3...4}.
00405990 1E CA 89 36 8C 66 C3 55 E8 C4 82 FF B7 41 03 9E ...6.f.U.....A..
004059A0 60 AB FF 03 C4 F4 68 00 6F 17 00 C4 DE 56 2A 79 `.....h.o....V*y
004059B0 84 93 1B 8E 80 BF 00 66 00 BD 7A 22 14 DF 78 99 .......f..z"..x.
004059C0 24 E2 00 6A 28 1B CD 31 58 08 35 20 00 00 84 FB $..j(..1X.5 ....
004059D0 08 87 41 37 FF 09 54 E6 7D 1C FB E5 45 D9 41 8E ..A7..T.}...E.A.
004059E0 C9 8A 32 25 9B 18 13 C1 38 20 88 EE 08 B9 82 D8 ..2%....8 ......
004059F0 FF 83 28 2C 48 00 7A FD 76 00 FD FF DF D0 FF E0 ..(,H.z.v.......
00405A00 AB 21 DB 6A E1 1A 00 F3 36 FC 00 DC 00 00 87 43 .!.j....6......C
00405A10 D5 38 ED C4 95 71 FD EE 37 EA CC 46 11 98 2C 99 .8...q..7..F..,.
00405A20 B3 FF A2 00 40 22 7B D3 FF 14 AA 60 26 29 0C 65 ....@"{....`&).e
00405A30 3E 03 4F CC D5 9D 71 C5 81 0A 00 38 00 7F 8E C2 >.O...q....8....
00405A40 5C E7 6C 00 01 63 00 05 00 F9 50 D3 60 0C 12 DA \.l..c....P.`...
00405A50 6D 00 6F E5 CA 00 41 80 00 FC 7C 36 77 2F C0 00 m.o...A...|6w/..
00405A60 37 FF 3A CF 13 25 76 7A CD FE BA 00 56 CF A5 B8 7.:..%vz....V...
00405A70 A1 E9 54 96 BC FD FF 00 40 00 00 DE BF 1E 9C 22 ..T.....@......"
00405A80 DE 5D 9B ED 1F 89 2E A0 7D 25 99 C5 79 F0 8E D4 .]......}%..y...
00405A90 0F 60 F3 D5 A2 41 A7 B3 78 3A 53 2C 80 DC C4 00 .`...A..x:S,....
00405AA0 48 FD 29 B1 65 8A D8 FE B6 EC B1 BC 9B 22 FF 8A H.).e........"..
00405AB0 3E 26 00 B4 CE 20 22 00 00 02 73 19 5C 19 F7 EA >&... "...s.\...
00405AC0 CB 00 86 00 74 00 00 36 02 60 BE 76 6E B5 1A EE ....t..6.`.vn...
00405AD0 1E 46 50 BB A0 67 9D 8A 4A 0F C1 69 00 C4 72 F2 .FP..g..J..i..r.
00405AE0 EE 45 43 63 00 19 00 78 3A 30 00 6D D2 5E 69 36 .ECc...x:0.m.^i6
00405AF0 3D E0 3A C4 97 F0 75 25 F8 9B 44 29 C1 FF 2B 94 =.:...u%..D)..+.
00405B00 45 CD 94 DD D3 F1 02 4C C1 B9 CA 30 20 6D 3C 10 E......L...0 m<.
00405B10 61 1F C4 EA F0 E3 00 10 19 25 00 EA 35 66 A2 D8 a........%..5f..
00405B20 00 47 31 00 8C 96 DC 28 16 3C B4 F0 00 23 92 BD .G1....(.<...#..
00405B30 00 00 86 08 00 03 99 4E 1A 6E FF 00 39 00 D5 7B .......N.n..9..{
00405B40 5E 01 B5 32 4C F2 00 FF 98 52 DF C9 E7 00 A1 D9 ^..2L....R......
00405B50 3F 00 00 50 21 C8 E8 61 F7 7C EB EA 16 40 E6 7B ?..P!..a.|...@.{
00405B60 04 44 00 1F 01 EC E8 3F F9 1C 4C 20 F3 F0 70 84 .D.....?..L ..p.
00405B70 DC 9F 00 FF FF F1 00 1C 57 73 5A 5F 0D D8 BD 00 ........WsZ_....
00405B80 02 00 42 04 F1 AE F7 CA 04 BE 25 3A 3E 00 20 EF ..B.......%:>. .
00405B90 75 ED 00 3C 3C B4 D2 88 E8 00 85 9C 00 89 8D 08 u..<<...........
00405BA0 FF F4 34 A5 09 3C F1 19 9D D7 FF A9 00 FF 22 D7 ..4..<........".
00405BB0 15 FC B2 47 40 7D 87 B6 E1 B0 C5 00 D0 68 DF 23 ...G@}.......h.#
00405BC0 79 5C EC B9 47 77 99 F4 B3 FA FA E9 00 53 5B 57 y\..Gw.......S[W
00405BD0 7E 17 BE CC 75 D1 00 FF 2A 1F E6 F1 9F BB 61 4C ~...u...*.....aL
00405BE0 DE 4E C3 50 95 10 00 6B CE C8 48 CE 08 A3 39 11 .N.P...k..H...9.
00405BF0 FF FB 00 8C 00 26 D8 00 FF 00 16 A4 E8 00 FF 00 .....&..........
00405C00 00 6D C5 FF 1C 3C F6 98 0B 80 C1 00 9C 7D 3B 62 .m...<.......};b
00405C10 78 BD E4 87 58 41 B6 C7 99 3E 00 D3 64 EF F3 9F x...XA...>..d...
00405C20 46 CA 00 AB 32 3E 00 C7 12 9E 80 30 F7 1C 00 EC F...2>.....0....
00405C30 00 A9 91 5C 99 A9 40 00 FF 00 7C 04 BE 8D 13 C7 ...\..@...|.....
00405C40 67 C0 F7 00 E0 30 25 FF 2A 00 43 B0 00 2D 00 00 g....0%.*.C..-..
00405C50 6C 00 0D 6F FF 53 28 06 AE F4 00 4B FF 29 96 1F l..o.S(....K.)..
00405C60 9C 43 10 EE 20 43 22 A7 62 78 14 27 B2 8B 20 6F .C.. C".bx.'.. o
00405C70 20 C7 99 DF 00 F0 EF A5 5A 97 C0 86 42 00 00 38  .......Z...B..8
00405C80 49 24 6B 67 E2 B7 43 EF E4 8D 16 44 E1 93 2C 1B I$kg..C....D..,.
00405C90 00 F5 54 42 63 F4 75 06 A4 D8 B5 E3 7A E5 CF AE ..TBc.u.....z...
00405CA0 81 00 86 A3 98 18 08 46 E1 7F 9E 4B 06 8C CC DD .......F...K....
00405CB0 BE 32 6E 02 00 12 57 17 00 84 00 E3 00 9F DC 2F .2n...W......../
00405CC0 C1 D1 00 66 00 E1 7D EC FF 7C 60 02 03 43 53 B1 ...f..}..|`..CS.
00405CD0 DA D1 00 39 00 FF 32 00 BF 4E EF F6 8D C3 05 21 ...9..2..N.....!
00405CE0 AB 03 12 F8 19 5D 00 07 00 DA 30 A4 48 C6 9A FF .....]....0.H...
00405CF0 BC C2 BF 3A 98 00 6D BC 50 FF 33 FF 5A D8 1D E3 ...:..m.P.3.Z...
00405D00 00 3C 98 FF 7A 5A 65 E0 00 36 ED 88 D4 20 20 64 .<..zZe..6...  d
00405D10 91 FF 7E 00 33 00 97 00 24 79 F8 E2 48 D0 5C FF ..~.3...$y..H.\.
00405D20 FC 41 B4 15 00 70 9D FF 00 14 41 2C 56 CF 7C 72 .A...p....A,V.|r
00405D30 00 64 17 70 14 FF EF 06 1C 0F 9B 00 70 61 4F B7 .d.p........paO.
00405D40 00 48 FC F3 03 0A 28 00 F7 00 FF BF 02 6E FE FB .H....(......n..
00405D50 88 04 3A FF FF 36 24 26 6E 35 0C 00 00 1D FB 57 ..:..6$&n5.....W
00405D60 DF 00 46 40 E6 E7 FF 8F 69 39 36 00 F9 40 1B 20 ..F@....i96..@. 
00405D70 F8 DF 3E 62 00 1E 26 00 77 36 1F CF 27 38 FA F9 ..>b..&.w6..'8..
00405D80 93 9A FF D6 00 FF 7C C5 58 27 FF 17 B0 37 E2 1A ......|.X'...7..
00405D90 00 27 71 98 88 80 12 BD 78 7B 07 FB 37 00 74 00 .'q.....x{..7.t.
00405DA0 00 D6 6C 00 16 CD 03 99 BF 11 A6 E0 AF C1 8D 15 ..l.............
00405DB0 DD 79 E9 EF 9A AD 3C 21 00 00 EC FF 27 8E 66 C1 .y....<!....'.f.
00405DC0 F7 DE 00 05 00 00 BE 00 0B 00 FF A5 63 23 E7 10 ............c#..
00405DD0 42 5A 30 2C 58 D5 3D 90 6F 6C DF FA 00 E3 C8 00 BZ0,X.=.ol......
00405DE0 82 C0 FF 05 19 85 00 08 62 8A 67 2F 28 54 F3 B0 ........b.g/(T..
00405DF0 1F 2A FD B0 84 90 B8 A1 22 00 B9 31 00 FA 36 A9 .*......"..1..6.
00405E00 A3 78 00 50 00 00 A5 47 89 0E DF 9C 67 A9 23 43 .x.P...G....g.#C
00405E10 00 3B 28 98 C7 55 3E 48 00 FF 73 00 00 A4 C0 7C .;(..U>H..s....|
00405E20 00 0D 99 26 E6 70 AA 0B 6E BE 74 57 1B 1C 7C 51 ...&.p..n.tW..|Q
00405E30 BA 4B 34 D9 C1 3D 63 5F 00 16 3C 03 3C FF F6 28 .K4..=c_..<.<..(
00405E40 83 C4 FF 9C 12 00 BE 79 00 A6 70 05 C7 59 04 CF .......y..p..Y..
00405E50 83 00 E2 E2 BB B1 10 7E E6 00 DF D1 FF 2C AF 08 .......~.....,..
00405E60 7A DD 00 00 C9 95 C9 01 00 D8 A5 26 00 76 27 74 z..........&.v't
00405E70 D4 30 37 26 9B D9 1F 82 93 20 FB AF 25 E5 4B CD .07&..... ..%.K.
00405E80 93 82 F7 50 90 A6 DE 85 00 0C FF 10 35 00 12 45 ...P........5..E
00405E90 00 31 A3 00 B6 8D FF 01 FE 6A 41 00 C9 0F 77 C3 .1.......jA...w.
00405EA0 AD 7F 80 CD E2 00 50 B9 7A 1A 8A 9E 14 7F 42 CB ......P.z.....B.
00405EB0 02 3A 4F 00 38 83 0F 88 00 8F 00 E3 27 C3 77 26 .:O.8.......'.w&
00405EC0 32 69 FA 00 00 A2 D1 CC 5A 16 F1 87 BF 64 1B E4 2i......Z....d..
00405ED0 F7 38 1E C9 00 FD 00 00 1D 44 1A 35 91 16 1D A7 .8.......D.5....
00405EE0 C0 93 2C 37 06 81 00 7D 37 FE AE 20 00 97 1F C8 ..,7...}7.. ....
00405EF0 D9 68 30 1F F0 00 17 1A 0F 85 7C 31 F7 33 A3 46 .h0.......|1.3.F
00405F00 9D 78 7D 5F E2 FF A2 D2 B6 0C B6 28 DE 77 35 23 .x}_.......(.w5#
00405F10 88 F9 53 32 73 91 00 2D F6 8F 19 00 83 E5 2D C0 ..S2s..-......-.
00405F20 75 83 6F 4D 45 A0 72 F8 A0 15 E0 F6 80 44 00 00 u.oME.r......D..
00405F30 06 0B 90 C1 03 00 E3 3C 3E 00 CD 00 14 62 F5 73 .......<>....b.s
00405F40 C3 83 00 6F FF C5 B6 00 71 6D 20 57 E6 FF 00 28 ...o....qm W...(
00405F50 2F F5 5A D1 00 31 E2 44 10 FE 29 BF 90 FF 8A 33 /.Z..1.D..)....3
00405F60 34 3C 14 68 06 04 00 74 F5 F5 A6 CE 82 EF 3D 18 4<.h...t......=.
00405F70 70 45 00 FF 18 2A FE 23 32 60 FF 00 AA 94 21 AA pE...*.#2`....!.
00405F80 4C F1 AC 4C A8 00 1C FB FF 5F C7 F0 26 AF 9C 1C L..L....._..&...
00405F90 0A 0D D0 00 6B 6F 38 22 CA 09 00 00 40 00 98 3E ....ko8"....@..>
00405FA0 C3 E1 00 3B B1 6F 1F E4 B7 7D 1E 0F 09 E9 0F 3B ...;.o...}.....;
00405FB0 67 75 C0 D9 08 00 51 05 63 FF 00 CD A6 00 02 FB gu....Q.c.......
00405FC0 E7 00 20 7C C7 E0 BD 22 00 50 CC 00 39 2C 66 FF .. |...".P..9,f.
00405FD0 0A E1 38 E4 1B 0D FF FF 4E A3 36 63 06 96 81 81 ..8.....N.6c....
00405FE0 C8 97 A7 5A 8C B8 71 72 FB 4E CF 2C 82 36 F6 FF ...Z..qr.N.,.6..
00405FF0 32 0E 61 00 15 88 EA 58 C3 43 92 29 1F 99 00 AA 2.a....X.C.)....
00406000 48 03 00 BF 3A 10 67 4F 00 00 17 38 2F 25 5C 1E H...:.gO...8/%\.
00406010 3C 80 78 03 71 7F E0 89 C7 1D 7C CD 44 F0 84 5A <.x.q.....|.D..Z
00406020 A5 00 CB EF 09 00 3A 00 0F 1B D5 00 FD F8 61 8B ......:.......a.
00406030 00 00 DE 8F B5 19 F5 56 0C E1 2C 00 00 43 88 9E .......V..,..C..
00406040 C9 6F 00 9D BB 40 BE 24 AB 16 30 00 D0 C0 6A 70 .o...@.$..0...jp
00406050 06 10 4A FF 67 44 C5 F0 BF ED 00 DD 38 9F 70 BD ..J.gD......8.p.
00406060 B3 FF B3 CD F2 21 00 96 53 00 00 12 7E FF 53 2F .....!..S...~.S/
00406070 4E B0 82 9D 05 DF 11 16 72 2A 92 08 FF 41 31 FC N.......r*...A1.
00406080 67 70 D2 0A 00 D0 B1 8B 18 00 DA 61 00 E6 B4 87 gp.........a....
00406090 D9 FF C6 42 B3 06 33 C0 C9 6C 03 FF 56 96 1E 00 ...B..3..l..V...
004060A0 87 B8 91 04 00 00 00 A4 10 77 00 29 1C B7 A7 38 .........w.)...8
004060B0 4F 14 40 CE 18 88 DC 00 AD 34 80 FF DF 3C 8B 2E O.@......4...<..
004060C0 34 45 85 87 EB C5 8E DB 00 14 BA 70 A2 0B 4E FF 4E.........p..N.
004060D0 00 A3 D0 8D FF 0C C0 AF 24 FF DB 3B B2 E2 4B 00 ........$..;..K.
004060E0 60 D8 EF 83 AB E4 E8 30 EC 43 8B 7A B8 10 DD BC `......0.C.z....
004060F0 70 00 00 58 CF FF 00 00 87 DC 76 50 9E 00 33 5C p..X......vP..3\
00406100 5C F6 1E 98 F9 77 37 53 94 D0 C5 00 00 00 D9 16 \....w7S........
00406110 FF C0 9D FF C6 00 DE 26 A7 7E 87 0E 46 1D 1C 4E .......&.~..F..N
00406120 00 FC 1C 00 4F C3 E9 C6 DF D5 3B 5B 14 44 E3 57 ....O.....;[.D.W
00406130 15 00 18 A5 F9 8A 4E DF 4F D9 00 2F 04 9F 89 7B ......N.O../...{
00406140 DE 72 3C DF 8D E1 86 01 BD F2 51 11 59 70 00 24 .r<.......Q.Yp.$
00406150 5D 00 00 47 2F 8E 40 16 16 FF 2C FF FC FE EA CD ]..G/.@...,.....
00406160 1D 03 18 00 8C B3 07 2F C8 37 D4 00 C3 DA 26 00 ......./.7....&.
00406170 E7 FF 76 70 08 56 FF EF 00 A4 4F 62 4A 4A 40 61 ..vp.V....ObJJ@a
00406180 B8 00 BC 15 5A 07 83 A6 75 E8 7B F3 02 E7 00 00 ....Z...u.{.....
00406190 C8 05 8E 39 5D 42 7F C1 00 69 6B E7 42 42 F6 57 ...9]B...ik.BB.W
004061A0 BD 20 86 65 F0 38 5D 5D 39 3E 00 64 00 F2 99 00 . .e.8]]9>.d....
004061B0 23 22 8F C0 00 32 23 47 6C 25 71 CF 83 44 12 B9 #"...2#Gl%q..D..
004061C0 60 91 DB E1 1E F3 00 82 2E 66 00 B7 00 6C 24 B7 `........f...l$.
004061D0 BC FD 2C FD 24 16 BC 75 27 00 40 1D 24 61 4A 95 ..,.$..u'.@.$aJ.
004061E0 33 00 03 DE CB 91 63 EC 00 17 85 00 00 BE 53 FF 3.....c.......S.
004061F0 F7 80 63 72 B5 C5 76 00 44 30 00 2A 84 25 3B 08 ..cr..v.D0.*.%;.
00406200 E7 01 F5 61 08 68 15 B1 BD 27 94 FD 07 00 8F A8 ...a.h...'......
00406210 E2 11 F7 00 DC 92 85 C2 00 00 98 E7 79 3D 9F FE ............y=..
00406220 26 F5 84 07 1B 72 C5 0A EE FB 13 1C AE 6D 00 00 &....r.......m..
00406230 FF 04 00 80 D7 9E F8 ED 00 78 00 22 00 0A F4 2B .........x."...+
00406240 FF 00 3F 00 26 00 6C 3E E3 91 36 41 02 CB A7 00 ..?.&.l>..6A....
00406250 12 81 25 93 C0 6E 93 6D 60 BA A3 00 FF BB F7 B8 ..%..n.m`.......
00406260 41 89 DF 34 00 E4 3D 3F D3 08 B3 8A 09 37 7F 89 A..4..=?.....7..
00406270 33 D0 54 53 FA 45 E9 38 59 F1 78 B8 10 03 DF D7 3.TS.E.8Y.x.....
00406280 30 DE 98 70 C1 0A 54 3C 23 B9 2D 00 08 C9 84 00 0..p..T<#.-.....
00406290 96 0D A5 01 0C 2B 1A 4D CB 0E 59 00 59 3F 46 EE .....+.M..Y.Y?F.
004062A0 0B F6 00 E0 9B 00 00 F3 80 4F A1 49 4C E3 50 A0 .........O.IL.P.
004062B0 37 00 00 FF 4F 00 1B 8B C7 00 00 BF 0C 40 87 7D 7...O........@.}
004062C0 8B B5 3B 23 00 80 FF 2E 01 A2 14 F9 47 90 B7 BD ..;#........G...
004062D0 63 D6 FB ED 9E F3 00 17 60 4C 66 00 0A E6 A0 C1 c.......`Lf.....
004062E0 9D 00 67 00 A0 1F 80 FF FF 4C 00 A1 25 18 FC 30 ..g......L..%..0
004062F0 BC D1 FF 77 FF 3B E0 25 E3 FB 90 95 03 00 12 D2 ...w.;.%........
00406300 3E EC 49 C8 00 E9 D4 E7 3E 2C 44 C7 77 80 DF 72 >.I.....>,D.w..r
00406310 A1 00 1F 03 D8 ED 20 04 EA 91 FF 3B 26 84 00 A9 ...... ....;&...
00406320 1A AF 00 54 A2 EA 16 00 5B 5A 38 61 25 00 A5 A4 ...T....[Z8a%...
00406330 48 08 FB 14 7F A1 04 DB FC C4 00 00 95 68 B7 AF H............h..
00406340 00 00 F4 0D 0A D5 93 00 D5 80 58 00 5E 9E 04 FF ..........X.^...
00406350 51 05 E5 FB 38 9B 58 9A C5 00 D9 F7 39 7F 60 5B Q...8.X.....9.`[
00406360 99 C1 90 FC 7D FB 52 7A 38 21 74 E6 2F C9 50 20 ....}.Rz8!t./.P 
00406370 A5 5C FD 98 1C AC 21 00 08 F9 CC 00 43 8D 2B 26 .\....!.....C.+&
00406380 35 28 52 FF 00 C1 01 A4 C9 0F 3E 00 00 1B 94 0E 5(R.......>.....
00406390 00 68 00 00 67 66 1B F6 55 00 D5 66 00 74 05 F4 .h..gf..U..f.t..
004063A0 00 16 04 0F 59 FF F0 D4 0F 00 52 E0 B9 00 AB 27 ....Y.....R....'
004063B0 80 A1 93 14 68 3E B7 FF 0A 00 EB E8 FF 8B A3 7C ....h>.........|
004063C0 35 6B 00 00 00 C1 18 C3 BB 00 BD 00 00 FF CD 7A 5k.............z
004063D0 00 00 05 00 00 9A 33 11 07 D0 A8 22 74 1E 86 C2 ......3...."t...
004063E0 FF 22 95 7A 9C 14 58 E8 BD 31 61 FB 2D 00 20 B1 .".z..X..1a.-. .
004063F0 00 D4 FB 00 3C 93 00 32 76 22 00 DC 1E 99 C7 82 ....<..2v"......
00406400 DE C3 AC 00 A6 2B AC 37 4C 28 B0 71 FB 00 00 17 .....+.7L(.q....
00406410 00 00 2B 00 A8 DF A9 07 D7 0D E2 9D D2 03 59 36 ..+...........Y6
00406420 14 00 C8 1C 0B 1C FF FF 31 DF 44 A7 B8 C9 04 99 ........1.D.....
00406430 DF A1 01 0E 00 B1 FC CC 43 00 BE 6A 39 00 2C 00 ........C..j9.,.
00406440 FD 72 4A F6 76 00 0D D3 78 4F C0 1F FA 1B 9A 90 .rJ.v...xO......
00406450 00 1C CC 82 D7 00 79 26 00 9E 60 C2 14 4A 03 44 ......y&..`..J.D
00406460 E0 19 79 1F B4 00 C8 80 43 99 FF E9 00 05 32 E3 ..y.....C.....2.
00406470 06 A6 95 5B 33 B4 AD 96 28 E6 E0 E7 78 A4 9F 3C ...[3...(...x..<
00406480 AF E0 81 DF 40 2F 56 00 00 EF 9F EA 64 43 99 C3 ....@/V.....dC..
00406490 33 50 4C FF 10 81 F7 00 CF C6 7B FF 64 51 BE 2C 3PL.......{.dQ.,
004064A0 00 21 32 59 00 74 8E D3 CE 96 49 4E 01 70 FF 00 .!2Y.t....IN.p..
004064B0 92 21 9B 1A 10 E7 D5 F0 E8 E5 00 F0 1F CF C1 B9 .!..............
004064C0 4B 2A DA 00 EC 0B F7 F3 42 9C 04 3C C4 8F 01 22 K*......B..<..."
004064D0 23 22 1E 00 EE 08 B8 15 96 7B 78 FF 00 8A 5A 02 #".......{x...Z.
004064E0 00 CA 00 FF 49 A0 E7 6A A8 70 0B 2D FF 25 C6 D8 ....I..j.p.-.%..
004064F0 37 4E 31 00 27 F8 9F FF 34 26 00 8D 93 00 C9 07 7N1.'...4&......
00406500 54 77 04 00 CB BB 08 FF 49 09 D3 BD 37 1C B6 65 Tw......I...7..e
00406510 9A 8A 32 A1 00 00 31 36 33 00 00 6A D2 11 00 E1 ..2...163..j....
00406520 C2 35 58 AB 11 80 12 5C BC 00 00 3B 69 0E 00 8A .5X....\...;i...
00406530 C1 F1 00 60 2E 89 6C 00 00 97 F1 F5 00 52 8B FF ...`..l......R..
00406540 6C 00 24 8A 57 9B 59 E8 B3 C6 13 4B 46 FF 1D 82 l.$.W.Y....KF...
00406550 E4 24 00 4C 8A DF 00 50 19 34 00 3B 3C 85 B7 49 .$.L...P.4.;<..I
00406560 75 00 9D 96 3A 7F FE 89 72 D5 CB 3C 00 04 1D C0 u...:...r..<....
00406570 7D 4E 7B E2 70 00 F9 6C 00 B3 D0 3E E7 55 A9 86 }N{.p..l...>.U..
00406580 6E F6 9B FF C7 22 54 AF FD A9 00 7C DC E9 AB CC n...."T....|....
00406590 57 C5 21 C4 C4 FD 88 32 DE 0C 3D 13 00 76 05 00 W.!....2..=..v..
004065A0 C4 61 79 A4 49 91 24 69 FD A5 EF CD E9 98 2C AB .ay.I.$i......,.
004065B0 94 3D B7 8F 00 1F C2 00 A1 10 00 00 89 FB 09 1D .=..............
004065C0 18 AB 66 1E E0 09 81 F5 E0 80 01 00 8E 00 0A 89 ..f.............
004065D0 F9 71 81 D4 70 ED A4 82 2B 35 00 00 2F 0A 6C 6A .q..p...+5../.lj
004065E0 1F 60 13 00 A3 60 00 7C 00 5C 8D DB 00 00 00 38 .`...`.|.\.....8
004065F0 60 8B 68 E2 41 3A 1C 00 CA 15 60 EB B7 0E 61 BB `.h.A:....`...a.
00406600 00 00 00 00 00 00 00 00 00 00 00 00 00 00 00 00 ................
00406610 00 00 00 00 00 00 00 00 00 00 00 00 00 00 00 00 ................
00406620 00 00 00 00 00 00 00 00 00 00 00 00 00 00 00 00 ................
00406630 00 00 00 00 00 00 00 00 00 00 00 00 00 00 00 00 ................
00406640 00 00 00 00 00 00 00 00 00 00 00 00 00 00 00 00 ................
00406650 00 00 00 00 00 00 00 00 00 00 00 00 00 00 00 00 ................
00406660 00 00 00 00 00 00 00 00 00 00 00 00 00 00 00 00 ................
00406670 00 00 00 00 00 00 00 00 00 00 00 00 00 00 00 00 ................
00406680 00 00 00 00 00 00 00 00 00 00 00 00 00 00 00 00 ................
00406690 00 00 00 00 00 00 00 00 00 00 00 00 00 00 00 00 ................
004066A0 00 00 00 00 00 00 00 00 00 00 00 00 00 00 00 00 ................
004066B0 00 00 00 00 00 00 00 00 00 00 00 00 00 00 00 00 ................
004066C0 00 00 00 00 00 00 00 00 00 00 00 00 00 00 00 00 ................
004066D0 00 00 00 00 00 00 00 00 00 00 00 00 00 00 00 00 ................
004066E0 00 00 00 00 00 00 00 00 00 00 00 00 00 00 00 00 ................
004066F0 00 00 00 00 00 00 00 00 00 00 00 00 00 00 00 00 ................
00406700 00 00 00 00 00 00 00 00 00 00 00 00 00 00 00 00 ................
00406710 00 00 00 00 00 00 00 00 00 00 00 00 00 00 00 00 ................
00406720 00 00 00 00 00 00 00 00 00 00 00 00 00 00 00 00 ................
00406730 00 00 00 00 00 00 00 00 00 00 00 00 00 00 00 00 ................
00406740 00 00 00 00 00 00 00 00 00 00 00 00 00 00 00 00 ................
00406750 00 00 00 00 00 00 00 00 00 00 00 00 00 00 00 00 ................
00406760 00 00 00 00 00 00 00 00 00 00 00 00 00 00 00 00 ................
00406770 00 00 00 00 00 00 00 00 00 00 00 00 00 00 00 00 ................
00406780 00 00 00 00 00 00 00 00 00 00 00 00 00 00 00 00 ................
00406790 00 00 00 00 00 00 00 00 00 00 00 00 00 00 00 00 ................
004067A0 00 00 00 00 00 00 00 00 00 00 00 00 00 00 00 00 ................
004067B0 00 00 00 00 00 00 00 00 00 00 00 00 00 00 00 00 ................
004067C0 00 00 00 00 00 00 00 00 00 00 00 00 00 00 00 00 ................
004067D0 00 00 00 00 00 00 00 00 00 00 00 00 00 00 00 00 ................
004067E0 00 00 00 00 00 00 00 00 00 00 00 00 00 00 00 00 ................
004067F0 00 00 00 00 00 00 00 00 00 00 00 00 00 00 00 00 ................
00406800 00 00 00 00 00 00 00 00 00 00 00 00 00 00 00 00 ................
00406810 00 00 00 00 00 00 00 00 00 00 00 00 00 00 00 00 ................
00406820 00 00 00 00 00 00 00 00 00 00 00 00 00 00 00 00 ................
00406830 00 00 00 00 00 00 00 00 00 00 00 00 00 00 00 00 ................
00406840 00 00 00 00 00 00 00 00 00 00 00 00 00 00 00 00 ................
00406850 00 00 00 00 00 00 00 00 00 00 00 00 00 00 00 00 ................
00406860 00 00 00 00 00 00 00 00 00 00 00 00 00 00 00 00 ................
00406870 00 00 00 00 00 00 00 00 00 00 00 00 00 00 00 00 ................
00406880 00 00 00 00 00 00 00 00 00 00 00 00 00 00 00 00 ................
00406890 00 00 00 00 00 00 00 00 00 00 00 00 00 00 00 00 ................
004068A0 00 00 00 00 00 00 00 00 00 00 00 00 00 00 00 00 ................
004068B0 00 00 00 00 00 00 00 00 00 00 00 00 00 00 00 00 ................
004068C0 00 00 00 00 00 00 00 00 00 00 00 00 00 00 00 00 ................
004068D0 00 00 00 00 00 00 00 00 00 00 00 00 00 00 00 00 ................
004068E0 00 00 00 00 00 00 00 00 00 00 00 00 00 00 00 00 ................
004068F0 00 00 00 00 00 00 00 00 00 00 00 00 00 00 00 00 ................
00406900 00 00 00 00 00 00 00 00 00 00 00 00 00 00 00 00 ................
00406910 00 00 00 00 00 00 00 00 00 00 00 00 00 00 00 00 ................
00406920 00 00 00 00 00 00 00 00 00 00 00 00 00 00 00 00 ................
00406930 00 00 00 00 00 00 00 00 00 00 00 00 00 00 00 00 ................
00406940 00 00 00 00 00 00 00 00 00 00 00 00 00 00 00 00 ................
00406950 00 00 00 00 00 00 00 00 00 00 00 00 00 00 00 00 ................
00406960 00 00 00 00 00 00 00 00 00 00 00 00 00 00 00 00 ................
00406970 00 00 00 00 00 00 00 00 00 00 00 00 00 00 00 00 ................
00406980 00 00 00 00 00 00 00 00 00 00 00 00 00 00 00 00 ................
00406990 00 00 00 00 00 00 00 00 00 00 00 00 00 00 00 00 ................
004069A0 00 00 00 00 00 00 00 00 00 00 00 00 00 00 00 00 ................
004069B0 00 00 00 00 00 00 00 00 00 00 00 00 00 00 00 00 ................
004069C0 00 00 00 00 00 00 00 00 00 00 00 00 00 00 00 00 ................
004069D0 00 00 00 00 00 00 00 00 00 00 00 00 00 00 00 00 ................
004069E0 00 00 00 00 00 00 00 00 00 00 00 00 00 00 00 00 ................
004069F0 00 00 00 00 00 00 00 00 00 00 00 00 00 00 00 00 ................
00406A00 00 00 00 00 00 00 00 00 00 00 00 00 00 00 00 00 ................
00406A10 00 00 00 00 00 00 00 00 00 00 00 00 00 00 00 00 ................
00406A20 00 00 00 00 00 00 00 00 00 00 00 00 00 00 00 00 ................
00406A30 00 00 00 00 00 00 00 00 00 00 00 00 00 00 00 00 ................
00406A40 00 00 00 00 00 00 00 00 00 00 00 00 00 00 00 00 ................
00406A50 00 00 00 00 00 00 00 00 00 00 00 00 00 00 00 00 ................
00406A60 00 00 00 00 00 00 00 00 00 00 00 00 00 00 00 00 ................
00406A70 00 00 00 00 00 00 00 00 00 00 00 00 00 00 00 00 ................
00406A80 00 00 00 00 00 00 00 00 00 00 00 00 00 00 00 00 ................
00406A90 00 00 00 00 00 00 00 00 00 00 00 00 00 00 00 00 ................
00406AA0 00 00 00 00 00 00 00 00 00 00 00 00 00 00 00 00 ................
00406AB0 00 00 00 00 00 00 00 00 00 00 00 00 00 00 00 00 ................
00406AC0 00 00 00 00 00 00 00 00 00 00 00 00 00 00 00 00 ................
00406AD0 00 00 00 00 00 00 00 00 00 00 00 00 00 00 00 00 ................
00406AE0 00 00 00 00 00 00 00 00 00 00 00 00 00 00 00 00 ................
00406AF0 00 00 00 00 00 00 00 00 00 00 00 00 00 00 00 00 ................
00406B00 00 00 00 00 00 00 00 00 00 00 00 00 00 00 00 00 ................
00406B10 00 00 00 00 00 00 00 00 00 00 00 00 00 00 00 00 ................
00406B20 00 00 00 00 00 00 00 00 00 00 00 00 00 00 00 00 ................
00406B30 00 00 00 00 00 00 00 00 00 00 00 00 00 00 00 00 ................
00406B40 00 00 00 00 00 00 00 00 00 00 00 00 00 00 00 00 ................
00406B50 00 00 00 00 00 00 00 00 00 00 00 00 00 00 00 00 ................
00406B60 00 00 00 00 00 00 00 00 00 00 00 00 00 00 00 00 ................
00406B70 00 00 00 00 00 00 00 00 00 00 00 00 00 00 00 00 ................
00406B80 00 00 00 00 00 00 00 00 00 00 00 00 00 00 00 00 ................
00406B90 00 00 00 00 00 00 00 00 00 00 00 00 00 00 00 00 ................
00406BA0 00 00 00 00 00 00 00 00 00 00 00 00 00 00 00 00 ................
00406BB0 00 00 00 00 00 00 00 00 00 00 00 00 00 00 00 00 ................
00406BC0 00 00 00 00 00 00 00 00 00 00 00 00 00 00 00 00 ................
00406BD0 00 00 00 00 00 00 00 00 00 00 00 00 00 00 00 00 ................
00406BE0 00 00 00 00 00 00 00 00 00 00 00 00 00 00 00 00 ................
00406BF0 00 00 00 00 00 00 00 00 00 00 00 00 00 00 00 00 ................
00406C00 00 00 00 00 00 00 00 00 00 00 00 00 00 00 00 00 ................
00406C10 00 00 00 00 00 00 00 00 00 00 00 00 00 00 00 00 ................
00406C20 00 00 00 00 00 00 00 00 00 00 00 00 00 00 00 00 ................
00406C30 00 00 00 00 00 00 00 00 00 00 00 00 00 00 00 00 ................
00406C40 00 00 00 00 00 00 00 00 00 00 00 00 00 00 00 00 ................
00406C50 00 00 00 00 00 00 00 00 00 00 00 00 00 00 00 00 ................
00406C60 00 00 00 00 00 00 00 00 00 00 00 00 00 00 00 00 ................
00406C70 00 00 00 00 00 00 00 00 00 00 00 00 00 00 00 00 ................
00406C80 00 00 00 00 00 00 00 00 00 00 00 00 00 00 00 00 ................
00406C90 00 00 00 00 00 00 00 00 00 00 00 00 00 00 00 00 ................
00406CA0 00 00 00 00 00 00 00 00 00 00 00 00 00 00 00 00 ................
00406CB0 00 00 00 00 00 00 00 00 00 00 00 00 00 00 00 00 ................
00406CC0 00 00 00 00 00 00 00 00 00 00 00 00 00 00 00 00 ................
00406CD0 00 00 00 00 00 00 00 00 00 00 00 00 00 00 00 00 ................
00406CE0 00 00 00 00 00 00 00 00 00 00 00 00 00 00 00 00 ................
00406CF0 00 00 00 00 00 00 00 00 00 00 00 00 00 00 00 00 ................
00406D00 00 00 00 00 00 00 00 00 00 00 00 00 00 00 00 00 ................
00406D10 00 00 00 00 00 00 00 00 00 00 00 00 00 00 00 00 ................
00406D20 00 00 00 00 00 00 00 00 00 00 00 00 00 00 00 00 ................
00406D30 00 00 00 00 00 00 00 00 00 00 00 00 00 00 00 00 ................
00406D40 00 00 00 00 00 00 00 00 00 00 00 00 00 00 00 00 ................
00406D50 00 00 00 00 00 00 00 00 00 00 00 00 00 00 00 00 ................
00406D60 00 00 00 00 00 00 00 00 00 00 00 00 00 00 00 00 ................
00406D70 00 00 00 00 00 00 00 00 00 00 00 00 00 00 00 00 ................
00406D80 00 00 00 00 00 00 00 00 00 00 00 00 00 00 00 00 ................
00406D90 00 00 00 00 00 00 00 00 00 00 00 00 00 00 00 00 ................
00406DA0 00 00 00 00 00 00 00 00 00 00 00 00 00 00 00 00 ................
00406DB0 00 00 00 00 00 00 00 00 00 00 00 00 00 00 00 00 ................
00406DC0 00 00 00 00 00 00 00 00 00 00 00 00 00 00 00 00 ................
00406DD0 00 00 00 00 00 00 00 00 00 00 00 00 00 00 00 00 ................
00406DE0 00 00 00 00 00 00 00 00 00 00 00 00 00 00 00 00 ................
00406DF0 00 00 00 00 00 00 00 00 00 00 00 00 00 00 00 00 ................
00406E00 00 00 00 00 00 00 00 00 00 00 00 00 00 00 00 00 ................
00406E10 00 00 00 00 00 00 00 00 00 00 00 00 00 00 00 00 ................
00406E20 00 00 00 00 00 00 00 00 00 00 00 00 00 00 00 00 ................
00406E30 00 00 00 00 00 00 00 00 00 00 00 00 00 00 00 00 ................
00406E40 00 00 00 00 00 00 00 00 00 00 00 00 00 00 00 00 ................
00406E50 00 00 00 00 00 00 00 00 00 00 00 00 00 00 00 00 ................
00406E60 00 00 00 00 00 00 00 00 00 00 00 00 00 00 00 00 ................
00406E70 00 00 00 00 00 00 00 00 00 00 00 00 00 00 00 00 ................
00406E80 00 00 00 00 00 00 00 00 00 00 00 00 00 00 00 00 ................
00406E90 00 00 00 00 00 00 00 00 00 00 00 00 00 00 00 00 ................
00406EA0 00 00 00 00 00 00 00 00 00 00 00 00 00 00 00 00 ................
00406EB0 00 00 00 00 00 00 00 00 00 00 00 00 00 00 00 00 ................
00406EC0 00 00 00 00 00 00 00 00 00 00 00 00 00 00 00 00 ................
00406ED0 00 00 00 00 00 00 00 00 00 00 00 00 00 00 00 00 ................
00406EE0 00 00 00 00 00 00 00 00 00 00 00 00 00 00 00 00 ................
00406EF0 00 00 00 00 00 00 00 00 00 00 00 00 00 00 00 00 ................
00406F00 00 00 00 00 00 00 00 00 00 00 00 00 00 00 00 00 ................
00406F10 00 00 00 00 00 00 00 00 00 00 00 00 00 00 00 00 ................
00406F20 00 00 00 00 00 00 00 00 00 00 00 00 00 00 00 00 ................
00406F30 00 00 00 00 00 00 00 00 00 00 00 00 00 00 00 00 ................
00406F40 00 00 00 00 00 00 00 00 00 00 00 00 00 00 00 00 ................
00406F50 00 00 00 00 00 00 00 00 00 00 00 00 00 00 00 00 ................
00406F60 00 00 00 00 00 00 00 00 00 00 00 00 00 00 00 00 ................
00406F70 00 00 00 00 00 00 00 00 00 00 00 00 00 00 00 00 ................
00406F80 00 00 00 00 00 00 00 00 00 00 00 00 00 00 00 00 ................
00406F90 00 00 00 00 00 00 00 00 00 00 00 00 00 00 00 00 ................
00406FA0 00 00 00 00 00 00 00 00 00 00 00 00 00 00 00 00 ................
00406FB0 00 00 00 00 00 00 00 00 00 00 00 00 00 00 00 00 ................
00406FC0 00 00 00 00 00 00 00 00 00 00 00 00 00 00 00 00 ................
00406FD0 00 00 00 00 00 00 00 00 00 00 00 00 00 00 00 00 ................
00406FE0 00 00 00 00 00 00 00 00 00 00 00 00 00 00 00 00 ................
00406FF0 00 00 00 00 00 00 00 00 00 00 00 00 00 00 00 00 ................
00407000 00 00 00 00 00 00 00 00 00 00 00 00 00 00 00 00 ................
00407010 00 00 00 00 00 00 00 00 00 00 00 00 00 00 00 00 ................
00407020 00 00 00 00 00 00 00 00 00 00 00 00 00 00 00 00 ................
00407030 00 00 00 00 00 00 00 00 00 00 00 00 00 00 00 00 ................
00407040 00 00 00 00 00 00 00 00 00 00 00 00 00 00 00 00 ................
00407050 00 00 00 00 00 00 00 00 00 00 00 00 00 00 00 00 ................
00407060 00 00 00 00 00 00 00 00 00 00 00 00 00 00 00 00 ................
00407070 00 00 00 00 00 00 00 00 00 00 00 00 00 00 00 00 ................
00407080 00 00 00 00 00 00 00 00 00 00 00 00 00 00 00 00 ................
00407090 00 00 00 00 00 00 00 00 00 00 00 00 00 00 00 00 ................
004070A0 00 00 00 00 00 00 00 00 00 00 00 00 00 00 00 00 ................
004070B0 00 00 00 00 00 00 00 00 00 00 00 00 00 00 00 00 ................
004070C0 00 00 00 00 00 00 00 00 00 00 00 00 00 00 00 00 ................
004070D0 00 00 00 00 00 00 00 00 00 00 00 00 00 00 00 00 ................
004070E0 00 00 00 00 00 00 00 00 00 00 00 00 00 00 00 00 ................
004070F0 00 00 00 00 00 00 00 00 00 00 00 00 00 00 00 00 ................
00407100 00 00 00 00 00 00 00 00 00 00 00 00 00 00 00 00 ................
00407110 00 00 00 00 00 00 00 00 00 00 00 00 00 00 00 00 ................
00407120 00 00 00 00 00 00 00 00 00 00 00 00 00 00 00 00 ................
00407130 00 00 00 00 00 00 00 00 00 00 00 00 00 00 00 00 ................
00407140 00 00 00 00 00 00 00 00 00 00 00 00 00 00 00 00 ................
00407150 00 00 00 00 00 00 00 00 00 00 00 00 00 00 00 00 ................
00407160 00 00 00 00 00 00 00 00 00 00 00 00 00 00 00 00 ................
00407170 00 00 00 00 00 00 00 00 00 00 00 00 00 00 00 00 ................
00407180 00 00 00 00 00 00 00 00 00 00 00 00 00 00 00 00 ................
00407190 00 00 00 00 00 00 00 00 00 00 00 00 00 00 00 00 ................
004071A0 00 00 00 00 00 00 00 00 00 00 00 00 00 00 00 00 ................
004071B0 00 00 00 00 00 00 00 00 00 00 00 00 00 00 00 00 ................
004071C0 00 00 00 00 00 00 00 00 00 00 00 00 00 00 00 00 ................
004071D0 00 00 00 00 00 00 00 00 00 00 00 00 00 00 00 00 ................
004071E0 00 00 00 00 00 00 00 00 00 00 00 00 00 00 00 00 ................
004071F0 00 00 00 00 00 00 00 00 00 00 00 00 00 00 00 00 ................
00407200 00 00 00 00 00 00 00 00 00 00 00 00 00 00 00 00 ................
00407210 00 00 00 00 00 00 00 00 00 00 00 00 00 00 00 00 ................
00407220 00 00 00 00 00 00 00 00 00 00 00 00 00 00 00 00 ................
00407230 00 00 00 00 00 00 00 00 00 00 00 00 00 00 00 00 ................
00407240 00 00 00 00 00 00 00 00 00 00 00 00 00 00 00 00 ................
00407250 00 00 00 00 00 00 00 00 00 00 00 00 00 00 00 00 ................
00407260 00 00 00 00 00 00 00 00 00 00 00 00 00 00 00 00 ................
00407270 00 00 00 00 00 00 00 00 00 00 00 00 00 00 00 00 ................
00407280 00 00 00 00 00 00 00 00 00 00 00 00 00 00 00 00 ................
00407290 00 00 00 00 00 00 00 00 00 00 00 00 00 00 00 00 ................
004072A0 00 00 00 00 00 00 00 00 00 00 00 00 00 00 00 00 ................
004072B0 00 00 00 00 00 00 00 00 00 00 00 00 00 00 00 00 ................
004072C0 00 00 00 00 00 00 00 00 00 00 00 00 00 00 00 00 ................
004072D0 00 00 00 00 00 00 00 00 00 00 00 00 00 00 00 00 ................
004072E0 00 00 00 00 00 00 00 00 00 00 00 00 00 00 00 00 ................
004072F0 00 00 00 00 00 00 00 00 00 00 00 00 00 00 00 00 ................
00407300 00 00 00 00 00 00 00 00 00 00 00 00 00 00 00 00 ................
00407310 00 00 00 00 00 00 00 00 00 00 00 00 00 00 00 00 ................
00407320 00 00 00 00 00 00 00 00 00 00 00 00 00 00 00 00 ................
00407330 00 00 00 00 00 00 00 00 00 00 00 00 00 00 00 00 ................
00407340 00 00 00 00 00 00 00 00 00 00 00 00 00 00 00 00 ................
00407350 00 00 00 00 00 00 00 00 00 00 00 00 00 00 00 00 ................
00407360 00 00 00 00 00 00 00 00 00 00 00 00 00 00 00 00 ................
00407370 00 00 00 00 00 00 00 00 00 00 00 00 00 00 00 00 ................
00407380 00 00 00 00 00 00 00 00 00 00 00 00 00 00 00 00 ................
00407390 00 00 00 00 00 00 00 00 00 00 00 00 00 00 00 00 ................
004073A0 00 00 00 00 00 00 00 00 00 00 00 00 00 00 00 00 ................
004073B0 00 00 00 00 00 00 00 00 00 00 00 00 00 00 00 00 ................
004073C0 00 00 00 00 00 00 00 00 00 00 00 00 00 00 00 00 ................
004073D0 00 00 00 00 00 00 00 00 00 00 00 00 00 00 00 00 ................
004073E0 00 00 00 00 00 00 00 00 00 00 00 00 00 00 00 00 ................
004073F0 00 00 00 00 00 00 00 00 00 00 00 00 00 00 00 00 ................
00407400 00 00 00 00 00 00 00 00 00 00 00 00 00 00 00 00 ................
00407410 00 00 00 00 00 00 00 00 00 00 00 00 00 00 00 00 ................
00407420 00 00 00 00 00 00 00 00 00 00 00 00 00 00 00 00 ................
00407430 00 00 00 00 00 00 00 00 00 00 00 00 00 00 00 00 ................
00407440 00 00 00 00 00 00 00 00 00 00 00 00 00 00 00 00 ................
00407450 00 00 00 00 00 00 00 00 00 00 00 00 00 00 00 00 ................
00407460 00 00 00 00 00 00 00 00 00 00 00 00 00 00 00 00 ................
00407470 00 00 00 00 00 00 00 00 00 00 00 00 00 00 00 00 ................
00407480 00 00 00 00 00 00 00 00 00 00 00 00 00 00 00 00 ................
00407490 00 00 00 00 00 00 00 00 00 00 00 00 00 00 00 00 ................
004074A0 00 00 00 00 00 00 00 00 00 00 00 00 00 00 00 00 ................
004074B0 00 00 00 00 00 00 00 00 00 00 00 00 00 00 00 00 ................
004074C0 00 00 00 00 00 00 00 00 00 00 00 00 00 00 00 00 ................
004074D0 00 00 00 00 00 00 00 00 00 00 00 00 00 00 00 00 ................
004074E0 00 00 00 00 00 00 00 00 00 00 00 00 00 00 00 00 ................
004074F0 00 00 00 00 00 00 00 00 00 00 00 00 00 00 00 00 ................
00407500 00 00 00 00 00 00 00 00 00 00 00 00 00 00 00 00 ................
00407510 00 00 00 00 00 00 00 00 00 00 00 00 00 00 00 00 ................
00407520 00 00 00 00 00 00 00 00 00 00 00 00 00 00 00 00 ................
00407530 00 00 00 00 00 00 00 00 00 00 00 00 00 00 00 00 ................
00407540 00 00 00 00 00 00 00 00 00 00 00 00 00 00 00 00 ................
00407550 00 00 00 00 00 00 00 00 00 00 00 00 00 00 00 00 ................
00407560 00 00 00 00 00 00 00 00 00 00 00 00 00 00 00 00 ................
00407570 00 00 00 00 00 00 00 00 00 00 00 00 00 00 00 00 ................
00407580 00 00 00 00 00 00 00 00 00 00 00 00 00 00 00 00 ................
00407590 00 00 00 00 00 00 00 00 00 00 00 00 00 00 00 00 ................
004075A0 00 00 00 00 00 00 00 00 00 00 00 00 00 00 00 00 ................
004075B0 00 00 00 00 00 00 00 00 00 00 00 00 00 00 00 00 ................
004075C0 00 00 00 00 00 00 00 00 00 00 00 00 00 00 00 00 ................
004075D0 00 00 00 00 00 00 00 00 00 00 00 00 00 00 00 00 ................
004075E0 00 00 00 00 00 00 00 00 00 00 00 00 00 00 00 00 ................
004075F0 00 00 00 00 00 00 00 00 00 00 00 00 00 00 00 00 ................
00407600 00 00 00 00 00 00 00 00 00 00 00 00 00 00 00 00 ................
00407610 00 00 00 00 00 00 00 00 00 00 00 00 00 00 00 00 ................
00407620 00 00 00 00 00 00 00 00 00 00 00 00 00 00 00 00 ................
00407630 00 00 00 00 00 00 00 00 00 00 00 00 00 00 00 00 ................
00407640 00 00 00 00 00 00 00 00 00 00 00 00 00 00 00 00 ................
00407650 00 00 00 00 00 00 00 00 00 00 00 00 00 00 00 00 ................
00407660 00 00 00 00 00 00 00 00 00 00 00 00 00 00 00 00 ................
00407670 00 00 00 00 00 00 00 00 00 00 00 00 00 00 00 00 ................
00407680 00 00 00 00 00 00 00 00 00 00 00 00 00 00 00 00 ................
00407690 00 00 00 00 00 00 00 00 00 00 00 00 00 00 00 00 ................
004076A0 00 00 00 00 00 00 00 00 00 00 00 00 00 00 00 00 ................
004076B0 00 00 00 00 00 00 00 00 00 00 00 00 00 00 00 00 ................
004076C0 00 00 00 00 00 00 00 00 00 00 00 00 00 00 00 00 ................
004076D0 00 00 00 00 00 00 00 00 00 00 00 00 00 00 00 00 ................
004076E0 00 00 00 00 00 00 00 00 00 00 00 00 00 00 00 00 ................
004076F0 00 00 00 00 00 00 00 00 00 00 00 00 00 00 00 00 ................
00407700 00 00 00 00 00 00 00 00 00 00 00 00 00 00 00 00 ................
00407710 00 00 00 00 00 00 00 00 00 00 00 00 00 00 00 00 ................
00407720 00 00 00 00 00 00 00 00 00 00 00 00 00 00 00 00 ................
00407730 00 00 00 00 00 00 00 00 00 00 00 00 00 00 00 00 ................
00407740 00 00 00 00 00 00 00 00 00 00 00 00 00 00 00 00 ................
00407750 00 00 00 00 00 00 00 00 00 00 00 00 00 00 00 00 ................
00407760 00 00 00 00 00 00 00 00 00 00 00 00 00 00 00 00 ................
00407770 00 00 00 00 00 00 00 00 00 00 00 00 00 00 00 00 ................
00407780 00 00 00 00 00 00 00 00 00 00 00 00 00 00 00 00 ................
00407790 00 00 00 00 00 00 00 00 00 00 00 00 00 00 00 00 ................
004077A0 00 00 00 00 00 00 00 00 00 00 00 00 00 00 00 00 ................
004077B0 00 00 00 00 00 00 00 00 00 00 00 00 00 00 00 00 ................
004077C0 00 00 00 00 00 00 00 00 00 00 00 00 00 00 00 00 ................
004077D0 00 00 00 00 00 00 00 00 00 00 00 00 00 00 00 00 ................
004077E0 00 00 00 00 00 00 00 00 00 00 00 00 00 00 00 00 ................
004077F0 00 00 00 00 00 00 00 00 00 00 00 00 00 00 00 00 ................
00407800 00 00 00 00 00 00 00 00 00 00 00 00 00 00 00 00 ................
00407810 00 00 00 00 00 00 00 00 00 00 00 00 00 00 00 00 ................
00407820 00 00 00 00 00 00 00 00 00 00 00 00 00 00 00 00 ................
00407830 00 00 00 00 00 00 00 00 00 00 00 00 00 00 00 00 ................
00407840 00 00 00 00 00 00 00 00 00 00 00 00 00 00 00 00 ................
00407850 00 00 00 00 00 00 00 00 00 00 00 00 00 00 00 00 ................
00407860 00 00 00 00 00 00 00 00 00 00 00 00 00 00 00 00 ................
00407870 00 00 00 00 00 00 00 00 00 00 00 00 00 00 00 00 ................
00407880 00 00 00 00 00 00 00 00 00 00 00 00 00 00 00 00 ................
00407890 00 00 00 00 00 00 00 00 00 00 00 00 00 00 00 00 ................
004078A0 00 00 00 00 00 00 00 00 00 00 00 00 00 00 00 00 ................
004078B0 00 00 00 00 00 00 00 00 00 00 00 00 00 00 00 00 ................
004078C0 00 00 00 00 00 00 00 00 00 00 00 00 00 00 00 00 ................
004078D0 00 00 00 00 00 00 00 00 00 00 00 00 00 00 00 00 ................
004078E0 00 00 00 00 00 00 00 00 00 00 00 00 00 00 00 00 ................
004078F0 00 00 00 00 00 00 00 00 00 00 00 00 00 00 00 00 ................
00407900 00 00 00 00 00 00 00 00 00 00 00 00 00 00 00 00 ................
00407910 00 00 00 00 00 00 00 00 00 00 00 00 00 00 00 00 ................
00407920 00 00 00 00 00 00 00 00 00 00 00 00 00 00 00 00 ................
00407930 00 00 00 00 00 00 00 00 00 00 00 00 00 00 00 00 ................
00407940 00 00 00 00 00 00 00 00 00 00 00 00 00 00 00 00 ................
00407950 00 00 00 00 00 00 00 00 00 00 00 00 00 00 00 00 ................
00407960 00 00 00 00 00 00 00 00 00 00 00 00 00 00 00 00 ................
00407970 00 00 00 00 00 00 00 00 00 00 00 00 00 00 00 00 ................
00407980 00 00 00 00 00 00 00 00 00 00 00 00 00 00 00 00 ................
00407990 00 00 00 00 00 00 00 00 00 00 00 00 00 00 00 00 ................
004079A0 00 00 00 00 00 00 00 00 00 00 00 00 00 00 00 00 ................
004079B0 00 00 00 00 00 00 00 00 00 00 00 00 00 00 00 00 ................
004079C0 00 00 00 00 00 00 00 00 00 00 00 00 00 00 00 00 ................
004079D0 00 00 00 00 00 00 00 00 00 00 00 00 00 00 00 00 ................
004079E0 00 00 00 00 00 00 00 00 00 00 00 00 00 00 00 00 ................
004079F0 00 00 00 00 00 00 00 00 00 00 00 00 00 00 00 00 ................
00407A00 00 00 00 00 00 00 00 00 00 00 00 00 00 00 00 00 ................
00407A10 00 00 00 00 00 00 00 00 00 00 00 00 00 00 00 00 ................
00407A20 00 00 00 00 00 00 00 00 00 00 00 00 00 00 00 00 ................
00407A30 00 00 00 00 00 00 00 00 00 00 00 00 00 00 00 00 ................
00407A40 00 00 00 00 00 00 00 00 00 00 00 00 00 00 00 00 ................
00407A50 00 00 00 00 00 00 00 00 00 00 00 00 00 00 00 00 ................
00407A60 00 00 00 00 00 00 00 00 00 00 00 00 00 00 00 00 ................
00407A70 00 00 00 00 00 00 00 00 00 00 00 00 00 00 00 00 ................
00407A80 00 00 00 00 00 00 00 00 00 00 00 00 00 00 00 00 ................
00407A90 00 00 00 00 00 00 00 00 00 00 00 00 00 00 00 00 ................
00407AA0 00 00 00 00 00 00 00 00 00 00 00 00 00 00 00 00 ................
00407AB0 00 00 00 00 00 00 00 00 00 00 00 00 00 00 00 00 ................
00407AC0 00 00 00 00 00 00 00 00 00 00 00 00 00 00 00 00 ................
00407AD0 00 00 00 00 00 00 00 00 00 00 00 00 00 00 00 00 ................
00407AE0 00 00 00 00 00 00 00 00 00 00 00 00 00 00 00 00 ................
00407AF0 00 00 00 00 00 00 00 00 00 00 00 00 00 00 00 00 ................
00407B00 00 00 00 00 00 00 00 00 00 00 00 00 00 00 00 00 ................
00407B10 00 00 00 00 00 00 00 00 00 00 00 00 00 00 00 00 ................
00407B20 00 00 00 00 00 00 00 00 00 00 00 00 00 00 00 00 ................
00407B30 00 00 00 00 00 00 00 00 00 00 00 00 00 00 00 00 ................
00407B40 00 00 00 00 00 00 00 00 00 00 00 00 00 00 00 00 ................
00407B50 00 00 00 00 00 00 00 00 00 00 00 00 00 00 00 00 ................
00407B60 00 00 00 00 00 00 00 00 00 00 00 00 00 00 00 00 ................
00407B70 00 00 00 00 00 00 00 00 00 00 00 00 00 00 00 00 ................
00407B80 00 00 00 00 00 00 00 00 00 00 00 00 00 00 00 00 ................
00407B90 00 00 00 00 00 00 00 00 00 00 00 00 00 00 00 00 ................
00407BA0 00 00 00 00 00 00 00 00 00 00 00 00 00 00 00 00 ................
00407BB0 00 00 00 00 00 00 00 00 00 00 00 00 00 00 00 00 ................
00407BC0 00 00 00 00 00 00 00 00 00 00 00 00 00 00 00 00 ................
00407BD0 00 00 00 00 00 00 00 00 00 00 00 00 00 00 00 00 ................
00407BE0 00 00 00 00 00 00 00 00 00 00 00 00 00 00 00 00 ................
00407BF0 00 00 00 00 00 00 00 00 00 00 00 00 00 00 00 00 ................
00407C00 00 00 00 00 00 00 00 00 00 00 00 00 00 00 00 00 ................
00407C10 00 00 00 00 00 00 00 00 00 00 00 00 00 00 00 00 ................
00407C20 00 00 00 00 00 00 00 00 00 00 00 00 00 00 00 00 ................
00407C30 00 00 00 00 00 00 00 00 00 00 00 00 00 00 00 00 ................
00407C40 00 00 00 00 00 00 00 00 00 00 00 00 00 00 00 00 ................
00407C50 00 00 00 00 00 00 00 00 00 00 00 00 00 00 00 00 ................
00407C60 00 00 00 00 00 00 00 00 00 00 00 00 00 00 00 00 ................
00407C70 00 00 00 00 00 00 00 00 00 00 00 00 00 00 00 00 ................
00407C80 00 00 00 00 00 00 00 00 00 00 00 00 00 00 00 00 ................
00407C90 00 00 00 00 00 00 00 00 00 00 00 00 00 00 00 00 ................
00407CA0 00 00 00 00 00 00 00 00 00 00 00 00 00 00 00 00 ................
00407CB0 00 00 00 00 00 00 00 00 00 00 00 00 00 00 00 00 ................
00407CC0 00 00 00 00 00 00 00 00 00 00 00 00 00 00 00 00 ................
00407CD0 00 00 00 00 00 00 00 00 00 00 00 00 00 00 00 00 ................
00407CE0 00 00 00 00 00 00 00 00 00 00 00 00 00 00 00 00 ................
00407CF0 00 00 00 00 00 00 00 00 00 00 00 00 00 00 00 00 ................
00407D00 00 00 00 00 00 00 00 00 00 00 00 00 00 00 00 00 ................
00407D10 00 00 00 00 00 00 00 00 00 00 00 00 00 00 00 00 ................
00407D20 00 00 00 00 00 00 00 00 00 00 00 00 00 00 00 00 ................
00407D30 00 00 00 00 00 00 00 00 00 00 00 00 00 00 00 00 ................
00407D40 00 00 00 00 00 00 00 00 00 00 00 00 00 00 00 00 ................
00407D50 00 00 00 00 00 00 00 00 00 00 00 00 00 00 00 00 ................
00407D60 00 00 00 00 00 00 00 00 00 00 00 00 00 00 00 00 ................
00407D70 00 00 00 00 00 00 00 00 00 00 00 00 00 00 00 00 ................
00407D80 00 00 00 00 00 00 00 00 00 00 00 00 00 00 00 00 ................
00407D90 00 00 00 00 00 00 00 00 00 00 00 00 00 00 00 00 ................
00407DA0 00 00 00 00 00 00 00 00 00 00 00 00 00 00 00 00 ................
00407DB0 00 00 00 00 00 00 00 00 00 00 00 00 00 00 00 00 ................
00407DC0 00 00 00 00 00 00 00 00 00 00 00 00 00 00 00 00 ................
00407DD0 00 00 00 00 00 00 00 00 00 00 00 00 00 00 00 00 ................
00407DE0 00 00 00 00 00 00 00 00 00 00 00 00 00 00 00 00 ................
00407DF0 00 00 00 00 00 00 00 00 00 00 00 00 00 00 00 00 ................
00407E00 00 00 00 00 00 00 00 00 00 00 00 00 00 00 00 00 ................
00407E10 00 00 00 00 00 00 00 00 00 00 00 00 00 00 00 00 ................
00407E20 00 00 00 00 00 00 00 00 00 00 00 00 00 00 00 00 ................
00407E30 00 00 00 00 00 00 00 00 00 00 00 00 00 00 00 00 ................
00407E40 00 00 00 00 00 00 00 00 00 00 00 00 00 00 00 00 ................
00407E50 00 00 00 00 00 00 00 00 00 00 00 00 00 00 00 00 ................
00407E60 00 00 00 00 00 00 00 00 00 00 00 00 00 00 00 00 ................
00407E70 00 00 00 00 00 00 00 00 00 00 00 00 00 00 00 00 ................
00407E80 00 00 00 00 00 00 00 00 00 00 00 00 00 00 00 00 ................
00407E90 00 00 00 00 00 00 00 00 00 00 00 00 00 00 00 00 ................
00407EA0 00 00 00 00 00 00 00 00 00 00 00 00 00 00 00 00 ................
00407EB0 00 00 00 00 00 00 00 00 00 00 00 00 00 00 00 00 ................
00407EC0 00 00 00 00 00 00 00 00 00 00 00 00 00 00 00 00 ................
00407ED0 00 00 00 00 00 00 00 00 00 00 00 00 00 00 00 00 ................
00407EE0 00 00 00 00 00 00 00 00 00 00 00 00 00 00 00 00 ................
00407EF0 00 00 00 00 00 00 00 00 00 00 00 00 00 00 00 00 ................
00407F00 00 00 00 00 00 00 00 00 00 00 00 00 00 00 00 00 ................
00407F10 00 00 00 00 00 00 00 00 00 00 00 00 00 00 00 00 ................
00407F20 00 00 00 00 00 00 00 00 00 00 00 00 00 00 00 00 ................
00407F30 00 00 00 00 00 00 00 00 00 00 00 00 00 00 00 00 ................
00407F40 00 00 00 00 00 00 00 00 00 00 00 00 00 00 00 00 ................
00407F50 00 00 00 00 00 00 00 00 00 00 00 00 00 00 00 00 ................
00407F60 00 00 00 00 00 00 00 00 00 00 00 00 00 00 00 00 ................
00407F70 00 00 00 00 00 00 00 00 00 00 00 00 00 00 00 00 ................
00407F80 00 00 00 00 00 00 00 00 00 00 00 00 00 00 00 00 ................
00407F90 00 00 00 00 00 00 00 00 00 00 00 00 00 00 00 00 ................
00407FA0 00 00 00 00 00 00 00 00 00 00 00 00 00 00 00 00 ................
00407FB0 00 00 00 00 00 00 00 00 00 00 00 00 00 00 00 00 ................
00407FC0 00 00 00 00 00 00 00 00 00 00 00 00 00 00 00 00 ................
00407FD0 00 00 00 00 00 00 00 00 00 00 00 00 00 00 00 00 ................
00407FE0 00 00 00 00 00 00 00 00 00 00 00 00 00 00 00 00 ................
00407FF0 00 00 00 00 00 00 00 00 00 00 00 00 00 00 00 00 ................
00408000 00 00 00 00 00 00 00 00 00 00 00 00 00 00 00 00 ................
00408010 00 00 00 00 00 00 00 00 00 00 00 00 00 00 00 00 ................
00408020 00 00 00 00 00 00 00 00 00 00 00 00 00 00 00 00 ................
00408030 00 00 00 00 00 00 00 00 00 00 00 00 00 00 00 00 ................
00408040 00 00 00 00 00 00 00 00 00 00 00 00 00 00 00 00 ................
00408050 00 00 00 00 00 00 00 00 00 00 00 00 00 00 00 00 ................
00408060 00 00 00 00 00 00 00 00 00 00 00 00 00 00 00 00 ................
00408070 00 00 00 00 00 00 00 00 00 00 00 00 00 00 00 00 ................
00408080 00 00 00 00 00 00 00 00 00 00 00 00 00 00 00 00 ................
00408090 00 00 00 00 00 00 00 00 00 00 00 00 00 00 00 00 ................
004080A0 00 00 00 00 00 00 00 00 00 00 00 00 00 00 00 00 ................
004080B0 00 00 00 00 00 00 00 00 00 00 00 00 00 00 00 00 ................
004080C0 00 00 00 00 00 00 00 00 00 00 00 00 00 00 00 00 ................
004080D0 00 00 00 00 00 00 00 00 00 00 00 00 00 00 00 00 ................
004080E0 00 00 00 00 00 00 00 00 00 00 00 00 00 00 00 00 ................
004080F0 00 00 00 00 00 00 00 00 00 00 00 00 00 00 00 00 ................
00408100 00 00 00 00 00 00 00 00 00 00 00 00 00 00 00 00 ................
00408110 00 00 00 00 00 00 00 00 00 00 00 00 00 00 00 00 ................
00408120 00 00 00 00 00 00 00 00 00 00 00 00 00 00 00 00 ................
00408130 00 00 00 00 00 00 00 00 00 00 00 00 00 00 00 00 ................
00408140 00 00 00 00 00 00 00 00 00 00 00 00 00 00 00 00 ................
00408150 00 00 00 00 00 00 00 00 00 00 00 00 00 00 00 00 ................
00408160 00 00 00 00 00 00 00 00 00 00 00 00 00 00 00 00 ................
00408170 00 00 00 00 00 00 00 00 00 00 00 00 00 00 00 00 ................
00408180 00 00 00 00 00 00 00 00 00 00 00 00 00 00 00 00 ................
00408190 00 00 00 00 00 00 00 00 00 00 00 00 00 00 00 00 ................
004081A0 00 00 00 00 00 00 00 00 00 00 00 00 00 00 00 00 ................
004081B0 00 00 00 00 00 00 00 00 00 00 00 00 00 00 00 00 ................
004081C0 00 00 00 00 00 00 00 00 00 00 00 00 00 00 00 00 ................
004081D0 00 00 00 00 00 00 00 00 00 00 00 00 00 00 00 00 ................
004081E0 00 00 00 00 00 00 00 00 00 00 00 00 00 00 00 00 ................
004081F0 00 00 00 00 00 00 00 00 00 00 00 00 00 00 00 00 ................
00408200 00 00 00 00 00 00 00 00 00 00 00 00 00 00 00 00 ................
00408210 00 00 00 00 00 00 00 00 00 00 00 00 00 00 00 00 ................
00408220 00 00 00 00 00 00 00 00 00 00 00 00 00 00 00 00 ................
00408230 00 00 00 00 00 00 00 00 00 00 00 00 00 00 00 00 ................
00408240 00 00 00 00 00 00 00 00 00 00 00 00 00 00 00 00 ................
00408250 00 00 00 00 00 00 00 00 00 00 00 00 00 00 00 00 ................
00408260 00 00 00 00 00 00 00 00 00 00 00 00 00 00 00 00 ................
00408270 00 00 00 00 00 00 00 00 00 00 00 00 00 00 00 00 ................
00408280 00 00 00 00 00 00 00 00 00 00 00 00 00 00 00 00 ................
00408290 00 00 00 00 00 00 00 00 00 00 00 00 00 00 00 00 ................
004082A0 00 00 00 00 00 00 00 00 00 00 00 00 00 00 00 00 ................
004082B0 00 00 00 00 00 00 00 00 00 00 00 00 00 00 00 00 ................
004082C0 00 00 00 00 00 00 00 00 00 00 00 00 00 00 00 00 ................
004082D0 00 00 00 00 00 00 00 00 00 00 00 00 00 00 00 00 ................
004082E0 00 00 00 00 00 00 00 00 00 00 00 00 00 00 00 00 ................
004082F0 00 00 00 00 00 00 00 00 00 00 00 00 00 00 00 00 ................
00408300 00 00 00 00 00 00 00 00 00 00 00 00 00 00 00 00 ................
00408310 00 00 00 00 00 00 00 00 00 00 00 00 00 00 00 00 ................
00408320 00 00 00 00 00 00 00 00 00 00 00 00 00 00 00 00 ................
00408330 00 00 00 00 00 00 00 00 00 00 00 00 00 00 00 00 ................
00408340 00 00 00 00 00 00 00 00 00 00 00 00 00 00 00 00 ................
00408350 00 00 00 00 00 00 00 00 00 00 00 00 00 00 00 00 ................
00408360 00 00 00 00 00 00 00 00 00 00 00 00 00 00 00 00 ................
00408370 00 00 00 00 00 00 00 00 00 00 00 00 00 00 00 00 ................
00408380 00 00 00 00 00 00 00 00 00 00 00 00 00 00 00 00 ................
00408390 00 00 00 00 00 00 00 00 00 00 00 00 00 00 00 00 ................
004083A0 00 00 00 00 00 00 00 00 00 00 00 00 00 00 00 00 ................
004083B0 00 00 00 00 00 00 00 00 00 00 00 00 00 00 00 00 ................
004083C0 00 00 00 00 00 00 00 00 00 00 00 00 00 00 00 00 ................
004083D0 00 00 00 00 00 00 00 00 00 00 00 00 00 00 00 00 ................
004083E0 00 00 00 00 00 00 00 00 00 00 00 00 00 00 00 00 ................
004083F0 00 00 00 00 00 00 00 00 00 00 00 00 00 00 00 00 ................
00408400 00 00 00 00 00 00 00 00 00 00 00 00 00 00 00 00 ................
00408410 00 00 00 00 00 00 00 00 00 00 00 00 00 00 00 00 ................
00408420 00 00 00 00 00 00 00 00 00 00 00 00 00 00 00 00 ................
00408430 00 00 00 00 00 00 00 00 00 00 00 00 00 00 00 00 ................
00408440 00 00 00 00 00 00 00 00 00 00 00 00 00 00 00 00 ................
00408450 00 00 00 00 00 00 00 00 00 00 00 00 00 00 00 00 ................
00408460 00 00 00 00 00 00 00 00 00 00 00 00 00 00 00 00 ................
00408470 00 00 00 00 00 00 00 00 00 00 00 00 00 00 00 00 ................
00408480 00 00 00 00 00 00 00 00 00 00 00 00 00 00 00 00 ................
00408490 00 00 00 00 00 00 00 00 00 00 00 00 00 00 00 00 ................
004084A0 00 00 00 00 00 00 00 00 00 00 00 00 00 00 00 00 ................
004084B0 00 00 00 00 00 00 00 00 00 00 00 00 00 00 00 00 ................
004084C0 00 00 00 00 00 00 00 00 00 00 00 00 00 00 00 00 ................
004084D0 00 00 00 00 00 00 00 00 00 00 00 00 00 00 00 00 ................
004084E0 00 00 00 00 00 00 00 00 00 00 00 00 00 00 00 00 ................
004084F0 00 00 00 00 00 00 00 00 00 00 00 00 00 00 00 00 ................
00408500 00 00 00 00 00 00 00 00 00 00 00 00 00 00 00 00 ................
00408510 00 00 00 00 00 00 00 00 00 00 00 00 00 00 00 00 ................
00408520 00 00 00 00 00 00 00 00 00 00 00 00 00 00 00 00 ................
00408530 00 00 00 00 00 00 00 00 00 00 00 00 00 00 00 00 ................
00408540 00 00 00 00 00 00 00 00 00 00 00 00 00 00 00 00 ................
00408550 00 00 00 00 00 00 00 00 00 00 00 00 00 00 00 00 ................
00408560 00 00 00 00 00 00 00 00 00 00 00 00 00 00 00 00 ................
00408570 00 00 00 00 00 00 00 00 00 00 00 00 00 00 00 00 ................
00408580 00 00 00 00 00 00 00 00 00 00 00 00 00 00 00 00 ................
00408590 00 00 00 00 00 00 00 00 00 00 00 00 00 00 00 00 ................
004085A0 00 00 00 00 00 00 00 00 00 00 00 00 00 00 00 00 ................
004085B0 00 00 00 00 00 00 00 00 00 00 00 00 00 00 00 00 ................
004085C0 00 00 00 00 00 00 00 00 00 00 00 00 00 00 00 00 ................
004085D0 00 00 00 00 00 00 00 00 00 00 00 00 00 00 00 00 ................
004085E0 00 00 00 00 00 00 00 00 00 00 00 00 00 00 00 00 ................
004085F0 00 00 00 00 00 00 00 00 00 00 00 00 00 00 00 00 ................
00408600 00 00 00 00 00 00 00 00 00 00 00 00 00 00 00 00 ................
00408610 00 00 00 00 00 00 00 00 00 00 00 00 00 00 00 00 ................
00408620 00 00 00 00 00 00 00 00 00 00 00 00 00 00 00 00 ................
00408630 00 00 00 00 00 00 00 00 00 00 00 00 00 00 00 00 ................
00408640 00 00 00 00 00 00 00 00 00 00 00 00 00 00 00 00 ................
00408650 00 00 00 00 00 00 00 00 00 00 00 00 00 00 00 00 ................
00408660 00 00 00 00 00 00 00 00 00 00 00 00 00 00 00 00 ................
00408670 00 00 00 00 00 00 00 00 00 00 00 00 00 00 00 00 ................
00408680 00 00 00 00 00 00 00 00 00 00 00 00 00 00 00 00 ................
00408690 00 00 00 00 00 00 00 00 00 00 00 00 00 00 00 00 ................
004086A0 00 00 00 00 00 00 00 00 00 00 00 00 00 00 00 00 ................
004086B0 00 00 00 00 00 00 00 00 00 00 00 00 00 00 00 00 ................
004086C0 00 00 00 00 00 00 00 00 00 00 00 00 00 00 00 00 ................
004086D0 00 00 00 00 00 00 00 00 00 00 00 00 00 00 00 00 ................
004086E0 00 00 00 00 00 00 00 00 00 00 00 00 00 00 00 00 ................
004086F0 00 00 00 00 00 00 00 00 00 00 00 00 00 00 00 00 ................
00408700 00 00 00 00 00 00 00 00 00 00 00 00 00 00 00 00 ................
00408710 00 00 00 00 00 00 00 00 00 00 00 00 00 00 00 00 ................
00408720 00 00 00 00 00 00 00 00 00 00 00 00 00 00 00 00 ................
00408730 00 00 00 00 00 00 00 00 00 00 00 00 00 00 00 00 ................
00408740 00 00 00 00 00 00 00 00 00 00 00 00 00 00 00 00 ................
00408750 00 00 00 00 00 00 00 00 00 00 00 00 00 00 00 00 ................
00408760 00 00 00 00 00 00 00 00 00 00 00 00 00 00 00 00 ................
00408770 00 00 00 00 00 00 00 00 00 00 00 00 00 00 00 00 ................
00408780 00 00 00 00 00 00 00 00 00 00 00 00 00 00 00 00 ................
00408790 00 00 00 00 00 00 00 00 00 00 00 00 00 00 00 00 ................
004087A0 00 00 00 00 00 00 00 00 00 00 00 00 00 00 00 00 ................
004087B0 00 00 00 00 00 00 00 00 00 00 00 00 00 00 00 00 ................
004087C0 00 00 00 00 00 00 00 00 00 00 00 00 00 00 00 00 ................
004087D0 00 00 00 00 00 00 00 00 00 00 00 00 00 00 00 00 ................
004087E0 00 00 00 00 00 00 00 00 00 00 00 00 00 00 00 00 ................
004087F0 00 00 00 00 00 00 00 00 00 00 00 00 00 00 00 00 ................
00408800 00 00 00 00 00 00 00 00 00 00 00 00 00 00 00 00 ................
00408810 00 00 00 00 00 00 00 00 00 00 00 00 00 00 00 00 ................
00408820 00 00 00 00 00 00 00 00 00 00 00 00 00 00 00 00 ................
00408830 00 00 00 00 00 00 00 00 00 00 00 00 00 00 00 00 ................
00408840 00 00 00 00 00 00 00 00 00 00 00 00 00 00 00 00 ................
00408850 00 00 00 00 00 00 00 00 00 00 00 00 00 00 00 00 ................
00408860 00 00 00 00 00 00 00 00 00 00 00 00 00 00 00 00 ................
00408870 00 00 00 00 00 00 00 00 00 00 00 00 00 00 00 00 ................
00408880 00 00 00 00 00 00 00 00 00 00 00 00 00 00 00 00 ................
00408890 00 00 00 00 00 00 00 00 00 00 00 00 00 00 00 00 ................
004088A0 00 00 00 00 00 00 00 00 00 00 00 00 00 00 00 00 ................
004088B0 00 00 00 00 00 00 00 00 00 00 00 00 00 00 00 00 ................
004088C0 00 00 00 00 00 00 00 00 00 00 00 00 00 00 00 00 ................
004088D0 00 00 00 00 00 00 00 00 00 00 00 00 00 00 00 00 ................
004088E0 00 00 00 00 00 00 00 00 00 00 00 00 00 00 00 00 ................
004088F0 00 00 00 00 00 00 00 00 00 00 00 00 00 00 00 00 ................
00408900 00 00 00 00 00 00 00 00 00 00 00 00 00 00 00 00 ................
00408910 00 00 00 00 00 00 00 00 00 00 00 00 00 00 00 00 ................
00408920 00 00 00 00 00 00 00 00 00 00 00 00 00 00 00 00 ................
00408930 00 00 00 00 00 00 00 00 00 00 00 00 00 00 00 00 ................
00408940 00 00 00 00 00 00 00 00 00 00 00 00 00 00 00 00 ................
00408950 00 00 00 00 00 00 00 00 00 00 00 00 00 00 00 00 ................
00408960 00 00 00 00 00 00 00 00 00 00 00 00 00 00 00 00 ................
00408970 00 00 00 00 00 00 00 00 00 00 00 00 00 00 00 00 ................
00408980 00 00 00 00 00 00 00 00 00 00 00 00 00 00 00 00 ................
00408990 00 00 00 00 00 00 00 00 00 00 00 00 00 00 00 00 ................
004089A0 00 00 00 00 00 00 00 00 00 00 00 00 00 00 00 00 ................
004089B0 00 00 00 00 00 00 00 00 00 00 00 00 00 00 00 00 ................
004089C0 00 00 00 00 00 00 00 00 00 00 00 00 00 00 00 00 ................
004089D0 00 00 00 00 00 00 00 00 00 00 00 00 00 00 00 00 ................
004089E0 00 00 00 00 00 00 00 00 00 00 00 00 00 00 00 00 ................
004089F0 00 00 00 00 00 00 00 00 00 00 00 00 00 00 00 00 ................
00408A00 00 00 00 00 00 00 00 00 00 00 00 00 00 00 00 00 ................
00408A10 00 00 00 00 00 00 00 00 00 00 00 00 00 00 00 00 ................
00408A20 00 00 00 00 00 00 00 00 00 00 00 00 00 00 00 00 ................
00408A30 00 00 00 00 00 00 00 00 00 00 00 00 00 00 00 00 ................
00408A40 00 00 00 00 00 00 00 00 00 00 00 00 00 00 00 00 ................
00408A50 00 00 00 00 00 00 00 00 00 00 00 00 00 00 00 00 ................
00408A60 00 00 00 00 00 00 00 00 00 00 00 00 00 00 00 00 ................
00408A70 00 00 00 00 00 00 00 00 00 00 00 00 00 00 00 00 ................
00408A80 00 00 00 00 00 00 00 00 00 00 00 00 00 00 00 00 ................
00408A90 00 00 00 00 00 00 00 00 00 00 00 00 00 00 00 00 ................
00408AA0 00 00 00 00 00 00 00 00 00 00 00 00 00 00 00 00 ................
00408AB0 00 00 00 00 00 00 00 00 00 00 00 00 00 00 00 00 ................
00408AC0 00 00 00 00 00 00 00 00 00 00 00 00 00 00 00 00 ................
00408AD0 00 00 00 00 00 00 00 00 00 00 00 00 00 00 00 00 ................
00408AE0 00 00 00 00 00 00 00 00 00 00 00 00 00 00 00 00 ................
00408AF0 00 00 00 00 00 00 00 00 00 00 00 00 00 00 00 00 ................
00408B00 00 00 00 00 00 00 00 00 00 00 00 00 00 00 00 00 ................
00408B10 00 00 00 00 00 00 00 00 00 00 00 00 00 00 00 00 ................
00408B20 00 00 00 00 00 00 00 00 00 00 00 00 00 00 00 00 ................
00408B30 00 00 00 00 00 00 00 00 00 00 00 00 00 00 00 00 ................
00408B40 00 00 00 00 00 00 00 00 00 00 00 00 00 00 00 00 ................
00408B50 00 00 00 00 00 00 00 00 00 00 00 00 00 00 00 00 ................
00408B60 00 00 00 00 00 00 00 00 00 00 00 00 00 00 00 00 ................
00408B70 00 00 00 00 00 00 00 00 00 00 00 00 00 00 00 00 ................
00408B80 00 00 00 00 00 00 00 00 00 00 00 00 00 00 00 00 ................
00408B90 00 00 00 00 00 00 00 00 00 00 00 00 00 00 00 00 ................
00408BA0 00 00 00 00 00 00 00 00 00 00 00 00 00 00 00 00 ................
00408BB0 00 00 00 00 00 00 00 00 00 00 00 00 00 00 00 00 ................
00408BC0 00 00 00 00 00 00 00 00 00 00 00 00 00 00 00 00 ................
00408BD0 00 00 00 00 00 00 00 00 00 00 00 00 00 00 00 00 ................
00408BE0 00 00 00 00 00 00 00 00 00 00 00 00 00 00 00 00 ................
00408BF0 00 00 00 00 00 00 00 00 00 00 00 00 00 00 00 00 ................
00408C00 00 00 00 00 00 00 00 00 00 00 00 00 00 00 00 00 ................
00408C10 00 00 00 00 00 00 00 00 00 00 00 00 00 00 00 00 ................
00408C20 00 00 00 00 00 00 00 00 00 00 00 00 00 00 00 00 ................
00408C30 00 00 00 00 00 00 00 00 00 00 00 00 00 00 00 00 ................
00408C40 00 00 00 00 00 00 00 00 00 00 00 00 00 00 00 00 ................
00408C50 00 00 00 00 00 00 00 00 00 00 00 00 00 00 00 00 ................
00408C60 00 00 00 00 00 00 00 00 00 00 00 00 00 00 00 00 ................
00408C70 00 00 00 00 00 00 00 00 00 00 00 00 00 00 00 00 ................
00408C80 00 00 00 00 00 00 00 00 00 00 00 00 00 00 00 00 ................
00408C90 00 00 00 00 00 00 00 00 00 00 00 00 00 00 00 00 ................
00408CA0 00 00 00 00 00 00 00 00 00 00 00 00 00 00 00 00 ................
00408CB0 00 00 00 00 00 00 00 00 00 00 00 00 00 00 00 00 ................
00408CC0 00 00 00 00 00 00 00 00 00 00 00 00 00 00 00 00 ................
00408CD0 00 00 00 00 00 00 00 00 00 00 00 00 00 00 00 00 ................
00408CE0 00 00 00 00 00 00 00 00 00 00 00 00 00 00 00 00 ................
00408CF0 00 00 00 00 00 00 00 00 00 00 00 00 00 00 00 00 ................
00408D00 00 00 00 00 00 00 00 00 00 00 00 00 00 00 00 00 ................
00408D10 00 00 00 00 00 00 00 00 00 00 00 00 00 00 00 00 ................
00408D20 00 00 00 00 00 00 00 00 00 00 00 00 00 00 00 00 ................
00408D30 00 00 00 00 00 00 00 00 00 00 00 00 00 00 00 00 ................
00408D40 00 00 00 00 00 00 00 00 00 00 00 00 00 00 00 00 ................
00408D50 00 00 00 00 00 00 00 00 00 00 00 00 00 00 00 00 ................
00408D60 00 00 00 00 00 00 00 00 00 00 00 00 00 00 00 00 ................
00408D70 00 00 00 00 00 00 00 00 00 00 00 00 00 00 00 00 ................
00408D80 00 00 00 00 00 00 00 00 00 00 00 00 00 00 00 00 ................
00408D90 00 00 00 00 00 00 00 00 00 00 00 00 00 00 00 00 ................
00408DA0 00 00 00 00 00 00 00 00 00 00 00 00 00 00 00 00 ................
00408DB0 00 00 00 00 00 00 00 00 00 00 00 00 00 00 00 00 ................
00408DC0 00 00 00 00 00 00 00 00 00 00 00 00 00 00 00 00 ................
00408DD0 00 00 00 00 00 00 00 00 00 00 00 00 00 00 00 00 ................
00408DE0 00 00 00 00 00 00 00 00 00 00 00 00 00 00 00 00 ................
00408DF0 00 00 00 00 00 00 00 00 00 00 00 00 00 00 00 00 ................
00408E00 00 00 00 00 00 00 00 00 00 00 00 00 00 00 00 00 ................
00408E10 00 00 00 00 00 00 00 00 00 00 00 00 00 00 00 00 ................
00408E20 00 00 00 00 00 00 00 00 00 00 00 00 00 00 00 00 ................
00408E30 00 00 00 00 00 00 00 00 00 00 00 00 00 00 00 00 ................
00408E40 00 00 00 00 00 00 00 00 00 00 00 00 00 00 00 00 ................
00408E50 00 00 00 00 00 00 00 00 00 00 00 00 00 00 00 00 ................
00408E60 00 00 00 00 00 00 00 00 00 00 00 00 00 00 00 00 ................
00408E70 00 00 00 00 00 00 00 00 00 00 00 00 00 00 00 00 ................
00408E80 00 00 00 00 00 00 00 00 00 00 00 00 00 00 00 00 ................
00408E90 00 00 00 00 00 00 00 00 00 00 00 00 00 00 00 00 ................
00408EA0 00 00 00 00 00 00 00 00 00 00 00 00 00 00 00 00 ................
00408EB0 00 00 00 00 00 00 00 00 00 00 00 00 00 00 00 00 ................
00408EC0 00 00 00 00 00 00 00 00 00 00 00 00 00 00 00 00 ................
00408ED0 00 00 00 00 00 00 00 00 00 00 00 00 00 00 00 00 ................
00408EE0 00 00 00 00 00 00 00 00 00 00 00 00 00 00 00 00 ................
00408EF0 00 00 00 00 00 00 00 00 00 00 00 00 00 00 00 00 ................
00408F00 00 00 00 00 00 00 00 00 00 00 00 00 00 00 00 00 ................
00408F10 00 00 00 00 00 00 00 00 00 00 00 00 00 00 00 00 ................
00408F20 00 00 00 00 00 00 00 00 00 00 00 00 00 00 00 00 ................
00408F30 00 00 00 00 00 00 00 00 00 00 00 00 00 00 00 00 ................
00408F40 00 00 00 00 00 00 00 00 00 00 00 00 00 00 00 00 ................
00408F50 00 00 00 00 00 00 00 00 00 00 00 00 00 00 00 00 ................
00408F60 00 00 00 00 00 00 00 00 00 00 00 00 00 00 00 00 ................
00408F70 00 00 00 00 00 00 00 00 00 00 00 00 00 00 00 00 ................
00408F80 00 00 00 00 00 00 00 00 00 00 00 00 00 00 00 00 ................
00408F90 00 00 00 00 00 00 00 00 00 00 00 00 00 00 00 00 ................
00408FA0 00 00 00 00 00 00 00 00 00 00 00 00 00 00 00 00 ................
00408FB0 00 00 00 00 00 00 00 00 00 00 00 00 00 00 00 00 ................
00408FC0 00 00 00 00 00 00 00 00 00 00 00 00 00 00 00 00 ................
00408FD0 00 00 00 00 00 00 00 00 00 00 00 00 00 00 00 00 ................
00408FE0 00 00 00 00 00 00 00 00 00 00 00 00 00 00 00 00 ................
00408FF0 00 00 00 00 00 00 00 00 00 00 00 00 00 00 00 00 ................
00409000 00 00 00 00 00 00 00 00 00 00 00 00 00 00 00 00 ................
00409010 00 00 00 00 00 00 00 00 00 00 00 00 00 00 00 00 ................
00409020 00 00 00 00 00 00 00 00 00 00 00 00 00 00 00 00 ................
00409030 00 00 00 00 00 00 00 00 00 00 00 00 00 00 00 00 ................
00409040 00 00 00 00 00 00 00 00 00 00 00 00 00 00 00 00 ................
00409050 00 00 00 00 00 00 00 00 00 00 00 00 00 00 00 00 ................
00409060 00 00 00 00 00 00 00 00 00 00 00 00 00 00 00 00 ................
00409070 00 00 00 00 00 00 00 00 00 00 00 00 00 00 00 00 ................
00409080 00 00 00 00 00 00 00 00 00 00 00 00 00 00 00 00 ................
00409090 00 00 00 00 00 00 00 00 00 00 00 00 00 00 00 00 ................
004090A0 00 00 00 00 00 00 00 00 00 00 00 00 00 00 00 00 ................
004090B0 00 00 00 00 00 00 00 00 00 00 00 00 00 00 00 00 ................
004090C0 00 00 00 00 00 00 00 00 00 00 00 00 00 00 00 00 ................
004090D0 00 00 00 00 00 00 00 00 00 00 00 00 00 00 00 00 ................
004090E0 00 00 00 00 00 00 00 00 00 00 00 00 00 00 00 00 ................
004090F0 00 00 00 00 00 00 00 00 00 00 00 00 00 00 00 00 ................
00409100 00 00 00 00 00 00 00 00 00 00 00 00 00 00 00 00 ................
00409110 00 00 00 00 00 00 00 00 00 00 00 00 00 00 00 00 ................
00409120 00 00 00 00 00 00 00 00 00 00 00 00 00 00 00 00 ................
00409130 00 00 00 00 00 00 00 00 00 00 00 00 00 00 00 00 ................
00409140 00 00 00 00 00 00 00 00 00 00 00 00 00 00 00 00 ................
00409150 00 00 00 00 00 00 00 00 00 00 00 00 00 00 00 00 ................
00409160 00 00 00 00 00 00 00 00 00 00 00 00 00 00 00 00 ................
00409170 00 00 00 00 00 00 00 00 00 00 00 00 00 00 00 00 ................
00409180 00 00 00 00 00 00 00 00 00 00 00 00 00 00 00 00 ................
00409190 00 00 00 00 00 00 00 00 00 00 00 00 00 00 00 00 ................
004091A0 00 00 00 00 00 00 00 00 00 00 00 00 00 00 00 00 ................
004091B0 00 00 00 00 00 00 00 00 00 00 00 00 00 00 00 00 ................
004091C0 00 00 00 00 00 00 00 00 00 00 00 00 00 00 00 00 ................
004091D0 00 00 00 00 00 00 00 00 00 00 00 00 00 00 00 00 ................
004091E0 00 00 00 00 00 00 00 00 00 00 00 00 00 00 00 00 ................
004091F0 00 00 00 00 00 00 00 00 00 00 00 00 00 00 00 00 ................
00409200 00 00 00 00 00 00 00 00 00 00 00 00 00 00 00 00 ................
00409210 00 00 00 00 00 00 00 00 00 00 00 00 00 00 00 00 ................
00409220 00 00 00 00 00 00 00 00 00 00 00 00 00 00 00 00 ................
00409230 00 00 00 00 00 00 00 00 00 00 00 00 00 00 00 00 ................
00409240 00 00 00 00 00 00 00 00 00 00 00 00 00 00 00 00 ................
00409250 00 00 00 00 00 00 00 00 00 00 00 00 00 00 00 00 ................
00409260 00 00 00 00 00 00 00 00 00 00 00 00 00 00 00 00 ................
00409270 00 00 00 00 00 00 00 00 00 00 00 00 00 00 00 00 ................
00409280 00 00 00 00 00 00 00 00 00 00 00 00 00 00 00 00 ................
00409290 00 00 00 00 00 00 00 00 00 00 00 00 00 00 00 00 ................
004092A0 00 00 00 00 00 00 00 00 00 00 00 00 00 00 00 00 ................
004092B0 00 00 00 00 00 00 00 00 00 00 00 00 00 00 00 00 ................
004092C0 00 00 00 00 00 00 00 00 00 00 00 00 00 00 00 00 ................
004092D0 00 00 00 00 00 00 00 00 00 00 00 00 00 00 00 00 ................
004092E0 00 00 00 00 00 00 00 00 00 00 00 00 00 00 00 00 ................
004092F0 00 00 00 00 00 00 00 00 00 00 00 00 00 00 00 00 ................
00409300 00 00 00 00 00 00 00 00 00 00 00 00 00 00 00 00 ................
00409310 00 00 00 00 00 00 00 00 00 00 00 00 00 00 00 00 ................
00409320 00 00 00 00 00 00 00 00 00 00 00 00 00 00 00 00 ................
00409330 00 00 00 00 00 00 00 00 00 00 00 00 00 00 00 00 ................
00409340 00 00 00 00 00 00 00 00 00 00 00 00 00 00 00 00 ................
00409350 00 00 00 00 00 00 00 00 00 00 00 00 00 00 00 00 ................
00409360 00 00 00 00 00 00 00 00 00 00 00 00 00 00 00 00 ................
00409370 00 00 00 00 00 00 00 00 00 00 00 00 00 00 00 00 ................
00409380 00 00 00 00 00 00 00 00 00 00 00 00 00 00 00 00 ................
00409390 00 00 00 00 00 00 00 00 00 00 00 00 00 00 00 00 ................
004093A0 00 00 00 00 00 00 00 00 00 00 00 00 00 00 00 00 ................
004093B0 00 00 00 00 00 00 00 00 00 00 00 00 00 00 00 00 ................
004093C0 00 00 00 00 00 00 00 00 00 00 00 00 00 00 00 00 ................
004093D0 00 00 00 00 00 00 00 00 00 00 00 00 00 00 00 00 ................
004093E0 00 00 00 00 00 00 00 00 00 00 00 00 00 00 00 00 ................
004093F0 00 00 00 00 00 00 00 00 00 00 00 00 00 00 00 00 ................
00409400 00 00 00 00 00 00 00 00 00 00 00 00 00 00 00 00 ................
00409410 00 00 00 00 00 00 00 00 00 00 00 00 00 00 00 00 ................
00409420 00 00 00 00 00 00 00 00 00 00 00 00 00 00 00 00 ................
00409430 00 00 00 00 00 00 00 00 00 00 00 00 00 00 00 00 ................
00409440 00 00 00 00 00 00 00 00 00 00 00 00 00 00 00 00 ................
00409450 00 00 00 00 00 00 00 00 00 00 00 00 00 00 00 00 ................
00409460 00 00 00 00 00 00 00 00 00 00 00 00 00 00 00 00 ................
00409470 00 00 00 00 00 00 00 00 00 00 00 00 00 00 00 00 ................
00409480 00 00 00 00 00 00 00 00 00 00 00 00 00 00 00 00 ................
00409490 00 00 00 00 00 00 00 00 00 00 00 00 00 00 00 00 ................
004094A0 00 00 00 00 00 00 00 00 00 00 00 00 00 00 00 00 ................
004094B0 00 00 00 00 00 00 00 00 00 00 00 00 00 00 00 00 ................
004094C0 00 00 00 00 00 00 00 00 00 00 00 00 00 00 00 00 ................
004094D0 00 00 00 00 00 00 00 00 00 00 00 00 00 00 00 00 ................
004094E0 00 00 00 00 00 00 00 00 00 00 00 00 00 00 00 00 ................
004094F0 00 00 00 00 00 00 00 00 00 00 00 00 00 00 00 00 ................
00409500 00 00 00 00 00 00 00 00 00 00 00 00 00 00 00 00 ................
00409510 00 00 00 00 00 00 00 00 00 00 00 00 00 00 00 00 ................
00409520 00 00 00 00 00 00 00 00 00 00 00 00 00 00 00 00 ................
00409530 00 00 00 00 00 00 00 00 00 00 00 00 00 00 00 00 ................
00409540 00 00 00 00 00 00 00 00 00 00 00 00 00 00 00 00 ................
00409550 00 00 00 00 00 00 00 00 00 00 00 00 00 00 00 00 ................
00409560 00 00 00 00 00 00 00 00 00 00 00 00 00 00 00 00 ................
00409570 00 00 00 00 00 00 00 00 00 00 00 00 00 00 00 00 ................
00409580 00 00 00 00 00 00 00 00 00 00 00 00 00 00 00 00 ................
00409590 00 00 00 00 00 00 00 00 00 00 00 00 00 00 00 00 ................
004095A0 00 00 00 00 00 00 00 00 00 00 00 00 00 00 00 00 ................
004095B0 00 00 00 00 00 00 00 00 00 00 00 00 00 00 00 00 ................
004095C0 00 00 00 00 00 00 00 00 00 00 00 00 00 00 00 00 ................
004095D0 00 00 00 00 00 00 00 00 00 00 00 00 00 00 00 00 ................
004095E0 00 00 00 00 00 00 00 00 00 00 00 00 00 00 00 00 ................
004095F0 00 00 00 00 00 00 00 00 00 00 00 00 00 00 00 00 ................
00409600 00 00 00 00 00 00 00 00 00 00 00 00 00 00 00 00 ................
00409610 00 00 00 00 00 00 00 00 00 00 00 00 00 00 00 00 ................
00409620 00 00 00 00 00 00 00 00 00 00 00 00 00 00 00 00 ................
00409630 00 00 00 00 00 00 00 00 00 00 00 00 00 00 00 00 ................
00409640 00 00 00 00 00 00 00 00 00 00 00 00 00 00 00 00 ................
00409650 00 00 00 00 00 00 00 00 00 00 00 00 00 00 00 00 ................
00409660 00 00 00 00 00 00 00 00 00 00 00 00 00 00 00 00 ................
00409670 00 00 00 00 00 00 00 00 00 00 00 00 00 00 00 00 ................
00409680 00 00 00 00 00 00 00 00 00 00 00 00 00 00 00 00 ................
00409690 00 00 00 00 00 00 00 00 00 00 00 00 00 00 00 00 ................
004096A0 00 00 00 00 00 00 00 00 00 00 00 00 00 00 00 00 ................
004096B0 00 00 00 00 00 00 00 00 00 00 00 00 00 00 00 00 ................
004096C0 00 00 00 00 00 00 00 00 00 00 00 00 00 00 00 00 ................
004096D0 00 00 00 00 00 00 00 00 00 00 00 00 00 00 00 00 ................
004096E0 00 00 00 00 00 00 00 00 00 00 00 00 00 00 00 00 ................
004096F0 00 00 00 00 00 00 00 00 00 00 00 00 00 00 00 00 ................
00409700 00 00 00 00 00 00 00 00 00 00 00 00 00 00 00 00 ................
00409710 00 00 00 00 00 00 00 00 00 00 00 00 00 00 00 00 ................
00409720 00 00 00 00 00 00 00 00 00 00 00 00 00 00 00 00 ................
00409730 00 00 00 00 00 00 00 00 00 00 00 00 00 00 00 00 ................
00409740 00 00 00 00 00 00 00 00 00 00 00 00 00 00 00 00 ................
00409750 00 00 00 00 00 00 00 00 00 00 00 00 00 00 00 00 ................
00409760 00 00 00 00 00 00 00 00 00 00 00 00 00 00 00 00 ................
00409770 00 00 00 00 00 00 00 00 00 00 00 00 00 00 00 00 ................
00409780 00 00 00 00 00 00 00 00 00 00 00 00 00 00 00 00 ................
00409790 00 00 00 00 00 00 00 00 00 00 00 00 00 00 00 00 ................
004097A0 00 00 00 00 00 00 00 00 00 00 00 00 00 00 00 00 ................
004097B0 00 00 00 00 00 00 00 00 00 00 00 00 00 00 00 00 ................
004097C0 00 00 00 00 00 00 00 00 00 00 00 00 00 00 00 00 ................
004097D0 00 00 00 00 00 00 00 00 00 00 00 00 00 00 00 00 ................
004097E0 00 00 00 00 00 00 00 00 00 00 00 00 00 00 00 00 ................
004097F0 00 00 00 00 00 00 00 00 00 00 00 00 00 00 00 00 ................
00409800 00 00 00 00 00 00 00 00 00 00 00 00 00 00 00 00 ................
00409810 00 00 00 00 00 00 00 00 00 00 00 00 00 00 00 00 ................
00409820 00 00 00 00 00 00 00 00 00 00 00 00 00 00 00 00 ................
00409830 00 00 00 00 00 00 00 00 00 00 00 00 00 00 00 00 ................
00409840 00 00 00 00 00 00 00 00 00 00 00 00 00 00 00 00 ................
00409850 00 00 00 00 00 00 00 00 00 00 00 00 00 00 00 00 ................
00409860 00 00 00 00 00 00 00 00 00 00 00 00 00 00 00 00 ................
00409870 00 00 00 00 00 00 00 00 00 00 00 00 00 00 00 00 ................
00409880 00 00 00 00 00 00 00 00 00 00 00 00 00 00 00 00 ................
00409890 00 00 00 00 00 00 00 00 00 00 00 00 00 00 00 00 ................
004098A0 00 00 00 00 00 00 00 00 00 00 00 00 00 00 00 00 ................
004098B0 00 00 00 00 00 00 00 00 00 00 00 00 00 00 00 00 ................
004098C0 00 00 00 00 00 00 00 00 00 00 00 00 00 00 00 00 ................
004098D0 00 00 00 00 00 00 00 00 00 00 00 00 00 00 00 00 ................
004098E0 00 00 00 00 00 00 00 00 00 00 00 00 00 00 00 00 ................
004098F0 00 00 00 00 00 00 00 00 00 00 00 00 00 00 00 00 ................
00409900 00 00 00 00 00 00 00 00 00 00 00 00 00 00 00 00 ................
00409910 00 00 00 00 00 00 00 00 00 00 00 00 00 00 00 00 ................
00409920 00 00 00 00 00 00 00 00 00 00 00 00 00 00 00 00 ................
00409930 00 00 00 00 00 00 00 00 00 00 00 00 00 00 00 00 ................
00409940 00 00 00 00 00 00 00 00 00 00 00 00 00 00 00 00 ................
00409950 00 00 00 00 00 00 00 00 00 00 00 00 00 00 00 00 ................
00409960 00 00 00 00 00 00 00 00 00 00 00 00 00 00 00 00 ................
00409970 00 00 00 00 00 00 00 00 00 00 00 00 00 00 00 00 ................
00409980 00 00 00 00 00 00 00 00 00 00 00 00 00 00 00 00 ................
00409990 00 00 00 00 00 00 00 00 00 00 00 00 00 00 00 00 ................
004099A0 00 00 00 00 00 00 00 00 00 00 00 00 00 00 00 00 ................
004099B0 00 00 00 00 00 00 00 00 00 00 00 00 00 00 00 00 ................
004099C0 00 00 00 00 00 00 00 00 00 00 00 00 00 00 00 00 ................
004099D0 00 00 00 00 00 00 00 00 00 00 00 00 00 00 00 00 ................
004099E0 00 00 00 00 00 00 00 00 00 00 00 00 00 00 00 00 ................
004099F0 00 00 00 00 00 00 00 00 00 00 00 00 00 00 00 00 ................
00409A00 00 00 00 00 00 00 00 00 00 00 00 00 00 00 00 00 ................
00409A10 00 00 00 00 00 00 00 00 00 00 00 00 00 00 00 00 ................
00409A20 00 00 00 00 00 00 00 00 00 00 00 00 00 00 00 00 ................
00409A30 00 00 00 00 00 00 00 00 00 00 00 00 00 00 00 00 ................
00409A40 00 00 00 00 00 00 00 00 00 00 00 00 00 00 00 00 ................
00409A50 00 00 00 00 00 00 00 00 00 00 00 00 00 00 00 00 ................
00409A60 00 00 00 00 00 00 00 00 00 00 00 00 00 00 00 00 ................
00409A70 00 00 00 00 00 00 00 00 00 00 00 00 00 00 00 00 ................
00409A80 00 00 00 00 00 00 00 00 00 00 00 00 00 00 00 00 ................
00409A90 00 00 00 00 00 00 00 00 00 00 00 00 00 00 00 00 ................
00409AA0 00 00 00 00 00 00 00 00 00 00 00 00 00 00 00 00 ................
00409AB0 00 00 00 00 00 00 00 00 00 00 00 00 00 00 00 00 ................
00409AC0 00 00 00 00 00 00 00 00 00 00 00 00 00 00 00 00 ................
00409AD0 00 00 00 00 00 00 00 00 00 00 00 00 00 00 00 00 ................
00409AE0 00 00 00 00 00 00 00 00 00 00 00 00 00 00 00 00 ................
00409AF0 00 00 00 00 00 00 00 00 00 00 00 00 00 00 00 00 ................
00409B00 00 00 00 00 00 00 00 00 00 00 00 00 00 00 00 00 ................
00409B10 00 00 00 00 00 00 00 00 00 00 00 00 00 00 00 00 ................
00409B20 00 00 00 00 00 00 00 00 00 00 00 00 00 00 00 00 ................
00409B30 00 00 00 00 00 00 00 00 00 00 00 00 00 00 00 00 ................
00409B40 00 00 00 00 00 00 00 00 00 00 00 00 00 00 00 00 ................
00409B50 00 00 00 00 00 00 00 00 00 00 00 00 00 00 00 00 ................
00409B60 00 00 00 00 00 00 00 00 00 00 00 00 00 00 00 00 ................
00409B70 00 00 00 00 00 00 00 00 00 00 00 00 00 00 00 00 ................
00409B80 00 00 00 00 00 00 00 00 00 00 00 00 00 00 00 00 ................
00409B90 00 00 00 00 00 00 00 00 00 00 00 00 00 00 00 00 ................
00409BA0 00 00 00 00 00 00 00 00 00 00 00 00 00 00 00 00 ................
00409BB0 00 00 00 00 00 00 00 00 00 00 00 00 00 00 00 00 ................
00409BC0 00 00 00 00 00 00 00 00 00 00 00 00 00 00 00 00 ................
00409BD0 00 00 00 00 00 00 00 00 00 00 00 00 00 00 00 00 ................
00409BE0 00 00 00 00 00 00 00 00 00 00 00 00 00 00 00 00 ................
00409BF0 00 00 00 00 00 00 00 00 00 00 00 00 00 00 00 00 ................
00409C00 00 00 00 00 00 00 00 00 00 00 00 00 00 00 00 00 ................
00409C10 00 00 00 00 00 00 00 00 00 00 00 00 00 00 00 00 ................
00409C20 00 00 00 00 00 00 00 00 00 00 00 00 00 00 00 00 ................
00409C30 00 00 00 00 00 00 00 00 00 00 00 00 00 00 00 00 ................
00409C40 00 00 00 00 00 00 00 00 00 00 00 00 00 00 00 00 ................
00409C50 00 00 00 00 00 00 00 00 00 00 00 00 00 00 00 00 ................
00409C60 00 00 00 00 00 00 00 00 00 00 00 00 00 00 00 00 ................
00409C70 00 00 00 00 00 00 00 00 00 00 00 00 00 00 00 00 ................
00409C80 00 00 00 00 00 00 00 00 00 00 00 00 00 00 00 00 ................
00409C90 00 00 00 00 00 00 00 00 00 00 00 00 00 00 00 00 ................
00409CA0 00 00 00 00 00 00 00 00 00 00 00 00 00 00 00 00 ................
00409CB0 00 00 00 00 00 00 00 00 00 00 00 00 00 00 00 00 ................
00409CC0 00 00 00 00 00 00 00 00 00 00 00 00 00 00 00 00 ................
00409CD0 00 00 00 00 00 00 00 00 00 00 00 00 00 00 00 00 ................
00409CE0 00 00 00 00 00 00 00 00 00 00 00 00 00 00 00 00 ................
00409CF0 00 00 00 00 00 00 00 00 00 00 00 00 00 00 00 00 ................
00409D00 00 00 00 00 00 00 00 00 00 00 00 00 00 00 00 00 ................
00409D10 00 00 00 00 00 00 00 00 00 00 00 00 00 00 00 00 ................
00409D20 00 00 00 00 00 00 00 00 00 00 00 00 00 00 00 00 ................
00409D30 00 00 00 00 00 00 00 00 00 00 00 00 00 00 00 00 ................
00409D40 00 00 00 00 00 00 00 00 00 00 00 00 00 00 00 00 ................
00409D50 00 00 00 00 00 00 00 00 00 00 00 00 00 00 00 00 ................
00409D60 00 00 00 00 00 00 00 00 00 00 00 00 00 00 00 00 ................
00409D70 00 00 00 00 00 00 00 00 00 00 00 00 00 00 00 00 ................
00409D80 00 00 00 00 00 00 00 00 00 00 00 00 00 00 00 00 ................
00409D90 00 00 00 00 00 00 00 00 00 00 00 00 00 00 00 00 ................
00409DA0 00 00 00 00 00 00 00 00 00 00 00 00 00 00 00 00 ................
00409DB0 00 00 00 00 00 00 00 00 00 00 00 00 00 00 00 00 ................
00409DC0 00 00 00 00 00 00 00 00 00 00 00 00 00 00 00 00 ................
00409DD0 00 00 00 00 00 00 00 00 00 00 00 00 00 00 00 00 ................
00409DE0 00 00 00 00 00 00 00 00 00 00 00 00 00 00 00 00 ................
00409DF0 00 00 00 00 00 00 00 00 00 00 00 00 00 00 00 00 ................
00409E00 00 00 00 00 00 00 00 00 00 00 00 00 00 00 00 00 ................
00409E10 00 00 00 00 00 00 00 00 00 00 00 00 00 00 00 00 ................
00409E20 00 00 00 00 00 00 00 00 00 00 00 00 00 00 00 00 ................
00409E30 00 00 00 00 00 00 00 00 00 00 00 00 00 00 00 00 ................
00409E40 00 00 00 00 00 00 00 00 00 00 00 00 00 00 00 00 ................
00409E50 00 00 00 00 00 00 00 00 00 00 00 00 00 00 00 00 ................
00409E60 00 00 00 00 00 00 00 00 00 00 00 00 00 00 00 00 ................
00409E70 00 00 00 00 00 00 00 00 00 00 00 00 00 00 00 00 ................
00409E80 00 00 00 00 00 00 00 00 00 00 00 00 00 00 00 00 ................
00409E90 00 00 00 00 00 00 00 00 00 00 00 00 00 00 00 00 ................
00409EA0 00 00 00 00 00 00 00 00 00 00 00 00 00 00 00 00 ................
00409EB0 00 00 00 00 00 00 00 00 00 00 00 00 00 00 00 00 ................
00409EC0 00 00 00 00 00 00 00 00 00 00 00 00 00 00 00 00 ................
00409ED0 00 00 00 00 00 00 00 00 00 00 00 00 00 00 00 00 ................
00409EE0 00 00 00 00 00 00 00 00 00 00 00 00 00 00 00 00 ................
00409EF0 00 00 00 00 00 00 00 00 00 00 00 00 00 00 00 00 ................
00409F00 00 00 00 00 00 00 00 00 00 00 00 00 00 00 00 00 ................
00409F10 00 00 00 00 00 00 00 00 00 00 00 00 00 00 00 00 ................
00409F20 00 00 00 00 00 00 00 00 00 00 00 00 00 00 00 00 ................
00409F30 00 00 00 00 00 00 00 00 00 00 00 00 00 00 00 00 ................
00409F40 00 00 00 00 00 00 00 00 00 00 00 00 00 00 00 00 ................
00409F50 00 00 00 00 00 00 00 00 00 00 00 00 00 00 00 00 ................
00409F60 00 00 00 00 00 00 00 00 00 00 00 00 00 00 00 00 ................
00409F70 00 00 00 00 00 00 00 00 00 00 00 00 00 00 00 00 ................
00409F80 00 00 00 00 00 00 00 00 00 00 00 00 00 00 00 00 ................
00409F90 00 00 00 00 00 00 00 00 00 00 00 00 00 00 00 00 ................
00409FA0 00 00 00 00 00 00 00 00 00 00 00 00 00 00 00 00 ................
00409FB0 00 00 00 00 00 00 00 00 00 00 00 00 00 00 00 00 ................
00409FC0 00 00 00 00 00 00 00 00 00 00 00 00 00 00 00 00 ................
00409FD0 00 00 00 00 00 00 00 00 00 00 00 00 00 00 00 00 ................
00409FE0 00 00 00 00 00 00 00 00 00 00 00 00 00 00 00 00 ................
00409FF0 00 00 00 00 00 00 00 00 00 00 00 00 00 00 00 00 ................
0040A000 00 00 00 00 00 00 00 00 00 00 00 00 00 00 00 00 ................
0040A010 00 00 00 00 00 00 00 00 00 00 00 00 00 00 00 00 ................
0040A020 00 00 00 00 00 00 00 00 00 00 00 00 00 00 00 00 ................
0040A030 00 00 00 00 00 00 00 00 00 00 00 00 00 00 00 00 ................
0040A040 00 00 00 00 00 00 00 00 00 00 00 00 00 00 00 00 ................
0040A050 00 00 00 00 00 00 00 00 00 00 00 00 00 00 00 00 ................
0040A060 00 00 00 00 00 00 00 00 00 00 00 00 00 00 00 00 ................
0040A070 00 00 00 00 00 00 00 00 00 00 00 00 00 00 00 00 ................
0040A080 00 00 00 00 00 00 00 00 00 00 00 00 00 00 00 00 ................
0040A090 00 00 00 00 00 00 00 00 00 00 00 00 00 00 00 00 ................
0040A0A0 00 00 00 00 00 00 00 00 00 00 00 00 00 00 00 00 ................
0040A0B0 00 00 00 00 00 00 00 00 00 00 00 00 00 00 00 00 ................
0040A0C0 00 00 00 00 00 00 00 00 00 00 00 00 00 00 00 00 ................
0040A0D0 00 00 00 00 00 00 00 00 00 00 00 00 00 00 00 00 ................
0040A0E0 00 00 00 00 00 00 00 00 00 00 00 00 00 00 00 00 ................
0040A0F0 00 00 00 00 00 00 00 00 00 00 00 00 00 00 00 00 ................
0040A100 00 00 00 00 00 00 00 00 00 00 00 00 00 00 00 00 ................
0040A110 00 00 00 00 00 00 00 00 00 00 00 00 00 00 00 00 ................
0040A120 00 00 00 00 00 00 00 00 00 00 00 00 00 00 00 00 ................
0040A130 00 00 00 00 00 00 00 00 00 00 00 00 00 00 00 00 ................
0040A140 00 00 00 00 00 00 00 00 00 00 00 00 00 00 00 00 ................
0040A150 00 00 00 00 00 00 00 00 00 00 00 00 00 00 00 00 ................
0040A160 00 00 00 00 00 00 00 00 00 00 00 00 00 00 00 00 ................
0040A170 00 00 00 00 00 00 00 00 00 00 00 00 00 00 00 00 ................
0040A180 00 00 00 00 00 00 00 00 00 00 00 00 00 00 00 00 ................
0040A190 00 00 00 00 00 00 00 00 00 00 00 00 00 00 00 00 ................
0040A1A0 00 00 00 00 00 00 00 00 00 00 00 00 00 00 00 00 ................
0040A1B0 00 00 00 00 00 00 00 00 00 00 00 00 00 00 00 00 ................
0040A1C0 00 00 00 00 00 00 00 00 00 00 00 00 00 00 00 00 ................
0040A1D0 00 00 00 00 00 00 00 00 00 00 00 00 00 00 00 00 ................
0040A1E0 00 00 00 00 00 00 00 00 00 00 00 00 00 00 00 00 ................
0040A1F0 00 00 00 00 00 00 00 00 00 00 00 00 00 00 00 00 ................
0040A200 00 00 00 00 00 00 00 00 00 00 00 00 00 00 00 00 ................
0040A210 00 00 00 00 00 00 00 00 00 00 00 00 00 00 00 00 ................
0040A220 00 00 00 00 00 00 00 00 00 00 00 00 00 00 00 00 ................
0040A230 00 00 00 00 00 00 00 00 00 00 00 00 00 00 00 00 ................
0040A240 00 00 00 00 00 00 00 00 00 00 00 00 00 00 00 00 ................
0040A250 00 00 00 00 00 00 00 00 00 00 00 00 00 00 00 00 ................
0040A260 00 00 00 00 00 00 00 00 00 00 00 00 00 00 00 00 ................
0040A270 00 00 00 00 00 00 00 00 00 00 00 00 00 00 00 00 ................
0040A280 00 00 00 00 00 00 00 00 00 00 00 00 00 00 00 00 ................
0040A290 00 00 00 00 00 00 00 00 00 00 00 00 00 00 00 00 ................
0040A2A0 00 00 00 00 00 00 00 00 00 00 00 00 00 00 00 00 ................
0040A2B0 00 00 00 00 00 00 00 00 00 00 00 00 00 00 00 00 ................
0040A2C0 00 00 00 00 00 00 00 00 00 00 00 00 00 00 00 00 ................
0040A2D0 00 00 00 00 00 00 00 00 00 00 00 00 00 00 00 00 ................
0040A2E0 00 00 00 00 00 00 00 00 00 00 00 00 00 00 00 00 ................
0040A2F0 00 00 00 00 00 00 00 00 00 00 00 00 00 00 00 00 ................
0040A300 00 00 00 00 00 00 00 00 00 00 00 00 00 00 00 00 ................
0040A310 00 00 00 00 00 00 00 00 00 00 00 00 00 00 00 00 ................
0040A320 00 00 00 00 00 00 00 00 00 00 00 00 00 00 00 00 ................
0040A330 00 00 00 00 00 00 00 00 00 00 00 00 00 00 00 00 ................
0040A340 00 00 00 00 00 00 00 00 00 00 00 00 00 00 00 00 ................
0040A350 00 00 00 00 00 00 00 00 00 00 00 00 00 00 00 00 ................
0040A360 00 00 00 00 00 00 00 00 00 00 00 00 00 00 00 00 ................
0040A370 00 00 00 00 00 00 00 00 00 00 00 00 00 00 00 00 ................
0040A380 00 00 00 00 00 00 00 00 00 00 00 00 00 00 00 00 ................
0040A390 00 00 00 00 00 00 00 00 00 00 00 00 00 00 00 00 ................
0040A3A0 00 00 00 00 00 00 00 00 00 00 00 00 00 00 00 00 ................
0040A3B0 00 00 00 00 00 00 00 00 00 00 00 00 00 00 00 00 ................
0040A3C0 00 00 00 00 00 00 00 00 00 00 00 00 00 00 00 00 ................
0040A3D0 00 00 00 00 00 00 00 00 00 00 00 00 00 00 00 00 ................
0040A3E0 00 00 00 00 00 00 00 00 00 00 00 00 00 00 00 00 ................
0040A3F0 00 00 00 00 00 00 00 00 00 00 00 00 00 00 00 00 ................
0040A400 00 00 00 00 00 00 00 00 00 00 00 00 00 00 00 00 ................
0040A410 00 00 00 00 00 00 00 00 00 00 00 00 00 00 00 00 ................
0040A420 00 00 00 00 00 00 00 00 00 00 00 00 00 00 00 00 ................
0040A430 00 00 00 00 00 00 00 00 00 00 00 00 00 00 00 00 ................
0040A440 00 00 00 00 00 00 00 00 00 00 00 00 00 00 00 00 ................
0040A450 00 00 00 00 00 00 00 00 00 00 00 00 00 00 00 00 ................
0040A460 00 00 00 00 00 00 00 00 00 00 00 00 00 00 00 00 ................
0040A470 00 00 00 00 00 00 00 00 00 00 00 00 00 00 00 00 ................
0040A480 00 00 00 00 00 00 00 00 00 00 00 00 00 00 00 00 ................
0040A490 00 00 00 00 00 00 00 00 00 00 00 00 00 00 00 00 ................
0040A4A0 00 00 00 00 00 00 00 00 00 00 00 00 00 00 00 00 ................
0040A4B0 00 00 00 00 00 00 00 00 00 00 00 00 00 00 00 00 ................
0040A4C0 00 00 00 00 00 00 00 00 00 00 00 00 00 00 00 00 ................
0040A4D0 00 00 00 00 00 00 00 00 00 00 00 00 00 00 00 00 ................
0040A4E0 00 00 00 00 00 00 00 00 00 00 00 00 00 00 00 00 ................
0040A4F0 00 00 00 00 00 00 00 00 00 00 00 00 00 00 00 00 ................
0040A500 00 00 00 00 00 00 00 00 00 00 00 00 00 00 00 00 ................
0040A510 00 00 00 00 00 00 00 00 00 00 00 00 00 00 00 00 ................
0040A520 00 00 00 00 00 00 00 00 00 00 00 00 00 00 00 00 ................
0040A530 00 00 00 00 00 00 00 00 00 00 00 00 00 00 00 00 ................
0040A540 00 00 00 00 00 00 00 00 00 00 00 00 00 00 00 00 ................
0040A550 00 00 00 00 00 00 00 00 00 00 00 00 00 00 00 00 ................
0040A560 00 00 00 00 00 00 00 00 00 00 00 00 00 00 00 00 ................
0040A570 00 00 00 00 00 00 00 00 00 00 00 00 00 00 00 00 ................
0040A580 00 00 00 00 00 00 00 00 00 00 00 00 00 00 00 00 ................
0040A590 00 00 00 00 00 00 00 00 00 00 00 00 00 00 00 00 ................
0040A5A0 00 00 00 00 00 00 00 00 00 00 00 00 00 00 00 00 ................
0040A5B0 00 00 00 00 00 00 00 00 00 00 00 00 00 00 00 00 ................
0040A5C0 00 00 00 00 00 00 00 00 00 00 00 00 00 00 00 00 ................
0040A5D0 00 00 00 00 00 00 00 00 00 00 00 00 00 00 00 00 ................
0040A5E0 00 00 00 00 00 00 00 00 00 00 00 00 00 00 00 00 ................
0040A5F0 00 00 00 00 00 00 00 00 00 00 00 00 00 00 00 00 ................
0040A600 00 00 00 00 00 00 00 00 00 00 00 00 00 00 00 00 ................
0040A610 00 00 00 00 00 00 00 00 00 00 00 00 00 00 00 00 ................
0040A620 00 00 00 00 00 00 00 00 00 00 00 00 00 00 00 00 ................
0040A630 00 00 00 00 00 00 00 00 00 00 00 00 00 00 00 00 ................
0040A640 00 00 00 00 00 00 00 00 00 00 00 00 00 00 00 00 ................
0040A650 00 00 00 00 00 00 00 00 00 00 00 00 00 00 00 00 ................
0040A660 00 00 00 00 00 00 00 00 00 00 00 00 00 00 00 00 ................
0040A670 00 00 00 00 00 00 00 00 00 00 00 00 00 00 00 00 ................
0040A680 00 00 00 00 00 00 00 00 00 00 00 00 00 00 00 00 ................
0040A690 00 00 00 00 00 00 00 00 00 00 00 00 00 00 00 00 ................
0040A6A0 00 00 00 00 00 00 00 00 00 00 00 00 00 00 00 00 ................
0040A6B0 00 00 00 00 00 00 00 00 00 00 00 00 00 00 00 00 ................
0040A6C0 00 00 00 00 00 00 00 00 00 00 00 00 00 00 00 00 ................
0040A6D0 00 00 00 00 00 00 00 00 00 00 00 00 00 00 00 00 ................
0040A6E0 00 00 00 00 00 00 00 00 00 00 00 00 00 00 00 00 ................
0040A6F0 00 00 00 00 00 00 00 00 00 00 00 00 00 00 00 00 ................
0040A700 00 00 00 00 00 00 00 00 00 00 00 00 00 00 00 00 ................
0040A710 00 00 00 00 00 00 00 00 00 00 00 00 00 00 00 00 ................
0040A720 00 00 00 00 00 00 00 00 00 00 00 00 00 00 00 00 ................
0040A730 00 00 00 00 00 00 00 00 00 00 00 00 00 00 00 00 ................
0040A740 00 00 00 00 00 00 00 00 00 00 00 00 00 00 00 00 ................
0040A750 00 00 00 00 00 00 00 00 00 00 00 00 00 00 00 00 ................
0040A760 00 00 00 00 00 00 00 00 00 00 00 00 00 00 00 00 ................
0040A770 00 00 00 00 00 00 00 00 00 00 00 00 00 00 00 00 ................
0040A780 00 00 00 00 00 00 00 00 00 00 00 00 00 00 00 00 ................
0040A790 00 00 00 00 00 00 00 00 00 00 00 00 00 00 00 00 ................
0040A7A0 00 00 00 00 00 00 00 00 00 00 00 00 00 00 00 00 ................
0040A7B0 00 00 00 00 00 00 00 00 00 00 00 00 00 00 00 00 ................
0040A7C0 00 00 00 00 00 00 00 00 00 00 00 00 00 00 00 00 ................
0040A7D0 00 00 00 00 00 00 00 00 00 00 00 00 00 00 00 00 ................
0040A7E0 00 00 00 00 00 00 00 00 00 00 00 00 00 00 00 00 ................
0040A7F0 00 00 00 00 00 00 00 00 00 00 00 00 00 00 00 00 ................
0040A800 00 00 00 00 00 00 00 00 00 00 00 00 00 00 00 00 ................
0040A810 00 00 00 00 00 00 00 00 00 00 00 00 00 00 00 00 ................
0040A820 00 00 00 00 00 00 00 00 00 00 00 00 00 00 00 00 ................
0040A830 00 00 00 00 00 00 00 00 00 00 00 00 00 00 00 00 ................
0040A840 00 00 00 00 00 00 00 00 00 00 00 00 00 00 00 00 ................
0040A850 00 00 00 00 00 00 00 00 00 00 00 00 00 00 00 00 ................
0040A860 00 00 00 00 00 00 00 00 00 00 00 00 00 00 00 00 ................
0040A870 00 00 00 00 00 00 00 00 00 00 00 00 00 00 00 00 ................
0040A880 00 00 00 00 00 00 00 00 00 00 00 00 00 00 00 00 ................
0040A890 00 00 00 00 00 00 00 00 00 00 00 00 00 00 00 00 ................
0040A8A0 00 00 00 00 00 00 00 00 00 00 00 00 00 00 00 00 ................
0040A8B0 00 00 00 00 00 00 00 00 00 00 00 00 00 00 00 00 ................
0040A8C0 00 00 00 00 00 00 00 00 00 00 00 00 00 00 00 00 ................
0040A8D0 00 00 00 00 00 00 00 00 00 00 00 00 00 00 00 00 ................
0040A8E0 00 00 00 00 00 00 00 00 00 00 00 00 00 00 00 00 ................
0040A8F0 00 00 00 00 00 00 00 00 00 00 00 00 00 00 00 00 ................
0040A900 00 00 00 00 00 00 00 00 00 00 00 00 00 00 00 00 ................
0040A910 00 00 00 00 00 00 00 00 00 00 00 00 00 00 00 00 ................
0040A920 00 00 00 00 00 00 00 00 00 00 00 00 00 00 00 00 ................
0040A930 00 00 00 00 00 00 00 00 00 00 00 00 00 00 00 00 ................
0040A940 00 00 00 00 00 00 00 00 00 00 00 00 00 00 00 00 ................
0040A950 00 00 00 00 00 00 00 00 00 00 00 00 00 00 00 00 ................
0040A960 00 00 00 00 00 00 00 00 00 00 00 00 00 00 00 00 ................
0040A970 00 00 00 00 00 00 00 00 00 00 00 00 00 00 00 00 ................
0040A980 00 00 00 00 00 00 00 00 00 00 00 00 00 00 00 00 ................
0040A990 00 00 00 00 00 00 00 00 00 00 00 00 00 00 00 00 ................
0040A9A0 00 00 00 00 00 00 00 00 00 00 00 00 00 00 00 00 ................
0040A9B0 00 00 00 00 00 00 00 00 00 00 00 00 00 00 00 00 ................
0040A9C0 00 00 00 00 00 00 00 00 00 00 00 00 00 00 00 00 ................
0040A9D0 00 00 00 00 00 00 00 00 00 00 00 00 00 00 00 00 ................
0040A9E0 00 00 00 00 00 00 00 00 00 00 00 00 00 00 00 00 ................
0040A9F0 00 00 00 00 00 00 00 00 00 00 00 00 00 00 00 00 ................
0040AA00 00 00 00 00 00 00 00 00 00 00 00 00 00 00 00 00 ................
0040AA10 00 00 00 00 00 00 00 00 00 00 00 00 00 00 00 00 ................
0040AA20 00 00 00 00 00 00 00 00 00 00 00 00 00 00 00 00 ................
0040AA30 00 00 00 00 00 00 00 00 00 00 00 00 00 00 00 00 ................
0040AA40 00 00 00 00 00 00 00 00 00 00 00 00 00 00 00 00 ................
0040AA50 00 00 00 00 00 00 00 00 00 00 00 00 00 00 00 00 ................
0040AA60 00 00 00 00 00 00 00 00 00 00 00 00 00 00 00 00 ................
0040AA70 00 00 00 00 00 00 00 00 00 00 00 00 00 00 00 00 ................
0040AA80 00 00 00 00 00 00 00 00 00 00 00 00 00 00 00 00 ................
0040AA90 00 00 00 00 00 00 00 00 00 00 00 00 00 00 00 00 ................
0040AAA0 00 00 00 00 00 00 00 00 00 00 00 00 00 00 00 00 ................
0040AAB0 00 00 00 00 00 00 00 00 00 00 00 00 00 00 00 00 ................
0040AAC0 00 00 00 00 00 00 00 00 00 00 00 00 00 00 00 00 ................
0040AAD0 00 00 00 00 00 00 00 00 00 00 00 00 00 00 00 00 ................
0040AAE0 00 00 00 00 00 00 00 00 00 00 00 00 00 00 00 00 ................
0040AAF0 00 00 00 00 00 00 00 00 00 00 00 00 00 00 00 00 ................
0040AB00 00 00 00 00 00 00 00 00 00 00 00 00 00 00 00 00 ................
0040AB10 00 00 00 00 00 00 00 00 00 00 00 00 00 00 00 00 ................
0040AB20 00 00 00 00 00 00 00 00 00 00 00 00 00 00 00 00 ................
0040AB30 00 00 00 00 00 00 00 00 00 00 00 00 00 00 00 00 ................
0040AB40 00 00 00 00 00 00 00 00 00 00 00 00 00 00 00 00 ................
0040AB50 00 00 00 00 00 00 00 00 00 00 00 00 00 00 00 00 ................
0040AB60 00 00 00 00 00 00 00 00 00 00 00 00 00 00 00 00 ................
0040AB70 00 00 00 00 00 00 00 00 00 00 00 00 00 00 00 00 ................
0040AB80 00 00 00 00 00 00 00 00 00 00 00 00 00 00 00 00 ................
0040AB90 00 00 00 00 00 00 00 00 00 00 00 00 00 00 00 00 ................
0040ABA0 00 00 00 00 00 00 00 00 00 00 00 00 00 00 00 00 ................
0040ABB0 00 00 00 00 00 00 00 00 00 00 00 00 00 00 00 00 ................
0040ABC0 00 00 00 00 00 00 00 00 00 00 00 00 00 00 00 00 ................
0040ABD0 00 00 00 00 00 00 00 00 00 00 00 00 00 00 00 00 ................
0040ABE0 00 00 00 00 00 00 00 00 00 00 00 00 00 00 00 00 ................
0040ABF0 00 00 00 00 00 00 00 00 00 00 00 00 00 00 00 00 ................
0040AC00 00 00 00 00 00 00 00 00 00 00 00 00 00 00 00 00 ................
0040AC10 00 00 00 00 00 00 00 00 00 00 00 00 00 00 00 00 ................
0040AC20 00 00 00 00 00 00 00 00 00 00 00 00 00 00 00 00 ................
0040AC30 00 00 00 00 00 00 00 00 00 00 00 00 00 00 00 00 ................
0040AC40 00 00 00 00 00 00 00 00 00 00 00 00 00 00 00 00 ................
0040AC50 00 00 00 00 00 00 00 00 00 00 00 00 00 00 00 00 ................
0040AC60 00 00 00 00 00 00 00 00 00 00 00 00 00 00 00 00 ................
0040AC70 00 00 00 00 00 00 00 00 00 00 00 00 00 00 00 00 ................
0040AC80 00 00 00 00 00 00 00 00 00 00 00 00 00 00 00 00 ................
0040AC90 00 00 00 00 00 00 00 00 00 00 00 00 00 00 00 00 ................
0040ACA0 00 00 00 00 00 00 00 00 00 00 00 00 00 00 00 00 ................
0040ACB0 00 00 00 00 00 00 00 00 00 00 00 00 00 00 00 00 ................
0040ACC0 00 00 00 00 00 00 00 00 00 00 00 00 00 00 00 00 ................
0040ACD0 00 00 00 00 00 00 00 00 00 00 00 00 00 00 00 00 ................
0040ACE0 00 00 00 00 00 00 00 00 00 00 00 00 00 00 00 00 ................
0040ACF0 00 00 00 00 00 00 00 00 00 00 00 00 00 00 00 00 ................
0040AD00 00 00 00 00 00 00 00 00 00 00 00 00 00 00 00 00 ................
0040AD10 00 00 00 00 00 00 00 00 00 00 00 00 00 00 00 00 ................
0040AD20 00 00 00 00 00 00 00 00 00 00 00 00 00 00 00 00 ................
0040AD30 00 00 00 00 00 00 00 00 00 00 00 00 00 00 00 00 ................
0040AD40 00 00 00 00 00 00 00 00 00 00 00 00 00 00 00 00 ................
0040AD50 00 00 00 00 00 00 00 00 00 00 00 00 00 00 00 00 ................
0040AD60 00 00 00 00 00 00 00 00 00 00 00 00 00 00 00 00 ................
0040AD70 00 00 00 00 00 00 00 00 00 00 00 00 00 00 00 00 ................
0040AD80 00 00 00 00 00 00 00 00 00 00 00 00 00 00 00 00 ................
0040AD90 00 00 00 00 00 00 00 00 00 00 00 00 00 00 00 00 ................
0040ADA0 00 00 00 00 00 00 00 00 00 00 00 00 00 00 00 00 ................
0040ADB0 00 00 00 00 00 00 00 00 00 00 00 00 00 00 00 00 ................
0040ADC0 00 00 00 00 00 00 00 00 00 00 00 00 00 00 00 00 ................
0040ADD0 00 00 00 00 00 00 00 00 00 00 00 00 00 00 00 00 ................
0040ADE0 00 00 00 00 00 00 00 00 00 00 00 00 00 00 00 00 ................
0040ADF0 00 00 00 00 00 00 00 00 00 00 00 00 00 00 00 00 ................
0040AE00 00 00 00 00 00 00 00 00 00 00 00 00 00 00 00 00 ................
0040AE10 00 00 00 00 00 00 00 00 00 00 00 00 00 00 00 00 ................
0040AE20 00 00 00 00 00 00 00 00 00 00 00 00 00 00 00 00 ................
0040AE30 00 00 00 00 00 00 00 00 00 00 00 00 00 00 00 00 ................
0040AE40 00 00 00 00 00 00 00 00 00 00 00 00 00 00 00 00 ................
0040AE50 00 00 00 00 00 00 00 00 00 00 00 00 00 00 00 00 ................
0040AE60 00 00 00 00 00 00 00 00 00 00 00 00 00 00 00 00 ................
0040AE70 00 00 00 00 00 00 00 00 00 00 00 00 00 00 00 00 ................
0040AE80 00 00 00 00 00 00 00 00 00 00 00 00 00 00 00 00 ................
0040AE90 00 00 00 00 00 00 00 00 00 00 00 00 00 00 00 00 ................
0040AEA0 00 00 00 00 00 00 00 00 00 00 00 00 00 00 00 00 ................
0040AEB0 00 00 00 00 00 00 00 00 00 00 00 00 00 00 00 00 ................
0040AEC0 00 00 00 00 00 00 00 00 00 00 00 00 00 00 00 00 ................
0040AED0 00 00 00 00 00 00 00 00 00 00 00 00 00 00 00 00 ................
0040AEE0 00 00 00 00 00 00 00 00 00 00 00 00 00 00 00 00 ................
0040AEF0 00 00 00 00 00 00 00 00 00 00 00 00 00 00 00 00 ................
0040AF00 00 00 00 00 00 00 00 00 00 00 00 00 00 00 00 00 ................
0040AF10 00 00 00 00 00 00 00 00 00 00 00 00 00 00 00 00 ................
0040AF20 00 00 00 00 00 00 00 00 00 00 00 00 00 00 00 00 ................
0040AF30 00 00 00 00 00 00 00 00 00 00 00 00 00 00 00 00 ................
0040AF40 00 00 00 00 00 00 00 00 00 00 00 00 00 00 00 00 ................
0040AF50 00 00 00 00 00 00 00 00 00 00 00 00 00 00 00 00 ................
0040AF60 00 00 00 00 00 00 00 00 00 00 00 00 00 00 00 00 ................
0040AF70 00 00 00 00 00 00 00 00 00 00 00 00 00 00 00 00 ................
0040AF80 00 00 00 00 00 00 00 00 00 00 00 00 00 00 00 00 ................
0040AF90 00 00 00 00 00 00 00 00 00 00 00 00 00 00 00 00 ................
0040AFA0 00 00 00 00 00 00 00 00 00 00 00 00 00 00 00 00 ................
0040AFB0 00 00 00 00 00 00 00 00 00 00 00 00 00 00 00 00 ................
0040AFC0 00 00 00 00 00 00 00 00 00 00 00 00 00 00 00 00 ................
0040AFD0 00 00 00 00 00 00 00 00 00 00 00 00 00 00 00 00 ................
0040AFE0 00 00 00 00 00 00 00 00 00 00 00 00 00 00 00 00 ................
0040AFF0 00 00 00 00 00 00 00 00 00 00 00 00 00 00 00 00 ................
0040B000 00 00 00 00 00 00 00 00 00 00 00 00 00 00 00 00 ................
0040B010 00 00 00 00 00 00 00 00 00 00 00 00 00 00 00 00 ................
0040B020 00 00 00 00 00 00 00 00 00 00 00 00 00 00 00 00 ................
0040B030 00 00 00 00 00 00 00 00 00 00 00 00 00 00 00 00 ................
0040B040 00 00 00 00 00 00 00 00 00 00 00 00 00 00 00 00 ................
0040B050 00 00 00 00 00 00 00 00 00 00 00 00 00 00 00 00 ................
0040B060 00 00 00 00 00 00 00 00 00 00 00 00 00 00 00 00 ................
0040B070 00 00 00 00 00 00 00 00 00 00 00 00 00 00 00 00 ................
0040B080 00 00 00 00 00 00 00 00 00 00 00 00 00 00 00 00 ................
0040B090 00 00 00 00 00 00 00 00 00 00 00 00 00 00 00 00 ................
0040B0A0 00 00 00 00 00 00 00 00 00 00 00 00 00 00 00 00 ................
0040B0B0 00 00 00 00 00 00 00 00 00 00 00 00 00 00 00 00 ................
0040B0C0 00 00 00 00 00 00 00 00 00 00 00 00 00 00 00 00 ................
0040B0D0 00 00 00 00 00 00 00 00 00 00 00 00 00 00 00 00 ................
0040B0E0 00 00 00 00 00 00 00 00 00 00 00 00 00 00 00 00 ................
0040B0F0 00 00 00 00 00 00 00 00 00 00 00 00 00 00 00 00 ................
0040B100 00 00 00 00 00 00 00 00 00 00 00 00 00 00 00 00 ................
0040B110 00 00 00 00 00 00 00 00 00 00 00 00 00 00 00 00 ................
0040B120 00 00 00 00 00 00 00 00 00 00 00 00 00 00 00 00 ................
0040B130 00 00 00 00 00 00 00 00 00 00 00 00 00 00 00 00 ................
0040B140 00 00 00 00 00 00 00 00 00 00 00 00 00 00 00 00 ................
0040B150 00 00 00 00 00 00 00 00 00 00 00 00 00 00 00 00 ................
0040B160 00 00 00 00 00 00 00 00 00 00 00 00 00 00 00 00 ................
0040B170 00 00 00 00 00 00 00 00 00 00 00 00 00 00 00 00 ................
0040B180 00 00 00 00 00 00 00 00 00 00 00 00 00 00 00 00 ................
0040B190 00 00 00 00 00 00 00 00 00 00 00 00 00 00 00 00 ................
0040B1A0 00 00 00 00 00 00 00 00 00 00 00 00 00 00 00 00 ................
0040B1B0 00 00 00 00 00 00 00 00 00 00 00 00 00 00 00 00 ................
0040B1C0 00 00 00 00 00 00 00 00 00 00 00 00 00 00 00 00 ................
0040B1D0 00 00 00 00 00 00 00 00 00 00 00 00 00 00 00 00 ................
0040B1E0 00 00 00 00 00 00 00 00 00 00 00 00 00 00 00 00 ................
0040B1F0 00 00 00 00 00 00 00 00 00 00 00 00 00 00 00 00 ................
0040B200 00 00 00 00 00 00 00 00 00 00 00 00 00 00 00 00 ................
0040B210 00 00 00 00 00 00 00 00 00 00 00 00 00 00 00 00 ................
0040B220 00 00 00 00 00 00 00 00 00 00 00 00 00 00 00 00 ................
0040B230 00 00 00 00 00 00 00 00 00 00 00 00 00 00 00 00 ................
0040B240 00 00 00 00 00 00 00 00 00 00 00 00 00 00 00 00 ................
0040B250 00 00 00 00 00 00 00 00 00 00 00 00 00 00 00 00 ................
0040B260 00 00 00 00 00 00 00 00 00 00 00 00 00 00 00 00 ................
0040B270 00 00 00 00 00 00 00 00 00 00 00 00 00 00 00 00 ................
0040B280 00 00 00 00 00 00 00 00 00 00 00 00 00 00 00 00 ................
0040B290 00 00 00 00 00 00 00 00 00 00 00 00 00 00 00 00 ................
0040B2A0 00 00 00 00 00 00 00 00 00 00 00 00 00 00 00 00 ................
0040B2B0 00 00 00 00 00 00 00 00 00 00 00 00 00 00 00 00 ................
0040B2C0 00 00 00 00 00 00 00 00 00 00 00 00 00 00 00 00 ................
0040B2D0 00 00 00 00 00 00 00 00 00 00 00 00 00 00 00 00 ................
0040B2E0 00 00 00 00 00 00 00 00 00 00 00 00 00 00 00 00 ................
0040B2F0 00 00 00 00 00 00 00 00 00 00 00 00 00 00 00 00 ................
0040B300 00 00 00 00 00 00 00 00 00 00 00 00 00 00 00 00 ................
0040B310 00 00 00 00 00 00 00 00 00 00 00 00 00 00 00 00 ................
0040B320 00 00 00 00 00 00 00 00 00 00 00 00 00 00 00 00 ................
0040B330 00 00 00 00 00 00 00 00 00 00 00 00 00 00 00 00 ................
0040B340 00 00 00 00 00 00 00 00 00 00 00 00 00 00 00 00 ................
0040B350 00 00 00 00 00 00 00 00 00 00 00 00 00 00 00 00 ................
0040B360 00 00 00 00 00 00 00 00 00 00 00 00 00 00 00 00 ................
0040B370 00 00 00 00 00 00 00 00 00 00 00 00 00 00 00 00 ................
0040B380 00 00 00 00 00 00 00 00 00 00 00 00 00 00 00 00 ................
0040B390 00 00 00 00 00 00 00 00 00 00 00 00 00 00 00 00 ................
0040B3A0 00 00 00 00 00 00 00 00 00 00 00 00 00 00 00 00 ................
0040B3B0 00 00 00 00 00 00 00 00 00 00 00 00 00 00 00 00 ................
0040B3C0 00 00 00 00 00 00 00 00 00 00 00 00 00 00 00 00 ................
0040B3D0 00 00 00 00 00 00 00 00 00 00 00 00 00 00 00 00 ................
0040B3E0 00 00 00 00 00 00 00 00 00 00 00 00 00 00 00 00 ................
0040B3F0 00 00 00 00 00 00 00 00 00 00 00 00 00 00 00 00 ................
0040B400 00 00 00 00 00 00 00 00 00 00 00 00 00 00 00 00 ................
0040B410 00 00 00 00 00 00 00 00 00 00 00 00 00 00 00 00 ................
0040B420 00 00 00 00 00 00 00 00 00 00 00 00 00 00 00 00 ................
0040B430 00 00 00 00 00 00 00 00 00 00 00 00 00 00 00 00 ................
0040B440 00 00 00 00 00 00 00 00 00 00 00 00 00 00 00 00 ................
0040B450 00 00 00 00 00 00 00 00 00 00 00 00 00 00 00 00 ................
0040B460 00 00 00 00 00 00 00 00 00 00 00 00 00 00 00 00 ................
0040B470 00 00 00 00 00 00 00 00 00 00 00 00 00 00 00 00 ................
0040B480 00 00 00 00 00 00 00 00 00 00 00 00 00 00 00 00 ................
0040B490 00 00 00 00 00 00 00 00 00 00 00 00 00 00 00 00 ................
0040B4A0 00 00 00 00 00 00 00 00 00 00 00 00 00 00 00 00 ................
0040B4B0 00 00 00 00 00 00 00 00 00 00 00 00 00 00 00 00 ................
0040B4C0 00 00 00 00 00 00 00 00 00 00 00 00 00 00 00 00 ................
0040B4D0 00 00 00 00 00 00 00 00 00 00 00 00 00 00 00 00 ................
0040B4E0 00 00 00 00 00 00 00 00 00 00 00 00 00 00 00 00 ................
0040B4F0 00 00 00 00 00 00 00 00 00 00 00 00 00 00 00 00 ................
0040B500 00 00 00 00 00 00 00 00 00 00 00 00 00 00 00 00 ................
0040B510 00 00 00 00 00 00 00 00 00 00 00 00 00 00 00 00 ................
0040B520 00 00 00 00 00 00 00 00 00 00 00 00 00 00 00 00 ................
0040B530 00 00 00 00 00 00 00 00 00 00 00 00 00 00 00 00 ................
0040B540 00 00 00 00 00 00 00 00 00 00 00 00 00 00 00 00 ................
0040B550 00 00 00 00 00 00 00 00 00 00 00 00 00 00 00 00 ................
0040B560 00 00 00 00 00 00 00 00 00 00 00 00 00 00 00 00 ................
0040B570 00 00 00 00 00 00 00 00 00 00 00 00 00 00 00 00 ................
0040B580 00 00 00 00 00 00 00 00 00 00 00 00 00 00 00 00 ................
0040B590 00 00 00 00 00 00 00 00 00 00 00 00 00 00 00 00 ................
0040B5A0 00 00 00 00 00 00 00 00 00 00 00 00 00 00 00 00 ................
0040B5B0 00 00 00 00 00 00 00 00 00 00 00 00 00 00 00 00 ................
0040B5C0 00 00 00 00 00 00 00 00 00 00 00 00 00 00 00 00 ................
0040B5D0 00 00 00 00 00 00 00 00 00 00 00 00 00 00 00 00 ................
0040B5E0 00 00 00 00 00 00 00 00 00 00 00 00 00 00 00 00 ................
0040B5F0 00 00 00 00 00 00 00 00 00 00 00 00 00 00 00 00 ................
0040B600 00 00 00 00 00 00 00 00 00 00 00 00 00 00 00 00 ................
0040B610 00 00 00 00 00 00 00 00 00 00 00 00 00 00 00 00 ................
0040B620 00 00 00 00 00 00 00 00 00 00 00 00 00 00 00 00 ................
0040B630 00 00 00 00 00 00 00 00 00 00 00 00 00 00 00 00 ................
0040B640 00 00 00 00 00 00 00 00 00 00 00 00 00 00 00 00 ................
0040B650 00 00 00 00 00 00 00 00 00 00 00 00 00 00 00 00 ................
0040B660 00 00 00 00 00 00 00 00 00 00 00 00 00 00 00 00 ................
0040B670 00 00 00 00 00 00 00 00 00 00 00 00 00 00 00 00 ................
0040B680 00 00 00 00 00 00 00 00 00 00 00 00 00 00 00 00 ................
0040B690 00 00 00 00 00 00 00 00 00 00 00 00 00 00 00 00 ................
0040B6A0 00 00 00 00 00 00 00 00 00 00 00 00 00 00 00 00 ................
0040B6B0 00 00 00 00 00 00 00 00 00 00 00 00 00 00 00 00 ................
0040B6C0 00 00 00 00 00 00 00 00 00 00 00 00 00 00 00 00 ................
0040B6D0 00 00 00 00 00 00 00 00 00 00 00 00 00 00 00 00 ................
0040B6E0 00 00 00 00 00 00 00 00 00 00 00 00 00 00 00 00 ................
0040B6F0 00 00 00 00 00 00 00 00 00 00 00 00 00 00 00 00 ................
0040B700 00 00 00 00 00 00 00 00 00 00 00 00 00 00 00 00 ................
0040B710 00 00 00 00 00 00 00 00 00 00 00 00 00 00 00 00 ................
0040B720 00 00 00 00 00 00 00 00 00 00 00 00 00 00 00 00 ................
0040B730 00 00 00 00 00 00 00 00 00 00 00 00 00 00 00 00 ................
0040B740 00 00 00 00 00 00 00 00 00 00 00 00 00 00 00 00 ................
0040B750 00 00 00 00 00 00 00 00 00 00 00 00 00 00 00 00 ................
0040B760 00 00 00 00 00 00 00 00 00 00 00 00 00 00 00 00 ................
0040B770 00 00 00 00 00 00 00 00 00 00 00 00 00 00 00 00 ................
0040B780 00 00 00 00 00 00 00 00 00 00 00 00 00 00 00 00 ................
0040B790 00 00 00 00 00 00 00 00 00 00 00 00 00 00 00 00 ................
0040B7A0 00 00 00 00 00 00 00 00 00 00 00 00 00 00 00 00 ................
0040B7B0 00 00 00 00 00 00 00 00 00 00 00 00 00 00 00 00 ................
0040B7C0 00 00 00 00 00 00 00 00 00 00 00 00 00 00 00 00 ................
0040B7D0 00 00 00 00 00 00 00 00 00 00 00 00 00 00 00 00 ................
0040B7E0 00 00 00 00 00 00 00 00 00 00 00 00 00 00 00 00 ................
0040B7F0 00 00 00 00 00 00 00 00 00 00 00 00 00 00 00 00 ................
0040B800 00 00 00 00 00 00 00 00 00 00 00 00 00 00 00 00 ................
0040B810 00 00 00 00 00 00 00 00 00 00 00 00 00 00 00 00 ................
0040B820 00 00 00 00 00 00 00 00 00 00 00 00 00 00 00 00 ................
0040B830 00 00 00 00 00 00 00 00 00 00 00 00 00 00 00 00 ................
0040B840 00 00 00 00 00 00 00 00 00 00 00 00 00 00 00 00 ................
0040B850 00 00 00 00 00 00 00 00 00 00 00 00 00 00 00 00 ................
0040B860 00 00 00 00 00 00 00 00 00 00 00 00 00 00 00 00 ................
0040B870 00 00 00 00 00 00 00 00 00 00 00 00 00 00 00 00 ................
0040B880 00 00 00 00 00 00 00 00 00 00 00 00 00 00 00 00 ................
0040B890 00 00 00 00 00 00 00 00 00 00 00 00 00 00 00 00 ................
0040B8A0 00 00 00 00 00 00 00 00 00 00 00 00 00 00 00 00 ................
0040B8B0 00 00 00 00 00 00 00 00 00 00 00 00 00 00 00 00 ................
0040B8C0 00 00 00 00 00 00 00 00 00 00 00 00 00 00 00 00 ................
0040B8D0 00 00 00 00 00 00 00 00 00 00 00 00 00 00 00 00 ................
0040B8E0 00 00 00 00 00 00 00 00 00 00 00 00 00 00 00 00 ................
0040B8F0 00 00 00 00 00 00 00 00 00 00 00 00 00 00 00 00 ................
0040B900 00 00 00 00 00 00 00 00 00 00 00 00 00 00 00 00 ................
0040B910 00 00 00 00 00 00 00 00 00 00 00 00 00 00 00 00 ................
0040B920 00 00 00 00 00 00 00 00 00 00 00 00 00 00 00 00 ................
0040B930 00 00 00 00 00 00 00 00 00 00 00 00 00 00 00 00 ................
0040B940 00 00 00 00 00 00 00 00 00 00 00 00 00 00 00 00 ................
0040B950 00 00 00 00 00 00 00 00 00 00 00 00 00 00 00 00 ................
0040B960 00 00 00 00 00 00 00 00 00 00 00 00 00 00 00 00 ................
0040B970 00 00 00 00 00 00 00 00 00 00 00 00 00 00 00 00 ................
0040B980 00 00 00 00 00 00 00 00 00 00 00 00 00 00 00 00 ................
0040B990 00 00 00 00 00 00 00 00 00 00 00 00 00 00 00 00 ................
0040B9A0 00 00 00 00 00 00 00 00 00 00 00 00 00 00 00 00 ................
0040B9B0 00 00 00 00 00 00 00 00 00 00 00 00 00 00 00 00 ................
0040B9C0 00 00 00 00 00 00 00 00 00 00 00 00 00 00 00 00 ................
0040B9D0 00 00 00 00 00 00 00 00 00 00 00 00 00 00 00 00 ................
0040B9E0 00 00 00 00 00 00 00 00 00 00 00 00 00 00 00 00 ................
0040B9F0 00 00 00 00 00 00 00 00 00 00 00 00 00 00 00 00 ................
0040BA00 00 00 00 00 00 00 00 00 00 00 00 00 00 00 00 00 ................
0040BA10 00 00 00 00 00 00 00 00 00 00 00 00 00 00 00 00 ................
0040BA20 00 00 00 00 00 00 00 00 00 00 00 00 00 00 00 00 ................
0040BA30 00 00 00 00 00 00 00 00 00 00 00 00 00 00 00 00 ................
0040BA40 00 00 00 00 00 00 00 00 00 00 00 00 00 00 00 00 ................
0040BA50 00 00 00 00 00 00 00 00 00 00 00 00 00 00 00 00 ................
0040BA60 00 00 00 00 00 00 00 00 00 00 00 00 00 00 00 00 ................
0040BA70 00 00 00 00 00 00 00 00 00 00 00 00 00 00 00 00 ................
0040BA80 00 00 00 00 00 00 00 00 00 00 00 00 00 00 00 00 ................
0040BA90 00 00 00 00 00 00 00 00 00 00 00 00 00 00 00 00 ................
0040BAA0 00 00 00 00 00 00 00 00 00 00 00 00 00 00 00 00 ................
0040BAB0 00 00 00 00 00 00 00 00 00 00 00 00 00 00 00 00 ................
0040BAC0 00 00 00 00 00 00 00 00 00 00 00 00 00 00 00 00 ................
0040BAD0 00 00 00 00 00 00 00 00 00 00 00 00 00 00 00 00 ................
0040BAE0 00 00 00 00 00 00 00 00 00 00 00 00 00 00 00 00 ................
0040BAF0 00 00 00 00 00 00 00 00 00 00 00 00 00 00 00 00 ................
0040BB00 00 00 00 00 00 00 00 00 00 00 00 00 00 00 00 00 ................
0040BB10 00 00 00 00 00 00 00 00 00 00 00 00 00 00 00 00 ................
0040BB20 00 00 00 00 00 00 00 00 00 00 00 00 00 00 00 00 ................
0040BB30 00 00 00 00 00 00 00 00 00 00 00 00 00 00 00 00 ................
0040BB40 00 00 00 00 00 00 00 00 00 00 00 00 00 00 00 00 ................
0040BB50 00 00 00 00 00 00 00 00 00 00 00 00 00 00 00 00 ................
0040BB60 00 00 00 00 00 00 00 00 00 00 00 00 00 00 00 00 ................
0040BB70 00 00 00 00 00 00 00 00 00 00 00 00 00 00 00 00 ................
0040BB80 00 00 00 00 00 00 00 00 00 00 00 00 00 00 00 00 ................
0040BB90 00 00 00 00 00 00 00 00 00 00 00 00 00 00 00 00 ................
0040BBA0 00 00 00 00 00 00 00 00 00 00 00 00 00 00 00 00 ................
0040BBB0 00 00 00 00 00 00 00 00 00 00 00 00 00 00 00 00 ................
0040BBC0 00 00 00 00 00 00 00 00 00 00 00 00 00 00 00 00 ................
0040BBD0 00 00 00 00 00 00 00 00 00 00 00 00 00 00 00 00 ................
0040BBE0 00 00 00 00 00 00 00 00 00 00 00 00 00 00 00 00 ................
0040BBF0 00 00 00 00 00 00 00 00 00 00 00 00 00 00 00 00 ................
0040BC00 00 00 00 00 00 00 00 00 00 00 00 00 00 00 00 00 ................
0040BC10 00 00 00 00 00 00 00 00 00 00 00 00 00 00 00 00 ................
0040BC20 00 00 00 00 00 00 00 00 00 00 00 00 00 00 00 00 ................
0040BC30 00 00 00 00 00 00 00 00 00 00 00 00 00 00 00 00 ................
0040BC40 00 00 00 00 00 00 00 00 00 00 00 00 00 00 00 00 ................
0040BC50 00 00 00 00 00 00 00 00 00 00 00 00 00 00 00 00 ................
0040BC60 00 00 00 00 00 00 00 00 00 00 00 00 00 00 00 00 ................
0040BC70 00 00 00 00 00 00 00 00 00 00 00 00 00 00 00 00 ................
0040BC80 00 00 00 00 00 00 00 00 00 00 00 00 00 00 00 00 ................
0040BC90 00 00 00 00 00 00 00 00 00 00 00 00 00 00 00 00 ................
0040BCA0 00 00 00 00 00 00 00 00 00 00 00 00 00 00 00 00 ................
0040BCB0 00 00 00 00 00 00 00 00 00 00 00 00 00 00 00 00 ................
0040BCC0 00 00 00 00 00 00 00 00 00 00 00 00 00 00 00 00 ................
0040BCD0 00 00 00 00 00 00 00 00 00 00 00 00 00 00 00 00 ................
0040BCE0 00 00 00 00 00 00 00 00 00 00 00 00 00 00 00 00 ................
0040BCF0 00 00 00 00 00 00 00 00 00 00 00 00 00 00 00 00 ................
0040BD00 00 00 00 00 00 00 00 00 00 00 00 00 00 00 00 00 ................
0040BD10 00 00 00 00 00 00 00 00 00 00 00 00 00 00 00 00 ................
0040BD20 00 00 00 00 00 00 00 00 00 00 00 00 00 00 00 00 ................
0040BD30 00 00 00 00 00 00 00 00 00 00 00 00 00 00 00 00 ................
0040BD40 00 00 00 00 00 00 00 00 00 00 00 00 00 00 00 00 ................
0040BD50 00 00 00 00 00 00 00 00 00 00 00 00 00 00 00 00 ................
0040BD60 00 00 00 00 00 00 00 00 00 00 00 00 00 00 00 00 ................
0040BD70 00 00 00 00 00 00 00 00 00 00 00 00 00 00 00 00 ................
0040BD80 00 00 00 00 00 00 00 00 00 00 00 00 00 00 00 00 ................
0040BD90 00 00 00 00 00 00 00 00 00 00 00 00 00 00 00 00 ................
0040BDA0 00 00 00 00 00 00 00 00 00 00 00 00 00 00 00 00 ................
0040BDB0 00 00 00 00 00 00 00 00 00 00 00 00 00 00 00 00 ................
0040BDC0 00 00 00 00 00 00 00 00 00 00 00 00 00 00 00 00 ................
0040BDD0 00 00 00 00 00 00 00 00 00 00 00 00 00 00 00 00 ................
0040BDE0 00 00 00 00 00 00 00 00 00 00 00 00 00 00 00 00 ................
0040BDF0 00 00 00 00 00 00 00 00 00 00 00 00 00 00 00 00 ................
0040BE00 00 00 00 00 00 00 00 00 00 00 00 00 00 00 00 00 ................
0040BE10 00 00 00 00 00 00 00 00 00 00 00 00 00 00 00 00 ................
0040BE20 00 00 00 00 00 00 00 00 00 00 00 00 00 00 00 00 ................
0040BE30 00 00 00 00 00 00 00 00 00 00 00 00 00 00 00 00 ................
0040BE40 00 00 00 00 00 00 00 00 00 00 00 00 00 00 00 00 ................
0040BE50 00 00 00 00 00 00 00 00 00 00 00 00 00 00 00 00 ................
0040BE60 00 00 00 00 00 00 00 00 00 00 00 00 00 00 00 00 ................
0040BE70 00 00 00 00 00 00 00 00 00 00 00 00 00 00 00 00 ................
0040BE80 00 00 00 00 00 00 00 00 00 00 00 00 00 00 00 00 ................
0040BE90 00 00 00 00 00 00 00 00 00 00 00 00 00 00 00 00 ................
0040BEA0 00 00 00 00 00 00 00 00 00 00 00 00 00 00 00 00 ................
0040BEB0 00 00 00 00 00 00 00 00 00 00 00 00 00 00 00 00 ................
0040BEC0 00 00 00 00 00 00 00 00 00 00 00 00 00 00 00 00 ................
0040BED0 00 00 00 00 00 00 00 00 00 00 00 00 00 00 00 00 ................
0040BEE0 00 00 00 00 00 00 00 00 00 00 00 00 00 00 00 00 ................
0040BEF0 00 00 00 00 00 00 00 00 00 00 00 00 00 00 00 00 ................
0040BF00 00 00 00 00 00 00 00 00 00 00 00 00 00 00 00 00 ................
0040BF10 00 00 00 00 00 00 00 00 00 00 00 00 00 00 00 00 ................
0040BF20 00 00 00 00 00 00 00 00 00 00 00 00 00 00 00 00 ................
0040BF30 00 00 00 00 00 00 00 00 00 00 00 00 00 00 00 00 ................
0040BF40 00 00 00 00 00 00 00 00 00 00 00 00 00 00 00 00 ................
0040BF50 00 00 00 00 00 00 00 00 00 00 00 00 00 00 00 00 ................
0040BF60 00 00 00 00 00 00 00 00 00 00 00 00 00 00 00 00 ................
0040BF70 00 00 00 00 00 00 00 00 00 00 00 00 00 00 00 00 ................
0040BF80 00 00 00 00 00 00 00 00 00 00 00 00 00 00 00 00 ................
0040BF90 00 00 00 00 00 00 00 00 00 00 00 00 00 00 00 00 ................
0040BFA0 00 00 00 00 00 00 00 00 00 00 00 00 00 00 00 00 ................
0040BFB0 00 00 00 00 00 00 00 00 00 00 00 00 00 00 00 00 ................
0040BFC0 00 00 00 00 00 00 00 00 00 00 00 00 00 00 00 00 ................
0040BFD0 00 00 00 00 00 00 00 00 00 00 00 00 00 00 00 00 ................
0040BFE0 00 00 00 00 00 00 00 00 00 00 00 00 00 00 00 00 ................
0040BFF0 00 00 00 00 00 00 00 00 00 00 00 00 00 00 00 00 ................
0040C000 00 00 00 00 00 00 00 00 00 00 00 00 00 00 00 00 ................
0040C010 00 00 00 00 00 00 00 00 00 00 00 00 00 00 00 00 ................
0040C020 00 00 00 00 00 00 00 00 00 00 00 00 00 00 00 00 ................
0040C030 00 00 00 00 00 00 00 00 00 00 00 00 00 00 00 00 ................
0040C040 00 00 00 00 00 00 00 00 00 00 00 00 00 00 00 00 ................
0040C050 00 00 00 00 00 00 00 00 00 00 00 00 00 00 00 00 ................
0040C060 00 00 00 00 00 00 00 00 00 00 00 00 00 00 00 00 ................
0040C070 00 00 00 00 00 00 00 00 00 00 00 00 00 00 00 00 ................
0040C080 00 00 00 00 00 00 00 00 00 00 00 00 00 00 00 00 ................
0040C090 00 00 00 00 00 00 00 00 00 00 00 00 00 00 00 00 ................
0040C0A0 00 00 00 00 00 00 00 00 00 00 00 00 00 00 00 00 ................
0040C0B0 00 00 00 00 00 00 00 00 00 00 00 00 00 00 00 00 ................
0040C0C0 00 00 00 00 00 00 00 00 00 00 00 00 00 00 00 00 ................
0040C0D0 00 00 00 00 00 00 00 00 00 00 00 00 00 00 00 00 ................
0040C0E0 00 00 00 00 00 00 00 00 00 00 00 00 00 00 00 00 ................
0040C0F0 00 00 00 00 00 00 00 00 00 00 00 00 00 00 00 00 ................
0040C100 00 00 00 00 00 00 00 00 00 00 00 00 00 00 00 00 ................
0040C110 00 00 00 00 00 00 00 00 00 00 00 00 00 00 00 00 ................
0040C120 00 00 00 00 00 00 00 00 00 00 00 00 00 00 00 00 ................
0040C130 00 00 00 00 00 00 00 00 00 00 00 00 00 00 00 00 ................
0040C140 00 00 00 00 00 00 00 00 00 00 00 00 00 00 00 00 ................
0040C150 00 00 00 00 00 00 00 00 00 00 00 00 00 00 00 00 ................
0040C160 00 00 00 00 00 00 00 00 00 00 00 00 00 00 00 00 ................
0040C170 00 00 00 00 00 00 00 00 00 00 00 00 00 00 00 00 ................
0040C180 00 00 00 00 00 00 00 00 00 00 00 00 00 00 00 00 ................
0040C190 00 00 00 00 00 00 00 00 00 00 00 00 00 00 00 00 ................
0040C1A0 00 00 00 00 00 00 00 00 00 00 00 00 00 00 00 00 ................
0040C1B0 00 00 00 00 00 00 00 00 00 00 00 00 00 00 00 00 ................
0040C1C0 00 00 00 00 00 00 00 00 00 00 00 00 00 00 00 00 ................
0040C1D0 00 00 00 00 00 00 00 00 00 00 00 00 00 00 00 00 ................
0040C1E0 00 00 00 00 00 00 00 00 00 00 00 00 00 00 00 00 ................
0040C1F0 00 00 00 00 00 00 00 00 00 00 00 00 00 00 00 00 ................
0040C200 00 00 00 00 00 00 00 00 00 00 00 00 00 00 00 00 ................
0040C210 00 00 00 00 00 00 00 00 00 00 00 00 00 00 00 00 ................
0040C220 00 00 00 00 00 00 00 00 00 00 00 00 00 00 00 00 ................
0040C230 00 00 00 00 00 00 00 00 00 00 00 00 00 00 00 00 ................
0040C240 00 00 00 00 00 00 00 00 00 00 00 00 00 00 00 00 ................
0040C250 00 00 00 00 00 00 00 00 00 00 00 00 00 00 00 00 ................
0040C260 00 00 00 00 00 00 00 00 00 00 00 00 00 00 00 00 ................
0040C270 00 00 00 00 00 00 00 00 00 00 00 00 00 00 00 00 ................
0040C280 00 00 00 00 00 00 00 00 00 00 00 00 00 00 00 00 ................
0040C290 00 00 00 00 00 00 00 00 00 00 00 00 00 00 00 00 ................
0040C2A0 00 00 00 00 00 00 00 00 00 00 00 00 00 00 00 00 ................
0040C2B0 00 00 00 00 00 00 00 00 00 00 00 00 00 00 00 00 ................
0040C2C0 00 00 00 00 00 00 00 00 00 00 00 00 00 00 00 00 ................
0040C2D0 00 00 00 00 00 00 00 00 00 00 00 00 00 00 00 00 ................
0040C2E0 00 00 00 00 00 00 00 00 00 00 00 00 00 00 00 00 ................
0040C2F0 00 00 00 00 00 00 00 00 00 00 00 00 00 00 00 00 ................
0040C300 00 00 00 00 00 00 00 00 00 00 00 00 00 00 00 00 ................
0040C310 00 00 00 00 00 00 00 00 00 00 00 00 00 00 00 00 ................
0040C320 00 00 00 00 00 00 00 00 00 00 00 00 00 00 00 00 ................
0040C330 00 00 00 00 00 00 00 00 00 00 00 00 00 00 00 00 ................
0040C340 00 00 00 00 00 00 00 00 00 00 00 00 00 00 00 00 ................
0040C350 00 00 00 00 00 00 00 00 00 00 00 00 00 00 00 00 ................
0040C360 00 00 00 00 00 00 00 00 00 00 00 00 00 00 00 00 ................
0040C370 00 00 00 00 00 00 00 00 00 00 00 00 00 00 00 00 ................
0040C380 00 00 00 00 00 00 00 00 00 00 00 00 00 00 00 00 ................
0040C390 00 00 00 00 00 00 00 00 00 00 00 00 00 00 00 00 ................
0040C3A0 00 00 00 00 00 00 00 00 00 00 00 00 00 00 00 00 ................
0040C3B0 00 00 00 00 00 00 00 00 00 00 00 00 00 00 00 00 ................
0040C3C0 00 00 00 00 00 00 00 00 00 00 00 00 00 00 00 00 ................
0040C3D0 00 00 00 00 00 00 00 00 00 00 00 00 00 00 00 00 ................
0040C3E0 00 00 00 00 00 00 00 00 00 00 00 00 00 00 00 00 ................
0040C3F0 00 00 00 00 00 00 00 00 00 00 00 00 00 00 00 00 ................
0040C400 00 00 00 00 00 00 00 00 00 00 00 00 00 00 00 00 ................
0040C410 00 00 00 00 00 00 00 00 00 00 00 00 00 00 00 00 ................
0040C420 00 00 00 00 00 00 00 00 00 00 00 00 00 00 00 00 ................
0040C430 00 00 00 00 00 00 00 00 00 00 00 00 00 00 00 00 ................
0040C440 00 00 00 00 00 00 00 00 00 00 00 00 00 00 00 00 ................
0040C450 00 00 00 00 00 00 00 00 00 00 00 00 00 00 00 00 ................
0040C460 00 00 00 00 00 00 00 00 00 00 00 00 00 00 00 00 ................
0040C470 00 00 00 00 00 00 00 00 00 00 00 00 00 00 00 00 ................
0040C480 00 00 00 00 00 00 00 00 00 00 00 00 00 00 00 00 ................
0040C490 00 00 00 00 00 00 00 00 00 00 00 00 00 00 00 00 ................
0040C4A0 00 00 00 00 00 00 00 00 00 00 00 00 00 00 00 00 ................
0040C4B0 00 00 00 00 00 00 00 00 00 00 00 00 00 00 00 00 ................
0040C4C0 00 00 00 00 00 00 00 00 00 00 00 00 00 00 00 00 ................
0040C4D0 00 00 00 00 00 00 00 00 00 00 00 00 00 00 00 00 ................
0040C4E0 00 00 00 00 00 00 00 00 00 00 00 00 00 00 00 00 ................
0040C4F0 00 00 00 00 00 00 00 00 00 00 00 00 00 00 00 00 ................
0040C500 00 00 00 00 00 00 00 00 00 00 00 00 00 00 00 00 ................
0040C510 00 00 00 00 00 00 00 00 00 00 00 00 00 00 00 00 ................
0040C520 00 00 00 00 00 00 00 00 00 00 00 00 00 00 00 00 ................
0040C530 00 00 00 00 00 00 00 00 00 00 00 00 00 00 00 00 ................
0040C540 00 00 00 00 00 00 00 00 00 00 00 00 00 00 00 00 ................
0040C550 00 00 00 00 00 00 00 00 00 00 00 00 00 00 00 00 ................
0040C560 00 00 00 00 00 00 00 00 00 00 00 00 00 00 00 00 ................
0040C570 00 00 00 00 00 00 00 00 00 00 00 00 00 00 00 00 ................
0040C580 00 00 00 00 00 00 00 00 00 00 00 00 00 00 00 00 ................
0040C590 00 00 00 00 00 00 00 00 00 00 00 00 00 00 00 00 ................
0040C5A0 00 00 00 00 00 00 00 00 00 00 00 00 00 00 00 00 ................
0040C5B0 00 00 00 00 00 00 00 00 00 00 00 00 00 00 00 00 ................
0040C5C0 00 00 00 00 00 00 00 00 00 00 00 00 00 00 00 00 ................
0040C5D0 00 00 00 00 00 00 00 00 00 00 00 00 00 00 00 00 ................
0040C5E0 00 00 00 00 00 00 00 00 00 00 00 00 00 00 00 00 ................
0040C5F0 00 00 00 00 00 00 00 00 00 00 00 00 00 00 00 00 ................
0040C600 00 00 00 00 00 00 00 00 00 00 00 00 00 00 00 00 ................
0040C610 00 00 00 00 00 00 00 00 00 00 00 00 00 00 00 00 ................
0040C620 00 00 00 00 00 00 00 00 00 00 00 00 00 00 00 00 ................
0040C630 00 00 00 00 00 00 00 00 00 00 00 00 00 00 00 00 ................
0040C640 00 00 00 00 00 00 00 00 00 00 00 00 00 00 00 00 ................
0040C650 00 00 00 00 00 00 00 00 00 00 00 00 00 00 00 00 ................
0040C660 00 00 00 00 00 00 00 00 00 00 00 00 00 00 00 00 ................
0040C670 00 00 00 00 00 00 00 00 00 00 00 00 00 00 00 00 ................
0040C680 00 00 00 00 00 00 00 00 00 00 00 00 00 00 00 00 ................
0040C690 00 00 00 00 00 00 00 00 00 00 00 00 00 00 00 00 ................
0040C6A0 00 00 00 00 00 00 00 00 00 00 00 00 00 00 00 00 ................
0040C6B0 00 00 00 00 00 00 00 00 00 00 00 00 00 00 00 00 ................
0040C6C0 00 00 00 00 00 00 00 00 00 00 00 00 00 00 00 00 ................
0040C6D0 00 00 00 00 00 00 00 00 00 00 00 00 00 00 00 00 ................
0040C6E0 00 00 00 00 00 00 00 00 00 00 00 00 00 00 00 00 ................
0040C6F0 00 00 00 00 00 00 00 00 00 00 00 00 00 00 00 00 ................
0040C700 00 00 00 00 00 00 00 00 00 00 00 00 00 00 00 00 ................
0040C710 00 00 00 00 00 00 00 00 00 00 00 00 00 00 00 00 ................
0040C720 00 00 00 00 00 00 00 00 00 00 00 00 00 00 00 00 ................
0040C730 00 00 00 00 00 00 00 00 00 00 00 00 00 00 00 00 ................
0040C740 00 00 00 00 00 00 00 00 00 00 00 00 00 00 00 00 ................
0040C750 00 00 00 00 00 00 00 00 00 00 00 00 00 00 00 00 ................
0040C760 00 00 00 00 00 00 00 00 00 00 00 00 00 00 00 00 ................
0040C770 00 00 00 00 00 00 00 00 00 00 00 00 00 00 00 00 ................
0040C780 00 00 00 00 00 00 00 00 00 00 00 00 00 00 00 00 ................
0040C790 00 00 00 00 00 00 00 00 00 00 00 00 00 00 00 00 ................
0040C7A0 00 00 00 00 00 00 00 00 00 00 00 00 00 00 00 00 ................
0040C7B0 00 00 00 00 00 00 00 00 00 00 00 00 00 00 00 00 ................
0040C7C0 00 00 00 00 00 00 00 00 00 00 00 00 00 00 00 00 ................
0040C7D0 00 00 00 00 00 00 00 00 00 00 00 00 00 00 00 00 ................
0040C7E0 00 00 00 00 00 00 00 00 00 00 00 00 00 00 00 00 ................
0040C7F0 00 00 00 00 00 00 00 00 00 00 00 00 00 00 00 00 ................
0040C800 00 00 00 00 00 00 00 00 00 00 00 00 00 00 00 00 ................
0040C810 00 00 00 00 00 00 00 00 00 00 00 00 00 00 00 00 ................
0040C820 00 00 00 00 00 00 00 00 00 00 00 00 00 00 00 00 ................
0040C830 00 00 00 00 00 00 00 00 00 00 00 00 00 00 00 00 ................
0040C840 00 00 00 00 00 00 00 00 00 00 00 00 00 00 00 00 ................
0040C850 00 00 00 00 00 00 00 00 00 00 00 00 00 00 00 00 ................
0040C860 00 00 00 00 00 00 00 00 00 00 00 00 00 00 00 00 ................
0040C870 00 00 00 00 00 00 00 00 00 00 00 00 00 00 00 00 ................
0040C880 00 00 00 00 00 00 00 00 00 00 00 00 00 00 00 00 ................
0040C890 00 00 00 00 00 00 00 00 00 00 00 00 00 00 00 00 ................
0040C8A0 00 00 00 00 00 00 00 00 00 00 00 00 00 00 00 00 ................
0040C8B0 00 00 00 00 00 00 00 00 00 00 00 00 00 00 00 00 ................
0040C8C0 00 00 00 00 00 00 00 00 00 00 00 00 00 00 00 00 ................
0040C8D0 00 00 00 00 00 00 00 00 00 00 00 00 00 00 00 00 ................
0040C8E0 00 00 00 00 00 00 00 00 00 00 00 00 00 00 00 00 ................
0040C8F0 00 00 00 00 00 00 00 00 00 00 00 00 00 00 00 00 ................
0040C900 00 00 00 00 00 00 00 00 00 00 00 00 00 00 00 00 ................
0040C910 00 00 00 00 00 00 00 00 00 00 00 00 00 00 00 00 ................
0040C920 00 00 00 00 00 00 00 00 00 00 00 00 00 00 00 00 ................
0040C930 00 00 00 00 00 00 00 00 00 00 00 00 00 00 00 00 ................
0040C940 00 00 00 00 00 00 00 00 00 00 00 00 00 00 00 00 ................
0040C950 00 00 00 00 00 00 00 00 00 00 00 00 00 00 00 00 ................
0040C960 00 00 00 00 00 00 00 00 00 00 00 00 00 00 00 00 ................
0040C970 00 00 00 00 00 00 00 00 00 00 00 00 00 00 00 00 ................
0040C980 00 00 00 00 00 00 00 00 00 00 00 00 00 00 00 00 ................
0040C990 00 00 00 00 00 00 00 00 00 00 00 00 00 00 00 00 ................
0040C9A0 00 00 00 00 00 00 00 00 00 00 00 00 00 00 00 00 ................
0040C9B0 00 00 00 00 00 00 00 00 00 00 00 00 00 00 00 00 ................
0040C9C0 00 00 00 00 00 00 00 00 00 00 00 00 00 00 00 00 ................
0040C9D0 00 00 00 00 00 00 00 00 00 00 00 00 00 00 00 00 ................
0040C9E0 00 00 00 00 00 00 00 00 00 00 00 00 00 00 00 00 ................
0040C9F0 00 00 00 00 00 00 00 00 00 00 00 00 00 00 00 00 ................
0040CA00 00 00 00 00 00 00 00 00 00 00 00 00 00 00 00 00 ................
0040CA10 00 00 00 00 00 00 00 00 00 00 00 00 00 00 00 00 ................
0040CA20 00 00 00 00 00 00 00 00 00 00 00 00 00 00 00 00 ................
0040CA30 00 00 00 00 00 00 00 00 00 00 00 00 00 00 00 00 ................
0040CA40 00 00 00 00 00 00 00 00 00 00 00 00 00 00 00 00 ................
0040CA50 00 00 00 00 00 00 00 00 00 00 00 00 00 00 00 00 ................
0040CA60 00 00 00 00 00 00 00 00 00 00 00 00 00 00 00 00 ................
0040CA70 00 00 00 00 00 00 00 00 00 00 00 00 00 00 00 00 ................
0040CA80 00 00 00 00 00 00 00 00 00 00 00 00 00 00 00 00 ................
0040CA90 00 00 00 00 00 00 00 00 00 00 00 00 00 00 00 00 ................
0040CAA0 00 00 00 00 00 00 00 00 00 00 00 00 00 00 00 00 ................
0040CAB0 00 00 00 00 00 00 00 00 00 00 00 00 00 00 00 00 ................
0040CAC0 00 00 00 00 00 00 00 00 00 00 00 00 00 00 00 00 ................
0040CAD0 00 00 00 00 00 00 00 00 00 00 00 00 00 00 00 00 ................
0040CAE0 00 00 00 00 00 00 00 00 00 00 00 00 00 00 00 00 ................
0040CAF0 00 00 00 00 00 00 00 00 00 00 00 00 00 00 00 00 ................
0040CB00 00 00 00 00 00 00 00 00 00 00 00 00 00 00 00 00 ................
0040CB10 00 00 00 00 00 00 00 00 00 00 00 00 00 00 00 00 ................
0040CB20 00 00 00 00 00 00 00 00 00 00 00 00 00 00 00 00 ................
0040CB30 00 00 00 00 00 00 00 00 00 00 00 00 00 00 00 00 ................
0040CB40 00 00 00 00 00 00 00 00 00 00 00 00 00 00 00 00 ................
0040CB50 00 00 00 00 00 00 00 00 00 00 00 00 00 00 00 00 ................
0040CB60 00 00 00 00 00 00 00 00 00 00 00 00 00 00 00 00 ................
0040CB70 00 00 00 00 00 00 00 00 00 00 00 00 00 00 00 00 ................
0040CB80 00 00 00 00 00 00 00 00 00 00 00 00 00 00 00 00 ................
0040CB90 00 00 00 00 00 00 00 00 00 00 00 00 00 00 00 00 ................
0040CBA0 00 00 00 00 00 00 00 00 00 00 00 00 00 00 00 00 ................
0040CBB0 00 00 00 00 00 00 00 00 00 00 00 00 00 00 00 00 ................
0040CBC0 00 00 00 00 00 00 00 00 00 00 00 00 00 00 00 00 ................
0040CBD0 00 00 00 00 00 00 00 00 00 00 00 00 00 00 00 00 ................
0040CBE0 00 00 00 00 00 00 00 00 00 00 00 00 00 00 00 00 ................
0040CBF0 00 00 00 00 00 00 00 00 00 00 00 00 00 00 00 00 ................
0040CC00 00 00 00 00 00 00 00 00 00 00 00 00 00 00 00 00 ................
0040CC10 00 00 00 00 00 00 00 00 00 00 00 00 00 00 00 00 ................
0040CC20 00 00 00 00 00 00 00 00 00 00 00 00 00 00 00 00 ................
0040CC30 00 00 00 00 00 00 00 00 00 00 00 00 00 00 00 00 ................
0040CC40 00 00 00 00 00 00 00 00 00 00 00 00 00 00 00 00 ................
0040CC50 00 00 00 00 00 00 00 00 00 00 00 00 00 00 00 00 ................
0040CC60 00 00 00 00 00 00 00 00 00 00 00 00 00 00 00 00 ................
0040CC70 00 00 00 00 00 00 00 00 00 00 00 00 00 00 00 00 ................
0040CC80 00 00 00 00 00 00 00 00 00 00 00 00 00 00 00 00 ................
0040CC90 00 00 00 00 00 00 00 00 00 00 00 00 00 00 00 00 ................
0040CCA0 00 00 00 00 00 00 00 00 00 00 00 00 00 00 00 00 ................
0040CCB0 00 00 00 00 00 00 00 00 00 00 00 00 00 00 00 00 ................
0040CCC0 00 00 00 00 00 00 00 00 00 00 00 00 00 00 00 00 ................
0040CCD0 00 00 00 00 00 00 00 00 00 00 00 00 00 00 00 00 ................
0040CCE0 00 00 00 00 00 00 00 00 00 00 00 00 00 00 00 00 ................
0040CCF0 00 00 00 00 00 00 00 00 00 00 00 00 00 00 00 00 ................
0040CD00 00 00 00 00 00 00 00 00 00 00 00 00 00 00 00 00 ................
0040CD10 00 00 00 00 00 00 00 00 00 00 00 00 00 00 00 00 ................
0040CD20 00 00 00 00 00 00 00 00 00 00 00 00 00 00 00 00 ................
0040CD30 00 00 00 00 00 00 00 00 00 00 00 00 00 00 00 00 ................
0040CD40 00 00 00 00 00 00 00 00 00 00 00 00 00 00 00 00 ................
0040CD50 00 00 00 00 00 00 00 00 00 00 00 00 00 00 00 00 ................
0040CD60 00 00 00 00 00 00 00 00 00 00 00 00 00 00 00 00 ................
0040CD70 00 00 00 00 00 00 00 00 00 00 00 00 00 00 00 00 ................
0040CD80 00 00 00 00 00 00 00 00 00 00 00 00 00 00 00 00 ................
0040CD90 00 00 00 00 00 00 00 00 00 00 00 00 00 00 00 00 ................
0040CDA0 00 00 00 00 00 00 00 00 00 00 00 00 00 00 00 00 ................
0040CDB0 00 00 00 00 00 00 00 00 00 00 00 00 00 00 00 00 ................
0040CDC0 00 00 00 00 00 00 00 00 00 00 00 00 00 00 00 00 ................
0040CDD0 00 00 00 00 00 00 00 00 00 00 00 00 00 00 00 00 ................
0040CDE0 00 00 00 00 00 00 00 00 00 00 00 00 00 00 00 00 ................
0040CDF0 00 00 00 00 00 00 00 00 00 00 00 00 00 00 00 00 ................
0040CE00 00 00 00 00 00 00 00 00 00 00 00 00 00 00 00 00 ................
0040CE10 00 00 00 00 00 00 00 00 00 00 00 00 00 00 00 00 ................
0040CE20 00 00 00 00 00 00 00 00 00 00 00 00 00 00 00 00 ................
0040CE30 00 00 00 00 00 00 00 00 00 00 00 00 00 00 00 00 ................
0040CE40 00 00 00 00 00 00 00 00 00 00 00 00 00 00 00 00 ................
0040CE50 00 00 00 00 00 00 00 00 00 00 00 00 00 00 00 00 ................
0040CE60 00 00 00 00 00 00 00 00 00 00 00 00 00 00 00 00 ................
0040CE70 00 00 00 00 00 00 00 00 00 00 00 00 00 00 00 00 ................
0040CE80 00 00 00 00 00 00 00 00 00 00 00 00 00 00 00 00 ................
0040CE90 00 00 00 00 00 00 00 00 00 00 00 00 00 00 00 00 ................
0040CEA0 00 00 00 00 00 00 00 00 00 00 00 00 00 00 00 00 ................
0040CEB0 00 00 00 00 00 00 00 00 00 00 00 00 00 00 00 00 ................
0040CEC0 00 00 00 00 00 00 00 00 00 00 00 00 00 00 00 00 ................
0040CED0 00 00 00 00 00 00 00 00 00 00 00 00 00 00 00 00 ................
0040CEE0 00 00 00 00 00 00 00 00 00 00 00 00 00 00 00 00 ................
0040CEF0 00 00 00 00 00 00 00 00 00 00 00 00 00 00 00 00 ................
0040CF00 00 00 00 00 00 00 00 00 00 00 00 00 00 00 00 00 ................
0040CF10 00 00 00 00 00 00 00 00 00 00 00 00 00 00 00 00 ................
0040CF20 00 00 00 00 00 00 00 00 00 00 00 00 00 00 00 00 ................
0040CF30 00 00 00 00 00 00 00 00 00 00 00 00 00 00 00 00 ................
0040CF40 00 00 00 00 00 00 00 00 00 00 00 00 00 00 00 00 ................
0040CF50 00 00 00 00 00 00 00 00 00 00 00 00 00 00 00 00 ................
0040CF60 00 00 00 00 00 00 00 00 00 00 00 00 00 00 00 00 ................
0040CF70 00 00 00 00 00 00 00 00 00 00 00 00 00 00 00 00 ................
0040CF80 00 00 00 00 00 00 00 00 00 00 00 00 00 00 00 00 ................
0040CF90 00 00 00 00 00 00 00 00 00 00 00 00 00 00 00 00 ................
0040CFA0 00 00 00 00 00 00 00 00 00 00 00 00 00 00 00 00 ................
0040CFB0 00 00 00 00 00 00 00 00 00 00 00 00 00 00 00 00 ................
0040CFC0 00 00 00 00 00 00 00 00 00 00 00 00 00 00 00 00 ................
0040CFD0 00 00 00 00 00 00 00 00 00 00 00 00 00 00 00 00 ................
0040CFE0 00 00 00 00 00 00 00 00 00 00 00 00 00 00 00 00 ................
0040CFF0 00 00 00 00 00 00 00 00 00 00 00 00 00 00 00 00 ................
0040D000 00 00 00 00 00 00 00 00 00 00 00 00 00 00 00 00 ................
0040D010 00 00 00 00 00 00 00 00 00 00 00 00 00 00 00 00 ................
0040D020 00 00 00 00 00 00 00 00 00 00 00 00 00 00 00 00 ................
0040D030 00 00 00 00 00 00 00 00 00 00 00 00 00 00 00 00 ................
0040D040 00 00 00 00 00 00 00 00 00 00 00 00 00 00 00 00 ................
0040D050 00 00 00 00 00 00 00 00 00 00 00 00 00 00 00 00 ................
0040D060 00 00 00 00 00 00 00 00 00 00 00 00 00 00 00 00 ................
0040D070 00 00 00 00 00 00 00 00 00 00 00 00 00 00 00 00 ................
0040D080 00 00 00 00 00 00 00 00 00 00 00 00 00 00 00 00 ................
0040D090 00 00 00 00 00 00 00 00 00 00 00 00 00 00 00 00 ................
0040D0A0 00 00 00 00 00 00 00 00 00 00 00 00 00 00 00 00 ................
0040D0B0 00 00 00 00 00 00 00 00 00 00 00 00 00 00 00 00 ................
0040D0C0 00 00 00 00 00 00 00 00 00 00 00 00 00 00 00 00 ................
0040D0D0 00 00 00 00 00 00 00 00 00 00 00 00 00 00 00 00 ................
0040D0E0 00 00 00 00 00 00 00 00 00 00 00 00 00 00 00 00 ................
0040D0F0 00 00 00 00 00 00 00 00 00 00 00 00 00 00 00 00 ................
0040D100 00 00 00 00 00 00 00 00 00 00 00 00 00 00 00 00 ................
0040D110 00 00 00 00 00 00 00 00 00 00 00 00 00 00 00 00 ................
0040D120 00 00 00 00 00 00 00 00 00 00 00 00 00 00 00 00 ................
0040D130 00 00 00 00 00 00 00 00 00 00 00 00 00 00 00 00 ................
0040D140 00 00 00 00 00 00 00 00 00 00 00 00 00 00 00 00 ................
0040D150 00 00 00 00 00 00 00 00 00 00 00 00 00 00 00 00 ................
0040D160 00 00 00 00 00 00 00 00 00 00 00 00 00 00 00 00 ................
0040D170 00 00 00 00 00 00 00 00 00 00 00 00 00 00 00 00 ................
0040D180 00 00 00 00 00 00 00 00 00 00 00 00 00 00 00 00 ................
0040D190 00 00 00 00 00 00 00 00 00 00 00 00 00 00 00 00 ................
0040D1A0 00 00 00 00 00 00 00 00 00 00 00 00 00 00 00 00 ................
0040D1B0 00 00 00 00 00 00 00 00 00 00 00 00 00 00 00 00 ................
0040D1C0 00 00 00 00 00 00 00 00 00 00 00 00 00 00 00 00 ................
0040D1D0 00 00 00 00 00 00 00 00 00 00 00 00 00 00 00 00 ................
0040D1E0 00 00 00 00 00 00 00 00 00 00 00 00 00 00 00 00 ................
0040D1F0 00 00 00 00 00 00 00 00 00 00 00 00 00 00 00 00 ................
0040D200 00 00 00 00 00 00 00 00 00 00 00 00 00 00 00 00 ................
0040D210 00 00 00 00 00 00 00 00 00 00 00 00 00 00 00 00 ................
0040D220 00 00 00 00 00 00 00 00 00 00 00 00 00 00 00 00 ................
0040D230 00 00 00 00 00 00 00 00 00 00 00 00 00 00 00 00 ................
0040D240 00 00 00 00 00 00 00 00 00 00 00 00 00 00 00 00 ................
0040D250 00 00 00 00 00 00 00 00 00 00 00 00 00 00 00 00 ................
0040D260 00 00 00 00 00 00 00 00 00 00 00 00 00 00 00 00 ................
0040D270 00 00 00 00 00 00 00 00 00 00 00 00 00 00 00 00 ................
0040D280 00 00 00 00 00 00 00 00 00 00 00 00 00 00 00 00 ................
0040D290 00 00 00 00 00 00 00 00 00 00 00 00 00 00 00 00 ................
0040D2A0 00 00 00 00 00 00 00 00 00 00 00 00 00 00 00 00 ................
0040D2B0 00 00 00 00 00 00 00 00 00 00 00 00 00 00 00 00 ................
0040D2C0 00 00 00 00 00 00 00 00 00 00 00 00 00 00 00 00 ................
0040D2D0 00 00 00 00 00 00 00 00 00 00 00 00 00 00 00 00 ................
0040D2E0 00 00 00 00 00 00 00 00 00 00 00 00 00 00 00 00 ................
0040D2F0 00 00 00 00 00 00 00 00 00 00 00 00 00 00 00 00 ................
0040D300 00 00 00 00 00 00 00 00 00 00 00 00 00 00 00 00 ................
0040D310 00 00 00 00 00 00 00 00 00 00 00 00 00 00 00 00 ................
0040D320 00 00 00 00 00 00 00 00 00 00 00 00 00 00 00 00 ................
0040D330 00 00 00 00 00 00 00 00 00 00 00 00 00 00 00 00 ................
0040D340 00 00 00 00 00 00 00 00 00 00 00 00 00 00 00 00 ................
0040D350 00 00 00 00 00 00 00 00 00 00 00 00 00 00 00 00 ................
0040D360 00 00 00 00 00 00 00 00 00 00 00 00 00 00 00 00 ................
0040D370 00 00 00 00 00 00 00 00 00 00 00 00 00 00 00 00 ................
0040D380 00 00 00 00 00 00 00 00 00 00 00 00 00 00 00 00 ................
0040D390 00 00 00 00 00 00 00 00 00 00 00 00 00 00 00 00 ................
0040D3A0 00 00 00 00 00 00 00 00 00 00 00 00 00 00 00 00 ................
0040D3B0 00 00 00 00 00 00 00 00 00 00 00 00 00 00 00 00 ................
0040D3C0 00 00 00 00 00 00 00 00 00 00 00 00 00 00 00 00 ................
0040D3D0 00 00 00 00 00 00 00 00 00 00 00 00 00 00 00 00 ................
0040D3E0 00 00 00 00 00 00 00 00 00 00 00 00 00 00 00 00 ................
0040D3F0 00 00 00 00 00 00 00 00 00 00 00 00 00 00 00 00 ................
0040D400 00 00 00 00 00 00 00 00 00 00 00 00 00 00 00 00 ................
0040D410 00 00 00 00 00 00 00 00 00 00 00 00 00 00 00 00 ................
0040D420 00 00 00 00 00 00 00 00 00 00 00 00 00 00 00 00 ................
0040D430 00 00 00 00 00 00 00 00 00 00 00 00 00 00 00 00 ................
0040D440 00 00 00 00 00 00 00 00 00 00 00 00 00 00 00 00 ................
0040D450 00 00 00 00 00 00 00 00 00 00 00 00 00 00 00 00 ................
0040D460 00 00 00 00 00 00 00 00 00 00 00 00 00 00 00 00 ................
0040D470 00 00 00 00 00 00 00 00 00 00 00 00 00 00 00 00 ................
0040D480 00 00 00 00 00 00 00 00 00 00 00 00 00 00 00 00 ................
0040D490 00 00 00 00 00 00 00 00 00 00 00 00 00 00 00 00 ................
0040D4A0 00 00 00 00 00 00 00 00 00 00 00 00 00 00 00 00 ................
0040D4B0 00 00 00 00 00 00 00 00 00 00 00 00 00 00 00 00 ................
0040D4C0 00 00 00 00 00 00 00 00 00 00 00 00 00 00 00 00 ................
0040D4D0 00 00 00 00 00 00 00 00 00 00 00 00 00 00 00 00 ................
0040D4E0 00 00 00 00 00 00 00 00 00 00 00 00 00 00 00 00 ................
0040D4F0 00 00 00 00 00 00 00 00 00 00 00 00 00 00 00 00 ................
0040D500 00 00 00 00 00 00 00 00 00 00 00 00 00 00 00 00 ................
0040D510 00 00 00 00 00 00 00 00 00 00 00 00 00 00 00 00 ................
0040D520 00 00 00 00 00 00 00 00 00 00 00 00 00 00 00 00 ................
0040D530 00 00 00 00 00 00 00 00 00 00 00 00 00 00 00 00 ................
0040D540 00 00 00 00 00 00 00 00 00 00 00 00 00 00 00 00 ................
0040D550 00 00 00 00 00 00 00 00 00 00 00 00 00 00 00 00 ................
0040D560 00 00 00 00 00 00 00 00 00 00 00 00 00 00 00 00 ................
0040D570 00 00 00 00 00 00 00 00 00 00 00 00 00 00 00 00 ................
0040D580 00 00 00 00 00 00 00 00 00 00 00 00 00 00 00 00 ................
0040D590 00 00 00 00 00 00 00 00 00 00 00 00 00 00 00 00 ................
0040D5A0 00 00 00 00 00 00 00 00 00 00 00 00 00 00 00 00 ................
0040D5B0 00 00 00 00 00 00 00 00 00 00 00 00 00 00 00 00 ................
0040D5C0 00 00 00 00 00 00 00 00 00 00 00 00 00 00 00 00 ................
0040D5D0 00 00 00 00 00 00 00 00 00 00 00 00 00 00 00 00 ................
0040D5E0 00 00 00 00 00 00 00 00 00 00 00 00 00 00 00 00 ................
0040D5F0 00 00 00 00 00 00 00 00 00 00 00 00 00 00 00 00 ................
0040D600 00 00 00 00 00 00 00 00 00 00 00 00 00 00 00 00 ................
0040D610 00 00 00 00 00 00 00 00 00 00 00 00 00 00 00 00 ................
0040D620 00 00 00 00 00 00 00 00 00 00 00 00 00 00 00 00 ................
0040D630 00 00 00 00 00 00 00 00 00 00 00 00 00 00 00 00 ................
0040D640 00 00 00 00 00 00 00 00 00 00 00 00 00 00 00 00 ................
0040D650 00 00 00 00 00 00 00 00 00 00 00 00 00 00 00 00 ................
0040D660 00 00 00 00 00 00 00 00 00 00 00 00 00 00 00 00 ................
0040D670 00 00 00 00 00 00 00 00 00 00 00 00 00 00 00 00 ................
0040D680 00 00 00 00 00 00 00 00 00 00 00 00 00 00 00 00 ................
0040D690 00 00 00 00 00 00 00 00 00 00 00 00 00 00 00 00 ................
0040D6A0 00 00 00 00 00 00 00 00 00 00 00 00 00 00 00 00 ................
0040D6B0 00 00 00 00 00 00 00 00 00 00 00 00 00 00 00 00 ................
0040D6C0 00 00 00 00 00 00 00 00 00 00 00 00 00 00 00 00 ................
0040D6D0 00 00 00 00 00 00 00 00 00 00 00 00 00 00 00 00 ................
0040D6E0 00 00 00 00 00 00 00 00 00 00 00 00 00 00 00 00 ................
0040D6F0 00 00 00 00 00 00 00 00 00 00 00 00 00 00 00 00 ................
0040D700 00 00 00 00 00 00 00 00 00 00 00 00 00 00 00 00 ................
0040D710 00 00 00 00 00 00 00 00 00 00 00 00 00 00 00 00 ................
0040D720 00 00 00 00 00 00 00 00 00 00 00 00 00 00 00 00 ................
0040D730 00 00 00 00 00 00 00 00 00 00 00 00 00 00 00 00 ................
0040D740 00 00 00 00 00 00 00 00 00 00 00 00 00 00 00 00 ................
0040D750 00 00 00 00 00 00 00 00 00 00 00 00 00 00 00 00 ................
0040D760 00 00 00 00 00 00 00 00 00 00 00 00 00 00 00 00 ................
0040D770 00 00 00 00 00 00 00 00 00 00 00 00 00 00 00 00 ................
0040D780 00 00 00 00 00 00 00 00 00 00 00 00 00 00 00 00 ................
0040D790 00 00 00 00 00 00 00 00 00 00 00 00 00 00 00 00 ................
0040D7A0 00 00 00 00 00 00 00 00 00 00 00 00 00 00 00 00 ................
0040D7B0 00 00 00 00 00 00 00 00 00 00 00 00 00 00 00 00 ................
0040D7C0 00 00 00 00 00 00 00 00 00 00 00 00 00 00 00 00 ................
0040D7D0 00 00 00 00 00 00 00 00 00 00 00 00 00 00 00 00 ................
0040D7E0 00 00 00 00 00 00 00 00 00 00 00 00 00 00 00 00 ................
0040D7F0 00 00 00 00 00 00 00 00 00 00 00 00 00 00 00 00 ................
0040D800 00 00 00 00 00 00 00 00 00 00 00 00 00 00 00 00 ................
0040D810 00 00 00 00 00 00 00 00 00 00 00 00 00 00 00 00 ................
0040D820 00 00 00 00 00 00 00 00 00 00 00 00 00 00 00 00 ................
0040D830 00 00 00 00 00 00 00 00 00 00 00 00 00 00 00 00 ................
0040D840 00 00 00 00 00 00 00 00 00 00 00 00 00 00 00 00 ................
0040D850 00 00 00 00 00 00 00 00 00 00 00 00 00 00 00 00 ................
0040D860 00 00 00 00 00 00 00 00 00 00 00 00 00 00 00 00 ................
0040D870 00 00 00 00 00 00 00 00 00 00 00 00 00 00 00 00 ................
0040D880 00 00 00 00 00 00 00 00 00 00 00 00 00 00 00 00 ................
0040D890 00 00 00 00 00 00 00 00 00 00 00 00 00 00 00 00 ................
0040D8A0 00 00 00 00 00 00 00 00 00 00 00 00 00 00 00 00 ................
0040D8B0 00 00 00 00 00 00 00 00 00 00 00 00 00 00 00 00 ................
0040D8C0 00 00 00 00 00 00 00 00 00 00 00 00 00 00 00 00 ................
0040D8D0 00 00 00 00 00 00 00 00 00 00 00 00 00 00 00 00 ................
0040D8E0 00 00 00 00 00 00 00 00 00 00 00 00 00 00 00 00 ................
0040D8F0 00 00 00 00 00 00 00 00 00 00 00 00 00 00 00 00 ................
0040D900 00 00 00 00 00 00 00 00 00 00 00 00 00 00 00 00 ................
0040D910 00 00 00 00 00 00 00 00 00 00 00 00 00 00 00 00 ................
0040D920 00 00 00 00 00 00 00 00 00 00 00 00 00 00 00 00 ................
0040D930 00 00 00 00 00 00 00 00 00 00 00 00 00 00 00 00 ................
0040D940 00 00 00 00 00 00 00 00 00 00 00 00 00 00 00 00 ................
0040D950 00 00 00 00 00 00 00 00 00 00 00 00 00 00 00 00 ................
0040D960 00 00 00 00 00 00 00 00 00 00 00 00 00 00 00 00 ................
0040D970 00 00 00 00 00 00 00 00 00 00 00 00 00 00 00 00 ................
0040D980 00 00 00 00 00 00 00 00 00 00 00 00 00 00 00 00 ................
0040D990 00 00 00 00 00 00 00 00 00 00 00 00 00 00 00 00 ................
0040D9A0 00 00 00 00 00 00 00 00 00 00 00 00 00 00 00 00 ................
0040D9B0 00 00 00 00 00 00 00 00 00 00 00 00 00 00 00 00 ................
0040D9C0 00 00 00 00 00 00 00 00 00 00 00 00 00 00 00 00 ................
0040D9D0 00 00 00 00 00 00 00 00 00 00 00 00 00 00 00 00 ................
0040D9E0 00 00 00 00 00 00 00 00 00 00 00 00 00 00 00 00 ................
0040D9F0 00 00 00 00 00 00 00 00 00 00 00 00 00 00 00 00 ................
0040DA00 00 00 00 00 00 00 00 00 00 00 00 00 00 00 00 00 ................
0040DA10 00 00 00 00 00 00 00 00 00 00 00 00 00 00 00 00 ................
0040DA20 00 00 00 00 00 00 00 00 00 00 00 00 00 00 00 00 ................
0040DA30 00 00 00 00 00 00 00 00 00 00 00 00 00 00 00 00 ................
0040DA40 00 00 00 00 00 00 00 00 00 00 00 00 00 00 00 00 ................
0040DA50 00 00 00 00 00 00 00 00 00 00 00 00 00 00 00 00 ................
0040DA60 00 00 00 00 00 00 00 00 00 00 00 00 00 00 00 00 ................
0040DA70 00 00 00 00 00 00 00 00 00 00 00 00 00 00 00 00 ................
0040DA80 00 00 00 00 00 00 00 00 00 00 00 00 00 00 00 00 ................
0040DA90 00 00 00 00 00 00 00 00 00 00 00 00 00 00 00 00 ................
0040DAA0 00 00 00 00 00 00 00 00 00 00 00 00 00 00 00 00 ................
0040DAB0 00 00 00 00 00 00 00 00 00 00 00 00 00 00 00 00 ................
0040DAC0 00 00 00 00 00 00 00 00 00 00 00 00 00 00 00 00 ................
0040DAD0 00 00 00 00 00 00 00 00 00 00 00 00 00 00 00 00 ................
0040DAE0 00 00 00 00 00 00 00 00 00 00 00 00 00 00 00 00 ................
0040DAF0 00 00 00 00 00 00 00 00 00 00 00 00 00 00 00 00 ................
0040DB00 00 00 00 00 00 00 00 00 00 00 00 00 00 00 00 00 ................
0040DB10 00 00 00 00 00 00 00 00 00 00 00 00 00 00 00 00 ................
0040DB20 00 00 00 00 00 00 00 00 00 00 00 00 00 00 00 00 ................
0040DB30 00 00 00 00 00 00 00 00 00 00 00 00 00 00 00 00 ................
0040DB40 00 00 00 00 00 00 00 00 00 00 00 00 00 00 00 00 ................
0040DB50 00 00 00 00 00 00 00 00 00 00 00 00 00 00 00 00 ................
0040DB60 00 00 00 00 00 00 00 00 00 00 00 00 00 00 00 00 ................
0040DB70 00 00 00 00 00 00 00 00 00 00 00 00 00 00 00 00 ................
0040DB80 00 00 00 00 00 00 00 00 00 00 00 00 00 00 00 00 ................
0040DB90 00 00 00 00 00 00 00 00 00 00 00 00 00 00 00 00 ................
0040DBA0 00 00 00 00 00 00 00 00 00 00 00 00 00 00 00 00 ................
0040DBB0 00 00 00 00 00 00 00 00 00 00 00 00 00 00 00 00 ................
0040DBC0 00 00 00 00 00 00 00 00 00 00 00 00 00 00 00 00 ................
0040DBD0 00 00 00 00 00 00 00 00 00 00 00 00 00 00 00 00 ................
0040DBE0 00 00 00 00 00 00 00 00 00 00 00 00 00 00 00 00 ................
0040DBF0 00 00 00 00 00 00 00 00 00 00 00 00 00 00 00 00 ................
0040DC00 00 00 00 00 00 00 00 00 00 00 00 00 00 00 00 00 ................
0040DC10 00 00 00 00 00 00 00 00 00 00 00 00 00 00 00 00 ................
0040DC20 00 00 00 00 00 00 00 00 00 00 00 00 00 00 00 00 ................
0040DC30 00 00 00 00 00 00 00 00 00 00 00 00 00 00 00 00 ................
0040DC40 00 00 00 00 00 00 00 00 00 00 00 00 00 00 00 00 ................
0040DC50 00 00 00 00 00 00 00 00 00 00 00 00 00 00 00 00 ................
0040DC60 00 00 00 00 00 00 00 00 00 00 00 00 00 00 00 00 ................
0040DC70 00 00 00 00 00 00 00 00 00 00 00 00 00 00 00 00 ................
0040DC80 00 00 00 00 00 00 00 00 00 00 00 00 00 00 00 00 ................
0040DC90 00 00 00 00 00 00 00 00 00 00 00 00 00 00 00 00 ................
0040DCA0 00 00 00 00 00 00 00 00 00 00 00 00 00 00 00 00 ................
0040DCB0 00 00 00 00 00 00 00 00 00 00 00 00 00 00 00 00 ................
0040DCC0 00 00 00 00 00 00 00 00 00 00 00 00 00 00 00 00 ................
0040DCD0 00 00 00 00 00 00 00 00 00 00 00 00 00 00 00 00 ................
0040DCE0 00 00 00 00 00 00 00 00 00 00 00 00 00 00 00 00 ................
0040DCF0 00 00 00 00 00 00 00 00 00 00 00 00 00 00 00 00 ................
0040DD00 00 00 00 00 00 00 00 00 00 00 00 00 00 00 00 00 ................
0040DD10 00 00 00 00 00 00 00 00 00 00 00 00 00 00 00 00 ................
0040DD20 00 00 00 00 00 00 00 00 00 00 00 00 00 00 00 00 ................
0040DD30 00 00 00 00 00 00 00 00 00 00 00 00 00 00 00 00 ................
0040DD40 00 00 00 00 00 00 00 00 00 00 00 00 00 00 00 00 ................
0040DD50 00 00 00 00 00 00 00 00 00 00 00 00 00 00 00 00 ................
0040DD60 00 00 00 00 00 00 00 00 00 00 00 00 00 00 00 00 ................
0040DD70 00 00 00 00 00 00 00 00 00 00 00 00 00 00 00 00 ................
0040DD80 00 00 00 00 00 00 00 00 00 00 00 00 00 00 00 00 ................
0040DD90 00 00 00 00 00 00 00 00 00 00 00 00 00 00 00 00 ................
0040DDA0 00 00 00 00 00 00 00 00 00 00 00 00 00 00 00 00 ................
0040DDB0 00 00 00 00 00 00 00 00 00 00 00 00 00 00 00 00 ................
0040DDC0 00 00 00 00 00 00 00 00 00 00 00 00 00 00 00 00 ................
0040DDD0 00 00 00 00 00 00 00 00 00 00 00 00 00 00 00 00 ................
0040DDE0 00 00 00 00 00 00 00 00 00 00 00 00 00 00 00 00 ................
0040DDF0 00 00 00 00 00 00 00 00 00 00 00 00 00 00 00 00 ................
0040DE00 00 00 00 00 00 00 00 00 00 00 00 00 00 00 00 00 ................
0040DE10 00 00 00 00 00 00 00 00 00 00 00 00 00 00 00 00 ................
0040DE20 00 00 00 00 00 00 00 00 00 00 00 00 00 00 00 00 ................
0040DE30 00 00 00 00 00 00 00 00 00 00 00 00 00 00 00 00 ................
0040DE40 00 00 00 00 00 00 00 00 00 00 00 00 00 00 00 00 ................
0040DE50 00 00 00 00 00 00 00 00 00 00 00 00 00 00 00 00 ................
0040DE60 00 00 00 00 00 00 00 00 00 00 00 00 00 00 00 00 ................
0040DE70 00 00 00 00 00 00 00 00 00 00 00 00 00 00 00 00 ................
0040DE80 00 00 00 00 00 00 00 00 00 00 00 00 00 00 00 00 ................
0040DE90 00 00 00 00 00 00 00 00 00 00 00 00 00 00 00 00 ................
0040DEA0 00 00 00 00 00 00 00 00 00 00 00 00 00 00 00 00 ................
0040DEB0 00 00 00 00 00 00 00 00 00 00 00 00 00 00 00 00 ................
0040DEC0 00 00 00 00 00 00 00 00 00 00 00 00 00 00 00 00 ................
0040DED0 00 00 00 00 00 00 00 00 00 00 00 00 00 00 00 00 ................
0040DEE0 00 00 00 00 00 00 00 00 00 00 00 00 00 00 00 00 ................
0040DEF0 00 00 00 00 00 00 00 00 00 00 00 00 00 00 00 00 ................
0040DF00 00 00 00 00 00 00 00 00 00 00 00 00 00 00 00 00 ................
0040DF10 00 00 00 00 00 00 00 00 00 00 00 00 00 00 00 00 ................
0040DF20 00 00 00 00 00 00 00 00 00 00 00 00 00 00 00 00 ................
0040DF30 00 00 00 00 00 00 00 00 00 00 00 00 00 00 00 00 ................
0040DF40 00 00 00 00 00 00 00 00 00 00 00 00 00 00 00 00 ................
0040DF50 00 00 00 00 00 00 00 00 00 00 00 00 00 00 00 00 ................
0040DF60 00 00 00 00 00 00 00 00 00 00 00 00 00 00 00 00 ................
0040DF70 00 00 00 00 00 00 00 00 00 00 00 00 00 00 00 00 ................
0040DF80 00 00 00 00 00 00 00 00 00 00 00 00 00 00 00 00 ................
0040DF90 00 00 00 00 00 00 00 00 00 00 00 00 00 00 00 00 ................
0040DFA0 00 00 00 00 00 00 00 00 00 00 00 00 00 00 00 00 ................
0040DFB0 00 00 00 00 00 00 00 00 00 00 00 00 00 00 00 00 ................
0040DFC0 00 00 00 00 00 00 00 00 00 00 00 00 00 00 00 00 ................
0040DFD0 00 00 00 00 00 00 00 00 00 00 00 00 00 00 00 00 ................
0040DFE0 00 00 00 00 00 00 00 00 00 00 00 00 00 00 00 00 ................
0040DFF0 00 00 00 00 00 00 00 00 00 00 00 00 00 00 00 00 ................
0040E000 00 00 00 00 00 00 00 00 00 00 00 00 00 00 00 00 ................
0040E010 00 00 00 00 00 00 00 00 00 00 00 00 00 00 00 00 ................
0040E020 00 00 00 00 00 00 00 00 00 00 00 00 00 00 00 00 ................
0040E030 00 00 00 00 00 00 00 00 00 00 00 00 00 00 00 00 ................
0040E040 00 00 00 00 00 00 00 00 00 00 00 00 00 00 00 00 ................
0040E050 00 00 00 00 00 00 00 00 00 00 00 00 00 00 00 00 ................
0040E060 00 00 00 00 00 00 00 00 00 00 00 00 00 00 00 00 ................
0040E070 00 00 00 00 00 00 00 00 00 00 00 00 00 00 00 00 ................
0040E080 00 00 00 00 00 00 00 00 00 00 00 00 00 00 00 00 ................
0040E090 00 00 00 00 00 00 00 00 00 00 00 00 00 00 00 00 ................
0040E0A0 00 00 00 00 00 00 00 00 00 00 00 00 00 00 00 00 ................
0040E0B0 00 00 00 00 00 00 00 00 00 00 00 00 00 00 00 00 ................
0040E0C0 00 00 00 00 00 00 00 00 00 00 00 00 00 00 00 00 ................
0040E0D0 00 00 00 00 00 00 00 00 00 00 00 00 00 00 00 00 ................
0040E0E0 00 00 00 00 00 00 00 00 00 00 00 00 00 00 00 00 ................
0040E0F0 00 00 00 00 00 00 00 00 00 00 00 00 00 00 00 00 ................
0040E100 00 00 00 00 00 00 00 00 00 00 00 00 00 00 00 00 ................
0040E110 00 00 00 00 00 00 00 00 00 00 00 00 00 00 00 00 ................
0040E120 00 00 00 00 00 00 00 00 00 00 00 00 00 00 00 00 ................
0040E130 00 00 00 00 00 00 00 00 00 00 00 00 00 00 00 00 ................
0040E140 00 00 00 00 00 00 00 00 00 00 00 00 00 00 00 00 ................
0040E150 00 00 00 00 00 00 00 00 00 00 00 00 00 00 00 00 ................
0040E160 00 00 00 00 00 00 00 00 00 00 00 00 00 00 00 00 ................
0040E170 00 00 00 00 00 00 00 00 00 00 00 00 00 00 00 00 ................
0040E180 00 00 00 00 00 00 00 00 00 00 00 00 00 00 00 00 ................
0040E190 00 00 00 00 00 00 00 00 00 00 00 00 00 00 00 00 ................
0040E1A0 00 00 00 00 00 00 00 00 00 00 00 00 00 00 00 00 ................
0040E1B0 00 00 00 00 00 00 00 00 00 00 00 00 00 00 00 00 ................
0040E1C0 00 00 00 00 00 00 00 00 00 00 00 00 00 00 00 00 ................
0040E1D0 00 00 00 00 00 00 00 00 00 00 00 00 00 00 00 00 ................
0040E1E0 00 00 00 00 00 00 00 00 00 00 00 00 00 00 00 00 ................
0040E1F0 00 00 00 00 00 00 00 00 00 00 00 00 00 00 00 00 ................
0040E200 00 00 00 00 00 00 00 00 00 00 00 00 00 00 00 00 ................
0040E210 00 00 00 00 00 00 00 00 00 00 00 00 00 00 00 00 ................
0040E220 00 00 00 00 00 00 00 00 00 00 00 00 00 00 00 00 ................
0040E230 00 00 00 00 00 00 00 00 00 00 00 00 00 00 00 00 ................
0040E240 00 00 00 00 00 00 00 00 00 00 00 00 00 00 00 00 ................
0040E250 00 00 00 00 00 00 00 00 00 00 00 00 00 00 00 00 ................
0040E260 00 00 00 00 00 00 00 00 00 00 00 00 00 00 00 00 ................
0040E270 00 00 00 00 00 00 00 00 00 00 00 00 00 00 00 00 ................
0040E280 00 00 00 00 00 00 00 00 00 00 00 00 00 00 00 00 ................
0040E290 00 00 00 00 00 00 00 00 00 00 00 00 00 00 00 00 ................
0040E2A0 00 00 00 00 00 00 00 00 00 00 00 00 00 00 00 00 ................
0040E2B0 00 00 00 00 00 00 00 00 00 00 00 00 00 00 00 00 ................
0040E2C0 00 00 00 00 00 00 00 00 00 00 00 00 00 00 00 00 ................
0040E2D0 00 00 00 00 00 00 00 00 00 00 00 00 00 00 00 00 ................
0040E2E0 00 00 00 00 00 00 00 00 00 00 00 00 00 00 00 00 ................
0040E2F0 00 00 00 00 00 00 00 00 00 00 00 00 00 00 00 00 ................
0040E300 00 00 00 00 00 00 00 00 00 00 00 00 00 00 00 00 ................
0040E310 00 00 00 00 00 00 00 00 00 00 00 00 00 00 00 00 ................
0040E320 00 00 00 00 00 00 00 00 00 00 00 00 00 00 00 00 ................
0040E330 00 00 00 00 00 00 00 00 00 00 00 00 00 00 00 00 ................
0040E340 00 00 00 00 00 00 00 00 00 00 00 00 00 00 00 00 ................
0040E350 00 00 00 00 00 00 00 00 00 00 00 00 00 00 00 00 ................
0040E360 00 00 00 00 00 00 00 00 00 00 00 00 00 00 00 00 ................
0040E370 00 00 00 00 00 00 00 00 00 00 00 00 00 00 00 00 ................
0040E380 00 00 00 00 00 00 00 00 00 00 00 00 00 00 00 00 ................
0040E390 00 00 00 00 00 00 00 00 00 00 00 00 00 00 00 00 ................
0040E3A0 00 00 00 00 00 00 00 00 00 00 00 00 00 00 00 00 ................
0040E3B0 00 00 00 00 00 00 00 00 00 00 00 00 00 00 00 00 ................
0040E3C0 00 00 00 00 00 00 00 00 00 00 00 00 00 00 00 00 ................
0040E3D0 00 00 00 00 00 00 00 00 00 00 00 00 00 00 00 00 ................
0040E3E0 00 00 00 00 00 00 00 00 00 00 00 00 00 00 00 00 ................
0040E3F0 00 00 00 00 00 00 00 00 00 00 00 00 00 00 00 00 ................
0040E400 00 00 00 00 00 00 00 00 00 00 00 00 00 00 00 00 ................
0040E410 00 00 00 00 00 00 00 00 00 00 00 00 00 00 00 00 ................
0040E420 00 00 00 00 00 00 00 00 00 00 00 00 00 00 00 00 ................
0040E430 00 00 00 00 00 00 00 00 00 00 00 00 00 00 00 00 ................
0040E440 00 00 00 00 00 00 00 00 00 00 00 00 00 00 00 00 ................
0040E450 00 00 00 00 00 00 00 00 00 00 00 00 00 00 00 00 ................
0040E460 00 00 00 00 00 00 00 00 00 00 00 00 00 00 00 00 ................
0040E470 00 00 00 00 00 00 00 00 00 00 00 00 00 00 00 00 ................
0040E480 00 00 00 00 00 00 00 00 00 00 00 00 00 00 00 00 ................
0040E490 00 00 00 00 00 00 00 00 00 00 00 00 00 00 00 00 ................
0040E4A0 00 00 00 00 00 00 00 00 00 00 00 00 00 00 00 00 ................
0040E4B0 00 00 00 00 00 00 00 00 00 00 00 00 00 00 00 00 ................
0040E4C0 00 00 00 00 00 00 00 00 00 00 00 00 00 00 00 00 ................
0040E4D0 00 00 00 00 00 00 00 00 00 00 00 00 00 00 00 00 ................
0040E4E0 00 00 00 00 00 00 00 00 00 00 00 00 00 00 00 00 ................
0040E4F0 00 00 00 00 00 00 00 00 00 00 00 00 00 00 00 00 ................
0040E500 00 00 00 00 00 00 00 00 00 00 00 00 00 00 00 00 ................
0040E510 00 00 00 00 00 00 00 00 00 00 00 00 00 00 00 00 ................
0040E520 00 00 00 00 00 00 00 00 00 00 00 00 00 00 00 00 ................
0040E530 00 00 00 00 00 00 00 00 00 00 00 00 00 00 00 00 ................
0040E540 00 00 00 00 00 00 00 00 00 00 00 00 00 00 00 00 ................
0040E550 00 00 00 00 00 00 00 00 00 00 00 00 00 00 00 00 ................
0040E560 00 00 00 00 00 00 00 00 00 00 00 00 00 00 00 00 ................
0040E570 00 00 00 00 00 00 00 00 00 00 00 00 00 00 00 00 ................
0040E580 00 00 00 00 00 00 00 00 00 00 00 00 00 00 00 00 ................
0040E590 00 00 00 00 00 00 00 00 00 00 00 00 00 00 00 00 ................
0040E5A0 00 00 00 00 00 00 00 00 00 00 00 00 00 00 00 00 ................
0040E5B0 00 00 00 00 00 00 00 00 00 00 00 00 00 00 00 00 ................
0040E5C0 00 00 00 00 00 00 00 00 00 00 00 00 00 00 00 00 ................
0040E5D0 00 00 00 00 00 00 00 00 00 00 00 00 00 00 00 00 ................
0040E5E0 00 00 00 00 00 00 00 00 00 00 00 00 00 00 00 00 ................
0040E5F0 00 00 00 00 00 00 00 00 00 00 00 00 00 00 00 00 ................
0040E600 00 00 00 00 00 00 00 00 00 00 00 00 00 00 00 00 ................
0040E610 00 00 00 00 00 00 00 00 00 00 00 00 00 00 00 00 ................
0040E620 00 00 00 00 00 00 00 00 00 00 00 00 00 00 00 00 ................
0040E630 00 00 00 00 00 00 00 00 00 00 00 00 00 00 00 00 ................
0040E640 00 00 00 00 00 00 00 00 00 00 00 00 00 00 00 00 ................
0040E650 00 00 00 00 00 00 00 00 00 00 00 00 00 00 00 00 ................
0040E660 00 00 00 00 00 00 00 00 00 00 00 00 00 00 00 00 ................
0040E670 00 00 00 00 00 00 00 00 00 00 00 00 00 00 00 00 ................
0040E680 00 00 00 00 00 00 00 00 00 00 00 00 00 00 00 00 ................
0040E690 00 00 00 00 00 00 00 00 00 00 00 00 00 00 00 00 ................
0040E6A0 00 00 00 00 00 00 00 00 00 00 00 00 00 00 00 00 ................
0040E6B0 00 00 00 00 00 00 00 00 00 00 00 00 00 00 00 00 ................
0040E6C0 00 00 00 00 00 00 00 00 00 00 00 00 00 00 00 00 ................
0040E6D0 00 00 00 00 00 00 00 00 00 00 00 00 00 00 00 00 ................
0040E6E0 00 00 00 00 00 00 00 00 00 00 00 00 00 00 00 00 ................
0040E6F0 00 00 00 00 00 00 00 00 00 00 00 00 00 00 00 00 ................
0040E700 00 00 00 00 00 00 00 00 00 00 00 00 00 00 00 00 ................
0040E710 00 00 00 00 00 00 00 00 00 00 00 00 00 00 00 00 ................
0040E720 00 00 00 00 00 00 00 00 00 00 00 00 00 00 00 00 ................
0040E730 00 00 00 00 00 00 00 00 00 00 00 00 00 00 00 00 ................
0040E740 00 00 00 00 00 00 00 00 00 00 00 00 00 00 00 00 ................
0040E750 00 00 00 00 00 00 00 00 00 00 00 00 00 00 00 00 ................
0040E760 00 00 00 00 00 00 00 00 00 00 00 00 00 00 00 00 ................
0040E770 00 00 00 00 00 00 00 00 00 00 00 00 00 00 00 00 ................
0040E780 00 00 00 00 00 00 00 00 00 00 00 00 00 00 00 00 ................
0040E790 00 00 00 00 00 00 00 00 00 00 00 00 00 00 00 00 ................
0040E7A0 00 00 00 00 00 00 00 00 00 00 00 00 00 00 00 00 ................
0040E7B0 00 00 00 00 00 00 00 00 00 00 00 00 00 00 00 00 ................
0040E7C0 00 00 00 00 00 00 00 00 00 00 00 00 00 00 00 00 ................
0040E7D0 00 00 00 00 00 00 00 00 00 00 00 00 00 00 00 00 ................
0040E7E0 00 00 00 00 00 00 00 00 00 00 00 00 00 00 00 00 ................
0040E7F0 00 00 00 00 00 00 00 00 00 00 00 00 00 00 00 00 ................
0040E800 00 00 00 00 00 00 00 00 00 00 00 00 00 00 00 00 ................
0040E810 00 00 00 00 00 00 00 00 00 00 00 00 00 00 00 00 ................
0040E820 00 00 00 00 00 00 00 00 00 00 00 00 00 00 00 00 ................
0040E830 00 00 00 00 00 00 00 00 00 00 00 00 00 00 00 00 ................
0040E840 00 00 00 00 00 00 00 00 00 00 00 00 00 00 00 00 ................
0040E850 00 00 00 00 00 00 00 00 00 00 00 00 00 00 00 00 ................
0040E860 00 00 00 00 00 00 00 00 00 00 00 00 00 00 00 00 ................
0040E870 00 00 00 00 00 00 00 00 00 00 00 00 00 00 00 00 ................
0040E880 00 00 00 00 00 00 00 00 00 00 00 00 00 00 00 00 ................
0040E890 00 00 00 00 00 00 00 00 00 00 00 00 00 00 00 00 ................
0040E8A0 00 00 00 00 00 00 00 00 00 00 00 00 00 00 00 00 ................
0040E8B0 00 00 00 00 00 00 00 00 00 00 00 00 00 00 00 00 ................
0040E8C0 00 00 00 00 00 00 00 00 00 00 00 00 00 00 00 00 ................
0040E8D0 00 00 00 00 00 00 00 00 00 00 00 00 00 00 00 00 ................
0040E8E0 00 00 00 00 00 00 00 00 00 00 00 00 00 00 00 00 ................
0040E8F0 00 00 00 00 00 00 00 00 00 00 00 00 00 00 00 00 ................
0040E900 00 00 00 00 00 00 00 00 00 00 00 00 00 00 00 00 ................
0040E910 00 00 00 00 00 00 00 00 00 00 00 00 00 00 00 00 ................
0040E920 00 00 00 00 00 00 00 00 00 00 00 00 00 00 00 00 ................
0040E930 00 00 00 00 00 00 00 00 00 00 00 00 00 00 00 00 ................
0040E940 00 00 00 00 00 00 00 00 00 00 00 00 00 00 00 00 ................
0040E950 00 00 00 00 00 00 00 00 00 00 00 00 00 00 00 00 ................
0040E960 00 00 00 00 00 00 00 00 00 00 00 00 00 00 00 00 ................
0040E970 00 00 00 00 00 00 00 00 00 00 00 00 00 00 00 00 ................
0040E980 00 00 00 00 00 00 00 00 00 00 00 00 00 00 00 00 ................
0040E990 00 00 00 00 00 00 00 00 00 00 00 00 00 00 00 00 ................
0040E9A0 00 00 00 00 00 00 00 00 00 00 00 00 00 00 00 00 ................
0040E9B0 00 00 00 00 00 00 00 00 00 00 00 00 00 00 00 00 ................
0040E9C0 00 00 00 00 00 00 00 00 00 00 00 00 00 00 00 00 ................
0040E9D0 00 00 00 00 00 00 00 00 00 00 00 00 00 00 00 00 ................
0040E9E0 00 00 00 00 00 00 00 00 00 00 00 00 00 00 00 00 ................
0040E9F0 00 00 00 00 00 00 00 00 00 00 00 00 00 00 00 00 ................
0040EA00 00 00 00 00 00 00 00 00 00 00 00 00 00 00 00 00 ................
0040EA10 00 00 00 00 00 00 00 00 00 00 00 00 00 00 00 00 ................
0040EA20 00 00 00 00 00 00 00 00 00 00 00 00 00 00 00 00 ................
0040EA30 00 00 00 00 00 00 00 00 00 00 00 00 00 00 00 00 ................
0040EA40 00 00 00 00 00 00 00 00 00 00 00 00 00 00 00 00 ................
0040EA50 00 00 00 00 00 00 00 00 00 00 00 00 00 00 00 00 ................
0040EA60 00 00 00 00 00 00 00 00 00 00 00 00 00 00 00 00 ................
0040EA70 00 00 00 00 00 00 00 00 00 00 00 00 00 00 00 00 ................
0040EA80 00 00 00 00 00 00 00 00 00 00 00 00 00 00 00 00 ................
0040EA90 00 00 00 00 00 00 00 00 00 00 00 00 00 00 00 00 ................
0040EAA0 00 00 00 00 00 00 00 00 00 00 00 00 00 00 00 00 ................
0040EAB0 00 00 00 00 00 00 00 00 00 00 00 00 00 00 00 00 ................
0040EAC0 00 00 00 00 00 00 00 00 00 00 00 00 00 00 00 00 ................
0040EAD0 00 00 00 00 00 00 00 00 00 00 00 00 00 00 00 00 ................
0040EAE0 00 00 00 00 00 00 00 00 00 00 00 00 00 00 00 00 ................
0040EAF0 00 00 00 00 00 00 00 00 00 00 00 00 00 00 00 00 ................
0040EB00 00 00 00 00 00 00 00 00 00 00 00 00 00 00 00 00 ................
0040EB10 00 00 00 00 00 00 00 00 00 00 00 00 00 00 00 00 ................
0040EB20 00 00 00 00 00 00 00 00 00 00 00 00 00 00 00 00 ................
0040EB30 00 00 00 00 00 00 00 00 00 00 00 00 00 00 00 00 ................
0040EB40 00 00 00 00 00 00 00 00 00 00 00 00 00 00 00 00 ................
0040EB50 00 00 00 00 00 00 00 00 00 00 00 00 00 00 00 00 ................
0040EB60 00 00 00 00 00 00 00 00 00 00 00 00 00 00 00 00 ................
0040EB70 00 00 00 00 00 00 00 00 00 00 00 00 00 00 00 00 ................
0040EB80 00 00 00 00 00 00 00 00 00 00 00 00 00 00 00 00 ................
0040EB90 00 00 00 00 00 00 00 00 00 00 00 00 00 00 00 00 ................
0040EBA0 00 00 00 00 00 00 00 00 00 00 00 00 00 00 00 00 ................
0040EBB0 00 00 00 00 00 00 00 00 00 00 00 00 00 00 00 00 ................
0040EBC0 00 00 00 00 00 00 00 00 00 00 00 00 00 00 00 00 ................
0040EBD0 00 00 00 00 00 00 00 00 00 00 00 00 00 00 00 00 ................
0040EBE0 00 00 00 00 00 00 00 00 00 00 00 00 00 00 00 00 ................
0040EBF0 00 00 00 00 00 00 00 00 00 00 00 00 00 00 00 00 ................
0040EC00 00 00 00 00 00 00 00 00 00 00 00 00 00 00 00 00 ................
0040EC10 00 00 00 00 00 00 00 00 00 00 00 00 00 00 00 00 ................
0040EC20 00 00 00 00 00 00 00 00 00 00 00 00 00 00 00 00 ................
0040EC30 00 00 00 00 00 00 00 00 00 00 00 00 00 00 00 00 ................
0040EC40 00 00 00 00 00 00 00 00 00 00 00 00 00 00 00 00 ................
0040EC50 00 00 00 00 00 00 00 00 00 00 00 00 00 00 00 00 ................
0040EC60 00 00 00 00 00 00 00 00 00 00 00 00 00 00 00 00 ................
0040EC70 00 00 00 00 00 00 00 00 00 00 00 00 00 00 00 00 ................
0040EC80 00 00 00 00 00 00 00 00 00 00 00 00 00 00 00 00 ................
0040EC90 00 00 00 00 00 00 00 00 00 00 00 00 00 00 00 00 ................
0040ECA0 00 00 00 00 00 00 00 00 00 00 00 00 00 00 00 00 ................
0040ECB0 00 00 00 00 00 00 00 00 00 00 00 00 00 00 00 00 ................
0040ECC0 00 00 00 00 00 00 00 00 00 00 00 00 00 00 00 00 ................
0040ECD0 00 00 00 00 00 00 00 00 00 00 00 00 00 00 00 00 ................
0040ECE0 00 00 00 00 00 00 00 00 00 00 00 00 00 00 00 00 ................
0040ECF0 00 00 00 00 00 00 00 00 00 00 00 00 00 00 00 00 ................
0040ED00 00 00 00 00 00 00 00 00 00 00 00 00 00 00 00 00 ................
0040ED10 00 00 00 00 00 00 00 00 00 00 00 00 00 00 00 00 ................
0040ED20 00 00 00 00 00 00 00 00 00 00 00 00 00 00 00 00 ................
0040ED30 00 00 00 00 00 00 00 00 00 00 00 00 00 00 00 00 ................
0040ED40 00 00 00 00 00 00 00 00 00 00 00 00 00 00 00 00 ................
0040ED50 00 00 00 00 00 00 00 00 00 00 00 00 00 00 00 00 ................
0040ED60 00 00 00 00 00 00 00 00 00 00 00 00 00 00 00 00 ................
0040ED70 00 00 00 00 00 00 00 00 00 00 00 00 00 00 00 00 ................
0040ED80 00 00 00 00 00 00 00 00 00 00 00 00 00 00 00 00 ................
0040ED90 00 00 00 00 00 00 00 00 00 00 00 00 00 00 00 00 ................
0040EDA0 00 00 00 00 00 00 00 00 00 00 00 00 00 00 00 00 ................
0040EDB0 00 00 00 00 00 00 00 00 00 00 00 00 00 00 00 00 ................
0040EDC0 00 00 00 00 00 00 00 00 00 00 00 00 00 00 00 00 ................
0040EDD0 00 00 00 00 00 00 00 00 00 00 00 00 00 00 00 00 ................
0040EDE0 00 00 00 00 00 00 00 00 00 00 00 00 00 00 00 00 ................
0040EDF0 00 00 00 00 00 00 00 00 00 00 00 00 00 00 00 00 ................
0040EE00 00 00 00 00 00 00 00 00 00 00 00 00 00 00 00 00 ................
0040EE10 00 00 00 00 00 00 00 00 00 00 00 00 00 00 00 00 ................
0040EE20 00 00 00 00 00 00 00 00 00 00 00 00 00 00 00 00 ................
0040EE30 00 00 00 00 00 00 00 00 00 00 00 00 00 00 00 00 ................
0040EE40 00 00 00 00 00 00 00 00 00 00 00 00 00 00 00 00 ................
0040EE50 00 00 00 00 00 00 00 00 00 00 00 00 00 00 00 00 ................
0040EE60 00 00 00 00 00 00 00 00 00 00 00 00 00 00 00 00 ................
0040EE70 00 00 00 00 00 00 00 00 00 00 00 00 00 00 00 00 ................
0040EE80 00 00 00 00 00 00 00 00 00 00 00 00 00 00 00 00 ................
0040EE90 00 00 00 00 00 00 00 00 00 00 00 00 00 00 00 00 ................
0040EEA0 00 00 00 00 00 00 00 00 00 00 00 00 00 00 00 00 ................
0040EEB0 00 00 00 00 00 00 00 00 00 00 00 00 00 00 00 00 ................
0040EEC0 00 00 00 00 00 00 00 00 00 00 00 00 00 00 00 00 ................
0040EED0 00 00 00 00 00 00 00 00 00 00 00 00 00 00 00 00 ................
0040EEE0 00 00 00 00 00 00 00 00 00 00 00 00 00 00 00 00 ................
0040EEF0 00 00 00 00 00 00 00 00 00 00 00 00 00 00 00 00 ................
0040EF00 00 00 00 00 00 00 00 00 00 00 00 00 00 00 00 00 ................
0040EF10 00 00 00 00 00 00 00 00 00 00 00 00 00 00 00 00 ................
0040EF20 00 00 00 00 00 00 00 00 00 00 00 00 00 00 00 00 ................
0040EF30 00 00 00 00 00 00 00 00 00 00 00 00 00 00 00 00 ................
0040EF40 00 00 00 00 00 00 00 00 00 00 00 00 00 00 00 00 ................
0040EF50 00 00 00 00 00 00 00 00 00 00 00 00 00 00 00 00 ................
0040EF60 00 00 00 00 00 00 00 00 00 00 00 00 00 00 00 00 ................
0040EF70 00 00 00 00 00 00 00 00 00 00 00 00 00 00 00 00 ................
0040EF80 00 00 00 00 00 00 00 00 00 00 00 00 00 00 00 00 ................
0040EF90 00 00 00 00 00 00 00 00 00 00 00 00 00 00 00 00 ................
0040EFA0 00 00 00 00 00 00 00 00 00 00 00 00 00 00 00 00 ................
0040EFB0 00 00 00 00 00 00 00 00 00 00 00 00 00 00 00 00 ................
0040EFC0 00 00 00 00 00 00 00 00 00 00 00 00 00 00 00 00 ................
0040EFD0 00 00 00 00 00 00 00 00 00 00 00 00 00 00 00 00 ................
0040EFE0 00 00 00 00 00 00 00 00 00 00 00 00 00 00 00 00 ................
0040EFF0 00 00 00 00 00 00 00 00 00 00 00 00 00 00 00 00 ................
0040F000 08 F2 00 00 1A F2 00 00 30 F2 00 00 48 F2 00 00 ........0...H...
0040F010 58 F2 00 00 6E F2 00 00 7A F2 00 00 90 F2 00 00 X...n...z.......
0040F020 A8 F2 00 00 B8 F2 00 00 C8 F2 00 00 D6 F2 00 00 ................
0040F030 EA F2 00 00 F6 F2 00 00 00 F3 00 00 16 F3 00 00 ................
0040F040 26 F3 00 00 40 F3 00 00 48 F3 00 00 5E F3 00 00 &...@...H...^...
0040F050 6E F3 00 00 7E F3 00 00 8E F3 00 00 9A F3 00 00 n...~...........
0040F060 B0 F3 00 00 BA F3 00 00 C4 F3 00 00 D0 F3 00 00 ................
0040F070 00 00 00 00 F2 F3 00 00 FE F3 00 00 06 F4 00 00 ................
0040F080 12 F4 00 00 24 F4 00 00 34 F4 00 00 46 F4 00 00 ....$...4...F...
0040F090 50 F4 00 00 5C F4 00 00 6E F4 00 00 7A F4 00 00 P...\...n...z...
0040F0A0 84 F4 00 00 90 F4 00 00 A2 F4 00 00 B0 F4 00 00 ................
0040F0B0 BE F4 00 00 D0 F4 00 00 DC F4 00 00 E8 F4 00 00 ................
0040F0C0 F4 F4 00 00 08 F5 00 00 1E F5 00 00 32 F5 00 00 ............2...
0040F0D0 46 F5 00 00 52 F5 00 00 62 F5 00 00 74 F5 00 00 F...R...b...t...
0040F0E0 00 00 00 00 00 00 00 00 24 F1 00 00 00 00 00 00 ........$.......
0040F0F0 00 00 00 00 E4 F3 00 00 00 F0 00 00 98 F1 00 00 ................
0040F100 00 00 00 00 00 00 00 00 86 F5 00 00 74 F0 00 00 ............t...
0040F110 00 00 00 00 00 00 00 00 00 00 00 00 00 00 00 00 ................
0040F120 00 00 00 00 08 F2 00 00 1A F2 00 00 30 F2 00 00 ............0...
0040F130 48 F2 00 00 58 F2 00 00 6E F2 00 00 7A F2 00 00 H...X...n...z...
0040F140 90 F2 00 00 A8 F2 00 00 B8 F2 00 00 C8 F2 00 00 ................
0040F150 D6 F2 00 00 EA F2 00 00 F6 F2 00 00 00 F3 00 00 ................
0040F160 16 F3 00 00 26 F3 00 00 40 F3 00 00 48 F3 00 00 ....&...@...H...
0040F170 5E F3 00 00 6E F3 00 00 7E F3 00 00 8E F3 00 00 ^...n...~.......
0040F180 9A F3 00 00 B0 F3 00 00 BA F3 00 00 C4 F3 00 00 ................
0040F190 D0 F3 00 00 00 00 00 00 F2 F3 00 00 FE F3 00 00 ................
0040F1A0 06 F4 00 00 12 F4 00 00 24 F4 00 00 34 F4 00 00 ........$...4...
0040F1B0 46 F4 00 00 50 F4 00 00 5C F4 00 00 6E F4 00 00 F...P...\...n...
0040F1C0 7A F4 00 00 84 F4 00 00 90 F4 00 00 A2 F4 00 00 z...............
0040F1D0 B0 F4 00 00 BE F4 00 00 D0 F4 00 00 DC F4 00 00 ................
0040F1E0 E8 F4 00 00 F4 F4 00 00 08 F5 00 00 1E F5 00 00 ................
0040F1F0 32 F5 00 00 46 F5 00 00 52 F5 00 00 62 F5 00 00 2...F...R...b...
0040F200 74 F5 00 00 00 00 00 00 2B 00 53 65 74 46 69 6C t.......+.SetFil
0040F210 65 50 6F 69 6E 74 65 72 00 00 31 00 47 65 74 43 ePointer..1.GetC
0040F220 75 72 72 65 6E 74 54 68 72 65 61 64 49 64 00 00 urrentThreadId..
0040F230 34 00 44 65 6C 65 74 65 43 72 69 74 69 63 61 6C 4.DeleteCritical
0040F240 53 65 63 74 69 6F 6E 00 38 00 56 69 72 74 75 61 Section.8.Virtua
0040F250 6C 41 6C 6C 6F 63 00 00 3A 00 57 61 69 74 46 6F lAlloc..:.WaitFo
0040F260 72 53 69 6E 67 6C 65 4F 62 6A 65 63 74 00 3F 00 rSingleObject.?.
0040F270 4C 6F 63 61 6C 46 72 65 65 00 45 00 57 69 64 65 LocalFree.E.Wide
0040F280 43 68 61 72 54 6F 4D 75 6C 74 69 42 79 74 65 00 CharToMultiByte.
0040F290 46 00 4C 65 61 76 65 43 72 69 74 69 63 61 6C 53 F.LeaveCriticalS
0040F2A0 65 63 74 69 6F 6E 00 00 4C 00 53 65 74 4C 61 73 ection..L.SetLas
0040F2B0 74 45 72 72 6F 72 00 00 4E 00 47 65 74 4C 61 73 tError..N.GetLas
0040F2C0 74 45 72 72 6F 72 00 00 51 00 48 65 61 70 44 65 tError..Q.HeapDe
0040F2D0 73 74 72 6F 79 00 53 00 47 65 74 4D 6F 64 75 6C stroy.S.GetModul
0040F2E0 65 48 61 6E 64 6C 65 41 00 00 57 00 48 65 61 70 eHandleA..W.Heap
0040F2F0 46 72 65 65 00 00 5D 00 47 65 74 41 43 50 00 00 Free..].GetACP..
0040F300 62 00 57 61 69 74 46 6F 72 53 69 6E 67 6C 65 4F b.WaitForSingleO
0040F310 62 6A 65 63 74 00 68 00 47 65 74 4C 61 73 74 45 bject.h.GetLastE
0040F320 72 72 6F 72 00 00 6A 00 47 65 74 53 79 73 74 65 rror..j.GetSyste
0040F330 6D 54 69 6D 65 41 73 46 69 6C 65 54 69 6D 65 00 mTimeAsFileTime.
0040F340 6B 00 53 6C 65 65 70 00 71 00 47 65 74 4D 6F 64 k.Sleep.q.GetMod
0040F350 75 6C 65 46 69 6C 65 4E 61 6D 65 41 00 00 73 00 uleFileNameA..s.
0040F360 47 65 74 56 65 72 73 69 6F 6E 45 78 41 00 75 00 GetVersionExA.u.
0040F370 56 69 72 74 75 61 6C 41 6C 6C 6F 63 00 00 78 00 VirtualAlloc..x.
0040F380 47 65 74 56 65 72 73 69 6F 6E 45 78 41 00 7B 00 GetVersionExA.{.
0040F390 6C 73 74 72 63 70 79 57 00 00 80 00 4D 75 6C 74 lstrcpyW....Mult
0040F3A0 69 42 79 74 65 54 6F 57 69 64 65 43 68 61 72 00 iByteToWideChar.
0040F3B0 84 00 47 65 74 41 43 50 00 00 85 00 47 65 74 41 ..GetACP....GetA
0040F3C0 43 50 00 00 89 00 6C 73 74 72 63 6D 70 69 57 00 CP....lstrcmpiW.
0040F3D0 8B 00 54 65 72 6D 69 6E 61 74 65 50 72 6F 63 65 ..TerminateProce
0040F3E0 73 73 00 00 4B 45 52 4E 45 4C 33 32 2E 44 4C 4C ss..KERNEL32.DLL
0040F3F0 00 00 2A 00 4C 6F 61 64 49 63 6F 6E 57 00 2E 00 ..*.LoadIconW...
0040F400 47 65 74 44 43 00 33 00 49 73 57 69 6E 64 6F 77 GetDC.3.IsWindow
0040F410 00 00 38 00 47 65 74 44 6C 67 49 74 65 6D 54 65 ..8.GetDlgItemTe
0040F420 78 74 57 00 3A 00 53 65 74 57 69 6E 64 6F 77 50 xtW.:.SetWindowP
0040F430 6F 73 00 00 40 00 53 65 74 44 6C 67 49 74 65 6D os..@.SetDlgItem
0040F440 54 65 78 74 57 00 46 00 53 65 74 52 65 63 74 00 TextW.F.SetRect.
0040F450 48 00 43 68 61 72 4E 65 78 74 57 00 4B 00 53 63 H.CharNextW.K.Sc
0040F460 72 65 65 6E 54 6F 43 6C 69 65 6E 74 00 00 50 00 reenToClient..P.
0040F470 45 6E 64 50 61 69 6E 74 00 00 55 00 53 65 74 52 EndPaint..U.SetR
0040F480 65 63 74 00 5B 00 77 73 70 72 69 6E 74 66 41 00 ect.[.wsprintfA.
0040F490 5F 00 44 69 61 6C 6F 67 42 6F 78 50 61 72 61 6D _.DialogBoxParam
0040F4A0 57 00 64 00 4D 65 73 73 61 67 65 42 6F 78 41 00 W.d.MessageBoxA.
0040F4B0 66 00 4F 66 66 73 65 74 52 65 63 74 00 00 69 00 f.OffsetRect..i.
0040F4C0 43 72 65 61 74 65 57 69 6E 64 6F 77 45 78 57 00 CreateWindowExW.
0040F4D0 6C 00 4B 69 6C 6C 54 69 6D 65 72 00 6D 00 53 65 l.KillTimer.m.Se
0040F4E0 74 54 69 6D 65 72 00 00 72 00 77 73 70 72 69 6E tTimer..r.wsprin
0040F4F0 74 66 41 00 75 00 4C 6F 61 64 41 63 63 65 6C 65 tfA.u.LoadAccele
0040F500 72 61 74 6F 72 73 57 00 7A 00 53 65 6E 64 44 6C ratorsW.z.SendDl
0040F510 67 49 74 65 6D 4D 65 73 73 61 67 65 57 00 7E 00 gItemMessageW.~.
0040F520 44 69 73 70 61 74 63 68 4D 65 73 73 61 67 65 57 DispatchMessageW
0040F530 00 00 82 00 4C 6F 61 64 41 63 63 65 6C 65 72 61 ....LoadAccelera
0040F540 74 6F 72 73 57 00 83 00 49 73 57 69 6E 64 6F 77 torsW...IsWindow
0040F550 00 00 87 00 50 65 65 6B 4D 65 73 73 61 67 65 57 ....PeekMessageW
0040F560 00 00 8D 00 50 6F 73 74 51 75 69 74 4D 65 73 73 ....PostQuitMess
0040F570 61 67 65 00 8F 00 53 65 74 57 69 6E 64 6F 77 54 age...SetWindowT
0040F580 65 78 74 57 00 00 55 53 45 52 33 32 2E 44 4C 4C extW..USER32.DLL
0040F590 00 00 00 00 00 00 00 00 00 00 00 00 00 00 00 00 ................
0040F5A0 00 00 00 00 00 00 00 00 00 00 00 00 00 00 00 00 ................
0040F5B0 00 00 00 00 00 00 00 00 00 00 00 00 00 00 00 00 ................
0040F5C0 00 00 00 00 00 00 00 00 00 00 00 00 00 00 00 00 ................
0040F5D0 00 00 00 00 00 00 00 00 00 00 00 00 00 00 00 00 ................
0040F5E0 00 00 00 00 00 00 00 00 00 00 00 00 00 00 00 00 ................
0040F5F0 00 00 00 00 00 00 00 00 00 00 00 00 00 00 00 00 ................
0040F600 00 00 00 00 00 00 00 00 00 00 00 00 00 00 00 00 ................
0040F610 00 00 00 00 00 00 00 00 00 00 00 00 00 00 00 00 ................
0040F620 00 00 00 00 00 00 00 00 00 00 00 00 00 00 00 00 ................
0040F630 00 00 00 00 00 00 00 00 00 00 00 00 00 00 00 00 ................
0040F640 00 00 00 00 00 00 00 00 00 00 00 00 00 00 00 00 ................
0040F650 00 00 00 00 00 00 00 00 00 00 00 00 00 00 00 00 ................
0040F660 00 00 00 00 00 00 00 00 00 00 00 00 00 00 00 00 ................
0040F670 00 00 00 00 00 00 00 00 00 00 00 00 00 00 00 00 ................
0040F680 00 00 00 00 00 00 00 00 00 00 00 00 00 00 00 00 ................
0040F690 00 00 00 00 00 00 00 00 00 00 00 00 00 00 00 00 ................
0040F6A0 00 00 00 00 00 00 00 00 00 00 00 00 00 00 00 00 ................
0040F6B0 00 00 00 00 00 00 00 00 00 00 00 00 00 00 00 00 ................
0040F6C0 00 00 00 00 00 00 00 00 00 00 00 00 00 00 00 00 ................
0040F6D0 00 00 00 00 00 00 00 00 00 00 00 00 00 00 00 00 ................
0040F6E0 00 00 00 00 00 00 00 00 00 00 00 00 00 00 00 00 ................
0040F6F0 00 00 00 00 00 00 00 00 00 00 00 00 00 00 00 00 ................
0040F700 00 00 00 00 00 00 00 00 00 00 00 00 00 00 00 00 ................
0040F710 00 00 00 00 00 00 00 00 00 00 00 00 00 00 00 00 ................
0040F720 00 00 00 00 00 00 00 00 00 00 00 00 00 00 00 00 ................
0040F730 00 00 00 00 00 00 00 00 00 00 00 00 00 00 00 00 ................
0040F740 00 00 00 00 00 00 00 00 00 00 00 00 00 00 00 00 ................
0040F750 00 00 00 00 00 00 00 00 00 00 00 00 00 00 00 00 ................
0040F760 00 00 00 00 00 00 00 00 00 00 00 00 00 00 00 00 ................
0040F770 00 00 00 00 00 00 00 00 00 00 00 00 00 00 00 00 ................
0040F780 00 00 00 00 00 00 00 00 00 00 00 00 00 00 00 00 ................
0040F790 00 00 00 00 00 00 00 00 00 00 00 00 00 00 00 00 ................
0040F7A0 00 00 00 00 00 00 00 00 00 00 00 00 00 00 00 00 ................
0040F7B0 00 00 00 00 00 00 00 00 00 00 00 00 00 00 00 00 ................
0040F7C0 00 00 00 00 00 00 00 00 00 00 00 00 00 00 00 00 ................
0040F7D0 00 00 00 00 00 00 00 00 00 00 00 00 00 00 00 00 ................
0040F7E0 00 00 00 00 00 00 00 00 00 00 00 00 00 00 00 00 ................
0040F7F0 00 00 00 00 00 00 00 00 00 00 00 00 00 00 00 00 ................
0040F800 00 00 00 00 00 00 00 00 00 00 00 00 00 00 00 00 ................
0040F810 00 00 00 00 00 00 00 00 00 00 00 00 00 00 00 00 ................
0040F820 00 00 00 00 00 00 00 00 00 00 00 00 00 00 00 00 ................
0040F830 00 00 00 00 00 00 00 00 00 00 00 00 00 00 00 00 ................
0040F840 00 00 00 00 00 00 00 00 00 00 00 00 00 00 00 00 ................
0040F850 00 00 00 00 00 00 00 00 00 00 00 00 00 00 00 00 ................
0040F860 00 00 00 00 00 00 00 00 00 00 00 00 00 00 00 00 ................
0040F870 00 00 00 00 00 00 00 00 00 00 00 00 00 00 00 00 ................
0040F880 00 00 00 00 00 00 00 00 00 00 00 00 00 00 00 00 ................
0040F890 00 00 00 00 00 00 00 00 00 00 00 00 00 00 00 00 ................
0040F8A0 00 00 00 00 00 00 00 00 00 00 00 00 00 00 00 00 ................
0040F8B0 00 00 00 00 00 00 00 00 00 00 00 00 00 00 00 00 ................
0040F8C0 00 00 00 00 00 00 00 00 00 00 00 00 00 00 00 00 ................
0040F8D0 00 00 00 00 00 00 00 00 00 00 00 00 00 00 00 00 ................
0040F8E0 00 00 00 00 00 00 00 00 00 00 00 00 00 00 00 00 ................
0040F8F0 00 00 00 00 00 00 00 00 00 00 00 00 00 00 00 00 ................
0040F900 00 00 00 00 00 00 00 00 00 00 00 00 00 00 00 00 ................
0040F910 00 00 00 00 00 00 00 00 00 00 00 00 00 00 00 00 ................
0040F920 00 00 00 00 00 00 00 00 00 00 00 00 00 00 00 00 ................
0040F930 00 00 00 00 00 00 00 00 00 00 00 00 00 00 00 00 ................
0040F940 00 00 00 00 00 00 00 00 00 00 00 00 00 00 00 00 ................
0040F950 00 00 00 00 00 00 00 00 00 00 00 00 00 00 00 00 ................
0040F960 00 00 00 00 00 00 00 00 00 00 00 00 00 00 00 00 ................
0040F970 00 00 00 00 00 00 00 00 00 00 00 00 00 00 00 00 ................
0040F980 00 00 00 00 00 00 00 00 00 00 00 00 00 00 00 00 ................
0040F990 00 00 00 00 00 00 00 00 00 00 00 00 00 00 00 00 ................
0040F9A0 00 00 00 00 00 00 00 00 00 00 00 00 00 00 00 00 ................
0040F9B0 00 00 00 00 00 00 00 00 00 00 00 00 00 00 00 00 ................
0040F9C0 00 00 00 00 00 00 00 00 00 00 00 00 00 00 00 00 ................
0040F9D0 00 00 00 00 00 00 00 00 00 00 00 00 00 00 00 00 ................
0040F9E0 00 00 00 00 00 00 00 00 00 00 00 00 00 00 00 00 ................
0040F9F0 00 00 00 00 00 00 00 00 00 00 00 00 00 00 00 00 ................
0040FA00 00 00 00 00 00 00 00 00 00 00 00 00 00 00 00 00 ................
0040FA10 00 00 00 00 00 00 00 00 00 00 00 00 00 00 00 00 ................
0040FA20 00 00 00 00 00 00 00 00 00 00 00 00 00 00 00 00 ................
0040FA30 00 00 00 00 00 00 00 00 00 00 00 00 00 00 00 00 ................
0040FA40 00 00 00 00 00 00 00 00 00 00 00 00 00 00 00 00 ................
0040FA50 00 00 00 00 00 00 00 00 00 00 00 00 00 00 00 00 ................
0040FA60 00 00 00 00 00 00 00 00 00 00 00 00 00 00 00 00 ................
0040FA70 00 00 00 00 00 00 00 00 00 00 00 00 00 00 00 00 ................
0040FA80 00 00 00 00 00 00 00 00 00 00 00 00 00 00 00 00 ................
0040FA90 00 00 00 00 00 00 00 00 00 00 00 00 00 00 00 00 ................
0040FAA0 00 00 00 00 00 00 00 00 00 00 00 00 00 00 00 00 ................
0040FAB0 00 00 00 00 00 00 00 00 00 00 00 00 00 00 00 00 ................
0040FAC0 00 00 00 00 00 00 00 00 00 00 00 00 00 00 00 00 ................
0040FAD0 00 00 00 00 00 00 00 00 00 00 00 00 00 00 00 00 ................
0040FAE0 00 00 00 00 00 00 00 00 00 00 00 00 00 00 00 00 ................
0040FAF0 00 00 00 00 00 00 00 00 00 00 00 00 00 00 00 00 ................
0040FB00 00 00 00 00 00 00 00 00 00 00 00 00 00 00 00 00 ................
0040FB10 00 00 00 00 00 00 00 00 00 00 00 00 00 00 00 00 ................
0040FB20 00 00 00 00 00 00 00 00 00 00 00 00 00 00 00 00 ................
0040FB30 00 00 00 00 00 00 00 00 00 00 00 00 00 00 00 00 ................
0040FB40 00 00 00 00 00 00 00 00 00 00 00 00 00 00 00 00 ................
0040FB50 00 00 00 00 00 00 00 00 00 00 00 00 00 00 00 00 ................
0040FB60 00 00 00 00 00 00 00 00 00 00 00 00 00 00 00 00 ................
0040FB70 00 00 00 00 00 00 00 00 00 00 00 00 00 00 00 00 ................
0040FB80 00 00 00 00 00 00 00 00 00 00 00 00 00 00 00 00 ................
0040FB90 00 00 00 00 00 00 00 00 00 00 00 00 00 00 00 00 ................
0040FBA0 00 00 00 00 00 00 00 00 00 00 00 00 00 00 00 00 ................
0040FBB0 00 00 00 00 00 00 00 00 00 00 00 00 00 00 00 00 ................
0040FBC0 00 00 00 00 00 00 00 00 00 00 00 00 00 00 00 00 ................
0040FBD0 00 00 00 00 00 00 00 00 00 00 00 00 00 00 00 00 ................
0040FBE0 00 00 00 00 00 00 00 00 00 00 00 00 00 00 00 00 ................
0040FBF0 00 00 00 00 00 00 00 00 00 00 00 00 00 00 00 00 ................
0040FC00 00 00 00 00 00 00 00 00 00 00 00 00 00 00 00 00 ................
0040FC10 00 00 00 00 00 00 00 00 00 00 00 00 00 00 00 00 ................
0040FC20 00 00 00 00 00 00 00 00 00 00 00 00 00 00 00 00 ................
0040FC30 00 00 00 00 00 00 00 00 00 00 00 00 00 00 00 00 ................
0040FC40 00 00 00 00 00 00 00 00 00 00 00 00 00 00 00 00 ................
0040FC50 00 00 00 00 00 00 00 00 00 00 00 00 00 00 00 00 ................
0040FC60 00 00 00 00 00 00 00 00 00 00 00 00 00 00 00 00 ................
0040FC70 00 00 00 00 00 00 00 00 00 00 00 00 00 00 00 00 ................
0040FC80 00 00 00 00 00 00 00 00 00 00 00 00 00 00 00 00 ................
0040FC90 00 00 00 00 00 00 00 00 00 00 00 00 00 00 00 00 ................
0040FCA0 00 00 00 00 00 00 00 00 00 00 00 00 00 00 00 00 ................
0040FCB0 00 00 00 00 00 00 00 00 00 00 00 00 00 00 00 00 ................
0040FCC0 00 00 00 00 00 00 00 00 00 00 00 00 00 00 00 00 ................
0040FCD0 00 00 00 00 00 00 00 00 00 00 00 00 00 00 00 00 ................
0040FCE0 00 00 00 00 00 00 00 00 00 00 00 00 00 00 00 00 ................
0040FCF0 00 00 00 00 00 00 00 00 00 00 00 00 00 00 00 00 ................
0040FD00 00 00 00 00 00 00 00 00 00 00 00 00 00 00 00 00 ................
0040FD10 00 00 00 00 00 00 00 00 00 00 00 00 00 00 00 00 ................
0040FD20 00 00 00 00 00 00 00 00 00 00 00 00 00 00 00 00 ................
0040FD30 00 00 00 00 00 00 00 00 00 00 00 00 00 00 00 00 ................
0040FD40 00 00 00 00 00 00 00 00 00 00 00 00 00 00 00 00 ................
0040FD50 00 00 00 00 00 00 00 00 00 00 00 00 00 00 00 00 ................
0040FD60 00 00 00 00 00 00 00 00 00 00 00 00 00 00 00 00 ................
0040FD70 00 00 00 00 00 00 00 00 00 00 00 00 00 00 00 00 ................
0040FD80 00 00 00 00 00 00 00 00 00 00 00 00 00 00 00 00 ................
0040FD90 00 00 00 00 00 00 00 00 00 00 00 00 00 00 00 00 ................
0040FDA0 00 00 00 00 00 00 00 00 00 00 00 00 00 00 00 00 ................
0040FDB0 00 00 00 00 00 00 00 00 00 00 00 00 00 00 00 00 ................
0040FDC0 00 00 00 00 00 00 00 00 00 00 00 00 00 00 00 00 ................
0040FDD0 00 00 00 00 00 00 00 00 00 00 00 00 00 00 00 00 ................
0040FDE0 00 00 00 00 00 00 00 00 00 00 00 00 00 00 00 00 ................
0040FDF0 00 00 00 00 00 00 00 00 00 00 00 00 00 00 00 00 ................
0040FE00 00 00 00 00 00 00 00 00 00 00 00 00 00 00 00 00 ................
0040FE10 00 00 00 00 00 00 00 00 00 00 00 00 00 00 00 00 ................
0040FE20 00 00 00 00 00 00 00 00 00 00 00 00 00 00 00 00 ................
0040FE30 00 00 00 00 00 00 00 00 00 00 00 00 00 00 00 00 ................
0040FE40 00 00 00 00 00 00 00 00 00 00 00 00 00 00 00 00 ................
0040FE50 00 00 00 00 00 00 00 00 00 00 00 00 00 00 00 00 ................
0040FE60 00 00 00 00 00 00 00 00 00 00 00 00 00 00 00 00 ................
0040FE70 00 00 00 00 00 00 00 00 00 00 00 00 00 00 00 00 ................
0040FE80 00 00 00 00 00 00 00 00 00 00 00 00 00 00 00 00 ................
0040FE90 00 00 00 00 00 00 00 00 00 00 00 00 00 00 00 00 ................
0040FEA0 00 00 00 00 00 00 00 00 00 00 00 00 00 00 00 00 ................
0040FEB0 00 00 00 00 00 00 00 00 00 00 00 00 00 00 00 00 ................
0040FEC0 00 00 00 00 00 00 00 00 00 00 00 00 00 00 00 00 ................
0040FED0 00 00 00 00 00 00 00 00 00 00 00 00 00 00 00 00 ................
0040FEE0 00 00 00 00 00 00 00 00 00 00 00 00 00 00 00 00 ................
0040FEF0 00 00 00 00 00 00 00 00 00 00 00 00 00 00 00 00 ................
0040FF00 00 00 00 00 00 00 00 00 00 00 00 00 00 00 00 00 ................
0040FF10 00 00 00 00 00 00 00 00 00 00 00 00 00 00 00 00 ................
0040FF20 00 00 00 00 00 00 00 00 00 00 00 00 00 00 00 00 ................
0040FF30 00 00 00 00 00 00 00 00 00 00 00 00 00 00 00 00 ................
0040FF40 00 00 00 00 00 00 00 00 00 00 00 00 00 00 00 00 ................
0040FF50 00 00 00 00 00 00 00 00 00 00 00 00 00 00 00 00 ................
0040FF60 00 00 00 00 00 00 00 00 00 00 00 00 00 00 00 00 ................
0040FF70 00 00 00 00 00 00 00 00 00 00 00 00 00 00 00 00 ................
0040FF80 00 00 00 00 00 00 00 00 00 00 00 00 00 00 00 00 ................
0040FF90 00 00 00 00 00 00 00 00 00 00 00 00 00 00 00 00 ................
0040FFA0 00 00 00 00 00 00 00 00 00 00 00 00 00 00 00 00 ................
0040FFB0 00 00 00 00 00 00 00 00 00 00 00 00 00 00 00 00 ................
0040FFC0 00 00 00 00 00 00 00 00 00 00 00 00 00 00 00 00 ................
0040FFD0 00 00 00 00 00 00 00 00 00 00 00 00 00 00 00 00 ................
0040FFE0 00 00 00 00 00 00 00 00 00 00 00 00 00 00 00 00 ................
0040FFF0 00 00 00 00 00 00 00 00 00 00 00 00 00 00 00 00 ................
00410000 00 00 00 00 00 00 00 00 00 00 00 00 00 00 03 00 ................
00410010 03 00 00 00 28 00 00 80 0E 00 00 00 40 00 00 80 ....(.......@...
00410020 10 00 00 00 58 00 00 80 00 00 00 00 00 00 00 00 ....X...........
00410030 00 00 00 00 00 00 01 00 01 00 00 00 70 00 00 80 ............p...
00410040 00 00 00 00 00 00 00 00 00 00 00 00 00 00 01 00 ................
00410050 91 F2 00 00 88 00 00 80 00 00 00 00 00 00 00 00 ................
00410060 00 00 00 00 00 00 01 00 71 90 00 00 A0 00 00 80 ........q.......
00410070 00 00 00 00 00 00 00 00 00 00 00 00 00 00 01 00 ................
00410080 19 04 00 00 B8 00 00 00 00 00 00 00 00 00 00 00 ................
00410090 00 00 00 00 00 00 01 00 19 04 00 00 C8 00 00 00 ................
004100A0 00 00 00 00 00 00 00 00 00 00 00 00 00 00 01 00 ................
004100B0 19 04 00 00 D8 00 00 00 E8 00 01 00 A8 08 00 00 ................
004100C0 00 00 00 00 00 00 00 00 90 09 01 00 14 00 00 00 ................
004100D0 00 00 00 00 00 00 00 00 A4 09 01 00 04 03 00 00 ................
004100E0 00 00 00 00 00 00 00 00 28 00 00 00 20 00 00 00 ........(... ...
004100F0 40 00 00 00 01 00 08 00 00 00 00 00 00 04 00 00 @...............
00410100 00 00 00 00 00 00 00 00 00 00 00 00 00 00 00 00 ................
00410110 00 00 00 00 00 00 80 00 00 80 00 00 00 80 80 00 ................
00410120 80 00 00 00 80 00 80 00 80 80 00 00 C0 C0 C0 00 ................
00410130 C0 DC C0 00 F0 CA A6 00 00 20 40 00 00 20 60 00 ......... @.. `.
00410140 00 20 80 00 00 20 A0 00 00 20 C0 00 00 20 E0 00 . ... ... ... ..
00410150 00 40 00 00 00 40 20 00 00 40 40 00 00 40 60 00 .@...@ ..@@..@`.
00410160 00 40 80 00 00 40 A0 00 00 40 C0 00 00 40 E0 00 .@...@...@...@..
00410170 00 60 00 00 00 60 20 00 00 60 40 00 00 60 60 00 .`...` ..`@..``.
00410180 00 60 80 00 00 60 A0 00 00 60 C0 00 00 60 E0 00 .`...`...`...`..
00410190 00 80 00 00 00 80 20 00 00 80 40 00 00 80 60 00 ...... ...@...`.
004101A0 00 80 80 00 00 80 A0 00 00 80 C0 00 00 80 E0 00 ................
004101B0 00 A0 00 00 00 A0 20 00 00 A0 40 00 00 A0 60 00 ...... ...@...`.
004101C0 00 A0 80 00 00 A0 A0 00 00 A0 C0 00 00 A0 E0 00 ................
004101D0 00 C0 00 00 00 C0 20 00 00 C0 40 00 00 C0 60 00 ...... ...@...`.
004101E0 00 C0 80 00 00 C0 A0 00 00 C0 C0 00 00 C0 E0 00 ................
004101F0 00 E0 00 00 00 E0 20 00 00 E0 40 00 00 E0 60 00 ...... ...@...`.
00410200 00 E0 80 00 00 E0 A0 00 00 E0 C0 00 00 E0 E0 00 ................
00410210 40 00 00 00 40 00 20 00 40 00 40 00 40 00 60 00 @...@. .@.@.@.`.
00410220 40 00 80 00 40 00 A0 00 40 00 C0 00 40 00 E0 00 @...@...@...@...
00410230 40 20 00 00 40 20 20 00 40 20 40 00 40 20 60 00 @ ..@  .@ @.@ `.
00410240 40 20 80 00 40 20 A0 00 40 20 C0 00 40 20 E0 00 @ ..@ ..@ ..@ ..
00410250 40 40 00 00 40 40 20 00 40 40 40 00 40 40 60 00 @@..@@ .@@@.@@`.
00410260 40 40 80 00 40 40 A0 00 40 40 C0 00 40 40 E0 00 @@..@@..@@..@@..
00410270 40 60 00 00 40 60 20 00 40 60 40 00 40 60 60 00 @`..@` .@`@.@``.
00410280 40 60 80 00 40 60 A0 00 40 60 C0 00 40 60 E0 00 @`..@`..@`..@`..
00410290 40 80 00 00 40 80 20 00 40 80 40 00 40 80 60 00 @...@. .@.@.@.`.
004102A0 40 80 80 00 40 80 A0 00 40 80 C0 00 40 80 E0 00 @...@...@...@...
004102B0 40 A0 00 00 40 A0 20 00 40 A0 40 00 40 A0 60 00 @...@. .@.@.@.`.
004102C0 40 A0 80 00 40 A0 A0 00 40 A0 C0 00 40 A0 E0 00 @...@...@...@...
004102D0 40 C0 00 00 40 C0 20 00 40 C0 40 00 40 C0 60 00 @...@. .@.@.@.`.
004102E0 40 C0 80 00 40 C0 A0 00 40 C0 C0 00 40 C0 E0 00 @...@...@...@...
004102F0 40 E0 00 00 40 E0 20 00 40 E0 40 00 40 E0 60 00 @...@. .@.@.@.`.
00410300 40 E0 80 00 40 E0 A0 00 40 E0 C0 00 40 E0 E0 00 @...@...@...@...
00410310 80 00 00 00 80 00 20 00 80 00 40 00 80 00 60 00 ...... ...@...`.
00410320 80 00 80 00 80 00 A0 00 80 00 C0 00 80 00 E0 00 ................
00410330 80 20 00 00 80 20 20 00 80 20 40 00 80 20 60 00 . ...  .. @.. `.
00410340 80 20 80 00 80 20 A0 00 80 20 C0 00 80 20 E0 00 . ... ... ... ..
00410350 80 40 00 00 80 40 20 00 80 40 40 00 80 40 60 00 .@...@ ..@@..@`.
00410360 80 40 80 00 80 40 A0 00 80 40 C0 00 80 40 E0 00 .@...@...@...@..
00410370 80 60 00 00 80 60 20 00 80 60 40 00 80 60 60 00 .`...` ..`@..``.
00410380 80 60 80 00 80 60 A0 00 80 60 C0 00 80 60 E0 00 .`...`...`...`..
00410390 80 80 00 00 80 80 20 00 80 80 40 00 80 80 60 00 ...... ...@...`.
004103A0 80 80 80 00 80 80 A0 00 80 80 C0 00 80 80 E0 00 ................
004103B0 80 A0 00 00 80 A0 20 00 80 A0 40 00 80 A0 60 00 ...... ...@...`.
004103C0 80 A0 80 00 80 A0 A0 00 80 A0 C0 00 80 A0 E0 00 ................
004103D0 80 C0 00 00 80 C0 20 00 80 C0 40 00 80 C0 60 00 ...... ...@...`.
004103E0 80 C0 80 00 80 C0 A0 00 80 C0 C0 00 80 C0 E0 00 ................
004103F0 80 E0 00 00 80 E0 20 00 80 E0 40 00 80 E0 60 00 ...... ...@...`.
00410400 80 E0 80 00 80 E0 A0 00 80 E0 C0 00 80 E0 E0 00 ................
00410410 C0 00 00 00 C0 00 20 00 C0 00 40 00 C0 00 60 00 ...... ...@...`.
00410420 C0 00 80 00 C0 00 A0 00 C0 00 C0 00 C0 00 E0 00 ................
00410430 C0 20 00 00 C0 20 20 00 C0 20 40 00 C0 20 60 00 . ...  .. @.. `.
00410440 C0 20 80 00 C0 20 A0 00 C0 20 C0 00 C0 20 E0 00 . ... ... ... ..
00410450 C0 40 00 00 C0 40 20 00 C0 40 40 00 C0 40 60 00 .@...@ ..@@..@`.
00410460 C0 40 80 00 C0 40 A0 00 C0 40 C0 00 C0 40 E0 00 .@...@...@...@..
00410470 C0 60 00 00 C0 60 20 00 C0 60 40 00 C0 60 60 00 .`...` ..`@..``.
00410480 C0 60 80 00 C0 60 A0 00 C0 60 C0 00 C0 60 E0 00 .`...`...`...`..
00410490 C0 80 00 00 C0 80 20 00 C0 80 40 00 C0 80 60 00 ...... ...@...`.
004104A0 C0 80 80 00 C0 80 A0 00 C0 80 C0 00 C0 80 E0 00 ................
004104B0 C0 A0 00 00 C0 A0 20 00 C0 A0 40 00 C0 A0 60 00 ...... ...@...`.
004104C0 C0 A0 80 00 C0 A0 A0 00 C0 A0 C0 00 C0 A0 E0 00 ................
004104D0 C0 C0 00 00 C0 C0 20 00 C0 C0 40 00 C0 C0 60 00 ...... ...@...`.
004104E0 C0 C0 80 00 C0 C0 A0 00 F0 FB FF 00 A4 A0 A0 00 ................
004104F0 80 80 80 00 00 00 FF 00 00 FF 00 00 00 FF FF 00 ................
00410500 FF 00 00 00 FF 00 FF 00 FF FF 00 00 FF FF FF 00 ................
00410510 00 00 00 00 00 00 00 00 00 00 00 00 00 00 00 00 ................
00410520 00 00 00 00 00 00 00 00 00 00 00 00 00 00 00 00 ................
00410530 00 00 00 00 00 00 ED A3 9A 9A 92 92 92 92 92 92 ................
00410540 92 92 92 92 92 92 92 92 92 92 92 92 92 92 92 00 ................
00410550 00 00 00 00 00 00 ED F6 07 09 09 09 09 09 09 09 ................
00410560 09 09 EC 09 09 EC EC EC EC EB EB EB EB EB 92 00 ................
00410570 00 00 00 00 00 00 ED F6 F6 F6 F6 F6 F6 F6 F6 F6 ................
00410580 F6 F6 F6 F6 F6 F6 F6 F6 09 09 09 09 09 EB 92 00 ................
00410590 00 00 00 00 00 00 ED F6 F6 F6 F6 F6 F6 F6 F6 F6 ................
004105A0 F6 F6 F6 F6 F6 F6 F6 F6 F6 F6 09 09 09 EB 92 00 ................
004105B0 00 00 00 00 00 00 ED F6 F6 F5 F5 ED ED EC EC EC ................
004105C0 E3 E3 E3 E3 E3 E3 E3 E3 E3 E3 F6 F6 09 EB 92 00 ................
004105D0 00 00 00 00 00 00 ED FF FF F5 FF FF FF F6 EC F6 ................
004105E0 F6 EC FF E3 F6 F6 EC FF E3 F6 F6 F6 F6 EB 92 00 ................
004105F0 00 00 00 00 00 00 ED FF FF F5 FF FF FF FF ED FF ................
00410600 FF EC FF E3 F6 F6 EC FF E3 F6 F6 F6 F6 EC 92 00 ................
00410610 00 00 00 00 00 00 ED FF FF F5 F5 F5 F5 F5 F5 ED ................
00410620 FF EC FF E3 F6 F6 EC FF E3 F6 F6 F6 F6 EC 92 00 ................
00410630 00 00 00 00 00 00 ED FF FF 09 FF FF FF FF F5 FF ................
00410640 FF ED FF E3 EC EC EC FF E3 F6 F6 F6 F6 EC 92 00 ................
00410650 00 00 00 00 00 00 ED FF FF 09 FF FF FF FF F5 FF ................
00410660 FF F5 FF E3 FF FF EC FF E3 F6 F6 F6 F6 EC 92 00 ................
00410670 00 00 00 00 00 00 ED FF FF 09 09 09 09 09 F5 F5 ................
00410680 FF F5 F5 E3 FF FF EC FF E3 F6 F6 F6 F6 EC 92 00 ................
00410690 00 00 00 00 00 00 ED FF FF 09 FF FF FF FF 09 FF ................
004106A0 FF FF FF FF FF FF ED ED E3 F6 F6 F6 F6 09 92 00 ................
004106B0 00 00 00 00 00 00 ED 08 08 ED 07 07 07 ED ED 08 ................
004106C0 FF FF FF F5 FF FF FF FF FF FF F6 F6 F6 09 92 00 ................
004106D0 00 00 00 00 00 00 F7 F7 F5 07 07 08 08 F6 08 ED ................
004106E0 EC 09 F5 F5 F5 F5 F5 F5 ED FF FF F6 F6 EC 92 00 ................
004106F0 00 19 18 AC 08 08 FF FF FF F6 F6 F6 F6 F6 08 07 ................
00410700 F6 FF FF 09 FF FF FF FF F5 FF FF FF F6 09 92 00 ................
00410710 00 19 B5 08 FF FF FF FF F6 F6 B5 1A 1A F6 F6 07 ................
00410720 F6 FF FF 09 FF FF FF FF F5 FF FF FF FF 09 92 00 ................
00410730 00 19 07 AC FF 08 B4 B4 B4 AB 22 1A 6B F6 F6 ED ..........".k...
00410740 F5 09 09 09 09 09 09 F5 F5 FF FF FF FF 09 92 00 ................
00410750 00 19 08 62 FF FF 08 B4 B4 62 1A 6C AB B5 F6 07 ...b.....b.l....
00410760 08 FF FF 09 FF FF FF FF F5 FF FF FF FF 09 92 00 ................
00410770 00 19 08 19 F6 FF FF 08 6B 1A 22 08 FF F6 F6 07 ........k.".....
00410780 08 FF FF 09 FF FF FF FF 09 FF FF FF FF 09 92 00 ................
00410790 00 21 08 19 07 FF FF 08 22 22 6B B4 F5 F6 F6 07 .!......""k.....
004107A0 F5 09 09 09 09 09 09 09 09 FF FF FF FF 09 92 00 ................
004107B0 00 21 08 19 AC FF F6 22 1A B5 F6 B4 B4 B4 F6 08 .!....."........
004107C0 08 FF FF 09 FF FF FF FF 09 FF FF FF FF 09 92 00 ................
004107D0 00 21 08 AC B4 FF 63 62 6C FF FF FF FF FF FF 08 .!....cbl.......
004107E0 08 FF FF 09 FF FF FF FF 07 09 09 09 09 09 92 00 ................
004107F0 00 61 08 B4 B4 FF FF FF FF FF FF FF FF FF FF F6 .a..............
00410800 07 09 09 09 09 09 09 ED A3 A3 9B 9A 9A 9A 92 00 ................
00410810 00 61 08 B5 B4 08 08 08 08 08 08 F5 B5 08 6B FF .a............k.
00410820 FF FF FF FF FF FF FF ED 09 09 09 09 09 92 F6 00 ................
00410830 00 61 B5 F6 B5 B5 B5 B5 B5 B5 B5 B5 B5 F6 61 FF .a............a.
00410840 FF FF FF FF FF FF FF ED F6 F6 09 09 92 F6 F6 00 ................
00410850 00 61 61 08 F6 08 BD BD BD BD BD BD B5 F6 61 F6 .aa...........a.
00410860 09 09 09 FF FF FF FF F5 F6 F6 09 92 F6 F6 00 00 ................
00410870 00 00 61 61 B5 08 F6 F6 F6 F6 F6 F6 F6 F6 61 FF ..aa..........a.
00410880 FF FF FF FF FF FF FF F5 F6 F6 9A F6 F6 00 00 00 ................
00410890 00 00 00 61 61 61 61 61 61 61 61 61 61 61 61 FF ...aaaaaaaaaaaa.
004108A0 FF FF FF FF FF FF FF F5 F6 9B F6 F6 00 00 00 00 ................
004108B0 00 00 00 00 00 00 07 FF FF FF FF FF FF FF FF FF ................
004108C0 FF FF FF FF FF FF FF F5 A4 F6 F6 00 00 00 00 00 ................
004108D0 00 00 00 00 00 00 07 07 07 07 07 F5 F5 F5 F5 F5 ................
004108E0 F5 F5 F5 F5 F5 F5 F5 F5 F6 F6 00 00 00 00 00 00 ................
004108F0 00 00 00 00 00 00 00 00 00 00 00 00 00 00 00 00 ................
00410900 00 00 00 00 00 00 00 00 00 00 00 00 00 00 00 00 ................
00410910 FF FF FF FF FC 00 00 01 FC 00 00 01 FC 00 00 01 ................
00410920 FC 00 00 01 FC 00 00 01 FC 00 00 01 FC 00 00 01 ................
00410930 FC 00 00 01 FC 00 00 01 FC 00 00 01 FC 00 00 01 ................
00410940 FC 00 00 01 C0 00 00 01 C0 00 00 01 80 00 00 01 ................
00410950 80 00 00 01 80 00 00 01 80 00 00 01 80 00 00 01 ................
00410960 80 00 00 01 80 00 00 01 80 00 00 01 80 00 00 01 ................
00410970 80 00 00 01 80 00 00 01 80 00 00 03 C0 00 00 07 ................
00410980 E0 00 00 0F FC 00 00 1F FC 00 00 3F FF FF FF FF ...........?....
00410990 00 00 01 00 01 00 20 20 08 00 00 00 00 00 A8 08 ......  ........
004109A0 00 00 01 00 04 03 34 00 00 00 56 00 53 00 5F 00 ......4...V.S._.
004109B0 56 00 45 00 52 00 53 00 49 00 4F 00 4E 00 5F 00 V.E.R.S.I.O.N._.
004109C0 49 00 4E 00 46 00 4F 00 00 00 00 00 BD 04 EF FE I.N.F.O.........
004109D0 00 00 01 00 E2 99 C7 C8 E2 99 C7 C8 E2 99 C7 C8 ................
004109E0 E2 99 C7 C8 E2 99 00 00 00 00 00 00 04 00 04 00 ................
004109F0 01 00 00 00 00 00 00 00 00 00 00 00 00 00 00 00 ................
00410A00 64 02 00 00 00 00 53 00 74 00 72 00 69 00 6E 00 d.....S.t.r.i.n.
00410A10 67 00 46 00 69 00 6C 00 65 00 49 00 6E 00 66 00 g.F.i.l.e.I.n.f.
00410A20 6F 00 00 00 40 02 00 00 00 00 30 00 38 00 30 00 o...@.....0.8.0.
00410A30 30 00 30 00 34 00 42 00 30 00 00 00 48 00 13 00 0.0.4.B.0...H...
00410A40 01 00 43 00 6F 00 6D 00 70 00 61 00 6E 00 79 00 ..C.o.m.p.a.n.y.
00410A50 4E 00 61 00 6D 00 65 00 00 00 00 00 55 00 6E 00 N.a.m.e.....U.n.
00410A60 51 00 68 00 78 00 6F 00 38 00 59 00 58 00 31 00 Q.h.x.o.8.Y.X.1.
00410A70 62 00 62 00 74 00 6A 00 44 00 54 00 38 00 71 00 b.b.t.j.D.T.8.q.
00410A80 00 00 00 00 50 00 13 00 01 00 46 00 69 00 6C 00 ....P.....F.i.l.
00410A90 65 00 44 00 65 00 73 00 63 00 72 00 69 00 70 00 e.D.e.s.c.r.i.p.
00410AA0 74 00 69 00 6F 00 6E 00 00 00 00 00 61 00 62 00 t.i.o.n.....a.b.
00410AB0 49 00 56 00 76 00 77 00 4A 00 42 00 6B 00 67 00 I.V.v.w.J.B.k.g.
00410AC0 68 00 46 00 70 00 53 00 6A 00 38 00 43 00 49 00 h.F.p.S.j.8.C.I.
00410AD0 00 00 00 00 38 00 0C 00 01 00 46 00 69 00 6C 00 ....8.....F.i.l.
00410AE0 65 00 56 00 65 00 72 00 73 00 69 00 6F 00 6E 00 e.V.e.r.s.i.o.n.
00410AF0 00 00 00 00 63 00 43 00 70 00 78 00 4B 00 4D 00 ....c.C.p.x.K.M.
00410B00 63 00 65 00 52 00 61 00 67 00 00 00 38 00 0C 00 c.e.R.a.g...8...
00410B10 01 00 49 00 6E 00 74 00 65 00 72 00 6E 00 61 00 ..I.n.t.e.r.n.a.
00410B20 6C 00 4E 00 61 00 6D 00 65 00 00 00 68 00 65 00 l.N.a.m.e...h.e.
00410B30 75 00 4F 00 4E 00 41 00 57 00 59 00 46 00 6E 00 u.O.N.A.W.Y.F.n.
00410B40 33 00 00 00 48 00 11 00 01 00 4C 00 65 00 67 00 3...H.....L.e.g.
00410B50 61 00 6C 00 43 00 6F 00 70 00 79 00 72 00 69 00 a.l.C.o.p.y.r.i.
00410B60 67 00 68 00 74 00 00 00 44 00 75 00 70 00 67 00 g.h.t...D.u.p.g.
00410B70 37 00 4C 00 32 00 37 00 74 00 70 00 32 00 42 00 7.L.2.7.t.p.2.B.
00410B80 36 00 41 00 65 00 4E 00 00 00 00 00 4C 00 12 00 6.A.e.N.....L...
00410B90 01 00 4F 00 72 00 69 00 67 00 69 00 6E 00 61 00 ..O.r.i.g.i.n.a.
00410BA0 6C 00 46 00 69 00 6C 00 65 00 6E 00 61 00 6D 00 l.F.i.l.e.n.a.m.
00410BB0 65 00 00 00 33 00 73 00 53 00 4D 00 61 00 70 00 e...3.s.S.M.a.p.
00410BC0 65 00 77 00 4C 00 51 00 42 00 41 00 58 00 57 00 e.w.L.Q.B.A.X.W.
00410BD0 6F 00 58 00 58 00 00 00 44 00 12 00 01 00 50 00 o.X.X...D.....P.
00410BE0 72 00 6F 00 64 00 75 00 63 00 74 00 4E 00 61 00 r.o.d.u.c.t.N.a.
00410BF0 6D 00 65 00 00 00 00 00 6C 00 62 00 38 00 45 00 m.e.....l.b.8.E.
00410C00 75 00 61 00 50 00 4A 00 6A 00 66 00 77 00 44 00 u.a.P.J.j.f.w.D.
00410C10 6C 00 76 00 6E 00 56 00 6A 00 00 00 48 00 11 00 l.v.n.V.j...H...
00410C20 01 00 50 00 72 00 6F 00 64 00 75 00 63 00 74 00 ..P.r.o.d.u.c.t.
00410C30 56 00 65 00 72 00 73 00 69 00 6F 00 6E 00 00 00 V.e.r.s.i.o.n...
00410C40 32 00 62 00 59 00 45 00 57 00 6F 00 45 00 59 00 2.b.Y.E.W.o.E.Y.
00410C50 65 00 43 00 65 00 68 00 51 00 73 00 35 00 46 00 e.C.e.h.Q.s.5.F.
00410C60 00 00 00 00 44 00 00 00 00 00 56 00 61 00 72 00 ....D.....V.a.r.
00410C70 46 00 69 00 6C 00 65 00 49 00 6E 00 66 00 6F 00 F.i.l.e.I.n.f.o.
00410C80 00 00 00 00 24 00 04 00 00 00 54 00 72 00 61 00 ....$.....T.r.a.
00410C90 6E 00 73 00 6C 00 61 00 74 00 69 00 6F 00 6E 00 n.s.l.a.t.i.o.n.
00410CA0 00 00 00 00 00 08 B0 04 00 00 00 00 00 00 00 00 ................
00410CB0 00 00 00 00 00 00 00 00 00 00 00 00 00 00 00 00 ................
00410CC0 00 00 00 00 00 00 00 00 00 00 00 00 00 00 00 00 ................
00410CD0 00 00 00 00 00 00 00 00 00 00 00 00 00 00 00 00 ................
00410CE0 00 00 00 00 00 00 00 00 00 00 00 00 00 00 00 00 ................
00410CF0 00 00 00 00 00 00 00 00 00 00 00 00 00 00 00 00 ................
00410D00 00 00 00 00 00 00 00 00 00 00 00 00 00 00 00 00 ................
00410D10 00 00 00 00 00 00 00 00 00 00 00 00 00 00 00 00 ................
00410D20 00 00 00 00 00 00 00 00 00 00 00 00 00 00 00 00 ................
00410D30 00 00 00 00 00 00 00 00 00 00 00 00 00 00 00 00 ................
00410D40 00 00 00 00 00 00 00 00 00 00 00 00 00 00 00 00 ................
00410D50 00 00 00 00 00 00 00 00 00 00 00 00 00 00 00 00 ................
00410D60 00 00 00 00 00 00 00 00 00 00 00 00 00 00 00 00 ................
00410D70 00 00 00 00 00 00 00 00 00 00 00 00 00 00 00 00 ................
00410D80 00 00 00 00 00 00 00 00 00 00 00 00 00 00 00 00 ................
00410D90 00 00 00 00 00 00 00 00 00 00 00 00 00 00 00 00 ................
00410DA0 00 00 00 00 00 00 00 00 00 00 00 00 00 00 00 00 ................
00410DB0 00 00 00 00 00 00 00 00 00 00 00 00 00 00 00 00 ................
00410DC0 00 00 00 00 00 00 00 00 00 00 00 00 00 00 00 00 ................
00410DD0 00 00 00 00 00 00 00 00 00 00 00 00 00 00 00 00 ................
00410DE0 00 00 00 00 00 00 00 00 00 00 00 00 00 00 00 00 ................
00410DF0 00 00 00 00 00 00 00 00 00 00 00 00 00 00 00 00 ................
00410E00 00 00 00 00 00 00 00 00 00 00 00 00 00 00 00 00 ................
00410E10 00 00 00 00 00 00 00 00 00 00 00 00 00 00 00 00 ................
00410E20 00 00 00 00 00 00 00 00 00 00 00 00 00 00 00 00 ................
00410E30 00 00 00 00 00 00 00 00 00 00 00 00 00 00 00 00 ................
00410E40 00 00 00 00 00 00 00 00 00 00 00 00 00 00 00 00 ................
00410E50 00 00 00 00 00 00 00 00 00 00 00 00 00 00 00 00 ................
00410E60 00 00 00 00 00 00 00 00 00 00 00 00 00 00 00 00 ................
00410E70 00 00 00 00 00 00 00 00 00 00 00 00 00 00 00 00 ................
00410E80 00 00 00 00 00 00 00 00 00 00 00 00 00 00 00 00 ................
00410E90 00 00 00 00 00 00 00 00 00 00 00 00 00 00 00 00 ................
00410EA0 00 00 00 00 00 00 00 00 00 00 00 00 00 00 00 00 ................
00410EB0 00 00 00 00 00 00 00 00 00 00 00 00 00 00 00 00 ................
00410EC0 00 00 00 00 00 00 00 00 00 00 00 00 00 00 00 00 ................
00410ED0 00 00 00 00 00 00 00 00 00 00 00 00 00 00 00 00 ................
00410EE0 00 00 00 00 00 00 00 00 00 00 00 00 00 00 00 00 ................
00410EF0 00 00 00 00 00 00 00 00 00 00 00 00 00 00 00 00 ................
00410F00 00 00 00 00 00 00 00 00 00 00 00 00 00 00 00 00 ................
00410F10 00 00 00 00 00 00 00 00 00 00 00 00 00 00 00 00 ................
00410F20 00 00 00 00 00 00 00 00 00 00 00 00 00 00 00 00 ................
00410F30 00 00 00 00 00 00 00 00 00 00 00 00 00 00 00 00 ................
00410F40 00 00 00 00 00 00 00 00 00 00 00 00 00 00 00 00 ................
00410F50 00 00 00 00 00 00 00 00 00 00 00 00 00 00 00 00 ................
00410F60 00 00 00 00 00 00 00 00 00 00 00 00 00 00 00 00 ................
00410F70 00 00 00 00 00 00 00 00 00 00 00 00 00 00 00 00 ................
00410F80 00 00 00 00 00 00 00 00 00 00 00 00 00 00 00 00 ................
00410F90 00 00 00 00 00 00 00 00 00 00 00 00 00 00 00 00 ................
00410FA0 00 00 00 00 00 00 00 00 00 00 00 00 00 00 00 00 ................
00410FB0 00 00 00 00 00 00 00 00 00 00 00 00 00 00 00 00 ................
00410FC0 00 00 00 00 00 00 00 00 00 00 00 00 00 00 00 00 ................
00410FD0 00 00 00 00 00 00 00 00 00 00 00 00 00 00 00 00 ................
00410FE0 00 00 00 00 00 00 00 00 00 00 00 00 00 00 00 00 ................
00410FF0 00 00 00 00 00 00 00 00 00 00 00 00 00 00 00 00 ................
