00400000 00 00 00 00 00 00 00 00 00 00 00 00 00 00 00 00 ................
00400010 00 00 00 00 00 00 00 00 00 00 00 00 00 00 00 00 ................
00400020 00 00 00 00 00 00 00 00 00 00 00 00 00 00 00 00 ................
00400030 00 00 00 00 00 00 00 00 00 00 00 00 00 00 00 00 ................
00400040 00 00 00 00 00 00 00 00 00 00 00 00 00 00 00 00 ................
00400050 00 00 00 00 00 00 00 00 00 00 00 00 00 00 00 00 ................
00400060 00 00 00 00 00 00 00 00 00 00 00 00 00 00 00 00 ................
00400070 00 00 00 00 00 00 00 00 00 00 00 00 00 00 00 00 ................
00400080 00 00 00 00 00 00 00 00 00 00 00 00 00 00 00 00 ................
00400090 00 00 00 00 00 00 00 00 00 00 00 00 00 00 00 00 ................
004000A0 00 00 00 00 00 00 00 00 00 00 00 00 00 00 00 00 ................
004000B0 00 00 00 00 00 00 00 00 00 00 00 00 00 00 00 00 ................
004000C0 00 00 00 00 00 00 00 00 00 00 00 00 00 00 00 00 ................
004000D0 00 00 00 00 00 00 00 00 00 00 00 00 00 00 00 00 ................
004000E0 00 00 00 00 00 00 00 00 00 00 00 00 00 00 00 00 ................
004000F0 00 00 00 00 00 00 00 00 00 00 00 00 00 00 00 00 ................
00400100 00 00 00 00 00 00 00 00 00 00 00 00 00 00 00 00 ................
00400110 00 00 00 00 00 00 00 00 00 00 00 00 00 00 00 00 ................
00400120 00 00 00 00 00 00 00 00 00 00 00 00 00 00 00 00 ................
00400130 00 00 00 00 00 00 00 00 00 00 00 00 00 00 00 00 ................
00400140 00 00 00 00 00 00 00 00 00 00 00 00 00 00 00 00 ................
00400150 00 00 00 00 00 00 00 00 00 00 00 00 00 00 00 00 ................
00400160 00 00 00 00 00 00 00 00 00 00 00 00 00 00 00 00 ................
00400170 00 00 00 00 00 00 00 00 00 00 00 00 00 00 00 00 ................
00400180 00 00 00 00 00 00 00 00 00 00 00 00 00 00 00 00 ................
00400190 00 00 00 00 00 00 00 00 00 00 00 00 00 00 00 00 ................
004001A0 00 00 00 00 00 00 00 00 00 00 00 00 00 00 00 00 ................
004001B0 00 00 00 00 00 00 00 00 00 00 00 00 00 00 00 00 ................
004001C0 00 00 00 00 00 00 00 00 00 00 00 00 00 00 00 00 ................
004001D0 00 00 00 00 00 00 00 00 00 00 00 00 00 00 00 00 ................
004001E0 00 00 00 00 00 00 00 00 00 00 00 00 00 00 00 00 ................
004001F0 00 00 00 00 00 00 00 00 00 00 00 00 00 00 00 00 ................
00400200 00 00 00 00 00 00 00 00 00 00 00 00 00 00 00 00 ................
00400210 00 00 00 00 00 00 00 00 00 00 00 00 00 00 00 00 ................
00400220 00 00 00 00 00 00 00 00 00 00 00 00 00 00 00 00 ................
00400230 00 00 00 00 00 00 00 00 00 00 00 00 00 00 00 00 ................
00400240 00 00 00 00 00 00 00 00 00 00 00 00 00 00 00 00 ................
00400250 00 00 00 00 00 00 00 00 00 00 00 00 00 00 00 00 ................
00400260 00 00 00 00 00 00 00 00 00 00 00 00 00 00 00 00 ................
00400270 00 00 00 00 00 00 00 00 00 00 00 00 00 00 00 00 ................
00400280 00 00 00 00 00 00 00 00 00 00 00 00 00 00 00 00 ................
00400290 00 00 00 00 00 00 00 00 00 00 00 00 00 00 00 00 ................
004002A0 00 00 00 00 00 00 00 00 00 00 00 00 00 00 00 00 ................
004002B0 00 00 00 00 00 00 00 00 00 00 00 00 00 00 00 00 ................
004002C0 00 00 00 00 00 00 00 00 00 00 00 00 00 00 00 00 ................
004002D0 00 00 00 00 00 00 00 00 00 00 00 00 00 00 00 00 ................
004002E0 00 00 00 00 00 00 00 00 00 00 00 00 00 00 00 00 ................
004002F0 00 00 00 00 00 00 00 00 00 00 00 00 00 00 00 00 ................
00400300 00 00 00 00 00 00 00 00 00 00 00 00 00 00 00 00 ................
00400310 00 00 00 00 00 00 00 00 00 00 00 00 00 00 00 00 ................
00400320 00 00 00 00 00 00 00 00 00 00 00 00 00 00 00 00 ................
00400330 00 00 00 00 00 00 00 00 00 00 00 00 00 00 00 00 ................
00400340 00 00 00 00 00 00 00 00 00 00 00 00 00 00 00 00 ................
00400350 00 00 00 00 00 00 00 00 00 00 00 00 00 00 00 00 ................
00400360 00 00 00 00 00 00 00 00 00 00 00 00 00 00 00 00 ................
00400370 00 00 00 00 00 00 00 00 00 00 00 00 00 00 00 00 ................
00400380 00 00 00 00 00 00 00 00 00 00 00 00 00 00 00 00 ................
00400390 00 00 00 00 00 00 00 00 00 00 00 00 00 00 00 00 ................
004003A0 00 00 00 00 00 00 00 00 00 00 00 00 00 00 00 00 ................
004003B0 00 00 00 00 00 00 00 00 00 00 00 00 00 00 00 00 ................
004003C0 00 00 00 00 00 00 00 00 00 00 00 00 00 00 00 00 ................
004003D0 00 00 00 00 00 00 00 00 00 00 00 00 00 00 00 00 ................
004003E0 00 00 00 00 00 00 00 00 00 00 00 00 00 00 00 00 ................
004003F0 00 00 00 00 00 00 00 00 00 00 00 00 00 00 00 00 ................
00400400 00 00 00 00 00 00 00 00 00 00 00 00 00 00 00 00 ................
00400410 00 00 00 00 00 00 00 00 00 00 00 00 00 00 00 00 ................
00400420 00 00 00 00 00 00 00 00 00 00 00 00 00 00 00 00 ................
00400430 00 00 00 00 00 00 00 00 00 00 00 00 00 00 00 00 ................
00400440 00 00 00 00 00 00 00 00 00 00 00 00 00 00 00 00 ................
00400450 00 00 00 00 00 00 00 00 00 00 00 00 00 00 00 00 ................
00400460 00 00 00 00 00 00 00 00 00 00 00 00 00 00 00 00 ................
00400470 00 00 00 00 00 00 00 00 00 00 00 00 00 00 00 00 ................
00400480 00 00 00 00 00 00 00 00 00 00 00 00 00 00 00 00 ................
00400490 00 00 00 00 00 00 00 00 00 00 00 00 00 00 00 00 ................
004004A0 00 00 00 00 00 00 00 00 00 00 00 00 00 00 00 00 ................
004004B0 00 00 00 00 00 00 00 00 00 00 00 00 00 00 00 00 ................
004004C0 00 00 00 00 00 00 00 00 00 00 00 00 00 00 00 00 ................
004004D0 00 00 00 00 00 00 00 00 00 00 00 00 00 00 00 00 ................
004004E0 00 00 00 00 00 00 00 00 00 00 00 00 00 00 00 00 ................
004004F0 00 00 00 00 00 00 00 00 00 00 00 00 00 00 00 00 ................
00400500 00 00 00 00 00 00 00 00 00 00 00 00 00 00 00 00 ................
00400510 00 00 00 00 00 00 00 00 00 00 00 00 00 00 00 00 ................
00400520 00 00 00 00 00 00 00 00 00 00 00 00 00 00 00 00 ................
00400530 00 00 00 00 00 00 00 00 00 00 00 00 00 00 00 00 ................
00400540 00 00 00 00 00 00 00 00 00 00 00 00 00 00 00 00 ................
00400550 00 00 00 00 00 00 00 00 00 00 00 00 00 00 00 00 ................
00400560 00 00 00 00 00 00 00 00 00 00 00 00 00 00 00 00 ................
00400570 00 00 00 00 00 00 00 00 00 00 00 00 00 00 00 00 ................
00400580 00 00 00 00 00 00 00 00 00 00 00 00 00 00 00 00 ................
00400590 00 00 00 00 00 00 00 00 00 00 00 00 00 00 00 00 ................
004005A0 00 00 00 00 00 00 00 00 00 00 00 00 00 00 00 00 ................
004005B0 00 00 00 00 00 00 00 00 00 00 00 00 00 00 00 00 ................
004005C0 00 00 00 00 00 00 00 00 00 00 00 00 00 00 00 00 ................
004005D0 00 00 00 00 00 00 00 00 00 00 00 00 00 00 00 00 ................
004005E0 00 00 00 00 00 00 00 00 00 00 00 00 00 00 00 00 ................
004005F0 00 00 00 00 00 00 00 00 00 00 00 00 00 00 00 00 ................
00400600 00 00 00 00 00 00 00 00 00 00 00 00 00 00 00 00 ................
00400610 00 00 00 00 00 00 00 00 00 00 00 00 00 00 00 00 ................
00400620 00 00 00 00 00 00 00 00 00 00 00 00 00 00 00 00 ................
00400630 00 00 00 00 00 00 00 00 00 00 00 00 00 00 00 00 ................
00400640 00 00 00 00 00 00 00 00 00 00 00 00 00 00 00 00 ................
00400650 00 00 00 00 00 00 00 00 00 00 00 00 00 00 00 00 ................
00400660 00 00 00 00 00 00 00 00 00 00 00 00 00 00 00 00 ................
00400670 00 00 00 00 00 00 00 00 00 00 00 00 00 00 00 00 ................
00400680 00 00 00 00 00 00 00 00 00 00 00 00 00 00 00 00 ................
00400690 00 00 00 00 00 00 00 00 00 00 00 00 00 00 00 00 ................
004006A0 00 00 00 00 00 00 00 00 00 00 00 00 00 00 00 00 ................
004006B0 00 00 00 00 00 00 00 00 00 00 00 00 00 00 00 00 ................
004006C0 00 00 00 00 00 00 00 00 00 00 00 00 00 00 00 00 ................
004006D0 00 00 00 00 00 00 00 00 00 00 00 00 00 00 00 00 ................
004006E0 00 00 00 00 00 00 00 00 00 00 00 00 00 00 00 00 ................
004006F0 00 00 00 00 00 00 00 00 00 00 00 00 00 00 00 00 ................
00400700 00 00 00 00 00 00 00 00 00 00 00 00 00 00 00 00 ................
00400710 00 00 00 00 00 00 00 00 00 00 00 00 00 00 00 00 ................
00400720 00 00 00 00 00 00 00 00 00 00 00 00 00 00 00 00 ................
00400730 00 00 00 00 00 00 00 00 00 00 00 00 00 00 00 00 ................
00400740 00 00 00 00 00 00 00 00 00 00 00 00 00 00 00 00 ................
00400750 00 00 00 00 00 00 00 00 00 00 00 00 00 00 00 00 ................
00400760 00 00 00 00 00 00 00 00 00 00 00 00 00 00 00 00 ................
00400770 00 00 00 00 00 00 00 00 00 00 00 00 00 00 00 00 ................
00400780 00 00 00 00 00 00 00 00 00 00 00 00 00 00 00 00 ................
00400790 00 00 00 00 00 00 00 00 00 00 00 00 00 00 00 00 ................
004007A0 00 00 00 00 00 00 00 00 00 00 00 00 00 00 00 00 ................
004007B0 00 00 00 00 00 00 00 00 00 00 00 00 00 00 00 00 ................
004007C0 00 00 00 00 00 00 00 00 00 00 00 00 00 00 00 00 ................
004007D0 00 00 00 00 00 00 00 00 00 00 00 00 00 00 00 00 ................
004007E0 00 00 00 00 00 00 00 00 00 00 00 00 00 00 00 00 ................
004007F0 00 00 00 00 00 00 00 00 00 00 00 00 00 00 00 00 ................
00400800 00 00 00 00 00 00 00 00 00 00 00 00 00 00 00 00 ................
00400810 00 00 00 00 00 00 00 00 00 00 00 00 00 00 00 00 ................
00400820 00 00 00 00 00 00 00 00 00 00 00 00 00 00 00 00 ................
00400830 00 00 00 00 00 00 00 00 00 00 00 00 00 00 00 00 ................
00400840 00 00 00 00 00 00 00 00 00 00 00 00 00 00 00 00 ................
00400850 00 00 00 00 00 00 00 00 00 00 00 00 00 00 00 00 ................
00400860 00 00 00 00 00 00 00 00 00 00 00 00 00 00 00 00 ................
00400870 00 00 00 00 00 00 00 00 00 00 00 00 00 00 00 00 ................
00400880 00 00 00 00 00 00 00 00 00 00 00 00 00 00 00 00 ................
00400890 00 00 00 00 00 00 00 00 00 00 00 00 00 00 00 00 ................
004008A0 00 00 00 00 00 00 00 00 00 00 00 00 00 00 00 00 ................
004008B0 00 00 00 00 00 00 00 00 00 00 00 00 00 00 00 00 ................
004008C0 00 00 00 00 00 00 00 00 00 00 00 00 00 00 00 00 ................
004008D0 00 00 00 00 00 00 00 00 00 00 00 00 00 00 00 00 ................
004008E0 00 00 00 00 00 00 00 00 00 00 00 00 00 00 00 00 ................
004008F0 00 00 00 00 00 00 00 00 00 00 00 00 00 00 00 00 ................
00400900 00 00 00 00 00 00 00 00 00 00 00 00 00 00 00 00 ................
00400910 00 00 00 00 00 00 00 00 00 00 00 00 00 00 00 00 ................
00400920 00 00 00 00 00 00 00 00 00 00 00 00 00 00 00 00 ................
00400930 00 00 00 00 00 00 00 00 00 00 00 00 00 00 00 00 ................
00400940 00 00 00 00 00 00 00 00 00 00 00 00 00 00 00 00 ................
00400950 00 00 00 00 00 00 00 00 00 00 00 00 00 00 00 00 ................
00400960 00 00 00 00 00 00 00 00 00 00 00 00 00 00 00 00 ................
00400970 00 00 00 00 00 00 00 00 00 00 00 00 00 00 00 00 ................
00400980 00 00 00 00 00 00 00 00 00 00 00 00 00 00 00 00 ................
00400990 00 00 00 00 00 00 00 00 00 00 00 00 00 00 00 00 ................
004009A0 00 00 00 00 00 00 00 00 00 00 00 00 00 00 00 00 ................
004009B0 00 00 00 00 00 00 00 00 00 00 00 00 00 00 00 00 ................
004009C0 00 00 00 00 00 00 00 00 00 00 00 00 00 00 00 00 ................
004009D0 00 00 00 00 00 00 00 00 00 00 00 00 00 00 00 00 ................
004009E0 00 00 00 00 00 00 00 00 00 00 00 00 00 00 00 00 ................
004009F0 00 00 00 00 00 00 00 00 00 00 00 00 00 00 00 00 ................
00400A00 00 00 00 00 00 00 00 00 00 00 00 00 00 00 00 00 ................
00400A10 00 00 00 00 00 00 00 00 00 00 00 00 00 00 00 00 ................
00400A20 00 00 00 00 00 00 00 00 00 00 00 00 00 00 00 00 ................
00400A30 00 00 00 00 00 00 00 00 00 00 00 00 00 00 00 00 ................
00400A40 00 00 00 00 00 00 00 00 00 00 00 00 00 00 00 00 ................
00400A50 00 00 00 00 00 00 00 00 00 00 00 00 00 00 00 00 ................
00400A60 00 00 00 00 00 00 00 00 00 00 00 00 00 00 00 00 ................
00400A70 00 00 00 00 00 00 00 00 00 00 00 00 00 00 00 00 ................
00400A80 00 00 00 00 00 00 00 00 00 00 00 00 00 00 00 00 ................
00400A90 00 00 00 00 00 00 00 00 00 00 00 00 00 00 00 00 ................
00400AA0 00 00 00 00 00 00 00 00 00 00 00 00 00 00 00 00 ................
00400AB0 00 00 00 00 00 00 00 00 00 00 00 00 00 00 00 00 ................
00400AC0 00 00 00 00 00 00 00 00 00 00 00 00 00 00 00 00 ................
00400AD0 00 00 00 00 00 00 00 00 00 00 00 00 00 00 00 00 ................
00400AE0 00 00 00 00 00 00 00 00 00 00 00 00 00 00 00 00 ................
00400AF0 00 00 00 00 00 00 00 00 00 00 00 00 00 00 00 00 ................
00400B00 00 00 00 00 00 00 00 00 00 00 00 00 00 00 00 00 ................
00400B10 00 00 00 00 00 00 00 00 00 00 00 00 00 00 00 00 ................
00400B20 00 00 00 00 00 00 00 00 00 00 00 00 00 00 00 00 ................
00400B30 00 00 00 00 00 00 00 00 00 00 00 00 00 00 00 00 ................
00400B40 00 00 00 00 00 00 00 00 00 00 00 00 00 00 00 00 ................
00400B50 00 00 00 00 00 00 00 00 00 00 00 00 00 00 00 00 ................
00400B60 00 00 00 00 00 00 00 00 00 00 00 00 00 00 00 00 ................
00400B70 00 00 00 00 00 00 00 00 00 00 00 00 00 00 00 00 ................
00400B80 00 00 00 00 00 00 00 00 00 00 00 00 00 00 00 00 ................
00400B90 00 00 00 00 00 00 00 00 00 00 00 00 00 00 00 00 ................
00400BA0 00 00 00 00 00 00 00 00 00 00 00 00 00 00 00 00 ................
00400BB0 00 00 00 00 00 00 00 00 00 00 00 00 00 00 00 00 ................
00400BC0 00 00 00 00 00 00 00 00 00 00 00 00 00 00 00 00 ................
00400BD0 00 00 00 00 00 00 00 00 00 00 00 00 00 00 00 00 ................
00400BE0 00 00 00 00 00 00 00 00 00 00 00 00 00 00 00 00 ................
00400BF0 00 00 00 00 00 00 00 00 00 00 00 00 00 00 00 00 ................
00400C00 00 00 00 00 00 00 00 00 00 00 00 00 00 00 00 00 ................
00400C10 00 00 00 00 00 00 00 00 00 00 00 00 00 00 00 00 ................
00400C20 00 00 00 00 00 00 00 00 00 00 00 00 00 00 00 00 ................
00400C30 00 00 00 00 00 00 00 00 00 00 00 00 00 00 00 00 ................
00400C40 00 00 00 00 00 00 00 00 00 00 00 00 00 00 00 00 ................
00400C50 00 00 00 00 00 00 00 00 00 00 00 00 00 00 00 00 ................
00400C60 00 00 00 00 00 00 00 00 00 00 00 00 00 00 00 00 ................
00400C70 00 00 00 00 00 00 00 00 00 00 00 00 00 00 00 00 ................
00400C80 00 00 00 00 00 00 00 00 00 00 00 00 00 00 00 00 ................
00400C90 00 00 00 00 00 00 00 00 00 00 00 00 00 00 00 00 ................
00400CA0 00 00 00 00 00 00 00 00 00 00 00 00 00 00 00 00 ................
00400CB0 00 00 00 00 00 00 00 00 00 00 00 00 00 00 00 00 ................
00400CC0 00 00 00 00 00 00 00 00 00 00 00 00 00 00 00 00 ................
00400CD0 00 00 00 00 00 00 00 00 00 00 00 00 00 00 00 00 ................
00400CE0 00 00 00 00 00 00 00 00 00 00 00 00 00 00 00 00 ................
00400CF0 00 00 00 00 00 00 00 00 00 00 00 00 00 00 00 00 ................
00400D00 00 00 00 00 00 00 00 00 00 00 00 00 00 00 00 00 ................
00400D10 00 00 00 00 00 00 00 00 00 00 00 00 00 00 00 00 ................
00400D20 00 00 00 00 00 00 00 00 00 00 00 00 00 00 00 00 ................
00400D30 00 00 00 00 00 00 00 00 00 00 00 00 00 00 00 00 ................
00400D40 00 00 00 00 00 00 00 00 00 00 00 00 00 00 00 00 ................
00400D50 00 00 00 00 00 00 00 00 00 00 00 00 00 00 00 00 ................
00400D60 00 00 00 00 00 00 00 00 00 00 00 00 00 00 00 00 ................
00400D70 00 00 00 00 00 00 00 00 00 00 00 00 00 00 00 00 ................
00400D80 00 00 00 00 00 00 00 00 00 00 00 00 00 00 00 00 ................
00400D90 00 00 00 00 00 00 00 00 00 00 00 00 00 00 00 00 ................
00400DA0 00 00 00 00 00 00 00 00 00 00 00 00 00 00 00 00 ................
00400DB0 00 00 00 00 00 00 00 00 00 00 00 00 00 00 00 00 ................
00400DC0 00 00 00 00 00 00 00 00 00 00 00 00 00 00 00 00 ................
00400DD0 00 00 00 00 00 00 00 00 00 00 00 00 00 00 00 00 ................
00400DE0 00 00 00 00 00 00 00 00 00 00 00 00 00 00 00 00 ................
00400DF0 00 00 00 00 00 00 00 00 00 00 00 00 00 00 00 00 ................
00400E00 00 00 00 00 00 00 00 00 00 00 00 00 00 00 00 00 ................
00400E10 00 00 00 00 00 00 00 00 00 00 00 00 00 00 00 00 ................
00400E20 00 00 00 00 00 00 00 00 00 00 00 00 00 00 00 00 ................
00400E30 00 00 00 00 00 00 00 00 00 00 00 00 00 00 00 00 ................
00400E40 00 00 00 00 00 00 00 00 00 00 00 00 00 00 00 00 ................
00400E50 00 00 00 00 00 00 00 00 00 00 00 00 00 00 00 00 ................
00400E60 00 00 00 00 00 00 00 00 00 00 00 00 00 00 00 00 ................
00400E70 00 00 00 00 00 00 00 00 00 00 00 00 00 00 00 00 ................
00400E80 00 00 00 00 00 00 00 00 00 00 00 00 00 00 00 00 ................
00400E90 00 00 00 00 00 00 00 00 00 00 00 00 00 00 00 00 ................
00400EA0 00 00 00 00 00 00 00 00 00 00 00 00 00 00 00 00 ................
00400EB0 00 00 00 00 00 00 00 00 00 00 00 00 00 00 00 00 ................
00400EC0 00 00 00 00 00 00 00 00 00 00 00 00 00 00 00 00 ................
00400ED0 00 00 00 00 00 00 00 00 00 00 00 00 00 00 00 00 ................
00400EE0 00 00 00 00 00 00 00 00 00 00 00 00 00 00 00 00 ................
00400EF0 00 00 00 00 00 00 00 00 00 00 00 00 00 00 00 00 ................
00400F00 00 00 00 00 00 00 00 00 00 00 00 00 00 00 00 00 ................
00400F10 00 00 00 00 00 00 00 00 00 00 00 00 00 00 00 00 ................
00400F20 00 00 00 00 00 00 00 00 00 00 00 00 00 00 00 00 ................
00400F30 00 00 00 00 00 00 00 00 00 00 00 00 00 00 00 00 ................
00400F40 00 00 00 00 00 00 00 00 00 00 00 00 00 00 00 00 ................
00400F50 00 00 00 00 00 00 00 00 00 00 00 00 00 00 00 00 ................
00400F60 00 00 00 00 00 00 00 00 00 00 00 00 00 00 00 00 ................
00400F70 00 00 00 00 00 00 00 00 00 00 00 00 00 00 00 00 ................
00400F80 00 00 00 00 00 00 00 00 00 00 00 00 00 00 00 00 ................
00400F90 00 00 00 00 00 00 00 00 00 00 00 00 00 00 00 00 ................
00400FA0 00 00 00 00 00 00 00 00 00 00 00 00 00 00 00 00 ................
00400FB0 00 00 00 00 00 00 00 00 00 00 00 00 00 00 00 00 ................
00400FC0 00 00 00 00 00 00                               ......         

l00400FC6:
	add	[eax],al
	add	[eax],al
	add	[eax],al
	add	[eax],al
	add	[eax],al
	add	[eax],al
	add	[eax],al
	add	[eax],al
	add	[eax],al
	add	[eax],al
	add	[eax],al
	add	[eax],al
	add	[eax],al
	add	[eax],al
	add	[eax],al
	add	[eax],al
	add	[eax],al
	add	[eax],al
	add	[eax],al
	add	[eax],al
	add	[eax],al
	add	[eax],al
	add	[eax],al
	add	[eax],al
	add	[eax],al
	add	[eax],al
	add	[eax],al
	add	[eax],al
	add	[eax],al
00401000 5E 17 00 FC 56 5B 27 FC                         ^...V['.       

fn00401008()
	or	esi,edx
	sub	edx,eax
	or	edx,ecx
	or	edx,ebx
	mov	edx,ecx
	xor	esi,ecx
	sub	ebx,edx
	or	ebx,edx
	jz	004010A5

l0040101E:
	repne	
	jnz	004010A5
	inc	edi
	retf	4B4E
	xchg	eax,esp
	add	ah,[esi+2B]

fn0040102C()
	sub	edx,esi
	mov	ebx,ecx

fn00401030()
	inc	ebx
	xor	edx,ebx
	sub	edi,edx
	xor	ebx,esi
	add	ebx,edx
	or	ebx,ecx
	inc	ebx
	call	004010BC
	stc	
	or	al,1C
	jle	00400FC6

l00401046:
	test	[ebx],eax

l00401047:
	add	edi,esi

fn00401048()
	dec	byte ptr [ebx+D7034BDA]
	xor	edx,esi
	inc	edi
	xor	edi,esi
	call	004011A4

fn00401058()
	add	ebp,edx
	or	eax,16E5EC33
	repne	

fn00401060()
	pop	dword ptr [esp-24]
	add	edi,edx
	inc	eax
	mov	edi,esi
	dec	ecx
	or	ecx,edx
	inc	edi
	dec	edx
	mov	ecx,eax
	inc	esi
	jo	00401174

l00401077:
	xchg	dx,dx
	jmp	00401080
0040107F                                              3F                ?

l00401080:
	jno	00401174

l00401086:
	std	
	jpe	00401030

l00401089:
	illegal	
	xchg	eax,esi
	push	63

fn0040108E()
	inc	ebx
	or	bh,ch
	or	dh,ch
	mov	bh,E9
	mov	dh,73
	or	esi,edi
	add	ebx,edx
	dec	edi
	mov	edi,eax
	jmp	0040102C

l004010A0:
	mov	es,si
	or	eax,334E2FF7

fn004010A5()
	dec	esi
	xor	ebx,edi

l004010A7:
	fbstp	tword ptr [edx+0AFD028F]
	fidiv	dword ptr [ebx]
	stc	
	or	dh,al
	neg	bh
	jmp	004010FC
004010B6                   01 AC DC 9B 03 06                   ......   

fn004010BC()
	pop	dword ptr [esp-30]
	xor	edi,ecx
	inc	esi
	add	edx,esi
	leave	
	or	ecx,eax
	dec	esi
	xor	eax,ebx
	call	00401060
	add	ah,[eax-25]
	jmp	far 0BB3:45B5

fn004010D7()
	or	ebx,edx
004010D8                         DA 42 8B FE 48 03 C1 2B         .B..H..+
004010E0 F8 42 03 CA 0F 88 B0 00 00 00                   .B........     

l004010EA:
	push	dx
	pop	dx
	jns	0040119A

l004010F4:
	inc	ebp
	mov	cl,06
	cmp	ch,[eax]
	mov	[edi+56],esi

fn004010FC()
	mov	ebx,esi
	xor	edi,eax
	sub	bh,ah
	neg	dh
	xor	dl,bl
	add	edi,ebx
	mov	bh,C9
	xor	bl,ah
	sub	edx,ebx
	add	esi,ecx
	call	00401145
	jl	004010A0

l00401117:
	pusha	
	pop	dword ptr [ebx+47890BAB]

fn0040111D()
	inc	edi

fn0040111E()
	inc	ebx
	mov	ebx,eax
	xor	edx,edi
	xor	esi,eax
	mov	bl,83
	mov	esi,edx
	neg	dh
	dec	edi
	jc	0040108E

fn00401132()
	mov	si,si
	jnc	00401137

l00401137:
	jnc	0040108E

l0040113D:
	inc	esi
	mov	ebp,DAD9523C
	and	ebx,ebx

fn00401145()
	lea	esp,[esp+04]
	or	bl,dl
	mov	bl,69
	sub	esi,edx
	mov	bl,cl
	inc	esi
	jle	0040111D

l00401154:
	js	00401156

l00401156:
	jg	0040111D

l00401158:
	inc	ebp
	pop	ss
	int	E0
	pop	ebp
	dec	edi
	test	eax,4BEC8B55

fn0040115F()
	push	ebp
	mov	ebp,esp
	dec	ebx
	add	ebx,edx
	or	edi,ebx
	mov	ebx,edi
	or	edi,eax
	jmp	00401047
00401170 A2 C2 93 F4                                     ....           

l00401174:
	or	esi,edx
	mov	ebx,ecx
	inc	edi
	inc	edi
	sub	eax,ecx
	mov	edx,esi
	xor	eax,esi
	inc	ecx
	xor	ebx,esi
	jc	004010D7

l00401189:
	lea	cx,[ecx]
	mov	cx,cx
	jnc	004010D7

l00401195:
	test	[43BB0E6F],al

fn0040119A()
	inc	ebx

fn0040119B()
	inc	edi
	or	ecx,esi
	dec	ebx
	dec	ecx
	add	eax,ebx
	jmp	004011BD

fn004011A4()
	lea	esp,[esp+04]
	inc	edi
	dec	edx
	add	edx,ecx
	inc	edi
	sub	esi,edx
	or	ebx,ecx
	inc	edi
	xor	edx,edi
	jmp	00401008
004011B9                            AE CF 6A FB                   ..j.  

fn004011BD()
	call	00401FC5
	mov	esp,[ecx-3F]
	and	[esi+EDEDF7C9],bh
	les	ecx,[ebx]
	rep	
	ja	004011CD
	or	[ebp-0F],ch
	lea	ebp,esp
	xlat	
	out	BE,al
	cmpsd	
	imul	ebp
	in	eax,dx
	inc	esp
	hlt	
	imul	ebp,ebp,EDF3E1C0
	in	eax,dx
	neg	byte ptr [ecx]
	cmp	dl,[ebp-39]
	scasb	
	aam	D0
	hlt	
	jpe	004011ED
	shl	byte ptr [eax-0B],ED
	in	eax,dx
	or	ebx,[ecx+edi*8+0B]
	pop	esp
	fidivr	word ptr [ecx+0BECBCF0]
	mov	ecx,C005BE70
	arpl	bx,bx
	in	eax,dx
	in	eax,dx
	xchg	eax,ebp
	mov	dl,16
	popa	
	or	edi,eax
	push	FB
	in	eax,dx
	in	eax,dx
	add	al,77
	fisubr	word ptr [ebx+7280A3A9]
	or	eax,0EC097ED
	sti	
	in	eax,dx
	in	eax,dx
	sbb	eax,F6DCE2D1
	push	eax
	jc	00401220
	in	eax,dx
	xchg	eax,edi
	add	al,C6
	xchg	eax,ebx
	cdq	
	wait	
	add	al,A7
	std	
	add	al,94
	ror	byte ptr [eax+79EDEDF1],0C
	ror	ecx,cl
	mov	ebp,86868686
	or	al,77
	into	
	mov	ebp,EDED59ED
	or	al,77
	mov	esi,ED59EDBD
	in	eax,dx
	or	al,77
	mov	dh,BD
	sti	
	cdq	
	illegal	
	outsd	
	sar	byte ptr [eax-05],ED
	in	eax,dx
	pusha	
	or	ebx,[ecx-4B]
	bound	esi,ecx
	mov	dl,[edx+9282026E]
	jle	0040120F
	inc	edx
	rep	
	nop	
	jo	004012E7
	rep	
	sar	byte ptr [edi+0BEDEDF7],41
	jno	00401275
	add	eax,[eax+FBE4F80B]
	in	eax,dx
	in	eax,dx
	add	[edi-52],dh
	out	BD,al
	in	eax,dx
	in	eax,dx
	in	eax,dx
	in	eax,dx
	or	al,77
	out	BD,al
	pop	ss
	div	dword ptr [ebx+edi*2+0C]
	ja	00401279
	mov	ebp,86868686
	or	al,77
	illegal	
	les	esp,[esi+esi*8]
	fsubr	st(0),st(1)
	arpl	sp,bx
	sar	ebp,cl
	lea	edi,[esi+EDEDFF64]
	lahf	
	hlt	
	jz	004012F3
	jg	004012BB
	add	al,80
	stc	
	in	eax,dx
	in	eax,dx
	mov	eax,6178F7D8
	lahf	
	cmp	al,08
	ja	004012A6
	lea	edi,[ebp+AEADABFE]
	mov	esi,EDEDFF6F
	mov	ebp,CADC76A9
	lea	edi,[esi+EDEDFF42]
	shl	byte ptr [esi+59EDEDFF],6D
	mov	byte ptr [esi+0577087D],8D
	or	[edi-03],dh
	lea	eax,ecx
	in	al,dx
	mov	ebp,AEADABFE
	shl	byte ptr [edx+01],ED
	in	eax,dx
	fld	dword ptr [eax+edx+7280BA2E]
	cmc	
	in	eax,dx
	xchg	eax,edi
	add	al,C6
	shr	dword ptr [ebp-43],ED
	dec	ebp
	in	eax,dx
	in	eax,dx
	or	[edi+05],dh
	lea	eax,ecx
	in	eax,dx
	shr	byte ptr [edx],FD
	in	eax,dx
	in	eax,dx
	jbe	0040138B
	wait	
	cmp	al,54
	inc	ebp
	out	dx,al
	shr	ebp,BE
	test	al,EC
	in	al,dx
	in	al,dx
	add	[edi-6A],dh
	add	al,A7
	scasb	
	rep	
	mov	[2D74F065],eax
	out	dx,ax
	in	eax,dx
	in	eax,dx
	add	al,A3
	add	eax,EDEFBAC0
	in	eax,dx
	mov	edi,BF580AAD
	out	A9,al
	sbb	ecx,[ebp+EDFF63BE]
	in	eax,dx
	in	al,dx
	mov	es,[edi+esi*2]
	std	
	xor	byte ptr [edx-03],ED
	xchg	eax,edi
	add	al,C6
	mov	ebp,EDEDEEED
	les	edi,esi
	cwde	
	lds	eax,[edi+4F]
	cmpsd	
	lea	ecx,[edi+ED015DBE]
	in	eax,dx
	add	al,73
	add	eax,ECAE77F3
	shl	[ECEC4BC0],cl
	in	al,dx
	loopne	004013A1
	or	[728039D0],bl
	add	eax,C60497ED
	hlt	
	jbe	00401370
	xchg	eax,ebx
	cdq	
	wait	
	add	al,A7
	std	
	shr	byte ptr [ecx+01],ED
	in	eax,dx
	pushf	
	cli	
	jl	0040132D
	jpe	00401372
	sti	
	add	al,71
	sbb	eax,F5C409C4
	add	al,11
	push	ebx
	outsb	
	arpl	[ebx+ecx+EDF525F8],bx
	in	eax,dx
	mov	[ECEC85C0],eax
	in	al,dx
	xor	[eax+800E0883],ch
	jc	004013B2
	in	eax,dx
	xchg	eax,edi
	add	al,C6
	hlt	
	jbe	00401392
	in	al,dx
	xlat	
	std	
	shl	al,EA
	in	al,dx
	in	al,dx
	push	ebp
	iret	
	jmp	dword ptr [edi+5DD3EC17]
	or	al,77
	cmpsb	
	in	al,dx
	rcr	[ebp-14],cl
	shl	[EC5DD3EC],cl
	shl	[EDF594C0],cl
	in	eax,dx
	out	DF,al
	jpo	004013C1
	jge	004013B3
	test	eax,EDEDF9CA
	add	al,79
	and	eax,F80B7C63
	mov	al,F9
	in	eax,dx
	in	eax,dx
	in	al,dx
	xlat	
	std	
	or	al,79
	sbb	eax,C00DD7EC
	mov	bh,cl
	in	eax,dx
	in	eax,dx
	mov	fs,[eax]
	iret	
	add	al,64
	xchg	[esi+EDEDFF04],bh
	or	ebx,[ebx+eax*4-07]
	lock	
	jz	004013FE
	in	eax,dx
	in	eax,dx
	in	eax,dx
	ror	byte ptr [edx+ebp*8],EC
	in	al,dx
	pop	dword ptr [ebx+esi*2]
	adc	eax,049677F3
	add	dword ptr [ECAE87F3],D3
	or	eax,ECEC3DC0
	in	al,dx
	test	eax,B367B673
	push	ds
	sbb	dword ptr [ecx+05E7049B],4D2704B5
	in	eax,dx
	in	eax,dx
	in	eax,dx
	add	al,A3
	add	eax,04059304
	rol	[D54C14C4],cl
	xchg	eax,ecx
	cli	
	mov	eax,[F165C4A9]
	xchg	eax,edx
	xlat	
	test	dword ptr [edx],92117919
	jz	004014C1
	sub	byte ptr [edi-40],FC
	cmc	
	in	eax,dx
	in	eax,dx
	xlat	
	popf	
	and	ebp,esp
	xlat	
	push	ecx
	out	dx,ax
	hlt	
	jo	00401470
	mov	ecx,0BED5FF4
	clc	
	test	ebx,esi
	in	eax,dx
	in	eax,dx
	push	edi
	repne	
	loop	0040141A
	and	dword ptr [ebx+77],FD
	shl	ch,EC
	in	al,dx
	in	al,dx
	clc	
	loopne	004014FB
	pop	ebp
	outsb	
	fcomp	double ptr [esi]
	push	esp
	illegal	
	mov	esi,ECECEC6C
	or	esi,esp
	retf	
	imul	ebp
	in	eax,dx
	push	ebx
	cmp	byte ptr [esi+ECECEC52],0B
	hlt	
	jmp	004014A8
	in	eax,dx
	in	eax,dx
	push	ebx
	outsb	
	shr	byte ptr [eax],F5
	in	eax,dx
	in	eax,dx
	insb	
	dec	esi
	retf	37DF
	mov	dword ptr [edx+3D],ECCED7EC
	xlat	
	illegal	
	in	al,dx
	xlat	
	mov	dh,93
	mov	esi,EDEDEFDE
	add	[edi-4A],dh
	in	al,dx
	xlat	
	fsubp	st(4),st(0)
	xlat	
	mov	dh,93
	shl	byte ptr [edi+ebp*8],ED
	in	eax,dx
	pop	es
	illegal	
	push	686F7822
	insb	
	add	al,A7
	scasb	
	in	al,dx
	xlat	
	xchg	ah,ch
	xlat	
	mov	ss,[ebx+EDF354BE]
	in	eax,dx
	xchg	eax,ebx
	shr	ah,EF
	in	eax,dx
	in	eax,dx
	add	eax,EFF60BCA
	pop	eax
	sub	eax,F3059743
	mov	[2E240865],eax
	in	eax,dx
	in	eax,dx
	in	eax,dx
	add	al,23
	add	al,87
	std	
	add	esp,[eax+eax*8+EDEDF7E7]
	cdq	
	mov	ch,6C
	illegal	
	cmpsd	
	scasb	
	in	al,dx
	xlat	
	mov	ah,D7
	mov	dh,93
	mov	esi,ECECE6C0
	fdiv	double ptr [edi-1A]
	std	
	in	eax,dx
	in	eax,dx
	in	eax,dx
	illegal	
	and	al,C4
	cld	
	mov	eax,[B7A4A3B6]
	hlt	
	fdivrp	st(3),st(0)
	xlat	
	sti	
	rep	
	arpl	bx,bx
	out	FD,al
	out	dx,ax
	sbb	esi,esp
	jpe	00401544
	rcl	byte ptr [ebx+1AEDEDEF],2C
	lahf	
	fbld	tword ptr es:[ebp+BCF80BC3]
	stc	
	in	eax,dx
	in	eax,dx
	hlt	
	jz	0040157D
	hlt	
	jcxz	00401570
	in	eax,dx
	or	edi,eax
	in	eax,FD
	in	eax,dx
	in	eax,dx
	stosd	
	test	eax,4AC080A3
	out	EC,al
	in	al,dx
	rol	esp,01
	ret	B7CD
	mov	esi,EDEDF90C
	mov	ebp,5003CF13
	lea	edi,[esi+EDEDF9DE]
	in	al,dx
	mov	cs,[eax]
	ja	00401563
	lea	ecx,[eax]
	ja	0040156F
	lea	eax,eax
	shl	bh,01
	in	eax,dx
	in	eax,dx
	jmp	55BFE3D4
	add	al,7B
	xor	eax,0B9F72F3
	pop	esp
	add	eax,257B047D
	rep	
	jc	004015B9
	cmc	
	illegal	
	jc	0040157A
	mov	edi,A1C0EDED
	out	dx,ax
	in	eax,dx
	in	eax,dx
	rcl	byte ptr [ebx+BBEDEDEF],EC
	jl	004015C0
	inc	ecx
	jc	00401563
	inc	edx
	add	al,77
	std	
	rep	
	insd	
	add	al,97
	std	
	add	al,6D
	illegal	
	jc	004015E3
	fiadd	word ptr [F34DC02D+ecx*8]
	in	eax,dx
	in	eax,dx
	call	far 49F2:0E92
	mov	al,[05C430A4]
	in	al,dx
	xlat	
	mov	dh,8D
	in	al,dx
	xlat	
	xchg	eax,esi
	mov	esi,EDEDFB3A
	fdiv	double ptr [edi-1A]
	or	eax,0BEDEDED
	imul	byte ptr [ecx+ECEDEDF7]
	xlat	
	scasb	
	mov	esi,EDEDFB1D
	rcr	byte ptr [esi+87EDEDF7],03
	dec	edx
	mov	eax,[ED05725A]
	xchg	eax,edi
	add	al,C6
	cdq	
	wait	
	add	al,D7
	std	
	add	al,EA
	add	al,87
	add	eax,F40D9704
	jo	00401616
	ror	byte ptr [eax-13],ED
	in	eax,dx
	shl	dword ptr [ebx+5304E7F9],C4
	rep	
	add	al,D3
	or	eax,04FDD7F3
	jcxz	00401657
	rep	
	out	FD,al
	rcr	al,F7
	in	eax,dx
	in	eax,dx
	enter	D559,26
	repne	
	call	05B71735
	add	[edi-22],dh
	out	dx,al
	out	0D,al
	in	eax,dx
	or	esi,esi
	inc	edx
	in	al,EC
	in	al,dx
	or	ebx,[edx+77]
	or	eax,04E67700
	xlat	
	std	
	add	al,EA
	or	ebx,[edx-59]
	xadd	[esi-0B],ah
	in	eax,dx
	in	eax,dx
	ror	byte ptr [ecx+41EDEDF3],A8
	or	al,[ecx]
	mov	esi,ECECEC16
	fdiv	double ptr [edi-1A]
	cmc	
	in	eax,dx
	in	eax,dx
	in	eax,dx
	or	esi,esi
	lahf	
	in	al,dx
	in	al,dx
	in	al,dx
	lea	ebp,esp
	xlat	
	xchg	eax,esi
	mov	esi,EDEDF3BD
	sar	byte ptr [edi-14],EC
	in	al,dx
	popf	
	imul	eax,eax,F1C0F422
	add	eax,[eax+E46BF80B]
	in	al,dx
	in	al,dx
	rep	
	mov	[F5E3F4F5],eax
	std	
	or	edi,esp
	shl	bl,cl
	in	eax,dx
	in	eax,dx
	stosd	
	shl	byte ptr [eax-09],ED
	in	eax,dx
	or	esp,esp
	jbe	0040172F
	xchg	eax,edi
	add	al,C6
	hlt	
	jbe	004016B1
	xchg	eax,ebx
	cdq	
	wait	
	add	al,77
	add	eax,C0157743
	illegal	
	in	al,dx
	in	al,dx
	mov	cl,[ecx+EDC0C69C]
	out	dx,ax
	in	eax,dx
	in	eax,dx
	hlt	
	shl	bl,46
	pop	dword ptr [edx]
	sub	dh,D0
	adc	eax,eax
	leave	
	in	al,EC
	in	al,dx
	illegal	
	mov	ch,16
	mov	ebp,EBBEF584
	out	EC,al
	in	al,dx
	add	al,74
	rep	
	insd	
	in	al,dx
	int	55
	xchg	eax,ebx
	mov	esi,ECECE41F
	mov	[78EC6BC4],eax
	push	6E5358C5
	lahf	
	hlt	
	jpe	00401716
	outsd	
	arpl	[edi+ECF20BE6],bx
	out	dx,ax
	in	eax,dx
	in	eax,dx
	stosd	
	test	eax,EDF5A8C0
	in	eax,dx
	push	ss
	adc	al,56
	add	[edx-0B],esi
	in	eax,dx
	xchg	eax,edi
	add	al,C6
	hlt	
	jbe	00401715
	or	[edi-1A],dh
	lea	esi,eax
	out	05,al
	in	al,dx
	in	al,dx
	in	eax,dx
	in	eax,dx
	fist	dword ptr [edi-3C]
	aas	
	mov	[edx],eax
	jbe	0040178A
	outsb	
	jz	004017A9
	pusha	
	in	eax,dx
	or	eax,9704EDED
	sahf	
	add	al,77
	xchg	[eax+7AF4D604],al
	or	eax,ED6DEDBD
	in	eax,dx
	ror	byte ptr [ecx+edi*8+842EEDED],68
	adc	al,13
	dec	ecx
	jns	00401764
	xlat	
	add	eax,0AC0EDC1
	rep	
	in	eax,dx
	in	eax,dx
	shr	ebp,08
	ja	0040175C
	lea	ebp,esp
	xlat	
	add	eax,F3BDC08D
	in	eax,dx
	in	eax,dx
	xchg	eax,ebp
	iret	
	jcxz	004017CF
	jpe	00401789
	mov	[36D48204],al
	rep	
	xlat	
	out	F4,al
	ret	DC01
	mov	[36D48204],al
	shl	dl,F3
	in	eax,dx
	in	eax,dx
	add	al,87
	add	eax,EDF3D3C0
	in	eax,dx
	out	dx,ax
	xor	ch,[edx+91041A7B]
	add	eax,74F4A204
	add	eax,04059104
	adc	eax,eax
	cmpsb	
	in	al,EC
	in	al,dx
	add	al,81
	dec	ebp
	push	ebx
	outsb	
	rol	byte ptr [edx-1A],EC
	in	al,dx
	jo	00401845
	sti	
	shr	byte ptr [eax],E6
	in	al,dx
	in	al,dx
	out	dx,al
	inc	edx
	mov	ebp,087D6EF7
	jg	004017D3
	hlt	
	jo	004017CD
	hlt	
	loopne	004017D0
	or	edi,eax
	fsubr	st(0),st(2)
	in	al,dx
	in	al,dx
	add	al,77
	std	
	add	al,87
	add	eax,C00D9704
	jl	004017F0
	in	eax,dx
	in	eax,dx
	illegal	
	mov	edi,8013E5C3
	rcl	al,EF
	in	eax,dx
	in	eax,dx
	adc	[ebp+70],bh
	scasb	
	std	
	inc	esi
	mov	esi,ECECE699
	in	eax,dx
	out	ED,al
	in	eax,dx
	or	esi,esp
	movsb	
	out	dx,ax
	in	eax,dx
	in	eax,dx
	out	dx,al
	out	F7,al
	rol	byte ptr [esi+F8EDEDEF],C2
	mov	ebx,edx
	lodsb	
	fistp	dword ptr [edx-40]
	mov	edi,BEECECE6
	push	ebp
	out	EC,al
	in	al,dx
	inc	ebx
	test	bh,dl
	mov	[esi+ECECE63F],bh
	les	eax,[ecx+46]
	nop	
	mov	esi,ED66F60B
	in	eax,dx
	in	eax,dx
	les	edx,[esi-31]
	lodsd	
	xchg	eax,ebp
	sahf	
	sbb	al,8B
	add	al,EC
	xlat	
	or	eax,8D057708
	or	[edi-03],dh
	lea	eax,ecx
	in	al,dx
	shl	byte ptr [4EF6EDED+esi*8],F1
	mov	ebx,78049289
	push	esp
	out	dx,ax
	cdq	
	add	al,DC
	inc	ebx
	into	
	aam	36
	shr	byte ptr [esi+56ECECE4],B0
	sbb	[edi+1FB5FE05],ebp
	in	al,dx
	illegal	
	and	[edi+03],edi
	or	byte ptr [ebx],F8
	inc	ebp
	out	dx,ax
	in	eax,dx
	in	eax,dx
	mov	[E8F0C080],eax
	in	al,dx
	in	al,dx
	mov	esi,0E14BD3E
	cmp	al,13
	add	dword ptr [edi],AB42D4FD
	xor	byte ptr [edx-03],ED
	xchg	eax,edi
	add	al,C6
	xchg	eax,ebx
	ror	byte ptr [eax],E4
	in	al,dx
	in	al,dx
	xor	[esi],ah
	mov	al,A6
	in	al,dx
	shl	[EDF5BDBE],cl
	in	eax,dx
	mov	esi,ECECE20A
	mov	esi,ECECE25D
	add	[edi-52],dh
	mov	ch,04
	pop	es
	dec	ebp
	in	eax,dx
	in	eax,dx
	in	eax,dx
	rol	byte ptr [edx],F1
	in	eax,dx
	in	eax,dx
	retf	769B
	pop	ebp
	sahf	
	add	al,87
	or	eax,0405D704
	out	FD,al
	aam	36
	add	al,7C
	stosd	
	sar	byte ptr [ebx+E9EDEDF5],0C
	mov	cl,16
	cmpsd	
	jbe	004018AD
	out	dx,ax
	mov	esi,ECECE4B1
	adc	eax,[eax+ECE4A3BE]
	in	al,dx
	rcl	edx,01
	jz	0040194F
	in	eax,35
	cmp	eax,2535E500
	scasd	
	xor	byte ptr [edx-03],ED
	rep	
	rol	[E687001D+edi*2],cl
	add	al,A7
	add	eax,DEC08053
	call	C0D00618
	cmp	dh,cl
	in	eax,dx
	in	eax,dx
	bound	ebx,[ecx+AA58B43F]
	jo	004018DC
	cmc	
	xor	eax,C40B70AA
	jo	00401948
	jg	00401931
	lock	
	loopne	00401968
	mov	esi,F80BEF56
	int	03
	rep	
	in	eax,dx
	in	eax,dx
	popf	
	rcl	byte ptr [eax],F3
	in	eax,dx
	in	eax,dx
	inc	eax
	mov	bl,18
	call	BE5AF596
	rep	
	in	al,EC
	in	al,dx
	or	esi,esp
	scasb	
	jmp	far F154:ECEC
	outsd	
	dec	esi
	or	eax,ECE2D4BE
	in	al,dx
	adc	[esi-2D],ebp
	fmul	double ptr [ebx]
	clc	
	loop	00401962
	in	al,dx
	in	al,dx
	inc	edx
	rcl	byte ptr [eax-16],EC
	in	al,dx
	illegal	
	xlat	
	dec	ebp
	mov	ch,E2
	enter	F80B,24
	loop	00401978
	in	al,dx
	in	al,dx
	xlat	
	mov	esi,BE96D7EC
	push	E0
	in	al,dx
	in	al,dx
	add	al,87
	scasb	
	add	al,6F
	add	al,75
	out	dx,ax
	cmp	eax,770070F3
	xchg	al,al
	insd	
	in	al,EC
	in	al,dx
	jle	00401A0A
	and	[041A11A6],dh
	mov	byte ptr [ebx+04058704],A7
	std	
	rol	byte ptr [esi+04ECECEA],77
	or	eax,EDF54BC0
	in	eax,dx
	illegal	
	inc	esi
	fadd	dword ptr [edx+1FAABC90]
	hlt	
	out	05,al
	add	[ebx],ecx
	repne	
	nop	
	call	744506C9
	push	ebx
	xchg	eax,edx
	pusha	
	add	ebp,ebp
	in	eax,dx
	in	eax,dx
	fcom	st(0),st(0)
	rep	
	sahf	
	rep	
	mov	al,[ECE83AC0]
	in	al,dx
	out	1B,al
	push	es
	push	es
	sahf	
	inc	eax
	sar	ecx,cl
	hlt	
	fsubp	st(3),st(0)
	illegal	
	outsd	
	outsd	
	sbb	al,al
	ret	
	jmp	far 09BB:ECEC
	add	edi,[esi+C6049741]
	lodsd	
	add	al,D7
	add	eax,E6FDE704
	push	edx
	out	dx,al
	push	ebx
	movsb	
	shr	cl,E2
	in	al,dx
	in	al,dx
	mov	ecx,6BA08CD6
	xchg	[ebx+04C6770C],dh
	ja	004019DB
	rep	
	insd	
	add	al,7D
	lea	eax,[eax]
	xchg	[esi+D7EC6DC1],esp
	cmpsb	
	in	al,dx
	xlat	
	scasb	
	mov	esi,EDEDF141
	add	al,77
	scasb	
	shr	ah,ED
	in	eax,dx
	in	eax,dx
	test	eax,542377DD
	pop	edx
	inc	edx
	xchg	[ebp+AEADABFE],edi
	mov	esi,EDEDEF5C
	mov	ebp,D09E4970
	lea	edi,[esi+EDEDF12D]
	in	al,dx
	mov	es,[edi+esi*2]
	into	
	add	al,74
	out	EC,al
	in	al,dx
	sbb	ch,[edi-11]
	loop	00401AB4
	add	al,77
	mov	ah,F7
	shr	al,DC
	in	al,dx
	in	al,dx
	jge	00401AF4
	mov	esi,0BAE700B
	or	ebx,[ebp+edi*8-10]
	rol	byte ptr [edi+C0EDEDA1],BE
	fsubr	st(0),st(4)
	in	al,dx
	push	edx
	jnz	00401ADB
	dec	edi
	jl	00401ADE
	illegal	
	imul	byte ptr [ebx]
	out	EC,al
	in	al,dx
	arpl	[edi+19F60B05],bx
	out	EC,al
	in	al,dx
	rep	
	cmpsd	
	std	
	shl	ch,E6
	in	al,dx
	in	al,dx
	add	al,83
	cmc	
	hlt	
	sar	ch,04
	aam	C0
	inc	ebx
	fsubr	st(0),st(4)
	in	al,dx
	les	ebx,[esi+7084E234]
	dec	edi
	std	
	dec	edi
	or	eax,7280A9AB
	add	eax,EC53C0ED
	in	al,dx
	in	al,dx
	inc	esi
	dec	esi
	push	ebx
	aaa	
	sahf	
	or	al,79
	and	eax,590401C4
	arpl	dx,bx
	or	edi,eax
	add	eax,esp
	in	al,dx
	in	al,dx
	stosd	
	test	eax,DE08C0A3
	in	al,dx
	in	al,dx
	out	dx,ax
	enter	25A8,BF
	mov	ebp,AEADABFE
	mov	esi,EDEDEF11
	mov	ebp,CADC76A9
	lea	edi,[esi+EDEDEFE3]
	in	al,dx
	mov	gs,sp
	xlat	
	std	
	mov	ebp,AEADABFE
	mov	esi,EDEDEDDE
	shr	ah,F1
	in	eax,dx
	in	eax,dx
	adc	al,53
	cli	
	sbb	ecx,ecx
	cmpsb	
	aam	36
	sar	byte ptr [eax+04ECECDA],77
	out	3F,al
	ja	00401B12
	hlt	
	outsb	
	add	[edi],edi
	ja	00401B3F
	hlt	
	out	05,al
	in	eax,dx
	rol	byte ptr [edx+5FECECDA],91
	push	es
	mov	ch,65
	pop	edx
	or	[esi+edi*2],eax
	rep	
	insd	
	add	al,6D
	cmp	eax,770070F3
	mov	gs,sp
	xlat	
	mov	esi,ECDC72C0
	in	al,dx
	jz	00401B72
	or	al,9A
	cdq	
	xchg	[ebx+00],ebp
	outsd	
	std	
	in	al,dx
	xlat	
	cmpsb	
	in	al,dx
	xlat	
	scasb	
	mov	esi,EDEDEFC6
	add	al,A7
	xchg	eax,esi
	rep	
	mov	[95D3EC65],eax
	in	al,dx
	xlat	
	xchg	eax,esi
	in	al,dx
	xlat	
	scasb	
	rol	byte ptr [esi],DE
	in	al,dx
	in	al,dx
	dec	esp
	movsb	
	and	[ebp+78CC25D0],bl
	shr	ebp,C1
	in	eax,dx
	mov	ebp,AEADABFE
	mov	esi,EDEDEDD9
	mov	ebp,5335EC5A
	lea	edi,[esi+EDEDEDAC]
	in	al,dx
	mov	cs,[eax]
	ja	00401B84
	lea	eax,eax
	sub	al,EA
	in	al,dx
	in	al,dx
	push	esi
	mov	dh,8D
	ror	[eax],cl
	ja	00401BB8
	lea	eax,ecx
	in	al,dx
	mov	ebp,AEADABFE
	mov	esi,EDEDED85
	mov	ebp,71F193B9
	rcl	bh,DC
	in	al,dx
	in	al,dx
	int	03
	cmc	
	adc	al,2F
	add	al,09
	rep	
	adc	byte ptr [ebx+6E],C0
	adc	ch,bh
	in	eax,dx
	in	eax,dx
	jo	00401C51
	sti	
	push	ecx
	out	dx,ax
	sar	ah,EF
	in	eax,dx
	in	eax,dx
	mov	esi,FDA41F12
	in	al,dx
	xlat	
	cmpsb	
	in	al,dx
	xlat	
	scasb	
	mov	esi,ECECDCA3
	add	al,A7
	xchg	eax,esi
	rep	
	mov	[1DA30865],eax
	sar	byte ptr [esi-24],EC
	in	al,dx
	pop	eax
	sub	eax,A7E7BBC2
	mov	[EDFD7280],eax
	xchg	eax,edi
	add	al,C6
	xchg	eax,ebx
	mov	ch,04
	pop	ss
	dec	ebp
	in	eax,dx
	in	eax,dx
	in	eax,dx
	rcr	byte ptr [eax],E4
	in	al,dx
	in	al,dx
	adc	eax,689661A9
	or	eax,C604973D
	hlt	
	jbe	00401BB7
	xchg	eax,ebx
	shr	ebp,0B
	dec	edi
	add	al,7E
	lock	
	mov	al,EC
	in	eax,dx
	in	eax,dx
	in	eax,dx
	rcl	ah,ED
	in	eax,dx
	in	eax,dx
	xor	dword ptr [ecx+1D],D810C04C
	in	al,dx
	in	al,dx
	dec	eax
	inc	eax
	in	eax,dx
	in	eax,dx
	in	eax,dx
	out	dx,al
	or	esi,esi
	xlat	
	fsubr	st(0),st(4)
	in	al,dx
	push	edi
	in	eax,dx
	in	eax,dx
	in	eax,dx
	out	dx,al
	lea	ebp,esp
	xlat	
	out	C0,al
	lodsd	
	fsubr	st(0),st(4)
	in	al,dx
	xor	esi,esp
	push	ebp
	xor	byte ptr [edx-03],ED
	xchg	eax,edi
	add	al,C6
	hlt	
	jbe	00401C59
	or	[edi-1A],dh
	lea	eax,eax
	cmpsb	
	in	al,EC
	in	al,dx
	add	eax,56FDD9BE
	inc	edi
	test	eax,FD7280A3
	in	eax,dx
	xchg	eax,edi
	add	al,C6
	hlt	
	jbe	00401C74
	xchg	eax,ebx
	cdq	
	wait	
	shl	byte ptr [ecx-20],EC
	in	al,dx
	xor	bx,[edi+6FC220A6]
	add	al,C6
	in	al,dx
	xlat	
	std	
	shr	esp,BD
	illegal	
	lodsd	
	scasb	
	mov	esi,ECECECB9
	mov	ebp,98F643B4
	lea	edi,[esi+ECECEC8C]
	in	al,dx
	mov	es,ax
	loop	00401C98
	in	al,dx
	in	al,dx
	pop	edx
	in	eax,dx
	add	al,CE
	cmc	
	push	edi
	mov	esp,08EFC18E
	ja	00401CAC
	lea	ecx,[eax]
	ja	00401CA8
	lea	edi,[ebp+AEADABFE]
	shl	byte ptr [esi+ebx*8],EC
	in	al,dx
	lds	edx,[FBDFE112]
	wait	
	cmp	[ebp+edx+F35E9D35],ah
	in	eax,dx
	in	eax,dx
	in	eax,dx
	push	ebx
	xchg	eax,edx
	mov	ecx,06B9BE0A
	mov	esi,E0D17E90
	add	al,77
	fiadd	word ptr [eax]
	ja	00401C9E
	rcl	bl,E8
	in	al,dx
	in	al,dx
	inc	ebp
	mov	[CB6C67D0],eax
	add	bl,bl
	mov	ebp,AEADABFE
	mov	esi,ECECEAE8
	mov	ebp,D37A0566
	lea	edi,[esi+ECECECB9]
	in	al,dx
	mov	es,[edi+esi*2]
	out	80,al
	jc	00401D2F
	in	eax,dx
	xchg	eax,edi
	rol	ch,EC
	in	al,dx
	in	al,dx
	sub	byte ptr [C1613676],EF
	shl	bh,E6
	in	al,dx
	in	al,dx
	and	al,A0
	mov	fs,[ebp+esi*8+35F5A435]
	stosb	
	jo	00401CED
	cmc	
	xor	eax,C094C40B
	mov	dl,E4
	in	al,dx
	in	al,dx
	shr	dword ptr [esi],01
	out	A8,al
	sub	bl,[eax+70]
	pusha	
	test	eax,ED057280
	xchg	eax,edi
	add	al,C6
	wait	
	push	ebx
	outsb	
	add	al,87
	add	eax,ECE459C0
	in	al,dx
	jpo	00401D96
	inc	ebp
The method or operation is not implemented.


fn00401E8A()
	mov	bl,69
	xor	bh,ch
	lea	edx,[eax+000000F8]
	mov	esi,eax
	mov	esi,edx
	xor	edi,ecx
	sub	bh,cl
	or	bh,cl
	xor	bh,al
	jc	00402256

l00401EA6:
	jmp	00401EAC
00401EAB                                  49                        I   

l00401EAC:
	jnc	00402256

l00401EB2:
	xor	ah,cl
	illegal	
	cli	
	test	eax,E9243C89
	add	[eax],al
	add	[eax],al
	pop	edi
	add	eax,ecx
	mov	ebx,edi
	mov	edx,eax
	or	bl,al
	mov	edi,ecx
	neg	al
	jz	004025F7
	jnz	00401ED5
	jnz	004025F7
	int	CB
	mov	edx,6D3A6D5F

fn00401EE2()
	xor	edx,esi
	add	cl,ch
	or	edx,ecx
	mov	dh,49
	or	bh,dl
	neg	cl
	mov	esi,edx
	sub	bh,dl
	add	ebx,eax
	jle	00401FF0

l00401EFA:
	repne	
	jg	00401FF0
	in	eax,dx
	add	[ebp+B3F80B64],cl
	aas	
	add	bh,bl
	inc	esi
	add	ebx,edx
	or	bh,bl
	sub	edi,esi
	neg	bl
	xor	edi,ecx
	or	bl,cl
	jmp	00401F45
	jno	00401F75
	mov	ds,[eax-64]
	cmpsd	
	cmpsd	
	lea	esp,[esp+04]
	add	bh,cl
	add	esi,ecx
	xor	esi,ecx
	mov	eax,ecx
	or	bh,dh
	js	00402B62
	mov	ecx,ecx
	jns	00402B62
	pop	ss
	stosd	
	mov	ebx,3BBE407C
	or	bl,dl
	or	edi,ebx
	or	bl,ch
	xor	bl,bh
	or	eax,eax
	jnz	0040299F
	add	bl,ch
	xor	ebx,eax
	jbe	00402D44
	xchg	si,si
	ja	00402D44
	nop	
	movsd	
	in	eax,26
	mov	al,24
	mov	fs,dx

fn00401F70()
	neg	dl
	inc	esi
	add	eax,00000A69
	neg	dl
	sub	ch,dh
	mov	dl,cl
	call	00402B81
	push	ebp
	fstsw	word ptr [eax+2A495B96]

fn00401F8A()
	sub	bl,dh
	mov	esi,ebx
	xor	dl,ah
	xor	bl,bh
	inc	esi
	mov	dl,F9
	call	00402C83
	mov	[5A6688E7],eax
	add	al,8B

fn00401FA0()
	mov	ebx,edi
	inc	ebx

fn00401FA3()
	or	dh,ah

fn00401FA4()
	hlt	
	inc	ebx
	add	ebx,edx
	sub	bh,bl
	or	dl,ah
	inc	eax
	mov	edx,edi
	dec	edx
	jl	004022FD

fn00401FB6()
	push	ebx
	pop	ebx
	mov	bh,bh
	jge	004022FD

l00401FC0:
	mov	ch,24
	enter	0AA5,E2

fn00401FC5()
	or	ah,dl

fn00401FC7()
	add	ch,bh
	or	cl,ah
	add	ch,al
	xor	al,bh
	or	ch,bl
	dec	edi
	mov	ch,bh
	mov	cl,22
	sub	cl,al
	add	ecx,edx
	jbe	00402C02

fn00401FE0()
	jl	00401FE2

l00401FE2:
	xchg	edx,edx
	ja	00402C02

l00401FEA:
	jbe	00401FA3

fn00401FEC()
	mul	al
	inc	esi
	jz	0040203A

fn00401FF0()
	dec	ecx

fn00401FF1()
	add	bh,cl
	add	ecx,edi
	add	ch,dl
	or	ch,bh
	add	dl,dh
	xor	ecx,edi
	dec	edi
	pop	edi
	jmp	004020BE
00402004             98 09 A1 CD D8 C4 EA A6 8A FE 33 F9     ..........3.
00402010 03 F9 4E 8A DD 03 F1 02 DA 8A DA E9 6A 02 00 00 ..N.........j...
00402020 2A C0 B3 4F 7E 49 0D DC                         *..O~I..       

l00402028:
	mov	cl,dl
	add	ebx,ecx
	sub	ecx,eax
	add	edx,esi
	sub	ecx,esi
	add	edx,ebx
	or	ecx,esi
	call	0040273F

fn0040203A()
	add	al,dl
	dec	eax
	push	esp
	mov	bh,87
	call	far F6FC:32BD

fn00402042()
	xor	bh,ah
	neg	bh
	dec	ecx
	add	ecx,ebx
	neg	cl
	or	ebx,edi
	add	bl,dh
	jmp	00402CA0
00402054             07 C8 73 92 1B 36 09 2B 8D 64 24 04     ..s..6.+.d$.
00402060 0A CF 2B D3 B0 43 2B C2 03 F7 0B FE 4E 33 D1 2A ..+..C+.....N3.*
00402070 E3 E8 44 0B 00 00 17 DC 80 C3                   ..D.......     

fn0040207A()
	mov	[esp],ebx
	lea	edx,[edx]
	pop	ebx
	add	esi,ebx
	mov	edi,ebx

fn00402084()
	or	bl,cl
	xor	bh,al
	dec	edi
	add	esi,eax
	mov	ebx,esi
	js	004021B9

fn00402093()
	push	cx
	pop	cx
	xchg	edx,edx
	jns	004021B9

l0040209F:
	push	es
	jo	0040210A

l004020A2:
	xor	esi,[edi+33]

fn004020A4()
	xor	edx,eax
	xor	edi,esi
	sub	dh,dl
	dec	ebx
	or	cl,ah
	xor	edx,esi
	mov	dl,bl
	jmp	00402C5D
004020B6                   A1 F7 6D 62 EF 0E 30 30             ..mb..00 

fn004020BE()
	add	edx,edi
	sub	bl,cl
	sub	bl,al
	mov	ch,2C
	sub	ebx,edx
	xor	edx,esi
	sub	esi,edx
	xor	ecx,edi
	jz	00402C43

l004020D4:
	xchg	edi,edi
	jnz	00402C43

l004020DC:
	jg	004020FB

l004020DE:
	aas	
	test	dword ptr [edi+eax-18],F432C88B

fn004020E3()
	mov	ecx,eax
	xor	dh,ah
	add	ebx,edx
	neg	dh
	mov	dh,ah
	sub	bl,al
	neg	dh
	jmp	00402573
004020F6                   A9 91 D2 B3 16                      .....    

l004020FB:
	js	00402084

fn004020FC()
	xchg	[esp],edi

fn004020FD()
	cmp	al,24
	lea	di,[edi]
	pop	edi
	xor	bl,dh
	or	bh,dh
	xor	esi,eax
	xor	bl,ah

l0040210A:
	fdiv	double ptr [ebx]

fn0040210B()
	xor	esi,ebx

l0040210C:
	rep	
	or	ebx,ecx
	or	bh,cl
	call	00402D74
	illegal	
	movsd	
	sti	
	bound	edx,[edx+ecx+81D003D3]

fn0040211C()
	or	dl,bl
	add	edx,eax
	sub	ebx,9D7DB9E6
	xor	dh,bh
	add	dh,ah
	sub	edx,edi
	xor	dh,cl
	xor	dh,ch
	sub	edx,eax
	call	0040246D
	lea	eax,[ebp+0A961674]
	mov	bl,6D

fn0040213F()
	sub	bl,bh
	or	edx,ecx
	or	esi,ecx
	xor	bl,cl
	add	al,bl
	add	al,dl
	or	dl,bh
	js	00402999

l00402153:
	lea	cx,[ecx]
	jns	00402999

l0040215C:
	stosd	
	or	[edx+edx-79],bh

fn00402160()
	xchg	[esp],eax

fn00402161()
	add	al,24
	mov	di,di
	push	ecx
	pop	ecx
	pop	eax
	sub	edi,eax
	or	bh,dl
	mov	bh,dh
	add	bh,ah
	jmp	00401E8A
00402176                   9E 5D 4F E0 8F 44 24 CC 03 F9       .]O..D$...
00402180 03 F1 03 FB 32 E2 8B D1 0B F2 33 FB 8B CB E8 11 ....2.....3.....
00402190 07 00 00 71 83 37 DD B6 E7 BD                   ...q.7....     

fn0040219A()
	lea	esp,[esp+04]
	add	cl,ch
	add	ecx,ebx
	add	bh,dl
	mov	bl,ah
	add	cl,al
	mov	ebx,edi
	sub	bh,dl
	jmp	00402614
004021B1    EC D4 CB EA E0 56 F7 88                       .....V..      

fn004021B9()
	neg	bh
	mov	bl,bh
	mov	bl,dh
	add	ebx,ecx
	sub	bl,dl
	lea	eax,[eax+78]
	sub	ebx,eax
	sub	bl,ch
	mov	ebx,esi
	jmp	00402A05
004021D1    02 95 F7 86 F8 79 F8                          .....y.       

fn004021D8()
	or	eax,ecx
	add	dh,dl
	or	edx,esi
	push	00003000
	neg	ch
	neg	al
	mov	eax,ebx
	or	ebx,edx
	neg	dl
	jmp	00402718
004021F2       65 8D 01 9A 53 21 E1                        e...S!.      

l004021F9:
	mov	esi,edx
	sub	bl,bh
	mov	ebx,eax
	add	cl,bl
	xor	esi,edx
	mov	dl,AB
	dec	ecx
	jmp	0040222F
00402208                         E0 66 E4 66 51 DE 2A DA         .f.fQ.*.
00402210 2B F7 2B F8 2A D8 FF 70 10 02 D9 33 F7 0A FD 4F +.+.*..p...3...O
00402220 8B D8 E9 02 03 00 00 10 ED 3B 4C 89 3C AB 64    .........;L.<.d

l0040222F:
	sub	ebx,edi
	add	bl,bh
	mov	cl,ch
	mov	dl,dh
	mov	esi,ecx
	push	eax
	sub	esi,edi
	or	ch,ah
	xor	bh,cl
	jc	004027BC

l00402246:
	jmp	0040224C
0040224B                                  45                        E   

l0040224C:
	jnc	004027BC
	xlat	
	mov	ah,F9

l00402256:
	dec	ebx
	mov	esi,ecx
	xor	bl,al
	mov	bl,CF
	mov	bl,0C
	mov	bh,bl
	mov	bl,EA
	jmp	004024F1
00402268                         31 9C B2 DE D7 E5 A7 29         1......)

fn00402270()
	pop	dword ptr [esp-1C]
	xor	edx,edi
	sub	dl,bl
	sub	edx,eax
	neg	bh
	xor	dl,bh
	add	edi,ecx
	jmp	00401EE2
00402285                21 F2 C3 5F 59 33 D8 02 FD 4E 03      !.._Y3...N.
00402290 D1 32 FE 47 0B F1 0F 8C FE 02 00 00 F3 0F 8D F7 .2.G............
004022A0 02 00 00 C4 4E B0 E5 05                         ....N...       

fn004022A8()
	xchg	[esp],edx
	xchg	bx,bx
	pop	edx
	dec	edi
	mov	esi,eax
	inc	ebx
	sub	bl,dh
	sub	edi,edx
	or	bl,dl
	neg	bh
	call	00402160
	repne	
	cdq	
	rol	dword ptr [esi-67],01
	add	al,AD
	lds	esi,esi

fn004022C8()
	neg	ch
	neg	dh
	mov	ch,dh
	mov	ebx,esi
	sub	dl,cl
	sub	dh,al
	mov	ecx,esi
	add	bh,al
	inc	ecx
	call	004023DC
	cmp	al,D8
	illegal	
	add	eax,243C8991
	lea	bx,[ebx]
	pop	edi
	xor	ch,bh
	xor	bh,ch
	dec	esi
	mov	bh,B4
	call	0040294A
	mov	edi,B3667300
	lahf	

fn004022FD()
	mov	dh,ch
	dec	edx
	xor	ebx,edx
	dec	ebx
	xor	bh,dh
	xor	edx,esi
	dec	edx
	add	bl,ch
	sub	edx,edi
	call	004028AE
	out	91,al
	stosd	
	and	cl,[ebx-76]

fn00402315()
	dec	ebx
	mov	bl,dh

fn00402317()
	fiadd	word ptr [edx]
	fstenv	word ptr [edi+8BFA8AB5]
	stc	
	inc	edi
	sub	edi,eax
	jmp	00402CD4
00402328                         ED 53 90 DC B7 D9               .S.... 

l0040232E:
	sub	ebx,ecx
	sub	ebx,edi
	add	ah,dl
	add	ah,al
	xor	dh,al
	xor	esi,ebx
	add	dh,al
	jmp	00402D07
00402341    64 5B AC D1                                   d[..          

fn00402345()
	or	esi,ebx
	sub	ebx,edi
	mov	bl,41
	inc	ebx
	xor	bh,ch
	mov	bl,ch
	add	eax,08
	mov	bh,bl
	sub	bh,ah
	jbe	00402315

l00402359:
	jmp	0040235F
0040235E                                           0D                  .

l0040235F:
	mov	dx,dx
	ja	00402315

l00402364:
	test	al,C9
	jmp	684BFF42
0040236B                                  CB                        .   

fn0040236C()
	neg	ch
	sub	dl,ch
	sub	ecx,edx
	mov	ebx,edx
	call	eax
	mov	cl,al
	xor	edi,ecx
	add	edx,edi
	add	bl,dh
	dec	ecx
	jle	004024DC

l00402385:
	xchg	bx,bx
	jg	004024DC

l0040238E:
	arpl	[edi+ebp*8],bx
	test	[B5C80216],eax

fn00402394()
	add	cl,al
	mov	ch,17
	dec	ecx
	sub	ebx,ecx
	xor	bh,bl
	sub	bh,dl
	sub	ecx,edi
	mov	ch,dl
	xor	ebx,ecx
	jo	00402915

fn004023AB()
	mov	ax,ax
	jno	00402915

l004023B4:
	daa	
	cli	
	add	al,dh
	cmp	[edx+ebx*8-6B],bl

fn004023BC()
	sub	esi,edx
	xor	edi,esi
	add	al,bl
	or	ebx,edx
	xor	eax,ebx
	add	edx,ecx
	mov	ebx,eax
	mov	dh,AB
	or	edx,eax
	neg	dl
	jmp	004021D8
004023D5                74 9A 36 F5 F7 A0 9B                  t.6....   

fn004023DC()
	lea	esp,[esp+04]
	mov	edx,edi
	or	ebx,esi
	xor	cl,bl
	neg	dh
	or	edx,edi
	jo	0040292C

l004023F0:
	xchg	ch,ch
	jno	0040292C

l004023F8:
	and	[esi],dl
	jmp	far 8FFD:79C4
004023FF                                              96                .

fn00402400()
	sub	ebx,eax
	sub	ebx,esi
	mov	ebx,edi
	add	ebx,eax
	dec	ebx
	mov	bh,EE
	or	dh,bh
	mov	dl,D5
	jmp	00402B44
00402414             BF EA DE DA                             ....       

fn00402418()
	lea	esp,[esp+04]
	or	edx,esi
	neg	dh
	xor	dl,cl
	xor	dh,dl
	xor	dl,cl
	inc	edx
	mov	edx,edi
	sub	dh,cl
	mov	dl,F2
	jmp	0040211C
00402432       8F 54 14 5F A2 61 95 E4                     .T._.a..     

l0040243A:
	sub	bl,al
	or	esi,ebx
	xor	bl,bh
	mov	bl,bh
	or	bl,cl
	dec	esi
	add	eax,ecx
	mov	ebx,esi
	call	004020FC
	pusha	
	outsd	
	stc	
	sbb	[edx],edi
	pushf	

fn00402454()
	sub	edx,esi
	add	ecx,edi
	mov	[esp-08],eax
	mov	cl,4D
	add	edx,edi
	xor	dl,dh
	xor	esi,edi
	call	004029BC

fn00402469()
	inc	ebp
	rcr	byte ptr ds:[esi+0424648D],01

fn0040246D()
	lea	esp,[esp+04]

fn00402471()
	inc	edx
	inc	edx
	mov	dl,1B
	mov	dl,bl
	sub	dl,ch
	or	dl,ah
	call	00402AE2

fn00402480()
	cli	
	in	al,dx
	mov	esp,A9C4CA40

fn00402487()
	mov	[esp],ecx
	jmp	0040248F

fn0040248F()
	xchg	bl,bl
	pop	ecx
	or	bh,ch
	movzx	ebx,ah
	add	esi,edx
	xor	edi,ebx
	add	edi,edx
	mov	esi,edx
	add	edi,esi
	call	00402A96
	mov	al,64
	adc	ah,[edi]
	or	[edi],ch

fn004024AC()
	add	ebx,esi
	dec	ebx
	inc	ecx
	xor	ecx,edx
	or	ebx,ecx
	or	ecx,ebx
	jmp	00402812
004024BB                                  3D AD F3 C1 7E            =...~
004024C0 26                                              &              

fn004024C1()
	pop	dword ptr [esp-24]
	add	edx,ebx
	mov	ebx,eax
	mov	[eax],ch
	mov	edx,ebx
	xor	ebx,eax
	sub	bl,cl
	call	00402552
	insb	
	pop	eax
	cmp	edi,edx
	lodsd	
	std	

l004024DC:
	add	cl,ah
	neg	dl
	inc	esi
	dec	edi
	sub	esi,edi
	sub	esi,eax
	dec	ecx
	jmp	00402454
004024EC                                     EF 0C 6F AE             ..o.
004024F0 B8                                              .              

l004024F1:
	mov	bl,dh
	add	edi,esi
	mov	bl,ah
	push	dword ptr [edx+08]
	mov	bh,83
	mov	edi,edx
	sub	bl,ch
	call	0040207A
	xchg	eax,esi
	adc	eax,FE932B2A
	mov	ah,8F

fn0040250C()
	pop	dword ptr [esp-20]

fn0040250D()
	inc	esp
	and	al,E0
	add	ch,cl
	sub	ebx,esi
	neg	dh
	sub	cl,bl
	neg	dl
	add	ebx,edx
	jmp	004022C8
00402521    45 22 45 96 FC 35 ED 4C 2A FB B7 58 02 FE B3  E"E..5.L*..X...
00402530 70 03 F8 03 F2 8B F2 0A FD 0F 84 12 01 00 00 E9 p...............
00402540 01 00 00 00 3B 0F 85 06 01 00 00 EB 3E 0D 47 6F ....;.......>.Go
00402550 5C C5                                           \.             

fn00402552()
	lea	esp,[esp+04]
	or	edx,esi
	mov	ebx,eax
	mov	bl,ch
	add	ebx,edx
	add	bl,dh
	neg	dh
	sub	edx,ecx
	neg	dh
	call	00402B2A
	jmp	A688607A
00402570 E2 26 89                                        .&.            

fn00402573()
	mov	edx,esi
	dec	ecx
	xor	dh,bh
	mov	ebx,esi
	or	ecx,ebx
	or	ecx,ebx
	dec	edx
	sub	ch,ah

fn00402581()
	or	edx,eax
	xor	ebx,ecx
	jo	004026E6

l0040258B:
	repne	
	jno	004026E6
	popa	
	imul	ecx,[esi],B2
	das	
	mov	ah,D7
	inc	eax
	mov	cl,dl
	mov	ch,bl
	dec	edi
	mov	bl,al
	inc	ecx
	sub	ch,dh
	inc	ecx
	neg	bh
	xor	bh,cl
	mov	bl,dh
	jl	00402B0B
	lea	ecx,[ecx]
	jmp	004025B9
	mov	[edi],cs
	lea	ecx,[ebp+eax+00]
	add	[ebp+02],dl
	pop	esp
	sub	[edx],ecx

fn004025C3()
	or	bh,bl
	or	dh,al
	inc	edi
	xor	edx,eax
	xor	esi,edx
	inc	edi
	or	dh,cl
	call	00402C2B
	sahf	
	mov	dh,A9
	fist	word ptr [ebx+edi*8+6D]

fn004025DC()
	pop	dword ptr [esp-18]

fn004025E0()
	sub	edx,edi
	mov	al,bl
	sub	ebx,esi
	inc	edi
	sub	esi,edi
	mov	eax,edi
	jmp	00402A6C
004025F0 20 96 1A 8F 29 96 A9 2B D0 0B DF F6 DF 2A E1 03  ...)..+.....*..
00402600 F3 47 0F 8E 9A 05 00 00 7C 00 0F 8F 92 05 00 00 .G......|.......
00402610 81 71 10 E3                                     .q..           

fn00402614()
	mov	ebx,edi
	inc	ebx
	mov	ecx,esi
	sub	dl,86
	xor	bl,al
	xor	ecx,edx
	dec	ecx
	jo	00402CEC

l00402627:
	lea	ax,[eax]
	jno	00402CEC

l00402630:
	push	ss
	mov	ebp,7DB0AC46
	bound	ecx,[ebp+0A042464]

fn00402637()
	lea	esp,[esp+04]
	or	dh,bl
	or	dl,ch
	xor	edx,esi
	mov	dl,C1
	inc	edx
	call	00402418
	in	eax,dx
	pop	edi
	test	al,BD
	mov	ebp,F687F826
	illegal	
	clc	
	or	bl,dl
	pop	edx
	or	bh,dh
	sub	bh,cl
	sub	bl,dl
	jz	0040200C
	repne	
	jnz	0040200C
	out	dx,al
	xor	al,68
	sbb	eax,[edx-23]
	sub	eax,edi

fn00402673()
	sub	eax,edi
	xor	eax,ebx
	shl	ecx,0F
	mov	bl,A2
	neg	bl
	inc	esi
	or	bl,bh
	add	dl,bl
	jz	0040232E

l00402689:
	push	ecx
	pop	ecx
	jmp	00402691
00402690 E9                                              .              

l00402691:
	jnz	0040232E
	mov	ebp,54D73EF6
	mov	ecx,46F003B4

fn0040269E()
	add	esi,eax
	inc	esi
	or	ecx,edi
	mov	ebx,edi
	add	cl,dh
	xor	dh,ch
	sub	esi,edi
	add	ebx,edi
	jpe	00402028

l004026B3:
	jns	004026B5

l004026B5:
	xchg	cx,cx
	jpo	00402028

l004026BE:
	inc	ecx
	cmp	dl,dh
	xchg	eax,ebp
	add	edi,esi

fn004026C3()
	add	edi,esi
	mov	edi,ebx
	xor	edi,eax
	inc	eax
	or	ah,dh
	add	esi,eax
	or	ch,dh
	add	bl,dh
	or	al,dh
	call	004025E0
	call	004025DC
	illegal	
	retf	F21B
	cli	
	adc	eax,02FD8AE4

fn004026E6()
	mov	bh,ch
	add	ch,cl
	xor	bl,ch
	inc	edx
	sub	ecx,eax
	mov	edx,esi
	mov	ebx,esi
	add	dl,cl
	call	0040282C
	mov	al,48
	add	al,AE
	rcl	esi,F6

fn00402701()
	neg	bl

fn00402702()
	fild	dword ptr [ebx-0A]
	illegal	
	inc	esi
	xor	edi,edx
	inc	ebx
	add	bl,dh
	call	00402487
	scasd	
	pop	edx
	hlt	
	sub	ebx,[edx+F9034F0D]

fn00402718()
	dec	edi
	add	edi,ecx
	add	bl,ch
	mov	dl,51
	add	al,ah
	sub	edx,esi
	jmp	004026C3
00402725                F4 67 E3 F2 2B DA 33 F1 48 33 DE      .g..+.3.H3.
00402730 48 46 33 D6 03 DE E8 A7 04 00 00 54 E5 6A AC    HF3........T.j.

fn0040273F()
	xchg	[esp],eax
	lea	ecx,[ecx]
	pop	eax
	or	esi,ecx
	xor	dl,bl
	mov	ch,ah
	xor	cl,dl
	xor	edx,ecx
	jmp	00401F70
00402754             14 2B 7C 86 27                          .+|.'      

fn00402759()
	dec	ecx
	sub	ebx,edx
	or	bh,cl
	xor	ecx,edx
	dec	ebx
	inc	ecx
	sub	ebx,ecx
	inc	ebx
	dec	ebx
	or	ecx,eax
	jl	00402964

l0040276E:
	jns	00402770

l00402770:
	jge	00402964

l00402776:
	les	ebx,[esi+448F77FA]

fn0040277A()
	pop	dword ptr [esp-24]
	mov	edx,eax
	xor	esi,36B7F51F
	or	ebx,ecx
	xor	edx,ebx
	dec	ebx
	sub	cl,bl
	jmp	004020E3
00402792       F9 18 07 FB BB 1D 0A D9 2A FC 03 F9 43 8A   ........*...C.
004027A0 D8 03 FA 0F 80 7D 02 00 00 66 8B F6 66 8B DB 0F .....}...f..f...
004027B0 81 71 02 00 00 51 F8 73 F2 81 5F 28             .q...Q.s.._(   

l004027BC:
	xor	ebx,edx
	dec	ebx
	mov	edx,eax
	mov	bh,08
	mov	edx,edi
	mov	bh,FA
	sub	bl,dh
	sub	ecx,ebx
	sub	bl,ah
	sub	dl,cl
	call	00402A4B
	jpo	0040284A

l004027D6:
	cmp	[CA8BCB8B],edi
	xor	edi,ebx
	dec	ebx
	inc	edx
	mov	dl,al
	sub	dl,al
	jbe	004020A4
	xchg	di,di
	ja	004020A4
	or	ah,[ecx+edx*4]
	add	ah,[esi+edi*2]
	add	ecx,[ecx+5BF2241C]

fn004027FB()
	mov	[esp],ebx
	repne	
	pop	ebx
	sub	al,ch
	xor	edx,ebx
	neg	dh
	call	00401EB8
	sbb	al,28
	illegal	
	xchg	eax,esp
	mov	eax,[CF0A47C3]

l00402812:
	or	cl,bh
	add	bh,ah
	not	dl
	mov	ebx,edi
	neg	bl
	mov	cl,FD
	dec	ebx
	or	bl,bh
	call	0040219A
	push	ebp
	push	ds
	int	03
	mov	edx,648DF072

fn0040282C()
	lea	esp,[esp+04]

fn0040282E()
	and	al,04
	mov	dh,4E
	sub	dh,ch
	mov	cl,25
	mov	edx,ebx
	mov	dl,[edi]
	jc	00402759

fn00402840()
	xchg	ax,ax
	mov	bh,bh
	jnc	00402759

fn0040284A()
	call	dword ptr [esi-46]

fn0040284B()
	pop	esi
	mov	edx,F3C42211
	test	eax,FD2A4ACA
	add	dh,bh
	xor	dl,ah
	or	ebx,edi
	inc	edi
	xor	bl,ch
	mov	dl,cl
	mov	ebx,edi
	xor	esi,eax
	call	00402AB0
	test	eax,F7E132BC
	sub	bl,al
	neg	bl
	or	bh,dh
	neg	bh
	add	ebx,edx
	sub	ebx,ecx
	or	bh,ah
	or	ebx,esi
	sub	bh,al
	jmp	00402394
00402886                   2F 43 4A 7B F1 F3                   /CJ{..   

fn0040288C()
	mov	dh,bh
	sub	edx,ebx
	dec	ecx
	mov	dh,dl
	or	ch,bl
	sub	ebx,edx
	call	0040277A
	sub	ch,cl
	mov	ebp,DF9993F4
	lock	
	pop	dword ptr [esp-20]
	add	ah,bl
	sub	bh,cl
	sub	al,dh

fn004028AE()
	mov	[esp],edx
	jmp	004028B6

l004028B6:
	mov	edx,edx
	pop	edx
	xor	bl,ch
	or	bh,bl
	dec	esi
	jmp	00402400
004028C3          CD DB 7F 26 9A 8F 44 24 E4 33 DF 03 D8    ...&..D$.3...
004028D0 03 FB 35 C8 FE FF FF 03 DF 02 DE E9 B8 FE FF FF ..5.............
004028E0 FD 76 14 B7                                     .v..           

l004028E4:
	xor	edx,esi
	mov	bl,51
	or	bl,dh
	xor	ch,dh
	mov	dh,38
	sub	ecx,esi
	call	0040250C
	aam	C6
	test	eax,448F440F

fn004028FA()
	pop	dword ptr [esp-28]
	xor	edi,eax
	dec	edi
	inc	edi
	mov	edi,eax
	add	eax,edx
	mov	esi,edx
	mov	esi,ebx
	call	0040297D
	popa	
	bound	ebx,[edx+eax*2+4F]
	sahf	

fn00402915()
	mov	dl,9A
	add	ebx,esi
	or	bh,dh
	xor	edx,ebx
	sub	dl,dh
	mov	bh,al
	or	dh,bl
	call	004024C1
	add	eax,BE876F50

fn0040292C()
	mov	esi,36B7F9DD

l0040292D:
	illegal	
	mov	bh,36
	mov	dh,bl
	dec	ecx
	neg	bl
	dec	ebx
	mov	edx,esi
	xor	ecx,edx
	or	dl,ch
	mov	ecx,edx
	mov	cl,EC
	jmp	0040288C
00402946                   BD FA 20 79 8D 64 24 04 8A DC       .. y.d$...
00402950 F6 DB B3 74 2A FD 8B 02 B2 C0 E9 79 FE FF FF 83 ...t*......y....
00402960 3F 22 43 5C                                     ?"C\           

l00402964:
	add	bl,cl
	or	cl,bl
	mov	ch,dl
	neg	dl
	sub	ecx,edi
	mov	ebx,esi
	sub	ebx,edx
	xor	ecx,edx
	jmp	00402042
00402979                            75 31 5D AF                   u1].  

fn0040297D()
	xchg	[esp],eax
	repne	
	mov	esi,esi
	pop	eax
	or	esi,eax
	mov	esi,ecx
	sub	edi,ebx
	sub	esi,ebx
	dec	edi
	add	eax,ebx
	inc	esi
	jmp	00402ACC
	cmp	eax,32E5A8E2

l00402999:
	xor	al,bh
	mov	eax,ebx
	neg	ah
	dec	ecx
	mov	al,F8
	mov	dl,C0
	add	edi,eax
	mov	ah,dl
	jpe	00401F8A

l004029AE:
	mov	cl,cl
	mov	ah,ah
	jpo	00401F8A

l004029B8:
	add	eax,8FC6C0AC

fn004029BC()
	pop	dword ptr [esp-14]

fn004029BD()
	inc	esp
	and	al,EC
	mov	ch,4F
	add	ecx,edi
	inc	edi
	or	dh,bl
	mov	bl,ch
	or	edi,ebx
	call	00402270

fn004029D0()
	sbb	ecx,[ebp+0C7069BA]
	inc	edx

fn004029D7()
	xchg	[esp],ebx
	rep	
	push	bx
	pop	bx
	pop	ebx
	or	bh,dl
	ror	dl,19
	add	ebx,eax
	sub	ecx,edx
	jz	0040286F
	jmp	004029F5
	aam	8A
	ror	byte ptr [edi],85
	jc	004029F9
	illegal	
	sti	
	mov	ss,ax
	mov	ch,6B
	out	6C,al
	lodsb	

fn00402A05()
	xor	edi,ecx
	neg	bl
	dec	ebx
	sub	esi,ebx
	xor	edi,esi
	xor	edi,eax
	jo	00402345
	xchg	esi,esi
	jno	00402345
	retf	F8EE
	scasb	
	iret	
	sbb	[ebp+10],ebx
	or	bh,ah
	xor	edi,eax
	not	eax
	or	bh,ch
	neg	bl
	sub	esi,ebx
	xor	bh,dl
	sub	bh,dh
	or	bh,cl
	dec	edi
	jpe	00401F09
	xchg	bl,bl
	jpo	00401F09
	in	eax,A0
	mov	ebx,24648DC2

fn00402A4B()
	lea	esp,[esp+04]
	xor	ch,bl
	add	ebx,eax
	or	dh,dl
	sub	eax,00000A69
	xor	ebx,ecx
	or	ebx,edx
	add	dh,al
	inc	esi
	jmp	004028E4
00402A67                      E3 05 32 14 29                    ..2.)   

fn00402A6C()
	add	cl,ch
	or	ebx,edx
	mov	al,bh
	sub	ecx,edi
	xor	ch,bh
	or	al,bl
	sub	dl,ch
	add	ah,bh
	sub	ch,ah
	pop	ecx
	jpe	0040213F

l00402A85:
	push	ebx
	pop	ebx
	rep	
	jpo	0040213F
	jno	2897DB20
	in	al,dx
	out	8F,al

fn00402A96()
	pop	dword ptr [esp-2C]
	dec	esi
	shr	eax,10
	mov	edi,eax
	inc	edi
	add	esi,edi
	call	004028FA
	add	ecx,esp
	mov	al,41
	mov	[edx],es

fn00402AB0()
	lea	esp,[esp+04]
	movzx	edx,al
	xor	bl,ch
	xor	bl,al
	sub	bh,cl
	neg	bl
	sub	edi,edx
	jmp	00402701
00402AC6                   BD E4 A4 DF 68 BB 8A FB 33 D9       ....h...3.
00402AD0 2A DA 02 DC 47 47 32 DE E8 EB FD FF FF E0 1E D0 *...GG2.........
00402AE0 3F 4D                                           ?M             

fn00402AE2()
	pop	dword ptr [esp-30]
	xor	edx,esi
	neg	dl
	neg	dh
	dec	edx
	sub	dl,cl
	sub	edx,ebx
	sub	dh,bl
	cmp	ebx,6282461A
	jnz	00402581
	jmp	00402CBE
	adc	[ebx+B6DDA98E],eax
	push	edi
	mov	bl,ah
	sub	ebx,eax
	add	esi,edi
	add	edx,00000030
	neg	cl
	add	ch,dl
	xor	cl,dh
	call	004022E4
	add	esp,[ebp-08]
	loop	00402AD7
	repne	
	fiadd	word ptr [eax+0424648D]

fn00402B2A()
	lea	esp,[esp+04]
	inc	edx
	inc	edi
	or	dl,ah
	mov	dh,7A
	or	dl,al
	or	dl,dh
	jmp	00401FA0
00402B3D                                        BC 6F 08              .o.
00402B40 94 1F 94 3C                                     ...<           

l00402B44:
	sub	ebx,esi
	mov	bl,cl
	dec	edx
	add	edx,edi
	add	dh,cl
	mov	ebx,esi
	mov	edx,edi
	or	edx,ebx
	or	edx,ebx
	dec	edx
	call	00402637
	ret	
00402B5C                                     2B E5 D4 5E             +..^
00402B60 D3 76 F6 DF 0A FD 03 F9 02 FE 8A FB 32 DE 2A D9 .v..........2.*.
00402B70 8B F2 0B F3 F6 DB E9 AA 01 00 00 A4 E6 7B 18 B1 .............{..
00402B80 27                                              '              

fn00402B81()
	pop	dword ptr [esp-24]
	xor	ebx,edi
	xor	ebx,edx
	inc	ecx
	add	dl,dh
	add	ecx,edi
	jo	004021F9

l00402B94:
	rep	
	lea	ecx,[ecx]
	jno	004021F9
	jz	00402BEC
	and	esi,[ebp+34]
	or	al,dh
	neg	al
	xor	bl,ch
	pop	eax
	neg	dh
	sub	ebx,ecx
	mov	edx,ebx
	mov	edx,eax
	jmp	00402853
	nop	
	lodsb	
	adc	edx,[ecx]
	pop	dword ptr [esp-0C]
	sub	esi,edi
	dec	edx
	sub	ch,al
	sub	esi,ecx
	mov	eax,ecx
	or	ebx,edi
	inc	edx
	sub	ecx,esi
	jo	00402729
	push	edx
	pop	edx
	xchg	esi,esi
	jno	00402729
	inc	eax
	fxch	st(0),st(7)
	jno	00402C17
	or	al,8F
	inc	esp
	and	al,D8
	or	ecx,ebx
	or	cl,dl
	add	ecx,edi
	or	dh,bh
	mov	edi,ebx
	ret	
	xor	eax,ecx
	sub	bl,al
	call	00402D5B
	xchg	eax,ecx
	inc	ecx
	pop	es
	test	eax,97BD4210

fn00402C02()
	add	ecx,edi
	push	40
	mov	edx,esi
	add	edi,ecx
	mov	edi,edx
	add	edi,edx
	dec	esi
	mov	dh,3C
	jc	004023BC

l00402C17:
	jmp	00402C1C

l00402C1C:
	lea	esi,[esi]
	jnc	004023BC

l00402C24:
	leave	
	lodsd	
	xchg	eax,edi
	pop	esi
	illegal	
	and	esi,[esi+0424648D]

fn00402C2B()
	lea	esp,[esp+04]
	mov	bh,2C
	or	eax,esi
	xor	eax,edx
	xor	ebx,edi
	xor	al,bl
	jmp	00402673
00402C3E                                           99 17               ..
00402C40 60 B0 57                                        `.W            

fn00402C43()
	mov	bh,CF
	mov	ebx,edi
	mov	bl,E0
	xor	dl,bh
	xor	ebx,ecx
	xor	dl,al
	dec	ecx
	mov	edx,ecx
	jmp	0040269E
00402C57                      EA 35 D7 96 24 35                 .5..$5  

l00402C5D:
	push	00
	inc	edi
	xor	bh,bl
	mov	esi,edx
	xor	bl,bh
	inc	edi
	or	dh,bh
	mov	ebx,edi
	js	0040236C

l00402C71:
	rep	
	push	si
	pop	si
	jns	0040236C
	sub	[eax+eax*2],cl
	in	al,dx
	adc	[esi],al
	dec	edx

fn00402C83()
	pop	dword ptr [esp-10]
	shr	ecx,0F
	neg	dl
	mov	edi,ebx
	xor	edi,eax
	neg	bl
	neg	bl
	mov	bl,al
	jmp	004025C3
00402C9B                                  34 1F 46 B4 9D            4.F..

fn00402CA0()
	sub	cl,al
	mov	cl,ch
	sub	ecx,esi
	add	dl,66

fn00402CA7()
	ret	4B66
00402CAA                               02 DA 02 EE 2B CE           ....+.
00402CB0 0B DE E9 F5 F7 FF FF                            .......        
00402CB7                      03 91 C0 F3 71 71 B8 02 DD        ....qq...
00402CC0 8B FE 03 C8 32 CC 0A FB 03 D6 E8 8D F3 FF FF EF ....2...........
00402CD0 31 B8 02 62                                     1..b           

l00402CD4:
	mov	eax,[eax]
	add	bl,dl
	mov	esi,ecx
	or	bh,dh
	xor	ebx,edx
	mov	bh,D8
	mov	bh,ah
	jmp	0040243A
00402CE7                      44 36 14 2B 33                    D6.+3   

l00402CEC:
	or	ebx,eax
	or	cl,al
	neg	bl
	add	bh,bl
	sub	ebx,ecx
	sub	bh,dh
	mov	cl,9B
	sub	cl,al
	call	004029D7
	jpe	00402CA7

l00402D03:
	fisub	dword ptr [ebx+D02A844A]

fn00402D07()
	sub	dl,al
	sub	al,ah
	or	edx,edi
	add	dh,ch
	xor	esi,eax
	sub	edi,edx
	add	edi,ecx
	push	dword ptr [ecx]
	or	al,dh
	or	dl,ch
	call	004027FB
	test	[ebx+2B44BC90],dh
	stc	
	mov	edi,eax
	add	eax,[eax+3C]
	sub	esi,edi
	sub	esi,edi
	add	bh,al
	dec	ebx
	mov	bh,16
	or	ebx,edi
	sub	bh,dl
	call	004022A8

fn00402D3E()
	xchg	eax,edi
	push	esi
	pop	edx
	ja	00402DA8

fn00402D43()
	repne	
	dec	esi
	mov	bl,E5
	add	ebx,edi
	neg	bh
	add	bl,bh
	sub	ebx,eax
	dec	esi
	call	00401F21
	xchg	eax,edx
	outsb	
	inc	ecx
	ja	00402D07
	or	al,[edi+F686240C]
	jpe	00402D62
	pop	ecx
	mov	ch,al
	xor	dl,al
	xor	eax,ebx
	call	0040217A
	das	
	pop	eax
	lahf	
	push	ss
	xchg	[ebx],al

fn00402D74()
	xchg	[esp],ecx
	repne	
	pop	ecx
	neg	bl
	xor	bl,cl
	xor	ebx,ecx
	xor	bl,dl
	neg	bh
	neg	bl
	js	0040220E
	xchg	ch,ch
	jns	0040220E
	jno	00402DA4
	cmp	[eax+edx*2+00000000],al
	add	[eax],al
	add	[eax],al
	add	[eax],al
	add	[eax],al
	add	[eax],al
	add	[eax],al

fn00402DA8()
	add	[eax],al
	add	[eax],al
	add	[eax],al
	add	[eax],al
	add	[eax],al
	add	[eax],al
	add	[eax],al
	add	[eax],al
	add	[eax],al
	add	[eax],al
	add	[eax],al
	add	[eax],al
	add	[eax],al
	add	[eax],al
	add	[eax],al
	add	[eax],al
	add	[eax],al
	add	[eax],al
	add	[eax],al
	add	[eax],al
	add	[eax],al
	add	[eax],al
	add	[eax],al
	add	[eax],al
	add	[eax],al
	add	[eax],al
	add	[eax],al
	add	[eax],al
	add	[eax],al
	add	[eax],al
	add	[eax],al
	add	[eax],al
	add	[eax],al
	add	[eax],al
	add	[eax],al
	add	[eax],al
	add	[eax],al
	add	[eax],al
	add	[eax],al
	add	[eax],al
	add	[eax],al
	add	[eax],al
	add	[eax],al
	add	[eax],al
	add	[eax],al
	add	[eax],al
	add	[eax],al
	add	[eax],al
	add	[eax],al
	add	[eax],al
	add	[eax],al
	add	[eax],al
	add	[eax],al
	add	[eax],al
	add	[eax],al
	add	[eax],al
	add	[eax],al
	add	[eax],al
	add	[eax],al
	add	[eax],al
	add	[eax],al
	add	[eax],al
	add	[eax],al
	add	[eax],al
	add	[eax],al
	add	[eax],al
	add	[eax],al
	add	[eax],al
	add	[eax],al
	add	[eax],al
	add	[eax],al
	add	[eax],al
	add	[eax],al
	add	[eax],al
	add	[eax],al
	add	[eax],al
	add	[eax],al
	add	[eax],al
	add	[eax],al
	add	[eax],al
	add	[eax],al
	add	[eax],al
	add	[eax],al
	add	[eax],al
	add	[eax],al
	add	[eax],al
	add	[eax],al
	add	[eax],al
	add	[eax],al
	add	[eax],al
	add	[eax],al
	add	[eax],al
	add	[eax],al
	add	[eax],al
	add	[eax],al
	add	[eax],al
	add	[eax],al
	add	[eax],al
	add	[eax],al
	add	[eax],al
	add	[eax],al
	add	[eax],al
	add	[eax],al
	add	[eax],al
	add	[eax],al
	add	[eax],al
	add	[eax],al
	add	[eax],al
	add	[eax],al
	add	[eax],al
	add	[eax],al
	add	[eax],al
	add	[eax],al
	add	[eax],al
	add	[eax],al
	add	[eax],al
	add	[eax],al
	add	[eax],al
	add	[eax],al
	add	[eax],al
	add	[eax],al
	add	[eax],al
	add	[eax],al
	add	[eax],al
	add	[eax],al
	add	[eax],al
	add	[eax],al
	add	[eax],al
	add	[eax],al
	add	[eax],al
	add	[eax],al
	add	[eax],al
	add	[eax],al
	add	[eax],al
	add	[eax],al
	add	[eax],al
	add	[eax],al
	add	[eax],al
	add	[eax],al
	add	[eax],al
	add	[eax],al
	add	[eax],al
	add	[eax],al
	add	[eax],al
	add	[eax],al
	add	[eax],al
	add	[eax],al
	add	[eax],al
	add	[eax],al
	add	[eax],al
	add	[eax],al
	add	[eax],al
	add	[eax],al
	add	[eax],al
	add	[eax],al
	add	[eax],al
	add	[eax],al
	add	[eax],al
	add	[eax],al
	add	[eax],al
	add	[eax],al
	add	[eax],al
	add	[eax],al
	add	[eax],al
	add	[eax],al
	add	[eax],al
	add	[eax],al
	add	[eax],al
	add	[eax],al
	add	[eax],al
	add	[eax],al
	add	[eax],al
	add	[eax],al
	add	[eax],al
	add	[eax],al
	add	[eax],al
	add	[eax],al
	add	[eax],al
	add	[eax],al
	add	[eax],al
	add	[eax],al
	add	[eax],al
	add	[eax],al
	add	[eax],al
	add	[eax],al
	add	[eax],al
	add	[eax],al
	add	[eax],al
	add	[eax],al
	add	[eax],al
	add	[eax],al
	add	[eax],al
	add	[eax],al
	add	[eax],al
	add	[eax],al
	add	[eax],al
	add	[eax],al
	add	[eax],al
	add	[eax],al
	add	[eax],al
	add	[eax],al
	add	[eax],al
	add	[eax],al
	add	[eax],al
	add	[eax],al
	add	[eax],al
	add	[eax],al
	add	[eax],al
	add	[eax],al
	add	[eax],al
	add	[eax],al
	add	[eax],al
	add	[eax],al
	add	[eax],al
	add	[eax],al
	add	[eax],al
	add	[eax],al
	add	[eax],al
	add	[eax],al
	add	[eax],al
	add	[eax],al
	add	[eax],al
	add	[eax],al
	add	[eax],al
	add	[eax],al
	add	[eax],al
	add	[eax],al
	add	[eax],al
	add	[eax],al
	add	[eax],al
	add	[eax],al
	add	[eax],al
	add	[eax],al
	add	[eax],al
	add	[eax],al
	add	[eax],al
	add	[eax],al
	add	[eax],al
	add	[eax],al
	add	[eax],al
	add	[eax],al
	add	[eax],al
	add	[eax],al
	add	[eax],al
	add	[eax],al
	add	[eax],al
	add	[eax],al
	add	[eax],al
	add	[eax],al
	add	[eax],al
	add	[eax],al
	add	[eax],al
	add	[eax],al
	add	[eax],al
	add	[eax],al
	add	[eax],al
	add	[eax],al
	add	[eax],al
	add	[eax],al
	add	[eax],al
	add	[eax],al
	add	[eax],al
	add	[eax],al
	add	[eax],al
	add	[eax],al
	add	[eax],al
	add	[eax],al
	add	[eax],al
	add	[eax],al
	add	[eax],al
	add	[eax],al
	add	[eax],al
	add	[eax],al
	add	[eax],al
	add	[eax],al
	add	[eax],al
	add	[eax],al
	add	[eax],al
	add	[eax],al
	add	[eax],al
	add	[eax],al
	add	[eax],al
	add	[eax],al
	add	[eax],al
	add	[eax],al
	add	[eax],al
	add	[eax],al
	add	[eax],al
	add	[eax],al
	add	[eax],al
	add	[eax],al
	add	[eax],al
	add	[eax],al
	add	[eax],al
	add	[eax],al
	add	[eax],al
	add	[eax],al
	add	[eax],al
	add	[eax],al
	add	[eax],al
00403000 7F 00                                           ..             

l00403002:
	adc	ch,ah
	mov	eax,00648E5B

l00403009:
	jge	00403009

l0040300B:
	lock	
	pop	edi
	pop	ss
	cmpsb	
	or	eax,63F10088
	mov	ah,7E
	xchg	eax,ebp
	push	dword ptr [eax+34771E00]
	wait	
	inc	eax

l00403020:
	mov	eax,36ACB0FC
	pop	edx
	jcxz	00403020

l00403028:
	inc	eax
	ret	
0040302A                               FF 03 9B 53 99 7A           ...S.z
00403030 FB 00 56 40 39 00 44 C7 83 87 01 84 32 D1 7F FF ..V@9.D.....2...
00403040 67 D1 F6 00 D3 2E 44 5E 6F 3B E2 00 C3 72 2D 7F g.....D^o;...r-.
00403050 49 FF D4 1B 7F 89 DF 61 9C 0A 61 63 00 00 11 00 I......a..ac....
00403060 2C 9F C7 53 4A E4 3E E9 C7 9E 5E FF FF 3A 00 3A ,..SJ.>...^..:.:
00403070 B7 0C E0 B7 AD E0 60 21 E3 C6 0D BF 00 73 6C EE ......`!.....sl.
00403080 16 04 B8 0A 9D 3A E0 FF 72 16 E6 00 FF 0C 49 C1 .....:..r.....I.
00403090 B7 FD 00 93 0E 54 FF 13 18 00 5B 4B 24 40 56 01 .....T....[K$@V.
004030A0 4C C7 D8 EC 50 2C FF 38 0C 92 7F 77 0E 4A 4F F8 L...P,.8...w.JO.
004030B0 20 D6 31 96 93 00 54 83 00 14 29 41 F7 D2 34 4D  .1...T...)A..4M
004030C0 FF 6C B9 41 94 8B F4 BA D0 1E 65 97 8E DC 03 0C .l.A......e.....
004030D0 00 F8 F7 40 F0 38 59 00 32 7D 81 BB 00 51 76 4A ...@.8Y.2}...QvJ
004030E0 9C C1 8F FE 44 80 7C FE 35 F8 98 5F 7B FD 45 74 ....D.|.5.._{.Et
004030F0 96 69 09 1E 92 31 46 10 5F 9E 8E 09 51 5D FF 47 .i...1F._...Q].G
00403100 1A 05 00 BE EB 58 3B F2 53 5F 21 7A 08 5E 60 9B .....X;.S_!z.^`.
00403110 D8 59 C6 87 E2 02 44 04 06 A1 00 FF 48 E3 00 8C .Y....D.....H...
00403120 06 E1 F8 09 28 24 60 B3 69 FE EF 3C E8 17 6B FF ....($`.i..<..k.
00403130 E2 2E 39 04 C4 00 A6 47 68 02 F8 D6 4E A7 E1 FE ..9....Gh...N...
00403140 05 41 D0 E8 9C 6A AF 6C 6F C5 00 00 C5 40 3E 50 .A...j.lo....@>P
00403150 12 F1 C5 9D 38 9C 84 BF 31 BC 34 84 5C 9C 30 AE ....8...1.4.\.0.
00403160 6A B8 92 D3 26 8A 39 45 FC 00 7A A4 8B 7A 2C 00 j...&.9E..z..z,.
00403170 30 98 3C FF C8 60 44 00 14 0D 4F 81 19 48 F9 7B 0.<..`D...O..H.{
00403180 00 F8 36 00 CB 00 F5 40 94 01 E3 6C 87 22 50 8E ..6....@...l."P.
00403190 C8 00 FF 66 00 B9 3C 10 00 D3 BD A0 AB 2E B0 77 ...f..<........w
004031A0 A9 E0 40 4C 22 B9 00 6D 21 DF ED FF BD 63 37 8B ..@L"..m!....c7.
004031B0 30 E7 02 00 D1 F4 8D 01 52 E4 DD 41 F4 CA B1 20 0.......R..A... 
004031C0 8F 1D 00 92 88 E1 5D 24 34 EF C0 E7 FF 04 20 1C ......]$4..... .
004031D0 B8 B1 3F 8A D9 00 35 8E 03 31 58 83 0F E5 AF FB ..?...5..1X.....
004031E0 00 00 0B A7 00 84 42 E6 00 6D 22 00 0E 1B FF 0D ......B..m".....
004031F0 6D FF E4 B7 9B 8F 61 C9 00 95 05 5F 57 AA FF 8C m.....a...._W...
00403200 F3 B5 DA B9 CA B1 08 EE 06 C9 FE 3A 89 EB 00 09 ...........:....
00403210 98 7C 47 1D 2C C7 FB 58 5F 0D BA CE F8 00 19 30 .|G.,..X_......0
00403220 00 0C AF 44 F4 56 00 10 00 A6 E6 54 28 90 00 77 ...D.V.....T(..w
00403230 BD C3 58 96 00 9A FE E1 67 00 B3 FF 5F 90 8D 68 ..X.....g..._..h
00403240 31 83 E6 00 17 A3 E7 9F 00 FF B0 63 50 00 00 EF 1..........cP...
00403250 49 8A 9B C4 1B 00 14 61 0A 90 2E 00 80 68 13 28 I......a.....h.(
00403260 77 28 00 C1 6F DD E1 F0 43 B7 73 C4 61 12 61 64 w(..o...C.s.a.ad
00403270 01 61 9D 2D 01 00 FF FF EC DE 7B A9 FC DC 93 32 .a.-......{....2
00403280 27 07 00 05 DE 58 DE 0E D8 A4 00 0C 57 EB 04 00 '....X......W...
00403290 A5 18 00 E1 F4 00 E6 A0 B5 35 70 C4 FF 94 A4 B8 .........5p.....
004032A0 A7 40 77 15 5A D2 AB FF F9 DE FF 32 78 FF 05 A8 .@w.Z......2x...
004032B0 B1 AB 18 8D 23 00 96 FF 24 20 30 28 F3 F5 8B FF ....#...$ 0(....
004032C0 82 C0 FF 3F 1D EE BB 00 B1 34 A5 5C 07 00 86 D3 ...?.....4.\....
004032D0 00 78 80 A5 3E 3E 85 3E 3F AE 87 30 00 57 91 7A .x..>>.>?..0.W.z
004032E0 CE 39 4A 58 BD 17 C4 7B 00 20 79 74 6D 9D ED 8B .9JX...{. ytm...
004032F0 0A E2 C9 02 D5 00 34 2F 19 B2 17 A9 00 44 00 9B ......4/.....D..
00403300 79 01 45 86 00 E7 FC FD 03 27 00 91 DC 60 B4 C5 y.E......'...`..
00403310 6C 00 5E 20 54 B2 00 C7 E6 DE 41 C9 DB 2A EF EC l.^ T.....A..*..
00403320 1F 6A 8E D6 00 D1 15 D1 6E 2F 00 00 D2 00 35 2D .j......n/....5-
00403330 AC D2 B1 58 84 35 F4 9D A6 17 AE 00 CA 00 00 78 ...X.5.........x
00403340 6C 6C 00 DB 7D 62 A0 29 6D F2 FC EF 4A 21 33 F1 ll..}b.)m...J!3.
00403350 46 79 DC C8 5C EE 9D FF 20 EA 00 C4 4B 6B E1 00 Fy..\... ...Kk..
00403360 2B 76 42 F9 5D 62 01 4C 34 7E 02 0F 7B FB 26 C8 +vB.]b.L4~..{.&.
00403370 07 A3 BD 69 23 07 2A CA A8 00 00 7C 31 40 C3 F1 ...i#.*....|1@..
00403380 00 FF 00 2E E0 AB AC 00 79 68 F8 2C 5C 82 77 A7 ........yh.,\.w.
00403390 00 98 A3 00 1D 2C 7D FF FF FF C0 26 2C C3 00 89 .....,}....&,...
004033A0 99 00 09 E4 A4 69 A0 F0 EF E8 D2 45 88 D3 FB AA .....i.....E....
004033B0 C0 85 85 4C A4 11 8C 8C DF 99 4F CA 2E CA 93 D6 ...L......O.....
004033C0 00 00 F7 38 D3 17 0C 1C 72 01 52 9F BD 33 81 04 ...8....r.R..3..
004033D0 93 C7 FF F9 13 67 7F 00 C4 68 60 B9 6D E1 A8 C7 .....g...h`.m...
004033E0 81 21 68 DE C2 5C C6 68 7C 4D 81 1C 00 9C 89 DC .!h..\.h|M......
004033F0 00 DF 39 B2 C0 00 97 6A 0A 00 7B 1C ED 51 20 A7 ..9....j..{..Q .
00403400 66 E9 CC 10 F6 DE 5E 80 2E 00 33 BA E2 30 12 80 f.....^...3..0..
00403410 CA 0D 6F A8 55 AD FF C9 E5 D4 00 AD 1C B5 40 C5 ..o.U.........@.
00403420 FF 38 00 C6 10 48 DD 0A FF BD CB 55 A3 CB DD CF .8...H.....U....
00403430 EC 01 30 FF 31 80 23 00 00 04 E7 00 C0 8E 84 ED ..0.1.#.........
00403440 00 02 BA 6A 03 6F 49 07 40 35 FC DC 00 85 21 42 ...j.oI.@5....!B
00403450 FD 31 89 AB 16 34 0F 00 CB E0 5E 00 00 00 DC DA .1...4....^.....
00403460 18 32 76 53 42 52 A1 08 90 2E D7 E6 64 B2 F8 00 .2vSBR......d...
00403470 00 EE 00 CD 5E 01 42 44 EB B3 00 1C A7 2F 36 36 ....^.BD...../66
00403480 E9 F0 11 C0 6B 7E 52 6F F9 68 D6 61 98 00 C0 47 ....k~Ro.h.a...G
00403490 89 00 02 40 40 37 FA 78 52 FC E0 77 D8 E4 C5 00 ...@@7.xR..w....
004034A0 CF D5 2E 49 2F E8 20 45 A7 93 6E 6A 82 EF 95 34 ...I/. E..nj...4
004034B0 8E E7 EA 7B 66 FE 57 F3 61 07 B0 BD 59 9E CD F6 ...{f.W.a...Y...
004034C0 4F AC 30 0F DD BB 00 35 84 91 5E 87 61 74 00 60 O.0....5..^.at.`
004034D0 FF 26 0E DD 06 3C 76 FF 44 F1 B8 8D 17 F3 AB F3 .&...<v.D.......
004034E0 01 60 2C 1B D3 FF 4C 1F CA 7E 20 ED CF DC B5 A0 .`,...L..~ .....
004034F0 5F 0A CD E7 FA 00 A8 54 F8 E7 00 4C FB F7 CA 10 _......T...L....
00403500 00 64 7F 30 AB 57 B7 46 9F 70 B3 82 7E 00 00 79 .d.0.W.F.p..~..y
00403510 84 8C 76 47 22 14 43 AF EC 2C F0 B8 00 1F 89 3D ..vG".C..,.....=
00403520 CF FF 44 3D F4 AD 4B 67 E4 DB DF 00 1A 22 00 00 ..D=..Kg....."..
00403530 49 C5 8E 00 00 20 A3 8F 90 98 6F AE C9 30 C7 76 I.... ....o..0.v
00403540 E7 C2 5C 00 0C FF 77 DB B0 75 0E D3 68 FF 22 24 ..\...w..u..h."$
00403550 00 3C 56 ED A4 F7 41 C7 FE 73 00 04 AA 4D 4F 43 .<V...A..s...MOC
00403560 F7 5A FA 84 A4 37 A3 84 00 00 4D 70 33 A6 50 E0 .Z...7....Mp3.P.
00403570 C3 85 FF E7 0C 00 A4 02 3A 02 FA B2 00 70 3B 18 ........:....p;.
00403580 00 87 00 79 25 BE BB F9 03 00 06 1E 28 0C 13 0F ...y%.......(...
00403590 C0 FF 10 A9 DF DC 31 BF 17 3C 3B 1A 40 BF B0 10 ......1..<;.@...
004035A0 5D 00 00 02 70 CC DA 70 2B 86 81 00 1F 91 01 B3 ]...p..p+.......
004035B0 CE A6 FA 00 0B 39 71 A0 07 C0 E9 00 48 10 96 14 .....9q.....H...
004035C0 FC C2 ED DE 31 00 9F 02 E1 2B 8C 2F 7B E0 D6 C1 ....1....+./{...
004035D0 06 49 A1 6F 52 1D 21 C3 1A 9A 47 86 55 1B 98 FF .I.oR.!...G.U...
004035E0 C5 D4 00 B2 17 F0 B7 19 85 AC 00 C9 83 D1 14 07 ................
004035F0 70 11 C3 15 23 04 7E 86 FF DD EC C0 41 20 FF F4 p...#.~.....A ..
00403600 E5 46 0A 40 9F 00 6F 3E 00 9F 69 20 C5 F4 12 47 .F.@..o>..i ...G
00403610 89 00 00 2B D1 91 00 32 22 F1 7F FF B6 00 0B 54 ...+...2"......T
00403620 82 91 F5 A3 CC 71 A9 E1 FB 00 D9 47 00 00 FF F7 .....q.....G....
00403630 98 7D EE 82 31 7D 7C 04 82 85 E4 29 40 82 5E 4F .}..1}|....)@.^O
00403640 4C 52 C2 48 65 FE 55 E8 1A 05 23 67 28 D1 19 07 LR.He.U...#g(...
00403650 15 19 0E C1 93 42 C1 88 EC B7 D1 00 83 BD 11 A6 .....B..........
00403660 C1 47 EA 32 0F 32 34 9D B4 C2 C1 4C A4 89 3B 4C .G.2.24....L..;L
00403670 68 98 32 6C 00 79 FF A6 00 AA C6 4F 68 09 37 39 h.2l.y.....Oh.79
00403680 7F F1 A0 DF D1 00 C7 30 FB A8 08 E7 F0 04 21 DE .......0......!.
00403690 65 48 00 CF E7 83 31 0A 00 01 B8 CB 00 07 E8 D4 eH....1.........
004036A0 34 F0 FF 11 27 39 BF 2A 04 71 C6 D3 E0 A1 96 5A 4...'9.*.q.....Z
004036B0 EE 00 43 29 FF 05 00 73 70 00 9B 0A 4F 23 47 B1 ..C)...sp...O#G.
004036C0 BE 1C C4 D5 CE 00 8B DF 12 99 27 42 C2 39 38 76 ..........'B.98v
004036D0 EB 3C 67 E5 D7 C1 39 B6 5E 3E 7B B5 6F FA 94 F1 .<g...9.^>{.o...
004036E0 EF 39 8F A2 F5 9A 70 54 69 7A 25 6C B7 3D FC 27 .9....pTiz%l.=.'
004036F0 C4 C0 A1 E4 F6 CD B4 FF 2F 41 01 F6 FF 7C 87 D3 ......../A...|..
00403700 0E 1C 6F 09 98 A1 C9 3B 00 00 50 00 00 1F 19 63 ..o....;..P....c
00403710 00 B1 C9 1D F8 13 B6 18 76 7B 00 73 1B 97 07 D0 ........v{.s....
00403720 10 C4 4B 00 00 EB 46 A0 E4 AA 20 83 0F 3F EC 70 ..K...F... ..?.p
00403730 C8 C0 3B F6 44 63 45 83 4A 56 2B DA 57 D0 C2 00 ..;.DcE.JV+.W...
00403740 00 56 FF 8B 00 11 E2 00 17 97 24 40 00 C4 AE 7C .V........$@...|
00403750 F4 37 00 CC A4 9E 03 69 11 1F 91 37 96 93 65 00 .7.....i...7..e.
00403760 EB 00 08 04 3B C8 93 D4 03 37 04 D8 AC E4 00 28 ....;....7.....(
00403770 4C 1D 1C B4 C0 34 6E B7 10 5D FF 1E 58 00 00 8E L....4n..]..X...
00403780 3C C4 18 01 00 D5 19 CC E2 73 BC AD 52 F6 EC CA <........s..R...
00403790 B9 81 B8 92 52 2F 04 06 46 0A 1A FF 98 00 5B 9F ....R/..F.....[.
004037A0 6C 1A 2D 0D 50 0D FF 4B E7 85 EE EB 31 B1 0C 01 l.-.P..K....1...
004037B0 9B 00 F9 D7 00 B8 FF A9 82 80 FF 81 FA DE 3B 5A ..............;Z
004037C0 B3 B0 FF 48 FF 00 00 9D 67 A4 7D 74 04 F1 D3 EB ...H....g.}t....
004037D0 5E 00 B6 F3 04 98 80 87 00 E6 56 AE 00 FF D6 AB ^.........V.....
004037E0 24 81 B9 AF 43 00 40 08 64 50 8A 14 99 D7 0E 28 $...C.@.dP.....(
004037F0 1A 60 07 00 A4 60 0F B0 F3 00 CF F4 49 C9 1F 4D .`...`......I..M
00403800 FF 4F D6 06 9D 00 F7 C5 6B 9F 7E FD 07 10 0A 34 .O......k.~....4
00403810 00 7C B4 00 E0 30 FF 00 40 C9 03 E0 50 74 33 F8 .|...0..@...Pt3.
00403820 17 00 D3 06 2E 00 6C F1 43 F2 67 B6 48 00 0E B9 ......l.C.g.H...
00403830 00 FA 33 B8 05 12 40 6E 6C 3C 62 3C EC 00 ED BC ..3...@nl<b<....
00403840 66 D2 EC C5 66 A0 B3 0E 28 C3 40 E3 82 CA 7F FF f...f...(.@.....
00403850 E3 B3 C7 FF 64 09 10 5B 93 4D 00 9E 05 3D 04 A7 ....d..[.M...=..
00403860 00 00 FB 45 10 18 1F 60 EF 83 21 00 4B 29 A1 DB ...E...`..!.K)..
00403870 BB 00 76 00 26 6A 3B FF FF C3 00 02 11 AB 00 E2 ..v.&j;.........
00403880 E3 00 FF C9 89 88 FB 8D 23 32 EA 86 AB FF 43 6A ........#2....Cj
00403890 0C D1 02 58 8D 35 9E 34 BA 05 06 00 7F 00 0F 1B ...X.5.4........
004038A0 FE AC 00 6E B0 5A E8 3D 84 15 DF DF 36 AD B7 20 ...n.Z.=....6.. 
004038B0 FF 09 9C 00 EA 6F 3F AD 00 AD C1 00 58 0F FF D1 .....o?.....X...
004038C0 4C 42 00 CB A1 1E 10 96 0A 00 C1 8C E7 2F 7F 05 LB.........../..
004038D0 68 F4 AB 39 00 64 06 70 87 A2 02 08 B9 3F 85 3F h..9.d.p.....?.?
004038E0 3B 05 98 2A C9 94 30 D5 AB 04 04 DE F2 E4 0C 24 ;..*..0........$
004038F0 29 84 00 E4 63 A5 41 97 35 C7 AF 48 00 53 00 6A )...c.A.5..H.S.j
00403900 F2 6E 3E 60 76 66 35 E3 EB 85 36 23 00 F8 00 07 .n>`vf5...6#....
00403910 8A CA 24 FF A7 39 5C 35 00 72 39 92 33 44 CE 1C ..$..9\5.r9.3D..
00403920 FB 00 36 0C E3 70 F3 F0 00 00 4B E6 FC A4 60 AB ..6..p....K...`.
00403930 9C 2E 10 36 38 38 0C 0D B6 A1 00 C4 59 08 03 7A ...688......Y..z
00403940 4F 74 F6 FF CE 19 8C FB AA FE 72 20 00 00 00 95 Ot........r ....
00403950 FF 85 E5 4C A0 A9 D8 E0 D2 FF 00 3D 09 7F 26 D9 ...L.......=..&.
00403960 08 A6 F6 A3 99 17 86 75 FC F6 E8 47 49 83 00 1D .......u...GI...
00403970 00 2E 87 06 1A 8B 47 9C 1C 04 B8 3D 7F 42 F1 DF ......G....=.B..
00403980 F9 14 DA BE EB 00 27 06 38 44 37 40 5A D3 7F 05 ......'.8D7@Z...
00403990 A3 AE 44 00 7D 19 3F F0 07 58 F5 FF 00 D6 53 2C ..D.}.?..X....S,
004039A0 00 A6 96 FF 30 91 00 6A FF FD 81 44 26 1F 5A 07 ....0..j...D&.Z.
004039B0 71 8F 14 90 CB 7C 9A 68 FF 11 BB 8E CA 7A 00 0D q....|.h.....z..
004039C0 40 4A E8 02 9A 7A 30 91 39 70 CA 88 0C DE FB DA @J...z0.9p......
004039D0 81 FA 2E C7 26 68 00 57 EF 72 8F 0B 00 27 07 E5 ....&h.W.r...'..
004039E0 C0 8D FF 9E 00 EC 09 18 8B CF 86 61 2B 9D FF 4A ...........a+..J
004039F0 06 E7 E5 C6 79 0E FF 20 91 23 04 94 0C F7 FD 55 ....y.. .#.....U
00403A00 B8 FF F6 00 DF 75 7F 2C 76 38 FE E9 1E 24 E2 C3 .....u.,v8...$..
00403A10 06 6E FF 7D 53 DF 7E 26 91 4B D8 0B 7E 00 5B 8E .n.}S.~&.K..~.[.
00403A20 41 78 BD 10 68 00 4F 78 B0 CD 80 1A 03 00 B0 82 Ax..h.Ox........
00403A30 B6 FF 57 10 F3 92 7B E7 00 75 BD 92 D0 70 1F 7B ..W...{..u...p.{
00403A40 00 50 60 E8 43 80 18 C9 5C 63 43 DD EE D8 78 1E .P`.C...\cC...x.
00403A50 0B 03 66 0C 00 00 55 E3 BC 65 FF C3 FF 78 82 A0 ..f...U..e...x..
00403A60 9C 0D 00 7C 8D 00 0F EF 7E 3A 73 D8 A0 56 63 21 ...|....~:s..Vc!
00403A70 F5 E9 B5 CE CB 18 AC DC 4B 45 00 27 AC 17 15 00 ........KE.'....
00403A80 29 E4 00 E8 D1 00 00 FF F0 59 D0 4E 9F 47 1C 00 )........Y.N.G..
00403A90 3B 02 6F 00 18 FC FF 9E B3 95 39 8B 15 58 64 E3 ;.o.......9..Xd.
00403AA0 18 68 00 18 2E 7C 99 C8 C6 0E EE BA E8 88 CE AE .h...|..........
00403AB0 FE 17 00 FF 7E 1D 68 83 48 B2 37 B5 00 00 09 C0 ....~.h.H.7.....
00403AC0 17 02 5C 00 C7 00 2C 7F 8E B0 B1 37 18 07 94 08 ..\...,....7....
00403AD0 84 00 E2 AE 04 C6 39 80 15 C0 B7 DC 3C A3 56 21 ......9.....<.V!
00403AE0 39 00 8D EB 85 A3 17 CE 00 2D 2B 7F 00 00 ED 63 9........-+....c
00403AF0 5C 39 18 A9 05 1E 81 00 DA 2E 00 10 7B 46 58 99 \9..........{FX.
00403B00 EB 90 00 45 04 C2 97 4B BA B3 6B 7E F9 5E 4E 7D ...E...K..k~.^N}
00403B10 78 44 4A 84 14 22 B8 32 43 FF 41 5A 00 F1 20 3D xDJ..".2C.AZ.. =
00403B20 52 FF 5D A6 5E 1F 53 47 93 DB 2E 04 23 00 C8 0F R.].^.SG....#...
00403B30 58 C8 30 42 0E 0A 17 23 E5 A0 6C 27 AC A2 EF 64 X.0B...#..l'...d
00403B40 A3 EE E6 00 D1 D0 21 1F 12 FE D8 14 6A F8 94 AF ......!.....j...
00403B50 FF 99 39 34 AC E7 F5 72 46 84 4E 84 C8 25 03 54 ..94...rF.N..%.T
00403B60 22 78 97 75 A3 29 05 37 61 00 A3 00 8A A3 45 B0 "x.u.).7a.....E.
00403B70 00 7F 06 B0 79 C7 0B 18 3E 08 26 00 F5 85 62 1B ....y...>.&...b.
00403B80 00 00 13 B7 C1 A5 74 76 D7 BA CD FC A5 F9 0E A2 ......tv........
00403B90 6F 74 0B 91 15 02 74 FD 40 00 53 73 39 00 A5 DC ot....t.@.Ss9...
00403BA0 AE 04 8E 8F 19 10 0D EF 00 0B 00 61 D2 BB D8 49 ...........a...I
00403BB0 75 92 74 AE 00 83 37 D4 37 23 C2 00 2B 51 38 37 u.t...7.7#..+Q87
00403BC0 00 00 2F C4 A1 05 61 B3 FC 07 3C 38 B7 00 27 44 ../...a...<8..'D
00403BD0 EA D0 A3 50 07 00 82 E4 E7 A4 08 0A 00 78 2D 71 ...P.........x-q
00403BE0 15 DE 2A 58 17 1E 00 5B 2A 3F DE E3 03 87 03 00 ..*X...[*?......
00403BF0 0B 85 BB 40 72 D0 16 CD 63 81 DD 32 5A FD E3 C7 ...@r...c..2Z...
00403C00 FF A9 68 14 F8 77 6F 41 CF 94 B9 E3 93 56 C1 68 ..h..woA.....V.h
00403C10 89 DF 00 39 6E 36 DE FB 22 0C 86 F7 BE DC 56 9E ...9n6..".....V.
00403C20 ED B4 92 87 BD 16 7D B3 B7 52 B8 A5 D5 01 C6 00 ......}..R......
00403C30 FF FF 00 E4 65 49 42 4A CD 02 66 72 C1 5B 01 CF ....eIBJ..fr.[..
00403C40 23 00 1E 84 C1 2B F7 DF B5 89 A5 00 36 00 BF 1B #....+......6...
00403C50 79 CF FB 11 FB E3 81 7E 64 9C C6 76 DB 92 3D 1C y......~d..v..=.
00403C60 73 5B 11 4C 23 5D E0 24 FF 00 BD E8 9D 00 47 00 s[.L#].$......G.
00403C70 FE 7E E0 FF 45 78 6B 7C 4D 4A DF 6B 30 FF 00 04 .~..Exk|MJ.k0...
00403C80 83 78 9E 98 45 BA 5D 00 F7 54 21 45 78 46 00 FD .x..E.]..T!ExF..
00403C90 98 22 E7 CC F8 06 FF 1A 00 FE DB 51 00 9F 54 5E .".........Q..T^
00403CA0 80 85 E6 DB 3C DD 51 80 19 91 9D 4C 49 FB B0 F0 ....<.Q....LI...
00403CB0 C3 79 5C 59 30 00 00 1E 71 8A 16 60 71 90 8F 0C .y\Y0...q..`q...
00403CC0 B3 1A 6A C7 46 1B AB EF 6F 78 00 BF E1 3E 69 8D ..j.F...ox...>i.
00403CD0 00 00 52 F5 20 35 A6 AE 00 5E 33 68 EF F8 66 1B ..R. 5...^3h..f.
00403CE0 4C B1 F0 AC 26 C1 64 0D 3B 49 36 00 22 50 FF 0E L...&.d.;I6."P..
00403CF0 E7 00 C9 BE D5 B1 43 63 20 51 00 12 F4 3F CC FF ......Cc Q...?..
00403D00 89 4C 00 53 FC 11 CB 35 3D DB 51 40 27 15 99 00 .L.S...5=.Q@'...
00403D10 F0 26 B3 6E DB 37 F4 C9 00 09 02 33 43 51 99 78 .&.n.7.....3CQ.x
00403D20 8B 00 EE B1 8D 65 2C 0F EB 37 FF 25 FF 00 34 67 .....e,..7.%..4g
00403D30 FF BF 51 00 00 00 E0 9D 79 1B 0F AF 00 FF 00 0C ..Q.....y.......
00403D40 00 18 5A 54 6B C7 4B 00 D2 00 16 9C 00 B0 AA 87 ..ZTk.K.........
00403D50 00 54 C1 52 02 37 C8 7F 50 F8 53 5A 7A 50 00 A8 .T.R.7..P.SZzP..
00403D60 00 60 A1 F0 42 A1 EF 7F D8 98 64 30 22 12 FA 89 .`..B.....d0"...
00403D70 09 00 E3 23 D9 87 CF ED 13 60 1A AC 7D C8 FC 47 ...#.....`..}..G
00403D80 00 C1 B9 68 1C E6 91 FF 11 BF FF 11 50 A4 F2 DE ...h........P...
00403D90 98 6A 28 4C D1 6E 6F 06 01 77 08 FF C3 C8 FA 60 .j(L.no..w.....`
00403DA0 21 00 F4 52 9E B5 7C 31 D7 6E 39 00 B1 61 DA 83 !..R..|1.n9..a..
00403DB0 C0 5C E4 1B 95 90 24 2F 00 E4 7C 07 24 4F 19 5A .\....$/..|.$O.Z
00403DC0 52 EB FF F1 37 CE 0C 18 FF DD 00 00 27 72 BB 50 R...7.......'r.P
00403DD0 9A 00 F1 10 1C 83 36 F1 3A 1C FF FF DB 2D 3A D5 ......6.:....-:.
00403DE0 DD 00 98 FA A7 A5 A3 38 FF 3E 83 38 7A B3 39 9A .......8.>.8z.9.
00403DF0 37 56 45 65 A1 FF 14 6E 1A F7 13 81 68 7E 8D E3 7VEe...n....h~..
00403E00 FF 00 14 F3 B2 67 17 B1 69 28 2E 43 C3 63 BF 11 .....g..i(.C.c..
00403E10 00 23 00 FF 1A A6 93 13 FF FF EA 00 D5 BC 02 FF .#..............
00403E20 89 FF 00 98 C8 30 B6 FB 00 02 47 6E FF 7D 57 CD .....0....Gn.}W.
00403E30 00 0A 3D 46 26 26 2F F3 59 6E 6D 00 C8 FD 6D 31 ..=F&&/.Ynm...m1
00403E40 FD 8D 8B 00 5A C2 70 F0 EF 43 07 40 00 64 00 83 ....Z.p..C.@.d..
00403E50 05 D7 C5 B1 69 76 06 5E A6 CC AA 62 32 FE C8 86 ....iv.^...b2...
00403E60 00 6A 62 FF C6 81 EC 00 60 00 F4 B6 37 29 A0 A4 .jb.....`...7)..
00403E70 35 B6 B5 EB 00 AE 7D 01 5B 00 C1 06 B0 00 5C 2F 5.....}.[.....\/
00403E80 83 4D F0 8B 4A FF B6 60 70 3F B6 C3 3E 34 5B 33 .M..J..`p?..>4[3
00403E90 19 FD 2F 4B 04 01 D5 48 A2 2F E3 00 83 CA 00 C2 ../K...H./......
00403EA0 11 E2 FF 5B A3 AA 00 93 8F 28 F3 85 00 FC FF 5A ...[.....(.....Z
00403EB0 00 1E 8D 3D 00 F8 F1 36 DF A2 06 10 28 20 44 FE ...=...6....( D.
00403EC0 62 0D 5A 35 1B 23 00 00 87 3B 9E DF 81 00 22 FE b.Z5.#...;....".
00403ED0 59 74 2C CF FF C5 21 CC 61 04 1F 3F 16 E6 FC D6 Yt,...!.a..?....
00403EE0 DB BF 9E 29 E7 BB F4 A5 72 61 BA 00 00 00 16 15 ...)....ra......
00403EF0 7F 95 9D 20 99 59 0C A5 85 00 50 4F B8 50 FF D1 ... .Y....PO.P..
00403F00 18 F4 E7 4E 84 03 0A D8 DB 8E 00 1C 02 2E E5 B1 ...N............
00403F10 B7 3E 07 00 7C 34 42 8A F3 68 00 1C 7F 4F 00 00 .>..|4B..h...O..
00403F20 6F 5E 09 46 9A 22 00 00 FF AA 43 7B 21 DB 60 FF o^.F."....C{!.`.
00403F30 D0 A5 80 91 EB 03 80 7C A1 E1 03 A5 09 EE B3 45 .......|.......E
00403F40 D9 75 FF 75 6D FF DD 17 6F 67 76 F2 DF F0 DD C7 .u.um...ogv.....
00403F50 18 F7 33 20 47 38 99 00 00 0F F7 7D E8 D7 41 34 ..3 G8.....}..A4
00403F60 8B 92 F7 C1 45 0D 1F FF 00 3D EE 8E 9E D6 CC C0 ....E....=......
00403F70 00 C4 15 A7 46 A2 1A B0 DD ED 04 F6 28 ED 04 26 ....F.......(..&
00403F80 7A E2 FF B9 6D 7D D1 02 43 18 C0 EE A2 44 FC EB z...m}..C....D..
00403F90 5C 1C 00 9F AF 70 EE 9F 5F 00 B8 38 E3 3C 9C 91 \....p.._..8.<..
00403FA0 C3 0C 9E 67 DE 3B 81 00 FF B7 91 1F 8C C7 97 53 ...g.;.........S
00403FB0 EF FB F2 85 E3 FE A4 9B F8 59 00 27 36 61 3E 82 .........Y.'6a>.
00403FC0 CF A1 41 6A 00 1A 00 5D FF 89 BC 35 EF 48 5C B6 ..Aj...]...5.H\.
00403FD0 04 B8 60 82 00 1D CA E7 61 00 D0 4E 8F 01 8B D2 ..`.....a..N....
00403FE0 78 C2 32 30 25 00 00 A8 00 EF 88 C1 8B B0 59 5F x.20%.........Y_
00403FF0 00 3D 18 FF 6C C4 3A FF 71 7C 30 40 FF FF 88 55 .=..l.:.q|0@...U
00404000 00 DA 4C B5 83 F1 00 E5 4A 95 5B D0 0E DE 41 00 ..L.....J.[...A.
00404010 C3 00 2E BF 06 53 75 C7 C6 DE C3 BA 49 FD AF 3C .....Su.....I..<
00404020 81 05 C4 00 DC FC 2E 0F 41 F6 94 1C 73 00 EB 02 ........A...s...
00404030 00 4F FF E4 10 6D 20 00 21 50 1C 29 00 F7 FD 81 .O...m .!P.)....
00404040 40 98 4E 7E A0 85 F7 00 00 8A 06 48 0B FF 01 BC @.N~.......H....
00404050 DF 00 00 00 08 92 00 6D D4 83 F8 B8 50 98 0E 00 .......m....P...
00404060 7E 00 A2 DC 00 78 BF 1F 7F 00 74 B8 AD 70 CD 60 ~....x....t..p.`
00404070 FF 00 13 FA E2 A5 E3 00 35 06 B2 80 63 22 62 6D ........5...c"bm
00404080 CE A0 81 73 86 AF 00 04 70 8E 00 A2 0E 71 80 9D ...s....p....q..
00404090 DC 42 20 1E 00 6A CF DD 00 02 A3 87 FB 00 EE 00 .B ..j..........
004040A0 5A 31 00 3D 6C FF 4C 60 0D DC 13 C8 40 50 CC 67 Z1.=l.L`....@P.g
004040B0 00 59 28 00 8A D6 89 1C 00 FF FF 19 FE 15 FA C2 .Y(.............
004040C0 D7 D6 07 4F 95 00 00 65 84 28 AC 0B 98 00 8F 5F ...O...e.(....._
004040D0 CB E6 68 39 87 AC 62 42 7D C7 0B 3C 43 81 4E 55 ..h9..bB}..<C.NU
004040E0 00 CE 68 13 B1 7D 0E 07 07 00 5E 20 46 00 57 5E ..h..}....^ F.W^
004040F0 4A 74 4C D5 33 68 3C 63 91 09 81 C0 F5 5D 7C EE JtL.3h<c.....]|.
00404100 26 8E 51 17 EC 80 D2 C5 C4 8A F7 FF 40 00 00 6F &.Q.........@..o
00404110 E5 B0 C0 00 44 00 40 97 FF 5E 7B 77 02 3D D9 00 ....D.@..^{w.=..
00404120 E7 80 7A 12 E1 1B 25 53 00 6B 16 C0 4F 72 AF A5 ..z...%S.k..Or..
00404130 BC 8D F2 E5 00 D5 FF 49 33 05 00 87 24 41 65 00 .......I3...$Ae.
00404140 37 C3 00 A9 00 5D 62 8B FF 00 FC 41 3E AF C2 00 7....]b....A>...
00404150 93 00 80 DC A4 BD 5A CF 4F BD 2D 3E 00 9B 70 82 ......Z.O.->..p.
00404160 FC 3D 7D 00 E8 E7 2D F5 74 00 04 F3 D6 D9 FF 00 .=}...-.t.......
00404170 C7 24 FF AA 96 08 F3 7B 01 1F 47 52 D5 B8 FF 61 .$.....{..GR...a
00404180 5E 46 C2 88 3D B2 00 78 F3 E2 28 EA 1E B8 00 20 ^F..=..x..(.... 
00404190 74 F0 C1 40 9A FD E0 C9 FF 01 00 A6 37 9B 00 08 t..@........7...
004041A0 D9 AE D1 A5 A5 61 00 2E 0C FD 00 31 01 22 2F 30 .....a.....1."/0
004041B0 00 FF 35 95 2E E3 8B 00 00 FB 02 8C 32 8A 67 82 ..5.........2.g.
004041C0 E1 80 00 95 C4 1D 00 55 FF FC 94 BF 5D 90 23 C5 .......U....].#.
004041D0 38 7D D2 D0 35 20 8C 99 07 AF 59 00 6A B9 92 EC 8}..5 ....Y.j...
004041E0 00 00 FF D5 E6 4C 6E 2F 14 14 00 16 E6 E8 B4 08 .....Ln/........
004041F0 F3 DF 25 BF 99 F0 13 1F 0C AA C4 C3 9C 76 F1 58 ..%..........v.X
00404200 79 16 31 8B FF 00 00 10 BA 2D 00 BE 7A 1F D7 F3 y.1......-..z...
00404210 00 00 38 05 C6 ED 03 05 C5 0E 9E CE F3 5A D4 66 ..8..........Z.f
00404220 40 F0 0B BA 90 4A 38 FF 00 C0 50 FF DD 20 04 68 @....J8...P.. .h
00404230 00 00 43 28 1D FF 31 87 F0 6C BA ED FF C1 00 8C ..C(..1..l......
00404240 62 95 78 00 40 5E 15 6D 16 FF D1 3C 00 E4 7A 34 b.x.@^.m...<..z4
00404250 FF FF 00 00 B2 BA 4B C2 97 FF 00 0A 21 C5 04 00 ......K.....!...
00404260 00 00 BA 00 72 9A 46 01 97 3F 00 CE AF 47 00 00 ....r.F..?...G..
00404270 1F 29 00 FD 82 EF C6 00 1B 92 7E 5E 8F 00 AF 66 .)........~^...f
00404280 74 26 12 D8 2F E4 A9 00 00 A8 00 FF 8C 00 08 31 t&../..........1
00404290 02 86 08 4A 67 00 00 70 84 10 30 07 75 9F 6E 08 ...Jg..p..0.u.n.
004042A0 40 72 C9 EF 00 25 40 26 96 7C 20 77 8B E5 FD 0D @r...%@&.| w....
004042B0 69 BA 2D 02 97 E1 01 C2 00 8D E0 E0 E8 1B 31 C2 i.-...........1.
004042C0 00 20 4E 00 98 06 1A 56 71 C3 A2 BF 84 95 3B 0C . N....Vq.....;.
004042D0 00 06 22 D7 CD 5C CF FF ED 89 BD E0 21 00 13 0E .."..\......!...
004042E0 9E 7F 6C 19 7E CE 76 75 2E 20 00 3A CC E5 A0 72 ..l.~.vu. .:...r
004042F0 70 21 80 62 1D D0 A4 78 BF A9 9A 07 0C 7E 8D 53 p!.b...x.....~.S
00404300 E0 44 D8 AF C4 D4 31 C8 FF 25 05 B9 00 DF 96 78 .D....1..%.....x
00404310 CD FF 00 01 00 A8 E4 49 20 00 FF AB 88 55 70 2A .......I ....Up*
00404320 00 09 D8 56 88 00 00 F9 22 00 BB 43 48 A1 E1 99 ...V...."..CH...
00404330 05 C5 B5 70 D1 FF 00 C1 00 6C 3B 00 D5 43 86 CF ...p.....l;..C..
00404340 D3 16 D1 E6 7B 00 00 11 07 F4 88 FF CC 91 00 C1 ....{...........
00404350 85 F4 7B 00 00 F3 41 41 DB 00 A5 BD 87 24 48 09 ..{...AA.....$H.
00404360 63 2C 12 E0 BF 5D B4 F5 AD 69 C5 36 0E 5E 8C F1 c,...]...i.6.^..
00404370 E4 C3 B4 93 78 FF 03 94 00 83 33 F6 20 2E 8F 2F ....x.....3. ../
00404380 7F 84 10 D0 E8 2B 14 39 00 1C 72 80 FF 27 2D 00 .....+.9..r..'-.
00404390 47 C9 76 88 C7 64 68 34 69 C7 00 2C CD 12 00 1A G.v..dh4i..,....
004043A0 03 2D 22 14 70 00 D7 12 08 8A 20 00 D6 57 43 00 .-".p..... ..WC.
004043B0 6F 8E 36 6C E9 86 00 95 53 29 00 39 1C 0C 8D AC o.6l....S).9....
004043C0 A7 E1 BE 06 9C 3F F7 69 8A F8 28 FF 08 7F A2 3C .....?.i..(....<
004043D0 67 4E D0 AC 73 82 3C 1A 03 DC 09 80 31 CB D4 FF gN..s.<.....1...
004043E0 AC 10 F1 3D 00 8B D9 B7 D2 94 3F F4 99 81 B1 48 ...=......?....H
004043F0 FF 51 01 00 00 37 1D 70 00 F1 5D AF 00 C9 06 19 .Q...7.p..].....
00404400 08 9C AB 5D E3 91 8A DF 04 BB 92 86 17 04 00 12 ...]............
00404410 1A 2F 4B 53 F8 00 CF 5B F3 36 1D C8 C1 26 E5 FF ./KS...[.6...&..
00404420 00 00 FE 6E 2D B7 80 31 89 1E 00 B2 73 01 5F B4 ...n-..1....s._.
00404430 E5 71 33 C7 8C 00 11 48 B8 0C FF 72 2E 67 86 70 .q3....H...r.g.p
00404440 DB 00 2D 00 00 62 00 53 64 9F 74 0A B3 E8 BC 59 ..-..b.Sd.t....Y
00404450 CD 6A CB F5 C5 0C 00 3D B1 FF 1A F4 13 5F E6 E6 .j.....=....._..
00404460 00 00 13 08 80 1C 3E 18 FF 00 E1 46 6D 6E DB FD ......>....Fmn..
00404470 E1 A7 F9 00 03 C5 C9 F8 BD 0E 02 64 00 E6 58 D3 ...........d..X.
00404480 1F 0C FF 6B 02 10 62 C0 DE 4A F7 80 00 A3 F7 0E ...k..b..J......
00404490 44 6E E8 D5 17 19 24 00 7B 74 68 D3 A1 0C 70 00 Dn....$.{th...p.
004044A0 DC 00 E7 9C 90 61 3F 2E 7B 5A 5A 31 C6 C0 D3 FD .....a?.{ZZ1....
004044B0 27 4C 00 EF 61 7E 63 C6 FF 26 FF DB AC 06 BA BC 'L..a~c..&......
004044C0 5F EE FF B2 00 F5 A0 58 00 2F D7 FF 0A 2C FF DA _......X./...,..
004044D0 D7 32 00 82 44 D5 EB 49 00 D4 7F 44 BB 00 57 7D .2..D..I...D..W}
004044E0 63 D0 00 CA 04 27 07 FF 5C 15 16 69 33 E3 68 8B c....'..\..i3.h.
004044F0 28 F2 64 61 0B 13 19 A8 42 76 3A 33 33 14 BF B3 (.da....Bv:33...
00404500 6A 3B A0 26 4C 5C A4 50 00 89 44 48 EF 4C 57 E4 j;.&L\.P..DH.LW.
00404510 FB 4E 8F 95 60 5B 6D F7 43 FF 98 C5 38 AE 03 E7 .N..`[m.C...8...
00404520 20 7F 00 13 16 64 01 3E 00 A8 B6 96 0E 89 2C 47  ....d.>......,G
00404530 F8 00 4B 40 C4 FF CD F7 00 18 36 D2 F5 E4 1E FF ..K@......6.....
00404540 24 B1 2E CA 48 8D 00 05 B6 44 45 FD FF BC 00 62 $...H....DE....b
00404550 E8 0A FF A5 F0 C7 EF 85 20 D3 64 7F C5 F3 DE FF ........ .d.....
00404560 16 A2 18 E4 BA 85 9D FF 5B E9 2F 8F EA DB 00 29 ........[./....)
00404570 A2 5A 2A F1 7C 0C 40 91 8E 21 6B C8 CE 41 FF 64 .Z*.|.@..!k..A.d
00404580 9D F4 A4 ED 00 B9 60 00 AF 6C 04 5C 00 A5 CA 19 ......`..l.\....
00404590 20 A2 4B ED E6 31 6D 81 D8 8B 4E 82 55 A4 90 87  .K..1m...N.U...
004045A0 4E E4 CC E4 C1 5B 10 28 48 FF 99 54 43 C3 7F 8E N....[.(H..TC...
004045B0 00 64 1C 59 00 33 43 22 50 E2 EF B8 3E 85 E3 00 .d.Y.3C"P...>...
004045C0 80 82 AD E2 D2 3E 05 AF FF CC 72 F9 27 58 21 80 .....>....r.'X!.
004045D0 DF 1A 00 BE F1 81 E2 0E 0E FF ED D7 BD 40 02 66 .............@.f
004045E0 13 C3 F6 FD A9 FB 7F 00 ED 4F 00 64 07 12 2C 24 .........O.d..,$
004045F0 F2 FF 6C 28 58 EE 00 CA A2 67 7B 45 43 CE 01 88 ..l(X....g{EC...
00404600 ED FF 7F 51 4B 74 4C 64 8A 38 D0 87 12 C9 AE 00 ...QKtLd.8......
00404610 41 8B FF EB C1 71 EE 7D 18 A7 D5 28 31 93 60 05 A....q.}...(1.`.
00404620 36 52 FF 00 DE 00 E5 6F 00 00 92 36 3C FE 98 00 6R.....o...6<...
00404630 8E 00 18 BC C2 85 CE 24 00 87 9D DF 00 02 45 DC .......$......E.
00404640 6C AF 00 7A 00 ED 28 FF ED 67 BE 0B 33 00 15 6A l..z..(..g..3..j
00404650 00 33 97 6E 8D 95 82 B5 5A 48 38 1E 02 EE 7F E1 .3.n....ZH8.....
00404660 A3 3A 2F E1 40 00 7C FF 75 E4 29 50 94 F1 BD 00 .:/.@.|.u.)P....
00404670 F6 6B 00 88 6E 00 7B D2 EC C0 B1 DE 00 22 09 00 .k..n.{......"..
00404680 AB 79 15 FA E0 16 00 34 D0 57 4E 00 18 2B FF C2 .y.....4.WN..+..
00404690 1C 00 00 33 00 D9 82 15 C3 07 C4 12 E4 F2 34 9B ...3..........4.
004046A0 33 AD 24 B4 12 0E CB 67 39 C8 B0 A1 8F FF EE E8 3.$....g9.......
004046B0 96 E6 21 C8 49 1F 00 3A 45 02 5B F4 FF A2 BD 2E ..!.I..:E.[.....
004046C0 B9 00 74 B5 43 41 05 DF 39 00 A0 62 D7 CC 00 F0 ..t.CA..9..b....
004046D0 EF 00 5B 00 BB 00 B0 2F 43 D1 70 6F 69 AC 8D A3 ..[..../C.poi...
004046E0 7F 30 10 00 BE 38 D3 1B F5 7E 21 00 83 DE 00 E5 .0...8...~!.....
004046F0 92 45 00 01 D8 68 9B 69 C2 0F DA 46 57 05 08 5F .E...h.i...FW.._
00404700 C4 29 C6 38 00 33 E0 FF 58 00 D4 38 00 36 47 B1 .).8.3..X..8.6G.
00404710 D8 15 EC 24 C4 A2 6C 5C 08 61 00 31 FF E8 B5 3A ...$..l\.a.1...:
00404720 DF C0 48 00 74 33 FA 9C DC 70 FF 11 56 9D CD 6E ..H.t3...p..V..n
00404730 FF C5 F7 F5 7B E9 51 BA 23 9B 52 9B 9D 8F FE 28 ....{.Q.#.R....(
00404740 93 00 D2 34 E0 67 00 FC 00 14 00 C9 00 00 D9 8A ...4.g..........
00404750 30 83 1D 03 45 00 50 04 47 DD 00 6C B6 69 52 4E 0...E.P.G..l.iRN
00404760 00 32 8A 36 0A F7 F1 FF 63 A7 38 01 00 5B 18 00 .2.6....c.8..[..
00404770 FF F2 F8 00 08 EB 4B 96 DC 62 40 C0 00 9A 28 3E ......K..b@...(>
00404780 BB 83 D6 07 05 96 00 00 00 00 0F 7F B0 C8 1B CE ................
00404790 00 00 A8 56 00 DE E2 F5 FF 39 28 66 8B FF CD 4D ...V.....9(f...M
004047A0 57 F6 B7 9A C0 29 A3 A5 19 F6 AA 79 80 EF 52 6A W....).....y..Rj
004047B0 4E FC 01 F1 8F 78 42 00 9E 8B 57 4E E9 00 4E DB N....xB...WN..N.
004047C0 9B 00 2C 75 B0 00 B7 BD 69 CB 78 84 1B 00 00 80 ..,u....i.x.....
004047D0 00 C2 EA B4 3F F6 00 C9 FF 6B 06 13 1B E9 C9 9D ....?....k......
004047E0 CC 01 74 40 00 48 05 F0 C5 99 53 FF F0 FF FF 3A ..t@.H....S....:
004047F0 8E 23 4F CD 49 7C 00 17 B3 15 25 D1 FF DC 49 BA .#O.I|....%...I.
00404800 F0 1D 7A 93 C3 28 ED 53 10 00 C8 6C 0E 3C 48 11 ..z..(.S...l.<H.
00404810 51 B0 58 12 3C 00 F4 00 91 4B F7 59 DC D0 05 C7 Q.X.<....K.Y....
00404820 03 80 FF CA DD 00 14 A6 A7 85 A7 EE FF F8 37 DC ..............7.
00404830 00 A6 CA 60 58 EB A2 67 26 76 C4 5C 67 4F 19 18 ...`X..g&v.\gO..
00404840 6B 9F B7 B0 C2 00 FF 00 B9 AE 00 EE 87 06 B1 00 k...............
00404850 9D A3 5F E6 00 76 A9 00 FF 14 9F 32 C5 FB 8A 67 .._..v.....2...g
00404860 7D A6 4A 7F E9 00 8D 4A 2B 7B 05 78 EF 98 6B 1E }.J....J+{.x..k.
00404870 DC A6 86 D9 D9 31 F3 FF C0 84 1A 6B B2 33 05 3D .....1.....k.3.=
00404880 D4 B7 83 97 7B 00 F7 2C 09 B3 7E 7C A1 6C DF 00 ....{..,..~|.l..
00404890 6A A8 38 A5 E2 05 6C 00 FF 8B F9 FF BF 8D 00 D1 j.8...l.........
004048A0 70 A4 12 00 D4 BF 00 FF 00 30 D8 0B C6 6B E8 2D p........0...k.-
004048B0 FF 85 FA 41 A6 00 39 00 12 70 00 44 D1 8F B2 4A ...A..9..p.D...J
004048C0 B7 BB A0 E8 80 B7 10 28 32 6C 68 94 A8 12 35 92 .......(2lh...5.
004048D0 00 FC 00 CE 7B DF 23 F6 A2 22 C4 F7 C2 FD 01 EF ....{.#.."......
004048E0 6C 70 0F 6B FA 00 52 28 00 7E D3 79 59 36 CC A8 lp.k..R(.~.yY6..
004048F0 F3 65 F0 6B 7F 00 EC 47 FF 00 25 00 0C 03 00 E9 .e.k...G..%.....
00404900 D7 FF ED 1C 7A 00 BD FE 44 AA 07 44 00 30 85 86 ....z...D..D.0..
00404910 AD 01 89 00 E4 09 76 F5 00 22 00 22 F9 27 23 FF ......v..".".'#.
00404920 20 F3 43 AF B1 03 E3 D1 80 FF F0 33 FF A4 FC 5F  .C........3..._
00404930 6E C9 00 F0 39 50 86 FF D7 E8 A5 00 82 8E F6 88 n...9P..........
00404940 A4 45 00 46 28 71 17 A9 EA 82 CB 69 F0 EB 5E 85 .E.F(q.....i..^.
00404950 24 87 5C CA 64 6B 5E D4 00 00 00 61 8D 14 1D 23 $.\.dk^....a...#
00404960 E7 4C 04 FF DB 6A 65 E7 79 14 4C 63 1F 90 0D 20 .L...je.y.Lc... 
00404970 65 24 4C 6D 25 A6 84 4F 1E 48 62 7B FF 46 BA 3E e$Lm%..O.Hb{.F.>
00404980 FF 00 FD 39 36 ED 42 27 73 04 3F CE 70 E5 FF DA ...96.B's.?.p...
00404990 4B 30 72 F7 EF 4D AA 00 B3 E3 8B 8C F1 27 E5 8D K0r..M.......'..
004049A0 C3 00 5C B5 00 53 00 DD 4A B0 B1 0A 49 00 48 FF ..\..S..J...I.H.
004049B0 21 A5 9D 80 03 16 91 C2 50 43 FF 79 44 0B 9F FE !.......PC.yD...
004049C0 E1 31 04 F1 00 5C F9 00 00 00 C4 FB D0 00 BA 78 .1...\.........x
004049D0 41 DF 0D 71 41 00 08 1F 00 EA E3 4B 2A FF 83 CC A..qA......K*...
004049E0 00 69 7D CA E3 85 27 C1 17 00 21 21 0C 31 00 FF .i}...'...!!.1..
004049F0 90 1B 00 2F 00 AB 09 7E CE 3A 1D 60 31 F6 93 EF .../...~.:.`1...
00404A00 FF 00 00 F0 03 01 73 36 00 FF A8 E9 E2 48 98 9C ......s6.....H..
00404A10 78 00 25 BF CE 67 37 00 EC 8C AF 0F B9 C6 00 3F x.%..g7........?
00404A20 B1 C6 21 68 CB 89 99 00 F3 6C 83 9C 00 52 00 C8 ..!h.....l...R..
00404A30 50 C9 F6 6B DF F0 39 7E 00 7A 61 FF A2 7F 00 8B P..k..9~.za.....
00404A40 88 65 56 58 18 24 00 28 3D E3 00 1A 00 60 56 A2 .eVX.$.(=....`V.
00404A50 7B 91 69 C3 59 6E FF E1 FB 7A 00 81 ED 5A 07 C9 {.i.Yn...z...Z..
00404A60 47 AD 22 00 D4 B5 F5 E2 30 D4 C0 16 FF D2 49 83 G.".....0.....I.
00404A70 00 4E 39 8D 00 33 8B 21 77 00 00 0F AF FF 00 0D .N9..3.!w.......
00404A80 9B 00 E2 42 46 53 01 EA 5E 84 24 61 14 00 33 4B ...BFS..^.$a..3K
00404A90 F5 FF 00 05 EA C0 58 76 18 DC D8 28 54 00 51 FF ......Xv...(T.Q.
00404AA0 00 AA 00 FF 2F 1C 1B 7B 45 BF B4 2E FB 04 00 18 ..../..{E.......
00404AB0 C0 27 01 00 B7 5A 37 2F D4 0F 92 B8 7C 31 72 D0 .'...Z7/....|1r.
00404AC0 A6 5B 00 B8 E7 D8 E0 00 C4 31 00 B8 00 A9 21 3E .[.......1....!>
00404AD0 58 00 E3 C9 A0 E1 31 68 02 00 61 10 BF 31 72 B4 X.....1h..a..1r.
00404AE0 00 00 B9 79 35 A3 40 8C 76 3E D5 00 C8 E5 BF CF ...y5.@.v>......
00404AF0 8F 00 C9 BF 1B F6 00 88 00 FD 07 F1 A8 06 00 FF ................
00404B00 51 53 00 37 75 18 67 BC D0 95 00 29 5A E3 53 0E QS.7u.g....)Z.S.
00404B10 8E C2 39 FF 56 17 A6 00 EA 60 F2 FF B4 00 CD 5F ..9.V....`....._
00404B20 F7 05 C8 A3 A6 3E 97 4F 99 5F ED 88 CC 1F 04 E8 .....>.O._......
00404B30 86 F1 1E FF 00 1E D3 2B 80 CC A6 F2 8C FF 78 E9 .......+......x.
00404B40 84 B5 88 00 60 00 A1 06 C0 A7 B7 21 FF E7 38 8D ....`......!..8.
00404B50 D9 1E 8C 24 16 D9 FA A2 28 41 00 FF E6 78 B7 4F ...$....(A...x.O
00404B60 16 5B F0 CC 00 00 46 14 72 0A B0 00 BD 42 5D 73 .[....F.r....B]s
00404B70 BE 54 15 4A A9 1B 9E 4C 20 4C 70 B8 F4 78 00 D7 .T.J...L Lp..x..
00404B80 00 2D 00 00 16 61 89 AE 06 71 74 BD 4B 00 8A 00 .-...a...qt.K...
00404B90 0F 4F 9E 72 76 32 7F FF 4C 3C 9F ED 78 E8 00 66 .O.rv2..L<..x..f
00404BA0 00 7A 87 94 78 D8 DC 4E 24 25 9D B5 DF 1A 7D FF .z..x..N$%....}.
00404BB0 EC 00 B8 DE 37 67 42 63 DF 00 22 00 F0 EB C9 ED ....7gBc..".....
00404BC0 87 23 98 7F C4 87 20 C1 98 A5 A8 34 FF 39 9E F0 .#.... ....4.9..
00404BD0 2F 00 5B A5 FB A3 D9 41 65 00 50 44 5E 61 93 00 /.[....Ae.PD^a..
00404BE0 41 00 66 7F 99 34 2A FF 00 BB 00 24 CC D0 00 00 A.f..4*....$....
00404BF0 00 00 C2 F1 8B B3 69 F2 0B 9C F1 CC F8 04 00 66 ......i........f
00404C00 73 7F 00 52 00 87 84 73 42 E2 2B 6F 00 00 A7 00 s..R...sB.+o....
00404C10 CF 3E A1 F3 18 26 00 00 10 0A 01 2E F5 11 E1 96 .>...&..........
00404C20 39 12 0D C6 98 D2 BF 84 94 CB 8F B8 91 FF E5 75 9..............u
00404C30 00 F5 3E 7E 7F 00 FD 12 EC 46 00 84 C9 87 AA E8 ..>~.....F......
00404C40 44 00 5A B5 00 2B 7D 28 9B 00 5C F6 4E 00 EE 03 D.Z..+}(..\.N...
00404C50 7A 53 A7 15 51 7D 15 11 00 02 C1 BD 94 8F 8B 94 zS..Q}..........
00404C60 F6 E8 03 FF E3 27 0C A2 E7 00 00 23 FF 6A 5F E6 .....'.....#.j_.
00404C70 49 00 8F 86 18 3B 87 FF FF 2C D9 D7 1A 9D 74 C5 I....;...,....t.
00404C80 55 1F 00 C4 26 A2 A0 C6 E0 68 4B 1F FF 6E 3B D3 U...&....hK..n;.
00404C90 00 FF 56 84 00 F5 43 02 0B B1 F6 1F 69 54 67 F4 ..V...C.....iTg.
00404CA0 61 12 34 C4 7F 75 70 03 0F 00 FC 04 A5 A3 ED 82 a.4..up.........
00404CB0 78 F9 00 00 FF C1 FD 34 7D B0 E8 EB FF 6E CE B7 x......4}....n..
00404CC0 00 D6 5B 12 61 09 E0 7F F0 C3 FF 00 19 EC 96 00 ..[.a...........
00404CD0 6F 03 22 B8 D3 89 9B E8 A3 0A C0 11 CE 38 8F 48 o."..........8.H
00404CE0 00 A3 00 30 73 99 9E 83 0B E4 FB 12 CA 2A 87 93 ...0s........*..
00404CF0 A8 C3 AB 5B 0D 27 D6 82 20 01 9B 00 31 FF FF 00 ...[.'.. ...1...
00404D00 93 00 7F 8C 78 60 13 7D 34 4F EE 00 19 00 47 38 ....x`.}4O....G8
00404D10 AD 19 64 81 D8 57 55 D8 43 4A 5B FF 3A 00 00 00 ..d..WU.CJ[.:...
00404D20 00 00 D1 6D 16 D2 FF 00 00 05 04 4C 45 2A 6E 53 ...m.......LE*nS
00404D30 7D 5A F7 34 80 0F 00 E6 6E 80 94 77 CF C8 9F 80 }Z.4....n..w....
00404D40 FF F9 1B F5 49 A8 94 00 58 35 61 43 37 14 7B FF ....I...X5aC7.{.
00404D50 51 6B 05 7F E8 A4 12 95 50 03 00 92 DD 8C EF 05 Qk......P.......
00404D60 FF 58 0E 12 35 3A F3 01 26 1B 00 13 EE 03 CC 4C .X..5:..&......L
00404D70 E4 7A FF 00 93 A0 00 A2 08 00 41 C6 E3 81 00 5A .z........A....Z
00404D80 52 D9 16 9A 1B F2 4F FF 00 47 2A 99 47 74 C8 D9 R.....O..G*.Gt..
00404D90 62 00 52 F1 B8 C3 46 A8 FF 9C 07 93 80 EA E6 00 b.R...F.........
00404DA0 9D D0 46 05 13 BB 74 FF A9 86 9B 77 C8 6F 7E 00 ..F...t....w.o~.
00404DB0 00 D5 00 7C AC EC 0C 28 04 00 6C F7 F0 00 AE A6 ...|...(..l.....
00404DC0 C3 19 CF 15 00 E4 36 69 00 DC 99 1A 00 4E 37 8E ......6i.....N7.
00404DD0 00 EC 4E 43 C8 03 18 03 C1 D8 E0 27 E4 6C AC BE ..NC.......'.l..
00404DE0 C2 F2 55 B7 24 FE E5 5D B7 42 C3 9E D4 08 DC 5A ..U.$..].B.....Z
00404DF0 22 B9 DD 6A 98 44 1F 1A 5D FF 3C 00 8B DF 16 CE "..j.D..].<.....
00404E00 CB C6 AC 41 13 E6 2D 11 00 75 0B 32 FF 0A 7D 32 ...A..-..u.2..}2
00404E10 40 00 2B 00 78 CB FD 00 00 DC 22 C9 C3 3A 0E EA @.+.x....."..:..
00404E20 B4 99 04 87 2D 20 00 12 87 E1 20 D1 63 04 63 DF ....- .... .c.c.
00404E30 00 B4 69 4D F1 11 8B A3 31 17 C0 2F 03 C2 86 46 ..iM....1../...F
00404E40 38 F4 C3 C7 F8 0B 00 42 0D 9E 07 FD FF 25 48 A9 8......B.....%H.
00404E50 F7 B9 E7 F4 7A 00 89 FF 9A 79 B1 24 27 C6 E4 97 ....z....y.$'...
00404E60 FB F3 1F 00 04 F5 47 B6 5A FF AE 7F 26 7F 2A F3 ......G.Z...&.*.
00404E70 F3 B3 B5 D0 BE 0A D2 10 21 FF F2 A0 FF 00 D5 F1 ........!.......
00404E80 36 2D 45 1B FF FF 04 13 77 29 02 38 EA 00 FF 22 6-E.....w).8..."
00404E90 8F 36 18 04 2E C1 50 AC 0E 1A 9A 00 22 33 B8 CF .6....P....."3..
00404EA0 E8 A7 EA 84 00 85 00 2D 45 B7 FE 0E 04 40 ED 8A .......-E....@..
00404EB0 2D 96 FE D7 09 67 EC FF 84 5E BC 31 00 00 0A E0 -....g...^.1....
00404EC0 1E 26 59 FB FF FE 7C 0C B7 C1 9E 00 4B 99 F4 42 .&Y...|.....K..B
00404ED0 F0 CA 86 00 58 00 1A 00 89 48 C1 8D 6C 26 18 E2 ....X....H..l&..
00404EE0 00 4F 41 C1 00 FC 71 03 6B 63 14 BB 0B E4 00 00 .OA...q.kc......
00404EF0 00 3F 16 73 6F 60 EF B2 62 DB FF FF D5 D8 55 D2 .?.so`..b.....U.
00404F00 88 EF FA DD 6A E6 84 99 08 A8 2A 00 9B 36 4A 03 ....j.....*..6J.
00404F10 00 F7 FF E6 40 2F 30 93 58 00 C5 E0 BB C3 38 0B ....@/0.X.....8.
00404F20 6E FF B2 FC 3D 00 89 49 CF 00 F5 00 7C 0F 41 B7 n...=..I....|.A.
00404F30 3F 13 C2 C1 0F 00 4B 00 EB D0 00 C7 F1 91 A3 E0 ?.....K.........
00404F40 BF 03 DD 19 C8 12 3B D8 00 00 FA FF E4 00 9F 9A ......;.........
00404F50 D5 A0 C9 E1 00 51 D8 47 00 0E FC 00 E3 15 1B 39 .....Q.G.......9
00404F60 C0 FB 16 FF C6 34 73 3A 98 D8 C2 E9 42 7E 25 2C .....4s:....B~%,
00404F70 33 05 FF 00 1D 96 B4 00 CD 26 FF 41 4A BB FF 50 3........&.AJ..P
00404F80 8B BA EB FF A4 04 2B 28 F5 A7 94 3B 34 81 20 89 ......+(...;4. .
00404F90 B8 00 B4 D7 00 6A 7E C1 00 AF AF 48 00 B0 25 86 .....j~....H..%.
00404FA0 B1 67 FF 00 68 EB 67 8C FC 00 8A 3E 6D 2C 00 2D .g..h.g....>m,.-
00404FB0 94 21 00 CF C0 00 00 C6 97 6A 00 FF 06 48 22 14 .!.......j...H".
00404FC0 FD FF C2 17 FE 6E D3 E2 CD A8 59 F3 72 88 CF 88 .....n....Y.r...
00404FD0 3F CD 08 89 74 F9 91 00 07 00 4E AC 45 D1 00 A4 ?...t.....N.E...
00404FE0 58 01 4A 00 19 C4 2E 79 87 B2 C6 A9 EC C5 21 B8 X.J....y......!.
00404FF0 15 36 07 6F 2C 73 70 00 5D 28 F8 CD EF 61 3E 1F .6.o,sp.](...a>.
00405000 10 A9 91 00 18 CE FF 8D FF 53 D9 0A 0C 4B E1 79 .........S...K.y
00405010 96 23 70 5F A6 31 AC 12 73 0D D1 1F FF 00 92 CB .#p_.1..s.......
00405020 6C 5B 16 50 44 D2 28 BA 23 FE A6 EE 00 F2 83 67 l[.PD.(.#......g
00405030 3D 62 09 7D 30 B2 82 FF 00 BC 7E 3C 00 00 73 69 =b.}0.....~<..si
00405040 01 12 CF F3 E6 24 8A F6 73 00 27 26 E3 00 2C CE .....$..s.'&..,.
00405050 2B 50 E7 B5 11 47 DC 00 EB 00 DD 00 5A 10 90 84 +P...G......Z...
00405060 14 FF AF 0A 2B 8C 00 06 CC 09 10 12 BF 1E CD B0 ....+...........
00405070 90 5E FF D3 AD 98 26 22 00 67 C2 00 00 7B 78 92 .^....&".g...{x.
00405080 E2 38 C6 E8 B8 34 A6 DF 6B 60 69 9D E0 69 3A 7C .8...4..k`i..i:|
00405090 A9 70 FD 00 30 81 F1 90 41 9B 00 00 E7 5F F6 DA .p..0...A...._..
004050A0 B7 FF 0F 5E 00 96 00 AF 0B E3 EF 9D 09 69 FF 00 ...^.........i..
004050B0 E5 CF 40 1E 56 92 DB 9B CC 08 C7 49 00 26 59 F1 ..@.V......I.&Y.
004050C0 FF 99 EE 1F B5 9E EC 00 27 C0 00 12 F7 85 FF 4C ........'......L
004050D0 6E 68 BA 13 16 16 0F 39 81 DE 52 20 DF D2 F6 42 nh.....9..R ...B
004050E0 26 00 5E B7 B7 00 C4 41 19 07 64 38 A0 97 8E 78 &.^....A..d8...x
004050F0 CC 00 05 04 D8 00 E3 DB 8B EE 00 3B 0B C6 00 81 ...........;....
00405100 E1 FF ED B7 B1 76 1E A4 02 40 5D 9B 03 7B 51 42 .....v...@]..{QB
00405110 A5 00 98 42 00 7D CA FD 00 30 00 97 71 6C BB FF ...B.}...0..ql..
00405120 11 00 82 AA E8 00 07 F0 BE F2 00 C0 28 FF 00 7A ............(..z
00405130 81 DC 67 02 3F FF F7 72 FF 0F 31 00 C9 B1 66 00 ..g.?..r..1...f.
00405140 A5 FE 87 3E 8C 02 AE 4E 03 ED D3 F1 3D 28 00 2E ...>...N....=(..
00405150 FD 3D 8E A2 EE FF 70 F7 84 DB 04 A1 00 FC 00 00 .=....p.........
00405160 4D 66 93 7B 44 A7 80 C9 32 00 09 20 83 04 61 DD Mf.{D...2.. ..a.
00405170 C9 E1 00 37 B1 A1 CA 8B 6F B8 37 01 2F C6 FF 00 ...7....o.7./...
00405180 75 F5 3A 94 5C 15 89 7C 3E 2F 00 43 EE 7F FA 9D u.:.\..|>/.C....
00405190 03 00 A3 C1 06 D7 96 7E 44 47 3D 16 2B 67 CF 00 .......~DG=.+g..
004051A0 32 00 11 E7 D8 4A 4C 31 ED 66 47 8F 8C 80 37 84 2....JL1.fG...7.
004051B0 74 EF FB BD 5E 26 39 79 FF 04 63 D5 20 FF 2C EE t...^&9y..c. .,.
004051C0 96 0E 2A 87 4C 00 E5 C8 52 9A 72 B3 FF 40 DE 00 ..*.L...R.r..@..
004051D0 7F 8F 5A F7 3E CC F9 3B AE E5 CA 88 52 9E 5C F3 ..Z.>..;....R.\.
004051E0 00 B1 46 DF 36 00 04 90 00 81 C8 00 D1 CB 00 83 ..F.6...........
004051F0 F6 38 1A 1E 13 52 56 D0 26 A9 66 E4 69 24 FF 36 .8...RV.&.f.i$.6
00405200 99 09 40 99 00 F0 52 32 61 00 70 00 1F 7C E3 00 ..@...R2a.p..|..
00405210 17 0C 1C 26 63 5D 0C F1 00 00 D1 D6 A5 82 52 89 ...&c]........R.
00405220 DE 7E 13 66 70 CC C0 1A F9 FF 00 C2 FF E3 FF 39 .~.fp..........9
00405230 EC FE 9E E4 8A 0C 8E 2B 8D 1F A1 07 77 18 30 91 .......+....w.0.
00405240 15 00 43 03 9F F8 A6 86 06 B8 EC 09 00 9F 5F 00 ..C..........._.
00405250 E8 46 BD 00 68 11 38 FD FE 9B C7 16 D7 2B 1A 7C .F..h.8......+.|
00405260 6E BC BB 3C 88 00 CD B7 72 F0 3F 00 A3 AC A3 DF n..<....r.?.....
00405270 8E 11 C0 00 EB 3D EB A4 C7 DD 6B 6F 00 BB 58 00 .....=....ko..X.
00405280 47 87 AA E2 73 64 75 8B E3 60 1A 00 8A 83 E1 17 G...sdu..`......
00405290 DE AF 37 1A C7 FF 00 CD FF BF 60 DB 0F 65 02 00 ..7.......`..e..
004052A0 2D D7 C6 B2 DE 15 A3 C6 36 00 91 C0 4D 00 1A 44 -.......6...M..D
004052B0 FF CD 50 A3 00 C3 13 F9 38 12 04 4B CB 00 00 16 ..P.....8..K....
004052C0 E2 20 39 C1 36 AD CF FF AD BC 9D F6 71 F9 B2 32 . 9.6.......q..2
004052D0 44 FD 01 96 5B FC FF E0 50 00 5B 96 0C 76 C8 00 D...[...P.[..v..
004052E0 E7 00 7C C3 82 42 A5 7D 62 66 FF 1D 50 10 C3 1A ..|..B.}bf..P...
004052F0 5D 80 3E 24 24 3F 18 BB FF 94 57 00 D0 A0 48 02 ].>$$?....W...H.
00405300 13 E4 68 C3 8E 09 B1 82 E8 E0 E0 BD 73 AB 0E FE ..h.........s...
00405310 22 16 00 8D 3F 64 E7 01 00 47 55 6C 98 03 AB 09 "...?d...GUl....
00405320 00 00 FD 7D 58 9D 17 6E BB 17 1D 61 46 D1 13 71 ...}X..n...aF..q
00405330 E0 71 39 15 D8 3C 1F 3D C8 00 00 2C 3E C1 0F D7 .q9..<.=...,>...
00405340 97 72 00 E9 41 6A 58 2D FF 60 8F D6 9C 41 E5 B5 .r..AjX-.`...A..
00405350 8C FF 68 EB 75 A2 FF FF 72 67 19 74 50 41 4C E2 ..h.u...rg.tPAL.
00405360 B5 93 00 FC 1D 7E 00 0F D3 25 22 03 E4 00 BF 40 .....~...%"....@
00405370 D1 CC 36 87 2A 5D 00 8F 7E A3 34 00 00 8E 25 C6 ..6.*]..~.4...%.
00405380 84 97 30 0E 07 9C CD 0E D5 D4 72 6F 00 13 FF DE ..0.......ro....
00405390 00 49 3B 4F 00 00 85 F6 FB 51 F6 20 97 1F 11 3C .I;O.....Q. ...<
004053A0 97 5C 00 00 67 65 A4 8C 1C CC 4A 82 38 B6 68 60 .\..ge....J.8.h`
004053B0 52 4D 75 62 DE D2 A4 00 E5 C6 04 EB 05 DB 4B 8B RMub..........K.
004053C0 E7 7C 60 2E 20 00 58 FB 8A 78 FF 00 40 E0 44 CE .|`. .X..x..@.D.
004053D0 50 E5 00 55 B5 E0 DC B6 22 54 B8 54 25 D7 64 FB P..U...."T.T%.d.
004053E0 0B C0 32 00 36 C2 0F 97 D5 EF 30 15 A7 FC 8C EE ..2.6.....0.....
004053F0 15 47 B8 9E 5F 1A B9 55 1F 23 27 D3 FF 00 EE 43 .G.._..U.#'....C
00405400 EF D5 00 00 DF 8A 78 6A 1D 71 DF 00 FF 5B A3 D9 ......xj.q...[..
00405410 8C E8 CC 53 18 00 E9 14 B8 3A BA 3C 2C B3 30 E0 ...S.....:.<,.0.
00405420 87 C2 D1 F8 FF 51 6F FF 17 43 ED 00 00 FF CD 35 .....Qo..C.....5
00405430 05 00 3C 70 EB 6A 00 00 DE 02 00 EA EA 5E F4 FA ..<p.j.......^..
00405440 8F 62 85 FF 0E D8 C8 E8 AD A0 B9 A0 0B 83 3D CC .b............=.
00405450 24 04 00 B6 00 BF 00 B1 AD E3 78 64 00 81 05 3D $.........xd...=
00405460 99 01 9E 01 15 3C 80 74 DC E9 28 B1 02 00 FF C6 .....<.t..(.....
00405470 7E 2D 5C F2 C8 1A 50 D3 00 24 1B 6F EF EE 88 00 ~-\...P..$.o....
00405480 F7 A9 2D A3 38 BE E3 13 A1 A9 00 03 B4 05 54 94 ..-.8.........T.
00405490 41 02 7B 0E 80 94 5E 00 38 86 39 01 8A AF 14 FF A.{...^.8.9.....
004054A0 A5 FC 06 5D 10 C4 00 02 80 00 C1 83 00 AE EA 00 ...]............
004054B0 2D 00 7C C8 A7 0B 7B 29 F0 4D FF C4 7A 73 7E C0 -.|...{).M..zs~.
004054C0 E7 57 00 5F 00 10 CD FE 81 A6 8B 8B BB 36 F5 62 .W._.........6.b
004054D0 04 3C E4 C4 8C 27 27 49 ED 07 97 78 1A 4A 00 00 .<...''I...x.J..
004054E0 46 00 49 11 23 EC 19 2D 66 00 DB 00 00 D8 10 EF F.I.#..-f.......
004054F0 B2 43 00 1F 97 15 E8 00 DC 00 32 76 C2 9C 69 A0 .C........2v..i.
00405500 F9 C8 3B 8E F7 4C FF 00 D5 D3 00 B3 02 FF 6A 36 ..;..L........j6
00405510 FF 2E 21 FD BF 77 8F 54 CD 31 A0 3A 00 00 FD 00 ..!..w.T.1.:....
00405520 00 1D 16 E1 5C 52 D2 21 15 4A C5 B0 CE 00 3A E2 ....\R.!.J....:.
00405530 41 C6 7F 43 06 A7 FF B7 33 00 D7 97 3F CC 26 A4 A..C....3...?.&.
00405540 C2 8E 4F 02 18 8A 21 B1 39 00 B3 72 A3 9A 00 9B ..O...!.9..r....
00405550 EF 7B 02 7B C9 D8 3E B5 10 FF 6C A0 C4 00 DA 13 .{.{..>...l.....
00405560 A5 56 51 10 17 4A 00 5D 4D 53 79 00 03 7C 3A A3 .VQ..J.]MSy..|:.
00405570 2F 14 00 6C A5 45 F8 F0 D7 0E 20 00 C5 07 E9 AE /..l.E.... .....
00405580 06 3D 00 E8 F4 4C 08 DD E0 70 37 61 C3 36 C5 09 .=...L...p7a.6..
00405590 8B 54 92 E8 C1 40 E1 8E 70 53 34 F2 87 6F 00 FF .T...@..pS4..o..
004055A0 00 00 FC 07 F2 96 F1 00 AB 6C 00 B0 00 00 52 00 .........l....R.
004055B0 AB FF E5 7D 00 FF FF F1 EF BD C8 32 9F AD 69 AA ...}.......2..i.
004055C0 1B C2 11 51 83 FD 74 2E 85 1C 00 9D 48 CF 15 EF ...Q..t.....H...
004055D0 7A 94 A4 48 E2 26 99 42 10 4E B2 5C 00 93 00 EA z..H.&.B.N.\....
004055E0 EB 00 C5 08 91 10 C4 6A DE CB CF 50 CB 12 97 15 .......j...P....
004055F0 00 FF 72 58 D5 00 00 C8 BC 44 E0 03 FF A4 7A 00 ..rX.....D....z.
00405600 E6 7A 14 75 F0 40 35 02 9F ED D9 76 28 7C 0F 03 .z.u.@5....v(|..
00405610 0F 0D 41 FE 00 50 39 02 5D 0A 6A 54 AC 6F 4C AD ..A..P9.].jT.oL.
00405620 CE BC 3C FE FA 3B 00 E5 DB 1C 00 70 00 DD 16 26 ..<..;.....p...&
00405630 AE 73 8E FF 5F 5C 5D 48 9C 4B C4 67 18 94 FC 83 .s.._\]H.K.g....
00405640 D5 00 4E 75 24 00 BC F1 FC FF E8 FE 98 75 13 B6 ..Nu$........u..
00405650 18 00 FF FF 48 2F C6 7A 2C 00 C4 01 87 89 17 B4 ....H/.z,.......
00405660 3B 7E 00 7A 34 D6 22 41 5A C2 D8 FF 9A CE 5D 15 ;~.z4."AZ.....].
00405670 00 7D BD 0E 7A 00 17 48 E4 0A 01 2F 00 4C 0C 46 .}..z..H.../.L.F
00405680 EC A9 08 21 00 C0 00 AF B9 35 25 05 2A 12 89 00 ...!.....5%.*...
00405690 00 83 89 4F 32 83 0A 54 FF 00 04 75 20 B8 38 81 ...O2..T...u .8.
004056A0 30 05 18 5C FA D0 C5 30 B0 30 70 33 F9 93 CE C3 0..\...0.0p3....
004056B0 FD 00 00 00 5C 00 93 01 9D 00 C6 00 00 D8 00 00 ....\...........
004056C0 80 50 88 EC 66 03 00 FF 84 66 AE 0F 56 00 74 C8 .P..f....f..V.t.
004056D0 F8 81 C0 00 FF 93 91 17 EF 70 FD 15 25 FA 28 8D .........p..%.(.
004056E0 A6 42 97 59 1F FF FF 66 75 95 78 CF 00 FE 19 01 .B.Y...fu.x.....
004056F0 F9 1C C0 70 59 07 30 8C E8 5B 2F 51 85 96 58 00 ...pY.0..[/Q..X.
00405700 FF D8 81 71 05 7A EC 00 68 3F AC 06 00 3B 19 17 ...q.z..h?...;..
00405710 3C A8 A8 24 E5 E2 18 83 20 6D 37 79 B7 00 AC CD <..$.... m7y....
00405720 90 A8 0B DB 41 A7 00 58 5E C0 98 FC AC 7F 00 7F ....A..X^.......
00405730 5A 19 00 AF 00 71 E4 00 00 62 69 25 2D 00 BD 6C Z....q...bi%-..l
00405740 BA 23 48 1B D2 8D 20 00 80 86 13 BF F3 06 00 7D .#H... ........}
00405750 7F 26 6D 00 22 FF CE F8 77 73 00 BF 56 B0 00 2C .&m."...ws..V..,
00405760 BD 00 51 B0 F7 FD 00 9B 30 00 01 60 98 FF 1A 6B ..Q.....0..`...k
00405770 FF 00 3C 9F 00 0F B5 5F 74 C3 AB 43 A5 62 9F 70 ..<...._t..C.b.p
00405780 4F 60 AD 56 00 D3 73 35 76 0C EB 03 79 D1 D8 79 O`.V..s5v...y..y
00405790 E7 6E 14 7B 6C DF DE 5A C5 77 50 CF F1 1A 98 FD .n.{l..Z.wP.....
004057A0 0E 77 D4 53 00 E4 82 FF 8C 6E 35 00 47 99 F6 DE .w.S.....n5.G...
004057B0 00 93 1B D3 11 FF 00 C4 22 42 52 60 4B 0C 8E A9 ........"BR`K...
004057C0 07 00 70 FC A8 AB 87 00 43 9E 38 9E 66 99 4B 59 ..p.....C.8.f.KY
004057D0 F6 63 FF FA 7E 04 00 00 2F 8D A0 53 08 D4 88 46 .c..~.../..S...F
004057E0 98 00 76 2B 70 37 F3 FB 4C E7 5D FF F5 80 C4 1B ..v+p7..L.].....
004057F0 38 DC 00 7F F4 93 7E C3 00 00 E7 87 99 00 00 00 8.....~.........
00405800 91 BC D2 33 00 2C 2D 00 63 C3 E0 1A 49 35 23 00 ...3.,-.c...I5#.
00405810 FF 00 00 FF 00 37 7A 00 00 00 00 14 03 F7 B9 00 .....7z.........
00405820 88 B6 0A B0 2E 3A FF 3A 45 81 00 F6 CE FC 9C F4 .....:.:E.......
00405830 C8 64 DF FF A3 AF 6D 5B 24 6E 66 CC 94 00 64 C5 .d....m[$nf...d.
00405840 FF CF 6D 9B 00 C7 00 B9 13 01 00 00 70 4E D0 99 ..m.........pN..
00405850 A5 1C FF 85 22 11 1C 14 73 73 18 A5 00 00 40 15 ...."...ss....@.
00405860 7A 00 BB 00 3F 00 4D 00 C6 F9 87 7A 00 ED F2 00 z...?.M....z....
00405870 10 3C CB 26 8C 00 99 FF B4 3F DB 91 CB 7F 16 0A .<.&.....?......
00405880 E6 37 E0 7E 06 ED E9 CB CC 22 C0 3E 03 C1 F4 A0 .7.~.....".>....
00405890 FF 71 5B 43 44 80 0C 64 5E 5B 00 A7 E6 00 7F E0 .q[CD..d^[......
004058A0 40 D3 53 F4 CE E8 1D 75 7A 00 69 08 C5 9C 92 2E @.S....uz.i.....
004058B0 0B 56 10 00 6F 12 00 C5 CE 33 A2 6A BD 00 84 D4 .V..o....3.j....
004058C0 7F B9 1F 02 52 02 2B 47 E2 24 DB 3B 00 93 3F 6F ....R.+G.$.;..?o
004058D0 05 00 FC 6E FF EF 1A FF 3A BC 24 00 2E FF 1E 5C ...n....:.$....\
004058E0 10 5D 00 BA A3 E4 57 00 54 D3 8A 3B C8 00 F4 98 .]....W.T..;....
004058F0 20 2F F8 BD FF 69 9A FF A8 BF F3 C3 0C 00 C5 CA  /...i..........
00405900 61 1C D0 81 D4 54 00 E8 40 24 24 55 29 A1 16 C2 a....T..@$$U)...
00405910 4B 15 D8 16 3F 3E A8 B0 26 38 00 E1 4F 03 18 F6 K...?>..&8..O...
00405920 00 00 11 D7 FA E5 33 90 25 E0 42 F1 A1 E3 CE CE ......3.%.B.....
00405930 F0 0E A3 00 00 91 92 00 58 00 08 20 51 68 26 0B ........X.. Qh&.
00405940 86 81 F8 42 ED C3 00 A5 17 77 E2 94 EB A4 13 A9 ...B.....w......
00405950 00 10 16 57 00 00 B6 87 8F FF 00 0B 32 00 FF 00 ...W........2...
00405960 C5 6E 33 99 D7 97 00 F6 08 7E 00 00 05 95 D8 62 .n3......~.....b
00405970 89 E4 FF A5 CF 7A C2 33 23 0C 3B 02 28 33 44 2A .....z.3#.;.(3D*
00405980 63 6E 11 FF 54 C8 A8 00 2A 42 0E E0 0F 2A 5D B6 cn..T...*B...*].
00405990 10 FF 96 72 00 58 4B 96 44 17 00 D9 A0 FE 31 F3 ...r.XK.D.....1.
004059A0 43 04 70 5A AD FF 76 8C D7 E1 43 77 0B 4F 5D 70 C.pZ..v...Cw.O]p
004059B0 FF 2F 84 E2 89 D6 9B 91 35 0A 87 C9 72 00 28 E1 ./......5...r.(.
004059C0 44 C0 4B B9 77 99 3C 9D 92 A1 A7 4D 91 09 B0 FF D.K.w.<....M....
004059D0 B8 DA A0 2C 00 C6 FF 00 0D EC 81 BC 36 1F 01 DF ...,........6...
004059E0 B8 12 FF 71 00 C7 9A 46 E7 00 92 18 2D 89 40 7E ...q...F....-.@~
004059F0 89 85 1D 38 6D 8B E3 77 3C 96 2A 1C CA A3 60 13 ...8m..w<.*...`.
00405A00 8D 76 BB 92 02 28 55 18 A5 1E D8 00 A4 A7 36 00 .v...(U.......6.
00405A10 C3 FE 82 3C 80 7F ED FF 28 39 3E B9 23 8C 81 0F ...<....(9>.#...
00405A20 00 FE C0 B9 00 28 FF 90 C7 36 17 DD 00 03 E8 45 .....(...6.....E
00405A30 35 07 8B 11 EF FF FF D8 EA FF 46 11 99 39 42 00 5.........F..9B.
00405A40 AA 00 00 4E 02 63 6F 7C 67 87 75 B1 FF 61 D8 C5 ...N.co|g.u..a..
00405A50 54 FF 00 0E BF D1 18 00 AD 00 21 FF 12 A1 87 00 T.........!.....
00405A60 66 0A 9F FF 24 00 90 91 8B C0 19 6C 02 F4 45 00 f...$......l..E.
00405A70 F0 08 2C 04 62 BC 10 D1 73 00 78 38 71 11 81 35 ..,.b...s.x8q..5
00405A80 05 01 93 64 FF 4E DD B2 16 53 00 D4 00 EE FF 00 ...d.N...S......
00405A90 8E FD 54 F9 FF C0 A1 7E D7 AC 00 00 7B 0E 00 C7 ..T....~....{...
00405AA0 50 0B 19 0A 51 00 69 96 60 00 66 8C 00 C1 BC 80 P...Q.i.`.f.....
00405AB0 5D 3B 68 FC 88 00 29 F8 47 00 C6 EA D1 6F DA A5 ];h...).G....o..
00405AC0 49 FA B3 E8 93 11 00 72 2D 55 D4 71 00 A7 0C 00 I......r-U.q....
00405AD0 58 8E C6 0C 00 95 39 21 B0 B1 02 48 2B F8 81 00 X.....9!...H+...
00405AE0 65 BF 2A AA 1E 03 D5 05 C4 4B DF 47 1A B9 99 C1 e.*......K.G....
00405AF0 00 00 25 5A 06 F3 DC 8F 30 23 0D 78 FF 22 00 D0 ..%Z....0#.x."..
00405B00 08 44 84 95 7F FF 65 70 00 F9 B4 DB 9F D8 5C 73 .D....ep......\s
00405B10 00 06 89 76 54 6D 6D 00 98 78 C1 29 B3 36 F5 EB ...vTmm..x.).6..
00405B20 00 08 FF 86 18 48 26 00 00 71 C7 57 02 51 C2 8B .....H&..q.W.Q..
00405B30 B5 00 38 95 C4 53 F7 00 2D 18 C3 65 1D 7E C7 6D ..8..S..-..e.~.m
00405B40 00 2A 00 4E 4F 3A D9 5F 30 4B DA 00 00 D6 56 7C .*.NO:._0K....V|
00405B50 C9 B9 09 00 18 63 83 33 89 59 44 6B 5E 08 F5 E1 .....c.3.YDk^...
00405B60 D6 67 B1 FF 1F 03 60 09 DA 00 43 8E 62 40 81 28 .g....`...C.b@.(
00405B70 C2 C8 D0 00 DC B2 79 1B FD 61 EB 09 1B AB 01 4D ......y..a.....M
00405B80 F3 00 97 52 00 FF B1 59 00 C7 17 D7 52 00 E8 C9 ...R...Y....R...
00405B90 14 4E FF 44 0E 47 00 7D E9 AE 18 91 FA 2D F7 29 .N.D.G.}.....-.)
00405BA0 C4 CC 06 00 64 DE 00 A3 F5 C0 C8 B1 80 81 00 1C ....d...........
00405BB0 5D 00 F2 D2 F6 C9 37 9D 45 05 87 00 80 91 F4 5E ].....7.E......^
00405BC0 83 72 91 FF AA 67 14 C3 1F 4D 00 62 CE D3 18 1A .r...g...M.b....
00405BD0 DF 00 3C 53 00 00 8B 3E 00 D8 ED B6 77 FF 03 00 ..<S...>....w...
00405BE0 CF 18 4F 0C 27 8B 34 FF F2 93 FF 00 AD 39 13 5A ..O.'.4......9.Z
00405BF0 00 09 68 CB 9E 88 00 83 FF E1 E4 00 00 0F DB FD ..h.............
00405C00 09 FF A5 55 C5 2A 00 00 A3 9C 0E 00 AA 00 29 CB ...U.*........).
00405C10 B0 91 D8 00 00 75 0B 21 77 FF 38 8F 7A 7D FE 9A .....u.!w.8.z}..
00405C20 00 8F C2 7B E0 86 FF 91 0C B7 00 36 E1 FF 06 DA ...{.......6....
00405C30 2A 00 DE E2 E9 9B F7 A7 5E E4 16 10 14 3E 31 00 *.......^....>1.
00405C40 7F CF 69 AB F4 FF 53 3E 08 A1 61 00 73 01 B3 F3 ..i...S>..a.s...
00405C50 06 80 E4 7B 89 1E B9 1F 8E B8 E1 C8 85 EC A1 B1 ...{............
00405C60 16 19 00 C0 27 00 EE 30 85 85 00 DB F5 87 5F 6C ....'..0......_l
00405C70 28 43 30 00 95 EB 1A 34 CE 45 30 88 14 F7 D3 25 (C0....4.E0....%
00405C80 48 61 87 44 D3 F5 17 01 00 D7 59 3A 1B 66 BD 00 Ha.D......Y:.f..
00405C90 2E C1 10 00 FB F9 3D 15 00 08 CD 73 00 9C FA 56 ......=....s...V
00405CA0 6C A2 18 D9 12 F1 25 00 C0 8C 00 58 27 00 FF FF l.....%....X'...
00405CB0 F1 B8 00 AE FF 93 82 78 83 BC B7 8B D6 F9 7B 00 .......x......{.
00405CC0 1A 25 86 FE D5 00 00 5D AA 9C 00 00 31 23 D8 00 .%.....]....1#..
00405CD0 5B FF FF 00 7B DF B1 00 8E 43 77 80 5A 71 D4 59 [...{....Cw.Zq.Y
00405CE0 30 69 7B 02 D0 81 84 27 F6 11 00 17 0B D1 10 08 0i{....'........
00405CF0 79 00 EF 16 00 EC 79 AC 81 9B ED 30 00 CE E0 26 y.....y....0...&
00405D00 FF 74 27 94 97 F2 5B 95 27 7E BD 95 BF 60 54 43 .t'...[.'~...`TC
00405D10 D1 8F 7D 98 DF FF 7B D4 B7 FF 48 FF 81 0B 13 71 ..}...{...H....q
00405D20 84 A2 E2 D8 54 07 FD 9E 52 E4 06 7B D8 FB F1 FF ....T...R..{....
00405D30 B7 03 F8 D5 00 E5 8D F8 64 99 31 E6 0E 90 EC E8 ........d.1.....
00405D40 00 82 69 F9 00 00 28 BD 60 0E 43 A1 34 00 BB 00 ..i...(.`.C.4...
00405D50 CB EC 5F 00 A5 5E E0 8D 37 CB 2D D4 14 CE 71 AD .._..^..7.-...q.
00405D60 83 86 01 62 4E F8 00 CE AE C3 C6 7A 47 DD D0 00 ...bN......zG...
00405D70 2E 63 CC 21 3E A2 0D 8A CD 00 46 19 00 38 DE FE .c.!>.....F..8..
00405D80 76 06 00 E0 89 13 00 61 5A BE D1 00 08 F4 50 B0 v......aZ.....P.
00405D90 64 02 65 E5 80 00 00 01 42 FF A1 69 00 B1 E3 0B d.e.....B..i....
00405DA0 47 00 E2 3B 3E CF 01 00 E9 FF E2 37 00 82 E4 43 G..;>......7...C
00405DB0 00 00 28 AF FF 0F F5 8F 02 7E 01 03 4D 00 E0 81 ..(......~..M...
00405DC0 F0 50 1B 52 1A E7 0E 81 61 B6 00 BA FF 09 4E 39 .P.R....a.....N9
00405DD0 00 00 B8 08 40 09 28 6F 04 00 00 1D 3D 00 34 E1 ....@.(o....=.4.
00405DE0 FF 7B FD D1 6C 0F 69 2E A1 00 5D 9E A0 3E 96 10 .{..l.i...]..>..
00405DF0 47 6E 00 CA 1D 2B 7A 00 7F 24 BD 09 A8 E6 10 F8 Gn...+z..$......
00405E00 B3 E4 FF F8 D2 4C 7E 0F FC F5 E3 00 BF 00 00 61 .....L~........a
00405E10 29 83 FF 79 60 21 D5 7E 83 FE 25 F2 E0 E1 11 74 )..y`!.~..%....t
00405E20 87 DF E2 0C 1B 00 00 7C 79 80 51 CD B4 54 1B 44 .......|y.Q..T.D
00405E30 D9 16 0D FF 46 60 A8 F9 4A B7 00 A2 54 00 C1 34 ....F`..J...T..4
00405E40 53 FD C7 80 88 FF 78 0F D5 48 51 BF 38 00 05 CC S.....x..HQ.8...
00405E50 04 10 C0 68 00 AC 27 00 0B 07 FF DD 65 3E 37 F8 ...h..'.....e>7.
00405E60 00 E6 6A D8 18 E3 00 04 4E 6E 5D 04 98 02 CB 00 ..j.....Nn].....
00405E70 B7 19 8F BC 51 40 28 62 00 51 93 00 3E 46 00 45 ....Q@(b.Q..>F.E
00405E80 89 00 0F DF 07 5A F8 FF E2 FF 2E 00 00 00 03 D7 .....Z..........
00405E90 D1 00 F8 44 92 B2 04 F1 90 00 BE FF 78 BC F8 00 ...D........x...
00405EA0 00 00 A6 00 CF AB D0 A4 C4 03 BF 8B AD 38 73 7F .............8s.
00405EB0 8A 82 5A B8 F5 6A 76 77 68 96 00 BB B5 58 23 7F ..Z..jvwh....X#.
00405EC0 CB FF 30 49 CC 6C FF 10 38 00 3F B1 AC C2 00 09 ..0I.l..8.?.....
00405ED0 19 D1 CA 02 5B 66 6A 72 53 67 00 31 15 D3 81 00 ....[fjrSg.1....
00405EE0 D8 1B 85 20 6A A8 3D 65 B9 2E 4B C8 4F 9C A7 98 ... j.=e..K.O...
00405EF0 00 BF 45 FD 31 90 02 C1 91 0B 0B 90 9F E2 7F E6 ..E.1...........
00405F00 FF 1D C7 24 4F FD DB FF 00 3D 69 42 DD 46 5D 26 ...$O....=iB.F]&
00405F10 46 C0 F5 A7 0C 64 00 52 1F A8 06 00 09 7C F3 8F F....d.R.....|..
00405F20 D1 96 69 00 3B 1D 99 A4 34 93 19 62 7D 8B ED 12 ..i.;...4..b}...
00405F30 BE C6 40 56 00 37 0C A9 03 A8 7E 46 4C 48 58 FF ..@V.7....~FLHX.
00405F40 00 9D 32 83 FF AF 05 A0 13 A4 F7 BC 12 00 D6 FF ..2.............
00405F50 69 4C BD 00 00 30 12 00 CC 16 7B F8 DE 8B 2C 76 iL...0....{...,v
00405F60 00 00 F6 B7 00 27 35 83 E1 63 00 DE 75 00 7D 41 .....'5..c..u.}A
00405F70 EF 3C F4 BB 38 8B 8E CB 85 C6 C8 79 91 37 14 00 .<..8......y.7..
00405F80 00 14 E4 FD 56 01 1C 00 05 FE CD 94 98 33 08 0E ....V........3..
00405F90 6A 86 5B 64 40 6A 10 00 2F A7 00 B0 FF 00 7E 00 j.[d@j../.....~.
00405FA0 86 24 00 52 CA 1C 65 02 CE 2A 18 02 75 5B F4 F0 .$.R..e..*..u[..
00405FB0 C4 1A 70 F7 BB DD AE 95 7D F4 54 C4 9F 56 E9 99 ..p.....}.T..V..
00405FC0 00 1F 24 47 6F 1F 87 18 74 E0 E7 F9 70 2E FE EC ..$Go...t...p...
00405FD0 00 A6 F9 3F 7E 00 13 CA 7F 41 0F 00 FC 76 10 91 ...?~....A...v..
00405FE0 00 FF B6 22 47 FF 08 BA 8E B3 36 08 00 C2 14 40 ..."G.....6....@
00405FF0 23 00 78 10 C9 FC 04 3B 00 00 15 EF EC 9B C0 04 #.x....;........
00406000 40 A3 FF 7A 93 CB AE 15 CF BA 48 1F 5E 15 1C 00 @..z......H.^...
00406010 8B C1 00 A6 4E D1 FF 00 FF 4E 23 1A 5C F3 3F FE ....N....N#.\.?.
00406020 35 CC 79 63 01 AF 00 11 00 5C 74 E5 E1 6E 8C 00 5.yc.....\t..n..
00406030 24 FD 48 4D 21 00 33 D1 FF 00 8A 20 9D 2C 77 00 $.HM!.3.... .,w.
00406040 F6 00 00 C1 00 AA 3E EA B4 0C A7 5F D8 9F 30 FB ......>...._..0.
00406050 00 38 F3 85 AA 0E 6E 72 15 EE 1C 79 00 C7 61 1F .8....nr...y..a.
00406060 00 06 00 32 B0 29 3F 00 00 1F 80 E9 7F C7 59 1B ...2.)?.......Y.
00406070 D1 80 00 9C EE 60 31 C7 82 FC 8C FF 85 FF 2A 58 .....`1.......*X
00406080 D1 41 B1 C6 FB 10 F6 FF 15 00 00 D0 5D FF C4 1D .A..........]...
00406090 95 7A 4A 61 52 13 FF 00 E7 AD 00 E6 59 87 F8 D8 .zJaR.......Y...
004060A0 79 93 FF 00 00 00 D9 F5 9C 6B 45 41 07 10 FF 9B y........kEA....
004060B0 55 B3 71 9B 0C D3 64 00 16 6C 88 B4 76 45 00 83 U.q...d..l..vE..
004060C0 57 C2 0A C3 04 9E 36 23 FF B6 FC F0 00 D7 4B 00 W.....6#......K.
004060D0 32 00 00 AE 0F 60 72 16 E4 00 8D 96 38 D5 FF 04 2....`r.....8...
004060E0 00 00 00 00 37 20 00 B8 4B B8 82 C3 0C D5 30 7B ....7 ..K.....0{
004060F0 CA ED 00 00 00 10 E1 D0 A9 85 64 00 CF 6C FF 6F ..........d..l.o
00406100 03 67 00 04 BF 04 FA 07 88 21 36 5A 00 96 D3 0C .g.......!6Z....
00406110 61 16 0B 68 63 8B 00 40 64 30 60 02 0E 28 14 1D a..hc..@d0`..(..
00406120 D0 ED 85 B9 3E 6C CD E7 4E 48 EC 00 0D 6F 4E 19 ....>l..NH...oN.
00406130 90 75 8B 5D 3B EA 00 8D FC 38 00 FD 7E B6 D1 00 .u.];....8..~...
00406140 00 26 49 C6 08 E3 81 00 BD 25 6D 02 A9 CF 00 A6 .&I......%m.....
00406150 00 00 00 FF 57 00 07 2E 1B 00 07 62 51 11 06 C1 ....W......bQ...
00406160 CC E1 0F 86 E8 34 33 A9 86 C7 00 5A A6 02 1D 5E .....43....Z...^
00406170 63 28 1C FF 0F 27 43 1C 00 14 6A 57 0E A0 AB BF c(...'C...jW....
00406180 91 10 FF AD EC FF B9 0E 00 AA 6D 79 B0 24 CD 9C ..........my.$..
00406190 08 C8 08 25 FC 5F F4 F1 00 46 10 A1 4B 5C 00 35 ...%._...F..K\.5
004061A0 6F F4 2D 1B 08 07 D9 00 62 FF 00 64 04 EB 60 00 o.-.....b..d..`.
004061B0 00 60 EB 25 C0 7F 2F 92 D5 00 9B 3C 71 AA F0 00 .`.%../....<q...
004061C0 36 A8 0F 41 E6 59 7F 80 84 5E AA D2 D4 47 CA 15 6..A.Y...^...G..
004061D0 71 1D D1 83 FB F0 FB 4E FB 03 00 B0 7C C6 75 00 q......N....|.u.
004061E0 B5 01 40 42 87 F6 F0 D5 E4 04 DD FF EB 87 5F 57 ..@B.........._W
004061F0 C4 4E 60 EA 43 8A BA A3 0F E8 86 55 FE B4 00 67 .N`.C......U...g
00406200 4B 40 65 AB 00 FF 00 BD 00 51 24 8E 85 6D BD 7A K@e......Q$..m.z
00406210 20 66 BF A6 00 28 64 C4 38 0E 00 7B 00 0C 27 5C  f...(d.8..{..'\
00406220 00 FF 30 05 35 97 6D D4 D4 2D EF 95 6E AF 00 EF ..0.5.m..-..n...
00406230 6B E1 00 6D DC BE E2 17 06 8D DA B1 8B 91 04 26 k..m...........&
00406240 0D 0C DE 50 C6 00 FF 53 6E 5C 0E 1C 58 52 4D 00 ...P...Sn\..XRM.
00406250 22 00 FB EF A0 0A 6A 78 70 60 EF 40 FF 00 6A FF ".....jxp`.@..j.
00406260 1B 00 00 3E 17 99 B0 FD A8 00 A3 85 F7 00 9E 20 ...>........... 
00406270 50 FF 00 65 00 00 0A AC 00 28 72 F6 FF EB 91 2D P..e.....(r....-
00406280 D7 88 F2 20 3B FF AE 47 C4 00 00 18 EA FF 62 87 ... ;..G......b.
00406290 56 34 83 00 00 3E 94 F0 4A 00 B5 8D 76 25 87 32 V4...>..J...v%.2
004062A0 84 3F 7C 10 23 79 00 E0 9D 7C 32 FF BF C3 5D FF .?|.#y...|2...].
004062B0 97 46 D1 C0 AA E4 CC CD 4D E0 4C 00 12 21 71 C7 .F......M.L..!q.
004062C0 36 A2 68 E5 00 4B 08 00 6F 00 A3 6E 38 00 36 49 6.h..K..o..n8.6I
004062D0 00 CD BF F8 00 03 CA 7A CF 68 08 CF B3 FF 00 78 .......z.h.....x
004062E0 1D AC 00 5F 00 00 5A 07 79 05 CD FF 28 79 00 B4 ..._..Z.y...(y..
004062F0 01 20 3A 00 E4 DB ED 61 D0 56 61 8F C4 FF 00 0C . :....a.Va.....
00406300 23 10 00 BE FA 1A DB 1B 00 AD F5 A6 00 5B 08 94 #............[..
00406310 FE EE A3 5C 6A CA 3E 21 48 A7 27 7A FF 12 B2 C1 ...\j.>!H.'z....
00406320 3E 51 00 57 00 7F 00 E1 92 52 B3 34 40 15 8F DF >Q.W.....R.4@...
00406330 07 57 85 00 C8 08 AE C5 7E F2 61 80 FE 5A E3 E7 .W......~.a..Z..
00406340 A0 83 B1 64 42 00 D3 CC 38 48 95 00 79 FF 01 11 ...dB...8H..y...
00406350 26 C2 E3 F3 F6 87 21 FF 00 3F 00 D1 33 00 28 67 &.....!..?..3.(g
00406360 E0 5F 58 C0 88 7A 0F F5 E4 FB CC F3 B5 A9 EE 9F ._X..z..........
00406370 13 11 18 80 BE 53 1E 1F 6B 7F CD 60 6E 42 00 A9 .....S..k..`nB..
00406380 44 00 D4 CF 00 79 83 42 04 00 00 A0 02 FA 00 AE D....y.B........
00406390 9E 0C 9E 47 02 EA 2C 00 C8 F1 85 D6 FF 3D 72 02 ...G..,......=r.
004063A0 00 00 10 FD 1C 8E 01 D4 49 00 89 ED C9 28 00 47 ........I....(.G
004063B0 4F 00 99 69 0E 57 72 63 FF DB E1 3C 0E 28 AD 88 O..i.Wrc...<.(..
004063C0 CA 00 D0 DB B6 70 FE 00 00 06 01 CC E9 61 FE 4F .....p.......a.O
004063D0 B6 33 FC CC AD 20 36 2A 74 BF 27 3A 59 CA 00 60 .3... 6*t.':Y..`
004063E0 6C 6C 04 9D 83 00 FF 01 69 04 8E 89 EF DF 5E 82 ll......i.....^.
004063F0 AB 00 02 FF 7F 00 B2 B6 C1 FF 0F AF 00 C4 03 00 ................
00406400 3C E6 04 A4 63 92 79 24 34 83 C8 83 47 E8 2E D2 <...c.y$4...G...
00406410 9D C6 23 3E 09 0D 2E 00 84 99 5B 37 2B B4 CE FF ..#>......[7+...
00406420 BA 31 3A FF 54 0D 00 00 E1 F7 00 7A 7C 00 EF 29 .1:.T......z|..)
00406430 00 2E FF 00 35 44 07 7A 70 00 1C A1 EB 04 00 00 ....5D.zp.......
00406440 E7 00 07 50 55 D7 0F 4C 40 00 FF 88 71 0C FF 28 ...PU..L@...q..(
00406450 00 8B B9 B5 7B 00 8F 40 00 2A 00 FD 05 D8 10 20 ....{..@.*..... 
00406460 05 B4 C6 04 61 E7 20 4D 31 F8 DD AE 18 CD D9 7E ....a. M1......~
00406470 A9 97 A4 12 C1 00 00 92 FF 03 78 38 46 DD 38 77 ..........x8F.8w
00406480 00 B9 D8 33 F8 27 26 A6 94 00 51 97 00 00 CF C6 ...3.'&...Q.....
00406490 EA 13 72 E7 0F 00 CC 4E 6D 62 82 E4 00 6F AE FF ..r....Nmb...o..
004064A0 B0 E4 4A D4 B6 8B 00 3E 00 00 DC ED 5E 00 47 26 ..J....>....^.G&
004064B0 FF 9B 94 00 FF 3C 90 4E 9D FD 54 0D 2C A4 54 F4 .....<.N..T.,.T.
004064C0 AC C1 E2 05 02 F1 60 72 77 08 FF 4D A1 C9 00 FF ......`rw..M....
004064D0 88 38 00 EA A1 2A D7 00 00 81 C6 00 00 46 00 73 .8...*.......F.s
004064E0 00 FF 00 5A 72 8F 00 DD 35 00 C9 83 00 FA AC F0 ...Zr...5.......
004064F0 72 D8 26 41 03 AC 01 1B 7B E8 BD 63 30 F7 D1 05 r.&A....{..c0...
00406500 00 53 D8 99 A0 01 70 70 0F E3 D8 41 8C F2 88 7A .S....pp...A...z
00406510 0A 00 B6 FC C7 57 7F D5 00 E1 89 42 92 60 10 00 .....W.....B.`..
00406520 61 45 B6 00 00 FF BB D6 FF 71 57 FD A8 00 97 C4 aE.......qW.....
00406530 B3 00 46 F8 BB FF E1 CD FF F1 50 D7 F4 A5 BF 0A ..F.......P.....
00406540 7A 58 FF 86 4C 5F C4 AC 00 00 E1 68 FF 00 94 EB zX..L_.....h....
00406550 F1 61 BC 96 FD 00 5E 15 C7 00 20 E4 21 00 A1 CD .a....^... .!...
00406560 3F CF 00 32 3D 8C 84 D3 09 B8 7E 35 60 67 39 00 ?..2=.....~5`g9.
00406570 00 85 27 16 44 3B C7 00 46 72 EC F1 7C B0 F7 34 ..'.D;..Fr..|..4
00406580 F8 E4 51 84 76 14 8C 27 47 E7 FC C9 14 CB 08 1B ..Q.v..'G.......
00406590 DA A7 FF 01 58 00 81 63 FF 10 40 0B BD 71 FF 1F ....X..c..@..q..
004065A0 BD 9D F9 96 00 A0 46 86 00 FC 61 8A 62 E8 FF 29 ......F...a.b..)
004065B0 F6 72 FF C3 7B F3 11 18 90 4D 54 DF FB 2E 80 39 .r..{....MT....9
004065C0 F2 17 B1 E8 B5 7E 5C 00 E4 00 FB 8E 81 00 CE 00 .....~\.........
004065D0 EA 00 00 FA DE 00 00 61 E3 72 00 87 00 3E FE B7 .......a.r...>..
004065E0 60 DB 10 D2 C5 41 00 00 0F AA 40 3A 80 00 37 D6 `....A....@:..7.
004065F0 0C 20 EF 7F 48 00 00 78 FF 91 80 70 FF D8 A3 11 . ..H..x...p....
00406600 00 00 00 00 00 00 00 00 00 00 00 00 00 00 00 00 ................
00406610 00 00 00 00 00 00 00 00 00 00 00 00 00 00 00 00 ................
00406620 00 00 00 00 00 00 00 00 00 00 00 00 00 00 00 00 ................
00406630 00 00 00 00 00 00 00 00 00 00 00 00 00 00 00 00 ................
00406640 00 00 00 00 00 00 00 00 00 00 00 00 00 00 00 00 ................
00406650 00 00 00 00 00 00 00 00 00 00 00 00 00 00 00 00 ................
00406660 00 00 00 00 00 00 00 00 00 00 00 00 00 00 00 00 ................
00406670 00 00 00 00 00 00 00 00 00 00 00 00 00 00 00 00 ................
00406680 00 00 00 00 00 00 00 00 00 00 00 00 00 00 00 00 ................
00406690 00 00 00 00 00 00 00 00 00 00 00 00 00 00 00 00 ................
004066A0 00 00 00 00 00 00 00 00 00 00 00 00 00 00 00 00 ................
004066B0 00 00 00 00 00 00 00 00 00 00 00 00 00 00 00 00 ................
004066C0 00 00 00 00 00 00 00 00 00 00 00 00 00 00 00 00 ................
004066D0 00 00 00 00 00 00 00 00 00 00 00 00 00 00 00 00 ................
004066E0 00 00 00 00 00 00 00 00 00 00 00 00 00 00 00 00 ................
004066F0 00 00 00 00 00 00 00 00 00 00 00 00 00 00 00 00 ................
00406700 00 00 00 00 00 00 00 00 00 00 00 00 00 00 00 00 ................
00406710 00 00 00 00 00 00 00 00 00 00 00 00 00 00 00 00 ................
00406720 00 00 00 00 00 00 00 00 00 00 00 00 00 00 00 00 ................
00406730 00 00 00 00 00 00 00 00 00 00 00 00 00 00 00 00 ................
00406740 00 00 00 00 00 00 00 00 00 00 00 00 00 00 00 00 ................
00406750 00 00 00 00 00 00 00 00 00 00 00 00 00 00 00 00 ................
00406760 00 00 00 00 00 00 00 00 00 00 00 00 00 00 00 00 ................
00406770 00 00 00 00 00 00 00 00 00 00 00 00 00 00 00 00 ................
00406780 00 00 00 00 00 00 00 00 00 00 00 00 00 00 00 00 ................
00406790 00 00 00 00 00 00 00 00 00 00 00 00 00 00 00 00 ................
004067A0 00 00 00 00 00 00 00 00 00 00 00 00 00 00 00 00 ................
004067B0 00 00 00 00 00 00 00 00 00 00 00 00 00 00 00 00 ................
004067C0 00 00 00 00 00 00 00 00 00 00 00 00 00 00 00 00 ................
004067D0 00 00 00 00 00 00 00 00 00 00 00 00 00 00 00 00 ................
004067E0 00 00 00 00 00 00 00 00 00 00 00 00 00 00 00 00 ................
004067F0 00 00 00 00 00 00 00 00 00 00 00 00 00 00 00 00 ................
00406800 00 00 00 00 00 00 00 00 00 00 00 00 00 00 00 00 ................
00406810 00 00 00 00 00 00 00 00 00 00 00 00 00 00 00 00 ................
00406820 00 00 00 00 00 00 00 00 00 00 00 00 00 00 00 00 ................
00406830 00 00 00 00 00 00 00 00 00 00 00 00 00 00 00 00 ................
00406840 00 00 00 00 00 00 00 00 00 00 00 00 00 00 00 00 ................
00406850 00 00 00 00 00 00 00 00 00 00 00 00 00 00 00 00 ................
00406860 00 00 00 00 00 00 00 00 00 00 00 00 00 00 00 00 ................
00406870 00 00 00 00 00 00 00 00 00 00 00 00 00 00 00 00 ................
00406880 00 00 00 00 00 00 00 00 00 00 00 00 00 00 00 00 ................
00406890 00 00 00 00 00 00 00 00 00 00 00 00 00 00 00 00 ................
004068A0 00 00 00 00 00 00 00 00 00 00 00 00 00 00 00 00 ................
004068B0 00 00 00 00 00 00 00 00 00 00 00 00 00 00 00 00 ................
004068C0 00 00 00 00 00 00 00 00 00 00 00 00 00 00 00 00 ................
004068D0 00 00 00 00 00 00 00 00 00 00 00 00 00 00 00 00 ................
004068E0 00 00 00 00 00 00 00 00 00 00 00 00 00 00 00 00 ................
004068F0 00 00 00 00 00 00 00 00 00 00 00 00 00 00 00 00 ................
00406900 00 00 00 00 00 00 00 00 00 00 00 00 00 00 00 00 ................
00406910 00 00 00 00 00 00 00 00 00 00 00 00 00 00 00 00 ................
00406920 00 00 00 00 00 00 00 00 00 00 00 00 00 00 00 00 ................
00406930 00 00 00 00 00 00 00 00 00 00 00 00 00 00 00 00 ................
00406940 00 00 00 00 00 00 00 00 00 00 00 00 00 00 00 00 ................
00406950 00 00 00 00 00 00 00 00 00 00 00 00 00 00 00 00 ................
00406960 00 00 00 00 00 00 00 00 00 00 00 00 00 00 00 00 ................
00406970 00 00 00 00 00 00 00 00 00 00 00 00 00 00 00 00 ................
00406980 00 00 00 00 00 00 00 00 00 00 00 00 00 00 00 00 ................
00406990 00 00 00 00 00 00 00 00 00 00 00 00 00 00 00 00 ................
004069A0 00 00 00 00 00 00 00 00 00 00 00 00 00 00 00 00 ................
004069B0 00 00 00 00 00 00 00 00 00 00 00 00 00 00 00 00 ................
004069C0 00 00 00 00 00 00 00 00 00 00 00 00 00 00 00 00 ................
004069D0 00 00 00 00 00 00 00 00 00 00 00 00 00 00 00 00 ................
004069E0 00 00 00 00 00 00 00 00 00 00 00 00 00 00 00 00 ................
004069F0 00 00 00 00 00 00 00 00 00 00 00 00 00 00 00 00 ................
00406A00 00 00 00 00 00 00 00 00 00 00 00 00 00 00 00 00 ................
00406A10 00 00 00 00 00 00 00 00 00 00 00 00 00 00 00 00 ................
00406A20 00 00 00 00 00 00 00 00 00 00 00 00 00 00 00 00 ................
00406A30 00 00 00 00 00 00 00 00 00 00 00 00 00 00 00 00 ................
00406A40 00 00 00 00 00 00 00 00 00 00 00 00 00 00 00 00 ................
00406A50 00 00 00 00 00 00 00 00 00 00 00 00 00 00 00 00 ................
00406A60 00 00 00 00 00 00 00 00 00 00 00 00 00 00 00 00 ................
00406A70 00 00 00 00 00 00 00 00 00 00 00 00 00 00 00 00 ................
00406A80 00 00 00 00 00 00 00 00 00 00 00 00 00 00 00 00 ................
00406A90 00 00 00 00 00 00 00 00 00 00 00 00 00 00 00 00 ................
00406AA0 00 00 00 00 00 00 00 00 00 00 00 00 00 00 00 00 ................
00406AB0 00 00 00 00 00 00 00 00 00 00 00 00 00 00 00 00 ................
00406AC0 00 00 00 00 00 00 00 00 00 00 00 00 00 00 00 00 ................
00406AD0 00 00 00 00 00 00 00 00 00 00 00 00 00 00 00 00 ................
00406AE0 00 00 00 00 00 00 00 00 00 00 00 00 00 00 00 00 ................
00406AF0 00 00 00 00 00 00 00 00 00 00 00 00 00 00 00 00 ................
00406B00 00 00 00 00 00 00 00 00 00 00 00 00 00 00 00 00 ................
00406B10 00 00 00 00 00 00 00 00 00 00 00 00 00 00 00 00 ................
00406B20 00 00 00 00 00 00 00 00 00 00 00 00 00 00 00 00 ................
00406B30 00 00 00 00 00 00 00 00 00 00 00 00 00 00 00 00 ................
00406B40 00 00 00 00 00 00 00 00 00 00 00 00 00 00 00 00 ................
00406B50 00 00 00 00 00 00 00 00 00 00 00 00 00 00 00 00 ................
00406B60 00 00 00 00 00 00 00 00 00 00 00 00 00 00 00 00 ................
00406B70 00 00 00 00 00 00 00 00 00 00 00 00 00 00 00 00 ................
00406B80 00 00 00 00 00 00 00 00 00 00 00 00 00 00 00 00 ................
00406B90 00 00 00 00 00 00 00 00 00 00 00 00 00 00 00 00 ................
00406BA0 00 00 00 00 00 00 00 00 00 00 00 00 00 00 00 00 ................
00406BB0 00 00 00 00 00 00 00 00 00 00 00 00 00 00 00 00 ................
00406BC0 00 00 00 00 00 00 00 00 00 00 00 00 00 00 00 00 ................
00406BD0 00 00 00 00 00 00 00 00 00 00 00 00 00 00 00 00 ................
00406BE0 00 00 00 00 00 00 00 00 00 00 00 00 00 00 00 00 ................
00406BF0 00 00 00 00 00 00 00 00 00 00 00 00 00 00 00 00 ................
00406C00 00 00 00 00 00 00 00 00 00 00 00 00 00 00 00 00 ................
00406C10 00 00 00 00 00 00 00 00 00 00 00 00 00 00 00 00 ................
00406C20 00 00 00 00 00 00 00 00 00 00 00 00 00 00 00 00 ................
00406C30 00 00 00 00 00 00 00 00 00 00 00 00 00 00 00 00 ................
00406C40 00 00 00 00 00 00 00 00 00 00 00 00 00 00 00 00 ................
00406C50 00 00 00 00 00 00 00 00 00 00 00 00 00 00 00 00 ................
00406C60 00 00 00 00 00 00 00 00 00 00 00 00 00 00 00 00 ................
00406C70 00 00 00 00 00 00 00 00 00 00 00 00 00 00 00 00 ................
00406C80 00 00 00 00 00 00 00 00 00 00 00 00 00 00 00 00 ................
00406C90 00 00 00 00 00 00 00 00 00 00 00 00 00 00 00 00 ................
00406CA0 00 00 00 00 00 00 00 00 00 00 00 00 00 00 00 00 ................
00406CB0 00 00 00 00 00 00 00 00 00 00 00 00 00 00 00 00 ................
00406CC0 00 00 00 00 00 00 00 00 00 00 00 00 00 00 00 00 ................
00406CD0 00 00 00 00 00 00 00 00 00 00 00 00 00 00 00 00 ................
00406CE0 00 00 00 00 00 00 00 00 00 00 00 00 00 00 00 00 ................
00406CF0 00 00 00 00 00 00 00 00 00 00 00 00 00 00 00 00 ................
00406D00 00 00 00 00 00 00 00 00 00 00 00 00 00 00 00 00 ................
00406D10 00 00 00 00 00 00 00 00 00 00 00 00 00 00 00 00 ................
00406D20 00 00 00 00 00 00 00 00 00 00 00 00 00 00 00 00 ................
00406D30 00 00 00 00 00 00 00 00 00 00 00 00 00 00 00 00 ................
00406D40 00 00 00 00 00 00 00 00 00 00 00 00 00 00 00 00 ................
00406D50 00 00 00 00 00 00 00 00 00 00 00 00 00 00 00 00 ................
00406D60 00 00 00 00 00 00 00 00 00 00 00 00 00 00 00 00 ................
00406D70 00 00 00 00 00 00 00 00 00 00 00 00 00 00 00 00 ................
00406D80 00 00 00 00 00 00 00 00 00 00 00 00 00 00 00 00 ................
00406D90 00 00 00 00 00 00 00 00 00 00 00 00 00 00 00 00 ................
00406DA0 00 00 00 00 00 00 00 00 00 00 00 00 00 00 00 00 ................
00406DB0 00 00 00 00 00 00 00 00 00 00 00 00 00 00 00 00 ................
00406DC0 00 00 00 00 00 00 00 00 00 00 00 00 00 00 00 00 ................
00406DD0 00 00 00 00 00 00 00 00 00 00 00 00 00 00 00 00 ................
00406DE0 00 00 00 00 00 00 00 00 00 00 00 00 00 00 00 00 ................
00406DF0 00 00 00 00 00 00 00 00 00 00 00 00 00 00 00 00 ................
00406E00 00 00 00 00 00 00 00 00 00 00 00 00 00 00 00 00 ................
00406E10 00 00 00 00 00 00 00 00 00 00 00 00 00 00 00 00 ................
00406E20 00 00 00 00 00 00 00 00 00 00 00 00 00 00 00 00 ................
00406E30 00 00 00 00 00 00 00 00 00 00 00 00 00 00 00 00 ................
00406E40 00 00 00 00 00 00 00 00 00 00 00 00 00 00 00 00 ................
00406E50 00 00 00 00 00 00 00 00 00 00 00 00 00 00 00 00 ................
00406E60 00 00 00 00 00 00 00 00 00 00 00 00 00 00 00 00 ................
00406E70 00 00 00 00 00 00 00 00 00 00 00 00 00 00 00 00 ................
00406E80 00 00 00 00 00 00 00 00 00 00 00 00 00 00 00 00 ................
00406E90 00 00 00 00 00 00 00 00 00 00 00 00 00 00 00 00 ................
00406EA0 00 00 00 00 00 00 00 00 00 00 00 00 00 00 00 00 ................
00406EB0 00 00 00 00 00 00 00 00 00 00 00 00 00 00 00 00 ................
00406EC0 00 00 00 00 00 00 00 00 00 00 00 00 00 00 00 00 ................
00406ED0 00 00 00 00 00 00 00 00 00 00 00 00 00 00 00 00 ................
00406EE0 00 00 00 00 00 00 00 00 00 00 00 00 00 00 00 00 ................
00406EF0 00 00 00 00 00 00 00 00 00 00 00 00 00 00 00 00 ................
00406F00 00 00 00 00 00 00 00 00 00 00 00 00 00 00 00 00 ................
00406F10 00 00 00 00 00 00 00 00 00 00 00 00 00 00 00 00 ................
00406F20 00 00 00 00 00 00 00 00 00 00 00 00 00 00 00 00 ................
00406F30 00 00 00 00 00 00 00 00 00 00 00 00 00 00 00 00 ................
00406F40 00 00 00 00 00 00 00 00 00 00 00 00 00 00 00 00 ................
00406F50 00 00 00 00 00 00 00 00 00 00 00 00 00 00 00 00 ................
00406F60 00 00 00 00 00 00 00 00 00 00 00 00 00 00 00 00 ................
00406F70 00 00 00 00 00 00 00 00 00 00 00 00 00 00 00 00 ................
00406F80 00 00 00 00 00 00 00 00 00 00 00 00 00 00 00 00 ................
00406F90 00 00 00 00 00 00 00 00 00 00 00 00 00 00 00 00 ................
00406FA0 00 00 00 00 00 00 00 00 00 00 00 00 00 00 00 00 ................
00406FB0 00 00 00 00 00 00 00 00 00 00 00 00 00 00 00 00 ................
00406FC0 00 00 00 00 00 00 00 00 00 00 00 00 00 00 00 00 ................
00406FD0 00 00 00 00 00 00 00 00 00 00 00 00 00 00 00 00 ................
00406FE0 00 00 00 00 00 00 00 00 00 00 00 00 00 00 00 00 ................
00406FF0 00 00 00 00 00 00 00 00 00 00 00 00 00 00 00 00 ................
00407000 00 00 00 00 00 00 00 00 00 00 00 00 00 00 00 00 ................
00407010 00 00 00 00 00 00 00 00 00 00 00 00 00 00 00 00 ................
00407020 00 00 00 00 00 00 00 00 00 00 00 00 00 00 00 00 ................
00407030 00 00 00 00 00 00 00 00 00 00 00 00 00 00 00 00 ................
00407040 00 00 00 00 00 00 00 00 00 00 00 00 00 00 00 00 ................
00407050 00 00 00 00 00 00 00 00 00 00 00 00 00 00 00 00 ................
00407060 00 00 00 00 00 00 00 00 00 00 00 00 00 00 00 00 ................
00407070 00 00 00 00 00 00 00 00 00 00 00 00 00 00 00 00 ................
00407080 00 00 00 00 00 00 00 00 00 00 00 00 00 00 00 00 ................
00407090 00 00 00 00 00 00 00 00 00 00 00 00 00 00 00 00 ................
004070A0 00 00 00 00 00 00 00 00 00 00 00 00 00 00 00 00 ................
004070B0 00 00 00 00 00 00 00 00 00 00 00 00 00 00 00 00 ................
004070C0 00 00 00 00 00 00 00 00 00 00 00 00 00 00 00 00 ................
004070D0 00 00 00 00 00 00 00 00 00 00 00 00 00 00 00 00 ................
004070E0 00 00 00 00 00 00 00 00 00 00 00 00 00 00 00 00 ................
004070F0 00 00 00 00 00 00 00 00 00 00 00 00 00 00 00 00 ................
00407100 00 00 00 00 00 00 00 00 00 00 00 00 00 00 00 00 ................
00407110 00 00 00 00 00 00 00 00 00 00 00 00 00 00 00 00 ................
00407120 00 00 00 00 00 00 00 00 00 00 00 00 00 00 00 00 ................
00407130 00 00 00 00 00 00 00 00 00 00 00 00 00 00 00 00 ................
00407140 00 00 00 00 00 00 00 00 00 00 00 00 00 00 00 00 ................
00407150 00 00 00 00 00 00 00 00 00 00 00 00 00 00 00 00 ................
00407160 00 00 00 00 00 00 00 00 00 00 00 00 00 00 00 00 ................
00407170 00 00 00 00 00 00 00 00 00 00 00 00 00 00 00 00 ................
00407180 00 00 00 00 00 00 00 00 00 00 00 00 00 00 00 00 ................
00407190 00 00 00 00 00 00 00 00 00 00 00 00 00 00 00 00 ................
004071A0 00 00 00 00 00 00 00 00 00 00 00 00 00 00 00 00 ................
004071B0 00 00 00 00 00 00 00 00 00 00 00 00 00 00 00 00 ................
004071C0 00 00 00 00 00 00 00 00 00 00 00 00 00 00 00 00 ................
004071D0 00 00 00 00 00 00 00 00 00 00 00 00 00 00 00 00 ................
004071E0 00 00 00 00 00 00 00 00 00 00 00 00 00 00 00 00 ................
004071F0 00 00 00 00 00 00 00 00 00 00 00 00 00 00 00 00 ................
00407200 00 00 00 00 00 00 00 00 00 00 00 00 00 00 00 00 ................
00407210 00 00 00 00 00 00 00 00 00 00 00 00 00 00 00 00 ................
00407220 00 00 00 00 00 00 00 00 00 00 00 00 00 00 00 00 ................
00407230 00 00 00 00 00 00 00 00 00 00 00 00 00 00 00 00 ................
00407240 00 00 00 00 00 00 00 00 00 00 00 00 00 00 00 00 ................
00407250 00 00 00 00 00 00 00 00 00 00 00 00 00 00 00 00 ................
00407260 00 00 00 00 00 00 00 00 00 00 00 00 00 00 00 00 ................
00407270 00 00 00 00 00 00 00 00 00 00 00 00 00 00 00 00 ................
00407280 00 00 00 00 00 00 00 00 00 00 00 00 00 00 00 00 ................
00407290 00 00 00 00 00 00 00 00 00 00 00 00 00 00 00 00 ................
004072A0 00 00 00 00 00 00 00 00 00 00 00 00 00 00 00 00 ................
004072B0 00 00 00 00 00 00 00 00 00 00 00 00 00 00 00 00 ................
004072C0 00 00 00 00 00 00 00 00 00 00 00 00 00 00 00 00 ................
004072D0 00 00 00 00 00 00 00 00 00 00 00 00 00 00 00 00 ................
004072E0 00 00 00 00 00 00 00 00 00 00 00 00 00 00 00 00 ................
004072F0 00 00 00 00 00 00 00 00 00 00 00 00 00 00 00 00 ................
00407300 00 00 00 00 00 00 00 00 00 00 00 00 00 00 00 00 ................
00407310 00 00 00 00 00 00 00 00 00 00 00 00 00 00 00 00 ................
00407320 00 00 00 00 00 00 00 00 00 00 00 00 00 00 00 00 ................
00407330 00 00 00 00 00 00 00 00 00 00 00 00 00 00 00 00 ................
00407340 00 00 00 00 00 00 00 00 00 00 00 00 00 00 00 00 ................
00407350 00 00 00 00 00 00 00 00 00 00 00 00 00 00 00 00 ................
00407360 00 00 00 00 00 00 00 00 00 00 00 00 00 00 00 00 ................
00407370 00 00 00 00 00 00 00 00 00 00 00 00 00 00 00 00 ................
00407380 00 00 00 00 00 00 00 00 00 00 00 00 00 00 00 00 ................
00407390 00 00 00 00 00 00 00 00 00 00 00 00 00 00 00 00 ................
004073A0 00 00 00 00 00 00 00 00 00 00 00 00 00 00 00 00 ................
004073B0 00 00 00 00 00 00 00 00 00 00 00 00 00 00 00 00 ................
004073C0 00 00 00 00 00 00 00 00 00 00 00 00 00 00 00 00 ................
004073D0 00 00 00 00 00 00 00 00 00 00 00 00 00 00 00 00 ................
004073E0 00 00 00 00 00 00 00 00 00 00 00 00 00 00 00 00 ................
004073F0 00 00 00 00 00 00 00 00 00 00 00 00 00 00 00 00 ................
00407400 00 00 00 00 00 00 00 00 00 00 00 00 00 00 00 00 ................
00407410 00 00 00 00 00 00 00 00 00 00 00 00 00 00 00 00 ................
00407420 00 00 00 00 00 00 00 00 00 00 00 00 00 00 00 00 ................
00407430 00 00 00 00 00 00 00 00 00 00 00 00 00 00 00 00 ................
00407440 00 00 00 00 00 00 00 00 00 00 00 00 00 00 00 00 ................
00407450 00 00 00 00 00 00 00 00 00 00 00 00 00 00 00 00 ................
00407460 00 00 00 00 00 00 00 00 00 00 00 00 00 00 00 00 ................
00407470 00 00 00 00 00 00 00 00 00 00 00 00 00 00 00 00 ................
00407480 00 00 00 00 00 00 00 00 00 00 00 00 00 00 00 00 ................
00407490 00 00 00 00 00 00 00 00 00 00 00 00 00 00 00 00 ................
004074A0 00 00 00 00 00 00 00 00 00 00 00 00 00 00 00 00 ................
004074B0 00 00 00 00 00 00 00 00 00 00 00 00 00 00 00 00 ................
004074C0 00 00 00 00 00 00 00 00 00 00 00 00 00 00 00 00 ................
004074D0 00 00 00 00 00 00 00 00 00 00 00 00 00 00 00 00 ................
004074E0 00 00 00 00 00 00 00 00 00 00 00 00 00 00 00 00 ................
004074F0 00 00 00 00 00 00 00 00 00 00 00 00 00 00 00 00 ................
00407500 00 00 00 00 00 00 00 00 00 00 00 00 00 00 00 00 ................
00407510 00 00 00 00 00 00 00 00 00 00 00 00 00 00 00 00 ................
00407520 00 00 00 00 00 00 00 00 00 00 00 00 00 00 00 00 ................
00407530 00 00 00 00 00 00 00 00 00 00 00 00 00 00 00 00 ................
00407540 00 00 00 00 00 00 00 00 00 00 00 00 00 00 00 00 ................
00407550 00 00 00 00 00 00 00 00 00 00 00 00 00 00 00 00 ................
00407560 00 00 00 00 00 00 00 00 00 00 00 00 00 00 00 00 ................
00407570 00 00 00 00 00 00 00 00 00 00 00 00 00 00 00 00 ................
00407580 00 00 00 00 00 00 00 00 00 00 00 00 00 00 00 00 ................
00407590 00 00 00 00 00 00 00 00 00 00 00 00 00 00 00 00 ................
004075A0 00 00 00 00 00 00 00 00 00 00 00 00 00 00 00 00 ................
004075B0 00 00 00 00 00 00 00 00 00 00 00 00 00 00 00 00 ................
004075C0 00 00 00 00 00 00 00 00 00 00 00 00 00 00 00 00 ................
004075D0 00 00 00 00 00 00 00 00 00 00 00 00 00 00 00 00 ................
004075E0 00 00 00 00 00 00 00 00 00 00 00 00 00 00 00 00 ................
004075F0 00 00 00 00 00 00 00 00 00 00 00 00 00 00 00 00 ................
00407600 00 00 00 00 00 00 00 00 00 00 00 00 00 00 00 00 ................
00407610 00 00 00 00 00 00 00 00 00 00 00 00 00 00 00 00 ................
00407620 00 00 00 00 00 00 00 00 00 00 00 00 00 00 00 00 ................
00407630 00 00 00 00 00 00 00 00 00 00 00 00 00 00 00 00 ................
00407640 00 00 00 00 00 00 00 00 00 00 00 00 00 00 00 00 ................
00407650 00 00 00 00 00 00 00 00 00 00 00 00 00 00 00 00 ................
00407660 00 00 00 00 00 00 00 00 00 00 00 00 00 00 00 00 ................
00407670 00 00 00 00 00 00 00 00 00 00 00 00 00 00 00 00 ................
00407680 00 00 00 00 00 00 00 00 00 00 00 00 00 00 00 00 ................
00407690 00 00 00 00 00 00 00 00 00 00 00 00 00 00 00 00 ................
004076A0 00 00 00 00 00 00 00 00 00 00 00 00 00 00 00 00 ................
004076B0 00 00 00 00 00 00 00 00 00 00 00 00 00 00 00 00 ................
004076C0 00 00 00 00 00 00 00 00 00 00 00 00 00 00 00 00 ................
004076D0 00 00 00 00 00 00 00 00 00 00 00 00 00 00 00 00 ................
004076E0 00 00 00 00 00 00 00 00 00 00 00 00 00 00 00 00 ................
004076F0 00 00 00 00 00 00 00 00 00 00 00 00 00 00 00 00 ................
00407700 00 00 00 00 00 00 00 00 00 00 00 00 00 00 00 00 ................
00407710 00 00 00 00 00 00 00 00 00 00 00 00 00 00 00 00 ................
00407720 00 00 00 00 00 00 00 00 00 00 00 00 00 00 00 00 ................
00407730 00 00 00 00 00 00 00 00 00 00 00 00 00 00 00 00 ................
00407740 00 00 00 00 00 00 00 00 00 00 00 00 00 00 00 00 ................
00407750 00 00 00 00 00 00 00 00 00 00 00 00 00 00 00 00 ................
00407760 00 00 00 00 00 00 00 00 00 00 00 00 00 00 00 00 ................
00407770 00 00 00 00 00 00 00 00 00 00 00 00 00 00 00 00 ................
00407780 00 00 00 00 00 00 00 00 00 00 00 00 00 00 00 00 ................
00407790 00 00 00 00 00 00 00 00 00 00 00 00 00 00 00 00 ................
004077A0 00 00 00 00 00 00 00 00 00 00 00 00 00 00 00 00 ................
004077B0 00 00 00 00 00 00 00 00 00 00 00 00 00 00 00 00 ................
004077C0 00 00 00 00 00 00 00 00 00 00 00 00 00 00 00 00 ................
004077D0 00 00 00 00 00 00 00 00 00 00 00 00 00 00 00 00 ................
004077E0 00 00 00 00 00 00 00 00 00 00 00 00 00 00 00 00 ................
004077F0 00 00 00 00 00 00 00 00 00 00 00 00 00 00 00 00 ................
00407800 00 00 00 00 00 00 00 00 00 00 00 00 00 00 00 00 ................
00407810 00 00 00 00 00 00 00 00 00 00 00 00 00 00 00 00 ................
00407820 00 00 00 00 00 00 00 00 00 00 00 00 00 00 00 00 ................
00407830 00 00 00 00 00 00 00 00 00 00 00 00 00 00 00 00 ................
00407840 00 00 00 00 00 00 00 00 00 00 00 00 00 00 00 00 ................
00407850 00 00 00 00 00 00 00 00 00 00 00 00 00 00 00 00 ................
00407860 00 00 00 00 00 00 00 00 00 00 00 00 00 00 00 00 ................
00407870 00 00 00 00 00 00 00 00 00 00 00 00 00 00 00 00 ................
00407880 00 00 00 00 00 00 00 00 00 00 00 00 00 00 00 00 ................
00407890 00 00 00 00 00 00 00 00 00 00 00 00 00 00 00 00 ................
004078A0 00 00 00 00 00 00 00 00 00 00 00 00 00 00 00 00 ................
004078B0 00 00 00 00 00 00 00 00 00 00 00 00 00 00 00 00 ................
004078C0 00 00 00 00 00 00 00 00 00 00 00 00 00 00 00 00 ................
004078D0 00 00 00 00 00 00 00 00 00 00 00 00 00 00 00 00 ................
004078E0 00 00 00 00 00 00 00 00 00 00 00 00 00 00 00 00 ................
004078F0 00 00 00 00 00 00 00 00 00 00 00 00 00 00 00 00 ................
00407900 00 00 00 00 00 00 00 00 00 00 00 00 00 00 00 00 ................
00407910 00 00 00 00 00 00 00 00 00 00 00 00 00 00 00 00 ................
00407920 00 00 00 00 00 00 00 00 00 00 00 00 00 00 00 00 ................
00407930 00 00 00 00 00 00 00 00 00 00 00 00 00 00 00 00 ................
00407940 00 00 00 00 00 00 00 00 00 00 00 00 00 00 00 00 ................
00407950 00 00 00 00 00 00 00 00 00 00 00 00 00 00 00 00 ................
00407960 00 00 00 00 00 00 00 00 00 00 00 00 00 00 00 00 ................
00407970 00 00 00 00 00 00 00 00 00 00 00 00 00 00 00 00 ................
00407980 00 00 00 00 00 00 00 00 00 00 00 00 00 00 00 00 ................
00407990 00 00 00 00 00 00 00 00 00 00 00 00 00 00 00 00 ................
004079A0 00 00 00 00 00 00 00 00 00 00 00 00 00 00 00 00 ................
004079B0 00 00 00 00 00 00 00 00 00 00 00 00 00 00 00 00 ................
004079C0 00 00 00 00 00 00 00 00 00 00 00 00 00 00 00 00 ................
004079D0 00 00 00 00 00 00 00 00 00 00 00 00 00 00 00 00 ................
004079E0 00 00 00 00 00 00 00 00 00 00 00 00 00 00 00 00 ................
004079F0 00 00 00 00 00 00 00 00 00 00 00 00 00 00 00 00 ................
00407A00 00 00 00 00 00 00 00 00 00 00 00 00 00 00 00 00 ................
00407A10 00 00 00 00 00 00 00 00 00 00 00 00 00 00 00 00 ................
00407A20 00 00 00 00 00 00 00 00 00 00 00 00 00 00 00 00 ................
00407A30 00 00 00 00 00 00 00 00 00 00 00 00 00 00 00 00 ................
00407A40 00 00 00 00 00 00 00 00 00 00 00 00 00 00 00 00 ................
00407A50 00 00 00 00 00 00 00 00 00 00 00 00 00 00 00 00 ................
00407A60 00 00 00 00 00 00 00 00 00 00 00 00 00 00 00 00 ................
00407A70 00 00 00 00 00 00 00 00 00 00 00 00 00 00 00 00 ................
00407A80 00 00 00 00 00 00 00 00 00 00 00 00 00 00 00 00 ................
00407A90 00 00 00 00 00 00 00 00 00 00 00 00 00 00 00 00 ................
00407AA0 00 00 00 00 00 00 00 00 00 00 00 00 00 00 00 00 ................
00407AB0 00 00 00 00 00 00 00 00 00 00 00 00 00 00 00 00 ................
00407AC0 00 00 00 00 00 00 00 00 00 00 00 00 00 00 00 00 ................
00407AD0 00 00 00 00 00 00 00 00 00 00 00 00 00 00 00 00 ................
00407AE0 00 00 00 00 00 00 00 00 00 00 00 00 00 00 00 00 ................
00407AF0 00 00 00 00 00 00 00 00 00 00 00 00 00 00 00 00 ................
00407B00 00 00 00 00 00 00 00 00 00 00 00 00 00 00 00 00 ................
00407B10 00 00 00 00 00 00 00 00 00 00 00 00 00 00 00 00 ................
00407B20 00 00 00 00 00 00 00 00 00 00 00 00 00 00 00 00 ................
00407B30 00 00 00 00 00 00 00 00 00 00 00 00 00 00 00 00 ................
00407B40 00 00 00 00 00 00 00 00 00 00 00 00 00 00 00 00 ................
00407B50 00 00 00 00 00 00 00 00 00 00 00 00 00 00 00 00 ................
00407B60 00 00 00 00 00 00 00 00 00 00 00 00 00 00 00 00 ................
00407B70 00 00 00 00 00 00 00 00 00 00 00 00 00 00 00 00 ................
00407B80 00 00 00 00 00 00 00 00 00 00 00 00 00 00 00 00 ................
00407B90 00 00 00 00 00 00 00 00 00 00 00 00 00 00 00 00 ................
00407BA0 00 00 00 00 00 00 00 00 00 00 00 00 00 00 00 00 ................
00407BB0 00 00 00 00 00 00 00 00 00 00 00 00 00 00 00 00 ................
00407BC0 00 00 00 00 00 00 00 00 00 00 00 00 00 00 00 00 ................
00407BD0 00 00 00 00 00 00 00 00 00 00 00 00 00 00 00 00 ................
00407BE0 00 00 00 00 00 00 00 00 00 00 00 00 00 00 00 00 ................
00407BF0 00 00 00 00 00 00 00 00 00 00 00 00 00 00 00 00 ................
00407C00 00 00 00 00 00 00 00 00 00 00 00 00 00 00 00 00 ................
00407C10 00 00 00 00 00 00 00 00 00 00 00 00 00 00 00 00 ................
00407C20 00 00 00 00 00 00 00 00 00 00 00 00 00 00 00 00 ................
00407C30 00 00 00 00 00 00 00 00 00 00 00 00 00 00 00 00 ................
00407C40 00 00 00 00 00 00 00 00 00 00 00 00 00 00 00 00 ................
00407C50 00 00 00 00 00 00 00 00 00 00 00 00 00 00 00 00 ................
00407C60 00 00 00 00 00 00 00 00 00 00 00 00 00 00 00 00 ................
00407C70 00 00 00 00 00 00 00 00 00 00 00 00 00 00 00 00 ................
00407C80 00 00 00 00 00 00 00 00 00 00 00 00 00 00 00 00 ................
00407C90 00 00 00 00 00 00 00 00 00 00 00 00 00 00 00 00 ................
00407CA0 00 00 00 00 00 00 00 00 00 00 00 00 00 00 00 00 ................
00407CB0 00 00 00 00 00 00 00 00 00 00 00 00 00 00 00 00 ................
00407CC0 00 00 00 00 00 00 00 00 00 00 00 00 00 00 00 00 ................
00407CD0 00 00 00 00 00 00 00 00 00 00 00 00 00 00 00 00 ................
00407CE0 00 00 00 00 00 00 00 00 00 00 00 00 00 00 00 00 ................
00407CF0 00 00 00 00 00 00 00 00 00 00 00 00 00 00 00 00 ................
00407D00 00 00 00 00 00 00 00 00 00 00 00 00 00 00 00 00 ................
00407D10 00 00 00 00 00 00 00 00 00 00 00 00 00 00 00 00 ................
00407D20 00 00 00 00 00 00 00 00 00 00 00 00 00 00 00 00 ................
00407D30 00 00 00 00 00 00 00 00 00 00 00 00 00 00 00 00 ................
00407D40 00 00 00 00 00 00 00 00 00 00 00 00 00 00 00 00 ................
00407D50 00 00 00 00 00 00 00 00 00 00 00 00 00 00 00 00 ................
00407D60 00 00 00 00 00 00 00 00 00 00 00 00 00 00 00 00 ................
00407D70 00 00 00 00 00 00 00 00 00 00 00 00 00 00 00 00 ................
00407D80 00 00 00 00 00 00 00 00 00 00 00 00 00 00 00 00 ................
00407D90 00 00 00 00 00 00 00 00 00 00 00 00 00 00 00 00 ................
00407DA0 00 00 00 00 00 00 00 00 00 00 00 00 00 00 00 00 ................
00407DB0 00 00 00 00 00 00 00 00 00 00 00 00 00 00 00 00 ................
00407DC0 00 00 00 00 00 00 00 00 00 00 00 00 00 00 00 00 ................
00407DD0 00 00 00 00 00 00 00 00 00 00 00 00 00 00 00 00 ................
00407DE0 00 00 00 00 00 00 00 00 00 00 00 00 00 00 00 00 ................
00407DF0 00 00 00 00 00 00 00 00 00 00 00 00 00 00 00 00 ................
00407E00 00 00 00 00 00 00 00 00 00 00 00 00 00 00 00 00 ................
00407E10 00 00 00 00 00 00 00 00 00 00 00 00 00 00 00 00 ................
00407E20 00 00 00 00 00 00 00 00 00 00 00 00 00 00 00 00 ................
00407E30 00 00 00 00 00 00 00 00 00 00 00 00 00 00 00 00 ................
00407E40 00 00 00 00 00 00 00 00 00 00 00 00 00 00 00 00 ................
00407E50 00 00 00 00 00 00 00 00 00 00 00 00 00 00 00 00 ................
00407E60 00 00 00 00 00 00 00 00 00 00 00 00 00 00 00 00 ................
00407E70 00 00 00 00 00 00 00 00 00 00 00 00 00 00 00 00 ................
00407E80 00 00 00 00 00 00 00 00 00 00 00 00 00 00 00 00 ................
00407E90 00 00 00 00 00 00 00 00 00 00 00 00 00 00 00 00 ................
00407EA0 00 00 00 00 00 00 00 00 00 00 00 00 00 00 00 00 ................
00407EB0 00 00 00 00 00 00 00 00 00 00 00 00 00 00 00 00 ................
00407EC0 00 00 00 00 00 00 00 00 00 00 00 00 00 00 00 00 ................
00407ED0 00 00 00 00 00 00 00 00 00 00 00 00 00 00 00 00 ................
00407EE0 00 00 00 00 00 00 00 00 00 00 00 00 00 00 00 00 ................
00407EF0 00 00 00 00 00 00 00 00 00 00 00 00 00 00 00 00 ................
00407F00 00 00 00 00 00 00 00 00 00 00 00 00 00 00 00 00 ................
00407F10 00 00 00 00 00 00 00 00 00 00 00 00 00 00 00 00 ................
00407F20 00 00 00 00 00 00 00 00 00 00 00 00 00 00 00 00 ................
00407F30 00 00 00 00 00 00 00 00 00 00 00 00 00 00 00 00 ................
00407F40 00 00 00 00 00 00 00 00 00 00 00 00 00 00 00 00 ................
00407F50 00 00 00 00 00 00 00 00 00 00 00 00 00 00 00 00 ................
00407F60 00 00 00 00 00 00 00 00 00 00 00 00 00 00 00 00 ................
00407F70 00 00 00 00 00 00 00 00 00 00 00 00 00 00 00 00 ................
00407F80 00 00 00 00 00 00 00 00 00 00 00 00 00 00 00 00 ................
00407F90 00 00 00 00 00 00 00 00 00 00 00 00 00 00 00 00 ................
00407FA0 00 00 00 00 00 00 00 00 00 00 00 00 00 00 00 00 ................
00407FB0 00 00 00 00 00 00 00 00 00 00 00 00 00 00 00 00 ................
00407FC0 00 00 00 00 00 00 00 00 00 00 00 00 00 00 00 00 ................
00407FD0 00 00 00 00 00 00 00 00 00 00 00 00 00 00 00 00 ................
00407FE0 00 00 00 00 00 00 00 00 00 00 00 00 00 00 00 00 ................
00407FF0 00 00 00 00 00 00 00 00 00 00 00 00 00 00 00 00 ................
00408000 00 00 00 00 00 00 00 00 00 00 00 00 00 00 00 00 ................
00408010 00 00 00 00 00 00 00 00 00 00 00 00 00 00 00 00 ................
00408020 00 00 00 00 00 00 00 00 00 00 00 00 00 00 00 00 ................
00408030 00 00 00 00 00 00 00 00 00 00 00 00 00 00 00 00 ................
00408040 00 00 00 00 00 00 00 00 00 00 00 00 00 00 00 00 ................
00408050 00 00 00 00 00 00 00 00 00 00 00 00 00 00 00 00 ................
00408060 00 00 00 00 00 00 00 00 00 00 00 00 00 00 00 00 ................
00408070 00 00 00 00 00 00 00 00 00 00 00 00 00 00 00 00 ................
00408080 00 00 00 00 00 00 00 00 00 00 00 00 00 00 00 00 ................
00408090 00 00 00 00 00 00 00 00 00 00 00 00 00 00 00 00 ................
004080A0 00 00 00 00 00 00 00 00 00 00 00 00 00 00 00 00 ................
004080B0 00 00 00 00 00 00 00 00 00 00 00 00 00 00 00 00 ................
004080C0 00 00 00 00 00 00 00 00 00 00 00 00 00 00 00 00 ................
004080D0 00 00 00 00 00 00 00 00 00 00 00 00 00 00 00 00 ................
004080E0 00 00 00 00 00 00 00 00 00 00 00 00 00 00 00 00 ................
004080F0 00 00 00 00 00 00 00 00 00 00 00 00 00 00 00 00 ................
00408100 00 00 00 00 00 00 00 00 00 00 00 00 00 00 00 00 ................
00408110 00 00 00 00 00 00 00 00 00 00 00 00 00 00 00 00 ................
00408120 00 00 00 00 00 00 00 00 00 00 00 00 00 00 00 00 ................
00408130 00 00 00 00 00 00 00 00 00 00 00 00 00 00 00 00 ................
00408140 00 00 00 00 00 00 00 00 00 00 00 00 00 00 00 00 ................
00408150 00 00 00 00 00 00 00 00 00 00 00 00 00 00 00 00 ................
00408160 00 00 00 00 00 00 00 00 00 00 00 00 00 00 00 00 ................
00408170 00 00 00 00 00 00 00 00 00 00 00 00 00 00 00 00 ................
00408180 00 00 00 00 00 00 00 00 00 00 00 00 00 00 00 00 ................
00408190 00 00 00 00 00 00 00 00 00 00 00 00 00 00 00 00 ................
004081A0 00 00 00 00 00 00 00 00 00 00 00 00 00 00 00 00 ................
004081B0 00 00 00 00 00 00 00 00 00 00 00 00 00 00 00 00 ................
004081C0 00 00 00 00 00 00 00 00 00 00 00 00 00 00 00 00 ................
004081D0 00 00 00 00 00 00 00 00 00 00 00 00 00 00 00 00 ................
004081E0 00 00 00 00 00 00 00 00 00 00 00 00 00 00 00 00 ................
004081F0 00 00 00 00 00 00 00 00 00 00 00 00 00 00 00 00 ................
00408200 00 00 00 00 00 00 00 00 00 00 00 00 00 00 00 00 ................
00408210 00 00 00 00 00 00 00 00 00 00 00 00 00 00 00 00 ................
00408220 00 00 00 00 00 00 00 00 00 00 00 00 00 00 00 00 ................
00408230 00 00 00 00 00 00 00 00 00 00 00 00 00 00 00 00 ................
00408240 00 00 00 00 00 00 00 00 00 00 00 00 00 00 00 00 ................
00408250 00 00 00 00 00 00 00 00 00 00 00 00 00 00 00 00 ................
00408260 00 00 00 00 00 00 00 00 00 00 00 00 00 00 00 00 ................
00408270 00 00 00 00 00 00 00 00 00 00 00 00 00 00 00 00 ................
00408280 00 00 00 00 00 00 00 00 00 00 00 00 00 00 00 00 ................
00408290 00 00 00 00 00 00 00 00 00 00 00 00 00 00 00 00 ................
004082A0 00 00 00 00 00 00 00 00 00 00 00 00 00 00 00 00 ................
004082B0 00 00 00 00 00 00 00 00 00 00 00 00 00 00 00 00 ................
004082C0 00 00 00 00 00 00 00 00 00 00 00 00 00 00 00 00 ................
004082D0 00 00 00 00 00 00 00 00 00 00 00 00 00 00 00 00 ................
004082E0 00 00 00 00 00 00 00 00 00 00 00 00 00 00 00 00 ................
004082F0 00 00 00 00 00 00 00 00 00 00 00 00 00 00 00 00 ................
00408300 00 00 00 00 00 00 00 00 00 00 00 00 00 00 00 00 ................
00408310 00 00 00 00 00 00 00 00 00 00 00 00 00 00 00 00 ................
00408320 00 00 00 00 00 00 00 00 00 00 00 00 00 00 00 00 ................
00408330 00 00 00 00 00 00 00 00 00 00 00 00 00 00 00 00 ................
00408340 00 00 00 00 00 00 00 00 00 00 00 00 00 00 00 00 ................
00408350 00 00 00 00 00 00 00 00 00 00 00 00 00 00 00 00 ................
00408360 00 00 00 00 00 00 00 00 00 00 00 00 00 00 00 00 ................
00408370 00 00 00 00 00 00 00 00 00 00 00 00 00 00 00 00 ................
00408380 00 00 00 00 00 00 00 00 00 00 00 00 00 00 00 00 ................
00408390 00 00 00 00 00 00 00 00 00 00 00 00 00 00 00 00 ................
004083A0 00 00 00 00 00 00 00 00 00 00 00 00 00 00 00 00 ................
004083B0 00 00 00 00 00 00 00 00 00 00 00 00 00 00 00 00 ................
004083C0 00 00 00 00 00 00 00 00 00 00 00 00 00 00 00 00 ................
004083D0 00 00 00 00 00 00 00 00 00 00 00 00 00 00 00 00 ................
004083E0 00 00 00 00 00 00 00 00 00 00 00 00 00 00 00 00 ................
004083F0 00 00 00 00 00 00 00 00 00 00 00 00 00 00 00 00 ................
00408400 00 00 00 00 00 00 00 00 00 00 00 00 00 00 00 00 ................
00408410 00 00 00 00 00 00 00 00 00 00 00 00 00 00 00 00 ................
00408420 00 00 00 00 00 00 00 00 00 00 00 00 00 00 00 00 ................
00408430 00 00 00 00 00 00 00 00 00 00 00 00 00 00 00 00 ................
00408440 00 00 00 00 00 00 00 00 00 00 00 00 00 00 00 00 ................
00408450 00 00 00 00 00 00 00 00 00 00 00 00 00 00 00 00 ................
00408460 00 00 00 00 00 00 00 00 00 00 00 00 00 00 00 00 ................
00408470 00 00 00 00 00 00 00 00 00 00 00 00 00 00 00 00 ................
00408480 00 00 00 00 00 00 00 00 00 00 00 00 00 00 00 00 ................
00408490 00 00 00 00 00 00 00 00 00 00 00 00 00 00 00 00 ................
004084A0 00 00 00 00 00 00 00 00 00 00 00 00 00 00 00 00 ................
004084B0 00 00 00 00 00 00 00 00 00 00 00 00 00 00 00 00 ................
004084C0 00 00 00 00 00 00 00 00 00 00 00 00 00 00 00 00 ................
004084D0 00 00 00 00 00 00 00 00 00 00 00 00 00 00 00 00 ................
004084E0 00 00 00 00 00 00 00 00 00 00 00 00 00 00 00 00 ................
004084F0 00 00 00 00 00 00 00 00 00 00 00 00 00 00 00 00 ................
00408500 00 00 00 00 00 00 00 00 00 00 00 00 00 00 00 00 ................
00408510 00 00 00 00 00 00 00 00 00 00 00 00 00 00 00 00 ................
00408520 00 00 00 00 00 00 00 00 00 00 00 00 00 00 00 00 ................
00408530 00 00 00 00 00 00 00 00 00 00 00 00 00 00 00 00 ................
00408540 00 00 00 00 00 00 00 00 00 00 00 00 00 00 00 00 ................
00408550 00 00 00 00 00 00 00 00 00 00 00 00 00 00 00 00 ................
00408560 00 00 00 00 00 00 00 00 00 00 00 00 00 00 00 00 ................
00408570 00 00 00 00 00 00 00 00 00 00 00 00 00 00 00 00 ................
00408580 00 00 00 00 00 00 00 00 00 00 00 00 00 00 00 00 ................
00408590 00 00 00 00 00 00 00 00 00 00 00 00 00 00 00 00 ................
004085A0 00 00 00 00 00 00 00 00 00 00 00 00 00 00 00 00 ................
004085B0 00 00 00 00 00 00 00 00 00 00 00 00 00 00 00 00 ................
004085C0 00 00 00 00 00 00 00 00 00 00 00 00 00 00 00 00 ................
004085D0 00 00 00 00 00 00 00 00 00 00 00 00 00 00 00 00 ................
004085E0 00 00 00 00 00 00 00 00 00 00 00 00 00 00 00 00 ................
004085F0 00 00 00 00 00 00 00 00 00 00 00 00 00 00 00 00 ................
00408600 00 00 00 00 00 00 00 00 00 00 00 00 00 00 00 00 ................
00408610 00 00 00 00 00 00 00 00 00 00 00 00 00 00 00 00 ................
00408620 00 00 00 00 00 00 00 00 00 00 00 00 00 00 00 00 ................
00408630 00 00 00 00 00 00 00 00 00 00 00 00 00 00 00 00 ................
00408640 00 00 00 00 00 00 00 00 00 00 00 00 00 00 00 00 ................
00408650 00 00 00 00 00 00 00 00 00 00 00 00 00 00 00 00 ................
00408660 00 00 00 00 00 00 00 00 00 00 00 00 00 00 00 00 ................
00408670 00 00 00 00 00 00 00 00 00 00 00 00 00 00 00 00 ................
00408680 00 00 00 00 00 00 00 00 00 00 00 00 00 00 00 00 ................
00408690 00 00 00 00 00 00 00 00 00 00 00 00 00 00 00 00 ................
004086A0 00 00 00 00 00 00 00 00 00 00 00 00 00 00 00 00 ................
004086B0 00 00 00 00 00 00 00 00 00 00 00 00 00 00 00 00 ................
004086C0 00 00 00 00 00 00 00 00 00 00 00 00 00 00 00 00 ................
004086D0 00 00 00 00 00 00 00 00 00 00 00 00 00 00 00 00 ................
004086E0 00 00 00 00 00 00 00 00 00 00 00 00 00 00 00 00 ................
004086F0 00 00 00 00 00 00 00 00 00 00 00 00 00 00 00 00 ................
00408700 00 00 00 00 00 00 00 00 00 00 00 00 00 00 00 00 ................
00408710 00 00 00 00 00 00 00 00 00 00 00 00 00 00 00 00 ................
00408720 00 00 00 00 00 00 00 00 00 00 00 00 00 00 00 00 ................
00408730 00 00 00 00 00 00 00 00 00 00 00 00 00 00 00 00 ................
00408740 00 00 00 00 00 00 00 00 00 00 00 00 00 00 00 00 ................
00408750 00 00 00 00 00 00 00 00 00 00 00 00 00 00 00 00 ................
00408760 00 00 00 00 00 00 00 00 00 00 00 00 00 00 00 00 ................
00408770 00 00 00 00 00 00 00 00 00 00 00 00 00 00 00 00 ................
00408780 00 00 00 00 00 00 00 00 00 00 00 00 00 00 00 00 ................
00408790 00 00 00 00 00 00 00 00 00 00 00 00 00 00 00 00 ................
004087A0 00 00 00 00 00 00 00 00 00 00 00 00 00 00 00 00 ................
004087B0 00 00 00 00 00 00 00 00 00 00 00 00 00 00 00 00 ................
004087C0 00 00 00 00 00 00 00 00 00 00 00 00 00 00 00 00 ................
004087D0 00 00 00 00 00 00 00 00 00 00 00 00 00 00 00 00 ................
004087E0 00 00 00 00 00 00 00 00 00 00 00 00 00 00 00 00 ................
004087F0 00 00 00 00 00 00 00 00 00 00 00 00 00 00 00 00 ................
00408800 00 00 00 00 00 00 00 00 00 00 00 00 00 00 00 00 ................
00408810 00 00 00 00 00 00 00 00 00 00 00 00 00 00 00 00 ................
00408820 00 00 00 00 00 00 00 00 00 00 00 00 00 00 00 00 ................
00408830 00 00 00 00 00 00 00 00 00 00 00 00 00 00 00 00 ................
00408840 00 00 00 00 00 00 00 00 00 00 00 00 00 00 00 00 ................
00408850 00 00 00 00 00 00 00 00 00 00 00 00 00 00 00 00 ................
00408860 00 00 00 00 00 00 00 00 00 00 00 00 00 00 00 00 ................
00408870 00 00 00 00 00 00 00 00 00 00 00 00 00 00 00 00 ................
00408880 00 00 00 00 00 00 00 00 00 00 00 00 00 00 00 00 ................
00408890 00 00 00 00 00 00 00 00 00 00 00 00 00 00 00 00 ................
004088A0 00 00 00 00 00 00 00 00 00 00 00 00 00 00 00 00 ................
004088B0 00 00 00 00 00 00 00 00 00 00 00 00 00 00 00 00 ................
004088C0 00 00 00 00 00 00 00 00 00 00 00 00 00 00 00 00 ................
004088D0 00 00 00 00 00 00 00 00 00 00 00 00 00 00 00 00 ................
004088E0 00 00 00 00 00 00 00 00 00 00 00 00 00 00 00 00 ................
004088F0 00 00 00 00 00 00 00 00 00 00 00 00 00 00 00 00 ................
00408900 00 00 00 00 00 00 00 00 00 00 00 00 00 00 00 00 ................
00408910 00 00 00 00 00 00 00 00 00 00 00 00 00 00 00 00 ................
00408920 00 00 00 00 00 00 00 00 00 00 00 00 00 00 00 00 ................
00408930 00 00 00 00 00 00 00 00 00 00 00 00 00 00 00 00 ................
00408940 00 00 00 00 00 00 00 00 00 00 00 00 00 00 00 00 ................
00408950 00 00 00 00 00 00 00 00 00 00 00 00 00 00 00 00 ................
00408960 00 00 00 00 00 00 00 00 00 00 00 00 00 00 00 00 ................
00408970 00 00 00 00 00 00 00 00 00 00 00 00 00 00 00 00 ................
00408980 00 00 00 00 00 00 00 00 00 00 00 00 00 00 00 00 ................
00408990 00 00 00 00 00 00 00 00 00 00 00 00 00 00 00 00 ................
004089A0 00 00 00 00 00 00 00 00 00 00 00 00 00 00 00 00 ................
004089B0 00 00 00 00 00 00 00 00 00 00 00 00 00 00 00 00 ................
004089C0 00 00 00 00 00 00 00 00 00 00 00 00 00 00 00 00 ................
004089D0 00 00 00 00 00 00 00 00 00 00 00 00 00 00 00 00 ................
004089E0 00 00 00 00 00 00 00 00 00 00 00 00 00 00 00 00 ................
004089F0 00 00 00 00 00 00 00 00 00 00 00 00 00 00 00 00 ................
00408A00 00 00 00 00 00 00 00 00 00 00 00 00 00 00 00 00 ................
00408A10 00 00 00 00 00 00 00 00 00 00 00 00 00 00 00 00 ................
00408A20 00 00 00 00 00 00 00 00 00 00 00 00 00 00 00 00 ................
00408A30 00 00 00 00 00 00 00 00 00 00 00 00 00 00 00 00 ................
00408A40 00 00 00 00 00 00 00 00 00 00 00 00 00 00 00 00 ................
00408A50 00 00 00 00 00 00 00 00 00 00 00 00 00 00 00 00 ................
00408A60 00 00 00 00 00 00 00 00 00 00 00 00 00 00 00 00 ................
00408A70 00 00 00 00 00 00 00 00 00 00 00 00 00 00 00 00 ................
00408A80 00 00 00 00 00 00 00 00 00 00 00 00 00 00 00 00 ................
00408A90 00 00 00 00 00 00 00 00 00 00 00 00 00 00 00 00 ................
00408AA0 00 00 00 00 00 00 00 00 00 00 00 00 00 00 00 00 ................
00408AB0 00 00 00 00 00 00 00 00 00 00 00 00 00 00 00 00 ................
00408AC0 00 00 00 00 00 00 00 00 00 00 00 00 00 00 00 00 ................
00408AD0 00 00 00 00 00 00 00 00 00 00 00 00 00 00 00 00 ................
00408AE0 00 00 00 00 00 00 00 00 00 00 00 00 00 00 00 00 ................
00408AF0 00 00 00 00 00 00 00 00 00 00 00 00 00 00 00 00 ................
00408B00 00 00 00 00 00 00 00 00 00 00 00 00 00 00 00 00 ................
00408B10 00 00 00 00 00 00 00 00 00 00 00 00 00 00 00 00 ................
00408B20 00 00 00 00 00 00 00 00 00 00 00 00 00 00 00 00 ................
00408B30 00 00 00 00 00 00 00 00 00 00 00 00 00 00 00 00 ................
00408B40 00 00 00 00 00 00 00 00 00 00 00 00 00 00 00 00 ................
00408B50 00 00 00 00 00 00 00 00 00 00 00 00 00 00 00 00 ................
00408B60 00 00 00 00 00 00 00 00 00 00 00 00 00 00 00 00 ................
00408B70 00 00 00 00 00 00 00 00 00 00 00 00 00 00 00 00 ................
00408B80 00 00 00 00 00 00 00 00 00 00 00 00 00 00 00 00 ................
00408B90 00 00 00 00 00 00 00 00 00 00 00 00 00 00 00 00 ................
00408BA0 00 00 00 00 00 00 00 00 00 00 00 00 00 00 00 00 ................
00408BB0 00 00 00 00 00 00 00 00 00 00 00 00 00 00 00 00 ................
00408BC0 00 00 00 00 00 00 00 00 00 00 00 00 00 00 00 00 ................
00408BD0 00 00 00 00 00 00 00 00 00 00 00 00 00 00 00 00 ................
00408BE0 00 00 00 00 00 00 00 00 00 00 00 00 00 00 00 00 ................
00408BF0 00 00 00 00 00 00 00 00 00 00 00 00 00 00 00 00 ................
00408C00 00 00 00 00 00 00 00 00 00 00 00 00 00 00 00 00 ................
00408C10 00 00 00 00 00 00 00 00 00 00 00 00 00 00 00 00 ................
00408C20 00 00 00 00 00 00 00 00 00 00 00 00 00 00 00 00 ................
00408C30 00 00 00 00 00 00 00 00 00 00 00 00 00 00 00 00 ................
00408C40 00 00 00 00 00 00 00 00 00 00 00 00 00 00 00 00 ................
00408C50 00 00 00 00 00 00 00 00 00 00 00 00 00 00 00 00 ................
00408C60 00 00 00 00 00 00 00 00 00 00 00 00 00 00 00 00 ................
00408C70 00 00 00 00 00 00 00 00 00 00 00 00 00 00 00 00 ................
00408C80 00 00 00 00 00 00 00 00 00 00 00 00 00 00 00 00 ................
00408C90 00 00 00 00 00 00 00 00 00 00 00 00 00 00 00 00 ................
00408CA0 00 00 00 00 00 00 00 00 00 00 00 00 00 00 00 00 ................
00408CB0 00 00 00 00 00 00 00 00 00 00 00 00 00 00 00 00 ................
00408CC0 00 00 00 00 00 00 00 00 00 00 00 00 00 00 00 00 ................
00408CD0 00 00 00 00 00 00 00 00 00 00 00 00 00 00 00 00 ................
00408CE0 00 00 00 00 00 00 00 00 00 00 00 00 00 00 00 00 ................
00408CF0 00 00 00 00 00 00 00 00 00 00 00 00 00 00 00 00 ................
00408D00 00 00 00 00 00 00 00 00 00 00 00 00 00 00 00 00 ................
00408D10 00 00 00 00 00 00 00 00 00 00 00 00 00 00 00 00 ................
00408D20 00 00 00 00 00 00 00 00 00 00 00 00 00 00 00 00 ................
00408D30 00 00 00 00 00 00 00 00 00 00 00 00 00 00 00 00 ................
00408D40 00 00 00 00 00 00 00 00 00 00 00 00 00 00 00 00 ................
00408D50 00 00 00 00 00 00 00 00 00 00 00 00 00 00 00 00 ................
00408D60 00 00 00 00 00 00 00 00 00 00 00 00 00 00 00 00 ................
00408D70 00 00 00 00 00 00 00 00 00 00 00 00 00 00 00 00 ................
00408D80 00 00 00 00 00 00 00 00 00 00 00 00 00 00 00 00 ................
00408D90 00 00 00 00 00 00 00 00 00 00 00 00 00 00 00 00 ................
00408DA0 00 00 00 00 00 00 00 00 00 00 00 00 00 00 00 00 ................
00408DB0 00 00 00 00 00 00 00 00 00 00 00 00 00 00 00 00 ................
00408DC0 00 00 00 00 00 00 00 00 00 00 00 00 00 00 00 00 ................
00408DD0 00 00 00 00 00 00 00 00 00 00 00 00 00 00 00 00 ................
00408DE0 00 00 00 00 00 00 00 00 00 00 00 00 00 00 00 00 ................
00408DF0 00 00 00 00 00 00 00 00 00 00 00 00 00 00 00 00 ................
00408E00 00 00 00 00 00 00 00 00 00 00 00 00 00 00 00 00 ................
00408E10 00 00 00 00 00 00 00 00 00 00 00 00 00 00 00 00 ................
00408E20 00 00 00 00 00 00 00 00 00 00 00 00 00 00 00 00 ................
00408E30 00 00 00 00 00 00 00 00 00 00 00 00 00 00 00 00 ................
00408E40 00 00 00 00 00 00 00 00 00 00 00 00 00 00 00 00 ................
00408E50 00 00 00 00 00 00 00 00 00 00 00 00 00 00 00 00 ................
00408E60 00 00 00 00 00 00 00 00 00 00 00 00 00 00 00 00 ................
00408E70 00 00 00 00 00 00 00 00 00 00 00 00 00 00 00 00 ................
00408E80 00 00 00 00 00 00 00 00 00 00 00 00 00 00 00 00 ................
00408E90 00 00 00 00 00 00 00 00 00 00 00 00 00 00 00 00 ................
00408EA0 00 00 00 00 00 00 00 00 00 00 00 00 00 00 00 00 ................
00408EB0 00 00 00 00 00 00 00 00 00 00 00 00 00 00 00 00 ................
00408EC0 00 00 00 00 00 00 00 00 00 00 00 00 00 00 00 00 ................
00408ED0 00 00 00 00 00 00 00 00 00 00 00 00 00 00 00 00 ................
00408EE0 00 00 00 00 00 00 00 00 00 00 00 00 00 00 00 00 ................
00408EF0 00 00 00 00 00 00 00 00 00 00 00 00 00 00 00 00 ................
00408F00 00 00 00 00 00 00 00 00 00 00 00 00 00 00 00 00 ................
00408F10 00 00 00 00 00 00 00 00 00 00 00 00 00 00 00 00 ................
00408F20 00 00 00 00 00 00 00 00 00 00 00 00 00 00 00 00 ................
00408F30 00 00 00 00 00 00 00 00 00 00 00 00 00 00 00 00 ................
00408F40 00 00 00 00 00 00 00 00 00 00 00 00 00 00 00 00 ................
00408F50 00 00 00 00 00 00 00 00 00 00 00 00 00 00 00 00 ................
00408F60 00 00 00 00 00 00 00 00 00 00 00 00 00 00 00 00 ................
00408F70 00 00 00 00 00 00 00 00 00 00 00 00 00 00 00 00 ................
00408F80 00 00 00 00 00 00 00 00 00 00 00 00 00 00 00 00 ................
00408F90 00 00 00 00 00 00 00 00 00 00 00 00 00 00 00 00 ................
00408FA0 00 00 00 00 00 00 00 00 00 00 00 00 00 00 00 00 ................
00408FB0 00 00 00 00 00 00 00 00 00 00 00 00 00 00 00 00 ................
00408FC0 00 00 00 00 00 00 00 00 00 00 00 00 00 00 00 00 ................
00408FD0 00 00 00 00 00 00 00 00 00 00 00 00 00 00 00 00 ................
00408FE0 00 00 00 00 00 00 00 00 00 00 00 00 00 00 00 00 ................
00408FF0 00 00 00 00 00 00 00 00 00 00 00 00 00 00 00 00 ................
00409000 00 00 00 00 00 00 00 00 00 00 00 00 00 00 00 00 ................
00409010 00 00 00 00 00 00 00 00 00 00 00 00 00 00 00 00 ................
00409020 00 00 00 00 00 00 00 00 00 00 00 00 00 00 00 00 ................
00409030 00 00 00 00 00 00 00 00 00 00 00 00 00 00 00 00 ................
00409040 00 00 00 00 00 00 00 00 00 00 00 00 00 00 00 00 ................
00409050 00 00 00 00 00 00 00 00 00 00 00 00 00 00 00 00 ................
00409060 00 00 00 00 00 00 00 00 00 00 00 00 00 00 00 00 ................
00409070 00 00 00 00 00 00 00 00 00 00 00 00 00 00 00 00 ................
00409080 00 00 00 00 00 00 00 00 00 00 00 00 00 00 00 00 ................
00409090 00 00 00 00 00 00 00 00 00 00 00 00 00 00 00 00 ................
004090A0 00 00 00 00 00 00 00 00 00 00 00 00 00 00 00 00 ................
004090B0 00 00 00 00 00 00 00 00 00 00 00 00 00 00 00 00 ................
004090C0 00 00 00 00 00 00 00 00 00 00 00 00 00 00 00 00 ................
004090D0 00 00 00 00 00 00 00 00 00 00 00 00 00 00 00 00 ................
004090E0 00 00 00 00 00 00 00 00 00 00 00 00 00 00 00 00 ................
004090F0 00 00 00 00 00 00 00 00 00 00 00 00 00 00 00 00 ................
00409100 00 00 00 00 00 00 00 00 00 00 00 00 00 00 00 00 ................
00409110 00 00 00 00 00 00 00 00 00 00 00 00 00 00 00 00 ................
00409120 00 00 00 00 00 00 00 00 00 00 00 00 00 00 00 00 ................
00409130 00 00 00 00 00 00 00 00 00 00 00 00 00 00 00 00 ................
00409140 00 00 00 00 00 00 00 00 00 00 00 00 00 00 00 00 ................
00409150 00 00 00 00 00 00 00 00 00 00 00 00 00 00 00 00 ................
00409160 00 00 00 00 00 00 00 00 00 00 00 00 00 00 00 00 ................
00409170 00 00 00 00 00 00 00 00 00 00 00 00 00 00 00 00 ................
00409180 00 00 00 00 00 00 00 00 00 00 00 00 00 00 00 00 ................
00409190 00 00 00 00 00 00 00 00 00 00 00 00 00 00 00 00 ................
004091A0 00 00 00 00 00 00 00 00 00 00 00 00 00 00 00 00 ................
004091B0 00 00 00 00 00 00 00 00 00 00 00 00 00 00 00 00 ................
004091C0 00 00 00 00 00 00 00 00 00 00 00 00 00 00 00 00 ................
004091D0 00 00 00 00 00 00 00 00 00 00 00 00 00 00 00 00 ................
004091E0 00 00 00 00 00 00 00 00 00 00 00 00 00 00 00 00 ................
004091F0 00 00 00 00 00 00 00 00 00 00 00 00 00 00 00 00 ................
00409200 00 00 00 00 00 00 00 00 00 00 00 00 00 00 00 00 ................
00409210 00 00 00 00 00 00 00 00 00 00 00 00 00 00 00 00 ................
00409220 00 00 00 00 00 00 00 00 00 00 00 00 00 00 00 00 ................
00409230 00 00 00 00 00 00 00 00 00 00 00 00 00 00 00 00 ................
00409240 00 00 00 00 00 00 00 00 00 00 00 00 00 00 00 00 ................
00409250 00 00 00 00 00 00 00 00 00 00 00 00 00 00 00 00 ................
00409260 00 00 00 00 00 00 00 00 00 00 00 00 00 00 00 00 ................
00409270 00 00 00 00 00 00 00 00 00 00 00 00 00 00 00 00 ................
00409280 00 00 00 00 00 00 00 00 00 00 00 00 00 00 00 00 ................
00409290 00 00 00 00 00 00 00 00 00 00 00 00 00 00 00 00 ................
004092A0 00 00 00 00 00 00 00 00 00 00 00 00 00 00 00 00 ................
004092B0 00 00 00 00 00 00 00 00 00 00 00 00 00 00 00 00 ................
004092C0 00 00 00 00 00 00 00 00 00 00 00 00 00 00 00 00 ................
004092D0 00 00 00 00 00 00 00 00 00 00 00 00 00 00 00 00 ................
004092E0 00 00 00 00 00 00 00 00 00 00 00 00 00 00 00 00 ................
004092F0 00 00 00 00 00 00 00 00 00 00 00 00 00 00 00 00 ................
00409300 00 00 00 00 00 00 00 00 00 00 00 00 00 00 00 00 ................
00409310 00 00 00 00 00 00 00 00 00 00 00 00 00 00 00 00 ................
00409320 00 00 00 00 00 00 00 00 00 00 00 00 00 00 00 00 ................
00409330 00 00 00 00 00 00 00 00 00 00 00 00 00 00 00 00 ................
00409340 00 00 00 00 00 00 00 00 00 00 00 00 00 00 00 00 ................
00409350 00 00 00 00 00 00 00 00 00 00 00 00 00 00 00 00 ................
00409360 00 00 00 00 00 00 00 00 00 00 00 00 00 00 00 00 ................
00409370 00 00 00 00 00 00 00 00 00 00 00 00 00 00 00 00 ................
00409380 00 00 00 00 00 00 00 00 00 00 00 00 00 00 00 00 ................
00409390 00 00 00 00 00 00 00 00 00 00 00 00 00 00 00 00 ................
004093A0 00 00 00 00 00 00 00 00 00 00 00 00 00 00 00 00 ................
004093B0 00 00 00 00 00 00 00 00 00 00 00 00 00 00 00 00 ................
004093C0 00 00 00 00 00 00 00 00 00 00 00 00 00 00 00 00 ................
004093D0 00 00 00 00 00 00 00 00 00 00 00 00 00 00 00 00 ................
004093E0 00 00 00 00 00 00 00 00 00 00 00 00 00 00 00 00 ................
004093F0 00 00 00 00 00 00 00 00 00 00 00 00 00 00 00 00 ................
00409400 00 00 00 00 00 00 00 00 00 00 00 00 00 00 00 00 ................
00409410 00 00 00 00 00 00 00 00 00 00 00 00 00 00 00 00 ................
00409420 00 00 00 00 00 00 00 00 00 00 00 00 00 00 00 00 ................
00409430 00 00 00 00 00 00 00 00 00 00 00 00 00 00 00 00 ................
00409440 00 00 00 00 00 00 00 00 00 00 00 00 00 00 00 00 ................
00409450 00 00 00 00 00 00 00 00 00 00 00 00 00 00 00 00 ................
00409460 00 00 00 00 00 00 00 00 00 00 00 00 00 00 00 00 ................
00409470 00 00 00 00 00 00 00 00 00 00 00 00 00 00 00 00 ................
00409480 00 00 00 00 00 00 00 00 00 00 00 00 00 00 00 00 ................
00409490 00 00 00 00 00 00 00 00 00 00 00 00 00 00 00 00 ................
004094A0 00 00 00 00 00 00 00 00 00 00 00 00 00 00 00 00 ................
004094B0 00 00 00 00 00 00 00 00 00 00 00 00 00 00 00 00 ................
004094C0 00 00 00 00 00 00 00 00 00 00 00 00 00 00 00 00 ................
004094D0 00 00 00 00 00 00 00 00 00 00 00 00 00 00 00 00 ................
004094E0 00 00 00 00 00 00 00 00 00 00 00 00 00 00 00 00 ................
004094F0 00 00 00 00 00 00 00 00 00 00 00 00 00 00 00 00 ................
00409500 00 00 00 00 00 00 00 00 00 00 00 00 00 00 00 00 ................
00409510 00 00 00 00 00 00 00 00 00 00 00 00 00 00 00 00 ................
00409520 00 00 00 00 00 00 00 00 00 00 00 00 00 00 00 00 ................
00409530 00 00 00 00 00 00 00 00 00 00 00 00 00 00 00 00 ................
00409540 00 00 00 00 00 00 00 00 00 00 00 00 00 00 00 00 ................
00409550 00 00 00 00 00 00 00 00 00 00 00 00 00 00 00 00 ................
00409560 00 00 00 00 00 00 00 00 00 00 00 00 00 00 00 00 ................
00409570 00 00 00 00 00 00 00 00 00 00 00 00 00 00 00 00 ................
00409580 00 00 00 00 00 00 00 00 00 00 00 00 00 00 00 00 ................
00409590 00 00 00 00 00 00 00 00 00 00 00 00 00 00 00 00 ................
004095A0 00 00 00 00 00 00 00 00 00 00 00 00 00 00 00 00 ................
004095B0 00 00 00 00 00 00 00 00 00 00 00 00 00 00 00 00 ................
004095C0 00 00 00 00 00 00 00 00 00 00 00 00 00 00 00 00 ................
004095D0 00 00 00 00 00 00 00 00 00 00 00 00 00 00 00 00 ................
004095E0 00 00 00 00 00 00 00 00 00 00 00 00 00 00 00 00 ................
004095F0 00 00 00 00 00 00 00 00 00 00 00 00 00 00 00 00 ................
00409600 00 00 00 00 00 00 00 00 00 00 00 00 00 00 00 00 ................
00409610 00 00 00 00 00 00 00 00 00 00 00 00 00 00 00 00 ................
00409620 00 00 00 00 00 00 00 00 00 00 00 00 00 00 00 00 ................
00409630 00 00 00 00 00 00 00 00 00 00 00 00 00 00 00 00 ................
00409640 00 00 00 00 00 00 00 00 00 00 00 00 00 00 00 00 ................
00409650 00 00 00 00 00 00 00 00 00 00 00 00 00 00 00 00 ................
00409660 00 00 00 00 00 00 00 00 00 00 00 00 00 00 00 00 ................
00409670 00 00 00 00 00 00 00 00 00 00 00 00 00 00 00 00 ................
00409680 00 00 00 00 00 00 00 00 00 00 00 00 00 00 00 00 ................
00409690 00 00 00 00 00 00 00 00 00 00 00 00 00 00 00 00 ................
004096A0 00 00 00 00 00 00 00 00 00 00 00 00 00 00 00 00 ................
004096B0 00 00 00 00 00 00 00 00 00 00 00 00 00 00 00 00 ................
004096C0 00 00 00 00 00 00 00 00 00 00 00 00 00 00 00 00 ................
004096D0 00 00 00 00 00 00 00 00 00 00 00 00 00 00 00 00 ................
004096E0 00 00 00 00 00 00 00 00 00 00 00 00 00 00 00 00 ................
004096F0 00 00 00 00 00 00 00 00 00 00 00 00 00 00 00 00 ................
00409700 00 00 00 00 00 00 00 00 00 00 00 00 00 00 00 00 ................
00409710 00 00 00 00 00 00 00 00 00 00 00 00 00 00 00 00 ................
00409720 00 00 00 00 00 00 00 00 00 00 00 00 00 00 00 00 ................
00409730 00 00 00 00 00 00 00 00 00 00 00 00 00 00 00 00 ................
00409740 00 00 00 00 00 00 00 00 00 00 00 00 00 00 00 00 ................
00409750 00 00 00 00 00 00 00 00 00 00 00 00 00 00 00 00 ................
00409760 00 00 00 00 00 00 00 00 00 00 00 00 00 00 00 00 ................
00409770 00 00 00 00 00 00 00 00 00 00 00 00 00 00 00 00 ................
00409780 00 00 00 00 00 00 00 00 00 00 00 00 00 00 00 00 ................
00409790 00 00 00 00 00 00 00 00 00 00 00 00 00 00 00 00 ................
004097A0 00 00 00 00 00 00 00 00 00 00 00 00 00 00 00 00 ................
004097B0 00 00 00 00 00 00 00 00 00 00 00 00 00 00 00 00 ................
004097C0 00 00 00 00 00 00 00 00 00 00 00 00 00 00 00 00 ................
004097D0 00 00 00 00 00 00 00 00 00 00 00 00 00 00 00 00 ................
004097E0 00 00 00 00 00 00 00 00 00 00 00 00 00 00 00 00 ................
004097F0 00 00 00 00 00 00 00 00 00 00 00 00 00 00 00 00 ................
00409800 00 00 00 00 00 00 00 00 00 00 00 00 00 00 00 00 ................
00409810 00 00 00 00 00 00 00 00 00 00 00 00 00 00 00 00 ................
00409820 00 00 00 00 00 00 00 00 00 00 00 00 00 00 00 00 ................
00409830 00 00 00 00 00 00 00 00 00 00 00 00 00 00 00 00 ................
00409840 00 00 00 00 00 00 00 00 00 00 00 00 00 00 00 00 ................
00409850 00 00 00 00 00 00 00 00 00 00 00 00 00 00 00 00 ................
00409860 00 00 00 00 00 00 00 00 00 00 00 00 00 00 00 00 ................
00409870 00 00 00 00 00 00 00 00 00 00 00 00 00 00 00 00 ................
00409880 00 00 00 00 00 00 00 00 00 00 00 00 00 00 00 00 ................
00409890 00 00 00 00 00 00 00 00 00 00 00 00 00 00 00 00 ................
004098A0 00 00 00 00 00 00 00 00 00 00 00 00 00 00 00 00 ................
004098B0 00 00 00 00 00 00 00 00 00 00 00 00 00 00 00 00 ................
004098C0 00 00 00 00 00 00 00 00 00 00 00 00 00 00 00 00 ................
004098D0 00 00 00 00 00 00 00 00 00 00 00 00 00 00 00 00 ................
004098E0 00 00 00 00 00 00 00 00 00 00 00 00 00 00 00 00 ................
004098F0 00 00 00 00 00 00 00 00 00 00 00 00 00 00 00 00 ................
00409900 00 00 00 00 00 00 00 00 00 00 00 00 00 00 00 00 ................
00409910 00 00 00 00 00 00 00 00 00 00 00 00 00 00 00 00 ................
00409920 00 00 00 00 00 00 00 00 00 00 00 00 00 00 00 00 ................
00409930 00 00 00 00 00 00 00 00 00 00 00 00 00 00 00 00 ................
00409940 00 00 00 00 00 00 00 00 00 00 00 00 00 00 00 00 ................
00409950 00 00 00 00 00 00 00 00 00 00 00 00 00 00 00 00 ................
00409960 00 00 00 00 00 00 00 00 00 00 00 00 00 00 00 00 ................
00409970 00 00 00 00 00 00 00 00 00 00 00 00 00 00 00 00 ................
00409980 00 00 00 00 00 00 00 00 00 00 00 00 00 00 00 00 ................
00409990 00 00 00 00 00 00 00 00 00 00 00 00 00 00 00 00 ................
004099A0 00 00 00 00 00 00 00 00 00 00 00 00 00 00 00 00 ................
004099B0 00 00 00 00 00 00 00 00 00 00 00 00 00 00 00 00 ................
004099C0 00 00 00 00 00 00 00 00 00 00 00 00 00 00 00 00 ................
004099D0 00 00 00 00 00 00 00 00 00 00 00 00 00 00 00 00 ................
004099E0 00 00 00 00 00 00 00 00 00 00 00 00 00 00 00 00 ................
004099F0 00 00 00 00 00 00 00 00 00 00 00 00 00 00 00 00 ................
00409A00 00 00 00 00 00 00 00 00 00 00 00 00 00 00 00 00 ................
00409A10 00 00 00 00 00 00 00 00 00 00 00 00 00 00 00 00 ................
00409A20 00 00 00 00 00 00 00 00 00 00 00 00 00 00 00 00 ................
00409A30 00 00 00 00 00 00 00 00 00 00 00 00 00 00 00 00 ................
00409A40 00 00 00 00 00 00 00 00 00 00 00 00 00 00 00 00 ................
00409A50 00 00 00 00 00 00 00 00 00 00 00 00 00 00 00 00 ................
00409A60 00 00 00 00 00 00 00 00 00 00 00 00 00 00 00 00 ................
00409A70 00 00 00 00 00 00 00 00 00 00 00 00 00 00 00 00 ................
00409A80 00 00 00 00 00 00 00 00 00 00 00 00 00 00 00 00 ................
00409A90 00 00 00 00 00 00 00 00 00 00 00 00 00 00 00 00 ................
00409AA0 00 00 00 00 00 00 00 00 00 00 00 00 00 00 00 00 ................
00409AB0 00 00 00 00 00 00 00 00 00 00 00 00 00 00 00 00 ................
00409AC0 00 00 00 00 00 00 00 00 00 00 00 00 00 00 00 00 ................
00409AD0 00 00 00 00 00 00 00 00 00 00 00 00 00 00 00 00 ................
00409AE0 00 00 00 00 00 00 00 00 00 00 00 00 00 00 00 00 ................
00409AF0 00 00 00 00 00 00 00 00 00 00 00 00 00 00 00 00 ................
00409B00 00 00 00 00 00 00 00 00 00 00 00 00 00 00 00 00 ................
00409B10 00 00 00 00 00 00 00 00 00 00 00 00 00 00 00 00 ................
00409B20 00 00 00 00 00 00 00 00 00 00 00 00 00 00 00 00 ................
00409B30 00 00 00 00 00 00 00 00 00 00 00 00 00 00 00 00 ................
00409B40 00 00 00 00 00 00 00 00 00 00 00 00 00 00 00 00 ................
00409B50 00 00 00 00 00 00 00 00 00 00 00 00 00 00 00 00 ................
00409B60 00 00 00 00 00 00 00 00 00 00 00 00 00 00 00 00 ................
00409B70 00 00 00 00 00 00 00 00 00 00 00 00 00 00 00 00 ................
00409B80 00 00 00 00 00 00 00 00 00 00 00 00 00 00 00 00 ................
00409B90 00 00 00 00 00 00 00 00 00 00 00 00 00 00 00 00 ................
00409BA0 00 00 00 00 00 00 00 00 00 00 00 00 00 00 00 00 ................
00409BB0 00 00 00 00 00 00 00 00 00 00 00 00 00 00 00 00 ................
00409BC0 00 00 00 00 00 00 00 00 00 00 00 00 00 00 00 00 ................
00409BD0 00 00 00 00 00 00 00 00 00 00 00 00 00 00 00 00 ................
00409BE0 00 00 00 00 00 00 00 00 00 00 00 00 00 00 00 00 ................
00409BF0 00 00 00 00 00 00 00 00 00 00 00 00 00 00 00 00 ................
00409C00 00 00 00 00 00 00 00 00 00 00 00 00 00 00 00 00 ................
00409C10 00 00 00 00 00 00 00 00 00 00 00 00 00 00 00 00 ................
00409C20 00 00 00 00 00 00 00 00 00 00 00 00 00 00 00 00 ................
00409C30 00 00 00 00 00 00 00 00 00 00 00 00 00 00 00 00 ................
00409C40 00 00 00 00 00 00 00 00 00 00 00 00 00 00 00 00 ................
00409C50 00 00 00 00 00 00 00 00 00 00 00 00 00 00 00 00 ................
00409C60 00 00 00 00 00 00 00 00 00 00 00 00 00 00 00 00 ................
00409C70 00 00 00 00 00 00 00 00 00 00 00 00 00 00 00 00 ................
00409C80 00 00 00 00 00 00 00 00 00 00 00 00 00 00 00 00 ................
00409C90 00 00 00 00 00 00 00 00 00 00 00 00 00 00 00 00 ................
00409CA0 00 00 00 00 00 00 00 00 00 00 00 00 00 00 00 00 ................
00409CB0 00 00 00 00 00 00 00 00 00 00 00 00 00 00 00 00 ................
00409CC0 00 00 00 00 00 00 00 00 00 00 00 00 00 00 00 00 ................
00409CD0 00 00 00 00 00 00 00 00 00 00 00 00 00 00 00 00 ................
00409CE0 00 00 00 00 00 00 00 00 00 00 00 00 00 00 00 00 ................
00409CF0 00 00 00 00 00 00 00 00 00 00 00 00 00 00 00 00 ................
00409D00 00 00 00 00 00 00 00 00 00 00 00 00 00 00 00 00 ................
00409D10 00 00 00 00 00 00 00 00 00 00 00 00 00 00 00 00 ................
00409D20 00 00 00 00 00 00 00 00 00 00 00 00 00 00 00 00 ................
00409D30 00 00 00 00 00 00 00 00 00 00 00 00 00 00 00 00 ................
00409D40 00 00 00 00 00 00 00 00 00 00 00 00 00 00 00 00 ................
00409D50 00 00 00 00 00 00 00 00 00 00 00 00 00 00 00 00 ................
00409D60 00 00 00 00 00 00 00 00 00 00 00 00 00 00 00 00 ................
00409D70 00 00 00 00 00 00 00 00 00 00 00 00 00 00 00 00 ................
00409D80 00 00 00 00 00 00 00 00 00 00 00 00 00 00 00 00 ................
00409D90 00 00 00 00 00 00 00 00 00 00 00 00 00 00 00 00 ................
00409DA0 00 00 00 00 00 00 00 00 00 00 00 00 00 00 00 00 ................
00409DB0 00 00 00 00 00 00 00 00 00 00 00 00 00 00 00 00 ................
00409DC0 00 00 00 00 00 00 00 00 00 00 00 00 00 00 00 00 ................
00409DD0 00 00 00 00 00 00 00 00 00 00 00 00 00 00 00 00 ................
00409DE0 00 00 00 00 00 00 00 00 00 00 00 00 00 00 00 00 ................
00409DF0 00 00 00 00 00 00 00 00 00 00 00 00 00 00 00 00 ................
00409E00 00 00 00 00 00 00 00 00 00 00 00 00 00 00 00 00 ................
00409E10 00 00 00 00 00 00 00 00 00 00 00 00 00 00 00 00 ................
00409E20 00 00 00 00 00 00 00 00 00 00 00 00 00 00 00 00 ................
00409E30 00 00 00 00 00 00 00 00 00 00 00 00 00 00 00 00 ................
00409E40 00 00 00 00 00 00 00 00 00 00 00 00 00 00 00 00 ................
00409E50 00 00 00 00 00 00 00 00 00 00 00 00 00 00 00 00 ................
00409E60 00 00 00 00 00 00 00 00 00 00 00 00 00 00 00 00 ................
00409E70 00 00 00 00 00 00 00 00 00 00 00 00 00 00 00 00 ................
00409E80 00 00 00 00 00 00 00 00 00 00 00 00 00 00 00 00 ................
00409E90 00 00 00 00 00 00 00 00 00 00 00 00 00 00 00 00 ................
00409EA0 00 00 00 00 00 00 00 00 00 00 00 00 00 00 00 00 ................
00409EB0 00 00 00 00 00 00 00 00 00 00 00 00 00 00 00 00 ................
00409EC0 00 00 00 00 00 00 00 00 00 00 00 00 00 00 00 00 ................
00409ED0 00 00 00 00 00 00 00 00 00 00 00 00 00 00 00 00 ................
00409EE0 00 00 00 00 00 00 00 00 00 00 00 00 00 00 00 00 ................
00409EF0 00 00 00 00 00 00 00 00 00 00 00 00 00 00 00 00 ................
00409F00 00 00 00 00 00 00 00 00 00 00 00 00 00 00 00 00 ................
00409F10 00 00 00 00 00 00 00 00 00 00 00 00 00 00 00 00 ................
00409F20 00 00 00 00 00 00 00 00 00 00 00 00 00 00 00 00 ................
00409F30 00 00 00 00 00 00 00 00 00 00 00 00 00 00 00 00 ................
00409F40 00 00 00 00 00 00 00 00 00 00 00 00 00 00 00 00 ................
00409F50 00 00 00 00 00 00 00 00 00 00 00 00 00 00 00 00 ................
00409F60 00 00 00 00 00 00 00 00 00 00 00 00 00 00 00 00 ................
00409F70 00 00 00 00 00 00 00 00 00 00 00 00 00 00 00 00 ................
00409F80 00 00 00 00 00 00 00 00 00 00 00 00 00 00 00 00 ................
00409F90 00 00 00 00 00 00 00 00 00 00 00 00 00 00 00 00 ................
00409FA0 00 00 00 00 00 00 00 00 00 00 00 00 00 00 00 00 ................
00409FB0 00 00 00 00 00 00 00 00 00 00 00 00 00 00 00 00 ................
00409FC0 00 00 00 00 00 00 00 00 00 00 00 00 00 00 00 00 ................
00409FD0 00 00 00 00 00 00 00 00 00 00 00 00 00 00 00 00 ................
00409FE0 00 00 00 00 00 00 00 00 00 00 00 00 00 00 00 00 ................
00409FF0 00 00 00 00 00 00 00 00 00 00 00 00 00 00 00 00 ................
0040A000 00 00 00 00 00 00 00 00 00 00 00 00 00 00 00 00 ................
0040A010 00 00 00 00 00 00 00 00 00 00 00 00 00 00 00 00 ................
0040A020 00 00 00 00 00 00 00 00 00 00 00 00 00 00 00 00 ................
0040A030 00 00 00 00 00 00 00 00 00 00 00 00 00 00 00 00 ................
0040A040 00 00 00 00 00 00 00 00 00 00 00 00 00 00 00 00 ................
0040A050 00 00 00 00 00 00 00 00 00 00 00 00 00 00 00 00 ................
0040A060 00 00 00 00 00 00 00 00 00 00 00 00 00 00 00 00 ................
0040A070 00 00 00 00 00 00 00 00 00 00 00 00 00 00 00 00 ................
0040A080 00 00 00 00 00 00 00 00 00 00 00 00 00 00 00 00 ................
0040A090 00 00 00 00 00 00 00 00 00 00 00 00 00 00 00 00 ................
0040A0A0 00 00 00 00 00 00 00 00 00 00 00 00 00 00 00 00 ................
0040A0B0 00 00 00 00 00 00 00 00 00 00 00 00 00 00 00 00 ................
0040A0C0 00 00 00 00 00 00 00 00 00 00 00 00 00 00 00 00 ................
0040A0D0 00 00 00 00 00 00 00 00 00 00 00 00 00 00 00 00 ................
0040A0E0 00 00 00 00 00 00 00 00 00 00 00 00 00 00 00 00 ................
0040A0F0 00 00 00 00 00 00 00 00 00 00 00 00 00 00 00 00 ................
0040A100 00 00 00 00 00 00 00 00 00 00 00 00 00 00 00 00 ................
0040A110 00 00 00 00 00 00 00 00 00 00 00 00 00 00 00 00 ................
0040A120 00 00 00 00 00 00 00 00 00 00 00 00 00 00 00 00 ................
0040A130 00 00 00 00 00 00 00 00 00 00 00 00 00 00 00 00 ................
0040A140 00 00 00 00 00 00 00 00 00 00 00 00 00 00 00 00 ................
0040A150 00 00 00 00 00 00 00 00 00 00 00 00 00 00 00 00 ................
0040A160 00 00 00 00 00 00 00 00 00 00 00 00 00 00 00 00 ................
0040A170 00 00 00 00 00 00 00 00 00 00 00 00 00 00 00 00 ................
0040A180 00 00 00 00 00 00 00 00 00 00 00 00 00 00 00 00 ................
0040A190 00 00 00 00 00 00 00 00 00 00 00 00 00 00 00 00 ................
0040A1A0 00 00 00 00 00 00 00 00 00 00 00 00 00 00 00 00 ................
0040A1B0 00 00 00 00 00 00 00 00 00 00 00 00 00 00 00 00 ................
0040A1C0 00 00 00 00 00 00 00 00 00 00 00 00 00 00 00 00 ................
0040A1D0 00 00 00 00 00 00 00 00 00 00 00 00 00 00 00 00 ................
0040A1E0 00 00 00 00 00 00 00 00 00 00 00 00 00 00 00 00 ................
0040A1F0 00 00 00 00 00 00 00 00 00 00 00 00 00 00 00 00 ................
0040A200 00 00 00 00 00 00 00 00 00 00 00 00 00 00 00 00 ................
0040A210 00 00 00 00 00 00 00 00 00 00 00 00 00 00 00 00 ................
0040A220 00 00 00 00 00 00 00 00 00 00 00 00 00 00 00 00 ................
0040A230 00 00 00 00 00 00 00 00 00 00 00 00 00 00 00 00 ................
0040A240 00 00 00 00 00 00 00 00 00 00 00 00 00 00 00 00 ................
0040A250 00 00 00 00 00 00 00 00 00 00 00 00 00 00 00 00 ................
0040A260 00 00 00 00 00 00 00 00 00 00 00 00 00 00 00 00 ................
0040A270 00 00 00 00 00 00 00 00 00 00 00 00 00 00 00 00 ................
0040A280 00 00 00 00 00 00 00 00 00 00 00 00 00 00 00 00 ................
0040A290 00 00 00 00 00 00 00 00 00 00 00 00 00 00 00 00 ................
0040A2A0 00 00 00 00 00 00 00 00 00 00 00 00 00 00 00 00 ................
0040A2B0 00 00 00 00 00 00 00 00 00 00 00 00 00 00 00 00 ................
0040A2C0 00 00 00 00 00 00 00 00 00 00 00 00 00 00 00 00 ................
0040A2D0 00 00 00 00 00 00 00 00 00 00 00 00 00 00 00 00 ................
0040A2E0 00 00 00 00 00 00 00 00 00 00 00 00 00 00 00 00 ................
0040A2F0 00 00 00 00 00 00 00 00 00 00 00 00 00 00 00 00 ................
0040A300 00 00 00 00 00 00 00 00 00 00 00 00 00 00 00 00 ................
0040A310 00 00 00 00 00 00 00 00 00 00 00 00 00 00 00 00 ................
0040A320 00 00 00 00 00 00 00 00 00 00 00 00 00 00 00 00 ................
0040A330 00 00 00 00 00 00 00 00 00 00 00 00 00 00 00 00 ................
0040A340 00 00 00 00 00 00 00 00 00 00 00 00 00 00 00 00 ................
0040A350 00 00 00 00 00 00 00 00 00 00 00 00 00 00 00 00 ................
0040A360 00 00 00 00 00 00 00 00 00 00 00 00 00 00 00 00 ................
0040A370 00 00 00 00 00 00 00 00 00 00 00 00 00 00 00 00 ................
0040A380 00 00 00 00 00 00 00 00 00 00 00 00 00 00 00 00 ................
0040A390 00 00 00 00 00 00 00 00 00 00 00 00 00 00 00 00 ................
0040A3A0 00 00 00 00 00 00 00 00 00 00 00 00 00 00 00 00 ................
0040A3B0 00 00 00 00 00 00 00 00 00 00 00 00 00 00 00 00 ................
0040A3C0 00 00 00 00 00 00 00 00 00 00 00 00 00 00 00 00 ................
0040A3D0 00 00 00 00 00 00 00 00 00 00 00 00 00 00 00 00 ................
0040A3E0 00 00 00 00 00 00 00 00 00 00 00 00 00 00 00 00 ................
0040A3F0 00 00 00 00 00 00 00 00 00 00 00 00 00 00 00 00 ................
0040A400 00 00 00 00 00 00 00 00 00 00 00 00 00 00 00 00 ................
0040A410 00 00 00 00 00 00 00 00 00 00 00 00 00 00 00 00 ................
0040A420 00 00 00 00 00 00 00 00 00 00 00 00 00 00 00 00 ................
0040A430 00 00 00 00 00 00 00 00 00 00 00 00 00 00 00 00 ................
0040A440 00 00 00 00 00 00 00 00 00 00 00 00 00 00 00 00 ................
0040A450 00 00 00 00 00 00 00 00 00 00 00 00 00 00 00 00 ................
0040A460 00 00 00 00 00 00 00 00 00 00 00 00 00 00 00 00 ................
0040A470 00 00 00 00 00 00 00 00 00 00 00 00 00 00 00 00 ................
0040A480 00 00 00 00 00 00 00 00 00 00 00 00 00 00 00 00 ................
0040A490 00 00 00 00 00 00 00 00 00 00 00 00 00 00 00 00 ................
0040A4A0 00 00 00 00 00 00 00 00 00 00 00 00 00 00 00 00 ................
0040A4B0 00 00 00 00 00 00 00 00 00 00 00 00 00 00 00 00 ................
0040A4C0 00 00 00 00 00 00 00 00 00 00 00 00 00 00 00 00 ................
0040A4D0 00 00 00 00 00 00 00 00 00 00 00 00 00 00 00 00 ................
0040A4E0 00 00 00 00 00 00 00 00 00 00 00 00 00 00 00 00 ................
0040A4F0 00 00 00 00 00 00 00 00 00 00 00 00 00 00 00 00 ................
0040A500 00 00 00 00 00 00 00 00 00 00 00 00 00 00 00 00 ................
0040A510 00 00 00 00 00 00 00 00 00 00 00 00 00 00 00 00 ................
0040A520 00 00 00 00 00 00 00 00 00 00 00 00 00 00 00 00 ................
0040A530 00 00 00 00 00 00 00 00 00 00 00 00 00 00 00 00 ................
0040A540 00 00 00 00 00 00 00 00 00 00 00 00 00 00 00 00 ................
0040A550 00 00 00 00 00 00 00 00 00 00 00 00 00 00 00 00 ................
0040A560 00 00 00 00 00 00 00 00 00 00 00 00 00 00 00 00 ................
0040A570 00 00 00 00 00 00 00 00 00 00 00 00 00 00 00 00 ................
0040A580 00 00 00 00 00 00 00 00 00 00 00 00 00 00 00 00 ................
0040A590 00 00 00 00 00 00 00 00 00 00 00 00 00 00 00 00 ................
0040A5A0 00 00 00 00 00 00 00 00 00 00 00 00 00 00 00 00 ................
0040A5B0 00 00 00 00 00 00 00 00 00 00 00 00 00 00 00 00 ................
0040A5C0 00 00 00 00 00 00 00 00 00 00 00 00 00 00 00 00 ................
0040A5D0 00 00 00 00 00 00 00 00 00 00 00 00 00 00 00 00 ................
0040A5E0 00 00 00 00 00 00 00 00 00 00 00 00 00 00 00 00 ................
0040A5F0 00 00 00 00 00 00 00 00 00 00 00 00 00 00 00 00 ................
0040A600 00 00 00 00 00 00 00 00 00 00 00 00 00 00 00 00 ................
0040A610 00 00 00 00 00 00 00 00 00 00 00 00 00 00 00 00 ................
0040A620 00 00 00 00 00 00 00 00 00 00 00 00 00 00 00 00 ................
0040A630 00 00 00 00 00 00 00 00 00 00 00 00 00 00 00 00 ................
0040A640 00 00 00 00 00 00 00 00 00 00 00 00 00 00 00 00 ................
0040A650 00 00 00 00 00 00 00 00 00 00 00 00 00 00 00 00 ................
0040A660 00 00 00 00 00 00 00 00 00 00 00 00 00 00 00 00 ................
0040A670 00 00 00 00 00 00 00 00 00 00 00 00 00 00 00 00 ................
0040A680 00 00 00 00 00 00 00 00 00 00 00 00 00 00 00 00 ................
0040A690 00 00 00 00 00 00 00 00 00 00 00 00 00 00 00 00 ................
0040A6A0 00 00 00 00 00 00 00 00 00 00 00 00 00 00 00 00 ................
0040A6B0 00 00 00 00 00 00 00 00 00 00 00 00 00 00 00 00 ................
0040A6C0 00 00 00 00 00 00 00 00 00 00 00 00 00 00 00 00 ................
0040A6D0 00 00 00 00 00 00 00 00 00 00 00 00 00 00 00 00 ................
0040A6E0 00 00 00 00 00 00 00 00 00 00 00 00 00 00 00 00 ................
0040A6F0 00 00 00 00 00 00 00 00 00 00 00 00 00 00 00 00 ................
0040A700 00 00 00 00 00 00 00 00 00 00 00 00 00 00 00 00 ................
0040A710 00 00 00 00 00 00 00 00 00 00 00 00 00 00 00 00 ................
0040A720 00 00 00 00 00 00 00 00 00 00 00 00 00 00 00 00 ................
0040A730 00 00 00 00 00 00 00 00 00 00 00 00 00 00 00 00 ................
0040A740 00 00 00 00 00 00 00 00 00 00 00 00 00 00 00 00 ................
0040A750 00 00 00 00 00 00 00 00 00 00 00 00 00 00 00 00 ................
0040A760 00 00 00 00 00 00 00 00 00 00 00 00 00 00 00 00 ................
0040A770 00 00 00 00 00 00 00 00 00 00 00 00 00 00 00 00 ................
0040A780 00 00 00 00 00 00 00 00 00 00 00 00 00 00 00 00 ................
0040A790 00 00 00 00 00 00 00 00 00 00 00 00 00 00 00 00 ................
0040A7A0 00 00 00 00 00 00 00 00 00 00 00 00 00 00 00 00 ................
0040A7B0 00 00 00 00 00 00 00 00 00 00 00 00 00 00 00 00 ................
0040A7C0 00 00 00 00 00 00 00 00 00 00 00 00 00 00 00 00 ................
0040A7D0 00 00 00 00 00 00 00 00 00 00 00 00 00 00 00 00 ................
0040A7E0 00 00 00 00 00 00 00 00 00 00 00 00 00 00 00 00 ................
0040A7F0 00 00 00 00 00 00 00 00 00 00 00 00 00 00 00 00 ................
0040A800 00 00 00 00 00 00 00 00 00 00 00 00 00 00 00 00 ................
0040A810 00 00 00 00 00 00 00 00 00 00 00 00 00 00 00 00 ................
0040A820 00 00 00 00 00 00 00 00 00 00 00 00 00 00 00 00 ................
0040A830 00 00 00 00 00 00 00 00 00 00 00 00 00 00 00 00 ................
0040A840 00 00 00 00 00 00 00 00 00 00 00 00 00 00 00 00 ................
0040A850 00 00 00 00 00 00 00 00 00 00 00 00 00 00 00 00 ................
0040A860 00 00 00 00 00 00 00 00 00 00 00 00 00 00 00 00 ................
0040A870 00 00 00 00 00 00 00 00 00 00 00 00 00 00 00 00 ................
0040A880 00 00 00 00 00 00 00 00 00 00 00 00 00 00 00 00 ................
0040A890 00 00 00 00 00 00 00 00 00 00 00 00 00 00 00 00 ................
0040A8A0 00 00 00 00 00 00 00 00 00 00 00 00 00 00 00 00 ................
0040A8B0 00 00 00 00 00 00 00 00 00 00 00 00 00 00 00 00 ................
0040A8C0 00 00 00 00 00 00 00 00 00 00 00 00 00 00 00 00 ................
0040A8D0 00 00 00 00 00 00 00 00 00 00 00 00 00 00 00 00 ................
0040A8E0 00 00 00 00 00 00 00 00 00 00 00 00 00 00 00 00 ................
0040A8F0 00 00 00 00 00 00 00 00 00 00 00 00 00 00 00 00 ................
0040A900 00 00 00 00 00 00 00 00 00 00 00 00 00 00 00 00 ................
0040A910 00 00 00 00 00 00 00 00 00 00 00 00 00 00 00 00 ................
0040A920 00 00 00 00 00 00 00 00 00 00 00 00 00 00 00 00 ................
0040A930 00 00 00 00 00 00 00 00 00 00 00 00 00 00 00 00 ................
0040A940 00 00 00 00 00 00 00 00 00 00 00 00 00 00 00 00 ................
0040A950 00 00 00 00 00 00 00 00 00 00 00 00 00 00 00 00 ................
0040A960 00 00 00 00 00 00 00 00 00 00 00 00 00 00 00 00 ................
0040A970 00 00 00 00 00 00 00 00 00 00 00 00 00 00 00 00 ................
0040A980 00 00 00 00 00 00 00 00 00 00 00 00 00 00 00 00 ................
0040A990 00 00 00 00 00 00 00 00 00 00 00 00 00 00 00 00 ................
0040A9A0 00 00 00 00 00 00 00 00 00 00 00 00 00 00 00 00 ................
0040A9B0 00 00 00 00 00 00 00 00 00 00 00 00 00 00 00 00 ................
0040A9C0 00 00 00 00 00 00 00 00 00 00 00 00 00 00 00 00 ................
0040A9D0 00 00 00 00 00 00 00 00 00 00 00 00 00 00 00 00 ................
0040A9E0 00 00 00 00 00 00 00 00 00 00 00 00 00 00 00 00 ................
0040A9F0 00 00 00 00 00 00 00 00 00 00 00 00 00 00 00 00 ................
0040AA00 00 00 00 00 00 00 00 00 00 00 00 00 00 00 00 00 ................
0040AA10 00 00 00 00 00 00 00 00 00 00 00 00 00 00 00 00 ................
0040AA20 00 00 00 00 00 00 00 00 00 00 00 00 00 00 00 00 ................
0040AA30 00 00 00 00 00 00 00 00 00 00 00 00 00 00 00 00 ................
0040AA40 00 00 00 00 00 00 00 00 00 00 00 00 00 00 00 00 ................
0040AA50 00 00 00 00 00 00 00 00 00 00 00 00 00 00 00 00 ................
0040AA60 00 00 00 00 00 00 00 00 00 00 00 00 00 00 00 00 ................
0040AA70 00 00 00 00 00 00 00 00 00 00 00 00 00 00 00 00 ................
0040AA80 00 00 00 00 00 00 00 00 00 00 00 00 00 00 00 00 ................
0040AA90 00 00 00 00 00 00 00 00 00 00 00 00 00 00 00 00 ................
0040AAA0 00 00 00 00 00 00 00 00 00 00 00 00 00 00 00 00 ................
0040AAB0 00 00 00 00 00 00 00 00 00 00 00 00 00 00 00 00 ................
0040AAC0 00 00 00 00 00 00 00 00 00 00 00 00 00 00 00 00 ................
0040AAD0 00 00 00 00 00 00 00 00 00 00 00 00 00 00 00 00 ................
0040AAE0 00 00 00 00 00 00 00 00 00 00 00 00 00 00 00 00 ................
0040AAF0 00 00 00 00 00 00 00 00 00 00 00 00 00 00 00 00 ................
0040AB00 00 00 00 00 00 00 00 00 00 00 00 00 00 00 00 00 ................
0040AB10 00 00 00 00 00 00 00 00 00 00 00 00 00 00 00 00 ................
0040AB20 00 00 00 00 00 00 00 00 00 00 00 00 00 00 00 00 ................
0040AB30 00 00 00 00 00 00 00 00 00 00 00 00 00 00 00 00 ................
0040AB40 00 00 00 00 00 00 00 00 00 00 00 00 00 00 00 00 ................
0040AB50 00 00 00 00 00 00 00 00 00 00 00 00 00 00 00 00 ................
0040AB60 00 00 00 00 00 00 00 00 00 00 00 00 00 00 00 00 ................
0040AB70 00 00 00 00 00 00 00 00 00 00 00 00 00 00 00 00 ................
0040AB80 00 00 00 00 00 00 00 00 00 00 00 00 00 00 00 00 ................
0040AB90 00 00 00 00 00 00 00 00 00 00 00 00 00 00 00 00 ................
0040ABA0 00 00 00 00 00 00 00 00 00 00 00 00 00 00 00 00 ................
0040ABB0 00 00 00 00 00 00 00 00 00 00 00 00 00 00 00 00 ................
0040ABC0 00 00 00 00 00 00 00 00 00 00 00 00 00 00 00 00 ................
0040ABD0 00 00 00 00 00 00 00 00 00 00 00 00 00 00 00 00 ................
0040ABE0 00 00 00 00 00 00 00 00 00 00 00 00 00 00 00 00 ................
0040ABF0 00 00 00 00 00 00 00 00 00 00 00 00 00 00 00 00 ................
0040AC00 00 00 00 00 00 00 00 00 00 00 00 00 00 00 00 00 ................
0040AC10 00 00 00 00 00 00 00 00 00 00 00 00 00 00 00 00 ................
0040AC20 00 00 00 00 00 00 00 00 00 00 00 00 00 00 00 00 ................
0040AC30 00 00 00 00 00 00 00 00 00 00 00 00 00 00 00 00 ................
0040AC40 00 00 00 00 00 00 00 00 00 00 00 00 00 00 00 00 ................
0040AC50 00 00 00 00 00 00 00 00 00 00 00 00 00 00 00 00 ................
0040AC60 00 00 00 00 00 00 00 00 00 00 00 00 00 00 00 00 ................
0040AC70 00 00 00 00 00 00 00 00 00 00 00 00 00 00 00 00 ................
0040AC80 00 00 00 00 00 00 00 00 00 00 00 00 00 00 00 00 ................
0040AC90 00 00 00 00 00 00 00 00 00 00 00 00 00 00 00 00 ................
0040ACA0 00 00 00 00 00 00 00 00 00 00 00 00 00 00 00 00 ................
0040ACB0 00 00 00 00 00 00 00 00 00 00 00 00 00 00 00 00 ................
0040ACC0 00 00 00 00 00 00 00 00 00 00 00 00 00 00 00 00 ................
0040ACD0 00 00 00 00 00 00 00 00 00 00 00 00 00 00 00 00 ................
0040ACE0 00 00 00 00 00 00 00 00 00 00 00 00 00 00 00 00 ................
0040ACF0 00 00 00 00 00 00 00 00 00 00 00 00 00 00 00 00 ................
0040AD00 00 00 00 00 00 00 00 00 00 00 00 00 00 00 00 00 ................
0040AD10 00 00 00 00 00 00 00 00 00 00 00 00 00 00 00 00 ................
0040AD20 00 00 00 00 00 00 00 00 00 00 00 00 00 00 00 00 ................
0040AD30 00 00 00 00 00 00 00 00 00 00 00 00 00 00 00 00 ................
0040AD40 00 00 00 00 00 00 00 00 00 00 00 00 00 00 00 00 ................
0040AD50 00 00 00 00 00 00 00 00 00 00 00 00 00 00 00 00 ................
0040AD60 00 00 00 00 00 00 00 00 00 00 00 00 00 00 00 00 ................
0040AD70 00 00 00 00 00 00 00 00 00 00 00 00 00 00 00 00 ................
0040AD80 00 00 00 00 00 00 00 00 00 00 00 00 00 00 00 00 ................
0040AD90 00 00 00 00 00 00 00 00 00 00 00 00 00 00 00 00 ................
0040ADA0 00 00 00 00 00 00 00 00 00 00 00 00 00 00 00 00 ................
0040ADB0 00 00 00 00 00 00 00 00 00 00 00 00 00 00 00 00 ................
0040ADC0 00 00 00 00 00 00 00 00 00 00 00 00 00 00 00 00 ................
0040ADD0 00 00 00 00 00 00 00 00 00 00 00 00 00 00 00 00 ................
0040ADE0 00 00 00 00 00 00 00 00 00 00 00 00 00 00 00 00 ................
0040ADF0 00 00 00 00 00 00 00 00 00 00 00 00 00 00 00 00 ................
0040AE00 00 00 00 00 00 00 00 00 00 00 00 00 00 00 00 00 ................
0040AE10 00 00 00 00 00 00 00 00 00 00 00 00 00 00 00 00 ................
0040AE20 00 00 00 00 00 00 00 00 00 00 00 00 00 00 00 00 ................
0040AE30 00 00 00 00 00 00 00 00 00 00 00 00 00 00 00 00 ................
0040AE40 00 00 00 00 00 00 00 00 00 00 00 00 00 00 00 00 ................
0040AE50 00 00 00 00 00 00 00 00 00 00 00 00 00 00 00 00 ................
0040AE60 00 00 00 00 00 00 00 00 00 00 00 00 00 00 00 00 ................
0040AE70 00 00 00 00 00 00 00 00 00 00 00 00 00 00 00 00 ................
0040AE80 00 00 00 00 00 00 00 00 00 00 00 00 00 00 00 00 ................
0040AE90 00 00 00 00 00 00 00 00 00 00 00 00 00 00 00 00 ................
0040AEA0 00 00 00 00 00 00 00 00 00 00 00 00 00 00 00 00 ................
0040AEB0 00 00 00 00 00 00 00 00 00 00 00 00 00 00 00 00 ................
0040AEC0 00 00 00 00 00 00 00 00 00 00 00 00 00 00 00 00 ................
0040AED0 00 00 00 00 00 00 00 00 00 00 00 00 00 00 00 00 ................
0040AEE0 00 00 00 00 00 00 00 00 00 00 00 00 00 00 00 00 ................
0040AEF0 00 00 00 00 00 00 00 00 00 00 00 00 00 00 00 00 ................
0040AF00 00 00 00 00 00 00 00 00 00 00 00 00 00 00 00 00 ................
0040AF10 00 00 00 00 00 00 00 00 00 00 00 00 00 00 00 00 ................
0040AF20 00 00 00 00 00 00 00 00 00 00 00 00 00 00 00 00 ................
0040AF30 00 00 00 00 00 00 00 00 00 00 00 00 00 00 00 00 ................
0040AF40 00 00 00 00 00 00 00 00 00 00 00 00 00 00 00 00 ................
0040AF50 00 00 00 00 00 00 00 00 00 00 00 00 00 00 00 00 ................
0040AF60 00 00 00 00 00 00 00 00 00 00 00 00 00 00 00 00 ................
0040AF70 00 00 00 00 00 00 00 00 00 00 00 00 00 00 00 00 ................
0040AF80 00 00 00 00 00 00 00 00 00 00 00 00 00 00 00 00 ................
0040AF90 00 00 00 00 00 00 00 00 00 00 00 00 00 00 00 00 ................
0040AFA0 00 00 00 00 00 00 00 00 00 00 00 00 00 00 00 00 ................
0040AFB0 00 00 00 00 00 00 00 00 00 00 00 00 00 00 00 00 ................
0040AFC0 00 00 00 00 00 00 00 00 00 00 00 00 00 00 00 00 ................
0040AFD0 00 00 00 00 00 00 00 00 00 00 00 00 00 00 00 00 ................
0040AFE0 00 00 00 00 00 00 00 00 00 00 00 00 00 00 00 00 ................
0040AFF0 00 00 00 00 00 00 00 00 00 00 00 00 00 00 00 00 ................
0040B000 00 00 00 00 00 00 00 00 00 00 00 00 00 00 00 00 ................
0040B010 00 00 00 00 00 00 00 00 00 00 00 00 00 00 00 00 ................
0040B020 00 00 00 00 00 00 00 00 00 00 00 00 00 00 00 00 ................
0040B030 00 00 00 00 00 00 00 00 00 00 00 00 00 00 00 00 ................
0040B040 00 00 00 00 00 00 00 00 00 00 00 00 00 00 00 00 ................
0040B050 00 00 00 00 00 00 00 00 00 00 00 00 00 00 00 00 ................
0040B060 00 00 00 00 00 00 00 00 00 00 00 00 00 00 00 00 ................
0040B070 00 00 00 00 00 00 00 00 00 00 00 00 00 00 00 00 ................
0040B080 00 00 00 00 00 00 00 00 00 00 00 00 00 00 00 00 ................
0040B090 00 00 00 00 00 00 00 00 00 00 00 00 00 00 00 00 ................
0040B0A0 00 00 00 00 00 00 00 00 00 00 00 00 00 00 00 00 ................
0040B0B0 00 00 00 00 00 00 00 00 00 00 00 00 00 00 00 00 ................
0040B0C0 00 00 00 00 00 00 00 00 00 00 00 00 00 00 00 00 ................
0040B0D0 00 00 00 00 00 00 00 00 00 00 00 00 00 00 00 00 ................
0040B0E0 00 00 00 00 00 00 00 00 00 00 00 00 00 00 00 00 ................
0040B0F0 00 00 00 00 00 00 00 00 00 00 00 00 00 00 00 00 ................
0040B100 00 00 00 00 00 00 00 00 00 00 00 00 00 00 00 00 ................
0040B110 00 00 00 00 00 00 00 00 00 00 00 00 00 00 00 00 ................
0040B120 00 00 00 00 00 00 00 00 00 00 00 00 00 00 00 00 ................
0040B130 00 00 00 00 00 00 00 00 00 00 00 00 00 00 00 00 ................
0040B140 00 00 00 00 00 00 00 00 00 00 00 00 00 00 00 00 ................
0040B150 00 00 00 00 00 00 00 00 00 00 00 00 00 00 00 00 ................
0040B160 00 00 00 00 00 00 00 00 00 00 00 00 00 00 00 00 ................
0040B170 00 00 00 00 00 00 00 00 00 00 00 00 00 00 00 00 ................
0040B180 00 00 00 00 00 00 00 00 00 00 00 00 00 00 00 00 ................
0040B190 00 00 00 00 00 00 00 00 00 00 00 00 00 00 00 00 ................
0040B1A0 00 00 00 00 00 00 00 00 00 00 00 00 00 00 00 00 ................
0040B1B0 00 00 00 00 00 00 00 00 00 00 00 00 00 00 00 00 ................
0040B1C0 00 00 00 00 00 00 00 00 00 00 00 00 00 00 00 00 ................
0040B1D0 00 00 00 00 00 00 00 00 00 00 00 00 00 00 00 00 ................
0040B1E0 00 00 00 00 00 00 00 00 00 00 00 00 00 00 00 00 ................
0040B1F0 00 00 00 00 00 00 00 00 00 00 00 00 00 00 00 00 ................
0040B200 00 00 00 00 00 00 00 00 00 00 00 00 00 00 00 00 ................
0040B210 00 00 00 00 00 00 00 00 00 00 00 00 00 00 00 00 ................
0040B220 00 00 00 00 00 00 00 00 00 00 00 00 00 00 00 00 ................
0040B230 00 00 00 00 00 00 00 00 00 00 00 00 00 00 00 00 ................
0040B240 00 00 00 00 00 00 00 00 00 00 00 00 00 00 00 00 ................
0040B250 00 00 00 00 00 00 00 00 00 00 00 00 00 00 00 00 ................
0040B260 00 00 00 00 00 00 00 00 00 00 00 00 00 00 00 00 ................
0040B270 00 00 00 00 00 00 00 00 00 00 00 00 00 00 00 00 ................
0040B280 00 00 00 00 00 00 00 00 00 00 00 00 00 00 00 00 ................
0040B290 00 00 00 00 00 00 00 00 00 00 00 00 00 00 00 00 ................
0040B2A0 00 00 00 00 00 00 00 00 00 00 00 00 00 00 00 00 ................
0040B2B0 00 00 00 00 00 00 00 00 00 00 00 00 00 00 00 00 ................
0040B2C0 00 00 00 00 00 00 00 00 00 00 00 00 00 00 00 00 ................
0040B2D0 00 00 00 00 00 00 00 00 00 00 00 00 00 00 00 00 ................
0040B2E0 00 00 00 00 00 00 00 00 00 00 00 00 00 00 00 00 ................
0040B2F0 00 00 00 00 00 00 00 00 00 00 00 00 00 00 00 00 ................
0040B300 00 00 00 00 00 00 00 00 00 00 00 00 00 00 00 00 ................
0040B310 00 00 00 00 00 00 00 00 00 00 00 00 00 00 00 00 ................
0040B320 00 00 00 00 00 00 00 00 00 00 00 00 00 00 00 00 ................
0040B330 00 00 00 00 00 00 00 00 00 00 00 00 00 00 00 00 ................
0040B340 00 00 00 00 00 00 00 00 00 00 00 00 00 00 00 00 ................
0040B350 00 00 00 00 00 00 00 00 00 00 00 00 00 00 00 00 ................
0040B360 00 00 00 00 00 00 00 00 00 00 00 00 00 00 00 00 ................
0040B370 00 00 00 00 00 00 00 00 00 00 00 00 00 00 00 00 ................
0040B380 00 00 00 00 00 00 00 00 00 00 00 00 00 00 00 00 ................
0040B390 00 00 00 00 00 00 00 00 00 00 00 00 00 00 00 00 ................
0040B3A0 00 00 00 00 00 00 00 00 00 00 00 00 00 00 00 00 ................
0040B3B0 00 00 00 00 00 00 00 00 00 00 00 00 00 00 00 00 ................
0040B3C0 00 00 00 00 00 00 00 00 00 00 00 00 00 00 00 00 ................
0040B3D0 00 00 00 00 00 00 00 00 00 00 00 00 00 00 00 00 ................
0040B3E0 00 00 00 00 00 00 00 00 00 00 00 00 00 00 00 00 ................
0040B3F0 00 00 00 00 00 00 00 00 00 00 00 00 00 00 00 00 ................
0040B400 00 00 00 00 00 00 00 00 00 00 00 00 00 00 00 00 ................
0040B410 00 00 00 00 00 00 00 00 00 00 00 00 00 00 00 00 ................
0040B420 00 00 00 00 00 00 00 00 00 00 00 00 00 00 00 00 ................
0040B430 00 00 00 00 00 00 00 00 00 00 00 00 00 00 00 00 ................
0040B440 00 00 00 00 00 00 00 00 00 00 00 00 00 00 00 00 ................
0040B450 00 00 00 00 00 00 00 00 00 00 00 00 00 00 00 00 ................
0040B460 00 00 00 00 00 00 00 00 00 00 00 00 00 00 00 00 ................
0040B470 00 00 00 00 00 00 00 00 00 00 00 00 00 00 00 00 ................
0040B480 00 00 00 00 00 00 00 00 00 00 00 00 00 00 00 00 ................
0040B490 00 00 00 00 00 00 00 00 00 00 00 00 00 00 00 00 ................
0040B4A0 00 00 00 00 00 00 00 00 00 00 00 00 00 00 00 00 ................
0040B4B0 00 00 00 00 00 00 00 00 00 00 00 00 00 00 00 00 ................
0040B4C0 00 00 00 00 00 00 00 00 00 00 00 00 00 00 00 00 ................
0040B4D0 00 00 00 00 00 00 00 00 00 00 00 00 00 00 00 00 ................
0040B4E0 00 00 00 00 00 00 00 00 00 00 00 00 00 00 00 00 ................
0040B4F0 00 00 00 00 00 00 00 00 00 00 00 00 00 00 00 00 ................
0040B500 00 00 00 00 00 00 00 00 00 00 00 00 00 00 00 00 ................
0040B510 00 00 00 00 00 00 00 00 00 00 00 00 00 00 00 00 ................
0040B520 00 00 00 00 00 00 00 00 00 00 00 00 00 00 00 00 ................
0040B530 00 00 00 00 00 00 00 00 00 00 00 00 00 00 00 00 ................
0040B540 00 00 00 00 00 00 00 00 00 00 00 00 00 00 00 00 ................
0040B550 00 00 00 00 00 00 00 00 00 00 00 00 00 00 00 00 ................
0040B560 00 00 00 00 00 00 00 00 00 00 00 00 00 00 00 00 ................
0040B570 00 00 00 00 00 00 00 00 00 00 00 00 00 00 00 00 ................
0040B580 00 00 00 00 00 00 00 00 00 00 00 00 00 00 00 00 ................
0040B590 00 00 00 00 00 00 00 00 00 00 00 00 00 00 00 00 ................
0040B5A0 00 00 00 00 00 00 00 00 00 00 00 00 00 00 00 00 ................
0040B5B0 00 00 00 00 00 00 00 00 00 00 00 00 00 00 00 00 ................
0040B5C0 00 00 00 00 00 00 00 00 00 00 00 00 00 00 00 00 ................
0040B5D0 00 00 00 00 00 00 00 00 00 00 00 00 00 00 00 00 ................
0040B5E0 00 00 00 00 00 00 00 00 00 00 00 00 00 00 00 00 ................
0040B5F0 00 00 00 00 00 00 00 00 00 00 00 00 00 00 00 00 ................
0040B600 00 00 00 00 00 00 00 00 00 00 00 00 00 00 00 00 ................
0040B610 00 00 00 00 00 00 00 00 00 00 00 00 00 00 00 00 ................
0040B620 00 00 00 00 00 00 00 00 00 00 00 00 00 00 00 00 ................
0040B630 00 00 00 00 00 00 00 00 00 00 00 00 00 00 00 00 ................
0040B640 00 00 00 00 00 00 00 00 00 00 00 00 00 00 00 00 ................
0040B650 00 00 00 00 00 00 00 00 00 00 00 00 00 00 00 00 ................
0040B660 00 00 00 00 00 00 00 00 00 00 00 00 00 00 00 00 ................
0040B670 00 00 00 00 00 00 00 00 00 00 00 00 00 00 00 00 ................
0040B680 00 00 00 00 00 00 00 00 00 00 00 00 00 00 00 00 ................
0040B690 00 00 00 00 00 00 00 00 00 00 00 00 00 00 00 00 ................
0040B6A0 00 00 00 00 00 00 00 00 00 00 00 00 00 00 00 00 ................
0040B6B0 00 00 00 00 00 00 00 00 00 00 00 00 00 00 00 00 ................
0040B6C0 00 00 00 00 00 00 00 00 00 00 00 00 00 00 00 00 ................
0040B6D0 00 00 00 00 00 00 00 00 00 00 00 00 00 00 00 00 ................
0040B6E0 00 00 00 00 00 00 00 00 00 00 00 00 00 00 00 00 ................
0040B6F0 00 00 00 00 00 00 00 00 00 00 00 00 00 00 00 00 ................
0040B700 00 00 00 00 00 00 00 00 00 00 00 00 00 00 00 00 ................
0040B710 00 00 00 00 00 00 00 00 00 00 00 00 00 00 00 00 ................
0040B720 00 00 00 00 00 00 00 00 00 00 00 00 00 00 00 00 ................
0040B730 00 00 00 00 00 00 00 00 00 00 00 00 00 00 00 00 ................
0040B740 00 00 00 00 00 00 00 00 00 00 00 00 00 00 00 00 ................
0040B750 00 00 00 00 00 00 00 00 00 00 00 00 00 00 00 00 ................
0040B760 00 00 00 00 00 00 00 00 00 00 00 00 00 00 00 00 ................
0040B770 00 00 00 00 00 00 00 00 00 00 00 00 00 00 00 00 ................
0040B780 00 00 00 00 00 00 00 00 00 00 00 00 00 00 00 00 ................
0040B790 00 00 00 00 00 00 00 00 00 00 00 00 00 00 00 00 ................
0040B7A0 00 00 00 00 00 00 00 00 00 00 00 00 00 00 00 00 ................
0040B7B0 00 00 00 00 00 00 00 00 00 00 00 00 00 00 00 00 ................
0040B7C0 00 00 00 00 00 00 00 00 00 00 00 00 00 00 00 00 ................
0040B7D0 00 00 00 00 00 00 00 00 00 00 00 00 00 00 00 00 ................
0040B7E0 00 00 00 00 00 00 00 00 00 00 00 00 00 00 00 00 ................
0040B7F0 00 00 00 00 00 00 00 00 00 00 00 00 00 00 00 00 ................
0040B800 00 00 00 00 00 00 00 00 00 00 00 00 00 00 00 00 ................
0040B810 00 00 00 00 00 00 00 00 00 00 00 00 00 00 00 00 ................
0040B820 00 00 00 00 00 00 00 00 00 00 00 00 00 00 00 00 ................
0040B830 00 00 00 00 00 00 00 00 00 00 00 00 00 00 00 00 ................
0040B840 00 00 00 00 00 00 00 00 00 00 00 00 00 00 00 00 ................
0040B850 00 00 00 00 00 00 00 00 00 00 00 00 00 00 00 00 ................
0040B860 00 00 00 00 00 00 00 00 00 00 00 00 00 00 00 00 ................
0040B870 00 00 00 00 00 00 00 00 00 00 00 00 00 00 00 00 ................
0040B880 00 00 00 00 00 00 00 00 00 00 00 00 00 00 00 00 ................
0040B890 00 00 00 00 00 00 00 00 00 00 00 00 00 00 00 00 ................
0040B8A0 00 00 00 00 00 00 00 00 00 00 00 00 00 00 00 00 ................
0040B8B0 00 00 00 00 00 00 00 00 00 00 00 00 00 00 00 00 ................
0040B8C0 00 00 00 00 00 00 00 00 00 00 00 00 00 00 00 00 ................
0040B8D0 00 00 00 00 00 00 00 00 00 00 00 00 00 00 00 00 ................
0040B8E0 00 00 00 00 00 00 00 00 00 00 00 00 00 00 00 00 ................
0040B8F0 00 00 00 00 00 00 00 00 00 00 00 00 00 00 00 00 ................
0040B900 00 00 00 00 00 00 00 00 00 00 00 00 00 00 00 00 ................
0040B910 00 00 00 00 00 00 00 00 00 00 00 00 00 00 00 00 ................
0040B920 00 00 00 00 00 00 00 00 00 00 00 00 00 00 00 00 ................
0040B930 00 00 00 00 00 00 00 00 00 00 00 00 00 00 00 00 ................
0040B940 00 00 00 00 00 00 00 00 00 00 00 00 00 00 00 00 ................
0040B950 00 00 00 00 00 00 00 00 00 00 00 00 00 00 00 00 ................
0040B960 00 00 00 00 00 00 00 00 00 00 00 00 00 00 00 00 ................
0040B970 00 00 00 00 00 00 00 00 00 00 00 00 00 00 00 00 ................
0040B980 00 00 00 00 00 00 00 00 00 00 00 00 00 00 00 00 ................
0040B990 00 00 00 00 00 00 00 00 00 00 00 00 00 00 00 00 ................
0040B9A0 00 00 00 00 00 00 00 00 00 00 00 00 00 00 00 00 ................
0040B9B0 00 00 00 00 00 00 00 00 00 00 00 00 00 00 00 00 ................
0040B9C0 00 00 00 00 00 00 00 00 00 00 00 00 00 00 00 00 ................
0040B9D0 00 00 00 00 00 00 00 00 00 00 00 00 00 00 00 00 ................
0040B9E0 00 00 00 00 00 00 00 00 00 00 00 00 00 00 00 00 ................
0040B9F0 00 00 00 00 00 00 00 00 00 00 00 00 00 00 00 00 ................
0040BA00 00 00 00 00 00 00 00 00 00 00 00 00 00 00 00 00 ................
0040BA10 00 00 00 00 00 00 00 00 00 00 00 00 00 00 00 00 ................
0040BA20 00 00 00 00 00 00 00 00 00 00 00 00 00 00 00 00 ................
0040BA30 00 00 00 00 00 00 00 00 00 00 00 00 00 00 00 00 ................
0040BA40 00 00 00 00 00 00 00 00 00 00 00 00 00 00 00 00 ................
0040BA50 00 00 00 00 00 00 00 00 00 00 00 00 00 00 00 00 ................
0040BA60 00 00 00 00 00 00 00 00 00 00 00 00 00 00 00 00 ................
0040BA70 00 00 00 00 00 00 00 00 00 00 00 00 00 00 00 00 ................
0040BA80 00 00 00 00 00 00 00 00 00 00 00 00 00 00 00 00 ................
0040BA90 00 00 00 00 00 00 00 00 00 00 00 00 00 00 00 00 ................
0040BAA0 00 00 00 00 00 00 00 00 00 00 00 00 00 00 00 00 ................
0040BAB0 00 00 00 00 00 00 00 00 00 00 00 00 00 00 00 00 ................
0040BAC0 00 00 00 00 00 00 00 00 00 00 00 00 00 00 00 00 ................
0040BAD0 00 00 00 00 00 00 00 00 00 00 00 00 00 00 00 00 ................
0040BAE0 00 00 00 00 00 00 00 00 00 00 00 00 00 00 00 00 ................
0040BAF0 00 00 00 00 00 00 00 00 00 00 00 00 00 00 00 00 ................
0040BB00 00 00 00 00 00 00 00 00 00 00 00 00 00 00 00 00 ................
0040BB10 00 00 00 00 00 00 00 00 00 00 00 00 00 00 00 00 ................
0040BB20 00 00 00 00 00 00 00 00 00 00 00 00 00 00 00 00 ................
0040BB30 00 00 00 00 00 00 00 00 00 00 00 00 00 00 00 00 ................
0040BB40 00 00 00 00 00 00 00 00 00 00 00 00 00 00 00 00 ................
0040BB50 00 00 00 00 00 00 00 00 00 00 00 00 00 00 00 00 ................
0040BB60 00 00 00 00 00 00 00 00 00 00 00 00 00 00 00 00 ................
0040BB70 00 00 00 00 00 00 00 00 00 00 00 00 00 00 00 00 ................
0040BB80 00 00 00 00 00 00 00 00 00 00 00 00 00 00 00 00 ................
0040BB90 00 00 00 00 00 00 00 00 00 00 00 00 00 00 00 00 ................
0040BBA0 00 00 00 00 00 00 00 00 00 00 00 00 00 00 00 00 ................
0040BBB0 00 00 00 00 00 00 00 00 00 00 00 00 00 00 00 00 ................
0040BBC0 00 00 00 00 00 00 00 00 00 00 00 00 00 00 00 00 ................
0040BBD0 00 00 00 00 00 00 00 00 00 00 00 00 00 00 00 00 ................
0040BBE0 00 00 00 00 00 00 00 00 00 00 00 00 00 00 00 00 ................
0040BBF0 00 00 00 00 00 00 00 00 00 00 00 00 00 00 00 00 ................
0040BC00 00 00 00 00 00 00 00 00 00 00 00 00 00 00 00 00 ................
0040BC10 00 00 00 00 00 00 00 00 00 00 00 00 00 00 00 00 ................
0040BC20 00 00 00 00 00 00 00 00 00 00 00 00 00 00 00 00 ................
0040BC30 00 00 00 00 00 00 00 00 00 00 00 00 00 00 00 00 ................
0040BC40 00 00 00 00 00 00 00 00 00 00 00 00 00 00 00 00 ................
0040BC50 00 00 00 00 00 00 00 00 00 00 00 00 00 00 00 00 ................
0040BC60 00 00 00 00 00 00 00 00 00 00 00 00 00 00 00 00 ................
0040BC70 00 00 00 00 00 00 00 00 00 00 00 00 00 00 00 00 ................
0040BC80 00 00 00 00 00 00 00 00 00 00 00 00 00 00 00 00 ................
0040BC90 00 00 00 00 00 00 00 00 00 00 00 00 00 00 00 00 ................
0040BCA0 00 00 00 00 00 00 00 00 00 00 00 00 00 00 00 00 ................
0040BCB0 00 00 00 00 00 00 00 00 00 00 00 00 00 00 00 00 ................
0040BCC0 00 00 00 00 00 00 00 00 00 00 00 00 00 00 00 00 ................
0040BCD0 00 00 00 00 00 00 00 00 00 00 00 00 00 00 00 00 ................
0040BCE0 00 00 00 00 00 00 00 00 00 00 00 00 00 00 00 00 ................
0040BCF0 00 00 00 00 00 00 00 00 00 00 00 00 00 00 00 00 ................
0040BD00 00 00 00 00 00 00 00 00 00 00 00 00 00 00 00 00 ................
0040BD10 00 00 00 00 00 00 00 00 00 00 00 00 00 00 00 00 ................
0040BD20 00 00 00 00 00 00 00 00 00 00 00 00 00 00 00 00 ................
0040BD30 00 00 00 00 00 00 00 00 00 00 00 00 00 00 00 00 ................
0040BD40 00 00 00 00 00 00 00 00 00 00 00 00 00 00 00 00 ................
0040BD50 00 00 00 00 00 00 00 00 00 00 00 00 00 00 00 00 ................
0040BD60 00 00 00 00 00 00 00 00 00 00 00 00 00 00 00 00 ................
0040BD70 00 00 00 00 00 00 00 00 00 00 00 00 00 00 00 00 ................
0040BD80 00 00 00 00 00 00 00 00 00 00 00 00 00 00 00 00 ................
0040BD90 00 00 00 00 00 00 00 00 00 00 00 00 00 00 00 00 ................
0040BDA0 00 00 00 00 00 00 00 00 00 00 00 00 00 00 00 00 ................
0040BDB0 00 00 00 00 00 00 00 00 00 00 00 00 00 00 00 00 ................
0040BDC0 00 00 00 00 00 00 00 00 00 00 00 00 00 00 00 00 ................
0040BDD0 00 00 00 00 00 00 00 00 00 00 00 00 00 00 00 00 ................
0040BDE0 00 00 00 00 00 00 00 00 00 00 00 00 00 00 00 00 ................
0040BDF0 00 00 00 00 00 00 00 00 00 00 00 00 00 00 00 00 ................
0040BE00 00 00 00 00 00 00 00 00 00 00 00 00 00 00 00 00 ................
0040BE10 00 00 00 00 00 00 00 00 00 00 00 00 00 00 00 00 ................
0040BE20 00 00 00 00 00 00 00 00 00 00 00 00 00 00 00 00 ................
0040BE30 00 00 00 00 00 00 00 00 00 00 00 00 00 00 00 00 ................
0040BE40 00 00 00 00 00 00 00 00 00 00 00 00 00 00 00 00 ................
0040BE50 00 00 00 00 00 00 00 00 00 00 00 00 00 00 00 00 ................
0040BE60 00 00 00 00 00 00 00 00 00 00 00 00 00 00 00 00 ................
0040BE70 00 00 00 00 00 00 00 00 00 00 00 00 00 00 00 00 ................
0040BE80 00 00 00 00 00 00 00 00 00 00 00 00 00 00 00 00 ................
0040BE90 00 00 00 00 00 00 00 00 00 00 00 00 00 00 00 00 ................
0040BEA0 00 00 00 00 00 00 00 00 00 00 00 00 00 00 00 00 ................
0040BEB0 00 00 00 00 00 00 00 00 00 00 00 00 00 00 00 00 ................
0040BEC0 00 00 00 00 00 00 00 00 00 00 00 00 00 00 00 00 ................
0040BED0 00 00 00 00 00 00 00 00 00 00 00 00 00 00 00 00 ................
0040BEE0 00 00 00 00 00 00 00 00 00 00 00 00 00 00 00 00 ................
0040BEF0 00 00 00 00 00 00 00 00 00 00 00 00 00 00 00 00 ................
0040BF00 00 00 00 00 00 00 00 00 00 00 00 00 00 00 00 00 ................
0040BF10 00 00 00 00 00 00 00 00 00 00 00 00 00 00 00 00 ................
0040BF20 00 00 00 00 00 00 00 00 00 00 00 00 00 00 00 00 ................
0040BF30 00 00 00 00 00 00 00 00 00 00 00 00 00 00 00 00 ................
0040BF40 00 00 00 00 00 00 00 00 00 00 00 00 00 00 00 00 ................
0040BF50 00 00 00 00 00 00 00 00 00 00 00 00 00 00 00 00 ................
0040BF60 00 00 00 00 00 00 00 00 00 00 00 00 00 00 00 00 ................
0040BF70 00 00 00 00 00 00 00 00 00 00 00 00 00 00 00 00 ................
0040BF80 00 00 00 00 00 00 00 00 00 00 00 00 00 00 00 00 ................
0040BF90 00 00 00 00 00 00 00 00 00 00 00 00 00 00 00 00 ................
0040BFA0 00 00 00 00 00 00 00 00 00 00 00 00 00 00 00 00 ................
0040BFB0 00 00 00 00 00 00 00 00 00 00 00 00 00 00 00 00 ................
0040BFC0 00 00 00 00 00 00 00 00 00 00 00 00 00 00 00 00 ................
0040BFD0 00 00 00 00 00 00 00 00 00 00 00 00 00 00 00 00 ................
0040BFE0 00 00 00 00 00 00 00 00 00 00 00 00 00 00 00 00 ................
0040BFF0 00 00 00 00 00 00 00 00 00 00 00 00 00 00 00 00 ................
0040C000 00 00 00 00 00 00 00 00 00 00 00 00 00 00 00 00 ................
0040C010 00 00 00 00 00 00 00 00 00 00 00 00 00 00 00 00 ................
0040C020 00 00 00 00 00 00 00 00 00 00 00 00 00 00 00 00 ................
0040C030 00 00 00 00 00 00 00 00 00 00 00 00 00 00 00 00 ................
0040C040 00 00 00 00 00 00 00 00 00 00 00 00 00 00 00 00 ................
0040C050 00 00 00 00 00 00 00 00 00 00 00 00 00 00 00 00 ................
0040C060 00 00 00 00 00 00 00 00 00 00 00 00 00 00 00 00 ................
0040C070 00 00 00 00 00 00 00 00 00 00 00 00 00 00 00 00 ................
0040C080 00 00 00 00 00 00 00 00 00 00 00 00 00 00 00 00 ................
0040C090 00 00 00 00 00 00 00 00 00 00 00 00 00 00 00 00 ................
0040C0A0 00 00 00 00 00 00 00 00 00 00 00 00 00 00 00 00 ................
0040C0B0 00 00 00 00 00 00 00 00 00 00 00 00 00 00 00 00 ................
0040C0C0 00 00 00 00 00 00 00 00 00 00 00 00 00 00 00 00 ................
0040C0D0 00 00 00 00 00 00 00 00 00 00 00 00 00 00 00 00 ................
0040C0E0 00 00 00 00 00 00 00 00 00 00 00 00 00 00 00 00 ................
0040C0F0 00 00 00 00 00 00 00 00 00 00 00 00 00 00 00 00 ................
0040C100 00 00 00 00 00 00 00 00 00 00 00 00 00 00 00 00 ................
0040C110 00 00 00 00 00 00 00 00 00 00 00 00 00 00 00 00 ................
0040C120 00 00 00 00 00 00 00 00 00 00 00 00 00 00 00 00 ................
0040C130 00 00 00 00 00 00 00 00 00 00 00 00 00 00 00 00 ................
0040C140 00 00 00 00 00 00 00 00 00 00 00 00 00 00 00 00 ................
0040C150 00 00 00 00 00 00 00 00 00 00 00 00 00 00 00 00 ................
0040C160 00 00 00 00 00 00 00 00 00 00 00 00 00 00 00 00 ................
0040C170 00 00 00 00 00 00 00 00 00 00 00 00 00 00 00 00 ................
0040C180 00 00 00 00 00 00 00 00 00 00 00 00 00 00 00 00 ................
0040C190 00 00 00 00 00 00 00 00 00 00 00 00 00 00 00 00 ................
0040C1A0 00 00 00 00 00 00 00 00 00 00 00 00 00 00 00 00 ................
0040C1B0 00 00 00 00 00 00 00 00 00 00 00 00 00 00 00 00 ................
0040C1C0 00 00 00 00 00 00 00 00 00 00 00 00 00 00 00 00 ................
0040C1D0 00 00 00 00 00 00 00 00 00 00 00 00 00 00 00 00 ................
0040C1E0 00 00 00 00 00 00 00 00 00 00 00 00 00 00 00 00 ................
0040C1F0 00 00 00 00 00 00 00 00 00 00 00 00 00 00 00 00 ................
0040C200 00 00 00 00 00 00 00 00 00 00 00 00 00 00 00 00 ................
0040C210 00 00 00 00 00 00 00 00 00 00 00 00 00 00 00 00 ................
0040C220 00 00 00 00 00 00 00 00 00 00 00 00 00 00 00 00 ................
0040C230 00 00 00 00 00 00 00 00 00 00 00 00 00 00 00 00 ................
0040C240 00 00 00 00 00 00 00 00 00 00 00 00 00 00 00 00 ................
0040C250 00 00 00 00 00 00 00 00 00 00 00 00 00 00 00 00 ................
0040C260 00 00 00 00 00 00 00 00 00 00 00 00 00 00 00 00 ................
0040C270 00 00 00 00 00 00 00 00 00 00 00 00 00 00 00 00 ................
0040C280 00 00 00 00 00 00 00 00 00 00 00 00 00 00 00 00 ................
0040C290 00 00 00 00 00 00 00 00 00 00 00 00 00 00 00 00 ................
0040C2A0 00 00 00 00 00 00 00 00 00 00 00 00 00 00 00 00 ................
0040C2B0 00 00 00 00 00 00 00 00 00 00 00 00 00 00 00 00 ................
0040C2C0 00 00 00 00 00 00 00 00 00 00 00 00 00 00 00 00 ................
0040C2D0 00 00 00 00 00 00 00 00 00 00 00 00 00 00 00 00 ................
0040C2E0 00 00 00 00 00 00 00 00 00 00 00 00 00 00 00 00 ................
0040C2F0 00 00 00 00 00 00 00 00 00 00 00 00 00 00 00 00 ................
0040C300 00 00 00 00 00 00 00 00 00 00 00 00 00 00 00 00 ................
0040C310 00 00 00 00 00 00 00 00 00 00 00 00 00 00 00 00 ................
0040C320 00 00 00 00 00 00 00 00 00 00 00 00 00 00 00 00 ................
0040C330 00 00 00 00 00 00 00 00 00 00 00 00 00 00 00 00 ................
0040C340 00 00 00 00 00 00 00 00 00 00 00 00 00 00 00 00 ................
0040C350 00 00 00 00 00 00 00 00 00 00 00 00 00 00 00 00 ................
0040C360 00 00 00 00 00 00 00 00 00 00 00 00 00 00 00 00 ................
0040C370 00 00 00 00 00 00 00 00 00 00 00 00 00 00 00 00 ................
0040C380 00 00 00 00 00 00 00 00 00 00 00 00 00 00 00 00 ................
0040C390 00 00 00 00 00 00 00 00 00 00 00 00 00 00 00 00 ................
0040C3A0 00 00 00 00 00 00 00 00 00 00 00 00 00 00 00 00 ................
0040C3B0 00 00 00 00 00 00 00 00 00 00 00 00 00 00 00 00 ................
0040C3C0 00 00 00 00 00 00 00 00 00 00 00 00 00 00 00 00 ................
0040C3D0 00 00 00 00 00 00 00 00 00 00 00 00 00 00 00 00 ................
0040C3E0 00 00 00 00 00 00 00 00 00 00 00 00 00 00 00 00 ................
0040C3F0 00 00 00 00 00 00 00 00 00 00 00 00 00 00 00 00 ................
0040C400 00 00 00 00 00 00 00 00 00 00 00 00 00 00 00 00 ................
0040C410 00 00 00 00 00 00 00 00 00 00 00 00 00 00 00 00 ................
0040C420 00 00 00 00 00 00 00 00 00 00 00 00 00 00 00 00 ................
0040C430 00 00 00 00 00 00 00 00 00 00 00 00 00 00 00 00 ................
0040C440 00 00 00 00 00 00 00 00 00 00 00 00 00 00 00 00 ................
0040C450 00 00 00 00 00 00 00 00 00 00 00 00 00 00 00 00 ................
0040C460 00 00 00 00 00 00 00 00 00 00 00 00 00 00 00 00 ................
0040C470 00 00 00 00 00 00 00 00 00 00 00 00 00 00 00 00 ................
0040C480 00 00 00 00 00 00 00 00 00 00 00 00 00 00 00 00 ................
0040C490 00 00 00 00 00 00 00 00 00 00 00 00 00 00 00 00 ................
0040C4A0 00 00 00 00 00 00 00 00 00 00 00 00 00 00 00 00 ................
0040C4B0 00 00 00 00 00 00 00 00 00 00 00 00 00 00 00 00 ................
0040C4C0 00 00 00 00 00 00 00 00 00 00 00 00 00 00 00 00 ................
0040C4D0 00 00 00 00 00 00 00 00 00 00 00 00 00 00 00 00 ................
0040C4E0 00 00 00 00 00 00 00 00 00 00 00 00 00 00 00 00 ................
0040C4F0 00 00 00 00 00 00 00 00 00 00 00 00 00 00 00 00 ................
0040C500 00 00 00 00 00 00 00 00 00 00 00 00 00 00 00 00 ................
0040C510 00 00 00 00 00 00 00 00 00 00 00 00 00 00 00 00 ................
0040C520 00 00 00 00 00 00 00 00 00 00 00 00 00 00 00 00 ................
0040C530 00 00 00 00 00 00 00 00 00 00 00 00 00 00 00 00 ................
0040C540 00 00 00 00 00 00 00 00 00 00 00 00 00 00 00 00 ................
0040C550 00 00 00 00 00 00 00 00 00 00 00 00 00 00 00 00 ................
0040C560 00 00 00 00 00 00 00 00 00 00 00 00 00 00 00 00 ................
0040C570 00 00 00 00 00 00 00 00 00 00 00 00 00 00 00 00 ................
0040C580 00 00 00 00 00 00 00 00 00 00 00 00 00 00 00 00 ................
0040C590 00 00 00 00 00 00 00 00 00 00 00 00 00 00 00 00 ................
0040C5A0 00 00 00 00 00 00 00 00 00 00 00 00 00 00 00 00 ................
0040C5B0 00 00 00 00 00 00 00 00 00 00 00 00 00 00 00 00 ................
0040C5C0 00 00 00 00 00 00 00 00 00 00 00 00 00 00 00 00 ................
0040C5D0 00 00 00 00 00 00 00 00 00 00 00 00 00 00 00 00 ................
0040C5E0 00 00 00 00 00 00 00 00 00 00 00 00 00 00 00 00 ................
0040C5F0 00 00 00 00 00 00 00 00 00 00 00 00 00 00 00 00 ................
0040C600 00 00 00 00 00 00 00 00 00 00 00 00 00 00 00 00 ................
0040C610 00 00 00 00 00 00 00 00 00 00 00 00 00 00 00 00 ................
0040C620 00 00 00 00 00 00 00 00 00 00 00 00 00 00 00 00 ................
0040C630 00 00 00 00 00 00 00 00 00 00 00 00 00 00 00 00 ................
0040C640 00 00 00 00 00 00 00 00 00 00 00 00 00 00 00 00 ................
0040C650 00 00 00 00 00 00 00 00 00 00 00 00 00 00 00 00 ................
0040C660 00 00 00 00 00 00 00 00 00 00 00 00 00 00 00 00 ................
0040C670 00 00 00 00 00 00 00 00 00 00 00 00 00 00 00 00 ................
0040C680 00 00 00 00 00 00 00 00 00 00 00 00 00 00 00 00 ................
0040C690 00 00 00 00 00 00 00 00 00 00 00 00 00 00 00 00 ................
0040C6A0 00 00 00 00 00 00 00 00 00 00 00 00 00 00 00 00 ................
0040C6B0 00 00 00 00 00 00 00 00 00 00 00 00 00 00 00 00 ................
0040C6C0 00 00 00 00 00 00 00 00 00 00 00 00 00 00 00 00 ................
0040C6D0 00 00 00 00 00 00 00 00 00 00 00 00 00 00 00 00 ................
0040C6E0 00 00 00 00 00 00 00 00 00 00 00 00 00 00 00 00 ................
0040C6F0 00 00 00 00 00 00 00 00 00 00 00 00 00 00 00 00 ................
0040C700 00 00 00 00 00 00 00 00 00 00 00 00 00 00 00 00 ................
0040C710 00 00 00 00 00 00 00 00 00 00 00 00 00 00 00 00 ................
0040C720 00 00 00 00 00 00 00 00 00 00 00 00 00 00 00 00 ................
0040C730 00 00 00 00 00 00 00 00 00 00 00 00 00 00 00 00 ................
0040C740 00 00 00 00 00 00 00 00 00 00 00 00 00 00 00 00 ................
0040C750 00 00 00 00 00 00 00 00 00 00 00 00 00 00 00 00 ................
0040C760 00 00 00 00 00 00 00 00 00 00 00 00 00 00 00 00 ................
0040C770 00 00 00 00 00 00 00 00 00 00 00 00 00 00 00 00 ................
0040C780 00 00 00 00 00 00 00 00 00 00 00 00 00 00 00 00 ................
0040C790 00 00 00 00 00 00 00 00 00 00 00 00 00 00 00 00 ................
0040C7A0 00 00 00 00 00 00 00 00 00 00 00 00 00 00 00 00 ................
0040C7B0 00 00 00 00 00 00 00 00 00 00 00 00 00 00 00 00 ................
0040C7C0 00 00 00 00 00 00 00 00 00 00 00 00 00 00 00 00 ................
0040C7D0 00 00 00 00 00 00 00 00 00 00 00 00 00 00 00 00 ................
0040C7E0 00 00 00 00 00 00 00 00 00 00 00 00 00 00 00 00 ................
0040C7F0 00 00 00 00 00 00 00 00 00 00 00 00 00 00 00 00 ................
0040C800 00 00 00 00 00 00 00 00 00 00 00 00 00 00 00 00 ................
0040C810 00 00 00 00 00 00 00 00 00 00 00 00 00 00 00 00 ................
0040C820 00 00 00 00 00 00 00 00 00 00 00 00 00 00 00 00 ................
0040C830 00 00 00 00 00 00 00 00 00 00 00 00 00 00 00 00 ................
0040C840 00 00 00 00 00 00 00 00 00 00 00 00 00 00 00 00 ................
0040C850 00 00 00 00 00 00 00 00 00 00 00 00 00 00 00 00 ................
0040C860 00 00 00 00 00 00 00 00 00 00 00 00 00 00 00 00 ................
0040C870 00 00 00 00 00 00 00 00 00 00 00 00 00 00 00 00 ................
0040C880 00 00 00 00 00 00 00 00 00 00 00 00 00 00 00 00 ................
0040C890 00 00 00 00 00 00 00 00 00 00 00 00 00 00 00 00 ................
0040C8A0 00 00 00 00 00 00 00 00 00 00 00 00 00 00 00 00 ................
0040C8B0 00 00 00 00 00 00 00 00 00 00 00 00 00 00 00 00 ................
0040C8C0 00 00 00 00 00 00 00 00 00 00 00 00 00 00 00 00 ................
0040C8D0 00 00 00 00 00 00 00 00 00 00 00 00 00 00 00 00 ................
0040C8E0 00 00 00 00 00 00 00 00 00 00 00 00 00 00 00 00 ................
0040C8F0 00 00 00 00 00 00 00 00 00 00 00 00 00 00 00 00 ................
0040C900 00 00 00 00 00 00 00 00 00 00 00 00 00 00 00 00 ................
0040C910 00 00 00 00 00 00 00 00 00 00 00 00 00 00 00 00 ................
0040C920 00 00 00 00 00 00 00 00 00 00 00 00 00 00 00 00 ................
0040C930 00 00 00 00 00 00 00 00 00 00 00 00 00 00 00 00 ................
0040C940 00 00 00 00 00 00 00 00 00 00 00 00 00 00 00 00 ................
0040C950 00 00 00 00 00 00 00 00 00 00 00 00 00 00 00 00 ................
0040C960 00 00 00 00 00 00 00 00 00 00 00 00 00 00 00 00 ................
0040C970 00 00 00 00 00 00 00 00 00 00 00 00 00 00 00 00 ................
0040C980 00 00 00 00 00 00 00 00 00 00 00 00 00 00 00 00 ................
0040C990 00 00 00 00 00 00 00 00 00 00 00 00 00 00 00 00 ................
0040C9A0 00 00 00 00 00 00 00 00 00 00 00 00 00 00 00 00 ................
0040C9B0 00 00 00 00 00 00 00 00 00 00 00 00 00 00 00 00 ................
0040C9C0 00 00 00 00 00 00 00 00 00 00 00 00 00 00 00 00 ................
0040C9D0 00 00 00 00 00 00 00 00 00 00 00 00 00 00 00 00 ................
0040C9E0 00 00 00 00 00 00 00 00 00 00 00 00 00 00 00 00 ................
0040C9F0 00 00 00 00 00 00 00 00 00 00 00 00 00 00 00 00 ................
0040CA00 00 00 00 00 00 00 00 00 00 00 00 00 00 00 00 00 ................
0040CA10 00 00 00 00 00 00 00 00 00 00 00 00 00 00 00 00 ................
0040CA20 00 00 00 00 00 00 00 00 00 00 00 00 00 00 00 00 ................
0040CA30 00 00 00 00 00 00 00 00 00 00 00 00 00 00 00 00 ................
0040CA40 00 00 00 00 00 00 00 00 00 00 00 00 00 00 00 00 ................
0040CA50 00 00 00 00 00 00 00 00 00 00 00 00 00 00 00 00 ................
0040CA60 00 00 00 00 00 00 00 00 00 00 00 00 00 00 00 00 ................
0040CA70 00 00 00 00 00 00 00 00 00 00 00 00 00 00 00 00 ................
0040CA80 00 00 00 00 00 00 00 00 00 00 00 00 00 00 00 00 ................
0040CA90 00 00 00 00 00 00 00 00 00 00 00 00 00 00 00 00 ................
0040CAA0 00 00 00 00 00 00 00 00 00 00 00 00 00 00 00 00 ................
0040CAB0 00 00 00 00 00 00 00 00 00 00 00 00 00 00 00 00 ................
0040CAC0 00 00 00 00 00 00 00 00 00 00 00 00 00 00 00 00 ................
0040CAD0 00 00 00 00 00 00 00 00 00 00 00 00 00 00 00 00 ................
0040CAE0 00 00 00 00 00 00 00 00 00 00 00 00 00 00 00 00 ................
0040CAF0 00 00 00 00 00 00 00 00 00 00 00 00 00 00 00 00 ................
0040CB00 00 00 00 00 00 00 00 00 00 00 00 00 00 00 00 00 ................
0040CB10 00 00 00 00 00 00 00 00 00 00 00 00 00 00 00 00 ................
0040CB20 00 00 00 00 00 00 00 00 00 00 00 00 00 00 00 00 ................
0040CB30 00 00 00 00 00 00 00 00 00 00 00 00 00 00 00 00 ................
0040CB40 00 00 00 00 00 00 00 00 00 00 00 00 00 00 00 00 ................
0040CB50 00 00 00 00 00 00 00 00 00 00 00 00 00 00 00 00 ................
0040CB60 00 00 00 00 00 00 00 00 00 00 00 00 00 00 00 00 ................
0040CB70 00 00 00 00 00 00 00 00 00 00 00 00 00 00 00 00 ................
0040CB80 00 00 00 00 00 00 00 00 00 00 00 00 00 00 00 00 ................
0040CB90 00 00 00 00 00 00 00 00 00 00 00 00 00 00 00 00 ................
0040CBA0 00 00 00 00 00 00 00 00 00 00 00 00 00 00 00 00 ................
0040CBB0 00 00 00 00 00 00 00 00 00 00 00 00 00 00 00 00 ................
0040CBC0 00 00 00 00 00 00 00 00 00 00 00 00 00 00 00 00 ................
0040CBD0 00 00 00 00 00 00 00 00 00 00 00 00 00 00 00 00 ................
0040CBE0 00 00 00 00 00 00 00 00 00 00 00 00 00 00 00 00 ................
0040CBF0 00 00 00 00 00 00 00 00 00 00 00 00 00 00 00 00 ................
0040CC00 00 00 00 00 00 00 00 00 00 00 00 00 00 00 00 00 ................
0040CC10 00 00 00 00 00 00 00 00 00 00 00 00 00 00 00 00 ................
0040CC20 00 00 00 00 00 00 00 00 00 00 00 00 00 00 00 00 ................
0040CC30 00 00 00 00 00 00 00 00 00 00 00 00 00 00 00 00 ................
0040CC40 00 00 00 00 00 00 00 00 00 00 00 00 00 00 00 00 ................
0040CC50 00 00 00 00 00 00 00 00 00 00 00 00 00 00 00 00 ................
0040CC60 00 00 00 00 00 00 00 00 00 00 00 00 00 00 00 00 ................
0040CC70 00 00 00 00 00 00 00 00 00 00 00 00 00 00 00 00 ................
0040CC80 00 00 00 00 00 00 00 00 00 00 00 00 00 00 00 00 ................
0040CC90 00 00 00 00 00 00 00 00 00 00 00 00 00 00 00 00 ................
0040CCA0 00 00 00 00 00 00 00 00 00 00 00 00 00 00 00 00 ................
0040CCB0 00 00 00 00 00 00 00 00 00 00 00 00 00 00 00 00 ................
0040CCC0 00 00 00 00 00 00 00 00 00 00 00 00 00 00 00 00 ................
0040CCD0 00 00 00 00 00 00 00 00 00 00 00 00 00 00 00 00 ................
0040CCE0 00 00 00 00 00 00 00 00 00 00 00 00 00 00 00 00 ................
0040CCF0 00 00 00 00 00 00 00 00 00 00 00 00 00 00 00 00 ................
0040CD00 00 00 00 00 00 00 00 00 00 00 00 00 00 00 00 00 ................
0040CD10 00 00 00 00 00 00 00 00 00 00 00 00 00 00 00 00 ................
0040CD20 00 00 00 00 00 00 00 00 00 00 00 00 00 00 00 00 ................
0040CD30 00 00 00 00 00 00 00 00 00 00 00 00 00 00 00 00 ................
0040CD40 00 00 00 00 00 00 00 00 00 00 00 00 00 00 00 00 ................
0040CD50 00 00 00 00 00 00 00 00 00 00 00 00 00 00 00 00 ................
0040CD60 00 00 00 00 00 00 00 00 00 00 00 00 00 00 00 00 ................
0040CD70 00 00 00 00 00 00 00 00 00 00 00 00 00 00 00 00 ................
0040CD80 00 00 00 00 00 00 00 00 00 00 00 00 00 00 00 00 ................
0040CD90 00 00 00 00 00 00 00 00 00 00 00 00 00 00 00 00 ................
0040CDA0 00 00 00 00 00 00 00 00 00 00 00 00 00 00 00 00 ................
0040CDB0 00 00 00 00 00 00 00 00 00 00 00 00 00 00 00 00 ................
0040CDC0 00 00 00 00 00 00 00 00 00 00 00 00 00 00 00 00 ................
0040CDD0 00 00 00 00 00 00 00 00 00 00 00 00 00 00 00 00 ................
0040CDE0 00 00 00 00 00 00 00 00 00 00 00 00 00 00 00 00 ................
0040CDF0 00 00 00 00 00 00 00 00 00 00 00 00 00 00 00 00 ................
0040CE00 00 00 00 00 00 00 00 00 00 00 00 00 00 00 00 00 ................
0040CE10 00 00 00 00 00 00 00 00 00 00 00 00 00 00 00 00 ................
0040CE20 00 00 00 00 00 00 00 00 00 00 00 00 00 00 00 00 ................
0040CE30 00 00 00 00 00 00 00 00 00 00 00 00 00 00 00 00 ................
0040CE40 00 00 00 00 00 00 00 00 00 00 00 00 00 00 00 00 ................
0040CE50 00 00 00 00 00 00 00 00 00 00 00 00 00 00 00 00 ................
0040CE60 00 00 00 00 00 00 00 00 00 00 00 00 00 00 00 00 ................
0040CE70 00 00 00 00 00 00 00 00 00 00 00 00 00 00 00 00 ................
0040CE80 00 00 00 00 00 00 00 00 00 00 00 00 00 00 00 00 ................
0040CE90 00 00 00 00 00 00 00 00 00 00 00 00 00 00 00 00 ................
0040CEA0 00 00 00 00 00 00 00 00 00 00 00 00 00 00 00 00 ................
0040CEB0 00 00 00 00 00 00 00 00 00 00 00 00 00 00 00 00 ................
0040CEC0 00 00 00 00 00 00 00 00 00 00 00 00 00 00 00 00 ................
0040CED0 00 00 00 00 00 00 00 00 00 00 00 00 00 00 00 00 ................
0040CEE0 00 00 00 00 00 00 00 00 00 00 00 00 00 00 00 00 ................
0040CEF0 00 00 00 00 00 00 00 00 00 00 00 00 00 00 00 00 ................
0040CF00 00 00 00 00 00 00 00 00 00 00 00 00 00 00 00 00 ................
0040CF10 00 00 00 00 00 00 00 00 00 00 00 00 00 00 00 00 ................
0040CF20 00 00 00 00 00 00 00 00 00 00 00 00 00 00 00 00 ................
0040CF30 00 00 00 00 00 00 00 00 00 00 00 00 00 00 00 00 ................
0040CF40 00 00 00 00 00 00 00 00 00 00 00 00 00 00 00 00 ................
0040CF50 00 00 00 00 00 00 00 00 00 00 00 00 00 00 00 00 ................
0040CF60 00 00 00 00 00 00 00 00 00 00 00 00 00 00 00 00 ................
0040CF70 00 00 00 00 00 00 00 00 00 00 00 00 00 00 00 00 ................
0040CF80 00 00 00 00 00 00 00 00 00 00 00 00 00 00 00 00 ................
0040CF90 00 00 00 00 00 00 00 00 00 00 00 00 00 00 00 00 ................
0040CFA0 00 00 00 00 00 00 00 00 00 00 00 00 00 00 00 00 ................
0040CFB0 00 00 00 00 00 00 00 00 00 00 00 00 00 00 00 00 ................
0040CFC0 00 00 00 00 00 00 00 00 00 00 00 00 00 00 00 00 ................
0040CFD0 00 00 00 00 00 00 00 00 00 00 00 00 00 00 00 00 ................
0040CFE0 00 00 00 00 00 00 00 00 00 00 00 00 00 00 00 00 ................
0040CFF0 00 00 00 00 00 00 00 00 00 00 00 00 00 00 00 00 ................
0040D000 00 00 00 00 00 00 00 00 00 00 00 00 00 00 00 00 ................
0040D010 00 00 00 00 00 00 00 00 00 00 00 00 00 00 00 00 ................
0040D020 00 00 00 00 00 00 00 00 00 00 00 00 00 00 00 00 ................
0040D030 00 00 00 00 00 00 00 00 00 00 00 00 00 00 00 00 ................
0040D040 00 00 00 00 00 00 00 00 00 00 00 00 00 00 00 00 ................
0040D050 00 00 00 00 00 00 00 00 00 00 00 00 00 00 00 00 ................
0040D060 00 00 00 00 00 00 00 00 00 00 00 00 00 00 00 00 ................
0040D070 00 00 00 00 00 00 00 00 00 00 00 00 00 00 00 00 ................
0040D080 00 00 00 00 00 00 00 00 00 00 00 00 00 00 00 00 ................
0040D090 00 00 00 00 00 00 00 00 00 00 00 00 00 00 00 00 ................
0040D0A0 00 00 00 00 00 00 00 00 00 00 00 00 00 00 00 00 ................
0040D0B0 00 00 00 00 00 00 00 00 00 00 00 00 00 00 00 00 ................
0040D0C0 00 00 00 00 00 00 00 00 00 00 00 00 00 00 00 00 ................
0040D0D0 00 00 00 00 00 00 00 00 00 00 00 00 00 00 00 00 ................
0040D0E0 00 00 00 00 00 00 00 00 00 00 00 00 00 00 00 00 ................
0040D0F0 00 00 00 00 00 00 00 00 00 00 00 00 00 00 00 00 ................
0040D100 00 00 00 00 00 00 00 00 00 00 00 00 00 00 00 00 ................
0040D110 00 00 00 00 00 00 00 00 00 00 00 00 00 00 00 00 ................
0040D120 00 00 00 00 00 00 00 00 00 00 00 00 00 00 00 00 ................
0040D130 00 00 00 00 00 00 00 00 00 00 00 00 00 00 00 00 ................
0040D140 00 00 00 00 00 00 00 00 00 00 00 00 00 00 00 00 ................
0040D150 00 00 00 00 00 00 00 00 00 00 00 00 00 00 00 00 ................
0040D160 00 00 00 00 00 00 00 00 00 00 00 00 00 00 00 00 ................
0040D170 00 00 00 00 00 00 00 00 00 00 00 00 00 00 00 00 ................
0040D180 00 00 00 00 00 00 00 00 00 00 00 00 00 00 00 00 ................
0040D190 00 00 00 00 00 00 00 00 00 00 00 00 00 00 00 00 ................
0040D1A0 00 00 00 00 00 00 00 00 00 00 00 00 00 00 00 00 ................
0040D1B0 00 00 00 00 00 00 00 00 00 00 00 00 00 00 00 00 ................
0040D1C0 00 00 00 00 00 00 00 00 00 00 00 00 00 00 00 00 ................
0040D1D0 00 00 00 00 00 00 00 00 00 00 00 00 00 00 00 00 ................
0040D1E0 00 00 00 00 00 00 00 00 00 00 00 00 00 00 00 00 ................
0040D1F0 00 00 00 00 00 00 00 00 00 00 00 00 00 00 00 00 ................
0040D200 00 00 00 00 00 00 00 00 00 00 00 00 00 00 00 00 ................
0040D210 00 00 00 00 00 00 00 00 00 00 00 00 00 00 00 00 ................
0040D220 00 00 00 00 00 00 00 00 00 00 00 00 00 00 00 00 ................
0040D230 00 00 00 00 00 00 00 00 00 00 00 00 00 00 00 00 ................
0040D240 00 00 00 00 00 00 00 00 00 00 00 00 00 00 00 00 ................
0040D250 00 00 00 00 00 00 00 00 00 00 00 00 00 00 00 00 ................
0040D260 00 00 00 00 00 00 00 00 00 00 00 00 00 00 00 00 ................
0040D270 00 00 00 00 00 00 00 00 00 00 00 00 00 00 00 00 ................
0040D280 00 00 00 00 00 00 00 00 00 00 00 00 00 00 00 00 ................
0040D290 00 00 00 00 00 00 00 00 00 00 00 00 00 00 00 00 ................
0040D2A0 00 00 00 00 00 00 00 00 00 00 00 00 00 00 00 00 ................
0040D2B0 00 00 00 00 00 00 00 00 00 00 00 00 00 00 00 00 ................
0040D2C0 00 00 00 00 00 00 00 00 00 00 00 00 00 00 00 00 ................
0040D2D0 00 00 00 00 00 00 00 00 00 00 00 00 00 00 00 00 ................
0040D2E0 00 00 00 00 00 00 00 00 00 00 00 00 00 00 00 00 ................
0040D2F0 00 00 00 00 00 00 00 00 00 00 00 00 00 00 00 00 ................
0040D300 00 00 00 00 00 00 00 00 00 00 00 00 00 00 00 00 ................
0040D310 00 00 00 00 00 00 00 00 00 00 00 00 00 00 00 00 ................
0040D320 00 00 00 00 00 00 00 00 00 00 00 00 00 00 00 00 ................
0040D330 00 00 00 00 00 00 00 00 00 00 00 00 00 00 00 00 ................
0040D340 00 00 00 00 00 00 00 00 00 00 00 00 00 00 00 00 ................
0040D350 00 00 00 00 00 00 00 00 00 00 00 00 00 00 00 00 ................
0040D360 00 00 00 00 00 00 00 00 00 00 00 00 00 00 00 00 ................
0040D370 00 00 00 00 00 00 00 00 00 00 00 00 00 00 00 00 ................
0040D380 00 00 00 00 00 00 00 00 00 00 00 00 00 00 00 00 ................
0040D390 00 00 00 00 00 00 00 00 00 00 00 00 00 00 00 00 ................
0040D3A0 00 00 00 00 00 00 00 00 00 00 00 00 00 00 00 00 ................
0040D3B0 00 00 00 00 00 00 00 00 00 00 00 00 00 00 00 00 ................
0040D3C0 00 00 00 00 00 00 00 00 00 00 00 00 00 00 00 00 ................
0040D3D0 00 00 00 00 00 00 00 00 00 00 00 00 00 00 00 00 ................
0040D3E0 00 00 00 00 00 00 00 00 00 00 00 00 00 00 00 00 ................
0040D3F0 00 00 00 00 00 00 00 00 00 00 00 00 00 00 00 00 ................
0040D400 00 00 00 00 00 00 00 00 00 00 00 00 00 00 00 00 ................
0040D410 00 00 00 00 00 00 00 00 00 00 00 00 00 00 00 00 ................
0040D420 00 00 00 00 00 00 00 00 00 00 00 00 00 00 00 00 ................
0040D430 00 00 00 00 00 00 00 00 00 00 00 00 00 00 00 00 ................
0040D440 00 00 00 00 00 00 00 00 00 00 00 00 00 00 00 00 ................
0040D450 00 00 00 00 00 00 00 00 00 00 00 00 00 00 00 00 ................
0040D460 00 00 00 00 00 00 00 00 00 00 00 00 00 00 00 00 ................
0040D470 00 00 00 00 00 00 00 00 00 00 00 00 00 00 00 00 ................
0040D480 00 00 00 00 00 00 00 00 00 00 00 00 00 00 00 00 ................
0040D490 00 00 00 00 00 00 00 00 00 00 00 00 00 00 00 00 ................
0040D4A0 00 00 00 00 00 00 00 00 00 00 00 00 00 00 00 00 ................
0040D4B0 00 00 00 00 00 00 00 00 00 00 00 00 00 00 00 00 ................
0040D4C0 00 00 00 00 00 00 00 00 00 00 00 00 00 00 00 00 ................
0040D4D0 00 00 00 00 00 00 00 00 00 00 00 00 00 00 00 00 ................
0040D4E0 00 00 00 00 00 00 00 00 00 00 00 00 00 00 00 00 ................
0040D4F0 00 00 00 00 00 00 00 00 00 00 00 00 00 00 00 00 ................
0040D500 00 00 00 00 00 00 00 00 00 00 00 00 00 00 00 00 ................
0040D510 00 00 00 00 00 00 00 00 00 00 00 00 00 00 00 00 ................
0040D520 00 00 00 00 00 00 00 00 00 00 00 00 00 00 00 00 ................
0040D530 00 00 00 00 00 00 00 00 00 00 00 00 00 00 00 00 ................
0040D540 00 00 00 00 00 00 00 00 00 00 00 00 00 00 00 00 ................
0040D550 00 00 00 00 00 00 00 00 00 00 00 00 00 00 00 00 ................
0040D560 00 00 00 00 00 00 00 00 00 00 00 00 00 00 00 00 ................
0040D570 00 00 00 00 00 00 00 00 00 00 00 00 00 00 00 00 ................
0040D580 00 00 00 00 00 00 00 00 00 00 00 00 00 00 00 00 ................
0040D590 00 00 00 00 00 00 00 00 00 00 00 00 00 00 00 00 ................
0040D5A0 00 00 00 00 00 00 00 00 00 00 00 00 00 00 00 00 ................
0040D5B0 00 00 00 00 00 00 00 00 00 00 00 00 00 00 00 00 ................
0040D5C0 00 00 00 00 00 00 00 00 00 00 00 00 00 00 00 00 ................
0040D5D0 00 00 00 00 00 00 00 00 00 00 00 00 00 00 00 00 ................
0040D5E0 00 00 00 00 00 00 00 00 00 00 00 00 00 00 00 00 ................
0040D5F0 00 00 00 00 00 00 00 00 00 00 00 00 00 00 00 00 ................
0040D600 00 00 00 00 00 00 00 00 00 00 00 00 00 00 00 00 ................
0040D610 00 00 00 00 00 00 00 00 00 00 00 00 00 00 00 00 ................
0040D620 00 00 00 00 00 00 00 00 00 00 00 00 00 00 00 00 ................
0040D630 00 00 00 00 00 00 00 00 00 00 00 00 00 00 00 00 ................
0040D640 00 00 00 00 00 00 00 00 00 00 00 00 00 00 00 00 ................
0040D650 00 00 00 00 00 00 00 00 00 00 00 00 00 00 00 00 ................
0040D660 00 00 00 00 00 00 00 00 00 00 00 00 00 00 00 00 ................
0040D670 00 00 00 00 00 00 00 00 00 00 00 00 00 00 00 00 ................
0040D680 00 00 00 00 00 00 00 00 00 00 00 00 00 00 00 00 ................
0040D690 00 00 00 00 00 00 00 00 00 00 00 00 00 00 00 00 ................
0040D6A0 00 00 00 00 00 00 00 00 00 00 00 00 00 00 00 00 ................
0040D6B0 00 00 00 00 00 00 00 00 00 00 00 00 00 00 00 00 ................
0040D6C0 00 00 00 00 00 00 00 00 00 00 00 00 00 00 00 00 ................
0040D6D0 00 00 00 00 00 00 00 00 00 00 00 00 00 00 00 00 ................
0040D6E0 00 00 00 00 00 00 00 00 00 00 00 00 00 00 00 00 ................
0040D6F0 00 00 00 00 00 00 00 00 00 00 00 00 00 00 00 00 ................
0040D700 00 00 00 00 00 00 00 00 00 00 00 00 00 00 00 00 ................
0040D710 00 00 00 00 00 00 00 00 00 00 00 00 00 00 00 00 ................
0040D720 00 00 00 00 00 00 00 00 00 00 00 00 00 00 00 00 ................
0040D730 00 00 00 00 00 00 00 00 00 00 00 00 00 00 00 00 ................
0040D740 00 00 00 00 00 00 00 00 00 00 00 00 00 00 00 00 ................
0040D750 00 00 00 00 00 00 00 00 00 00 00 00 00 00 00 00 ................
0040D760 00 00 00 00 00 00 00 00 00 00 00 00 00 00 00 00 ................
0040D770 00 00 00 00 00 00 00 00 00 00 00 00 00 00 00 00 ................
0040D780 00 00 00 00 00 00 00 00 00 00 00 00 00 00 00 00 ................
0040D790 00 00 00 00 00 00 00 00 00 00 00 00 00 00 00 00 ................
0040D7A0 00 00 00 00 00 00 00 00 00 00 00 00 00 00 00 00 ................
0040D7B0 00 00 00 00 00 00 00 00 00 00 00 00 00 00 00 00 ................
0040D7C0 00 00 00 00 00 00 00 00 00 00 00 00 00 00 00 00 ................
0040D7D0 00 00 00 00 00 00 00 00 00 00 00 00 00 00 00 00 ................
0040D7E0 00 00 00 00 00 00 00 00 00 00 00 00 00 00 00 00 ................
0040D7F0 00 00 00 00 00 00 00 00 00 00 00 00 00 00 00 00 ................
0040D800 00 00 00 00 00 00 00 00 00 00 00 00 00 00 00 00 ................
0040D810 00 00 00 00 00 00 00 00 00 00 00 00 00 00 00 00 ................
0040D820 00 00 00 00 00 00 00 00 00 00 00 00 00 00 00 00 ................
0040D830 00 00 00 00 00 00 00 00 00 00 00 00 00 00 00 00 ................
0040D840 00 00 00 00 00 00 00 00 00 00 00 00 00 00 00 00 ................
0040D850 00 00 00 00 00 00 00 00 00 00 00 00 00 00 00 00 ................
0040D860 00 00 00 00 00 00 00 00 00 00 00 00 00 00 00 00 ................
0040D870 00 00 00 00 00 00 00 00 00 00 00 00 00 00 00 00 ................
0040D880 00 00 00 00 00 00 00 00 00 00 00 00 00 00 00 00 ................
0040D890 00 00 00 00 00 00 00 00 00 00 00 00 00 00 00 00 ................
0040D8A0 00 00 00 00 00 00 00 00 00 00 00 00 00 00 00 00 ................
0040D8B0 00 00 00 00 00 00 00 00 00 00 00 00 00 00 00 00 ................
0040D8C0 00 00 00 00 00 00 00 00 00 00 00 00 00 00 00 00 ................
0040D8D0 00 00 00 00 00 00 00 00 00 00 00 00 00 00 00 00 ................
0040D8E0 00 00 00 00 00 00 00 00 00 00 00 00 00 00 00 00 ................
0040D8F0 00 00 00 00 00 00 00 00 00 00 00 00 00 00 00 00 ................
0040D900 00 00 00 00 00 00 00 00 00 00 00 00 00 00 00 00 ................
0040D910 00 00 00 00 00 00 00 00 00 00 00 00 00 00 00 00 ................
0040D920 00 00 00 00 00 00 00 00 00 00 00 00 00 00 00 00 ................
0040D930 00 00 00 00 00 00 00 00 00 00 00 00 00 00 00 00 ................
0040D940 00 00 00 00 00 00 00 00 00 00 00 00 00 00 00 00 ................
0040D950 00 00 00 00 00 00 00 00 00 00 00 00 00 00 00 00 ................
0040D960 00 00 00 00 00 00 00 00 00 00 00 00 00 00 00 00 ................
0040D970 00 00 00 00 00 00 00 00 00 00 00 00 00 00 00 00 ................
0040D980 00 00 00 00 00 00 00 00 00 00 00 00 00 00 00 00 ................
0040D990 00 00 00 00 00 00 00 00 00 00 00 00 00 00 00 00 ................
0040D9A0 00 00 00 00 00 00 00 00 00 00 00 00 00 00 00 00 ................
0040D9B0 00 00 00 00 00 00 00 00 00 00 00 00 00 00 00 00 ................
0040D9C0 00 00 00 00 00 00 00 00 00 00 00 00 00 00 00 00 ................
0040D9D0 00 00 00 00 00 00 00 00 00 00 00 00 00 00 00 00 ................
0040D9E0 00 00 00 00 00 00 00 00 00 00 00 00 00 00 00 00 ................
0040D9F0 00 00 00 00 00 00 00 00 00 00 00 00 00 00 00 00 ................
0040DA00 00 00 00 00 00 00 00 00 00 00 00 00 00 00 00 00 ................
0040DA10 00 00 00 00 00 00 00 00 00 00 00 00 00 00 00 00 ................
0040DA20 00 00 00 00 00 00 00 00 00 00 00 00 00 00 00 00 ................
0040DA30 00 00 00 00 00 00 00 00 00 00 00 00 00 00 00 00 ................
0040DA40 00 00 00 00 00 00 00 00 00 00 00 00 00 00 00 00 ................
0040DA50 00 00 00 00 00 00 00 00 00 00 00 00 00 00 00 00 ................
0040DA60 00 00 00 00 00 00 00 00 00 00 00 00 00 00 00 00 ................
0040DA70 00 00 00 00 00 00 00 00 00 00 00 00 00 00 00 00 ................
0040DA80 00 00 00 00 00 00 00 00 00 00 00 00 00 00 00 00 ................
0040DA90 00 00 00 00 00 00 00 00 00 00 00 00 00 00 00 00 ................
0040DAA0 00 00 00 00 00 00 00 00 00 00 00 00 00 00 00 00 ................
0040DAB0 00 00 00 00 00 00 00 00 00 00 00 00 00 00 00 00 ................
0040DAC0 00 00 00 00 00 00 00 00 00 00 00 00 00 00 00 00 ................
0040DAD0 00 00 00 00 00 00 00 00 00 00 00 00 00 00 00 00 ................
0040DAE0 00 00 00 00 00 00 00 00 00 00 00 00 00 00 00 00 ................
0040DAF0 00 00 00 00 00 00 00 00 00 00 00 00 00 00 00 00 ................
0040DB00 00 00 00 00 00 00 00 00 00 00 00 00 00 00 00 00 ................
0040DB10 00 00 00 00 00 00 00 00 00 00 00 00 00 00 00 00 ................
0040DB20 00 00 00 00 00 00 00 00 00 00 00 00 00 00 00 00 ................
0040DB30 00 00 00 00 00 00 00 00 00 00 00 00 00 00 00 00 ................
0040DB40 00 00 00 00 00 00 00 00 00 00 00 00 00 00 00 00 ................
0040DB50 00 00 00 00 00 00 00 00 00 00 00 00 00 00 00 00 ................
0040DB60 00 00 00 00 00 00 00 00 00 00 00 00 00 00 00 00 ................
0040DB70 00 00 00 00 00 00 00 00 00 00 00 00 00 00 00 00 ................
0040DB80 00 00 00 00 00 00 00 00 00 00 00 00 00 00 00 00 ................
0040DB90 00 00 00 00 00 00 00 00 00 00 00 00 00 00 00 00 ................
0040DBA0 00 00 00 00 00 00 00 00 00 00 00 00 00 00 00 00 ................
0040DBB0 00 00 00 00 00 00 00 00 00 00 00 00 00 00 00 00 ................
0040DBC0 00 00 00 00 00 00 00 00 00 00 00 00 00 00 00 00 ................
0040DBD0 00 00 00 00 00 00 00 00 00 00 00 00 00 00 00 00 ................
0040DBE0 00 00 00 00 00 00 00 00 00 00 00 00 00 00 00 00 ................
0040DBF0 00 00 00 00 00 00 00 00 00 00 00 00 00 00 00 00 ................
0040DC00 00 00 00 00 00 00 00 00 00 00 00 00 00 00 00 00 ................
0040DC10 00 00 00 00 00 00 00 00 00 00 00 00 00 00 00 00 ................
0040DC20 00 00 00 00 00 00 00 00 00 00 00 00 00 00 00 00 ................
0040DC30 00 00 00 00 00 00 00 00 00 00 00 00 00 00 00 00 ................
0040DC40 00 00 00 00 00 00 00 00 00 00 00 00 00 00 00 00 ................
0040DC50 00 00 00 00 00 00 00 00 00 00 00 00 00 00 00 00 ................
0040DC60 00 00 00 00 00 00 00 00 00 00 00 00 00 00 00 00 ................
0040DC70 00 00 00 00 00 00 00 00 00 00 00 00 00 00 00 00 ................
0040DC80 00 00 00 00 00 00 00 00 00 00 00 00 00 00 00 00 ................
0040DC90 00 00 00 00 00 00 00 00 00 00 00 00 00 00 00 00 ................
0040DCA0 00 00 00 00 00 00 00 00 00 00 00 00 00 00 00 00 ................
0040DCB0 00 00 00 00 00 00 00 00 00 00 00 00 00 00 00 00 ................
0040DCC0 00 00 00 00 00 00 00 00 00 00 00 00 00 00 00 00 ................
0040DCD0 00 00 00 00 00 00 00 00 00 00 00 00 00 00 00 00 ................
0040DCE0 00 00 00 00 00 00 00 00 00 00 00 00 00 00 00 00 ................
0040DCF0 00 00 00 00 00 00 00 00 00 00 00 00 00 00 00 00 ................
0040DD00 00 00 00 00 00 00 00 00 00 00 00 00 00 00 00 00 ................
0040DD10 00 00 00 00 00 00 00 00 00 00 00 00 00 00 00 00 ................
0040DD20 00 00 00 00 00 00 00 00 00 00 00 00 00 00 00 00 ................
0040DD30 00 00 00 00 00 00 00 00 00 00 00 00 00 00 00 00 ................
0040DD40 00 00 00 00 00 00 00 00 00 00 00 00 00 00 00 00 ................
0040DD50 00 00 00 00 00 00 00 00 00 00 00 00 00 00 00 00 ................
0040DD60 00 00 00 00 00 00 00 00 00 00 00 00 00 00 00 00 ................
0040DD70 00 00 00 00 00 00 00 00 00 00 00 00 00 00 00 00 ................
0040DD80 00 00 00 00 00 00 00 00 00 00 00 00 00 00 00 00 ................
0040DD90 00 00 00 00 00 00 00 00 00 00 00 00 00 00 00 00 ................
0040DDA0 00 00 00 00 00 00 00 00 00 00 00 00 00 00 00 00 ................
0040DDB0 00 00 00 00 00 00 00 00 00 00 00 00 00 00 00 00 ................
0040DDC0 00 00 00 00 00 00 00 00 00 00 00 00 00 00 00 00 ................
0040DDD0 00 00 00 00 00 00 00 00 00 00 00 00 00 00 00 00 ................
0040DDE0 00 00 00 00 00 00 00 00 00 00 00 00 00 00 00 00 ................
0040DDF0 00 00 00 00 00 00 00 00 00 00 00 00 00 00 00 00 ................
0040DE00 00 00 00 00 00 00 00 00 00 00 00 00 00 00 00 00 ................
0040DE10 00 00 00 00 00 00 00 00 00 00 00 00 00 00 00 00 ................
0040DE20 00 00 00 00 00 00 00 00 00 00 00 00 00 00 00 00 ................
0040DE30 00 00 00 00 00 00 00 00 00 00 00 00 00 00 00 00 ................
0040DE40 00 00 00 00 00 00 00 00 00 00 00 00 00 00 00 00 ................
0040DE50 00 00 00 00 00 00 00 00 00 00 00 00 00 00 00 00 ................
0040DE60 00 00 00 00 00 00 00 00 00 00 00 00 00 00 00 00 ................
0040DE70 00 00 00 00 00 00 00 00 00 00 00 00 00 00 00 00 ................
0040DE80 00 00 00 00 00 00 00 00 00 00 00 00 00 00 00 00 ................
0040DE90 00 00 00 00 00 00 00 00 00 00 00 00 00 00 00 00 ................
0040DEA0 00 00 00 00 00 00 00 00 00 00 00 00 00 00 00 00 ................
0040DEB0 00 00 00 00 00 00 00 00 00 00 00 00 00 00 00 00 ................
0040DEC0 00 00 00 00 00 00 00 00 00 00 00 00 00 00 00 00 ................
0040DED0 00 00 00 00 00 00 00 00 00 00 00 00 00 00 00 00 ................
0040DEE0 00 00 00 00 00 00 00 00 00 00 00 00 00 00 00 00 ................
0040DEF0 00 00 00 00 00 00 00 00 00 00 00 00 00 00 00 00 ................
0040DF00 00 00 00 00 00 00 00 00 00 00 00 00 00 00 00 00 ................
0040DF10 00 00 00 00 00 00 00 00 00 00 00 00 00 00 00 00 ................
0040DF20 00 00 00 00 00 00 00 00 00 00 00 00 00 00 00 00 ................
0040DF30 00 00 00 00 00 00 00 00 00 00 00 00 00 00 00 00 ................
0040DF40 00 00 00 00 00 00 00 00 00 00 00 00 00 00 00 00 ................
0040DF50 00 00 00 00 00 00 00 00 00 00 00 00 00 00 00 00 ................
0040DF60 00 00 00 00 00 00 00 00 00 00 00 00 00 00 00 00 ................
0040DF70 00 00 00 00 00 00 00 00 00 00 00 00 00 00 00 00 ................
0040DF80 00 00 00 00 00 00 00 00 00 00 00 00 00 00 00 00 ................
0040DF90 00 00 00 00 00 00 00 00 00 00 00 00 00 00 00 00 ................
0040DFA0 00 00 00 00 00 00 00 00 00 00 00 00 00 00 00 00 ................
0040DFB0 00 00 00 00 00 00 00 00 00 00 00 00 00 00 00 00 ................
0040DFC0 00 00 00 00 00 00 00 00 00 00 00 00 00 00 00 00 ................
0040DFD0 00 00 00 00 00 00 00 00 00 00 00 00 00 00 00 00 ................
0040DFE0 00 00 00 00 00 00 00 00 00 00 00 00 00 00 00 00 ................
0040DFF0 00 00 00 00 00 00 00 00 00 00 00 00 00 00 00 00 ................
0040E000 00 00 00 00 00 00 00 00 00 00 00 00 00 00 00 00 ................
0040E010 00 00 00 00 00 00 00 00 00 00 00 00 00 00 00 00 ................
0040E020 00 00 00 00 00 00 00 00 00 00 00 00 00 00 00 00 ................
0040E030 00 00 00 00 00 00 00 00 00 00 00 00 00 00 00 00 ................
0040E040 00 00 00 00 00 00 00 00 00 00 00 00 00 00 00 00 ................
0040E050 00 00 00 00 00 00 00 00 00 00 00 00 00 00 00 00 ................
0040E060 00 00 00 00 00 00 00 00 00 00 00 00 00 00 00 00 ................
0040E070 00 00 00 00 00 00 00 00 00 00 00 00 00 00 00 00 ................
0040E080 00 00 00 00 00 00 00 00 00 00 00 00 00 00 00 00 ................
0040E090 00 00 00 00 00 00 00 00 00 00 00 00 00 00 00 00 ................
0040E0A0 00 00 00 00 00 00 00 00 00 00 00 00 00 00 00 00 ................
0040E0B0 00 00 00 00 00 00 00 00 00 00 00 00 00 00 00 00 ................
0040E0C0 00 00 00 00 00 00 00 00 00 00 00 00 00 00 00 00 ................
0040E0D0 00 00 00 00 00 00 00 00 00 00 00 00 00 00 00 00 ................
0040E0E0 00 00 00 00 00 00 00 00 00 00 00 00 00 00 00 00 ................
0040E0F0 00 00 00 00 00 00 00 00 00 00 00 00 00 00 00 00 ................
0040E100 00 00 00 00 00 00 00 00 00 00 00 00 00 00 00 00 ................
0040E110 00 00 00 00 00 00 00 00 00 00 00 00 00 00 00 00 ................
0040E120 00 00 00 00 00 00 00 00 00 00 00 00 00 00 00 00 ................
0040E130 00 00 00 00 00 00 00 00 00 00 00 00 00 00 00 00 ................
0040E140 00 00 00 00 00 00 00 00 00 00 00 00 00 00 00 00 ................
0040E150 00 00 00 00 00 00 00 00 00 00 00 00 00 00 00 00 ................
0040E160 00 00 00 00 00 00 00 00 00 00 00 00 00 00 00 00 ................
0040E170 00 00 00 00 00 00 00 00 00 00 00 00 00 00 00 00 ................
0040E180 00 00 00 00 00 00 00 00 00 00 00 00 00 00 00 00 ................
0040E190 00 00 00 00 00 00 00 00 00 00 00 00 00 00 00 00 ................
0040E1A0 00 00 00 00 00 00 00 00 00 00 00 00 00 00 00 00 ................
0040E1B0 00 00 00 00 00 00 00 00 00 00 00 00 00 00 00 00 ................
0040E1C0 00 00 00 00 00 00 00 00 00 00 00 00 00 00 00 00 ................
0040E1D0 00 00 00 00 00 00 00 00 00 00 00 00 00 00 00 00 ................
0040E1E0 00 00 00 00 00 00 00 00 00 00 00 00 00 00 00 00 ................
0040E1F0 00 00 00 00 00 00 00 00 00 00 00 00 00 00 00 00 ................
0040E200 00 00 00 00 00 00 00 00 00 00 00 00 00 00 00 00 ................
0040E210 00 00 00 00 00 00 00 00 00 00 00 00 00 00 00 00 ................
0040E220 00 00 00 00 00 00 00 00 00 00 00 00 00 00 00 00 ................
0040E230 00 00 00 00 00 00 00 00 00 00 00 00 00 00 00 00 ................
0040E240 00 00 00 00 00 00 00 00 00 00 00 00 00 00 00 00 ................
0040E250 00 00 00 00 00 00 00 00 00 00 00 00 00 00 00 00 ................
0040E260 00 00 00 00 00 00 00 00 00 00 00 00 00 00 00 00 ................
0040E270 00 00 00 00 00 00 00 00 00 00 00 00 00 00 00 00 ................
0040E280 00 00 00 00 00 00 00 00 00 00 00 00 00 00 00 00 ................
0040E290 00 00 00 00 00 00 00 00 00 00 00 00 00 00 00 00 ................
0040E2A0 00 00 00 00 00 00 00 00 00 00 00 00 00 00 00 00 ................
0040E2B0 00 00 00 00 00 00 00 00 00 00 00 00 00 00 00 00 ................
0040E2C0 00 00 00 00 00 00 00 00 00 00 00 00 00 00 00 00 ................
0040E2D0 00 00 00 00 00 00 00 00 00 00 00 00 00 00 00 00 ................
0040E2E0 00 00 00 00 00 00 00 00 00 00 00 00 00 00 00 00 ................
0040E2F0 00 00 00 00 00 00 00 00 00 00 00 00 00 00 00 00 ................
0040E300 00 00 00 00 00 00 00 00 00 00 00 00 00 00 00 00 ................
0040E310 00 00 00 00 00 00 00 00 00 00 00 00 00 00 00 00 ................
0040E320 00 00 00 00 00 00 00 00 00 00 00 00 00 00 00 00 ................
0040E330 00 00 00 00 00 00 00 00 00 00 00 00 00 00 00 00 ................
0040E340 00 00 00 00 00 00 00 00 00 00 00 00 00 00 00 00 ................
0040E350 00 00 00 00 00 00 00 00 00 00 00 00 00 00 00 00 ................
0040E360 00 00 00 00 00 00 00 00 00 00 00 00 00 00 00 00 ................
0040E370 00 00 00 00 00 00 00 00 00 00 00 00 00 00 00 00 ................
0040E380 00 00 00 00 00 00 00 00 00 00 00 00 00 00 00 00 ................
0040E390 00 00 00 00 00 00 00 00 00 00 00 00 00 00 00 00 ................
0040E3A0 00 00 00 00 00 00 00 00 00 00 00 00 00 00 00 00 ................
0040E3B0 00 00 00 00 00 00 00 00 00 00 00 00 00 00 00 00 ................
0040E3C0 00 00 00 00 00 00 00 00 00 00 00 00 00 00 00 00 ................
0040E3D0 00 00 00 00 00 00 00 00 00 00 00 00 00 00 00 00 ................
0040E3E0 00 00 00 00 00 00 00 00 00 00 00 00 00 00 00 00 ................
0040E3F0 00 00 00 00 00 00 00 00 00 00 00 00 00 00 00 00 ................
0040E400 00 00 00 00 00 00 00 00 00 00 00 00 00 00 00 00 ................
0040E410 00 00 00 00 00 00 00 00 00 00 00 00 00 00 00 00 ................
0040E420 00 00 00 00 00 00 00 00 00 00 00 00 00 00 00 00 ................
0040E430 00 00 00 00 00 00 00 00 00 00 00 00 00 00 00 00 ................
0040E440 00 00 00 00 00 00 00 00 00 00 00 00 00 00 00 00 ................
0040E450 00 00 00 00 00 00 00 00 00 00 00 00 00 00 00 00 ................
0040E460 00 00 00 00 00 00 00 00 00 00 00 00 00 00 00 00 ................
0040E470 00 00 00 00 00 00 00 00 00 00 00 00 00 00 00 00 ................
0040E480 00 00 00 00 00 00 00 00 00 00 00 00 00 00 00 00 ................
0040E490 00 00 00 00 00 00 00 00 00 00 00 00 00 00 00 00 ................
0040E4A0 00 00 00 00 00 00 00 00 00 00 00 00 00 00 00 00 ................
0040E4B0 00 00 00 00 00 00 00 00 00 00 00 00 00 00 00 00 ................
0040E4C0 00 00 00 00 00 00 00 00 00 00 00 00 00 00 00 00 ................
0040E4D0 00 00 00 00 00 00 00 00 00 00 00 00 00 00 00 00 ................
0040E4E0 00 00 00 00 00 00 00 00 00 00 00 00 00 00 00 00 ................
0040E4F0 00 00 00 00 00 00 00 00 00 00 00 00 00 00 00 00 ................
0040E500 00 00 00 00 00 00 00 00 00 00 00 00 00 00 00 00 ................
0040E510 00 00 00 00 00 00 00 00 00 00 00 00 00 00 00 00 ................
0040E520 00 00 00 00 00 00 00 00 00 00 00 00 00 00 00 00 ................
0040E530 00 00 00 00 00 00 00 00 00 00 00 00 00 00 00 00 ................
0040E540 00 00 00 00 00 00 00 00 00 00 00 00 00 00 00 00 ................
0040E550 00 00 00 00 00 00 00 00 00 00 00 00 00 00 00 00 ................
0040E560 00 00 00 00 00 00 00 00 00 00 00 00 00 00 00 00 ................
0040E570 00 00 00 00 00 00 00 00 00 00 00 00 00 00 00 00 ................
0040E580 00 00 00 00 00 00 00 00 00 00 00 00 00 00 00 00 ................
0040E590 00 00 00 00 00 00 00 00 00 00 00 00 00 00 00 00 ................
0040E5A0 00 00 00 00 00 00 00 00 00 00 00 00 00 00 00 00 ................
0040E5B0 00 00 00 00 00 00 00 00 00 00 00 00 00 00 00 00 ................
0040E5C0 00 00 00 00 00 00 00 00 00 00 00 00 00 00 00 00 ................
0040E5D0 00 00 00 00 00 00 00 00 00 00 00 00 00 00 00 00 ................
0040E5E0 00 00 00 00 00 00 00 00 00 00 00 00 00 00 00 00 ................
0040E5F0 00 00 00 00 00 00 00 00 00 00 00 00 00 00 00 00 ................
0040E600 00 00 00 00 00 00 00 00 00 00 00 00 00 00 00 00 ................
0040E610 00 00 00 00 00 00 00 00 00 00 00 00 00 00 00 00 ................
0040E620 00 00 00 00 00 00 00 00 00 00 00 00 00 00 00 00 ................
0040E630 00 00 00 00 00 00 00 00 00 00 00 00 00 00 00 00 ................
0040E640 00 00 00 00 00 00 00 00 00 00 00 00 00 00 00 00 ................
0040E650 00 00 00 00 00 00 00 00 00 00 00 00 00 00 00 00 ................
0040E660 00 00 00 00 00 00 00 00 00 00 00 00 00 00 00 00 ................
0040E670 00 00 00 00 00 00 00 00 00 00 00 00 00 00 00 00 ................
0040E680 00 00 00 00 00 00 00 00 00 00 00 00 00 00 00 00 ................
0040E690 00 00 00 00 00 00 00 00 00 00 00 00 00 00 00 00 ................
0040E6A0 00 00 00 00 00 00 00 00 00 00 00 00 00 00 00 00 ................
0040E6B0 00 00 00 00 00 00 00 00 00 00 00 00 00 00 00 00 ................
0040E6C0 00 00 00 00 00 00 00 00 00 00 00 00 00 00 00 00 ................
0040E6D0 00 00 00 00 00 00 00 00 00 00 00 00 00 00 00 00 ................
0040E6E0 00 00 00 00 00 00 00 00 00 00 00 00 00 00 00 00 ................
0040E6F0 00 00 00 00 00 00 00 00 00 00 00 00 00 00 00 00 ................
0040E700 00 00 00 00 00 00 00 00 00 00 00 00 00 00 00 00 ................
0040E710 00 00 00 00 00 00 00 00 00 00 00 00 00 00 00 00 ................
0040E720 00 00 00 00 00 00 00 00 00 00 00 00 00 00 00 00 ................
0040E730 00 00 00 00 00 00 00 00 00 00 00 00 00 00 00 00 ................
0040E740 00 00 00 00 00 00 00 00 00 00 00 00 00 00 00 00 ................
0040E750 00 00 00 00 00 00 00 00 00 00 00 00 00 00 00 00 ................
0040E760 00 00 00 00 00 00 00 00 00 00 00 00 00 00 00 00 ................
0040E770 00 00 00 00 00 00 00 00 00 00 00 00 00 00 00 00 ................
0040E780 00 00 00 00 00 00 00 00 00 00 00 00 00 00 00 00 ................
0040E790 00 00 00 00 00 00 00 00 00 00 00 00 00 00 00 00 ................
0040E7A0 00 00 00 00 00 00 00 00 00 00 00 00 00 00 00 00 ................
0040E7B0 00 00 00 00 00 00 00 00 00 00 00 00 00 00 00 00 ................
0040E7C0 00 00 00 00 00 00 00 00 00 00 00 00 00 00 00 00 ................
0040E7D0 00 00 00 00 00 00 00 00 00 00 00 00 00 00 00 00 ................
0040E7E0 00 00 00 00 00 00 00 00 00 00 00 00 00 00 00 00 ................
0040E7F0 00 00 00 00 00 00 00 00 00 00 00 00 00 00 00 00 ................
0040E800 00 00 00 00 00 00 00 00 00 00 00 00 00 00 00 00 ................
0040E810 00 00 00 00 00 00 00 00 00 00 00 00 00 00 00 00 ................
0040E820 00 00 00 00 00 00 00 00 00 00 00 00 00 00 00 00 ................
0040E830 00 00 00 00 00 00 00 00 00 00 00 00 00 00 00 00 ................
0040E840 00 00 00 00 00 00 00 00 00 00 00 00 00 00 00 00 ................
0040E850 00 00 00 00 00 00 00 00 00 00 00 00 00 00 00 00 ................
0040E860 00 00 00 00 00 00 00 00 00 00 00 00 00 00 00 00 ................
0040E870 00 00 00 00 00 00 00 00 00 00 00 00 00 00 00 00 ................
0040E880 00 00 00 00 00 00 00 00 00 00 00 00 00 00 00 00 ................
0040E890 00 00 00 00 00 00 00 00 00 00 00 00 00 00 00 00 ................
0040E8A0 00 00 00 00 00 00 00 00 00 00 00 00 00 00 00 00 ................
0040E8B0 00 00 00 00 00 00 00 00 00 00 00 00 00 00 00 00 ................
0040E8C0 00 00 00 00 00 00 00 00 00 00 00 00 00 00 00 00 ................
0040E8D0 00 00 00 00 00 00 00 00 00 00 00 00 00 00 00 00 ................
0040E8E0 00 00 00 00 00 00 00 00 00 00 00 00 00 00 00 00 ................
0040E8F0 00 00 00 00 00 00 00 00 00 00 00 00 00 00 00 00 ................
0040E900 00 00 00 00 00 00 00 00 00 00 00 00 00 00 00 00 ................
0040E910 00 00 00 00 00 00 00 00 00 00 00 00 00 00 00 00 ................
0040E920 00 00 00 00 00 00 00 00 00 00 00 00 00 00 00 00 ................
0040E930 00 00 00 00 00 00 00 00 00 00 00 00 00 00 00 00 ................
0040E940 00 00 00 00 00 00 00 00 00 00 00 00 00 00 00 00 ................
0040E950 00 00 00 00 00 00 00 00 00 00 00 00 00 00 00 00 ................
0040E960 00 00 00 00 00 00 00 00 00 00 00 00 00 00 00 00 ................
0040E970 00 00 00 00 00 00 00 00 00 00 00 00 00 00 00 00 ................
0040E980 00 00 00 00 00 00 00 00 00 00 00 00 00 00 00 00 ................
0040E990 00 00 00 00 00 00 00 00 00 00 00 00 00 00 00 00 ................
0040E9A0 00 00 00 00 00 00 00 00 00 00 00 00 00 00 00 00 ................
0040E9B0 00 00 00 00 00 00 00 00 00 00 00 00 00 00 00 00 ................
0040E9C0 00 00 00 00 00 00 00 00 00 00 00 00 00 00 00 00 ................
0040E9D0 00 00 00 00 00 00 00 00 00 00 00 00 00 00 00 00 ................
0040E9E0 00 00 00 00 00 00 00 00 00 00 00 00 00 00 00 00 ................
0040E9F0 00 00 00 00 00 00 00 00 00 00 00 00 00 00 00 00 ................
0040EA00 00 00 00 00 00 00 00 00 00 00 00 00 00 00 00 00 ................
0040EA10 00 00 00 00 00 00 00 00 00 00 00 00 00 00 00 00 ................
0040EA20 00 00 00 00 00 00 00 00 00 00 00 00 00 00 00 00 ................
0040EA30 00 00 00 00 00 00 00 00 00 00 00 00 00 00 00 00 ................
0040EA40 00 00 00 00 00 00 00 00 00 00 00 00 00 00 00 00 ................
0040EA50 00 00 00 00 00 00 00 00 00 00 00 00 00 00 00 00 ................
0040EA60 00 00 00 00 00 00 00 00 00 00 00 00 00 00 00 00 ................
0040EA70 00 00 00 00 00 00 00 00 00 00 00 00 00 00 00 00 ................
0040EA80 00 00 00 00 00 00 00 00 00 00 00 00 00 00 00 00 ................
0040EA90 00 00 00 00 00 00 00 00 00 00 00 00 00 00 00 00 ................
0040EAA0 00 00 00 00 00 00 00 00 00 00 00 00 00 00 00 00 ................
0040EAB0 00 00 00 00 00 00 00 00 00 00 00 00 00 00 00 00 ................
0040EAC0 00 00 00 00 00 00 00 00 00 00 00 00 00 00 00 00 ................
0040EAD0 00 00 00 00 00 00 00 00 00 00 00 00 00 00 00 00 ................
0040EAE0 00 00 00 00 00 00 00 00 00 00 00 00 00 00 00 00 ................
0040EAF0 00 00 00 00 00 00 00 00 00 00 00 00 00 00 00 00 ................
0040EB00 00 00 00 00 00 00 00 00 00 00 00 00 00 00 00 00 ................
0040EB10 00 00 00 00 00 00 00 00 00 00 00 00 00 00 00 00 ................
0040EB20 00 00 00 00 00 00 00 00 00 00 00 00 00 00 00 00 ................
0040EB30 00 00 00 00 00 00 00 00 00 00 00 00 00 00 00 00 ................
0040EB40 00 00 00 00 00 00 00 00 00 00 00 00 00 00 00 00 ................
0040EB50 00 00 00 00 00 00 00 00 00 00 00 00 00 00 00 00 ................
0040EB60 00 00 00 00 00 00 00 00 00 00 00 00 00 00 00 00 ................
0040EB70 00 00 00 00 00 00 00 00 00 00 00 00 00 00 00 00 ................
0040EB80 00 00 00 00 00 00 00 00 00 00 00 00 00 00 00 00 ................
0040EB90 00 00 00 00 00 00 00 00 00 00 00 00 00 00 00 00 ................
0040EBA0 00 00 00 00 00 00 00 00 00 00 00 00 00 00 00 00 ................
0040EBB0 00 00 00 00 00 00 00 00 00 00 00 00 00 00 00 00 ................
0040EBC0 00 00 00 00 00 00 00 00 00 00 00 00 00 00 00 00 ................
0040EBD0 00 00 00 00 00 00 00 00 00 00 00 00 00 00 00 00 ................
0040EBE0 00 00 00 00 00 00 00 00 00 00 00 00 00 00 00 00 ................
0040EBF0 00 00 00 00 00 00 00 00 00 00 00 00 00 00 00 00 ................
0040EC00 00 00 00 00 00 00 00 00 00 00 00 00 00 00 00 00 ................
0040EC10 00 00 00 00 00 00 00 00 00 00 00 00 00 00 00 00 ................
0040EC20 00 00 00 00 00 00 00 00 00 00 00 00 00 00 00 00 ................
0040EC30 00 00 00 00 00 00 00 00 00 00 00 00 00 00 00 00 ................
0040EC40 00 00 00 00 00 00 00 00 00 00 00 00 00 00 00 00 ................
0040EC50 00 00 00 00 00 00 00 00 00 00 00 00 00 00 00 00 ................
0040EC60 00 00 00 00 00 00 00 00 00 00 00 00 00 00 00 00 ................
0040EC70 00 00 00 00 00 00 00 00 00 00 00 00 00 00 00 00 ................
0040EC80 00 00 00 00 00 00 00 00 00 00 00 00 00 00 00 00 ................
0040EC90 00 00 00 00 00 00 00 00 00 00 00 00 00 00 00 00 ................
0040ECA0 00 00 00 00 00 00 00 00 00 00 00 00 00 00 00 00 ................
0040ECB0 00 00 00 00 00 00 00 00 00 00 00 00 00 00 00 00 ................
0040ECC0 00 00 00 00 00 00 00 00 00 00 00 00 00 00 00 00 ................
0040ECD0 00 00 00 00 00 00 00 00 00 00 00 00 00 00 00 00 ................
0040ECE0 00 00 00 00 00 00 00 00 00 00 00 00 00 00 00 00 ................
0040ECF0 00 00 00 00 00 00 00 00 00 00 00 00 00 00 00 00 ................
0040ED00 00 00 00 00 00 00 00 00 00 00 00 00 00 00 00 00 ................
0040ED10 00 00 00 00 00 00 00 00 00 00 00 00 00 00 00 00 ................
0040ED20 00 00 00 00 00 00 00 00 00 00 00 00 00 00 00 00 ................
0040ED30 00 00 00 00 00 00 00 00 00 00 00 00 00 00 00 00 ................
0040ED40 00 00 00 00 00 00 00 00 00 00 00 00 00 00 00 00 ................
0040ED50 00 00 00 00 00 00 00 00 00 00 00 00 00 00 00 00 ................
0040ED60 00 00 00 00 00 00 00 00 00 00 00 00 00 00 00 00 ................
0040ED70 00 00 00 00 00 00 00 00 00 00 00 00 00 00 00 00 ................
0040ED80 00 00 00 00 00 00 00 00 00 00 00 00 00 00 00 00 ................
0040ED90 00 00 00 00 00 00 00 00 00 00 00 00 00 00 00 00 ................
0040EDA0 00 00 00 00 00 00 00 00 00 00 00 00 00 00 00 00 ................
0040EDB0 00 00 00 00 00 00 00 00 00 00 00 00 00 00 00 00 ................
0040EDC0 00 00 00 00 00 00 00 00 00 00 00 00 00 00 00 00 ................
0040EDD0 00 00 00 00 00 00 00 00 00 00 00 00 00 00 00 00 ................
0040EDE0 00 00 00 00 00 00 00 00 00 00 00 00 00 00 00 00 ................
0040EDF0 00 00 00 00 00 00 00 00 00 00 00 00 00 00 00 00 ................
0040EE00 00 00 00 00 00 00 00 00 00 00 00 00 00 00 00 00 ................
0040EE10 00 00 00 00 00 00 00 00 00 00 00 00 00 00 00 00 ................
0040EE20 00 00 00 00 00 00 00 00 00 00 00 00 00 00 00 00 ................
0040EE30 00 00 00 00 00 00 00 00 00 00 00 00 00 00 00 00 ................
0040EE40 00 00 00 00 00 00 00 00 00 00 00 00 00 00 00 00 ................
0040EE50 00 00 00 00 00 00 00 00 00 00 00 00 00 00 00 00 ................
0040EE60 00 00 00 00 00 00 00 00 00 00 00 00 00 00 00 00 ................
0040EE70 00 00 00 00 00 00 00 00 00 00 00 00 00 00 00 00 ................
0040EE80 00 00 00 00 00 00 00 00 00 00 00 00 00 00 00 00 ................
0040EE90 00 00 00 00 00 00 00 00 00 00 00 00 00 00 00 00 ................
0040EEA0 00 00 00 00 00 00 00 00 00 00 00 00 00 00 00 00 ................
0040EEB0 00 00 00 00 00 00 00 00 00 00 00 00 00 00 00 00 ................
0040EEC0 00 00 00 00 00 00 00 00 00 00 00 00 00 00 00 00 ................
0040EED0 00 00 00 00 00 00 00 00 00 00 00 00 00 00 00 00 ................
0040EEE0 00 00 00 00 00 00 00 00 00 00 00 00 00 00 00 00 ................
0040EEF0 00 00 00 00 00 00 00 00 00 00 00 00 00 00 00 00 ................
0040EF00 00 00 00 00 00 00 00 00 00 00 00 00 00 00 00 00 ................
0040EF10 00 00 00 00 00 00 00 00 00 00 00 00 00 00 00 00 ................
0040EF20 00 00 00 00 00 00 00 00 00 00 00 00 00 00 00 00 ................
0040EF30 00 00 00 00 00 00 00 00 00 00 00 00 00 00 00 00 ................
0040EF40 00 00 00 00 00 00 00 00 00 00 00 00 00 00 00 00 ................
0040EF50 00 00 00 00 00 00 00 00 00 00 00 00 00 00 00 00 ................
0040EF60 00 00 00 00 00 00 00 00 00 00 00 00 00 00 00 00 ................
0040EF70 00 00 00 00 00 00 00 00 00 00 00 00 00 00 00 00 ................
0040EF80 00 00 00 00 00 00 00 00 00 00 00 00 00 00 00 00 ................
0040EF90 00 00 00 00 00 00 00 00 00 00 00 00 00 00 00 00 ................
0040EFA0 00 00 00 00 00 00 00 00 00 00 00 00 00 00 00 00 ................
0040EFB0 00 00 00 00 00 00 00 00 00 00 00 00 00 00 00 00 ................
0040EFC0 00 00 00 00 00 00 00 00 00 00 00 00 00 00 00 00 ................
0040EFD0 00 00 00 00 00 00 00 00 00 00 00 00 00 00 00 00 ................
0040EFE0 00 00 00 00 00 00 00 00 00 00 00 00 00 00 00 00 ................
0040EFF0 00 00 00 00 00 00 00 00 00 00 00 00 00 00 00 00 ................
0040F000 70 F2 00 00 80 F2 00 00 92 F2 00 00 A6 F2 00 00 p...............
0040F010 B8 F2 00 00 CA F2 00 00 D6 F2 00 00 F2 F2 00 00 ................
0040F020 06 F3 00 00 10 F3 00 00 28 F3 00 00 34 F3 00 00 ........(...4...
0040F030 46 F3 00 00 56 F3 00 00 6E F3 00 00 80 F3 00 00 F...V...n.......
0040F040 96 F3 00 00 B2 F3 00 00 CA F3 00 00 E0 F3 00 00 ................
0040F050 F2 F3 00 00 02 F4 00 00 18 F4 00 00 24 F4 00 00 ............$...
0040F060 30 F4 00 00 3C F4 00 00 52 F4 00 00 62 F4 00 00 0...<...R...b...
0040F070 7A F4 00 00 8E F4 00 00 A0 F4 00 00 B6 F4 00 00 z...............
0040F080 C4 F4 00 00 D2 F4 00 00 EC F4 00 00 00 00 00 00 ................
0040F090 0A F5 00 00 1A F5 00 00 2A F5 00 00 38 F5 00 00 ........*...8...
0040F0A0 4C F5 00 00 5E F5 00 00 6C F5 00 00 80 F5 00 00 L...^...l.......
0040F0B0 92 F5 00 00 A2 F5 00 00 AC F5 00 00 B8 F5 00 00 ................
0040F0C0 C6 F5 00 00 D2 F5 00 00 DE F5 00 00 EA F5 00 00 ................
0040F0D0 FC F5 00 00 0E F6 00 00 22 F6 00 00 34 F6 00 00 ........"...4...
0040F0E0 44 F6 00 00 50 F6 00 00 5E F6 00 00 6C F6 00 00 D...P...^...l...
0040F0F0 7E F6 00 00 88 F6 00 00 98 F6 00 00 AA F6 00 00 ~...............
0040F100 B6 F6 00 00 C2 F6 00 00 D4 F6 00 00 E6 F6 00 00 ................
0040F110 F8 F6 00 00 00 00 00 00 00 00 00 00 58 F1 00 00 ............X...
0040F120 00 00 00 00 00 00 00 00 FC F4 00 00 00 F0 00 00 ................
0040F130 E8 F1 00 00 00 00 00 00 00 00 00 00 0C F7 00 00 ................
0040F140 90 F0 00 00 00 00 00 00 00 00 00 00 00 00 00 00 ................
0040F150 00 00 00 00 00 00 00 00 70 F2 00 00 80 F2 00 00 ........p.......
0040F160 92 F2 00 00 A6 F2 00 00 B8 F2 00 00 CA F2 00 00 ................
0040F170 D6 F2 00 00 F2 F2 00 00 06 F3 00 00 10 F3 00 00 ................
0040F180 28 F3 00 00 34 F3 00 00 46 F3 00 00 56 F3 00 00 (...4...F...V...
0040F190 6E F3 00 00 80 F3 00 00 96 F3 00 00 B2 F3 00 00 n...............
0040F1A0 CA F3 00 00 E0 F3 00 00 F2 F3 00 00 02 F4 00 00 ................
0040F1B0 18 F4 00 00 24 F4 00 00 30 F4 00 00 3C F4 00 00 ....$...0...<...
0040F1C0 52 F4 00 00 62 F4 00 00 7A F4 00 00 8E F4 00 00 R...b...z.......
0040F1D0 A0 F4 00 00 B6 F4 00 00 C4 F4 00 00 D2 F4 00 00 ................
0040F1E0 EC F4 00 00 00 00 00 00 0A F5 00 00 1A F5 00 00 ................
0040F1F0 2A F5 00 00 38 F5 00 00 4C F5 00 00 5E F5 00 00 *...8...L...^...
0040F200 6C F5 00 00 80 F5 00 00 92 F5 00 00 A2 F5 00 00 l...............
0040F210 AC F5 00 00 B8 F5 00 00 C6 F5 00 00 D2 F5 00 00 ................
0040F220 DE F5 00 00 EA F5 00 00 FC F5 00 00 0E F6 00 00 ................
0040F230 22 F6 00 00 34 F6 00 00 44 F6 00 00 50 F6 00 00 "...4...D...P...
0040F240 5E F6 00 00 6C F6 00 00 7E F6 00 00 88 F6 00 00 ^...l...~.......
0040F250 98 F6 00 00 AA F6 00 00 B6 F6 00 00 C2 F6 00 00 ................
0040F260 D4 F6 00 00 E6 F6 00 00 F8 F6 00 00 00 00 00 00 ................
0040F270 1B 00 47 65 74 56 65 72 73 69 6F 6E 45 78 41 00 ..GetVersionExA.
0040F280 1E 00 47 65 74 50 72 6F 63 65 73 73 48 65 61 70 ..GetProcessHeap
0040F290 00 00 21 00 54 65 72 6D 69 6E 61 74 65 50 72 6F ..!.TerminatePro
0040F2A0 63 65 73 73 00 00 26 00 47 65 74 50 72 6F 63 41 cess..&.GetProcA
0040F2B0 64 64 72 65 73 73 00 00 29 00 47 65 74 43 6F 6D ddress..).GetCom
0040F2C0 6D 61 6E 64 4C 69 6E 65 57 00 2E 00 57 72 69 74 mandLineW...Writ
0040F2D0 65 46 69 6C 65 00 31 00 55 6E 68 61 6E 64 6C 65 eFile.1.Unhandle
0040F2E0 64 45 78 63 65 70 74 69 6F 6E 46 69 6C 74 65 72 dExceptionFilter
0040F2F0 00 00 35 00 47 65 74 4D 6F 64 75 6C 65 48 61 6E ..5.GetModuleHan
0040F300 64 6C 65 41 00 00 3A 00 47 65 74 41 43 50 00 00 dleA..:.GetACP..
0040F310 3C 00 49 6E 74 65 72 6C 6F 63 6B 65 64 49 6E 63 <.InterlockedInc
0040F320 72 65 6D 65 6E 74 00 00 42 00 6C 73 74 72 63 6D rement..B.lstrcm
0040F330 70 69 57 00 47 00 47 65 74 53 74 61 72 74 75 70 piW.G.GetStartup
0040F340 49 6E 66 6F 57 00 4B 00 56 69 72 74 75 61 6C 41 InfoW.K.VirtualA
0040F350 6C 6C 6F 63 00 00 4E 00 4C 65 61 76 65 43 72 69 lloc..N.LeaveCri
0040F360 74 69 63 61 6C 53 65 63 74 69 6F 6E 00 00 50 00 ticalSection..P.
0040F370 47 65 74 43 6F 6D 6D 61 6E 64 4C 69 6E 65 57 00 GetCommandLineW.
0040F380 55 00 47 65 74 43 75 72 72 65 6E 74 50 72 6F 63 U.GetCurrentProc
0040F390 65 73 73 49 64 00 58 00 49 6E 69 74 69 61 6C 69 essId.X.Initiali
0040F3A0 7A 65 43 72 69 74 69 63 61 6C 53 65 63 74 69 6F zeCriticalSectio
0040F3B0 6E 00 5E 00 45 6E 74 65 72 43 72 69 74 69 63 61 n.^.EnterCritica
0040F3C0 6C 53 65 63 74 69 6F 6E 00 00 64 00 57 61 69 74 lSection..d.Wait
0040F3D0 46 6F 72 53 69 6E 67 6C 65 4F 62 6A 65 63 74 00 ForSingleObject.
0040F3E0 68 00 47 65 74 50 72 6F 63 65 73 73 48 65 61 70 h.GetProcessHeap
0040F3F0 00 00 6A 00 4C 6F 61 64 4C 69 62 72 61 72 79 57 ..j.LoadLibraryW
0040F400 00 00 6E 00 57 61 69 74 46 6F 72 53 69 6E 67 6C ..n.WaitForSingl
0040F410 65 4F 62 6A 65 63 74 00 70 00 53 65 74 45 76 65 eObject.p.SetEve
0040F420 6E 74 00 00 73 00 48 65 61 70 41 6C 6C 6F 63 00 nt..s.HeapAlloc.
0040F430 74 00 6C 73 74 72 63 6D 70 69 57 00 78 00 47 65 t.lstrcmpiW.x.Ge
0040F440 74 43 75 72 72 65 6E 74 54 68 72 65 61 64 49 64 tCurrentThreadId
0040F450 00 00 79 00 47 65 74 4C 61 73 74 45 72 72 6F 72 ..y.GetLastError
0040F460 00 00 7D 00 4C 65 61 76 65 43 72 69 74 69 63 61 ..}.LeaveCritica
0040F470 6C 53 65 63 74 69 6F 6E 00 00 7E 00 47 65 74 4D lSection..~.GetM
0040F480 6F 64 75 6C 65 48 61 6E 64 6C 65 41 00 00 84 00 oduleHandleA....
0040F490 47 65 74 53 74 61 72 74 75 70 49 6E 66 6F 41 00 GetStartupInfoA.
0040F4A0 88 00 47 65 74 43 75 72 72 65 6E 74 50 72 6F 63 ..GetCurrentProc
0040F4B0 65 73 73 49 64 00 8D 00 56 69 72 74 75 61 6C 46 essId...VirtualF
0040F4C0 72 65 65 00 91 00 48 65 61 70 52 65 41 6C 6C 6F ree...HeapReAllo
0040F4D0 63 00 97 00 51 75 65 72 79 50 65 72 66 6F 72 6D c...QueryPerform
0040F4E0 61 6E 63 65 43 6F 75 6E 74 65 72 00 9B 00 53 65 anceCounter...Se
0040F4F0 74 4C 61 73 74 45 72 72 6F 72 00 00 4B 45 52 4E tLastError..KERN
0040F500 45 4C 33 32 2E 44 4C 4C 00 00 1B 00 47 65 74 57 EL32.DLL....GetW
0040F510 69 6E 64 6F 77 52 65 63 74 00 1F 00 44 65 73 74 indowRect...Dest
0040F520 72 6F 79 57 69 6E 64 6F 77 00 21 00 44 65 73 74 royWindow.!.Dest
0040F530 72 6F 79 4D 65 6E 75 00 25 00 44 69 73 70 61 74 royMenu.%.Dispat
0040F540 63 68 4D 65 73 73 61 67 65 41 00 00 27 00 49 6E chMessageA..'.In
0040F550 76 61 6C 69 64 61 74 65 52 65 63 74 00 00 2C 00 validateRect..,.
0040F560 4F 66 66 73 65 74 52 65 63 74 00 00 2D 00 44 69 OffsetRect..-.Di
0040F570 73 70 61 74 63 68 4D 65 73 73 61 67 65 41 00 00 spatchMessageA..
0040F580 2E 00 49 6E 76 61 6C 69 64 61 74 65 52 65 63 74 ..InvalidateRect
0040F590 00 00 33 00 53 65 6E 64 4D 65 73 73 61 67 65 41 ..3.SendMessageA
0040F5A0 00 00 35 00 47 65 74 4D 65 6E 75 00 3B 00 53 65 ..5.GetMenu.;.Se
0040F5B0 74 46 6F 63 75 73 00 00 40 00 4D 65 73 73 61 67 tFocus..@.Messag
0040F5C0 65 42 6F 78 41 00 45 00 49 73 49 63 6F 6E 69 63 eBoxA.E.IsIconic
0040F5D0 00 00 46 00 53 65 74 43 75 72 73 6F 72 00 49 00 ..F.SetCursor.I.
0040F5E0 77 73 70 72 69 6E 74 66 57 00 4C 00 47 65 74 57 wsprintfW.L.GetW
0040F5F0 69 6E 64 6F 77 4C 6F 6E 67 57 00 00 4F 00 52 65 indowLongW..O.Re
0040F600 67 69 73 74 65 72 43 6C 61 73 73 57 00 00 51 00 gisterClassW..Q.
0040F610 54 72 61 6E 73 6C 61 74 65 4D 65 73 73 61 67 65 TranslateMessage
0040F620 00 00 52 00 43 61 6C 6C 57 69 6E 64 6F 77 50 72 ..R.CallWindowPr
0040F630 6F 63 57 00 58 00 50 6F 73 74 4D 65 73 73 61 67 ocW.X.PostMessag
0040F640 65 57 00 00 5C 00 4C 6F 61 64 49 63 6F 6E 57 00 eW..\.LoadIconW.
0040F650 5D 00 47 65 74 53 79 73 43 6F 6C 6F 72 00 63 00 ].GetSysColor.c.
0040F660 53 65 74 43 61 70 74 75 72 65 00 00 65 00 49 73 SetCapture..e.Is
0040F670 57 69 6E 64 6F 77 56 69 73 69 62 6C 65 00 68 00 WindowVisible.h.
0040F680 47 65 74 4D 65 6E 75 00 69 00 45 6E 61 62 6C 65 GetMenu.i.Enable
0040F690 57 69 6E 64 6F 77 00 00 6E 00 45 6E 61 62 6C 65 Window..n.Enable
0040F6A0 4D 65 6E 75 49 74 65 6D 00 00 73 00 52 65 6C 65 MenuItem..s.Rele
0040F6B0 61 73 65 44 43 00 74 00 43 68 61 72 4E 65 78 74 aseDC.t.CharNext
0040F6C0 57 00 7A 00 50 6F 73 74 51 75 69 74 4D 65 73 73 W.z.PostQuitMess
0040F6D0 61 67 65 00 80 00 49 6E 76 61 6C 69 64 61 74 65 age...Invalidate
0040F6E0 52 65 63 74 00 00 85 00 53 63 72 65 65 6E 54 6F Rect....ScreenTo
0040F6F0 43 6C 69 65 6E 74 00 00 8A 00 4C 6F 61 64 41 63 Client....LoadAc
0040F700 63 65 6C 65 72 61 74 6F 72 73 57 00 55 53 45 52 celeratorsW.USER
0040F710 33 32 2E 44 4C 4C 00 00 00 00 00 00 00 00 00 00 32.DLL..........
0040F720 00 00 00 00 00 00 00 00 00 00 00 00 00 00 00 00 ................
0040F730 00 00 00 00 00 00 00 00 00 00 00 00 00 00 00 00 ................
0040F740 00 00 00 00 00 00 00 00 00 00 00 00 00 00 00 00 ................
0040F750 00 00 00 00 00 00 00 00 00 00 00 00 00 00 00 00 ................
0040F760 00 00 00 00 00 00 00 00 00 00 00 00 00 00 00 00 ................
0040F770 00 00 00 00 00 00 00 00 00 00 00 00 00 00 00 00 ................
0040F780 00 00 00 00 00 00 00 00 00 00 00 00 00 00 00 00 ................
0040F790 00 00 00 00 00 00 00 00 00 00 00 00 00 00 00 00 ................
0040F7A0 00 00 00 00 00 00 00 00 00 00 00 00 00 00 00 00 ................
0040F7B0 00 00 00 00 00 00 00 00 00 00 00 00 00 00 00 00 ................
0040F7C0 00 00 00 00 00 00 00 00 00 00 00 00 00 00 00 00 ................
0040F7D0 00 00 00 00 00 00 00 00 00 00 00 00 00 00 00 00 ................
0040F7E0 00 00 00 00 00 00 00 00 00 00 00 00 00 00 00 00 ................
0040F7F0 00 00 00 00 00 00 00 00 00 00 00 00 00 00 00 00 ................
0040F800 00 00 00 00 00 00 00 00 00 00 00 00 00 00 00 00 ................
0040F810 00 00 00 00 00 00 00 00 00 00 00 00 00 00 00 00 ................
0040F820 00 00 00 00 00 00 00 00 00 00 00 00 00 00 00 00 ................
0040F830 00 00 00 00 00 00 00 00 00 00 00 00 00 00 00 00 ................
0040F840 00 00 00 00 00 00 00 00 00 00 00 00 00 00 00 00 ................
0040F850 00 00 00 00 00 00 00 00 00 00 00 00 00 00 00 00 ................
0040F860 00 00 00 00 00 00 00 00 00 00 00 00 00 00 00 00 ................
0040F870 00 00 00 00 00 00 00 00 00 00 00 00 00 00 00 00 ................
0040F880 00 00 00 00 00 00 00 00 00 00 00 00 00 00 00 00 ................
0040F890 00 00 00 00 00 00 00 00 00 00 00 00 00 00 00 00 ................
0040F8A0 00 00 00 00 00 00 00 00 00 00 00 00 00 00 00 00 ................
0040F8B0 00 00 00 00 00 00 00 00 00 00 00 00 00 00 00 00 ................
0040F8C0 00 00 00 00 00 00 00 00 00 00 00 00 00 00 00 00 ................
0040F8D0 00 00 00 00 00 00 00 00 00 00 00 00 00 00 00 00 ................
0040F8E0 00 00 00 00 00 00 00 00 00 00 00 00 00 00 00 00 ................
0040F8F0 00 00 00 00 00 00 00 00 00 00 00 00 00 00 00 00 ................
0040F900 00 00 00 00 00 00 00 00 00 00 00 00 00 00 00 00 ................
0040F910 00 00 00 00 00 00 00 00 00 00 00 00 00 00 00 00 ................
0040F920 00 00 00 00 00 00 00 00 00 00 00 00 00 00 00 00 ................
0040F930 00 00 00 00 00 00 00 00 00 00 00 00 00 00 00 00 ................
0040F940 00 00 00 00 00 00 00 00 00 00 00 00 00 00 00 00 ................
0040F950 00 00 00 00 00 00 00 00 00 00 00 00 00 00 00 00 ................
0040F960 00 00 00 00 00 00 00 00 00 00 00 00 00 00 00 00 ................
0040F970 00 00 00 00 00 00 00 00 00 00 00 00 00 00 00 00 ................
0040F980 00 00 00 00 00 00 00 00 00 00 00 00 00 00 00 00 ................
0040F990 00 00 00 00 00 00 00 00 00 00 00 00 00 00 00 00 ................
0040F9A0 00 00 00 00 00 00 00 00 00 00 00 00 00 00 00 00 ................
0040F9B0 00 00 00 00 00 00 00 00 00 00 00 00 00 00 00 00 ................
0040F9C0 00 00 00 00 00 00 00 00 00 00 00 00 00 00 00 00 ................
0040F9D0 00 00 00 00 00 00 00 00 00 00 00 00 00 00 00 00 ................
0040F9E0 00 00 00 00 00 00 00 00 00 00 00 00 00 00 00 00 ................
0040F9F0 00 00 00 00 00 00 00 00 00 00 00 00 00 00 00 00 ................
0040FA00 00 00 00 00 00 00 00 00 00 00 00 00 00 00 00 00 ................
0040FA10 00 00 00 00 00 00 00 00 00 00 00 00 00 00 00 00 ................
0040FA20 00 00 00 00 00 00 00 00 00 00 00 00 00 00 00 00 ................
0040FA30 00 00 00 00 00 00 00 00 00 00 00 00 00 00 00 00 ................
0040FA40 00 00 00 00 00 00 00 00 00 00 00 00 00 00 00 00 ................
0040FA50 00 00 00 00 00 00 00 00 00 00 00 00 00 00 00 00 ................
0040FA60 00 00 00 00 00 00 00 00 00 00 00 00 00 00 00 00 ................
0040FA70 00 00 00 00 00 00 00 00 00 00 00 00 00 00 00 00 ................
0040FA80 00 00 00 00 00 00 00 00 00 00 00 00 00 00 00 00 ................
0040FA90 00 00 00 00 00 00 00 00 00 00 00 00 00 00 00 00 ................
0040FAA0 00 00 00 00 00 00 00 00 00 00 00 00 00 00 00 00 ................
0040FAB0 00 00 00 00 00 00 00 00 00 00 00 00 00 00 00 00 ................
0040FAC0 00 00 00 00 00 00 00 00 00 00 00 00 00 00 00 00 ................
0040FAD0 00 00 00 00 00 00 00 00 00 00 00 00 00 00 00 00 ................
0040FAE0 00 00 00 00 00 00 00 00 00 00 00 00 00 00 00 00 ................
0040FAF0 00 00 00 00 00 00 00 00 00 00 00 00 00 00 00 00 ................
0040FB00 00 00 00 00 00 00 00 00 00 00 00 00 00 00 00 00 ................
0040FB10 00 00 00 00 00 00 00 00 00 00 00 00 00 00 00 00 ................
0040FB20 00 00 00 00 00 00 00 00 00 00 00 00 00 00 00 00 ................
0040FB30 00 00 00 00 00 00 00 00 00 00 00 00 00 00 00 00 ................
0040FB40 00 00 00 00 00 00 00 00 00 00 00 00 00 00 00 00 ................
0040FB50 00 00 00 00 00 00 00 00 00 00 00 00 00 00 00 00 ................
0040FB60 00 00 00 00 00 00 00 00 00 00 00 00 00 00 00 00 ................
0040FB70 00 00 00 00 00 00 00 00 00 00 00 00 00 00 00 00 ................
0040FB80 00 00 00 00 00 00 00 00 00 00 00 00 00 00 00 00 ................
0040FB90 00 00 00 00 00 00 00 00 00 00 00 00 00 00 00 00 ................
0040FBA0 00 00 00 00 00 00 00 00 00 00 00 00 00 00 00 00 ................
0040FBB0 00 00 00 00 00 00 00 00 00 00 00 00 00 00 00 00 ................
0040FBC0 00 00 00 00 00 00 00 00 00 00 00 00 00 00 00 00 ................
0040FBD0 00 00 00 00 00 00 00 00 00 00 00 00 00 00 00 00 ................
0040FBE0 00 00 00 00 00 00 00 00 00 00 00 00 00 00 00 00 ................
0040FBF0 00 00 00 00 00 00 00 00 00 00 00 00 00 00 00 00 ................
0040FC00 00 00 00 00 00 00 00 00 00 00 00 00 00 00 00 00 ................
0040FC10 00 00 00 00 00 00 00 00 00 00 00 00 00 00 00 00 ................
0040FC20 00 00 00 00 00 00 00 00 00 00 00 00 00 00 00 00 ................
0040FC30 00 00 00 00 00 00 00 00 00 00 00 00 00 00 00 00 ................
0040FC40 00 00 00 00 00 00 00 00 00 00 00 00 00 00 00 00 ................
0040FC50 00 00 00 00 00 00 00 00 00 00 00 00 00 00 00 00 ................
0040FC60 00 00 00 00 00 00 00 00 00 00 00 00 00 00 00 00 ................
0040FC70 00 00 00 00 00 00 00 00 00 00 00 00 00 00 00 00 ................
0040FC80 00 00 00 00 00 00 00 00 00 00 00 00 00 00 00 00 ................
0040FC90 00 00 00 00 00 00 00 00 00 00 00 00 00 00 00 00 ................
0040FCA0 00 00 00 00 00 00 00 00 00 00 00 00 00 00 00 00 ................
0040FCB0 00 00 00 00 00 00 00 00 00 00 00 00 00 00 00 00 ................
0040FCC0 00 00 00 00 00 00 00 00 00 00 00 00 00 00 00 00 ................
0040FCD0 00 00 00 00 00 00 00 00 00 00 00 00 00 00 00 00 ................
0040FCE0 00 00 00 00 00 00 00 00 00 00 00 00 00 00 00 00 ................
0040FCF0 00 00 00 00 00 00 00 00 00 00 00 00 00 00 00 00 ................
0040FD00 00 00 00 00 00 00 00 00 00 00 00 00 00 00 00 00 ................
0040FD10 00 00 00 00 00 00 00 00 00 00 00 00 00 00 00 00 ................
0040FD20 00 00 00 00 00 00 00 00 00 00 00 00 00 00 00 00 ................
0040FD30 00 00 00 00 00 00 00 00 00 00 00 00 00 00 00 00 ................
0040FD40 00 00 00 00 00 00 00 00 00 00 00 00 00 00 00 00 ................
0040FD50 00 00 00 00 00 00 00 00 00 00 00 00 00 00 00 00 ................
0040FD60 00 00 00 00 00 00 00 00 00 00 00 00 00 00 00 00 ................
0040FD70 00 00 00 00 00 00 00 00 00 00 00 00 00 00 00 00 ................
0040FD80 00 00 00 00 00 00 00 00 00 00 00 00 00 00 00 00 ................
0040FD90 00 00 00 00 00 00 00 00 00 00 00 00 00 00 00 00 ................
0040FDA0 00 00 00 00 00 00 00 00 00 00 00 00 00 00 00 00 ................
0040FDB0 00 00 00 00 00 00 00 00 00 00 00 00 00 00 00 00 ................
0040FDC0 00 00 00 00 00 00 00 00 00 00 00 00 00 00 00 00 ................
0040FDD0 00 00 00 00 00 00 00 00 00 00 00 00 00 00 00 00 ................
0040FDE0 00 00 00 00 00 00 00 00 00 00 00 00 00 00 00 00 ................
0040FDF0 00 00 00 00 00 00 00 00 00 00 00 00 00 00 00 00 ................
0040FE00 00 00 00 00 00 00 00 00 00 00 00 00 00 00 00 00 ................
0040FE10 00 00 00 00 00 00 00 00 00 00 00 00 00 00 00 00 ................
0040FE20 00 00 00 00 00 00 00 00 00 00 00 00 00 00 00 00 ................
0040FE30 00 00 00 00 00 00 00 00 00 00 00 00 00 00 00 00 ................
0040FE40 00 00 00 00 00 00 00 00 00 00 00 00 00 00 00 00 ................
0040FE50 00 00 00 00 00 00 00 00 00 00 00 00 00 00 00 00 ................
0040FE60 00 00 00 00 00 00 00 00 00 00 00 00 00 00 00 00 ................
0040FE70 00 00 00 00 00 00 00 00 00 00 00 00 00 00 00 00 ................
0040FE80 00 00 00 00 00 00 00 00 00 00 00 00 00 00 00 00 ................
0040FE90 00 00 00 00 00 00 00 00 00 00 00 00 00 00 00 00 ................
0040FEA0 00 00 00 00 00 00 00 00 00 00 00 00 00 00 00 00 ................
0040FEB0 00 00 00 00 00 00 00 00 00 00 00 00 00 00 00 00 ................
0040FEC0 00 00 00 00 00 00 00 00 00 00 00 00 00 00 00 00 ................
0040FED0 00 00 00 00 00 00 00 00 00 00 00 00 00 00 00 00 ................
0040FEE0 00 00 00 00 00 00 00 00 00 00 00 00 00 00 00 00 ................
0040FEF0 00 00 00 00 00 00 00 00 00 00 00 00 00 00 00 00 ................
0040FF00 00 00 00 00 00 00 00 00 00 00 00 00 00 00 00 00 ................
0040FF10 00 00 00 00 00 00 00 00 00 00 00 00 00 00 00 00 ................
0040FF20 00 00 00 00 00 00 00 00 00 00 00 00 00 00 00 00 ................
0040FF30 00 00 00 00 00 00 00 00 00 00 00 00 00 00 00 00 ................
0040FF40 00 00 00 00 00 00 00 00 00 00 00 00 00 00 00 00 ................
0040FF50 00 00 00 00 00 00 00 00 00 00 00 00 00 00 00 00 ................
0040FF60 00 00 00 00 00 00 00 00 00 00 00 00 00 00 00 00 ................
0040FF70 00 00 00 00 00 00 00 00 00 00 00 00 00 00 00 00 ................
0040FF80 00 00 00 00 00 00 00 00 00 00 00 00 00 00 00 00 ................
0040FF90 00 00 00 00 00 00 00 00 00 00 00 00 00 00 00 00 ................
0040FFA0 00 00 00 00 00 00 00 00 00 00 00 00 00 00 00 00 ................
0040FFB0 00 00 00 00 00 00 00 00 00 00 00 00 00 00 00 00 ................
0040FFC0 00 00 00 00 00 00 00 00 00 00 00 00 00 00 00 00 ................
0040FFD0 00 00 00 00 00 00 00 00 00 00 00 00 00 00 00 00 ................
0040FFE0 00 00 00 00 00 00 00 00 00 00 00 00 00 00 00 00 ................
0040FFF0 00 00 00 00 00 00 00 00 00 00 00 00 00 00 00 00 ................
00410000 00 00 00 00 00 00 00 00 00 00 00 00 00 00 03 00 ................
00410010 03 00 00 00 28 00 00 80 0E 00 00 00 40 00 00 80 ....(.......@...
00410020 10 00 00 00 58 00 00 80 00 00 00 00 00 00 00 00 ....X...........
00410030 00 00 00 00 00 00 01 00 01 00 00 00 70 00 00 80 ............p...
00410040 00 00 00 00 00 00 00 00 00 00 00 00 00 00 01 00 ................
00410050 7A FD 00 00 88 00 00 80 00 00 00 00 00 00 00 00 z...............
00410060 00 00 00 00 00 00 01 00 85 04 00 00 A0 00 00 80 ................
00410070 00 00 00 00 00 00 00 00 00 00 00 00 00 00 01 00 ................
00410080 19 04 00 00 B8 00 00 00 00 00 00 00 00 00 00 00 ................
00410090 00 00 00 00 00 00 01 00 19 04 00 00 C8 00 00 00 ................
004100A0 00 00 00 00 00 00 00 00 00 00 00 00 00 00 01 00 ................
004100B0 19 04 00 00 D8 00 00 00 E8 00 01 00 A8 08 00 00 ................
004100C0 00 00 00 00 00 00 00 00 90 09 01 00 14 00 00 00 ................
004100D0 00 00 00 00 00 00 00 00 A4 09 01 00 08 03 00 00 ................
004100E0 00 00 00 00 00 00 00 00 28 00 00 00 20 00 00 00 ........(... ...
004100F0 40 00 00 00 01 00 08 00 00 00 00 00 00 04 00 00 @...............
00410100 00 00 00 00 00 00 00 00 00 00 00 00 00 00 00 00 ................
00410110 00 00 00 00 00 00 80 00 00 80 00 00 00 80 80 00 ................
00410120 80 00 00 00 80 00 80 00 80 80 00 00 C0 C0 C0 00 ................
00410130 C0 DC C0 00 F0 CA A6 00 00 20 40 00 00 20 60 00 ......... @.. `.
00410140 00 20 80 00 00 20 A0 00 00 20 C0 00 00 20 E0 00 . ... ... ... ..
00410150 00 40 00 00 00 40 20 00 00 40 40 00 00 40 60 00 .@...@ ..@@..@`.
00410160 00 40 80 00 00 40 A0 00 00 40 C0 00 00 40 E0 00 .@...@...@...@..
00410170 00 60 00 00 00 60 20 00 00 60 40 00 00 60 60 00 .`...` ..`@..``.
00410180 00 60 80 00 00 60 A0 00 00 60 C0 00 00 60 E0 00 .`...`...`...`..
00410190 00 80 00 00 00 80 20 00 00 80 40 00 00 80 60 00 ...... ...@...`.
004101A0 00 80 80 00 00 80 A0 00 00 80 C0 00 00 80 E0 00 ................
004101B0 00 A0 00 00 00 A0 20 00 00 A0 40 00 00 A0 60 00 ...... ...@...`.
004101C0 00 A0 80 00 00 A0 A0 00 00 A0 C0 00 00 A0 E0 00 ................
004101D0 00 C0 00 00 00 C0 20 00 00 C0 40 00 00 C0 60 00 ...... ...@...`.
004101E0 00 C0 80 00 00 C0 A0 00 00 C0 C0 00 00 C0 E0 00 ................
004101F0 00 E0 00 00 00 E0 20 00 00 E0 40 00 00 E0 60 00 ...... ...@...`.
00410200 00 E0 80 00 00 E0 A0 00 00 E0 C0 00 00 E0 E0 00 ................
00410210 40 00 00 00 40 00 20 00 40 00 40 00 40 00 60 00 @...@. .@.@.@.`.
00410220 40 00 80 00 40 00 A0 00 40 00 C0 00 40 00 E0 00 @...@...@...@...
00410230 40 20 00 00 40 20 20 00 40 20 40 00 40 20 60 00 @ ..@  .@ @.@ `.
00410240 40 20 80 00 40 20 A0 00 40 20 C0 00 40 20 E0 00 @ ..@ ..@ ..@ ..
00410250 40 40 00 00 40 40 20 00 40 40 40 00 40 40 60 00 @@..@@ .@@@.@@`.
00410260 40 40 80 00 40 40 A0 00 40 40 C0 00 40 40 E0 00 @@..@@..@@..@@..
00410270 40 60 00 00 40 60 20 00 40 60 40 00 40 60 60 00 @`..@` .@`@.@``.
00410280 40 60 80 00 40 60 A0 00 40 60 C0 00 40 60 E0 00 @`..@`..@`..@`..
00410290 40 80 00 00 40 80 20 00 40 80 40 00 40 80 60 00 @...@. .@.@.@.`.
004102A0 40 80 80 00 40 80 A0 00 40 80 C0 00 40 80 E0 00 @...@...@...@...
004102B0 40 A0 00 00 40 A0 20 00 40 A0 40 00 40 A0 60 00 @...@. .@.@.@.`.
004102C0 40 A0 80 00 40 A0 A0 00 40 A0 C0 00 40 A0 E0 00 @...@...@...@...
004102D0 40 C0 00 00 40 C0 20 00 40 C0 40 00 40 C0 60 00 @...@. .@.@.@.`.
004102E0 40 C0 80 00 40 C0 A0 00 40 C0 C0 00 40 C0 E0 00 @...@...@...@...
004102F0 40 E0 00 00 40 E0 20 00 40 E0 40 00 40 E0 60 00 @...@. .@.@.@.`.
00410300 40 E0 80 00 40 E0 A0 00 40 E0 C0 00 40 E0 E0 00 @...@...@...@...
00410310 80 00 00 00 80 00 20 00 80 00 40 00 80 00 60 00 ...... ...@...`.
00410320 80 00 80 00 80 00 A0 00 80 00 C0 00 80 00 E0 00 ................
00410330 80 20 00 00 80 20 20 00 80 20 40 00 80 20 60 00 . ...  .. @.. `.
00410340 80 20 80 00 80 20 A0 00 80 20 C0 00 80 20 E0 00 . ... ... ... ..
00410350 80 40 00 00 80 40 20 00 80 40 40 00 80 40 60 00 .@...@ ..@@..@`.
00410360 80 40 80 00 80 40 A0 00 80 40 C0 00 80 40 E0 00 .@...@...@...@..
00410370 80 60 00 00 80 60 20 00 80 60 40 00 80 60 60 00 .`...` ..`@..``.
00410380 80 60 80 00 80 60 A0 00 80 60 C0 00 80 60 E0 00 .`...`...`...`..
00410390 80 80 00 00 80 80 20 00 80 80 40 00 80 80 60 00 ...... ...@...`.
004103A0 80 80 80 00 80 80 A0 00 80 80 C0 00 80 80 E0 00 ................
004103B0 80 A0 00 00 80 A0 20 00 80 A0 40 00 80 A0 60 00 ...... ...@...`.
004103C0 80 A0 80 00 80 A0 A0 00 80 A0 C0 00 80 A0 E0 00 ................
004103D0 80 C0 00 00 80 C0 20 00 80 C0 40 00 80 C0 60 00 ...... ...@...`.
004103E0 80 C0 80 00 80 C0 A0 00 80 C0 C0 00 80 C0 E0 00 ................
004103F0 80 E0 00 00 80 E0 20 00 80 E0 40 00 80 E0 60 00 ...... ...@...`.
00410400 80 E0 80 00 80 E0 A0 00 80 E0 C0 00 80 E0 E0 00 ................
00410410 C0 00 00 00 C0 00 20 00 C0 00 40 00 C0 00 60 00 ...... ...@...`.
00410420 C0 00 80 00 C0 00 A0 00 C0 00 C0 00 C0 00 E0 00 ................
00410430 C0 20 00 00 C0 20 20 00 C0 20 40 00 C0 20 60 00 . ...  .. @.. `.
00410440 C0 20 80 00 C0 20 A0 00 C0 20 C0 00 C0 20 E0 00 . ... ... ... ..
00410450 C0 40 00 00 C0 40 20 00 C0 40 40 00 C0 40 60 00 .@...@ ..@@..@`.
00410460 C0 40 80 00 C0 40 A0 00 C0 40 C0 00 C0 40 E0 00 .@...@...@...@..
00410470 C0 60 00 00 C0 60 20 00 C0 60 40 00 C0 60 60 00 .`...` ..`@..``.
00410480 C0 60 80 00 C0 60 A0 00 C0 60 C0 00 C0 60 E0 00 .`...`...`...`..
00410490 C0 80 00 00 C0 80 20 00 C0 80 40 00 C0 80 60 00 ...... ...@...`.
004104A0 C0 80 80 00 C0 80 A0 00 C0 80 C0 00 C0 80 E0 00 ................
004104B0 C0 A0 00 00 C0 A0 20 00 C0 A0 40 00 C0 A0 60 00 ...... ...@...`.
004104C0 C0 A0 80 00 C0 A0 A0 00 C0 A0 C0 00 C0 A0 E0 00 ................
004104D0 C0 C0 00 00 C0 C0 20 00 C0 C0 40 00 C0 C0 60 00 ...... ...@...`.
004104E0 C0 C0 80 00 C0 C0 A0 00 F0 FB FF 00 A4 A0 A0 00 ................
004104F0 80 80 80 00 00 00 FF 00 00 FF 00 00 00 FF FF 00 ................
00410500 FF 00 00 00 FF 00 FF 00 FF FF 00 00 FF FF FF 00 ................
00410510 00 00 00 00 00 00 00 00 00 00 00 00 00 00 00 00 ................
00410520 00 00 00 00 00 00 00 00 00 00 00 00 00 00 00 00 ................
00410530 00 00 00 00 00 00 ED A3 9A 9A 92 92 92 92 92 92 ................
00410540 92 92 92 92 92 92 92 92 92 92 92 92 92 92 92 00 ................
00410550 00 00 00 00 00 00 ED F6 07 09 09 09 09 09 09 09 ................
00410560 09 09 EC 09 09 EC EC EC EC EB EB EB EB EB 92 00 ................
00410570 00 00 00 00 00 00 ED F6 F6 F6 F6 F6 F6 F6 F6 F6 ................
00410580 F6 F6 F6 F6 F6 F6 F6 F6 09 09 09 09 09 EB 92 00 ................
00410590 00 00 00 00 00 00 ED F6 F6 F6 F6 F6 F6 F6 F6 F6 ................
004105A0 F6 F6 F6 F6 F6 F6 F6 F6 F6 F6 09 09 09 EB 92 00 ................
004105B0 00 00 00 00 00 00 ED F6 F6 F5 F5 ED ED EC EC EC ................
004105C0 E3 E3 E3 E3 E3 E3 E3 E3 E3 E3 F6 F6 09 EB 92 00 ................
004105D0 00 00 00 00 00 00 ED FF FF F5 FF FF FF F6 EC F6 ................
004105E0 F6 EC FF E3 F6 F6 EC FF E3 F6 F6 F6 F6 EB 92 00 ................
004105F0 00 00 00 00 00 00 ED FF FF F5 FF FF FF FF ED FF ................
00410600 FF EC FF E3 F6 F6 EC FF E3 F6 F6 F6 F6 EC 92 00 ................
00410610 00 00 00 00 00 00 ED FF FF F5 F5 F5 F5 F5 F5 ED ................
00410620 FF EC FF E3 F6 F6 EC FF E3 F6 F6 F6 F6 EC 92 00 ................
00410630 00 00 00 00 00 00 ED FF FF 09 FF FF FF FF F5 FF ................
00410640 FF ED FF E3 EC EC EC FF E3 F6 F6 F6 F6 EC 92 00 ................
00410650 00 00 00 00 00 00 ED FF FF 09 FF FF FF FF F5 FF ................
00410660 FF F5 FF E3 FF FF EC FF E3 F6 F6 F6 F6 EC 92 00 ................
00410670 00 00 00 00 00 00 ED FF FF 09 09 09 09 09 F5 F5 ................
00410680 FF F5 F5 E3 FF FF EC FF E3 F6 F6 F6 F6 EC 92 00 ................
00410690 00 00 00 00 00 00 ED FF FF 09 FF FF FF FF 09 FF ................
004106A0 FF FF FF FF FF FF ED ED E3 F6 F6 F6 F6 09 92 00 ................
004106B0 00 00 00 00 00 00 ED 08 08 ED 07 07 07 ED ED 08 ................
004106C0 FF FF FF F5 FF FF FF FF FF FF F6 F6 F6 09 92 00 ................
004106D0 00 00 00 00 00 00 F7 F7 F5 07 07 08 08 F6 08 ED ................
004106E0 EC 09 F5 F5 F5 F5 F5 F5 ED FF FF F6 F6 EC 92 00 ................
004106F0 00 19 18 AC 08 08 FF FF FF F6 F6 F6 F6 F6 08 07 ................
00410700 F6 FF FF 09 FF FF FF FF F5 FF FF FF F6 09 92 00 ................
00410710 00 19 B5 08 FF FF FF FF F6 F6 B5 1A 1A F6 F6 07 ................
00410720 F6 FF FF 09 FF FF FF FF F5 FF FF FF FF 09 92 00 ................
00410730 00 19 07 AC FF 08 B4 B4 B4 AB 22 1A 6B F6 F6 ED ..........".k...
00410740 F5 09 09 09 09 09 09 F5 F5 FF FF FF FF 09 92 00 ................
00410750 00 19 08 62 FF FF 08 B4 B4 62 1A 6C AB B5 F6 07 ...b.....b.l....
00410760 08 FF FF 09 FF FF FF FF F5 FF FF FF FF 09 92 00 ................
00410770 00 19 08 19 F6 FF FF 08 6B 1A 22 08 FF F6 F6 07 ........k.".....
00410780 08 FF FF 09 FF FF FF FF 09 FF FF FF FF 09 92 00 ................
00410790 00 21 08 19 07 FF FF 08 22 22 6B B4 F5 F6 F6 07 .!......""k.....
004107A0 F5 09 09 09 09 09 09 09 09 FF FF FF FF 09 92 00 ................
004107B0 00 21 08 19 AC FF F6 22 1A B5 F6 B4 B4 B4 F6 08 .!....."........
004107C0 08 FF FF 09 FF FF FF FF 09 FF FF FF FF 09 92 00 ................
004107D0 00 21 08 AC B4 FF 63 62 6C FF FF FF FF FF FF 08 .!....cbl.......
004107E0 08 FF FF 09 FF FF FF FF 07 09 09 09 09 09 92 00 ................
004107F0 00 61 08 B4 B4 FF FF FF FF FF FF FF FF FF FF F6 .a..............
00410800 07 09 09 09 09 09 09 ED A3 A3 9B 9A 9A 9A 92 00 ................
00410810 00 61 08 B5 B4 08 08 08 08 08 08 F5 B5 08 6B FF .a............k.
00410820 FF FF FF FF FF FF FF ED 09 09 09 09 09 92 F6 00 ................
00410830 00 61 B5 F6 B5 B5 B5 B5 B5 B5 B5 B5 B5 F6 61 FF .a............a.
00410840 FF FF FF FF FF FF FF ED F6 F6 09 09 92 F6 F6 00 ................
00410850 00 61 61 08 F6 08 BD BD BD BD BD BD B5 F6 61 F6 .aa...........a.
00410860 09 09 09 FF FF FF FF F5 F6 F6 09 92 F6 F6 00 00 ................
00410870 00 00 61 61 B5 08 F6 F6 F6 F6 F6 F6 F6 F6 61 FF ..aa..........a.
00410880 FF FF FF FF FF FF FF F5 F6 F6 9A F6 F6 00 00 00 ................
00410890 00 00 00 61 61 61 61 61 61 61 61 61 61 61 61 FF ...aaaaaaaaaaaa.
004108A0 FF FF FF FF FF FF FF F5 F6 9B F6 F6 00 00 00 00 ................
004108B0 00 00 00 00 00 00 07 FF FF FF FF FF FF FF FF FF ................
004108C0 FF FF FF FF FF FF FF F5 A4 F6 F6 00 00 00 00 00 ................
004108D0 00 00 00 00 00 00 07 07 07 07 07 F5 F5 F5 F5 F5 ................
004108E0 F5 F5 F5 F5 F5 F5 F5 F5 F6 F6 00 00 00 00 00 00 ................
004108F0 00 00 00 00 00 00 00 00 00 00 00 00 00 00 00 00 ................
00410900 00 00 00 00 00 00 00 00 00 00 00 00 00 00 00 00 ................
00410910 FF FF FF FF FC 00 00 01 FC 00 00 01 FC 00 00 01 ................
00410920 FC 00 00 01 FC 00 00 01 FC 00 00 01 FC 00 00 01 ................
00410930 FC 00 00 01 FC 00 00 01 FC 00 00 01 FC 00 00 01 ................
00410940 FC 00 00 01 C0 00 00 01 C0 00 00 01 80 00 00 01 ................
00410950 80 00 00 01 80 00 00 01 80 00 00 01 80 00 00 01 ................
00410960 80 00 00 01 80 00 00 01 80 00 00 01 80 00 00 01 ................
00410970 80 00 00 01 80 00 00 01 80 00 00 03 C0 00 00 07 ................
00410980 E0 00 00 0F FC 00 00 1F FC 00 00 3F FF FF FF FF ...........?....
00410990 00 00 01 00 01 00 20 20 08 00 00 00 00 00 A8 08 ......  ........
004109A0 00 00 01 00 08 03 34 00 00 00 56 00 53 00 5F 00 ......4...V.S._.
004109B0 56 00 45 00 52 00 53 00 49 00 4F 00 4E 00 5F 00 V.E.R.S.I.O.N._.
004109C0 49 00 4E 00 46 00 4F 00 00 00 00 00 BD 04 EF FE I.N.F.O.........
004109D0 00 00 01 00 16 85 03 2A 16 85 03 2A 16 85 03 2A .......*...*...*
004109E0 16 85 03 2A 16 85 00 00 00 00 00 00 04 00 04 00 ...*............
004109F0 01 00 00 00 00 00 00 00 00 00 00 00 00 00 00 00 ................
00410A00 68 02 00 00 00 00 53 00 74 00 72 00 69 00 6E 00 h.....S.t.r.i.n.
00410A10 67 00 46 00 69 00 6C 00 65 00 49 00 6E 00 66 00 g.F.i.l.e.I.n.f.
00410A20 6F 00 00 00 44 02 00 00 00 00 30 00 38 00 30 00 o...D.....0.8.0.
00410A30 30 00 30 00 34 00 42 00 30 00 00 00 48 00 13 00 0.0.4.B.0...H...
00410A40 01 00 43 00 6F 00 6D 00 70 00 61 00 6E 00 79 00 ..C.o.m.p.a.n.y.
00410A50 4E 00 61 00 6D 00 65 00 00 00 00 00 76 00 6B 00 N.a.m.e.....v.k.
00410A60 58 00 71 00 6A 00 64 00 38 00 43 00 37 00 47 00 X.q.j.d.8.C.7.G.
00410A70 32 00 47 00 4C 00 4E 00 74 00 79 00 36 00 62 00 2.G.L.N.t.y.6.b.
00410A80 00 00 00 00 48 00 0F 00 01 00 46 00 69 00 6C 00 ....H.....F.i.l.
00410A90 65 00 44 00 65 00 73 00 63 00 72 00 69 00 70 00 e.D.e.s.c.r.i.p.
00410AA0 74 00 69 00 6F 00 6E 00 00 00 00 00 6D 00 73 00 t.i.o.n.....m.s.
00410AB0 59 00 73 00 45 00 44 00 76 00 71 00 41 00 33 00 Y.s.E.D.v.q.A.3.
00410AC0 41 00 50 00 45 00 66 00 00 00 00 00 44 00 11 00 A.P.E.f.....D...
00410AD0 01 00 46 00 69 00 6C 00 65 00 56 00 65 00 72 00 ..F.i.l.e.V.e.r.
00410AE0 73 00 69 00 6F 00 6E 00 00 00 00 00 51 00 75 00 s.i.o.n.....Q.u.
00410AF0 68 00 58 00 73 00 6A 00 78 00 54 00 58 00 6C 00 h.X.s.j.x.T.X.l.
00410B00 55 00 54 00 6A 00 36 00 62 00 41 00 00 00 00 00 U.T.j.6.b.A.....
00410B10 38 00 0C 00 01 00 49 00 6E 00 74 00 65 00 72 00 8.....I.n.t.e.r.
00410B20 6E 00 61 00 6C 00 4E 00 61 00 6D 00 65 00 00 00 n.a.l.N.a.m.e...
00410B30 35 00 79 00 6D 00 6C 00 68 00 66 00 32 00 49 00 5.y.m.l.h.f.2.I.
00410B40 79 00 74 00 6E 00 00 00 4C 00 13 00 01 00 4C 00 y.t.n...L.....L.
00410B50 65 00 67 00 61 00 6C 00 43 00 6F 00 70 00 79 00 e.g.a.l.C.o.p.y.
00410B60 72 00 69 00 67 00 68 00 74 00 00 00 69 00 45 00 r.i.g.h.t...i.E.
00410B70 70 00 4D 00 67 00 64 00 4C 00 4C 00 46 00 75 00 p.M.g.d.L.L.F.u.
00410B80 32 00 78 00 54 00 45 00 38 00 6C 00 54 00 57 00 2.x.T.E.8.l.T.W.
00410B90 00 00 00 00 48 00 0F 00 01 00 4F 00 72 00 69 00 ....H.....O.r.i.
00410BA0 67 00 69 00 6E 00 61 00 6C 00 46 00 69 00 6C 00 g.i.n.a.l.F.i.l.
00410BB0 65 00 6E 00 61 00 6D 00 65 00 00 00 47 00 68 00 e.n.a.m.e...G.h.
00410BC0 63 00 43 00 4E 00 71 00 68 00 65 00 42 00 53 00 c.C.N.q.h.e.B.S.
00410BD0 50 00 51 00 33 00 65 00 00 00 00 00 48 00 13 00 P.Q.3.e.....H...
00410BE0 01 00 50 00 72 00 6F 00 64 00 75 00 63 00 74 00 ..P.r.o.d.u.c.t.
00410BF0 4E 00 61 00 6D 00 65 00 00 00 00 00 72 00 4C 00 N.a.m.e.....r.L.
00410C00 53 00 66 00 6A 00 6D 00 4D 00 65 00 66 00 63 00 S.f.j.m.M.e.f.c.
00410C10 69 00 4F 00 49 00 54 00 43 00 4F 00 57 00 31 00 i.O.I.T.C.O.W.1.
00410C20 00 00 00 00 44 00 0F 00 01 00 50 00 72 00 6F 00 ....D.....P.r.o.
00410C30 64 00 75 00 63 00 74 00 56 00 65 00 72 00 73 00 d.u.c.t.V.e.r.s.
00410C40 69 00 6F 00 6E 00 00 00 63 00 4C 00 4E 00 34 00 i.o.n...c.L.N.4.
00410C50 72 00 68 00 4B 00 6B 00 4D 00 53 00 48 00 52 00 r.h.K.k.M.S.H.R.
00410C60 61 00 4F 00 00 00 00 00 44 00 00 00 00 00 56 00 a.O.....D.....V.
00410C70 61 00 72 00 46 00 69 00 6C 00 65 00 49 00 6E 00 a.r.F.i.l.e.I.n.
00410C80 66 00 6F 00 00 00 00 00 24 00 04 00 00 00 54 00 f.o.....$.....T.
00410C90 72 00 61 00 6E 00 73 00 6C 00 61 00 74 00 69 00 r.a.n.s.l.a.t.i.
00410CA0 6F 00 6E 00 00 00 00 00 00 08 B0 04 00 00 00 00 o.n.............
00410CB0 00 00 00 00 00 00 00 00 00 00 00 00 00 00 00 00 ................
00410CC0 00 00 00 00 00 00 00 00 00 00 00 00 00 00 00 00 ................
00410CD0 00 00 00 00 00 00 00 00 00 00 00 00 00 00 00 00 ................
00410CE0 00 00 00 00 00 00 00 00 00 00 00 00 00 00 00 00 ................
00410CF0 00 00 00 00 00 00 00 00 00 00 00 00 00 00 00 00 ................
00410D00 00 00 00 00 00 00 00 00 00 00 00 00 00 00 00 00 ................
00410D10 00 00 00 00 00 00 00 00 00 00 00 00 00 00 00 00 ................
00410D20 00 00 00 00 00 00 00 00 00 00 00 00 00 00 00 00 ................
00410D30 00 00 00 00 00 00 00 00 00 00 00 00 00 00 00 00 ................
00410D40 00 00 00 00 00 00 00 00 00 00 00 00 00 00 00 00 ................
00410D50 00 00 00 00 00 00 00 00 00 00 00 00 00 00 00 00 ................
00410D60 00 00 00 00 00 00 00 00 00 00 00 00 00 00 00 00 ................
00410D70 00 00 00 00 00 00 00 00 00 00 00 00 00 00 00 00 ................
00410D80 00 00 00 00 00 00 00 00 00 00 00 00 00 00 00 00 ................
00410D90 00 00 00 00 00 00 00 00 00 00 00 00 00 00 00 00 ................
00410DA0 00 00 00 00 00 00 00 00 00 00 00 00 00 00 00 00 ................
00410DB0 00 00 00 00 00 00 00 00 00 00 00 00 00 00 00 00 ................
00410DC0 00 00 00 00 00 00 00 00 00 00 00 00 00 00 00 00 ................
00410DD0 00 00 00 00 00 00 00 00 00 00 00 00 00 00 00 00 ................
00410DE0 00 00 00 00 00 00 00 00 00 00 00 00 00 00 00 00 ................
00410DF0 00 00 00 00 00 00 00 00 00 00 00 00 00 00 00 00 ................
00410E00 00 00 00 00 00 00 00 00 00 00 00 00 00 00 00 00 ................
00410E10 00 00 00 00 00 00 00 00 00 00 00 00 00 00 00 00 ................
00410E20 00 00 00 00 00 00 00 00 00 00 00 00 00 00 00 00 ................
00410E30 00 00 00 00 00 00 00 00 00 00 00 00 00 00 00 00 ................
00410E40 00 00 00 00 00 00 00 00 00 00 00 00 00 00 00 00 ................
00410E50 00 00 00 00 00 00 00 00 00 00 00 00 00 00 00 00 ................
00410E60 00 00 00 00 00 00 00 00 00 00 00 00 00 00 00 00 ................
00410E70 00 00 00 00 00 00 00 00 00 00 00 00 00 00 00 00 ................
00410E80 00 00 00 00 00 00 00 00 00 00 00 00 00 00 00 00 ................
00410E90 00 00 00 00 00 00 00 00 00 00 00 00 00 00 00 00 ................
00410EA0 00 00 00 00 00 00 00 00 00 00 00 00 00 00 00 00 ................
00410EB0 00 00 00 00 00 00 00 00 00 00 00 00 00 00 00 00 ................
00410EC0 00 00 00 00 00 00 00 00 00 00 00 00 00 00 00 00 ................
00410ED0 00 00 00 00 00 00 00 00 00 00 00 00 00 00 00 00 ................
00410EE0 00 00 00 00 00 00 00 00 00 00 00 00 00 00 00 00 ................
00410EF0 00 00 00 00 00 00 00 00 00 00 00 00 00 00 00 00 ................
00410F00 00 00 00 00 00 00 00 00 00 00 00 00 00 00 00 00 ................
00410F10 00 00 00 00 00 00 00 00 00 00 00 00 00 00 00 00 ................
00410F20 00 00 00 00 00 00 00 00 00 00 00 00 00 00 00 00 ................
00410F30 00 00 00 00 00 00 00 00 00 00 00 00 00 00 00 00 ................
00410F40 00 00 00 00 00 00 00 00 00 00 00 00 00 00 00 00 ................
00410F50 00 00 00 00 00 00 00 00 00 00 00 00 00 00 00 00 ................
00410F60 00 00 00 00 00 00 00 00 00 00 00 00 00 00 00 00 ................
00410F70 00 00 00 00 00 00 00 00 00 00 00 00 00 00 00 00 ................
00410F80 00 00 00 00 00 00 00 00 00 00 00 00 00 00 00 00 ................
00410F90 00 00 00 00 00 00 00 00 00 00 00 00 00 00 00 00 ................
00410FA0 00 00 00 00 00 00 00 00 00 00 00 00 00 00 00 00 ................
00410FB0 00 00 00 00 00 00 00 00 00 00 00 00 00 00 00 00 ................
00410FC0 00 00 00 00 00 00 00 00 00 00 00 00 00 00 00 00 ................
00410FD0 00 00 00 00 00 00 00 00 00 00 00 00 00 00 00 00 ................
00410FE0 00 00 00 00 00 00 00 00 00 00 00 00 00 00 00 00 ................
00410FF0 00 00 00 00 00 00 00 00 00 00 00 00 00 00 00 00 ................
00411000 
...end of image
