00400000 00 00 00 00 00 00 00 00 00 00 00 00 00 00 00 00 ................
00400010 00 00 00 00 00 00 00 00 00 00 00 00 00 00 00 00 ................
00400020 00 00 00 00 00 00 00 00 00 00 00 00 00 00 00 00 ................
00400030 00 00 00 00 00 00 00 00 00 00 00 00 00 00 00 00 ................
00400040 00 00 00 00 00 00 00 00 00 00 00 00 00 00 00 00 ................
00400050 00 00 00 00 00 00 00 00 00 00 00 00 00 00 00 00 ................
00400060 00 00 00 00 00 00 00 00 00 00 00 00 00 00 00 00 ................
00400070 00 00 00 00 00 00 00 00 00 00 00 00 00 00 00 00 ................
00400080 00 00 00 00 00 00 00 00 00 00 00 00 00 00 00 00 ................
00400090 00 00 00 00 00 00 00 00 00 00 00 00 00 00 00 00 ................
004000A0 00 00 00 00 00 00 00 00 00 00 00 00 00 00 00 00 ................
004000B0 00 00 00 00 00 00 00 00 00 00 00 00 00 00 00 00 ................
004000C0 00 00 00 00 00 00 00 00 00 00 00 00 00 00 00 00 ................
004000D0 00 00 00 00 00 00 00 00 00 00 00 00 00 00 00 00 ................
004000E0 00 00 00 00 00 00 00 00 00 00 00 00 00 00 00 00 ................
004000F0 00 00 00 00 00 00 00 00 00 00 00 00 00 00 00 00 ................
00400100 00 00 00 00 00 00 00 00 00 00 00 00 00 00 00 00 ................
00400110 00 00 00 00 00 00 00 00 00 00 00 00 00 00 00 00 ................
00400120 00 00 00 00 00 00 00 00 00 00 00 00 00 00 00 00 ................
00400130 00 00 00 00 00 00 00 00 00 00 00 00 00 00 00 00 ................
00400140 00 00 00 00 00 00 00 00 00 00 00 00 00 00 00 00 ................
00400150 00 00 00 00 00 00 00 00 00 00 00 00 00 00 00 00 ................
00400160 00 00 00 00 00 00 00 00 00 00 00 00 00 00 00 00 ................
00400170 00 00 00 00 00 00 00 00 00 00 00 00 00 00 00 00 ................
00400180 00 00 00 00 00 00 00 00 00 00 00 00 00 00 00 00 ................
00400190 00 00 00 00 00 00 00 00 00 00 00 00 00 00 00 00 ................
004001A0 00 00 00 00 00 00 00 00 00 00 00 00 00 00 00 00 ................
004001B0 00 00 00 00 00 00 00 00 00 00 00 00 00 00 00 00 ................
004001C0 00 00 00 00 00 00 00 00 00 00 00 00 00 00 00 00 ................
004001D0 00 00 00 00 00 00 00 00 00 00 00 00 00 00 00 00 ................
004001E0 00 00 00 00 00 00 00 00 00 00 00 00 00 00 00 00 ................
004001F0 00 00 00 00 00 00 00 00 00 00 00 00 00 00 00 00 ................
00400200 00 00 00 00 00 00 00 00 00 00 00 00 00 00 00 00 ................
00400210 00 00 00 00 00 00 00 00 00 00 00 00 00 00 00 00 ................
00400220 00 00 00 00 00 00 00 00 00 00 00 00 00 00 00 00 ................
00400230 00 00 00 00 00 00 00 00 00 00 00 00 00 00 00 00 ................
00400240 00 00 00 00 00 00 00 00 00 00 00 00 00 00 00 00 ................
00400250 00 00 00 00 00 00 00 00 00 00 00 00 00 00 00 00 ................
00400260 00 00 00 00 00 00 00 00 00 00 00 00 00 00 00 00 ................
00400270 00 00 00 00 00 00 00 00 00 00 00 00 00 00 00 00 ................
00400280 00 00 00 00 00 00 00 00 00 00 00 00 00 00 00 00 ................
00400290 00 00 00 00 00 00 00 00 00 00 00 00 00 00 00 00 ................
004002A0 00 00 00 00 00 00 00 00 00 00 00 00 00 00 00 00 ................
004002B0 00 00 00 00 00 00 00 00 00 00 00 00 00 00 00 00 ................
004002C0 00 00 00 00 00 00 00 00 00 00 00 00 00 00 00 00 ................
004002D0 00 00 00 00 00 00 00 00 00 00 00 00 00 00 00 00 ................
004002E0 00 00 00 00 00 00 00 00 00 00 00 00 00 00 00 00 ................
004002F0 00 00 00 00 00 00 00 00 00 00 00 00 00 00 00 00 ................
00400300 00 00 00 00 00 00 00 00 00 00 00 00 00 00 00 00 ................
00400310 00 00 00 00 00 00 00 00 00 00 00 00 00 00 00 00 ................
00400320 00 00 00 00 00 00 00 00 00 00 00 00 00 00 00 00 ................
00400330 00 00 00 00 00 00 00 00 00 00 00 00 00 00 00 00 ................
00400340 00 00 00 00 00 00 00 00 00 00 00 00 00 00 00 00 ................
00400350 00 00 00 00 00 00 00 00 00 00 00 00 00 00 00 00 ................
00400360 00 00 00 00 00 00 00 00 00 00 00 00 00 00 00 00 ................
00400370 00 00 00 00 00 00 00 00 00 00 00 00 00 00 00 00 ................
00400380 00 00 00 00 00 00 00 00 00 00 00 00 00 00 00 00 ................
00400390 00 00 00 00 00 00 00 00 00 00 00 00 00 00 00 00 ................
004003A0 00 00 00 00 00 00 00 00 00 00 00 00 00 00 00 00 ................
004003B0 00 00 00 00 00 00 00 00 00 00 00 00 00 00 00 00 ................
004003C0 00 00 00 00 00 00 00 00 00 00 00 00 00 00 00 00 ................
004003D0 00 00 00 00 00 00 00 00 00 00 00 00 00 00 00 00 ................
004003E0 00 00 00 00 00 00 00 00 00 00 00 00 00 00 00 00 ................
004003F0 00 00 00 00 00 00 00 00 00 00 00 00 00 00 00 00 ................
00400400 00 00 00 00 00 00 00 00 00 00 00 00 00 00 00 00 ................
00400410 00 00 00 00 00 00 00 00 00 00 00 00 00 00 00 00 ................
00400420 00 00 00 00 00 00 00 00 00 00 00 00 00 00 00 00 ................
00400430 00 00 00 00 00 00 00 00 00 00 00 00 00 00 00 00 ................
00400440 00 00 00 00 00 00 00 00 00 00 00 00 00 00 00 00 ................
00400450 00 00 00 00 00 00 00 00 00 00 00 00 00 00 00 00 ................
00400460 00 00 00 00 00 00 00 00 00 00 00 00 00 00 00 00 ................
00400470 00 00 00 00 00 00 00 00 00 00 00 00 00 00 00 00 ................
00400480 00 00 00 00 00 00 00 00 00 00 00 00 00 00 00 00 ................
00400490 00 00 00 00 00 00 00 00 00 00 00 00 00 00 00 00 ................
004004A0 00 00 00 00 00 00 00 00 00 00 00 00 00 00 00 00 ................
004004B0 00 00 00 00 00 00 00 00 00 00 00 00 00 00 00 00 ................
004004C0 00 00 00 00 00 00 00 00 00 00 00 00 00 00 00 00 ................
004004D0 00 00 00 00 00 00 00 00 00 00 00 00 00 00 00 00 ................
004004E0 00 00 00 00 00 00 00 00 00 00 00 00 00 00 00 00 ................
004004F0 00 00 00 00 00 00 00 00 00 00 00 00 00 00 00 00 ................
00400500 00 00 00 00 00 00 00 00 00 00 00 00 00 00 00 00 ................
00400510 00 00 00 00 00 00 00 00 00 00 00 00 00 00 00 00 ................
00400520 00 00 00 00 00 00 00 00 00 00 00 00 00 00 00 00 ................
00400530 00 00 00 00 00 00 00 00 00 00 00 00 00 00 00 00 ................
00400540 00 00 00 00 00 00 00 00 00 00 00 00 00 00 00 00 ................
00400550 00 00 00 00 00 00 00 00 00 00 00 00 00 00 00 00 ................
00400560 00 00 00 00 00 00 00 00 00 00 00 00 00 00 00 00 ................
00400570 00 00 00 00 00 00 00 00 00 00 00 00 00 00 00 00 ................
00400580 00 00 00 00 00 00 00 00 00 00 00 00 00 00 00 00 ................
00400590 00 00 00 00 00 00 00 00 00 00 00 00 00 00 00 00 ................
004005A0 00 00 00 00 00 00 00 00 00 00 00 00 00 00 00 00 ................
004005B0 00 00 00 00 00 00 00 00 00 00 00 00 00 00 00 00 ................
004005C0 00 00 00 00 00 00 00 00 00 00 00 00 00 00 00 00 ................
004005D0 00 00 00 00 00 00 00 00 00 00 00 00 00 00 00 00 ................
004005E0 00 00 00 00 00 00 00 00 00 00 00 00 00 00 00 00 ................
004005F0 00 00 00 00 00 00 00 00 00 00 00 00 00 00 00 00 ................
00400600 00 00 00 00 00 00 00 00 00 00 00 00 00 00 00 00 ................
00400610 00 00 00 00 00 00 00 00 00 00 00 00 00 00 00 00 ................
00400620 00 00 00 00 00 00 00 00 00 00 00 00 00 00 00 00 ................
00400630 00 00 00 00 00 00 00 00 00 00 00 00 00 00 00 00 ................
00400640 00 00 00 00 00 00 00 00 00 00 00 00 00 00 00 00 ................
00400650 00 00 00 00 00 00 00 00 00 00 00 00 00 00 00 00 ................
00400660 00 00 00 00 00 00 00 00 00 00 00 00 00 00 00 00 ................
00400670 00 00 00 00 00 00 00 00 00 00 00 00 00 00 00 00 ................
00400680 00 00 00 00 00 00 00 00 00 00 00 00 00 00 00 00 ................
00400690 00 00 00 00 00 00 00 00 00 00 00 00 00 00 00 00 ................
004006A0 00 00 00 00 00 00 00 00 00 00 00 00 00 00 00 00 ................
004006B0 00 00 00 00 00 00 00 00 00 00 00 00 00 00 00 00 ................
004006C0 00 00 00 00 00 00 00 00 00 00 00 00 00 00 00 00 ................
004006D0 00 00 00 00 00 00 00 00 00 00 00 00 00 00 00 00 ................
004006E0 00 00 00 00 00 00 00 00 00 00 00 00 00 00 00 00 ................
004006F0 00 00 00 00 00 00 00 00 00 00 00 00 00 00 00 00 ................
00400700 00 00 00 00 00 00 00 00 00 00 00 00 00 00 00 00 ................
00400710 00 00 00 00 00 00 00 00 00 00 00 00 00 00 00 00 ................
00400720 00 00 00 00 00 00 00 00 00 00 00 00 00 00 00 00 ................
00400730 00 00 00 00 00 00 00 00 00 00 00 00 00 00 00 00 ................
00400740 00 00 00 00 00 00 00 00 00 00 00 00 00 00 00 00 ................
00400750 00 00 00 00 00 00 00 00 00 00 00 00 00 00 00 00 ................
00400760 00 00 00 00 00 00 00 00 00 00 00 00 00 00 00 00 ................
00400770 00 00 00 00 00 00 00 00 00 00 00 00 00 00 00 00 ................
00400780 00 00 00 00 00 00 00 00 00 00 00 00 00 00 00 00 ................
00400790 00 00 00 00 00 00 00 00 00 00 00 00 00 00 00 00 ................
004007A0 00 00 00 00 00 00 00 00 00 00 00 00 00 00 00 00 ................
004007B0 00 00 00 00 00 00 00 00 00 00 00 00 00 00 00 00 ................
004007C0 00 00 00 00 00 00 00 00 00 00 00 00 00 00 00 00 ................
004007D0 00 00 00 00 00 00 00 00 00 00 00 00 00 00 00 00 ................
004007E0 00 00 00 00 00 00 00 00 00 00 00 00 00 00 00 00 ................
004007F0 00 00 00 00 00 00 00 00 00 00 00 00 00 00 00 00 ................
00400800 00 00 00 00 00 00 00 00 00 00 00 00 00 00 00 00 ................
00400810 00 00 00 00 00 00 00 00 00 00 00 00 00 00 00 00 ................
00400820 00 00 00 00 00 00 00 00 00 00 00 00 00 00 00 00 ................
00400830 00 00 00 00 00 00 00 00 00 00 00 00 00 00 00 00 ................
00400840 00 00 00 00 00 00 00 00 00 00 00 00 00 00 00 00 ................
00400850 00 00 00 00 00 00 00 00 00 00 00 00 00 00 00 00 ................
00400860 00 00 00 00 00 00 00 00 00 00 00 00 00 00 00 00 ................
00400870 00 00 00 00 00 00 00 00 00 00 00 00 00 00 00 00 ................
00400880 00 00 00 00 00 00 00 00 00 00 00 00 00 00 00 00 ................
00400890 00 00 00 00 00 00 00 00 00 00 00 00 00 00 00 00 ................
004008A0 00 00 00 00 00 00 00 00 00 00 00 00 00 00 00 00 ................
004008B0 00 00 00 00 00 00 00 00 00 00 00 00 00 00 00 00 ................
004008C0 00 00 00 00 00 00 00 00 00 00 00 00 00 00 00 00 ................
004008D0 00 00 00 00 00 00 00 00 00 00 00 00 00 00 00 00 ................
004008E0 00 00 00 00 00 00 00 00 00 00 00 00 00 00 00 00 ................
004008F0 00 00 00 00 00 00 00 00 00 00 00 00 00 00 00 00 ................
00400900 00 00 00 00 00 00 00 00 00 00 00 00 00 00 00 00 ................
00400910 00 00 00 00 00 00 00 00 00 00 00 00 00 00 00 00 ................
00400920 00 00 00 00 00 00 00 00 00 00 00 00 00 00 00 00 ................
00400930 00 00 00 00 00 00 00 00 00 00 00 00 00 00 00 00 ................
00400940 00 00 00 00 00 00 00 00 00 00 00 00 00 00 00 00 ................
00400950 00 00 00 00 00 00 00 00 00 00 00 00 00 00 00 00 ................
00400960 00 00 00 00 00 00 00 00 00 00 00 00 00 00 00 00 ................
00400970 00 00 00 00 00 00 00 00 00 00 00 00 00 00 00 00 ................
00400980 00 00 00 00 00 00 00 00 00 00 00 00 00 00 00 00 ................
00400990 00 00 00 00 00 00 00 00 00 00 00 00 00 00 00 00 ................
004009A0 00 00 00 00 00 00 00 00 00 00 00 00 00 00 00 00 ................
004009B0 00 00 00 00 00 00 00 00 00 00 00 00 00 00 00 00 ................
004009C0 00 00 00 00 00 00 00 00 00 00 00 00 00 00 00 00 ................
004009D0 00 00 00 00 00 00 00 00 00 00 00 00 00 00 00 00 ................
004009E0 00 00 00 00 00 00 00 00 00 00 00 00 00 00 00 00 ................
004009F0 00 00 00 00 00 00 00 00 00 00 00 00 00 00 00 00 ................
00400A00 00 00 00 00 00 00 00 00 00 00 00 00 00 00 00 00 ................
00400A10 00 00 00 00 00 00 00 00 00 00 00 00 00 00 00 00 ................
00400A20 00 00 00 00 00 00 00 00 00 00 00 00 00 00 00 00 ................
00400A30 00 00 00 00 00 00 00 00 00 00 00 00 00 00 00 00 ................
00400A40 00 00 00 00 00 00 00 00 00 00 00 00 00 00 00 00 ................
00400A50 00 00 00 00 00 00 00 00 00 00 00 00 00 00 00 00 ................
00400A60 00 00 00 00 00 00 00 00 00 00 00 00 00 00 00 00 ................
00400A70 00 00 00 00 00 00 00 00 00 00 00 00 00 00 00 00 ................
00400A80 00 00 00 00 00 00 00 00 00 00 00 00 00 00 00 00 ................
00400A90 00 00 00 00 00 00 00 00 00 00 00 00 00 00 00 00 ................
00400AA0 00 00 00 00 00 00 00 00 00 00 00 00 00 00 00 00 ................
00400AB0 00 00 00 00 00 00 00 00 00 00 00 00 00 00 00 00 ................
00400AC0 00 00 00 00 00 00 00 00 00 00 00 00 00 00 00 00 ................
00400AD0 00 00 00 00 00 00 00 00 00 00 00 00 00 00 00 00 ................
00400AE0 00 00 00 00 00 00 00 00 00 00 00 00 00 00 00 00 ................
00400AF0 00 00 00 00 00 00 00 00 00 00 00 00 00 00 00 00 ................
00400B00 00 00 00 00 00 00 00 00 00 00 00 00 00 00 00 00 ................
00400B10 00 00 00 00 00 00 00 00 00 00 00 00 00 00 00 00 ................
00400B20 00 00 00 00 00 00 00 00 00 00 00 00 00 00 00 00 ................
00400B30 00 00 00 00 00 00 00 00 00 00 00 00 00 00 00 00 ................
00400B40 00 00 00 00 00 00 00 00 00 00 00 00 00 00 00 00 ................
00400B50 00 00 00 00 00 00 00 00 00 00 00 00 00 00 00 00 ................
00400B60 00 00 00 00 00 00 00 00 00 00 00 00 00 00 00 00 ................
00400B70 00 00 00 00 00 00 00 00 00 00 00 00 00 00 00 00 ................
00400B80 00 00 00 00 00 00 00 00 00 00 00 00 00 00 00 00 ................
00400B90 00 00 00 00 00 00 00 00 00 00 00 00 00 00 00 00 ................
00400BA0 00 00 00 00 00 00 00 00 00 00 00 00 00 00 00 00 ................
00400BB0 00 00 00 00 00 00 00 00 00 00 00 00 00 00 00 00 ................
00400BC0 00 00 00 00 00 00 00 00 00 00 00 00 00 00 00 00 ................
00400BD0 00 00 00 00 00 00 00 00 00 00 00 00 00 00 00 00 ................
00400BE0 00 00 00 00 00 00 00 00 00 00 00 00 00 00 00 00 ................
00400BF0 00 00 00 00 00 00 00 00 00 00 00 00 00 00 00 00 ................
00400C00 00 00 00 00 00 00 00 00 00 00 00 00 00 00 00 00 ................
00400C10 00 00 00 00 00 00 00 00 00 00 00 00 00 00 00 00 ................
00400C20 00 00 00 00 00 00 00 00 00 00 00 00 00 00 00 00 ................
00400C30 00 00 00 00 00 00 00 00 00 00 00 00 00 00 00 00 ................
00400C40 00 00 00 00 00 00 00 00 00 00 00 00 00 00 00 00 ................
00400C50 00 00 00 00 00 00 00 00 00 00 00 00 00 00 00 00 ................
00400C60 00 00 00 00 00 00 00 00 00 00 00 00 00 00 00 00 ................
00400C70 00 00 00 00 00 00 00 00 00 00 00 00 00 00 00 00 ................
00400C80 00 00 00 00 00 00 00 00 00 00 00 00 00 00 00 00 ................
00400C90 00 00 00 00 00 00 00 00 00 00 00 00 00 00 00 00 ................
00400CA0 00 00 00 00 00 00 00 00 00 00 00 00 00 00 00 00 ................
00400CB0 00 00 00 00 00 00 00 00 00 00 00 00 00 00 00 00 ................
00400CC0 00 00 00 00 00 00 00 00 00 00 00 00 00 00 00 00 ................
00400CD0 00 00 00 00 00 00 00 00 00 00 00 00 00 00 00 00 ................
00400CE0 00 00 00 00 00 00 00 00 00 00 00 00 00 00 00 00 ................
00400CF0 00 00 00 00 00 00 00 00 00 00 00 00 00 00 00 00 ................
00400D00 00 00 00 00 00 00 00 00 00 00 00 00 00 00 00 00 ................
00400D10 00 00 00 00 00 00 00 00 00 00 00 00 00 00 00 00 ................
00400D20 00 00 00 00 00 00 00 00 00 00 00 00 00 00 00 00 ................
00400D30 00 00 00 00 00 00 00 00 00 00 00 00 00 00 00 00 ................
00400D40 00 00 00 00 00 00 00 00 00 00 00 00 00 00 00 00 ................
00400D50 00 00 00 00 00 00 00 00 00 00 00 00 00 00 00 00 ................
00400D60 00 00 00 00 00 00 00 00 00 00 00 00 00 00 00 00 ................
00400D70 00 00 00 00 00 00 00 00 00 00 00 00 00 00 00 00 ................
00400D80 00 00 00 00 00 00 00 00 00 00 00 00 00 00 00 00 ................
00400D90 00 00 00 00 00 00 00 00 00 00 00 00 00 00 00 00 ................
00400DA0 00 00 00 00 00 00 00 00 00 00 00 00 00 00 00 00 ................
00400DB0 00 00 00 00 00 00 00 00 00 00 00 00 00 00 00 00 ................
00400DC0 00 00 00 00 00 00 00 00 00 00 00 00 00 00 00 00 ................
00400DD0 00 00 00 00 00 00 00 00 00 00 00 00 00 00 00 00 ................
00400DE0 00 00 00 00 00 00 00 00 00 00 00 00 00 00 00 00 ................
00400DF0 00 00 00 00 00 00 00 00 00 00 00 00 00 00 00 00 ................
00400E00 00 00 00 00 00 00 00 00 00 00 00 00 00 00 00 00 ................
00400E10 00 00 00 00 00 00 00 00 00 00 00 00 00 00 00 00 ................
00400E20 00 00 00 00 00 00 00 00 00 00 00 00 00 00 00 00 ................
00400E30 00 00 00 00 00 00 00 00 00 00 00 00 00 00 00 00 ................
00400E40 00 00 00 00 00 00 00 00 00 00 00 00 00 00 00 00 ................
00400E50 00 00 00 00 00 00 00 00 00 00 00 00 00 00 00 00 ................
00400E60 00 00 00 00 00 00 00 00 00 00 00 00 00 00 00 00 ................
00400E70 00 00 00 00 00 00 00 00 00 00 00 00 00 00 00 00 ................
00400E80 00 00 00 00 00 00 00 00 00 00 00 00 00 00 00 00 ................
00400E90 00 00 00 00 00 00 00 00 00 00 00 00 00 00 00 00 ................
00400EA0 00 00 00 00 00 00 00 00 00 00 00 00 00 00 00 00 ................
00400EB0 00 00 00 00 00 00 00 00 00 00 00 00 00 00 00 00 ................
00400EC0 00 00 00 00 00 00 00 00 00 00 00 00 00 00 00 00 ................
00400ED0 00 00 00 00 00 00 00 00 00 00 00 00 00 00 00 00 ................
00400EE0 00 00 00 00 00 00 00 00 00 00 00 00 00 00 00 00 ................
00400EF0 00 00 00 00 00 00 00 00 00 00 00 00 00 00 00 00 ................
00400F00 00 00 00 00 00 00 00 00 00 00 00 00 00 00 00 00 ................
00400F10 00 00 00 00 00 00 00 00 00 00 00 00 00 00 00 00 ................
00400F20 00 00 00 00 00 00 00 00 00 00 00 00 00 00 00 00 ................
00400F30 00 00 00 00 00 00 00 00 00 00 00 00 00 00 00 00 ................
00400F40 00 00 00 00 00 00 00 00 00 00 00 00 00 00 00 00 ................
00400F50 00 00 00 00 00 00 00 00 00 00 00 00 00 00 00 00 ................
00400F60 00 00 00 00 00 00 00 00 00 00 00 00 00 00 00 00 ................
00400F70 00 00 00 00 00 00 00 00 00 00 00 00 00 00 00 00 ................
00400F80 00 00 00 00 00 00 00 00 00 00 00 00 00 00 00 00 ................
00400F90 00 00 00 00 00 00 00 00 00 00 00 00 00 00 00 00 ................
00400FA0 00 00 00 00 00 00 00 00 00 00 00 00 00 00 00 00 ................
00400FB0 00 00 00 00 00 00 00 00 00 00 00 00 00 00 00 00 ................
00400FC0 00 00 00 00 00 00 00 00 00 00 00 00 00 00 00 00 ................
00400FD0 00 00 00 00 00 00 00 00 00 00 00 00 00 00 00 00 ................
00400FE0 00 00 00 00 00 00 00 00 00 00 00 00 00 00 00 00 ................
00400FF0 00 00 00 00 00 00 00 00 00 00 00 00 00 00 00 00 ................
00401000 CA F1 07 94 BC A3 93 1F                         ........       

fn00401008()
	lea	esp,[esp+04]
	add	dl,dh
	sub	cl,bh
	sub	esi,edi
	neg	bh
	or	dh,cl
	sub	cl,ch
	mov	bh,C5
	add	edi,edx
	call	00401115
	mov	dword ptr [448FF60C],F22BF424

fn00401025()
	pop	dword ptr [esp-0C]
	sub	esi,edx

fn0040102B()
	xor	ebx,esi
	mov	esi,ebx
	inc	esi
	add	ecx,ebx
	dec	ebx
	xor	ebx,ecx
	xor	ebx,esi
	xor	ecx,edx
	call	00401187
	add	[ebx+4CEE9794],edi
	pop	ebp

fn00401045()
	xchg	[esp],esi
	mov	edx,edx
	xchg	dh,dh
	pop	esi
	mov	ch,ah
	xor	ch,dh
	sub	edi,eax
	mov	bh,79
	or	bh,cl
	call	0040123C
	add	dl,93
	sub	eax,8A241489

fn00401060()
	mov	[esp],edx
	mov	ah,ah

fn00401064()
	in	al,5A
	or	edx,edi

fn00401067()
	xlat	

fn00401068()
	dec	ebx
	xor	ch,dl
	xor	esi,eax
	dec	ecx
	xor	dh,ch
	add	bh,bl
	call	00401008

fn00401077()
	inc	edx
	adc	byte ptr [eax-51],8D

fn0040107B()
	lea	esp,[esp+04]

fn0040107C()
	and	al,04
	xor	esi,edx
	or	esi,ecx
	mov	ecx,ebx
	or	ebx,edx
	sub	ecx,esi
	sub	ecx,edx
	dec	esi
	add	ecx,edx
	inc	edi
	call	004011A1

fn00401094()
	jmp	8A1670FC

fn00401098()
	mov	[esp],eax
00401099                            04 24 66 87 DB E9 00          .$f....
004010A0 00 00 00                                        ...            

l004010A3:
	pop	eax
	add	edx,esi
	mov	edx,esi
	or	esi,edi
	add	esi,eax
	or	ecx,edi
	sub	ecx,edx
	mov	esi,eax
	call	0040112E
	xchg	dh,ah
	ja	00401128

l004010BB:
	mov	ecx,55D2DD3D

fn004010BF()
	push	ebp

fn004010C0()
	mov	ebp,esp
	add	edx,ecx
	sub	ecx,esi
	sub	edx,edi
	mov	esi,ecx
	or	ecx,edi
	sub	edx,ecx
	add	ecx,esi
	dec	edx
	inc	esi
	call	0040107B

fn004010D7()
	and	eax,90969AF3
	jnz	00401067

fn004010DF()
	xchg	[esp],edi

fn004010E0()
	cmp	al,24
	mov	dx,dx
	lea	dx,[edx]
	pop	edi
	mov	ecx,edi
	mov	ebx,edx
	or	edx,eax
	call	0040126E

l004010F4:
	illegal	
	in	eax,A5
	mov	esi,648DFE9A
	and	al,04
	sub	ecx,edi
	dec	edi
	sub	edi,esi
	sub	ebx,edx
	sub	ebx,esi
	call	00401168
	mov	bh,D9
	dec	edi
	mov	[edx+8D0E4B74],ss

fn00401115()
	lea	esp,[esp+04]
	add	dh,dl
	or	edi,esi
	xor	ch,dl
	xor	dh,bh
	inc	esi
	add	dh,ch
	call	00401045

fn00401128()
	jmp	dword ptr [edx-13]

l00401129:
	bound	ebp,ebp

l0040112B:
	test	bh,cl
	fild	dword ptr [edi+5366240C]

fn0040112E()
	xchg	[esp],ecx
	push	bx

fn00401133()
	pop	bx
	pop	ecx
	sub	edi,edx
	or	ecx,edx
	illegal	
	call	004010FB
	illegal	
	illegal	
	or	ecx,[esi]
	jg	004010D8

fn0040114A()
	lea	esp,[esp+04]
	or	ecx,ebx
	or	ebx,ecx
	mov	bl,al
	xor	edi,esi
	inc	ecx
	sub	ch,bh
	mov	edi,ebx
	call	004011F2
	sub	ah,[edx-5A]
	cmc	
	jge	004011E4

l00401166:
	and	eax,24348964
	mov	eax,eax
	pop	esi
	or	ecx,edi
	or	ebx,esi
	xor	ebx,edi
	or	edi,ebx
	mov	edi,ebx
	xor	edx,edi
	xor	ecx,eax
	call	00401224
	fiadd	word ptr [eax+291FB9A6]

fn00401187()
	lea	esp,[esp+04]
	add	ebx,edx
	mov	esi,edi
	mov	ebx,esi
	inc	esi
	mov	edx,esi
	call	004012BC
	jnz	0040112B

l0040119B:
	mov	ebx,614034A5

fn004011A1()
	lea	esp,[esp+04]
	mov	esi,ebx
	sub	edi,esi
	sub	esi,ecx
	inc	edx
	sub	ecx,esi
	add	edx,ecx
	inc	ebx
	call	00401060
	in	al,dx
	or	eax,648D4023

fn004011BA()
	lea	esp,[esp+04]

fn004011BC()
	and	al,04
	inc	ecx
	or	ebx,esi
	mov	eax,ecx
	mov	eax,edi
	sub	eax,ecx
	call	0040120C
	mov	dword ptr [ecx+C593C53A],241C8726

fn004011D3()
	xchg	[esp],ebx

fn004011D6()
	lea	di,[edi]
	push	edi
	pop	edi
	pop	ebx
	or	edx,ebx
	dec	ebx
	inc	eax
	or	esi,ebx
	add	ecx,eax

fn004011E4()
	mov	eax,ebx
	sub	ebx,edi
	call	0040129F
	sbb	al,83
	popa	
	cmp	eax,24648D42

fn004011F2()
	lea	esp,[esp+04]

fn004011F5()
	add	al,32
	illegal	
	sub	edi,eax
	add	edx,edi
	sub	esi,eax
	xor	edi,eax
	call	004012F0

fn00401206()
	pop	ebp
	sub	cl,al
	test	eax,3C87DAFD

fn0040120C()
	xchg	[esp],edi

fn0040120E()
	and	al,66
	mov	ecx,ecx
	repne	
	pop	edi
	xor	edx,esi
	add	edx,ebx
	dec	ebx
	xor	edx,ecx
	call	0040128A
	pop	ds
	and	ebx,[edx-7B]

fn00401224()
	pop	dword ptr [esp-2C]
	test	al,08
	jz	0040122D

l0040122C:
	ret	

l0040122D:
	leave	
	add	edx,ecx
	inc	ebx
	call	004011D3
	inc	esi
	dec	edx
	sahf	
	jz	00401269

l0040123B:
	inc	eax

fn0040123C()
	lea	esp,[esp+04]
	xor	bl,dh
	xor	bl,ah
	add	edx,eax
	sub	ecx,esi
	sub	edi,ecx
	call	0040114A
	cwde	
	popf	
	jg	00401256

fn00401254()
	pop	dword ptr [esp-10]

fn00401256()
	and	al,F0
	dec	ebx
	sub	ebx,edi
	mov	esi,ecx
	dec	ecx
	sub	edi,eax
	xor	edi,ebx
	dec	ecx
	call	004012D4
	cmp	[ebp+52F9F76B],ah

fn00401269()
	movsd	
	imul	esi,edi,F9
	push	edx

fn0040126E()
	mov	[esp],edx
	jnc	00401273

l00401273:
	mov	cx,cx
	pop	edx
	mov	esi,edx
	sub	edx,esi
	mov	edx,ebx
	sub	esi,eax
	dec	ebx
	call	00401254
	sub	[ebp+0B],ecx
	adc	[ecx+ecx*4],ecx
	xor	al,24
	mov	ah,ah
	jmp	00401295
00401294             A9                                      .          

l00401295:
	pop	esi
	dec	edi
	mov	eax,edi
	sub	ecx,eax
	mov	ecx,edx
	jmp	00401304

fn0040129F()
	lea	esp,[esp+04]
	mov	edi,esi
	sub	edi,esi

fn004012A7()
	mov	ecx,edx
	or	edx,esi
	add	eax,ebx
	xor	edi,eax
	xor	edx,edi
	call	004011BA
	call	far 9F00:3328
	mov	ah,8D

fn004012BC()
	lea	esp,[esp+04]
	inc	ebx
	add	edi,eax
	add	ecx,edx
	wait	
	or	ecx,ebx
	add	edx,ebx
	call	00401098
	illegal	
	popa	
	sub	byte ptr [ebx+DC24448F],2B

fn004012D4()
	pop	dword ptr [esp-24]
	sub	esi,eax
	dec	esi
	add	ecx,esi
	inc	ebx
	fclex	
	dec	edi
	xor	ecx,edx
	call	00401025
	clc	
	stc	
	ret	
004012EB                                  85 F0 65 62 7A            ..ebz

fn004012F0()
	mov	[esp],ebx
	lea	dx,[edx]
	pop	ebx
	or	ebx,edi
	dec	ebx
	dec	ecx
	call	004010DF
	sub	eax,E8EA6012

fn00401304()
	call	00402820

fn00401305()
	pop	ss
	adc	eax,777F0000

fn0040130B()
	popa	
	push	eax
	das	
	jc	004012A7

l00401310:
	sbb	ebp,[edx+ebp*4]
	mov	esi,C1B482BE
	xchg	eax,esi
	mov	esi,CD12AFBE
	push	ds
	cwde	
	int	2E
	dec	esi
	cmp	[edi+98BE9EB3],edx
	mov	[ebx+15],ecx
	mov	ebp,BF4BE9BF
	jmp	BE642E72
	mov	esi,3BA990BE
	nop	
	wait	
	mov	dl,BD
	into	
	nop	
	mov	ebp,0FB7B21E
	illegal	
	lodsb	
	popa	
	rol	dword ptr [eax+A3B0A0CC],01
	jle	00401370
	mov	esi,98BEBEBD
	lea	ebp,[esi]
	mov	ebx,BB2E8D88
	jns	004012F9
	insd	
	mov	ebx,BB2E6D88
	jnz	0040137F
	mov	edi,BE9A6817
	mov	esi,FBE281D9
	xchg	[edx+A99854D3],ch
	jpo	0040133B
	jmp	1BFE289C
	or	al,AA

l00401382:
	stosb	
	mov	esi,6BA998BE
	nop	
	dec	ecx
	cmp	esi,[edx+AFB8CE51]
	mov	edx,3D17BEBE
	mov	dl,BE
	mov	esi,C356C810
	push	eax
	push	edi
	jpo	004013F0

l004013A1:
	scasb	
	dec	edi
	scasb	
	inc	ebx
	mov	bh,4F
	scasb	
	pop	ss
	and	ebp,[edx+12EEBEBE]
	retf	
004013B3          54 BF E9 6B 1B 41 BE BE BE 17 17 96 BE    T..k.A.......
004013C0 BE BF E9 2B 7D BF E9 6B 17 5B 96 BE BE 65 65 61 ...+}..k.[...eea
004013D0 BF BE AE 57 1B 2F AA BE BE BF 7B 97 B3 9E BE 69 ...W./....{....i
004013E0 90 0B B0 AB CB 88 A9 CB 17 17 A2 BE BE 28 52 4B .............(RK

l004013F0:
	xor	eax,BDB2A3FA
	into	
	mov	edi,1B71EEFD
	sub	al,AE
	mov	esi,BED851BE
	jle	004013C2
	mov	esi,905B6990
	test	eax,EB90978B
	pop	ss
	into	
	mov	edi,CEBFBFBF
	ret	5B94
	pushf	
	illegal	
	inc	ecx
	imul	edx,[eax+E9903D0B],9EC9908E
	retf	
	hlt	
	mov	esp,C9174FF2
	call	far 275D:BEBE
	sahf	
	and	al,[esi]
	sbb	eax,F1A38ECC
	jge	00401456
	leave	
	stosb	
	mov	esi,907BBFBE
	test	eax,160F97CB
	pop	dword ptr [ebx]
	daa	
	pop	eax
	shl	byte ptr [ecx+edi],C5
	mov	[ecx+BF157D9E],ch
	sbb	eax,3B3D419C
	sbb	ebp,[edi-5A]
	mov	esi,1D101DBE
	mov	dl,EB
	jge	0040147D
	adc	eax,FEBFBFBF
	cwde	
	push	ebx
	mov	ecx,B3C4FD81
	mov	ds,[esi+BF0B9069]
	jmp	1DFF2A1B
	pushf	
	inc	ecx
	cmp	eax,A60C1B3B
	mov	esi,122F1DBE
	lodsb	
	jge	004014A8
	adc	ch,[edx+AE17BEBE]
	mov	dh,BE
	mov	esi,5203EBAC
	push	ebx
	test	eax,9EB39773
	mov	esi,710B9069
	popa	
	nop	
	leave	
	mov	ss,[edi]
	illegal	
	sahf	
	mov	esi,81720ABE
	in	eax,dx
	sbb	bh,[ebx+17D1B7B0]
	mov	ebp,B0BEBEA2
	pop	ss
	ror	dword ptr [ecx+edi*2],01
	xchg	eax,esp
	xchg	eax,ebx
	mov	esp,83B672F7
	pop	ss
	adc	edi,[edx+4796BEBE]
	stc	
	or	eax,esp
	adc	ch,[ecx-72]
	mov	dl,51
	into	
	mov	[eax+3C],dl
	mov	esi,5290BEBE
	nop	
	mov	[esi+AC824F92],ebx
	in	eax,A6
	mov	esi,8E89D2BE
	sub	byte ptr [ecx+ecx+B2BEBEA6],49
	sahf	
	illegal	
	fsubr	double ptr [edi]
	outsb	
	nop	
	and	edx,[edi]
	insd	
	cmpsb	
	mov	esi,AE9190BE
	mov	al,17
	sahf	
	nop	
	out	dx,ax
	mov	al,A3
	sahf	
	pop	ss
	fisub	dword ptr [esi+E082BEBE]
	cmpsb	
	and	al,DB
	and	eax,82BF1FB8
	and	eax,178E1BB7
	and	bl,[esi+463BBEBE]
	rcr	dword ptr [edx],01
	jge	00401549
	xchg	eax,esp
	scasb	
	mov	esi,907BBFBE
	test	eax,9EB397CB
	mov	esi,B00B9069
	stosd	
	fist	dword ptr [edi]
	sbb	ch,[esi+A9EBBEBE]
	cmc	
	xor	edi,[esi+820F9C5F]
	mov	dl,A9
	sahf	
	mov	[ebp+E9BF7DB6],bh
	retf	
	sbb	esi,[edi]
	mov	dh,BE
	mov	esi,BEC6B010
	sub	byte ptr [eax+BEBEAA38],17
	mov	dl,BE
	mov	esi,7E73CFF1
	push	ds
	in	al,dx
	xor	es:[edx+6A179E49],dh
	mov	dl,BE
	mov	esi,B28EB190
	test	eax,621B7D9E
	mov	edx,A60FBEBE
	sbb	[esi+FC50D575],edx
	cwde	
	test	eax,BED2B0CB
	in	eax,dx
	scasb	
	nop	
	repne	
	lss	edx,[eax+E9B27EF1]
	sahf	
	pop	ss
	stosb	
	mov	esi,414B1EBE
	or	[edi],ecx
	sahf	
	mov	bh,BB
	mov	[B7B0BAF6],al
	mov	dh,25
	mov	al,DA
	mov	esi,B4EAF3E9
	sar	[ebp-6F],cl
	shr	[ecx+BA18179E],cl
	mov	esi,C8C19DBE
	adc	[3B3D419C],bl
	sbb	edx,[ecx-56]
	mov	esi,BFE41DBE
	repne	
	jge	004015F9
	push	ebx
	mov	dl,BE
	mov	esi,A9887BBF
	jmp	004015FF
	push	ebp
	cmpsb	
	mov	esi,92809EBE
	repne	
	jpo	00401651
	inc	ecx
	and	al,91
	cmpsb	
	mov	eax,BEBEDBAF
	mov	esi,BEAE0117
	mov	esi,6EB19079
	mov	dl,A9
	imul	edx,[eax+89B28E91],3B
	mov	edi,177D7EF1
	mov	edi,76BEBEBA
	inc	esp
	jl	00401654
	cmp	[esi-3A],ebx
	dec	ebp
	nop	
	mov	eax,[90B3B24E]
	scasb	
	pushf	
	mov	dl,B3
	pop	ss
	jns	004015D7
	mov	esi,AAC617BE
	mov	esi,AAE217BE
	mov	esi,C6E30EBE
	loope	004016A7
	nop	
	or	esp,[ebp+61]
	nop	
	mov	[esi-70],edi
	jmp	9A462DD9
	mov	esi,82F333BE
	push	cs
	cmpsd	
	imul	edi,[ebx],F7
	nop	
	jnz	004015E6
	nop	
	push	ebx
	mov	al,AF
	mov	ss,[eax+76908E75]
	pop	ss
	pop	esi
	mov	edx,9590BEBE
	illegal	
	mov	ebx,BFBFD217
	mov	edi,B3A92319
	mov	al,[4990A372]
	sahf	
	mov	dl,51
	into	
	mov	[eax-44],dl
	mov	esi,5290BEBE
	xchg	eax,edx
	dec	edi
	sub	byte ptr [esi+eax*4+17BEBEB6],33
	ret	
	mov	edi,E13F74BF
	xchg	eax,ebp
	and	al,6A
	aaa	
	mov	edi,AEB3977B
	mov	esi,B00B9069
	stosd	
	sti	
	mov	edi,A9889EE9
	fist	dword ptr [edi]
	scasb	
	mov	esi,0B1142BE
	jcxz	004016C4
	mov	esi,94BB73CC
	xchg	eax,ebx
	jnc	00401659
	pop	ecx
	adc	al,B2
	ja	0040167A
	mov	bl,B2
	pop	ss
	or	ch,[edx+21F6BEBE]
	rcr	dword ptr [edx+82A0145D],B0
	pop	ds
	scasb	
	mov	esi,B9B6F0BE
	cld	
	jle	004016F8
	pop	ebx
	mov	edx,BB76BEBE
	illegal	
	fild	word ptr [edx+BEBED4A8]
	mov	esi,AEF81714
	mov	esi,277D08BE
	lodsd	
	lock	
	mov	edi,519079A4
	mov	ss,[edx+E9BF3B49]
	or	edi,[edi+1B712BE9]
	xchg	eax,ecx
	mov	dh,BE
	mov	esi,9ECBA9DF
	mov	esi,AC82BEBE
	insd	
	sahf	
	mov	esi,9ECA17BE
	mov	esi,7A5F29BE
	xor	eax,692D82FE
	nop	
	or	esi,[eax+15718BAB]
	mov	esi,9B90FA82
	mov	eax,BEBEBF37
	mov	esi,1D17BA15
	mov	dh,BE
	mov	esi,BFCB5517
	mov	edi,8FB5AAB9
	lodsd	
	sbb	eax,03DFAB45
	jge	0040176A
	sbb	[esi+7BBFBEBE],esi
	mov	edi,9C1D9EE9
	inc	ecx
	cmp	eax,B27B1B3B
	mov	esi,73DF1DBE
	or	eax,C7BB17D9
	mov	edi,3AE00FBF
	loopne	0040170F
	mov	cl,A2
	nop	
	mov	ch,5E
	jbe	76D0C58C
	repne	
	mov	ebx,A8826FD2
	cmp	eax,ebx
	mov	edi,179751BF
	cmp	al,BA
	mov	esi,F73B77BE
	mov	dh,7F
	push	esp
	mov	esp,A6F1AACB
	mov	al,DB
	shl	ecx,B6
	mov	ecx,A79068B9
	lock	
	mov	edx,BAB61765
	mov	esi,C7EF0CBE
	push	ebx
	mov	ch,9C
	sub	eax,AE9CBF5A
	push	esi
	cdq	
	xchg	eax,edx
	xchg	eax,edi
	jmp	B3D769B5
	mov	ds,[esi+BEA6D917]
	mov	esi,D9EC4A59
	in	al,14
	retf	
	shld	[EBA988BE],edx,7D
	mov	edi,1D7D8EE9
	pushf	
	inc	ecx
	cmp	eax,B2811B3B
	mov	esi,BF3D17BE
	mov	edi,693BB2BF
	sti	
	mov	[ebx],cs
	nop	
	test	eax,BF67EA7E
	jbe	004017E0
	mov	bh,9B
	jpe	00401804
	cmc	
	aaa	
	outsb	
	cwde	
	test	eax,DF73F27E
	jmp	5AEDAC97
	mov	edi,0F562E94
	cmp	bl,al
	and	esp,[ecx+75606086]
	and	al,79
	sbb	edi,[esi]
	ret	
	mov	edi,8EB190BF
	mov	dl,A9
	cmp	edi,[edi+F1BF2EF1]
	sahf	
	jge	00401846
	cld	
	iret	
	mov	edi,AFB059BF
	push	ds
	pop	ss
	fidiv	word ptr [esi+3E70BEBE]
	stosd	
	lock	
	dec	eax
	or	eax,0B9069BB
	mov	al,AB
	jmp	004017CE
	test	eax,C9B87DCB
	mov	ds,[edi+82BEBEBF]
	mov	al,[BFBFBFD9]
	mov	edi,BE158EE9
	pop	ss
	or	[edi+DEDDBFBF],edi
	add	dword ptr [edx+esi*2+B7DD899A],E082823B
	sahf	
	mov	eax,BE558917
	mov	esi,A8829792
	push	edx
	cmpsb	
	mov	esi,3BA998BE
	retf	
	sbb	eax,BEBEBEBE
	pop	ss
	lds	edi,[edx+1C04BEBE]
	test	ah,dl
	hlt	
	mov	al,AF
	outsb	
	mov	al,D1
	mov	ds,[esi+CB37A882]
	mov	edi,514541BF
	xchg	eax,edi
	mov	bl,AE
	mov	esi,A6791769
	mov	esi,80B21DBE
	jc	0040183E
	fist	word ptr [edx]
	sti	
	out	dx,ax
	sub	al,45
	pop	ss
	jcxz	00401865
	mov	esi,8273B6BE
	test	al,67
	scasb	
	mov	esi,AE8F17BE
	mov	esi,6BA9CFBE
	xlat	
	add	[eax+E990CBA9],ebx
	sahf	
	nop	
	ret	
	and	ah,49
	jpe	004018EF
	rep	
	mov	dl,BE
	mov	esi,968EC9B0
	xor	byte ptr [esi+ecx*4+17BEBEBA],28
	mov	dl,BE
	mov	esi,34A266F5
	mov	cs,di
	mov	[E690960F],eax
	shl	bl,cl
	sub	byte ptr [eax+BEBEBAEC],41
	inc	ebp
	push	ecx
	xchg	eax,edi
	pop	ss
	stosb	
	mov	esi,774FD7BE
	call	far B4EA:44D6
	sar	[ebp-6F],cl
	shr	[edi+B665A882],cl
	mov	esi,2EA190BE
	mov	dl,B3
	pop	ecx
	and	al,8E
	popf	
	pop	ss
	illegal	
	mov	edi,38E26FBF
	nop	
	inc	ebp
	mov	bl,AE
	mov	esi,150B9069
	mov	ebp,BEFEBE1D
	mov	esi,7D8EA988
	adc	eax,9EA988BE
	jge	0040195D
	adc	ebp,[edx+3A26BEBE]
	test	[esp+ebp+97F712C4],esi
	mov	bl,7E
	mov	esi,710B9069
	nop	
	mov	[esi+179E4990],ecx
	jno	00401926
	mov	edi,C3AC17BF
	mov	edi,0963FDBF
	mov	edx,6165713B
	nop	
	test	eax,6EA9128E
	cwde	
	test	eax,DBA9988E
	mov	esp,82BE7EC9
	lodsb	
	jge	00401938
	mov	esi,A9E482BE
	jle	004019A4
	illegal	
	mov	edi,33E1BFBF
	or	bh,[esi+6F0F8267]
	inc	ebx
	mov	bh,4F
	scasb	
	inc	ebx
	mov	bh,82
	movzx	ecx,word ptr [eax+D7B8BA99]
	push	ds
	dec	ebp
	xor	byte ptr [esi+BEAE3617],BE
	cmpsb	
	inc	edx
	xchg	eax,ecx
	sbb	[edx+45],bh
	push	ecx
	xchg	eax,edi
	mov	bl,9E
	mov	esi,B00B9069
	stosd	
	retf	
	jno	004019DB
	sbb	[esi+F2F9BEBE],dh
	push	ss
	add	eax,A9887BBF
	sti	
	jge	0040195B
	test	eax,BE157DEB
	adc	eax,CF0317BE
	mov	edi,E2F958BF
	insb	
	mov	ch,B2
	jmp	9653CAB5
	fist	word ptr [ebx-70]
	xchg	eax,ebx
	out	dx,ax
	sub	al,0F
	xchg	eax,esi
	nop	
	mov	[esi+4B172CEF],ecx
	mov	dh,BE
	mov	esi,17CBA990
	mov	bh,B6
	mov	esi,BA34CFBE
	inc	ebp
	sub	byte ptr [ecx+46A81DCB],20
	or	[eax+8B1DDBA9],eax
	mov	ecx,[ebx+EBA9808B]
	sbb	eax,8B8B8B8B
	cmovpe	ebp,eax
	illegal	
	mov	ah,97
	sub	esi,[ebx+9069BE9E]
	or	ebx,[BEBEBCBE]
	mov	[ecx+6E177D8E],ch
	sar	[edi+2B0963BF],cl
	fld	double ptr [eax+BE1DFBA9]
	out	BE,al
	mov	esi,1D1BA980
	mov	esi,80BEBEE6
	test	eax,CBC11D2B
	jle	00401A48
	sub	byte ptr [ecx+3BA9900B],B2
	mov	ebp,7D9D90CE
	pop	ss
	mov	bh,DB
	mov	edi,B29FD3BF
	xlat	
	nop	
	stc	
	lodsb	
	jmp	00401A0A
	xchg	eax,edx
	xchg	eax,edi
	sub	byte ptr [eax+BFBFCF98],BF
	jmp	6C29D99A
	sbb	esp,[edi+edi*4]
	mov	edi,3B8990BF
	nop	
	mov	ecx,BAAD90CE
	push	ds
	pop	ss
	pop	edi
	mov	dh,BE
	mov	esi,F45743E1
	dec	ebp
	in	al,17
	nop	
	or	esp,[ecx-0E]
	mov	ebx,908E8990
	leave	
	sahf	
	out	dx,ax
	adc	al,41
	pop	ss
	sti	
	xlat	
	mov	edi,19F293BF
	adc	al,bl
	nop	
	movsd	
	dec	esi
	rcr	[edi+C3E2A882],cl
	mov	edi,9EE9BFBF
	and	byte ptr [ebp+7EE9BF5E],80
	movsd	
	dec	esi
	pop	ss
	ret	
	mov	edi,27232CBF
	push	ebp
	loop	00401AF0
	pop	ss
	jge	00401AF4
	pushf	
	inc	ecx
	cmp	eax,BE751B3B
	mov	esi,AB451DBE
	fild	word ptr [ebx]
	jge	00401B02
	ja	00401AAC
	mov	edi,157BBFBF
	mov	edx,7DDBA988
	pop	ss
	bound	ebp,[esi+B7C3BEBE]
	pusha	
	xchg	eax,ebx
	imul	eax,[ebx+B27ED190],C9
	sahf	
	pop	ss
	sar	gs:[edi+BE1808BF],cl
	mov	esi,AC82BCBE
	illegal	
	sar	[edi+BEBEEABF],cl
	mov	esi,E9BF7DBC
	retf	
	sbb	ecx,[esi-39]
	mov	edi,D32A17BF
	mov	edi,2A5A7EBF
	pop	ds
	inc	ebp
	push	ecx
	xchg	eax,edi
	mov	bl,9E
	mov	esi,710B9069
	sub	eax,BEFE6A90
	mov	esi,CF7217BE
	mov	edi,8DD3CABF
	jpo	00401B8D
	dec	ecx
	adc	al,A9
	mov	al,17
	mov	dh,92
	xchg	eax,edi
	sub	byte ptr [eax+BFBFD7C0],B2
	push	ecx
	scasb	
	mov	al,D1
	scasb	
	sahf	
	and	byte ptr [eax+BFBFD734],41
	pop	ss
	test	ebx,eax
	mov	edi,4F2472BF
	out	76,al
	cmp	byte ptr [ebx-05],F2
	mov	ebx,AEA3B059
	mov	ecx,82CB89D2
	mov	ah,1D
	mov	edx,0F41BEBE
	sbb	[B2F3EEBE],bl
	rep	
	nop	
	popf	
	pop	esi
	cwde	
	mov	ebx,ecx
	nop	
	dec	ecx
	mov	ss,dx
	xchg	eax,edi
	illegal	
	pop	ss
	mov	[edx+45B7BEBE],edi
	in	al,dx
	push	edi
	sbb	eax,9E1722B8
	mov	dh,BE
	mov	esi,BEBA071B
	mov	esi,A8828F12
	mov	dl,BE
	mov	esi,BEBA431B
	mov	esi,BFCF2F17
	mov	edi,821B770C
	lodsb	
	imul	ebx,edi,9772BFBF
	pop	ss
	stosb	
	mov	dl,BE
	mov	esi,C3D8F72B
	lahf	
	mov	[BF7D1322],al
	jmp	8EE9A45B
	jge	00401B67
	test	eax,BF157D9E
	sbb	eax,3B3D419C
	sbb	ebp,[ebp+17BFBFBF]
	mov	ecx,75BFBFDB
	stosb	
	jnc	00401B90
	mov	[ecx+D1B7B0BF],bl
	mov	al,D7
	rol	dword ptr [edx+BFDBE0A8],01
	mov	edi,909EA990
	mov	[esi+177E6990],ecx
	push	eax
	mov	esi,B3B2BEBE
	push	ebp
	inc	esi
	pop	eax
	cld	
	fstsw	word ptr [edi+E9BF4BE9]
	cmp	ebx,[ebx]
	xor	eax,90BEBEB2
	dec	ecx
	imul	esi,[edx+F1BFCE51],6D
	mov	edi,E9BF6BE9
	cmp	ebx,[ebx]
	mov	dl,D3
	mov	edi,D7EC17BF
	mov	edi,7D65FDBF
	inc	edx
	pop	dword ptr [edx-7E]
	jge	00401C65
	pushf	
	inc	ecx
	cmp	eax,C3371B3B
	mov	edi,06B71DBF
	pop	ebx
	idiv	dword ptr [ebp+1B]
	cmp	eax,BFBFBFC7
	jpo	00401BEF
	test	eax,AEB397FB
	mov	esi,BFCF6717
	mov	edi,F34D13B0
	sub	eax,616548EA
	nop	
	test	eax,CEBDB29E
	nop	
	imul	ebx,[esi+B2DDBD90],90DB90B3
	std	
	pop	ss
	retf	
	ret	
	mov	edi,8A5272BF
	xchg	eax,ebp
	test	eax,73F2AF90
	fcom	dword ptr [esi+DFBEBEBE]
	div	dword ptr [edx+B257B25B]
	push	ebx
	nop	
	xchg	eax,ebx
	out	dx,ax
	sub	al,17
	illegal	
	mov	dword ptr [edi+73598EBF],9EFAF592
	cli	
	jle	00401CF5
	inc	ebp
	xchg	eax,edi
	mov	bl,8E
	mov	esi,BFDF4917
	mov	edi,DF01D352
	adc	eax,A91A34C5
	illegal	
	mov	ebx,8EA91A96
	mov	al,C9
	mov	ds,[esi+CBAEA882]
	mov	edi,DBA990BF
	inc	ecx
	inc	ebp
	push	ecx
	pop	ss
	add	ebx,ecx
	mov	edi,057208BF
	mov	al,[8690793E]
	mov	dl,93
	repne	
	mov	ebx,BBB7A60F
	mov	[BCB9BAF6],al
	fidivr	dword ptr [esi+8E17E7E9]
	retf	
	mov	edi,E9EDB2BF
	les	edi,[ebp+1D]
	pushf	
	inc	ecx
	cmp	eax,C3361B3B
	mov	edi,1D101DBF
	mov	dl,EB
	jge	00401D32
	cmp	bl,cl
	mov	edi,17AF7DBF
	push	edx
	xlat	
	mov	edi,5FD4F8BF
	rep	
	jo	00401D98
	jbe	00401D57
	nop	
	dec	edx
	illegal	
	mov	esi,8E5190BE
	nop	
	jno	00401CC4
	nop	
	illegal	
	mov	ss,[edi]
	in	eax,dx
	mov	dword ptr [edi+CFF017BF],1517BFBF
	mov	dword ptr [edi+63361ABF],AE2B462A
	fistp	qword ptr [ebx-50]
	illegal	
	jmp	B312CFFB
	leave	
	sahf	
	mov	edx,B6A3B062
	pop	ss
	daa	
	mov	dword ptr [edi+176241BF],B7B28959
	cwde	
	test	eax,3B49908B
	mov	edi,E9BF8BE9
	jpo	00401DEA
	sbb	esi,[edx]
	fistp	qword ptr [edi+241B71BF]
	mov	esi,AF90BEBE
	pop	ss
	sbb	eax,8EBFBFE3
	rep	
	mov	ebx,[esi+ebx*8+A5669452]
	jbe	00401E09
	scasd	
	repne	
	xchg	eax,edi
	mov	ecx,BFCF561B
	mov	edi,BFE71517
	mov	edi,A1D06A63
	lodsd	
	jz	00401DFD
	push	2C
	lock	
	mov	dh,1B
	stosb	
	iret	
	mov	edi,F2E3F1BF
	xchg	eax,edi
	sbb	ecx,ebx
	sar	[edi+2BB082BF],cl
	mov	dword ptr [edi+1BBBF2BF],BFBFD3FF
	pop	ss
	mov	dh,D7
	mov	edi,741BE7BF
	add	[edx+BFE7ABA8],al
	mov	edi,2E6E4F5D
	pop	ebp
	fdiv	double ptr [edx+F2BEBEBE]
	jnc	00401E0B
	test	[ebx],bl
	pop	ss
	jo	00401DA9
	mov	esi,376DC1BE
	mov	eax,BF4EF1BF
	illegal	
	fidivr	word ptr [edi+F1BF4EF1]
	dec	esi
	sbb	edi,ecx
	jcxz	00401DC1
	mov	edi,BFCB361B
	mov	edi,BFCF2E1B
	mov	edi,2D3BA998
	nop	
	mov	bh,dh
	mov	esi,B998BEBE
	sahf	
	pop	ss
	retf	
	mov	dword ptr [edi+F50614BF],96D8A21D
	adc	esi,[ebx+9069BE8E]
	or	esi,[eax+6571CBAB]
	popa	
	pop	ss
	mov	ebp,DBBFBFDB
	pushf	
	xchg	eax,ebp
	ret	
	std	
	inc	edx
	ret	9069
	or	esp,[ebp+61]
	nop	
	jmp	9103AEE8
	mov	[esi+177E6990],ecx
	cmp	ebx,esp
	mov	edi,C1A69DBF
	imul	ebx,[ebx+BF6953D2],1B712BE9
	push	ebx
	mov	edi,A9DFBFBF
	retf	
	scasb	
	mov	esi,AC82BEBE
	and	edi,177DBFBF
	into	
	out	BF,al
	mov	edi,79D671F3
	mov	cl,53
	int	85
	and	eax,9B771B8C
	cmc	
	xlat	
	nop	
	test	eax,5BA998DB
	nop	
	test	eax,17AA0F0B
	inc	edi
	xlat	
	mov	edi,1BB79DBF
	adc	byte ptr [edi],9B
	xlat	
	mov	edi,7F8D44BF
	mov	bh,09
	sbb	esi,[eax-21]
	mov	edi,CBA9DFBF
	jle	00401E6D
	mov	esi,2DAC82BE
	mov	dword ptr [edi+3BE9BFBF],BFE7E81B
	mov	edi,BF4BE9BF
	jmp	CF7D3A03
	mov	edi,BEAF17BF
	mov	esi,B2677BBE
	hlt	
	pop	ss
	mov	[78BFBFDB],eax
	popf	
	mov	bh,3B
	sahf	
	or	al,1B
	in	al,dx
	ret	
	mov	edi,C9BECABF
	mov	esi,FCB082BE
	fstp	tword ptr [edi+DB3817BF]
	mov	edi,B69986BF
	jns	00401EB4
	mov	eax,[710B907E]
	popa	
	nop	
	dec	ecx
	sahf	
	nop	
	outsd	
	pop	ss
	xchg	eax,ebx
	out	BF,al
	mov	edi,4E226325
	mov	al,[EBA98836]
	jge	00401F31
	pushf	
	inc	ecx
	cmp	eax,CB6A1B3B
	mov	edi,F9721DBF
	xchg	eax,edx
	clc	
	jge	00401F3F
	insb	
	sar	[edi+D34017BF],cl
	mov	edi,D565D2BF
	xchg	[eax],ch
	inc	esi
	jcxz	00401F4A
	mov	edi,3D419C1D
	cmp	ebx,[ebx]
	rep	
	iret	
	mov	edi,71251DBF
	mov	dh,B5
	jge	00401F62
	stc	
	sar	[edi+907BBFBF],cl
	test	eax,7717979E
	sar	[edi+C1E998BF],cl
	mov	dl,BF
	jmp	EC29DF5B
	mov	edi,1B712BE9

fn00401F61()
	jmp	735B9091
00401F66                   E7 BF BF 98 A9 2B BF E9 DB 17       .....+....
00401F70 1B C3 BF BF 3A 3C 7E 80 99 CC 3C 90 C9 9E EF 2C ....:<~...<....,
00401F80 90 9F 41 45 97 B3 8E BE 69 17 8E CF BF BF 4A A3 ..AE....i.....J.
00401F90 28 97 90 49 6B B2 51 CE 88 51 5E BF F1 DE 80 A9 (..Ik.Q..Q^.....
00401FA0 4B BF F1 DE 17 99 C3 BF BF A7 AB 65 D9 A4 F3 40 K..........e...@
00401FB0 F9 2D 67 85 D4 02 2B E8 AC                      .-g...+..      

fn00401FB9()
	lea	esp,[esp+04]
	mov	dh,D2
	neg	bl
	add	eax,esi
	or	ah,al
	or	ch,ah
	mov	edi,edx
	pop	ecx
	add	dh,bl
	mov	al,bh
	call	004023A3
	xchg	[edx+ecx*2+8DA48978],ebx

fn00401FD4()
	pushf	
	dec	edx
	js	00401F61
	movsb	

fn00401FD9()
	lea	esp,[esp+04]

fn00401FDA()
	and	al,04
	add	eax,ecx
	xor	esi,ebx
	inc	ecx
	mov	eax,ecx
	or	ecx,edx
	xor	ah,al
	call	00402C76
	jno	00401FD4

fn00401FEF()
	arpl	sp,bx
	fmul	dword ptr [ebp+8A042464]

fn00401FF2()
	lea	esp,[esp+04]
	mov	bl,dh
	sub	ebx,edi
	add	bh,cl
	add	eax,08
	xor	bl,bh
	call	0040262F
	jz	00402008

l00402008:
	retf	B346
0040200B                                  48 37                     H7  

fn0040200D()
	pop	dword ptr [esp-0C]

fn00402010()
	hlt	

fn00402011()
	sub	bl,dl
	dec	ebx
	xor	ebx,eax
	push	dword ptr [eax+10]
	or	edi,ecx
	mov	esi,eax
	or	bh,al
	inc	ebx
	call	004024FE
	mov	dword ptr [ebx+E2783ABA],24648D36

fn0040202C()
	lea	esp,[esp+04]
	dec	edx
	neg	dl
	sub	dh,bh
	sub	esi,edx
	sub	eax,ecx
	call	00401FD9
	illegal	
	mov	ecx,C992E202

fn00402045()
	lea	esp,[esp+04]
	xor	bh,dl
	xor	bl,bh
	xor	edi,esi
	sub	ecx,edi
	inc	esi
	mov	dh,al
	sub	edx,ecx
	mov	dl,ah
	sub	bl,ch
	call	004023DA
	sbb	[ecx+648D0694],ch

fn00402063()
	lea	esp,[esp+04]

fn00402065()
	and	al,04
	or	edx,ecx
	add	al,dl
	push	40
	mov	bh,al
	or	eax,edx
	or	edi,esi
	add	ebx,esi
	xor	ch,dl
	call	0040269B

fn0040207C()
	mov	eax,03D9BCFF
	jnz	00402010

fn00402082()
	lea	esp,[esp+04]

fn00402083()
	and	al,04
	xor	ecx,edx
	xor	ebx,edx
	xor	cl,al
	add	cl,dh
	mov	ecx,edi
	add	ebx,edi
	inc	ebx
	neg	bl
	call	00402292

l0040209A:
	out	EC,al
	ret	3725
0040209F                                              32                2
004020A0 CB 5E 8F 44 24 E4 02 CB B5 DC 43 02 FC 02 FA 0B .^.D$.....C.....
004020B0 F2 02 CC E8 08 00 00 00 D2 FC BB 20 29 1D A8 F8 ........... )...
004020C0 8F 44 24 D0 0B CF 03 CB 0B CB 81 EA 3A 52 9A F7 .D$.........:R..
004020D0 B5 E8 E8 F6 0C 00 00 21 B2 CA 11 E6 2F 97 4B    .......!..../.K

fn004020DF()
	pop	dword ptr [esp-24]
	sub	bl,cl
	add	ebx,eax
	add	bh,cl
	sub	edi,ebx
	neg	bl
	mov	bh,al
	cmp	eax,0032FECB
	jnz	00402D69

l004020FB:
	mov	bh,dh
	call	00402DEA
	jno	00402175

l00402104:
	popf	
	test	[edi+03CC2444],ecx

fn00402106()
	pop	dword ptr [esp-34]
	add	esi,ebx

l0040210B:
	rep	
	mov	bh,BD
	sub	esi,edi
	mov	edx,esi
	inc	eax
	sub	bl,ch
	mov	dl,95
	xor	bl,cl
	call	00402535
	inc	esp
	mov	edx,8D7F30B4

fn00402123()
	lea	esp,[esp+04]
	or	edi,ecx
	sub	bl,dh
	xor	edi,edx
	or	edx,ecx
	dec	edi
	mov	bl,dh
	mov	ebx,esi
	push	eax
	or	ecx,edi
	call	00402419
	rcr	byte ptr [ecx+60],01
	mov	esi,8FAB7DB8

fn00402143()
	pop	dword ptr [esp-28]
	mov	ebx,esi
	mov	ch,3D
	inc	esi
	add	bl,ah
	sub	ecx,ebx
	call	00402B83

fn00402155()
	inc	esp
	mov	ebp,8D04A0E7

fn0040215A()
	lea	esp,[esp+04]

fn0040215B()
	and	al,04
	or	ebx,eax
	sub	cl,bl
	dec	ecx
	or	ebx,edi
	mov	bh,0F
	mov	bh,dl
	add	ebx,ecx
	dec	ecx
	dec	edi
	call	004022C7

fn00402172()
	xor	al,4E
	int	76

fn00402175()
	jbe	00402198

l00402177:
	xor	edx,esp
	bound	ecx,[edi+03D42444]

fn0040217A()
	pop	dword ptr [esp-2C]
	add	esi,edi
	mov	esi,edi
	mov	esi,eax
	mov	bl,D7
	push	dword ptr [edx+08]
	call	00402345
	pop	ss
	jc	0040219A
	add	cl,[ebp+F6042464]

fn00402192()
	lea	esp,[esp+04]
	neg	bh

fn00402198()
	inc	edi
	neg	dl

l0040219A:
	illegal	
	fidiv	word ptr [ebx]
	lock	
	xor	dh,al
	add	dh,dl
	sub	edi,eax
	sub	ch,dl
	call	00402946
	mov	ch,4F
	adc	ch,al

fn004021B0()
	lea	esp,[esp+04]
	add	bl,cl
	add	bl,ch
	or	bl,ch
	mov	esi,eax
	xor	bh,ah
	call	004023FA
	push	cs
	in	eax,dx
	les	edi,[A724CEC8]

fn004021CB()
	mov	[esp],esi
	xchg	ax,ax
	repne	
	pop	esi
	dec	edi
	dec	ebx
	mov	bl,ah
	or	esi,ecx
	inc	ebx
	call	00402D73
	leave	
	leave	
	illegal	
	push	ds
	xchg	eax,ecx

fn004021E6()
	lea	esp,[esp+04]
	add	edx,ebx
	mov	cl,bl
	mov	dh,[esi]
	mov	bh,cl
	add	ecx,edi
	call	004025BE
	mov	dh,DA
	stosd	
	dec	edx
	lea	esp,[esp+04]
	neg	bh
	lea	edx,[eax+000000F8]
	add	bl,bh
	add	bh,dl
	mov	bh,dl
	mov	bl,B8
	sub	edi,ebx
	inc	ebx
	dec	ebx
	call	0040217A
	dec	bl
	mov	gs,[esi+648DE1A1]

fn00402220()
	lea	esp,[esp+04]

fn00402222()
	and	al,04
	mov	bl,8B
	sub	bl,dl
	mov	bl,cl
	add	bl,ah
	add	bl,ah
	mov	bl,bh
	inc	edi
	dec	ebx
	call	004021B0

fn00402237()
	jcxz	004022B3

fn00402239()
	add	eax,648DCCED

fn0040223C()
	lea	esp,[esp+04]

fn0040223E()
	and	al,04
	inc	ebx
	mov	bl,dl
	dec	ebx
	or	bl,al
	xor	ebx,edx
	add	bl,bh
	cmp	ecx,9B39C455
	jnz	004026C6

fn00402256()
	call	00402EAE
	sbb	dword ptr [esi+048935B6],24

fn0040225F()
	mov	[esp],eax

fn00402262()
	mov	bl,bl
	pop	eax
	sub	ecx,ebx
	dec	edx

fn00402268()
	dec	ebx
	mov	edi,933EAC76
	call	00402AAD
	add	[eax+BB6135D1],ch
	push	edi
	test	al,87

fn0040227B()
	xchg	[esp],edx

fn0040227C()
	adc	al,24
	mov	ebx,ebx
	pop	edx
	dec	esi
	add	dh,bl
	pop	esi
	neg	dh
	call	00402B67
	daa	
	pop	dword ptr [esi+esi*2+1C89BC38]

fn00402292()
	mov	[esp],ebx

fn00402294()
	and	al,66
	mov	edx,edx
	pop	ebx
	dec	ebx
	add	ebx,eax
	mov	ebx,edi
	sub	bl,ch
	call	00402A08

fn004022A5()
	xchg	eax,esp
	push	edx
	lahf	
	in	al,8D

fn004022A9()
	lea	esp,[esp+04]

fn004022AA()
	and	al,04
	add	edi,edx
	dec	ecx
	dec	ecx
	mov	esi,eax

fn004022B3()
	or	bh,ch
	or	bl,al
	add	bh,ch
	or	ecx,edx
	call	00402B9B

fn004022C0()
	wait	
	aam	FA
	jg	00402268

fn004022C5()
	dec	edi
	int	8F

fn004022C7()
	pop	dword ptr [esp-1C]
	mov	ecx,eax
	or	ch,al
	xor	cl,ch
	or	ecx,edx
	mov	bh,01
	sub	bl,dl
	or	bh,ah
	or	ch,bl
	sub	ebx,esi
	call	00402082
	sbb	[eax+8979EECB],dh
	sbb	al,24
	repne	
	xchg	edi,edi

fn004022ED()
	pop	ebx
	sub	edi,eax
	sub	edi,ebx
	mov	bl,18
	xor	ebx,edi
	inc	ebx
	call	00402585
	pop	ss
	pshufd	xmm0,xmm5,D7
	mov	cl,E7
	inc	ebx

fn00402304()
	xchg	[esp],esi
	lea	edi,[edi]
	pop	esi
	movzx	edx,al
	xor	edi,eax
	xor	bl,al
	sub	esi,ecx
	xor	esi,ecx
	mov	ebx,eax
	or	esi,edi
	call	00402716
	aam	B2
	fdivr	double ptr [0235306E]

fn00402326()
	mov	[esp],esi
	xchg	eax,eax
	pop	esi
	mov	dl,dh
	add	bl,ch
	xor	ecx,edi
	inc	ebx
	inc	ebx
	xor	bh,dl
	mov	cl,F1
	call	0040297A
	aaa	
	test	[eax],ecx
	jz	004022ED

l00402342:
	cld	
	xchg	eax,ebp
	and	cl,[edi+02CC2444]

fn00402345()
	pop	dword ptr [esp-34]
	add	bh,cl
	sub	edi,esi
	mov	esi,eax
	xor	edi,eax
	inc	esi
	add	bl,al
	add	bl,ch
	mov	bl,dh
	or	bl,ah
	call	004028E0
	xor	byte ptr [ebp+56],72
	illegal	

fn00402364()
	pop	dword ptr [esp-2C]
	dec	ecx
	mov	cl,5F
	mov	ch,al
	inc	ebx
	or	ch,dl
	mov	dh,81
	call	00402A93
	mov	[edx],ss
	test	ebx,ebp
	inc	esi
	lea	esi,[eax]

fn0040237E()
	lea	esp,[esp+04]
	or	ebx,ecx
	xor	ch,dl
	add	eax,0000041B
	xor	edi,ecx
	mov	ch,bh
	or	edi,edx
	or	edi,ecx
	mov	dh,cl
	call	00402123
	cmc	
	push	edi
	mov	edi,EB37F164
	sbb	eax,E9241489

fn004023A3()
	mov	[esp],edx
	jmp	004023AB

fn004023A7()
	add	[eax],al
	add	[eax],al

fn004023AB()
	mov	eax,eax
	pop	edx
	sub	bl,ch
	dec	edx
	mov	edi,esi
	call	00402CCC
	pop	eax
	lea	ebx,[edi+0487ACE6]

fn004023BD()
	xchg	[esp],eax

fn004023BF()
	and	al,66
	push	ebx
	pop	bx
	pop	eax
	inc	edx
	or	ch,dl
	mov	esi,eax
	or	ebx,eax
	xor	bh,dh
	or	ebx,esi
	call	004027AF
	push	ebp
	xchg	eax,ebp
	pop	ebp
	cmc	
	dec	edi

fn004023DA()
	lea	esp,[esp+04]
	xor	ecx,eax
	sub	edi,eax
	mov	[esp-08],eax
	xor	bl,ah
	mov	edi,esi
	mov	ecx,edi
	xor	dl,bh
	neg	ch
	call	00402E27
	js	0040243A

l004023F7:
	push	esp
	mov	bh,E2

fn004023FA()
	xchg	[esp],edi
	mov	bh,bh
	lea	bx,[ebx]
	pop	edi
	add	eax,0032FD94
	xor	bh,bl
	sub	bl,al
	dec	ebx
	inc	ebx
	call	00402755
	and	[ecx-78],ah
	scasd	
	out	89,al

fn00402419()
	mov	[esp],ecx

fn0040241A()
	or	al,24
	repne	
	jmp	00402422
	pop	ecx
	mov	ebx,eax
	mov	cl,A9
	mov	bh,CE
	xor	edi,esi
	xor	ch,bl
	xor	dl,ch
	mov	edi,eax
	call	00402A2F
	mov	eax,43AB83DC

fn0040243A()
	inc	ebx
	add	bh,dh
	push	es

fn0040243E()
	xchg	[esp],esi
	rep	
	pop	esi
	xor	ebx,ecx
	mov	bh,F2
	or	ebx,edx
	mov	eax,[eax]
	mov	edi,esi
	neg	bh
	or	bh,ah
	call	004027D1
	mov	ebp,6CC0E527
	or	eax,[edx-1F]
	xchg	[esp],edx
	jmp	00402466
	pop	edx
	neg	bh
	sub	bh,ah
	mov	bl,75
	xor	ebx,eax
	mov	ebx,esi
	call	004022E7
	pop	dword ptr [edi]
	into	
	jge	004024AA

fn0040247B()
	lea	esp,[esp+04]
	xor	esi,edx
	sub	esi,ecx
	add	eax,ecx
	sub	esi,ebx
	neg	bh
	neg	bh
	call	004028C4
	hlt	
	inc	esi
	scasd	
	adc	dl,[edx]
	and	al,A9
	adc	al,8F

fn00402498()
	pop	dword ptr [esp-20]
	mov	bh,15
	dec	ebx
	mov	ch,bl
	xor	bl,bh
	add	ecx,edx
	call	00402326
	out	dx,al
	sbb	esi,ebx
	in	eax,dx

fn004024AE()
	pop	dword ptr [esp-20]
	mov	ch,dl
	add	bh,dh
	add	bl,ch
	neg	cl
	xor	bh,al
	mov	ecx,esi
	call	00402143
	sbb	edi,eax
	pop	es
	push	edi
	mov	cl,fs:[ecx+51662434]

fn004024C9()
	mov	[esp],esi
	push	cx
	pop	cx
	pop	esi
	inc	ebx
	mov	bh,dh
	add	edx,ecx
	call	00402AF9

fn004024DB()
	mov	ecx,E4894B58
	or	[edi+24648DCB],esi

fn004024E3()
	lea	esp,[esp+04]

fn004024E6()
	add	al,81
	neg	esi
	mov	al,[F902933E]
	dec	ebx
	mov	bh,4A
	xor	dh,ah
	call	004026B6
	nop	
	adc	dh,DA
	stc	

fn004024FE()
	lea	esp,[esp+04]
	or	bl,dl
	mov	bh,ch
	or	bl,bh
	or	edi,ebx
	add	edi,ebx
	or	bh,ah
	call	00402773

fn00402513()
	fidiv	dword ptr [edx+448F0CCF]

fn00402517()
	pop	dword ptr [esp-1C]

fn00402519()
	and	al,E4
	neg	dh
	xor	bl,al
	xor	bl,ch
	dec	ebx
	mov	al,05
	mov	dh,5B
	or	eax,ecx
	pop	eax
	call	0040254E

fn0040252E()
	pop	edi
	xchg	eax,ebx
	call	C6533762

fn00402535()
	pop	dword ptr [esp-10]
	mov	al,cl
	xor	esi,edx
	add	eax,edi
	shl	ecx,0F
	sub	bh,dl
	call	00402CB4
	test	eax,666CE46C

fn0040254E()
	pop	dword ptr [esp-1C]
	mov	dl,53
	or	dh,ah
	sub	esi,edi
	neg	bl
	add	edx,edi
	call	004026D6
	illegal	
	add	edx,[ebx]
	pop	es
	mov	[esp],edx
	lea	di,[edi]
	pop	edx
	xor	esi,eax
	sub	bh,cl
	dec	esi
	add	bl,ch
	sub	bl,ah
	add	eax,[eax+3C]
	mov	bl,dl
	call	0040245E
	mov	si,ds
	push	esi
	pop	ss
	out	dx,ax

fn00402585()
	mov	[esp],ebx
	rep	
	mov	dh,dh
	pop	ebx
	or	bl,bh
	mov	bl,29
	dec	edi
	xor	esi,edi
	call	004021FD
	test	[edi-4E],esi
	jmp	far 8FED:F694

fn0040259F()
	pop	dword ptr [esp-28]
	xor	edi,ecx
	dec	edi
	shr	eax,10
	mov	esi,edi
	sub	edi,esi
	sub	esi,ecx
	xor	edi,ecx
	call	004025F9
	cmp	[edi+45803A0C],esp
	mov	esi,24448F86

fn004025BE()
	pop	dword ptr [esp-14]

fn004025C1()
	in	al,dx
	neg	bh
	mov	ecx,edi
	add	ecx,edi
	or	cl,ah
	sub	ebx,esi
	mov	ebx,ecx
	mov	ch,46
	xor	ch,dh
	call	00402E97
	into	
	rcl	[8DD866BC],cl

fn004025DD()
	lea	esp,[esp+04]
	inc	ebx
	add	cl,bl
	mov	dl,03
	sub	bh,cl
	inc	edi
	mov	cl,CF
	dec	edx
	xor	bl,ch
	add	cl,dl
	call	0040237E
	xor	edx,eax
	illegal	
	stosb	

fn004025F9()
	lea	esp,[esp+04]
	inc	edi
	mov	esi,edi
	add	eax,edx
	add	edi,eax
	sub	esi,edx
	call	00402B49
	mov	esp,F25521F8
	bound	ecx,[edi+41F02444]

fn00402611()
	pop	dword ptr [esp-10]
	inc	ecx
	mov	ch,dh
	xor	edi,edx
	sub	ebx,eax
	add	dh,bh
	or	edi,esi
	add	bl,ch
	mov	edi,ecx
	call	00402A5E
	cdq	
	sets	byte ptr [esi+448F2983]

fn0040262F()
	pop	dword ptr [esp-20]
	neg	bl
	sub	ebx,esi
	dec	edi
	mov	edi,eax
	mov	bl,93
	neg	bl
	mov	bl,F7
	call	0040243E
	mov	[0730AF30],al
	xor	al,46
	bound	ecx,[ebp+43042464]

fn0040264D()
	lea	esp,[esp+04]
	inc	ebx
	xor	bl,al
	mov	bh,D3
	mov	bh,A5
	xor	ebx,edx
	call	0040223C
	push	ecx
	sbb	eax,13B33A10
	bound	ebp,[edx]

fn00402667()
	pop	dword ptr [esp-24]
	mov	dl,2D
	mov	al,25
	shr	ecx,0F
	neg	ah
	add	eax,ebx
	xor	ebx,edx
	xor	eax,edi
	call	00402106
	cmp	ebp,[edi+19]
	cdq	

fn00402683()
	lea	esp,[esp+04]

fn00402687()
	add	ecx,edx
	sub	esi,ebx
	sub	dl,cl
	sub	cl,bl
	inc	edi
	call	00401FB9
	add	al,AA
	out	9E,al
	call	2484B655

fn0040269B()
	pop	dword ptr [esp-30]
	inc	esi
	xor	edi,eax
	mov	ch,82
	sub	eax,edi
	dec	edi
	or	ecx,esi
	call	00402B2D
	adc	dh,bh
	shl	byte ptr [7343BE75],01

fn004026B6()
	lea	esp,[esp+04]
	sub	cl,bh
	sub	bh,al
	add	edx,ebx
	neg	cl
	mov	dh,2A
	xor	bh,dh

fn004026C6()
	or	bh,dl
	add	ecx,esi
	mov	edx,esi
	call	0040292E
	and	eax,139B9DD2

fn004026D6()
	xchg	[esp],esi
	xchg	cx,cx
	push	di
	pop	di
	pop	esi
	inc	edx
	sub	esi,ebx
	or	bh,dl
	sub	ebx,eax
	add	bl,dl
	call	00402A7A
	mov	eax,3D064A13
	push	eax
	inc	eax

fn004026F6()
	lea	esp,[esp+04]
	mov	edi,ecx
	xor	edx,esi
	xor	dh,bh
	xor	ebx,eax
	add	dh,dl
	or	dh,bl
	sub	esi,edi
	sub	al,bh
	call	00402667
	mov	[edi+D812FB25],ss
	sbb	eax,0424648D

fn00402716()
	lea	esp,[esp+04]

fn0040271A()
	or	edi,ebx
	mov	bh,ah
	dec	esi
	mov	esi,ebx
	mov	bh,05
	movzx	ebx,ah
	call	0040259F
	daa	
	dec	eax
	mov	ah,15
	inc	eax
	xchg	[esp],edi
	xchg	edi,edi
	jmp	0040273A

fn0040273A()
	pop	edi
	mov	dh,C6
	mov	dh,al
	sub	ecx,edx
	add	ch,dl
	sub	eax,0000041B
	xor	bh,dl
	call	004029CB
	cdq	
	shl	dword ptr [edx],58
	ror	[edi+0BF02444],cl

fn00402755()
	pop	dword ptr [esp-10]
	or	ebx,esi

fn0040275A()
	fisubr	word ptr [ebx]
	sti	
	mov	bl,ah
	add	bl,bh
	neg	bl
	mov	bh,97
	sub	esi,eax
	call	004020DF
	jmp	00402796
0040276E                                           44 6B               Dk
00402770 4C 45 73                                        LEs            

fn00402773()
	xchg	[esp],edx
	jz	00402778

l00402778:
	pop	edx
	add	bh,cl
	dec	ebx
	pop	edx
	xor	esi,ebx
	or	esi,ecx
	mov	bh,E9
	call	00402AC5
	push	edi
	inc	ebp
	int	D7
	jpe	00402727
	fadd	double ptr [edi+DB862434]

fn0040278F()
	xchg	[esp],esi
	xchg	bl,bl
	pop	esi
	xor	ebx,ecx

l00402796:
	illegal	
	adc	[edx+CE0A41EE],cl
	mov	bl,81
	sub	bl,bh
	call	00402C26
	push	es
	illegal	
	jpe	00402792
	test	[ebx+4D],al

fn004027AF()
	mov	[esp],esi
	xchg	ch,ch
	xchg	ebx,ebx
	pop	esi
	xor	edx,eax
	inc	edi
	xor	ebx,esi
	add	esi,edi
	neg	bh
	call	eax
	mov	bl,ch
	call	00402045
	sar	[ecx+8209C16F],cl
	mov	dh,97
	xchg	[esp],edx
	mov	dx,dx
	jle	004027D9

l004027D9:
	pop	edx
	inc	ebx
	inc	ebx
	xor	edi,eax
	inc	ebx
	or	edi,esi
	call	0040247B
	adc	dword ptr [edx-28],B4

fn004027E7()
	push	edx
	fdiv	dword ptr [edx+eax+24348799]

fn004027EC()
	xchg	[esp],esi

fn004027EF()
	xchg	si,si

fn004027F0()
	xchg	esi,esi

fn004027F2()
	pop	esi
	neg	dh
	mov	ebx,ecx
	dec	edi
	mov	eax,ebx
	sub	al,dl
	call	00402063

fn00402801()
	mov	dh,[CDF246AC]

fn00402807()
	lea	esp,[esp+04]
	or	bl,ch
	or	edi,edx
	xor	ebx,edx
	mov	bh,61
	mov	bh,2B
	mov	bl,56
	call	00401FF2
	and	dword ptr [eax+C7335C3D],2A

fn00402820()
	xor	eax,edi
	sub	bh,al

fn00402823()
	clc	
	or	esi,ecx
	add	edx,edi
	mov	dh,bl
	add	cl,dh
	or	esi,edi

fn0040282D()
	imul	dword ptr [edx]
	int	03
	or	eax,edi
	mov	ah,cl
	call	004027EC

fn00402839()
	adc	eax,2675839B
	pop	ecx
	idiv	dl

fn00402841()
	lea	esp,[esp+04]
	neg	bl
	or	bh,ch
	or	ecx,edx
	mov	bh,29
	neg	bl
	call	00402BCC
	scasb	
	push	esp
	jbe	0040282D

l00402858:
	jpo	004027E7

fn00402859()
	lea	esp,[esp+04]

fn0040285A()
	and	al,04
	mov	dl,B7
	mov	ch,cl
	xor	esi,eax
	mov	al,ch
	inc	edi
	sub	edi,edx
	call	00402687

fn0040286D()
	call	00402683
	cmp	[ecx],bl
	push	edx
	xchg	[edx+24448FFC],eax

fn00402878()
	pop	dword ptr [esp-30]

fn0040287B()
	shl	byte ptr [edx],01
	int	03
	add	ch,dh
	mov	ch,95
	sub	bh,al
	or	cl,ch
	inc	ecx
	inc	ecx
	call	0040215A

fn0040288D()
	movsd	
	xchg	eax,ecx
	jno	004028E5

fn00402891()
	push	ds

fn00402892()
	mov	[esp],eax
	xchg	ah,ah
	pop	eax
	mov	cl,bh
	inc	esi
	neg	ch
	or	bl,bh
	call	0040227B
	cdq	
	mov	edi,A972CD70
	inc	edx

fn004028AB()
	xchg	[esp],esi
	repne	
	mov	cl,cl
	pop	esi
	add	edx,ebx
	neg	bl
	mov	ah,dl
	call	0040295B
	sub	eax,DC087DD2
	cwde	
	illegal	

fn004028C4()
	pop	dword ptr [esp-14]
	mov	ebx,edi
	mov	bl,ED
	inc	esi
	add	edi,ecx
	add	edi,eax
	inc	esi
	or	bh,ch
	call	0040200D
	mov	edx,edx
	and	al,[ecx+19]
	out	0C,al

fn004028E0()
	pop	dword ptr [esp-20]
	or	bh,ch

fn004028E5()
	std	
	or	bh,dh
	mov	ebx,ecx
	mov	bl,bh
	sub	esi,edi
	call	00402E77
	jmp	C3FDBB78

fn004028F8()
	pop	dword ptr [esp-10]
	sub	ch,dh
	mov	esi,edx
	inc	ebx
	dec	esi
	sub	dh,dl
	sub	dl,al
	sub	cl,ch
	call	00402892
	illegal	
	jpo	004028B9
	push	edi
	sahf	
	popa	

fn00402914()
	xchg	[esp],edx
	xchg	eax,eax
	pop	edx
	xor	bh,bl
	dec	ecx
	mov	ebx,edi
	add	ecx,edi
	call	00402878
	mul	byte ptr [eax+9F7ABA8A]
	mov	esp,24448FFD

fn0040292E()
	pop	dword ptr [esp-14]

fn00402931()
	in	al,dx
	sub	ecx,edx
	mov	edx,esi
	add	dh,ch
	mov	cl,89
	inc	ebx
	add	ch,dl
	call	004021E6
	or	[eax],cl
	mov	esi,eax

fn00402946()
	pop	dword ptr [esp-34]
	push	00
	add	ch,bh
	sub	edi,eax
	inc	esi
	dec	ebx
	call	004023BD
	cwde	
	inc	esp
	dec	esp
	ror	dword ptr [edi+2BE02444],01
	illegal	
	mov	ah,ch
	mov	ch,D8
	or	bh,ch
	ret	
	xor	al,cl
	sub	al,dh
	add	dl,cl
	mov	eax,esi
	call	00402E5E
	push	EB
	push	cs
	lodsd	
	into	

fn0040297A()
	xchg	[esp],ebx
	mov	bl,bl
	xchg	esi,esi
	pop	ebx
	add	ecx,esi
	add	bl,cl
	mov	ebx,edi
	call	0040278F
	jns	00402A01

l0040298F:
	shl	dword ptr [eax+0F],01
	push	edx
	sbb	al,F8

fn00402995()
	mov	[esp],esi

fn00402998()
	lea	si,[esi]
	pop	esi
	dec	ebx
	or	ecx,esi
	mov	bh,E7
	add	ebx,edx
	mov	ch,4F
	add	bl,dh
	mov	bl,BD
	call	00402B15

fn004029AE()
	imul	ebp,ebp,72
	sub	al,3B

fn004029B3()
	lea	esp,[esp+04]
	add	edi,esi
	xor	cl,dh
	xor	ebx,esi
	or	ebx,esi
	neg	ch
	call	0040225F
	illegal	
	retf	
	jns	004029A7

fn004029CB()
	pop	dword ptr [esp-30]
	mov	dh,5D
	mov	bl,D5
	add	bh,dl
	xor	bh,bl
	xor	dh,dl
	xor	bh,dh
	or	dl,bh
	add	edx,ecx
	call	00402D43
	xlat	
	lds	ebp,[ebx]
	push	DC50DD79

fn004029EC()
	mov	[esp],edi
	mov	al,al
	mov	eax,eax
	pop	edi
	add	bl,al
	or	ebx,edi
	inc	ebx
	mov	ebx,esi
	inc	ebx
	call	0040264D

fn00402A01()
	mov	es,si
	inc	esi
	mov	bl,CF
	loope	00402998

fn00402A08()
	pop	dword ptr [esp-2C]

fn00402A09()
	inc	esp
	and	al,D4
	or	ebx,edi
	mov	bl,ch
	sub	bh,ch
	mov	bh,D3
	mov	bl,ch
	add	bh,dl
	add	bl,ah
	xor	bl,dh
	sub	ecx,64C63BAB
	call	004029EC

fn00402A27()
	int	EE
	test	al,59
	nop	
	push	es
	std	
	lea	esp,ss:[esp+04]
	inc	ecx
	neg	bh
	mov	ecx,esi
	mov	edi,esi
	or	dh,bh
	mov	cl,bl
	call	00402730
	call	8D94DBF5

fn00402A47()
	lea	esp,[esp+04]
	mov	edi,ecx
	or	ebx,ecx
	or	edi,edx
	neg	bl
	push	ecx
	pop	eax
	call	004021CB
	xor	al,76
	mov	dword ptr ss:[ebp+8A042464],33CB0AF3

fn00402A5E()
	lea	esp,[esp+04]
	mov	dh,bl
	or	cl,bl
	xor	edx,eax
	mov	bh,A1
	inc	edi
	or	ecx,ebx
	call	004025DD

fn00402A72()
	sub	[esi],ah
	add	eax,F310C9BD
	fimul	word ptr [ecx+D28B240C]

fn00402A7A()
	mov	[esp],ecx
	mov	edx,edx

fn00402A7F()
	pop	ecx
	mov	ebx,edx
	mov	bl,A1
	mov	dh,FF
	mov	dh,4A
	dec	edx
	call	00402304

fn00402A8E()
	mov	byte ptr [edx-5F],8C
	push	F3240489

fn00402A93()
	mov	[esp],eax
	rep	

fn00402A97()
	pop	eax
	add	dh,cl
	mov	bl,3D
	xor	bh,dh
	xor	dh,ch
	neg	cl
	call	004024E3
	imul	edx,[05D12BEE],8B241C89

fn00402AAD()
	mov	[esp],ebx
	mov	esi,esi

fn00402AB1()
	div	bl
	pop	ebx
	dec	ebx
	sub	cl,dh
	sub	dh,ch
	mov	edx,edi
	inc	ebx
	call	00402364

fn00402AC1()
	call	word ptr [ebx+6A]

fn00402AC5()
	lea	esp,[esp+04]
	mov	bl,E5
	mov	ebx,ecx
	mov	bl,bh
	xor	ebx,edx
	add	esi,ecx
	call	004024C9

l00402AD6:
	illegal	

l00402AD8:
	jno	00402AD8

l00402ADA:
	pop	ecx
	out	DF,al
	popf	
	dec	eax
	lea	esp,gs:[esp+04]

fn00402AE0()
	lea	esp,[esp+04]

fn00402AE4()
	xor	cl,dl
	mov	eax,edi
	mov	al,ch
	or	dl,dh
	inc	esi
	add	cl,ah
	call	00402859

fn00402AF4()
	jc	00402AD6

l00402AF6:
	adc	al,40
	outsd	

fn00402AF9()
	lea	esp,[esp+04]
	mov	ch,al
	sub	bl,ah
	xor	bh,al
	or	ch,ah
	xor	ebx,ecx
	inc	edi
	dec	ecx
	or	esi,edx
	call	00402E0D
	inc	esp
	add	ah,70

fn00402B15()
	xchg	[esp],esi
	lea	cx,[ecx]
	pop	esi
	neg	bh
	neg	cl
	sub	cl,bh
	call	00402841
	in	al,94
	lodsb	
	aam	48
	add	[edi+32D42444],ecx

fn00402B2D()
	pop	dword ptr [esp-2C]
	xor	ah,cl

fn00402B32()
	loope	00402B5E

l00402B34:
	shr	dword ptr [ebx],CB
	push	00003000
	add	edx,esi
	add	ah,cl
	call	00402AE0

fn00402B45()
	mov	fs:[edx+24448FD0],esp

fn00402B49()
	pop	dword ptr [esp-30]

fn00402B4C()
	rol	byte ptr [ebx],01
	cli	
	xor	esi,ebx
	or	edi,eax
	add	eax,ebx
	inc	ebx
	or	bh,dl
	add	bl,al
	sub	bl,ch

fn00402B5C()
	call	00402220

fn00402B5E()
	idiv	bh
	jmp	dword ptr [eax+9D0CF587]

fn00402B61()
	test	al,87
	cmc	
	or	al,9D
00402B66                   EF                                  .        

fn00402B67()
	mov	[esp],edi
	mov	ah,ah

l00402B6C:
	pop	edi
	xor	ecx,edx
	neg	ch
	xor	bh,bl
	xor	ecx,ebx
	inc	edx
	sub	dl,dh
	mov	edi,esi
	call	00402611
	sub	edx,[ecx]
	js	00402B6C

fn00402B83()
	xchg	[esp],eax
	push	esi
	pop	esi
	pop	eax
	mov	ebx,eax
	mov	ebx,eax
	dec	ecx
	or	ecx,edi
	xor	ebx,edx
	call	00402C0C
	retf	B976
00402B9A                               2A                          *    

fn00402B9B()
	lea	esp,[esp+04]
	sub	ebx,edx
	add	cl,dh
	sub	ecx,esi
	dec	ebx
	mov	eax,[edx]
	mov	bl,89
	call	00402192
	or	esp,[esi+448FE7C0]

fn00402BB3()
	pop	dword ptr [esp-18]
	or	ecx,esi
	mov	bh,9B
	xor	ecx,esi
	dec	ebx
	sub	esi,ecx
	call	0040202C
	xor	al,cl
	out	ED,al
	push	ds
	jbe	00402B5C

fn00402BCC()
	pop	dword ptr [esp-2C]

fn00402BCD()
	inc	esp
	and	al,D4
	rol	dh,1E
	mov	bh,dh
	sub	ebx,esi
	xor	bl,ah
	mov	ch,2B
	inc	ebx
	xor	bh,dh
	or	cl,bh
	mov	bh,ah
	call	00402498

fn00402BE7()
	and	dword ptr [edi+01E67AF6],7E
	push	edx

fn00402BEF()
	xchg	[esp],esi
	push	eax
	pop	eax
	xchg	ah,ah
	pop	esi
	add	ebx,esi
	mov	ch,8D
	neg	cl
	or	ecx,ebx
	call	00402D1D
	out	0F,al
	illegal	
	mov	ch,E7
	clc	
	mov	edx,50243C87

fn00402C0C()
	xchg	[esp],edi
	push	eax
	pop	eax
	pop	edi
	sub	bh,dh
	xor	ebx,ecx
	xor	ebx,ecx
	inc	eax
	or	cl,bl
	call	00402914

fn00402C1D()
	cld	
	illegal	

fn00402C20()
	out	dx,al
	sbb	bl,cl
	pop	es
	pop	ss
	adc	eax,[edi+00792404]

fn00402C26()
	xchg	[esp],eax
	jns	00402C2B

fn00402C2B()
	mov	ecx,ecx
	pop	eax
	mov	bl,bh
	inc	ebx
	xor	cl,al
	mov	ecx,esi
	call	004024AE
	cld	
	scasd	
	adc	bh,[edx+24648D0A]

fn00402C3F()
	lea	esp,[esp+04]
	add	edi,eax
	xor	dh,cl
	inc	ebx
	or	edx,edi
	xor	dh,bh
	add	edi,ecx
	add	edi,ebx
	xor	ch,dh
	call	004029B3
	shl	byte ptr [ebp+FF303E79],01
	and	ecx,[ebp+F6042464]
	fstenv	word ptr [edi+49CF8BB7]
	or	esi,edi
	call	004020A2
	add	[esi+ebp*8+24],ecx
	aas	
	cmpsd	

fn00402C76()
	lea	esp,[esp+04]
	sub	dh,ah
	mov	esi,edi
	inc	edx
	mov	edx,ebx
	add	al,ch
	add	cl,dh
	sub	al,ah
	call	004028AB
	xor	dl,[ebp+18]
	clc	
	sub	esp,edx
	jnc	00402C1D

fn00402C93()
	mov	[esp],eax

fn00402C94()
	add	al,24
	xchg	dl,dl
	jmp	00402C9D

fn00402C9D()
	pop	eax
	push	dword ptr [ecx]
	xor	edx,eax
	mov	ah,dh
	inc	ebx
	xor	ah,cl
	neg	dl
	call	00402517
	pop	edi
	inc	ebp
	sahf	
	push	edi
	adc	eax,24648D60

fn00402CB4()
	lea	esp,[esp+04]

fn00402CB6()
	and	al,04

fn00402CB7()
	add	al,B7
	and	eax,[esi-4D]
	scasb	
	dec	eax
	dec	edx
	call	00402CE5

fn00402CC4()
	mov	ch,42
	push	ebp
	popa	
	cli	
	rep	
	pop	ds
	test	byte ptr [ebp+4A042464],F6

fn00402CCC()
	lea	esp,[esp+04]
	dec	edx
	neg	bh
	sub	eax,esi
	or	edx,esi
	or	esi,ecx
	inc	edi
	call	00402D5A
	int	03
	xchg	esp,ebp
	push	es
	in	al,83

fn00402CE5()
	pop	dword ptr [esp-1C]

fn00402CE8()
	in	al,0B
	cli	
	sub	edi,ebx
	inc	eax
	mov	dl,dh
	sub	bl,dl
	sub	al,ah
	or	edx,ecx
	call	00402C93

fn00402CFB()
	mov	cl,21
	call	34C81091

fn00402D00()
	xchg	[esp],esi
	rep	
	pop	esi
	or	edi,ebx
	neg	bl
	or	ch,cl
	xor	bh,ah
	inc	ebx
	inc	edi
	neg	cl
	call	00402C5E
	dec	edi
	mov	ah,21
	xor	esi,ebx
	push	eax
	pop	word ptr [esp-10]

fn00402D1D()
	pop	dword ptr [esp-10]
	dec	ebx
	neg	bh
	neg	bh
	mov	cl,83
	not	dh
	call	00402995
	jc	00402D59

l00402D31:
	jle	00402CB6

l00402D33:
	xchg	[esp],eax
	jl	00402D38

l00402D38:
	pop	eax
	mov	esi,eax
	or	ecx,ebx
	mov	bl,dh
	add	ebx,edi
	xor	bh,cl

fn00402D43()
	pop	dword ptr [esp-2C]
	dec	edx
	mov	bl,3A
	mov	cl,4E
	sub	cl,al
	sub	bl,cl
	call	00402C3F
	popa	
	and	ebx,esp
	fidiv	dword ptr [eax-73]

l00402D59:
	jo	00402CE8

fn00402D5A()
	lea	esp,[esp+04]

fn00402D5B()
	and	al,04
	mov	dl,42
	sub	ah,al
	inc	edi
	sub	bh,cl
	sub	dl,cl
	xor	al,dh

fn00402D69()
	dec	ecx
	call	004026F6

fn00402D6F()
	sub	al,4C
	mov	al,[24448FD3]
	fmul	dword ptr [ebx+03F98BF3]
	illegal	
	fsubr	dword ptr [ebx]
	illegal	
	loopne	00402D7B
	illegal	
	push	ebp
	nop	
	jl	00402D50

fn00402D8A()
	mov	[esp],esi
	xchg	ch,ch
	mov	ecx,ecx
	pop	esi
	add	ch,dh
	mov	edi,edx
	mov	ebx,ecx
	sub	edx,0865ADAE
	mov	cl,AC
	dec	edi
	call	00402DAE
	jmp	far 22B9:3122
00402DAB                                  41 28 37                  A(7 

fn00402DAE()
	lea	esp,[esp+04]

l00402DAF:
	and	al,04
	add	bl,bh
	sub	cl,bh
	xor	bh,cl
	mov	bh,dl
	mov	cl,37
	or	edi,eax
	or	bl,ah
	add	ebx,edi
	mov	ecx,edi
	call	00402D00
	mov	esp,89DE33B3
	sbb	al,24
	lea	cx,[ecx]
	jno	00402DD5

l00402DD5:
	pop	ebx
	or	ch,cl
	neg	cl
	mov	bh,60
	or	ebx,edi
	call	004022A9
	inc	ebp
	js	00402DAF

l00402DE6:
	arpl	[edx+3487EE52],bx

fn00402DEA()
	xchg	[esp],esi

fn00402DEC()
	and	al,7A
	add	[esi+53],ah

l00402DEF:
	push	bx

fn00402DF1()
	pop	bx
	pop	esi
	dec	edi
	dec	ebx
	sub	bl,dl

fn00402DF7()
	fidiv	dword ptr [edi+0AF32B22]
	std	
	mov	bl,dl
	call	00402A47

fn00402E05()
	adc	al,55
	push	ds
	jle	00402DF7

fn00402E0A()
	in	al,dx
	test	bh,dl

fn00402E0D()
	lea	esp,[esp+04]
	sub	esi,edi
	dec	ecx
	xor	ebx,eax
	sub	bh,cl
	xor	esi,ebx
	call	00402D8A
	dec	ebp
	xchg	[ebp+F08E7F2A],esp
	arpl	[edi+33D02444],bx

fn00402E27()
	pop	dword ptr [esp-30]
	xor	edx,edi
	or	ecx,esi
	add	ecx,edx
	xor	bh,ch
	add	ch,bh
	call	00402E41
	add	[ebx+41],ah
	lahf	
	iret	
00402E3F                                              CE                .
00402E40 3F                                              ?              

fn00402E41()
	xchg	[esp],edi
	xchg	esi,esi
	lea	edx,[edx]
	pop	edi
	xor	cl,dl
	xor	bl,dl
	or	ch,al
	sub	dl,al
	mov	edx,ecx
	mov	edx,edi
	call	004028F8
	illegal	
	mov	eax,[24048758]
	mov	ecx,ecx
	pop	eax
	sub	bl,ch
	or	edx,ebx
	sub	dl,cl
	mov	al,cl
	call	00402D33
	sub	ecx,3AB07594

fn00402E77()
	pop	dword ptr [esp-30]
	add	bh,ch
	lea	eax,[eax+78]
	sub	bh,al
	or	edi,edx
	sub	bl,al
	add	bl,cl
	add	bl,al
	neg	bl
	call	00402807
	ret	
00402E92       E4 02 2D 79 7E                              ..-y~        

fn00402E97()
	lea	esp,[esp+04]
	xor	ebx,eax
	sub	ch,bl
	mov	bl,dh
	xor	bh,al
	mov	ebx,eax
	call	00402ECB
	cdq	
	illegal	
	cwde	

fn00402EAE()
	lea	esp,[esp+04]
	or	cl,dl
	dec	esi
	mov	dh,60
	or	bh,al
	or	cl,al
	add	dh,ch
	xor	edx,edi
	call	00402BB3
	insd	
	push	ecx
	call	far DBAE:D60F

fn00402ECB()
	pop	dword ptr [esp-28]
	sub	ecx,edx
	inc	ebx
	sub	ecx,edx
	add	bh,al
	mov	cl,70
	add	dh,41
	neg	ch
	inc	ebx
	mov	ch,cl
	call	00402BEF
	retf	F768
00402EE8                         8D A7 00 00 00 00 00 00         ........
00402EF0 00 00 00 00 00 00 00 00 00 00 00 00 00 00 00 00 ................
00402F00 00 00 00 00 00 00 00 00 00 00 00 00 00 00 00 00 ................
00402F10 00 00 00 00 00 00 00 00 00 00 00 00 00 00 00 00 ................
00402F20 00 00 00 00 00 00 00 00 00 00 00 00 00 00 00 00 ................
00402F30 00 00 00 00 00 00 00 00 00 00 00 00 00 00 00 00 ................
00402F40 00 00 00 00 00 00 00 00 00 00 00 00 00 00 00 00 ................
00402F50 00 00 00 00 00 00 00 00 00 00 00 00 00 00 00 00 ................
00402F60 00 00 00 00 00 00 00 00 00 00 00 00 00 00 00 00 ................
00402F70 00 00 00 00 00 00 00 00 00 00 00 00 00 00 00 00 ................
00402F80 00 00 00 00 00 00 00 00 00 00 00 00 00 00 00 00 ................
00402F90 00 00 00 00 00 00 00 00 00 00 00 00 00 00 00 00 ................
00402FA0 00 00 00 00 00 00 00 00 00 00 00 00 00 00 00 00 ................
00402FB0 00 00 00 00 00 00 00 00 00 00 00 00 00 00 00 00 ................
00402FC0 00 00 00 00 00 00 00 00 00 00 00 00 00 00 00 00 ................
00402FD0 00 00 00 00 00 00 00 00 00 00 00 00 00 00 00 00 ................
00402FE0 00 00 00 00 00 00 00 00 00 00 00 00 00 00 00 00 ................
00402FF0 00 00 00 00 00 00 00 00 00 00 00 00 00 00 00 00 ................
00403000 14 8C FD 61 00 5D 1D 3E FD 7E DE 00 12 00 FF 4F ...a.].>.~.....O
00403010 CD DC 02 89 E6 59 3A FB A4 D7 EC F5 00 00 46 2C .....Y:.......F,
00403020 0B 00 55 81 5D FF D9 D8 EF 62 06 6E 7C 00 41 00 ..U.]....b.n|.A.
00403030 78 89 3E 61 0B C5 94 A2 AF 01 E7 93 00 A1 E6 D7 x.>a............
00403040 59 0B 09 FF 3C 37 4E 90 35 62 DB 00 19 48 00 72 Y...<7N.5b...H.r
00403050 06 19 00 00 8B FF FF FA C9 8F 34 65 ED 70 B7 84 ..........4e.p..
00403060 1A 00 0B F6 30 54 6C 00 D4 31 E0 48 1F 5F BF 55 ....0Tl..1.H._.U
00403070 E8 F2 DC D2 4E E1 3A 96 00 CF 00 CF FF D6 00 EA ....N.:.........
00403080 8A 10 42 A9 10 DB 00 1F 27 FE FD E0 FF 71 38 46 ..B.....'....q8F
00403090 00 F5 3A 72 71 44 D6 FC F5 00 08 1E 08 27 D1 5B ..:rqD.......'.[
004030A0 79 6D C9 39 46 63 AC A3 0D 63 23 34 6E B4 FF 40 ym.9Fc...c#4n..@
004030B0 7E 83 5C 14 7E 00 00 07 00 20 A3 D5 3F 00 26 8B ~.\.~.... ..?.&.
004030C0 46 EF 5C A1 00 F3 4F 00 C5 1A 34 D2 FF CF AA 3B F.\...O...4....;
004030D0 8F 2B 97 81 AD C0 47 C4 89 10 29 C2 41 C2 0B 00 .+....G...).A...
004030E0 1B 01 19 CC 74 EB 9A 6C 64 3E 89 E4 66 00 72 00 ....t..ld>..f.r.
004030F0 60 09 E0 D8 34 83 5A F8 C1 40 65 42 0C 87 3E A4 `...4.Z..@eB..>.
00403100 B2 F0 0D 01 94 3B 0F 8C 02 8E F8 12 00 C7 00 00 .....;..........
00403110 66 C2 A3 7C D7 52 93 D8 6F 5C F4 80 BA 09 AE 12 f..|.R..o\......
00403120 ED 64 00 00 0C 72 7F 12 60 1D 7D 00 00 4C FA 2E .d...r..`.}..L..
00403130 C4 AD E1 EE 1C D1 ED FB E8 98 49 00 7A C5 3A 0A ..........I.z.:.
00403140 00 00 66 FF 9A 77 E0 D1 21 0B 65 5A 2A 4D 59 78 ..f..w..!.eZ*MYx
00403150 B1 98 00 69 26 00 8F 00 FA 27 A0 F2 6B 4D E2 22 ...i&....'..kM."
00403160 00 FB 40 41 E9 00 5E CF 03 00 D1 82 A6 00 F8 CE ..@A..^.........
00403170 0C 2F 26 00 CC 82 8F FD 00 8C 64 CA CF 00 1D 00 ./&.......d.....
00403180 FB 32 7B 00 4A 5C 00 B7 00 8C A9 1F E8 11 C3 85 .2{.J\..........
00403190 83 41 79 68 8E 48 F5 92 00 65 C5 7C E3 89 17 F0 .Ayh.H...e.|....
004031A0 00 36 72 87 CA 0B FF CA FA D2 2B E9 6C EE C2 FF .6r.......+.l...
004031B0 38 05 97 0C 71 E5 00 FF 8E 3A A8 FF EA 00 3F F8 8...q....:....?.
004031C0 A8 3A 39 99 E3 E7 91 12 F4 00 DC 41 7C 00 00 09 .:9........A|...
004031D0 00 D8 A6 C6 09 00 5A 20 81 01 00 18 47 00 4B 03 ......Z ....G.K.
004031E0 66 54 3B B1 26 DF AC 07 C8 8A 63 FF A2 41 FF 3D fT;.&.....c..A.=
004031F0 0A AA 7F 01 78 00 72 00 BE 10 E1 CF 96 9A A8 E8 ....x.r.........
00403200 82 D4 46 00 FF 92 1D 00 6B 4C 66 68 A4 08 40 B9 ..F.....kLfh..@.
00403210 71 C3 F8 00 EC D2 C0 37 FC 20 41 00 9A 68 9A 00 q......7. A..h..
00403220 40 09 32 B5 00 00 3B 55 DD 00 BF FF 2B 92 D6 B8 @.2...;U....+...
00403230 FE 12 5E 4D 89 00 C1 00 C4 8B 49 E2 3D FF 9D 97 ..^M......I.=...
00403240 A4 0A 51 00 A9 16 F9 00 87 00 9D C2 A0 00 B8 02 ..Q.............
00403250 BB 00 DE 53 75 44 5B A2 80 42 8C 04 D5 0A 76 71 ...SuD[..B....vq
00403260 60 7E 27 5C FF FA B9 00 BC 46 B7 84 1E 00 00 F5 `~'\.....F......
00403270 0E 00 5C A0 3E 93 95 00 08 17 3A 27 B1 4C F2 B5 ..\.>.....:'.L..
00403280 96 00 C1 23 36 F6 17 BD DC DB 00 C0 00 FF 63 66 ...#6.........cf
00403290 6F F4 36 40 FF 30 FB 20 70 1C 00 D3 00 67 E9 BF o.6@.0. p....g..
004032A0 FF 60 1F B7 00 C8 A2 17 20 00 1D 56 43 F2 E1 DB .`...... ..VC...
004032B0 FD E3 00 C0 00 32 4A C6 DF 8F E1 40 0B 48 D1 00 .....2J....@.H..
004032C0 EF 2E FD FF C1 0C 01 AB F2 82 BC 27 7E E0 71 0F ...........'~.q.
004032D0 00 BD 31 12 54 71 98 39 00 47 7C C1 44 C2 09 08 ..1.Tq.9.G|.D...
004032E0 BE 59 87 65 AC 10 4E B7 78 FA 3F DE 0D 4F 00 F2 .Y.e..N.x.?..O..
004032F0 6D D3 BB DB 00 54 71 AB 10 FF 77 6B 4A BC 50 C5 m....Tq...wkJ.P.
00403300 0C 1E 9A 92 FF BD 3E 3B 36 AF 95 F0 FF E1 14 61 ......>;6......a
00403310 59 D9 2A 00 9E FF A9 3E FA 1E AE 01 D9 01 01 00 Y.*....>........
00403320 AB 22 E2 3B 00 02 FF FF 00 FF 43 8C B9 68 F1 00 .".;......C..h..
00403330 F1 5F 02 58 0B EE 00 40 13 00 F0 6D CF 60 00 96 ._.X...@...m.`..
00403340 D9 00 D2 93 A9 25 3F FF 3D 1C 46 7E 6B 46 92 FF .....%?.=.F~kF..
00403350 7E E6 D4 45 94 00 00 04 56 6A FF 10 B7 91 41 C2 ~..E....Vj....A.
00403360 9F 47 BF 00 A1 68 E5 C5 BF 23 BA 38 8D 6A 70 E2 .G...h...#.8.jp.
00403370 8D 1B 11 00 EF 33 3B 4A 8D B1 CE 8B 42 4C 9C 2C .....3;J....BL.,
00403380 26 00 F0 7B 18 63 00 35 55 C0 00 FA 2A 81 F1 94 &..{.c.5U...*...
00403390 D3 43 F0 00 00 00 92 20 DA 70 B6 8D 06 00 5F 60 .C..... .p...._`
004033A0 33 81 06 F7 71 60 36 AB FD D7 4B BA 00 A3 D1 FF 3...q`6...K.....
004033B0 43 80 09 2C 70 B8 97 B4 00 1D DF 34 76 5B 05 FF C..,p......4v[..
004033C0 6B 06 8E A1 98 8D 8A 1D FF C4 FA 2A E4 A9 1A E0 k..........*....
004033D0 36 E7 E2 6E 01 FC 74 7D 1A 4D 35 00 CB 6C 19 E4 6..n..t}.M5..l..
004033E0 55 E3 06 2F 09 00 1A 00 51 53 48 00 FF C1 45 6A U../....QSH...Ej
004033F0 8C 00 EA B2 60 22 6F E1 B9 72 05 FF 4D 00 FF 1B ....`"o..r..M...
00403400 45 35 22 F2 74 C3 00 4A 87 0B 06 00 6F 38 07 3B E5".t..J....o8.;
00403410 00 93 00 00 CB BB FF 26 78 00 00 02 6E 40 31 47 .......&x...n@1G
00403420 FF C1 00 BE 00 D3 05 FF D6 1A 72 24 2A 00 C6 59 ..........r$*..Y
00403430 00 CE 40 C3 56 00 02 7E 8A F6 FF 70 FE 27 E0 50 ..@.V..~...p.'.P
00403440 FF 00 94 00 13 62 0E 1C 0D 80 EA 34 2D A9 BE FF .....b.....4-...
00403450 09 E7 61 94 1B 16 1B CD 0F 92 A4 6C B6 8D 86 38 ..a........l...8
00403460 34 FF 81 F4 F3 E1 E7 E3 38 4C 9D 85 C1 3A A5 4B 4.......8L...:.K
00403470 61 00 93 78 D9 5A 58 76 0E 00 83 1C 1C 8F FF 74 a..x.ZXv.......t
00403480 B4 4B 60 BA C7 00 19 84 07 D3 5C C2 95 00 49 E4 .K`.......\...I.
00403490 83 E7 00 0F CA 15 9F F6 00 F8 8E A8 0B E6 0C 59 ...............Y
004034A0 B7 62 06 01 BE 6C 13 25 B6 10 BB DF F0 CB 0F F9 .b...l.%........
004034B0 7E 53 1C 9F 96 8D 2F E0 EA 06 45 8B ED 72 38 FF ~S..../...E..r8.
004034C0 F3 1C F0 D1 9D 00 FC CE C2 B3 39 3F FF 07 9B 07 ..........9?....
004034D0 8D 2F AC 01 CE 00 DD 5A 00 D6 EA FF 0E 4B A7 FF ./.....Z.....K..
004034E0 00 7F AA 00 90 C5 3D 09 DE 3A 94 63 00 00 00 F6 ......=..:.c....
004034F0 00 8A 8E DE 86 00 C6 D7 8D 60 78 64 12 D4 07 66 .........`xd...f
00403500 F5 B4 00 5E 2D BD 4A E6 FF 20 17 DA 17 A3 D8 3F ...^-.J.. .....?
00403510 04 6E 40 89 00 89 84 11 A3 C0 7F BB 3C 28 26 E0 .n@.........<(&.
00403520 99 4A 7C CB DA D9 40 87 18 00 F4 00 7F 50 03 95 .J|...@......P..
00403530 3B F6 00 BB 9E D8 F8 DD DB C6 BE 6D 12 89 28 C9 ;..........m..(.
00403540 2C 44 12 0A 28 B7 8A A8 09 B9 F9 E6 CB 09 90 C4 ,D..(...........
00403550 00 09 F0 00 00 69 8C FF 8D 36 08 DF AE 0A 24 C1 .....i...6....$.
00403560 44 10 4C CE 00 9F DC 6E C1 D8 1D 2D FF 38 88 5F D.L....n...-.8._
00403570 97 F8 C0 CE 46 56 07 9C F1 04 CA 26 9E 30 00 EC ....FV.....&.0..
00403580 00 FA FE B3 6B 7A 40 D8 73 60 9E 0B 36 FF F6 00 ....kz@.s`..6...
00403590 49 19 44 1F C3 D8 D0 00 E2 FD 0C C4 3E 56 00 40 I.D.........>V.@
004035A0 5D 72 18 00 88 28 10 01 F4 97 FF FF 00 1E 01 43 ]r...(.........C
004035B0 00 5C E8 FA 60 26 3D 93 00 38 00 62 00 2B 10 05 .\..`&=..8.b.+..
004035C0 CE D0 21 BA 00 00 C6 3A FE 40 25 23 3D 0F 8F F2 ..!....:.@%#=...
004035D0 F1 3C A9 09 64 40 DA 4C E8 00 00 0C 1D 70 60 48 .<..d@.L.....p`H
004035E0 B4 4A 00 39 00 0D F4 41 3F 00 2C 35 6F 64 00 40 .J.9...A?.,5od.@
004035F0 00 27 18 1F B2 03 82 F6 B7 C9 38 FF CF 35 0B 79 .'........8..5.y
00403600 F7 6A 0F E1 00 79 CB 3C 68 00 C9 44 47 AD 5D 1F .j...y.<h..DG.].
00403610 DD 27 C8 FF 66 DB 02 B7 73 7A BF 99 DB FF 43 16 .'..f...sz....C.
00403620 DD CC 71 EA A4 07 23 85 BA CB 00 21 00 2E 7F 0C ..q...#....!....
00403630 5A CF 37 3C B3 D7 FF 4A 68 42 52 FE 35 4F C9 CE Z.7<...JhBR.5O..
00403640 CB 90 78 39 29 DF 00 00 67 BE 00 86 98 05 D4 6F ..x9)...g......o
00403650 CE 5C 98 66 92 29 20 DE 8F D6 A3 9E DD 78 2C F0 .\.f.) ......x,.
00403660 3E 5E 73 B2 3E 94 DD 61 9F FF 0E 80 C5 50 5A 00 >^s.>..a.....PZ.
00403670 FF 5F 87 FA 96 3C 94 1A D1 63 00 00 AE 74 16 7C ._...<...c...t.|
00403680 3C 19 31 FD 21 32 FF 83 21 1C 76 47 B5 97 69 8D <.1.!2..!.vG..i.
00403690 B0 E8 28 C6 00 DC FE 64 84 98 AC 35 FB 5D C0 C0 ..(....d...5.]..
004036A0 4B 5E BF ED 6C DB A6 91 19 00 00 08 BF B6 B5 13 K^..l...........
004036B0 21 FF 40 E7 03 99 69 49 FF 70 73 00 EF E1 23 3A !.@...iI.ps...#:
004036C0 C1 7D 8D 80 6D AE AA 3D 7B 33 FF AD F1 16 84 00 .}..m..={3......
004036D0 06 10 D2 60 44 3E 39 B2 98 45 77 B3 4C 42 EC 60 ...`D>9..Ew.LB.`
004036E0 CD C0 20 6F 10 CB A1 2C 61 19 B4 27 0F 00 00 22 .. o...,a..'..."
004036F0 6F 58 A5 FC 0C 62 0B 00 BF 00 81 B9 2F 19 D1 00 oX...b....../...
00403700 E0 85 EC 4F FF C1 C0 6A 1E 9F A5 3B C7 1A 00 D0 ...O...j...;....
00403710 00 59 76 80 60 67 C6 44 00 C3 9D 00 C0 89 56 93 .Yv.`g.D......V.
00403720 4E 0D 8C F3 69 5F E0 36 44 88 16 00 01 4E 5A 53 N...i_.6D....NZS
00403730 84 44 8B F3 7F D8 A1 01 D5 1B 11 93 BD 27 74 BE .D...........'t.
00403740 CB 89 18 0B E7 FF 7B 00 74 18 4C 06 17 5D FF FF ......{.t.L..]..
00403750 60 00 8F FF B2 00 00 00 00 D2 00 20 BA E5 7C 10 `.......... ..|.
00403760 6F 5E 00 7C 32 18 05 4D C6 F7 B0 0D 54 A8 8D A9 o^.|2..M....T...
00403770 FF 1E BE 2E EF 19 41 38 FB 00 11 08 15 FF 56 8E ......A8......V.
00403780 ED FC EB 4D BB 00 E3 63 06 0D 74 D5 CF 79 FE 36 ...M...c..t..y.6
00403790 AB 91 A5 2F 28 12 69 80 C8 83 24 70 08 EA 6C 00 .../(.i...$p..l.
004037A0 FD 00 7A 35 C0 00 AA 24 D5 86 7F 6B 20 00 C5 E1 ..z5...$...k ...
004037B0 EA 40 CF 80 60 48 1B 33 00 27 60 41 00 DB C5 1A .@..`H.3.'`A....
004037C0 80 2E 54 38 75 AA 3E 00 0C 69 00 BE 41 00 24 E8 ..T8u.>..i..A.$.
004037D0 86 A3 F4 8B 07 B8 52 EA 78 80 44 D1 83 B4 F1 11 ......R.x.D.....
004037E0 72 A0 22 D1 A2 02 CB 00 1B 88 09 5B A4 A7 7D FB r."........[..}.
004037F0 32 E1 A9 06 DB 26 E5 20 F3 B4 91 AA C3 00 6F 85 2....&. ......o.
00403800 85 8E 10 1D 21 A3 00 78 B5 ED 31 00 00 BE CE 9B ....!..x..1.....
00403810 6C 00 BF 7B F0 68 93 00 85 00 E4 74 C4 82 4B 74 l..{.h.....t..Kt
00403820 2C EA 96 09 91 00 8D B7 FD 55 23 D7 C1 20 00 A0 ,........U#.. ..
00403830 0A 7E 80 00 D7 00 8E E4 28 9D 49 F1 78 FF FB A7 .~......(.I.x...
00403840 E6 38 B7 03 1D 91 AF AE 10 2E 2C 5A F8 FF F3 F1 .8........,Z....
00403850 DA 94 C8 10 14 00 EB 5E FF 94 B7 CC 80 27 BE 63 .......^.....'.c
00403860 3F 9C 44 01 02 00 DA 00 3D 30 B4 06 B0 78 09 B9 ?.D.....=0...x..
00403870 12 9A 00 9E 93 3A F7 B4 B6 00 CF 3D 44 02 A0 A8 .....:.....=D...
00403880 68 F4 B4 C5 00 F3 9B 00 C8 1F CC C5 A9 B7 0C F0 h...............
00403890 89 7D 00 84 9D FF 38 FF A6 E4 C4 78 0E 84 E5 D7 .}....8....x....
004038A0 88 E3 AA FF 35 15 02 C6 2D 4C D7 BB 2C 37 00 B4 ....5...-L..,7..
004038B0 95 0C 5D 6E 34 DF 32 1C B9 FA 00 FC 05 D2 FF 0C ..]n4.2.........
004038C0 58 D9 36 5F FF 91 26 52 7E 11 00 76 FC 9C 01 9A X.6_..&R~..v....
004038D0 09 A7 66 07 F3 2B DD BF 7F C7 92 6C 00 7A E9 55 ..f..+.....l.z.U
004038E0 00 98 9A 83 67 88 A9 A5 0D 7C 00 F0 21 29 1A 53 ....g....|..!).S
004038F0 31 93 8F 41 7D 3E 3B F9 EC 00 EE 71 63 30 0D 30 1..A}>;....qc0.0
00403900 39 94 FF 8A 8B F8 DE DC 67 42 FB 00 83 BA 14 06 9.......gB......
00403910 D9 0C C3 E8 43 20 0A 00 2E 52 37 A0 62 00 00 F7 ....C ...R7.b...
00403920 00 3C E1 FC 50 19 05 34 7F B3 8F BA 19 24 86 00 .<..P..4.....$..
00403930 87 E1 D0 E5 A8 80 00 C0 63 52 A1 72 00 B6 0A 37 ........cR.r...7
00403940 AB 16 00 E8 F0 ED 9C 6F 6D 82 5B 55 61 4E 32 F7 .......om.[UaN2.
00403950 40 00 CF 1E B8 79 44 90 F8 54 00 96 70 AC 7A BE @....yD..T..p.z.
00403960 1B D3 8E CA C3 62 31 FB B4 4B 7D 8C 39 FF D3 24 .....b1..K}.9..$
00403970 C3 00 01 3A A9 86 75 20 2F B4 44 3C A2 6B FF 9D ...:..u /.D<.k..
00403980 E2 F3 AB 62 69 AA 61 48 1D 78 B9 83 19 33 47 DF ...bi.aH.x...3G.
00403990 64 12 C5 DE E9 68 6E 9C EB 53 34 4E 18 FF 8C E4 d....hn..S4N....
004039A0 00 C4 1C 20 71 56 CA 1E 00 AE 0A 9B CB 00 48 62 ... qV........Hb
004039B0 DB 7F 95 D8 FE 91 5E 7C 00 B0 81 40 48 04 3F 8F ......^|...@H.?.
004039C0 00 6A 27 A2 D1 31 11 18 BB 31 FE EF 4B 94 F3 FF .j'..1...1..K...
004039D0 FF BA 4E FF 08 BD 93 01 68 D5 00 E9 39 00 D1 89 ..N.....h...9...
004039E0 00 30 29 EF 7C D5 93 C2 00 6F 00 1B 0C 4A 63 00 .0).|....o...Jc.
004039F0 00 48 05 E8 80 C0 A4 CE 6B 5D 40 75 6E 00 44 35 .H......k]@un.D5
00403A00 D5 F6 84 E8 1F E7 10 15 03 00 28 86 0B 09 69 E1 ..........(...i.
00403A10 3B F4 AD 00 00 FB 32 BF D5 C7 40 3F E2 32 EF 39 ;.....2...@?.2.9
00403A20 E7 22 1E 00 46 00 26 22 5C F3 18 23 00 00 65 00 ."..F.&"\..#..e.
00403A30 8D 75 94 A5 C8 AE C7 00 FF F9 56 08 DB 4B 3E 6C .u........V..K>l
00403A40 43 03 8D 88 47 EA A7 50 CD F7 E8 2F 7A 00 47 A3 C...G..P.../z.G.
00403A50 00 F4 5D 8F 00 A1 53 4D CC 2E AA 92 CD 00 28 60 ..]...SM......(`
00403A60 AA 80 BF 2C FA BB 6C C0 A8 35 B1 ED FF A6 05 C7 ...,..l..5......
00403A70 FC AF 83 7D 19 A1 AA 00 5F 00 AD D3 69 E5 84 30 ...}...._...i..0
00403A80 67 42 B2 1B 3C EA 31 FC A2 93 E6 24 FF 38 B9 DB gB..<.1....$.8..
00403A90 DF 73 8B C6 46 6E E6 2E BB 1B C4 44 7B 6D A3 00 .s..Fn.....D{m..
00403AA0 34 40 00 61 6D EE 7B 0F 00 2F CD 00 54 F9 10 F8 4@.am.{../..T...
00403AB0 E3 12 EF 34 01 FF 0E DC 6C 0E 00 CC C5 CF DE 58 ...4....l......X
00403AC0 DC 93 69 79 92 D1 01 24 1C 4A 47 23 F9 00 27 B1 ..iy...$.JG#..'.
00403AD0 CC 2F 0E E0 91 FF DF 86 5D CB 48 FF 40 AA DF 55 ./......].H.@..U
00403AE0 00 AF F1 F2 4F 60 C9 79 1D 7E 53 54 B6 5F 2D 6E ....O`.y.~ST._-n
00403AF0 0A 46 00 0A 84 00 19 63 00 40 04 91 0C 41 68 A5 .F.....c.@...Ah.
00403B00 7B 07 AD 28 B0 AF 37 69 B6 96 94 97 9B 91 28 00 {..(..7i......(.
00403B10 21 FD 5E 19 F1 98 00 F8 56 77 00 E9 D3 F3 00 F8 !.^.....Vw......
00403B20 76 00 FF FF E1 41 38 1C 0D 26 F2 14 DD 87 FF 4C v....A8..&.....L
00403B30 23 EA 00 AE D0 77 00 69 4F 74 04 78 9C FB FD 48 #....w.iOt.x...H
00403B40 37 0A 40 10 51 E4 4F 37 9A 9D 8C 0A 8C 36 30 EF 7.@.Q.O7.....60.
00403B50 79 64 88 F4 00 7E E5 00 26 88 33 91 05 82 63 EF yd...~..&.3...c.
00403B60 A5 05 00 C1 60 18 00 C1 4F 70 EA 56 98 A6 00 8C ....`...Op.V....
00403B70 31 00 56 C9 93 92 87 B4 42 C4 A0 AF 30 BB D5 E2 1.V.....B...0...
00403B80 BF 6A 0D 1F 7C 73 37 12 83 3B 0F 00 00 F7 FF 40 .j..|s7..;.....@
00403B90 18 A4 3A B3 00 E0 2C 00 FF F5 18 2A 12 36 D6 FF ..:...,....*.6..
00403BA0 A2 F7 D4 E9 FA 99 FE 48 4C EE 61 FD BD AE 00 02 .......HL.a.....
00403BB0 A1 0A A9 75 7D 8A 60 72 80 51 C0 0C 5F A7 FF D9 ...u}.`r.Q.._...
00403BC0 60 AA 4A D3 05 F5 90 C8 26 00 FF 6A 00 2E 9C 62 `.J.....&..j...b
00403BD0 21 00 06 FF D1 E3 00 D5 E2 59 FF 4C 9E 00 81 42 !........Y.L...B
00403BE0 C8 1F 00 6A AC 1D 13 DF BF 5F 02 FF 74 7B 88 2A ...j....._..t{.*
00403BF0 01 B6 83 47 00 C3 8F 00 B7 EF A4 27 CD F9 91 06 ...G.......'....
00403C00 45 D0 40 00 F9 FE DE 5E 62 02 E3 9E FF E1 F8 86 E.@....^b.......
00403C10 20 00 20 38 00 DE 76 06 86 9D 70 48 8B 00 63 02  . 8..v...pH..c.
00403C20 E2 00 C4 C2 34 40 8F 54 60 8C 00 40 4A F1 FF 00 ....4@.T`..@J...
00403C30 6A 98 3D 11 5F 30 99 67 57 74 00 85 D9 81 A5 E0 j.=._0.gWt......
00403C40 A7 E7 70 E4 0A B4 9D FF 62 00 14 3E 3D 00 45 D9 ..p.....b..>=.E.
00403C50 1B 07 4F 03 E1 FF 14 00 15 87 B3 9E 03 ED FF 6F ..O............o
00403C60 00 41 00 BF 02 10 39 7B E3 24 A3 A4 5E FF 39 C5 .A....9{.$..^.9.
00403C70 00 00 22 E7 EC 01 C5 A5 40 70 F3 26 81 4E F9 BD ..".....@p.&.N..
00403C80 B9 BD 6C 7C EF 9C 35 C3 5B C7 9C E2 C5 50 15 B5 ..l|..5.[....P..
00403C90 B9 46 3A AD 34 82 CF 21 F2 C2 02 B8 00 0A 93 00 .F:.4..!........
00403CA0 5E 90 C3 36 00 00 77 3E A1 5B 23 C3 E3 A8 6E 36 ^..6..w>.[#...n6
00403CB0 E5 22 23 8A 5C 71 86 FF DB F6 E6 C8 DD 3E B5 2C ."#.\q.......>.,
00403CC0 9C B8 1C 0C D2 52 4B 47 3C 04 00 2C 0A 23 6B 78 .....RKG<..,.#kx
00403CD0 2D A5 7C AC 00 E2 98 EA 89 A4 02 D5 4D 87 B5 EE -.|.........M...
00403CE0 00 87 00 00 57 00 9A D9 00 03 E7 00 8C 00 4C B5 ....W.........L.
00403CF0 D0 72 CB 44 EB 8E B1 00 C1 A5 52 24 52 84 1B 03 .r.D......R$R...
00403D00 BB 57 E4 00 A3 85 20 1E 62 D2 92 62 E2 96 F7 EB .W.... .b..b....
00403D10 85 0A 33 B1 02 B9 C1 8C 00 01 BF FD 23 13 86 12 ..3.........#...
00403D20 00 89 77 F8 63 70 68 C7 8B B2 B0 60 0A 4C 42 00 ..w.cph....`.LB.
00403D30 E4 A4 79 87 72 40 FD 19 B0 6C 24 8A E3 54 42 85 ..y.r@...l$..TB.
00403D40 E6 6A B4 CE 04 5F DF 89 CD 13 C0 63 18 00 B1 A5 .j..._.....c....
00403D50 DD 19 94 09 3D B0 26 05 13 C2 6A 00 4E B6 9C 4D ....=.&...j.N..M
00403D60 BF 6A 03 00 1B 9E 7C 51 F9 20 0D FD 39 70 00 A1 .j....|Q. ..9p..
00403D70 F8 3B 41 2B EF FF BE EB 6C 00 06 18 3A 59 48 36 .;A+....l...:YH6
00403D80 10 00 00 A7 01 0A BB 98 93 03 C6 9E C0 B3 00 27 ...............'
00403D90 66 C5 00 AE 00 0D 2C 53 FF 63 F7 EC 3F 1D DC 94 f.....,S.c..?...
00403DA0 31 FA 00 00 83 5A E6 00 C3 B8 00 6B 1F 40 5B C4 1....Z.....k.@[.
00403DB0 31 3C 20 59 7E CF 8F 43 6B 87 EF 1A 84 4F 1E 9B 1< Y~..Ck....O..
00403DC0 1B FF 6F 72 BA 1E 00 D1 74 30 E0 74 30 E8 24 00 ..or....t0.t0.$.
00403DD0 00 B3 A8 31 28 A7 64 4C D6 2E 6A 51 D4 00 D1 FF ...1(.dL..jQ....
00403DE0 68 69 E4 4C C0 47 3D 00 B8 82 71 E4 C8 00 20 FB hi.L.G=...q... .
00403DF0 8C 51 00 00 2D D9 1F AA 00 1E 57 FE 42 16 10 43 .Q..-.....W.B..C
00403E00 98 52 25 04 20 00 9D 5F 1E 07 10 28 06 C3 00 90 .R%. .._...(....
00403E10 00 2B 48 A3 00 9D FE B9 10 B8 25 24 6F 00 D1 91 .+H.......%$o...
00403E20 E0 78 87 E3 D7 3A E4 80 45 FF E6 00 C3 37 F4 00 .x...:..E....7..
00403E30 4C 00 FF DF 4C D6 1D 2A 40 00 D3 33 00 5D E2 20 L...L..*@..3.]. 
00403E40 B4 34 5F E6 00 C0 74 34 BE F2 45 7E F0 11 87 B0 .4_...t4..E~....
00403E50 CF 30 0A ED EF 67 5C 31 5F 00 7D B7 F9 B4 34 F4 .0...g\1_.}...4.
00403E60 7D 60 3A 38 4B 17 00 CC 00 0D 39 F7 00 DF 8A C3 }`:8K.....9.....
00403E70 4A 64 8E 08 11 3B 7F B3 20 9B CA 3B A8 0F 00 9D Jd...;.. ..;....
00403E80 20 00 48 03 BB 61 5A 00 51 1D F9 FF 00 00 FC 00  .H..aZ.Q.......
00403E90 6F 99 18 57 13 0E F5 40 0C 05 E8 A6 00 00 1D 26 o..W...@.......&
00403EA0 13 91 0F E8 FF FF FD 40 00 09 54 FF 26 E9 06 E2 .......@..T.&...
00403EB0 00 00 F0 FA 7D 32 C8 F1 E4 E1 A3 83 C4 3A F2 00 ....}2.......:..
00403EC0 73 B2 7F 65 89 FF 1E 47 0F 00 4B 22 A3 20 E6 46 s..e...G..K". .F
00403ED0 E6 4B 95 6E 9C 0B 4B 49 73 4A CC 29 D1 0C 0B 47 .K.n..KIsJ.)...G
00403EE0 19 C0 FF 0C E0 AB 04 86 4B 36 D3 DB 08 D8 9B C7 ........K6......
00403EF0 A7 43 56 A0 A4 00 00 12 D2 B7 30 0D 1B 33 6F 52 .CV.......0..3oR
00403F00 CB FC 74 A0 6E 97 56 62 01 F1 58 0C 40 8C 6D F7 ..t.n.Vb..X.@.m.
00403F10 4C 9E 18 6C 30 AE 76 87 BC 96 00 A0 E5 DF 6F 85 L..l0.v.......o.
00403F20 1E C1 BF 87 00 00 92 B4 9F 00 A7 C6 FF 00 00 00 ................
00403F30 90 C8 EB 00 FF 78 00 1F 28 7A 00 7B D4 03 01 00 .....x..(z.{....
00403F40 9A EA 3D 86 12 D7 17 E4 17 DE 5D 94 19 34 B4 8F ..=.......]..4..
00403F50 75 FF 21 F3 25 01 FA 00 06 20 D4 6D 31 1A FB 01 u.!.%.... .m1...
00403F60 0B 98 FF E5 08 00 93 00 BD 36 2C 68 F3 72 E6 FF .........6,h.r..
00403F70 CE D8 59 00 BD C1 E7 08 7A 7E 03 05 82 E3 6A 6C ..Y.....z~....jl
00403F80 4B 5A 72 FD 00 A1 A7 12 62 00 7C 4B AF 1A 00 30 KZr.....b.|K...0
00403F90 46 F6 E4 02 C0 60 11 DF FB FF 4C E3 2E D6 DC 7A F....`....L....z
00403FA0 02 00 08 00 E2 7A A6 27 D1 77 4E 9E EF 08 19 00 .....z.'.wN.....
00403FB0 FF E4 CF 3D 0A 24 63 A3 00 12 FF 0F 9B FF 6D 00 ...=.$c.......m.
00403FC0 CA F6 72 10 F4 00 1C 17 80 7F F6 30 E2 7A 00 08 ..r........0.z..
00403FD0 99 E3 BD 58 1C 79 2D 28 E0 FE 1D E1 EA 86 45 23 ...X.y-(......E#
00403FE0 EA B8 16 00 6B C3 22 00 25 8E 00 0A 78 38 81 48 ....k.".%...x8.H
00403FF0 E6 5A 00 90 C1 A1 1D 00 EF 5B 82 32 3C 00 FC 20 .Z.......[.2<.. 
00404000 0B B1 D2 D1 FF 31 52 83 07 2C BE 2F A3 00 05 4D .....1R..,./...M
00404010 E9 EB 4C 1D E6 FB FF FF 4B 33 35 C2 EC 00 00 06 ..L.....K35.....
00404020 00 0A D0 01 6E 91 4C 83 78 33 C9 D8 07 E9 35 78 ....n.L.x3....5x
00404030 E5 BD 70 7D 0A 2E 3F D7 61 00 00 2B A9 EC FF 62 ..p}..?.a..+...b
00404040 00 FF 8E E2 F9 5E DB C3 95 85 1A 10 C2 24 8E 3E .....^.......$.>
00404050 0A 85 C9 FF 55 0E 13 6F 9E 18 CC A9 32 48 7C 98 ....U..o....2H|.
00404060 00 00 08 30 0A 10 AC 09 F0 30 E2 2A 4D 00 7C 00 ...0.....0.*M.|.
00404070 E8 38 EE 61 44 00 BB 82 6E 99 F6 00 14 F3 EF 2F .8.aD...n....../
00404080 88 80 0E CC 9C 39 9E 93 F5 10 FF 06 80 9C 70 8F .....9........p.
00404090 35 00 78 42 02 C8 B6 8E D8 F7 00 3C 2C B2 CF 6E 5.xB.......<,..n
004040A0 8C 00 89 DA E8 81 F9 00 8C A6 00 08 63 00 E7 FF ............c...
004040B0 00 B8 C6 DD 0D 86 61 13 4B FF C6 62 9B 10 7A 9E ......a.K..b..z.
004040C0 2C 4B 40 62 58 FF CB FB F3 6F 84 10 4D 36 74 01 ,K@bX....o..M6t.
004040D0 FF 1F 18 56 53 5A 00 00 40 00 31 00 67 5E 86 A4 ...VSZ..@.1.g^..
004040E0 98 7B 32 12 FF CF FF E2 00 34 FF CE 2B 00 48 00 .{2......4..+.H.
004040F0 66 5E 02 AF 00 31 B2 CF E2 00 47 0C 73 12 00 57 f^...1....G.s..W
00404100 4F C1 3B DD 8C F0 00 51 EA D3 97 58 CF B9 28 00 O.;....Q...X..(.
00404110 00 40 AA 14 A1 CD 1D BC B8 70 70 26 00 23 12 2B .@.......pp&.#.+
00404120 C6 11 AB DE 0E 5C 9F EF D5 8F 7F B3 A3 3C E0 93 .....\.......<..
00404130 21 00 D4 CA 34 11 AB 00 74 BC 1A C0 33 9B E5 BC !...4...t...3...
00404140 99 C9 00 2D 00 12 F7 40 11 3C D0 10 8F D1 97 EE ...-...@.<......
00404150 00 B0 FF B6 F5 65 0B A9 75 12 22 1E B2 60 63 35 .....e..u."..`c5
00404160 2E 80 D9 82 00 A2 07 73 20 90 FF B4 28 BE 27 00 .......s ...(.'.
00404170 6E F3 93 3B 26 07 70 FC F5 AC 89 8B 88 00 9B 8F n..;&.p.........
00404180 00 FF 00 FC DB CE 24 10 F5 4F 26 83 FF 28 E7 4A ......$..O&..(.J
00404190 FF 3E 07 72 0F 73 B3 26 39 BE 80 41 34 FF C0 E1 .>.r.s.&9..A4...
004041A0 37 C0 64 62 1C 30 98 21 20 DE 00 0E 16 4D FF DA 7.db.0.! ....M..
004041B0 C6 EB FB 00 F1 82 1F 00 E0 FF 31 9F E2 1B C5 E3 ..........1.....
004041C0 16 03 C1 37 54 2E FB 14 00 00 E2 0B C0 9E 4E 35 ...7T.........N5
004041D0 00 14 76 40 84 7A E8 00 37 00 6E 35 9C 3A 81 F3 ..v@.z..7.n5.:..
004041E0 EA 0A 70 00 00 DE 52 A7 30 DE 65 71 C7 DD 6C 6A ..p...R.0.eq..lj
004041F0 00 A9 3F 3E 92 19 C0 31 D1 CF 05 38 73 75 8F 62 ..?>...1...8su.b
00404200 24 07 69 E9 BE 91 8B BF B9 85 10 D6 0F 76 E9 58 $.i..........v.X
00404210 0C 3D DF 00 E0 E1 FB 04 3C AC 0C 8B 08 B8 E7 01 .=......<.......
00404220 00 BF A1 B0 23 97 0C 00 42 FF C3 78 36 00 00 01 ....#...B..x6...
00404230 FD 57 45 85 36 31 0B D6 00 4D D4 00 E2 D5 4C 79 .WE.61...M....Ly
00404240 00 28 23 2C 16 7C E7 0C 40 63 FA 90 B7 B9 20 00 .(#,.|..@c.... .
00404250 54 39 00 ED FF DC B7 00 EF A2 DF E6 28 FF F3 21 T9..........(..!
00404260 94 FA C7 00 2C DF 2D FA A4 7B EF DE 81 00 EE E1 ....,.-..{......
00404270 C1 E2 F9 11 FF C3 A7 0A 0F 00 00 BD 94 A4 64 18 ..............d.
00404280 DB B0 88 00 E8 0B 37 04 ED 96 7C 20 98 63 F8 DA ......7...| .c..
00404290 00 B3 F9 D2 50 89 00 26 82 7A FF 51 2D 56 0B 3F ....P..&.z.Q-V.?
004042A0 F6 77 05 65 47 DF 00 2E 82 DA 00 72 33 B7 FB 03 .w.eG......r3...
004042B0 63 00 00 00 79 00 00 1E 01 26 3A 87 67 89 D8 A9 c...y....&:.g...
004042C0 EC 6C AE F0 10 28 F4 03 4A FF 00 40 B5 22 00 3F .l...(..J..@.".?
004042D0 C6 83 99 52 94 B3 CC 1D 8A 5F 06 FF E9 1B F7 06 ...R....._......
004042E0 44 B2 18 46 7B 78 AC 28 00 01 9A 00 C6 EE 9E 9A D..F{x.(........
004042F0 16 F1 65 89 65 07 00 2F 40 08 80 B6 8D 00 36 FF ..e.e../@.....6.
00404300 1D C0 61 D6 C2 30 FF E3 CA 67 00 A4 08 2B C1 BD ..a..0...g...+..
00404310 C2 00 00 FF 94 28 8E B8 FF FF 3F CA 89 7E 4C C3 .....(....?..~L.
00404320 00 A3 A8 60 93 40 DA 00 3C 01 41 74 CA 91 70 40 ...`.@..<.At..p@
00404330 0F B1 00 37 FF 35 BE 27 71 65 F4 E7 4C 13 78 28 ...7.5.'qe..L.x(
00404340 00 AB FF 06 13 FF AE A9 3A B4 17 F9 62 F9 33 CE ........:...b.3.
00404350 00 D1 0C 3B E7 A5 48 DD 11 8B 14 BD 5D E9 B6 AD ...;..H.....]...
00404360 86 87 00 F1 42 43 61 8B 0C 13 FF FC CE 00 FF 00 ....BCa.........
00404370 1A DA 06 BC EE E8 10 00 AB 92 37 68 23 00 C1 DF ..........7h#...
00404380 00 A6 5C 2A 00 3F 34 A1 00 00 A5 30 0F 70 C6 00 ..\*.?4....0.p..
00404390 E4 5E 23 CE 9F 73 44 00 FE 15 88 00 00 73 44 C7 .^#..sD......sD.
004043A0 BA E4 22 8C 08 0B 7E 66 69 F0 C6 FF 5F 13 00 9F .."...~fi..._...
004043B0 1C 94 0D 23 7D 9F 76 F8 1C 69 19 33 DF 6D 70 0E ...#}.v..i.3.mp.
004043C0 D1 06 00 A7 14 00 99 3B E5 9B CD FF A9 74 83 DB .......;.....t..
004043D0 4B FF 69 37 EE 03 9B 00 66 82 00 E0 00 46 1E 7C K.i7....f....F.|
004043E0 A6 0A 02 E8 00 C8 1E 53 DC A1 9F 65 02 C6 D1 61 .......S...e...a
004043F0 24 ED FF C6 FF CA 02 DD C7 00 2C 00 8D 18 56 35 $.........,...V5
00404400 00 CF 00 6C 7B C2 61 31 17 E0 00 00 2C 0D 8C 15 ...l{.a1....,...
00404410 13 2C AC A0 33 82 FF 46 FF D4 F8 00 6E 00 82 EE .,..3..F....n...
00404420 26 AD 37 00 1F 58 B1 62 1F FF 14 1C 97 CB 09 00 &.7..X.b........
00404430 49 EE 38 03 EE C6 FE FF D4 E7 FF 53 42 AB E4 71 I.8........SB..q
00404440 5F 36 04 FD BE ED EA 44 4F 15 55 00 3A C7 36 40 _6.....DO.U.:.6@
00404450 9F 00 25 DC 00 FF 00 00 EA 78 73 87 6F 1C 8C 92 ..%......xs.o...
00404460 45 EC 00 90 D9 0A 23 11 77 00 FF ED 62 5A 36 7F E.....#.w...bZ6.
00404470 DF D3 D1 39 67 C1 9A 7E C3 08 B3 FF C8 64 BA 00 ...9g..~.....d..
00404480 C5 3E 00 9C DB 0E 55 F0 48 E9 8D EC 1F 28 76 D9 .>....U.H....(v.
00404490 0A 34 00 00 42 7D 42 A2 EF FA DB 83 15 E0 79 87 .4..B}B.......y.
004044A0 8C DC FF FF B7 01 0F D2 71 E8 A8 F7 56 67 A2 9A ........q...Vg..
004044B0 6B 81 00 B0 7A FC 2B 18 00 45 4E 41 6F E1 E0 E1 k...z.+..ENAo...
004044C0 76 35 F5 89 04 E9 80 80 9A 0A C7 F2 22 98 13 A8 v5.........."...
004044D0 C9 BF D3 B9 62 DA 3E F0 1A 3E 6A FD 4C 38 C8 9A ....b.>..>j.L8..
004044E0 D7 F4 A0 04 44 DF 00 14 2F 6F 70 7B 37 6E 83 02 ....D.../op{7n..
004044F0 CB D0 FC C8 78 C7 E3 08 A0 00 00 30 B9 93 00 8A ....x......0....
00404500 32 41 9B 07 9E 87 26 01 EE D0 96 C3 C3 8C 21 0B 2A....&.......!.
00404510 E8 06 7D 00 93 00 6E 33 18 4F 8B 00 F3 62 01 A8 ..}...n3.O...b..
00404520 96 9D BC BE E3 00 3B 82 00 7A 55 49 D9 D9 37 F9 ......;..zUI..7.
00404530 18 D6 00 0A D2 39 75 90 E0 6F 56 3E BC 80 0A ED .....9u..oV>....
00404540 00 0C 7E 7E 17 4E 17 B1 26 6E EF 32 E0 0D 00 FE ..~~.N..&n.2....
00404550 F2 9B 8C CB C5 00 D7 23 FF 54 F6 47 77 AF FF 0A .......#.T.Gw...
00404560 A9 89 F8 00 59 F6 EE 32 87 FB 00 B3 11 04 8B 91 ....Y..2........
00404570 E3 8D B2 00 00 00 04 24 97 26 8D 14 1A 00 59 78 .......$.&....Yx
00404580 B8 00 54 DE 7B C6 FF FD A9 B3 38 80 13 50 80 F3 ..T.{.....8..P..
00404590 00 2C E4 00 58 0E C4 7C FF 04 28 00 00 E5 4B A8 .,..X..|..(...K.
004045A0 E0 4C 27 19 1B FF 81 52 A3 05 00 00 F0 73 FF 43 .L'....R.....s.C
004045B0 5E C5 44 D8 7E 6C D8 B6 35 8F 6A 84 B5 EA 54 D1 ^.D.~l..5.j...T.
004045C0 28 77 E7 A9 1A 00 DB F7 F5 FF 60 C8 7C A6 00 86 (w........`.|...
004045D0 FF 3B D9 CC 20 12 FF DB 0C 26 7D 70 8C EA C6 C5 .;.. ....&}p....
004045E0 A7 FF 83 73 02 EC E4 6A 5C 38 89 90 58 00 00 00 ...s...j\8..X...
004045F0 09 3A 00 BD B4 00 BC 23 00 65 EE 57 5A 09 8A 61 .:.....#.e.WZ..a
00404600 FF 8E EE 99 64 8E DB 98 E7 F7 00 69 6B 17 3C 78 ....d......ik.<x
00404610 DF B7 65 1F 85 77 2E 33 8F 8C 00 8F FA 12 03 B1 ..e..w.3........
00404620 5F 2A 71 E6 00 00 5A 00 FF 4B C2 B4 E9 E4 A0 CD _*q...Z..K......
00404630 FF 16 21 00 20 36 B8 79 FE BF 11 10 F8 00 FF D2 ..!. 6.y........
00404640 B6 38 03 9B 0C 00 88 46 E8 CD 6E 12 23 2A 00 F0 .8.....F..n.#*..
00404650 F8 D2 00 59 00 00 0E 81 BD F0 FF 2A 1E A1 44 3A ...Y.......*..D:
00404660 86 00 9C 49 4F 48 9A 06 FF FF 84 8B A2 00 FD 1B ...IOH..........
00404670 74 07 69 FF 00 87 56 03 41 0A 87 F0 DB C3 FF 9B t.i...V.A.......
00404680 1B C4 B7 8F 44 F6 12 14 BE 00 AE 93 33 51 F3 0A ....D.......3Q..
00404690 94 8F B0 00 29 ED 55 E8 E4 89 75 86 7E FE B7 00 ....).U...u.~...
004046A0 0F 75 00 76 69 FF C4 88 21 C6 A6 00 FF C6 28 68 .u.vi...!.....(h
004046B0 00 4E 3C 5C 62 D0 6C 00 5F 18 64 58 34 A3 08 08 .N<\b.l._.dX4...
004046C0 6E FC A2 12 60 7D 55 11 E2 8D AC 3B FB 60 00 FD n...`}U....;.`..
004046D0 47 37 57 B3 FF F2 3C A0 00 FD C7 80 00 B3 C6 44 G7W...<........D
004046E0 AE FF 68 F7 29 63 14 D7 AB 7C 00 06 E5 00 B6 FF ..h.)c...|......
004046F0 AD 38 FE 7E 18 00 28 03 00 B7 40 CE 93 BA 24 E1 .8.~..(...@...$.
00404700 F0 7F 85 03 F9 26 FE CC 00 27 08 AE 72 00 73 FB .....&...'..r.s.
00404710 52 1B 57 F4 A2 E2 24 C5 3C 00 00 2A BD A3 97 0B R.W...$.<..*....
00404720 5E A8 00 3D 2D D3 49 74 AC 40 B7 C8 A9 A2 58 00 ^..=-.It.@....X.
00404730 76 E7 69 44 75 58 D1 BB 37 80 45 38 1B 01 1E B0 v.iDuX..7.E8....
00404740 58 2F 00 2E EC 00 28 F1 8C 60 B6 BF 00 87 DE FB X/....(..`......
00404750 5F 04 1E A4 E4 6B 8B 34 00 00 D5 3E 00 84 81 3C _....k.4...>...<
00404760 88 AF C5 24 0F FF C7 00 6A CB A1 B5 47 19 F9 00 ...$....j...G...
00404770 A1 CC 00 60 B4 A6 32 FF 00 00 28 43 4B 72 ED 78 ...`..2...(CKr.x
00404780 97 F8 63 EF C7 09 FF 07 60 00 87 75 51 86 B9 36 ..c.....`..uQ..6
00404790 45 00 17 58 D2 01 D8 8C 65 F0 95 4D 17 00 00 BF E..X....e..M....
004047A0 3A 33 FD 38 30 46 CF F8 5F 22 05 F1 EF 00 26 70 :3.80F.._"....&p
004047B0 81 F3 FF 94 72 00 00 7A C2 16 FF 00 8B 81 1F E0 ....r..z........
004047C0 84 67 4A 6F 19 71 86 B9 FF FF 41 66 22 0E 0C 9E .gJo.q....Af"...
004047D0 E3 FA 33 B6 FF FF 81 61 B5 27 2D 49 92 ED A5 00 ..3....a.'-I....
004047E0 2A 06 F5 F8 9E E9 26 11 96 13 F3 82 50 00 9A 08 *.....&.....P...
004047F0 DF 00 CD A0 80 4D D1 D1 00 FF 39 E1 5F 5F B9 F4 .....M....9.__..
00404800 DA 00 7B 39 AB D2 16 FF AE AD 33 4A 04 5D 68 C7 ..{9......3J.]h.
00404810 A8 7F 04 00 46 3F 3B EF BC 0C FF 8A 61 F8 B7 FF ....F?;.....a...
00404820 00 AE 8F FB 0B 74 A3 EF 4E 00 82 CF 15 42 FF FF .....t..N....B..
00404830 BE 6E 8D 40 10 9B 5A 28 98 A0 00 6D 32 31 E8 20 .n.@..Z(...m21. 
00404840 02 38 DE 00 4C D1 10 B2 84 D7 1A A4 40 5C A8 F5 .8..L.......@\..
00404850 27 6F E8 88 F1 FF 00 54 C2 A7 ED CB 00 D8 4E FF 'o.....T......N.
00404860 F0 B4 0B E4 0A F1 34 00 98 AF 0C E4 C1 19 EA 00 ......4.........
00404870 4F 17 88 FF C1 EA B9 20 00 44 00 CD 54 00 BF 18 O...... .D..T...
00404880 A3 DE 7F D1 AB BD 00 6B 6C 81 0C 7B 00 1C 9A 18 .......kl..{....
00404890 2B 9B 81 FF ED 00 00 CA CC 4F A1 9F 88 E7 FF 8A +........O......
004048A0 B0 CD 70 AE 63 92 83 13 FF 05 3E 20 BF 70 1F FF ..p.c.....> .p..
004048B0 A8 DD AF 36 EF AF 08 68 10 5F 00 E2 56 90 8B 3B ...6...h._..V..;
004048C0 7C EC CD 0E 0C 17 FF 0C E8 9C 6D D2 00 78 64 F9 |.........m..xd.
004048D0 08 44 E0 78 2F 8D 08 1A CB FF B5 02 00 25 AF F2 .D.x/........%..
004048E0 D1 10 FF 52 78 9C FF 56 00 32 A6 FF A3 A1 FF 8B ...Rx..V.2......
004048F0 6B 49 13 00 76 29 40 4A 00 02 AD 4C 95 06 FF 35 kI..v)@J...L...5
00404900 42 00 62 3C 88 2D 3D FC 89 97 00 90 80 00 90 77 B.b<.-=........w
00404910 FF 63 09 2C 30 19 23 1F AD 5A 19 00 00 00 F3 A3 .c.,0.#..Z......
00404920 96 D6 CC 43 D9 17 00 6C E3 BD 0A C0 FF 00 90 EE ...C...l........
00404930 85 F6 3A 9A FF A9 22 1E 88 D3 CE 0F C8 00 84 3E ..:..."........>
00404940 CA 00 74 2E FF 75 8C AD D9 06 FF 29 11 00 8D 5D ..t..u.....)...]
00404950 31 C0 13 01 C1 E1 67 DF 00 3C A7 FA 00 53 F7 00 1.....g..<...S..
00404960 C1 F7 A5 75 0F D9 FF 60 00 00 F7 32 00 10 FC 04 ...u...`...2....
00404970 A5 1B CA 3C 83 05 00 09 FE E1 00 F7 00 4B 7B 40 ...<.........K{@
00404980 E8 EA 0B 8B 88 7F 23 20 00 00 5B 00 17 E2 71 E4 ......# ..[...q.
00404990 5A 1D 78 CC F3 F5 A3 A1 92 80 C7 A0 B2 4A DE 8F Z.x..........J..
004049A0 55 09 CE 6C E2 8B 13 AA 68 E0 5F 86 C7 00 E9 BA U..l....h._.....
004049B0 35 EF E8 00 48 D6 96 18 5C CE 32 99 0B ED E9 D1 5...H...\.2.....
004049C0 5D C7 00 E4 E4 C3 B0 0A 00 4E 33 9B 54 03 BD 14 ]........N3.T...
004049D0 FF 4E E1 0B D4 36 32 00 27 00 4C FF 00 13 D3 4B .N...62.'.L....K
004049E0 00 05 44 EC 00 EB 44 05 E7 5B 70 72 FC F8 F9 00 ..D...D..[pr....
004049F0 93 E2 7B E9 A6 41 95 BA A0 08 4C 00 00 B3 72 20 ..{..A....L...r 
00404A00 2F E3 EB 29 19 B7 D5 2B 9F CE 06 8B 82 36 00 97 /..)...+.....6..
00404A10 94 F6 FF 16 10 A5 00 CE CC 00 C0 DE 01 00 08 B0 ................
00404A20 4D 00 46 A0 64 04 CA 77 FC 7C 2B 74 F0 A3 00 C9 M.F.d..w.|+t....
00404A30 AF E3 8C 00 64 9B 10 00 2D A1 E2 3A F2 89 D7 27 ....d...-..:...'
00404A40 FF 5E 00 40 F2 CE A5 DF CA E3 A1 8A F7 00 23 83 .^.@..........#.
00404A50 05 D9 1A 00 1E 6C 0E 60 1A 40 78 00 00 00 65 EC .....l.`.@x...e.
00404A60 04 21 5C 9D 30 FF 9A 11 9C 76 00 00 00 CD 09 D2 .!\.0....v......
00404A70 FE 00 B4 FA FF 00 5A 32 8A 42 9E 00 08 20 E7 87 ......Z2.B... ..
00404A80 E1 E8 AB 9D DB 5A 00 F1 74 5B 40 A2 4F 00 00 04 .....Z..t[@.O...
00404A90 20 46 F2 80 00 BF 00 00 32 B6 AC 86 FF 7F E5 42  F......2......B
00404AA0 D8 94 FF CE 00 3E E4 64 CF 40 5B 23 85 00 16 FA .....>.d.@[#....
00404AB0 F1 F3 AC FD A3 F7 8C 16 FA FF A1 00 72 C0 C5 DD ............r...
00404AC0 26 3F 87 41 01 BE 00 AA 3E BD E7 00 AD 7A 65 32 &?.A....>....ze2
00404AD0 54 00 98 C1 2D 4D FF 4F 00 C1 3C 67 00 41 9B 04 T...-M.O..<g.A..
00404AE0 00 00 7C 74 D2 80 46 ED B3 72 6B 00 D5 FF E3 BB ..|t..F..rk.....
00404AF0 00 62 FF D3 6E 0C 9F BC FF 00 7E 3D 07 00 C9 E5 .b..n.....~=....
00404B00 00 CC 0F 7A 38 16 52 0C 44 5F 07 1F 11 C1 A0 00 ...z8.R.D_......
00404B10 B8 FF 90 89 EC EC B1 05 13 1A 37 D7 C6 E5 00 B9 ..........7.....
00404B20 00 DA 00 26 00 00 08 8E 8A E5 95 D6 03 00 00 04 ...&............
00404B30 11 00 42 7B EF 63 7C 54 5E 0C 57 3D 5C 4A F5 B9 ..B{.c|T^.W=\J..
00404B40 CD C0 AE A6 30 21 86 E7 00 61 38 FD 85 00 00 33 ....0!...a8....3
00404B50 B0 F1 86 00 29 01 A8 7F 83 CC 10 7C 61 D6 60 C3 ....)......|a.`.
00404B60 0E C8 EE 50 79 20 E4 66 1A 22 28 33 37 6F FF 4F ...Py .f."(37o.O
00404B70 44 BF E8 D8 E0 91 41 AC 00 08 63 FF 65 52 43 00 D.....A...c.eRC.
00404B80 F0 9A 20 35 04 06 0B 80 FF E2 0B 24 FF 52 53 32 .. 5.......$.RS2
00404B90 FA 0D 52 FF 9E C2 73 15 7B 0F FB 00 C6 86 00 FF ..R...s.{.......
00404BA0 B5 F4 E6 46 00 E7 94 5C 41 99 A8 14 BD C9 00 C2 ...F...\A.......
00404BB0 DA 51 D1 FF 3C 00 0E 01 A1 8E B0 00 00 00 FF DC .Q..<...........
00404BC0 33 DA E4 DC 36 3D C0 C0 07 D4 3D 90 61 6C F8 F6 3...6=....=.al..
00404BD0 D7 82 0F 00 00 4A 96 78 33 00 5B 00 B8 AD 26 49 .....J.x3.[...&I
00404BE0 1A 45 2C 46 1F 39 00 34 47 60 7E 1A 3B 50 00 19 .E,F.9.4G`~.;P..
00404BF0 FF 40 79 28 72 BA 85 8C DE F1 DD E9 04 62 B0 C3 .@y(r........b..
00404C00 12 00 C4 37 EA FF 00 22 3E 7C 58 10 DA E0 0A A0 ...7...">|X.....
00404C10 D2 FF 89 83 27 0B EB 68 60 93 0A 82 EF 00 53 CC ....'..h`.....S.
00404C20 7F 7F AC D4 9E 8C D8 30 9D 8F 92 E8 C5 44 37 00 .......0.....D7.
00404C30 00 F7 D9 F8 A7 01 5D 00 39 57 91 31 6C F0 1D 64 ......].9W.1l..d
00404C40 45 DC C9 3C 00 74 7E 8F 00 00 0F C7 4D B4 19 30 E..<.t~.....M..0
00404C50 AD 30 00 C9 B0 00 A7 EF EF 18 35 8E A0 00 FF 09 .0........5.....
00404C60 98 10 5F 0A 16 1B 8D 00 FF 2F 00 00 27 BA C0 FF .._....../..'...
00404C70 00 56 00 91 E0 D6 A9 AF B8 AB C9 FF 0B E3 18 FF .V..............
00404C80 E5 C2 7F 00 80 00 1E 86 E8 00 19 08 AF 2D 00 2C .............-.,
00404C90 14 0D 56 00 33 00 00 DE A1 21 FC 96 CE 00 11 9F ..V.3....!......
00404CA0 34 00 FF D7 46 9C 00 B4 1A DE 3F 1B 38 70 04 FF 4...F.....?.8p..
00404CB0 44 46 78 C5 37 1E 9D 7F 57 D0 73 40 BB 4C 00 91 DFx.7...W.s@.L..
00404CC0 7D E3 90 96 00 A8 FF 2B 99 D5 99 A2 FD FF EC C7 }......+........
00404CD0 43 00 FC 00 5A 57 FB 00 FF 00 2D 7F 3C 4C 8D 00 C...ZW....-.<L..
00404CE0 0B 03 00 00 A4 98 F7 FF 54 B3 1D E2 74 A0 F5 2B ........T...t..+
00404CF0 4A 95 DB 75 01 48 00 5B B1 B4 68 AC 1A FF FF 40 J..u.H.[..h....@
00404D00 3D 00 00 00 FF 00 92 9C 78 23 F5 A5 10 00 50 2B =.......x#....P+
00404D10 B3 38 E1 52 3B 20 17 42 07 8C FE 6E 65 36 8E 19 .8.R; .B...ne6..
00404D20 67 9C A3 B1 61 91 3D C9 0A 4F E0 20 EB CC 00 2E g...a.=..O. ....
00404D30 01 46 76 00 4A 3C 05 41 D1 7F B8 3C E1 4E 6D 00 .Fv.J<.A...<.Nm.
00404D40 5F 73 4C 00 C7 ED A0 B9 B3 C7 00 64 0C 2C 0A 00 _sL........d.,..
00404D50 F4 00 84 79 AC 08 32 D5 7B 00 C5 3C 3E 23 00 87 ...y..2.{..<>#..
00404D60 DE 5B 38 85 DF EC B2 71 C4 00 D0 00 7A 3B A7 00 .[8....q....z;..
00404D70 FF 9B 01 3B 00 82 21 D2 FE D1 0B 02 70 5C A7 00 ...;..!.....p\..
00404D80 BD 30 35 C9 FF BF 00 25 8B 95 00 63 00 02 DF 4C .05....%...c...L
00404D90 0F 72 9B 0D 42 9B 00 4F 0E FF 46 63 00 AF 00 95 .r..B..O..Fc....
00404DA0 89 F6 48 34 11 66 01 4A 46 FF F7 83 FF 3E E3 83 ..H4.f.JF....>..
00404DB0 B9 98 00 8A 63 9E 00 F6 3E CC 16 00 DD 00 00 6C ....c...>......l
00404DC0 4F FE 5D 11 1C 0B 88 42 81 0E A8 E9 05 9B 00 E3 O.]....B........
00404DD0 C9 BA 44 C8 10 00 E2 F4 63 00 A3 9B AA 14 31 55 ..D.....c.....1U
00404DE0 2D 82 12 DF 38 2C FF 00 61 4F 00 00 C1 A6 92 FF -...8,..aO......
00404DF0 CB FF DC 51 2E 6C F7 79 FF 00 70 00 00 80 19 B0 ...Q.l.y..p.....
00404E00 C6 3F 56 73 56 00 23 75 EE 70 00 4C 6C 38 C7 1A .?VsV.#u.p.Ll8..
00404E10 9D FF 00 66 FF 03 F0 34 99 35 FE 8D 0E 54 FE D6 ...f...4.5...T..
00404E20 90 19 3A FB 05 E2 A9 B4 D2 00 4A F7 97 99 5A AD ..:.......J...Z.
00404E30 97 D8 E3 4F 4C 8A 27 BC 2E 85 9D 88 00 0A EF 2F ...OL.'......../
00404E40 D0 FF 00 FF A6 0E BB D8 A4 CB C4 FF 00 37 14 C7 .............7..
00404E50 74 8D FE 00 1C 74 34 FF 11 00 4D C5 FF 75 1D 4E t....t4...M..u.N
00404E60 83 A2 78 8F F2 10 FC 28 3C FD E8 BE 28 8D FF 00 ..x....(<...(...
00404E70 96 00 BF F9 5A 5D 91 D3 1F 42 EF 50 12 2D F5 A0 ....Z]...B.P.-..
00404E80 FA 04 D2 39 DF E2 2E 4F 50 9B 00 C5 00 F8 0A FA ...9...OP.......
00404E90 10 D4 A0 14 00 DC 00 72 A5 7A 0B 46 00 17 FF 99 .......r.z.F....
00404EA0 D0 D3 95 15 F7 46 60 00 00 F7 70 0C FF 8C 32 F5 .....F`...p...2.
00404EB0 00 D3 23 7D 7E 00 A4 70 50 62 47 36 AC 70 00 80 ..#}~..pPbG6.p..
00404EC0 47 94 65 B6 13 FF 18 59 57 C0 2A 3E 70 02 46 33 G.e....YW.*>p.F3
00404ED0 FB BD E4 66 0A EF E3 53 CD 3B 7F F7 48 EB 24 93 ...f...S.;..H.$.
00404EE0 E2 5E 06 16 EF 8A B7 17 84 83 ED DC 37 E6 DE 4E .^..........7..N
00404EF0 00 5F 0F CF DD 00 45 82 4D 55 AB 11 A0 91 70 FF ._....E.MU....p.
00404F00 C7 64 08 A8 E4 FB DA 00 8E 00 29 00 DB B6 A3 9C .d........).....
00404F10 8A 36 88 CE 1B E6 2B E5 FF 00 66 1D 7D D8 21 2E .6....+...f.}.!.
00404F20 04 00 9E FB 00 76 C2 DC 00 0A FF 60 EA 34 21 36 .....v.....`.4!6
00404F30 B8 00 52 64 7F 9E 8B 6F 55 FE 70 E4 FD 00 23 B8 ..Rd...oU.p...#.
00404F40 FC 2F 28 DF C0 87 66 29 BF 72 F2 60 0F 0E CE 1A ./(...f).r.`....
00404F50 27 51 00 3C B4 27 00 21 6F 01 66 60 84 E4 57 2D 'Q.<.'.!o.f`..W-
00404F60 E4 06 1A ED CF B9 26 5D 00 FF FC 5E 2B AE 00 FE ......&]...^+...
00404F70 00 0D 4A 30 86 F7 6B 08 3C A4 50 CE 7F 2D C6 05 ..J0..k.<.P..-..
00404F80 D1 42 A4 F2 A1 86 5F 07 8B 58 EF A2 49 05 1D 04 .B...._..X..I...
00404F90 C9 41 C6 C8 C5 E9 D0 1B 1A 00 08 F5 00 B9 42 38 .A............B8
00404FA0 16 83 42 85 70 16 6A 7E 1E 74 9A E2 79 7A FF CE ..B.p.j~.t..yz..
00404FB0 7E 08 00 6B 0C 3A DA D3 8D 49 11 9F FF 00 8D 9B ~..k.:...I......
00404FC0 1D 61 00 00 6A 81 0A 00 9C ED FB A7 10 22 1C 60 .a..j........".`
00404FD0 E6 FF 00 69 00 5C 4D 59 62 24 00 64 73 B9 D8 9D ...i.\MYb$.ds...
00404FE0 E7 D8 FF 5A F6 26 73 77 76 0A 00 2E 6B F2 B7 F9 ...Z.&swv...k...
00404FF0 75 0D B0 62 61 FF 84 D2 5F 22 EF E6 5D B8 1B D7 u..ba..._"..]...
00405000 0B D2 C0 62 9F 00 6D 0F B2 DB FA D1 5E 34 1F F2 ...b..m.....^4..
00405010 75 BC 00 FA C9 65 00 5F DF 39 E6 10 6D C7 04 FB u....e._.9..m...
00405020 00 F0 CE 00 00 4E 00 40 BB F9 DE DF 21 00 B1 D7 .....N.@....!...
00405030 00 28 5C 81 27 37 C6 4B E6 44 17 36 00 8D 1D 96 .(\.'7.K.D.6....
00405040 2D CB FF 71 C2 C6 BC EE 0A 3E CD 45 8D 40 31 BD -..q.....>.E.@1.
00405050 00 D5 EE 24 00 00 81 8D 23 1C C9 19 17 00 FF B8 ...$....#.......
00405060 84 41 34 00 80 FF A8 62 8A FF AB 11 63 52 36 89 .A4....b....cR6.
00405070 8C D3 A0 86 3F DA FF 23 EB 36 88 7D A7 21 8B 61 ....?..#.6.}.!.a
00405080 9D B2 20 D8 2C AA F7 00 9F 68 0B 43 F5 EB B7 88 .. .,....h.C....
00405090 79 93 E3 8F 9A B0 0A 24 4B 3E 00 D3 A8 56 10 8A y......$K>...V..
004050A0 CE C1 0D 27 C6 EB 33 15 8B 22 30 F4 D2 61 B3 FF ...'..3.."0..a..
004050B0 73 00 17 94 DC 00 00 27 1E 34 B2 71 5E 9B 00 04 s......'.4.q^...
004050C0 2B 00 D9 8F 65 CD CB 86 CA 86 D9 E3 43 FF 47 AD +...e.......C.G.
004050D0 BC FF 8D FF 0C 82 E3 D3 28 00 04 8B 00 00 00 F4 ........(.......
004050E0 93 DF A1 FF 7E CF FF D2 00 98 3D E1 5C 82 8B 05 ....~.....=.\...
004050F0 DE 02 44 57 00 00 DA 42 A7 CF 5C A5 00 C1 19 00 ..DW...B..\.....
00405100 3E BC EE B1 7C FD B7 46 8D 38 9F FF 5B 00 00 90 >...|..F.8..[...
00405110 FC 9F 00 09 40 AF 00 7A 00 FF 00 CD C6 EA 00 70 ....@..z.......p
00405120 15 79 FF 29 69 0B 00 D5 1D 00 CF 00 77 6A 75 F9 .y.)i.......wju.
00405130 5C 00 1A 9E 3F FF CD 6C B9 03 05 0F 00 00 00 41 \...?..l.......A
00405140 10 78 34 7B 0F 00 F2 57 82 AA 20 00 00 4C C5 35 .x4{...W.. ..L.5
00405150 A7 94 00 09 F7 26 FF 68 51 C0 5C 93 52 35 95 C1 .....&.hQ.\.R5..
00405160 69 62 00 08 A8 DD E0 91 BF 00 FE 03 30 83 03 7B ib..........0..{
00405170 6B DF BF 85 6A 4F D8 D7 34 00 55 7A 00 BA CE 2C k...jO..4.Uz...,
00405180 00 9F EA 7C 30 7D D0 33 C8 60 74 00 C7 19 94 9B ...|0}.3.`t.....
00405190 F9 05 89 57 3E 70 1A 00 3E 73 77 C4 E4 18 9D 01 ...W>p..>sw.....
004051A0 00 00 04 FF C3 E7 ED 05 86 E4 00 A6 5D 10 ED 5E ............]..^
004051B0 0F 00 D1 33 28 A5 00 65 74 5D B7 FF 00 92 62 95 ...3(..et]....b.
004051C0 62 00 18 A0 8C 61 71 64 6C A0 EB 00 0C 28 FF 00 b....aqdl....(..
004051D0 CE 4C F3 00 BA C9 00 20 FA C5 A9 8B FC 28 3E 00 .L..... .....(>.
004051E0 00 00 33 C9 4E 34 10 FA 15 75 FB 1D 1F 4C 00 81 ..3.N4...u...L..
004051F0 3E C6 D3 FF 58 E0 73 3F 66 67 A2 24 75 EB FF 00 >...X.s?fg.$u...
00405200 6A EF F4 FF 00 74 1A 50 9B 4E 40 77 00 80 99 67 j....t.P.N@w...g
00405210 45 6D F6 6C 9C FD DE C3 08 3E C5 AD 10 F4 00 73 Em.l.....>.....s
00405220 68 FF 00 4C 62 00 C7 C2 FF D3 EF 85 C7 00 19 7F h..Lb...........
00405230 D2 40 ED 55 DB 00 64 B2 F7 23 B6 00 FD 7C FF 57 .@.U..d..#...|.W
00405240 21 84 1E FF C8 83 00 44 00 42 35 13 F9 7E 3F EF !......D.B5..~?.
00405250 31 0D 57 C5 7C E0 04 00 05 E5 56 C4 FF 4B C0 F1 1.W.|.....V..K..
00405260 47 00 FF 82 40 C8 BB A3 8D 36 2A D4 00 96 7E 51 G...@....6*...~Q
00405270 8A 05 C5 D4 F8 D1 8F 32 D1 B6 56 0D 2C 05 00 FF .......2..V.,...
00405280 B0 33 AE FF 73 B1 3B 00 FF 49 B3 36 34 70 EF 2E .3..s.;..I.64p..
00405290 00 9C 06 2B F1 75 00 B0 8B 18 73 61 00 14 FF CC ...+.u....sa....
004052A0 7E 0E 00 00 00 49 33 90 18 0E FF 63 4E 87 00 F4 ~....I3....cN...
004052B0 81 BD 0E FF DC 47 F3 5C 00 3C 8C DF 3E FF 00 B2 .....G.\.<..>...
004052C0 F6 93 00 7B 2A 03 FF 00 86 82 5B 4C CB 33 22 DB ...{*.....[L.3".
004052D0 AE C5 B0 15 C7 B3 B8 65 40 81 7E 2D 6F 2E 11 00 .......e@.~-o...
004052E0 F8 EF C9 65 23 83 E3 00 F5 13 8C 49 26 00 2B BF ...e#......I&.+.
004052F0 04 40 29 8D D9 A8 38 66 40 F7 DF FF DB 76 59 42 .@)...8f@....vYB
00405300 31 00 89 B1 F9 F1 77 FF 29 D7 53 83 00 39 80 43 1.....w.).S..9.C
00405310 62 00 F2 4B 92 56 00 DB 48 30 C0 A7 A5 64 D2 E7 b..K.V..H0...d..
00405320 00 E7 28 00 00 5C F0 A6 87 B3 F7 25 A6 C6 00 85 ..(..\.....%....
00405330 BE 00 B4 28 B0 00 84 3C 60 00 E0 0C 05 A0 00 06 ...(...<`.......
00405340 8F D8 62 2B 36 2F 70 49 3D 00 4E 72 00 0A 55 00 ..b+6/pI=.Nr..U.
00405350 06 DB AB 14 00 3B 00 55 E1 07 C1 1B 02 56 FF 03 .....;.U.....V..
00405360 26 08 28 10 66 9E A4 00 00 9B 90 84 2F 85 EB C9 &.(.f......./...
00405370 FF EC 43 B4 94 49 07 00 FF F9 A3 00 B3 36 EE 57 ..C..I.......6.W
00405380 E6 38 13 C7 6C 19 00 B5 00 1A E7 2F AD 5C CF DE .8..l....../.\..
00405390 10 C1 0C D1 ED 70 5D 00 00 F0 0C 46 A3 B8 22 01 .....p]....F..".
004053A0 CC A8 A5 9B 3E B9 D9 3A 08 D0 60 D9 6D E2 15 92 ....>..:..`.m...
004053B0 75 00 95 EF 6F B9 31 68 3B 60 53 FA 12 F2 24 F7 u...o.1h;`S...$.
004053C0 7D 05 02 A7 44 83 6B 00 C9 AA 47 30 00 20 EF 00 }...D.k...G0. ..
004053D0 81 6A 00 36 00 07 00 54 63 EB C4 5E 3E 75 92 69 .j.6...Tc..^>u.i
004053E0 9C 28 07 80 C1 80 1C 76 EC 8D 10 40 FF 73 F2 09 .(.....v...@.s..
004053F0 6B 83 18 24 52 51 00 78 A4 08 AA 0B 1A 00 00 A4 k..$RQ.x........
00405400 AD A3 34 FF 12 FC 9E CD 61 00 BC 85 FF C5 0D F1 ..4.....a.......
00405410 25 7D E4 1B 9D 08 00 D2 1E A5 00 64 7C 8D 40 4E %}.........d|.@N
00405420 00 6E 32 C9 4D 07 00 5F 93 4E B5 0B EB 04 28 F6 .n2.M.._.N....(.
00405430 72 B9 00 00 FF 2D 5F 5A 62 68 5D 8B 00 EF 00 C2 r....-_Zbh].....
00405440 57 17 C0 F2 C0 D3 A6 7E F4 B3 F9 5D C2 BF 06 C0 W......~...]....
00405450 C5 8A 00 C3 FF 08 E7 00 2C E5 A1 08 FF FF 09 0C ........,.......
00405460 62 00 68 8E 81 80 33 48 C1 00 86 CE 00 07 14 00 b.h...3H........
00405470 FF 0F 18 FF FB 80 C9 00 FF 00 D3 E0 9D BB B9 00 ................
00405480 10 7E 2C 97 75 A0 CD EC 00 74 58 82 00 2A 23 49 .~,.u....tX..*#I
00405490 FF 0F 5C C0 F9 14 C0 96 FB C6 89 C6 C0 27 70 BA ..\..........'p.
004054A0 8F 27 61 8A 59 CC 19 66 A5 00 00 5D 00 BD 42 89 .'a.Y..f...]..B.
004054B0 FF B4 85 FF 30 F5 8F AC 86 86 16 00 92 FF BA 00 ....0...........
004054C0 00 C0 0F 10 DB 4C FF 38 63 A6 E0 6F 00 C8 7D 17 .....L.8c..o..}.
004054D0 49 70 67 49 04 FF 2C C8 85 FF 8E B8 E9 00 00 85 IpgI..,.........
004054E0 0C 45 4B B9 CF F9 FB 3C 04 7A FD 09 BF 9B 30 A8 .EK....<.z....0.
004054F0 1D A2 6B 00 00 00 14 86 2A 88 FF DB CE D3 D4 A4 ..k.....*.......
00405500 EA 2F 44 D0 92 82 C9 00 F0 26 61 AE A5 EA D6 7D ./D......&a....}
00405510 00 85 06 8F 24 ED C5 C2 3C 48 D0 00 00 4D 73 BF ....$...<H...Ms.
00405520 FF A0 BF 1B 18 C3 DE 0C AB 3F C1 7B BB 82 6D 5C .........?.{..m\
00405530 FF BD 00 00 21 00 76 EF 18 38 34 22 05 F6 80 00 ....!.v..84"....
00405540 42 FF FF FF 97 51 B6 00 87 40 AF DB E9 FD 00 81 B....Q...@......
00405550 79 FF 69 C1 E2 A8 FF 0A 04 00 C5 09 7B 00 70 29 y.i.........{.p)
00405560 CF 6E 8F 38 0E 27 6C C1 BE 75 BD 89 96 26 4F C5 .n.8.'l..u...&O.
00405570 07 00 4A 82 09 8F 31 00 60 81 00 F4 0E 61 00 8B ..J...1.`....a..
00405580 00 00 DA FF E7 F3 3E C8 28 00 8B 14 69 C6 1D EE ......>.(...i...
00405590 72 F6 66 4E 5C E8 94 EF 31 8F 81 00 B0 FC 3A 5A r.fN\...1.....:Z
004055A0 CC 03 1F A7 71 E0 C0 E0 00 D1 2B 00 89 90 0F 60 ....q.....+....`
004055B0 90 B2 3F 16 02 DD B4 B3 D4 04 0E ED 96 06 71 C6 ..?...........q.
004055C0 20 32 0B 00 CE 83 7D 02 D0 8C 1F 00 FF EE 00 38  2....}........8
004055D0 94 0E EE 15 E8 63 EE 7E 27 C2 7F C6 B7 9D B1 FF .....c.~'.......
004055E0 9E 00 00 C5 3E 93 00 5A 81 FF 36 00 1B 00 57 2E ....>..Z..6...W.
004055F0 47 89 4B 16 49 00 40 33 00 B0 5D 43 17 5C 10 89 G.K.I.@3..]C.\..
00405600 B7 DC 5E DC 24 A7 00 0C 23 8D 09 00 C0 43 E6 53 ..^.$...#....C.S
00405610 00 75 03 C3 8A FF 7A 74 2C 5B 00 AE 5C 2C A1 EE .u....zt,[..\,..
00405620 04 91 3C 57 00 DC F4 5F B1 E7 1C 2E 5F 61 14 42 ..<W..._...._a.B
00405630 00 10 12 9E D4 D6 00 00 A6 16 F5 A9 8D 05 04 0B ................
00405640 FF 5E C3 81 45 90 00 4D C3 F2 17 34 86 70 19 05 .^..E..M...4.p..
00405650 00 00 00 1F 4E 6B F7 A6 8D 70 31 DB 46 FE 6C 08 ....Nk...p1.F.l.
00405660 0C 8A BF 0B 9D 62 E4 81 7C F5 F9 00 BB 76 CF 77 .....b..|....v.w
00405670 61 10 00 C7 F2 A3 6E 2E EF DA A6 12 15 B7 D8 07 a.....n.........
00405680 7F FD A1 BF 78 5B 60 8A 3B 83 05 70 85 05 E3 D9 ....x[`.;..p....
00405690 8C 00 16 AA 41 82 71 00 78 05 00 1A F0 9A 20 83 ....A.q.x..... .
004056A0 8C A3 EC A3 D3 51 BE 23 BF 93 3B 78 EC 1C 00 9E .....Q.#..;x....
004056B0 96 00 FB 16 26 66 AF CE A3 8B CB B2 94 00 9E 8B ....&f..........
004056C0 3F 31 00 0E 9D 49 55 69 4E D7 CC D9 FC FE 72 7A ?1...IUiN.....rz
004056D0 C3 3D 32 9A 00 8B 02 BA E0 3C 6C F8 2D D0 E0 D6 .=2......<l.-...
004056E0 50 8F 88 00 54 E8 1C 04 00 1D E4 BB 32 BB 2B 00 P...T.......2.+.
004056F0 FF B9 14 6A 50 C1 CF 1B E1 DC 00 71 00 0E B1 A5 ...jP......q....
00405700 F1 00 99 EE 96 2F ED 51 40 20 FF EC 6B 86 FA FB ...../.Q@ ..k...
00405710 98 21 08 FF 62 DB 90 89 FE DC 35 00 47 6C A4 21 .!..b.....5.Gl.!
00405720 FB C3 C0 78 00 00 C0 79 00 82 41 D5 00 9C 13 2F ...x...y..A..../
00405730 00 1E A1 43 D5 14 67 0C 43 00 62 D9 96 1A 17 DF ...C..g.C.b.....
00405740 AB FD 87 CD 1C 53 92 6E D3 6D 08 5C FF 17 00 00 .....S.n.m.\....
00405750 7F 00 EB 0F BC 00 40 B8 61 EE CB 9C 22 1F CA CD ......@.a..."...
00405760 B5 00 BD 4F 66 20 CF 18 00 FF A5 78 CD FF A0 32 ...Of .....x...2
00405770 E1 02 70 A1 F7 1E 15 EE AC 0C 2C 8D 4C B5 2E C3 ..p.......,.L...
00405780 36 63 81 2C 00 1D 7A A8 1A 19 B8 C8 FC C0 3C B3 6c.,..z.......<.
00405790 4A B7 B9 48 19 FC 38 18 AE EE 1C C8 11 05 73 7A J..H..8.......sz
004057A0 78 71 EE F1 20 02 00 CD 98 21 36 5E FF 9B 2E 31 xq.. ....!6^...1
004057B0 B7 1E B2 7E E5 1D 90 CC 25 CB D1 15 6C ED 21 00 ...~....%...l.!.
004057C0 F8 B4 81 A9 85 4A D5 00 98 ED 77 2E 22 FF FF 95 .....J....w."...
004057D0 61 9E 46 9F A5 E8 C1 8B EA E0 42 87 CF 6C 22 00 a.F.......B..l".
004057E0 9D EB 06 FF 02 C6 ED BF 6C FD 72 4A 00 CE 00 C6 ........l.rJ....
004057F0 1B 5A 08 FF 00 00 50 60 34 16 FD 9A 73 F0 89 FC .Z....P`4...s...
00405800 A8 00 00 EE 22 0F DA C5 15 0E B2 9D DB AC 36 B7 ....".........6.
00405810 E5 52 60 4E C5 90 81 17 21 F2 AB 00 2A 9C A1 82 .R`N....!...*...
00405820 69 07 D6 F1 00 B8 A1 FB 19 00 AC 9D 65 A1 3A 2C i...........e.:,
00405830 71 C2 FF 81 10 04 C4 7A F3 00 94 D2 D9 DE 07 48 q......z.......H
00405840 00 7C B9 82 A7 C8 F5 DF F5 0E 7E 3C 84 9B FF 2B .|........~<...+
00405850 C4 00 DB AA 18 00 66 A5 42 D7 15 DE 00 90 76 E0 ......f.B.....v.
00405860 7F 8F 00 08 9E 9A 68 7C 00 00 65 84 0C A0 00 6A ......h|..e....j
00405870 47 00 89 9C 6E 00 F4 0F 33 DA 33 1F FF 20 36 C9 G...n...3.3.. 6.
00405880 EF C2 A3 F3 B1 69 DB C0 00 3C E4 11 41 C2 32 4F .....i...<..A.2O
00405890 70 74 00 9B 6A 1F 3D 24 4E A3 00 00 31 9B E0 5E pt..j.=$N...1..^
004058A0 00 20 5C 04 EF 00 00 7F C6 CF 09 A4 2B 6A 33 54 . \.........+j3T
004058B0 6C 1A FC B3 26 76 9B C7 00 7A 79 82 FF 14 10 00 l...&v...zy.....
004058C0 0C 42 00 29 2A 00 48 12 81 FF 87 00 00 FF 18 A2 .B.)*.H.........
004058D0 B6 A4 67 69 10 00 B8 92 DF 14 80 00 D6 44 1D 7B ..gi.........D.{
004058E0 54 DF 92 08 F0 1D B8 44 2C 3B 00 B5 FF ED E6 CC T......D,;......
004058F0 23 1E 00 00 F5 1E A5 FD 89 09 90 27 3E EF CA 00 #..........'>...
00405900 22 00 F2 1E 00 3E 94 23 50 2C 24 61 73 7F 02 F1 "....>.#P,$as...
00405910 00 32 99 BF 2A 54 CC 1C B1 80 0E F2 3F 03 4D E3 .2..*T......?.M.
00405920 5F DA FD 2A 00 B0 F8 FF 8C 3B 51 FF 0F FF 4F 40 _..*.....;Q...O@
00405930 03 9C D1 62 F7 A2 00 E5 7E 69 46 29 00 00 81 C1 ...b....~iF)....
00405940 11 CE 1F 41 77 1D 01 08 99 D3 38 00 00 FF ED 2D ...Aw.....8....-
00405950 AC 91 E3 06 20 35 E0 82 EA E8 70 20 00 3D 91 FC .... 5....p .=..
00405960 44 53 71 5B BF 56 15 FF C1 47 8E 00 7A A7 43 01 DSq[.V...G..z.C.
00405970 38 00 3B FF C8 F9 14 62 00 51 DB FF 77 28 00 BC 8.;....b.Q..w(..
00405980 A4 1F 00 85 00 B5 A6 9A 19 04 AD E4 C8 ED 00 BF ................
00405990 B0 88 0C 50 E3 B8 33 F9 ED 46 E2 00 86 4E E9 54 ...P..3..F...N.T
004059A0 2A 00 3D 4E 9C 00 3B 00 D2 00 0B 56 B4 2F 00 40 *.=N..;....V./.@
004059B0 00 FA 40 FF 28 EB 54 ED 05 E0 5A 37 00 00 6C FE ..@.(.T...Z7..l.
004059C0 72 EC 86 02 A2 03 86 30 5E D0 BF B7 3E B2 F5 00 r......0^...>...
004059D0 49 93 43 F4 8F F7 CC B4 65 BD 6F C5 10 2B D2 12 I.C.....e.o..+..
004059E0 31 B4 7F 38 24 27 3A 21 CB 99 9B 15 41 7F BC 23 1..8$':!....A..#
004059F0 5F 5E 56 D1 B0 0A 5E A0 00 ED E0 8E 13 EE FF 39 _^V...^........9
00405A00 06 C6 77 9B F0 0C 12 66 ED 00 23 08 8B A8 BC 00 ..w....f..#.....
00405A10 5C 30 10 00 00 FF C1 0A 10 8B A2 6F 18 7F BE E2 \0.........o....
00405A20 FF 92 0B 8F 22 3D CE 27 00 29 34 04 93 00 61 64 ...."=.'.)4...ad
00405A30 E0 D3 00 A3 38 15 10 00 C5 58 00 9F E4 FF 08 D6 ....8....X......
00405A40 03 F1 BE 00 37 36 33 00 FF FF 92 2A D8 00 FD 00 ....763....*....
00405A50 97 54 69 3D 04 38 09 1C 79 47 8F 60 8A 10 D0 01 .Ti=.8..yG.`....
00405A60 81 3B 00 49 33 FD 00 FF 00 20 84 FF 6D 79 E0 7A .;.I3.... ..my.z
00405A70 D6 DB 70 A5 F3 EF EE 00 20 00 1C 53 E8 38 0F DB ..p..... ..S.8..
00405A80 C7 63 DF C0 18 CC FD FE 21 39 23 00 00 27 B1 E3 .c......!9#..'..
00405A90 FF C3 3E 3B 00 00 C6 45 47 C2 E5 A1 A8 21 09 51 ..>;...EG....!.Q
00405AA0 00 FF 0E 0A 07 F9 39 F5 07 00 5E 21 0C FF B0 63 ......9...^!...c
00405AB0 B7 EB 94 F9 CA 07 2A D7 B8 ED 55 00 A3 0A 00 CB ......*...U.....
00405AC0 AC 8B 00 7D 0A 43 8A C8 1D 00 00 FF 42 FF F6 3A ...}.C......B..:
00405AD0 86 59 9B 6D 02 67 99 20 3C 8B 00 50 C9 E4 81 24 .Y.m.g. <..P...$
00405AE0 C2 41 1F F6 83 B4 66 00 45 42 C2 B9 BA 00 8E 00 .A....f.EB......
00405AF0 00 8B 5D E2 CB 86 3B B0 A8 E8 6F F8 ED 60 15 00 ..]...;...o..`..
00405B00 F8 00 97 85 2D 00 91 93 FF 49 BA 2A FF 53 00 00 ....-....I.*.S..
00405B10 6E 77 D1 DF 18 1B EF 3B 8F 5B EE 4E 74 00 C0 5D nw.....;.[.Nt..]
00405B20 28 60 57 E8 72 BE 40 13 73 00 28 83 00 64 E5 B1 (`W.r.@.s.(..d..
00405B30 65 37 5B C4 67 27 E3 A5 25 25 FF 00 93 EA FF 2E e7[.g'..%%......
00405B40 00 56 FD 00 F5 BC 58 B8 00 80 81 CF 00 48 01 F8 .V....X......H..
00405B50 4B 5A B0 DC 03 BC 00 8B A5 00 77 00 1E EA 08 F7 KZ........w.....
00405B60 9F 8B 1B 04 CE 88 A6 90 4C F3 00 38 7D 00 BE 03 ........L..8}...
00405B70 EA AA 70 E5 01 23 1F 11 C8 1F 79 24 B3 E2 B7 D0 ..p..#....y$....
00405B80 8F E0 3E 24 26 00 62 76 6C C3 00 00 07 CF FA 07 ..>$&.bvl.......
00405B90 90 A1 D6 A0 00 00 D3 FF 0C A4 BE 78 31 C3 79 00 ...........x1.y.
00405BA0 18 37 CB A2 A6 51 1C AD 48 00 00 FD 00 00 61 A2 .7...Q..H.....a.
00405BB0 9C 7B B7 DC 9C B7 B1 29 29 F5 E2 F0 29 03 0B B6 .{.....))...)...
00405BC0 60 C8 D2 76 00 00 84 00 2B C5 FF 00 00 FF FD 57 `..v....+......W
00405BD0 12 30 FF B0 05 F7 AC FC 7C 95 29 88 1D 48 00 E9 .0......|.)..H..
00405BE0 3D 8E 9B 00 00 00 4B 0A 00 BF D8 FE EC D3 11 83 =.....K.........
00405BF0 F4 C3 44 F3 A2 9D 59 88 47 7E B9 7B 20 B4 79 C9 ..D...Y.G~.{ .y.
00405C00 1B 44 A2 00 3D 0A 03 D6 74 FF C9 A2 AD 2E 10 C4 .D..=...t.......
00405C10 0D BF 06 6E 2C 9F F9 F4 14 80 77 4E 69 00 B9 4C ...n,.....wNi..L
00405C20 8C E4 1C E2 C4 65 4E 00 1D 79 30 75 00 00 8A D8 .....eN..y0u....
00405C30 58 03 87 53 A2 00 06 00 86 FF 3C 02 68 B5 06 54 X..S......<.h..T
00405C40 47 20 43 C8 7F 59 30 AB 19 D0 DB 70 83 6D 41 C3 G C..Y0....p.mA.
00405C50 B9 DA F6 90 1D A1 FD D5 88 1B 00 18 08 FC 69 C2 ..............i.
00405C60 38 9B 8F FF 00 9F 04 40 F3 1F F6 00 1E EA 7C F4 8......@......|.
00405C70 83 43 8B 4D FF F6 73 DC 61 FF A6 EF 3F 84 8E 9E .C.M..s.a...?...
00405C80 A6 E1 00 49 00 8A ED 49 61 63 C5 00 00 40 F8 0E ...I...Iac...@..
00405C90 FB 0C 12 04 CC 22 72 99 0E 48 00 C1 00 01 04 06 ....."r..H......
00405CA0 FF 1E 70 36 2F 93 00 CC 79 D5 31 84 C5 FF DF 0F ..p6/...y.1.....
00405CB0 DC 38 00 DD FF A6 A1 02 40 90 04 8B 00 9D FF 66 .8......@......f
00405CC0 43 69 00 51 FC FF 00 3E CC DC 00 00 0E 63 06 13 Ci.Q...>.....c..
00405CD0 33 FF 81 DD DA 00 27 0D 27 96 00 0F D9 80 4A 98 3.....'.'.....J.
00405CE0 D4 00 75 F3 D1 8B 00 40 FF 80 00 00 4E 00 F2 5F ..u....@....N.._
00405CF0 FF 89 00 FF FC 99 FE E5 C6 08 00 9D 00 27 72 F2 .............'r.
00405D00 20 B0 F0 FF 10 1A 00 FF 7C 99 8B FC 3F 5F 66 00  .......|...?_f.
00405D10 0F 59 F8 00 94 5D 99 00 00 B2 00 00 D1 00 9E 1F .Y...]..........
00405D20 C9 C2 70 8F FD 83 F1 00 EB 52 84 A9 99 00 00 FF ..p......R......
00405D30 5D F4 EE 5F FF 00 00 00 FF EC E3 D6 5D 6B 25 1A ].._........]k%.
00405D40 21 09 85 9E A1 F0 59 FF E8 15 3A 9B 00 E0 21 5E !.....Y...:...!^
00405D50 88 C2 1C 3C 81 F6 1F 7F 72 94 40 D4 86 B3 3F FB ...<....r.@...?.
00405D60 C2 87 93 30 FC BF D9 20 3D 15 44 38 00 00 15 7B ...0... =.D8...{
00405D70 B1 5C 05 9D 00 A6 9B 2B 3B B7 93 64 DA C0 47 FF .\.....+;..d..G.
00405D80 2E A9 B1 F9 92 2A F1 7D 0B 52 98 F7 8E 00 00 92 .....*.}.R......
00405D90 03 98 FE 49 F4 EB 00 DE 00 FF 45 54 00 00 B1 6A ...I......ET...j
00405DA0 65 83 B2 66 03 28 80 00 00 5F D4 8D 0C 00 FF D0 e..f.(..._......
00405DB0 60 5B 61 77 00 98 87 AB 20 00 B3 5D 3C C6 FD FD `[aw.... ..]<...
00405DC0 2C 72 1C EF 9E 52 12 30 A4 00 D8 7E 00 DE BD 0E ,r...R.0...~....
00405DD0 9C 5F 9A 19 02 3F 01 0F 00 F1 20 E1 F1 5A 55 80 ._...?.... ..ZU.
00405DE0 FF 80 E2 FB 0D EB 18 85 DA 6C C4 A0 D6 FD 4E DA .........l....N.
00405DF0 B2 15 43 FF 89 C3 52 3E 00 00 70 4A 7B FB 00 3E ..C...R>..pJ{..>
00405E00 50 88 47 00 16 C1 E4 CC 00 80 04 73 23 1A 00 C1 P.G........s#...
00405E10 DE 00 16 CA 2E A7 48 74 00 A2 AD 00 66 00 A6 00 ......Ht....f...
00405E20 2C 37 DF 00 00 5F E0 00 CB A6 68 78 41 DC 00 38 ,7..._....hxA..8
00405E30 18 03 00 F7 25 FF 0C 1C 10 94 69 A4 E7 5F 80 51 ....%.....i.._.Q
00405E40 00 B2 B7 7C 32 7D D8 BF 00 68 42 E6 55 93 C2 5B ...|2}...hB.U..[
00405E50 4C 68 00 6E B3 22 29 42 B8 D6 49 00 37 7E 30 00 Lh.n.")B..I.7~0.
00405E60 DE A7 BA 6D 00 6A F3 EF AF 38 31 00 00 F3 F8 35 ...m.j...81....5
00405E70 A0 EC 24 F7 47 00 00 10 00 61 F3 00 00 5A 58 FD ..$.G....a...ZX.
00405E80 85 49 A6 90 F6 80 C2 78 90 AB 91 0A 86 66 6A 4C .I.....x.....fjL
00405E90 00 F0 B0 D5 CF F1 23 68 75 49 9A 00 CF 00 C9 D0 ......#huI......
00405EA0 A3 B9 85 00 DE 00 ED 00 9E 3A 90 5E 10 22 7B F8 .........:.^."{.
00405EB0 00 9D A7 0F 0F B9 BD F9 BE 05 4A 84 02 AF 00 CB ..........J.....
00405EC0 92 E1 48 F6 D4 9C E3 6B CD 97 E7 1B 0D E3 45 70 ..H....k......Ep
00405ED0 FF FF CF 83 00 FF F2 BD 21 FF 4E A3 E8 B8 F7 00 ........!.N.....
00405EE0 64 00 B1 61 3B 79 34 E6 BA 44 FF 5D 0B EC 00 47 d..a;y4..D.]...G
00405EF0 57 EF 6F D8 67 83 AF FF B6 9C 0E EA 15 88 E6 13 W.o.g...........
00405F00 AC FB 02 60 00 00 83 40 00 26 04 85 58 FB 76 C9 ...`...@.&..X.v.
00405F10 09 3C FF C3 82 B1 03 E6 00 04 48 72 00 F7 26 FE .<........Hr..&.
00405F20 6F 94 9F 9D 00 00 FF A4 62 09 E2 00 0E 5D E1 00 o.......b....]..
00405F30 11 EB 00 2B 62 00 26 4D F1 FF DA D1 D5 89 3E 00 ...+b.&M......>.
00405F40 95 F0 F1 FA E5 03 FF 92 8A E2 FF FF 88 7E 71 BC .............~q.
00405F50 0C 90 FF 6A FC 16 3A E0 97 FF F8 61 79 00 B7 00 ...j..:....ay...
00405F60 E5 00 2C 23 08 1A 61 FF EF D8 09 D5 4C 0B EF FF ..,#..a.....L...
00405F70 00 13 C2 BC 80 47 9C 00 69 00 CD 7E DE CC FF 70 .....G..i..~...p
00405F80 06 26 A5 8F 00 9F CB ED 00 00 77 FF 50 BD 00 00 .&........w.P...
00405F90 00 D3 00 52 00 21 00 78 B1 00 B3 10 46 A8 22 43 ...R.!.x....F."C
00405FA0 77 FF 43 AE 07 99 01 FF F0 4C F8 9F 86 51 46 BD w.C......L...QF.
00405FB0 82 1E 6D B8 72 33 F9 FC 85 00 DB 02 7C 30 7D 5A ..m.r3......|0}Z
00405FC0 00 E1 2C 20 3F 6D 60 00 00 6C 41 09 CE 51 5C C7 .., ?m`..lA..Q\.
00405FD0 E8 10 4E 69 00 22 00 70 59 00 38 A5 40 A0 2F 0F ..Ni.".pY.8.@./.
00405FE0 B8 68 DD FF F2 00 1B 56 1D CC F3 86 97 20 85 86 .h.....V..... ..
00405FF0 FF A8 6C C8 A9 FD 43 BB 73 00 44 00 72 FF 9B 80 ..l...C.s.D.r...
00406000 B3 00 BC FF E0 43 AB 72 8B A8 A1 00 20 A9 27 26 .....C.r.... .'&
00406010 41 BB 40 30 FA 4A CE B5 00 54 41 8B 08 00 05 D4 A.@0.J...TA.....
00406020 99 F1 07 00 06 BD DA 37 86 1A 28 FF 64 0E 1B 00 .......7..(.d...
00406030 57 EB C4 54 48 CF 00 00 93 38 73 0B EF 94 7A 51 W..TH....8s...zQ
00406040 36 75 A5 80 B7 F3 00 00 40 41 00 8F 41 FF 17 61 6u......@A..A..a
00406050 00 C7 F4 79 C2 00 64 00 04 F3 00 04 84 80 00 AD ...y..d.........
00406060 FF 96 B1 B2 C5 00 9E 62 00 DA F8 00 28 DE BC F0 .......b....(...
00406070 E1 6C 5E C2 FF 8B 09 2D BA 0D CB 25 00 76 03 D5 .l^....-...%.v..
00406080 FF 79 00 36 1F 96 30 CA 48 86 42 B4 9A B0 B4 64 .y.6..0.H.B....d
00406090 00 05 E3 9B D7 00 FB 45 C4 4F 82 63 79 00 00 0E .......E.O.cy...
004060A0 62 4C C7 AE D3 60 64 00 5E 7B 11 B4 00 A1 91 3F bL...`d.^{.....?
004060B0 20 04 1C 06 9C 0D 97 AF 00 07 97 B1 E0 00 14 80  ...............
004060C0 44 87 FF 00 62 D0 46 78 FD 1E 74 57 B0 00 00 8F D...b.Fx..tW....
004060D0 62 6F 4C BF 00 FF 46 4F A0 36 9D 0E FF 03 0E E7 boL...FO.6......
004060E0 FF FF 00 44 B9 87 B4 38 84 76 00 E3 B8 49 05 FF ...D...8.v...I..
004060F0 81 91 61 68 00 5E DD 56 9B A3 65 00 D6 78 6A 9C ..ah.^.V..e..xj.
00406100 8A 3C 00 D0 3F 8C 15 0D BE B7 93 EE A0 BD DC 92 .<..?...........
00406110 96 00 00 A0 C2 FC 4A 3C 5A D9 A6 E4 3E 4F 98 04 ......J<Z...>O..
00406120 00 8A BB 4C 81 54 00 FF 0C 1E 00 F1 3C 42 E5 FF ...L.T......<B..
00406130 1E EF 56 00 DC 35 47 CB C6 27 09 E4 71 00 F4 D4 ..V..5G..'..q...
00406140 9D 43 F0 3E FF 00 6B 66 DF 82 5E 00 98 67 A2 00 .C.>..kf..^..g..
00406150 E0 FF DF 0A AE 00 AD 00 B9 03 00 F5 83 E0 2C 00 ..............,.
00406160 E0 30 28 22 5C 31 D3 00 4C CE F7 EA B7 00 2A 4F .0("\1..L.....*O
00406170 F7 00 07 00 AA E2 49 DD 8F B7 E8 24 22 00 4A CA ......I....$".J.
00406180 B0 51 EB FE 54 14 E1 7E 39 7A 41 CC 88 98 12 25 .Q..T..~9zA....%
00406190 7E 9E 31 D8 72 B4 BA 62 45 65 09 15 22 00 A9 90 ~.1.r..bEe.."...
004061A0 80 09 00 FF F0 1C E6 CF 07 2E BF D6 0F 6D 16 47 .............m.G
004061B0 C5 E0 ED B9 FF E0 02 5F 2A 50 F4 92 F3 6E C6 07 ......._*P...n..
004061C0 A3 AD E2 14 D5 AD 4E DD 83 D5 BB 31 00 EC 36 4B ......N....1..6K
004061D0 99 FA 20 F1 1A A8 66 F8 08 E2 00 00 7A 6F 06 A2 .. ...f.....zo..
004061E0 00 DF 00 70 DF 8E 4F F7 68 E5 FF D2 D9 EF 10 26 ...p..O.h......&
004061F0 7D EE 00 00 68 D3 62 F8 A9 E6 82 00 1B 11 91 D6 }...h.b.........
00406200 D3 C7 C0 9F 98 B1 00 00 00 4C A7 00 0E DF 55 D8 .........L....U.
00406210 5C FF 3D B7 5C 8F C2 FF 00 A7 31 16 08 00 55 0A \.=.\.....1...U.
00406220 B0 FD 34 66 8B 88 D8 03 50 97 08 9C 32 26 98 C0 ..4f....P...2&..
00406230 50 F1 E4 D5 A6 0C CF D8 1E 1E 84 C6 68 AC 00 68 P...........h..h
00406240 00 41 BC FF 79 76 F4 17 CB 02 99 F5 6C DC 2F 2C .A..yv......l./,
00406250 82 00 0F A2 48 40 00 00 A4 00 03 38 6D E8 00 3B ....H@.....8m..;
00406260 00 43 60 73 B3 07 6F 72 F3 E2 3E A5 00 16 FF 00 .C`s..or..>.....
00406270 E7 B3 23 B3 39 85 03 00 00 28 7B FE 32 4B E0 58 ..#.9....({.2K.X
00406280 60 D3 49 3C C4 79 FF 00 3C 96 4E DD 58 FF CE C5 `.I<.y..<.N.X...
00406290 30 DE F1 52 00 A1 8D F3 7F 19 C5 CC 00 C3 60 36 0..R..........`6
004062A0 41 FE 4E C0 00 C2 40 4D 09 22 D2 81 00 4D 00 00 A.N...@M."...M..
004062B0 15 00 FF C4 F6 C4 FF FF 00 A3 2C 8D A9 2A C3 FB ..........,..*..
004062C0 78 37 D0 CE 88 FF FF D1 2E F2 C7 1E D6 00 1C E2 x7..............
004062D0 00 2C 3D BF 2E 92 00 EE 00 86 0E 0E EE 48 00 00 .,=..........H..
004062E0 B0 D3 FF 37 FF CC D6 50 20 97 FF 84 DC 1C 84 D7 ...7...P .......
004062F0 8A 00 FD 00 00 FF 37 96 65 03 58 00 25 EB D3 BA ......7.e.X.%...
00406300 74 24 D7 20 10 CF 9E 00 BE F2 FF 30 B7 0E 2F BE t$. .......0../.
00406310 9A F3 C9 E2 0F 36 2F 00 00 08 82 BF E0 E1 AD D6 .....6/.........
00406320 88 10 81 C2 91 FF B9 D9 7C 95 FF 5E 00 56 A3 C0 ........|..^.V..
00406330 9E BC 06 00 FF 0B 00 00 00 D1 45 36 60 94 00 63 ..........E6`..c
00406340 DE 5F 8B DE 2D FC 9E 8F 31 40 A0 AC 04 58 00 1E ._..-...1@...X..
00406350 A4 FA D7 D1 1D 00 7F 69 97 0A 8A 6A 00 E1 1B 00 .......i...j....
00406360 CC 00 AC 02 75 AF E3 F6 66 00 51 1F 07 F6 FE B7 ....u...f.Q.....
00406370 DF 8A 89 F1 34 A2 96 F9 36 30 C4 0C 03 F3 9A FB ....4...60......
00406380 0E CC 65 BA 60 03 2D 0F 7B 1F 12 7F FD BF 4D A4 ..e.`.-.{.....M.
00406390 67 54 FF 00 F2 56 FD 54 4D BB 00 F7 81 09 E4 00 gT...V.TM.......
004063A0 42 50 45 02 EF 7B B2 2C 08 61 7B BD 03 9F 39 D1 BPE..{.,.a{...9.
004063B0 00 67 48 27 8C 8E 0B D3 00 AC FF 00 1D CC 83 D0 .gH'............
004063C0 16 A4 52 86 00 BC 2F 30 02 20 00 63 00 5C D4 3D ..R.../0. .c.\.=
004063D0 00 DB 70 00 DF 7D B5 35 40 28 0F 1F 50 D6 9F C3 ..p..}.5@(..P...
004063E0 B7 33 D5 B4 D6 69 F2 00 20 9C 4E 24 00 86 DB 28 .3...i.. .N$...(
004063F0 DC FF 9A DF 03 6C F9 11 99 DE 17 83 76 00 EF 2E .....l......v...
00406400 E8 BF 69 CF 00 DF D0 31 62 13 00 00 00 AF 03 F7 ..i....1b.......
00406410 69 54 87 07 BF 42 FE D6 00 E3 E0 E7 33 8E 20 6A iT...B......3. j
00406420 BA B4 00 49 3B 9D 88 62 94 DE 08 00 00 29 00 7F ...I;..b.....)..
00406430 20 00 F3 F8 65 06 00 00 B3 9A 8A 36 1F EE 00 A3  ...e......6....
00406440 CE 9F FC 00 CC BC F1 78 0B FF 61 FF 27 40 1E 2C .......x..a.'@.,
00406450 64 EA 0F BE 25 E1 B4 1A 2E 73 FF 84 F7 5B 3E 00 d...%....s...[>.
00406460 CC FF 70 24 97 2E E4 01 D5 20 28 88 6B F1 B6 FF ..p$..... (.k...
00406470 DA 5D 00 2A 06 72 AF E7 2A 18 03 00 70 DD 00 00 .].*.r..*...p...
00406480 47 71 68 8C 00 AE 00 E8 B7 97 A0 91 10 F7 E4 EC Gqh.............
00406490 E0 6D 90 FF EB 15 2D 60 D8 70 FF 71 FF D3 00 43 .m....-`.p.q...C
004064A0 AA 00 E1 F1 D9 C0 EC E5 4C 00 30 DC 00 83 2B 77 ........L.0...+w
004064B0 00 00 93 97 00 00 08 18 85 15 0C 3D CA CC E1 E4 ...........=....
004064C0 00 31 D3 A0 96 00 00 AD 0A 7D 52 07 D8 0B E7 0B .1.......}R.....
004064D0 68 F1 00 00 B8 00 A4 3A DB AB C3 86 08 44 00 FE h......:.....D..
004064E0 00 DD 62 F4 E3 00 00 E3 8F CF 3B 2A 5F FF DA B8 ..b.......;*_...
004064F0 00 6F E7 E9 FF D3 A6 45 B9 B4 AF CA 00 E6 B6 86 .o.....E........
00406500 18 8E F7 FF 00 B9 CE 73 85 BE 69 CC 19 88 CA AB .......s..i.....
00406510 89 87 D4 00 31 A4 90 32 71 23 5E 38 D8 D5 FF 7A ....1..2q#^8...z
00406520 71 AC 33 1B 86 72 BB FF ED 78 B5 6F B1 0B BA 47 q.3..r...x.o...G
00406530 B9 3B 5C DE 93 00 F7 91 35 FF 6B 61 BE 13 F6 E1 .;\.....5.ka....
00406540 ED 1B DA A2 A2 06 7F 0C 14 FF 4B 9C AB 13 38 A5 ..........K...8.
00406550 9A 06 F8 83 92 46 7E 2C C4 10 00 18 AB 20 F1 6D .....F~,..... .m
00406560 45 6C BD 2C 08 41 00 41 85 BB A7 00 00 14 93 40 El.,.A.A.......@
00406570 FF 90 42 FC A7 FB 02 4D EF 1C 9D 16 2D 32 A0 70 ..B....M....-2.p
00406580 0A 4D 36 60 1F 11 FE 27 32 3A 28 DD 00 EE FF 00 .M6`...'2:(.....
00406590 FF 1B FB 51 09 27 38 07 9A FF A6 98 A6 E4 96 37 ...Q.'8........7
004065A0 E0 CB 86 00 BD 00 07 47 AB DB FF 67 88 00 93 19 .......G...g....
004065B0 A2 4C 00 80 9E B7 1B 26 00 00 47 71 A2 F5 1E 1D .L.....&..Gq....
004065C0 BB 18 60 00 00 A4 9B C1 08 A0 70 51 01 00 7C 14 ..`.......pQ..|.
004065D0 A6 D2 DE 46 2F FC 90 73 CE D8 EF 30 BB 0D 56 6C ...F/..s...0..Vl
004065E0 AB 0E 02 58 EE 4F AC 52 2A 00 66 59 F9 01 39 00 ...X.O.R*.fY..9.
004065F0 AE 91 88 A3 88 0B 35 CF B6 BD 00 92 F1 00 BE 81 ......5.........
00406600 00 00 00 00 00 00 00 00 00 00 00 00 00 00 00 00 ................
00406610 00 00 00 00 00 00 00 00 00 00 00 00 00 00 00 00 ................
00406620 00 00 00 00 00 00 00 00 00 00 00 00 00 00 00 00 ................
00406630 00 00 00 00 00 00 00 00 00 00 00 00 00 00 00 00 ................
00406640 00 00 00 00 00 00 00 00 00 00 00 00 00 00 00 00 ................
00406650 00 00 00 00 00 00 00 00 00 00 00 00 00 00 00 00 ................
00406660 00 00 00 00 00 00 00 00 00 00 00 00 00 00 00 00 ................
00406670 00 00 00 00 00 00 00 00 00 00 00 00 00 00 00 00 ................
00406680 00 00 00 00 00 00 00 00 00 00 00 00 00 00 00 00 ................
00406690 00 00 00 00 00 00 00 00 00 00 00 00 00 00 00 00 ................
004066A0 00 00 00 00 00 00 00 00 00 00 00 00 00 00 00 00 ................
004066B0 00 00 00 00 00 00 00 00 00 00 00 00 00 00 00 00 ................
004066C0 00 00 00 00 00 00 00 00 00 00 00 00 00 00 00 00 ................
004066D0 00 00 00 00 00 00 00 00 00 00 00 00 00 00 00 00 ................
004066E0 00 00 00 00 00 00 00 00 00 00 00 00 00 00 00 00 ................
004066F0 00 00 00 00 00 00 00 00 00 00 00 00 00 00 00 00 ................
00406700 00 00 00 00 00 00 00 00 00 00 00 00 00 00 00 00 ................
00406710 00 00 00 00 00 00 00 00 00 00 00 00 00 00 00 00 ................
00406720 00 00 00 00 00 00 00 00 00 00 00 00 00 00 00 00 ................
00406730 00 00 00 00 00 00 00 00 00 00 00 00 00 00 00 00 ................
00406740 00 00 00 00 00 00 00 00 00 00 00 00 00 00 00 00 ................
00406750 00 00 00 00 00 00 00 00 00 00 00 00 00 00 00 00 ................
00406760 00 00 00 00 00 00 00 00 00 00 00 00 00 00 00 00 ................
00406770 00 00 00 00 00 00 00 00 00 00 00 00 00 00 00 00 ................
00406780 00 00 00 00 00 00 00 00 00 00 00 00 00 00 00 00 ................
00406790 00 00 00 00 00 00 00 00 00 00 00 00 00 00 00 00 ................
004067A0 00 00 00 00 00 00 00 00 00 00 00 00 00 00 00 00 ................
004067B0 00 00 00 00 00 00 00 00 00 00 00 00 00 00 00 00 ................
004067C0 00 00 00 00 00 00 00 00 00 00 00 00 00 00 00 00 ................
004067D0 00 00 00 00 00 00 00 00 00 00 00 00 00 00 00 00 ................
004067E0 00 00 00 00 00 00 00 00 00 00 00 00 00 00 00 00 ................
004067F0 00 00 00 00 00 00 00 00 00 00 00 00 00 00 00 00 ................
00406800 00 00 00 00 00 00 00 00 00 00 00 00 00 00 00 00 ................
00406810 00 00 00 00 00 00 00 00 00 00 00 00 00 00 00 00 ................
00406820 00 00 00 00 00 00 00 00 00 00 00 00 00 00 00 00 ................
00406830 00 00 00 00 00 00 00 00 00 00 00 00 00 00 00 00 ................
00406840 00 00 00 00 00 00 00 00 00 00 00 00 00 00 00 00 ................
00406850 00 00 00 00 00 00 00 00 00 00 00 00 00 00 00 00 ................
00406860 00 00 00 00 00 00 00 00 00 00 00 00 00 00 00 00 ................
00406870 00 00 00 00 00 00 00 00 00 00 00 00 00 00 00 00 ................
00406880 00 00 00 00 00 00 00 00 00 00 00 00 00 00 00 00 ................
00406890 00 00 00 00 00 00 00 00 00 00 00 00 00 00 00 00 ................
004068A0 00 00 00 00 00 00 00 00 00 00 00 00 00 00 00 00 ................
004068B0 00 00 00 00 00 00 00 00 00 00 00 00 00 00 00 00 ................
004068C0 00 00 00 00 00 00 00 00 00 00 00 00 00 00 00 00 ................
004068D0 00 00 00 00 00 00 00 00 00 00 00 00 00 00 00 00 ................
004068E0 00 00 00 00 00 00 00 00 00 00 00 00 00 00 00 00 ................
004068F0 00 00 00 00 00 00 00 00 00 00 00 00 00 00 00 00 ................
00406900 00 00 00 00 00 00 00 00 00 00 00 00 00 00 00 00 ................
00406910 00 00 00 00 00 00 00 00 00 00 00 00 00 00 00 00 ................
00406920 00 00 00 00 00 00 00 00 00 00 00 00 00 00 00 00 ................
00406930 00 00 00 00 00 00 00 00 00 00 00 00 00 00 00 00 ................
00406940 00 00 00 00 00 00 00 00 00 00 00 00 00 00 00 00 ................
00406950 00 00 00 00 00 00 00 00 00 00 00 00 00 00 00 00 ................
00406960 00 00 00 00 00 00 00 00 00 00 00 00 00 00 00 00 ................
00406970 00 00 00 00 00 00 00 00 00 00 00 00 00 00 00 00 ................
00406980 00 00 00 00 00 00 00 00 00 00 00 00 00 00 00 00 ................
00406990 00 00 00 00 00 00 00 00 00 00 00 00 00 00 00 00 ................
004069A0 00 00 00 00 00 00 00 00 00 00 00 00 00 00 00 00 ................
004069B0 00 00 00 00 00 00 00 00 00 00 00 00 00 00 00 00 ................
004069C0 00 00 00 00 00 00 00 00 00 00 00 00 00 00 00 00 ................
004069D0 00 00 00 00 00 00 00 00 00 00 00 00 00 00 00 00 ................
004069E0 00 00 00 00 00 00 00 00 00 00 00 00 00 00 00 00 ................
004069F0 00 00 00 00 00 00 00 00 00 00 00 00 00 00 00 00 ................
00406A00 00 00 00 00 00 00 00 00 00 00 00 00 00 00 00 00 ................
00406A10 00 00 00 00 00 00 00 00 00 00 00 00 00 00 00 00 ................
00406A20 00 00 00 00 00 00 00 00 00 00 00 00 00 00 00 00 ................
00406A30 00 00 00 00 00 00 00 00 00 00 00 00 00 00 00 00 ................
00406A40 00 00 00 00 00 00 00 00 00 00 00 00 00 00 00 00 ................
00406A50 00 00 00 00 00 00 00 00 00 00 00 00 00 00 00 00 ................
00406A60 00 00 00 00 00 00 00 00 00 00 00 00 00 00 00 00 ................
00406A70 00 00 00 00 00 00 00 00 00 00 00 00 00 00 00 00 ................
00406A80 00 00 00 00 00 00 00 00 00 00 00 00 00 00 00 00 ................
00406A90 00 00 00 00 00 00 00 00 00 00 00 00 00 00 00 00 ................
00406AA0 00 00 00 00 00 00 00 00 00 00 00 00 00 00 00 00 ................
00406AB0 00 00 00 00 00 00 00 00 00 00 00 00 00 00 00 00 ................
00406AC0 00 00 00 00 00 00 00 00 00 00 00 00 00 00 00 00 ................
00406AD0 00 00 00 00 00 00 00 00 00 00 00 00 00 00 00 00 ................
00406AE0 00 00 00 00 00 00 00 00 00 00 00 00 00 00 00 00 ................
00406AF0 00 00 00 00 00 00 00 00 00 00 00 00 00 00 00 00 ................
00406B00 00 00 00 00 00 00 00 00 00 00 00 00 00 00 00 00 ................
00406B10 00 00 00 00 00 00 00 00 00 00 00 00 00 00 00 00 ................
00406B20 00 00 00 00 00 00 00 00 00 00 00 00 00 00 00 00 ................
00406B30 00 00 00 00 00 00 00 00 00 00 00 00 00 00 00 00 ................
00406B40 00 00 00 00 00 00 00 00 00 00 00 00 00 00 00 00 ................
00406B50 00 00 00 00 00 00 00 00 00 00 00 00 00 00 00 00 ................
00406B60 00 00 00 00 00 00 00 00 00 00 00 00 00 00 00 00 ................
00406B70 00 00 00 00 00 00 00 00 00 00 00 00 00 00 00 00 ................
00406B80 00 00 00 00 00 00 00 00 00 00 00 00 00 00 00 00 ................
00406B90 00 00 00 00 00 00 00 00 00 00 00 00 00 00 00 00 ................
00406BA0 00 00 00 00 00 00 00 00 00 00 00 00 00 00 00 00 ................
00406BB0 00 00 00 00 00 00 00 00 00 00 00 00 00 00 00 00 ................
00406BC0 00 00 00 00 00 00 00 00 00 00 00 00 00 00 00 00 ................
00406BD0 00 00 00 00 00 00 00 00 00 00 00 00 00 00 00 00 ................
00406BE0 00 00 00 00 00 00 00 00 00 00 00 00 00 00 00 00 ................
00406BF0 00 00 00 00 00 00 00 00 00 00 00 00 00 00 00 00 ................
00406C00 00 00 00 00 00 00 00 00 00 00 00 00 00 00 00 00 ................
00406C10 00 00 00 00 00 00 00 00 00 00 00 00 00 00 00 00 ................
00406C20 00 00 00 00 00 00 00 00 00 00 00 00 00 00 00 00 ................
00406C30 00 00 00 00 00 00 00 00 00 00 00 00 00 00 00 00 ................
00406C40 00 00 00 00 00 00 00 00 00 00 00 00 00 00 00 00 ................
00406C50 00 00 00 00 00 00 00 00 00 00 00 00 00 00 00 00 ................
00406C60 00 00 00 00 00 00 00 00 00 00 00 00 00 00 00 00 ................
00406C70 00 00 00 00 00 00 00 00 00 00 00 00 00 00 00 00 ................
00406C80 00 00 00 00 00 00 00 00 00 00 00 00 00 00 00 00 ................
00406C90 00 00 00 00 00 00 00 00 00 00 00 00 00 00 00 00 ................
00406CA0 00 00 00 00 00 00 00 00 00 00 00 00 00 00 00 00 ................
00406CB0 00 00 00 00 00 00 00 00 00 00 00 00 00 00 00 00 ................
00406CC0 00 00 00 00 00 00 00 00 00 00 00 00 00 00 00 00 ................
00406CD0 00 00 00 00 00 00 00 00 00 00 00 00 00 00 00 00 ................
00406CE0 00 00 00 00 00 00 00 00 00 00 00 00 00 00 00 00 ................
00406CF0 00 00 00 00 00 00 00 00 00 00 00 00 00 00 00 00 ................
00406D00 00 00 00 00 00 00 00 00 00 00 00 00 00 00 00 00 ................
00406D10 00 00 00 00 00 00 00 00 00 00 00 00 00 00 00 00 ................
00406D20 00 00 00 00 00 00 00 00 00 00 00 00 00 00 00 00 ................
00406D30 00 00 00 00 00 00 00 00 00 00 00 00 00 00 00 00 ................
00406D40 00 00 00 00 00 00 00 00 00 00 00 00 00 00 00 00 ................
00406D50 00 00 00 00 00 00 00 00 00 00 00 00 00 00 00 00 ................
00406D60 00 00 00 00 00 00 00 00 00 00 00 00 00 00 00 00 ................
00406D70 00 00 00 00 00 00 00 00 00 00 00 00 00 00 00 00 ................
00406D80 00 00 00 00 00 00 00 00 00 00 00 00 00 00 00 00 ................
00406D90 00 00 00 00 00 00 00 00 00 00 00 00 00 00 00 00 ................
00406DA0 00 00 00 00 00 00 00 00 00 00 00 00 00 00 00 00 ................
00406DB0 00 00 00 00 00 00 00 00 00 00 00 00 00 00 00 00 ................
00406DC0 00 00 00 00 00 00 00 00 00 00 00 00 00 00 00 00 ................
00406DD0 00 00 00 00 00 00 00 00 00 00 00 00 00 00 00 00 ................
00406DE0 00 00 00 00 00 00 00 00 00 00 00 00 00 00 00 00 ................
00406DF0 00 00 00 00 00 00 00 00 00 00 00 00 00 00 00 00 ................
00406E00 00 00 00 00 00 00 00 00 00 00 00 00 00 00 00 00 ................
00406E10 00 00 00 00 00 00 00 00 00 00 00 00 00 00 00 00 ................
00406E20 00 00 00 00 00 00 00 00 00 00 00 00 00 00 00 00 ................
00406E30 00 00 00 00 00 00 00 00 00 00 00 00 00 00 00 00 ................
00406E40 00 00 00 00 00 00 00 00 00 00 00 00 00 00 00 00 ................
00406E50 00 00 00 00 00 00 00 00 00 00 00 00 00 00 00 00 ................
00406E60 00 00 00 00 00 00 00 00 00 00 00 00 00 00 00 00 ................
00406E70 00 00 00 00 00 00 00 00 00 00 00 00 00 00 00 00 ................
00406E80 00 00 00 00 00 00 00 00 00 00 00 00 00 00 00 00 ................
00406E90 00 00 00 00 00 00 00 00 00 00 00 00 00 00 00 00 ................
00406EA0 00 00 00 00 00 00 00 00 00 00 00 00 00 00 00 00 ................
00406EB0 00 00 00 00 00 00 00 00 00 00 00 00 00 00 00 00 ................
00406EC0 00 00 00 00 00 00 00 00 00 00 00 00 00 00 00 00 ................
00406ED0 00 00 00 00 00 00 00 00 00 00 00 00 00 00 00 00 ................
00406EE0 00 00 00 00 00 00 00 00 00 00 00 00 00 00 00 00 ................
00406EF0 00 00 00 00 00 00 00 00 00 00 00 00 00 00 00 00 ................
00406F00 00 00 00 00 00 00 00 00 00 00 00 00 00 00 00 00 ................
00406F10 00 00 00 00 00 00 00 00 00 00 00 00 00 00 00 00 ................
00406F20 00 00 00 00 00 00 00 00 00 00 00 00 00 00 00 00 ................
00406F30 00 00 00 00 00 00 00 00 00 00 00 00 00 00 00 00 ................
00406F40 00 00 00 00 00 00 00 00 00 00 00 00 00 00 00 00 ................
00406F50 00 00 00 00 00 00 00 00 00 00 00 00 00 00 00 00 ................
00406F60 00 00 00 00 00 00 00 00 00 00 00 00 00 00 00 00 ................
00406F70 00 00 00 00 00 00 00 00 00 00 00 00 00 00 00 00 ................
00406F80 00 00 00 00 00 00 00 00 00 00 00 00 00 00 00 00 ................
00406F90 00 00 00 00 00 00 00 00 00 00 00 00 00 00 00 00 ................
00406FA0 00 00 00 00 00 00 00 00 00 00 00 00 00 00 00 00 ................
00406FB0 00 00 00 00 00 00 00 00 00 00 00 00 00 00 00 00 ................
00406FC0 00 00 00 00 00 00 00 00 00 00 00 00 00 00 00 00 ................
00406FD0 00 00 00 00 00 00 00 00 00 00 00 00 00 00 00 00 ................
00406FE0 00 00 00 00 00 00 00 00 00 00 00 00 00 00 00 00 ................
00406FF0 00 00 00 00 00 00 00 00 00 00 00 00 00 00 00 00 ................
00407000 00 00 00 00 00 00 00 00 00 00 00 00 00 00 00 00 ................
00407010 00 00 00 00 00 00 00 00 00 00 00 00 00 00 00 00 ................
00407020 00 00 00 00 00 00 00 00 00 00 00 00 00 00 00 00 ................
00407030 00 00 00 00 00 00 00 00 00 00 00 00 00 00 00 00 ................
00407040 00 00 00 00 00 00 00 00 00 00 00 00 00 00 00 00 ................
00407050 00 00 00 00 00 00 00 00 00 00 00 00 00 00 00 00 ................
00407060 00 00 00 00 00 00 00 00 00 00 00 00 00 00 00 00 ................
00407070 00 00 00 00 00 00 00 00 00 00 00 00 00 00 00 00 ................
00407080 00 00 00 00 00 00 00 00 00 00 00 00 00 00 00 00 ................
00407090 00 00 00 00 00 00 00 00 00 00 00 00 00 00 00 00 ................
004070A0 00 00 00 00 00 00 00 00 00 00 00 00 00 00 00 00 ................
004070B0 00 00 00 00 00 00 00 00 00 00 00 00 00 00 00 00 ................
004070C0 00 00 00 00 00 00 00 00 00 00 00 00 00 00 00 00 ................
004070D0 00 00 00 00 00 00 00 00 00 00 00 00 00 00 00 00 ................
004070E0 00 00 00 00 00 00 00 00 00 00 00 00 00 00 00 00 ................
004070F0 00 00 00 00 00 00 00 00 00 00 00 00 00 00 00 00 ................
00407100 00 00 00 00 00 00 00 00 00 00 00 00 00 00 00 00 ................
00407110 00 00 00 00 00 00 00 00 00 00 00 00 00 00 00 00 ................
00407120 00 00 00 00 00 00 00 00 00 00 00 00 00 00 00 00 ................
00407130 00 00 00 00 00 00 00 00 00 00 00 00 00 00 00 00 ................
00407140 00 00 00 00 00 00 00 00 00 00 00 00 00 00 00 00 ................
00407150 00 00 00 00 00 00 00 00 00 00 00 00 00 00 00 00 ................
00407160 00 00 00 00 00 00 00 00 00 00 00 00 00 00 00 00 ................
00407170 00 00 00 00 00 00 00 00 00 00 00 00 00 00 00 00 ................
00407180 00 00 00 00 00 00 00 00 00 00 00 00 00 00 00 00 ................
00407190 00 00 00 00 00 00 00 00 00 00 00 00 00 00 00 00 ................
004071A0 00 00 00 00 00 00 00 00 00 00 00 00 00 00 00 00 ................
004071B0 00 00 00 00 00 00 00 00 00 00 00 00 00 00 00 00 ................
004071C0 00 00 00 00 00 00 00 00 00 00 00 00 00 00 00 00 ................
004071D0 00 00 00 00 00 00 00 00 00 00 00 00 00 00 00 00 ................
004071E0 00 00 00 00 00 00 00 00 00 00 00 00 00 00 00 00 ................
004071F0 00 00 00 00 00 00 00 00 00 00 00 00 00 00 00 00 ................
00407200 00 00 00 00 00 00 00 00 00 00 00 00 00 00 00 00 ................
00407210 00 00 00 00 00 00 00 00 00 00 00 00 00 00 00 00 ................
00407220 00 00 00 00 00 00 00 00 00 00 00 00 00 00 00 00 ................
00407230 00 00 00 00 00 00 00 00 00 00 00 00 00 00 00 00 ................
00407240 00 00 00 00 00 00 00 00 00 00 00 00 00 00 00 00 ................
00407250 00 00 00 00 00 00 00 00 00 00 00 00 00 00 00 00 ................
00407260 00 00 00 00 00 00 00 00 00 00 00 00 00 00 00 00 ................
00407270 00 00 00 00 00 00 00 00 00 00 00 00 00 00 00 00 ................
00407280 00 00 00 00 00 00 00 00 00 00 00 00 00 00 00 00 ................
00407290 00 00 00 00 00 00 00 00 00 00 00 00 00 00 00 00 ................
004072A0 00 00 00 00 00 00 00 00 00 00 00 00 00 00 00 00 ................
004072B0 00 00 00 00 00 00 00 00 00 00 00 00 00 00 00 00 ................
004072C0 00 00 00 00 00 00 00 00 00 00 00 00 00 00 00 00 ................
004072D0 00 00 00 00 00 00 00 00 00 00 00 00 00 00 00 00 ................
004072E0 00 00 00 00 00 00 00 00 00 00 00 00 00 00 00 00 ................
004072F0 00 00 00 00 00 00 00 00 00 00 00 00 00 00 00 00 ................
00407300 00 00 00 00 00 00 00 00 00 00 00 00 00 00 00 00 ................
00407310 00 00 00 00 00 00 00 00 00 00 00 00 00 00 00 00 ................
00407320 00 00 00 00 00 00 00 00 00 00 00 00 00 00 00 00 ................
00407330 00 00 00 00 00 00 00 00 00 00 00 00 00 00 00 00 ................
00407340 00 00 00 00 00 00 00 00 00 00 00 00 00 00 00 00 ................
00407350 00 00 00 00 00 00 00 00 00 00 00 00 00 00 00 00 ................
00407360 00 00 00 00 00 00 00 00 00 00 00 00 00 00 00 00 ................
00407370 00 00 00 00 00 00 00 00 00 00 00 00 00 00 00 00 ................
00407380 00 00 00 00 00 00 00 00 00 00 00 00 00 00 00 00 ................
00407390 00 00 00 00 00 00 00 00 00 00 00 00 00 00 00 00 ................
004073A0 00 00 00 00 00 00 00 00 00 00 00 00 00 00 00 00 ................
004073B0 00 00 00 00 00 00 00 00 00 00 00 00 00 00 00 00 ................
004073C0 00 00 00 00 00 00 00 00 00 00 00 00 00 00 00 00 ................
004073D0 00 00 00 00 00 00 00 00 00 00 00 00 00 00 00 00 ................
004073E0 00 00 00 00 00 00 00 00 00 00 00 00 00 00 00 00 ................
004073F0 00 00 00 00 00 00 00 00 00 00 00 00 00 00 00 00 ................
00407400 00 00 00 00 00 00 00 00 00 00 00 00 00 00 00 00 ................
00407410 00 00 00 00 00 00 00 00 00 00 00 00 00 00 00 00 ................
00407420 00 00 00 00 00 00 00 00 00 00 00 00 00 00 00 00 ................
00407430 00 00 00 00 00 00 00 00 00 00 00 00 00 00 00 00 ................
00407440 00 00 00 00 00 00 00 00 00 00 00 00 00 00 00 00 ................
00407450 00 00 00 00 00 00 00 00 00 00 00 00 00 00 00 00 ................
00407460 00 00 00 00 00 00 00 00 00 00 00 00 00 00 00 00 ................
00407470 00 00 00 00 00 00 00 00 00 00 00 00 00 00 00 00 ................
00407480 00 00 00 00 00 00 00 00 00 00 00 00 00 00 00 00 ................
00407490 00 00 00 00 00 00 00 00 00 00 00 00 00 00 00 00 ................
004074A0 00 00 00 00 00 00 00 00 00 00 00 00 00 00 00 00 ................
004074B0 00 00 00 00 00 00 00 00 00 00 00 00 00 00 00 00 ................
004074C0 00 00 00 00 00 00 00 00 00 00 00 00 00 00 00 00 ................
004074D0 00 00 00 00 00 00 00 00 00 00 00 00 00 00 00 00 ................
004074E0 00 00 00 00 00 00 00 00 00 00 00 00 00 00 00 00 ................
004074F0 00 00 00 00 00 00 00 00 00 00 00 00 00 00 00 00 ................
00407500 00 00 00 00 00 00 00 00 00 00 00 00 00 00 00 00 ................
00407510 00 00 00 00 00 00 00 00 00 00 00 00 00 00 00 00 ................
00407520 00 00 00 00 00 00 00 00 00 00 00 00 00 00 00 00 ................
00407530 00 00 00 00 00 00 00 00 00 00 00 00 00 00 00 00 ................
00407540 00 00 00 00 00 00 00 00 00 00 00 00 00 00 00 00 ................
00407550 00 00 00 00 00 00 00 00 00 00 00 00 00 00 00 00 ................
00407560 00 00 00 00 00 00 00 00 00 00 00 00 00 00 00 00 ................
00407570 00 00 00 00 00 00 00 00 00 00 00 00 00 00 00 00 ................
00407580 00 00 00 00 00 00 00 00 00 00 00 00 00 00 00 00 ................
00407590 00 00 00 00 00 00 00 00 00 00 00 00 00 00 00 00 ................
004075A0 00 00 00 00 00 00 00 00 00 00 00 00 00 00 00 00 ................
004075B0 00 00 00 00 00 00 00 00 00 00 00 00 00 00 00 00 ................
004075C0 00 00 00 00 00 00 00 00 00 00 00 00 00 00 00 00 ................
004075D0 00 00 00 00 00 00 00 00 00 00 00 00 00 00 00 00 ................
004075E0 00 00 00 00 00 00 00 00 00 00 00 00 00 00 00 00 ................
004075F0 00 00 00 00 00 00 00 00 00 00 00 00 00 00 00 00 ................
00407600 00 00 00 00 00 00 00 00 00 00 00 00 00 00 00 00 ................
00407610 00 00 00 00 00 00 00 00 00 00 00 00 00 00 00 00 ................
00407620 00 00 00 00 00 00 00 00 00 00 00 00 00 00 00 00 ................
00407630 00 00 00 00 00 00 00 00 00 00 00 00 00 00 00 00 ................
00407640 00 00 00 00 00 00 00 00 00 00 00 00 00 00 00 00 ................
00407650 00 00 00 00 00 00 00 00 00 00 00 00 00 00 00 00 ................
00407660 00 00 00 00 00 00 00 00 00 00 00 00 00 00 00 00 ................
00407670 00 00 00 00 00 00 00 00 00 00 00 00 00 00 00 00 ................
00407680 00 00 00 00 00 00 00 00 00 00 00 00 00 00 00 00 ................
00407690 00 00 00 00 00 00 00 00 00 00 00 00 00 00 00 00 ................
004076A0 00 00 00 00 00 00 00 00 00 00 00 00 00 00 00 00 ................
004076B0 00 00 00 00 00 00 00 00 00 00 00 00 00 00 00 00 ................
004076C0 00 00 00 00 00 00 00 00 00 00 00 00 00 00 00 00 ................
004076D0 00 00 00 00 00 00 00 00 00 00 00 00 00 00 00 00 ................
004076E0 00 00 00 00 00 00 00 00 00 00 00 00 00 00 00 00 ................
004076F0 00 00 00 00 00 00 00 00 00 00 00 00 00 00 00 00 ................
00407700 00 00 00 00 00 00 00 00 00 00 00 00 00 00 00 00 ................
00407710 00 00 00 00 00 00 00 00 00 00 00 00 00 00 00 00 ................
00407720 00 00 00 00 00 00 00 00 00 00 00 00 00 00 00 00 ................
00407730 00 00 00 00 00 00 00 00 00 00 00 00 00 00 00 00 ................
00407740 00 00 00 00 00 00 00 00 00 00 00 00 00 00 00 00 ................
00407750 00 00 00 00 00 00 00 00 00 00 00 00 00 00 00 00 ................
00407760 00 00 00 00 00 00 00 00 00 00 00 00 00 00 00 00 ................
00407770 00 00 00 00 00 00 00 00 00 00 00 00 00 00 00 00 ................
00407780 00 00 00 00 00 00 00 00 00 00 00 00 00 00 00 00 ................
00407790 00 00 00 00 00 00 00 00 00 00 00 00 00 00 00 00 ................
004077A0 00 00 00 00 00 00 00 00 00 00 00 00 00 00 00 00 ................
004077B0 00 00 00 00 00 00 00 00 00 00 00 00 00 00 00 00 ................
004077C0 00 00 00 00 00 00 00 00 00 00 00 00 00 00 00 00 ................
004077D0 00 00 00 00 00 00 00 00 00 00 00 00 00 00 00 00 ................
004077E0 00 00 00 00 00 00 00 00 00 00 00 00 00 00 00 00 ................
004077F0 00 00 00 00 00 00 00 00 00 00 00 00 00 00 00 00 ................
00407800 00 00 00 00 00 00 00 00 00 00 00 00 00 00 00 00 ................
00407810 00 00 00 00 00 00 00 00 00 00 00 00 00 00 00 00 ................
00407820 00 00 00 00 00 00 00 00 00 00 00 00 00 00 00 00 ................
00407830 00 00 00 00 00 00 00 00 00 00 00 00 00 00 00 00 ................
00407840 00 00 00 00 00 00 00 00 00 00 00 00 00 00 00 00 ................
00407850 00 00 00 00 00 00 00 00 00 00 00 00 00 00 00 00 ................
00407860 00 00 00 00 00 00 00 00 00 00 00 00 00 00 00 00 ................
00407870 00 00 00 00 00 00 00 00 00 00 00 00 00 00 00 00 ................
00407880 00 00 00 00 00 00 00 00 00 00 00 00 00 00 00 00 ................
00407890 00 00 00 00 00 00 00 00 00 00 00 00 00 00 00 00 ................
004078A0 00 00 00 00 00 00 00 00 00 00 00 00 00 00 00 00 ................
004078B0 00 00 00 00 00 00 00 00 00 00 00 00 00 00 00 00 ................
004078C0 00 00 00 00 00 00 00 00 00 00 00 00 00 00 00 00 ................
004078D0 00 00 00 00 00 00 00 00 00 00 00 00 00 00 00 00 ................
004078E0 00 00 00 00 00 00 00 00 00 00 00 00 00 00 00 00 ................
004078F0 00 00 00 00 00 00 00 00 00 00 00 00 00 00 00 00 ................
00407900 00 00 00 00 00 00 00 00 00 00 00 00 00 00 00 00 ................
00407910 00 00 00 00 00 00 00 00 00 00 00 00 00 00 00 00 ................
00407920 00 00 00 00 00 00 00 00 00 00 00 00 00 00 00 00 ................
00407930 00 00 00 00 00 00 00 00 00 00 00 00 00 00 00 00 ................
00407940 00 00 00 00 00 00 00 00 00 00 00 00 00 00 00 00 ................
00407950 00 00 00 00 00 00 00 00 00 00 00 00 00 00 00 00 ................
00407960 00 00 00 00 00 00 00 00 00 00 00 00 00 00 00 00 ................
00407970 00 00 00 00 00 00 00 00 00 00 00 00 00 00 00 00 ................
00407980 00 00 00 00 00 00 00 00 00 00 00 00 00 00 00 00 ................
00407990 00 00 00 00 00 00 00 00 00 00 00 00 00 00 00 00 ................
004079A0 00 00 00 00 00 00 00 00 00 00 00 00 00 00 00 00 ................
004079B0 00 00 00 00 00 00 00 00 00 00 00 00 00 00 00 00 ................
004079C0 00 00 00 00 00 00 00 00 00 00 00 00 00 00 00 00 ................
004079D0 00 00 00 00 00 00 00 00 00 00 00 00 00 00 00 00 ................
004079E0 00 00 00 00 00 00 00 00 00 00 00 00 00 00 00 00 ................
004079F0 00 00 00 00 00 00 00 00 00 00 00 00 00 00 00 00 ................
00407A00 00 00 00 00 00 00 00 00 00 00 00 00 00 00 00 00 ................
00407A10 00 00 00 00 00 00 00 00 00 00 00 00 00 00 00 00 ................
00407A20 00 00 00 00 00 00 00 00 00 00 00 00 00 00 00 00 ................
00407A30 00 00 00 00 00 00 00 00 00 00 00 00 00 00 00 00 ................
00407A40 00 00 00 00 00 00 00 00 00 00 00 00 00 00 00 00 ................
00407A50 00 00 00 00 00 00 00 00 00 00 00 00 00 00 00 00 ................
00407A60 00 00 00 00 00 00 00 00 00 00 00 00 00 00 00 00 ................
00407A70 00 00 00 00 00 00 00 00 00 00 00 00 00 00 00 00 ................
00407A80 00 00 00 00 00 00 00 00 00 00 00 00 00 00 00 00 ................
00407A90 00 00 00 00 00 00 00 00 00 00 00 00 00 00 00 00 ................
00407AA0 00 00 00 00 00 00 00 00 00 00 00 00 00 00 00 00 ................
00407AB0 00 00 00 00 00 00 00 00 00 00 00 00 00 00 00 00 ................
00407AC0 00 00 00 00 00 00 00 00 00 00 00 00 00 00 00 00 ................
00407AD0 00 00 00 00 00 00 00 00 00 00 00 00 00 00 00 00 ................
00407AE0 00 00 00 00 00 00 00 00 00 00 00 00 00 00 00 00 ................
00407AF0 00 00 00 00 00 00 00 00 00 00 00 00 00 00 00 00 ................
00407B00 00 00 00 00 00 00 00 00 00 00 00 00 00 00 00 00 ................
00407B10 00 00 00 00 00 00 00 00 00 00 00 00 00 00 00 00 ................
00407B20 00 00 00 00 00 00 00 00 00 00 00 00 00 00 00 00 ................
00407B30 00 00 00 00 00 00 00 00 00 00 00 00 00 00 00 00 ................
00407B40 00 00 00 00 00 00 00 00 00 00 00 00 00 00 00 00 ................
00407B50 00 00 00 00 00 00 00 00 00 00 00 00 00 00 00 00 ................
00407B60 00 00 00 00 00 00 00 00 00 00 00 00 00 00 00 00 ................
00407B70 00 00 00 00 00 00 00 00 00 00 00 00 00 00 00 00 ................
00407B80 00 00 00 00 00 00 00 00 00 00 00 00 00 00 00 00 ................
00407B90 00 00 00 00 00 00 00 00 00 00 00 00 00 00 00 00 ................
00407BA0 00 00 00 00 00 00 00 00 00 00 00 00 00 00 00 00 ................
00407BB0 00 00 00 00 00 00 00 00 00 00 00 00 00 00 00 00 ................
00407BC0 00 00 00 00 00 00 00 00 00 00 00 00 00 00 00 00 ................
00407BD0 00 00 00 00 00 00 00 00 00 00 00 00 00 00 00 00 ................
00407BE0 00 00 00 00 00 00 00 00 00 00 00 00 00 00 00 00 ................
00407BF0 00 00 00 00 00 00 00 00 00 00 00 00 00 00 00 00 ................
00407C00 00 00 00 00 00 00 00 00 00 00 00 00 00 00 00 00 ................
00407C10 00 00 00 00 00 00 00 00 00 00 00 00 00 00 00 00 ................
00407C20 00 00 00 00 00 00 00 00 00 00 00 00 00 00 00 00 ................
00407C30 00 00 00 00 00 00 00 00 00 00 00 00 00 00 00 00 ................
00407C40 00 00 00 00 00 00 00 00 00 00 00 00 00 00 00 00 ................
00407C50 00 00 00 00 00 00 00 00 00 00 00 00 00 00 00 00 ................
00407C60 00 00 00 00 00 00 00 00 00 00 00 00 00 00 00 00 ................
00407C70 00 00 00 00 00 00 00 00 00 00 00 00 00 00 00 00 ................
00407C80 00 00 00 00 00 00 00 00 00 00 00 00 00 00 00 00 ................
00407C90 00 00 00 00 00 00 00 00 00 00 00 00 00 00 00 00 ................
00407CA0 00 00 00 00 00 00 00 00 00 00 00 00 00 00 00 00 ................
00407CB0 00 00 00 00 00 00 00 00 00 00 00 00 00 00 00 00 ................
00407CC0 00 00 00 00 00 00 00 00 00 00 00 00 00 00 00 00 ................
00407CD0 00 00 00 00 00 00 00 00 00 00 00 00 00 00 00 00 ................
00407CE0 00 00 00 00 00 00 00 00 00 00 00 00 00 00 00 00 ................
00407CF0 00 00 00 00 00 00 00 00 00 00 00 00 00 00 00 00 ................
00407D00 00 00 00 00 00 00 00 00 00 00 00 00 00 00 00 00 ................
00407D10 00 00 00 00 00 00 00 00 00 00 00 00 00 00 00 00 ................
00407D20 00 00 00 00 00 00 00 00 00 00 00 00 00 00 00 00 ................
00407D30 00 00 00 00 00 00 00 00 00 00 00 00 00 00 00 00 ................
00407D40 00 00 00 00 00 00 00 00 00 00 00 00 00 00 00 00 ................
00407D50 00 00 00 00 00 00 00 00 00 00 00 00 00 00 00 00 ................
00407D60 00 00 00 00 00 00 00 00 00 00 00 00 00 00 00 00 ................
00407D70 00 00 00 00 00 00 00 00 00 00 00 00 00 00 00 00 ................
00407D80 00 00 00 00 00 00 00 00 00 00 00 00 00 00 00 00 ................
00407D90 00 00 00 00 00 00 00 00 00 00 00 00 00 00 00 00 ................
00407DA0 00 00 00 00 00 00 00 00 00 00 00 00 00 00 00 00 ................
00407DB0 00 00 00 00 00 00 00 00 00 00 00 00 00 00 00 00 ................
00407DC0 00 00 00 00 00 00 00 00 00 00 00 00 00 00 00 00 ................
00407DD0 00 00 00 00 00 00 00 00 00 00 00 00 00 00 00 00 ................
00407DE0 00 00 00 00 00 00 00 00 00 00 00 00 00 00 00 00 ................
00407DF0 00 00 00 00 00 00 00 00 00 00 00 00 00 00 00 00 ................
00407E00 00 00 00 00 00 00 00 00 00 00 00 00 00 00 00 00 ................
00407E10 00 00 00 00 00 00 00 00 00 00 00 00 00 00 00 00 ................
00407E20 00 00 00 00 00 00 00 00 00 00 00 00 00 00 00 00 ................
00407E30 00 00 00 00 00 00 00 00 00 00 00 00 00 00 00 00 ................
00407E40 00 00 00 00 00 00 00 00 00 00 00 00 00 00 00 00 ................
00407E50 00 00 00 00 00 00 00 00 00 00 00 00 00 00 00 00 ................
00407E60 00 00 00 00 00 00 00 00 00 00 00 00 00 00 00 00 ................
00407E70 00 00 00 00 00 00 00 00 00 00 00 00 00 00 00 00 ................
00407E80 00 00 00 00 00 00 00 00 00 00 00 00 00 00 00 00 ................
00407E90 00 00 00 00 00 00 00 00 00 00 00 00 00 00 00 00 ................
00407EA0 00 00 00 00 00 00 00 00 00 00 00 00 00 00 00 00 ................
00407EB0 00 00 00 00 00 00 00 00 00 00 00 00 00 00 00 00 ................
00407EC0 00 00 00 00 00 00 00 00 00 00 00 00 00 00 00 00 ................
00407ED0 00 00 00 00 00 00 00 00 00 00 00 00 00 00 00 00 ................
00407EE0 00 00 00 00 00 00 00 00 00 00 00 00 00 00 00 00 ................
00407EF0 00 00 00 00 00 00 00 00 00 00 00 00 00 00 00 00 ................
00407F00 00 00 00 00 00 00 00 00 00 00 00 00 00 00 00 00 ................
00407F10 00 00 00 00 00 00 00 00 00 00 00 00 00 00 00 00 ................
00407F20 00 00 00 00 00 00 00 00 00 00 00 00 00 00 00 00 ................
00407F30 00 00 00 00 00 00 00 00 00 00 00 00 00 00 00 00 ................
00407F40 00 00 00 00 00 00 00 00 00 00 00 00 00 00 00 00 ................
00407F50 00 00 00 00 00 00 00 00 00 00 00 00 00 00 00 00 ................
00407F60 00 00 00 00 00 00 00 00 00 00 00 00 00 00 00 00 ................
00407F70 00 00 00 00 00 00 00 00 00 00 00 00 00 00 00 00 ................
00407F80 00 00 00 00 00 00 00 00 00 00 00 00 00 00 00 00 ................
00407F90 00 00 00 00 00 00 00 00 00 00 00 00 00 00 00 00 ................
00407FA0 00 00 00 00 00 00 00 00 00 00 00 00 00 00 00 00 ................
00407FB0 00 00 00 00 00 00 00 00 00 00 00 00 00 00 00 00 ................
00407FC0 00 00 00 00 00 00 00 00 00 00 00 00 00 00 00 00 ................
00407FD0 00 00 00 00 00 00 00 00 00 00 00 00 00 00 00 00 ................
00407FE0 00 00 00 00 00 00 00 00 00 00 00 00 00 00 00 00 ................
00407FF0 00 00 00 00 00 00 00 00 00 00 00 00 00 00 00 00 ................
00408000 00 00 00 00 00 00 00 00 00 00 00 00 00 00 00 00 ................
00408010 00 00 00 00 00 00 00 00 00 00 00 00 00 00 00 00 ................
00408020 00 00 00 00 00 00 00 00 00 00 00 00 00 00 00 00 ................
00408030 00 00 00 00 00 00 00 00 00 00 00 00 00 00 00 00 ................
00408040 00 00 00 00 00 00 00 00 00 00 00 00 00 00 00 00 ................
00408050 00 00 00 00 00 00 00 00 00 00 00 00 00 00 00 00 ................
00408060 00 00 00 00 00 00 00 00 00 00 00 00 00 00 00 00 ................
00408070 00 00 00 00 00 00 00 00 00 00 00 00 00 00 00 00 ................
00408080 00 00 00 00 00 00 00 00 00 00 00 00 00 00 00 00 ................
00408090 00 00 00 00 00 00 00 00 00 00 00 00 00 00 00 00 ................
004080A0 00 00 00 00 00 00 00 00 00 00 00 00 00 00 00 00 ................
004080B0 00 00 00 00 00 00 00 00 00 00 00 00 00 00 00 00 ................
004080C0 00 00 00 00 00 00 00 00 00 00 00 00 00 00 00 00 ................
004080D0 00 00 00 00 00 00 00 00 00 00 00 00 00 00 00 00 ................
004080E0 00 00 00 00 00 00 00 00 00 00 00 00 00 00 00 00 ................
004080F0 00 00 00 00 00 00 00 00 00 00 00 00 00 00 00 00 ................
00408100 00 00 00 00 00 00 00 00 00 00 00 00 00 00 00 00 ................
00408110 00 00 00 00 00 00 00 00 00 00 00 00 00 00 00 00 ................
00408120 00 00 00 00 00 00 00 00 00 00 00 00 00 00 00 00 ................
00408130 00 00 00 00 00 00 00 00 00 00 00 00 00 00 00 00 ................
00408140 00 00 00 00 00 00 00 00 00 00 00 00 00 00 00 00 ................
00408150 00 00 00 00 00 00 00 00 00 00 00 00 00 00 00 00 ................
00408160 00 00 00 00 00 00 00 00 00 00 00 00 00 00 00 00 ................
00408170 00 00 00 00 00 00 00 00 00 00 00 00 00 00 00 00 ................
00408180 00 00 00 00 00 00 00 00 00 00 00 00 00 00 00 00 ................
00408190 00 00 00 00 00 00 00 00 00 00 00 00 00 00 00 00 ................
004081A0 00 00 00 00 00 00 00 00 00 00 00 00 00 00 00 00 ................
004081B0 00 00 00 00 00 00 00 00 00 00 00 00 00 00 00 00 ................
004081C0 00 00 00 00 00 00 00 00 00 00 00 00 00 00 00 00 ................
004081D0 00 00 00 00 00 00 00 00 00 00 00 00 00 00 00 00 ................
004081E0 00 00 00 00 00 00 00 00 00 00 00 00 00 00 00 00 ................
004081F0 00 00 00 00 00 00 00 00 00 00 00 00 00 00 00 00 ................
00408200 00 00 00 00 00 00 00 00 00 00 00 00 00 00 00 00 ................
00408210 00 00 00 00 00 00 00 00 00 00 00 00 00 00 00 00 ................
00408220 00 00 00 00 00 00 00 00 00 00 00 00 00 00 00 00 ................
00408230 00 00 00 00 00 00 00 00 00 00 00 00 00 00 00 00 ................
00408240 00 00 00 00 00 00 00 00 00 00 00 00 00 00 00 00 ................
00408250 00 00 00 00 00 00 00 00 00 00 00 00 00 00 00 00 ................
00408260 00 00 00 00 00 00 00 00 00 00 00 00 00 00 00 00 ................
00408270 00 00 00 00 00 00 00 00 00 00 00 00 00 00 00 00 ................
00408280 00 00 00 00 00 00 00 00 00 00 00 00 00 00 00 00 ................
00408290 00 00 00 00 00 00 00 00 00 00 00 00 00 00 00 00 ................
004082A0 00 00 00 00 00 00 00 00 00 00 00 00 00 00 00 00 ................
004082B0 00 00 00 00 00 00 00 00 00 00 00 00 00 00 00 00 ................
004082C0 00 00 00 00 00 00 00 00 00 00 00 00 00 00 00 00 ................
004082D0 00 00 00 00 00 00 00 00 00 00 00 00 00 00 00 00 ................
004082E0 00 00 00 00 00 00 00 00 00 00 00 00 00 00 00 00 ................
004082F0 00 00 00 00 00 00 00 00 00 00 00 00 00 00 00 00 ................
00408300 00 00 00 00 00 00 00 00 00 00 00 00 00 00 00 00 ................
00408310 00 00 00 00 00 00 00 00 00 00 00 00 00 00 00 00 ................
00408320 00 00 00 00 00 00 00 00 00 00 00 00 00 00 00 00 ................
00408330 00 00 00 00 00 00 00 00 00 00 00 00 00 00 00 00 ................
00408340 00 00 00 00 00 00 00 00 00 00 00 00 00 00 00 00 ................
00408350 00 00 00 00 00 00 00 00 00 00 00 00 00 00 00 00 ................
00408360 00 00 00 00 00 00 00 00 00 00 00 00 00 00 00 00 ................
00408370 00 00 00 00 00 00 00 00 00 00 00 00 00 00 00 00 ................
00408380 00 00 00 00 00 00 00 00 00 00 00 00 00 00 00 00 ................
00408390 00 00 00 00 00 00 00 00 00 00 00 00 00 00 00 00 ................
004083A0 00 00 00 00 00 00 00 00 00 00 00 00 00 00 00 00 ................
004083B0 00 00 00 00 00 00 00 00 00 00 00 00 00 00 00 00 ................
004083C0 00 00 00 00 00 00 00 00 00 00 00 00 00 00 00 00 ................
004083D0 00 00 00 00 00 00 00 00 00 00 00 00 00 00 00 00 ................
004083E0 00 00 00 00 00 00 00 00 00 00 00 00 00 00 00 00 ................
004083F0 00 00 00 00 00 00 00 00 00 00 00 00 00 00 00 00 ................
00408400 00 00 00 00 00 00 00 00 00 00 00 00 00 00 00 00 ................
00408410 00 00 00 00 00 00 00 00 00 00 00 00 00 00 00 00 ................
00408420 00 00 00 00 00 00 00 00 00 00 00 00 00 00 00 00 ................
00408430 00 00 00 00 00 00 00 00 00 00 00 00 00 00 00 00 ................
00408440 00 00 00 00 00 00 00 00 00 00 00 00 00 00 00 00 ................
00408450 00 00 00 00 00 00 00 00 00 00 00 00 00 00 00 00 ................
00408460 00 00 00 00 00 00 00 00 00 00 00 00 00 00 00 00 ................
00408470 00 00 00 00 00 00 00 00 00 00 00 00 00 00 00 00 ................
00408480 00 00 00 00 00 00 00 00 00 00 00 00 00 00 00 00 ................
00408490 00 00 00 00 00 00 00 00 00 00 00 00 00 00 00 00 ................
004084A0 00 00 00 00 00 00 00 00 00 00 00 00 00 00 00 00 ................
004084B0 00 00 00 00 00 00 00 00 00 00 00 00 00 00 00 00 ................
004084C0 00 00 00 00 00 00 00 00 00 00 00 00 00 00 00 00 ................
004084D0 00 00 00 00 00 00 00 00 00 00 00 00 00 00 00 00 ................
004084E0 00 00 00 00 00 00 00 00 00 00 00 00 00 00 00 00 ................
004084F0 00 00 00 00 00 00 00 00 00 00 00 00 00 00 00 00 ................
00408500 00 00 00 00 00 00 00 00 00 00 00 00 00 00 00 00 ................
00408510 00 00 00 00 00 00 00 00 00 00 00 00 00 00 00 00 ................
00408520 00 00 00 00 00 00 00 00 00 00 00 00 00 00 00 00 ................
00408530 00 00 00 00 00 00 00 00 00 00 00 00 00 00 00 00 ................
00408540 00 00 00 00 00 00 00 00 00 00 00 00 00 00 00 00 ................
00408550 00 00 00 00 00 00 00 00 00 00 00 00 00 00 00 00 ................
00408560 00 00 00 00 00 00 00 00 00 00 00 00 00 00 00 00 ................
00408570 00 00 00 00 00 00 00 00 00 00 00 00 00 00 00 00 ................
00408580 00 00 00 00 00 00 00 00 00 00 00 00 00 00 00 00 ................
00408590 00 00 00 00 00 00 00 00 00 00 00 00 00 00 00 00 ................
004085A0 00 00 00 00 00 00 00 00 00 00 00 00 00 00 00 00 ................
004085B0 00 00 00 00 00 00 00 00 00 00 00 00 00 00 00 00 ................
004085C0 00 00 00 00 00 00 00 00 00 00 00 00 00 00 00 00 ................
004085D0 00 00 00 00 00 00 00 00 00 00 00 00 00 00 00 00 ................
004085E0 00 00 00 00 00 00 00 00 00 00 00 00 00 00 00 00 ................
004085F0 00 00 00 00 00 00 00 00 00 00 00 00 00 00 00 00 ................
00408600 00 00 00 00 00 00 00 00 00 00 00 00 00 00 00 00 ................
00408610 00 00 00 00 00 00 00 00 00 00 00 00 00 00 00 00 ................
00408620 00 00 00 00 00 00 00 00 00 00 00 00 00 00 00 00 ................
00408630 00 00 00 00 00 00 00 00 00 00 00 00 00 00 00 00 ................
00408640 00 00 00 00 00 00 00 00 00 00 00 00 00 00 00 00 ................
00408650 00 00 00 00 00 00 00 00 00 00 00 00 00 00 00 00 ................
00408660 00 00 00 00 00 00 00 00 00 00 00 00 00 00 00 00 ................
00408670 00 00 00 00 00 00 00 00 00 00 00 00 00 00 00 00 ................
00408680 00 00 00 00 00 00 00 00 00 00 00 00 00 00 00 00 ................
00408690 00 00 00 00 00 00 00 00 00 00 00 00 00 00 00 00 ................
004086A0 00 00 00 00 00 00 00 00 00 00 00 00 00 00 00 00 ................
004086B0 00 00 00 00 00 00 00 00 00 00 00 00 00 00 00 00 ................
004086C0 00 00 00 00 00 00 00 00 00 00 00 00 00 00 00 00 ................
004086D0 00 00 00 00 00 00 00 00 00 00 00 00 00 00 00 00 ................
004086E0 00 00 00 00 00 00 00 00 00 00 00 00 00 00 00 00 ................
004086F0 00 00 00 00 00 00 00 00 00 00 00 00 00 00 00 00 ................
00408700 00 00 00 00 00 00 00 00 00 00 00 00 00 00 00 00 ................
00408710 00 00 00 00 00 00 00 00 00 00 00 00 00 00 00 00 ................
00408720 00 00 00 00 00 00 00 00 00 00 00 00 00 00 00 00 ................
00408730 00 00 00 00 00 00 00 00 00 00 00 00 00 00 00 00 ................
00408740 00 00 00 00 00 00 00 00 00 00 00 00 00 00 00 00 ................
00408750 00 00 00 00 00 00 00 00 00 00 00 00 00 00 00 00 ................
00408760 00 00 00 00 00 00 00 00 00 00 00 00 00 00 00 00 ................
00408770 00 00 00 00 00 00 00 00 00 00 00 00 00 00 00 00 ................
00408780 00 00 00 00 00 00 00 00 00 00 00 00 00 00 00 00 ................
00408790 00 00 00 00 00 00 00 00 00 00 00 00 00 00 00 00 ................
004087A0 00 00 00 00 00 00 00 00 00 00 00 00 00 00 00 00 ................
004087B0 00 00 00 00 00 00 00 00 00 00 00 00 00 00 00 00 ................
004087C0 00 00 00 00 00 00 00 00 00 00 00 00 00 00 00 00 ................
004087D0 00 00 00 00 00 00 00 00 00 00 00 00 00 00 00 00 ................
004087E0 00 00 00 00 00 00 00 00 00 00 00 00 00 00 00 00 ................
004087F0 00 00 00 00 00 00 00 00 00 00 00 00 00 00 00 00 ................
00408800 00 00 00 00 00 00 00 00 00 00 00 00 00 00 00 00 ................
00408810 00 00 00 00 00 00 00 00 00 00 00 00 00 00 00 00 ................
00408820 00 00 00 00 00 00 00 00 00 00 00 00 00 00 00 00 ................
00408830 00 00 00 00 00 00 00 00 00 00 00 00 00 00 00 00 ................
00408840 00 00 00 00 00 00 00 00 00 00 00 00 00 00 00 00 ................
00408850 00 00 00 00 00 00 00 00 00 00 00 00 00 00 00 00 ................
00408860 00 00 00 00 00 00 00 00 00 00 00 00 00 00 00 00 ................
00408870 00 00 00 00 00 00 00 00 00 00 00 00 00 00 00 00 ................
00408880 00 00 00 00 00 00 00 00 00 00 00 00 00 00 00 00 ................
00408890 00 00 00 00 00 00 00 00 00 00 00 00 00 00 00 00 ................
004088A0 00 00 00 00 00 00 00 00 00 00 00 00 00 00 00 00 ................
004088B0 00 00 00 00 00 00 00 00 00 00 00 00 00 00 00 00 ................
004088C0 00 00 00 00 00 00 00 00 00 00 00 00 00 00 00 00 ................
004088D0 00 00 00 00 00 00 00 00 00 00 00 00 00 00 00 00 ................
004088E0 00 00 00 00 00 00 00 00 00 00 00 00 00 00 00 00 ................
004088F0 00 00 00 00 00 00 00 00 00 00 00 00 00 00 00 00 ................
00408900 00 00 00 00 00 00 00 00 00 00 00 00 00 00 00 00 ................
00408910 00 00 00 00 00 00 00 00 00 00 00 00 00 00 00 00 ................
00408920 00 00 00 00 00 00 00 00 00 00 00 00 00 00 00 00 ................
00408930 00 00 00 00 00 00 00 00 00 00 00 00 00 00 00 00 ................
00408940 00 00 00 00 00 00 00 00 00 00 00 00 00 00 00 00 ................
00408950 00 00 00 00 00 00 00 00 00 00 00 00 00 00 00 00 ................
00408960 00 00 00 00 00 00 00 00 00 00 00 00 00 00 00 00 ................
00408970 00 00 00 00 00 00 00 00 00 00 00 00 00 00 00 00 ................
00408980 00 00 00 00 00 00 00 00 00 00 00 00 00 00 00 00 ................
00408990 00 00 00 00 00 00 00 00 00 00 00 00 00 00 00 00 ................
004089A0 00 00 00 00 00 00 00 00 00 00 00 00 00 00 00 00 ................
004089B0 00 00 00 00 00 00 00 00 00 00 00 00 00 00 00 00 ................
004089C0 00 00 00 00 00 00 00 00 00 00 00 00 00 00 00 00 ................
004089D0 00 00 00 00 00 00 00 00 00 00 00 00 00 00 00 00 ................
004089E0 00 00 00 00 00 00 00 00 00 00 00 00 00 00 00 00 ................
004089F0 00 00 00 00 00 00 00 00 00 00 00 00 00 00 00 00 ................
00408A00 00 00 00 00 00 00 00 00 00 00 00 00 00 00 00 00 ................
00408A10 00 00 00 00 00 00 00 00 00 00 00 00 00 00 00 00 ................
00408A20 00 00 00 00 00 00 00 00 00 00 00 00 00 00 00 00 ................
00408A30 00 00 00 00 00 00 00 00 00 00 00 00 00 00 00 00 ................
00408A40 00 00 00 00 00 00 00 00 00 00 00 00 00 00 00 00 ................
00408A50 00 00 00 00 00 00 00 00 00 00 00 00 00 00 00 00 ................
00408A60 00 00 00 00 00 00 00 00 00 00 00 00 00 00 00 00 ................
00408A70 00 00 00 00 00 00 00 00 00 00 00 00 00 00 00 00 ................
00408A80 00 00 00 00 00 00 00 00 00 00 00 00 00 00 00 00 ................
00408A90 00 00 00 00 00 00 00 00 00 00 00 00 00 00 00 00 ................
00408AA0 00 00 00 00 00 00 00 00 00 00 00 00 00 00 00 00 ................
00408AB0 00 00 00 00 00 00 00 00 00 00 00 00 00 00 00 00 ................
00408AC0 00 00 00 00 00 00 00 00 00 00 00 00 00 00 00 00 ................
00408AD0 00 00 00 00 00 00 00 00 00 00 00 00 00 00 00 00 ................
00408AE0 00 00 00 00 00 00 00 00 00 00 00 00 00 00 00 00 ................
00408AF0 00 00 00 00 00 00 00 00 00 00 00 00 00 00 00 00 ................
00408B00 00 00 00 00 00 00 00 00 00 00 00 00 00 00 00 00 ................
00408B10 00 00 00 00 00 00 00 00 00 00 00 00 00 00 00 00 ................
00408B20 00 00 00 00 00 00 00 00 00 00 00 00 00 00 00 00 ................
00408B30 00 00 00 00 00 00 00 00 00 00 00 00 00 00 00 00 ................
00408B40 00 00 00 00 00 00 00 00 00 00 00 00 00 00 00 00 ................
00408B50 00 00 00 00 00 00 00 00 00 00 00 00 00 00 00 00 ................
00408B60 00 00 00 00 00 00 00 00 00 00 00 00 00 00 00 00 ................
00408B70 00 00 00 00 00 00 00 00 00 00 00 00 00 00 00 00 ................
00408B80 00 00 00 00 00 00 00 00 00 00 00 00 00 00 00 00 ................
00408B90 00 00 00 00 00 00 00 00 00 00 00 00 00 00 00 00 ................
00408BA0 00 00 00 00 00 00 00 00 00 00 00 00 00 00 00 00 ................
00408BB0 00 00 00 00 00 00 00 00 00 00 00 00 00 00 00 00 ................
00408BC0 00 00 00 00 00 00 00 00 00 00 00 00 00 00 00 00 ................
00408BD0 00 00 00 00 00 00 00 00 00 00 00 00 00 00 00 00 ................
00408BE0 00 00 00 00 00 00 00 00 00 00 00 00 00 00 00 00 ................
00408BF0 00 00 00 00 00 00 00 00 00 00 00 00 00 00 00 00 ................
00408C00 00 00 00 00 00 00 00 00 00 00 00 00 00 00 00 00 ................
00408C10 00 00 00 00 00 00 00 00 00 00 00 00 00 00 00 00 ................
00408C20 00 00 00 00 00 00 00 00 00 00 00 00 00 00 00 00 ................
00408C30 00 00 00 00 00 00 00 00 00 00 00 00 00 00 00 00 ................
00408C40 00 00 00 00 00 00 00 00 00 00 00 00 00 00 00 00 ................
00408C50 00 00 00 00 00 00 00 00 00 00 00 00 00 00 00 00 ................
00408C60 00 00 00 00 00 00 00 00 00 00 00 00 00 00 00 00 ................
00408C70 00 00 00 00 00 00 00 00 00 00 00 00 00 00 00 00 ................
00408C80 00 00 00 00 00 00 00 00 00 00 00 00 00 00 00 00 ................
00408C90 00 00 00 00 00 00 00 00 00 00 00 00 00 00 00 00 ................
00408CA0 00 00 00 00 00 00 00 00 00 00 00 00 00 00 00 00 ................
00408CB0 00 00 00 00 00 00 00 00 00 00 00 00 00 00 00 00 ................
00408CC0 00 00 00 00 00 00 00 00 00 00 00 00 00 00 00 00 ................
00408CD0 00 00 00 00 00 00 00 00 00 00 00 00 00 00 00 00 ................
00408CE0 00 00 00 00 00 00 00 00 00 00 00 00 00 00 00 00 ................
00408CF0 00 00 00 00 00 00 00 00 00 00 00 00 00 00 00 00 ................
00408D00 00 00 00 00 00 00 00 00 00 00 00 00 00 00 00 00 ................
00408D10 00 00 00 00 00 00 00 00 00 00 00 00 00 00 00 00 ................
00408D20 00 00 00 00 00 00 00 00 00 00 00 00 00 00 00 00 ................
00408D30 00 00 00 00 00 00 00 00 00 00 00 00 00 00 00 00 ................
00408D40 00 00 00 00 00 00 00 00 00 00 00 00 00 00 00 00 ................
00408D50 00 00 00 00 00 00 00 00 00 00 00 00 00 00 00 00 ................
00408D60 00 00 00 00 00 00 00 00 00 00 00 00 00 00 00 00 ................
00408D70 00 00 00 00 00 00 00 00 00 00 00 00 00 00 00 00 ................
00408D80 00 00 00 00 00 00 00 00 00 00 00 00 00 00 00 00 ................
00408D90 00 00 00 00 00 00 00 00 00 00 00 00 00 00 00 00 ................
00408DA0 00 00 00 00 00 00 00 00 00 00 00 00 00 00 00 00 ................
00408DB0 00 00 00 00 00 00 00 00 00 00 00 00 00 00 00 00 ................
00408DC0 00 00 00 00 00 00 00 00 00 00 00 00 00 00 00 00 ................
00408DD0 00 00 00 00 00 00 00 00 00 00 00 00 00 00 00 00 ................
00408DE0 00 00 00 00 00 00 00 00 00 00 00 00 00 00 00 00 ................
00408DF0 00 00 00 00 00 00 00 00 00 00 00 00 00 00 00 00 ................
00408E00 00 00 00 00 00 00 00 00 00 00 00 00 00 00 00 00 ................
00408E10 00 00 00 00 00 00 00 00 00 00 00 00 00 00 00 00 ................
00408E20 00 00 00 00 00 00 00 00 00 00 00 00 00 00 00 00 ................
00408E30 00 00 00 00 00 00 00 00 00 00 00 00 00 00 00 00 ................
00408E40 00 00 00 00 00 00 00 00 00 00 00 00 00 00 00 00 ................
00408E50 00 00 00 00 00 00 00 00 00 00 00 00 00 00 00 00 ................
00408E60 00 00 00 00 00 00 00 00 00 00 00 00 00 00 00 00 ................
00408E70 00 00 00 00 00 00 00 00 00 00 00 00 00 00 00 00 ................
00408E80 00 00 00 00 00 00 00 00 00 00 00 00 00 00 00 00 ................
00408E90 00 00 00 00 00 00 00 00 00 00 00 00 00 00 00 00 ................
00408EA0 00 00 00 00 00 00 00 00 00 00 00 00 00 00 00 00 ................
00408EB0 00 00 00 00 00 00 00 00 00 00 00 00 00 00 00 00 ................
00408EC0 00 00 00 00 00 00 00 00 00 00 00 00 00 00 00 00 ................
00408ED0 00 00 00 00 00 00 00 00 00 00 00 00 00 00 00 00 ................
00408EE0 00 00 00 00 00 00 00 00 00 00 00 00 00 00 00 00 ................
00408EF0 00 00 00 00 00 00 00 00 00 00 00 00 00 00 00 00 ................
00408F00 00 00 00 00 00 00 00 00 00 00 00 00 00 00 00 00 ................
00408F10 00 00 00 00 00 00 00 00 00 00 00 00 00 00 00 00 ................
00408F20 00 00 00 00 00 00 00 00 00 00 00 00 00 00 00 00 ................
00408F30 00 00 00 00 00 00 00 00 00 00 00 00 00 00 00 00 ................
00408F40 00 00 00 00 00 00 00 00 00 00 00 00 00 00 00 00 ................
00408F50 00 00 00 00 00 00 00 00 00 00 00 00 00 00 00 00 ................
00408F60 00 00 00 00 00 00 00 00 00 00 00 00 00 00 00 00 ................
00408F70 00 00 00 00 00 00 00 00 00 00 00 00 00 00 00 00 ................
00408F80 00 00 00 00 00 00 00 00 00 00 00 00 00 00 00 00 ................
00408F90 00 00 00 00 00 00 00 00 00 00 00 00 00 00 00 00 ................
00408FA0 00 00 00 00 00 00 00 00 00 00 00 00 00 00 00 00 ................
00408FB0 00 00 00 00 00 00 00 00 00 00 00 00 00 00 00 00 ................
00408FC0 00 00 00 00 00 00 00 00 00 00 00 00 00 00 00 00 ................
00408FD0 00 00 00 00 00 00 00 00 00 00 00 00 00 00 00 00 ................
00408FE0 00 00 00 00 00 00 00 00 00 00 00 00 00 00 00 00 ................
00408FF0 00 00 00 00 00 00 00 00 00 00 00 00 00 00 00 00 ................
00409000 00 00 00 00 00 00 00 00 00 00 00 00 00 00 00 00 ................
00409010 00 00 00 00 00 00 00 00 00 00 00 00 00 00 00 00 ................
00409020 00 00 00 00 00 00 00 00 00 00 00 00 00 00 00 00 ................
00409030 00 00 00 00 00 00 00 00 00 00 00 00 00 00 00 00 ................
00409040 00 00 00 00 00 00 00 00 00 00 00 00 00 00 00 00 ................
00409050 00 00 00 00 00 00 00 00 00 00 00 00 00 00 00 00 ................
00409060 00 00 00 00 00 00 00 00 00 00 00 00 00 00 00 00 ................
00409070 00 00 00 00 00 00 00 00 00 00 00 00 00 00 00 00 ................
00409080 00 00 00 00 00 00 00 00 00 00 00 00 00 00 00 00 ................
00409090 00 00 00 00 00 00 00 00 00 00 00 00 00 00 00 00 ................
004090A0 00 00 00 00 00 00 00 00 00 00 00 00 00 00 00 00 ................
004090B0 00 00 00 00 00 00 00 00 00 00 00 00 00 00 00 00 ................
004090C0 00 00 00 00 00 00 00 00 00 00 00 00 00 00 00 00 ................
004090D0 00 00 00 00 00 00 00 00 00 00 00 00 00 00 00 00 ................
004090E0 00 00 00 00 00 00 00 00 00 00 00 00 00 00 00 00 ................
004090F0 00 00 00 00 00 00 00 00 00 00 00 00 00 00 00 00 ................
00409100 00 00 00 00 00 00 00 00 00 00 00 00 00 00 00 00 ................
00409110 00 00 00 00 00 00 00 00 00 00 00 00 00 00 00 00 ................
00409120 00 00 00 00 00 00 00 00 00 00 00 00 00 00 00 00 ................
00409130 00 00 00 00 00 00 00 00 00 00 00 00 00 00 00 00 ................
00409140 00 00 00 00 00 00 00 00 00 00 00 00 00 00 00 00 ................
00409150 00 00 00 00 00 00 00 00 00 00 00 00 00 00 00 00 ................
00409160 00 00 00 00 00 00 00 00 00 00 00 00 00 00 00 00 ................
00409170 00 00 00 00 00 00 00 00 00 00 00 00 00 00 00 00 ................
00409180 00 00 00 00 00 00 00 00 00 00 00 00 00 00 00 00 ................
00409190 00 00 00 00 00 00 00 00 00 00 00 00 00 00 00 00 ................
004091A0 00 00 00 00 00 00 00 00 00 00 00 00 00 00 00 00 ................
004091B0 00 00 00 00 00 00 00 00 00 00 00 00 00 00 00 00 ................
004091C0 00 00 00 00 00 00 00 00 00 00 00 00 00 00 00 00 ................
004091D0 00 00 00 00 00 00 00 00 00 00 00 00 00 00 00 00 ................
004091E0 00 00 00 00 00 00 00 00 00 00 00 00 00 00 00 00 ................
004091F0 00 00 00 00 00 00 00 00 00 00 00 00 00 00 00 00 ................
00409200 00 00 00 00 00 00 00 00 00 00 00 00 00 00 00 00 ................
00409210 00 00 00 00 00 00 00 00 00 00 00 00 00 00 00 00 ................
00409220 00 00 00 00 00 00 00 00 00 00 00 00 00 00 00 00 ................
00409230 00 00 00 00 00 00 00 00 00 00 00 00 00 00 00 00 ................
00409240 00 00 00 00 00 00 00 00 00 00 00 00 00 00 00 00 ................
00409250 00 00 00 00 00 00 00 00 00 00 00 00 00 00 00 00 ................
00409260 00 00 00 00 00 00 00 00 00 00 00 00 00 00 00 00 ................
00409270 00 00 00 00 00 00 00 00 00 00 00 00 00 00 00 00 ................
00409280 00 00 00 00 00 00 00 00 00 00 00 00 00 00 00 00 ................
00409290 00 00 00 00 00 00 00 00 00 00 00 00 00 00 00 00 ................
004092A0 00 00 00 00 00 00 00 00 00 00 00 00 00 00 00 00 ................
004092B0 00 00 00 00 00 00 00 00 00 00 00 00 00 00 00 00 ................
004092C0 00 00 00 00 00 00 00 00 00 00 00 00 00 00 00 00 ................
004092D0 00 00 00 00 00 00 00 00 00 00 00 00 00 00 00 00 ................
004092E0 00 00 00 00 00 00 00 00 00 00 00 00 00 00 00 00 ................
004092F0 00 00 00 00 00 00 00 00 00 00 00 00 00 00 00 00 ................
00409300 00 00 00 00 00 00 00 00 00 00 00 00 00 00 00 00 ................
00409310 00 00 00 00 00 00 00 00 00 00 00 00 00 00 00 00 ................
00409320 00 00 00 00 00 00 00 00 00 00 00 00 00 00 00 00 ................
00409330 00 00 00 00 00 00 00 00 00 00 00 00 00 00 00 00 ................
00409340 00 00 00 00 00 00 00 00 00 00 00 00 00 00 00 00 ................
00409350 00 00 00 00 00 00 00 00 00 00 00 00 00 00 00 00 ................
00409360 00 00 00 00 00 00 00 00 00 00 00 00 00 00 00 00 ................
00409370 00 00 00 00 00 00 00 00 00 00 00 00 00 00 00 00 ................
00409380 00 00 00 00 00 00 00 00 00 00 00 00 00 00 00 00 ................
00409390 00 00 00 00 00 00 00 00 00 00 00 00 00 00 00 00 ................
004093A0 00 00 00 00 00 00 00 00 00 00 00 00 00 00 00 00 ................
004093B0 00 00 00 00 00 00 00 00 00 00 00 00 00 00 00 00 ................
004093C0 00 00 00 00 00 00 00 00 00 00 00 00 00 00 00 00 ................
004093D0 00 00 00 00 00 00 00 00 00 00 00 00 00 00 00 00 ................
004093E0 00 00 00 00 00 00 00 00 00 00 00 00 00 00 00 00 ................
004093F0 00 00 00 00 00 00 00 00 00 00 00 00 00 00 00 00 ................
00409400 00 00 00 00 00 00 00 00 00 00 00 00 00 00 00 00 ................
00409410 00 00 00 00 00 00 00 00 00 00 00 00 00 00 00 00 ................
00409420 00 00 00 00 00 00 00 00 00 00 00 00 00 00 00 00 ................
00409430 00 00 00 00 00 00 00 00 00 00 00 00 00 00 00 00 ................
00409440 00 00 00 00 00 00 00 00 00 00 00 00 00 00 00 00 ................
00409450 00 00 00 00 00 00 00 00 00 00 00 00 00 00 00 00 ................
00409460 00 00 00 00 00 00 00 00 00 00 00 00 00 00 00 00 ................
00409470 00 00 00 00 00 00 00 00 00 00 00 00 00 00 00 00 ................
00409480 00 00 00 00 00 00 00 00 00 00 00 00 00 00 00 00 ................
00409490 00 00 00 00 00 00 00 00 00 00 00 00 00 00 00 00 ................
004094A0 00 00 00 00 00 00 00 00 00 00 00 00 00 00 00 00 ................
004094B0 00 00 00 00 00 00 00 00 00 00 00 00 00 00 00 00 ................
004094C0 00 00 00 00 00 00 00 00 00 00 00 00 00 00 00 00 ................
004094D0 00 00 00 00 00 00 00 00 00 00 00 00 00 00 00 00 ................
004094E0 00 00 00 00 00 00 00 00 00 00 00 00 00 00 00 00 ................
004094F0 00 00 00 00 00 00 00 00 00 00 00 00 00 00 00 00 ................
00409500 00 00 00 00 00 00 00 00 00 00 00 00 00 00 00 00 ................
00409510 00 00 00 00 00 00 00 00 00 00 00 00 00 00 00 00 ................
00409520 00 00 00 00 00 00 00 00 00 00 00 00 00 00 00 00 ................
00409530 00 00 00 00 00 00 00 00 00 00 00 00 00 00 00 00 ................
00409540 00 00 00 00 00 00 00 00 00 00 00 00 00 00 00 00 ................
00409550 00 00 00 00 00 00 00 00 00 00 00 00 00 00 00 00 ................
00409560 00 00 00 00 00 00 00 00 00 00 00 00 00 00 00 00 ................
00409570 00 00 00 00 00 00 00 00 00 00 00 00 00 00 00 00 ................
00409580 00 00 00 00 00 00 00 00 00 00 00 00 00 00 00 00 ................
00409590 00 00 00 00 00 00 00 00 00 00 00 00 00 00 00 00 ................
004095A0 00 00 00 00 00 00 00 00 00 00 00 00 00 00 00 00 ................
004095B0 00 00 00 00 00 00 00 00 00 00 00 00 00 00 00 00 ................
004095C0 00 00 00 00 00 00 00 00 00 00 00 00 00 00 00 00 ................
004095D0 00 00 00 00 00 00 00 00 00 00 00 00 00 00 00 00 ................
004095E0 00 00 00 00 00 00 00 00 00 00 00 00 00 00 00 00 ................
004095F0 00 00 00 00 00 00 00 00 00 00 00 00 00 00 00 00 ................
00409600 00 00 00 00 00 00 00 00 00 00 00 00 00 00 00 00 ................
00409610 00 00 00 00 00 00 00 00 00 00 00 00 00 00 00 00 ................
00409620 00 00 00 00 00 00 00 00 00 00 00 00 00 00 00 00 ................
00409630 00 00 00 00 00 00 00 00 00 00 00 00 00 00 00 00 ................
00409640 00 00 00 00 00 00 00 00 00 00 00 00 00 00 00 00 ................
00409650 00 00 00 00 00 00 00 00 00 00 00 00 00 00 00 00 ................
00409660 00 00 00 00 00 00 00 00 00 00 00 00 00 00 00 00 ................
00409670 00 00 00 00 00 00 00 00 00 00 00 00 00 00 00 00 ................
00409680 00 00 00 00 00 00 00 00 00 00 00 00 00 00 00 00 ................
00409690 00 00 00 00 00 00 00 00 00 00 00 00 00 00 00 00 ................
004096A0 00 00 00 00 00 00 00 00 00 00 00 00 00 00 00 00 ................
004096B0 00 00 00 00 00 00 00 00 00 00 00 00 00 00 00 00 ................
004096C0 00 00 00 00 00 00 00 00 00 00 00 00 00 00 00 00 ................
004096D0 00 00 00 00 00 00 00 00 00 00 00 00 00 00 00 00 ................
004096E0 00 00 00 00 00 00 00 00 00 00 00 00 00 00 00 00 ................
004096F0 00 00 00 00 00 00 00 00 00 00 00 00 00 00 00 00 ................
00409700 00 00 00 00 00 00 00 00 00 00 00 00 00 00 00 00 ................
00409710 00 00 00 00 00 00 00 00 00 00 00 00 00 00 00 00 ................
00409720 00 00 00 00 00 00 00 00 00 00 00 00 00 00 00 00 ................
00409730 00 00 00 00 00 00 00 00 00 00 00 00 00 00 00 00 ................
00409740 00 00 00 00 00 00 00 00 00 00 00 00 00 00 00 00 ................
00409750 00 00 00 00 00 00 00 00 00 00 00 00 00 00 00 00 ................
00409760 00 00 00 00 00 00 00 00 00 00 00 00 00 00 00 00 ................
00409770 00 00 00 00 00 00 00 00 00 00 00 00 00 00 00 00 ................
00409780 00 00 00 00 00 00 00 00 00 00 00 00 00 00 00 00 ................
00409790 00 00 00 00 00 00 00 00 00 00 00 00 00 00 00 00 ................
004097A0 00 00 00 00 00 00 00 00 00 00 00 00 00 00 00 00 ................
004097B0 00 00 00 00 00 00 00 00 00 00 00 00 00 00 00 00 ................
004097C0 00 00 00 00 00 00 00 00 00 00 00 00 00 00 00 00 ................
004097D0 00 00 00 00 00 00 00 00 00 00 00 00 00 00 00 00 ................
004097E0 00 00 00 00 00 00 00 00 00 00 00 00 00 00 00 00 ................
004097F0 00 00 00 00 00 00 00 00 00 00 00 00 00 00 00 00 ................
00409800 00 00 00 00 00 00 00 00 00 00 00 00 00 00 00 00 ................
00409810 00 00 00 00 00 00 00 00 00 00 00 00 00 00 00 00 ................
00409820 00 00 00 00 00 00 00 00 00 00 00 00 00 00 00 00 ................
00409830 00 00 00 00 00 00 00 00 00 00 00 00 00 00 00 00 ................
00409840 00 00 00 00 00 00 00 00 00 00 00 00 00 00 00 00 ................
00409850 00 00 00 00 00 00 00 00 00 00 00 00 00 00 00 00 ................
00409860 00 00 00 00 00 00 00 00 00 00 00 00 00 00 00 00 ................
00409870 00 00 00 00 00 00 00 00 00 00 00 00 00 00 00 00 ................
00409880 00 00 00 00 00 00 00 00 00 00 00 00 00 00 00 00 ................
00409890 00 00 00 00 00 00 00 00 00 00 00 00 00 00 00 00 ................
004098A0 00 00 00 00 00 00 00 00 00 00 00 00 00 00 00 00 ................
004098B0 00 00 00 00 00 00 00 00 00 00 00 00 00 00 00 00 ................
004098C0 00 00 00 00 00 00 00 00 00 00 00 00 00 00 00 00 ................
004098D0 00 00 00 00 00 00 00 00 00 00 00 00 00 00 00 00 ................
004098E0 00 00 00 00 00 00 00 00 00 00 00 00 00 00 00 00 ................
004098F0 00 00 00 00 00 00 00 00 00 00 00 00 00 00 00 00 ................
00409900 00 00 00 00 00 00 00 00 00 00 00 00 00 00 00 00 ................
00409910 00 00 00 00 00 00 00 00 00 00 00 00 00 00 00 00 ................
00409920 00 00 00 00 00 00 00 00 00 00 00 00 00 00 00 00 ................
00409930 00 00 00 00 00 00 00 00 00 00 00 00 00 00 00 00 ................
00409940 00 00 00 00 00 00 00 00 00 00 00 00 00 00 00 00 ................
00409950 00 00 00 00 00 00 00 00 00 00 00 00 00 00 00 00 ................
00409960 00 00 00 00 00 00 00 00 00 00 00 00 00 00 00 00 ................
00409970 00 00 00 00 00 00 00 00 00 00 00 00 00 00 00 00 ................
00409980 00 00 00 00 00 00 00 00 00 00 00 00 00 00 00 00 ................
00409990 00 00 00 00 00 00 00 00 00 00 00 00 00 00 00 00 ................
004099A0 00 00 00 00 00 00 00 00 00 00 00 00 00 00 00 00 ................
004099B0 00 00 00 00 00 00 00 00 00 00 00 00 00 00 00 00 ................
004099C0 00 00 00 00 00 00 00 00 00 00 00 00 00 00 00 00 ................
004099D0 00 00 00 00 00 00 00 00 00 00 00 00 00 00 00 00 ................
004099E0 00 00 00 00 00 00 00 00 00 00 00 00 00 00 00 00 ................
004099F0 00 00 00 00 00 00 00 00 00 00 00 00 00 00 00 00 ................
00409A00 00 00 00 00 00 00 00 00 00 00 00 00 00 00 00 00 ................
00409A10 00 00 00 00 00 00 00 00 00 00 00 00 00 00 00 00 ................
00409A20 00 00 00 00 00 00 00 00 00 00 00 00 00 00 00 00 ................
00409A30 00 00 00 00 00 00 00 00 00 00 00 00 00 00 00 00 ................
00409A40 00 00 00 00 00 00 00 00 00 00 00 00 00 00 00 00 ................
00409A50 00 00 00 00 00 00 00 00 00 00 00 00 00 00 00 00 ................
00409A60 00 00 00 00 00 00 00 00 00 00 00 00 00 00 00 00 ................
00409A70 00 00 00 00 00 00 00 00 00 00 00 00 00 00 00 00 ................
00409A80 00 00 00 00 00 00 00 00 00 00 00 00 00 00 00 00 ................
00409A90 00 00 00 00 00 00 00 00 00 00 00 00 00 00 00 00 ................
00409AA0 00 00 00 00 00 00 00 00 00 00 00 00 00 00 00 00 ................
00409AB0 00 00 00 00 00 00 00 00 00 00 00 00 00 00 00 00 ................
00409AC0 00 00 00 00 00 00 00 00 00 00 00 00 00 00 00 00 ................
00409AD0 00 00 00 00 00 00 00 00 00 00 00 00 00 00 00 00 ................
00409AE0 00 00 00 00 00 00 00 00 00 00 00 00 00 00 00 00 ................
00409AF0 00 00 00 00 00 00 00 00 00 00 00 00 00 00 00 00 ................
00409B00 00 00 00 00 00 00 00 00 00 00 00 00 00 00 00 00 ................
00409B10 00 00 00 00 00 00 00 00 00 00 00 00 00 00 00 00 ................
00409B20 00 00 00 00 00 00 00 00 00 00 00 00 00 00 00 00 ................
00409B30 00 00 00 00 00 00 00 00 00 00 00 00 00 00 00 00 ................
00409B40 00 00 00 00 00 00 00 00 00 00 00 00 00 00 00 00 ................
00409B50 00 00 00 00 00 00 00 00 00 00 00 00 00 00 00 00 ................
00409B60 00 00 00 00 00 00 00 00 00 00 00 00 00 00 00 00 ................
00409B70 00 00 00 00 00 00 00 00 00 00 00 00 00 00 00 00 ................
00409B80 00 00 00 00 00 00 00 00 00 00 00 00 00 00 00 00 ................
00409B90 00 00 00 00 00 00 00 00 00 00 00 00 00 00 00 00 ................
00409BA0 00 00 00 00 00 00 00 00 00 00 00 00 00 00 00 00 ................
00409BB0 00 00 00 00 00 00 00 00 00 00 00 00 00 00 00 00 ................
00409BC0 00 00 00 00 00 00 00 00 00 00 00 00 00 00 00 00 ................
00409BD0 00 00 00 00 00 00 00 00 00 00 00 00 00 00 00 00 ................
00409BE0 00 00 00 00 00 00 00 00 00 00 00 00 00 00 00 00 ................
00409BF0 00 00 00 00 00 00 00 00 00 00 00 00 00 00 00 00 ................
00409C00 00 00 00 00 00 00 00 00 00 00 00 00 00 00 00 00 ................
00409C10 00 00 00 00 00 00 00 00 00 00 00 00 00 00 00 00 ................
00409C20 00 00 00 00 00 00 00 00 00 00 00 00 00 00 00 00 ................
00409C30 00 00 00 00 00 00 00 00 00 00 00 00 00 00 00 00 ................
00409C40 00 00 00 00 00 00 00 00 00 00 00 00 00 00 00 00 ................
00409C50 00 00 00 00 00 00 00 00 00 00 00 00 00 00 00 00 ................
00409C60 00 00 00 00 00 00 00 00 00 00 00 00 00 00 00 00 ................
00409C70 00 00 00 00 00 00 00 00 00 00 00 00 00 00 00 00 ................
00409C80 00 00 00 00 00 00 00 00 00 00 00 00 00 00 00 00 ................
00409C90 00 00 00 00 00 00 00 00 00 00 00 00 00 00 00 00 ................
00409CA0 00 00 00 00 00 00 00 00 00 00 00 00 00 00 00 00 ................
00409CB0 00 00 00 00 00 00 00 00 00 00 00 00 00 00 00 00 ................
00409CC0 00 00 00 00 00 00 00 00 00 00 00 00 00 00 00 00 ................
00409CD0 00 00 00 00 00 00 00 00 00 00 00 00 00 00 00 00 ................
00409CE0 00 00 00 00 00 00 00 00 00 00 00 00 00 00 00 00 ................
00409CF0 00 00 00 00 00 00 00 00 00 00 00 00 00 00 00 00 ................
00409D00 00 00 00 00 00 00 00 00 00 00 00 00 00 00 00 00 ................
00409D10 00 00 00 00 00 00 00 00 00 00 00 00 00 00 00 00 ................
00409D20 00 00 00 00 00 00 00 00 00 00 00 00 00 00 00 00 ................
00409D30 00 00 00 00 00 00 00 00 00 00 00 00 00 00 00 00 ................
00409D40 00 00 00 00 00 00 00 00 00 00 00 00 00 00 00 00 ................
00409D50 00 00 00 00 00 00 00 00 00 00 00 00 00 00 00 00 ................
00409D60 00 00 00 00 00 00 00 00 00 00 00 00 00 00 00 00 ................
00409D70 00 00 00 00 00 00 00 00 00 00 00 00 00 00 00 00 ................
00409D80 00 00 00 00 00 00 00 00 00 00 00 00 00 00 00 00 ................
00409D90 00 00 00 00 00 00 00 00 00 00 00 00 00 00 00 00 ................
00409DA0 00 00 00 00 00 00 00 00 00 00 00 00 00 00 00 00 ................
00409DB0 00 00 00 00 00 00 00 00 00 00 00 00 00 00 00 00 ................
00409DC0 00 00 00 00 00 00 00 00 00 00 00 00 00 00 00 00 ................
00409DD0 00 00 00 00 00 00 00 00 00 00 00 00 00 00 00 00 ................
00409DE0 00 00 00 00 00 00 00 00 00 00 00 00 00 00 00 00 ................
00409DF0 00 00 00 00 00 00 00 00 00 00 00 00 00 00 00 00 ................
00409E00 00 00 00 00 00 00 00 00 00 00 00 00 00 00 00 00 ................
00409E10 00 00 00 00 00 00 00 00 00 00 00 00 00 00 00 00 ................
00409E20 00 00 00 00 00 00 00 00 00 00 00 00 00 00 00 00 ................
00409E30 00 00 00 00 00 00 00 00 00 00 00 00 00 00 00 00 ................
00409E40 00 00 00 00 00 00 00 00 00 00 00 00 00 00 00 00 ................
00409E50 00 00 00 00 00 00 00 00 00 00 00 00 00 00 00 00 ................
00409E60 00 00 00 00 00 00 00 00 00 00 00 00 00 00 00 00 ................
00409E70 00 00 00 00 00 00 00 00 00 00 00 00 00 00 00 00 ................
00409E80 00 00 00 00 00 00 00 00 00 00 00 00 00 00 00 00 ................
00409E90 00 00 00 00 00 00 00 00 00 00 00 00 00 00 00 00 ................
00409EA0 00 00 00 00 00 00 00 00 00 00 00 00 00 00 00 00 ................
00409EB0 00 00 00 00 00 00 00 00 00 00 00 00 00 00 00 00 ................
00409EC0 00 00 00 00 00 00 00 00 00 00 00 00 00 00 00 00 ................
00409ED0 00 00 00 00 00 00 00 00 00 00 00 00 00 00 00 00 ................
00409EE0 00 00 00 00 00 00 00 00 00 00 00 00 00 00 00 00 ................
00409EF0 00 00 00 00 00 00 00 00 00 00 00 00 00 00 00 00 ................
00409F00 00 00 00 00 00 00 00 00 00 00 00 00 00 00 00 00 ................
00409F10 00 00 00 00 00 00 00 00 00 00 00 00 00 00 00 00 ................
00409F20 00 00 00 00 00 00 00 00 00 00 00 00 00 00 00 00 ................
00409F30 00 00 00 00 00 00 00 00 00 00 00 00 00 00 00 00 ................
00409F40 00 00 00 00 00 00 00 00 00 00 00 00 00 00 00 00 ................
00409F50 00 00 00 00 00 00 00 00 00 00 00 00 00 00 00 00 ................
00409F60 00 00 00 00 00 00 00 00 00 00 00 00 00 00 00 00 ................
00409F70 00 00 00 00 00 00 00 00 00 00 00 00 00 00 00 00 ................
00409F80 00 00 00 00 00 00 00 00 00 00 00 00 00 00 00 00 ................
00409F90 00 00 00 00 00 00 00 00 00 00 00 00 00 00 00 00 ................
00409FA0 00 00 00 00 00 00 00 00 00 00 00 00 00 00 00 00 ................
00409FB0 00 00 00 00 00 00 00 00 00 00 00 00 00 00 00 00 ................
00409FC0 00 00 00 00 00 00 00 00 00 00 00 00 00 00 00 00 ................
00409FD0 00 00 00 00 00 00 00 00 00 00 00 00 00 00 00 00 ................
00409FE0 00 00 00 00 00 00 00 00 00 00 00 00 00 00 00 00 ................
00409FF0 00 00 00 00 00 00 00 00 00 00 00 00 00 00 00 00 ................
0040A000 00 00 00 00 00 00 00 00 00 00 00 00 00 00 00 00 ................
0040A010 00 00 00 00 00 00 00 00 00 00 00 00 00 00 00 00 ................
0040A020 00 00 00 00 00 00 00 00 00 00 00 00 00 00 00 00 ................
0040A030 00 00 00 00 00 00 00 00 00 00 00 00 00 00 00 00 ................
0040A040 00 00 00 00 00 00 00 00 00 00 00 00 00 00 00 00 ................
0040A050 00 00 00 00 00 00 00 00 00 00 00 00 00 00 00 00 ................
0040A060 00 00 00 00 00 00 00 00 00 00 00 00 00 00 00 00 ................
0040A070 00 00 00 00 00 00 00 00 00 00 00 00 00 00 00 00 ................
0040A080 00 00 00 00 00 00 00 00 00 00 00 00 00 00 00 00 ................
0040A090 00 00 00 00 00 00 00 00 00 00 00 00 00 00 00 00 ................
0040A0A0 00 00 00 00 00 00 00 00 00 00 00 00 00 00 00 00 ................
0040A0B0 00 00 00 00 00 00 00 00 00 00 00 00 00 00 00 00 ................
0040A0C0 00 00 00 00 00 00 00 00 00 00 00 00 00 00 00 00 ................
0040A0D0 00 00 00 00 00 00 00 00 00 00 00 00 00 00 00 00 ................
0040A0E0 00 00 00 00 00 00 00 00 00 00 00 00 00 00 00 00 ................
0040A0F0 00 00 00 00 00 00 00 00 00 00 00 00 00 00 00 00 ................
0040A100 00 00 00 00 00 00 00 00 00 00 00 00 00 00 00 00 ................
0040A110 00 00 00 00 00 00 00 00 00 00 00 00 00 00 00 00 ................
0040A120 00 00 00 00 00 00 00 00 00 00 00 00 00 00 00 00 ................
0040A130 00 00 00 00 00 00 00 00 00 00 00 00 00 00 00 00 ................
0040A140 00 00 00 00 00 00 00 00 00 00 00 00 00 00 00 00 ................
0040A150 00 00 00 00 00 00 00 00 00 00 00 00 00 00 00 00 ................
0040A160 00 00 00 00 00 00 00 00 00 00 00 00 00 00 00 00 ................
0040A170 00 00 00 00 00 00 00 00 00 00 00 00 00 00 00 00 ................
0040A180 00 00 00 00 00 00 00 00 00 00 00 00 00 00 00 00 ................
0040A190 00 00 00 00 00 00 00 00 00 00 00 00 00 00 00 00 ................
0040A1A0 00 00 00 00 00 00 00 00 00 00 00 00 00 00 00 00 ................
0040A1B0 00 00 00 00 00 00 00 00 00 00 00 00 00 00 00 00 ................
0040A1C0 00 00 00 00 00 00 00 00 00 00 00 00 00 00 00 00 ................
0040A1D0 00 00 00 00 00 00 00 00 00 00 00 00 00 00 00 00 ................
0040A1E0 00 00 00 00 00 00 00 00 00 00 00 00 00 00 00 00 ................
0040A1F0 00 00 00 00 00 00 00 00 00 00 00 00 00 00 00 00 ................
0040A200 00 00 00 00 00 00 00 00 00 00 00 00 00 00 00 00 ................
0040A210 00 00 00 00 00 00 00 00 00 00 00 00 00 00 00 00 ................
0040A220 00 00 00 00 00 00 00 00 00 00 00 00 00 00 00 00 ................
0040A230 00 00 00 00 00 00 00 00 00 00 00 00 00 00 00 00 ................
0040A240 00 00 00 00 00 00 00 00 00 00 00 00 00 00 00 00 ................
0040A250 00 00 00 00 00 00 00 00 00 00 00 00 00 00 00 00 ................
0040A260 00 00 00 00 00 00 00 00 00 00 00 00 00 00 00 00 ................
0040A270 00 00 00 00 00 00 00 00 00 00 00 00 00 00 00 00 ................
0040A280 00 00 00 00 00 00 00 00 00 00 00 00 00 00 00 00 ................
0040A290 00 00 00 00 00 00 00 00 00 00 00 00 00 00 00 00 ................
0040A2A0 00 00 00 00 00 00 00 00 00 00 00 00 00 00 00 00 ................
0040A2B0 00 00 00 00 00 00 00 00 00 00 00 00 00 00 00 00 ................
0040A2C0 00 00 00 00 00 00 00 00 00 00 00 00 00 00 00 00 ................
0040A2D0 00 00 00 00 00 00 00 00 00 00 00 00 00 00 00 00 ................
0040A2E0 00 00 00 00 00 00 00 00 00 00 00 00 00 00 00 00 ................
0040A2F0 00 00 00 00 00 00 00 00 00 00 00 00 00 00 00 00 ................
0040A300 00 00 00 00 00 00 00 00 00 00 00 00 00 00 00 00 ................
0040A310 00 00 00 00 00 00 00 00 00 00 00 00 00 00 00 00 ................
0040A320 00 00 00 00 00 00 00 00 00 00 00 00 00 00 00 00 ................
0040A330 00 00 00 00 00 00 00 00 00 00 00 00 00 00 00 00 ................
0040A340 00 00 00 00 00 00 00 00 00 00 00 00 00 00 00 00 ................
0040A350 00 00 00 00 00 00 00 00 00 00 00 00 00 00 00 00 ................
0040A360 00 00 00 00 00 00 00 00 00 00 00 00 00 00 00 00 ................
0040A370 00 00 00 00 00 00 00 00 00 00 00 00 00 00 00 00 ................
0040A380 00 00 00 00 00 00 00 00 00 00 00 00 00 00 00 00 ................
0040A390 00 00 00 00 00 00 00 00 00 00 00 00 00 00 00 00 ................
0040A3A0 00 00 00 00 00 00 00 00 00 00 00 00 00 00 00 00 ................
0040A3B0 00 00 00 00 00 00 00 00 00 00 00 00 00 00 00 00 ................
0040A3C0 00 00 00 00 00 00 00 00 00 00 00 00 00 00 00 00 ................
0040A3D0 00 00 00 00 00 00 00 00 00 00 00 00 00 00 00 00 ................
0040A3E0 00 00 00 00 00 00 00 00 00 00 00 00 00 00 00 00 ................
0040A3F0 00 00 00 00 00 00 00 00 00 00 00 00 00 00 00 00 ................
0040A400 00 00 00 00 00 00 00 00 00 00 00 00 00 00 00 00 ................
0040A410 00 00 00 00 00 00 00 00 00 00 00 00 00 00 00 00 ................
0040A420 00 00 00 00 00 00 00 00 00 00 00 00 00 00 00 00 ................
0040A430 00 00 00 00 00 00 00 00 00 00 00 00 00 00 00 00 ................
0040A440 00 00 00 00 00 00 00 00 00 00 00 00 00 00 00 00 ................
0040A450 00 00 00 00 00 00 00 00 00 00 00 00 00 00 00 00 ................
0040A460 00 00 00 00 00 00 00 00 00 00 00 00 00 00 00 00 ................
0040A470 00 00 00 00 00 00 00 00 00 00 00 00 00 00 00 00 ................
0040A480 00 00 00 00 00 00 00 00 00 00 00 00 00 00 00 00 ................
0040A490 00 00 00 00 00 00 00 00 00 00 00 00 00 00 00 00 ................
0040A4A0 00 00 00 00 00 00 00 00 00 00 00 00 00 00 00 00 ................
0040A4B0 00 00 00 00 00 00 00 00 00 00 00 00 00 00 00 00 ................
0040A4C0 00 00 00 00 00 00 00 00 00 00 00 00 00 00 00 00 ................
0040A4D0 00 00 00 00 00 00 00 00 00 00 00 00 00 00 00 00 ................
0040A4E0 00 00 00 00 00 00 00 00 00 00 00 00 00 00 00 00 ................
0040A4F0 00 00 00 00 00 00 00 00 00 00 00 00 00 00 00 00 ................
0040A500 00 00 00 00 00 00 00 00 00 00 00 00 00 00 00 00 ................
0040A510 00 00 00 00 00 00 00 00 00 00 00 00 00 00 00 00 ................
0040A520 00 00 00 00 00 00 00 00 00 00 00 00 00 00 00 00 ................
0040A530 00 00 00 00 00 00 00 00 00 00 00 00 00 00 00 00 ................
0040A540 00 00 00 00 00 00 00 00 00 00 00 00 00 00 00 00 ................
0040A550 00 00 00 00 00 00 00 00 00 00 00 00 00 00 00 00 ................
0040A560 00 00 00 00 00 00 00 00 00 00 00 00 00 00 00 00 ................
0040A570 00 00 00 00 00 00 00 00 00 00 00 00 00 00 00 00 ................
0040A580 00 00 00 00 00 00 00 00 00 00 00 00 00 00 00 00 ................
0040A590 00 00 00 00 00 00 00 00 00 00 00 00 00 00 00 00 ................
0040A5A0 00 00 00 00 00 00 00 00 00 00 00 00 00 00 00 00 ................
0040A5B0 00 00 00 00 00 00 00 00 00 00 00 00 00 00 00 00 ................
0040A5C0 00 00 00 00 00 00 00 00 00 00 00 00 00 00 00 00 ................
0040A5D0 00 00 00 00 00 00 00 00 00 00 00 00 00 00 00 00 ................
0040A5E0 00 00 00 00 00 00 00 00 00 00 00 00 00 00 00 00 ................
0040A5F0 00 00 00 00 00 00 00 00 00 00 00 00 00 00 00 00 ................
0040A600 00 00 00 00 00 00 00 00 00 00 00 00 00 00 00 00 ................
0040A610 00 00 00 00 00 00 00 00 00 00 00 00 00 00 00 00 ................
0040A620 00 00 00 00 00 00 00 00 00 00 00 00 00 00 00 00 ................
0040A630 00 00 00 00 00 00 00 00 00 00 00 00 00 00 00 00 ................
0040A640 00 00 00 00 00 00 00 00 00 00 00 00 00 00 00 00 ................
0040A650 00 00 00 00 00 00 00 00 00 00 00 00 00 00 00 00 ................
0040A660 00 00 00 00 00 00 00 00 00 00 00 00 00 00 00 00 ................
0040A670 00 00 00 00 00 00 00 00 00 00 00 00 00 00 00 00 ................
0040A680 00 00 00 00 00 00 00 00 00 00 00 00 00 00 00 00 ................
0040A690 00 00 00 00 00 00 00 00 00 00 00 00 00 00 00 00 ................
0040A6A0 00 00 00 00 00 00 00 00 00 00 00 00 00 00 00 00 ................
0040A6B0 00 00 00 00 00 00 00 00 00 00 00 00 00 00 00 00 ................
0040A6C0 00 00 00 00 00 00 00 00 00 00 00 00 00 00 00 00 ................
0040A6D0 00 00 00 00 00 00 00 00 00 00 00 00 00 00 00 00 ................
0040A6E0 00 00 00 00 00 00 00 00 00 00 00 00 00 00 00 00 ................
0040A6F0 00 00 00 00 00 00 00 00 00 00 00 00 00 00 00 00 ................
0040A700 00 00 00 00 00 00 00 00 00 00 00 00 00 00 00 00 ................
0040A710 00 00 00 00 00 00 00 00 00 00 00 00 00 00 00 00 ................
0040A720 00 00 00 00 00 00 00 00 00 00 00 00 00 00 00 00 ................
0040A730 00 00 00 00 00 00 00 00 00 00 00 00 00 00 00 00 ................
0040A740 00 00 00 00 00 00 00 00 00 00 00 00 00 00 00 00 ................
0040A750 00 00 00 00 00 00 00 00 00 00 00 00 00 00 00 00 ................
0040A760 00 00 00 00 00 00 00 00 00 00 00 00 00 00 00 00 ................
0040A770 00 00 00 00 00 00 00 00 00 00 00 00 00 00 00 00 ................
0040A780 00 00 00 00 00 00 00 00 00 00 00 00 00 00 00 00 ................
0040A790 00 00 00 00 00 00 00 00 00 00 00 00 00 00 00 00 ................
0040A7A0 00 00 00 00 00 00 00 00 00 00 00 00 00 00 00 00 ................
0040A7B0 00 00 00 00 00 00 00 00 00 00 00 00 00 00 00 00 ................
0040A7C0 00 00 00 00 00 00 00 00 00 00 00 00 00 00 00 00 ................
0040A7D0 00 00 00 00 00 00 00 00 00 00 00 00 00 00 00 00 ................
0040A7E0 00 00 00 00 00 00 00 00 00 00 00 00 00 00 00 00 ................
0040A7F0 00 00 00 00 00 00 00 00 00 00 00 00 00 00 00 00 ................
0040A800 00 00 00 00 00 00 00 00 00 00 00 00 00 00 00 00 ................
0040A810 00 00 00 00 00 00 00 00 00 00 00 00 00 00 00 00 ................
0040A820 00 00 00 00 00 00 00 00 00 00 00 00 00 00 00 00 ................
0040A830 00 00 00 00 00 00 00 00 00 00 00 00 00 00 00 00 ................
0040A840 00 00 00 00 00 00 00 00 00 00 00 00 00 00 00 00 ................
0040A850 00 00 00 00 00 00 00 00 00 00 00 00 00 00 00 00 ................
0040A860 00 00 00 00 00 00 00 00 00 00 00 00 00 00 00 00 ................
0040A870 00 00 00 00 00 00 00 00 00 00 00 00 00 00 00 00 ................
0040A880 00 00 00 00 00 00 00 00 00 00 00 00 00 00 00 00 ................
0040A890 00 00 00 00 00 00 00 00 00 00 00 00 00 00 00 00 ................
0040A8A0 00 00 00 00 00 00 00 00 00 00 00 00 00 00 00 00 ................
0040A8B0 00 00 00 00 00 00 00 00 00 00 00 00 00 00 00 00 ................
0040A8C0 00 00 00 00 00 00 00 00 00 00 00 00 00 00 00 00 ................
0040A8D0 00 00 00 00 00 00 00 00 00 00 00 00 00 00 00 00 ................
0040A8E0 00 00 00 00 00 00 00 00 00 00 00 00 00 00 00 00 ................
0040A8F0 00 00 00 00 00 00 00 00 00 00 00 00 00 00 00 00 ................
0040A900 00 00 00 00 00 00 00 00 00 00 00 00 00 00 00 00 ................
0040A910 00 00 00 00 00 00 00 00 00 00 00 00 00 00 00 00 ................
0040A920 00 00 00 00 00 00 00 00 00 00 00 00 00 00 00 00 ................
0040A930 00 00 00 00 00 00 00 00 00 00 00 00 00 00 00 00 ................
0040A940 00 00 00 00 00 00 00 00 00 00 00 00 00 00 00 00 ................
0040A950 00 00 00 00 00 00 00 00 00 00 00 00 00 00 00 00 ................
0040A960 00 00 00 00 00 00 00 00 00 00 00 00 00 00 00 00 ................
0040A970 00 00 00 00 00 00 00 00 00 00 00 00 00 00 00 00 ................
0040A980 00 00 00 00 00 00 00 00 00 00 00 00 00 00 00 00 ................
0040A990 00 00 00 00 00 00 00 00 00 00 00 00 00 00 00 00 ................
0040A9A0 00 00 00 00 00 00 00 00 00 00 00 00 00 00 00 00 ................
0040A9B0 00 00 00 00 00 00 00 00 00 00 00 00 00 00 00 00 ................
0040A9C0 00 00 00 00 00 00 00 00 00 00 00 00 00 00 00 00 ................
0040A9D0 00 00 00 00 00 00 00 00 00 00 00 00 00 00 00 00 ................
0040A9E0 00 00 00 00 00 00 00 00 00 00 00 00 00 00 00 00 ................
0040A9F0 00 00 00 00 00 00 00 00 00 00 00 00 00 00 00 00 ................
0040AA00 00 00 00 00 00 00 00 00 00 00 00 00 00 00 00 00 ................
0040AA10 00 00 00 00 00 00 00 00 00 00 00 00 00 00 00 00 ................
0040AA20 00 00 00 00 00 00 00 00 00 00 00 00 00 00 00 00 ................
0040AA30 00 00 00 00 00 00 00 00 00 00 00 00 00 00 00 00 ................
0040AA40 00 00 00 00 00 00 00 00 00 00 00 00 00 00 00 00 ................
0040AA50 00 00 00 00 00 00 00 00 00 00 00 00 00 00 00 00 ................
0040AA60 00 00 00 00 00 00 00 00 00 00 00 00 00 00 00 00 ................
0040AA70 00 00 00 00 00 00 00 00 00 00 00 00 00 00 00 00 ................
0040AA80 00 00 00 00 00 00 00 00 00 00 00 00 00 00 00 00 ................
0040AA90 00 00 00 00 00 00 00 00 00 00 00 00 00 00 00 00 ................
0040AAA0 00 00 00 00 00 00 00 00 00 00 00 00 00 00 00 00 ................
0040AAB0 00 00 00 00 00 00 00 00 00 00 00 00 00 00 00 00 ................
0040AAC0 00 00 00 00 00 00 00 00 00 00 00 00 00 00 00 00 ................
0040AAD0 00 00 00 00 00 00 00 00 00 00 00 00 00 00 00 00 ................
0040AAE0 00 00 00 00 00 00 00 00 00 00 00 00 00 00 00 00 ................
0040AAF0 00 00 00 00 00 00 00 00 00 00 00 00 00 00 00 00 ................
0040AB00 00 00 00 00 00 00 00 00 00 00 00 00 00 00 00 00 ................
0040AB10 00 00 00 00 00 00 00 00 00 00 00 00 00 00 00 00 ................
0040AB20 00 00 00 00 00 00 00 00 00 00 00 00 00 00 00 00 ................
0040AB30 00 00 00 00 00 00 00 00 00 00 00 00 00 00 00 00 ................
0040AB40 00 00 00 00 00 00 00 00 00 00 00 00 00 00 00 00 ................
0040AB50 00 00 00 00 00 00 00 00 00 00 00 00 00 00 00 00 ................
0040AB60 00 00 00 00 00 00 00 00 00 00 00 00 00 00 00 00 ................
0040AB70 00 00 00 00 00 00 00 00 00 00 00 00 00 00 00 00 ................
0040AB80 00 00 00 00 00 00 00 00 00 00 00 00 00 00 00 00 ................
0040AB90 00 00 00 00 00 00 00 00 00 00 00 00 00 00 00 00 ................
0040ABA0 00 00 00 00 00 00 00 00 00 00 00 00 00 00 00 00 ................
0040ABB0 00 00 00 00 00 00 00 00 00 00 00 00 00 00 00 00 ................
0040ABC0 00 00 00 00 00 00 00 00 00 00 00 00 00 00 00 00 ................
0040ABD0 00 00 00 00 00 00 00 00 00 00 00 00 00 00 00 00 ................
0040ABE0 00 00 00 00 00 00 00 00 00 00 00 00 00 00 00 00 ................
0040ABF0 00 00 00 00 00 00 00 00 00 00 00 00 00 00 00 00 ................
0040AC00 00 00 00 00 00 00 00 00 00 00 00 00 00 00 00 00 ................
0040AC10 00 00 00 00 00 00 00 00 00 00 00 00 00 00 00 00 ................
0040AC20 00 00 00 00 00 00 00 00 00 00 00 00 00 00 00 00 ................
0040AC30 00 00 00 00 00 00 00 00 00 00 00 00 00 00 00 00 ................
0040AC40 00 00 00 00 00 00 00 00 00 00 00 00 00 00 00 00 ................
0040AC50 00 00 00 00 00 00 00 00 00 00 00 00 00 00 00 00 ................
0040AC60 00 00 00 00 00 00 00 00 00 00 00 00 00 00 00 00 ................
0040AC70 00 00 00 00 00 00 00 00 00 00 00 00 00 00 00 00 ................
0040AC80 00 00 00 00 00 00 00 00 00 00 00 00 00 00 00 00 ................
0040AC90 00 00 00 00 00 00 00 00 00 00 00 00 00 00 00 00 ................
0040ACA0 00 00 00 00 00 00 00 00 00 00 00 00 00 00 00 00 ................
0040ACB0 00 00 00 00 00 00 00 00 00 00 00 00 00 00 00 00 ................
0040ACC0 00 00 00 00 00 00 00 00 00 00 00 00 00 00 00 00 ................
0040ACD0 00 00 00 00 00 00 00 00 00 00 00 00 00 00 00 00 ................
0040ACE0 00 00 00 00 00 00 00 00 00 00 00 00 00 00 00 00 ................
0040ACF0 00 00 00 00 00 00 00 00 00 00 00 00 00 00 00 00 ................
0040AD00 00 00 00 00 00 00 00 00 00 00 00 00 00 00 00 00 ................
0040AD10 00 00 00 00 00 00 00 00 00 00 00 00 00 00 00 00 ................
0040AD20 00 00 00 00 00 00 00 00 00 00 00 00 00 00 00 00 ................
0040AD30 00 00 00 00 00 00 00 00 00 00 00 00 00 00 00 00 ................
0040AD40 00 00 00 00 00 00 00 00 00 00 00 00 00 00 00 00 ................
0040AD50 00 00 00 00 00 00 00 00 00 00 00 00 00 00 00 00 ................
0040AD60 00 00 00 00 00 00 00 00 00 00 00 00 00 00 00 00 ................
0040AD70 00 00 00 00 00 00 00 00 00 00 00 00 00 00 00 00 ................
0040AD80 00 00 00 00 00 00 00 00 00 00 00 00 00 00 00 00 ................
0040AD90 00 00 00 00 00 00 00 00 00 00 00 00 00 00 00 00 ................
0040ADA0 00 00 00 00 00 00 00 00 00 00 00 00 00 00 00 00 ................
0040ADB0 00 00 00 00 00 00 00 00 00 00 00 00 00 00 00 00 ................
0040ADC0 00 00 00 00 00 00 00 00 00 00 00 00 00 00 00 00 ................
0040ADD0 00 00 00 00 00 00 00 00 00 00 00 00 00 00 00 00 ................
0040ADE0 00 00 00 00 00 00 00 00 00 00 00 00 00 00 00 00 ................
0040ADF0 00 00 00 00 00 00 00 00 00 00 00 00 00 00 00 00 ................
0040AE00 00 00 00 00 00 00 00 00 00 00 00 00 00 00 00 00 ................
0040AE10 00 00 00 00 00 00 00 00 00 00 00 00 00 00 00 00 ................
0040AE20 00 00 00 00 00 00 00 00 00 00 00 00 00 00 00 00 ................
0040AE30 00 00 00 00 00 00 00 00 00 00 00 00 00 00 00 00 ................
0040AE40 00 00 00 00 00 00 00 00 00 00 00 00 00 00 00 00 ................
0040AE50 00 00 00 00 00 00 00 00 00 00 00 00 00 00 00 00 ................
0040AE60 00 00 00 00 00 00 00 00 00 00 00 00 00 00 00 00 ................
0040AE70 00 00 00 00 00 00 00 00 00 00 00 00 00 00 00 00 ................
0040AE80 00 00 00 00 00 00 00 00 00 00 00 00 00 00 00 00 ................
0040AE90 00 00 00 00 00 00 00 00 00 00 00 00 00 00 00 00 ................
0040AEA0 00 00 00 00 00 00 00 00 00 00 00 00 00 00 00 00 ................
0040AEB0 00 00 00 00 00 00 00 00 00 00 00 00 00 00 00 00 ................
0040AEC0 00 00 00 00 00 00 00 00 00 00 00 00 00 00 00 00 ................
0040AED0 00 00 00 00 00 00 00 00 00 00 00 00 00 00 00 00 ................
0040AEE0 00 00 00 00 00 00 00 00 00 00 00 00 00 00 00 00 ................
0040AEF0 00 00 00 00 00 00 00 00 00 00 00 00 00 00 00 00 ................
0040AF00 00 00 00 00 00 00 00 00 00 00 00 00 00 00 00 00 ................
0040AF10 00 00 00 00 00 00 00 00 00 00 00 00 00 00 00 00 ................
0040AF20 00 00 00 00 00 00 00 00 00 00 00 00 00 00 00 00 ................
0040AF30 00 00 00 00 00 00 00 00 00 00 00 00 00 00 00 00 ................
0040AF40 00 00 00 00 00 00 00 00 00 00 00 00 00 00 00 00 ................
0040AF50 00 00 00 00 00 00 00 00 00 00 00 00 00 00 00 00 ................
0040AF60 00 00 00 00 00 00 00 00 00 00 00 00 00 00 00 00 ................
0040AF70 00 00 00 00 00 00 00 00 00 00 00 00 00 00 00 00 ................
0040AF80 00 00 00 00 00 00 00 00 00 00 00 00 00 00 00 00 ................
0040AF90 00 00 00 00 00 00 00 00 00 00 00 00 00 00 00 00 ................
0040AFA0 00 00 00 00 00 00 00 00 00 00 00 00 00 00 00 00 ................
0040AFB0 00 00 00 00 00 00 00 00 00 00 00 00 00 00 00 00 ................
0040AFC0 00 00 00 00 00 00 00 00 00 00 00 00 00 00 00 00 ................
0040AFD0 00 00 00 00 00 00 00 00 00 00 00 00 00 00 00 00 ................
0040AFE0 00 00 00 00 00 00 00 00 00 00 00 00 00 00 00 00 ................
0040AFF0 00 00 00 00 00 00 00 00 00 00 00 00 00 00 00 00 ................
0040B000 00 00 00 00 00 00 00 00 00 00 00 00 00 00 00 00 ................
0040B010 00 00 00 00 00 00 00 00 00 00 00 00 00 00 00 00 ................
0040B020 00 00 00 00 00 00 00 00 00 00 00 00 00 00 00 00 ................
0040B030 00 00 00 00 00 00 00 00 00 00 00 00 00 00 00 00 ................
0040B040 00 00 00 00 00 00 00 00 00 00 00 00 00 00 00 00 ................
0040B050 00 00 00 00 00 00 00 00 00 00 00 00 00 00 00 00 ................
0040B060 00 00 00 00 00 00 00 00 00 00 00 00 00 00 00 00 ................
0040B070 00 00 00 00 00 00 00 00 00 00 00 00 00 00 00 00 ................
0040B080 00 00 00 00 00 00 00 00 00 00 00 00 00 00 00 00 ................
0040B090 00 00 00 00 00 00 00 00 00 00 00 00 00 00 00 00 ................
0040B0A0 00 00 00 00 00 00 00 00 00 00 00 00 00 00 00 00 ................
0040B0B0 00 00 00 00 00 00 00 00 00 00 00 00 00 00 00 00 ................
0040B0C0 00 00 00 00 00 00 00 00 00 00 00 00 00 00 00 00 ................
0040B0D0 00 00 00 00 00 00 00 00 00 00 00 00 00 00 00 00 ................
0040B0E0 00 00 00 00 00 00 00 00 00 00 00 00 00 00 00 00 ................
0040B0F0 00 00 00 00 00 00 00 00 00 00 00 00 00 00 00 00 ................
0040B100 00 00 00 00 00 00 00 00 00 00 00 00 00 00 00 00 ................
0040B110 00 00 00 00 00 00 00 00 00 00 00 00 00 00 00 00 ................
0040B120 00 00 00 00 00 00 00 00 00 00 00 00 00 00 00 00 ................
0040B130 00 00 00 00 00 00 00 00 00 00 00 00 00 00 00 00 ................
0040B140 00 00 00 00 00 00 00 00 00 00 00 00 00 00 00 00 ................
0040B150 00 00 00 00 00 00 00 00 00 00 00 00 00 00 00 00 ................
0040B160 00 00 00 00 00 00 00 00 00 00 00 00 00 00 00 00 ................
0040B170 00 00 00 00 00 00 00 00 00 00 00 00 00 00 00 00 ................
0040B180 00 00 00 00 00 00 00 00 00 00 00 00 00 00 00 00 ................
0040B190 00 00 00 00 00 00 00 00 00 00 00 00 00 00 00 00 ................
0040B1A0 00 00 00 00 00 00 00 00 00 00 00 00 00 00 00 00 ................
0040B1B0 00 00 00 00 00 00 00 00 00 00 00 00 00 00 00 00 ................
0040B1C0 00 00 00 00 00 00 00 00 00 00 00 00 00 00 00 00 ................
0040B1D0 00 00 00 00 00 00 00 00 00 00 00 00 00 00 00 00 ................
0040B1E0 00 00 00 00 00 00 00 00 00 00 00 00 00 00 00 00 ................
0040B1F0 00 00 00 00 00 00 00 00 00 00 00 00 00 00 00 00 ................
0040B200 00 00 00 00 00 00 00 00 00 00 00 00 00 00 00 00 ................
0040B210 00 00 00 00 00 00 00 00 00 00 00 00 00 00 00 00 ................
0040B220 00 00 00 00 00 00 00 00 00 00 00 00 00 00 00 00 ................
0040B230 00 00 00 00 00 00 00 00 00 00 00 00 00 00 00 00 ................
0040B240 00 00 00 00 00 00 00 00 00 00 00 00 00 00 00 00 ................
0040B250 00 00 00 00 00 00 00 00 00 00 00 00 00 00 00 00 ................
0040B260 00 00 00 00 00 00 00 00 00 00 00 00 00 00 00 00 ................
0040B270 00 00 00 00 00 00 00 00 00 00 00 00 00 00 00 00 ................
0040B280 00 00 00 00 00 00 00 00 00 00 00 00 00 00 00 00 ................
0040B290 00 00 00 00 00 00 00 00 00 00 00 00 00 00 00 00 ................
0040B2A0 00 00 00 00 00 00 00 00 00 00 00 00 00 00 00 00 ................
0040B2B0 00 00 00 00 00 00 00 00 00 00 00 00 00 00 00 00 ................
0040B2C0 00 00 00 00 00 00 00 00 00 00 00 00 00 00 00 00 ................
0040B2D0 00 00 00 00 00 00 00 00 00 00 00 00 00 00 00 00 ................
0040B2E0 00 00 00 00 00 00 00 00 00 00 00 00 00 00 00 00 ................
0040B2F0 00 00 00 00 00 00 00 00 00 00 00 00 00 00 00 00 ................
0040B300 00 00 00 00 00 00 00 00 00 00 00 00 00 00 00 00 ................
0040B310 00 00 00 00 00 00 00 00 00 00 00 00 00 00 00 00 ................
0040B320 00 00 00 00 00 00 00 00 00 00 00 00 00 00 00 00 ................
0040B330 00 00 00 00 00 00 00 00 00 00 00 00 00 00 00 00 ................
0040B340 00 00 00 00 00 00 00 00 00 00 00 00 00 00 00 00 ................
0040B350 00 00 00 00 00 00 00 00 00 00 00 00 00 00 00 00 ................
0040B360 00 00 00 00 00 00 00 00 00 00 00 00 00 00 00 00 ................
0040B370 00 00 00 00 00 00 00 00 00 00 00 00 00 00 00 00 ................
0040B380 00 00 00 00 00 00 00 00 00 00 00 00 00 00 00 00 ................
0040B390 00 00 00 00 00 00 00 00 00 00 00 00 00 00 00 00 ................
0040B3A0 00 00 00 00 00 00 00 00 00 00 00 00 00 00 00 00 ................
0040B3B0 00 00 00 00 00 00 00 00 00 00 00 00 00 00 00 00 ................
0040B3C0 00 00 00 00 00 00 00 00 00 00 00 00 00 00 00 00 ................
0040B3D0 00 00 00 00 00 00 00 00 00 00 00 00 00 00 00 00 ................
0040B3E0 00 00 00 00 00 00 00 00 00 00 00 00 00 00 00 00 ................
0040B3F0 00 00 00 00 00 00 00 00 00 00 00 00 00 00 00 00 ................
0040B400 00 00 00 00 00 00 00 00 00 00 00 00 00 00 00 00 ................
0040B410 00 00 00 00 00 00 00 00 00 00 00 00 00 00 00 00 ................
0040B420 00 00 00 00 00 00 00 00 00 00 00 00 00 00 00 00 ................
0040B430 00 00 00 00 00 00 00 00 00 00 00 00 00 00 00 00 ................
0040B440 00 00 00 00 00 00 00 00 00 00 00 00 00 00 00 00 ................
0040B450 00 00 00 00 00 00 00 00 00 00 00 00 00 00 00 00 ................
0040B460 00 00 00 00 00 00 00 00 00 00 00 00 00 00 00 00 ................
0040B470 00 00 00 00 00 00 00 00 00 00 00 00 00 00 00 00 ................
0040B480 00 00 00 00 00 00 00 00 00 00 00 00 00 00 00 00 ................
0040B490 00 00 00 00 00 00 00 00 00 00 00 00 00 00 00 00 ................
0040B4A0 00 00 00 00 00 00 00 00 00 00 00 00 00 00 00 00 ................
0040B4B0 00 00 00 00 00 00 00 00 00 00 00 00 00 00 00 00 ................
0040B4C0 00 00 00 00 00 00 00 00 00 00 00 00 00 00 00 00 ................
0040B4D0 00 00 00 00 00 00 00 00 00 00 00 00 00 00 00 00 ................
0040B4E0 00 00 00 00 00 00 00 00 00 00 00 00 00 00 00 00 ................
0040B4F0 00 00 00 00 00 00 00 00 00 00 00 00 00 00 00 00 ................
0040B500 00 00 00 00 00 00 00 00 00 00 00 00 00 00 00 00 ................
0040B510 00 00 00 00 00 00 00 00 00 00 00 00 00 00 00 00 ................
0040B520 00 00 00 00 00 00 00 00 00 00 00 00 00 00 00 00 ................
0040B530 00 00 00 00 00 00 00 00 00 00 00 00 00 00 00 00 ................
0040B540 00 00 00 00 00 00 00 00 00 00 00 00 00 00 00 00 ................
0040B550 00 00 00 00 00 00 00 00 00 00 00 00 00 00 00 00 ................
0040B560 00 00 00 00 00 00 00 00 00 00 00 00 00 00 00 00 ................
0040B570 00 00 00 00 00 00 00 00 00 00 00 00 00 00 00 00 ................
0040B580 00 00 00 00 00 00 00 00 00 00 00 00 00 00 00 00 ................
0040B590 00 00 00 00 00 00 00 00 00 00 00 00 00 00 00 00 ................
0040B5A0 00 00 00 00 00 00 00 00 00 00 00 00 00 00 00 00 ................
0040B5B0 00 00 00 00 00 00 00 00 00 00 00 00 00 00 00 00 ................
0040B5C0 00 00 00 00 00 00 00 00 00 00 00 00 00 00 00 00 ................
0040B5D0 00 00 00 00 00 00 00 00 00 00 00 00 00 00 00 00 ................
0040B5E0 00 00 00 00 00 00 00 00 00 00 00 00 00 00 00 00 ................
0040B5F0 00 00 00 00 00 00 00 00 00 00 00 00 00 00 00 00 ................
0040B600 00 00 00 00 00 00 00 00 00 00 00 00 00 00 00 00 ................
0040B610 00 00 00 00 00 00 00 00 00 00 00 00 00 00 00 00 ................
0040B620 00 00 00 00 00 00 00 00 00 00 00 00 00 00 00 00 ................
0040B630 00 00 00 00 00 00 00 00 00 00 00 00 00 00 00 00 ................
0040B640 00 00 00 00 00 00 00 00 00 00 00 00 00 00 00 00 ................
0040B650 00 00 00 00 00 00 00 00 00 00 00 00 00 00 00 00 ................
0040B660 00 00 00 00 00 00 00 00 00 00 00 00 00 00 00 00 ................
0040B670 00 00 00 00 00 00 00 00 00 00 00 00 00 00 00 00 ................
0040B680 00 00 00 00 00 00 00 00 00 00 00 00 00 00 00 00 ................
0040B690 00 00 00 00 00 00 00 00 00 00 00 00 00 00 00 00 ................
0040B6A0 00 00 00 00 00 00 00 00 00 00 00 00 00 00 00 00 ................
0040B6B0 00 00 00 00 00 00 00 00 00 00 00 00 00 00 00 00 ................
0040B6C0 00 00 00 00 00 00 00 00 00 00 00 00 00 00 00 00 ................
0040B6D0 00 00 00 00 00 00 00 00 00 00 00 00 00 00 00 00 ................
0040B6E0 00 00 00 00 00 00 00 00 00 00 00 00 00 00 00 00 ................
0040B6F0 00 00 00 00 00 00 00 00 00 00 00 00 00 00 00 00 ................
0040B700 00 00 00 00 00 00 00 00 00 00 00 00 00 00 00 00 ................
0040B710 00 00 00 00 00 00 00 00 00 00 00 00 00 00 00 00 ................
0040B720 00 00 00 00 00 00 00 00 00 00 00 00 00 00 00 00 ................
0040B730 00 00 00 00 00 00 00 00 00 00 00 00 00 00 00 00 ................
0040B740 00 00 00 00 00 00 00 00 00 00 00 00 00 00 00 00 ................
0040B750 00 00 00 00 00 00 00 00 00 00 00 00 00 00 00 00 ................
0040B760 00 00 00 00 00 00 00 00 00 00 00 00 00 00 00 00 ................
0040B770 00 00 00 00 00 00 00 00 00 00 00 00 00 00 00 00 ................
0040B780 00 00 00 00 00 00 00 00 00 00 00 00 00 00 00 00 ................
0040B790 00 00 00 00 00 00 00 00 00 00 00 00 00 00 00 00 ................
0040B7A0 00 00 00 00 00 00 00 00 00 00 00 00 00 00 00 00 ................
0040B7B0 00 00 00 00 00 00 00 00 00 00 00 00 00 00 00 00 ................
0040B7C0 00 00 00 00 00 00 00 00 00 00 00 00 00 00 00 00 ................
0040B7D0 00 00 00 00 00 00 00 00 00 00 00 00 00 00 00 00 ................
0040B7E0 00 00 00 00 00 00 00 00 00 00 00 00 00 00 00 00 ................
0040B7F0 00 00 00 00 00 00 00 00 00 00 00 00 00 00 00 00 ................
0040B800 00 00 00 00 00 00 00 00 00 00 00 00 00 00 00 00 ................
0040B810 00 00 00 00 00 00 00 00 00 00 00 00 00 00 00 00 ................
0040B820 00 00 00 00 00 00 00 00 00 00 00 00 00 00 00 00 ................
0040B830 00 00 00 00 00 00 00 00 00 00 00 00 00 00 00 00 ................
0040B840 00 00 00 00 00 00 00 00 00 00 00 00 00 00 00 00 ................
0040B850 00 00 00 00 00 00 00 00 00 00 00 00 00 00 00 00 ................
0040B860 00 00 00 00 00 00 00 00 00 00 00 00 00 00 00 00 ................
0040B870 00 00 00 00 00 00 00 00 00 00 00 00 00 00 00 00 ................
0040B880 00 00 00 00 00 00 00 00 00 00 00 00 00 00 00 00 ................
0040B890 00 00 00 00 00 00 00 00 00 00 00 00 00 00 00 00 ................
0040B8A0 00 00 00 00 00 00 00 00 00 00 00 00 00 00 00 00 ................
0040B8B0 00 00 00 00 00 00 00 00 00 00 00 00 00 00 00 00 ................
0040B8C0 00 00 00 00 00 00 00 00 00 00 00 00 00 00 00 00 ................
0040B8D0 00 00 00 00 00 00 00 00 00 00 00 00 00 00 00 00 ................
0040B8E0 00 00 00 00 00 00 00 00 00 00 00 00 00 00 00 00 ................
0040B8F0 00 00 00 00 00 00 00 00 00 00 00 00 00 00 00 00 ................
0040B900 00 00 00 00 00 00 00 00 00 00 00 00 00 00 00 00 ................
0040B910 00 00 00 00 00 00 00 00 00 00 00 00 00 00 00 00 ................
0040B920 00 00 00 00 00 00 00 00 00 00 00 00 00 00 00 00 ................
0040B930 00 00 00 00 00 00 00 00 00 00 00 00 00 00 00 00 ................
0040B940 00 00 00 00 00 00 00 00 00 00 00 00 00 00 00 00 ................
0040B950 00 00 00 00 00 00 00 00 00 00 00 00 00 00 00 00 ................
0040B960 00 00 00 00 00 00 00 00 00 00 00 00 00 00 00 00 ................
0040B970 00 00 00 00 00 00 00 00 00 00 00 00 00 00 00 00 ................
0040B980 00 00 00 00 00 00 00 00 00 00 00 00 00 00 00 00 ................
0040B990 00 00 00 00 00 00 00 00 00 00 00 00 00 00 00 00 ................
0040B9A0 00 00 00 00 00 00 00 00 00 00 00 00 00 00 00 00 ................
0040B9B0 00 00 00 00 00 00 00 00 00 00 00 00 00 00 00 00 ................
0040B9C0 00 00 00 00 00 00 00 00 00 00 00 00 00 00 00 00 ................
0040B9D0 00 00 00 00 00 00 00 00 00 00 00 00 00 00 00 00 ................
0040B9E0 00 00 00 00 00 00 00 00 00 00 00 00 00 00 00 00 ................
0040B9F0 00 00 00 00 00 00 00 00 00 00 00 00 00 00 00 00 ................
0040BA00 00 00 00 00 00 00 00 00 00 00 00 00 00 00 00 00 ................
0040BA10 00 00 00 00 00 00 00 00 00 00 00 00 00 00 00 00 ................
0040BA20 00 00 00 00 00 00 00 00 00 00 00 00 00 00 00 00 ................
0040BA30 00 00 00 00 00 00 00 00 00 00 00 00 00 00 00 00 ................
0040BA40 00 00 00 00 00 00 00 00 00 00 00 00 00 00 00 00 ................
0040BA50 00 00 00 00 00 00 00 00 00 00 00 00 00 00 00 00 ................
0040BA60 00 00 00 00 00 00 00 00 00 00 00 00 00 00 00 00 ................
0040BA70 00 00 00 00 00 00 00 00 00 00 00 00 00 00 00 00 ................
0040BA80 00 00 00 00 00 00 00 00 00 00 00 00 00 00 00 00 ................
0040BA90 00 00 00 00 00 00 00 00 00 00 00 00 00 00 00 00 ................
0040BAA0 00 00 00 00 00 00 00 00 00 00 00 00 00 00 00 00 ................
0040BAB0 00 00 00 00 00 00 00 00 00 00 00 00 00 00 00 00 ................
0040BAC0 00 00 00 00 00 00 00 00 00 00 00 00 00 00 00 00 ................
0040BAD0 00 00 00 00 00 00 00 00 00 00 00 00 00 00 00 00 ................
0040BAE0 00 00 00 00 00 00 00 00 00 00 00 00 00 00 00 00 ................
0040BAF0 00 00 00 00 00 00 00 00 00 00 00 00 00 00 00 00 ................
0040BB00 00 00 00 00 00 00 00 00 00 00 00 00 00 00 00 00 ................
0040BB10 00 00 00 00 00 00 00 00 00 00 00 00 00 00 00 00 ................
0040BB20 00 00 00 00 00 00 00 00 00 00 00 00 00 00 00 00 ................
0040BB30 00 00 00 00 00 00 00 00 00 00 00 00 00 00 00 00 ................
0040BB40 00 00 00 00 00 00 00 00 00 00 00 00 00 00 00 00 ................
0040BB50 00 00 00 00 00 00 00 00 00 00 00 00 00 00 00 00 ................
0040BB60 00 00 00 00 00 00 00 00 00 00 00 00 00 00 00 00 ................
0040BB70 00 00 00 00 00 00 00 00 00 00 00 00 00 00 00 00 ................
0040BB80 00 00 00 00 00 00 00 00 00 00 00 00 00 00 00 00 ................
0040BB90 00 00 00 00 00 00 00 00 00 00 00 00 00 00 00 00 ................
0040BBA0 00 00 00 00 00 00 00 00 00 00 00 00 00 00 00 00 ................
0040BBB0 00 00 00 00 00 00 00 00 00 00 00 00 00 00 00 00 ................
0040BBC0 00 00 00 00 00 00 00 00 00 00 00 00 00 00 00 00 ................
0040BBD0 00 00 00 00 00 00 00 00 00 00 00 00 00 00 00 00 ................
0040BBE0 00 00 00 00 00 00 00 00 00 00 00 00 00 00 00 00 ................
0040BBF0 00 00 00 00 00 00 00 00 00 00 00 00 00 00 00 00 ................
0040BC00 00 00 00 00 00 00 00 00 00 00 00 00 00 00 00 00 ................
0040BC10 00 00 00 00 00 00 00 00 00 00 00 00 00 00 00 00 ................
0040BC20 00 00 00 00 00 00 00 00 00 00 00 00 00 00 00 00 ................
0040BC30 00 00 00 00 00 00 00 00 00 00 00 00 00 00 00 00 ................
0040BC40 00 00 00 00 00 00 00 00 00 00 00 00 00 00 00 00 ................
0040BC50 00 00 00 00 00 00 00 00 00 00 00 00 00 00 00 00 ................
0040BC60 00 00 00 00 00 00 00 00 00 00 00 00 00 00 00 00 ................
0040BC70 00 00 00 00 00 00 00 00 00 00 00 00 00 00 00 00 ................
0040BC80 00 00 00 00 00 00 00 00 00 00 00 00 00 00 00 00 ................
0040BC90 00 00 00 00 00 00 00 00 00 00 00 00 00 00 00 00 ................
0040BCA0 00 00 00 00 00 00 00 00 00 00 00 00 00 00 00 00 ................
0040BCB0 00 00 00 00 00 00 00 00 00 00 00 00 00 00 00 00 ................
0040BCC0 00 00 00 00 00 00 00 00 00 00 00 00 00 00 00 00 ................
0040BCD0 00 00 00 00 00 00 00 00 00 00 00 00 00 00 00 00 ................
0040BCE0 00 00 00 00 00 00 00 00 00 00 00 00 00 00 00 00 ................
0040BCF0 00 00 00 00 00 00 00 00 00 00 00 00 00 00 00 00 ................
0040BD00 00 00 00 00 00 00 00 00 00 00 00 00 00 00 00 00 ................
0040BD10 00 00 00 00 00 00 00 00 00 00 00 00 00 00 00 00 ................
0040BD20 00 00 00 00 00 00 00 00 00 00 00 00 00 00 00 00 ................
0040BD30 00 00 00 00 00 00 00 00 00 00 00 00 00 00 00 00 ................
0040BD40 00 00 00 00 00 00 00 00 00 00 00 00 00 00 00 00 ................
0040BD50 00 00 00 00 00 00 00 00 00 00 00 00 00 00 00 00 ................
0040BD60 00 00 00 00 00 00 00 00 00 00 00 00 00 00 00 00 ................
0040BD70 00 00 00 00 00 00 00 00 00 00 00 00 00 00 00 00 ................
0040BD80 00 00 00 00 00 00 00 00 00 00 00 00 00 00 00 00 ................
0040BD90 00 00 00 00 00 00 00 00 00 00 00 00 00 00 00 00 ................
0040BDA0 00 00 00 00 00 00 00 00 00 00 00 00 00 00 00 00 ................
0040BDB0 00 00 00 00 00 00 00 00 00 00 00 00 00 00 00 00 ................
0040BDC0 00 00 00 00 00 00 00 00 00 00 00 00 00 00 00 00 ................
0040BDD0 00 00 00 00 00 00 00 00 00 00 00 00 00 00 00 00 ................
0040BDE0 00 00 00 00 00 00 00 00 00 00 00 00 00 00 00 00 ................
0040BDF0 00 00 00 00 00 00 00 00 00 00 00 00 00 00 00 00 ................
0040BE00 00 00 00 00 00 00 00 00 00 00 00 00 00 00 00 00 ................
0040BE10 00 00 00 00 00 00 00 00 00 00 00 00 00 00 00 00 ................
0040BE20 00 00 00 00 00 00 00 00 00 00 00 00 00 00 00 00 ................
0040BE30 00 00 00 00 00 00 00 00 00 00 00 00 00 00 00 00 ................
0040BE40 00 00 00 00 00 00 00 00 00 00 00 00 00 00 00 00 ................
0040BE50 00 00 00 00 00 00 00 00 00 00 00 00 00 00 00 00 ................
0040BE60 00 00 00 00 00 00 00 00 00 00 00 00 00 00 00 00 ................
0040BE70 00 00 00 00 00 00 00 00 00 00 00 00 00 00 00 00 ................
0040BE80 00 00 00 00 00 00 00 00 00 00 00 00 00 00 00 00 ................
0040BE90 00 00 00 00 00 00 00 00 00 00 00 00 00 00 00 00 ................
0040BEA0 00 00 00 00 00 00 00 00 00 00 00 00 00 00 00 00 ................
0040BEB0 00 00 00 00 00 00 00 00 00 00 00 00 00 00 00 00 ................
0040BEC0 00 00 00 00 00 00 00 00 00 00 00 00 00 00 00 00 ................
0040BED0 00 00 00 00 00 00 00 00 00 00 00 00 00 00 00 00 ................
0040BEE0 00 00 00 00 00 00 00 00 00 00 00 00 00 00 00 00 ................
0040BEF0 00 00 00 00 00 00 00 00 00 00 00 00 00 00 00 00 ................
0040BF00 00 00 00 00 00 00 00 00 00 00 00 00 00 00 00 00 ................
0040BF10 00 00 00 00 00 00 00 00 00 00 00 00 00 00 00 00 ................
0040BF20 00 00 00 00 00 00 00 00 00 00 00 00 00 00 00 00 ................
0040BF30 00 00 00 00 00 00 00 00 00 00 00 00 00 00 00 00 ................
0040BF40 00 00 00 00 00 00 00 00 00 00 00 00 00 00 00 00 ................
0040BF50 00 00 00 00 00 00 00 00 00 00 00 00 00 00 00 00 ................
0040BF60 00 00 00 00 00 00 00 00 00 00 00 00 00 00 00 00 ................
0040BF70 00 00 00 00 00 00 00 00 00 00 00 00 00 00 00 00 ................
0040BF80 00 00 00 00 00 00 00 00 00 00 00 00 00 00 00 00 ................
0040BF90 00 00 00 00 00 00 00 00 00 00 00 00 00 00 00 00 ................
0040BFA0 00 00 00 00 00 00 00 00 00 00 00 00 00 00 00 00 ................
0040BFB0 00 00 00 00 00 00 00 00 00 00 00 00 00 00 00 00 ................
0040BFC0 00 00 00 00 00 00 00 00 00 00 00 00 00 00 00 00 ................
0040BFD0 00 00 00 00 00 00 00 00 00 00 00 00 00 00 00 00 ................
0040BFE0 00 00 00 00 00 00 00 00 00 00 00 00 00 00 00 00 ................
0040BFF0 00 00 00 00 00 00 00 00 00 00 00 00 00 00 00 00 ................
0040C000 00 00 00 00 00 00 00 00 00 00 00 00 00 00 00 00 ................
0040C010 00 00 00 00 00 00 00 00 00 00 00 00 00 00 00 00 ................
0040C020 00 00 00 00 00 00 00 00 00 00 00 00 00 00 00 00 ................
0040C030 00 00 00 00 00 00 00 00 00 00 00 00 00 00 00 00 ................
0040C040 00 00 00 00 00 00 00 00 00 00 00 00 00 00 00 00 ................
0040C050 00 00 00 00 00 00 00 00 00 00 00 00 00 00 00 00 ................
0040C060 00 00 00 00 00 00 00 00 00 00 00 00 00 00 00 00 ................
0040C070 00 00 00 00 00 00 00 00 00 00 00 00 00 00 00 00 ................
0040C080 00 00 00 00 00 00 00 00 00 00 00 00 00 00 00 00 ................
0040C090 00 00 00 00 00 00 00 00 00 00 00 00 00 00 00 00 ................
0040C0A0 00 00 00 00 00 00 00 00 00 00 00 00 00 00 00 00 ................
0040C0B0 00 00 00 00 00 00 00 00 00 00 00 00 00 00 00 00 ................
0040C0C0 00 00 00 00 00 00 00 00 00 00 00 00 00 00 00 00 ................
0040C0D0 00 00 00 00 00 00 00 00 00 00 00 00 00 00 00 00 ................
0040C0E0 00 00 00 00 00 00 00 00 00 00 00 00 00 00 00 00 ................
0040C0F0 00 00 00 00 00 00 00 00 00 00 00 00 00 00 00 00 ................
0040C100 00 00 00 00 00 00 00 00 00 00 00 00 00 00 00 00 ................
0040C110 00 00 00 00 00 00 00 00 00 00 00 00 00 00 00 00 ................
0040C120 00 00 00 00 00 00 00 00 00 00 00 00 00 00 00 00 ................
0040C130 00 00 00 00 00 00 00 00 00 00 00 00 00 00 00 00 ................
0040C140 00 00 00 00 00 00 00 00 00 00 00 00 00 00 00 00 ................
0040C150 00 00 00 00 00 00 00 00 00 00 00 00 00 00 00 00 ................
0040C160 00 00 00 00 00 00 00 00 00 00 00 00 00 00 00 00 ................
0040C170 00 00 00 00 00 00 00 00 00 00 00 00 00 00 00 00 ................
0040C180 00 00 00 00 00 00 00 00 00 00 00 00 00 00 00 00 ................
0040C190 00 00 00 00 00 00 00 00 00 00 00 00 00 00 00 00 ................
0040C1A0 00 00 00 00 00 00 00 00 00 00 00 00 00 00 00 00 ................
0040C1B0 00 00 00 00 00 00 00 00 00 00 00 00 00 00 00 00 ................
0040C1C0 00 00 00 00 00 00 00 00 00 00 00 00 00 00 00 00 ................
0040C1D0 00 00 00 00 00 00 00 00 00 00 00 00 00 00 00 00 ................
0040C1E0 00 00 00 00 00 00 00 00 00 00 00 00 00 00 00 00 ................
0040C1F0 00 00 00 00 00 00 00 00 00 00 00 00 00 00 00 00 ................
0040C200 00 00 00 00 00 00 00 00 00 00 00 00 00 00 00 00 ................
0040C210 00 00 00 00 00 00 00 00 00 00 00 00 00 00 00 00 ................
0040C220 00 00 00 00 00 00 00 00 00 00 00 00 00 00 00 00 ................
0040C230 00 00 00 00 00 00 00 00 00 00 00 00 00 00 00 00 ................
0040C240 00 00 00 00 00 00 00 00 00 00 00 00 00 00 00 00 ................
0040C250 00 00 00 00 00 00 00 00 00 00 00 00 00 00 00 00 ................
0040C260 00 00 00 00 00 00 00 00 00 00 00 00 00 00 00 00 ................
0040C270 00 00 00 00 00 00 00 00 00 00 00 00 00 00 00 00 ................
0040C280 00 00 00 00 00 00 00 00 00 00 00 00 00 00 00 00 ................
0040C290 00 00 00 00 00 00 00 00 00 00 00 00 00 00 00 00 ................
0040C2A0 00 00 00 00 00 00 00 00 00 00 00 00 00 00 00 00 ................
0040C2B0 00 00 00 00 00 00 00 00 00 00 00 00 00 00 00 00 ................
0040C2C0 00 00 00 00 00 00 00 00 00 00 00 00 00 00 00 00 ................
0040C2D0 00 00 00 00 00 00 00 00 00 00 00 00 00 00 00 00 ................
0040C2E0 00 00 00 00 00 00 00 00 00 00 00 00 00 00 00 00 ................
0040C2F0 00 00 00 00 00 00 00 00 00 00 00 00 00 00 00 00 ................
0040C300 00 00 00 00 00 00 00 00 00 00 00 00 00 00 00 00 ................
0040C310 00 00 00 00 00 00 00 00 00 00 00 00 00 00 00 00 ................
0040C320 00 00 00 00 00 00 00 00 00 00 00 00 00 00 00 00 ................
0040C330 00 00 00 00 00 00 00 00 00 00 00 00 00 00 00 00 ................
0040C340 00 00 00 00 00 00 00 00 00 00 00 00 00 00 00 00 ................
0040C350 00 00 00 00 00 00 00 00 00 00 00 00 00 00 00 00 ................
0040C360 00 00 00 00 00 00 00 00 00 00 00 00 00 00 00 00 ................
0040C370 00 00 00 00 00 00 00 00 00 00 00 00 00 00 00 00 ................
0040C380 00 00 00 00 00 00 00 00 00 00 00 00 00 00 00 00 ................
0040C390 00 00 00 00 00 00 00 00 00 00 00 00 00 00 00 00 ................
0040C3A0 00 00 00 00 00 00 00 00 00 00 00 00 00 00 00 00 ................
0040C3B0 00 00 00 00 00 00 00 00 00 00 00 00 00 00 00 00 ................
0040C3C0 00 00 00 00 00 00 00 00 00 00 00 00 00 00 00 00 ................
0040C3D0 00 00 00 00 00 00 00 00 00 00 00 00 00 00 00 00 ................
0040C3E0 00 00 00 00 00 00 00 00 00 00 00 00 00 00 00 00 ................
0040C3F0 00 00 00 00 00 00 00 00 00 00 00 00 00 00 00 00 ................
0040C400 00 00 00 00 00 00 00 00 00 00 00 00 00 00 00 00 ................
0040C410 00 00 00 00 00 00 00 00 00 00 00 00 00 00 00 00 ................
0040C420 00 00 00 00 00 00 00 00 00 00 00 00 00 00 00 00 ................
0040C430 00 00 00 00 00 00 00 00 00 00 00 00 00 00 00 00 ................
0040C440 00 00 00 00 00 00 00 00 00 00 00 00 00 00 00 00 ................
0040C450 00 00 00 00 00 00 00 00 00 00 00 00 00 00 00 00 ................
0040C460 00 00 00 00 00 00 00 00 00 00 00 00 00 00 00 00 ................
0040C470 00 00 00 00 00 00 00 00 00 00 00 00 00 00 00 00 ................
0040C480 00 00 00 00 00 00 00 00 00 00 00 00 00 00 00 00 ................
0040C490 00 00 00 00 00 00 00 00 00 00 00 00 00 00 00 00 ................
0040C4A0 00 00 00 00 00 00 00 00 00 00 00 00 00 00 00 00 ................
0040C4B0 00 00 00 00 00 00 00 00 00 00 00 00 00 00 00 00 ................
0040C4C0 00 00 00 00 00 00 00 00 00 00 00 00 00 00 00 00 ................
0040C4D0 00 00 00 00 00 00 00 00 00 00 00 00 00 00 00 00 ................
0040C4E0 00 00 00 00 00 00 00 00 00 00 00 00 00 00 00 00 ................
0040C4F0 00 00 00 00 00 00 00 00 00 00 00 00 00 00 00 00 ................
0040C500 00 00 00 00 00 00 00 00 00 00 00 00 00 00 00 00 ................
0040C510 00 00 00 00 00 00 00 00 00 00 00 00 00 00 00 00 ................
0040C520 00 00 00 00 00 00 00 00 00 00 00 00 00 00 00 00 ................
0040C530 00 00 00 00 00 00 00 00 00 00 00 00 00 00 00 00 ................
0040C540 00 00 00 00 00 00 00 00 00 00 00 00 00 00 00 00 ................
0040C550 00 00 00 00 00 00 00 00 00 00 00 00 00 00 00 00 ................
0040C560 00 00 00 00 00 00 00 00 00 00 00 00 00 00 00 00 ................
0040C570 00 00 00 00 00 00 00 00 00 00 00 00 00 00 00 00 ................
0040C580 00 00 00 00 00 00 00 00 00 00 00 00 00 00 00 00 ................
0040C590 00 00 00 00 00 00 00 00 00 00 00 00 00 00 00 00 ................
0040C5A0 00 00 00 00 00 00 00 00 00 00 00 00 00 00 00 00 ................
0040C5B0 00 00 00 00 00 00 00 00 00 00 00 00 00 00 00 00 ................
0040C5C0 00 00 00 00 00 00 00 00 00 00 00 00 00 00 00 00 ................
0040C5D0 00 00 00 00 00 00 00 00 00 00 00 00 00 00 00 00 ................
0040C5E0 00 00 00 00 00 00 00 00 00 00 00 00 00 00 00 00 ................
0040C5F0 00 00 00 00 00 00 00 00 00 00 00 00 00 00 00 00 ................
0040C600 00 00 00 00 00 00 00 00 00 00 00 00 00 00 00 00 ................
0040C610 00 00 00 00 00 00 00 00 00 00 00 00 00 00 00 00 ................
0040C620 00 00 00 00 00 00 00 00 00 00 00 00 00 00 00 00 ................
0040C630 00 00 00 00 00 00 00 00 00 00 00 00 00 00 00 00 ................
0040C640 00 00 00 00 00 00 00 00 00 00 00 00 00 00 00 00 ................
0040C650 00 00 00 00 00 00 00 00 00 00 00 00 00 00 00 00 ................
0040C660 00 00 00 00 00 00 00 00 00 00 00 00 00 00 00 00 ................
0040C670 00 00 00 00 00 00 00 00 00 00 00 00 00 00 00 00 ................
0040C680 00 00 00 00 00 00 00 00 00 00 00 00 00 00 00 00 ................
0040C690 00 00 00 00 00 00 00 00 00 00 00 00 00 00 00 00 ................
0040C6A0 00 00 00 00 00 00 00 00 00 00 00 00 00 00 00 00 ................
0040C6B0 00 00 00 00 00 00 00 00 00 00 00 00 00 00 00 00 ................
0040C6C0 00 00 00 00 00 00 00 00 00 00 00 00 00 00 00 00 ................
0040C6D0 00 00 00 00 00 00 00 00 00 00 00 00 00 00 00 00 ................
0040C6E0 00 00 00 00 00 00 00 00 00 00 00 00 00 00 00 00 ................
0040C6F0 00 00 00 00 00 00 00 00 00 00 00 00 00 00 00 00 ................
0040C700 00 00 00 00 00 00 00 00 00 00 00 00 00 00 00 00 ................
0040C710 00 00 00 00 00 00 00 00 00 00 00 00 00 00 00 00 ................
0040C720 00 00 00 00 00 00 00 00 00 00 00 00 00 00 00 00 ................
0040C730 00 00 00 00 00 00 00 00 00 00 00 00 00 00 00 00 ................
0040C740 00 00 00 00 00 00 00 00 00 00 00 00 00 00 00 00 ................
0040C750 00 00 00 00 00 00 00 00 00 00 00 00 00 00 00 00 ................
0040C760 00 00 00 00 00 00 00 00 00 00 00 00 00 00 00 00 ................
0040C770 00 00 00 00 00 00 00 00 00 00 00 00 00 00 00 00 ................
0040C780 00 00 00 00 00 00 00 00 00 00 00 00 00 00 00 00 ................
0040C790 00 00 00 00 00 00 00 00 00 00 00 00 00 00 00 00 ................
0040C7A0 00 00 00 00 00 00 00 00 00 00 00 00 00 00 00 00 ................
0040C7B0 00 00 00 00 00 00 00 00 00 00 00 00 00 00 00 00 ................
0040C7C0 00 00 00 00 00 00 00 00 00 00 00 00 00 00 00 00 ................
0040C7D0 00 00 00 00 00 00 00 00 00 00 00 00 00 00 00 00 ................
0040C7E0 00 00 00 00 00 00 00 00 00 00 00 00 00 00 00 00 ................
0040C7F0 00 00 00 00 00 00 00 00 00 00 00 00 00 00 00 00 ................
0040C800 00 00 00 00 00 00 00 00 00 00 00 00 00 00 00 00 ................
0040C810 00 00 00 00 00 00 00 00 00 00 00 00 00 00 00 00 ................
0040C820 00 00 00 00 00 00 00 00 00 00 00 00 00 00 00 00 ................
0040C830 00 00 00 00 00 00 00 00 00 00 00 00 00 00 00 00 ................
0040C840 00 00 00 00 00 00 00 00 00 00 00 00 00 00 00 00 ................
0040C850 00 00 00 00 00 00 00 00 00 00 00 00 00 00 00 00 ................
0040C860 00 00 00 00 00 00 00 00 00 00 00 00 00 00 00 00 ................
0040C870 00 00 00 00 00 00 00 00 00 00 00 00 00 00 00 00 ................
0040C880 00 00 00 00 00 00 00 00 00 00 00 00 00 00 00 00 ................
0040C890 00 00 00 00 00 00 00 00 00 00 00 00 00 00 00 00 ................
0040C8A0 00 00 00 00 00 00 00 00 00 00 00 00 00 00 00 00 ................
0040C8B0 00 00 00 00 00 00 00 00 00 00 00 00 00 00 00 00 ................
0040C8C0 00 00 00 00 00 00 00 00 00 00 00 00 00 00 00 00 ................
0040C8D0 00 00 00 00 00 00 00 00 00 00 00 00 00 00 00 00 ................
0040C8E0 00 00 00 00 00 00 00 00 00 00 00 00 00 00 00 00 ................
0040C8F0 00 00 00 00 00 00 00 00 00 00 00 00 00 00 00 00 ................
0040C900 00 00 00 00 00 00 00 00 00 00 00 00 00 00 00 00 ................
0040C910 00 00 00 00 00 00 00 00 00 00 00 00 00 00 00 00 ................
0040C920 00 00 00 00 00 00 00 00 00 00 00 00 00 00 00 00 ................
0040C930 00 00 00 00 00 00 00 00 00 00 00 00 00 00 00 00 ................
0040C940 00 00 00 00 00 00 00 00 00 00 00 00 00 00 00 00 ................
0040C950 00 00 00 00 00 00 00 00 00 00 00 00 00 00 00 00 ................
0040C960 00 00 00 00 00 00 00 00 00 00 00 00 00 00 00 00 ................
0040C970 00 00 00 00 00 00 00 00 00 00 00 00 00 00 00 00 ................
0040C980 00 00 00 00 00 00 00 00 00 00 00 00 00 00 00 00 ................
0040C990 00 00 00 00 00 00 00 00 00 00 00 00 00 00 00 00 ................
0040C9A0 00 00 00 00 00 00 00 00 00 00 00 00 00 00 00 00 ................
0040C9B0 00 00 00 00 00 00 00 00 00 00 00 00 00 00 00 00 ................
0040C9C0 00 00 00 00 00 00 00 00 00 00 00 00 00 00 00 00 ................
0040C9D0 00 00 00 00 00 00 00 00 00 00 00 00 00 00 00 00 ................
0040C9E0 00 00 00 00 00 00 00 00 00 00 00 00 00 00 00 00 ................
0040C9F0 00 00 00 00 00 00 00 00 00 00 00 00 00 00 00 00 ................
0040CA00 00 00 00 00 00 00 00 00 00 00 00 00 00 00 00 00 ................
0040CA10 00 00 00 00 00 00 00 00 00 00 00 00 00 00 00 00 ................
0040CA20 00 00 00 00 00 00 00 00 00 00 00 00 00 00 00 00 ................
0040CA30 00 00 00 00 00 00 00 00 00 00 00 00 00 00 00 00 ................
0040CA40 00 00 00 00 00 00 00 00 00 00 00 00 00 00 00 00 ................
0040CA50 00 00 00 00 00 00 00 00 00 00 00 00 00 00 00 00 ................
0040CA60 00 00 00 00 00 00 00 00 00 00 00 00 00 00 00 00 ................
0040CA70 00 00 00 00 00 00 00 00 00 00 00 00 00 00 00 00 ................
0040CA80 00 00 00 00 00 00 00 00 00 00 00 00 00 00 00 00 ................
0040CA90 00 00 00 00 00 00 00 00 00 00 00 00 00 00 00 00 ................
0040CAA0 00 00 00 00 00 00 00 00 00 00 00 00 00 00 00 00 ................
0040CAB0 00 00 00 00 00 00 00 00 00 00 00 00 00 00 00 00 ................
0040CAC0 00 00 00 00 00 00 00 00 00 00 00 00 00 00 00 00 ................
0040CAD0 00 00 00 00 00 00 00 00 00 00 00 00 00 00 00 00 ................
0040CAE0 00 00 00 00 00 00 00 00 00 00 00 00 00 00 00 00 ................
0040CAF0 00 00 00 00 00 00 00 00 00 00 00 00 00 00 00 00 ................
0040CB00 00 00 00 00 00 00 00 00 00 00 00 00 00 00 00 00 ................
0040CB10 00 00 00 00 00 00 00 00 00 00 00 00 00 00 00 00 ................
0040CB20 00 00 00 00 00 00 00 00 00 00 00 00 00 00 00 00 ................
0040CB30 00 00 00 00 00 00 00 00 00 00 00 00 00 00 00 00 ................
0040CB40 00 00 00 00 00 00 00 00 00 00 00 00 00 00 00 00 ................
0040CB50 00 00 00 00 00 00 00 00 00 00 00 00 00 00 00 00 ................
0040CB60 00 00 00 00 00 00 00 00 00 00 00 00 00 00 00 00 ................
0040CB70 00 00 00 00 00 00 00 00 00 00 00 00 00 00 00 00 ................
0040CB80 00 00 00 00 00 00 00 00 00 00 00 00 00 00 00 00 ................
0040CB90 00 00 00 00 00 00 00 00 00 00 00 00 00 00 00 00 ................
0040CBA0 00 00 00 00 00 00 00 00 00 00 00 00 00 00 00 00 ................
0040CBB0 00 00 00 00 00 00 00 00 00 00 00 00 00 00 00 00 ................
0040CBC0 00 00 00 00 00 00 00 00 00 00 00 00 00 00 00 00 ................
0040CBD0 00 00 00 00 00 00 00 00 00 00 00 00 00 00 00 00 ................
0040CBE0 00 00 00 00 00 00 00 00 00 00 00 00 00 00 00 00 ................
0040CBF0 00 00 00 00 00 00 00 00 00 00 00 00 00 00 00 00 ................
0040CC00 00 00 00 00 00 00 00 00 00 00 00 00 00 00 00 00 ................
0040CC10 00 00 00 00 00 00 00 00 00 00 00 00 00 00 00 00 ................
0040CC20 00 00 00 00 00 00 00 00 00 00 00 00 00 00 00 00 ................
0040CC30 00 00 00 00 00 00 00 00 00 00 00 00 00 00 00 00 ................
0040CC40 00 00 00 00 00 00 00 00 00 00 00 00 00 00 00 00 ................
0040CC50 00 00 00 00 00 00 00 00 00 00 00 00 00 00 00 00 ................
0040CC60 00 00 00 00 00 00 00 00 00 00 00 00 00 00 00 00 ................
0040CC70 00 00 00 00 00 00 00 00 00 00 00 00 00 00 00 00 ................
0040CC80 00 00 00 00 00 00 00 00 00 00 00 00 00 00 00 00 ................
0040CC90 00 00 00 00 00 00 00 00 00 00 00 00 00 00 00 00 ................
0040CCA0 00 00 00 00 00 00 00 00 00 00 00 00 00 00 00 00 ................
0040CCB0 00 00 00 00 00 00 00 00 00 00 00 00 00 00 00 00 ................
0040CCC0 00 00 00 00 00 00 00 00 00 00 00 00 00 00 00 00 ................
0040CCD0 00 00 00 00 00 00 00 00 00 00 00 00 00 00 00 00 ................
0040CCE0 00 00 00 00 00 00 00 00 00 00 00 00 00 00 00 00 ................
0040CCF0 00 00 00 00 00 00 00 00 00 00 00 00 00 00 00 00 ................
0040CD00 00 00 00 00 00 00 00 00 00 00 00 00 00 00 00 00 ................
0040CD10 00 00 00 00 00 00 00 00 00 00 00 00 00 00 00 00 ................
0040CD20 00 00 00 00 00 00 00 00 00 00 00 00 00 00 00 00 ................
0040CD30 00 00 00 00 00 00 00 00 00 00 00 00 00 00 00 00 ................
0040CD40 00 00 00 00 00 00 00 00 00 00 00 00 00 00 00 00 ................
0040CD50 00 00 00 00 00 00 00 00 00 00 00 00 00 00 00 00 ................
0040CD60 00 00 00 00 00 00 00 00 00 00 00 00 00 00 00 00 ................
0040CD70 00 00 00 00 00 00 00 00 00 00 00 00 00 00 00 00 ................
0040CD80 00 00 00 00 00 00 00 00 00 00 00 00 00 00 00 00 ................
0040CD90 00 00 00 00 00 00 00 00 00 00 00 00 00 00 00 00 ................
0040CDA0 00 00 00 00 00 00 00 00 00 00 00 00 00 00 00 00 ................
0040CDB0 00 00 00 00 00 00 00 00 00 00 00 00 00 00 00 00 ................
0040CDC0 00 00 00 00 00 00 00 00 00 00 00 00 00 00 00 00 ................
0040CDD0 00 00 00 00 00 00 00 00 00 00 00 00 00 00 00 00 ................
0040CDE0 00 00 00 00 00 00 00 00 00 00 00 00 00 00 00 00 ................
0040CDF0 00 00 00 00 00 00 00 00 00 00 00 00 00 00 00 00 ................
0040CE00 00 00 00 00 00 00 00 00 00 00 00 00 00 00 00 00 ................
0040CE10 00 00 00 00 00 00 00 00 00 00 00 00 00 00 00 00 ................
0040CE20 00 00 00 00 00 00 00 00 00 00 00 00 00 00 00 00 ................
0040CE30 00 00 00 00 00 00 00 00 00 00 00 00 00 00 00 00 ................
0040CE40 00 00 00 00 00 00 00 00 00 00 00 00 00 00 00 00 ................
0040CE50 00 00 00 00 00 00 00 00 00 00 00 00 00 00 00 00 ................
0040CE60 00 00 00 00 00 00 00 00 00 00 00 00 00 00 00 00 ................
0040CE70 00 00 00 00 00 00 00 00 00 00 00 00 00 00 00 00 ................
0040CE80 00 00 00 00 00 00 00 00 00 00 00 00 00 00 00 00 ................
0040CE90 00 00 00 00 00 00 00 00 00 00 00 00 00 00 00 00 ................
0040CEA0 00 00 00 00 00 00 00 00 00 00 00 00 00 00 00 00 ................
0040CEB0 00 00 00 00 00 00 00 00 00 00 00 00 00 00 00 00 ................
0040CEC0 00 00 00 00 00 00 00 00 00 00 00 00 00 00 00 00 ................
0040CED0 00 00 00 00 00 00 00 00 00 00 00 00 00 00 00 00 ................
0040CEE0 00 00 00 00 00 00 00 00 00 00 00 00 00 00 00 00 ................
0040CEF0 00 00 00 00 00 00 00 00 00 00 00 00 00 00 00 00 ................
0040CF00 00 00 00 00 00 00 00 00 00 00 00 00 00 00 00 00 ................
0040CF10 00 00 00 00 00 00 00 00 00 00 00 00 00 00 00 00 ................
0040CF20 00 00 00 00 00 00 00 00 00 00 00 00 00 00 00 00 ................
0040CF30 00 00 00 00 00 00 00 00 00 00 00 00 00 00 00 00 ................
0040CF40 00 00 00 00 00 00 00 00 00 00 00 00 00 00 00 00 ................
0040CF50 00 00 00 00 00 00 00 00 00 00 00 00 00 00 00 00 ................
0040CF60 00 00 00 00 00 00 00 00 00 00 00 00 00 00 00 00 ................
0040CF70 00 00 00 00 00 00 00 00 00 00 00 00 00 00 00 00 ................
0040CF80 00 00 00 00 00 00 00 00 00 00 00 00 00 00 00 00 ................
0040CF90 00 00 00 00 00 00 00 00 00 00 00 00 00 00 00 00 ................
0040CFA0 00 00 00 00 00 00 00 00 00 00 00 00 00 00 00 00 ................
0040CFB0 00 00 00 00 00 00 00 00 00 00 00 00 00 00 00 00 ................
0040CFC0 00 00 00 00 00 00 00 00 00 00 00 00 00 00 00 00 ................
0040CFD0 00 00 00 00 00 00 00 00 00 00 00 00 00 00 00 00 ................
0040CFE0 00 00 00 00 00 00 00 00 00 00 00 00 00 00 00 00 ................
0040CFF0 00 00 00 00 00 00 00 00 00 00 00 00 00 00 00 00 ................
0040D000 00 00 00 00 00 00 00 00 00 00 00 00 00 00 00 00 ................
0040D010 00 00 00 00 00 00 00 00 00 00 00 00 00 00 00 00 ................
0040D020 00 00 00 00 00 00 00 00 00 00 00 00 00 00 00 00 ................
0040D030 00 00 00 00 00 00 00 00 00 00 00 00 00 00 00 00 ................
0040D040 00 00 00 00 00 00 00 00 00 00 00 00 00 00 00 00 ................
0040D050 00 00 00 00 00 00 00 00 00 00 00 00 00 00 00 00 ................
0040D060 00 00 00 00 00 00 00 00 00 00 00 00 00 00 00 00 ................
0040D070 00 00 00 00 00 00 00 00 00 00 00 00 00 00 00 00 ................
0040D080 00 00 00 00 00 00 00 00 00 00 00 00 00 00 00 00 ................
0040D090 00 00 00 00 00 00 00 00 00 00 00 00 00 00 00 00 ................
0040D0A0 00 00 00 00 00 00 00 00 00 00 00 00 00 00 00 00 ................
0040D0B0 00 00 00 00 00 00 00 00 00 00 00 00 00 00 00 00 ................
0040D0C0 00 00 00 00 00 00 00 00 00 00 00 00 00 00 00 00 ................
0040D0D0 00 00 00 00 00 00 00 00 00 00 00 00 00 00 00 00 ................
0040D0E0 00 00 00 00 00 00 00 00 00 00 00 00 00 00 00 00 ................
0040D0F0 00 00 00 00 00 00 00 00 00 00 00 00 00 00 00 00 ................
0040D100 00 00 00 00 00 00 00 00 00 00 00 00 00 00 00 00 ................
0040D110 00 00 00 00 00 00 00 00 00 00 00 00 00 00 00 00 ................
0040D120 00 00 00 00 00 00 00 00 00 00 00 00 00 00 00 00 ................
0040D130 00 00 00 00 00 00 00 00 00 00 00 00 00 00 00 00 ................
0040D140 00 00 00 00 00 00 00 00 00 00 00 00 00 00 00 00 ................
0040D150 00 00 00 00 00 00 00 00 00 00 00 00 00 00 00 00 ................
0040D160 00 00 00 00 00 00 00 00 00 00 00 00 00 00 00 00 ................
0040D170 00 00 00 00 00 00 00 00 00 00 00 00 00 00 00 00 ................
0040D180 00 00 00 00 00 00 00 00 00 00 00 00 00 00 00 00 ................
0040D190 00 00 00 00 00 00 00 00 00 00 00 00 00 00 00 00 ................
0040D1A0 00 00 00 00 00 00 00 00 00 00 00 00 00 00 00 00 ................
0040D1B0 00 00 00 00 00 00 00 00 00 00 00 00 00 00 00 00 ................
0040D1C0 00 00 00 00 00 00 00 00 00 00 00 00 00 00 00 00 ................
0040D1D0 00 00 00 00 00 00 00 00 00 00 00 00 00 00 00 00 ................
0040D1E0 00 00 00 00 00 00 00 00 00 00 00 00 00 00 00 00 ................
0040D1F0 00 00 00 00 00 00 00 00 00 00 00 00 00 00 00 00 ................
0040D200 00 00 00 00 00 00 00 00 00 00 00 00 00 00 00 00 ................
0040D210 00 00 00 00 00 00 00 00 00 00 00 00 00 00 00 00 ................
0040D220 00 00 00 00 00 00 00 00 00 00 00 00 00 00 00 00 ................
0040D230 00 00 00 00 00 00 00 00 00 00 00 00 00 00 00 00 ................
0040D240 00 00 00 00 00 00 00 00 00 00 00 00 00 00 00 00 ................
0040D250 00 00 00 00 00 00 00 00 00 00 00 00 00 00 00 00 ................
0040D260 00 00 00 00 00 00 00 00 00 00 00 00 00 00 00 00 ................
0040D270 00 00 00 00 00 00 00 00 00 00 00 00 00 00 00 00 ................
0040D280 00 00 00 00 00 00 00 00 00 00 00 00 00 00 00 00 ................
0040D290 00 00 00 00 00 00 00 00 00 00 00 00 00 00 00 00 ................
0040D2A0 00 00 00 00 00 00 00 00 00 00 00 00 00 00 00 00 ................
0040D2B0 00 00 00 00 00 00 00 00 00 00 00 00 00 00 00 00 ................
0040D2C0 00 00 00 00 00 00 00 00 00 00 00 00 00 00 00 00 ................
0040D2D0 00 00 00 00 00 00 00 00 00 00 00 00 00 00 00 00 ................
0040D2E0 00 00 00 00 00 00 00 00 00 00 00 00 00 00 00 00 ................
0040D2F0 00 00 00 00 00 00 00 00 00 00 00 00 00 00 00 00 ................
0040D300 00 00 00 00 00 00 00 00 00 00 00 00 00 00 00 00 ................
0040D310 00 00 00 00 00 00 00 00 00 00 00 00 00 00 00 00 ................
0040D320 00 00 00 00 00 00 00 00 00 00 00 00 00 00 00 00 ................
0040D330 00 00 00 00 00 00 00 00 00 00 00 00 00 00 00 00 ................
0040D340 00 00 00 00 00 00 00 00 00 00 00 00 00 00 00 00 ................
0040D350 00 00 00 00 00 00 00 00 00 00 00 00 00 00 00 00 ................
0040D360 00 00 00 00 00 00 00 00 00 00 00 00 00 00 00 00 ................
0040D370 00 00 00 00 00 00 00 00 00 00 00 00 00 00 00 00 ................
0040D380 00 00 00 00 00 00 00 00 00 00 00 00 00 00 00 00 ................
0040D390 00 00 00 00 00 00 00 00 00 00 00 00 00 00 00 00 ................
0040D3A0 00 00 00 00 00 00 00 00 00 00 00 00 00 00 00 00 ................
0040D3B0 00 00 00 00 00 00 00 00 00 00 00 00 00 00 00 00 ................
0040D3C0 00 00 00 00 00 00 00 00 00 00 00 00 00 00 00 00 ................
0040D3D0 00 00 00 00 00 00 00 00 00 00 00 00 00 00 00 00 ................
0040D3E0 00 00 00 00 00 00 00 00 00 00 00 00 00 00 00 00 ................
0040D3F0 00 00 00 00 00 00 00 00 00 00 00 00 00 00 00 00 ................
0040D400 00 00 00 00 00 00 00 00 00 00 00 00 00 00 00 00 ................
0040D410 00 00 00 00 00 00 00 00 00 00 00 00 00 00 00 00 ................
0040D420 00 00 00 00 00 00 00 00 00 00 00 00 00 00 00 00 ................
0040D430 00 00 00 00 00 00 00 00 00 00 00 00 00 00 00 00 ................
0040D440 00 00 00 00 00 00 00 00 00 00 00 00 00 00 00 00 ................
0040D450 00 00 00 00 00 00 00 00 00 00 00 00 00 00 00 00 ................
0040D460 00 00 00 00 00 00 00 00 00 00 00 00 00 00 00 00 ................
0040D470 00 00 00 00 00 00 00 00 00 00 00 00 00 00 00 00 ................
0040D480 00 00 00 00 00 00 00 00 00 00 00 00 00 00 00 00 ................
0040D490 00 00 00 00 00 00 00 00 00 00 00 00 00 00 00 00 ................
0040D4A0 00 00 00 00 00 00 00 00 00 00 00 00 00 00 00 00 ................
0040D4B0 00 00 00 00 00 00 00 00 00 00 00 00 00 00 00 00 ................
0040D4C0 00 00 00 00 00 00 00 00 00 00 00 00 00 00 00 00 ................
0040D4D0 00 00 00 00 00 00 00 00 00 00 00 00 00 00 00 00 ................
0040D4E0 00 00 00 00 00 00 00 00 00 00 00 00 00 00 00 00 ................
0040D4F0 00 00 00 00 00 00 00 00 00 00 00 00 00 00 00 00 ................
0040D500 00 00 00 00 00 00 00 00 00 00 00 00 00 00 00 00 ................
0040D510 00 00 00 00 00 00 00 00 00 00 00 00 00 00 00 00 ................
0040D520 00 00 00 00 00 00 00 00 00 00 00 00 00 00 00 00 ................
0040D530 00 00 00 00 00 00 00 00 00 00 00 00 00 00 00 00 ................
0040D540 00 00 00 00 00 00 00 00 00 00 00 00 00 00 00 00 ................
0040D550 00 00 00 00 00 00 00 00 00 00 00 00 00 00 00 00 ................
0040D560 00 00 00 00 00 00 00 00 00 00 00 00 00 00 00 00 ................
0040D570 00 00 00 00 00 00 00 00 00 00 00 00 00 00 00 00 ................
0040D580 00 00 00 00 00 00 00 00 00 00 00 00 00 00 00 00 ................
0040D590 00 00 00 00 00 00 00 00 00 00 00 00 00 00 00 00 ................
0040D5A0 00 00 00 00 00 00 00 00 00 00 00 00 00 00 00 00 ................
0040D5B0 00 00 00 00 00 00 00 00 00 00 00 00 00 00 00 00 ................
0040D5C0 00 00 00 00 00 00 00 00 00 00 00 00 00 00 00 00 ................
0040D5D0 00 00 00 00 00 00 00 00 00 00 00 00 00 00 00 00 ................
0040D5E0 00 00 00 00 00 00 00 00 00 00 00 00 00 00 00 00 ................
0040D5F0 00 00 00 00 00 00 00 00 00 00 00 00 00 00 00 00 ................
0040D600 00 00 00 00 00 00 00 00 00 00 00 00 00 00 00 00 ................
0040D610 00 00 00 00 00 00 00 00 00 00 00 00 00 00 00 00 ................
0040D620 00 00 00 00 00 00 00 00 00 00 00 00 00 00 00 00 ................
0040D630 00 00 00 00 00 00 00 00 00 00 00 00 00 00 00 00 ................
0040D640 00 00 00 00 00 00 00 00 00 00 00 00 00 00 00 00 ................
0040D650 00 00 00 00 00 00 00 00 00 00 00 00 00 00 00 00 ................
0040D660 00 00 00 00 00 00 00 00 00 00 00 00 00 00 00 00 ................
0040D670 00 00 00 00 00 00 00 00 00 00 00 00 00 00 00 00 ................
0040D680 00 00 00 00 00 00 00 00 00 00 00 00 00 00 00 00 ................
0040D690 00 00 00 00 00 00 00 00 00 00 00 00 00 00 00 00 ................
0040D6A0 00 00 00 00 00 00 00 00 00 00 00 00 00 00 00 00 ................
0040D6B0 00 00 00 00 00 00 00 00 00 00 00 00 00 00 00 00 ................
0040D6C0 00 00 00 00 00 00 00 00 00 00 00 00 00 00 00 00 ................
0040D6D0 00 00 00 00 00 00 00 00 00 00 00 00 00 00 00 00 ................
0040D6E0 00 00 00 00 00 00 00 00 00 00 00 00 00 00 00 00 ................
0040D6F0 00 00 00 00 00 00 00 00 00 00 00 00 00 00 00 00 ................
0040D700 00 00 00 00 00 00 00 00 00 00 00 00 00 00 00 00 ................
0040D710 00 00 00 00 00 00 00 00 00 00 00 00 00 00 00 00 ................
0040D720 00 00 00 00 00 00 00 00 00 00 00 00 00 00 00 00 ................
0040D730 00 00 00 00 00 00 00 00 00 00 00 00 00 00 00 00 ................
0040D740 00 00 00 00 00 00 00 00 00 00 00 00 00 00 00 00 ................
0040D750 00 00 00 00 00 00 00 00 00 00 00 00 00 00 00 00 ................
0040D760 00 00 00 00 00 00 00 00 00 00 00 00 00 00 00 00 ................
0040D770 00 00 00 00 00 00 00 00 00 00 00 00 00 00 00 00 ................
0040D780 00 00 00 00 00 00 00 00 00 00 00 00 00 00 00 00 ................
0040D790 00 00 00 00 00 00 00 00 00 00 00 00 00 00 00 00 ................
0040D7A0 00 00 00 00 00 00 00 00 00 00 00 00 00 00 00 00 ................
0040D7B0 00 00 00 00 00 00 00 00 00 00 00 00 00 00 00 00 ................
0040D7C0 00 00 00 00 00 00 00 00 00 00 00 00 00 00 00 00 ................
0040D7D0 00 00 00 00 00 00 00 00 00 00 00 00 00 00 00 00 ................
0040D7E0 00 00 00 00 00 00 00 00 00 00 00 00 00 00 00 00 ................
0040D7F0 00 00 00 00 00 00 00 00 00 00 00 00 00 00 00 00 ................
0040D800 00 00 00 00 00 00 00 00 00 00 00 00 00 00 00 00 ................
0040D810 00 00 00 00 00 00 00 00 00 00 00 00 00 00 00 00 ................
0040D820 00 00 00 00 00 00 00 00 00 00 00 00 00 00 00 00 ................
0040D830 00 00 00 00 00 00 00 00 00 00 00 00 00 00 00 00 ................
0040D840 00 00 00 00 00 00 00 00 00 00 00 00 00 00 00 00 ................
0040D850 00 00 00 00 00 00 00 00 00 00 00 00 00 00 00 00 ................
0040D860 00 00 00 00 00 00 00 00 00 00 00 00 00 00 00 00 ................
0040D870 00 00 00 00 00 00 00 00 00 00 00 00 00 00 00 00 ................
0040D880 00 00 00 00 00 00 00 00 00 00 00 00 00 00 00 00 ................
0040D890 00 00 00 00 00 00 00 00 00 00 00 00 00 00 00 00 ................
0040D8A0 00 00 00 00 00 00 00 00 00 00 00 00 00 00 00 00 ................
0040D8B0 00 00 00 00 00 00 00 00 00 00 00 00 00 00 00 00 ................
0040D8C0 00 00 00 00 00 00 00 00 00 00 00 00 00 00 00 00 ................
0040D8D0 00 00 00 00 00 00 00 00 00 00 00 00 00 00 00 00 ................
0040D8E0 00 00 00 00 00 00 00 00 00 00 00 00 00 00 00 00 ................
0040D8F0 00 00 00 00 00 00 00 00 00 00 00 00 00 00 00 00 ................
0040D900 00 00 00 00 00 00 00 00 00 00 00 00 00 00 00 00 ................
0040D910 00 00 00 00 00 00 00 00 00 00 00 00 00 00 00 00 ................
0040D920 00 00 00 00 00 00 00 00 00 00 00 00 00 00 00 00 ................
0040D930 00 00 00 00 00 00 00 00 00 00 00 00 00 00 00 00 ................
0040D940 00 00 00 00 00 00 00 00 00 00 00 00 00 00 00 00 ................
0040D950 00 00 00 00 00 00 00 00 00 00 00 00 00 00 00 00 ................
0040D960 00 00 00 00 00 00 00 00 00 00 00 00 00 00 00 00 ................
0040D970 00 00 00 00 00 00 00 00 00 00 00 00 00 00 00 00 ................
0040D980 00 00 00 00 00 00 00 00 00 00 00 00 00 00 00 00 ................
0040D990 00 00 00 00 00 00 00 00 00 00 00 00 00 00 00 00 ................
0040D9A0 00 00 00 00 00 00 00 00 00 00 00 00 00 00 00 00 ................
0040D9B0 00 00 00 00 00 00 00 00 00 00 00 00 00 00 00 00 ................
0040D9C0 00 00 00 00 00 00 00 00 00 00 00 00 00 00 00 00 ................
0040D9D0 00 00 00 00 00 00 00 00 00 00 00 00 00 00 00 00 ................
0040D9E0 00 00 00 00 00 00 00 00 00 00 00 00 00 00 00 00 ................
0040D9F0 00 00 00 00 00 00 00 00 00 00 00 00 00 00 00 00 ................
0040DA00 00 00 00 00 00 00 00 00 00 00 00 00 00 00 00 00 ................
0040DA10 00 00 00 00 00 00 00 00 00 00 00 00 00 00 00 00 ................
0040DA20 00 00 00 00 00 00 00 00 00 00 00 00 00 00 00 00 ................
0040DA30 00 00 00 00 00 00 00 00 00 00 00 00 00 00 00 00 ................
0040DA40 00 00 00 00 00 00 00 00 00 00 00 00 00 00 00 00 ................
0040DA50 00 00 00 00 00 00 00 00 00 00 00 00 00 00 00 00 ................
0040DA60 00 00 00 00 00 00 00 00 00 00 00 00 00 00 00 00 ................
0040DA70 00 00 00 00 00 00 00 00 00 00 00 00 00 00 00 00 ................
0040DA80 00 00 00 00 00 00 00 00 00 00 00 00 00 00 00 00 ................
0040DA90 00 00 00 00 00 00 00 00 00 00 00 00 00 00 00 00 ................
0040DAA0 00 00 00 00 00 00 00 00 00 00 00 00 00 00 00 00 ................
0040DAB0 00 00 00 00 00 00 00 00 00 00 00 00 00 00 00 00 ................
0040DAC0 00 00 00 00 00 00 00 00 00 00 00 00 00 00 00 00 ................
0040DAD0 00 00 00 00 00 00 00 00 00 00 00 00 00 00 00 00 ................
0040DAE0 00 00 00 00 00 00 00 00 00 00 00 00 00 00 00 00 ................
0040DAF0 00 00 00 00 00 00 00 00 00 00 00 00 00 00 00 00 ................
0040DB00 00 00 00 00 00 00 00 00 00 00 00 00 00 00 00 00 ................
0040DB10 00 00 00 00 00 00 00 00 00 00 00 00 00 00 00 00 ................
0040DB20 00 00 00 00 00 00 00 00 00 00 00 00 00 00 00 00 ................
0040DB30 00 00 00 00 00 00 00 00 00 00 00 00 00 00 00 00 ................
0040DB40 00 00 00 00 00 00 00 00 00 00 00 00 00 00 00 00 ................
0040DB50 00 00 00 00 00 00 00 00 00 00 00 00 00 00 00 00 ................
0040DB60 00 00 00 00 00 00 00 00 00 00 00 00 00 00 00 00 ................
0040DB70 00 00 00 00 00 00 00 00 00 00 00 00 00 00 00 00 ................
0040DB80 00 00 00 00 00 00 00 00 00 00 00 00 00 00 00 00 ................
0040DB90 00 00 00 00 00 00 00 00 00 00 00 00 00 00 00 00 ................
0040DBA0 00 00 00 00 00 00 00 00 00 00 00 00 00 00 00 00 ................
0040DBB0 00 00 00 00 00 00 00 00 00 00 00 00 00 00 00 00 ................
0040DBC0 00 00 00 00 00 00 00 00 00 00 00 00 00 00 00 00 ................
0040DBD0 00 00 00 00 00 00 00 00 00 00 00 00 00 00 00 00 ................
0040DBE0 00 00 00 00 00 00 00 00 00 00 00 00 00 00 00 00 ................
0040DBF0 00 00 00 00 00 00 00 00 00 00 00 00 00 00 00 00 ................
0040DC00 00 00 00 00 00 00 00 00 00 00 00 00 00 00 00 00 ................
0040DC10 00 00 00 00 00 00 00 00 00 00 00 00 00 00 00 00 ................
0040DC20 00 00 00 00 00 00 00 00 00 00 00 00 00 00 00 00 ................
0040DC30 00 00 00 00 00 00 00 00 00 00 00 00 00 00 00 00 ................
0040DC40 00 00 00 00 00 00 00 00 00 00 00 00 00 00 00 00 ................
0040DC50 00 00 00 00 00 00 00 00 00 00 00 00 00 00 00 00 ................
0040DC60 00 00 00 00 00 00 00 00 00 00 00 00 00 00 00 00 ................
0040DC70 00 00 00 00 00 00 00 00 00 00 00 00 00 00 00 00 ................
0040DC80 00 00 00 00 00 00 00 00 00 00 00 00 00 00 00 00 ................
0040DC90 00 00 00 00 00 00 00 00 00 00 00 00 00 00 00 00 ................
0040DCA0 00 00 00 00 00 00 00 00 00 00 00 00 00 00 00 00 ................
0040DCB0 00 00 00 00 00 00 00 00 00 00 00 00 00 00 00 00 ................
0040DCC0 00 00 00 00 00 00 00 00 00 00 00 00 00 00 00 00 ................
0040DCD0 00 00 00 00 00 00 00 00 00 00 00 00 00 00 00 00 ................
0040DCE0 00 00 00 00 00 00 00 00 00 00 00 00 00 00 00 00 ................
0040DCF0 00 00 00 00 00 00 00 00 00 00 00 00 00 00 00 00 ................
0040DD00 00 00 00 00 00 00 00 00 00 00 00 00 00 00 00 00 ................
0040DD10 00 00 00 00 00 00 00 00 00 00 00 00 00 00 00 00 ................
0040DD20 00 00 00 00 00 00 00 00 00 00 00 00 00 00 00 00 ................
0040DD30 00 00 00 00 00 00 00 00 00 00 00 00 00 00 00 00 ................
0040DD40 00 00 00 00 00 00 00 00 00 00 00 00 00 00 00 00 ................
0040DD50 00 00 00 00 00 00 00 00 00 00 00 00 00 00 00 00 ................
0040DD60 00 00 00 00 00 00 00 00 00 00 00 00 00 00 00 00 ................
0040DD70 00 00 00 00 00 00 00 00 00 00 00 00 00 00 00 00 ................
0040DD80 00 00 00 00 00 00 00 00 00 00 00 00 00 00 00 00 ................
0040DD90 00 00 00 00 00 00 00 00 00 00 00 00 00 00 00 00 ................
0040DDA0 00 00 00 00 00 00 00 00 00 00 00 00 00 00 00 00 ................
0040DDB0 00 00 00 00 00 00 00 00 00 00 00 00 00 00 00 00 ................
0040DDC0 00 00 00 00 00 00 00 00 00 00 00 00 00 00 00 00 ................
0040DDD0 00 00 00 00 00 00 00 00 00 00 00 00 00 00 00 00 ................
0040DDE0 00 00 00 00 00 00 00 00 00 00 00 00 00 00 00 00 ................
0040DDF0 00 00 00 00 00 00 00 00 00 00 00 00 00 00 00 00 ................
0040DE00 00 00 00 00 00 00 00 00 00 00 00 00 00 00 00 00 ................
0040DE10 00 00 00 00 00 00 00 00 00 00 00 00 00 00 00 00 ................
0040DE20 00 00 00 00 00 00 00 00 00 00 00 00 00 00 00 00 ................
0040DE30 00 00 00 00 00 00 00 00 00 00 00 00 00 00 00 00 ................
0040DE40 00 00 00 00 00 00 00 00 00 00 00 00 00 00 00 00 ................
0040DE50 00 00 00 00 00 00 00 00 00 00 00 00 00 00 00 00 ................
0040DE60 00 00 00 00 00 00 00 00 00 00 00 00 00 00 00 00 ................
0040DE70 00 00 00 00 00 00 00 00 00 00 00 00 00 00 00 00 ................
0040DE80 00 00 00 00 00 00 00 00 00 00 00 00 00 00 00 00 ................
0040DE90 00 00 00 00 00 00 00 00 00 00 00 00 00 00 00 00 ................
0040DEA0 00 00 00 00 00 00 00 00 00 00 00 00 00 00 00 00 ................
0040DEB0 00 00 00 00 00 00 00 00 00 00 00 00 00 00 00 00 ................
0040DEC0 00 00 00 00 00 00 00 00 00 00 00 00 00 00 00 00 ................
0040DED0 00 00 00 00 00 00 00 00 00 00 00 00 00 00 00 00 ................
0040DEE0 00 00 00 00 00 00 00 00 00 00 00 00 00 00 00 00 ................
0040DEF0 00 00 00 00 00 00 00 00 00 00 00 00 00 00 00 00 ................
0040DF00 00 00 00 00 00 00 00 00 00 00 00 00 00 00 00 00 ................
0040DF10 00 00 00 00 00 00 00 00 00 00 00 00 00 00 00 00 ................
0040DF20 00 00 00 00 00 00 00 00 00 00 00 00 00 00 00 00 ................
0040DF30 00 00 00 00 00 00 00 00 00 00 00 00 00 00 00 00 ................
0040DF40 00 00 00 00 00 00 00 00 00 00 00 00 00 00 00 00 ................
0040DF50 00 00 00 00 00 00 00 00 00 00 00 00 00 00 00 00 ................
0040DF60 00 00 00 00 00 00 00 00 00 00 00 00 00 00 00 00 ................
0040DF70 00 00 00 00 00 00 00 00 00 00 00 00 00 00 00 00 ................
0040DF80 00 00 00 00 00 00 00 00 00 00 00 00 00 00 00 00 ................
0040DF90 00 00 00 00 00 00 00 00 00 00 00 00 00 00 00 00 ................
0040DFA0 00 00 00 00 00 00 00 00 00 00 00 00 00 00 00 00 ................
0040DFB0 00 00 00 00 00 00 00 00 00 00 00 00 00 00 00 00 ................
0040DFC0 00 00 00 00 00 00 00 00 00 00 00 00 00 00 00 00 ................
0040DFD0 00 00 00 00 00 00 00 00 00 00 00 00 00 00 00 00 ................
0040DFE0 00 00 00 00 00 00 00 00 00 00 00 00 00 00 00 00 ................
0040DFF0 00 00 00 00 00 00 00 00 00 00 00 00 00 00 00 00 ................
0040E000 00 00 00 00 00 00 00 00 00 00 00 00 00 00 00 00 ................
0040E010 00 00 00 00 00 00 00 00 00 00 00 00 00 00 00 00 ................
0040E020 00 00 00 00 00 00 00 00 00 00 00 00 00 00 00 00 ................
0040E030 00 00 00 00 00 00 00 00 00 00 00 00 00 00 00 00 ................
0040E040 00 00 00 00 00 00 00 00 00 00 00 00 00 00 00 00 ................
0040E050 00 00 00 00 00 00 00 00 00 00 00 00 00 00 00 00 ................
0040E060 00 00 00 00 00 00 00 00 00 00 00 00 00 00 00 00 ................
0040E070 00 00 00 00 00 00 00 00 00 00 00 00 00 00 00 00 ................
0040E080 00 00 00 00 00 00 00 00 00 00 00 00 00 00 00 00 ................
0040E090 00 00 00 00 00 00 00 00 00 00 00 00 00 00 00 00 ................
0040E0A0 00 00 00 00 00 00 00 00 00 00 00 00 00 00 00 00 ................
0040E0B0 00 00 00 00 00 00 00 00 00 00 00 00 00 00 00 00 ................
0040E0C0 00 00 00 00 00 00 00 00 00 00 00 00 00 00 00 00 ................
0040E0D0 00 00 00 00 00 00 00 00 00 00 00 00 00 00 00 00 ................
0040E0E0 00 00 00 00 00 00 00 00 00 00 00 00 00 00 00 00 ................
0040E0F0 00 00 00 00 00 00 00 00 00 00 00 00 00 00 00 00 ................
0040E100 00 00 00 00 00 00 00 00 00 00 00 00 00 00 00 00 ................
0040E110 00 00 00 00 00 00 00 00 00 00 00 00 00 00 00 00 ................
0040E120 00 00 00 00 00 00 00 00 00 00 00 00 00 00 00 00 ................
0040E130 00 00 00 00 00 00 00 00 00 00 00 00 00 00 00 00 ................
0040E140 00 00 00 00 00 00 00 00 00 00 00 00 00 00 00 00 ................
0040E150 00 00 00 00 00 00 00 00 00 00 00 00 00 00 00 00 ................
0040E160 00 00 00 00 00 00 00 00 00 00 00 00 00 00 00 00 ................
0040E170 00 00 00 00 00 00 00 00 00 00 00 00 00 00 00 00 ................
0040E180 00 00 00 00 00 00 00 00 00 00 00 00 00 00 00 00 ................
0040E190 00 00 00 00 00 00 00 00 00 00 00 00 00 00 00 00 ................
0040E1A0 00 00 00 00 00 00 00 00 00 00 00 00 00 00 00 00 ................
0040E1B0 00 00 00 00 00 00 00 00 00 00 00 00 00 00 00 00 ................
0040E1C0 00 00 00 00 00 00 00 00 00 00 00 00 00 00 00 00 ................
0040E1D0 00 00 00 00 00 00 00 00 00 00 00 00 00 00 00 00 ................
0040E1E0 00 00 00 00 00 00 00 00 00 00 00 00 00 00 00 00 ................
0040E1F0 00 00 00 00 00 00 00 00 00 00 00 00 00 00 00 00 ................
0040E200 00 00 00 00 00 00 00 00 00 00 00 00 00 00 00 00 ................
0040E210 00 00 00 00 00 00 00 00 00 00 00 00 00 00 00 00 ................
0040E220 00 00 00 00 00 00 00 00 00 00 00 00 00 00 00 00 ................
0040E230 00 00 00 00 00 00 00 00 00 00 00 00 00 00 00 00 ................
0040E240 00 00 00 00 00 00 00 00 00 00 00 00 00 00 00 00 ................
0040E250 00 00 00 00 00 00 00 00 00 00 00 00 00 00 00 00 ................
0040E260 00 00 00 00 00 00 00 00 00 00 00 00 00 00 00 00 ................
0040E270 00 00 00 00 00 00 00 00 00 00 00 00 00 00 00 00 ................
0040E280 00 00 00 00 00 00 00 00 00 00 00 00 00 00 00 00 ................
0040E290 00 00 00 00 00 00 00 00 00 00 00 00 00 00 00 00 ................
0040E2A0 00 00 00 00 00 00 00 00 00 00 00 00 00 00 00 00 ................
0040E2B0 00 00 00 00 00 00 00 00 00 00 00 00 00 00 00 00 ................
0040E2C0 00 00 00 00 00 00 00 00 00 00 00 00 00 00 00 00 ................
0040E2D0 00 00 00 00 00 00 00 00 00 00 00 00 00 00 00 00 ................
0040E2E0 00 00 00 00 00 00 00 00 00 00 00 00 00 00 00 00 ................
0040E2F0 00 00 00 00 00 00 00 00 00 00 00 00 00 00 00 00 ................
0040E300 00 00 00 00 00 00 00 00 00 00 00 00 00 00 00 00 ................
0040E310 00 00 00 00 00 00 00 00 00 00 00 00 00 00 00 00 ................
0040E320 00 00 00 00 00 00 00 00 00 00 00 00 00 00 00 00 ................
0040E330 00 00 00 00 00 00 00 00 00 00 00 00 00 00 00 00 ................
0040E340 00 00 00 00 00 00 00 00 00 00 00 00 00 00 00 00 ................
0040E350 00 00 00 00 00 00 00 00 00 00 00 00 00 00 00 00 ................
0040E360 00 00 00 00 00 00 00 00 00 00 00 00 00 00 00 00 ................
0040E370 00 00 00 00 00 00 00 00 00 00 00 00 00 00 00 00 ................
0040E380 00 00 00 00 00 00 00 00 00 00 00 00 00 00 00 00 ................
0040E390 00 00 00 00 00 00 00 00 00 00 00 00 00 00 00 00 ................
0040E3A0 00 00 00 00 00 00 00 00 00 00 00 00 00 00 00 00 ................
0040E3B0 00 00 00 00 00 00 00 00 00 00 00 00 00 00 00 00 ................
0040E3C0 00 00 00 00 00 00 00 00 00 00 00 00 00 00 00 00 ................
0040E3D0 00 00 00 00 00 00 00 00 00 00 00 00 00 00 00 00 ................
0040E3E0 00 00 00 00 00 00 00 00 00 00 00 00 00 00 00 00 ................
0040E3F0 00 00 00 00 00 00 00 00 00 00 00 00 00 00 00 00 ................
0040E400 00 00 00 00 00 00 00 00 00 00 00 00 00 00 00 00 ................
0040E410 00 00 00 00 00 00 00 00 00 00 00 00 00 00 00 00 ................
0040E420 00 00 00 00 00 00 00 00 00 00 00 00 00 00 00 00 ................
0040E430 00 00 00 00 00 00 00 00 00 00 00 00 00 00 00 00 ................
0040E440 00 00 00 00 00 00 00 00 00 00 00 00 00 00 00 00 ................
0040E450 00 00 00 00 00 00 00 00 00 00 00 00 00 00 00 00 ................
0040E460 00 00 00 00 00 00 00 00 00 00 00 00 00 00 00 00 ................
0040E470 00 00 00 00 00 00 00 00 00 00 00 00 00 00 00 00 ................
0040E480 00 00 00 00 00 00 00 00 00 00 00 00 00 00 00 00 ................
0040E490 00 00 00 00 00 00 00 00 00 00 00 00 00 00 00 00 ................
0040E4A0 00 00 00 00 00 00 00 00 00 00 00 00 00 00 00 00 ................
0040E4B0 00 00 00 00 00 00 00 00 00 00 00 00 00 00 00 00 ................
0040E4C0 00 00 00 00 00 00 00 00 00 00 00 00 00 00 00 00 ................
0040E4D0 00 00 00 00 00 00 00 00 00 00 00 00 00 00 00 00 ................
0040E4E0 00 00 00 00 00 00 00 00 00 00 00 00 00 00 00 00 ................
0040E4F0 00 00 00 00 00 00 00 00 00 00 00 00 00 00 00 00 ................
0040E500 00 00 00 00 00 00 00 00 00 00 00 00 00 00 00 00 ................
0040E510 00 00 00 00 00 00 00 00 00 00 00 00 00 00 00 00 ................
0040E520 00 00 00 00 00 00 00 00 00 00 00 00 00 00 00 00 ................
0040E530 00 00 00 00 00 00 00 00 00 00 00 00 00 00 00 00 ................
0040E540 00 00 00 00 00 00 00 00 00 00 00 00 00 00 00 00 ................
0040E550 00 00 00 00 00 00 00 00 00 00 00 00 00 00 00 00 ................
0040E560 00 00 00 00 00 00 00 00 00 00 00 00 00 00 00 00 ................
0040E570 00 00 00 00 00 00 00 00 00 00 00 00 00 00 00 00 ................
0040E580 00 00 00 00 00 00 00 00 00 00 00 00 00 00 00 00 ................
0040E590 00 00 00 00 00 00 00 00 00 00 00 00 00 00 00 00 ................
0040E5A0 00 00 00 00 00 00 00 00 00 00 00 00 00 00 00 00 ................
0040E5B0 00 00 00 00 00 00 00 00 00 00 00 00 00 00 00 00 ................
0040E5C0 00 00 00 00 00 00 00 00 00 00 00 00 00 00 00 00 ................
0040E5D0 00 00 00 00 00 00 00 00 00 00 00 00 00 00 00 00 ................
0040E5E0 00 00 00 00 00 00 00 00 00 00 00 00 00 00 00 00 ................
0040E5F0 00 00 00 00 00 00 00 00 00 00 00 00 00 00 00 00 ................
0040E600 00 00 00 00 00 00 00 00 00 00 00 00 00 00 00 00 ................
0040E610 00 00 00 00 00 00 00 00 00 00 00 00 00 00 00 00 ................
0040E620 00 00 00 00 00 00 00 00 00 00 00 00 00 00 00 00 ................
0040E630 00 00 00 00 00 00 00 00 00 00 00 00 00 00 00 00 ................
0040E640 00 00 00 00 00 00 00 00 00 00 00 00 00 00 00 00 ................
0040E650 00 00 00 00 00 00 00 00 00 00 00 00 00 00 00 00 ................
0040E660 00 00 00 00 00 00 00 00 00 00 00 00 00 00 00 00 ................
0040E670 00 00 00 00 00 00 00 00 00 00 00 00 00 00 00 00 ................
0040E680 00 00 00 00 00 00 00 00 00 00 00 00 00 00 00 00 ................
0040E690 00 00 00 00 00 00 00 00 00 00 00 00 00 00 00 00 ................
0040E6A0 00 00 00 00 00 00 00 00 00 00 00 00 00 00 00 00 ................
0040E6B0 00 00 00 00 00 00 00 00 00 00 00 00 00 00 00 00 ................
0040E6C0 00 00 00 00 00 00 00 00 00 00 00 00 00 00 00 00 ................
0040E6D0 00 00 00 00 00 00 00 00 00 00 00 00 00 00 00 00 ................
0040E6E0 00 00 00 00 00 00 00 00 00 00 00 00 00 00 00 00 ................
0040E6F0 00 00 00 00 00 00 00 00 00 00 00 00 00 00 00 00 ................
0040E700 00 00 00 00 00 00 00 00 00 00 00 00 00 00 00 00 ................
0040E710 00 00 00 00 00 00 00 00 00 00 00 00 00 00 00 00 ................
0040E720 00 00 00 00 00 00 00 00 00 00 00 00 00 00 00 00 ................
0040E730 00 00 00 00 00 00 00 00 00 00 00 00 00 00 00 00 ................
0040E740 00 00 00 00 00 00 00 00 00 00 00 00 00 00 00 00 ................
0040E750 00 00 00 00 00 00 00 00 00 00 00 00 00 00 00 00 ................
0040E760 00 00 00 00 00 00 00 00 00 00 00 00 00 00 00 00 ................
0040E770 00 00 00 00 00 00 00 00 00 00 00 00 00 00 00 00 ................
0040E780 00 00 00 00 00 00 00 00 00 00 00 00 00 00 00 00 ................
0040E790 00 00 00 00 00 00 00 00 00 00 00 00 00 00 00 00 ................
0040E7A0 00 00 00 00 00 00 00 00 00 00 00 00 00 00 00 00 ................
0040E7B0 00 00 00 00 00 00 00 00 00 00 00 00 00 00 00 00 ................
0040E7C0 00 00 00 00 00 00 00 00 00 00 00 00 00 00 00 00 ................
0040E7D0 00 00 00 00 00 00 00 00 00 00 00 00 00 00 00 00 ................
0040E7E0 00 00 00 00 00 00 00 00 00 00 00 00 00 00 00 00 ................
0040E7F0 00 00 00 00 00 00 00 00 00 00 00 00 00 00 00 00 ................
0040E800 00 00 00 00 00 00 00 00 00 00 00 00 00 00 00 00 ................
0040E810 00 00 00 00 00 00 00 00 00 00 00 00 00 00 00 00 ................
0040E820 00 00 00 00 00 00 00 00 00 00 00 00 00 00 00 00 ................
0040E830 00 00 00 00 00 00 00 00 00 00 00 00 00 00 00 00 ................
0040E840 00 00 00 00 00 00 00 00 00 00 00 00 00 00 00 00 ................
0040E850 00 00 00 00 00 00 00 00 00 00 00 00 00 00 00 00 ................
0040E860 00 00 00 00 00 00 00 00 00 00 00 00 00 00 00 00 ................
0040E870 00 00 00 00 00 00 00 00 00 00 00 00 00 00 00 00 ................
0040E880 00 00 00 00 00 00 00 00 00 00 00 00 00 00 00 00 ................
0040E890 00 00 00 00 00 00 00 00 00 00 00 00 00 00 00 00 ................
0040E8A0 00 00 00 00 00 00 00 00 00 00 00 00 00 00 00 00 ................
0040E8B0 00 00 00 00 00 00 00 00 00 00 00 00 00 00 00 00 ................
0040E8C0 00 00 00 00 00 00 00 00 00 00 00 00 00 00 00 00 ................
0040E8D0 00 00 00 00 00 00 00 00 00 00 00 00 00 00 00 00 ................
0040E8E0 00 00 00 00 00 00 00 00 00 00 00 00 00 00 00 00 ................
0040E8F0 00 00 00 00 00 00 00 00 00 00 00 00 00 00 00 00 ................
0040E900 00 00 00 00 00 00 00 00 00 00 00 00 00 00 00 00 ................
0040E910 00 00 00 00 00 00 00 00 00 00 00 00 00 00 00 00 ................
0040E920 00 00 00 00 00 00 00 00 00 00 00 00 00 00 00 00 ................
0040E930 00 00 00 00 00 00 00 00 00 00 00 00 00 00 00 00 ................
0040E940 00 00 00 00 00 00 00 00 00 00 00 00 00 00 00 00 ................
0040E950 00 00 00 00 00 00 00 00 00 00 00 00 00 00 00 00 ................
0040E960 00 00 00 00 00 00 00 00 00 00 00 00 00 00 00 00 ................
0040E970 00 00 00 00 00 00 00 00 00 00 00 00 00 00 00 00 ................
0040E980 00 00 00 00 00 00 00 00 00 00 00 00 00 00 00 00 ................
0040E990 00 00 00 00 00 00 00 00 00 00 00 00 00 00 00 00 ................
0040E9A0 00 00 00 00 00 00 00 00 00 00 00 00 00 00 00 00 ................
0040E9B0 00 00 00 00 00 00 00 00 00 00 00 00 00 00 00 00 ................
0040E9C0 00 00 00 00 00 00 00 00 00 00 00 00 00 00 00 00 ................
0040E9D0 00 00 00 00 00 00 00 00 00 00 00 00 00 00 00 00 ................
0040E9E0 00 00 00 00 00 00 00 00 00 00 00 00 00 00 00 00 ................
0040E9F0 00 00 00 00 00 00 00 00 00 00 00 00 00 00 00 00 ................
0040EA00 00 00 00 00 00 00 00 00 00 00 00 00 00 00 00 00 ................
0040EA10 00 00 00 00 00 00 00 00 00 00 00 00 00 00 00 00 ................
0040EA20 00 00 00 00 00 00 00 00 00 00 00 00 00 00 00 00 ................
0040EA30 00 00 00 00 00 00 00 00 00 00 00 00 00 00 00 00 ................
0040EA40 00 00 00 00 00 00 00 00 00 00 00 00 00 00 00 00 ................
0040EA50 00 00 00 00 00 00 00 00 00 00 00 00 00 00 00 00 ................
0040EA60 00 00 00 00 00 00 00 00 00 00 00 00 00 00 00 00 ................
0040EA70 00 00 00 00 00 00 00 00 00 00 00 00 00 00 00 00 ................
0040EA80 00 00 00 00 00 00 00 00 00 00 00 00 00 00 00 00 ................
0040EA90 00 00 00 00 00 00 00 00 00 00 00 00 00 00 00 00 ................
0040EAA0 00 00 00 00 00 00 00 00 00 00 00 00 00 00 00 00 ................
0040EAB0 00 00 00 00 00 00 00 00 00 00 00 00 00 00 00 00 ................
0040EAC0 00 00 00 00 00 00 00 00 00 00 00 00 00 00 00 00 ................
0040EAD0 00 00 00 00 00 00 00 00 00 00 00 00 00 00 00 00 ................
0040EAE0 00 00 00 00 00 00 00 00 00 00 00 00 00 00 00 00 ................
0040EAF0 00 00 00 00 00 00 00 00 00 00 00 00 00 00 00 00 ................
0040EB00 00 00 00 00 00 00 00 00 00 00 00 00 00 00 00 00 ................
0040EB10 00 00 00 00 00 00 00 00 00 00 00 00 00 00 00 00 ................
0040EB20 00 00 00 00 00 00 00 00 00 00 00 00 00 00 00 00 ................
0040EB30 00 00 00 00 00 00 00 00 00 00 00 00 00 00 00 00 ................
0040EB40 00 00 00 00 00 00 00 00 00 00 00 00 00 00 00 00 ................
0040EB50 00 00 00 00 00 00 00 00 00 00 00 00 00 00 00 00 ................
0040EB60 00 00 00 00 00 00 00 00 00 00 00 00 00 00 00 00 ................
0040EB70 00 00 00 00 00 00 00 00 00 00 00 00 00 00 00 00 ................
0040EB80 00 00 00 00 00 00 00 00 00 00 00 00 00 00 00 00 ................
0040EB90 00 00 00 00 00 00 00 00 00 00 00 00 00 00 00 00 ................
0040EBA0 00 00 00 00 00 00 00 00 00 00 00 00 00 00 00 00 ................
0040EBB0 00 00 00 00 00 00 00 00 00 00 00 00 00 00 00 00 ................
0040EBC0 00 00 00 00 00 00 00 00 00 00 00 00 00 00 00 00 ................
0040EBD0 00 00 00 00 00 00 00 00 00 00 00 00 00 00 00 00 ................
0040EBE0 00 00 00 00 00 00 00 00 00 00 00 00 00 00 00 00 ................
0040EBF0 00 00 00 00 00 00 00 00 00 00 00 00 00 00 00 00 ................
0040EC00 00 00 00 00 00 00 00 00 00 00 00 00 00 00 00 00 ................
0040EC10 00 00 00 00 00 00 00 00 00 00 00 00 00 00 00 00 ................
0040EC20 00 00 00 00 00 00 00 00 00 00 00 00 00 00 00 00 ................
0040EC30 00 00 00 00 00 00 00 00 00 00 00 00 00 00 00 00 ................
0040EC40 00 00 00 00 00 00 00 00 00 00 00 00 00 00 00 00 ................
0040EC50 00 00 00 00 00 00 00 00 00 00 00 00 00 00 00 00 ................
0040EC60 00 00 00 00 00 00 00 00 00 00 00 00 00 00 00 00 ................
0040EC70 00 00 00 00 00 00 00 00 00 00 00 00 00 00 00 00 ................
0040EC80 00 00 00 00 00 00 00 00 00 00 00 00 00 00 00 00 ................
0040EC90 00 00 00 00 00 00 00 00 00 00 00 00 00 00 00 00 ................
0040ECA0 00 00 00 00 00 00 00 00 00 00 00 00 00 00 00 00 ................
0040ECB0 00 00 00 00 00 00 00 00 00 00 00 00 00 00 00 00 ................
0040ECC0 00 00 00 00 00 00 00 00 00 00 00 00 00 00 00 00 ................
0040ECD0 00 00 00 00 00 00 00 00 00 00 00 00 00 00 00 00 ................
0040ECE0 00 00 00 00 00 00 00 00 00 00 00 00 00 00 00 00 ................
0040ECF0 00 00 00 00 00 00 00 00 00 00 00 00 00 00 00 00 ................
0040ED00 00 00 00 00 00 00 00 00 00 00 00 00 00 00 00 00 ................
0040ED10 00 00 00 00 00 00 00 00 00 00 00 00 00 00 00 00 ................
0040ED20 00 00 00 00 00 00 00 00 00 00 00 00 00 00 00 00 ................
0040ED30 00 00 00 00 00 00 00 00 00 00 00 00 00 00 00 00 ................
0040ED40 00 00 00 00 00 00 00 00 00 00 00 00 00 00 00 00 ................
0040ED50 00 00 00 00 00 00 00 00 00 00 00 00 00 00 00 00 ................
0040ED60 00 00 00 00 00 00 00 00 00 00 00 00 00 00 00 00 ................
0040ED70 00 00 00 00 00 00 00 00 00 00 00 00 00 00 00 00 ................
0040ED80 00 00 00 00 00 00 00 00 00 00 00 00 00 00 00 00 ................
0040ED90 00 00 00 00 00 00 00 00 00 00 00 00 00 00 00 00 ................
0040EDA0 00 00 00 00 00 00 00 00 00 00 00 00 00 00 00 00 ................
0040EDB0 00 00 00 00 00 00 00 00 00 00 00 00 00 00 00 00 ................
0040EDC0 00 00 00 00 00 00 00 00 00 00 00 00 00 00 00 00 ................
0040EDD0 00 00 00 00 00 00 00 00 00 00 00 00 00 00 00 00 ................
0040EDE0 00 00 00 00 00 00 00 00 00 00 00 00 00 00 00 00 ................
0040EDF0 00 00 00 00 00 00 00 00 00 00 00 00 00 00 00 00 ................
0040EE00 00 00 00 00 00 00 00 00 00 00 00 00 00 00 00 00 ................
0040EE10 00 00 00 00 00 00 00 00 00 00 00 00 00 00 00 00 ................
0040EE20 00 00 00 00 00 00 00 00 00 00 00 00 00 00 00 00 ................
0040EE30 00 00 00 00 00 00 00 00 00 00 00 00 00 00 00 00 ................
0040EE40 00 00 00 00 00 00 00 00 00 00 00 00 00 00 00 00 ................
0040EE50 00 00 00 00 00 00 00 00 00 00 00 00 00 00 00 00 ................
0040EE60 00 00 00 00 00 00 00 00 00 00 00 00 00 00 00 00 ................
0040EE70 00 00 00 00 00 00 00 00 00 00 00 00 00 00 00 00 ................
0040EE80 00 00 00 00 00 00 00 00 00 00 00 00 00 00 00 00 ................
0040EE90 00 00 00 00 00 00 00 00 00 00 00 00 00 00 00 00 ................
0040EEA0 00 00 00 00 00 00 00 00 00 00 00 00 00 00 00 00 ................
0040EEB0 00 00 00 00 00 00 00 00 00 00 00 00 00 00 00 00 ................
0040EEC0 00 00 00 00 00 00 00 00 00 00 00 00 00 00 00 00 ................
0040EED0 00 00 00 00 00 00 00 00 00 00 00 00 00 00 00 00 ................
0040EEE0 00 00 00 00 00 00 00 00 00 00 00 00 00 00 00 00 ................
0040EEF0 00 00 00 00 00 00 00 00 00 00 00 00 00 00 00 00 ................
0040EF00 00 00 00 00 00 00 00 00 00 00 00 00 00 00 00 00 ................
0040EF10 00 00 00 00 00 00 00 00 00 00 00 00 00 00 00 00 ................
0040EF20 00 00 00 00 00 00 00 00 00 00 00 00 00 00 00 00 ................
0040EF30 00 00 00 00 00 00 00 00 00 00 00 00 00 00 00 00 ................
0040EF40 00 00 00 00 00 00 00 00 00 00 00 00 00 00 00 00 ................
0040EF50 00 00 00 00 00 00 00 00 00 00 00 00 00 00 00 00 ................
0040EF60 00 00 00 00 00 00 00 00 00 00 00 00 00 00 00 00 ................
0040EF70 00 00 00 00 00 00 00 00 00 00 00 00 00 00 00 00 ................
0040EF80 00 00 00 00 00 00 00 00 00 00 00 00 00 00 00 00 ................
0040EF90 00 00 00 00 00 00 00 00 00 00 00 00 00 00 00 00 ................
0040EFA0 00 00 00 00 00 00 00 00 00 00 00 00 00 00 00 00 ................
0040EFB0 00 00 00 00 00 00 00 00 00 00 00 00 00 00 00 00 ................
0040EFC0 00 00 00 00 00 00 00 00 00 00 00 00 00 00 00 00 ................
0040EFD0 00 00 00 00 00 00 00 00 00 00 00 00 00 00 00 00 ................
0040EFE0 00 00 00 00 00 00 00 00 00 00 00 00 00 00 00 00 ................
0040EFF0 00 00 00 00 00 00 00 00 00 00 00 00 00 00 00 00 ................
0040F000 38 F3 00 00 46 F3 00 00 52 F3 00 00 6A F3 00 00 8...F...R...j...
0040F010 7C F3 00 00 8C F3 00 00 96 F3 00 00 A6 F3 00 00 |...............
0040F020 B2 F3 00 00 C8 F3 00 00 D8 F3 00 00 EA F3 00 00 ................
0040F030 F8 F3 00 00 10 F4 00 00 28 F4 00 00 44 F4 00 00 ........(...D...
0040F040 56 F4 00 00 6A F4 00 00 82 F4 00 00 92 F4 00 00 V...j...........
0040F050 A0 F4 00 00 B2 F4 00 00 C6 F4 00 00 DE F4 00 00 ................
0040F060 F6 F4 00 00 02 F5 00 00 1A F5 00 00 2C F5 00 00 ............,...
0040F070 3A F5 00 00 46 F5 00 00 5E F5 00 00 6A F5 00 00 :...F...^...j...
0040F080 76 F5 00 00 88 F5 00 00 94 F5 00 00 AA F5 00 00 v...............
0040F090 B6 F5 00 00 C4 F5 00 00 D2 F5 00 00 EA F5 00 00 ................
0040F0A0 FA F5 00 00 08 F6 00 00 20 F6 00 00 2C F6 00 00 ........ ...,...
0040F0B0 40 F6 00 00 50 F6 00 00 60 F6 00 00 68 F6 00 00 @...P...`...h...
0040F0C0 7A F6 00 00 90 F6 00 00 00 00 00 00 AE F6 00 00 z...............
0040F0D0 BE F6 00 00 D0 F6 00 00 E6 F6 00 00 FE F6 00 00 ................
0040F0E0 12 F7 00 00 1E F7 00 00 2A F7 00 00 3C F7 00 00 ........*...<...
0040F0F0 4C F7 00 00 5C F7 00 00 68 F7 00 00 7A F7 00 00 L...\...h...z...
0040F100 90 F7 00 00 9E F7 00 00 B2 F7 00 00 BE F7 00 00 ................
0040F110 CE F7 00 00 DC F7 00 00 EE F7 00 00 F6 F7 00 00 ................
0040F120 00 F8 00 00 0C F8 00 00 1E F8 00 00 2A F8 00 00 ............*...
0040F130 38 F8 00 00 4E F8 00 00 5E F8 00 00 70 F8 00 00 8...N...^...p...
0040F140 82 F8 00 00 92 F8 00 00 A4 F8 00 00 B6 F8 00 00 ................
0040F150 CA F8 00 00 D8 F8 00 00 E6 F8 00 00 F8 F8 00 00 ................
0040F160 08 F9 00 00 18 F9 00 00 24 F9 00 00 34 F9 00 00 ........$...4...
0040F170 42 F9 00 00 54 F9 00 00 00 00 00 00 00 00 00 00 B...T...........
0040F180 BC F1 00 00 00 00 00 00 00 00 00 00 A0 F6 00 00 ................
0040F190 00 F0 00 00 88 F2 00 00 00 00 00 00 00 00 00 00 ................
0040F1A0 60 F9 00 00 CC F0 00 00 00 00 00 00 00 00 00 00 `...............
0040F1B0 00 00 00 00 00 00 00 00 00 00 00 00 38 F3 00 00 ............8...
0040F1C0 46 F3 00 00 52 F3 00 00 6A F3 00 00 7C F3 00 00 F...R...j...|...
0040F1D0 8C F3 00 00 96 F3 00 00 A6 F3 00 00 B2 F3 00 00 ................
0040F1E0 C8 F3 00 00 D8 F3 00 00 EA F3 00 00 F8 F3 00 00 ................
0040F1F0 10 F4 00 00 28 F4 00 00 44 F4 00 00 56 F4 00 00 ....(...D...V...
0040F200 6A F4 00 00 82 F4 00 00 92 F4 00 00 A0 F4 00 00 j...............
0040F210 B2 F4 00 00 C6 F4 00 00 DE F4 00 00 F6 F4 00 00 ................
0040F220 02 F5 00 00 1A F5 00 00 2C F5 00 00 3A F5 00 00 ........,...:...
0040F230 46 F5 00 00 5E F5 00 00 6A F5 00 00 76 F5 00 00 F...^...j...v...
0040F240 88 F5 00 00 94 F5 00 00 AA F5 00 00 B6 F5 00 00 ................
0040F250 C4 F5 00 00 D2 F5 00 00 EA F5 00 00 FA F5 00 00 ................
0040F260 08 F6 00 00 20 F6 00 00 2C F6 00 00 40 F6 00 00 .... ...,...@...
0040F270 50 F6 00 00 60 F6 00 00 68 F6 00 00 7A F6 00 00 P...`...h...z...
0040F280 90 F6 00 00 00 00 00 00 AE F6 00 00 BE F6 00 00 ................
0040F290 D0 F6 00 00 E6 F6 00 00 FE F6 00 00 12 F7 00 00 ................
0040F2A0 1E F7 00 00 2A F7 00 00 3C F7 00 00 4C F7 00 00 ....*...<...L...
0040F2B0 5C F7 00 00 68 F7 00 00 7A F7 00 00 90 F7 00 00 \...h...z.......
0040F2C0 9E F7 00 00 B2 F7 00 00 BE F7 00 00 CE F7 00 00 ................
0040F2D0 DC F7 00 00 EE F7 00 00 F6 F7 00 00 00 F8 00 00 ................
0040F2E0 0C F8 00 00 1E F8 00 00 2A F8 00 00 38 F8 00 00 ........*...8...
0040F2F0 4E F8 00 00 5E F8 00 00 70 F8 00 00 82 F8 00 00 N...^...p.......
0040F300 92 F8 00 00 A4 F8 00 00 B6 F8 00 00 CA F8 00 00 ................
0040F310 D8 F8 00 00 E6 F8 00 00 F8 F8 00 00 08 F9 00 00 ................
0040F320 18 F9 00 00 24 F9 00 00 34 F9 00 00 42 F9 00 00 ....$...4...B...
0040F330 54 F9 00 00 00 00 00 00 05 00 43 72 65 61 74 65 T.........Create
0040F340 46 69 6C 65 57 00 06 00 48 65 61 70 41 6C 6C 6F FileW...HeapAllo
0040F350 63 00 09 00 4C 65 61 76 65 43 72 69 74 69 63 61 c...LeaveCritica
0040F360 6C 53 65 63 74 69 6F 6E 00 00 0C 00 47 65 74 50 lSection....GetP
0040F370 72 6F 63 65 73 73 48 65 61 70 00 00 11 00 47 65 rocessHeap....Ge
0040F380 74 54 69 63 6B 43 6F 75 6E 74 00 00 14 00 47 65 tTickCount....Ge
0040F390 74 41 43 50 00 00 16 00 56 69 72 74 75 61 6C 41 tACP....VirtualA
0040F3A0 6C 6C 6F 63 00 00 1C 00 57 72 69 74 65 46 69 6C lloc....WriteFil
0040F3B0 65 00 1D 00 47 65 74 43 75 72 72 65 6E 74 50 72 e...GetCurrentPr
0040F3C0 6F 63 65 73 73 49 64 00 22 00 47 65 74 56 65 72 ocessId.".GetVer
0040F3D0 73 69 6F 6E 45 78 41 00 23 00 53 65 74 46 69 6C sionExA.#.SetFil
0040F3E0 65 50 6F 69 6E 74 65 72 00 00 28 00 4C 6F 63 61 ePointer..(.Loca
0040F3F0 6C 41 6C 6C 6F 63 00 00 29 00 49 6E 74 65 72 6C lAlloc..).Interl
0040F400 6F 63 6B 65 64 49 6E 63 72 65 6D 65 6E 74 00 00 ockedIncrement..
0040F410 2C 00 44 65 6C 65 74 65 43 72 69 74 69 63 61 6C ,.DeleteCritical
0040F420 53 65 63 74 69 6F 6E 00 2D 00 55 6E 68 61 6E 64 Section.-.Unhand
0040F430 6C 65 64 45 78 63 65 70 74 69 6F 6E 46 69 6C 74 ledExceptionFilt
0040F440 65 72 00 00 30 00 47 65 74 43 6F 6D 6D 61 6E 64 er..0.GetCommand
0040F450 4C 69 6E 65 41 00 35 00 47 65 74 43 75 72 72 65 LineA.5.GetCurre
0040F460 6E 74 50 72 6F 63 65 73 73 00 37 00 49 6E 74 65 ntProcess.7.Inte
0040F470 72 6C 6F 63 6B 65 64 49 6E 63 72 65 6D 65 6E 74 rlockedIncrement
0040F480 00 00 3D 00 56 69 72 74 75 61 6C 41 6C 6C 6F 63 ..=.VirtualAlloc
0040F490 00 00 43 00 48 65 61 70 52 65 41 6C 6C 6F 63 00 ..C.HeapReAlloc.
0040F4A0 45 00 47 65 74 50 72 6F 63 65 73 73 48 65 61 70 E.GetProcessHeap
0040F4B0 00 00 48 00 54 65 72 6D 69 6E 61 74 65 50 72 6F ..H.TerminatePro
0040F4C0 63 65 73 73 00 00 4B 00 45 6E 74 65 72 43 72 69 cess..K.EnterCri
0040F4D0 74 69 63 61 6C 53 65 63 74 69 6F 6E 00 00 51 00 ticalSection..Q.
0040F4E0 4C 65 61 76 65 43 72 69 74 69 63 61 6C 53 65 63 LeaveCriticalSec
0040F4F0 74 69 6F 6E 00 00 52 00 53 65 74 45 76 65 6E 74 tion..R.SetEvent
0040F500 00 00 56 00 49 6E 74 65 72 6C 6F 63 6B 65 64 49 ..V.InterlockedI
0040F510 6E 63 72 65 6D 65 6E 74 00 00 59 00 47 65 74 53 ncrement..Y.GetS
0040F520 74 61 72 74 75 70 49 6E 66 6F 57 00 5A 00 45 78 tartupInfoW.Z.Ex
0040F530 69 74 50 72 6F 63 65 73 73 00 5D 00 48 65 61 70 itProcess.].Heap
0040F540 41 6C 6C 6F 63 00 63 00 49 6E 74 65 72 6C 6F 63 Alloc.c.Interloc
0040F550 6B 65 64 44 65 63 72 65 6D 65 6E 74 00 00 64 00 kedDecrement..d.
0040F560 6C 73 74 72 6C 65 6E 57 00 00 68 00 4C 6F 63 61 lstrlenW..h.Loca
0040F570 6C 46 72 65 65 00 69 00 53 65 74 46 69 6C 65 50 lFree.i.SetFileP
0040F580 6F 69 6E 74 65 72 00 00 6C 00 6C 73 74 72 63 70 ointer..l.lstrcp
0040F590 79 57 00 00 6D 00 47 65 74 4D 6F 64 75 6C 65 46 yW..m.GetModuleF
0040F5A0 69 6C 65 4E 61 6D 65 41 00 00 70 00 6C 73 74 72 ileNameA..p.lstr
0040F5B0 63 6D 70 69 57 00 75 00 48 65 61 70 44 65 73 74 cmpiW.u.HeapDest
0040F5C0 72 6F 79 00 79 00 4C 6F 63 61 6C 41 6C 6C 6F 63 roy.y.LocalAlloc
0040F5D0 00 00 7B 00 45 6E 74 65 72 43 72 69 74 69 63 61 ..{.EnterCritica
0040F5E0 6C 53 65 63 74 69 6F 6E 00 00 7E 00 47 65 74 4C lSection..~.GetL
0040F5F0 61 73 74 45 72 72 6F 72 00 00 82 00 43 6C 6F 73 astError....Clos
0040F600 65 48 61 6E 64 6C 65 00 88 00 45 6E 74 65 72 43 eHandle...EnterC
0040F610 72 69 74 69 63 61 6C 53 65 63 74 69 6F 6E 00 00 riticalSection..
0040F620 89 00 53 65 74 45 76 65 6E 74 00 00 8A 00 47 65 ..SetEvent....Ge
0040F630 74 4D 6F 64 75 6C 65 48 61 6E 64 6C 65 57 00 00 tModuleHandleW..
0040F640 8F 00 53 65 74 4C 61 73 74 45 72 72 6F 72 00 00 ..SetLastError..
0040F650 93 00 43 72 65 61 74 65 54 68 72 65 61 64 00 00 ..CreateThread..
0040F660 98 00 53 6C 65 65 70 00 9A 00 47 65 74 53 74 61 ..Sleep...GetSta
0040F670 72 74 75 70 49 6E 66 6F 41 00 9B 00 47 65 74 43 rtupInfoA...GetC
0040F680 75 72 72 65 6E 74 50 72 6F 63 65 73 73 49 64 00 urrentProcessId.
0040F690 9E 00 4C 6F 61 64 4C 69 62 72 61 72 79 57 00 00 ..LoadLibraryW..
0040F6A0 4B 45 52 4E 45 4C 33 32 2E 44 4C 4C 00 00 2E 00 KERNEL32.DLL....
0040F6B0 47 65 74 53 79 73 74 65 6D 4D 65 6E 75 00 30 00 GetSystemMenu.0.
0040F6C0 52 65 6C 65 61 73 65 43 61 70 74 75 72 65 00 00 ReleaseCapture..
0040F6D0 33 00 53 65 6E 64 44 6C 67 49 74 65 6D 4D 65 73 3.SendDlgItemMes
0040F6E0 73 61 67 65 57 00 35 00 53 79 73 74 65 6D 50 61 sageW.5.SystemPa
0040F6F0 72 61 6D 65 74 65 72 73 49 6E 66 6F 57 00 3B 00 rametersInfoW.;.
0040F700 52 65 67 69 73 74 65 72 43 6C 61 73 73 45 78 57 RegisterClassExW
0040F710 00 00 40 00 50 74 49 6E 52 65 63 74 00 00 44 00 ..@.PtInRect..D.
0040F720 46 69 6C 6C 52 65 63 74 00 00 4A 00 45 6E 61 62 FillRect..J.Enab
0040F730 6C 65 4D 65 6E 75 49 74 65 6D 00 00 50 00 50 6F leMenuItem..P.Po
0040F740 73 74 4D 65 73 73 61 67 65 57 00 00 55 00 55 70 stMessageW..U.Up
0040F750 64 61 74 65 57 69 6E 64 6F 77 00 00 56 00 4B 69 dateWindow..V.Ki
0040F760 6C 6C 54 69 6D 65 72 00 58 00 53 65 74 57 69 6E llTimer.X.SetWin
0040F770 64 6F 77 4C 6F 6E 67 57 00 00 5E 00 43 72 65 61 dowLongW..^.Crea
0040F780 74 65 44 69 61 6C 6F 67 50 61 72 61 6D 57 00 00 teDialogParamW..
0040F790 61 00 4C 6F 61 64 53 74 72 69 6E 67 41 00 63 00 a.LoadStringA.c.
0040F7A0 44 69 73 70 61 74 63 68 4D 65 73 73 61 67 65 57 DispatchMessageW
0040F7B0 00 00 68 00 44 72 61 77 54 65 78 74 57 00 6D 00 ..h.DrawTextW.m.
0040F7C0 47 65 74 44 6C 67 43 74 72 6C 49 44 00 00 70 00 GetDlgCtrlID..p.
0040F7D0 53 68 6F 77 57 69 6E 64 6F 77 00 00 73 00 53 65 ShowWindow..s.Se
0040F7E0 74 44 6C 67 49 74 65 6D 54 65 78 74 57 00 77 00 tDlgItemTextW.w.
0040F7F0 47 65 74 44 43 00 7C 00 53 65 74 52 65 63 74 00 GetDC.|.SetRect.
0040F800 80 00 45 6E 64 44 69 61 6C 6F 67 00 84 00 47 65 ..EndDialog...Ge
0040F810 74 44 6C 67 49 74 65 6D 54 65 78 74 57 00 85 00 tDlgItemTextW...
0040F820 46 69 6C 6C 52 65 63 74 00 00 88 00 4C 6F 61 64 FillRect....Load
0040F830 53 74 72 69 6E 67 57 00 8C 00 43 72 65 61 74 65 StringW...Create
0040F840 44 69 61 6C 6F 67 50 61 72 61 6D 57 00 00 92 00 DialogParamW....
0040F850 53 65 6E 64 4D 65 73 73 61 67 65 57 00 00 96 00 SendMessageW....
0040F860 47 65 74 57 69 6E 64 6F 77 54 65 78 74 57 00 00 GetWindowTextW..
0040F870 9C 00 47 65 74 44 6C 67 49 74 65 6D 54 65 78 74 ..GetDlgItemText
0040F880 57 00 9D 00 45 6E 61 62 6C 65 57 69 6E 64 6F 77 W...EnableWindow
0040F890 00 00 A3 00 53 63 72 65 65 6E 54 6F 43 6C 69 65 ....ScreenToClie
0040F8A0 6E 74 00 00 A7 00 53 65 74 44 6C 67 49 74 65 6D nt....SetDlgItem
0040F8B0 54 65 78 74 57 00 A9 00 44 69 73 70 61 74 63 68 TextW...Dispatch
0040F8C0 4D 65 73 73 61 67 65 41 00 00 AD 00 47 65 74 53 MessageA....GetS
0040F8D0 75 62 4D 65 6E 75 00 00 B2 00 4D 65 73 73 61 67 ubMenu....Messag
0040F8E0 65 42 65 65 70 00 B4 00 52 65 6C 65 61 73 65 43 eBeep...ReleaseC
0040F8F0 61 70 74 75 72 65 00 00 B7 00 45 6E 61 62 6C 65 apture....Enable
0040F900 57 69 6E 64 6F 77 00 00 B9 00 55 70 64 61 74 65 Window....Update
0040F910 57 69 6E 64 6F 77 00 00 BF 00 47 65 74 57 69 6E Window....GetWin
0040F920 64 6F 77 00 C2 00 50 6F 73 74 4D 65 73 73 61 67 dow...PostMessag
0040F930 65 57 00 00 C8 00 46 69 6E 64 57 69 6E 64 6F 77 eW....FindWindow
0040F940 57 00 C9 00 50 6F 73 74 51 75 69 74 4D 65 73 73 W...PostQuitMess
0040F950 61 67 65 00 CA 00 49 73 49 63 6F 6E 69 63 00 00 age...IsIconic..
0040F960 55 53 45 52 33 32 2E 44 4C 4C 00 00 00 00 00 00 USER32.DLL......
0040F970 00 00 00 00 00 00 00 00 00 00 00 00 00 00 00 00 ................
0040F980 00 00 00 00 00 00 00 00 00 00 00 00 00 00 00 00 ................
0040F990 00 00 00 00 00 00 00 00 00 00 00 00 00 00 00 00 ................
0040F9A0 00 00 00 00 00 00 00 00 00 00 00 00 00 00 00 00 ................
0040F9B0 00 00 00 00 00 00 00 00 00 00 00 00 00 00 00 00 ................
0040F9C0 00 00 00 00 00 00 00 00 00 00 00 00 00 00 00 00 ................
0040F9D0 00 00 00 00 00 00 00 00 00 00 00 00 00 00 00 00 ................
0040F9E0 00 00 00 00 00 00 00 00 00 00 00 00 00 00 00 00 ................
0040F9F0 00 00 00 00 00 00 00 00 00 00 00 00 00 00 00 00 ................
0040FA00 00 00 00 00 00 00 00 00 00 00 00 00 00 00 00 00 ................
0040FA10 00 00 00 00 00 00 00 00 00 00 00 00 00 00 00 00 ................
0040FA20 00 00 00 00 00 00 00 00 00 00 00 00 00 00 00 00 ................
0040FA30 00 00 00 00 00 00 00 00 00 00 00 00 00 00 00 00 ................
0040FA40 00 00 00 00 00 00 00 00 00 00 00 00 00 00 00 00 ................
0040FA50 00 00 00 00 00 00 00 00 00 00 00 00 00 00 00 00 ................
0040FA60 00 00 00 00 00 00 00 00 00 00 00 00 00 00 00 00 ................
0040FA70 00 00 00 00 00 00 00 00 00 00 00 00 00 00 00 00 ................
0040FA80 00 00 00 00 00 00 00 00 00 00 00 00 00 00 00 00 ................
0040FA90 00 00 00 00 00 00 00 00 00 00 00 00 00 00 00 00 ................
0040FAA0 00 00 00 00 00 00 00 00 00 00 00 00 00 00 00 00 ................
0040FAB0 00 00 00 00 00 00 00 00 00 00 00 00 00 00 00 00 ................
0040FAC0 00 00 00 00 00 00 00 00 00 00 00 00 00 00 00 00 ................
0040FAD0 00 00 00 00 00 00 00 00 00 00 00 00 00 00 00 00 ................
0040FAE0 00 00 00 00 00 00 00 00 00 00 00 00 00 00 00 00 ................
0040FAF0 00 00 00 00 00 00 00 00 00 00 00 00 00 00 00 00 ................
0040FB00 00 00 00 00 00 00 00 00 00 00 00 00 00 00 00 00 ................
0040FB10 00 00 00 00 00 00 00 00 00 00 00 00 00 00 00 00 ................
0040FB20 00 00 00 00 00 00 00 00 00 00 00 00 00 00 00 00 ................
0040FB30 00 00 00 00 00 00 00 00 00 00 00 00 00 00 00 00 ................
0040FB40 00 00 00 00 00 00 00 00 00 00 00 00 00 00 00 00 ................
0040FB50 00 00 00 00 00 00 00 00 00 00 00 00 00 00 00 00 ................
0040FB60 00 00 00 00 00 00 00 00 00 00 00 00 00 00 00 00 ................
0040FB70 00 00 00 00 00 00 00 00 00 00 00 00 00 00 00 00 ................
0040FB80 00 00 00 00 00 00 00 00 00 00 00 00 00 00 00 00 ................
0040FB90 00 00 00 00 00 00 00 00 00 00 00 00 00 00 00 00 ................
0040FBA0 00 00 00 00 00 00 00 00 00 00 00 00 00 00 00 00 ................
0040FBB0 00 00 00 00 00 00 00 00 00 00 00 00 00 00 00 00 ................
0040FBC0 00 00 00 00 00 00 00 00 00 00 00 00 00 00 00 00 ................
0040FBD0 00 00 00 00 00 00 00 00 00 00 00 00 00 00 00 00 ................
0040FBE0 00 00 00 00 00 00 00 00 00 00 00 00 00 00 00 00 ................
0040FBF0 00 00 00 00 00 00 00 00 00 00 00 00 00 00 00 00 ................
0040FC00 00 00 00 00 00 00 00 00 00 00 00 00 00 00 00 00 ................
0040FC10 00 00 00 00 00 00 00 00 00 00 00 00 00 00 00 00 ................
0040FC20 00 00 00 00 00 00 00 00 00 00 00 00 00 00 00 00 ................
0040FC30 00 00 00 00 00 00 00 00 00 00 00 00 00 00 00 00 ................
0040FC40 00 00 00 00 00 00 00 00 00 00 00 00 00 00 00 00 ................
0040FC50 00 00 00 00 00 00 00 00 00 00 00 00 00 00 00 00 ................
0040FC60 00 00 00 00 00 00 00 00 00 00 00 00 00 00 00 00 ................
0040FC70 00 00 00 00 00 00 00 00 00 00 00 00 00 00 00 00 ................
0040FC80 00 00 00 00 00 00 00 00 00 00 00 00 00 00 00 00 ................
0040FC90 00 00 00 00 00 00 00 00 00 00 00 00 00 00 00 00 ................
0040FCA0 00 00 00 00 00 00 00 00 00 00 00 00 00 00 00 00 ................
0040FCB0 00 00 00 00 00 00 00 00 00 00 00 00 00 00 00 00 ................
0040FCC0 00 00 00 00 00 00 00 00 00 00 00 00 00 00 00 00 ................
0040FCD0 00 00 00 00 00 00 00 00 00 00 00 00 00 00 00 00 ................
0040FCE0 00 00 00 00 00 00 00 00 00 00 00 00 00 00 00 00 ................
0040FCF0 00 00 00 00 00 00 00 00 00 00 00 00 00 00 00 00 ................
0040FD00 00 00 00 00 00 00 00 00 00 00 00 00 00 00 00 00 ................
0040FD10 00 00 00 00 00 00 00 00 00 00 00 00 00 00 00 00 ................
0040FD20 00 00 00 00 00 00 00 00 00 00 00 00 00 00 00 00 ................
0040FD30 00 00 00 00 00 00 00 00 00 00 00 00 00 00 00 00 ................
0040FD40 00 00 00 00 00 00 00 00 00 00 00 00 00 00 00 00 ................
0040FD50 00 00 00 00 00 00 00 00 00 00 00 00 00 00 00 00 ................
0040FD60 00 00 00 00 00 00 00 00 00 00 00 00 00 00 00 00 ................
0040FD70 00 00 00 00 00 00 00 00 00 00 00 00 00 00 00 00 ................
0040FD80 00 00 00 00 00 00 00 00 00 00 00 00 00 00 00 00 ................
0040FD90 00 00 00 00 00 00 00 00 00 00 00 00 00 00 00 00 ................
0040FDA0 00 00 00 00 00 00 00 00 00 00 00 00 00 00 00 00 ................
0040FDB0 00 00 00 00 00 00 00 00 00 00 00 00 00 00 00 00 ................
0040FDC0 00 00 00 00 00 00 00 00 00 00 00 00 00 00 00 00 ................
0040FDD0 00 00 00 00 00 00 00 00 00 00 00 00 00 00 00 00 ................
0040FDE0 00 00 00 00 00 00 00 00 00 00 00 00 00 00 00 00 ................
0040FDF0 00 00 00 00 00 00 00 00 00 00 00 00 00 00 00 00 ................
0040FE00 00 00 00 00 00 00 00 00 00 00 00 00 00 00 00 00 ................
0040FE10 00 00 00 00 00 00 00 00 00 00 00 00 00 00 00 00 ................
0040FE20 00 00 00 00 00 00 00 00 00 00 00 00 00 00 00 00 ................
0040FE30 00 00 00 00 00 00 00 00 00 00 00 00 00 00 00 00 ................
0040FE40 00 00 00 00 00 00 00 00 00 00 00 00 00 00 00 00 ................
0040FE50 00 00 00 00 00 00 00 00 00 00 00 00 00 00 00 00 ................
0040FE60 00 00 00 00 00 00 00 00 00 00 00 00 00 00 00 00 ................
0040FE70 00 00 00 00 00 00 00 00 00 00 00 00 00 00 00 00 ................
0040FE80 00 00 00 00 00 00 00 00 00 00 00 00 00 00 00 00 ................
0040FE90 00 00 00 00 00 00 00 00 00 00 00 00 00 00 00 00 ................
0040FEA0 00 00 00 00 00 00 00 00 00 00 00 00 00 00 00 00 ................
0040FEB0 00 00 00 00 00 00 00 00 00 00 00 00 00 00 00 00 ................
0040FEC0 00 00 00 00 00 00 00 00 00 00 00 00 00 00 00 00 ................
0040FED0 00 00 00 00 00 00 00 00 00 00 00 00 00 00 00 00 ................
0040FEE0 00 00 00 00 00 00 00 00 00 00 00 00 00 00 00 00 ................
0040FEF0 00 00 00 00 00 00 00 00 00 00 00 00 00 00 00 00 ................
0040FF00 00 00 00 00 00 00 00 00 00 00 00 00 00 00 00 00 ................
0040FF10 00 00 00 00 00 00 00 00 00 00 00 00 00 00 00 00 ................
0040FF20 00 00 00 00 00 00 00 00 00 00 00 00 00 00 00 00 ................
0040FF30 00 00 00 00 00 00 00 00 00 00 00 00 00 00 00 00 ................
0040FF40 00 00 00 00 00 00 00 00 00 00 00 00 00 00 00 00 ................
0040FF50 00 00 00 00 00 00 00 00 00 00 00 00 00 00 00 00 ................
0040FF60 00 00 00 00 00 00 00 00 00 00 00 00 00 00 00 00 ................
0040FF70 00 00 00 00 00 00 00 00 00 00 00 00 00 00 00 00 ................
0040FF80 00 00 00 00 00 00 00 00 00 00 00 00 00 00 00 00 ................
0040FF90 00 00 00 00 00 00 00 00 00 00 00 00 00 00 00 00 ................
0040FFA0 00 00 00 00 00 00 00 00 00 00 00 00 00 00 00 00 ................
0040FFB0 00 00 00 00 00 00 00 00 00 00 00 00 00 00 00 00 ................
0040FFC0 00 00 00 00 00 00 00 00 00 00 00 00 00 00 00 00 ................
0040FFD0 00 00 00 00 00 00 00 00 00 00 00 00 00 00 00 00 ................
0040FFE0 00 00 00 00 00 00 00 00 00 00 00 00 00 00 00 00 ................
0040FFF0 00 00 00 00 00 00 00 00 00 00 00 00 00 00 00 00 ................
00410000 00 00 00 00 00 00 00 00 00 00 00 00 00 00 03 00 ................
00410010 03 00 00 00 28 00 00 80 0E 00 00 00 40 00 00 80 ....(.......@...
00410020 10 00 00 00 58 00 00 80 00 00 00 00 00 00 00 00 ....X...........
00410030 00 00 00 00 00 00 01 00 01 00 00 00 70 00 00 80 ............p...
00410040 00 00 00 00 00 00 00 00 00 00 00 00 00 00 01 00 ................
00410050 1E CD 00 00 88 00 00 80 00 00 00 00 00 00 00 00 ................
00410060 00 00 00 00 00 00 01 00 3E FE 00 00 A0 00 00 80 ........>.......
00410070 00 00 00 00 00 00 00 00 00 00 00 00 00 00 01 00 ................
00410080 19 04 00 00 B8 00 00 00 00 00 00 00 00 00 00 00 ................
00410090 00 00 00 00 00 00 01 00 19 04 00 00 C8 00 00 00 ................
004100A0 00 00 00 00 00 00 00 00 00 00 00 00 00 00 01 00 ................
004100B0 19 04 00 00 D8 00 00 00 E8 00 01 00 A8 08 00 00 ................
004100C0 00 00 00 00 00 00 00 00 90 09 01 00 14 00 00 00 ................
004100D0 00 00 00 00 00 00 00 00 A4 09 01 00 00 03 00 00 ................
004100E0 00 00 00 00 00 00 00 00 28 00 00 00 20 00 00 00 ........(... ...
004100F0 40 00 00 00 01 00 08 00 00 00 00 00 00 04 00 00 @...............
00410100 00 00 00 00 00 00 00 00 00 00 00 00 00 00 00 00 ................
00410110 00 00 00 00 00 00 80 00 00 80 00 00 00 80 80 00 ................
00410120 80 00 00 00 80 00 80 00 80 80 00 00 C0 C0 C0 00 ................
00410130 C0 DC C0 00 F0 CA A6 00 00 20 40 00 00 20 60 00 ......... @.. `.
00410140 00 20 80 00 00 20 A0 00 00 20 C0 00 00 20 E0 00 . ... ... ... ..
00410150 00 40 00 00 00 40 20 00 00 40 40 00 00 40 60 00 .@...@ ..@@..@`.
00410160 00 40 80 00 00 40 A0 00 00 40 C0 00 00 40 E0 00 .@...@...@...@..
00410170 00 60 00 00 00 60 20 00 00 60 40 00 00 60 60 00 .`...` ..`@..``.
00410180 00 60 80 00 00 60 A0 00 00 60 C0 00 00 60 E0 00 .`...`...`...`..
00410190 00 80 00 00 00 80 20 00 00 80 40 00 00 80 60 00 ...... ...@...`.
004101A0 00 80 80 00 00 80 A0 00 00 80 C0 00 00 80 E0 00 ................
004101B0 00 A0 00 00 00 A0 20 00 00 A0 40 00 00 A0 60 00 ...... ...@...`.
004101C0 00 A0 80 00 00 A0 A0 00 00 A0 C0 00 00 A0 E0 00 ................
004101D0 00 C0 00 00 00 C0 20 00 00 C0 40 00 00 C0 60 00 ...... ...@...`.
004101E0 00 C0 80 00 00 C0 A0 00 00 C0 C0 00 00 C0 E0 00 ................
004101F0 00 E0 00 00 00 E0 20 00 00 E0 40 00 00 E0 60 00 ...... ...@...`.
00410200 00 E0 80 00 00 E0 A0 00 00 E0 C0 00 00 E0 E0 00 ................
00410210 40 00 00 00 40 00 20 00 40 00 40 00 40 00 60 00 @...@. .@.@.@.`.
00410220 40 00 80 00 40 00 A0 00 40 00 C0 00 40 00 E0 00 @...@...@...@...
00410230 40 20 00 00 40 20 20 00 40 20 40 00 40 20 60 00 @ ..@  .@ @.@ `.
00410240 40 20 80 00 40 20 A0 00 40 20 C0 00 40 20 E0 00 @ ..@ ..@ ..@ ..
00410250 40 40 00 00 40 40 20 00 40 40 40 00 40 40 60 00 @@..@@ .@@@.@@`.
00410260 40 40 80 00 40 40 A0 00 40 40 C0 00 40 40 E0 00 @@..@@..@@..@@..
00410270 40 60 00 00 40 60 20 00 40 60 40 00 40 60 60 00 @`..@` .@`@.@``.
00410280 40 60 80 00 40 60 A0 00 40 60 C0 00 40 60 E0 00 @`..@`..@`..@`..
00410290 40 80 00 00 40 80 20 00 40 80 40 00 40 80 60 00 @...@. .@.@.@.`.
004102A0 40 80 80 00 40 80 A0 00 40 80 C0 00 40 80 E0 00 @...@...@...@...
004102B0 40 A0 00 00 40 A0 20 00 40 A0 40 00 40 A0 60 00 @...@. .@.@.@.`.
004102C0 40 A0 80 00 40 A0 A0 00 40 A0 C0 00 40 A0 E0 00 @...@...@...@...
004102D0 40 C0 00 00 40 C0 20 00 40 C0 40 00 40 C0 60 00 @...@. .@.@.@.`.
004102E0 40 C0 80 00 40 C0 A0 00 40 C0 C0 00 40 C0 E0 00 @...@...@...@...
004102F0 40 E0 00 00 40 E0 20 00 40 E0 40 00 40 E0 60 00 @...@. .@.@.@.`.
00410300 40 E0 80 00 40 E0 A0 00 40 E0 C0 00 40 E0 E0 00 @...@...@...@...
00410310 80 00 00 00 80 00 20 00 80 00 40 00 80 00 60 00 ...... ...@...`.
00410320 80 00 80 00 80 00 A0 00 80 00 C0 00 80 00 E0 00 ................
00410330 80 20 00 00 80 20 20 00 80 20 40 00 80 20 60 00 . ...  .. @.. `.
00410340 80 20 80 00 80 20 A0 00 80 20 C0 00 80 20 E0 00 . ... ... ... ..
00410350 80 40 00 00 80 40 20 00 80 40 40 00 80 40 60 00 .@...@ ..@@..@`.
00410360 80 40 80 00 80 40 A0 00 80 40 C0 00 80 40 E0 00 .@...@...@...@..
00410370 80 60 00 00 80 60 20 00 80 60 40 00 80 60 60 00 .`...` ..`@..``.
00410380 80 60 80 00 80 60 A0 00 80 60 C0 00 80 60 E0 00 .`...`...`...`..
00410390 80 80 00 00 80 80 20 00 80 80 40 00 80 80 60 00 ...... ...@...`.
004103A0 80 80 80 00 80 80 A0 00 80 80 C0 00 80 80 E0 00 ................
004103B0 80 A0 00 00 80 A0 20 00 80 A0 40 00 80 A0 60 00 ...... ...@...`.
004103C0 80 A0 80 00 80 A0 A0 00 80 A0 C0 00 80 A0 E0 00 ................
004103D0 80 C0 00 00 80 C0 20 00 80 C0 40 00 80 C0 60 00 ...... ...@...`.
004103E0 80 C0 80 00 80 C0 A0 00 80 C0 C0 00 80 C0 E0 00 ................
004103F0 80 E0 00 00 80 E0 20 00 80 E0 40 00 80 E0 60 00 ...... ...@...`.
00410400 80 E0 80 00 80 E0 A0 00 80 E0 C0 00 80 E0 E0 00 ................
00410410 C0 00 00 00 C0 00 20 00 C0 00 40 00 C0 00 60 00 ...... ...@...`.
00410420 C0 00 80 00 C0 00 A0 00 C0 00 C0 00 C0 00 E0 00 ................
00410430 C0 20 00 00 C0 20 20 00 C0 20 40 00 C0 20 60 00 . ...  .. @.. `.
00410440 C0 20 80 00 C0 20 A0 00 C0 20 C0 00 C0 20 E0 00 . ... ... ... ..
00410450 C0 40 00 00 C0 40 20 00 C0 40 40 00 C0 40 60 00 .@...@ ..@@..@`.
00410460 C0 40 80 00 C0 40 A0 00 C0 40 C0 00 C0 40 E0 00 .@...@...@...@..
00410470 C0 60 00 00 C0 60 20 00 C0 60 40 00 C0 60 60 00 .`...` ..`@..``.
00410480 C0 60 80 00 C0 60 A0 00 C0 60 C0 00 C0 60 E0 00 .`...`...`...`..
00410490 C0 80 00 00 C0 80 20 00 C0 80 40 00 C0 80 60 00 ...... ...@...`.
004104A0 C0 80 80 00 C0 80 A0 00 C0 80 C0 00 C0 80 E0 00 ................
004104B0 C0 A0 00 00 C0 A0 20 00 C0 A0 40 00 C0 A0 60 00 ...... ...@...`.
004104C0 C0 A0 80 00 C0 A0 A0 00 C0 A0 C0 00 C0 A0 E0 00 ................
004104D0 C0 C0 00 00 C0 C0 20 00 C0 C0 40 00 C0 C0 60 00 ...... ...@...`.
004104E0 C0 C0 80 00 C0 C0 A0 00 F0 FB FF 00 A4 A0 A0 00 ................
004104F0 80 80 80 00 00 00 FF 00 00 FF 00 00 00 FF FF 00 ................
00410500 FF 00 00 00 FF 00 FF 00 FF FF 00 00 FF FF FF 00 ................
00410510 00 00 00 00 00 00 00 00 00 00 00 00 00 00 00 00 ................
00410520 00 00 00 00 00 00 00 00 00 00 00 00 00 00 00 00 ................
00410530 00 00 00 00 00 00 ED A3 9A 9A 92 92 92 92 92 92 ................
00410540 92 92 92 92 92 92 92 92 92 92 92 92 92 92 92 00 ................
00410550 00 00 00 00 00 00 ED F6 07 09 09 09 09 09 09 09 ................
00410560 09 09 EC 09 09 EC EC EC EC EB EB EB EB EB 92 00 ................
00410570 00 00 00 00 00 00 ED F6 F6 F6 F6 F6 F6 F6 F6 F6 ................
00410580 F6 F6 F6 F6 F6 F6 F6 F6 09 09 09 09 09 EB 92 00 ................
00410590 00 00 00 00 00 00 ED F6 F6 F6 F6 F6 F6 F6 F6 F6 ................
004105A0 F6 F6 F6 F6 F6 F6 F6 F6 F6 F6 09 09 09 EB 92 00 ................
004105B0 00 00 00 00 00 00 ED F6 F6 F5 F5 ED ED EC EC EC ................
004105C0 E3 E3 E3 E3 E3 E3 E3 E3 E3 E3 F6 F6 09 EB 92 00 ................
004105D0 00 00 00 00 00 00 ED FF FF F5 FF FF FF F6 EC F6 ................
004105E0 F6 EC FF E3 F6 F6 EC FF E3 F6 F6 F6 F6 EB 92 00 ................
004105F0 00 00 00 00 00 00 ED FF FF F5 FF FF FF FF ED FF ................
00410600 FF EC FF E3 F6 F6 EC FF E3 F6 F6 F6 F6 EC 92 00 ................
00410610 00 00 00 00 00 00 ED FF FF F5 F5 F5 F5 F5 F5 ED ................
00410620 FF EC FF E3 F6 F6 EC FF E3 F6 F6 F6 F6 EC 92 00 ................
00410630 00 00 00 00 00 00 ED FF FF 09 FF FF FF FF F5 FF ................
00410640 FF ED FF E3 EC EC EC FF E3 F6 F6 F6 F6 EC 92 00 ................
00410650 00 00 00 00 00 00 ED FF FF 09 FF FF FF FF F5 FF ................
00410660 FF F5 FF E3 FF FF EC FF E3 F6 F6 F6 F6 EC 92 00 ................
00410670 00 00 00 00 00 00 ED FF FF 09 09 09 09 09 F5 F5 ................
00410680 FF F5 F5 E3 FF FF EC FF E3 F6 F6 F6 F6 EC 92 00 ................
00410690 00 00 00 00 00 00 ED FF FF 09 FF FF FF FF 09 FF ................
004106A0 FF FF FF FF FF FF ED ED E3 F6 F6 F6 F6 09 92 00 ................
004106B0 00 00 00 00 00 00 ED 08 08 ED 07 07 07 ED ED 08 ................
004106C0 FF FF FF F5 FF FF FF FF FF FF F6 F6 F6 09 92 00 ................
004106D0 00 00 00 00 00 00 F7 F7 F5 07 07 08 08 F6 08 ED ................
004106E0 EC 09 F5 F5 F5 F5 F5 F5 ED FF FF F6 F6 EC 92 00 ................
004106F0 00 19 18 AC 08 08 FF FF FF F6 F6 F6 F6 F6 08 07 ................
00410700 F6 FF FF 09 FF FF FF FF F5 FF FF FF F6 09 92 00 ................
00410710 00 19 B5 08 FF FF FF FF F6 F6 B5 1A 1A F6 F6 07 ................
00410720 F6 FF FF 09 FF FF FF FF F5 FF FF FF FF 09 92 00 ................
00410730 00 19 07 AC FF 08 B4 B4 B4 AB 22 1A 6B F6 F6 ED ..........".k...
00410740 F5 09 09 09 09 09 09 F5 F5 FF FF FF FF 09 92 00 ................
00410750 00 19 08 62 FF FF 08 B4 B4 62 1A 6C AB B5 F6 07 ...b.....b.l....
00410760 08 FF FF 09 FF FF FF FF F5 FF FF FF FF 09 92 00 ................
00410770 00 19 08 19 F6 FF FF 08 6B 1A 22 08 FF F6 F6 07 ........k.".....
00410780 08 FF FF 09 FF FF FF FF 09 FF FF FF FF 09 92 00 ................
00410790 00 21 08 19 07 FF FF 08 22 22 6B B4 F5 F6 F6 07 .!......""k.....
004107A0 F5 09 09 09 09 09 09 09 09 FF FF FF FF 09 92 00 ................
004107B0 00 21 08 19 AC FF F6 22 1A B5 F6 B4 B4 B4 F6 08 .!....."........
004107C0 08 FF FF 09 FF FF FF FF 09 FF FF FF FF 09 92 00 ................
004107D0 00 21 08 AC B4 FF 63 62 6C FF FF FF FF FF FF 08 .!....cbl.......
004107E0 08 FF FF 09 FF FF FF FF 07 09 09 09 09 09 92 00 ................
004107F0 00 61 08 B4 B4 FF FF FF FF FF FF FF FF FF FF F6 .a..............
00410800 07 09 09 09 09 09 09 ED A3 A3 9B 9A 9A 9A 92 00 ................
00410810 00 61 08 B5 B4 08 08 08 08 08 08 F5 B5 08 6B FF .a............k.
00410820 FF FF FF FF FF FF FF ED 09 09 09 09 09 92 F6 00 ................
00410830 00 61 B5 F6 B5 B5 B5 B5 B5 B5 B5 B5 B5 F6 61 FF .a............a.
00410840 FF FF FF FF FF FF FF ED F6 F6 09 09 92 F6 F6 00 ................
00410850 00 61 61 08 F6 08 BD BD BD BD BD BD B5 F6 61 F6 .aa...........a.
00410860 09 09 09 FF FF FF FF F5 F6 F6 09 92 F6 F6 00 00 ................
00410870 00 00 61 61 B5 08 F6 F6 F6 F6 F6 F6 F6 F6 61 FF ..aa..........a.
00410880 FF FF FF FF FF FF FF F5 F6 F6 9A F6 F6 00 00 00 ................
00410890 00 00 00 61 61 61 61 61 61 61 61 61 61 61 61 FF ...aaaaaaaaaaaa.
004108A0 FF FF FF FF FF FF FF F5 F6 9B F6 F6 00 00 00 00 ................
004108B0 00 00 00 00 00 00 07 FF FF FF FF FF FF FF FF FF ................
004108C0 FF FF FF FF FF FF FF F5 A4 F6 F6 00 00 00 00 00 ................
004108D0 00 00 00 00 00 00 07 07 07 07 07 F5 F5 F5 F5 F5 ................
004108E0 F5 F5 F5 F5 F5 F5 F5 F5 F6 F6 00 00 00 00 00 00 ................
004108F0 00 00 00 00 00 00 00 00 00 00 00 00 00 00 00 00 ................
00410900 00 00 00 00 00 00 00 00 00 00 00 00 00 00 00 00 ................
00410910 FF FF FF FF FC 00 00 01 FC 00 00 01 FC 00 00 01 ................
00410920 FC 00 00 01 FC 00 00 01 FC 00 00 01 FC 00 00 01 ................
00410930 FC 00 00 01 FC 00 00 01 FC 00 00 01 FC 00 00 01 ................
00410940 FC 00 00 01 C0 00 00 01 C0 00 00 01 80 00 00 01 ................
00410950 80 00 00 01 80 00 00 01 80 00 00 01 80 00 00 01 ................
00410960 80 00 00 01 80 00 00 01 80 00 00 01 80 00 00 01 ................
00410970 80 00 00 01 80 00 00 01 80 00 00 03 C0 00 00 07 ................
00410980 E0 00 00 0F FC 00 00 1F FC 00 00 3F FF FF FF FF ...........?....
00410990 00 00 01 00 01 00 20 20 08 00 00 00 00 00 A8 08 ......  ........
004109A0 00 00 01 00 00 03 34 00 00 00 56 00 53 00 5F 00 ......4...V.S._.
004109B0 56 00 45 00 52 00 53 00 49 00 4F 00 4E 00 5F 00 V.E.R.S.I.O.N._.
004109C0 49 00 4E 00 46 00 4F 00 00 00 00 00 BD 04 EF FE I.N.F.O.........
004109D0 00 00 01 00 11 21 D6 39 11 21 D6 39 11 21 D6 39 .....!.9.!.9.!.9
004109E0 11 21 D6 39 11 21 00 00 00 00 00 00 04 00 04 00 .!.9.!..........
004109F0 01 00 00 00 00 00 00 00 00 00 00 00 00 00 00 00 ................
00410A00 60 02 00 00 00 00 53 00 74 00 72 00 69 00 6E 00 `.....S.t.r.i.n.
00410A10 67 00 46 00 69 00 6C 00 65 00 49 00 6E 00 66 00 g.F.i.l.e.I.n.f.
00410A20 6F 00 00 00 3C 02 00 00 00 00 30 00 38 00 30 00 o...<.....0.8.0.
00410A30 30 00 30 00 34 00 42 00 30 00 00 00 40 00 10 00 0.0.4.B.0...@...
00410A40 01 00 43 00 6F 00 6D 00 70 00 61 00 6E 00 79 00 ..C.o.m.p.a.n.y.
00410A50 4E 00 61 00 6D 00 65 00 00 00 00 00 64 00 45 00 N.a.m.e.....d.E.
00410A60 52 00 4E 00 78 00 69 00 6B 00 68 00 41 00 41 00 R.N.x.i.k.h.A.A.
00410A70 33 00 67 00 4B 00 64 00 49 00 00 00 4C 00 12 00 3.g.K.d.I...L...
00410A80 01 00 46 00 69 00 6C 00 65 00 44 00 65 00 73 00 ..F.i.l.e.D.e.s.
00410A90 63 00 72 00 69 00 70 00 74 00 69 00 6F 00 6E 00 c.r.i.p.t.i.o.n.
00410AA0 00 00 00 00 4E 00 46 00 62 00 46 00 57 00 33 00 ....N.F.b.F.W.3.
00410AB0 70 00 4F 00 57 00 38 00 33 00 48 00 78 00 73 00 p.O.W.8.3.H.x.s.
00410AC0 59 00 42 00 4D 00 00 00 3C 00 0E 00 01 00 46 00 Y.B.M...<.....F.
00410AD0 69 00 6C 00 65 00 56 00 65 00 72 00 73 00 69 00 i.l.e.V.e.r.s.i.
00410AE0 6F 00 6E 00 00 00 00 00 4A 00 6C 00 70 00 6C 00 o.n.....J.l.p.l.
00410AF0 66 00 61 00 71 00 45 00 70 00 59 00 4F 00 69 00 f.a.q.E.p.Y.O.i.
00410B00 6C 00 00 00 48 00 13 00 01 00 49 00 6E 00 74 00 l...H.....I.n.t.
00410B10 65 00 72 00 6E 00 61 00 6C 00 4E 00 61 00 6D 00 e.r.n.a.l.N.a.m.
00410B20 65 00 00 00 68 00 4D 00 36 00 35 00 6B 00 61 00 e...h.M.6.5.k.a.
00410B30 6C 00 6B 00 67 00 73 00 63 00 59 00 50 00 32 00 l.k.g.s.c.Y.P.2.
00410B40 6B 00 4C 00 49 00 58 00 00 00 00 00 40 00 0E 00 k.L.I.X.....@...
00410B50 01 00 4C 00 65 00 67 00 61 00 6C 00 43 00 6F 00 ..L.e.g.a.l.C.o.
00410B60 70 00 79 00 72 00 69 00 67 00 68 00 74 00 00 00 p.y.r.i.g.h.t...
00410B70 68 00 73 00 74 00 79 00 59 00 59 00 54 00 6A 00 h.s.t.y.Y.Y.T.j.
00410B80 38 00 57 00 6F 00 55 00 4F 00 00 00 4C 00 12 00 8.W.o.U.O...L...
00410B90 01 00 4F 00 72 00 69 00 67 00 69 00 6E 00 61 00 ..O.r.i.g.i.n.a.
00410BA0 6C 00 46 00 69 00 6C 00 65 00 6E 00 61 00 6D 00 l.F.i.l.e.n.a.m.
00410BB0 65 00 00 00 59 00 47 00 73 00 53 00 6E 00 70 00 e...Y.G.s.S.n.p.
00410BC0 48 00 77 00 50 00 36 00 70 00 36 00 55 00 35 00 H.w.P.6.p.6.U.5.
00410BD0 65 00 70 00 36 00 00 00 3C 00 0D 00 01 00 50 00 e.p.6...<.....P.
00410BE0 72 00 6F 00 64 00 75 00 63 00 74 00 4E 00 61 00 r.o.d.u.c.t.N.a.
00410BF0 6D 00 65 00 00 00 00 00 69 00 75 00 69 00 31 00 m.e.....i.u.i.1.
00410C00 64 00 4A 00 63 00 6B 00 4A 00 67 00 64 00 43 00 d.J.c.k.J.g.d.C.
00410C10 00 00 00 00 4C 00 13 00 01 00 50 00 72 00 6F 00 ....L.....P.r.o.
00410C20 64 00 75 00 63 00 74 00 56 00 65 00 72 00 73 00 d.u.c.t.V.e.r.s.
00410C30 69 00 6F 00 6E 00 00 00 62 00 47 00 34 00 42 00 i.o.n...b.G.4.B.
00410C40 41 00 61 00 6E 00 42 00 51 00 32 00 4C 00 50 00 A.a.n.B.Q.2.L.P.
00410C50 72 00 4D 00 49 00 37 00 65 00 73 00 00 00 00 00 r.M.I.7.e.s.....
00410C60 44 00 00 00 00 00 56 00 61 00 72 00 46 00 69 00 D.....V.a.r.F.i.
00410C70 6C 00 65 00 49 00 6E 00 66 00 6F 00 00 00 00 00 l.e.I.n.f.o.....
00410C80 24 00 04 00 00 00 54 00 72 00 61 00 6E 00 73 00 $.....T.r.a.n.s.
00410C90 6C 00 61 00 74 00 69 00 6F 00 6E 00 00 00 00 00 l.a.t.i.o.n.....
00410CA0 00 08 B0 04 00 00 00 00 00 00 00 00 00 00 00 00 ................
00410CB0 00 00 00 00 00 00 00 00 00 00 00 00 00 00 00 00 ................
00410CC0 00 00 00 00 00 00 00 00 00 00 00 00 00 00 00 00 ................
00410CD0 00 00 00 00 00 00 00 00 00 00 00 00 00 00 00 00 ................
00410CE0 00 00 00 00 00 00 00 00 00 00 00 00 00 00 00 00 ................
00410CF0 00 00 00 00 00 00 00 00 00 00 00 00 00 00 00 00 ................
00410D00 00 00 00 00 00 00 00 00 00 00 00 00 00 00 00 00 ................
00410D10 00 00 00 00 00 00 00 00 00 00 00 00 00 00 00 00 ................
00410D20 00 00 00 00 00 00 00 00 00 00 00 00 00 00 00 00 ................
00410D30 00 00 00 00 00 00 00 00 00 00 00 00 00 00 00 00 ................
00410D40 00 00 00 00 00 00 00 00 00 00 00 00 00 00 00 00 ................
00410D50 00 00 00 00 00 00 00 00 00 00 00 00 00 00 00 00 ................
00410D60 00 00 00 00 00 00 00 00 00 00 00 00 00 00 00 00 ................
00410D70 00 00 00 00 00 00 00 00 00 00 00 00 00 00 00 00 ................
00410D80 00 00 00 00 00 00 00 00 00 00 00 00 00 00 00 00 ................
00410D90 00 00 00 00 00 00 00 00 00 00 00 00 00 00 00 00 ................
00410DA0 00 00 00 00 00 00 00 00 00 00 00 00 00 00 00 00 ................
00410DB0 00 00 00 00 00 00 00 00 00 00 00 00 00 00 00 00 ................
00410DC0 00 00 00 00 00 00 00 00 00 00 00 00 00 00 00 00 ................
00410DD0 00 00 00 00 00 00 00 00 00 00 00 00 00 00 00 00 ................
00410DE0 00 00 00 00 00 00 00 00 00 00 00 00 00 00 00 00 ................
00410DF0 00 00 00 00 00 00 00 00 00 00 00 00 00 00 00 00 ................
00410E00 00 00 00 00 00 00 00 00 00 00 00 00 00 00 00 00 ................
00410E10 00 00 00 00 00 00 00 00 00 00 00 00 00 00 00 00 ................
00410E20 00 00 00 00 00 00 00 00 00 00 00 00 00 00 00 00 ................
00410E30 00 00 00 00 00 00 00 00 00 00 00 00 00 00 00 00 ................
00410E40 00 00 00 00 00 00 00 00 00 00 00 00 00 00 00 00 ................
00410E50 00 00 00 00 00 00 00 00 00 00 00 00 00 00 00 00 ................
00410E60 00 00 00 00 00 00 00 00 00 00 00 00 00 00 00 00 ................
00410E70 00 00 00 00 00 00 00 00 00 00 00 00 00 00 00 00 ................
00410E80 00 00 00 00 00 00 00 00 00 00 00 00 00 00 00 00 ................
00410E90 00 00 00 00 00 00 00 00 00 00 00 00 00 00 00 00 ................
00410EA0 00 00 00 00 00 00 00 00 00 00 00 00 00 00 00 00 ................
00410EB0 00 00 00 00 00 00 00 00 00 00 00 00 00 00 00 00 ................
00410EC0 00 00 00 00 00 00 00 00 00 00 00 00 00 00 00 00 ................
00410ED0 00 00 00 00 00 00 00 00 00 00 00 00 00 00 00 00 ................
00410EE0 00 00 00 00 00 00 00 00 00 00 00 00 00 00 00 00 ................
00410EF0 00 00 00 00 00 00 00 00 00 00 00 00 00 00 00 00 ................
00410F00 00 00 00 00 00 00 00 00 00 00 00 00 00 00 00 00 ................
00410F10 00 00 00 00 00 00 00 00 00 00 00 00 00 00 00 00 ................
00410F20 00 00 00 00 00 00 00 00 00 00 00 00 00 00 00 00 ................
00410F30 00 00 00 00 00 00 00 00 00 00 00 00 00 00 00 00 ................
00410F40 00 00 00 00 00 00 00 00 00 00 00 00 00 00 00 00 ................
00410F50 00 00 00 00 00 00 00 00 00 00 00 00 00 00 00 00 ................
00410F60 00 00 00 00 00 00 00 00 00 00 00 00 00 00 00 00 ................
00410F70 00 00 00 00 00 00 00 00 00 00 00 00 00 00 00 00 ................
00410F80 00 00 00 00 00 00 00 00 00 00 00 00 00 00 00 00 ................
00410F90 00 00 00 00 00 00 00 00 00 00 00 00 00 00 00 00 ................
00410FA0 00 00 00 00 00 00 00 00 00 00 00 00 00 00 00 00 ................
00410FB0 00 00 00 00 00 00 00 00 00 00 00 00 00 00 00 00 ................
00410FC0 00 00 00 00 00 00 00 00 00 00 00 00 00 00 00 00 ................
00410FD0 00 00 00 00 00 00 00 00 00 00 00 00 00 00 00 00 ................
00410FE0 00 00 00 00 00 00 00 00 00 00 00 00 00 00 00 00 ................
00410FF0 00 00 00 00 00 00 00 00 00 00 00 00 00 00 00 00 ................
00411000 
...end of image
