00400000 00 00 00 00 00 00 00 00 00 00 00 00 00 00 00 00 ................
00400010 00 00 00 00 00 00 00 00 00 00 00 00 00 00 00 00 ................
00400020 00 00 00 00 00 00 00 00 00 00 00 00 00 00 00 00 ................
00400030 00 00 00 00 00 00 00 00 00 00 00 00 00 00 00 00 ................
00400040 00 00 00 00 00 00 00 00 00 00 00 00 00 00 00 00 ................
00400050 00 00 00 00 00 00 00 00 00 00 00 00 00 00 00 00 ................
00400060 00 00 00 00 00 00 00 00 00 00 00 00 00 00 00 00 ................
00400070 00 00 00 00 00 00 00 00 00 00 00 00 00 00 00 00 ................
00400080 00 00 00 00 00 00 00 00 00 00 00 00 00 00 00 00 ................
00400090 00 00 00 00 00 00 00 00 00 00 00 00 00 00 00 00 ................
004000A0 00 00 00 00 00 00 00 00 00 00 00 00 00 00 00 00 ................
004000B0 00 00 00 00 00 00 00 00 00 00 00 00 00 00 00 00 ................
004000C0 00 00 00 00 00 00 00 00 00 00 00 00 00 00 00 00 ................
004000D0 00 00 00 00 00 00 00 00 00 00 00 00 00 00 00 00 ................
004000E0 00 00 00 00 00 00 00 00 00 00 00 00 00 00 00 00 ................
004000F0 00 00 00 00 00 00 00 00 00 00 00 00 00 00 00 00 ................
00400100 00 00 00 00 00 00 00 00 00 00 00 00 00 00 00 00 ................
00400110 00 00 00 00 00 00 00 00 00 00 00 00 00 00 00 00 ................
00400120 00 00 00 00 00 00 00 00 00 00 00 00 00 00 00 00 ................
00400130 00 00 00 00 00 00 00 00 00 00 00 00 00 00 00 00 ................
00400140 00 00 00 00 00 00 00 00 00 00 00 00 00 00 00 00 ................
00400150 00 00 00 00 00 00 00 00 00 00 00 00 00 00 00 00 ................
00400160 00 00 00 00 00 00 00 00 00 00 00 00 00 00 00 00 ................
00400170 00 00 00 00 00 00 00 00 00 00 00 00 00 00 00 00 ................
00400180 00 00 00 00 00 00 00 00 00 00 00 00 00 00 00 00 ................
00400190 00 00 00 00 00 00 00 00 00 00 00 00 00 00 00 00 ................
004001A0 00 00 00 00 00 00 00 00 00 00 00 00 00 00 00 00 ................
004001B0 00 00 00 00 00 00 00 00 00 00 00 00 00 00 00 00 ................
004001C0 00 00 00 00 00 00 00 00 00 00 00 00 00 00 00 00 ................
004001D0 00 00 00 00 00 00 00 00 00 00 00 00 00 00 00 00 ................
004001E0 00 00 00 00 00 00 00 00 00 00 00 00 00 00 00 00 ................
004001F0 00 00 00 00 00 00 00 00 00 00 00 00 00 00 00 00 ................
00400200 00 00 00 00 00 00 00 00 00 00 00 00 00 00 00 00 ................
00400210 00 00 00 00 00 00 00 00 00 00 00 00 00 00 00 00 ................
00400220 00 00 00 00 00 00 00 00 00 00 00 00 00 00 00 00 ................
00400230 00 00 00 00 00 00 00 00 00 00 00 00 00 00 00 00 ................
00400240 00 00 00 00 00 00 00 00 00 00 00 00 00 00 00 00 ................
00400250 00 00 00 00 00 00 00 00 00 00 00 00 00 00 00 00 ................
00400260 00 00 00 00 00 00 00 00 00 00 00 00 00 00 00 00 ................
00400270 00 00 00 00 00 00 00 00 00 00 00 00 00 00 00 00 ................
00400280 00 00 00 00 00 00 00 00 00 00 00 00 00 00 00 00 ................
00400290 00 00 00 00 00 00 00 00 00 00 00 00 00 00 00 00 ................
004002A0 00 00 00 00 00 00 00 00 00 00 00 00 00 00 00 00 ................
004002B0 00 00 00 00 00 00 00 00 00 00 00 00 00 00 00 00 ................
004002C0 00 00 00 00 00 00 00 00 00 00 00 00 00 00 00 00 ................
004002D0 00 00 00 00 00 00 00 00 00 00 00 00 00 00 00 00 ................
004002E0 00 00 00 00 00 00 00 00 00 00 00 00 00 00 00 00 ................
004002F0 00 00 00 00 00 00 00 00 00 00 00 00 00 00 00 00 ................
00400300 00 00 00 00 00 00 00 00 00 00 00 00 00 00 00 00 ................
00400310 00 00 00 00 00 00 00 00 00 00 00 00 00 00 00 00 ................
00400320 00 00 00 00 00 00 00 00 00 00 00 00 00 00 00 00 ................
00400330 00 00 00 00 00 00 00 00 00 00 00 00 00 00 00 00 ................
00400340 00 00 00 00 00 00 00 00 00 00 00 00 00 00 00 00 ................
00400350 00 00 00 00 00 00 00 00 00 00 00 00 00 00 00 00 ................
00400360 00 00 00 00 00 00 00 00 00 00 00 00 00 00 00 00 ................
00400370 00 00 00 00 00 00 00 00 00 00 00 00 00 00 00 00 ................
00400380 00 00 00 00 00 00 00 00 00 00 00 00 00 00 00 00 ................
00400390 00 00 00 00 00 00 00 00 00 00 00 00 00 00 00 00 ................
004003A0 00 00 00 00 00 00 00 00 00 00 00 00 00 00 00 00 ................
004003B0 00 00 00 00 00 00 00 00 00 00 00 00 00 00 00 00 ................
004003C0 00 00 00 00 00 00 00 00 00 00 00 00 00 00 00 00 ................
004003D0 00 00 00 00 00 00 00 00 00 00 00 00 00 00 00 00 ................
004003E0 00 00 00 00 00 00 00 00 00 00 00 00 00 00 00 00 ................
004003F0 00 00 00 00 00 00 00 00 00 00 00 00 00 00 00 00 ................
00400400 00 00 00 00 00 00 00 00 00 00 00 00 00 00 00 00 ................
00400410 00 00 00 00 00 00 00 00 00 00 00 00 00 00 00 00 ................
00400420 00 00 00 00 00 00 00 00 00 00 00 00 00 00 00 00 ................
00400430 00 00 00 00 00 00 00 00 00 00 00 00 00 00 00 00 ................
00400440 00 00 00 00 00 00 00 00 00 00 00 00 00 00 00 00 ................
00400450 00 00 00 00 00 00 00 00 00 00 00 00 00 00 00 00 ................
00400460 00 00 00 00 00 00 00 00 00 00 00 00 00 00 00 00 ................
00400470 00 00 00 00 00 00 00 00 00 00 00 00 00 00 00 00 ................
00400480 00 00 00 00 00 00 00 00 00 00 00 00 00 00 00 00 ................
00400490 00 00 00 00 00 00 00 00 00 00 00 00 00 00 00 00 ................
004004A0 00 00 00 00 00 00 00 00 00 00 00 00 00 00 00 00 ................
004004B0 00 00 00 00 00 00 00 00 00 00 00 00 00 00 00 00 ................
004004C0 00 00 00 00 00 00 00 00 00 00 00 00 00 00 00 00 ................
004004D0 00 00 00 00 00 00 00 00 00 00 00 00 00 00 00 00 ................
004004E0 00 00 00 00 00 00 00 00 00 00 00 00 00 00 00 00 ................
004004F0 00 00 00 00 00 00 00 00 00 00 00 00 00 00 00 00 ................
00400500 00 00 00 00 00 00 00 00 00 00 00 00 00 00 00 00 ................
00400510 00 00 00 00 00 00 00 00 00 00 00 00 00 00 00 00 ................
00400520 00 00 00 00 00 00 00 00 00 00 00 00 00 00 00 00 ................
00400530 00 00 00 00 00 00 00 00 00 00 00 00 00 00 00 00 ................
00400540 00 00 00 00 00 00 00 00 00 00 00 00 00 00 00 00 ................
00400550 00 00 00 00 00 00 00 00 00 00 00 00 00 00 00 00 ................
00400560 00 00 00 00 00 00 00 00 00 00 00 00 00 00 00 00 ................
00400570 00 00 00 00 00 00 00 00 00 00 00 00 00 00 00 00 ................
00400580 00 00 00 00 00 00 00 00 00 00 00 00 00 00 00 00 ................
00400590 00 00 00 00 00 00 00 00 00 00 00 00 00 00 00 00 ................
004005A0 00 00 00 00 00 00 00 00 00 00 00 00 00 00 00 00 ................
004005B0 00 00 00 00 00 00 00 00 00 00 00 00 00 00 00 00 ................
004005C0 00 00 00 00 00 00 00 00 00 00 00 00 00 00 00 00 ................
004005D0 00 00 00 00 00 00 00 00 00 00 00 00 00 00 00 00 ................
004005E0 00 00 00 00 00 00 00 00 00 00 00 00 00 00 00 00 ................
004005F0 00 00 00 00 00 00 00 00 00 00 00 00 00 00 00 00 ................
00400600 00 00 00 00 00 00 00 00 00 00 00 00 00 00 00 00 ................
00400610 00 00 00 00 00 00 00 00 00 00 00 00 00 00 00 00 ................
00400620 00 00 00 00 00 00 00 00 00 00 00 00 00 00 00 00 ................
00400630 00 00 00 00 00 00 00 00 00 00 00 00 00 00 00 00 ................
00400640 00 00 00 00 00 00 00 00 00 00 00 00 00 00 00 00 ................
00400650 00 00 00 00 00 00 00 00 00 00 00 00 00 00 00 00 ................
00400660 00 00 00 00 00 00 00 00 00 00 00 00 00 00 00 00 ................
00400670 00 00 00 00 00 00 00 00 00 00 00 00 00 00 00 00 ................
00400680 00 00 00 00 00 00 00 00 00 00 00 00 00 00 00 00 ................
00400690 00 00 00 00 00 00 00 00 00 00 00 00 00 00 00 00 ................
004006A0 00 00 00 00 00 00 00 00 00 00 00 00 00 00 00 00 ................
004006B0 00 00 00 00 00 00 00 00 00 00 00 00 00 00 00 00 ................
004006C0 00 00 00 00 00 00 00 00 00 00 00 00 00 00 00 00 ................
004006D0 00 00 00 00 00 00 00 00 00 00 00 00 00 00 00 00 ................
004006E0 00 00 00 00 00 00 00 00 00 00 00 00 00 00 00 00 ................
004006F0 00 00 00 00 00 00 00 00 00 00 00 00 00 00 00 00 ................
00400700 00 00 00 00 00 00 00 00 00 00 00 00 00 00 00 00 ................
00400710 00 00 00 00 00 00 00 00 00 00 00 00 00 00 00 00 ................
00400720 00 00 00 00 00 00 00 00 00 00 00 00 00 00 00 00 ................
00400730 00 00 00 00 00 00 00 00 00 00 00 00 00 00 00 00 ................
00400740 00 00 00 00 00 00 00 00 00 00 00 00 00 00 00 00 ................
00400750 00 00 00 00 00 00 00 00 00 00 00 00 00 00 00 00 ................
00400760 00 00 00 00 00 00 00 00 00 00 00 00 00 00 00 00 ................
00400770 00 00 00 00 00 00 00 00 00 00 00 00 00 00 00 00 ................
00400780 00 00 00 00 00 00 00 00 00 00 00 00 00 00 00 00 ................
00400790 00 00 00 00 00 00 00 00 00 00 00 00 00 00 00 00 ................
004007A0 00 00 00 00 00 00 00 00 00 00 00 00 00 00 00 00 ................
004007B0 00 00 00 00 00 00 00 00 00 00 00 00 00 00 00 00 ................
004007C0 00 00 00 00 00 00 00 00 00 00 00 00 00 00 00 00 ................
004007D0 00 00 00 00 00 00 00 00 00 00 00 00 00 00 00 00 ................
004007E0 00 00 00 00 00 00 00 00 00 00 00 00 00 00 00 00 ................
004007F0 00 00 00 00 00 00 00 00 00 00 00 00 00 00 00 00 ................
00400800 00 00 00 00 00 00 00 00 00 00 00 00 00 00 00 00 ................
00400810 00 00 00 00 00 00 00 00 00 00 00 00 00 00 00 00 ................
00400820 00 00 00 00 00 00 00 00 00 00 00 00 00 00 00 00 ................
00400830 00 00 00 00 00 00 00 00 00 00 00 00 00 00 00 00 ................
00400840 00 00 00 00 00 00 00 00 00 00 00 00 00 00 00 00 ................
00400850 00 00 00 00 00 00 00 00 00 00 00 00 00 00 00 00 ................
00400860 00 00 00 00 00 00 00 00 00 00 00 00 00 00 00 00 ................
00400870 00 00 00 00 00 00 00 00 00 00 00 00 00 00 00 00 ................
00400880 00 00 00 00 00 00 00 00 00 00 00 00 00 00 00 00 ................
00400890 00 00 00 00 00 00 00 00 00 00 00 00 00 00 00 00 ................
004008A0 00 00 00 00 00 00 00 00 00 00 00 00 00 00 00 00 ................
004008B0 00 00 00 00 00 00 00 00 00 00 00 00 00 00 00 00 ................
004008C0 00 00 00 00 00 00 00 00 00 00 00 00 00 00 00 00 ................
004008D0 00 00 00 00 00 00 00 00 00 00 00 00 00 00 00 00 ................
004008E0 00 00 00 00 00 00 00 00 00 00 00 00 00 00 00 00 ................
004008F0 00 00 00 00 00 00 00 00 00 00 00 00 00 00 00 00 ................
00400900 00 00 00 00 00 00 00 00 00 00 00 00 00 00 00 00 ................
00400910 00 00 00 00 00 00 00 00 00 00 00 00 00 00 00 00 ................
00400920 00 00 00 00 00 00 00 00 00 00 00 00 00 00 00 00 ................
00400930 00 00 00 00 00 00 00 00 00 00 00 00 00 00 00 00 ................
00400940 00 00 00 00 00 00 00 00 00 00 00 00 00 00 00 00 ................
00400950 00 00 00 00 00 00 00 00 00 00 00 00 00 00 00 00 ................
00400960 00 00 00 00 00 00 00 00 00 00 00 00 00 00 00 00 ................
00400970 00 00 00 00 00 00 00 00 00 00 00 00 00 00 00 00 ................
00400980 00 00 00 00 00 00 00 00 00 00 00 00 00 00 00 00 ................
00400990 00 00 00 00 00 00 00 00 00 00 00 00 00 00 00 00 ................
004009A0 00 00 00 00 00 00 00 00 00 00 00 00 00 00 00 00 ................
004009B0 00 00 00 00 00 00 00 00 00 00 00 00 00 00 00 00 ................
004009C0 00 00 00 00 00 00 00 00 00 00 00 00 00 00 00 00 ................
004009D0 00 00 00 00 00 00 00 00 00 00 00 00 00 00 00 00 ................
004009E0 00 00 00 00 00 00 00 00 00 00 00 00 00 00 00 00 ................
004009F0 00 00 00 00 00 00 00 00 00 00 00 00 00 00 00 00 ................
00400A00 00 00 00 00 00 00 00 00 00 00 00 00 00 00 00 00 ................
00400A10 00 00 00 00 00 00 00 00 00 00 00 00 00 00 00 00 ................
00400A20 00 00 00 00 00 00 00 00 00 00 00 00 00 00 00 00 ................
00400A30 00 00 00 00 00 00 00 00 00 00 00 00 00 00 00 00 ................
00400A40 00 00 00 00 00 00 00 00 00 00 00 00 00 00 00 00 ................
00400A50 00 00 00 00 00 00 00 00 00 00 00 00 00 00 00 00 ................
00400A60 00 00 00 00 00 00 00 00 00 00 00 00 00 00 00 00 ................
00400A70 00 00 00 00 00 00 00 00 00 00 00 00 00 00 00 00 ................
00400A80 00 00 00 00 00 00 00 00 00 00 00 00 00 00 00 00 ................
00400A90 00 00 00 00 00 00 00 00 00 00 00 00 00 00 00 00 ................
00400AA0 00 00 00 00 00 00 00 00 00 00 00 00 00 00 00 00 ................
00400AB0 00 00 00 00 00 00 00 00 00 00 00 00 00 00 00 00 ................
00400AC0 00 00 00 00 00 00 00 00 00 00 00 00 00 00 00 00 ................
00400AD0 00 00 00 00 00 00 00 00 00 00 00 00 00 00 00 00 ................
00400AE0 00 00 00 00 00 00 00 00 00 00 00 00 00 00 00 00 ................
00400AF0 00 00 00 00 00 00 00 00 00 00 00 00 00 00 00 00 ................
00400B00 00 00 00 00 00 00 00 00 00 00 00 00 00 00 00 00 ................
00400B10 00 00 00 00 00 00 00 00 00 00 00 00 00 00 00 00 ................
00400B20 00 00 00 00 00 00 00 00 00 00 00 00 00 00 00 00 ................
00400B30 00 00 00 00 00 00 00 00 00 00 00 00 00 00 00 00 ................
00400B40 00 00 00 00 00 00 00 00 00 00 00 00 00 00 00 00 ................
00400B50 00 00 00 00 00 00 00 00 00 00 00 00 00 00 00 00 ................
00400B60 00 00 00 00 00 00 00 00 00 00 00 00 00 00 00 00 ................
00400B70 00 00 00 00 00 00 00 00 00 00 00 00 00 00 00 00 ................
00400B80 00 00 00 00 00 00 00 00 00 00 00 00 00 00 00 00 ................
00400B90 00 00 00 00 00 00 00 00 00 00 00 00 00 00 00 00 ................
00400BA0 00 00 00 00 00 00 00 00 00 00 00 00 00 00 00 00 ................
00400BB0 00 00 00 00 00 00 00 00 00 00 00 00 00 00 00 00 ................
00400BC0 00 00 00 00 00 00 00 00 00 00 00 00 00 00 00 00 ................
00400BD0 00 00 00 00 00 00 00 00 00 00 00 00 00 00 00 00 ................
00400BE0 00 00 00 00 00 00 00 00 00 00 00 00 00 00 00 00 ................
00400BF0 00 00 00 00 00 00 00 00 00 00 00 00 00 00 00 00 ................
00400C00 00 00 00 00 00 00 00 00 00 00 00 00 00 00 00 00 ................
00400C10 00 00 00 00 00 00 00 00 00 00 00 00 00 00 00 00 ................
00400C20 00 00 00 00 00 00 00 00 00 00 00 00 00 00 00 00 ................
00400C30 00 00 00 00 00 00 00 00 00 00 00 00 00 00 00 00 ................
00400C40 00 00 00 00 00 00 00 00 00 00 00 00 00 00 00 00 ................
00400C50 00 00 00 00 00 00 00 00 00 00 00 00 00 00 00 00 ................
00400C60 00 00 00 00 00 00 00 00 00 00 00 00 00 00 00 00 ................
00400C70 00 00 00 00 00 00 00 00 00 00 00 00 00 00 00 00 ................
00400C80 00 00 00 00 00 00 00 00 00 00 00 00 00 00 00 00 ................
00400C90 00 00 00 00 00 00 00 00 00 00 00 00 00 00 00 00 ................
00400CA0 00 00 00 00 00 00 00 00 00 00 00 00 00 00 00 00 ................
00400CB0 00 00 00 00 00 00 00 00 00 00 00 00 00 00 00 00 ................
00400CC0 00 00 00 00 00 00 00 00 00 00 00 00 00 00 00 00 ................
00400CD0 00 00 00 00 00 00 00 00 00 00 00 00 00 00 00 00 ................
00400CE0 00 00 00 00 00 00 00 00 00 00 00 00 00 00 00 00 ................
00400CF0 00 00 00 00 00 00 00 00 00 00 00 00 00 00 00 00 ................
00400D00 00 00 00 00 00 00 00 00 00 00 00 00 00 00 00 00 ................
00400D10 00 00 00 00 00 00 00 00 00 00 00 00 00 00 00 00 ................
00400D20 00 00 00 00 00 00 00 00 00 00 00 00 00 00 00 00 ................
00400D30 00 00 00 00 00 00 00 00 00 00 00 00 00 00 00 00 ................
00400D40 00 00 00 00 00 00 00 00 00 00 00 00 00 00 00 00 ................
00400D50 00 00 00 00 00 00 00 00 00 00 00 00 00 00 00 00 ................
00400D60 00 00 00 00 00 00 00 00 00 00 00 00 00 00 00 00 ................
00400D70 00 00 00 00 00 00 00 00 00 00 00 00 00 00 00 00 ................
00400D80 00 00 00 00 00 00 00 00 00 00 00 00 00 00 00 00 ................
00400D90 00 00 00 00 00 00 00 00 00 00 00 00 00 00 00 00 ................
00400DA0 00 00 00 00 00 00 00 00 00 00 00 00 00 00 00 00 ................
00400DB0 00 00 00 00 00 00 00 00 00 00 00 00 00 00 00 00 ................
00400DC0 00 00 00 00 00 00 00 00 00 00 00 00 00 00 00 00 ................
00400DD0 00 00 00 00 00 00 00 00 00 00 00 00 00 00 00 00 ................
00400DE0 00 00 00 00 00 00 00 00 00 00 00 00 00 00 00 00 ................
00400DF0 00 00 00 00 00 00 00 00 00 00 00 00 00 00 00 00 ................
00400E00 00 00 00 00 00 00 00 00 00 00 00 00 00 00 00 00 ................
00400E10 00 00 00 00 00 00 00 00 00 00 00 00 00 00 00 00 ................
00400E20 00 00 00 00 00 00 00 00 00 00 00 00 00 00 00 00 ................
00400E30 00 00 00 00 00 00 00 00 00 00 00 00 00 00 00 00 ................
00400E40 00 00 00 00 00 00 00 00 00 00 00 00 00 00 00 00 ................
00400E50 00 00 00 00 00 00 00 00 00 00 00 00 00 00 00 00 ................
00400E60 00 00 00 00 00 00 00 00 00 00 00 00 00 00 00 00 ................
00400E70 00 00 00 00 00 00 00 00 00 00 00 00 00 00 00 00 ................
00400E80 00 00 00 00 00 00 00 00 00 00 00 00 00 00 00 00 ................
00400E90 00 00 00 00 00 00 00 00 00 00 00 00 00 00 00 00 ................
00400EA0 00 00 00 00 00 00 00 00 00 00 00 00 00 00 00 00 ................
00400EB0 00 00 00 00 00 00 00 00 00 00 00 00 00 00 00 00 ................
00400EC0 00 00 00 00 00 00 00 00 00 00 00 00 00 00 00 00 ................
00400ED0 00 00 00 00 00 00 00 00 00 00 00 00 00 00 00 00 ................
00400EE0 00 00 00 00 00 00 00 00 00 00 00 00 00 00 00 00 ................
00400EF0 00 00 00 00 00 00 00 00 00 00 00 00 00 00 00 00 ................
00400F00 00 00 00 00 00 00 00 00 00 00 00 00 00 00 00 00 ................
00400F10 00 00 00 00 00 00 00 00 00 00 00 00 00 00 00 00 ................
00400F20 00 00 00 00 00 00 00 00 00 00 00 00 00 00 00 00 ................
00400F30 00 00 00 00 00 00 00 00 00 00 00 00 00 00 00 00 ................
00400F40 00 00 00 00 00 00 00 00 00 00 00 00 00 00 00 00 ................
00400F50 00 00 00 00 00 00 00 00 00 00 00 00 00 00 00 00 ................
00400F60 00 00 00 00 00 00 00 00 00 00 00 00 00 00 00 00 ................
00400F70 00 00 00 00 00 00 00 00 00 00 00 00 00 00 00 00 ................
00400F80 00 00 00 00 00 00 00 00 00 00 00 00 00 00 00 00 ................
00400F90 00 00 00 00 00 00 00 00 00 00 00 00 00 00 00 00 ................
00400FA0 00 00 00 00 00 00 00 00 00 00 00 00 00 00 00 00 ................
00400FB0 00 00 00 00 00 00 00 00 00 00 00 00 00 00 00 00 ................
00400FC0 00 00 00 00 00 00 00 00 00 00 00 00 00 00 00 00 ................
00400FD0 00 00 00 00 00 00 00 00 00 00 00 00 00 00 00 00 ................
00400FE0 00 00 00 00 00 00 00 00 00 00 00 00 00 00 00 00 ................
00400FF0 00 00 00 00 00 00 00 00 00 00 00 00 00 00 00 00 ................
00401000 15 88 5F C1 E9 62                               .._..b         

l00401006:
	or	edi,ecx
	mov	ebx,esi
	xor	edi,ecx
	mov	ebx,edi
	sub	bl,al
	add	bh,al
	jmp	0040105A
00401014             D9 60 CC 4A 0D                          .`.J.      

l00401019:
	add	edi,ebx
	or	ebx,esi
	xor	edi,eax
	or	ebx,ecx
	or	edi,edx
	add	ebx,edx
	or	ebx,edx
	or	ebx,esi
	js	004010CE

l0040102F:
	xchg	edx,edx
	jmp	00401036

l00401036:
	jns	004010CE

l0040103C:
	aaa	
	dec	ebp
	cmp	ch,[ecx+5B]
	push	ds
	push	DF2B4FE5
	leave	
	sub	ecx,ebx
	xor	ebx,eax
	add	eax,edi
	dec	edi
	dec	eax
	jmp	00401087
00401052       06 98 F2 8E 9B CE CA 4E                     .......N     

l0040105A:
	mov	bh,85
	inc	ebx
	add	ebx,eax
	inc	ebx
	or	bh,ch
	add	bl,bh
	add	bl,ch
	add	bh,bl
	inc	edi
	jmp	0040112D
	add	[eax+29],ebp
	pusha	

l00401072:
	xor	ebx,edi
	add	ebx,edx
	add	edi,ecx
	add	edi,edx
	dec	ebx
	xor	edi,ebx
	add	edi,edx
	jmp	00401019
00401081    4B A4 E0 E8 43 5F                             K...C_        

l00401087:
	inc	esi
	add	ecx,edx
	add	esi,ecx
	inc	edx
	dec	edi
	sub	edi,eax
	jmp	0040111D
00401095                07 C7 00 46                           ...F      

l00401099:
	xor	edi,ecx
	sub	bl,ah
	sub	edi,ecx
	dec	edi
	inc	edi
	mov	edi,ecx
	mov	bh,dl
	inc	ebx
	xor	ebx,eax
	jmp	004010AE
004010AA                               62 04 2B B6                 b.+. 

l004010AE:
	add	bh,dl
	add	ebx,esi
	sub	ebx,edx
	sub	bh,dh
	sub	bl,cl
	dec	ebx
	add	ebx,esi
	xor	bh,ch
	jo	00401006

l004010C3:
	repne	
	jno	00401006
	mov	[edx],ah
	fild	word ptr [ebp-75]

l004010CE:
	mov	edi,ebx
	dec	ebx
	add	ebx,ecx
	or	ebx,edx
	or	ebx,eax
	or	edi,eax
	jmp	00401099
004010DB                                  31 37 AF 45 48            17.EH
004010E0 A7 33 FE 2B DE 8B FE 33 D9 0B DA 4F 0F 86 52 FF .3.+...3...O..R.
004010F0 FF FF 8A ED 86 C9 0F 87 48 FF FF FF 62 00 0C 05 ........H...b...
00401100 29                                              )              

fn00401101()
	push	ebp
	mov	ebp,esp
	dec	ebx
	inc	ebx
	sub	edi,ecx
	xor	edi,esi
	xor	ebx,eax
	mov	edi,ecx
	xor	edi,eax
	mov	edi,ebx
	jmp	00401072
00401117                      22 B0 35 A4 5F 49                 ".5._I  

l0040111D:
	mov	edi,eax
	inc	esi
	dec	edi
	add	esi,ecx
	sub	edi,ecx
	inc	esi
	add	edi,ebx
	dec	esi
	or	eax,edx
	jmp	00401143
0040112D                                        8B FA B7              ...
00401130 F0 33 F8 03 DA 03 F9 43 4B 43 03 F8 43 EB A2 45 .3.....CKC..C..E
00401140 65 35 13                                        e5.            

l00401143:
	call	004025E6
	xlat	
	inc	edx
	ror	ecx,01
	jmp	2E19816C
	aam	06
	push	ss
	adc	eax,D88E4AD4
	push	esp
	push	ss
	pop	esp
	push	esp
	ficomp	word ptr [eax+ecx*8+52]
	rcl	bl,01
	xlat	
	xlat	
	dec	esp
	xchg	eax,edx
	iret	
	out	dx,al
	cmp	al,D3
	xlat	
	xlat	
	sbb	bh,[ebp+3B]
	lodsd	
	mov	dword ptr [ecx+17A4805C],4CCB8A4C
	pop	edx
	iret	
	in	al,2D
	js	0040116F
	lock	
	illegal	
	xlat	
	xlat	
	sub	al,3B
	mov	edi,150E30BF
	iret	
	xlat	
	or	byte ptr [ebx+ebp*8-7C],73
	dec	esp
	ret	D7A7
	xlat	
	xlat	
	dec	esp
	test	ebx,ecx
	dec	esp
	std	
	push	esp
	adc	al,CB
	out	dx,al
	mov	cl,D4
	xlat	
	xlat	
	mov	eax,2D04B203
	add	dword ptr [eax+4CCF624C],CB8A4CD9
	dec	esp
	add	bh,54
	push	ss
	pop	esp
	in	al,dx
	cmp	esi,ebp
	aam	D7
	xlat	
	and	eax,328D15E8
	xchg	eax,ebx
	add	al,EF
	cmp	al,D5
	xlat	
	xlat	
	dec	esp
	mov	dh,bh
	dec	esp
	xchg	eax,esi
	wait	
	dec	esp
	xchg	eax,ebx
	illegal	
	scasd	
	aam	16
	dec	esi
	xchg	eax,edx
	or	ecx,[edx+edi*2-09]
	fsub	dword ptr [edx+0B]
	fsub	dword ptr [edx+07]
	out	dx,al
	call	2717E9BF
	pop	eax
	arpl	[ecx-64],bx
	pop	esi
	push	ds
	call	17F39D46
	dec	edx
	mov	esi,[ebx+834E8617]
	mov	bl,17
	dec	edx
	xor	dword ptr [ebx+25EE8517],D7
	xlat	
	xlat	
	add	byte ptr [ebp+624C7DB2],CB
	dec	esp
	pop	edx
	iret	
	in	al,33
	dec	esp
	adc	[eax+79],bh
	push	cs
	adc	eax,4C82D7CB
	jmp	00401211
	mov	bl,al
	fcomp	st(0),st(0)
	mov	dl,E6
	loope	00401281
	bound	esi,esp
	insd	
	xchg	eax,edi
	fsub	dword ptr [edx-05]
	fsub	dword ptr [edx-09]
	out	dx,ax
	jle	0040120A
	xlat	
	xlat	
	dec	esp
	xchg	eax,edx
	test	dword ptr [edi+ecx-2C],974C9B97
	scasd	
	out	dx,al
	movsd	
	iret	
	xlat	
	xlat	
	scasd	
	or	[eax+2C7E18FF],bl
	lodsb	
	or	al,C8
	push	edx
	mov	cl,D1
	xlat	
	xlat	
	out	dx,ax
	std	
	into	
	xlat	
	xlat	
	out	dx,al
	out	dx,al
	into	
	xlat	
	xlat	
	sub	eax,[esi]
	out	dx,ax
	enter	0353,D5
	xlat	
	xlat	
	les	ecx,[esi]
	out	dx,al
	dec	esi
	aam	D7
	xlat	
	out	dx,al
	rcl	cl,01
	xlat	
	xlat	
	adc	[edi+D49AF04D],dl
	bound	ecx,edi
	dec	esp
	pop	esp
	mov	esp,A2EECF5A
	rcl	edi,cl
	xlat	
	sub	ch,[esi]
	xlat	
	xlat	
	xlat	
	push	edi
	out	dx,al
	cld	
	aam	D7
	xlat	
	illegal	
	sub	esp,[ebx+EB4C091C]
	fsub	dword ptr [edx-31]
	insd	
	fsubr	dword ptr [edi+4F]
	js	0040131E
	imul	edi
	cmc	
	illegal	
	fsubr	dword ptr [edi-0C]
	lodsb	
	push	ebx
	add	al,[edi+D7D6B6EE]
	xlat	
	jbe	0040129C
	jpe	004012F5
	scasb	
	insd	
	fadd	dword ptr [edi+77784F6F]
	imul	edi
	adc	bl,cl
	fcomp	st(0),st(0)
	outsd	
	sub	al,6F
	aam	E3
	xchg	edi,ebp
	jnz	004012A4
	xlat	
	xlat	
	xchg	esi,ebp
	jnc	004012A9
	xlat	
	xlat	
	sub	eax,073767E9
	dec	esi
	xchg	eax,edx
	retf	
	dec	esi
	xchg	eax,edx
	fist	word ptr [edi+5A]
	mov	edi,D3C053C8
	xlat	
	xlat	
	enter	9221,C7
	dec	esi
	xchg	eax,edx
	illegal	
	bound	ecx,edi
	out	dx,al
	das	
	rcl	edi,01
	xlat	
	or	[ebx-28],eax
	pop	eax
	cmp	ebp,[eax-2C]
	jpe	004012FF
	fsub	dword ptr [edx-15]
	fsub	dword ptr [edx-0D]
	test	bh,ch
	cmp	eax,E0D7D7D5
	xchg	eax,edx
	illegal	
	xlat	
	xlat	
	xlat	
	enter	D653,CD
	xlat	
	xlat	
	fsub	dword ptr [edx-19]
	fsub	dword ptr [edx-1D]
	out	dx,al
	in	eax,dx
	into	
	xlat	
	xlat	
	adc	[edx+13],ah
	out	01,al
	dec	esp
	out	dx,ax
	xlat	
	rcl	edi,01
	xlat	
	fadd	dword ptr [edi]
	dec	esp
	xchg	eax,edx
	illegal	
	adc	eax,EE82D7CF
	mov	si,cs
	xlat	
	xlat	
	sbb	al,[edx]
	pop	eax
	test	al,0F
	aam	7C
	wait	
	dec	edx
	jl	00401310
	fsub	dword ptr [edi+ebx*4+48]
	xchg	eax,edx
	sti	
	fsub	dword ptr [edi+ebx*4-28]
	mov	ebx,EE9F64D8
	out	dx,al
	rcl	bh,cl
	xlat	
	shl	[edx+edi*8+2C],cl
	out	D4,al
	loop	0040137B
	adc	eax,4C82D7CF
	jmp	004012F8
	add	dword ptr [eax+EECB5A4C],D7D7CE22
	illegal	
	mov	byte ptr [edi],71
	push	esp
	sahf	
	xlat	
	enter	8252,D6
	xlat	
	xlat	
	mov	[8C87DD55],al
	pushf	
	xchg	eax,edx
	iret	
	bound	ecx,edx
	dec	esp
	xchg	eax,ebp
	mov	edi,D7D416EE
	xlat	
	out	dx,al
	and	edx,esp
	xlat	
	xlat	
	dec	esp
	lds	ebp,esi
	sub	al,D4
	xlat	
	xlat	
	sbb	[edx+ecx*2],bl
	das	
	and	al,D5
	xchg	eax,esi
	daa	
	mov	edi,D7D7CF33
	lds	edx,[edi]
	loopne	00401386
	push	edx
	dec	edx
	iret	
	xlat	
	xlat	
	sub	eax,D7D5C7EE
	xlat	
	out	dx,ax
	jnz	004013A2
	xlat	
	xlat	
	out	dx,al
	pop	ecx
	illegal	
	fdiv	dword ptr [ecx-06]
	or	[7EEFE4E3],ecx
	rcl	bh,cl
	xlat	
	fadd	dword ptr [edi]
	push	cs
	adc	eax,4C82D7D3
	jmp	0040143C
	adc	esp,edi
	fsub	dword ptr [edx-31]
	dec	edx
	xchg	eax,edx
	illegal	
	stc	
	iret	
	xlat	
	xlat	
	or	eax,6D76B8E4
	jge	004013E1
	enter	04EC,F9
	push	ss
	cld	
	shl	[ebx+ECC816F9],cl
	push	ss
	dec	edx
	mov	ss,si
	out	dx,al
	push	ebp
	into	
	xlat	
	xlat	
	int	66
	aam	CE
	mov	byte ptr [eax-5E],4C
	xchg	eax,esp
	retf	
	aam	92
	iret	
	xchg	edi,ebp
	pop	ss
	fcomp	st(0),st(0)
	fmul	dword ptr [esi-6E]
	fist	dword ptr [esp+ebx*4-29]
	arpl	ax,bx
	dec	esp
	movsb	
	out	dx,al
	lea	ebx,ecx
	fcomp	st(0),st(0)
	dec	esp
	mov	esi,D8D8D995
	fdiv	st(0),st(7)
	mov	[723DDC9C],eax
	xchg	edi,ebp
	mov	sp,ss
	xlat	
	xlat	
	jle	0040149E
	adc	al,AF
	mov	cs,sp
	push	cs
	enter	CC52,D1
	xlat	
	xlat	
	fsub	dword ptr [edx-11]
	fsub	dword ptr [edx+03]
	out	dx,al
	insd	
	illegal	
	fdivr	dword ptr [esi-32]
	imul	ebx,ebx,41
	mov	[D7CF1559],eax
	or	byte ptr [ebx+ebp*8+6F],D7
	push	edi
	xlat	
	xlat	
	dec	edx
	xchg	eax,edx
	retf	
	xchg	[edx-6E],ecx
	iret	
	out	dx,al
	sbb	al,D1
	xlat	
	xlat	
	xchg	eax,ebp
	clc	
	test	eax,D0EF4D09
	illegal	
	fsubr	dword ptr [edi+21]
	fdiv	dword ptr [ebx+33EF87A4]
	rcl	edi,cl
	xlat	
	fadd	dword ptr [edi]
	dec	edx
	xchg	eax,edx
	jcxz	00401420
	outsd	
	dec	edi
	js	00401514
	imul	edi
	jmp	0040147C
	fcomp	st(0),st(0)
	out	dx,al
	jge	0040147A
	xlat	
	xlat	
	aam	8A
	inc	dword ptr [ebp-34]
	std	
	movsb	
	pop	ss
	jle	00401506
	adc	ebx,edx
	xchg	eax,esi
	pushf	
	mov	bl,bl
	enter	DE55,D0
	xlat	
	xlat	
	js	00401539
	jl	004014B0
	adc	bl,bl
	fcomp	st(0),st(0)
	inc	ecx
	in	eax,dx
	shr	esp,01
	cmp	[edi+CB854C40],bh
	dec	esp
	lds	ebp,esi
	push	edi
	illegal	
	xlat	
	xlat	
	dec	esp
	lea	esp,[edi+36EE17A4]
	illegal	
	fcom	dword ptr [esi]
	pop	ss
	shl	byte ptr [ebp+D51654D6],01
	out	dx,al
	inc	ebx
	illegal	
	fcomp	dword ptr [ebx]
	lock	
	sub	eax,D409A6E3
	xchg	eax,edi
	wait	
	dec	esp
	or	bh,4C
	xchg	eax,edi
	pop	edi
	aam	15
	dec	esp
	illegal	
	mov	bh,D4
	in	eax,4C
	pop	dword ptr [edi+D7D03CEE]
	xlat	
	jmp	far A18E:FD70
	dec	edx
	xchg	eax,edx
	out	87,al
	dec	edx
	xchg	eax,edx
	jcxz	004014A3
	insd	
	xlat	
	insd	
	xlat	
	outsd	
	dec	edi
	js	0040159B
	imul	esi
	jle	00401500
	fcomp	st(0),st(0)
	push	esp
	pop	dword ptr [edx]
	ficomp	word ptr [esi+eax+D0B0EF96]
	xlat	
	xlat	
	les	ecx,[esi]
	out	dx,ax
	mov	bh,D0
	xlat	
	xlat	
	in	eax,14
	lodsb	
	pop	ebx
	mov	bl,AF
	dec	esi
	pop	ebx
	mov	bl,BB
	out	dx,al
	illegal	
	xlat	
	xlat	
	and	edx,[esi]
	jmp	0040155F
	and	eax,[edi-7E]
	dec	esp
	jmp	004015AB
	adc	ecx,[ebx]
	test	[ebp-29],ch
	enter	4CA6,0F
	out	dx,al
	xor	cl,dl
	xlat	
	xlat	
	lds	esi,edi
	sub	eax,4E39F6C0
	push	esp
	out	dx,al
	pop	esp
	sub	eax,[esi+E6570D4D]
	les	edx,ebp
	or	[050D4D17],eax
	movd	rsi,xmm5
	or	ebx,esp
	fcomp	st(0),st(0)
	pop	es
	lodsb	
	cmp	ch,C8
	pop	dword ptr [esi]
	out	dx,ax
	enter	F716,C8
	enter	CF20,56
	out	dx,al
	mov	bh,[ebp-29]
	xlat	
	int	03
	push	cs
	bound	ebp,ebx
	dec	esi
	xchg	eax,edx
	neg	ebx
	out	dx,al
	sbb	cl,dl
	xlat	
	xlat	
	pop	esi
	js	00401624
	dec	edx
	inc	esi
	adc	eax,4C82D7C7
	jmp	00401536
	dec	esp
	mov	cl,bl
	dec	esp
	jpe	00401587
	out	dx,al
	ret	
	rcl	edi,01
	xlat	
	dec	esp
	xchg	eax,edx
	mov	esi,D7D7D5DF
	add	eax,057B999E
	ja	00401618
	bound	ecx,ebx
	dec	esp
	pop	edx
	iret	
	illegal	
	push	edi
	movsb	
	cld	
	xor	esp,[D7D158EF+edx*8]
	xlat	
	loope	004015CF
	and	dl,ch
	xlat	
	xlat	
	cmpsb	
	call	far 38FC:CBAB
	push	ds
	leave	
	push	edi
	illegal	
	int	54
	fistp	word ptr [eax-38]
	push	eax
	mov	cl,dl
	xlat	
	xlat	
	xchg	eax,esi
	xchg	eax,esi
	out	dx,al
	pop	ecx
	xlat	
	xlat	
	shl	edx,27
	mov	[eax+4C],ah
	mov	cl,bl
	dec	esp
	add	bh,A6
	iret	
	cmpsb	
	mov	dword ptr [eax+79],D7CB150E
	or	byte ptr [ebx+ebp*8-14],2A
	int	03
	add	bh,[edi+21]
	ror	[edx-6E],cl
	fild	word ptr [edi+87E3924A]
	outsd	
	dec	edi
	js	004016A5
	imul	edi
	jl	0040160E
	fcomp	st(0),st(0)
	outsd	
	les	esp,[esi-34]
	xchg	edi,ebp
	illegal	
	xlat	
	xlat	
	fadd	dword ptr [edi]
	out	dx,al
	or	ecx,ebx
	fcomp	st(0),st(0)
	illegal	
	mul	byte ptr [ebx]
	mov	ebx,109C8E93
	enter	8652,D3
	xlat	
	xlat	
	fsub	dword ptr [edx-31]
	dec	eax
	xchg	eax,ecx
	mov	edi,48C762D8
	xchg	eax,ecx
	mov	ebx,D7D38DEE
	xlat	
	out	dx,al
	pushf	
	rcl	edi,cl
	xlat	
	sub	eax,0B40403F
	mul	dword ptr [ebx-39]
	mov	[57D7D7D7],al
	xchg	eax,ebx
	bound	ebx,ebx
	out	dx,ax
	inc	edx
	illegal	
	xlat	
	xlat	
	in	al,dx
	wait	
	aam	92
	iret	
	dec	edx
	xchg	eax,edi
	illegal	
	xchg	esp,ebp
	lodsb	
	sti	
	inc	ecx
	in	eax,CD
	dec	esp
	jmp	004016E7
	adc	esp,ebx
	dec	edx
	xchg	eax,edx
	fild	dword ptr [edi+D8CB5A56]
	fcom	st(0),st(7)
	xlat	
	pusha	
	int	D8
	bound	ecx,ebx
	insd	
	xlat	
	out	dx,al
	stosd	
	aam	D7
	xlat	
	insd	
	xlat	
	out	dx,al
	dec	ecx
	illegal	
	xlat	
	xlat	
	ja	00401691
	mov	eax,DB62D8F2
	out	dx,ax
	adc	dh,D7
	xlat	
	sub	al,54
	cdq	
	xlat	
	enter	1552,DC
	fcomp	st(0),st(0)
	push	esp
	adc	al,C3
	push	esp
	pop	esp
	retf	
	xlat	
	enter	9552,DA
	fcomp	st(0),st(0)
	out	dx,al
	aaa	
	rcl	edi,01
	xlat	
	jcxz	00401755
	push	eax
	xchg	eax,esi
	outsd	
	xlat	
	cmpsd	
	xlat	
	xlat	
	dec	edx
	xchg	eax,edx
	retf	
	xchg	[ebp-29],ebp
	dec	edx
	xchg	eax,edx
	iret	
	xchg	[ebp-28],ebp
	out	dx,al
	mov	edx,BED7D7D3
	sbb	eax,AE9DB4BF
	xchg	eax,edx
	retf	
	push	esp
	pop	edx
	retf	
	xlat	
	enter	2C52,D5
	xlat	
	xlat	
	dec	esp
	xchg	eax,edx
	fistp	qword ptr [eax+79]
	jl	0040171C
	out	dx,al
	aas	
	illegal	
	fmul	st(0),st(5)
	xchg	eax,ebx
	jbe	004016A0
	out	dx,ax
	illegal	
	fcomp	st(0),st(0)
	fmul	dword ptr [edx+edi*2+03]
	aam	7C
	wait	
	fsub	dword ptr [ebx+eax*4-28]
	bound	eax,[ebx]
	fsub	dword ptr [edx-09]
	out	dx,ax
	enter	D7D4,D7
	out	dx,al
	mov	esp,2FD7D7D4
	adc	al,BD
	illegal	
	wait	
	jnz	004016C0
	dec	esp
	jmp	00401795
	adc	ebx,ebx
	test	[ecx+CF7A4C80],al
	out	dx,al
	mov	[E6D7D7D5],eax
	jmp	far 7E1F:D6EC
	mov	bh,A4
	pop	ss
	pushf	
	add	al,C8
	push	edx
	pop	edi
	illegal	
	fdivr	dword ptr [esi+ecx+15]
	rcl	edi,cl
	or	byte ptr [ebx+ebp*8+6D],97
	out	dx,al
	fcomp	st(0),st(0)
	fdivr	dword ptr [eax+D478E457]
	jl	00401748
	push	esp
	pop	esp
	ror	edi,cl
	enter	5850,D4
	xlat	
	xlat	
	js	004017FA
	jl	00401791
	adc	eax,2BEED7CF
	illegal	
	xlat	
	xlat	
	test	eax,0EBB9886
	adc	eax,4C82D7CF
	jmp	004017EB
	adc	ebx,ebx
	dec	edx
	xchg	eax,edx
	fild	dword ptr [edi+4AC762D8]
	xchg	eax,edx
	retf	
	xchg	esi,ebp
	daa	
	rcl	bh,cl
	xlat	
	push	47
	fisub	dword ptr [ebx+1A]
	sbb	dl,[edx+edi-11]
	scasd	
	rcl	edi,cl
	xlat	
	loopne	0040174A
	illegal	
	xlat	
	xlat	
	xlat	
	arpl	cx,bx
	xchg	eax,ebx
	bound	eax,[ebx]
	out	dx,ax
	xchg	ecx,ebx
	fcomp	st(0),st(0)
	out	dx,al
	mov	bh,D6
	xlat	
	xlat	
	fsub	dword ptr [edx-0D]
	xchg	esi,ebp
	enter	D7D6,D7
	jge	004017EB
	mov	ecx,48EF8428
	fcomp	st(0),st(0)
	fadd	dword ptr [edi+ebp*8+D8D8D881]
	dec	esp
	adc	al,D4
	xchg	eax,edi
	wait	
	fsub	dword ptr [edi-5D]
	test	bh,ch
	dec	edx
	rcl	bh,cl
	xlat	
	jl	004017E5
	illegal	
	xlat	
	xlat	
	jpo	004017E0
	arpl	[eax],bx
	sbb	[edx+6F],edi
	push	ss
	test	eax,EF87E6FF
	lodsd	
	illegal	
	xlat	
	xlat	
	fadd	dword ptr [edi]
	dec	esp
	xchg	eax,edx
	out	0E,al
	adc	eax,EE82D7D3
	arpl	cx,bx
	fcomp	st(0),st(0)
	mov	esp,536F9B74
	mov	[FFD42324],eax
	aam	FE
	aam	FD
	dec	esp
	or	eax,62D433E4
	fist	dword ptr [ebp+ebp*8-33]
	loopne	00401833
	out	dx,al
	push	ecx
	illegal	
	xlat	
	xlat	
	or	al,[esi]
	movsb	
	sub	dword ptr [edx+21],4A
	xchg	eax,edx
	jcxz	004017CC
	fsub	dword ptr [edx-35]
	xchg	[edi+4F],ebp
	js	004018C4
	imul	edi
	wait	
	illegal	
	fsubr	dword ptr [edi+79]
	adc	esp,eax
	jmp	D6A506E3
	xlat	
	xlat	
	and	edi,EF3846B6
	or	bh,dl
	xlat	
	xlat	
	fadd	dword ptr [edi]
	dec	esp
	xchg	eax,edx
	illegal	
	adc	eax,EE82D7CB
	mov	dl,DD
	fcomp	st(0),st(0)
	sbb	edi,[ecx+EA9AAAD3]
	test	eax,168F4693
	test	edi,D429EF2B
	xlat	
	xlat	
	call	far D7D7:5AD7
	out	dx,al
	jg	0040186C
	fcomp	st(0),st(0)
	push	edx
	push	0B
	mov	dword ptr [ebp-54],1BEF0EA4
	aam	D7
	xlat	
	enter	B554,DC
	fcomp	st(0),st(0)
	movsb	
	pop	ss
	out	dx,ax
	sub	ah,dl
	xlat	
	xlat	
	enter	2854,DE
	fcomp	st(0),st(0)
	out	dx,al
	loope	00401894
	fcomp	st(0),st(0)
	pop	ss
	test	edx,esi
	push	cs
	mov	[A2C5D802],al
	push	ss
	illegal	
	stosb	
	test	byte ptr gs:[ecx-3D],4E
	xchg	eax,edx
	mov	dword ptr [ebp+eax+4DCB62E0],4DD8BE93
	mov	bl,BD
	out	dx,al
	in	al,dx
	illegal	
	xlat	
	xlat	
	adc	[eax],ch
	mov	esp,9F84AC42
	fsub	dword ptr [edx+03]
	out	dx,ax
	test	dh,dl
	xlat	
	xlat	
	loopne	00401881
	illegal	
	xlat	
	xlat	
	xlat	
	arpl	[ebp-28],bx
	bound	esi,edi
	out	dx,ax
	fcomp	st(0),st(0)
	fcomp	st(0),st(0)
	bound	edi,ebx
	fsub	dword ptr [edx-09]
	out	dx,ax
	jbe	004018E3
	fcomp	st(0),st(0)
	dec	esp
	jpe	0040190F
	out	dx,al
	popf	
	fstp	st(0)
	fmul	dword ptr [edi-3D]
	xor	al,C5
	mov	esp,8687B9F3
	out	dx,ax
	mov	dh,D6
	xlat	
	xlat	
	dec	esp
	xchg	eax,esp
	retf	
	aam	92
	neg	eax
	mov	bl,D8
	iret	
	out	dx,al
	lds	ebx,esp
	fcomp	st(0),st(0)
	mov	dl,53
	mov	cs,si
	into	
	loope	004018BA
	dec	esp
	jmp	0040198F
	adc	ebx,ebx
	test	[ecx+CF924C80],al
	out	dx,al
	sub	bl,ah
	fcomp	st(0),st(0)
	dec	ecx
	or	bl,ch
	lodsb	
	out	FF,al
	fsub	dword ptr [ebx+edi*4-28]
	mov	ebx,D8D8BFEF
	fsubr	st(0),st(7)
	retf	
	fcomp	st(0),st(0)
	fsubr	st(0),st(7)
	illegal	
	illegal	
	fmul	dword ptr [esi-6E]
	div	dword ptr [ebx+4C]
	retf	D7A7
	xlat	
	xlat	
	dec	esi
	xchg	eax,esi
	iret	
	fsub	dword ptr [edx-05]
	fsub	dword ptr [edx-09]
	out	dx,al
	cmp	bl,dl
	fcomp	st(0),st(0)
	lds	ecx,[edi+CE313312]
	aam	7C
	wait	
	dec	edx
	cmp	al,57
	xlat	
	xlat	
	xlat	
	dec	esp
	mov	esp,53C8FCCC
	illegal	
	aam	D7
	xlat	
	aam	7A
	iret	
	out	dx,al
	test	al,DA
	fcomp	st(0),st(0)
	out	dx,al
	popa	
	fstp	st(0)
	fsubr	dword ptr [edi]
	mov	[ebx-3C],ss
	or	[ecx+ebx*8-38],cl
	and	[edx-3A],edi
	out	dx,al
	mov	dx,ds
	fcomp	st(0),st(0)
	push	esp
	pop	edx
	retf	
	int	C8
	push	ebp
	int	03
	illegal	
	xlat	
	xlat	
	dec	esp
	adc	al,A4
	add	eax,D7D7CD1E
	xlat	
	loopne	004019AD
	out	dx,al
	jg	004019A3
	fcomp	st(0),st(0)
	pop	eax
	xchg	eax,ebp
	mov	dword ptr [edx-11],D8D8D876
	fadd	dword ptr [edi]
	fsub	dword ptr [edx-31]
	outsd	
	dec	edi
	js	00401A56
	imul	edi
	sub	eax,6FD8D8E0
	loopne	004019ED
	imul	ebx,[esi-79],EE
	xchg	eax,ebp
	illegal	
	fcom	st(0),st(3)
	mov	ebx,E555808E
	adc	[esi+ebx],esi
	xlat	
	mov	edi,FF824CD7
	dec	esp
	xchg	eax,edx
	or	ecx,[esi]
	dec	esp
	jcxz	00401A5B
	adc	edi,eax
	outsd	
	xlat	
	xchg	eax,edi
	xlat	
	xlat	
	out	dx,al
	mul	al
	fcomp	st(0),st(0)
	xor	ch,31
	adc	edx,[esi+80819BFF]
	dec	esp
	jpe	004019EE
	dec	esp
	add	al,AC
	or	bl,D4
	jl	004019C2
	dec	edx
	cmp	al,37
	xlat	
	xlat	
	xlat	
	dec	esp
	mov	esp,CCCF8A4C
	cld	
	out	dx,al
	sub	edi,edx
	xlat	
	xlat	
	mov	[A7EF2DCF],eax
	adc	al,82
	dec	esp
	jmp	004019C5
	or	byte ptr [edx+ecx*4-39],EE
	adc	eax,ECD8D8E0
	sub	eax,20C8B600
	mov	cx,ss
	push	esi
	adc	al,DF
	xlat	
	xlat	
	xlat	
	out	dx,al
	jmp	far 86D8:D8DE
	dec	esp
	xchg	eax,esp
	ret	
	aam	92
	add	ecx,[esp+ecx*4-35]
	aam	8A
	neg	eax
	mov	esi,D8D8D934
	illegal	
	lds	edx,[eax+B1ED2CF5]
	aam	16
	dec	esi
	xchg	eax,edx
	pop	es
	fsub	dword ptr [edx-11]
	insd	
	xlat	
	out	dx,ax
	illegal	
	fcomp	st(0),st(0)
	dec	esi
	xchg	eax,edx
	add	ecx,[edx+edi*2-09]
	aam	7C
	wait	
	push	esi
	adc	al,B7
	illegal	
	xlat	
	xlat	
	dec	esp
	jl	00401A68
	out	dx,al
	jz	00401A7F
	fcomp	st(0),st(0)
	jz	00401A91
	int	8A
	dec	esp
	mov	eax,[52C8E59C]
	cmp	eax,78D7D7D5
	jns	00401B2F
	push	cs
	adc	eax,56EED7CB
	illegal	
	fdiv	st(0),st(7)
	arpl	ax,bx
	retf	4C8B
	or	eax,CDEC33E4
	dec	esp
	mov	cl,bl
	in	al,33
	out	dx,al
	mov	eax,[4CD8D8DB]
	xchg	eax,edx
	fld	tword ptr [esi+1754DF92]
	int	EE
	mov	esp,15D8D8DB
	dec	edi
	lahf	
	xchg	eax,esp
	sub	byte ptr [eax-46],4F
	enter	4553,DB
	fcomp	st(0),st(0)
	pushf	
	mov	cl,bl
	enter	4E53,DB
	fcomp	st(0),st(0)
	aam	7A
	iret	
	out	dx,al
	pusha	
	illegal	
	fmul	dword ptr [esp+ecx*4-2D]
	push	esp
	out	dx,al
	iret	
	dec	esp
	in	al,54
	adc	edi,ecx
	out	dx,al
	sti	
	xlat	
	xlat	
	xlat	
	retf	
	dec	esp
	mov	ch,3E
	outsd	
	dec	edi
	js	00401B8D
	imul	edi
	loope	00401AF3
	fsubr	dword ptr [edi+71]
	test	ch,dl
	xchg	eax,ebp
	xchg	edi,ebp
	mov	ecx,07D8D8D8
	dec	esp
	xchg	eax,edx
	iret	
	push	cs
	out	dx,al
	mov	[09D8D8DE],al
	cmp	al,06
	ret	D25A
	xchg	eax,edi
	xchg	[ebp-28],ebp
	outsd	
	dec	edi
	js	00401BB7
	imul	edi
	mov	fs,cx
	fcomp	st(0),st(0)
	outsd	
	sub	al,6F
	aam	E3
	xchg	edi,ebp
	illegal	
	illegal	
	fcomp	st(0),st(0)
	pop	es
	out	dx,al
	mov	al,[80D8D8DB]
	cdq	
	adc	al,[esi-70]
	xchg	eax,edi
	movsd	
	illegal	
	xchg	eax,esi
	push	edi
	sahf	
	xlat	
	enter	7E52,D6
	xlat	
	xlat	
	mov	[8C87DD55],al
	pushf	
	adc	al,C8
	push	edx
	mov	al,[4CD8D8DE]
	nop	
	mov	bl,D4
	adc	eax,AED5AFEC
	inc	edi
	mov	esp,EF4B71FD
	push	es
	illegal	
	fimul	word ptr [edx+edx*4-21]
	dec	esi
	xchg	eax,edx
	dec	dword ptr [edx+edx*4-15]
	out	dx,al
	out	DE,al
	fcomp	st(0),st(0)
	out	dx,al
	illegal	
	fcomp	st(0),st(0)
	out	dx,al
	lock	
	illegal	
	fmul	dword ptr [ecx+7E16A027]
	enter	CB20,8F
	dec	esp
	nop	
	mov	ebx,D34C15D4
	dec	edi
	aam	15
	out	dx,al
	rcr	esi,cl
	fcomp	st(0),st(0)
	out	dx,al
	out	DF,al
	fcomp	st(0),st(0)
	out	dx,al
	in	eax,dx
	illegal	
	fsub	dword ptr [edx]
	les	eax,[edx+68]
	xchg	eax,edx
	dec	edi
	jnc	00401B8A
	fmul	dword ptr [edi-2D]
	mov	ebp,C80ECC8E
	push	edx
	rep	
	illegal	
	fdivr	dword ptr [esi+ecx+15]
	retf	
	xlat	
	or	byte ptr [ebx+ebp*8-12],11
	loop	00401BBD
	fmul	dword ptr [edi]
	pop	ebp
	test	al,46
	out	dx,al
	rcl	esi,D7
	xlat	
	enter	D120,C8
	and	bh,bl
	jno	00401C4D
	lock	
	fmul	st(0),st(0)
	jno	00401C12
	out	dx,ax
	retf	
	push	esp
	illegal	
	out	dx,al
	out	D7,al
	xlat	
	xlat	
	adc	esp,[esi+54DD4038]
	push	esi
	neg	al
	xlat	
	xlat	
	xlat	
	insd	
	illegal	
	out	dx,al
	pop	ebp
	illegal	
	xlat	
	xlat	
	cmp	al,FE
	pop	es
	cld	
	shl	[ebx+F9B3D3FC],cl
	push	ss
	cld	
	shl	[ebx+D8E007EE],cl
	fmul	dword ptr [ecx+62FC09C7]
	ror	[ebp-3F],cl
	xchg	eax,ecx
	lds	eax,[EE0EA414]
	out	DF,al
	fcomp	st(0),st(0)
	jc	00401C8A
	rcr	dword ptr es:[ecx],01
	cmp	eax,150E768C
	iret	
	xlat	
	inc	edx
	dec	esp
	adc	ah,[esi+edx*8]
	or	dword ptr [eax-54],7933E4E7
	out	dx,al
	pop	ebx
	illegal	
	fcom	st(0),st(5)
	add	eax,0D2F08EC
	mov	edx,D7D76F3E
	xlat	
	xlat	
	dec	eax
	xchg	eax,edx
	fld	tword ptr [edi+43]
	stosb	
	fild	qword ptr [eax+ecx*2-6E]
	fild	qword ptr [edi+0B]
	or	ecx,[ebx]
	or	ecx,[eax-6E]
	jcxz	00401CED
	or	ecx,[ebx]
	or	ecx,[ebx]
	dec	eax
	xchg	eax,edx
	out	EE,al
	cmpsb	
	illegal	
	xlat	
	xlat	
	sub	bl,[eax+B7652EF8]
	dec	ebx
	dec	esp
	jmp	00401CE8
	adc	ebx,edi
	test	[ecx+CB924C80],al
	lodsb	
	xchg	eax,edx
	ret	
	out	dx,al
	wait	
	loope	00401C7B
	fsub	st(0),st(6)
	xchg	eax,ebx
	sbb	[edx+edi],bh
	scasb	
	dec	esi
	mov	bl,bl
	dec	esp
	jpe	00401C7B
	movsb	
	push	cs
	out	dx,al
	fchs	
	fcomp	st(0),st(0)
	xchg	[ecx+ecx*8-2C],cl
	or	eax,39EE17A4
	illegal	
	fcom	dword ptr [esi]
	pop	ss
	shr	dh,01
	inc	esp
	illegal	
	fadd	dword ptr [edx+729B466B]
	push	6F878CFA
	dec	edi
	js	00401D4F
	imul	edi
	jcxz	00401CB5
	fsubr	dword ptr [edi+79]
	adc	esp,eax
	jmp	DBCA0C6E
	fcomp	st(0),st(0)
	fadd	dword ptr [edi]
	insd	
	illegal	
	out	dx,al
	cmpsd	
	illegal	
	fdivr	dword ptr [esi]
	shl	esp,01
	mov	[9CD4D062],al
	aam	5A
	iret	
	illegal	
	rcl	byte ptr [ecx+edx-2B],54
	out	dx,al
	illegal	
	int	03
	push	cs
	enter	F552,D9
	fcomp	st(0),st(0)
	out	dx,al
	ja	00401CED
	fcomp	st(0),st(0)
	movsb	
	sbb	bh,[ebp+F362D869]
	test	bh,ch
	mov	dh,E1
	fcomp	st(0),st(0)
	dec	esi
	xchg	eax,edx
	rep	
	fsub	dword ptr [edx-21]
	fsub	dword ptr [edx-0D]
	test	dh,ch
	push	esp
	fstp	st(0)
	fdiv	dword ptr [ecx]
	add	byte ptr [edi+4C73DD05],BA
	cmpsd	
	xlat	
	xlat	
	xlat	
	dec	esp
	jl	00401D08
	dec	esp
	test	bl,cl
	dec	esp
	retf	
	in	al,dx
	shr	dh,cl
	jns	00401D22
	fcomp	st(0),st(0)
	dec	esp
	xchg	eax,ecx
	mov	ebx,D8DFDCEE
	fmul	dword ptr [esi+44]
	rcl	byte ptr [eax+4A0755E3],01
	xchg	eax,edx
	iret	
	xchg	[ebp-28],ebp
	outsd	
	dec	edi
	js	00401DDA
	imul	edi
	mov	cl,E3
	fcomp	st(0),st(0)
	outsd	
	sbb	ecx,ebx
	adc	[edi+eax*4-12],esp
	call	0B18F652
	mov	eax,[DF5410C4]
	arpl	[eax+79],bx
	jl	00401D8D
	adc	eax,4C82D7D3
	jmp	00401D0A
	out	dx,al
	dec	eax
	illegal	
	fdivr	dword ptr [ecx+543D3327]
	jz	00401DEF
	cmp	al,56
	fidivr	word ptr [edi+ebp*8+52C8D623]
	pop	ebp
	illegal	
	fdivr	dword ptr [edi-04]
	ret	
	mov	bl,7F
	pop	ds
	aam	D7
	xlat	
	xlat	
	movsb	
	add	eax,EEEF4971
	pop	es
	illegal	
	fadd	dword ptr [ebx+A8750266]
	xor	al,C7
	adc	[edi-29],ch
	mov	eax,[9248D7D7]
	out	dx,ax
	outsd	
	xlat	
	mov	eax,[9248D7D7]
	rep	
	outsd	
	wait	
	in	al,4E
	ror	dword ptr [eax-6E],01
	jmp	00401E20
	xchg	eax,edx
	not	esp
	xchg	eax,edi
	wait	
	dec	esp
	pop	dword ptr [edi+EEFB8A4E]
	mov	fs,bx
	fcomp	st(0),st(0)
	inc	ebx
	mov	al,[85690CDA]
	popa	
	mul	dh
	shl	[ebx],cl
	cmpsd	
	rep	
	sbb	eax,F6DC024B
	illegal	
	neg	bl
	not	eax
	mov	bh,8D
	or	edi,ecx
	call	004023F7
	add	eax,40A4AB06
	mov	ah,cl
	xor	dh,ah
	neg	al
	add	ah,bh
	xor	eax,esi
	sub	ch,80
	xor	edx,esi
	jbe	00402BAA
	rep	
	ja	00402BAA
	inc	esi
	pop	esi
	popa	
	illegal	
	inc	esp
	into	
	add	bl,ah
	or	bl,bh
	or	bl,ch
	mov	esi,ecx
	add	eax,08
	or	esi,ebx
	or	ebx,eax
	xor	bl,al
	xor	esi,edx
	dec	edi
	jmp	00402594
	retf	DDF0
	or	byte ptr [ecx],02
	illegal	
	xor	ah,bl
	or	esi,edi
	inc	eax
	sub	eax,edi
	add	ecx,edi
	inc	edx
	or	cl,dl
	sub	edi,esi
	mov	esi,edx
	jo	004027A8
	jmp	00401E69
	mov	esi,0939810F
	add	[eax],al
	adc	[ebp+739D7A80],edx
	push	ebx
	dec	ebx
	sub	ebx,edx
	add	bh,bl
	xor	ebx,edx
	or	bl,dh
	neg	bl
	inc	edi
	js	0040226D
	rep	
	jge	00401E8B
	jns	0040226D
	jns	00401E9C
	inc	ebp
	sbb	eax,0ADF0369
	clc	
	xor	esi,edx
	mov	bh,bl
	xor	bl,al
	mov	bl,D7
	add	esi,eax
	jmp	00401E2D
	rcl	dword ptr [edi+54ED262F],01
	outsb	
	imul	byte ptr [ebx]
	sti	
	xor	cl,dh
	add	edx,eax
	add	eax,ecx
	or	edx,edi
	or	eax,edi
	add	ecx,edi
	xor	dl,dh
	add	ecx,edx
	jmp	00402AB7
	sub	dl,[8DF53913]
	and	al,04
	or	esi,edi
	neg	cl
	sub	ch,dh
	add	bl,cl
	or	ecx,edi
	or	ch,dh
	sub	ch,bh
	mov	cl,dh
	add	edx,0000000C
	call	00402996
	das	
	or	ecx,ecx
	adc	[edx-71],dh
	inc	esp
	and	al,DC
	mov	bl,56
	sub	dl,al
	mov	dh,ch
	inc	eax
	call	00401EFE
	mov	bh,F1
	add	edx,eax
	jz	0040255F
	jno	00401F0A
	jnz	0040255F
	leave	
	dec	edi
	loope	00401EF7
	xchg	eax,esp
	pop	dword ptr [esp-20]
	inc	edx
	neg	cl
	add	edi,esi
	sub	dh,bh
	sub	dl,bh
	sub	edi,esi
	jmp	00402511
	loopne	00401F63
	ret	
	or	al,B6
	pop	es
	shr	byte ptr [edx],01
	sub	edx,edi
	add	dl,al
	or	dh,bl
	add	edx,ebx
	sub	dh,ah
	add	dh,ah
	neg	dl
	xor	edx,ebx
	add	edx,esi
	call	0040252C
	insd	
	xor	bl,[bx+di+8F51]
	inc	esp
	and	al,EC
	mov	ah,dl
	dec	edi
	inc	edx
	add	edx,esi
	xor	al,ch
	call	0040218D
	mov	dl,85
	push	ebx
	mov	eax,D133D02A
	sub	dl,ch
	xor	edx,eax
	add	edx,ecx
	or	edx,edi
	or	dh,cl
	jmp	00401F31
	lahf	
	in	al,51
	cmpsd	
	xor	edx,eax
	mov	bh,ah
	xor	bl,ah
	add	edi,ecx
	add	al,ch
	mov	bh,E9
	xor	ebx,eax
	xor	al,ah
	shl	ecx,0F
	jmp	00401F94
	jnc	00401FA7
	mov	cl,BD
	rcr	esi,01
	mov	bh,FE
	mov	bl,dh
	sub	edx,esi
	mov	edi,edx
	mov	edi,edx
	sub	ebx,esi
	xor	ah,bh
	sub	ah,bl
	xor	dh,cl
	sub	eax,edi
	mov	al,C0
	call	0040291E
	cld	
	pop	ecx
	adc	al,43
	sahf	
	jmp	far C432:C1D8
	add	dl,dh
	add	eax,ebx
	xor	edx,eax
	mov	al,bl
	add	eax,ebx
	mov	dl,bh
	mov	[ebx],cl
	xor	ah,bh
	sub	edx,esi
	call	004027D7
	pop	ss
	and	cl,bl
	or	eax,89D55391
	or	al,24
	mov	bx,bx
	pop	ecx
	mov	al,ah
	not	ch
	xor	dl,al
	dec	eax
	neg	al
	sub	eax,edx
	mov	al,bl
	jmp	00402949
	illegal	
	pop	esi
	in	al,0E
	fadd	dword ptr [edi]
	aaa	
	pop	dword ptr [esp-20]
	push	dword ptr [edx+08]
	neg	bl
	mov	bh,al
	mov	bl,ah
	sub	bh,ch
	add	bh,dh
	dec	edi
	sub	bh,al
	jz	004023D6
	xchg	bh,bh
	jnz	004023D6
	sbb	eax,87B26312
	add	al,24
	mov	ecx,ecx
	pop	eax
	mov	dh,B7
	or	ch,cl
	mov	edx,edi
	dec	edx
	inc	ecx
	inc	eax
	jmp	004022BC
	push	85
	pop	ecx
	loop	00401FE3
	mov	edx,02FB335E
	fidiv	dword ptr [edi+33FE32AE]
	repne	
	inc	ebx
	call	004028E7
	jg	00402013
	mov	dl,26
	add	al,76
	les	esp,[esi]
	neg	dh
	xor	dh,bh
	mov	bl,dh
	inc	edx
	mov	bl,9C
	add	dh,bh
	push	00
	or	bl,ch
	add	dl,dh
	mov	bl,al
	js	004027BE
	xchg	dh,dh
	jns	004027BE
	mov	[80359C0F],eax
	mov	esi,8A243489
	shl	byte ptr [esi-75],D2
	pop	esi
	neg	al
	inc	edx
	dec	eax
	inc	esi
	dec	edx
	call	00402415
	add	al,3F
	mov	edi,D17EE578
	xor	al,[edi+87F32414]
	neg	byte ptr [edx+48]
	or	edx,edi
	dec	eax
	dec	eax
	sub	edx,ecx
	call	00402BC2
	xor	[F80B44B4],ebx
	mov	bl,ch
	dec	ebx
	movzx	ebx,ah
	inc	edi
	sub	edi,ecx
	sub	esi,edx
	sub	edi,edx
	mov	edi,edx
	shr	eax,10
	call	004024EA
	pusha	
	pop	dword ptr [edx+DA27F8B7]
	mov	ebx,ecx
	inc	ebx
	sub	edi,ecx
	neg	bl
	dec	edi
	neg	bl
	or	bl,bh
	add	bh,dh
	mov	bl,16
	dec	esi
	jmp	00402A1E
	push	esp
	mov	ecx,36D0AE65
	out	02,al
	xlat	
	neg	dl
	neg	dl
	mov	cl,ch
	xor	al,cl
	neg	ah
	sub	edx,ebx
	xor	al,bl
	dec	edx
	sub	dh,cl
	jc	00401FB5
	xchg	dx,dx
	mov	dx,dx
	jnc	00401FB5
	cmp	al,01
	fidivr	word ptr [esi]
	mov	ah,71
	cwde	
	fsave	word ptr [edi+33D10BEF]
	illegal	
	ror	byte ptr [edi+0B],01
	ror	dword ptr [edx+0F4F58FA],01
	xor	dl,01
	add	[eax],al
	xchg	ebx,ebx
	mov	cl,cl
	jnc	0040231A
	shl	byte ptr [esi],01
	stosd	
	xchg	eax,edx
	inc	edi
	sti	
	pop	dword ptr [esp-14]
	xor	ch,al
	or	ecx,edx
	mov	dh,9B
	add	eax,ecx
	xor	edi,esi
	add	ah,ch
	neg	ch
	jbe	00402ADE
	jmp	00402156
	jmp	far 870F:0073
	or	byte ptr [ecx],00
	add	[edi],ch
	adc	[edi+73],bl
	ret	
	pop	ebp
	int	8B
	fimul	dword ptr [eax+32]
	clc	
	sub	dl,dh
	mov	dh,AB
	mov	dl,A8
	neg	dl
	mov	ebx,edx
	inc	eax
	mov	bh,1C
	jz	00402B8D
	rep	
	xchg	edx,edx
	jnz	00402B8D
	xor	ch,dh
	dec	ebx
	scasb	
	or	edi,[eax-2E]
	xchg	[esp],ecx
	rep	
	lea	cx,[ecx]
	pop	ecx
	inc	eax
	xor	eax,esi
	inc	edx
	mov	eax,esi
	mov	edx,ebx
	jmp	00402769
	push	edi
	jns	004021A9
	cwde	
	mov	al,B5
	insb	
	xor	esi,edi
	sub	edx,ecx
	mov	ah,dh
	sub	eax,edi
	mov	esi,eax
	neg	ah
	dec	edi
	pop	esi
	sub	eax,ebx
	call	00402138
	outsd	
	cmp	ecx,[ebp-17]
	cmpsb	
	or	[edi-23],ebp
	lea	esp,[esp+04]
	or	bl,dl
	sub	bl,bh
	mov	esi,edx
	sub	bl,dl
	add	bl,al
	dec	ebx
	jmp	00402680
	inc	edi
	mov	esp,ds:[ecx]
	fdivr	double ptr [eax+8A487B24]
	lds	eax,[edx]
	hlt	
	xor	eax,edi
	sub	dh,bh
	or	edx,esi
	xor	edx,ebx
	xor	edx,eax
	call	00401FD6
	sub	al,83
	adc	dh,dh
	sub	dl,dh
	mov	eax,edi
	sub	dl,dh
	mov	al,bh
	mov	edx,ecx
	inc	eax
	sub	eax,ebx
	or	eax,edx
	dec	eax
	call	00401F4D
	fdivp	st(0),st(0)
	pop	ebp
	loop	0040223F
	illegal	
	add	dh,cl
	dec	edx
	or	al,ah
	mov	dh,cl
	xor	dh,bl
	mov	edx,eax
	jl	004029BB
	repne	
	jmp	0040222E
	jpo	0040223E
	lea	eax,[edi+36000007]
	pop	ds
	sub	dh,al
	jz	004022B8
	add	al,ch
	dec	eax
	inc	eax
	sub	edi,ebx
	xor	esi,eax
	mov	al,dh
	or	edx,eax
	jmp	00402165
	test	[ebp+3839EFD1],ah
	cwde	
	add	ecx,edi
	sub	edi,ebx
	mov	dl,43
	add	dl,cl
	add	edi,ecx
	or	edx,esi
	or	ecx,edx
	call	004025C1
	or	al,5A
	sub	bl,dh
	mul	dword ptr [FB8B71EB]
	mov	bl,85
	sub	edi,ebx
	or	ebx,ecx
	or	esi,ecx
	neg	bl
	or	esi,ebx
	sub	bl,bh
	xor	bl,dh
	jmp	0040288D
	movsb	
	or	eax,F04B594D
	inc	edx
	or	edx,esi
	mov	bh,B2
	mov	edx,edi
	sub	ecx,edi
	xor	ecx,eax
	jmp	00401E4B
	outsd	
	mov	eax,619BD3C4
	mov	esi,ecx
	mov	bl,E9
	add	eax,ecx
	mov	ebx,eax
	xor	bl,bh
	or	esi,ebx
	neg	bh
	or	ebx,esi
	inc	ebx
	call	004021C6
	rcr	dword ptr [ebx+65220BDE],81
	jmp	004022CA
	add	al,00
	add	[edx],dh
	cmc	
	xor	edx,edi
	or	eax,ebx
	sub	ch,bh
	inc	ecx
	sub	edx,esi
	xor	ecx,ebx
	jmp	0040242E
	sbb	al,40
	xchg	eax,edx
	rcr	[eax-5B],cl
	inc	ebx
	sub	edi,ecx
	or	edi,ebx
	push	dword ptr [ecx]
	sub	bh,ch
	or	dl,bh
	add	esi,edi
	call	00402636
	lahf	
	mov	ebp,3ECF6DFC
	push	cs
	lea	esp,ss:[esp+04]
	dec	ebx
	add	dh,dl
	mov	ebx,eax
	dec	ecx
	sub	dh,bl
	mov	al,dh
	mov	dh,al
	or	eax,esi
	jo	004021A7
	lea	si,[esi]
	jno	004021A7
	shl	byte ptr [ebx+339A6D7A],01
	sti	
	sub	edi,edx
	xor	dl,bl
	add	dh,bh
	or	esi,ebx
	sub	edi,edx
	sub	bh,ch
	js	00402715
	xchg	ah,ah
	jns	00402715
	and	dh,[edx+ebp-5B]
	mov	esp,0424648D
	or	ecx,esi
	inc	eax
	add	dh,al
	add	ecx,eax
	mov	al,F5
	inc	eax
	neg	al
	mov	ch,EF
	or	ecx,ebx
	jmp	00402577
	repne	
	sub	esi,[edi+D0034A80]
	neg	ch
	neg	al
	mov	ecx,ebx
	dec	eax
	sub	dl,ch
	or	ch,dl
	call	004026F6
	nop	
	out	9C,al
	jz	0040238D
	inc	edi
	mov	edi,esi
	add	bh,al
	or	bl,cl
	sub	bl,dh
	inc	esi
	dec	ebx
	mov	esi,ebx
	pop	edx
	jpe	00402C1B
	repne	
	lea	eax,[eax]
	jpo	00402C1B
	pusha	
	hlt	
	jcxz	0040235A
	mov	ch,0B
	repne	
	shr	ecx,0F
	sub	edx,edi
	xor	esi,edx
	mov	al,CB
	sub	dl,ch
	mov	dl,4B
	jmp	00401F77
	sbb	bl,[eax]
	int	73
	sbb	[eax+0424648D],esi
	sub	edx,esi
	sub	dl,al
	sub	dl,al
	xor	edx,edi
	mov	dh,al
	mov	dh,bh
	mov	dl,ch
	jle	00402600
	push	cx
	pop	cx
	jg	00402600
	adc	al,0C
	pop	ebx
	pop	ebp
	illegal	
	mov	ebx,edx
	mov	bh,75
	xor	edi,ecx
	or	ebx,ecx
	lea	eax,[eax+78]
	add	edi,ebx
	mov	bh,ch
	xor	bl,bh
	mov	esi,ebx
	mov	bh,dh
	call	004026A1
	aas	
	mov	esp,edi
	push	ds
	sbb	[ecx+esi+0424648D],edi
	add	ebx,esi
	or	edi,ecx
	xor	bl,cl
	mov	edi,ebx
	or	edi,edx
	or	esi,eax
	inc	edi
	call	004029D5
	sbb	ebx,ebx
	xchg	eax,ebx
	mov	ebx,E904CCE7
	mov	[esp],ecx
	lea	eax,[eax]
	pop	ecx
	add	dh,dl
	mov	edx,ebx
	add	ah,cl
	jmp	00402214
	pop	ebx
	mov	al,53
	movsd	
	push	esp
	push	E802A95B
	or	al,dl
	sub	ch,cl
	neg	cl
	xor	dl,cl
	sub	ah,al
	xor	dl,al
	jmp	00401EAE
	sub	[ebx+ebp*2],bh
	pusha	
	and	eax,0424648D
	mov	eax,edx
	dec	ecx
	inc	eax
	push	40
	dec	ecx
	jle	0040282F
	jmp	0040245D
	and	eax,03CC8F0F
	add	[eax],al
	add	al,2A
	dec	eax
	dec	edx
	jcxz	004023F5
	lock	
	add	edi,edx
	dec	ebx
	mov	ebx,edx
	or	bh,ch
	mov	edi,eax
	mov	bl,53
	neg	bl
	add	bh,cl
	add	edx,ecx
	jmp	00402485
	xor	dh,[9E822F8D]
	rep	
	sub	bh,al
	mov	ch,bl
	xor	ch,dl
	or	bh,cl
	dec	edi
	or	bl,cl
	xor	ecx,ebx
	call	00402547
	iret	
	add	al,ED
	add	byte ptr [ebx],DF
	sub	eax,ebx
	mov	dl,bh
	sub	al,cl
	or	ah,cl
	neg	al
	add	ebx,eax
	neg	dl
	dec	esi
	mov	ah,ch
	jmp	00402392
	cmp	eax,8D0DADCE
	and	al,04
	sub	eax,ebx
	add	ch,A8
	dec	edx
	sub	eax,ecx
	mov	eax,esi
	sub	dh,ah
	jmp	004021E2
	int	03
	rep	
	inc	ebp
	xchg	eax,edi
	pop	ebx
	mov	ch,25
	or	ebx,edx
	add	bh,dh
	add	edx,ecx
	add	edi,eax
	add	bh,bl
	call	004022F4
	sub	eax,[ecx+69D932A2]
	popf	
	jnz	00402478
	and	al,04
	xor	edi,ebx
	or	esi,ebx
	dec	edi
	xor	edi,ecx
	add	edi,esi
	add	eax,edx
	sub	esi,edx
	sub	edi,eax
	mov	edi,edx
	jbe	004026DC
	rep	
	ja	004026DC
	adc	al,33
	imul	edx,[ecx],1C
	mov	edx,ebx
	push	00003000
	inc	edi
	mov	ah,dl
	xor	dl,bl
	or	ecx,edx
	mov	edi,edx
	add	edi,eax
	call	00401EEE
	illegal	
	xchg	eax,edi
	push	ss
	lea	esp,[esp+04]
	sub	edx,ecx
	sub	eax,92CA795A
	dec	edx
	mov	dl,bh
	xor	dl,ch
	call	004023AC
	pop	esp
	or	bh,dl
	das	
	outsb	
	pop	dword ptr [esp-18]
	or	bl,al
	neg	bh
	or	cl,ah
	dec	esi
	or	cl,dl
	call	00401ECA
	cmp	bl,[eax+5F7E88FC]
	inc	esi
	neg	cl
	add	ch,ah
	dec	edi
	add	eax,ecx
	inc	edx
	add	al,bl
	xor	esi,ecx
	inc	esi
	inc	esi
	jmp	00402873
	add	[ebx-3E],dl
	dec	ebp
	dec	ecx
	mov	ch,[esi]
	inc	eax
	or	al,ah
	xor	edx,esi
	or	dl,bh
	or	ah,bh
	or	edx,ecx
	add	dl,dh
	jmp	00401E09
	pop	edi
	jpo	0040253D
	xor	eax,AB7CF342
	neg	bl
	mov	bl,bh
	add	bl,al
	mov	bl,72
	dec	edi
	mov	eax,[eax]
	mov	bh,bl
	mov	bh,ah
	add	ebx,esi
	or	bl,dh
	jpe	00402037
	jmp	004025B2
	xchg	dl,dl
	jpo	00402037
	dec	edx
	daa	
	movsb	
	and	al,A6
	scasb	
	jl	00402551
	inc	esp
	and	al,E8
	mov	esi,ecx
	mov	dh,bh
	mov	dl,3A
	add	edx,ebx
	xor	dl,bl
	neg	bh
	jo	0040284D
	xchg	cx,cx
	jno	0040284D
	sahf	
	loope	004025A7
	mov	dword ptr [ecx+4EC603F5],2AF1334B
	illegal	
	xor	cl,dl
	xor	dl,cl
	neg	dl
	call	00402446
	sbb	ah,[edi+0D]
	adc	[ebp-6F],bl
	aam	33
	xlat	
	or	edx,edi
	or	edx,ecx
	xor	edx,eax
	add	edx,edi
	add	dh,dl
	mov	dh,9F
	add	edx,esi
	cmp	eax,6D3586A6
	jnz	00402B74
	jc	00402B4A
	push	bx
	pop	bx
	xchg	bx,bx
	jnc	00402B4A
	push	ecx
	daa	
	rcl	byte ptr [edx],9D
	rep	
	out	dx,ax
	xchg	[esp],eax
	push	ebx
	pop	ebx
	pop	eax
	mov	ebx,edx
	or	dh,al
	xor	al,ch
	inc	esi
	mov	bl,cl
	inc	ebx
	add	dl,bh
	jmp	00402113
	pop	edi
	inc	ecx
	mov	bl,[edx+0A]
	inc	byte ptr [ebx]
	rep	
	xor	bh,cl
	or	bl,cl
	add	ebx,edx
	mov	eax,ecx
	or	bl,al
	jmp	00401E76
	illegal	
	sbb	al,00
	in	al,B8
	jmp	0040269E
	ret	E02A
	dec	eax
	or	eax,edi
	or	al,ch
	sub	dl,al
	call	00402076
	test	[esi+75332BBB],ebp
	mov	edi,ecx
	sub	bh,cl
	push	dword ptr [eax+10]
	dec	esi
	mov	esi,eax
	or	esi,eax
	neg	bh
	xor	esi,ebx
	jc	00402A42
	rep	
	jnc	00402A42
	xchg	eax,edx
	mov	al,63
	jz	0040262B
	add	al,24
	rep	
	pop	eax
	add	edi,edx
	xor	bh,dl
	or	bh,bl
	jmp	00401E96
	push	esp
	xor	[ecx],al
	cmp	[24448F6C],bh
	fdiv	st(0),st(6)
	fmul	double ptr [edx+32F803F3]
	repne	
	xor	al,ah
	neg	ah
	mov	dh,B3
	jpe	00402784
	mov	ecx,ecx
	jpo	00402784
	in	al,47
	sbb	[esi],eax
	dec	esi
	or	edi,edx
	or	edi,ecx
	add	eax,ebx
	inc	ebx
	dec	ebx
	sub	bl,cl
	or	bl,dh
	call	00402A66
	lea	ebx,[edx+4E]
	or	cl,[edi+8FC0C5F6]
	inc	esp
	and	al,E0
	neg	cl
	or	ch,dh
	add	ebx,0000040B
	or	eax,esi
	dec	edi
	mov	ecx,edx
	sub	ah,al
	call	004026B8
	xchg	eax,esp
	retf	CDD6
	add	al,[ebx]
	stc	
	or	bh,bl
	sub	bh,cl
	movzx	edx,al
	neg	bh
	sub	ebx,edi
	dec	esi
	dec	ebx
	or	edi,ecx
	jz	00402B26
	mov	ebx,ebx
	jnz	00402B26
	illegal	
	jcxz	00402731
	mov	ebp,24048990
	jmp	00402742
	pop	eax
	xor	ch,cl
	add	eax,edi
	add	cl,dl
	sub	edi,esi
	mov	cl,19
	inc	edi
	jo	00402358
	jmp	0040275A
	add	bh,[eax+eax+0F]
	xor	esi,F7FFFFFB
	cld	
	sahf	
	stc	
	push	cs
	mov	dl,cl
	neg	al
	or	edx,esi
	add	eax,ebx
	inc	eax
	mov	edx,ecx
	neg	dl
	mov	eax,edx
	mov	eax,edi
	sub	edx,ecx
	jmp	00401F63
	adc	eax,DFADE1CB
	or	edx,ecx
	neg	al
	add	edx,ecx
	dec	eax
	mov	edi,esi
	add	edx,edi
	or	ecx,eax
	push	ebx
	jc	004028FF
	mov	si,si
	xchg	edi,edi
	jnc	004028FF
	sub	al,06
	jnz	00402763
	mov	ebx,C70BDAF6
	neg	ah
	ret	
	sub	dl,bh
	neg	dl
	call	00402960
	jz	00402820
	inc	edi
	mov	bl,A4
	push	ecx
	add	ch,cl
	sub	ch,cl
	mov	ecx,edi
	sub	dl,dh
	mov	dh,B0
	add	ch,cl
	xor	bl,bh
	mov	ecx,eax
	mov	dl,F7
	jmp	0040280A
	or	[edx+5F],cl
	fmul	dword ptr [edx-79]
	sbb	al,24
	rep	
	pop	ebx
	dec	edx
	add	eax,edx
	dec	eax
	xor	dh,bh
	jmp	0040266A
	jl	0040280D
	mov	si,ss
	illegal	
	xor	dl,bl
	sub	dl,bh
	mov	edx,esi
	neg	al
	sub	edx,ecx
	add	edx,ebx
	js	004020E6
	mov	eax,eax
	jns	004020E6
	wait	
	push	E93259C0
	or	esi,ecx
	xor	ecx,esi
	sub	ch,bl
	or	ch,bl
	call	eax
	or	edx,esi
	inc	ecx
	jpe	00402252
	mov	ecx,ecx
	jpo	00402252
	lock	
	nop	
	shl	ebp,01
	inc	ebp
	dec	edi
	cmp	eax,FE2BDE0A
	add	bh,bl
	mov	edi,ecx
	add	esi,edx
	add	dl,bl
	or	ebx,esi
	sub	bl,dl
	neg	ch
	call	00401F15
	cdq	
	jg	00402809
	cwde	
	xchg	eax,ecx
	illegal	
	test	eax,8946D002
	inc	esp
	and	al,F8
	xor	edi,edx
	mov	bl,FF
	sub	ecx,edx
	jle	004024D1
	mov	ebx,ebx
	lea	cx,[ecx]
	jg	004024D1
	adc	bl,[ecx]
	jl	004028DB
	illegal	
	illegal	
	jcxz	0040289E
	jmp	004028A8
	jmp	D86C1BA6
	sub	bh,al
	sub	cl,ch
	pop	ecx
	dec	eax
	jmp	0040223A
	sub	al,F8
	jle	004028DF
	jcxz	004028FE
	sbb	al,33
	repne	
	inc	esi
	add	eax,[eax+3C]
	or	edi,eax
	sub	bl,dh
	mov	esi,ecx
	or	esi,ebx
	sub	bl,al
	jmp	004020C9
	das	
	xor	esp,[3352F7FE]
	add	bh,ch
	mov	bh,ah
	sub	bh,cl
	inc	ebx
	xor	bl,dl
	inc	edi
	mov	eax,[edx]
	jo	00402C3C
	lea	cx,[ecx]
	xchg	cl,cl
	jno	00402C3C
	mov	esp,9F28BC0E
	rol	dl,8B
	ror	dword ptr [edx],01
	rol	[eax+48],cl
	sub	dl,bh
	mov	eax,ecx
	neg	dh
	xor	edx,ecx
	call	00402092
	add	ebp,[ecx+FA2A2749]
	sub	al,87
	cmp	al,24
	xchg	ecx,ecx
	pop	edi
	sub	bh,al
	mov	ebx,eax
	inc	ebx
	jmp	004022A0
	pop	ecx
	cmpsb	
	popa	
	rcl	byte ptr [esi-67],95
	jmp	00402933
	sti	
	xor	dl,al
	mov	ch,dl
	sub	cl,dl
	or	eax,ecx
	mov	eax,esi
	add	eax,edx
	mov	edi,ecx
	add	ch,dh
	dec	edi
	call	0040201C
	cmp	esi,[ebp+90CEAC48]
	movsb	
	lea	esp,[esp+04]
	xor	edi,eax
	neg	al
	xor	ah,bl
	neg	dh
	mov	bh,D3
	xor	dl,dh
	jle	004022DA
	jmp	0040293A
	sub	dh,dl
	jg	004022DA
	add	[2A35E24B],ecx
	adc	ch,cl
	add	ah,dl
	add	dh,bl
	mov	edx,ebx
	xor	dl,bl
	add	edx,eax
	mov	ah,0F
	jmp	004027EC
	std	
	inc	eax
	loopne	0040298F
	adc	bh,[ebp-71]
	inc	esp
	and	al,D8
	sub	edi,edx
	mov	al,D0
	add	dh,bl
	or	al,bh
	neg	dh
	call	00402BE5
	lea	edi,ebx
	int	03
	mov	bh,24
	adc	ah,ah
	and	eax,CD8AC733
	sub	edx,ebx
	neg	cl
	mov	al,6A
	or	ecx,edx
	add	ecx,esi
	neg	dh
	mov	dl,72
	jmp	00402B74
	xor	ch,ch
	les	eax,[edi+5BF2241C]
	sub	edi,eax
	sub	ebx,esi
	xor	cl,ah
	mov	bh,FE
	jbe	004028A9
	jpe	004029AB
	lea	edx,[edx]
	ja	004028A9
	pop	edx
	test	al,7F
	push	ebx
	push	esp
	pushf	
	shl	dword ptr [esi+33],D1
	mov	edx,edi
	mov	dh,ch
	inc	ebx
	xor	dl,ch
	or	eax,edx
	or	eax,edx
	dec	edx
	add	dl,ah
	jmp	004021FB
	in	al,dx
	dec	eax
	push	cs
	or	eax,E024448F
	neg	bl
	add	bl,bh
	or	bl,ah
	mov	bh,03
	neg	bl
	or	edi,eax
	jc	00402AFD
	jmp	004029F0
	jmp	004029F5
	jnc	00402AFD
	lea	esi,[eax+28AAC2DF]
	cld	
	mov	eax,[E102F48A]
	sub	ah,bl
	mov	edx,eax
	mov	al,80
	xor	al,bh
	or	ah,cl
	dec	edx
	inc	edx
	call	004024B7
	illegal	
	outsd	
	retf	
	jg	00402A73
	mov	bl,51
	mov	ebx,ecx
	sub	bh,bl
	or	edi,edx
	lea	edx,[eax+000000F8]
	sub	edi,eax
	sub	bl,dh
	xor	ebx,edi
	jo	00402AA5
	repne	
	xchg	di,di
	jno	00402AA5
	illegal	
	movsd	
	js	00402A40
	add	[esi+edi-4D],bl
	mov	[DF8B57B3],al
	add	bh,ch
	sub	ebx,ecx
	add	ebx,esi
	jle	00402370
	xchg	ebx,ebx
	mov	ecx,ecx
	jg	00402370
	and	eax,BCA2F660
	les	ebp,esi
	daa	
	lea	esp,[esp+04]
	dec	ebx
	inc	edi
	sub	bh,al
	mov	bh,2F
	sub	bh,al
	sub	bl,ah
	jbe	00402BF6
	repne	
	ja	00402BF6
	pusha	
	clc	
	cmp	al,B1
	xchg	eax,ecx
	jz	00402ABA
	illegal	
	push	es
	or	bh,ah
	inc	esi
	or	ebx,esi
	xor	esi,ecx
	xor	edi,eax
	add	bl,cl
	neg	bl
	sub	ebx,edx
	call	00401FF6
	sahf	
	cmp	[edx+4B346645],eax
	or	esi,edi
	or	edi,eax
	mov	bl,bh
	or	bh,al
	neg	bh
	inc	edi
	jmp	00402A87
	dec	esp
	out	52,al
	lahf	
	or	al,dh
	xor	eax,ecx
	add	edx,esi
	add	edi,edx
	xor	edi,eax
	add	al,dh
	mov	edi,3938B998
	jl	004028CD
	mov	dx,dx
	jg	00402AD3
	jge	004028CD
	fidivr	dword ptr [eax-26]
	test	al,FE
	inc	eax
	sub	dl,al
	sub	eax,edi
	xor	al,bh
	mov	al,ch
	neg	ch
	add	edx,ebx
	sub	ah,bh
	sub	edi,ecx
	xor	dh,bh
	call	0040273A
	mov	[0EBC2AAF],eax
	mov	bh,E2
	or	eax,eax
	jnz	00402B91
	sub	edi,ecx
	xor	ebx,ecx
	or	bh,ch
	mov	esi,edx
	add	bl,al
	sub	bl,bh
	jo	00402651
	push	eax
	pop	eax
	jno	00402651
	adc	ecx,[ebp-6C]
	mov	ecx,8A59CD2E
	fadd	dword ptr [ebx]
	fdivrp	st(6),st(0)
	fld	tword ptr [edx]
	fldcw	word ptr [ebx]
	dec	byte ptr [ebx+71880FF8]
	cmc	
	illegal	
	mov	dh,dh
	xchg	di,di
	jns	004020A9
	mov	dword ptr [edx-33],7E3540FD
	xor	ecx,esi
	mov	ecx,eax
	neg	ch
	sub	ch,ah
	or	al,bl
	or	ebx,edi
	add	cl,ah
	add	dh,ch
	jpe	0040228A
	push	ax
	pop	ax
	push	di
	pop	di
	jpo	0040228A
	push	eax
	idiv	dword ptr fs:[esi+E72A59C3]
	mov	cl,80
	add	eax,ebx
	add	al,ch
	neg	ch
	mov	dl,bl
	xor	ecx,ebx
	mov	ah,D4
	call	0040233B
	xor	[eax],esp
	mov	sp,ss
	sub	edx,eax
	mov	dl,1D
	dec	ecx
	add	eax,edi
	dec	ebx
	sub	ebx,edx
	inc	ebx
	mov	edx,eax
	add	dh,bh
	sub	dh,ah
	jmp	0040249B
	mov	eax,[82D52EC3]
	into	
	into	
	neg	ah
	sub	dl,dh
	sub	al,ch
	mov	dl,ah
	sub	al,bh
	add	eax,edi
	jmp	00402A03
	adc	byte ptr [edx+3E],25
	illegal	
	and	eax,0424648D
	xor	dh,ch
	or	dl,ch
	xor	edi,3938B53A
	or	ah,al
	sub	ch,dl
	mov	eax,ebx
	xor	ecx,edi
	jmp	0040297B
	loope	00402C06
	pop	edi
	test	eax,F2A893EE
	lea	esp,[esp+04]
	dec	edx
	mov	eax,ebx
	add	cl,dh
	sub	edx,eax
	mov	cl,8D
	xor	ah,bh
	mov	ebx,edi
	xor	eax,FFFFFEC8
	neg	bh
	mov	bl,dh
	mov	bl,bh
	sub	edi,ebx
	or	bl,ch
	jpe	00401DF2
	lea	dx,[edx]
	repne	
	jpo	00401DF2
	dec	esi
	push	esp
	into	
	or	cl,[esi+32F90BA3]
	illegal	
	fdecstp	st(6),st(0)
	illegal	
	stc	
	sub	bl,al
	add	ebx,edx
	jz	00402469
	repne	
	jnz	00402469
	popf	
	xor	bh,ch
	xor	dword ptr [edx+02CD32D6],CC
	or	esi,eax
	add	bl,ch
	sub	ch,cl
	inc	ebx
	neg	dh
	xor	dh,bl
	xor	edx,esi
	jmp	0040204F
	sahf	
	imul	dword ptr [edi]
	retf	
	push	esp
	movsb	
	pop	ecx
	push	edx
	add	[eax],al
	add	[eax],al
	add	[eax],al
	add	[eax],al
	add	[eax],al
	add	[eax],al
	add	[eax],al
	add	[eax],al
	add	[eax],al
	add	[eax],al
	add	[eax],al
	add	[eax],al
	add	[eax],al
	add	[eax],al
	add	[eax],al
	add	[eax],al
	add	[eax],al
	add	[eax],al
	add	[eax],al
	add	[eax],al
	add	[eax],al
	add	[eax],al
	add	[eax],al
	add	[eax],al
	add	[eax],al
	add	[eax],al
	add	[eax],al
	add	[eax],al
	add	[eax],al
	add	[eax],al
	add	[eax],al
	add	[eax],al
	add	[eax],al
	add	[eax],al
	add	[eax],al
	add	[eax],al
	add	[eax],al
	add	[eax],al
	add	[eax],al
	add	[eax],al
	add	[eax],al
	add	[eax],al
	add	[eax],al
	add	[eax],al
	add	[eax],al
	add	[eax],al
	add	[eax],al
	add	[eax],al
	add	[eax],al
	add	[eax],al
	add	[eax],al
	add	[eax],al
	add	[eax],al
	add	[eax],al
	add	[eax],al
	add	[eax],al
	add	[eax],al
	add	[eax],al
	add	[eax],al
	add	[eax],al
	add	[eax],al
	add	[eax],al
	add	[eax],al
	add	[eax],al
	add	[eax],al
	add	[eax],al
	add	[eax],al
	add	[eax],al
	add	[eax],al
	add	[eax],al
	add	[eax],al
	add	[eax],al
	add	[eax],al
	add	[eax],al
	add	[eax],al
	add	[eax],al
	add	[eax],al
	add	[eax],al
	add	[eax],al
	add	[eax],al
	add	[eax],al
	add	[eax],al
	add	[eax],al
	add	[eax],al
	add	[eax],al
	add	[eax],al
	add	[eax],al
	add	[eax],al
	add	[eax],al
	add	[eax],al
	add	[eax],al
	add	[eax],al
	add	[eax],al
	add	[eax],al
	add	[eax],al
	add	[eax],al
	add	[eax],al
	add	[eax],al
	add	[eax],al
	add	[eax],al
	add	[eax],al
	add	[eax],al
	add	[eax],al
	add	[eax],al
	add	[eax],al
	add	[eax],al
	add	[eax],al
	add	[eax],al
	add	[eax],al
	add	[eax],al
	add	[eax],al
	add	[eax],al
	add	[eax],al
	add	[eax],al
	add	[eax],al
	add	[eax],al
	add	[eax],al
	add	[eax],al
	add	[eax],al
	add	[eax],al
	add	[eax],al
	add	[eax],al
	add	[eax],al
	add	[eax],al
	add	[eax],al
	add	[eax],al
	add	[eax],al
	add	[eax],al
	add	[eax],al
	add	[eax],al
	add	[eax],al
	add	[eax],al
	add	[eax],al
	add	[eax],al
	add	[eax],al
	add	[eax],al
	add	[eax],al
	add	[eax],al
	add	[eax],al
	add	[eax],al
	add	[eax],al
	add	[eax],al
	add	[eax],al
	add	[eax],al
	add	[eax],al
	add	[eax],al
	add	[eax],al
	add	[eax],al
	add	[eax],al
	add	[eax],al
	add	[eax],al
	add	[eax],al
	add	[eax],al
	add	[eax],al
	add	[eax],al
	add	[eax],al
	add	[eax],al
	add	[eax],al
	add	[eax],al
	add	[eax],al
	add	[eax],al
	add	[eax],al
	add	[eax],al
	add	[eax],al
	add	[eax],al
	add	[eax],al
	add	[eax],al
	add	[eax],al
	add	[eax],al
	add	[eax],al
	add	[eax],al
	add	[eax],al
	add	[eax],al
	add	[eax],al
	add	[eax],al
	add	[eax],al
	add	[eax],al
	add	[eax],al
	add	[eax],al
	add	[eax],al
	add	[eax],al
	add	[eax],al
	add	[eax],al
	add	[eax],al
	add	[eax],al
	add	[eax],al
	add	[eax],al
	add	[eax],al
	add	[eax],al
	add	[eax],al
	add	[eax],al
	add	[eax],al
	add	[eax],al
	add	[eax],al
	add	[eax],al
	add	[eax],al
	add	[eax],al
	add	[eax],al
	add	[eax],al
	add	[eax],al
	add	[eax],al
	add	[eax],al
	add	[eax],al
	add	[eax],al
	add	[eax],al
	add	[eax],al
	add	[eax],al
	add	[eax],al
	add	[eax],al
	add	[eax],al
	add	[eax],al
	add	[eax],al
	add	[eax],al
	add	[eax],al
	add	[eax],al
	add	[eax],al
	add	[eax],al
	add	[eax],al
	add	[eax],al
	add	[eax],al
	add	[eax],al
	add	[eax],al
	add	[eax],al
	add	[eax],al
	add	[eax],al
	add	[eax],al
	add	[eax],al
	add	[eax],al
	add	[eax],al
	add	[eax],al
	add	[eax],al
	add	[eax],al
	add	[eax],al
	add	[eax],al
	add	[eax],al
	add	[eax],al
	add	[eax],al
	add	[eax],al
	add	[eax],al
	add	[eax],al
	add	[eax],al
	add	[eax],al
	add	[eax],al
	add	[eax],al
	add	[eax],al
	add	[eax],al
	add	[eax],al
	add	[eax],al
	add	[eax],al
	add	[eax],al
	add	[eax],al
	add	[eax],al
	add	[eax],al
	add	[eax],al
	add	[eax],al
	add	[eax],al
	add	[eax],al
	add	[eax],al
	add	[eax],al
	add	[eax],al
	add	[eax],al
	add	[eax],al
	add	[eax],al
	add	[eax],al
	add	[eax],al
	add	[eax],al
	add	[eax],al
	add	[eax],al
	add	[eax],al
	add	[eax],al
	add	[eax],al
	add	[eax],al
	add	[eax],al
	add	[eax],al
	add	[eax],al
	add	[eax],al
	add	[eax],al
	add	[eax],al
	add	[eax],al
	add	[eax],al
	add	[eax],al
	add	[eax],al
	add	[eax],al
	add	[eax],al
	add	[eax],al
	add	[eax],al
	add	[eax],al
	add	[eax],al
	add	[eax],al
	add	[eax],al
	add	[eax],al
	add	[eax],al
	add	[eax],al
	add	[eax],al
	add	[eax],al
	add	[eax],al
	add	[eax],al
	add	[eax],al
	add	[eax],al
	add	[eax],al
	add	[eax],al
	add	[eax],al
	add	[eax],al
	add	[eax],al
	add	[eax],al
	add	[eax],al
	add	[eax],al
	add	[eax],al
	add	[eax],al
	add	[eax],al
	add	[eax],al
	add	[eax],al
	add	[eax],al
	add	[eax],al
	add	[eax],al
	add	[eax],al
	add	[eax],al
	add	[eax],al
	add	[eax],al
	add	[eax],al
	add	[eax],al
	add	[eax],al
	add	[eax],al
	add	[eax],al
	add	[eax],al
	add	[eax],al
	add	[eax],al
	add	[eax],al
	add	[eax],al
	add	[eax],al
	add	[eax],al
	add	[eax],al
	add	[eax],al
	add	[eax],al
	add	[eax],al
	add	[eax],al
	add	[eax],al
	add	[eax],al
	add	[eax],al
	add	[eax],al
	add	[eax],al
	add	[eax],al
	add	[eax],al
	add	[eax],al
	add	[eax],al
	add	[eax],al
	add	[eax],al
	add	[eax],al
	add	[eax],al
	add	[eax],al
	add	[eax],al
	add	[eax],al
	add	[eax],al
	add	[eax],al
	add	[eax],al
	add	[eax],al
	add	[eax],al
	add	[eax],al
	add	[eax],al
	add	[eax],al
	add	[eax],al
	add	[eax],al
	add	[eax],al
	add	[eax],al
	add	[eax],al
	add	[eax],al
	add	[eax],al
	add	[eax],al
	add	[eax],al
	add	[eax],al
	add	[eax],al
	add	[eax],al
	add	[eax],al
	add	[eax],al
	add	[eax],al
	add	[eax],al
	add	[eax],al
	add	[eax],al
	add	[eax],al
	add	[eax],al
	add	[eax],al
	add	[eax],al
	add	[eax],al
	add	[eax],al
	add	[eax],al
	add	[eax],al
	add	[eax],al
	add	[eax],al
	add	[eax],al
	add	[eax],al
	add	[eax],al
	add	[eax],al
	add	[eax],al
	add	[eax],al
	add	[eax],al
	add	[eax],al
	add	[eax],al
	add	[eax],al
	add	[eax],al
	add	[eax],al
	add	[eax],al
	add	[eax],al
	add	[eax],al
	add	[eax],al
	add	[eax],al
	add	[eax],al
	add	[eax],al
	add	[eax],al
	add	[eax],al
	add	[eax],al
	add	[eax],al
	add	[eax],al
	add	[eax],al
	add	[eax],al
	add	[eax],al
	add	[eax],al
	add	[eax],al
	add	[eax],al
	add	[eax],al
	add	[eax],al
	add	[eax],al
	add	[eax],al
	add	[eax],al
	add	[eax],al
	add	[eax],al
	add	[eax],al
	add	[eax],al
	add	[eax],al
	add	[eax],al
	add	[eax],al
	add	[eax],al
	add	[eax],al
	add	[eax],al
	add	[eax],al
	add	[eax],al
	add	[eax],al
	add	[eax],al
	add	[eax],al
	add	[eax],al
	add	[eax],al
	add	[eax],al
	add	[eax],al
	add	[eax],al
	add	[eax],al
	add	[eax],al
	add	[eax],al
	add	[eax],al
	add	[eax],al
	add	[eax],al
	add	[eax],al
	add	[eax],al
	add	[eax],al
	add	[eax],al
	add	[eax],al
	add	[eax],al
	add	[eax],al
	add	[eax],al
	add	[eax],al
	add	[eax],al
	add	[eax],al
	add	[eax],al
	add	[eax],al
	add	[eax],al
	add	[eax],al
	add	[eax],al
	add	[eax],al
	add	[eax],al
00403000 1E 6F 87 AE 00 6C 6E 76 54 B2 D0 00 43 83 47 9D .o...lnvT...C.G.
00403010 14 00 D4 10 E9 6F 9D 13 30 FF 9F 00 22 7A 96 00 .....o..0..."z..
00403020 B1 00 40 CF 00 9C 12 8A 26 98 8E BF FA C2 C2 01 ..@.....&.......
00403030 AA 0E EF 8F DF 75 61 C7 38 09 31 3F 10 00 FF 00 .....ua.8.1?....
00403040 07 69 09 DB E8 47 00 FF 42 AF 8E 8C 81 5C FF 13 .i...G..B....\..
00403050 CE F3 69 64 00 A1 33 59 00 FF E3 45 D2 16 DB A8 ..id..3Y...E....
00403060 00 51 9E D3 68 0B 54 34 AD 77 3D 26 0B FC 0B 9D .Q..h.T4.w=&....
00403070 C0 7F D1 EF 3C 00 B4 01 83 22 CA 1F 1C F6 B2 1E ....<...."......
00403080 00 BB 60 11 8A 30 73 80 90 FF 3F 00 00 2E E3 1B ..`..0s...?.....
00403090 AA 21 28 3B 7A BF 40 03 4E 2A 08 D0 FD 00 00 98 .!(;z.@.N*......
004030A0 ED 1A DC 60 4D FF 00 4B F2 1D 29 00 F7 C1 82 6F ...`M..K..)....o
004030B0 D5 FF 83 55 00 BC A7 28 3E 98 6A 3D F7 00 00 91 ...U...(>.j=....
004030C0 ED C3 D5 02 5A 00 0A 86 03 F1 DB 8A 10 8C CF 00 ....Z...........
004030D0 08 6E E7 18 F2 7B 20 C7 2F 00 E0 D7 8C 2F 00 9E .n...{ ./..../..
004030E0 1E 00 00 27 1F 00 04 BB 00 7D 63 00 A8 AA 2A 74 ...'.....}c...*t
004030F0 00 77 FF 00 D9 EF E9 FF E3 4D 41 70 1C 4D AA 07 .w.......MAp.M..
00403100 0C 31 CC 00 FD 82 16 BA FA 9B 47 FD D4 C1 00 FF .1........G.....
00403110 00 6C 24 EF A9 5B 80 F2 C9 BF 90 00 00 B3 C9 ED .l$..[..........
00403120 87 30 33 20 CB 83 DD 11 1C 62 35 D6 CC AC 01 00 .03 .....b5.....
00403130 EE 93 02 14 AA FF 74 B8 16 F0 7F 26 51 70 00 95 ......t....&Qp..
00403140 FF 00 F4 40 E8 23 63 14 D3 25 6F 04 BF 00 36 BC ...@.#c..%o...6.
00403150 3D 6C 00 FF 24 C0 75 71 36 E6 90 00 E3 A8 F5 E7 =l..$.uq6.......
00403160 F6 5C 18 22 B0 2F CC 7B 00 36 69 00 87 51 4C 3F .\."./.{.6i..QL?
00403170 C1 00 3E 10 00 02 28 30 03 57 78 09 00 72 13 35 ..>...(0.Wx..r.5
00403180 63 00 EE A2 19 A1 18 42 FE FC 20 F4 1A 42 FB 6C c......B.. ..B.l
00403190 00 76 23 D4 88 06 00 B4 C6 00 2F 6F A7 0C 22 0C .v#......./o..".
004031A0 C7 30 6C 7F 00 1A 6A 31 B4 32 08 68 06 AC 00 40 .0l...j1.2.h...@
004031B0 AE 13 22 AC 98 F2 4E F8 00 00 F9 3E A4 0E 00 D1 .."...N....>....
004031C0 92 B8 D1 17 3E 54 73 10 C1 E4 35 11 82 00 52 CE ....>Ts...5...R.
004031D0 82 25 56 6B 14 12 00 71 00 24 9F 73 1B 3D 00 6C .%Vk...q.$.s.=.l
004031E0 00 00 00 19 DB 80 3F 63 EF 01 8A C2 E7 00 00 FE ......?c........
004031F0 08 14 E8 00 0F 17 D7 EA CF 66 00 02 A8 42 0A 47 .........f...B.G
00403200 BF 00 63 00 00 25 AD C3 78 62 6D 00 00 21 D0 9C ..c..%..xbm..!..
00403210 ED 10 E4 E8 B1 BD 8A AC 25 4B CE 47 AB 46 2A F9 ........%K.G.F*.
00403220 FF C6 29 FF 03 FF 8D 09 8B 1D DD 1C 8B CB 83 0A ..).............
00403230 96 51 B4 DB 6B 17 00 91 9D A8 6B FF 8B C2 34 00 .Q..k.....k...4.
00403240 58 DA 46 0A F1 31 44 FD 68 E0 DF 7B 17 96 6E F6 X.F..1D.h..{..n.
00403250 FF 67 65 FF 7C 51 E0 1E 00 A8 EE A1 25 C7 D8 3C .ge.|Q......%..<
00403260 77 91 78 9A 86 D2 CB 14 69 A8 7B CB 21 6F 32 6F w.x.....i.{.!o2o
00403270 00 2A B9 C9 FF C8 53 DF 26 7A 09 1B 09 88 29 30 .*....S.&z....)0
00403280 00 63 B6 38 36 FE 00 00 00 E8 82 EB 9D 3E 4D B1 .c.86........>M.
00403290 00 FF FF 8E EF 78 1B 4A 00 69 3F 35 FF 4E D2 3F .....x.J.i?5.N.?
004032A0 A4 13 00 00 4E 81 89 00 E1 A2 4B F7 20 0A 1B C4 ....N.....K. ...
004032B0 4C 8E E8 C6 48 C7 F8 5F 1C FE 7F C5 9B FF E0 DB L...H.._........
004032C0 02 7B 41 80 1A 14 47 44 6A BF 1A FF D8 00 0D 40 .{A...GDj......@
004032D0 35 FF 65 C9 1B F6 6C FF BC A8 42 98 00 88 81 00 5.e...l...B.....
004032E0 4E 7A 00 31 24 93 46 3E 1F 10 02 20 00 3E 00 00 Nz.1$.F>... .>..
004032F0 B5 ED 90 2B AB FF 36 8D 04 04 86 00 2E 1A E9 27 ...+..6........'
00403300 F3 70 B0 D9 00 09 4C C6 AE EF E6 30 FF D8 85 73 .p....L....0...s
00403310 D9 82 D2 CD 44 7D 02 FB EF 73 06 1F 09 65 67 56 ....D}...s...egV
00403320 AE 26 AC D5 49 00 10 64 28 C5 14 EB 94 67 C0 E5 .&..I..d(....g..
00403330 00 E2 00 79 8C F4 DE 00 ED E9 20 5F D1 59 D0 FF ...y...... _.Y..
00403340 00 C4 00 C5 FF E5 A7 9E 40 D6 22 54 1D FF 98 38 ........@."T...8
00403350 9A 5C A8 55 84 3C 5C 04 00 7E 93 74 BA 63 0A 8C .\.U.<\..~.t.c..
00403360 C7 73 85 FF 48 FF F9 CE 00 DF FF 00 14 59 01 91 .s..H........Y..
00403370 ED 74 69 BF 80 0B FF F2 6E FF AC 00 9E 29 9C EF .ti.....n....)..
00403380 A8 D9 ED 08 3E FF E8 8E 3C 1F 98 6D A2 8C A0 7F ....>...<..m....
00403390 00 FE 08 60 2B 0E DF 00 9B 05 C4 23 CF E8 12 00 ...`+......#....
004033A0 45 5C DE C1 FF 2C F2 55 89 5A 8D 00 DE 83 23 74 E\...,.U.Z....#t
004033B0 7C C1 11 00 C7 5A 9D FF 9F 2F C5 60 70 DA 27 EC |....Z.../.`p.'.
004033C0 00 FF 00 12 7E 18 00 F9 10 FF 6E 82 00 8C 8B E6 ....~.....n.....
004033D0 E7 A4 5E EC 5D 3F 8D 0C 30 FF 93 6F 20 D0 CA 7F ..^.]?..0..o ...
004033E0 DF 00 00 05 FF 38 87 00 06 C6 07 00 A6 E4 CB FA .....8..........
004033F0 E5 48 71 0D 08 1B FF 00 FB 7E 41 0E 98 00 CF 6E .Hq......~A....n
00403400 00 40 B9 30 CE 6F 77 A6 79 2C 35 79 BA 6B 66 B5 .@.0.ow.y,5y.kf.
00403410 71 6A 8C 78 2D 1E 68 E5 FC 1F 0B 64 F5 FC 54 72 qj.x-.h....d..Tr
00403420 AC 21 DE 7D 03 94 2F 12 92 25 13 E2 9C 22 BF 93 .!.}../..%..."..
00403430 F7 91 8B 36 00 9F DB 81 BF D5 9B AC 69 7D FF 39 ...6........i}.9
00403440 BE CC F6 8D FD 9E 13 A8 FF C6 87 FF 7C 3B 58 7D ............|;X}
00403450 F0 F8 E5 04 00 7B 7C E1 20 61 83 72 72 57 85 71 .....{|. a.rrW.q
00403460 99 23 26 2E 00 8A 00 75 FC 93 7E 00 40 EF DB DC .#&....u..~.@...
00403470 74 00 8F FD C6 00 4C 1E E4 83 AB 89 69 C1 23 00 t.....L.....i.#.
00403480 80 E1 00 9A 00 00 07 90 F0 1C 47 00 25 63 F0 40 ..........G.%c.@
00403490 F3 0A 30 00 C0 5A CA F8 9E 82 0C DB 18 E1 D7 F3 ..0..Z..........
004034A0 00 FF 00 22 C1 EB 5A 89 19 00 1B 05 61 B9 00 F4 ..."..Z.....a...
004034B0 0F EB F0 FF 1A C4 F7 3B 80 E3 95 39 15 87 FF 01 .......;...9....
004034C0 E1 66 00 C4 A0 A9 B2 2E 92 00 EF 87 4F C3 00 00 .f..........O...
004034D0 60 00 D4 8B 08 3F F8 E0 CA 87 A7 46 B8 EB 00 C0 `....?.....F....
004034E0 00 00 0C 00 62 1E 0F 91 A6 60 2D 44 9F 71 99 2F ....b....`-D.q./
004034F0 6C A5 4E D2 00 98 7F 19 3C 05 BA 00 2D FF 53 E7 l.N.....<...-.S.
00403500 E1 69 C4 F6 B1 40 E1 C9 94 B7 EC 5B 03 A8 00 FD .i...@.....[....
00403510 81 6A AE 06 13 19 23 9D 1D 02 00 1D F0 72 1F E2 .j....#......r..
00403520 AE F3 1A 2A 44 C1 1A 5F B3 ED ED 00 06 99 C0 43 ...*D.._.......C
00403530 E0 00 6D 89 B8 EA 01 81 87 89 14 96 48 BF 92 00 ..m.........H...
00403540 6F DE 1B 37 06 00 BD E0 A4 DC 00 5D 64 38 BE C1 o..7.......]d8..
00403550 C8 43 59 3F FF 99 90 BE BF 58 8B E9 00 D3 5F 40 .CY?.....X...._@
00403560 44 10 3F 00 4C 33 AE BC 61 5C F7 28 E2 8D EC 81 D.?.L3..a\.(....
00403570 D1 AC 46 FF 7C F4 CE E2 BB 80 00 D2 3E 2C C0 0B ..F.|.......>,..
00403580 DC FF 6C 71 77 23 60 46 00 FF EA 6F 04 08 49 29 ..lqw#`F...o..I)
00403590 1F 00 A5 46 00 E3 81 63 F5 FD 48 26 C5 D5 C5 84 ...F...c..H&....
004035A0 63 00 99 A2 61 14 0E 93 C8 C3 00 E1 01 D0 A5 F8 c...a...........
004035B0 66 FC F6 86 BF 5F F4 41 4C 00 E2 6B E1 A7 B2 20 f...._.AL..k... 
004035C0 22 E7 FA 81 27 FF C0 8D FF 82 22 3E 69 02 CE 83 "...'.....">i...
004035D0 42 72 4D C3 EF 07 00 C5 3F 00 CC 18 AD C3 B1 BA BrM.....?.......
004035E0 6B 32 3D FF 07 00 07 6A BD 4C 00 FE 02 01 FB FF k2=....j.L......
004035F0 48 00 D5 00 F5 00 00 00 C1 F1 E6 60 99 B9 ED 08 H..........`....
00403600 01 71 EA BB EE 6E 11 0C E0 F7 7B 82 72 7B 9E 00 .q...n....{.r{..
00403610 3E 34 3C FF CA 00 E4 36 B1 01 3E FC 7E D5 7B 87 >4<....6..>.~.{.
00403620 F1 95 C4 99 56 64 43 E8 6D 08 C4 19 61 10 00 1E ....VdC.m...a...
00403630 00 34 E3 FF 00 B9 00 4D EE DC 83 1A F6 80 FF 0A .4.....M........
00403640 B8 0F 3E 0D C3 EA 58 B6 06 08 DE C3 BA 6C E3 80 ..>...X......l..
00403650 63 82 00 FF 73 EF 43 BC CC 00 D8 05 3B DE 9A 00 c...s.C.....;...
00403660 95 00 7D E9 F6 33 3E B8 67 27 21 00 43 20 76 F8 ..}..3>.g'!.C v.
00403670 E8 67 30 20 3D 00 19 C6 9F 82 00 C9 00 0A 16 D8 .g0 =...........
00403680 B3 F7 F7 08 80 F3 B0 01 1E F2 44 D4 A6 00 AC 27 ..........D....'
00403690 FF D0 35 74 4E 15 FF 00 0A 63 13 00 00 00 00 00 ..5tN....c......
004036A0 8B 46 DB 3F FE 47 00 A8 3B EB FF AF 4B 95 BE 10 .F.?.G..;...K...
004036B0 5A FF D4 65 81 76 B0 00 D9 00 C7 34 00 86 81 57 Z..e.v.....4...W
004036C0 61 C6 1B C0 B4 C5 39 E2 9B E7 75 B8 13 A3 56 22 a.....9...u...V"
004036D0 03 36 CC EF 4B 4F 02 64 92 5E 00 BD 4C DA 7B 00 .6..KO.d.^..L.{.
004036E0 1B 21 67 56 25 D4 C7 00 D1 A4 4C 46 1B 80 93 4F .!gV%.....LF...O
004036F0 82 C7 96 00 24 21 1E FD D8 00 CE 99 8C AD 29 86 ....$!........).
00403700 A3 D0 FF 1F FA 3E 1B 74 03 00 1A 5E 25 D0 90 25 .....>.t...^%..%
00403710 FF 77 00 67 DE 2E E8 07 0A 4B 20 AB FF D1 FF 08 .w.g.....K .....
00403720 0B 7A 1D 09 C1 37 D4 B7 CE 00 0F B1 A3 20 00 2E .z...7....... ..
00403730 15 9B E1 78 A4 4A 6C 1C 43 2D 00 90 10 81 D6 CF ...x.Jl.C-......
00403740 B3 8E 91 82 80 4C 00 D7 7C B5 00 C6 8B 5E 3F 95 .....L..|....^?.
00403750 53 00 77 47 C0 00 89 E7 1D FD 89 82 97 AD AC 03 S.wG............
00403760 42 23 DA F1 79 BD A7 A5 9E 51 12 79 25 EB DF 9B B#..y....Q.y%...
00403770 D8 10 D8 53 69 B1 6F D9 9C 39 78 82 00 29 00 00 ...Si.o..9x..)..
00403780 FF 61 FF 3C C7 E8 00 D4 A5 9C 74 00 5E 3F 70 81 .a.<......t.^?p.
00403790 6D CF DF 54 21 FF FB 07 00 00 11 31 61 D8 49 8F m..T!......1a.I.
004037A0 BF 26 FF BC B6 FF 00 78 BD FF 0A FF 7B A9 10 93 .&.....x....{...
004037B0 83 35 61 A7 FF 5B 51 39 71 19 F6 2C 72 BE 61 3F .5a..[Q9q..,r.a?
004037C0 5C 80 D4 13 00 2C 8B 00 2E 0F CF 3A 47 18 EB E4 \....,.....:G...
004037D0 14 00 FF D1 4C 04 A8 F1 F1 43 67 1E A9 2F A6 AD ....L....Cg../..
004037E0 0E 00 EA 29 E5 00 68 94 B1 A5 76 F5 5F A4 12 FF ...)..h...v._...
004037F0 00 E0 00 FF 0F DE 34 AE 87 BE 11 3C 3D B5 1E C1 ......4....<=...
00403800 24 5B 0C 6C AE 86 23 00 3E 0F 04 FF EC A0 2C E8 $[.l..#.>.....,.
00403810 15 BB 1C 26 5E 98 6C 71 32 E2 25 45 00 9B BB 40 ...&^.lq2.%E...@
00403820 1D 13 6D 3E 02 17 A2 76 4A C1 7C 00 DB 7C 3E BF ..m>...vJ.|..|>.
00403830 2D 6A 54 D9 00 28 00 65 16 81 00 91 32 74 80 00 -jT..(.e....2t..
00403840 D8 E0 00 EB B5 F3 EF 4A E4 50 45 02 43 38 DE C6 .......J.PE.C8..
00403850 00 29 17 6D 77 28 00 FF 51 17 00 42 E4 F7 0E 04 .).mw(..Q..B....
00403860 E9 27 33 9E 00 77 D5 23 5F 70 5C 77 32 77 00 2E .'3..w.#_p\w2w..
00403870 96 C9 91 FF 24 B9 14 00 05 91 21 4B 22 50 83 74 ....$.....!K"P.t
00403880 62 FF 00 0E 82 6D 00 78 02 8D 40 C2 68 60 0A FF b....m.x..@.h`..
00403890 A5 2E 00 41 9A FF 00 6D 06 38 B7 71 C3 F3 AF B8 ...A...m.8.q....
004038A0 52 00 0D 4E 7A C6 A9 00 FF E0 20 00 82 8F FF 24 R..Nz..... ....$
004038B0 00 3B 2E 9C F2 60 FA 32 A6 C4 5C 4F 33 7D 9F 4B .;...`.2..\O3}.K
004038C0 70 6F FF 00 3D 06 8D 42 ED A0 E8 9C CE 1F CE 17 po..=..B........
004038D0 0F 72 57 00 54 B7 0E FF 8B 00 81 68 CD 98 6B 5F .rW.T......h..k_
004038E0 00 00 E4 23 D2 61 59 53 4C 67 CD 00 9A C6 7C 00 ...#.aYSLg....|.
004038F0 00 9F 2F 00 10 00 80 93 BF 00 50 74 1F E1 00 F7 ../.......Pt....
00403900 18 55 82 5C C7 79 C1 0C 20 50 C5 00 2C C9 FE 28 .U.\.y.. P..,..(
00403910 36 F0 6E 88 EB 3A FF EE FB 00 28 3F FA 43 D6 17 6.n..:....(?.C..
00403920 00 00 07 CB 18 6C 05 A9 4D 0B 05 C2 00 20 E5 EC .....l..M.... ..
00403930 1D 33 54 4C 41 96 C4 00 EE 8A E7 00 30 95 0A 71 .3TLA.......0..q
00403940 00 3E A8 7E 33 A3 64 FA DD 6E 39 2B FF 13 C8 B2 .>.~3.d..n9+....
00403950 00 00 89 09 93 A2 47 00 DB 6D CA FF AF 7C 2F 80 ......G..m...|/.
00403960 05 2A 00 4C 3E 00 2F E5 FF 94 00 CE 25 BE 51 DD .*.L>./.....%.Q.
00403970 07 0A 7F FD 0E 37 0D 7F 00 A9 FF 70 03 B5 83 56 .....7.....p...V
00403980 4A 5E 94 25 74 C2 B6 FF 00 00 58 00 C6 B4 F9 03 J^.%t.....X.....
00403990 E3 D8 00 57 40 2A 69 08 9D 19 FB 00 47 7A 4F 16 ...W@*i.....GzO.
004039A0 14 7F 39 33 FF 26 00 2A FF 00 F1 83 70 00 43 5E ..93.&.*....p.C^
004039B0 D1 23 0D FF 07 CD 40 2F 22 B6 4D FC EE 57 76 86 .#....@/".M..Wv.
004039C0 17 7F 00 00 30 86 47 07 2F 46 31 AE 00 D8 00 B1 ....0.G./F1.....
004039D0 27 FF 00 DC D6 07 ED E6 B1 CC 35 68 A0 00 FF 04 '.........5h....
004039E0 1B 8D 9E 9D 0C 1E 88 0D DA 8A 3C D1 E0 F0 90 00 ..........<.....
004039F0 FF F8 15 86 F5 FF 3C DB 7B 93 00 DE A5 DF C1 00 ......<.{.......
00403A00 00 5B 05 5A 8F 7F 02 E2 01 B8 ED 6E 60 00 89 3D .[.Z.......n`..=
00403A10 B2 20 0D E4 85 14 E3 4E AA 33 79 50 5D 91 BE 9A . .....N.3yP]...
00403A20 C0 06 3C 70 3A B1 4D 41 58 0A 90 75 37 FF 00 00 ..<p:.MAX..u7...
00403A30 23 7F 94 36 66 56 1A 7E B0 C1 E6 80 04 10 FA 03 #..6fV.~........
00403A40 0C B7 4E A1 FE 0F 33 2C C4 FB A0 3D 9E 91 FD 01 ..N...3,...=....
00403A50 FF C2 AD 31 4C DE 00 54 8C E5 05 00 B1 5E 34 BA ...1L..T.....^4.
00403A60 6C 4B 25 FC 08 54 EA B3 16 34 86 34 C0 80 9A 78 lK%..T...4.4...x
00403A70 00 0C 4E EC 84 91 AE D3 7E FB F7 8E 00 D8 00 0E ..N.....~.......
00403A80 0B 33 00 2E CB FF 7E AA 7F E6 00 49 C3 3E 18 09 .3....~....I.>..
00403A90 E8 A2 00 0C 7E 54 60 00 FF 6F B7 1E D0 86 87 00 ....~T`..o......
00403AA0 CC 3B 00 EF 1C 3C 87 00 FB 38 9A 85 FC BC 61 D9 .;...<...8....a.
00403AB0 F1 85 79 00 00 00 58 00 00 65 33 A3 E3 AE 38 EF ..y...X..e3...8.
00403AC0 FF 00 65 62 95 EC 01 B3 00 A5 57 FD FF 00 24 00 ..eb......W...$.
00403AD0 4E 3C CF FC 99 4C 14 68 A0 43 8E 24 F1 30 9E E4 N<...L.h.C.$.0..
00403AE0 FF 4B 00 00 C6 43 65 2B 52 3F 74 D0 8C 08 D3 79 .K...Ce+R?t....y
00403AF0 AF 86 00 87 00 D1 00 20 F7 13 00 1D C1 D2 3B 8F ....... ......;.
00403B00 AF 08 FE 00 48 82 58 57 54 61 00 74 0C 34 00 CF ....H.XWTa.t.4..
00403B10 01 BE A9 ED 24 28 F1 59 00 ED 39 69 50 99 FF 56 ....$(.Y..9iP..V
00403B20 68 46 FE E5 46 8D FF 00 C6 6B 24 27 FF 86 8A 64 hF..F....k$'...d
00403B30 89 3A F3 00 64 DC 4A 66 B5 86 00 B1 66 3A AF 59 .:..d.Jf....f:.Y
00403B40 1B B1 00 90 22 83 2C 23 00 10 00 79 07 9B 30 00 ....".,#...y..0.
00403B50 00 00 8D 7A 00 6B 00 00 B5 16 64 CD 88 54 4E BF ...z.k....d..TN.
00403B60 8C FF 45 F4 18 D0 12 CA 00 A0 42 FF A4 68 C8 E4 ..E.......B..h..
00403B70 08 90 FF 9D 1C E6 40 70 91 0E 6D 67 02 DC F4 91 ......@p..mg....
00403B80 72 29 00 FF 00 02 BA 9C E3 FF 83 40 4E D5 23 F4 r).........@N.#.
00403B90 6C 28 C6 00 A0 E7 F7 43 2E 88 EB 30 72 52 00 C8 l(.....C...0rR..
00403BA0 00 E1 FF F9 31 AB ED 5B 8C 4C 38 7F CD 67 22 18 ....1..[.L8..g".
00403BB0 20 FF 40 E2 1E D0 B6 00 D8 B5 28 90 00 D3 FF 00  .@.......(.....
00403BC0 87 00 81 D6 BF 86 3C E9 95 E7 71 A0 DE DA 38 7F ......<...q...8.
00403BD0 4B FF 00 3B CB 92 FF 1A 42 E9 FF 20 00 76 CF 61 K..;....B.. .v.a
00403BE0 00 31 31 00 00 00 90 60 BF A8 16 CF 00 3D C3 99 .11....`.....=..
00403BF0 C1 44 FD 3A 03 CD A3 04 75 22 48 9A 2A 29 F0 34 .D.:....u"H.*).4
00403C00 21 00 57 AB D2 FF 3F 77 14 FA DC CF CD 00 08 22 !.W...?w......."
00403C10 38 B7 20 AA 8F FF BC 4B AE B8 72 30 E0 F1 17 FF 8. ....K..r0....
00403C20 61 87 40 91 FD 62 9B 63 85 86 3B FF 00 53 6C 00 a.@..b.c..;..Sl.
00403C30 7A 3E 83 25 2D 00 5F 00 64 29 00 FF 00 A9 00 B8 z>.%-._.d)......
00403C40 E3 5E 0A 00 1C D0 EB 6C 9A 77 EE A9 46 2E 9A D1 .^.....l.w..F...
00403C50 31 71 B3 C7 AF 68 CC 0F A0 83 DC 2A 37 F8 05 9A 1q...h.....*7...
00403C60 75 C1 00 3E 41 D9 E1 17 C8 F0 52 00 86 E3 00 0D u..>A.....R.....
00403C70 00 3C 35 6B FF B3 97 20 5A CC 21 76 BB FD 61 B1 .<5k... Z.!v..a.
00403C80 70 13 5F 00 4A 00 BE 7A 5F 8A F2 7F 71 00 C4 A2 p._.J..z_...q...
00403C90 53 00 70 85 F4 E2 D5 00 72 D1 1D A9 0A 93 F9 93 S.p.....r.......
00403CA0 06 5E 00 DB 00 7B C7 43 66 20 BA 4A 01 28 B7 A5 .^...{.Cf .J.(..
00403CB0 B3 74 A6 B3 12 33 C9 00 66 AB ED 8B 3D F3 F9 0B .t...3..f...=...
00403CC0 56 25 3D 20 F3 2A 6C 44 01 2C 3F 83 0E 38 FF 41 V%= .*lD.,?..8.A
00403CD0 24 15 85 A1 EF 68 00 00 FF FF 5E EC 2C CE FF 00 $....h....^.,...
00403CE0 5A E0 78 8D 00 2B 00 85 6E 00 3C C1 02 00 C4 0D Z.x..+..n.<.....
00403CF0 DD 00 27 00 CA F6 E3 08 50 00 E8 5E 77 BF 82 00 ..'.....P..^w...
00403D00 C6 8B 13 F6 38 F9 23 71 EA 00 1C 00 1D 11 A7 DD ....8.#q........
00403D10 6B 8E C8 EA 00 0B 95 00 F4 CE E1 A5 BD B0 78 71 k.............xq
00403D20 DC 00 07 69 5C 3B 02 62 9F BF 6B A1 7F 12 10 40 ...i\;.b..k....@
00403D30 0B 90 51 D4 31 A1 B3 B8 48 F7 A0 0B A0 E9 00 00 ..Q.1...H.......
00403D40 BF 82 B7 85 26 64 44 96 E5 7A 1E 21 7D D7 40 E5 ....&dD..z.!}.@.
00403D50 29 4D 57 17 75 97 A5 7A 52 C8 34 87 A7 9E 10 AE )MW.u..zR.4.....
00403D60 50 FF 08 3F 82 60 A6 00 84 CA 67 A1 75 A0 6E FF P..?.`....g.u.n.
00403D70 C9 DC A1 C6 00 3A 6E EC 00 94 A1 14 62 5A E4 2C .....:n.....bZ.,
00403D80 A0 12 C7 52 50 3A 00 39 D7 62 13 69 8D EB 00 79 ...RP:.9.b.i...y
00403D90 00 73 87 C1 42 8D 8E 65 00 89 FF 71 BF C9 5B 00 .s..B..e...q..[.
00403DA0 FB FE E5 D6 46 79 7F 3B A4 11 A8 81 8C 3E 05 00 ....Fy.;.....>..
00403DB0 74 CF 41 FB 20 12 44 01 C4 4F BE 4B 88 CE 8B 00 t.A. .D..O.K....
00403DC0 38 78 40 9C 32 F8 00 66 00 00 00 CF 60 00 1C 25 8x@.2..f....`..%
00403DD0 09 D3 F9 01 16 17 F8 97 BB 6F 6D 7D 60 B6 E0 83 .........om}`...
00403DE0 CC 00 A1 93 7B 2D CF 44 00 B3 04 00 28 93 E2 95 ....{-.D....(...
00403DF0 F6 0F FF D3 23 00 C7 80 E0 06 C8 54 B0 6F 50 13 ....#......T.oP.
00403E00 AB 04 38 42 46 3A E3 A8 FA 3A 14 79 4A 61 00 E7 ..8BF:...:.yJa..
00403E10 00 DF 62 C6 54 00 F5 33 16 00 CB D4 04 7B 49 00 ..b.T..3.....{I.
00403E20 00 B8 DB 90 27 00 EB 10 E3 1E 7C 16 FF EF 25 85 ....'.....|...%.
00403E30 9A 7A 4E 1C E6 FF 8B 2E 32 CF A9 60 90 CD A1 C8 .zN.....2..`....
00403E40 06 FF 5D 2A FD E3 93 00 2A C1 44 00 10 D1 92 00 ..]*....*.D.....
00403E50 00 41 FF 06 87 FE 73 4D 24 9D 5C 8B 63 03 42 83 .A....sM$.\.c.B.
00403E60 0C 09 17 0D 88 87 26 DD 09 70 01 1F 14 88 98 66 ......&..p.....f
00403E70 FD B7 48 62 98 75 08 F7 B1 05 85 07 04 78 FA 28 ..Hb.u.......x.(
00403E80 2E 00 F9 85 A6 5B BB 74 08 8E 66 FE 1F 7F 64 10 .....[.t..f...d.
00403E90 39 14 94 34 98 4D AB B9 FD 00 47 12 08 88 84 C6 9..4.M....G.....
00403EA0 7B FF 60 6A 3F 02 1A FB 0D 08 07 2E AF 4E 21 00 {.`j?........N!.
00403EB0 86 C7 E2 BF CF 32 B9 00 4E A6 00 D2 00 0A 00 C0 .....2..N.......
00403EC0 36 00 C3 28 00 A3 2B 93 1C 23 13 C9 0D FF 88 E6 6..(..+..#......
00403ED0 00 38 49 88 20 54 00 C9 77 FF 00 75 67 FC DC A8 .8I. T..w..ug...
00403EE0 A9 9F F1 FF EE 44 8A 07 57 20 9B 1E FF 98 F1 D7 .....D..W ......
00403EF0 FF 31 FA 0C 1F 5B 11 00 30 7C 00 0C D8 8D E4 00 .1...[..0|......
00403F00 00 7D 3F 3F 87 8B 80 FD 97 4B 21 68 F1 00 7B 4F .}??.....K!h..{O
00403F10 18 1A 43 73 C3 FF F0 E1 9F 53 1A 00 E8 7E 52 F6 ..Cs.....S...~R.
00403F20 C3 BE 55 00 00 7F 41 6B 00 C6 2E 1B CA 02 3F AE ..U...Ak......?.
00403F30 00 D2 B8 E6 C8 3A 04 CA FF DE 8A E9 88 14 33 D9 .....:........3.
00403F40 4E 63 82 13 32 46 B7 E4 9D 6B 48 F8 9A D6 00 4E Nc..2F...kH....N
00403F50 00 FC 00 1E 38 2D 09 BE F4 31 3F 04 44 4F FE 6E ....8-...1?.DO.n
00403F60 84 E6 C3 EE 42 45 C2 00 D6 74 FE 00 C2 7A 4F C3 ....BE...t...zO.
00403F70 FF 80 D6 70 A4 2E E2 7E 9A CF 3D 91 00 FF 63 D0 ...p...~..=...c.
00403F80 67 10 C6 00 9C 00 3B 18 DD 50 13 6C B7 18 00 56 g.....;..P.l...V
00403F90 ED 85 35 3F 35 CF 59 88 DF 00 CF 3C 8B 03 B0 BC ..5?5.Y....<....
00403FA0 69 AF 24 BB DB 00 01 00 CC F4 CD D7 DB E4 AA 34 i.$............4
00403FB0 AF 4C 1D F4 FF E5 BD 0B F9 E3 73 EE 4C A1 00 00 .L........s.L...
00403FC0 F4 76 84 55 C6 F0 D3 0C CC 2B 8D ED DB 40 1A 1F .v.U.....+...@..
00403FD0 A6 4F D3 00 E1 00 BA 86 45 38 55 B5 E3 42 B7 AB .O......E8U..B..
00403FE0 FD 00 71 C4 10 00 00 D4 16 BD 00 40 C0 FF B4 44 ..q........@...D
00403FF0 FF 2C E5 7D D7 FC 02 8C 5B 10 19 C6 6C 1D 74 A1 .,.}....[...l.t.
00404000 48 C2 2C 8C 00 20 B8 24 60 56 F1 6F 86 98 B9 A4 H.,.. .$`V.o....
00404010 00 5D C9 00 42 1D 60 9B 3D 00 D0 D4 27 33 C7 B3 .]..B.`.=...'3..
00404020 7F 8B 75 00 4F 4F FD 6F 00 40 F3 3F 56 DC 72 A3 ..u.OO.o.@.?V.r.
00404030 2A 7F 28 00 19 00 01 23 00 70 DD 39 00 4C BC AB *.(....#.p.9.L..
00404040 08 DB 06 BB 37 0E 2B FD 70 F9 8B C3 83 BF 47 F4 ....7.+.p.....G.
00404050 00 41 00 EF 01 E8 F2 93 67 9B F8 34 7B A6 05 47 .A......g..4{..G
00404060 37 9F 3D 54 AD D3 00 3B C8 06 2B A5 C6 00 DA F6 7.=T...;..+.....
00404070 F8 02 4C F2 81 7B 6B 49 F0 62 67 20 86 0E 6C 8B ..L..{kI.bg ..l.
00404080 D7 BF 93 72 30 C5 3D 58 70 90 E2 C9 C0 2E CC 10 ...r0.=Xp.......
00404090 E0 58 60 C1 27 1B A2 FF C2 00 1D 1A 50 2A 00 62 .X`.'.......P*.b
004040A0 52 37 00 16 15 A9 B3 88 5A 4A 6F E6 B6 2D A6 17 R7......ZJo..-..
004040B0 20 57 D7 FA 5F 0E 09 27 9A 11 D4 1E E3 38 5E 31  W.._..'.....8^1
004040C0 03 8F 47 9E 25 42 00 1D 35 82 40 DC EA 86 BC 00 ..G.%B..5.@.....
004040D0 23 82 3F 3D 88 42 61 83 04 C8 47 82 4A AA AB 86 #.?=.Ba...G.J...
004040E0 3E A6 F4 FF 8F 15 23 00 44 A2 FF 00 8C 2D 00 1E >.....#.D....-..
004040F0 B8 E3 F5 00 A7 53 00 1B 1D F1 86 00 B3 0C 3C ED .....S........<.
00404100 17 D2 1F 6C FF 00 9E 4B B3 7B BB B1 DD 20 EF B1 ...l...K.{... ..
00404110 8E 47 62 95 CA 91 8A 00 FF 4D 75 F4 0D 43 19 77 .Gb......Mu..C.w
00404120 A7 44 7B 8F EA 0C FF 0B 80 38 56 00 1D E2 00 FF .D{......8V.....
00404130 CC 00 E3 57 8F A7 F4 6B 9E 00 FB 99 12 AD 66 FF ...W...k......f.
00404140 B4 A2 00 BF CB 79 75 6F 30 32 17 64 DB 80 03 FF .....yuo02.d....
00404150 00 7B 00 01 B6 3F 00 B7 F0 60 18 0C 14 03 50 60 .{...?...`....P`
00404160 E8 E0 C7 7C A9 E8 0A 2D 07 1A 00 54 FF BC 2A FA ...|...-...T..*.
00404170 00 92 77 72 C5 03 23 A4 04 00 6F 7C C9 41 2A FF ..wr..#...o|.A*.
00404180 3E 68 37 0E 0B F6 37 F8 AC 03 03 BE 7C AC 04 28 >h7...7.....|..(
00404190 FF F8 00 A2 32 52 90 23 B8 8F 3D C8 57 4E 22 03 ....2R.#..=.WN".
004041A0 FF 00 00 13 20 E2 AE FF 10 00 71 C1 6C 81 2C DE .... .....q.l.,.
004041B0 EE BD 7A C6 F7 30 9B 7A F2 24 5A 00 15 CC 00 16 ..z..0.z.$Z.....
004041C0 9F AD 2A 32 BA B0 00 60 FA 1F 72 4F CC 0E 1E 84 ..*2...`..rO....
004041D0 00 D0 F4 A0 09 8F 9F 3A 23 10 00 00 F2 1B 00 65 .......:#......e
004041E0 02 DB 30 82 7D 9A 00 A8 00 61 3C B3 FD 42 84 43 ..0.}....a<..B.C
004041F0 BF F1 3E D1 69 4C F3 66 FF 4E F6 F8 50 CA C2 30 ..>.iL.f.N..P..0
00404200 32 BD 40 05 40 12 72 CE 28 40 43 1F 00 6E 7E 5D 2.@.@.r.(@C..n~]
00404210 C2 A0 B2 E5 51 00 C6 D9 81 54 00 22 BE FF 00 11 ....Q....T."....
00404220 F0 F1 00 00 3D 00 3F A8 4E 13 F0 18 70 EF 06 F7 ....=.?.N...p...
00404230 FF 66 A3 A1 DA 70 09 49 00 00 18 0A 7B C4 83 9A .f...p.I....{...
00404240 93 0C 54 DE FF 1D 1A 89 40 FF 0C 28 F4 28 00 8B ..T.....@..(.(..
00404250 8E 62 C5 D8 79 3E 6C FF 73 35 BE D1 00 EB 63 00 .b..y>l.s5....c.
00404260 B9 7B A5 CC C0 72 B9 04 2F 00 00 30 6C F4 8D 46 .{...r../..0l..F
00404270 E3 CB EA 00 E1 16 98 3F 3E D2 00 FD 19 00 A3 47 .......?>......G
00404280 C4 DF 70 03 00 AF 99 7C 5A 58 6F 6B 7F 8F 0F 22 ..p....|ZXok..."
00404290 FD 00 E3 AF 22 03 C3 4C 05 88 00 83 41 FF B8 00 ...."..L....A...
004042A0 00 1F 8D 00 7B 33 FF F5 00 FF 94 06 29 6F 44 DD ....{3......)oD.
004042B0 00 0E C3 D8 4E 13 15 FA 04 69 6F DF 00 21 1E 1A ....N....io..!..
004042C0 43 2E FF 2E 33 FF C0 2A 07 00 5D 14 04 03 79 07 C...3..*..]...y.
004042D0 B4 00 29 39 60 8F A2 55 7C A1 C4 FF 1A 46 B3 44 ..)9`..U|....F.D
004042E0 40 49 5F 99 6E 68 E9 00 7D 19 E8 E0 6E 00 19 CA @I_.nh..}...n...
004042F0 FF 2D 0A 00 E9 32 94 A1 00 15 58 DF 63 60 2E C1 .-...2....X.c`..
00404300 00 6F 1C AA B6 5A 0B CC C0 95 D2 40 0E 88 4B 93 .o...Z.....@..K.
00404310 41 7D F1 00 F0 44 B9 3D FF 5C C5 3B 4E DE 12 F5 A}...D.=.\.;N...
00404320 DF BF 32 9F 7C 1D DB 16 D9 04 E3 5B 47 62 CA 60 ..2.|......[Gb.`
00404330 43 F0 48 82 FF FF 00 BC 1C 1D 17 8B 0E 1A E8 77 C.H............w
00404340 54 B9 38 17 10 8E 82 EC 00 D4 4C 77 9F FF 12 38 T.8.......Lw...8
00404350 28 00 7A 35 AC 3B BE 11 C1 D0 19 63 9D 40 93 3D (.z5.;.....c.@.=
00404360 3A 03 00 00 0E E7 AD 0A 00 DC 93 BE 00 7A 62 38 :............zb8
00404370 6C A6 8B 42 5F 48 F1 8B 4B 2E 5F FF 85 70 8C B7 l..B_H..K._..p..
00404380 73 00 28 CE 5D A8 56 82 9F 26 5E 87 D1 CB 35 FF s.(.].V..&^...5.
00404390 00 82 72 2C B5 92 A2 69 FF 57 62 1D 8D 3F 24 B9 ..r,...i.Wb..?$.
004043A0 92 C8 37 1E C3 01 DC F4 70 14 B3 08 7F 36 68 71 ..7.....p....6hq
004043B0 00 E6 07 B8 75 B8 00 0F 3F 7E B3 78 5D 73 EF FF ....u...?~.x]s..
004043C0 E3 B6 C4 11 EE 6C 00 77 EB 40 5D 3A BD 74 A4 00 .....l.w.@]:.t..
004043D0 DF 42 EF 38 47 D5 52 00 26 64 2A FB E7 E9 CD 29 .B.8G.R.&d*....)
004043E0 00 C7 DB C1 00 B5 B4 FF 00 67 D2 1F 60 22 3A FF .........g..`":.
004043F0 3E 58 2F 00 00 86 7D A7 94 00 41 70 00 53 5A 36 >X/...}...Ap.SZ6
00404400 F8 AA F7 32 A9 C1 20 D3 FE BD 3F 96 9C 48 00 00 ...2.. ...?..H..
00404410 58 EA 50 7A 00 6F 00 22 BF A4 5F C2 2A C9 7F 00 X.Pz.o.".._.*...
00404420 00 1B AF E2 C6 A7 93 87 00 2A E2 FC DA B8 D9 FE .........*......
00404430 19 14 63 FD D7 0A BB 00 93 C5 1A 00 92 4C 16 ED ..c..........L..
00404440 17 E5 21 BB 5D FC A0 9F 78 E3 00 08 D8 EE BB 8B ..!.]...x.......
00404450 5C 3B AF 03 00 DE 33 D9 AE 5D 9E 8B 42 0F 7C CF \;....3..]..B.|.
00404460 C1 B8 72 08 11 CF 04 BF F7 9F 14 87 F4 C9 9D 9C ..r.............
00404470 6C 00 F1 6E 02 78 84 55 CC 78 7B EF F2 9E 00 00 l..n.x.U.x{.....
00404480 B7 00 B5 23 8B 00 7A 00 FF 76 00 19 C0 00 6A 6B ...#..z..v....jk
00404490 B6 FE EB 47 10 07 0A 00 13 2E 00 03 FD 5C 03 2C ...G.........\.,
004044A0 8A 59 80 30 D8 DD 07 44 94 1A 00 3C D2 95 00 AC .Y.0...D...<....
004044B0 03 00 81 9F C1 71 7B 45 10 0C B9 0B 4D 8B F7 24 .....q{E....M..$
004044C0 00 82 7D 90 B4 FF C6 4F 16 A3 C0 30 DC C6 8F 00 ..}....O...0....
004044D0 72 5D 7D DD 15 12 CF 43 00 00 D1 8C 81 D9 8C 00 r]}....C........
004044E0 3D 82 35 04 FF CF FF D5 C2 28 E9 4A E0 88 01 00 =.5......(.J....
004044F0 00 7A 11 95 F1 90 00 AB 69 CE 21 74 9F 00 89 CF .z......i.!t....
00404500 6F 00 61 EC C3 6A 02 80 43 31 13 CF 00 B1 CF A0 o.a..j..C1......
00404510 35 D0 00 E5 4E 75 CD A1 18 DD A6 7E 29 18 52 8D 5...Nu.....~).R.
00404520 1F 0F 85 99 7F 00 C9 B7 26 C6 9B D8 18 70 FF FF ........&....p..
00404530 FC 4D 76 E8 AD 00 71 72 B9 F9 70 0F 62 45 20 00 .Mv...qr..p.bE .
00404540 10 00 96 93 99 CC 4E 5D 61 2C 58 50 B5 00 B4 CC ......N]a,XP....
00404550 36 49 7F D1 82 8D 1A CB AE E7 44 54 85 FF 00 20 6I........DT... 
00404560 9A ED B5 81 04 C6 9F BB 09 2A 4A 00 F5 C4 D3 00 .........*J.....
00404570 AB 19 C8 84 9F 00 FC 8E D0 00 61 56 1B 09 FF 1A ..........aV....
00404580 00 BA 34 F7 1F 21 06 7F 0F BF E1 F4 00 00 FF 00 ..4..!..........
00404590 7A FB FD FF D4 2F 52 74 D1 C6 4C AB FF 00 FF 90 z..../Rt..L.....
004045A0 DF FF 00 D2 0D E1 3E 00 C0 C0 00 A0 46 71 24 FE ......>.....Fq$.
004045B0 1A 2A 00 02 FE D5 FF 00 8D FF 00 08 D5 B8 14 6A .*.............j
004045C0 38 66 EF 6A 28 00 3F B0 62 EF 41 BD D6 9A 47 3A 8f.j(.?.b.A...G:
004045D0 98 60 51 A0 80 C7 BC 66 D2 17 21 A5 3E FF B0 ED .`Q....f..!.>...
004045E0 38 00 FF 0E CA 00 39 FE 7F 08 BE C7 E4 24 D9 E3 8.....9......$..
004045F0 4B 8F FE 9F DB CB BC 06 8C 33 D7 A3 2D FF 7A B3 K........3..-.z.
00404600 63 B0 8D C8 93 00 3D 65 B4 EB 17 E0 00 27 98 9B c.....=e.....'..
00404610 68 58 95 0D 9E 45 0F 1C BF C0 C5 A5 DA 68 26 36 hX...E.......h&6
00404620 50 B5 BF 96 1A 94 00 00 8A EA 00 ED 52 5F 92 61 P...........R_.a
00404630 00 3F 80 BB 81 60 B3 31 C8 FF E0 EB 7B FD BC 85 .?...`.1....{...
00404640 00 E1 5C 63 E5 11 10 FC E2 F9 00 31 0F 36 89 36 ..\c.......1.6.6
00404650 DF 00 55 80 5E 56 00 BD F7 FE D3 1A 83 FF EA 49 ..U.^V.........I
00404660 89 DC 75 00 2C 2E 00 6A 06 B8 74 FF 28 96 C4 CF ..u.,..j..t.(...
00404670 7D 1C 4E 1C 2D 14 80 1F 43 FB 00 E4 E2 30 0D F7 }.N.-...C....0..
00404680 5B F3 CF 0A 8D 00 D4 89 03 30 06 96 34 A2 06 FF [........0..4...
00404690 11 29 FF 22 46 DD 3E 43 26 28 FF 56 1F 72 C0 06 .)."F.>C&(.V.r..
004046A0 00 78 9E FF 40 DF 50 28 16 51 A1 9F 2C 00 37 5F .x..@.P(.Q..,.7_
004046B0 AD 9B C3 00 19 09 B5 F5 21 55 C8 74 8B 47 5B F3 ........!U.t.G[.
004046C0 D6 B3 6D F6 CC 00 D8 83 C0 49 51 73 6F B4 81 00 ..m......IQso...
004046D0 3D 00 00 61 C4 3D F6 F9 C9 FF BF 00 B6 C6 55 0E =..a.=........U.
004046E0 00 00 F5 BF 00 62 0E 50 13 39 B6 59 50 59 57 1D .....b.P.9.YPYW.
004046F0 63 08 92 64 E3 FD 28 68 00 31 2E 22 BE 4B 38 08 c..d..(h.1.".K8.
00404700 EA B3 93 18 A7 0F 63 9E 93 C4 24 5D 00 00 00 7B ......c...$]...{
00404710 7C D2 AF 92 25 68 86 4D E3 94 FB C9 00 60 AE 00 |...%h.M.....`..
00404720 FD 81 F6 43 C4 DF 05 00 3B C6 81 6E C3 FF 3B 02 ...C....;..n..;.
00404730 CE 70 9D C1 D8 27 E7 00 80 22 51 2C 4E DC DD BC .p...'..."Q,N...
00404740 00 E9 83 05 FF F4 22 BB 0F 4A 48 16 F8 B3 55 FF ......"..JH...U.
00404750 1D 00 73 3F 88 E1 18 ED 89 4A 8F 3E 2B FF C2 9D ..s?.....J.>+...
00404760 A1 00 65 00 5A EF 00 AC A0 2D 93 4A 21 2A 16 67 ..e.Z....-.J!*.g
00404770 00 55 14 4B 96 8B 36 2A 2F EF FF E0 5B 90 56 50 .U.K..6*/...[.VP
00404780 2C BA 00 4B AD F9 BE 80 C4 A0 D9 75 91 27 DF CA ,..K.......u.'..
00404790 91 43 FB EE 2E FF 00 57 B0 DF F4 BF 40 70 79 91 .C.....W....@py.
004047A0 DB 75 A2 8B AE AB 00 7F FF 00 00 28 63 D5 00 87 .u.........(c...
004047B0 99 AA 5F BA 2E A7 2A 5E 81 00 F9 C8 44 00 26 F9 .._...*^....D.&.
004047C0 E6 A8 A3 73 B7 A9 AB F8 00 00 CF 94 00 30 B7 41 ...s.........0.A
004047D0 0A B6 78 4F 9D E5 82 E4 00 00 A5 2C 29 85 DB 25 ..xO.......,)..%
004047E0 A2 E2 3A B9 C6 73 0B 66 20 95 BD 00 92 A8 73 17 ..:..s.f .....s.
004047F0 00 0B 4E CD 33 C8 00 00 14 00 AE 00 00 3C C8 A3 ..N.3........<..
00404800 04 F7 10 C8 E7 2E 16 C5 FF 45 5E FC B3 C1 7F 9C .........E^.....
00404810 FF 01 55 5E F2 E2 F5 3D 00 05 B1 C2 8D DF 2B 70 ..U^...=......+p
00404820 55 6C DC 46 A4 19 00 DC 00 51 38 2C 0E FF 77 36 Ul.F.....Q8,..w6
00404830 74 D8 4D 69 04 52 00 73 00 E0 05 00 00 7F 01 74 t.Mi.R.s.......t
00404840 A9 07 38 00 1C FF 73 00 F6 4A DF 3E 8A 07 6B C8 ..8...s..J.>..k.
00404850 FB C6 3B F8 D7 9F 72 21 FF 22 38 D9 72 00 07 F3 ..;...r!."8.r...
00404860 00 6A 8E C6 60 8B A8 D5 CE F0 00 DE 87 20 69 00 .j..`........ i.
00404870 00 B3 C5 FF 7C 1C 00 A2 16 79 FF 2B FC 00 E8 00 ....|....y.+....
00404880 3E 0E 77 70 DC 00 D0 C0 E9 30 FF 60 00 FF 92 00 >.wp.....0.`....
00404890 6E FD 37 63 10 CC A6 F4 48 6E AE C1 00 4C 00 C8 n.7c....Hn...L..
004048A0 16 04 6E 17 CF 07 B8 79 FA 64 9B 27 0B 3E 43 22 ..n....y.d.'.>C"
004048B0 00 B5 AB 0B 8A BC C1 94 59 0C B9 E4 03 3F 87 E3 ........Y....?..
004048C0 F8 1B FB 79 37 3C D2 ED F0 42 FF E4 90 00 B4 FB ...y7<...B......
004048D0 23 FF 00 3A 5A D2 D0 E6 6C C7 52 43 8D B8 0E ED #..:Z...l.RC....
004048E0 63 23 00 39 00 D1 1C 08 80 38 A7 23 0A C0 26 B1 c#.9.....8.#..&.
004048F0 64 D4 75 31 5F 00 40 01 10 6F 00 1A 00 FF 89 EF d.u1_.@..o......
00404900 B7 90 08 B0 08 43 EB C4 54 4C F2 00 18 27 48 46 .....C..TL...'HF
00404910 1F C9 00 22 68 D1 24 A4 7F 32 2E B2 85 70 00 B3 ..."h.$..2...p..
00404920 00 33 2B 00 39 B9 FD DE B6 FF 6E FF 2F 52 73 37 .3+.9.....n./Rs7
00404930 00 21 6E 00 4E 64 4A E7 E6 DF 12 02 33 83 26 CC .!n.NdJ.....3.&.
00404940 01 49 1E 4A D7 C4 FF 6C B5 C8 00 17 25 8E CF 52 .I.J...l....%..R
00404950 B4 E1 00 CD 75 00 97 04 50 40 44 84 E1 CD A7 C2 ....u...P@D.....
00404960 5A 9D 44 98 00 CA 12 47 C0 CA 00 EC C9 15 6B 1B Z.D....G......k.
00404970 00 88 15 82 0B B8 87 00 2B 00 00 AE 78 18 00 00 ........+...x...
00404980 EA 97 5D B8 3B 51 26 FF BB 0C 87 1C B1 65 7D C3 ..].;Q&......e}.
00404990 00 70 30 81 F8 00 0B 5B C8 00 EF 5D 31 00 CB 97 .p0....[...]1...
004049A0 01 22 2A 81 43 C0 6F 55 4C 2B A7 0C FF 0B 79 00 ."*.C.oUL+....y.
004049B0 93 FF 0B 0A BC E0 00 00 00 E4 93 F3 C7 F7 B3 28 ...............(
004049C0 FA E8 9C 06 CE 00 FF D5 00 00 EF 10 F8 5F AF 09 ............._..
004049D0 24 8D 7C 00 78 56 46 99 00 18 24 00 49 32 40 00 $.|.xVF...$.I2@.
004049E0 C2 62 44 23 84 00 C9 7B 3C D6 11 00 B6 01 5E 19 .bD#...{<.....^.
004049F0 FF D7 00 A1 10 53 13 81 EA 20 DB 63 75 06 15 DE .....S... .cu...
00404A00 00 FF 00 20 2D 26 89 8F C1 FF 66 34 18 58 E0 FF ... -&....f4.X..
00404A10 28 ED 31 00 C2 05 00 75 82 B1 3F E0 1C E3 00 F8 (.1....u..?.....
00404A20 B3 FF 8F 55 00 C4 2F 47 8D F4 FB 1D 07 13 6D 47 ...U../G......mG
00404A30 E6 5A F0 4B 6D 6B 72 00 51 46 23 D2 A3 D6 42 4A .Z.Kmkr.QF#...BJ
00404A40 29 00 00 48 1F E3 F5 3E 70 44 86 82 90 E8 33 33 )..H...>pD....33
00404A50 3B 75 58 46 C5 E3 CC 00 60 09 37 48 1C 00 8A 01 ;uXF....`.7H....
00404A60 FF 78 A6 A1 46 00 CE 21 34 18 F2 59 64 28 00 13 .x..F..!4..Yd(..
00404A70 99 4A 00 A7 00 BF C6 01 7C 69 28 6F 57 C2 86 5D .J......|i(oW..]
00404A80 29 2C 00 F3 A0 EC AE D9 1A 7D 00 00 25 14 14 AD ),.......}..%...
00404A90 00 30 00 56 00 13 3A E1 07 D4 C1 00 97 56 88 B6 .0.V..:......V..
00404AA0 99 34 BD 11 A5 A7 D8 0E 18 07 EB B4 F8 00 64 00 .4............d.
00404AB0 38 E3 F3 E5 3D FF 6B 7F 6D 16 B7 00 FE C3 40 FF 8...=.k.m.....@.
00404AC0 0B EF FF 00 8F 3A 58 BC ED A5 F0 06 C9 81 BB 93 .....:X.........
00404AD0 9B FD 00 CA 8E 18 23 7A 46 93 60 87 BE B8 1F ED ......#zF.`.....
00404AE0 43 97 6F DF 8F 6A B1 B6 81 94 0E 01 EF 43 51 33 C.o..j.......CQ3
00404AF0 92 44 90 23 C3 E0 D0 79 0C DA 0D 94 5C FB 94 26 .D.#...y....\..&
00404B00 C3 4E 3B C8 2E 1C CB 62 21 02 D2 5A 34 E6 45 BD .N;....b!..Z4.E.
00404B10 7F 90 69 7C 20 83 C3 AF EE 8E 00 BD DC 5A 5F 60 ..i| ........Z_`
00404B20 4F 2E 08 BF BE F5 E5 10 97 08 90 91 26 00 00 00 O...........&...
00404B30 00 3D BD 10 0E D6 9F 5E F4 00 00 32 FE 61 B7 C6 .=.....^...2.a..
00404B40 B0 B3 A7 78 66 0A 2C D5 7E 00 BB 7A 05 C7 00 81 ...xf.,.~..z....
00404B50 66 C7 00 ED 00 A2 C6 24 EF BB 49 D4 00 C0 38 C0 f......$..I...8.
00404B60 F8 B7 DF FF 84 F1 5C 3A 49 00 00 FF 33 96 00 58 ......\:I...3..X
00404B70 90 7C 06 FF 52 DF E7 26 C2 60 11 10 3C 61 95 FF .|..R..&.`..<a..
00404B80 DF 76 93 55 5F 2A 00 3F 00 67 00 A7 13 00 B9 16 .v.U_*.?.g......
00404B90 F7 00 FF B0 00 ED 09 80 69 00 00 00 F2 32 65 2C ........i....2e,
00404BA0 B9 40 03 2B 1E 00 EE 65 25 95 FF 70 C5 8E EF 18 .@.+...e%..p....
00404BB0 13 C2 30 25 DC E4 85 59 98 BA FB F6 21 41 CC 16 ..0%...Y....!A..
00404BC0 CB 19 00 00 B1 F9 B3 00 0D 03 7F 10 B6 54 08 C0 .............T..
00404BD0 3F E0 F0 44 FF F9 64 E1 C0 37 1D 45 5A E2 11 E1 ?..D..d..7.EZ...
00404BE0 81 FF 1C 47 9D A1 00 50 C8 A3 00 F9 93 2B 00 8E ...G...P.....+..
00404BF0 B4 FF 00 C2 FF FE A2 B8 7F D3 7E DF 00 9F FC 00 ..........~.....
00404C00 13 FC 2B 00 FF 51 97 55 00 6A D9 BA F0 28 60 13 ..+..Q.U.j...(`.
00404C10 A7 45 F4 63 F9 C9 CD 9A 66 E8 8F C3 00 71 00 0B .E.c....f....q..
00404C20 06 00 4D 9C 23 B7 5C 23 5C 84 24 2C 5C E2 88 E3 ..M.#.\#\.$,\...
00404C30 7C 86 1D 00 C2 AE C1 25 EA AF 2E 87 26 00 0B FF |......%....&...
00404C40 48 C0 00 A4 0E 00 FF FF 73 A1 3A 5D 1E 00 D5 85 H.......s.:]....
00404C50 00 13 9E 5E 11 FF 25 5E 11 00 02 BA D7 50 15 AF ...^..%^.....P..
00404C60 91 5A DB 60 00 00 5D 00 FF 00 FD FC C8 C6 42 4F .Z.`..].......BO
00404C70 E2 A2 79 39 BD 90 DF 33 66 D9 B0 21 DE 00 1C EC ..y9...3f..!....
00404C80 83 85 9F FF 73 F5 47 F3 89 20 00 8D 46 85 00 0B ....s.G.. ..F...
00404C90 C8 04 E5 EF 42 2B 00 73 92 C9 36 01 E6 2E 97 8F ....B+.s..6.....
00404CA0 C5 A6 DC DF 01 27 26 B9 00 38 26 92 F3 C0 98 5A .....'&..8&....Z
00404CB0 60 B4 35 62 35 1D 6B CF A5 C1 CB 7B C1 37 9B 95 `.5b5.k....{.7..
00404CC0 21 1A 43 F4 DA FF A1 02 AA 4E F3 9F BB 2F 35 00 !.C......N.../5.
00404CD0 BE D8 6E 83 4B FF 1B 00 10 00 F3 5F 00 E3 C9 FF ..n.K......_....
00404CE0 00 AA 3E C3 7A E7 00 35 E5 8D B7 37 4C 78 9E FA ..>.z..5...7Lx..
00404CF0 CD FF 2A C5 D3 E1 70 E0 82 10 58 A9 82 12 82 42 ..*...p...X....B
00404D00 62 B5 F9 9D F0 43 C3 1A FF A6 E6 8E 00 00 00 3F b....C.........?
00404D10 6F 9B FF 09 1C 16 FF 4D 26 44 3A 39 10 A0 BA 0B o......M&D:9....
00404D20 F1 00 9D 00 D0 76 81 E5 7D 3B 9C EE 10 B1 39 1B .....v..};....9.
00404D30 75 00 43 85 C8 00 6E B4 18 25 00 04 D4 5F 44 00 u.C...n..%..._D.
00404D40 1F 00 E4 0F 4F 3E 4B 00 D1 2C 4F 6F BD 70 A8 1D ....O>K..,Oo.p..
00404D50 C9 35 7E 77 03 F8 00 A5 B0 18 1E A2 10 0E DC 9C .5~w............
00404D60 05 96 75 4F 25 25 1E 99 C5 C8 4A 20 85 9C 02 7A ..uO%%....J ...z
00404D70 C6 AD BC 33 FF F0 05 CE 00 11 50 00 B4 81 00 51 ...3......P....Q
00404D80 FF A4 FF 9E 20 62 3D F9 76 32 FF 00 C1 36 84 31 .... b=.v2...6.1
00404D90 F7 FF 95 56 E0 29 F3 72 9C 9E 98 80 F8 98 78 81 ...V.).r......x.
00404DA0 74 21 40 02 91 FD 4F 3B B9 00 C2 00 00 D9 48 DE t!@...O;......H.
00404DB0 F7 CF 9E 74 18 00 EE 0C 6F 20 13 8C F9 C3 7C 49 ...t....o ....|I
00404DC0 AB 00 00 5F FF 6C 8B D3 36 D5 8B 68 3A B1 EF 3E ..._.l..6..h:..>
00404DD0 83 3E FD 20 F7 86 87 00 4A 6F 8B F6 FF FF 60 3F .>. ....Jo....`?
00404DE0 AC 00 63 A1 A0 FF 4F 45 AE 24 FF 4A 9D FF 42 00 ..c...OE.$.J..B.
00404DF0 14 2C 98 E7 6F 03 9E 3E AE FF 00 A7 00 00 72 FF .,..o..>......r.
00404E00 00 F3 53 80 AE 73 BB F3 00 E9 F6 FF C4 C1 00 66 ..S..s.........f
00404E10 B4 6B A8 79 20 19 FE 74 4E 6C 00 B8 88 D1 87 00 .k.y ..tNl......
00404E20 9A CB 68 AC DE C0 24 30 00 AD 1D 00 B2 8C 9D 23 ..h...$0.......#
00404E30 98 3F C0 7F AF 14 E5 CC 00 74 FF 17 A0 14 00 00 .?.......t......
00404E40 B8 00 D0 93 48 24 13 00 13 97 3C 43 00 1C 03 1C ....H$....<C....
00404E50 83 86 FF 02 8E F1 F8 C1 7B 56 44 10 74 00 1E 21 ........{VD.t..!
00404E60 C7 C3 3E 9F 0B 0B 4E FB FF A8 3E 7B 7F 44 4B 75 ..>...N...>{.DKu
00404E70 1E 57 D9 75 60 18 DE 89 8A A4 A7 44 C3 00 55 08 .W.u`......D..U.
00404E80 62 24 F3 7B 0D 05 43 7B 00 29 FD 8A D8 42 20 2F b$.{..C{.)...B /
00404E90 E6 D2 08 63 FB FC 6E F9 0D 2F 57 48 FF 00 67 4D ...c..n../WH..gM
00404EA0 01 4B CC 81 00 07 6F AB 01 0E FE C3 E8 00 E2 B4 .K....o.........
00404EB0 16 39 4C 81 57 08 64 FE AC 1E E1 8F 38 66 36 71 .9L.W.d.....8f6q
00404EC0 0A 11 E7 00 57 38 CB BC D2 4D 42 82 00 5A 79 93 ....W8...MB..Zy.
00404ED0 A0 87 00 46 00 FF 76 54 B5 BA AC F6 F2 00 D9 40 ...F..vT.......@
00404EE0 00 B9 50 00 00 25 F7 CF 9E 08 62 90 8C 56 08 16 ..P..%....b..V..
00404EF0 53 00 73 00 F8 FF 50 FA 23 DF 09 8D 24 00 4B 62 S.s...P.#...$.Kb
00404F00 41 B6 24 1C 3F 8A 3C 76 00 85 10 00 32 7C 3E 02 A.$.?.<v....2|>.
00404F10 4D 70 00 66 67 8F 2D 47 49 00 4C 00 6E 42 87 1E Mp.fg.-GI.L.nB..
00404F20 56 F2 FF 38 00 87 00 5E 03 D4 19 10 00 BC 20 A2 V..8...^...... .
00404F30 59 85 CF 15 FF 02 2F 9B D2 FE 06 02 C1 C8 04 83 Y...../.........
00404F40 52 00 1C 8F 21 00 20 90 4A 8B 2D 00 D3 00 D8 26 R...!. .J.-....&
00404F50 C7 00 DB 00 C7 48 1C 0D 21 1E 00 64 26 16 D2 00 .....H..!..d&...
00404F60 14 0F A9 2E 91 30 19 0F 38 30 50 F9 83 CF 74 00 .....0..80P...t.
00404F70 2A 10 FC 01 4F C5 3F 00 05 D8 FF 2E 96 69 A9 00 *...O.?......i..
00404F80 FF 03 1A 1F 0C 87 AD 17 B7 C8 00 F8 00 F4 8D FF ................
00404F90 1E A9 90 3E 87 60 1F 0D 1D 95 00 54 97 A6 FF FF ...>.`.....T....
00404FA0 75 46 FF 00 D6 00 00 DE 98 FD 5C B0 56 69 A6 F0 uF........\.Vi..
00404FB0 CA 1A 4B 78 D4 48 92 D8 00 BC 86 A9 77 14 00 89 ..Kx.H......w...
00404FC0 74 12 00 58 E5 01 ED 00 08 4A 9D E5 7C FD FA 30 t..X.....J..|..0
00404FD0 F3 20 49 32 10 FF F0 16 C2 79 7B F7 5E CA F3 C8 . I2.....y{.^...
00404FE0 4D FE 00 11 67 71 FF A2 C6 7C 00 00 16 00 DB 8B M...gq...|......
00404FF0 3D 1A 4D 33 69 DF 52 57 05 B1 D0 0D 0E FF 5B D0 =.M3i.RW......[.
00405000 FF 58 A7 8D 08 3C 7A 9C F1 00 0B C3 AB B7 61 33 .X...<z.......a3
00405010 F8 09 4A 7C 2B F7 1C 4C 7B 67 FF FF 00 87 22 00 ..J|+..L{g....".
00405020 00 00 BF 27 18 88 AF 4A 47 00 AD 98 31 6D FE 3F ...'...JG...1m.?
00405030 07 91 4C 20 C7 3D CE 55 9B 10 F9 2D C4 B7 4F E1 ..L .=.U...-..O.
00405040 15 43 6C 71 51 02 00 B4 16 01 00 07 FF FF 14 BC .ClqQ...........
00405050 2B E5 BF 00 00 00 B8 75 9C D3 FC C4 08 6C 61 94 +......u.....la.
00405060 5E 11 AA 51 AD E2 C7 00 7D 95 F2 FF C4 D7 97 D1 ^..Q....}.......
00405070 2D 00 B2 1D 5C C5 B8 77 B1 4F 1E 00 00 02 13 4D -...\..w.O.....M
00405080 01 79 32 FF E0 00 BA 00 03 8F 00 A3 9F 73 C1 7F .y2..........s..
00405090 88 40 00 7B 9E 26 74 E7 94 B1 F6 00 60 80 15 AE .@.{.&t.....`...
004050A0 33 1F 0A CA 81 BE DC 22 00 C4 54 0E 00 DC 03 76 3......"..T....v
004050B0 95 63 C3 00 4E 6C 0E 37 C3 00 3A 42 5C 7F A2 00 .c..Nl.7..:B\...
004050C0 10 52 D0 79 03 00 A0 2A 33 00 E6 AF 33 01 00 59 .R.y...*3...3..Y
004050D0 5B 36 00 78 9A E4 09 20 2C 00 00 7D 03 02 38 35 [6.x... ,..}..85
004050E0 CC 18 F5 C4 08 F7 0B E6 22 3B 01 2F 7B E4 00 CC ........";./{...
004050F0 41 6E 00 FD 14 08 58 E6 9D F0 48 0B A1 1B 32 C9 An....X...H...2.
00405100 AF 7F 83 F0 5A CA 22 7D 93 FF 00 FF 7A F6 98 00 ....Z."}....z...
00405110 7A 5B 4E E2 1C 6C 18 49 64 00 C7 E1 FA 4C DE FF z[N..l.Id....L..
00405120 9C 57 01 65 66 93 D4 CD 83 A8 5B 1F A9 74 B2 F1 .W.ef.....[..t..
00405130 26 00 00 C1 3F 9D E0 F1 A1 F6 FF 5A F1 00 14 8D &...?......Z....
00405140 27 C6 14 20 5F 9C CE 05 84 9D DF D9 1F 31 B4 F5 '.. _........1..
00405150 C0 04 00 E1 11 AC 54 95 97 6D FF FF EF AE 0A 74 ......T..m.....t
00405160 6E 00 FF A1 98 04 09 12 93 00 AD 47 E1 B1 1D C1 n..........G....
00405170 0C F2 59 94 05 AF F4 FF BF EB 01 2C 3C E6 3F 3A ..Y........,<.?:
00405180 F0 74 FF 00 11 00 A1 4A 00 EF FF 00 61 E6 0C 64 .t.....J....a..d
00405190 00 0E 00 44 95 6D 5B C7 F5 CE 80 00 76 67 83 10 ...D.m[.....vg..
004051A0 B1 77 57 00 C4 7C FD 71 D1 11 00 00 D4 C4 9A F6 .wW..|.q........
004051B0 4E 00 B3 C3 FB A0 FD 46 4E CE 94 4C ED 05 51 6E N......FN..L..Qn
004051C0 00 01 E7 92 A3 00 B0 10 00 A6 7C 5B 3C D5 31 48 ..........|[<.1H
004051D0 EC 00 20 84 E3 09 00 0C FF C7 BB 79 B6 3C B1 FF .. ........y.<..
004051E0 00 10 D3 FF 40 00 00 FF 00 00 2A 63 BE 00 FF 00 ....@.....*c....
004051F0 CD DD 68 F5 D2 00 D4 FA E2 00 D8 7A 61 00 00 E4 ..h........za...
00405200 00 29 C5 B6 E8 20 0B 95 18 02 6F 3F D9 00 F0 6D .)... ....o?...m
00405210 D4 F9 DC 23 F8 48 76 BC 90 81 00 0E DA 43 00 FD ...#.Hv......C..
00405220 69 08 66 00 BC 5E 6A 8C 04 07 CE 00 7E B5 10 8A i.f..^j.....~...
00405230 65 58 51 FA 2D 5F 8D E1 30 CA 58 00 A7 00 A0 82 eXQ.-_..0.X.....
00405240 79 80 30 26 24 B5 13 F0 B0 63 FF 00 00 00 FF 83 y.0&$....c......
00405250 1A 57 DA 2D 00 8E 87 C4 9B 86 20 45 C9 BC F3 A0 .W.-...... E....
00405260 C7 54 FB 1F 92 00 4D 0B E5 9F 50 00 00 06 B5 63 .T....M...P....c
00405270 12 04 53 C9 FF 64 E2 DD 41 73 9A 11 B3 9B 8A 23 ..S..d..As.....#
00405280 E1 7C 36 14 18 7F 00 FD C1 3C 42 AB 3A AE 00 34 .|6......<B.:..4
00405290 00 15 E2 A5 C2 C1 00 D0 00 01 06 E2 3A 47 E3 86 ............:G..
004052A0 10 A2 A2 FF 05 91 FD CD 14 93 EE 32 DD 0A 5E EE ...........2..^.
004052B0 00 DA 14 FA 00 00 F2 85 00 8F A4 71 7B E1 17 12 ...........q{...
004052C0 F3 CD F5 42 9F 61 95 9D 00 BC 22 59 E3 F1 53 68 ...B.a...."Y..Sh
004052D0 A7 C3 29 9C 08 BA 99 0F C0 00 3F 34 59 0C 11 44 ..).......?4Y..D
004052E0 D3 26 34 86 FF 2E 00 FF 37 8B A3 61 00 A4 EC CF .&4.....7..a....
004052F0 4E 3E E0 00 9D 39 B9 09 CB 00 E9 A2 69 85 3A 00 N>...9......i.:.
00405300 07 53 50 4C 86 6A 08 09 18 03 E2 00 00 0F 7E FF .SPL.j........~.
00405310 F4 00 3B A2 1D C2 81 01 00 69 38 F5 00 19 4B C0 ..;......i8...K.
00405320 A2 FF FF 80 DC 95 8B 28 CE BE 14 F9 2C 4D B3 61 .......(....,M.a
00405330 05 23 EC 00 46 3A 00 8D 3E FF A9 FF 5F 1E 2B 80 .#..F:..>..._.+.
00405340 07 2F 18 4C 03 02 00 00 FC 0C 17 FF 8A 22 E1 CE ./.L........."..
00405350 87 91 6D 00 C7 6F 78 01 00 C6 90 F3 A5 47 FF 63 ..m..ox......G.c
00405360 2D FF E3 95 1B EF 08 98 32 B6 65 30 5E 52 12 20 -.......2.e0^R. 
00405370 70 6B 9A 92 B4 F7 2F A1 FB 48 3A 9C 9A 08 A4 69 pk..../..H:....i
00405380 E4 60 F1 AE 3A AF CD E4 00 D1 09 00 91 74 E1 CA .`..:........t..
00405390 7D FD F7 00 83 8E 52 6D BE 18 47 FB 0C 40 28 01 }.....Rm..G..@(.
004053A0 E6 FF C6 DB 19 53 5A 01 76 4B D2 AF B1 07 00 30 .....SZ.vK.....0
004053B0 51 7F 49 38 11 CF E9 64 FC 98 78 1A D5 05 00 FF Q.I8...d..x.....
004053C0 92 8E B1 08 34 D7 AC A4 F6 00 9B D9 BD A2 81 FB ....4...........
004053D0 37 2B 37 F3 00 2E 7A 57 DA 0A 26 00 A4 00 00 32 7+7...zW..&....2
004053E0 CD C2 CF C0 A3 D9 0D 00 00 00 58 DF 00 FB 30 06 ..........X...0.
004053F0 8B 4A 87 3C 8E 4F 2D 90 00 00 CC 46 60 C3 94 A2 .J.<.O-....F`...
00405400 00 20 B5 9E B7 E6 BF 5B EA 00 34 77 3C 37 30 D1 . .....[..4w<70.
00405410 FF FF AF 5F 38 B9 9D 8B 14 17 90 8A B4 C3 E0 44 ..._8..........D
00405420 0F 7B 2B 42 00 00 A0 00 FF EF 75 B0 E4 FF 1B 40 .{+B......u....@
00405430 36 18 03 46 98 E6 C2 CD 5E FF 99 49 00 B1 FF 91 6..F....^..I....
00405440 6D 3B F1 74 07 FE F3 29 6B 65 CA FA ED 00 49 1E m;.t...)ke....I.
00405450 1B F1 52 F0 40 1A 6B 00 FF 00 00 00 1A 84 C8 29 ..R.@.k........)
00405460 64 E7 97 FF 98 10 04 FF 96 8A 2D 9A FF 1E 00 8F d.........-.....
00405470 7D D4 03 00 08 18 62 37 32 1E 1F 00 92 38 21 1C }.....b72....8!.
00405480 81 94 E7 AA E7 00 FF C8 96 00 EB 2A B9 DE A9 6A ...........*...j
00405490 21 FC 00 33 97 14 C0 00 62 31 45 7D 00 2C AC 00 !..3....b1E}.,..
004054A0 3B 8A FF 11 E3 C6 68 08 0F C5 83 F3 CE 0A 82 B5 ;.....h.........
004054B0 98 3D C0 70 E3 E4 01 98 83 54 00 A8 00 50 00 7D .=.p.....T...P.}
004054C0 5B 6B 00 8E AC 77 00 D7 F5 69 18 A7 00 03 00 11 [k...w...i......
004054D0 5F 23 FC 2F ED FF 42 00 C3 8A E0 25 00 87 9D 6F _#./..B....%...o
004054E0 63 A5 31 04 61 B2 87 FF 00 9E 17 AB 4A CF 68 0F c.1.a.......J.h.
004054F0 CB 12 43 BB 30 8B 00 4B 75 EF 26 01 78 00 E7 CB ..C.0..Ku.&.x...
00405500 FF AA 59 00 FF F9 30 BD 33 F5 00 00 00 94 01 85 ..Y...0.3.......
00405510 FF C3 F9 03 46 46 BE 26 00 82 00 7D 62 F6 C7 FA ....FF.&...}b...
00405520 28 D4 D4 FF 18 DF 00 8B D8 63 82 C6 67 43 7B E2 (........c..gC{.
00405530 FC 05 00 12 82 EC 6B 00 91 B1 F0 CC 04 B1 00 77 ......k........w
00405540 E5 4B FF 00 94 70 7C FF D5 5A 86 A5 54 9C F9 00 .K...p|..Z..T...
00405550 E8 C0 6D 3F 31 00 29 26 B3 FF F4 68 FF 17 FA 00 ..m?1.)&...h....
00405560 F9 24 32 D8 9F 55 00 F3 00 AE 9B DB 30 84 F3 F1 .$2..U......0...
00405570 48 D9 84 00 C6 4E FF E9 CE AA 43 8F 78 84 C4 37 H....N....C.x..7
00405580 04 12 00 17 00 0F 9D F6 BD 00 3E 81 DC E8 6E 80 ..........>...n.
00405590 00 2A 2A EC 53 E3 3E 7A 2D AF 8C FF 21 3A B1 14 .**.S.>z-...!:..
004055A0 64 79 23 E5 4F 86 BB 39 00 80 C7 17 08 99 8E 09 dy#.O..9........
004055B0 24 BC 7C 00 CC C8 2D 7B 47 00 FA 8A 57 1D B1 5F $.|...-{G...W.._
004055C0 83 54 14 18 88 FF 2E 29 16 AD 06 00 A0 DC 60 52 .T.....)......`R
004055D0 00 7F 3A 1D FF 01 85 EF 08 AD 17 91 18 94 00 FF ..:.............
004055E0 6E 55 D4 06 EC FF B9 18 B3 8D B2 A4 EC D5 16 00 nU..............
004055F0 0E 00 60 FF B1 C2 93 35 69 16 AC D2 3D 36 94 00 ..`....5i...=6..
00405600 3A E4 E7 50 29 5F 0B 66 0E 1C 07 3E C9 F5 62 61 :..P)_.f...>..ba
00405610 A3 41 AC C4 B0 EF 01 00 82 96 16 2C 7C CD 00 FF .A.........,|...
00405620 97 6F 8E B7 0C 58 2E 45 9E 00 E2 94 44 FF DC 07 .o...X.E....D...
00405630 F3 1C 5D 9D A8 A1 24 00 DD B0 28 C7 00 70 99 89 ..]...$...(..p..
00405640 8C C1 7E 8E 27 12 F4 D4 13 51 0C C3 00 52 52 1E ..~.'....Q...RR.
00405650 00 EE 00 8E 83 08 1D 3D 00 00 E0 CF D7 2E CB D4 .......=........
00405660 AD 64 77 FF 83 0A 8F 14 BD B4 F7 FF 53 AC 42 91 .dw.........S.B.
00405670 EA 40 F4 FF 02 FF 54 87 68 CF 08 D8 38 00 E1 00 .@....T.h...8...
00405680 63 BF 6C BB 00 9C D8 00 94 B2 11 86 9A 0B 5C F4 c.l...........\.
00405690 30 13 94 0E E4 09 00 42 4E BD 80 00 08 C8 01 10 0......BN.......
004056A0 C6 3F 1F A9 BE C3 F7 39 00 9D F7 FF F8 44 A1 57 .?.....9.....D.W
004056B0 53 C0 00 85 00 B2 03 3B 84 0D 79 46 86 C7 DE 18 S......;..yF....
004056C0 F1 97 3A 10 00 80 C2 A5 DA 00 00 BB B2 C1 DB AE ..:.............
004056D0 E6 7E 64 90 E2 25 90 4F 81 0B 00 F1 01 B5 50 1E .~d..%.O......P.
004056E0 DF EE AE 04 6B 00 BC 00 31 03 82 00 E4 14 C1 09 ....k...1.......
004056F0 2C DF 20 AD 00 00 8D C6 68 00 FB 47 A1 6A FD 00 ,. .....h..G.j..
00405700 49 B3 41 EC 09 10 2D 8F B3 D9 7B 00 00 DF 1D 05 I.A...-...{.....
00405710 F3 FF 76 F6 00 F5 3C D5 17 AF FF E6 F6 53 78 57 ..v...<......SxW
00405720 11 FF 28 C7 2C B3 00 95 F3 00 3C 96 00 C7 EA 05 ..(.,.....<.....
00405730 F8 1F 49 12 79 F7 F8 A6 4D EA 6E 89 83 49 FA 83 ..I.y...M.n..I..
00405740 79 14 D0 C2 A8 FF 52 A0 40 FF 11 00 97 42 8A FF y.....R.@....B..
00405750 A1 DA 63 4C 90 00 99 51 30 6B 19 60 B4 BF AF 2B ..cL...Q0k.`...+
00405760 D0 F1 73 15 BF C1 48 60 00 3F 60 4E FF 00 40 00 ..s...H`.?`N..@.
00405770 3C B8 7E 00 E2 00 1C C9 8E F2 CA 09 DD 0D 69 07 <.~...........i.
00405780 9F E6 2D 09 C1 9F D1 F5 00 F1 00 67 E4 08 4C 18 ..-........g..L.
00405790 36 00 00 F9 1E F8 BB BF 4B 20 6E 30 00 EF 76 54 6.......K n0..vT
004057A0 54 E4 A9 6E 48 F2 C2 D2 08 66 DE D7 C5 3D DE 5C T..nH....f...=.\
004057B0 0F 00 B4 0A 33 86 45 EE EB 2E F5 99 E0 C9 02 7C ....3.E........|
004057C0 01 4E 00 63 B6 02 93 7C 00 CE 77 1B 00 DE 1C FD .N.c...|..w.....
004057D0 A4 CB 40 A3 2D 4E 00 1C FF 63 F7 04 C2 69 A2 FA ..@.-N...c...i..
004057E0 C3 79 8B 1E FE 6D 87 00 02 09 78 3A 1D 00 13 53 .y...m....x:...S
004057F0 30 E8 2A 00 08 75 10 74 5E B3 95 B7 72 E9 00 2C 0.*..u.t^...r..,
00405800 0E 2D D9 D3 87 E7 EF 00 09 00 8C 9E C9 75 FC BD .-...........u..
00405810 EA FF FB 4C 9C 54 F1 7C 25 21 6E 74 21 3B 00 39 ...L.T.|%!nt!;.9
00405820 57 4B D3 FF B8 35 EB 0C B6 00 00 00 2F 8C 2A 36 WK...5....../.*6
00405830 F0 7B 61 EF 26 00 55 47 EE 58 D7 5D 00 DC FE 55 .{a.&.UG.X.]...U
00405840 6C 0F 2D 16 FF 39 05 F5 00 8E 2C E2 DC 00 6E 7B l.-..9....,...n{
00405850 AC 54 00 03 5D C7 18 F1 63 CC F7 9F 85 40 A4 C5 .T..]...c....@..
00405860 58 FF 1E 44 69 C3 50 40 F1 00 82 6E 72 26 00 5B X..Di.P@...nr&.[
00405870 DB 50 00 01 E9 1A 92 00 28 BE BB 62 3D ED DA 97 .P......(..b=...
00405880 DE 00 D8 6F 86 9A 76 9C 43 09 50 2E 02 6B 31 AA ...o..v.C.P..k1.
00405890 18 27 00 10 05 A7 34 68 1F FF 00 D4 F1 9F 00 0D .'....4h........
004058A0 6C 61 B3 83 98 B1 0C 53 27 A2 85 07 FE 5C FF 28 la.....S'....\.(
004058B0 28 00 FF CE 38 39 30 E9 B6 EF B7 93 E2 2F 0C D2 (...890....../..
004058C0 FF 78 63 65 60 8C 00 DC 04 78 12 2D 91 B5 00 41 .xce`....x.-...A
004058D0 07 C2 BB 00 64 D6 FF 00 09 51 1D 6A FF 00 37 A7 ....d....Q.j..7.
004058E0 4C E7 00 6E 9B 9D 94 4C DD 26 1A FF 00 49 BD 00 L..n...L.&...I..
004058F0 D1 51 26 92 D6 FF 33 D0 70 00 BE B0 C4 1D 5E 82 .Q&...3.p.....^.
00405900 F4 C8 00 1B 00 B9 89 B4 6F FF A6 A7 65 E3 83 D1 ........o...e...
00405910 EC 9E 66 03 6F C9 00 07 76 00 E0 FB 2C 18 72 F1 ..f.o...v...,.r.
00405920 10 07 FF E0 83 AD 00 FD BB 17 07 61 40 61 00 18 ...........a@a..
00405930 63 63 92 E2 A1 A2 C6 79 4C A6 9A D3 EF 00 F0 B5 cc.....yL.......
00405940 34 C9 51 9C F9 CA 90 CE EF 12 00 17 FF 00 23 4E 4.Q...........#N
00405950 CE 00 85 00 00 81 AB 9D 71 90 F6 8B 2F 00 04 5C ........q.../..\
00405960 FF F7 C9 71 CF C6 00 FF D7 05 82 38 2B 7A 10 10 ...q.......8+z..
00405970 00 06 30 74 0B 00 7B 00 01 3F 4D 18 5F 65 B9 6D ..0t..{..?M._e.m
00405980 00 40 00 00 41 43 1C 00 07 AB 00 C8 C5 8E CB CA .@..AC..........
00405990 CF 7B 05 DF 4C 25 82 9F F6 33 BA 46 20 13 10 66 .{..L%...3.F ..f
004059A0 8F 40 00 B1 A6 7A 85 8E 7C 62 00 01 ED FF B1 27 .@...z..|b.....'
004059B0 44 00 00 EB 66 FF A9 0B 58 3E 90 D9 9F 0A 73 8E D...f...X>....s.
004059C0 FF 9B 95 03 58 16 82 80 FF F5 59 E4 E4 21 F1 94 ....X.....Y..!..
004059D0 A8 42 2B 71 E5 00 00 82 7F 41 00 A1 4F 07 20 9B .B+q.....A..O. .
004059E0 FF 40 ED 00 7D 00 00 B8 97 A4 45 24 FA 00 CE 63 .@..}.....E$...c
004059F0 54 00 D8 00 0C 00 2D 4C 3B 00 63 46 FF 45 70 49 T.....-L;.cF.EpI
00405A00 00 83 CC 00 A9 EA 5A F6 50 B1 B7 00 8F E9 00 34 ......Z.P......4
00405A10 00 96 FE 06 FD 28 00 8B 5C 50 3A EA 98 42 9B 31 .....(..\P:..B.1
00405A20 00 B7 49 00 00 91 53 C2 BF 67 00 FF FF 7C 0C C6 ..I...S..g...|..
00405A30 02 CE 00 42 9F 00 7D 00 4C CC FF 1E B0 77 00 FF ...B..}.L....w..
00405A40 02 FB 24 00 58 00 E0 03 57 37 8F F1 2A 8C 1A F5 ..$.X...W7..*...
00405A50 5D BF 41 E1 00 06 C1 93 DD 66 06 1C CF 07 38 79 ].A......f....8y
00405A60 A2 00 80 65 00 00 18 86 FF 33 6A 64 FF DB 61 4E ...e.....3jd..aN
00405A70 A7 37 02 6D DB CA 60 17 00 C2 00 FF EC 28 CC 00 .7.m..`......(..
00405A80 00 17 00 FF BB C3 AB 0A 76 E0 62 E1 00 87 15 C0 ........v.b.....
00405A90 89 41 E4 64 75 9A 3D C6 D1 F2 C3 1D E2 74 93 99 .A.du.=......t..
00405AA0 FF 7E 0A 04 E5 F4 0D FF 7D 65 0E EB 15 5D 1E 8C .~......}e...]..
00405AB0 43 08 28 EC 82 19 CE 8F 6C 8E 83 39 C0 31 06 4A C.(.....l..9.1.J
00405AC0 18 68 10 23 27 4F 00 00 F5 94 00 00 EE 00 0C 00 .h.#'O..........
00405AD0 9B 00 00 73 C2 0E DB 9E 30 00 BD 21 BF F7 00 B9 ...s....0..!....
00405AE0 26 84 00 77 FF 86 97 2C 40 8B D2 FF 00 FF 59 4E &..w...,@.....YN
00405AF0 81 45 33 97 00 00 90 07 DC 09 00 60 A2 07 00 B6 .E3........`....
00405B00 45 E0 BF CB FF B2 DB 00 FF 00 72 0E 44 00 21 63 E.........r.D.!c
00405B10 DE C5 F8 02 15 9C 96 1C E5 A0 1A 1C 3A DC 89 FF ............:...
00405B20 91 3C DB F6 FF 38 08 00 E8 00 9F 81 31 72 FB 68 .<...8......1r.h
00405B30 B6 79 6E 00 3F 38 00 22 00 02 61 4E 8F 48 1F 00 .yn.?8."..aN.H..
00405B40 29 00 20 F3 BF 0A 00 00 3A A1 00 A4 00 6E 19 D0 ). .....:....n..
00405B50 F2 B4 63 00 D2 FE 60 B6 AC 18 C9 DC 13 22 CF 22 ..c...`......"."
00405B60 C2 E3 01 80 6D 22 31 2E A6 29 E1 A9 76 C9 E4 88 ....m"1..)..v...
00405B70 23 01 07 BB 71 36 00 AB 1F 00 08 02 01 90 00 00 #...q6..........
00405B80 00 90 83 9C C8 E4 26 2D 46 A9 00 08 3D 3B 42 50 ......&-F...=;BP
00405B90 B3 FF 8C 61 49 00 F6 07 06 00 00 B0 04 B4 D9 FF ...aI...........
00405BA0 D6 F7 67 72 FF 2D 9A 18 5D 79 00 68 00 CD 14 00 ..gr.-..]y.h....
00405BB0 00 B3 8D 7E 69 37 99 83 6A 00 FF E1 00 C2 E3 12 ...~i7..j.......
00405BC0 20 FF 00 3D BE CC 18 00 B0 87 80 00 FF 9C ED 00  ..=............
00405BD0 00 BB 1C 00 68 6F 00 14 A1 35 FF D5 26 D1 00 41 ....ho...5..&..A
00405BE0 1F D4 00 00 21 86 08 47 00 44 70 10 06 91 6F 20 ....!..G.Dp...o 
00405BF0 0C 1F 35 00 5D FD AF 00 03 28 3E C0 24 C0 66 FF ..5.]....(>.$.f.
00405C00 1C FB 7C 9F 21 05 08 81 98 8D FE DF 25 F5 6C 63 ..|.!.......%.lc
00405C10 FE 21 84 00 59 06 0D C4 A8 1C 69 C9 00 FE 9E 94 .!..Y.....i.....
00405C20 88 19 3B 3C 99 C9 5A A0 36 00 50 16 7D 4D A8 88 ..;<..Z.6.P.}M..
00405C30 84 A1 41 A5 00 38 FF 8B 0C FF EA 00 01 E3 42 32 ..A..8........B2
00405C40 62 32 00 E0 6A 60 B0 BF 00 D5 03 D8 C0 88 00 4A b2..j`.........J
00405C50 00 E8 E3 CE 73 64 37 7C 8B D7 00 56 C2 00 A0 F3 ....sd7|...V....
00405C60 38 5B 7B 55 B7 87 00 04 00 85 7E 72 16 AD 98 0E 8[{U......~r....
00405C70 9C 85 40 C2 B8 10 7F 00 AE 24 0C 67 C4 DF 7F 00 ..@......$.g....
00405C80 00 05 7F D2 00 00 58 A8 E7 13 A2 CD 45 4C 63 C2 ......X.....ELc.
00405C90 E3 00 45 FE F4 2C 77 FF 00 D3 84 00 66 00 00 BF ..E..,w.....f...
00405CA0 DA 0C 00 A6 00 C5 B8 2D 00 8C F6 DB 05 F8 CE 22 .......-......."
00405CB0 5D CD 12 FF 1B 8D EB FF 12 9B 01 72 22 1E CD C1 ]..........r"...
00405CC0 60 4C 01 7B 78 F3 21 1F 00 B8 8F 9D D0 7C DF 5F `L.{x.!......|._
00405CD0 A8 3C 00 C9 3A 66 B5 5B BA 07 16 C3 E7 00 B2 3C .<..:f.[.......<
00405CE0 F6 51 72 0C 06 32 24 38 54 74 B4 6C 39 92 30 14 .Qr..2$8Tt.l9.0.
00405CF0 5D 06 1A BF 20 68 C9 E8 F7 CC D2 E0 38 2C 0F 1F ]... h......8,..
00405D00 DC ED 10 0C 30 7E 76 9B FF E0 AB FB 26 DA F0 37 ....0~v.....&..7
00405D10 00 00 0C F8 0F 00 2F 00 62 20 01 D5 00 72 9E 42 ....../.b ...r.B
00405D20 4F 70 DB 00 BF C6 77 51 36 AC 70 82 73 65 BB 26 Op....wQ6.p.se.&
00405D30 6C FF 06 33 F9 1E BC FF BC B9 41 32 3E 12 0D CD l..3......A2>...
00405D40 00 E7 42 2C 35 00 82 FF 00 4B 61 79 86 9C 8E 21 ..B,5....Kay...!
00405D50 32 00 06 F7 10 48 4C FF E0 FF 65 A8 2C 72 FF FD 2....HL...e.,r..
00405D60 81 DF 00 FF 5A 00 20 35 FF 80 41 60 44 99 F7 F0 ....Z. 5..A`D...
00405D70 69 00 AA 23 00 3E 00 80 FA 19 A6 27 3C 2E 00 59 i..#.>.....'<..Y
00405D80 69 18 10 A5 FF 9A 6D 36 26 67 6C 0A 07 A3 ED 00 i.....m6&gl.....
00405D90 3B FF 00 82 00 BB F0 A9 02 E1 F2 F2 C2 74 FD 55 ;............t.U
00405DA0 39 00 98 F4 79 27 4D 43 40 18 F9 CB 00 E3 7C 00 9...y'MC@.....|.
00405DB0 9F 3C 2F 2B 53 41 E6 0D 07 C7 30 10 EF 3F 76 E9 .</+SA....0..?v.
00405DC0 DB 4C E2 AE 74 00 62 8C FF 61 84 CD 87 47 0E 00 .L..t.b..a...G..
00405DD0 3A E6 FF 84 08 5F 00 00 E3 47 24 5C C4 C4 4C 61 :...._...G$\..La
00405DE0 97 CE 34 E1 D2 7D 36 3A 8C 89 C4 FF 00 79 70 FF ..4..}6:.....yp.
00405DF0 B1 D6 93 00 02 62 00 C0 3F 0B BC 9E 22 30 00 23 .....b..?..."0.#
00405E00 2F 03 6E 00 83 A5 9E 83 F1 A5 9B 91 47 00 78 0B /.n.........G.x.
00405E10 06 10 9C 9C 39 34 9D 00 FF 71 B6 D8 76 D0 E4 C5 ....94...q..v...
00405E20 6F B9 FF 4F C1 FF 0C 01 09 00 F4 70 FE EA 9A 24 o..O.......p...$
00405E30 2A 79 A8 5F B7 A8 02 DC C2 0A 85 DB 5D 14 96 7D *y._........]..}
00405E40 AB 00 00 20 95 EA 53 EE AC 62 0B F4 D7 0C 42 4E ... ..S..b....BN
00405E50 91 85 60 B5 95 E7 92 00 00 79 04 0F 00 00 90 A8 ..`......y......
00405E60 0D D7 A1 00 73 A6 A3 A1 E9 9E 77 61 EF 10 A3 03 ....s.....wa....
00405E70 96 68 52 D3 68 B5 2C 80 00 47 76 BA 82 52 16 54 .hR.h.,..Gv..R.T
00405E80 53 F8 9B 39 F8 E4 22 E8 00 A0 83 F7 32 28 3A 00 S..9..".....2(:.
00405E90 00 09 01 F1 8B 4C 79 0F 39 E7 6E F8 B3 32 5B 20 .....Ly.9.n..2[ 
00405EA0 73 E1 BD 3F 4D 93 48 96 6A 6D 00 95 FF 00 B5 00 s..?M.H.jm......
00405EB0 B7 C1 00 DE EE D7 AA B4 78 3B A2 7D 00 2B 1A 4D ........x;.}.+.M
00405EC0 88 28 E5 CE 00 FA E3 98 A7 B9 2A B5 95 19 BD 7F .(........*.....
00405ED0 45 34 E2 8C 27 24 F2 00 5F D4 68 54 AE 20 3F 5F E4..'$.._.hT. ?_
00405EE0 5C FB F9 5D 7E FF BD 00 C0 60 FC CA 1B 10 70 30 \..]~....`....p0
00405EF0 54 3F 5C E9 0F 00 3A A2 FF 12 2F 5C 2C E1 02 58 T?\...:.../\,..X
00405F00 9D BB FF 26 4F 6F F1 F7 D4 BB C6 A8 86 94 00 3B ...&Oo.........;
00405F10 7D 69 F7 EF 71 14 2D 7B 36 88 44 43 81 12 94 02 }i..q.-{6.DC....
00405F20 B5 61 13 4E 54 5D DD F1 00 E9 92 7B 20 45 00 C0 .a.NT].....{ E..
00405F30 0F 00 92 DC 00 66 BA 82 A4 52 FF FE 0C E9 1D 34 .....f...R.....4
00405F40 1B BB 43 C3 47 60 66 00 B6 FF 00 57 00 9B 00 3C ..C.G`f....W...<
00405F50 7D E2 4C 00 5B 0F 39 FF B8 37 FC C8 D5 8D 8E F8 }.L.[.9..7......
00405F60 20 00 72 19 C9 84 80 72 08 FF 02 08 59 25 DB B1  .r....r....Y%..
00405F70 05 00 13 9D 00 87 EB F8 FF 00 58 A3 C3 5E 19 72 ..........X..^.r
00405F80 90 4A 02 5A FF 2A 1C 00 73 00 BE FF C4 00 B6 F6 .J.Z.*..s.......
00405F90 74 4B 36 00 61 C0 39 8A 61 EA 8E A5 00 7F B2 C3 tK6.a.9.a.......
00405FA0 7C DB 2D 1B 91 E5 4A 1E 88 45 CE 7B 20 FF 7C D6 |.-...J..E.{ .|.
00405FB0 B8 0C 6B 10 00 00 24 5E 43 39 6E 50 70 69 00 26 ..k...$^C9nPpi.&
00405FC0 04 FD 25 00 23 67 E6 8D 3C 8E FF 00 5E DC 6E 22 ..%.#g..<...^.n"
00405FD0 00 2B 27 C0 DD 06 00 76 2C 4A 00 30 E1 95 B8 CB .+'....v,J.0....
00405FE0 0A 00 4F 00 E5 5D FF A0 3D FC 6F 40 60 1E CC EA ..O..]..=.o@`...
00405FF0 FF 08 86 16 1B 02 06 D2 B4 63 1B 17 8C 5C C2 72 .........c...\.r
00406000 E9 00 13 44 F3 1C 06 9F 4C 02 E4 AE 71 CC 00 04 ...D....L...q...
00406010 01 00 08 F6 C0 6C 2E 0E 3B 22 89 4E 54 11 F2 F7 .....l..;".NT...
00406020 00 FF E0 C6 93 01 00 FF 45 DA 37 CD F8 60 4D 02 ........E.7..`M.
00406030 3C 18 3C 63 AD B2 D8 25 D2 85 C2 BF F6 00 B9 D8 <.<c...%........
00406040 B9 6D 32 1B F7 8A BC 00 DF 28 BE 82 A0 3C 00 7F .m2......(...<..
00406050 57 00 C0 70 C8 A9 18 38 05 FC 08 E1 B8 A3 8C 9C W..p...8........
00406060 97 07 07 0C 00 00 C6 7F 47 23 FB 32 19 72 70 00 ........G#.2.rp.
00406070 0B ED FF 27 31 FE 5A FF FF A6 00 3A 7D 05 FF D9 ...'1.Z....:}...
00406080 FB 71 2E DF 93 B9 FD 1B 0C FF 4F FD 62 D2 AA E1 .q........O.b...
00406090 00 E7 06 00 68 00 00 C9 95 03 49 4F 6C 56 34 FF ....h.....IOlV4.
004060A0 00 62 93 FF 13 89 C4 E1 00 AF 81 04 37 00 9C B2 .b..........7...
004060B0 46 F6 E3 10 B8 50 3C 58 A3 78 02 4E DE 6E D5 D7 F....P<X.x.N.n..
004060C0 00 6C 75 47 E0 CC 96 70 ED 00 FF 42 16 56 7F FE .luG...p...B.V..
004060D0 00 8B A5 19 B2 2D 5F 2D 87 64 A0 AA F9 33 ED 5A .....-_-.d...3.Z
004060E0 B9 00 33 FF 29 16 FF FC 99 70 B9 34 DF 00 90 07 ..3.)....p.4....
004060F0 00 9C 00 D1 B2 7A 02 95 A6 90 FF 78 A3 6F 8D 39 .....z.....x.o.9
00406100 44 D6 64 F4 FF 9C 01 27 C4 FF FB 00 00 C4 0D 1C D.d....'........
00406110 53 E9 4B B3 E0 FA 77 38 BC 44 02 3C D7 00 26 F5 S.K...w8.D.<..&.
00406120 39 28 A2 81 F6 E4 05 88 1D E6 D1 CD 00 50 00 D0 9(...........P..
00406130 E0 F3 02 7E 72 00 61 8B 64 23 E0 E5 4F A2 00 74 ...~r.a.d#..O..t
00406140 FF D1 84 19 A9 0F F7 E5 D6 C1 FF EF FF 37 2F FE .............7/.
00406150 AB 0C 2B 00 7C FF 58 D9 00 20 D1 9B E1 E4 1E DF ..+.|.X.. ......
00406160 4C C7 00 53 20 A3 0E DE 66 DF 9D C2 42 04 C3 00 L..S ...f...B...
00406170 AC E9 F8 DA A4 00 C9 FF 28 47 49 A9 F9 07 00 DE ........(GI.....
00406180 C7 1E BF 31 00 CB 55 00 00 C6 00 06 CF AF 12 84 ...1..U.........
00406190 73 00 C8 3B 48 36 5E DC 91 BF D1 47 00 59 37 FF s..;H6^....G.Y7.
004061A0 07 A3 5C E1 B3 59 3F 80 A7 66 8E FC 00 19 1D 2D ..\..Y?..f.....-
004061B0 D1 F6 12 00 69 00 08 13 1A 09 D2 F2 93 AD A0 13 ....i...........
004061C0 00 00 DC 03 FF 00 C1 25 EB 1C E1 21 6F FF FF EA .......%...!o...
004061D0 00 38 00 50 4B DE 36 F4 FF 05 31 FC 09 00 D6 A9 .8.PK.6...1.....
004061E0 71 0B 4B F9 77 00 3F F6 64 0B 26 FF 40 61 00 5B q.K.w.?.d.&.@a.[
004061F0 A3 71 98 5A 00 71 65 A9 00 65 8A CB 22 00 7B 9D .q.Z.qe..e..".{.
00406200 56 23 00 03 42 94 FF 6A C1 C3 FF BF 30 7C 81 5C V#..B..j....0|.\
00406210 E1 10 00 ED 00 11 0D 00 00 62 3A 00 10 5F FB 9D .........b:.._..
00406220 EC FB 8F 78 6D FF DB B8 E4 02 EB 9D FF 90 45 F1 ...xm.........E.
00406230 95 FD 06 9F 7F 00 99 FF EA B1 99 BD 49 9C 87 00 ............I...
00406240 D5 58 00 3A 4F 01 B0 00 F7 F5 C2 11 DC 00 1D 07 .X.:O...........
00406250 74 A3 4B BA 11 77 02 E4 EC BD 3C B4 3C FD C2 68 t.K..w....<.<..h
00406260 9B 10 78 14 79 7A 00 03 63 AC 47 00 EF FF 78 00 ..x.yz..c.G...x.
00406270 5D E1 7D 9F FE A2 96 00 66 F1 72 4D D3 C0 7F FC ].}.....f.rM....
00406280 1E AC 7D 93 00 00 0D 00 26 00 80 E0 26 FA 00 FE ..}.....&...&...
00406290 77 86 19 2B A0 FF 30 D4 00 4A 18 27 00 D2 89 00 w..+..0..J.'....
004062A0 0B 00 19 06 00 00 62 A4 2C C5 2A 7A 79 D7 CC 4E ......b.,.*zy..N
004062B0 AF 12 E2 58 13 76 F8 8C 00 F8 ED 8B B8 C4 96 D4 ...X.v..........
004062C0 74 64 A9 AF 00 0E BF 17 9D 00 FF 10 39 F8 00 2D td..........9..-
004062D0 C4 98 47 D7 6B 0D 84 11 BB AE DD 90 5A 8F 1A 7E ..G.k.......Z..~
004062E0 D1 00 00 00 08 DC 77 FF 00 A4 50 00 47 00 BD 24 ......w...P.G..$
004062F0 67 6A 5B 3C B3 2F EA D0 70 0E 5C FF 28 40 2E EB gj[<./..p.\.(@..
00406300 00 00 D8 FF F3 A1 A1 D7 00 7D 00 B6 76 DD ED 48 .........}..v..H
00406310 E9 00 99 08 2E 00 8F 00 26 4F F4 3E D9 D0 2B 00 ........&O.>..+.
00406320 99 5A 00 2D 70 0C EE 4D 68 30 00 EF F0 0B 43 8C .Z.-p..Mh0....C.
00406330 A4 F2 1D 2E 89 1A 29 EF 53 00 FF C3 E4 35 A0 A2 ......).S....5..
00406340 C2 12 00 16 00 03 3C 14 00 EC DE 2C 9F 00 88 5A ......<....,...Z
00406350 FF DD 03 00 2D B0 BE 92 10 3E 71 17 00 00 4D 4B ....-....>q...MK
00406360 8F D4 76 07 D1 08 3E DF FF A1 5E 94 79 21 22 E1 ..v...>...^.y!".
00406370 2A 3D E8 5C 84 2E 00 2D 88 00 89 6F 00 DC FF BA *=.\...-...o....
00406380 08 50 67 00 CF 00 7A A4 38 00 C7 81 82 B9 3A DE .Pg...z.8.....:.
00406390 00 AD DE CE 7D 00 33 56 FF 73 00 FF 1C B0 4B 00 ....}.3V.s....K.
004063A0 62 73 FE 00 63 7B FF 00 F1 C1 DE AC 76 00 92 60 bs..c{......v..`
004063B0 A0 0C 60 53 F8 38 2D 05 01 42 E6 6E 8F 45 DC AD ..`S.8-..B.n.E..
004063C0 FF D3 FA 8D 37 00 00 17 BE 18 FF C2 C2 18 45 CD ....7.........E.
004063D0 69 DE 00 00 69 DD 60 1C 74 04 4F 00 D8 FF 00 D5 i...i.`.t.O.....
004063E0 D2 00 5B FF FE FB E2 DD 93 03 00 00 63 2C D2 55 ..[.........c,.U
004063F0 E0 00 E1 00 00 6D 74 25 0F 88 3B A9 CA C3 B0 6D .....mt%..;....m
00406400 17 FF 90 22 57 49 18 00 E2 3C 3A 75 5A 4F 00 24 ..."WI...<:uZO.$
00406410 D8 3C 20 6C 55 42 FD 00 7F 96 4E 33 83 61 FF 64 .< lUB....N3.a.d
00406420 9A 0A 6A 60 D4 19 D7 00 26 FF C1 C1 A3 36 00 AF ..j`....&....6..
00406430 72 60 14 B8 91 09 57 1C ED CE 1F 30 30 4F 0A 48 r`....W....00O.H
00406440 B1 17 4F 00 71 2C 00 C6 F2 E3 7D 49 E0 00 B5 8E ..O.q,....}I....
00406450 39 00 39 EA D8 14 43 67 BB FF D5 CD 20 00 00 1F 9.9...Cg.... ...
00406460 A7 00 D6 00 3E 00 D8 DC D2 00 C4 C7 74 49 AD 44 ....>.......tI.D
00406470 C8 4F B7 5F 82 00 00 00 4F A9 00 97 00 FF D3 33 .O._....O......3
00406480 00 B3 00 69 9E 00 E8 31 B1 7F CB BB 01 46 01 00 ...i...1.....F..
00406490 00 DF 67 B1 83 AD E5 FF 47 AA 99 18 AE 00 8C 3A ..g.....G......:
004064A0 CE CC 44 5C 00 00 24 00 2C 00 B5 02 CF 7F 71 C5 ..D\..$.,.....q.
004064B0 70 EC FF F7 5C 10 BC DA FD AD 80 ED 67 97 6E 6B p...\.......g.nk
004064C0 4E 57 60 FF 77 17 9F FF BE 37 38 9D F9 D1 08 3A NW`.w....78....:
004064D0 DD 00 6D 66 21 CE D7 C9 5D 91 A7 E3 AE A5 C6 AF ..mf!...].......
004064E0 E2 A0 2B 12 E4 0A 04 CA 77 D8 BF 20 99 E7 00 B8 ..+.....w.. ....
004064F0 0F 2A 7F 2E C7 15 A1 23 1A 6A 00 04 58 00 3C A7 .*.....#.j..X.<.
00406500 32 4D 61 00 A8 28 FF 5C 40 B5 4E E0 95 00 CB 2D 2Ma..(.\@.N....-
00406510 5E B4 2B 23 D7 E1 41 D7 EF 96 00 62 10 E5 00 17 ^.+#..A....b....
00406520 2A 00 35 9B E6 88 00 6C C3 BD F0 8E 3C 68 C4 00 *.5....l....<h..
00406530 05 00 00 C3 B8 54 3F AC FE 8E 29 2C 00 00 09 47 .....T?...),...G
00406540 7D 00 31 02 00 00 5E ED E7 87 FE B6 00 A8 FF 9E }.1...^.........
00406550 00 FF 79 3C 00 2C 97 B1 C3 04 CF 28 CC 3F 47 1A ..y<.,.....(.?G.
00406560 EB FF 17 00 11 00 46 01 14 4D 00 E5 14 85 DC 2B ......F..M.....+
00406570 58 F4 00 10 00 80 77 00 15 CD 00 00 27 81 08 FD X.....w.....'...
00406580 A0 00 9D FF A3 23 71 FF B0 14 D0 3A 1D E6 15 F6 .....#q....:....
00406590 7A 1C 94 63 0C D9 5D 17 00 00 D4 26 22 AB 53 DE z..c..]....&".S.
004065A0 BA 00 60 C3 5C 30 15 31 E9 3C A7 3E 02 22 BC AA ..`.\0.1.<.>."..
004065B0 18 D6 88 FD 08 80 0E C5 23 FE 2A 63 00 9F 95 61 ........#.*c...a
004065C0 30 D5 E0 21 E2 A0 C2 10 BD 01 0E FF F4 22 46 B7 0..!........."F.
004065D0 45 FC 75 66 8D B9 83 E8 00 33 3B A1 93 A1 0D 61 E.uf.....3;....a
004065E0 40 74 64 09 B2 0B 20 68 76 72 ED 90 C8 E3 3A C2 @td... hvr....:.
004065F0 31 00 4E 77 8C BF 58 C6 00 F7 D1 E8 C0 FF 92 40 1.Nw..X........@
00406600 00 00 00 00 00 00 00 00 00 00 00 00 00 00 00 00 ................
00406610 00 00 00 00 00 00 00 00 00 00 00 00 00 00 00 00 ................
00406620 00 00 00 00 00 00 00 00 00 00 00 00 00 00 00 00 ................
00406630 00 00 00 00 00 00 00 00 00 00 00 00 00 00 00 00 ................
00406640 00 00 00 00 00 00 00 00 00 00 00 00 00 00 00 00 ................
00406650 00 00 00 00 00 00 00 00 00 00 00 00 00 00 00 00 ................
00406660 00 00 00 00 00 00 00 00 00 00 00 00 00 00 00 00 ................
00406670 00 00 00 00 00 00 00 00 00 00 00 00 00 00 00 00 ................
00406680 00 00 00 00 00 00 00 00 00 00 00 00 00 00 00 00 ................
00406690 00 00 00 00 00 00 00 00 00 00 00 00 00 00 00 00 ................
004066A0 00 00 00 00 00 00 00 00 00 00 00 00 00 00 00 00 ................
004066B0 00 00 00 00 00 00 00 00 00 00 00 00 00 00 00 00 ................
004066C0 00 00 00 00 00 00 00 00 00 00 00 00 00 00 00 00 ................
004066D0 00 00 00 00 00 00 00 00 00 00 00 00 00 00 00 00 ................
004066E0 00 00 00 00 00 00 00 00 00 00 00 00 00 00 00 00 ................
004066F0 00 00 00 00 00 00 00 00 00 00 00 00 00 00 00 00 ................
00406700 00 00 00 00 00 00 00 00 00 00 00 00 00 00 00 00 ................
00406710 00 00 00 00 00 00 00 00 00 00 00 00 00 00 00 00 ................
00406720 00 00 00 00 00 00 00 00 00 00 00 00 00 00 00 00 ................
00406730 00 00 00 00 00 00 00 00 00 00 00 00 00 00 00 00 ................
00406740 00 00 00 00 00 00 00 00 00 00 00 00 00 00 00 00 ................
00406750 00 00 00 00 00 00 00 00 00 00 00 00 00 00 00 00 ................
00406760 00 00 00 00 00 00 00 00 00 00 00 00 00 00 00 00 ................
00406770 00 00 00 00 00 00 00 00 00 00 00 00 00 00 00 00 ................
00406780 00 00 00 00 00 00 00 00 00 00 00 00 00 00 00 00 ................
00406790 00 00 00 00 00 00 00 00 00 00 00 00 00 00 00 00 ................
004067A0 00 00 00 00 00 00 00 00 00 00 00 00 00 00 00 00 ................
004067B0 00 00 00 00 00 00 00 00 00 00 00 00 00 00 00 00 ................
004067C0 00 00 00 00 00 00 00 00 00 00 00 00 00 00 00 00 ................
004067D0 00 00 00 00 00 00 00 00 00 00 00 00 00 00 00 00 ................
004067E0 00 00 00 00 00 00 00 00 00 00 00 00 00 00 00 00 ................
004067F0 00 00 00 00 00 00 00 00 00 00 00 00 00 00 00 00 ................
00406800 00 00 00 00 00 00 00 00 00 00 00 00 00 00 00 00 ................
00406810 00 00 00 00 00 00 00 00 00 00 00 00 00 00 00 00 ................
00406820 00 00 00 00 00 00 00 00 00 00 00 00 00 00 00 00 ................
00406830 00 00 00 00 00 00 00 00 00 00 00 00 00 00 00 00 ................
00406840 00 00 00 00 00 00 00 00 00 00 00 00 00 00 00 00 ................
00406850 00 00 00 00 00 00 00 00 00 00 00 00 00 00 00 00 ................
00406860 00 00 00 00 00 00 00 00 00 00 00 00 00 00 00 00 ................
00406870 00 00 00 00 00 00 00 00 00 00 00 00 00 00 00 00 ................
00406880 00 00 00 00 00 00 00 00 00 00 00 00 00 00 00 00 ................
00406890 00 00 00 00 00 00 00 00 00 00 00 00 00 00 00 00 ................
004068A0 00 00 00 00 00 00 00 00 00 00 00 00 00 00 00 00 ................
004068B0 00 00 00 00 00 00 00 00 00 00 00 00 00 00 00 00 ................
004068C0 00 00 00 00 00 00 00 00 00 00 00 00 00 00 00 00 ................
004068D0 00 00 00 00 00 00 00 00 00 00 00 00 00 00 00 00 ................
004068E0 00 00 00 00 00 00 00 00 00 00 00 00 00 00 00 00 ................
004068F0 00 00 00 00 00 00 00 00 00 00 00 00 00 00 00 00 ................
00406900 00 00 00 00 00 00 00 00 00 00 00 00 00 00 00 00 ................
00406910 00 00 00 00 00 00 00 00 00 00 00 00 00 00 00 00 ................
00406920 00 00 00 00 00 00 00 00 00 00 00 00 00 00 00 00 ................
00406930 00 00 00 00 00 00 00 00 00 00 00 00 00 00 00 00 ................
00406940 00 00 00 00 00 00 00 00 00 00 00 00 00 00 00 00 ................
00406950 00 00 00 00 00 00 00 00 00 00 00 00 00 00 00 00 ................
00406960 00 00 00 00 00 00 00 00 00 00 00 00 00 00 00 00 ................
00406970 00 00 00 00 00 00 00 00 00 00 00 00 00 00 00 00 ................
00406980 00 00 00 00 00 00 00 00 00 00 00 00 00 00 00 00 ................
00406990 00 00 00 00 00 00 00 00 00 00 00 00 00 00 00 00 ................
004069A0 00 00 00 00 00 00 00 00 00 00 00 00 00 00 00 00 ................
004069B0 00 00 00 00 00 00 00 00 00 00 00 00 00 00 00 00 ................
004069C0 00 00 00 00 00 00 00 00 00 00 00 00 00 00 00 00 ................
004069D0 00 00 00 00 00 00 00 00 00 00 00 00 00 00 00 00 ................
004069E0 00 00 00 00 00 00 00 00 00 00 00 00 00 00 00 00 ................
004069F0 00 00 00 00 00 00 00 00 00 00 00 00 00 00 00 00 ................
00406A00 00 00 00 00 00 00 00 00 00 00 00 00 00 00 00 00 ................
00406A10 00 00 00 00 00 00 00 00 00 00 00 00 00 00 00 00 ................
00406A20 00 00 00 00 00 00 00 00 00 00 00 00 00 00 00 00 ................
00406A30 00 00 00 00 00 00 00 00 00 00 00 00 00 00 00 00 ................
00406A40 00 00 00 00 00 00 00 00 00 00 00 00 00 00 00 00 ................
00406A50 00 00 00 00 00 00 00 00 00 00 00 00 00 00 00 00 ................
00406A60 00 00 00 00 00 00 00 00 00 00 00 00 00 00 00 00 ................
00406A70 00 00 00 00 00 00 00 00 00 00 00 00 00 00 00 00 ................
00406A80 00 00 00 00 00 00 00 00 00 00 00 00 00 00 00 00 ................
00406A90 00 00 00 00 00 00 00 00 00 00 00 00 00 00 00 00 ................
00406AA0 00 00 00 00 00 00 00 00 00 00 00 00 00 00 00 00 ................
00406AB0 00 00 00 00 00 00 00 00 00 00 00 00 00 00 00 00 ................
00406AC0 00 00 00 00 00 00 00 00 00 00 00 00 00 00 00 00 ................
00406AD0 00 00 00 00 00 00 00 00 00 00 00 00 00 00 00 00 ................
00406AE0 00 00 00 00 00 00 00 00 00 00 00 00 00 00 00 00 ................
00406AF0 00 00 00 00 00 00 00 00 00 00 00 00 00 00 00 00 ................
00406B00 00 00 00 00 00 00 00 00 00 00 00 00 00 00 00 00 ................
00406B10 00 00 00 00 00 00 00 00 00 00 00 00 00 00 00 00 ................
00406B20 00 00 00 00 00 00 00 00 00 00 00 00 00 00 00 00 ................
00406B30 00 00 00 00 00 00 00 00 00 00 00 00 00 00 00 00 ................
00406B40 00 00 00 00 00 00 00 00 00 00 00 00 00 00 00 00 ................
00406B50 00 00 00 00 00 00 00 00 00 00 00 00 00 00 00 00 ................
00406B60 00 00 00 00 00 00 00 00 00 00 00 00 00 00 00 00 ................
00406B70 00 00 00 00 00 00 00 00 00 00 00 00 00 00 00 00 ................
00406B80 00 00 00 00 00 00 00 00 00 00 00 00 00 00 00 00 ................
00406B90 00 00 00 00 00 00 00 00 00 00 00 00 00 00 00 00 ................
00406BA0 00 00 00 00 00 00 00 00 00 00 00 00 00 00 00 00 ................
00406BB0 00 00 00 00 00 00 00 00 00 00 00 00 00 00 00 00 ................
00406BC0 00 00 00 00 00 00 00 00 00 00 00 00 00 00 00 00 ................
00406BD0 00 00 00 00 00 00 00 00 00 00 00 00 00 00 00 00 ................
00406BE0 00 00 00 00 00 00 00 00 00 00 00 00 00 00 00 00 ................
00406BF0 00 00 00 00 00 00 00 00 00 00 00 00 00 00 00 00 ................
00406C00 00 00 00 00 00 00 00 00 00 00 00 00 00 00 00 00 ................
00406C10 00 00 00 00 00 00 00 00 00 00 00 00 00 00 00 00 ................
00406C20 00 00 00 00 00 00 00 00 00 00 00 00 00 00 00 00 ................
00406C30 00 00 00 00 00 00 00 00 00 00 00 00 00 00 00 00 ................
00406C40 00 00 00 00 00 00 00 00 00 00 00 00 00 00 00 00 ................
00406C50 00 00 00 00 00 00 00 00 00 00 00 00 00 00 00 00 ................
00406C60 00 00 00 00 00 00 00 00 00 00 00 00 00 00 00 00 ................
00406C70 00 00 00 00 00 00 00 00 00 00 00 00 00 00 00 00 ................
00406C80 00 00 00 00 00 00 00 00 00 00 00 00 00 00 00 00 ................
00406C90 00 00 00 00 00 00 00 00 00 00 00 00 00 00 00 00 ................
00406CA0 00 00 00 00 00 00 00 00 00 00 00 00 00 00 00 00 ................
00406CB0 00 00 00 00 00 00 00 00 00 00 00 00 00 00 00 00 ................
00406CC0 00 00 00 00 00 00 00 00 00 00 00 00 00 00 00 00 ................
00406CD0 00 00 00 00 00 00 00 00 00 00 00 00 00 00 00 00 ................
00406CE0 00 00 00 00 00 00 00 00 00 00 00 00 00 00 00 00 ................
00406CF0 00 00 00 00 00 00 00 00 00 00 00 00 00 00 00 00 ................
00406D00 00 00 00 00 00 00 00 00 00 00 00 00 00 00 00 00 ................
00406D10 00 00 00 00 00 00 00 00 00 00 00 00 00 00 00 00 ................
00406D20 00 00 00 00 00 00 00 00 00 00 00 00 00 00 00 00 ................
00406D30 00 00 00 00 00 00 00 00 00 00 00 00 00 00 00 00 ................
00406D40 00 00 00 00 00 00 00 00 00 00 00 00 00 00 00 00 ................
00406D50 00 00 00 00 00 00 00 00 00 00 00 00 00 00 00 00 ................
00406D60 00 00 00 00 00 00 00 00 00 00 00 00 00 00 00 00 ................
00406D70 00 00 00 00 00 00 00 00 00 00 00 00 00 00 00 00 ................
00406D80 00 00 00 00 00 00 00 00 00 00 00 00 00 00 00 00 ................
00406D90 00 00 00 00 00 00 00 00 00 00 00 00 00 00 00 00 ................
00406DA0 00 00 00 00 00 00 00 00 00 00 00 00 00 00 00 00 ................
00406DB0 00 00 00 00 00 00 00 00 00 00 00 00 00 00 00 00 ................
00406DC0 00 00 00 00 00 00 00 00 00 00 00 00 00 00 00 00 ................
00406DD0 00 00 00 00 00 00 00 00 00 00 00 00 00 00 00 00 ................
00406DE0 00 00 00 00 00 00 00 00 00 00 00 00 00 00 00 00 ................
00406DF0 00 00 00 00 00 00 00 00 00 00 00 00 00 00 00 00 ................
00406E00 00 00 00 00 00 00 00 00 00 00 00 00 00 00 00 00 ................
00406E10 00 00 00 00 00 00 00 00 00 00 00 00 00 00 00 00 ................
00406E20 00 00 00 00 00 00 00 00 00 00 00 00 00 00 00 00 ................
00406E30 00 00 00 00 00 00 00 00 00 00 00 00 00 00 00 00 ................
00406E40 00 00 00 00 00 00 00 00 00 00 00 00 00 00 00 00 ................
00406E50 00 00 00 00 00 00 00 00 00 00 00 00 00 00 00 00 ................
00406E60 00 00 00 00 00 00 00 00 00 00 00 00 00 00 00 00 ................
00406E70 00 00 00 00 00 00 00 00 00 00 00 00 00 00 00 00 ................
00406E80 00 00 00 00 00 00 00 00 00 00 00 00 00 00 00 00 ................
00406E90 00 00 00 00 00 00 00 00 00 00 00 00 00 00 00 00 ................
00406EA0 00 00 00 00 00 00 00 00 00 00 00 00 00 00 00 00 ................
00406EB0 00 00 00 00 00 00 00 00 00 00 00 00 00 00 00 00 ................
00406EC0 00 00 00 00 00 00 00 00 00 00 00 00 00 00 00 00 ................
00406ED0 00 00 00 00 00 00 00 00 00 00 00 00 00 00 00 00 ................
00406EE0 00 00 00 00 00 00 00 00 00 00 00 00 00 00 00 00 ................
00406EF0 00 00 00 00 00 00 00 00 00 00 00 00 00 00 00 00 ................
00406F00 00 00 00 00 00 00 00 00 00 00 00 00 00 00 00 00 ................
00406F10 00 00 00 00 00 00 00 00 00 00 00 00 00 00 00 00 ................
00406F20 00 00 00 00 00 00 00 00 00 00 00 00 00 00 00 00 ................
00406F30 00 00 00 00 00 00 00 00 00 00 00 00 00 00 00 00 ................
00406F40 00 00 00 00 00 00 00 00 00 00 00 00 00 00 00 00 ................
00406F50 00 00 00 00 00 00 00 00 00 00 00 00 00 00 00 00 ................
00406F60 00 00 00 00 00 00 00 00 00 00 00 00 00 00 00 00 ................
00406F70 00 00 00 00 00 00 00 00 00 00 00 00 00 00 00 00 ................
00406F80 00 00 00 00 00 00 00 00 00 00 00 00 00 00 00 00 ................
00406F90 00 00 00 00 00 00 00 00 00 00 00 00 00 00 00 00 ................
00406FA0 00 00 00 00 00 00 00 00 00 00 00 00 00 00 00 00 ................
00406FB0 00 00 00 00 00 00 00 00 00 00 00 00 00 00 00 00 ................
00406FC0 00 00 00 00 00 00 00 00 00 00 00 00 00 00 00 00 ................
00406FD0 00 00 00 00 00 00 00 00 00 00 00 00 00 00 00 00 ................
00406FE0 00 00 00 00 00 00 00 00 00 00 00 00 00 00 00 00 ................
00406FF0 00 00 00 00 00 00 00 00 00 00 00 00 00 00 00 00 ................
00407000 00 00 00 00 00 00 00 00 00 00 00 00 00 00 00 00 ................
00407010 00 00 00 00 00 00 00 00 00 00 00 00 00 00 00 00 ................
00407020 00 00 00 00 00 00 00 00 00 00 00 00 00 00 00 00 ................
00407030 00 00 00 00 00 00 00 00 00 00 00 00 00 00 00 00 ................
00407040 00 00 00 00 00 00 00 00 00 00 00 00 00 00 00 00 ................
00407050 00 00 00 00 00 00 00 00 00 00 00 00 00 00 00 00 ................
00407060 00 00 00 00 00 00 00 00 00 00 00 00 00 00 00 00 ................
00407070 00 00 00 00 00 00 00 00 00 00 00 00 00 00 00 00 ................
00407080 00 00 00 00 00 00 00 00 00 00 00 00 00 00 00 00 ................
00407090 00 00 00 00 00 00 00 00 00 00 00 00 00 00 00 00 ................
004070A0 00 00 00 00 00 00 00 00 00 00 00 00 00 00 00 00 ................
004070B0 00 00 00 00 00 00 00 00 00 00 00 00 00 00 00 00 ................
004070C0 00 00 00 00 00 00 00 00 00 00 00 00 00 00 00 00 ................
004070D0 00 00 00 00 00 00 00 00 00 00 00 00 00 00 00 00 ................
004070E0 00 00 00 00 00 00 00 00 00 00 00 00 00 00 00 00 ................
004070F0 00 00 00 00 00 00 00 00 00 00 00 00 00 00 00 00 ................
00407100 00 00 00 00 00 00 00 00 00 00 00 00 00 00 00 00 ................
00407110 00 00 00 00 00 00 00 00 00 00 00 00 00 00 00 00 ................
00407120 00 00 00 00 00 00 00 00 00 00 00 00 00 00 00 00 ................
00407130 00 00 00 00 00 00 00 00 00 00 00 00 00 00 00 00 ................
00407140 00 00 00 00 00 00 00 00 00 00 00 00 00 00 00 00 ................
00407150 00 00 00 00 00 00 00 00 00 00 00 00 00 00 00 00 ................
00407160 00 00 00 00 00 00 00 00 00 00 00 00 00 00 00 00 ................
00407170 00 00 00 00 00 00 00 00 00 00 00 00 00 00 00 00 ................
00407180 00 00 00 00 00 00 00 00 00 00 00 00 00 00 00 00 ................
00407190 00 00 00 00 00 00 00 00 00 00 00 00 00 00 00 00 ................
004071A0 00 00 00 00 00 00 00 00 00 00 00 00 00 00 00 00 ................
004071B0 00 00 00 00 00 00 00 00 00 00 00 00 00 00 00 00 ................
004071C0 00 00 00 00 00 00 00 00 00 00 00 00 00 00 00 00 ................
004071D0 00 00 00 00 00 00 00 00 00 00 00 00 00 00 00 00 ................
004071E0 00 00 00 00 00 00 00 00 00 00 00 00 00 00 00 00 ................
004071F0 00 00 00 00 00 00 00 00 00 00 00 00 00 00 00 00 ................
00407200 00 00 00 00 00 00 00 00 00 00 00 00 00 00 00 00 ................
00407210 00 00 00 00 00 00 00 00 00 00 00 00 00 00 00 00 ................
00407220 00 00 00 00 00 00 00 00 00 00 00 00 00 00 00 00 ................
00407230 00 00 00 00 00 00 00 00 00 00 00 00 00 00 00 00 ................
00407240 00 00 00 00 00 00 00 00 00 00 00 00 00 00 00 00 ................
00407250 00 00 00 00 00 00 00 00 00 00 00 00 00 00 00 00 ................
00407260 00 00 00 00 00 00 00 00 00 00 00 00 00 00 00 00 ................
00407270 00 00 00 00 00 00 00 00 00 00 00 00 00 00 00 00 ................
00407280 00 00 00 00 00 00 00 00 00 00 00 00 00 00 00 00 ................
00407290 00 00 00 00 00 00 00 00 00 00 00 00 00 00 00 00 ................
004072A0 00 00 00 00 00 00 00 00 00 00 00 00 00 00 00 00 ................
004072B0 00 00 00 00 00 00 00 00 00 00 00 00 00 00 00 00 ................
004072C0 00 00 00 00 00 00 00 00 00 00 00 00 00 00 00 00 ................
004072D0 00 00 00 00 00 00 00 00 00 00 00 00 00 00 00 00 ................
004072E0 00 00 00 00 00 00 00 00 00 00 00 00 00 00 00 00 ................
004072F0 00 00 00 00 00 00 00 00 00 00 00 00 00 00 00 00 ................
00407300 00 00 00 00 00 00 00 00 00 00 00 00 00 00 00 00 ................
00407310 00 00 00 00 00 00 00 00 00 00 00 00 00 00 00 00 ................
00407320 00 00 00 00 00 00 00 00 00 00 00 00 00 00 00 00 ................
00407330 00 00 00 00 00 00 00 00 00 00 00 00 00 00 00 00 ................
00407340 00 00 00 00 00 00 00 00 00 00 00 00 00 00 00 00 ................
00407350 00 00 00 00 00 00 00 00 00 00 00 00 00 00 00 00 ................
00407360 00 00 00 00 00 00 00 00 00 00 00 00 00 00 00 00 ................
00407370 00 00 00 00 00 00 00 00 00 00 00 00 00 00 00 00 ................
00407380 00 00 00 00 00 00 00 00 00 00 00 00 00 00 00 00 ................
00407390 00 00 00 00 00 00 00 00 00 00 00 00 00 00 00 00 ................
004073A0 00 00 00 00 00 00 00 00 00 00 00 00 00 00 00 00 ................
004073B0 00 00 00 00 00 00 00 00 00 00 00 00 00 00 00 00 ................
004073C0 00 00 00 00 00 00 00 00 00 00 00 00 00 00 00 00 ................
004073D0 00 00 00 00 00 00 00 00 00 00 00 00 00 00 00 00 ................
004073E0 00 00 00 00 00 00 00 00 00 00 00 00 00 00 00 00 ................
004073F0 00 00 00 00 00 00 00 00 00 00 00 00 00 00 00 00 ................
00407400 00 00 00 00 00 00 00 00 00 00 00 00 00 00 00 00 ................
00407410 00 00 00 00 00 00 00 00 00 00 00 00 00 00 00 00 ................
00407420 00 00 00 00 00 00 00 00 00 00 00 00 00 00 00 00 ................
00407430 00 00 00 00 00 00 00 00 00 00 00 00 00 00 00 00 ................
00407440 00 00 00 00 00 00 00 00 00 00 00 00 00 00 00 00 ................
00407450 00 00 00 00 00 00 00 00 00 00 00 00 00 00 00 00 ................
00407460 00 00 00 00 00 00 00 00 00 00 00 00 00 00 00 00 ................
00407470 00 00 00 00 00 00 00 00 00 00 00 00 00 00 00 00 ................
00407480 00 00 00 00 00 00 00 00 00 00 00 00 00 00 00 00 ................
00407490 00 00 00 00 00 00 00 00 00 00 00 00 00 00 00 00 ................
004074A0 00 00 00 00 00 00 00 00 00 00 00 00 00 00 00 00 ................
004074B0 00 00 00 00 00 00 00 00 00 00 00 00 00 00 00 00 ................
004074C0 00 00 00 00 00 00 00 00 00 00 00 00 00 00 00 00 ................
004074D0 00 00 00 00 00 00 00 00 00 00 00 00 00 00 00 00 ................
004074E0 00 00 00 00 00 00 00 00 00 00 00 00 00 00 00 00 ................
004074F0 00 00 00 00 00 00 00 00 00 00 00 00 00 00 00 00 ................
00407500 00 00 00 00 00 00 00 00 00 00 00 00 00 00 00 00 ................
00407510 00 00 00 00 00 00 00 00 00 00 00 00 00 00 00 00 ................
00407520 00 00 00 00 00 00 00 00 00 00 00 00 00 00 00 00 ................
00407530 00 00 00 00 00 00 00 00 00 00 00 00 00 00 00 00 ................
00407540 00 00 00 00 00 00 00 00 00 00 00 00 00 00 00 00 ................
00407550 00 00 00 00 00 00 00 00 00 00 00 00 00 00 00 00 ................
00407560 00 00 00 00 00 00 00 00 00 00 00 00 00 00 00 00 ................
00407570 00 00 00 00 00 00 00 00 00 00 00 00 00 00 00 00 ................
00407580 00 00 00 00 00 00 00 00 00 00 00 00 00 00 00 00 ................
00407590 00 00 00 00 00 00 00 00 00 00 00 00 00 00 00 00 ................
004075A0 00 00 00 00 00 00 00 00 00 00 00 00 00 00 00 00 ................
004075B0 00 00 00 00 00 00 00 00 00 00 00 00 00 00 00 00 ................
004075C0 00 00 00 00 00 00 00 00 00 00 00 00 00 00 00 00 ................
004075D0 00 00 00 00 00 00 00 00 00 00 00 00 00 00 00 00 ................
004075E0 00 00 00 00 00 00 00 00 00 00 00 00 00 00 00 00 ................
004075F0 00 00 00 00 00 00 00 00 00 00 00 00 00 00 00 00 ................
00407600 00 00 00 00 00 00 00 00 00 00 00 00 00 00 00 00 ................
00407610 00 00 00 00 00 00 00 00 00 00 00 00 00 00 00 00 ................
00407620 00 00 00 00 00 00 00 00 00 00 00 00 00 00 00 00 ................
00407630 00 00 00 00 00 00 00 00 00 00 00 00 00 00 00 00 ................
00407640 00 00 00 00 00 00 00 00 00 00 00 00 00 00 00 00 ................
00407650 00 00 00 00 00 00 00 00 00 00 00 00 00 00 00 00 ................
00407660 00 00 00 00 00 00 00 00 00 00 00 00 00 00 00 00 ................
00407670 00 00 00 00 00 00 00 00 00 00 00 00 00 00 00 00 ................
00407680 00 00 00 00 00 00 00 00 00 00 00 00 00 00 00 00 ................
00407690 00 00 00 00 00 00 00 00 00 00 00 00 00 00 00 00 ................
004076A0 00 00 00 00 00 00 00 00 00 00 00 00 00 00 00 00 ................
004076B0 00 00 00 00 00 00 00 00 00 00 00 00 00 00 00 00 ................
004076C0 00 00 00 00 00 00 00 00 00 00 00 00 00 00 00 00 ................
004076D0 00 00 00 00 00 00 00 00 00 00 00 00 00 00 00 00 ................
004076E0 00 00 00 00 00 00 00 00 00 00 00 00 00 00 00 00 ................
004076F0 00 00 00 00 00 00 00 00 00 00 00 00 00 00 00 00 ................
00407700 00 00 00 00 00 00 00 00 00 00 00 00 00 00 00 00 ................
00407710 00 00 00 00 00 00 00 00 00 00 00 00 00 00 00 00 ................
00407720 00 00 00 00 00 00 00 00 00 00 00 00 00 00 00 00 ................
00407730 00 00 00 00 00 00 00 00 00 00 00 00 00 00 00 00 ................
00407740 00 00 00 00 00 00 00 00 00 00 00 00 00 00 00 00 ................
00407750 00 00 00 00 00 00 00 00 00 00 00 00 00 00 00 00 ................
00407760 00 00 00 00 00 00 00 00 00 00 00 00 00 00 00 00 ................
00407770 00 00 00 00 00 00 00 00 00 00 00 00 00 00 00 00 ................
00407780 00 00 00 00 00 00 00 00 00 00 00 00 00 00 00 00 ................
00407790 00 00 00 00 00 00 00 00 00 00 00 00 00 00 00 00 ................
004077A0 00 00 00 00 00 00 00 00 00 00 00 00 00 00 00 00 ................
004077B0 00 00 00 00 00 00 00 00 00 00 00 00 00 00 00 00 ................
004077C0 00 00 00 00 00 00 00 00 00 00 00 00 00 00 00 00 ................
004077D0 00 00 00 00 00 00 00 00 00 00 00 00 00 00 00 00 ................
004077E0 00 00 00 00 00 00 00 00 00 00 00 00 00 00 00 00 ................
004077F0 00 00 00 00 00 00 00 00 00 00 00 00 00 00 00 00 ................
00407800 00 00 00 00 00 00 00 00 00 00 00 00 00 00 00 00 ................
00407810 00 00 00 00 00 00 00 00 00 00 00 00 00 00 00 00 ................
00407820 00 00 00 00 00 00 00 00 00 00 00 00 00 00 00 00 ................
00407830 00 00 00 00 00 00 00 00 00 00 00 00 00 00 00 00 ................
00407840 00 00 00 00 00 00 00 00 00 00 00 00 00 00 00 00 ................
00407850 00 00 00 00 00 00 00 00 00 00 00 00 00 00 00 00 ................
00407860 00 00 00 00 00 00 00 00 00 00 00 00 00 00 00 00 ................
00407870 00 00 00 00 00 00 00 00 00 00 00 00 00 00 00 00 ................
00407880 00 00 00 00 00 00 00 00 00 00 00 00 00 00 00 00 ................
00407890 00 00 00 00 00 00 00 00 00 00 00 00 00 00 00 00 ................
004078A0 00 00 00 00 00 00 00 00 00 00 00 00 00 00 00 00 ................
004078B0 00 00 00 00 00 00 00 00 00 00 00 00 00 00 00 00 ................
004078C0 00 00 00 00 00 00 00 00 00 00 00 00 00 00 00 00 ................
004078D0 00 00 00 00 00 00 00 00 00 00 00 00 00 00 00 00 ................
004078E0 00 00 00 00 00 00 00 00 00 00 00 00 00 00 00 00 ................
004078F0 00 00 00 00 00 00 00 00 00 00 00 00 00 00 00 00 ................
00407900 00 00 00 00 00 00 00 00 00 00 00 00 00 00 00 00 ................
00407910 00 00 00 00 00 00 00 00 00 00 00 00 00 00 00 00 ................
00407920 00 00 00 00 00 00 00 00 00 00 00 00 00 00 00 00 ................
00407930 00 00 00 00 00 00 00 00 00 00 00 00 00 00 00 00 ................
00407940 00 00 00 00 00 00 00 00 00 00 00 00 00 00 00 00 ................
00407950 00 00 00 00 00 00 00 00 00 00 00 00 00 00 00 00 ................
00407960 00 00 00 00 00 00 00 00 00 00 00 00 00 00 00 00 ................
00407970 00 00 00 00 00 00 00 00 00 00 00 00 00 00 00 00 ................
00407980 00 00 00 00 00 00 00 00 00 00 00 00 00 00 00 00 ................
00407990 00 00 00 00 00 00 00 00 00 00 00 00 00 00 00 00 ................
004079A0 00 00 00 00 00 00 00 00 00 00 00 00 00 00 00 00 ................
004079B0 00 00 00 00 00 00 00 00 00 00 00 00 00 00 00 00 ................
004079C0 00 00 00 00 00 00 00 00 00 00 00 00 00 00 00 00 ................
004079D0 00 00 00 00 00 00 00 00 00 00 00 00 00 00 00 00 ................
004079E0 00 00 00 00 00 00 00 00 00 00 00 00 00 00 00 00 ................
004079F0 00 00 00 00 00 00 00 00 00 00 00 00 00 00 00 00 ................
00407A00 00 00 00 00 00 00 00 00 00 00 00 00 00 00 00 00 ................
00407A10 00 00 00 00 00 00 00 00 00 00 00 00 00 00 00 00 ................
00407A20 00 00 00 00 00 00 00 00 00 00 00 00 00 00 00 00 ................
00407A30 00 00 00 00 00 00 00 00 00 00 00 00 00 00 00 00 ................
00407A40 00 00 00 00 00 00 00 00 00 00 00 00 00 00 00 00 ................
00407A50 00 00 00 00 00 00 00 00 00 00 00 00 00 00 00 00 ................
00407A60 00 00 00 00 00 00 00 00 00 00 00 00 00 00 00 00 ................
00407A70 00 00 00 00 00 00 00 00 00 00 00 00 00 00 00 00 ................
00407A80 00 00 00 00 00 00 00 00 00 00 00 00 00 00 00 00 ................
00407A90 00 00 00 00 00 00 00 00 00 00 00 00 00 00 00 00 ................
00407AA0 00 00 00 00 00 00 00 00 00 00 00 00 00 00 00 00 ................
00407AB0 00 00 00 00 00 00 00 00 00 00 00 00 00 00 00 00 ................
00407AC0 00 00 00 00 00 00 00 00 00 00 00 00 00 00 00 00 ................
00407AD0 00 00 00 00 00 00 00 00 00 00 00 00 00 00 00 00 ................
00407AE0 00 00 00 00 00 00 00 00 00 00 00 00 00 00 00 00 ................
00407AF0 00 00 00 00 00 00 00 00 00 00 00 00 00 00 00 00 ................
00407B00 00 00 00 00 00 00 00 00 00 00 00 00 00 00 00 00 ................
00407B10 00 00 00 00 00 00 00 00 00 00 00 00 00 00 00 00 ................
00407B20 00 00 00 00 00 00 00 00 00 00 00 00 00 00 00 00 ................
00407B30 00 00 00 00 00 00 00 00 00 00 00 00 00 00 00 00 ................
00407B40 00 00 00 00 00 00 00 00 00 00 00 00 00 00 00 00 ................
00407B50 00 00 00 00 00 00 00 00 00 00 00 00 00 00 00 00 ................
00407B60 00 00 00 00 00 00 00 00 00 00 00 00 00 00 00 00 ................
00407B70 00 00 00 00 00 00 00 00 00 00 00 00 00 00 00 00 ................
00407B80 00 00 00 00 00 00 00 00 00 00 00 00 00 00 00 00 ................
00407B90 00 00 00 00 00 00 00 00 00 00 00 00 00 00 00 00 ................
00407BA0 00 00 00 00 00 00 00 00 00 00 00 00 00 00 00 00 ................
00407BB0 00 00 00 00 00 00 00 00 00 00 00 00 00 00 00 00 ................
00407BC0 00 00 00 00 00 00 00 00 00 00 00 00 00 00 00 00 ................
00407BD0 00 00 00 00 00 00 00 00 00 00 00 00 00 00 00 00 ................
00407BE0 00 00 00 00 00 00 00 00 00 00 00 00 00 00 00 00 ................
00407BF0 00 00 00 00 00 00 00 00 00 00 00 00 00 00 00 00 ................
00407C00 00 00 00 00 00 00 00 00 00 00 00 00 00 00 00 00 ................
00407C10 00 00 00 00 00 00 00 00 00 00 00 00 00 00 00 00 ................
00407C20 00 00 00 00 00 00 00 00 00 00 00 00 00 00 00 00 ................
00407C30 00 00 00 00 00 00 00 00 00 00 00 00 00 00 00 00 ................
00407C40 00 00 00 00 00 00 00 00 00 00 00 00 00 00 00 00 ................
00407C50 00 00 00 00 00 00 00 00 00 00 00 00 00 00 00 00 ................
00407C60 00 00 00 00 00 00 00 00 00 00 00 00 00 00 00 00 ................
00407C70 00 00 00 00 00 00 00 00 00 00 00 00 00 00 00 00 ................
00407C80 00 00 00 00 00 00 00 00 00 00 00 00 00 00 00 00 ................
00407C90 00 00 00 00 00 00 00 00 00 00 00 00 00 00 00 00 ................
00407CA0 00 00 00 00 00 00 00 00 00 00 00 00 00 00 00 00 ................
00407CB0 00 00 00 00 00 00 00 00 00 00 00 00 00 00 00 00 ................
00407CC0 00 00 00 00 00 00 00 00 00 00 00 00 00 00 00 00 ................
00407CD0 00 00 00 00 00 00 00 00 00 00 00 00 00 00 00 00 ................
00407CE0 00 00 00 00 00 00 00 00 00 00 00 00 00 00 00 00 ................
00407CF0 00 00 00 00 00 00 00 00 00 00 00 00 00 00 00 00 ................
00407D00 00 00 00 00 00 00 00 00 00 00 00 00 00 00 00 00 ................
00407D10 00 00 00 00 00 00 00 00 00 00 00 00 00 00 00 00 ................
00407D20 00 00 00 00 00 00 00 00 00 00 00 00 00 00 00 00 ................
00407D30 00 00 00 00 00 00 00 00 00 00 00 00 00 00 00 00 ................
00407D40 00 00 00 00 00 00 00 00 00 00 00 00 00 00 00 00 ................
00407D50 00 00 00 00 00 00 00 00 00 00 00 00 00 00 00 00 ................
00407D60 00 00 00 00 00 00 00 00 00 00 00 00 00 00 00 00 ................
00407D70 00 00 00 00 00 00 00 00 00 00 00 00 00 00 00 00 ................
00407D80 00 00 00 00 00 00 00 00 00 00 00 00 00 00 00 00 ................
00407D90 00 00 00 00 00 00 00 00 00 00 00 00 00 00 00 00 ................
00407DA0 00 00 00 00 00 00 00 00 00 00 00 00 00 00 00 00 ................
00407DB0 00 00 00 00 00 00 00 00 00 00 00 00 00 00 00 00 ................
00407DC0 00 00 00 00 00 00 00 00 00 00 00 00 00 00 00 00 ................
00407DD0 00 00 00 00 00 00 00 00 00 00 00 00 00 00 00 00 ................
00407DE0 00 00 00 00 00 00 00 00 00 00 00 00 00 00 00 00 ................
00407DF0 00 00 00 00 00 00 00 00 00 00 00 00 00 00 00 00 ................
00407E00 00 00 00 00 00 00 00 00 00 00 00 00 00 00 00 00 ................
00407E10 00 00 00 00 00 00 00 00 00 00 00 00 00 00 00 00 ................
00407E20 00 00 00 00 00 00 00 00 00 00 00 00 00 00 00 00 ................
00407E30 00 00 00 00 00 00 00 00 00 00 00 00 00 00 00 00 ................
00407E40 00 00 00 00 00 00 00 00 00 00 00 00 00 00 00 00 ................
00407E50 00 00 00 00 00 00 00 00 00 00 00 00 00 00 00 00 ................
00407E60 00 00 00 00 00 00 00 00 00 00 00 00 00 00 00 00 ................
00407E70 00 00 00 00 00 00 00 00 00 00 00 00 00 00 00 00 ................
00407E80 00 00 00 00 00 00 00 00 00 00 00 00 00 00 00 00 ................
00407E90 00 00 00 00 00 00 00 00 00 00 00 00 00 00 00 00 ................
00407EA0 00 00 00 00 00 00 00 00 00 00 00 00 00 00 00 00 ................
00407EB0 00 00 00 00 00 00 00 00 00 00 00 00 00 00 00 00 ................
00407EC0 00 00 00 00 00 00 00 00 00 00 00 00 00 00 00 00 ................
00407ED0 00 00 00 00 00 00 00 00 00 00 00 00 00 00 00 00 ................
00407EE0 00 00 00 00 00 00 00 00 00 00 00 00 00 00 00 00 ................
00407EF0 00 00 00 00 00 00 00 00 00 00 00 00 00 00 00 00 ................
00407F00 00 00 00 00 00 00 00 00 00 00 00 00 00 00 00 00 ................
00407F10 00 00 00 00 00 00 00 00 00 00 00 00 00 00 00 00 ................
00407F20 00 00 00 00 00 00 00 00 00 00 00 00 00 00 00 00 ................
00407F30 00 00 00 00 00 00 00 00 00 00 00 00 00 00 00 00 ................
00407F40 00 00 00 00 00 00 00 00 00 00 00 00 00 00 00 00 ................
00407F50 00 00 00 00 00 00 00 00 00 00 00 00 00 00 00 00 ................
00407F60 00 00 00 00 00 00 00 00 00 00 00 00 00 00 00 00 ................
00407F70 00 00 00 00 00 00 00 00 00 00 00 00 00 00 00 00 ................
00407F80 00 00 00 00 00 00 00 00 00 00 00 00 00 00 00 00 ................
00407F90 00 00 00 00 00 00 00 00 00 00 00 00 00 00 00 00 ................
00407FA0 00 00 00 00 00 00 00 00 00 00 00 00 00 00 00 00 ................
00407FB0 00 00 00 00 00 00 00 00 00 00 00 00 00 00 00 00 ................
00407FC0 00 00 00 00 00 00 00 00 00 00 00 00 00 00 00 00 ................
00407FD0 00 00 00 00 00 00 00 00 00 00 00 00 00 00 00 00 ................
00407FE0 00 00 00 00 00 00 00 00 00 00 00 00 00 00 00 00 ................
00407FF0 00 00 00 00 00 00 00 00 00 00 00 00 00 00 00 00 ................
00408000 00 00 00 00 00 00 00 00 00 00 00 00 00 00 00 00 ................
00408010 00 00 00 00 00 00 00 00 00 00 00 00 00 00 00 00 ................
00408020 00 00 00 00 00 00 00 00 00 00 00 00 00 00 00 00 ................
00408030 00 00 00 00 00 00 00 00 00 00 00 00 00 00 00 00 ................
00408040 00 00 00 00 00 00 00 00 00 00 00 00 00 00 00 00 ................
00408050 00 00 00 00 00 00 00 00 00 00 00 00 00 00 00 00 ................
00408060 00 00 00 00 00 00 00 00 00 00 00 00 00 00 00 00 ................
00408070 00 00 00 00 00 00 00 00 00 00 00 00 00 00 00 00 ................
00408080 00 00 00 00 00 00 00 00 00 00 00 00 00 00 00 00 ................
00408090 00 00 00 00 00 00 00 00 00 00 00 00 00 00 00 00 ................
004080A0 00 00 00 00 00 00 00 00 00 00 00 00 00 00 00 00 ................
004080B0 00 00 00 00 00 00 00 00 00 00 00 00 00 00 00 00 ................
004080C0 00 00 00 00 00 00 00 00 00 00 00 00 00 00 00 00 ................
004080D0 00 00 00 00 00 00 00 00 00 00 00 00 00 00 00 00 ................
004080E0 00 00 00 00 00 00 00 00 00 00 00 00 00 00 00 00 ................
004080F0 00 00 00 00 00 00 00 00 00 00 00 00 00 00 00 00 ................
00408100 00 00 00 00 00 00 00 00 00 00 00 00 00 00 00 00 ................
00408110 00 00 00 00 00 00 00 00 00 00 00 00 00 00 00 00 ................
00408120 00 00 00 00 00 00 00 00 00 00 00 00 00 00 00 00 ................
00408130 00 00 00 00 00 00 00 00 00 00 00 00 00 00 00 00 ................
00408140 00 00 00 00 00 00 00 00 00 00 00 00 00 00 00 00 ................
00408150 00 00 00 00 00 00 00 00 00 00 00 00 00 00 00 00 ................
00408160 00 00 00 00 00 00 00 00 00 00 00 00 00 00 00 00 ................
00408170 00 00 00 00 00 00 00 00 00 00 00 00 00 00 00 00 ................
00408180 00 00 00 00 00 00 00 00 00 00 00 00 00 00 00 00 ................
00408190 00 00 00 00 00 00 00 00 00 00 00 00 00 00 00 00 ................
004081A0 00 00 00 00 00 00 00 00 00 00 00 00 00 00 00 00 ................
004081B0 00 00 00 00 00 00 00 00 00 00 00 00 00 00 00 00 ................
004081C0 00 00 00 00 00 00 00 00 00 00 00 00 00 00 00 00 ................
004081D0 00 00 00 00 00 00 00 00 00 00 00 00 00 00 00 00 ................
004081E0 00 00 00 00 00 00 00 00 00 00 00 00 00 00 00 00 ................
004081F0 00 00 00 00 00 00 00 00 00 00 00 00 00 00 00 00 ................
00408200 00 00 00 00 00 00 00 00 00 00 00 00 00 00 00 00 ................
00408210 00 00 00 00 00 00 00 00 00 00 00 00 00 00 00 00 ................
00408220 00 00 00 00 00 00 00 00 00 00 00 00 00 00 00 00 ................
00408230 00 00 00 00 00 00 00 00 00 00 00 00 00 00 00 00 ................
00408240 00 00 00 00 00 00 00 00 00 00 00 00 00 00 00 00 ................
00408250 00 00 00 00 00 00 00 00 00 00 00 00 00 00 00 00 ................
00408260 00 00 00 00 00 00 00 00 00 00 00 00 00 00 00 00 ................
00408270 00 00 00 00 00 00 00 00 00 00 00 00 00 00 00 00 ................
00408280 00 00 00 00 00 00 00 00 00 00 00 00 00 00 00 00 ................
00408290 00 00 00 00 00 00 00 00 00 00 00 00 00 00 00 00 ................
004082A0 00 00 00 00 00 00 00 00 00 00 00 00 00 00 00 00 ................
004082B0 00 00 00 00 00 00 00 00 00 00 00 00 00 00 00 00 ................
004082C0 00 00 00 00 00 00 00 00 00 00 00 00 00 00 00 00 ................
004082D0 00 00 00 00 00 00 00 00 00 00 00 00 00 00 00 00 ................
004082E0 00 00 00 00 00 00 00 00 00 00 00 00 00 00 00 00 ................
004082F0 00 00 00 00 00 00 00 00 00 00 00 00 00 00 00 00 ................
00408300 00 00 00 00 00 00 00 00 00 00 00 00 00 00 00 00 ................
00408310 00 00 00 00 00 00 00 00 00 00 00 00 00 00 00 00 ................
00408320 00 00 00 00 00 00 00 00 00 00 00 00 00 00 00 00 ................
00408330 00 00 00 00 00 00 00 00 00 00 00 00 00 00 00 00 ................
00408340 00 00 00 00 00 00 00 00 00 00 00 00 00 00 00 00 ................
00408350 00 00 00 00 00 00 00 00 00 00 00 00 00 00 00 00 ................
00408360 00 00 00 00 00 00 00 00 00 00 00 00 00 00 00 00 ................
00408370 00 00 00 00 00 00 00 00 00 00 00 00 00 00 00 00 ................
00408380 00 00 00 00 00 00 00 00 00 00 00 00 00 00 00 00 ................
00408390 00 00 00 00 00 00 00 00 00 00 00 00 00 00 00 00 ................
004083A0 00 00 00 00 00 00 00 00 00 00 00 00 00 00 00 00 ................
004083B0 00 00 00 00 00 00 00 00 00 00 00 00 00 00 00 00 ................
004083C0 00 00 00 00 00 00 00 00 00 00 00 00 00 00 00 00 ................
004083D0 00 00 00 00 00 00 00 00 00 00 00 00 00 00 00 00 ................
004083E0 00 00 00 00 00 00 00 00 00 00 00 00 00 00 00 00 ................
004083F0 00 00 00 00 00 00 00 00 00 00 00 00 00 00 00 00 ................
00408400 00 00 00 00 00 00 00 00 00 00 00 00 00 00 00 00 ................
00408410 00 00 00 00 00 00 00 00 00 00 00 00 00 00 00 00 ................
00408420 00 00 00 00 00 00 00 00 00 00 00 00 00 00 00 00 ................
00408430 00 00 00 00 00 00 00 00 00 00 00 00 00 00 00 00 ................
00408440 00 00 00 00 00 00 00 00 00 00 00 00 00 00 00 00 ................
00408450 00 00 00 00 00 00 00 00 00 00 00 00 00 00 00 00 ................
00408460 00 00 00 00 00 00 00 00 00 00 00 00 00 00 00 00 ................
00408470 00 00 00 00 00 00 00 00 00 00 00 00 00 00 00 00 ................
00408480 00 00 00 00 00 00 00 00 00 00 00 00 00 00 00 00 ................
00408490 00 00 00 00 00 00 00 00 00 00 00 00 00 00 00 00 ................
004084A0 00 00 00 00 00 00 00 00 00 00 00 00 00 00 00 00 ................
004084B0 00 00 00 00 00 00 00 00 00 00 00 00 00 00 00 00 ................
004084C0 00 00 00 00 00 00 00 00 00 00 00 00 00 00 00 00 ................
004084D0 00 00 00 00 00 00 00 00 00 00 00 00 00 00 00 00 ................
004084E0 00 00 00 00 00 00 00 00 00 00 00 00 00 00 00 00 ................
004084F0 00 00 00 00 00 00 00 00 00 00 00 00 00 00 00 00 ................
00408500 00 00 00 00 00 00 00 00 00 00 00 00 00 00 00 00 ................
00408510 00 00 00 00 00 00 00 00 00 00 00 00 00 00 00 00 ................
00408520 00 00 00 00 00 00 00 00 00 00 00 00 00 00 00 00 ................
00408530 00 00 00 00 00 00 00 00 00 00 00 00 00 00 00 00 ................
00408540 00 00 00 00 00 00 00 00 00 00 00 00 00 00 00 00 ................
00408550 00 00 00 00 00 00 00 00 00 00 00 00 00 00 00 00 ................
00408560 00 00 00 00 00 00 00 00 00 00 00 00 00 00 00 00 ................
00408570 00 00 00 00 00 00 00 00 00 00 00 00 00 00 00 00 ................
00408580 00 00 00 00 00 00 00 00 00 00 00 00 00 00 00 00 ................
00408590 00 00 00 00 00 00 00 00 00 00 00 00 00 00 00 00 ................
004085A0 00 00 00 00 00 00 00 00 00 00 00 00 00 00 00 00 ................
004085B0 00 00 00 00 00 00 00 00 00 00 00 00 00 00 00 00 ................
004085C0 00 00 00 00 00 00 00 00 00 00 00 00 00 00 00 00 ................
004085D0 00 00 00 00 00 00 00 00 00 00 00 00 00 00 00 00 ................
004085E0 00 00 00 00 00 00 00 00 00 00 00 00 00 00 00 00 ................
004085F0 00 00 00 00 00 00 00 00 00 00 00 00 00 00 00 00 ................
00408600 00 00 00 00 00 00 00 00 00 00 00 00 00 00 00 00 ................
00408610 00 00 00 00 00 00 00 00 00 00 00 00 00 00 00 00 ................
00408620 00 00 00 00 00 00 00 00 00 00 00 00 00 00 00 00 ................
00408630 00 00 00 00 00 00 00 00 00 00 00 00 00 00 00 00 ................
00408640 00 00 00 00 00 00 00 00 00 00 00 00 00 00 00 00 ................
00408650 00 00 00 00 00 00 00 00 00 00 00 00 00 00 00 00 ................
00408660 00 00 00 00 00 00 00 00 00 00 00 00 00 00 00 00 ................
00408670 00 00 00 00 00 00 00 00 00 00 00 00 00 00 00 00 ................
00408680 00 00 00 00 00 00 00 00 00 00 00 00 00 00 00 00 ................
00408690 00 00 00 00 00 00 00 00 00 00 00 00 00 00 00 00 ................
004086A0 00 00 00 00 00 00 00 00 00 00 00 00 00 00 00 00 ................
004086B0 00 00 00 00 00 00 00 00 00 00 00 00 00 00 00 00 ................
004086C0 00 00 00 00 00 00 00 00 00 00 00 00 00 00 00 00 ................
004086D0 00 00 00 00 00 00 00 00 00 00 00 00 00 00 00 00 ................
004086E0 00 00 00 00 00 00 00 00 00 00 00 00 00 00 00 00 ................
004086F0 00 00 00 00 00 00 00 00 00 00 00 00 00 00 00 00 ................
00408700 00 00 00 00 00 00 00 00 00 00 00 00 00 00 00 00 ................
00408710 00 00 00 00 00 00 00 00 00 00 00 00 00 00 00 00 ................
00408720 00 00 00 00 00 00 00 00 00 00 00 00 00 00 00 00 ................
00408730 00 00 00 00 00 00 00 00 00 00 00 00 00 00 00 00 ................
00408740 00 00 00 00 00 00 00 00 00 00 00 00 00 00 00 00 ................
00408750 00 00 00 00 00 00 00 00 00 00 00 00 00 00 00 00 ................
00408760 00 00 00 00 00 00 00 00 00 00 00 00 00 00 00 00 ................
00408770 00 00 00 00 00 00 00 00 00 00 00 00 00 00 00 00 ................
00408780 00 00 00 00 00 00 00 00 00 00 00 00 00 00 00 00 ................
00408790 00 00 00 00 00 00 00 00 00 00 00 00 00 00 00 00 ................
004087A0 00 00 00 00 00 00 00 00 00 00 00 00 00 00 00 00 ................
004087B0 00 00 00 00 00 00 00 00 00 00 00 00 00 00 00 00 ................
004087C0 00 00 00 00 00 00 00 00 00 00 00 00 00 00 00 00 ................
004087D0 00 00 00 00 00 00 00 00 00 00 00 00 00 00 00 00 ................
004087E0 00 00 00 00 00 00 00 00 00 00 00 00 00 00 00 00 ................
004087F0 00 00 00 00 00 00 00 00 00 00 00 00 00 00 00 00 ................
00408800 00 00 00 00 00 00 00 00 00 00 00 00 00 00 00 00 ................
00408810 00 00 00 00 00 00 00 00 00 00 00 00 00 00 00 00 ................
00408820 00 00 00 00 00 00 00 00 00 00 00 00 00 00 00 00 ................
00408830 00 00 00 00 00 00 00 00 00 00 00 00 00 00 00 00 ................
00408840 00 00 00 00 00 00 00 00 00 00 00 00 00 00 00 00 ................
00408850 00 00 00 00 00 00 00 00 00 00 00 00 00 00 00 00 ................
00408860 00 00 00 00 00 00 00 00 00 00 00 00 00 00 00 00 ................
00408870 00 00 00 00 00 00 00 00 00 00 00 00 00 00 00 00 ................
00408880 00 00 00 00 00 00 00 00 00 00 00 00 00 00 00 00 ................
00408890 00 00 00 00 00 00 00 00 00 00 00 00 00 00 00 00 ................
004088A0 00 00 00 00 00 00 00 00 00 00 00 00 00 00 00 00 ................
004088B0 00 00 00 00 00 00 00 00 00 00 00 00 00 00 00 00 ................
004088C0 00 00 00 00 00 00 00 00 00 00 00 00 00 00 00 00 ................
004088D0 00 00 00 00 00 00 00 00 00 00 00 00 00 00 00 00 ................
004088E0 00 00 00 00 00 00 00 00 00 00 00 00 00 00 00 00 ................
004088F0 00 00 00 00 00 00 00 00 00 00 00 00 00 00 00 00 ................
00408900 00 00 00 00 00 00 00 00 00 00 00 00 00 00 00 00 ................
00408910 00 00 00 00 00 00 00 00 00 00 00 00 00 00 00 00 ................
00408920 00 00 00 00 00 00 00 00 00 00 00 00 00 00 00 00 ................
00408930 00 00 00 00 00 00 00 00 00 00 00 00 00 00 00 00 ................
00408940 00 00 00 00 00 00 00 00 00 00 00 00 00 00 00 00 ................
00408950 00 00 00 00 00 00 00 00 00 00 00 00 00 00 00 00 ................
00408960 00 00 00 00 00 00 00 00 00 00 00 00 00 00 00 00 ................
00408970 00 00 00 00 00 00 00 00 00 00 00 00 00 00 00 00 ................
00408980 00 00 00 00 00 00 00 00 00 00 00 00 00 00 00 00 ................
00408990 00 00 00 00 00 00 00 00 00 00 00 00 00 00 00 00 ................
004089A0 00 00 00 00 00 00 00 00 00 00 00 00 00 00 00 00 ................
004089B0 00 00 00 00 00 00 00 00 00 00 00 00 00 00 00 00 ................
004089C0 00 00 00 00 00 00 00 00 00 00 00 00 00 00 00 00 ................
004089D0 00 00 00 00 00 00 00 00 00 00 00 00 00 00 00 00 ................
004089E0 00 00 00 00 00 00 00 00 00 00 00 00 00 00 00 00 ................
004089F0 00 00 00 00 00 00 00 00 00 00 00 00 00 00 00 00 ................
00408A00 00 00 00 00 00 00 00 00 00 00 00 00 00 00 00 00 ................
00408A10 00 00 00 00 00 00 00 00 00 00 00 00 00 00 00 00 ................
00408A20 00 00 00 00 00 00 00 00 00 00 00 00 00 00 00 00 ................
00408A30 00 00 00 00 00 00 00 00 00 00 00 00 00 00 00 00 ................
00408A40 00 00 00 00 00 00 00 00 00 00 00 00 00 00 00 00 ................
00408A50 00 00 00 00 00 00 00 00 00 00 00 00 00 00 00 00 ................
00408A60 00 00 00 00 00 00 00 00 00 00 00 00 00 00 00 00 ................
00408A70 00 00 00 00 00 00 00 00 00 00 00 00 00 00 00 00 ................
00408A80 00 00 00 00 00 00 00 00 00 00 00 00 00 00 00 00 ................
00408A90 00 00 00 00 00 00 00 00 00 00 00 00 00 00 00 00 ................
00408AA0 00 00 00 00 00 00 00 00 00 00 00 00 00 00 00 00 ................
00408AB0 00 00 00 00 00 00 00 00 00 00 00 00 00 00 00 00 ................
00408AC0 00 00 00 00 00 00 00 00 00 00 00 00 00 00 00 00 ................
00408AD0 00 00 00 00 00 00 00 00 00 00 00 00 00 00 00 00 ................
00408AE0 00 00 00 00 00 00 00 00 00 00 00 00 00 00 00 00 ................
00408AF0 00 00 00 00 00 00 00 00 00 00 00 00 00 00 00 00 ................
00408B00 00 00 00 00 00 00 00 00 00 00 00 00 00 00 00 00 ................
00408B10 00 00 00 00 00 00 00 00 00 00 00 00 00 00 00 00 ................
00408B20 00 00 00 00 00 00 00 00 00 00 00 00 00 00 00 00 ................
00408B30 00 00 00 00 00 00 00 00 00 00 00 00 00 00 00 00 ................
00408B40 00 00 00 00 00 00 00 00 00 00 00 00 00 00 00 00 ................
00408B50 00 00 00 00 00 00 00 00 00 00 00 00 00 00 00 00 ................
00408B60 00 00 00 00 00 00 00 00 00 00 00 00 00 00 00 00 ................
00408B70 00 00 00 00 00 00 00 00 00 00 00 00 00 00 00 00 ................
00408B80 00 00 00 00 00 00 00 00 00 00 00 00 00 00 00 00 ................
00408B90 00 00 00 00 00 00 00 00 00 00 00 00 00 00 00 00 ................
00408BA0 00 00 00 00 00 00 00 00 00 00 00 00 00 00 00 00 ................
00408BB0 00 00 00 00 00 00 00 00 00 00 00 00 00 00 00 00 ................
00408BC0 00 00 00 00 00 00 00 00 00 00 00 00 00 00 00 00 ................
00408BD0 00 00 00 00 00 00 00 00 00 00 00 00 00 00 00 00 ................
00408BE0 00 00 00 00 00 00 00 00 00 00 00 00 00 00 00 00 ................
00408BF0 00 00 00 00 00 00 00 00 00 00 00 00 00 00 00 00 ................
00408C00 00 00 00 00 00 00 00 00 00 00 00 00 00 00 00 00 ................
00408C10 00 00 00 00 00 00 00 00 00 00 00 00 00 00 00 00 ................
00408C20 00 00 00 00 00 00 00 00 00 00 00 00 00 00 00 00 ................
00408C30 00 00 00 00 00 00 00 00 00 00 00 00 00 00 00 00 ................
00408C40 00 00 00 00 00 00 00 00 00 00 00 00 00 00 00 00 ................
00408C50 00 00 00 00 00 00 00 00 00 00 00 00 00 00 00 00 ................
00408C60 00 00 00 00 00 00 00 00 00 00 00 00 00 00 00 00 ................
00408C70 00 00 00 00 00 00 00 00 00 00 00 00 00 00 00 00 ................
00408C80 00 00 00 00 00 00 00 00 00 00 00 00 00 00 00 00 ................
00408C90 00 00 00 00 00 00 00 00 00 00 00 00 00 00 00 00 ................
00408CA0 00 00 00 00 00 00 00 00 00 00 00 00 00 00 00 00 ................
00408CB0 00 00 00 00 00 00 00 00 00 00 00 00 00 00 00 00 ................
00408CC0 00 00 00 00 00 00 00 00 00 00 00 00 00 00 00 00 ................
00408CD0 00 00 00 00 00 00 00 00 00 00 00 00 00 00 00 00 ................
00408CE0 00 00 00 00 00 00 00 00 00 00 00 00 00 00 00 00 ................
00408CF0 00 00 00 00 00 00 00 00 00 00 00 00 00 00 00 00 ................
00408D00 00 00 00 00 00 00 00 00 00 00 00 00 00 00 00 00 ................
00408D10 00 00 00 00 00 00 00 00 00 00 00 00 00 00 00 00 ................
00408D20 00 00 00 00 00 00 00 00 00 00 00 00 00 00 00 00 ................
00408D30 00 00 00 00 00 00 00 00 00 00 00 00 00 00 00 00 ................
00408D40 00 00 00 00 00 00 00 00 00 00 00 00 00 00 00 00 ................
00408D50 00 00 00 00 00 00 00 00 00 00 00 00 00 00 00 00 ................
00408D60 00 00 00 00 00 00 00 00 00 00 00 00 00 00 00 00 ................
00408D70 00 00 00 00 00 00 00 00 00 00 00 00 00 00 00 00 ................
00408D80 00 00 00 00 00 00 00 00 00 00 00 00 00 00 00 00 ................
00408D90 00 00 00 00 00 00 00 00 00 00 00 00 00 00 00 00 ................
00408DA0 00 00 00 00 00 00 00 00 00 00 00 00 00 00 00 00 ................
00408DB0 00 00 00 00 00 00 00 00 00 00 00 00 00 00 00 00 ................
00408DC0 00 00 00 00 00 00 00 00 00 00 00 00 00 00 00 00 ................
00408DD0 00 00 00 00 00 00 00 00 00 00 00 00 00 00 00 00 ................
00408DE0 00 00 00 00 00 00 00 00 00 00 00 00 00 00 00 00 ................
00408DF0 00 00 00 00 00 00 00 00 00 00 00 00 00 00 00 00 ................
00408E00 00 00 00 00 00 00 00 00 00 00 00 00 00 00 00 00 ................
00408E10 00 00 00 00 00 00 00 00 00 00 00 00 00 00 00 00 ................
00408E20 00 00 00 00 00 00 00 00 00 00 00 00 00 00 00 00 ................
00408E30 00 00 00 00 00 00 00 00 00 00 00 00 00 00 00 00 ................
00408E40 00 00 00 00 00 00 00 00 00 00 00 00 00 00 00 00 ................
00408E50 00 00 00 00 00 00 00 00 00 00 00 00 00 00 00 00 ................
00408E60 00 00 00 00 00 00 00 00 00 00 00 00 00 00 00 00 ................
00408E70 00 00 00 00 00 00 00 00 00 00 00 00 00 00 00 00 ................
00408E80 00 00 00 00 00 00 00 00 00 00 00 00 00 00 00 00 ................
00408E90 00 00 00 00 00 00 00 00 00 00 00 00 00 00 00 00 ................
00408EA0 00 00 00 00 00 00 00 00 00 00 00 00 00 00 00 00 ................
00408EB0 00 00 00 00 00 00 00 00 00 00 00 00 00 00 00 00 ................
00408EC0 00 00 00 00 00 00 00 00 00 00 00 00 00 00 00 00 ................
00408ED0 00 00 00 00 00 00 00 00 00 00 00 00 00 00 00 00 ................
00408EE0 00 00 00 00 00 00 00 00 00 00 00 00 00 00 00 00 ................
00408EF0 00 00 00 00 00 00 00 00 00 00 00 00 00 00 00 00 ................
00408F00 00 00 00 00 00 00 00 00 00 00 00 00 00 00 00 00 ................
00408F10 00 00 00 00 00 00 00 00 00 00 00 00 00 00 00 00 ................
00408F20 00 00 00 00 00 00 00 00 00 00 00 00 00 00 00 00 ................
00408F30 00 00 00 00 00 00 00 00 00 00 00 00 00 00 00 00 ................
00408F40 00 00 00 00 00 00 00 00 00 00 00 00 00 00 00 00 ................
00408F50 00 00 00 00 00 00 00 00 00 00 00 00 00 00 00 00 ................
00408F60 00 00 00 00 00 00 00 00 00 00 00 00 00 00 00 00 ................
00408F70 00 00 00 00 00 00 00 00 00 00 00 00 00 00 00 00 ................
00408F80 00 00 00 00 00 00 00 00 00 00 00 00 00 00 00 00 ................
00408F90 00 00 00 00 00 00 00 00 00 00 00 00 00 00 00 00 ................
00408FA0 00 00 00 00 00 00 00 00 00 00 00 00 00 00 00 00 ................
00408FB0 00 00 00 00 00 00 00 00 00 00 00 00 00 00 00 00 ................
00408FC0 00 00 00 00 00 00 00 00 00 00 00 00 00 00 00 00 ................
00408FD0 00 00 00 00 00 00 00 00 00 00 00 00 00 00 00 00 ................
00408FE0 00 00 00 00 00 00 00 00 00 00 00 00 00 00 00 00 ................
00408FF0 00 00 00 00 00 00 00 00 00 00 00 00 00 00 00 00 ................
00409000 00 00 00 00 00 00 00 00 00 00 00 00 00 00 00 00 ................
00409010 00 00 00 00 00 00 00 00 00 00 00 00 00 00 00 00 ................
00409020 00 00 00 00 00 00 00 00 00 00 00 00 00 00 00 00 ................
00409030 00 00 00 00 00 00 00 00 00 00 00 00 00 00 00 00 ................
00409040 00 00 00 00 00 00 00 00 00 00 00 00 00 00 00 00 ................
00409050 00 00 00 00 00 00 00 00 00 00 00 00 00 00 00 00 ................
00409060 00 00 00 00 00 00 00 00 00 00 00 00 00 00 00 00 ................
00409070 00 00 00 00 00 00 00 00 00 00 00 00 00 00 00 00 ................
00409080 00 00 00 00 00 00 00 00 00 00 00 00 00 00 00 00 ................
00409090 00 00 00 00 00 00 00 00 00 00 00 00 00 00 00 00 ................
004090A0 00 00 00 00 00 00 00 00 00 00 00 00 00 00 00 00 ................
004090B0 00 00 00 00 00 00 00 00 00 00 00 00 00 00 00 00 ................
004090C0 00 00 00 00 00 00 00 00 00 00 00 00 00 00 00 00 ................
004090D0 00 00 00 00 00 00 00 00 00 00 00 00 00 00 00 00 ................
004090E0 00 00 00 00 00 00 00 00 00 00 00 00 00 00 00 00 ................
004090F0 00 00 00 00 00 00 00 00 00 00 00 00 00 00 00 00 ................
00409100 00 00 00 00 00 00 00 00 00 00 00 00 00 00 00 00 ................
00409110 00 00 00 00 00 00 00 00 00 00 00 00 00 00 00 00 ................
00409120 00 00 00 00 00 00 00 00 00 00 00 00 00 00 00 00 ................
00409130 00 00 00 00 00 00 00 00 00 00 00 00 00 00 00 00 ................
00409140 00 00 00 00 00 00 00 00 00 00 00 00 00 00 00 00 ................
00409150 00 00 00 00 00 00 00 00 00 00 00 00 00 00 00 00 ................
00409160 00 00 00 00 00 00 00 00 00 00 00 00 00 00 00 00 ................
00409170 00 00 00 00 00 00 00 00 00 00 00 00 00 00 00 00 ................
00409180 00 00 00 00 00 00 00 00 00 00 00 00 00 00 00 00 ................
00409190 00 00 00 00 00 00 00 00 00 00 00 00 00 00 00 00 ................
004091A0 00 00 00 00 00 00 00 00 00 00 00 00 00 00 00 00 ................
004091B0 00 00 00 00 00 00 00 00 00 00 00 00 00 00 00 00 ................
004091C0 00 00 00 00 00 00 00 00 00 00 00 00 00 00 00 00 ................
004091D0 00 00 00 00 00 00 00 00 00 00 00 00 00 00 00 00 ................
004091E0 00 00 00 00 00 00 00 00 00 00 00 00 00 00 00 00 ................
004091F0 00 00 00 00 00 00 00 00 00 00 00 00 00 00 00 00 ................
00409200 00 00 00 00 00 00 00 00 00 00 00 00 00 00 00 00 ................
00409210 00 00 00 00 00 00 00 00 00 00 00 00 00 00 00 00 ................
00409220 00 00 00 00 00 00 00 00 00 00 00 00 00 00 00 00 ................
00409230 00 00 00 00 00 00 00 00 00 00 00 00 00 00 00 00 ................
00409240 00 00 00 00 00 00 00 00 00 00 00 00 00 00 00 00 ................
00409250 00 00 00 00 00 00 00 00 00 00 00 00 00 00 00 00 ................
00409260 00 00 00 00 00 00 00 00 00 00 00 00 00 00 00 00 ................
00409270 00 00 00 00 00 00 00 00 00 00 00 00 00 00 00 00 ................
00409280 00 00 00 00 00 00 00 00 00 00 00 00 00 00 00 00 ................
00409290 00 00 00 00 00 00 00 00 00 00 00 00 00 00 00 00 ................
004092A0 00 00 00 00 00 00 00 00 00 00 00 00 00 00 00 00 ................
004092B0 00 00 00 00 00 00 00 00 00 00 00 00 00 00 00 00 ................
004092C0 00 00 00 00 00 00 00 00 00 00 00 00 00 00 00 00 ................
004092D0 00 00 00 00 00 00 00 00 00 00 00 00 00 00 00 00 ................
004092E0 00 00 00 00 00 00 00 00 00 00 00 00 00 00 00 00 ................
004092F0 00 00 00 00 00 00 00 00 00 00 00 00 00 00 00 00 ................
00409300 00 00 00 00 00 00 00 00 00 00 00 00 00 00 00 00 ................
00409310 00 00 00 00 00 00 00 00 00 00 00 00 00 00 00 00 ................
00409320 00 00 00 00 00 00 00 00 00 00 00 00 00 00 00 00 ................
00409330 00 00 00 00 00 00 00 00 00 00 00 00 00 00 00 00 ................
00409340 00 00 00 00 00 00 00 00 00 00 00 00 00 00 00 00 ................
00409350 00 00 00 00 00 00 00 00 00 00 00 00 00 00 00 00 ................
00409360 00 00 00 00 00 00 00 00 00 00 00 00 00 00 00 00 ................
00409370 00 00 00 00 00 00 00 00 00 00 00 00 00 00 00 00 ................
00409380 00 00 00 00 00 00 00 00 00 00 00 00 00 00 00 00 ................
00409390 00 00 00 00 00 00 00 00 00 00 00 00 00 00 00 00 ................
004093A0 00 00 00 00 00 00 00 00 00 00 00 00 00 00 00 00 ................
004093B0 00 00 00 00 00 00 00 00 00 00 00 00 00 00 00 00 ................
004093C0 00 00 00 00 00 00 00 00 00 00 00 00 00 00 00 00 ................
004093D0 00 00 00 00 00 00 00 00 00 00 00 00 00 00 00 00 ................
004093E0 00 00 00 00 00 00 00 00 00 00 00 00 00 00 00 00 ................
004093F0 00 00 00 00 00 00 00 00 00 00 00 00 00 00 00 00 ................
00409400 00 00 00 00 00 00 00 00 00 00 00 00 00 00 00 00 ................
00409410 00 00 00 00 00 00 00 00 00 00 00 00 00 00 00 00 ................
00409420 00 00 00 00 00 00 00 00 00 00 00 00 00 00 00 00 ................
00409430 00 00 00 00 00 00 00 00 00 00 00 00 00 00 00 00 ................
00409440 00 00 00 00 00 00 00 00 00 00 00 00 00 00 00 00 ................
00409450 00 00 00 00 00 00 00 00 00 00 00 00 00 00 00 00 ................
00409460 00 00 00 00 00 00 00 00 00 00 00 00 00 00 00 00 ................
00409470 00 00 00 00 00 00 00 00 00 00 00 00 00 00 00 00 ................
00409480 00 00 00 00 00 00 00 00 00 00 00 00 00 00 00 00 ................
00409490 00 00 00 00 00 00 00 00 00 00 00 00 00 00 00 00 ................
004094A0 00 00 00 00 00 00 00 00 00 00 00 00 00 00 00 00 ................
004094B0 00 00 00 00 00 00 00 00 00 00 00 00 00 00 00 00 ................
004094C0 00 00 00 00 00 00 00 00 00 00 00 00 00 00 00 00 ................
004094D0 00 00 00 00 00 00 00 00 00 00 00 00 00 00 00 00 ................
004094E0 00 00 00 00 00 00 00 00 00 00 00 00 00 00 00 00 ................
004094F0 00 00 00 00 00 00 00 00 00 00 00 00 00 00 00 00 ................
00409500 00 00 00 00 00 00 00 00 00 00 00 00 00 00 00 00 ................
00409510 00 00 00 00 00 00 00 00 00 00 00 00 00 00 00 00 ................
00409520 00 00 00 00 00 00 00 00 00 00 00 00 00 00 00 00 ................
00409530 00 00 00 00 00 00 00 00 00 00 00 00 00 00 00 00 ................
00409540 00 00 00 00 00 00 00 00 00 00 00 00 00 00 00 00 ................
00409550 00 00 00 00 00 00 00 00 00 00 00 00 00 00 00 00 ................
00409560 00 00 00 00 00 00 00 00 00 00 00 00 00 00 00 00 ................
00409570 00 00 00 00 00 00 00 00 00 00 00 00 00 00 00 00 ................
00409580 00 00 00 00 00 00 00 00 00 00 00 00 00 00 00 00 ................
00409590 00 00 00 00 00 00 00 00 00 00 00 00 00 00 00 00 ................
004095A0 00 00 00 00 00 00 00 00 00 00 00 00 00 00 00 00 ................
004095B0 00 00 00 00 00 00 00 00 00 00 00 00 00 00 00 00 ................
004095C0 00 00 00 00 00 00 00 00 00 00 00 00 00 00 00 00 ................
004095D0 00 00 00 00 00 00 00 00 00 00 00 00 00 00 00 00 ................
004095E0 00 00 00 00 00 00 00 00 00 00 00 00 00 00 00 00 ................
004095F0 00 00 00 00 00 00 00 00 00 00 00 00 00 00 00 00 ................
00409600 00 00 00 00 00 00 00 00 00 00 00 00 00 00 00 00 ................
00409610 00 00 00 00 00 00 00 00 00 00 00 00 00 00 00 00 ................
00409620 00 00 00 00 00 00 00 00 00 00 00 00 00 00 00 00 ................
00409630 00 00 00 00 00 00 00 00 00 00 00 00 00 00 00 00 ................
00409640 00 00 00 00 00 00 00 00 00 00 00 00 00 00 00 00 ................
00409650 00 00 00 00 00 00 00 00 00 00 00 00 00 00 00 00 ................
00409660 00 00 00 00 00 00 00 00 00 00 00 00 00 00 00 00 ................
00409670 00 00 00 00 00 00 00 00 00 00 00 00 00 00 00 00 ................
00409680 00 00 00 00 00 00 00 00 00 00 00 00 00 00 00 00 ................
00409690 00 00 00 00 00 00 00 00 00 00 00 00 00 00 00 00 ................
004096A0 00 00 00 00 00 00 00 00 00 00 00 00 00 00 00 00 ................
004096B0 00 00 00 00 00 00 00 00 00 00 00 00 00 00 00 00 ................
004096C0 00 00 00 00 00 00 00 00 00 00 00 00 00 00 00 00 ................
004096D0 00 00 00 00 00 00 00 00 00 00 00 00 00 00 00 00 ................
004096E0 00 00 00 00 00 00 00 00 00 00 00 00 00 00 00 00 ................
004096F0 00 00 00 00 00 00 00 00 00 00 00 00 00 00 00 00 ................
00409700 00 00 00 00 00 00 00 00 00 00 00 00 00 00 00 00 ................
00409710 00 00 00 00 00 00 00 00 00 00 00 00 00 00 00 00 ................
00409720 00 00 00 00 00 00 00 00 00 00 00 00 00 00 00 00 ................
00409730 00 00 00 00 00 00 00 00 00 00 00 00 00 00 00 00 ................
00409740 00 00 00 00 00 00 00 00 00 00 00 00 00 00 00 00 ................
00409750 00 00 00 00 00 00 00 00 00 00 00 00 00 00 00 00 ................
00409760 00 00 00 00 00 00 00 00 00 00 00 00 00 00 00 00 ................
00409770 00 00 00 00 00 00 00 00 00 00 00 00 00 00 00 00 ................
00409780 00 00 00 00 00 00 00 00 00 00 00 00 00 00 00 00 ................
00409790 00 00 00 00 00 00 00 00 00 00 00 00 00 00 00 00 ................
004097A0 00 00 00 00 00 00 00 00 00 00 00 00 00 00 00 00 ................
004097B0 00 00 00 00 00 00 00 00 00 00 00 00 00 00 00 00 ................
004097C0 00 00 00 00 00 00 00 00 00 00 00 00 00 00 00 00 ................
004097D0 00 00 00 00 00 00 00 00 00 00 00 00 00 00 00 00 ................
004097E0 00 00 00 00 00 00 00 00 00 00 00 00 00 00 00 00 ................
004097F0 00 00 00 00 00 00 00 00 00 00 00 00 00 00 00 00 ................
00409800 00 00 00 00 00 00 00 00 00 00 00 00 00 00 00 00 ................
00409810 00 00 00 00 00 00 00 00 00 00 00 00 00 00 00 00 ................
00409820 00 00 00 00 00 00 00 00 00 00 00 00 00 00 00 00 ................
00409830 00 00 00 00 00 00 00 00 00 00 00 00 00 00 00 00 ................
00409840 00 00 00 00 00 00 00 00 00 00 00 00 00 00 00 00 ................
00409850 00 00 00 00 00 00 00 00 00 00 00 00 00 00 00 00 ................
00409860 00 00 00 00 00 00 00 00 00 00 00 00 00 00 00 00 ................
00409870 00 00 00 00 00 00 00 00 00 00 00 00 00 00 00 00 ................
00409880 00 00 00 00 00 00 00 00 00 00 00 00 00 00 00 00 ................
00409890 00 00 00 00 00 00 00 00 00 00 00 00 00 00 00 00 ................
004098A0 00 00 00 00 00 00 00 00 00 00 00 00 00 00 00 00 ................
004098B0 00 00 00 00 00 00 00 00 00 00 00 00 00 00 00 00 ................
004098C0 00 00 00 00 00 00 00 00 00 00 00 00 00 00 00 00 ................
004098D0 00 00 00 00 00 00 00 00 00 00 00 00 00 00 00 00 ................
004098E0 00 00 00 00 00 00 00 00 00 00 00 00 00 00 00 00 ................
004098F0 00 00 00 00 00 00 00 00 00 00 00 00 00 00 00 00 ................
00409900 00 00 00 00 00 00 00 00 00 00 00 00 00 00 00 00 ................
00409910 00 00 00 00 00 00 00 00 00 00 00 00 00 00 00 00 ................
00409920 00 00 00 00 00 00 00 00 00 00 00 00 00 00 00 00 ................
00409930 00 00 00 00 00 00 00 00 00 00 00 00 00 00 00 00 ................
00409940 00 00 00 00 00 00 00 00 00 00 00 00 00 00 00 00 ................
00409950 00 00 00 00 00 00 00 00 00 00 00 00 00 00 00 00 ................
00409960 00 00 00 00 00 00 00 00 00 00 00 00 00 00 00 00 ................
00409970 00 00 00 00 00 00 00 00 00 00 00 00 00 00 00 00 ................
00409980 00 00 00 00 00 00 00 00 00 00 00 00 00 00 00 00 ................
00409990 00 00 00 00 00 00 00 00 00 00 00 00 00 00 00 00 ................
004099A0 00 00 00 00 00 00 00 00 00 00 00 00 00 00 00 00 ................
004099B0 00 00 00 00 00 00 00 00 00 00 00 00 00 00 00 00 ................
004099C0 00 00 00 00 00 00 00 00 00 00 00 00 00 00 00 00 ................
004099D0 00 00 00 00 00 00 00 00 00 00 00 00 00 00 00 00 ................
004099E0 00 00 00 00 00 00 00 00 00 00 00 00 00 00 00 00 ................
004099F0 00 00 00 00 00 00 00 00 00 00 00 00 00 00 00 00 ................
00409A00 00 00 00 00 00 00 00 00 00 00 00 00 00 00 00 00 ................
00409A10 00 00 00 00 00 00 00 00 00 00 00 00 00 00 00 00 ................
00409A20 00 00 00 00 00 00 00 00 00 00 00 00 00 00 00 00 ................
00409A30 00 00 00 00 00 00 00 00 00 00 00 00 00 00 00 00 ................
00409A40 00 00 00 00 00 00 00 00 00 00 00 00 00 00 00 00 ................
00409A50 00 00 00 00 00 00 00 00 00 00 00 00 00 00 00 00 ................
00409A60 00 00 00 00 00 00 00 00 00 00 00 00 00 00 00 00 ................
00409A70 00 00 00 00 00 00 00 00 00 00 00 00 00 00 00 00 ................
00409A80 00 00 00 00 00 00 00 00 00 00 00 00 00 00 00 00 ................
00409A90 00 00 00 00 00 00 00 00 00 00 00 00 00 00 00 00 ................
00409AA0 00 00 00 00 00 00 00 00 00 00 00 00 00 00 00 00 ................
00409AB0 00 00 00 00 00 00 00 00 00 00 00 00 00 00 00 00 ................
00409AC0 00 00 00 00 00 00 00 00 00 00 00 00 00 00 00 00 ................
00409AD0 00 00 00 00 00 00 00 00 00 00 00 00 00 00 00 00 ................
00409AE0 00 00 00 00 00 00 00 00 00 00 00 00 00 00 00 00 ................
00409AF0 00 00 00 00 00 00 00 00 00 00 00 00 00 00 00 00 ................
00409B00 00 00 00 00 00 00 00 00 00 00 00 00 00 00 00 00 ................
00409B10 00 00 00 00 00 00 00 00 00 00 00 00 00 00 00 00 ................
00409B20 00 00 00 00 00 00 00 00 00 00 00 00 00 00 00 00 ................
00409B30 00 00 00 00 00 00 00 00 00 00 00 00 00 00 00 00 ................
00409B40 00 00 00 00 00 00 00 00 00 00 00 00 00 00 00 00 ................
00409B50 00 00 00 00 00 00 00 00 00 00 00 00 00 00 00 00 ................
00409B60 00 00 00 00 00 00 00 00 00 00 00 00 00 00 00 00 ................
00409B70 00 00 00 00 00 00 00 00 00 00 00 00 00 00 00 00 ................
00409B80 00 00 00 00 00 00 00 00 00 00 00 00 00 00 00 00 ................
00409B90 00 00 00 00 00 00 00 00 00 00 00 00 00 00 00 00 ................
00409BA0 00 00 00 00 00 00 00 00 00 00 00 00 00 00 00 00 ................
00409BB0 00 00 00 00 00 00 00 00 00 00 00 00 00 00 00 00 ................
00409BC0 00 00 00 00 00 00 00 00 00 00 00 00 00 00 00 00 ................
00409BD0 00 00 00 00 00 00 00 00 00 00 00 00 00 00 00 00 ................
00409BE0 00 00 00 00 00 00 00 00 00 00 00 00 00 00 00 00 ................
00409BF0 00 00 00 00 00 00 00 00 00 00 00 00 00 00 00 00 ................
00409C00 00 00 00 00 00 00 00 00 00 00 00 00 00 00 00 00 ................
00409C10 00 00 00 00 00 00 00 00 00 00 00 00 00 00 00 00 ................
00409C20 00 00 00 00 00 00 00 00 00 00 00 00 00 00 00 00 ................
00409C30 00 00 00 00 00 00 00 00 00 00 00 00 00 00 00 00 ................
00409C40 00 00 00 00 00 00 00 00 00 00 00 00 00 00 00 00 ................
00409C50 00 00 00 00 00 00 00 00 00 00 00 00 00 00 00 00 ................
00409C60 00 00 00 00 00 00 00 00 00 00 00 00 00 00 00 00 ................
00409C70 00 00 00 00 00 00 00 00 00 00 00 00 00 00 00 00 ................
00409C80 00 00 00 00 00 00 00 00 00 00 00 00 00 00 00 00 ................
00409C90 00 00 00 00 00 00 00 00 00 00 00 00 00 00 00 00 ................
00409CA0 00 00 00 00 00 00 00 00 00 00 00 00 00 00 00 00 ................
00409CB0 00 00 00 00 00 00 00 00 00 00 00 00 00 00 00 00 ................
00409CC0 00 00 00 00 00 00 00 00 00 00 00 00 00 00 00 00 ................
00409CD0 00 00 00 00 00 00 00 00 00 00 00 00 00 00 00 00 ................
00409CE0 00 00 00 00 00 00 00 00 00 00 00 00 00 00 00 00 ................
00409CF0 00 00 00 00 00 00 00 00 00 00 00 00 00 00 00 00 ................
00409D00 00 00 00 00 00 00 00 00 00 00 00 00 00 00 00 00 ................
00409D10 00 00 00 00 00 00 00 00 00 00 00 00 00 00 00 00 ................
00409D20 00 00 00 00 00 00 00 00 00 00 00 00 00 00 00 00 ................
00409D30 00 00 00 00 00 00 00 00 00 00 00 00 00 00 00 00 ................
00409D40 00 00 00 00 00 00 00 00 00 00 00 00 00 00 00 00 ................
00409D50 00 00 00 00 00 00 00 00 00 00 00 00 00 00 00 00 ................
00409D60 00 00 00 00 00 00 00 00 00 00 00 00 00 00 00 00 ................
00409D70 00 00 00 00 00 00 00 00 00 00 00 00 00 00 00 00 ................
00409D80 00 00 00 00 00 00 00 00 00 00 00 00 00 00 00 00 ................
00409D90 00 00 00 00 00 00 00 00 00 00 00 00 00 00 00 00 ................
00409DA0 00 00 00 00 00 00 00 00 00 00 00 00 00 00 00 00 ................
00409DB0 00 00 00 00 00 00 00 00 00 00 00 00 00 00 00 00 ................
00409DC0 00 00 00 00 00 00 00 00 00 00 00 00 00 00 00 00 ................
00409DD0 00 00 00 00 00 00 00 00 00 00 00 00 00 00 00 00 ................
00409DE0 00 00 00 00 00 00 00 00 00 00 00 00 00 00 00 00 ................
00409DF0 00 00 00 00 00 00 00 00 00 00 00 00 00 00 00 00 ................
00409E00 00 00 00 00 00 00 00 00 00 00 00 00 00 00 00 00 ................
00409E10 00 00 00 00 00 00 00 00 00 00 00 00 00 00 00 00 ................
00409E20 00 00 00 00 00 00 00 00 00 00 00 00 00 00 00 00 ................
00409E30 00 00 00 00 00 00 00 00 00 00 00 00 00 00 00 00 ................
00409E40 00 00 00 00 00 00 00 00 00 00 00 00 00 00 00 00 ................
00409E50 00 00 00 00 00 00 00 00 00 00 00 00 00 00 00 00 ................
00409E60 00 00 00 00 00 00 00 00 00 00 00 00 00 00 00 00 ................
00409E70 00 00 00 00 00 00 00 00 00 00 00 00 00 00 00 00 ................
00409E80 00 00 00 00 00 00 00 00 00 00 00 00 00 00 00 00 ................
00409E90 00 00 00 00 00 00 00 00 00 00 00 00 00 00 00 00 ................
00409EA0 00 00 00 00 00 00 00 00 00 00 00 00 00 00 00 00 ................
00409EB0 00 00 00 00 00 00 00 00 00 00 00 00 00 00 00 00 ................
00409EC0 00 00 00 00 00 00 00 00 00 00 00 00 00 00 00 00 ................
00409ED0 00 00 00 00 00 00 00 00 00 00 00 00 00 00 00 00 ................
00409EE0 00 00 00 00 00 00 00 00 00 00 00 00 00 00 00 00 ................
00409EF0 00 00 00 00 00 00 00 00 00 00 00 00 00 00 00 00 ................
00409F00 00 00 00 00 00 00 00 00 00 00 00 00 00 00 00 00 ................
00409F10 00 00 00 00 00 00 00 00 00 00 00 00 00 00 00 00 ................
00409F20 00 00 00 00 00 00 00 00 00 00 00 00 00 00 00 00 ................
00409F30 00 00 00 00 00 00 00 00 00 00 00 00 00 00 00 00 ................
00409F40 00 00 00 00 00 00 00 00 00 00 00 00 00 00 00 00 ................
00409F50 00 00 00 00 00 00 00 00 00 00 00 00 00 00 00 00 ................
00409F60 00 00 00 00 00 00 00 00 00 00 00 00 00 00 00 00 ................
00409F70 00 00 00 00 00 00 00 00 00 00 00 00 00 00 00 00 ................
00409F80 00 00 00 00 00 00 00 00 00 00 00 00 00 00 00 00 ................
00409F90 00 00 00 00 00 00 00 00 00 00 00 00 00 00 00 00 ................
00409FA0 00 00 00 00 00 00 00 00 00 00 00 00 00 00 00 00 ................
00409FB0 00 00 00 00 00 00 00 00 00 00 00 00 00 00 00 00 ................
00409FC0 00 00 00 00 00 00 00 00 00 00 00 00 00 00 00 00 ................
00409FD0 00 00 00 00 00 00 00 00 00 00 00 00 00 00 00 00 ................
00409FE0 00 00 00 00 00 00 00 00 00 00 00 00 00 00 00 00 ................
00409FF0 00 00 00 00 00 00 00 00 00 00 00 00 00 00 00 00 ................
0040A000 00 00 00 00 00 00 00 00 00 00 00 00 00 00 00 00 ................
0040A010 00 00 00 00 00 00 00 00 00 00 00 00 00 00 00 00 ................
0040A020 00 00 00 00 00 00 00 00 00 00 00 00 00 00 00 00 ................
0040A030 00 00 00 00 00 00 00 00 00 00 00 00 00 00 00 00 ................
0040A040 00 00 00 00 00 00 00 00 00 00 00 00 00 00 00 00 ................
0040A050 00 00 00 00 00 00 00 00 00 00 00 00 00 00 00 00 ................
0040A060 00 00 00 00 00 00 00 00 00 00 00 00 00 00 00 00 ................
0040A070 00 00 00 00 00 00 00 00 00 00 00 00 00 00 00 00 ................
0040A080 00 00 00 00 00 00 00 00 00 00 00 00 00 00 00 00 ................
0040A090 00 00 00 00 00 00 00 00 00 00 00 00 00 00 00 00 ................
0040A0A0 00 00 00 00 00 00 00 00 00 00 00 00 00 00 00 00 ................
0040A0B0 00 00 00 00 00 00 00 00 00 00 00 00 00 00 00 00 ................
0040A0C0 00 00 00 00 00 00 00 00 00 00 00 00 00 00 00 00 ................
0040A0D0 00 00 00 00 00 00 00 00 00 00 00 00 00 00 00 00 ................
0040A0E0 00 00 00 00 00 00 00 00 00 00 00 00 00 00 00 00 ................
0040A0F0 00 00 00 00 00 00 00 00 00 00 00 00 00 00 00 00 ................
0040A100 00 00 00 00 00 00 00 00 00 00 00 00 00 00 00 00 ................
0040A110 00 00 00 00 00 00 00 00 00 00 00 00 00 00 00 00 ................
0040A120 00 00 00 00 00 00 00 00 00 00 00 00 00 00 00 00 ................
0040A130 00 00 00 00 00 00 00 00 00 00 00 00 00 00 00 00 ................
0040A140 00 00 00 00 00 00 00 00 00 00 00 00 00 00 00 00 ................
0040A150 00 00 00 00 00 00 00 00 00 00 00 00 00 00 00 00 ................
0040A160 00 00 00 00 00 00 00 00 00 00 00 00 00 00 00 00 ................
0040A170 00 00 00 00 00 00 00 00 00 00 00 00 00 00 00 00 ................
0040A180 00 00 00 00 00 00 00 00 00 00 00 00 00 00 00 00 ................
0040A190 00 00 00 00 00 00 00 00 00 00 00 00 00 00 00 00 ................
0040A1A0 00 00 00 00 00 00 00 00 00 00 00 00 00 00 00 00 ................
0040A1B0 00 00 00 00 00 00 00 00 00 00 00 00 00 00 00 00 ................
0040A1C0 00 00 00 00 00 00 00 00 00 00 00 00 00 00 00 00 ................
0040A1D0 00 00 00 00 00 00 00 00 00 00 00 00 00 00 00 00 ................
0040A1E0 00 00 00 00 00 00 00 00 00 00 00 00 00 00 00 00 ................
0040A1F0 00 00 00 00 00 00 00 00 00 00 00 00 00 00 00 00 ................
0040A200 00 00 00 00 00 00 00 00 00 00 00 00 00 00 00 00 ................
0040A210 00 00 00 00 00 00 00 00 00 00 00 00 00 00 00 00 ................
0040A220 00 00 00 00 00 00 00 00 00 00 00 00 00 00 00 00 ................
0040A230 00 00 00 00 00 00 00 00 00 00 00 00 00 00 00 00 ................
0040A240 00 00 00 00 00 00 00 00 00 00 00 00 00 00 00 00 ................
0040A250 00 00 00 00 00 00 00 00 00 00 00 00 00 00 00 00 ................
0040A260 00 00 00 00 00 00 00 00 00 00 00 00 00 00 00 00 ................
0040A270 00 00 00 00 00 00 00 00 00 00 00 00 00 00 00 00 ................
0040A280 00 00 00 00 00 00 00 00 00 00 00 00 00 00 00 00 ................
0040A290 00 00 00 00 00 00 00 00 00 00 00 00 00 00 00 00 ................
0040A2A0 00 00 00 00 00 00 00 00 00 00 00 00 00 00 00 00 ................
0040A2B0 00 00 00 00 00 00 00 00 00 00 00 00 00 00 00 00 ................
0040A2C0 00 00 00 00 00 00 00 00 00 00 00 00 00 00 00 00 ................
0040A2D0 00 00 00 00 00 00 00 00 00 00 00 00 00 00 00 00 ................
0040A2E0 00 00 00 00 00 00 00 00 00 00 00 00 00 00 00 00 ................
0040A2F0 00 00 00 00 00 00 00 00 00 00 00 00 00 00 00 00 ................
0040A300 00 00 00 00 00 00 00 00 00 00 00 00 00 00 00 00 ................
0040A310 00 00 00 00 00 00 00 00 00 00 00 00 00 00 00 00 ................
0040A320 00 00 00 00 00 00 00 00 00 00 00 00 00 00 00 00 ................
0040A330 00 00 00 00 00 00 00 00 00 00 00 00 00 00 00 00 ................
0040A340 00 00 00 00 00 00 00 00 00 00 00 00 00 00 00 00 ................
0040A350 00 00 00 00 00 00 00 00 00 00 00 00 00 00 00 00 ................
0040A360 00 00 00 00 00 00 00 00 00 00 00 00 00 00 00 00 ................
0040A370 00 00 00 00 00 00 00 00 00 00 00 00 00 00 00 00 ................
0040A380 00 00 00 00 00 00 00 00 00 00 00 00 00 00 00 00 ................
0040A390 00 00 00 00 00 00 00 00 00 00 00 00 00 00 00 00 ................
0040A3A0 00 00 00 00 00 00 00 00 00 00 00 00 00 00 00 00 ................
0040A3B0 00 00 00 00 00 00 00 00 00 00 00 00 00 00 00 00 ................
0040A3C0 00 00 00 00 00 00 00 00 00 00 00 00 00 00 00 00 ................
0040A3D0 00 00 00 00 00 00 00 00 00 00 00 00 00 00 00 00 ................
0040A3E0 00 00 00 00 00 00 00 00 00 00 00 00 00 00 00 00 ................
0040A3F0 00 00 00 00 00 00 00 00 00 00 00 00 00 00 00 00 ................
0040A400 00 00 00 00 00 00 00 00 00 00 00 00 00 00 00 00 ................
0040A410 00 00 00 00 00 00 00 00 00 00 00 00 00 00 00 00 ................
0040A420 00 00 00 00 00 00 00 00 00 00 00 00 00 00 00 00 ................
0040A430 00 00 00 00 00 00 00 00 00 00 00 00 00 00 00 00 ................
0040A440 00 00 00 00 00 00 00 00 00 00 00 00 00 00 00 00 ................
0040A450 00 00 00 00 00 00 00 00 00 00 00 00 00 00 00 00 ................
0040A460 00 00 00 00 00 00 00 00 00 00 00 00 00 00 00 00 ................
0040A470 00 00 00 00 00 00 00 00 00 00 00 00 00 00 00 00 ................
0040A480 00 00 00 00 00 00 00 00 00 00 00 00 00 00 00 00 ................
0040A490 00 00 00 00 00 00 00 00 00 00 00 00 00 00 00 00 ................
0040A4A0 00 00 00 00 00 00 00 00 00 00 00 00 00 00 00 00 ................
0040A4B0 00 00 00 00 00 00 00 00 00 00 00 00 00 00 00 00 ................
0040A4C0 00 00 00 00 00 00 00 00 00 00 00 00 00 00 00 00 ................
0040A4D0 00 00 00 00 00 00 00 00 00 00 00 00 00 00 00 00 ................
0040A4E0 00 00 00 00 00 00 00 00 00 00 00 00 00 00 00 00 ................
0040A4F0 00 00 00 00 00 00 00 00 00 00 00 00 00 00 00 00 ................
0040A500 00 00 00 00 00 00 00 00 00 00 00 00 00 00 00 00 ................
0040A510 00 00 00 00 00 00 00 00 00 00 00 00 00 00 00 00 ................
0040A520 00 00 00 00 00 00 00 00 00 00 00 00 00 00 00 00 ................
0040A530 00 00 00 00 00 00 00 00 00 00 00 00 00 00 00 00 ................
0040A540 00 00 00 00 00 00 00 00 00 00 00 00 00 00 00 00 ................
0040A550 00 00 00 00 00 00 00 00 00 00 00 00 00 00 00 00 ................
0040A560 00 00 00 00 00 00 00 00 00 00 00 00 00 00 00 00 ................
0040A570 00 00 00 00 00 00 00 00 00 00 00 00 00 00 00 00 ................
0040A580 00 00 00 00 00 00 00 00 00 00 00 00 00 00 00 00 ................
0040A590 00 00 00 00 00 00 00 00 00 00 00 00 00 00 00 00 ................
0040A5A0 00 00 00 00 00 00 00 00 00 00 00 00 00 00 00 00 ................
0040A5B0 00 00 00 00 00 00 00 00 00 00 00 00 00 00 00 00 ................
0040A5C0 00 00 00 00 00 00 00 00 00 00 00 00 00 00 00 00 ................
0040A5D0 00 00 00 00 00 00 00 00 00 00 00 00 00 00 00 00 ................
0040A5E0 00 00 00 00 00 00 00 00 00 00 00 00 00 00 00 00 ................
0040A5F0 00 00 00 00 00 00 00 00 00 00 00 00 00 00 00 00 ................
0040A600 00 00 00 00 00 00 00 00 00 00 00 00 00 00 00 00 ................
0040A610 00 00 00 00 00 00 00 00 00 00 00 00 00 00 00 00 ................
0040A620 00 00 00 00 00 00 00 00 00 00 00 00 00 00 00 00 ................
0040A630 00 00 00 00 00 00 00 00 00 00 00 00 00 00 00 00 ................
0040A640 00 00 00 00 00 00 00 00 00 00 00 00 00 00 00 00 ................
0040A650 00 00 00 00 00 00 00 00 00 00 00 00 00 00 00 00 ................
0040A660 00 00 00 00 00 00 00 00 00 00 00 00 00 00 00 00 ................
0040A670 00 00 00 00 00 00 00 00 00 00 00 00 00 00 00 00 ................
0040A680 00 00 00 00 00 00 00 00 00 00 00 00 00 00 00 00 ................
0040A690 00 00 00 00 00 00 00 00 00 00 00 00 00 00 00 00 ................
0040A6A0 00 00 00 00 00 00 00 00 00 00 00 00 00 00 00 00 ................
0040A6B0 00 00 00 00 00 00 00 00 00 00 00 00 00 00 00 00 ................
0040A6C0 00 00 00 00 00 00 00 00 00 00 00 00 00 00 00 00 ................
0040A6D0 00 00 00 00 00 00 00 00 00 00 00 00 00 00 00 00 ................
0040A6E0 00 00 00 00 00 00 00 00 00 00 00 00 00 00 00 00 ................
0040A6F0 00 00 00 00 00 00 00 00 00 00 00 00 00 00 00 00 ................
0040A700 00 00 00 00 00 00 00 00 00 00 00 00 00 00 00 00 ................
0040A710 00 00 00 00 00 00 00 00 00 00 00 00 00 00 00 00 ................
0040A720 00 00 00 00 00 00 00 00 00 00 00 00 00 00 00 00 ................
0040A730 00 00 00 00 00 00 00 00 00 00 00 00 00 00 00 00 ................
0040A740 00 00 00 00 00 00 00 00 00 00 00 00 00 00 00 00 ................
0040A750 00 00 00 00 00 00 00 00 00 00 00 00 00 00 00 00 ................
0040A760 00 00 00 00 00 00 00 00 00 00 00 00 00 00 00 00 ................
0040A770 00 00 00 00 00 00 00 00 00 00 00 00 00 00 00 00 ................
0040A780 00 00 00 00 00 00 00 00 00 00 00 00 00 00 00 00 ................
0040A790 00 00 00 00 00 00 00 00 00 00 00 00 00 00 00 00 ................
0040A7A0 00 00 00 00 00 00 00 00 00 00 00 00 00 00 00 00 ................
0040A7B0 00 00 00 00 00 00 00 00 00 00 00 00 00 00 00 00 ................
0040A7C0 00 00 00 00 00 00 00 00 00 00 00 00 00 00 00 00 ................
0040A7D0 00 00 00 00 00 00 00 00 00 00 00 00 00 00 00 00 ................
0040A7E0 00 00 00 00 00 00 00 00 00 00 00 00 00 00 00 00 ................
0040A7F0 00 00 00 00 00 00 00 00 00 00 00 00 00 00 00 00 ................
0040A800 00 00 00 00 00 00 00 00 00 00 00 00 00 00 00 00 ................
0040A810 00 00 00 00 00 00 00 00 00 00 00 00 00 00 00 00 ................
0040A820 00 00 00 00 00 00 00 00 00 00 00 00 00 00 00 00 ................
0040A830 00 00 00 00 00 00 00 00 00 00 00 00 00 00 00 00 ................
0040A840 00 00 00 00 00 00 00 00 00 00 00 00 00 00 00 00 ................
0040A850 00 00 00 00 00 00 00 00 00 00 00 00 00 00 00 00 ................
0040A860 00 00 00 00 00 00 00 00 00 00 00 00 00 00 00 00 ................
0040A870 00 00 00 00 00 00 00 00 00 00 00 00 00 00 00 00 ................
0040A880 00 00 00 00 00 00 00 00 00 00 00 00 00 00 00 00 ................
0040A890 00 00 00 00 00 00 00 00 00 00 00 00 00 00 00 00 ................
0040A8A0 00 00 00 00 00 00 00 00 00 00 00 00 00 00 00 00 ................
0040A8B0 00 00 00 00 00 00 00 00 00 00 00 00 00 00 00 00 ................
0040A8C0 00 00 00 00 00 00 00 00 00 00 00 00 00 00 00 00 ................
0040A8D0 00 00 00 00 00 00 00 00 00 00 00 00 00 00 00 00 ................
0040A8E0 00 00 00 00 00 00 00 00 00 00 00 00 00 00 00 00 ................
0040A8F0 00 00 00 00 00 00 00 00 00 00 00 00 00 00 00 00 ................
0040A900 00 00 00 00 00 00 00 00 00 00 00 00 00 00 00 00 ................
0040A910 00 00 00 00 00 00 00 00 00 00 00 00 00 00 00 00 ................
0040A920 00 00 00 00 00 00 00 00 00 00 00 00 00 00 00 00 ................
0040A930 00 00 00 00 00 00 00 00 00 00 00 00 00 00 00 00 ................
0040A940 00 00 00 00 00 00 00 00 00 00 00 00 00 00 00 00 ................
0040A950 00 00 00 00 00 00 00 00 00 00 00 00 00 00 00 00 ................
0040A960 00 00 00 00 00 00 00 00 00 00 00 00 00 00 00 00 ................
0040A970 00 00 00 00 00 00 00 00 00 00 00 00 00 00 00 00 ................
0040A980 00 00 00 00 00 00 00 00 00 00 00 00 00 00 00 00 ................
0040A990 00 00 00 00 00 00 00 00 00 00 00 00 00 00 00 00 ................
0040A9A0 00 00 00 00 00 00 00 00 00 00 00 00 00 00 00 00 ................
0040A9B0 00 00 00 00 00 00 00 00 00 00 00 00 00 00 00 00 ................
0040A9C0 00 00 00 00 00 00 00 00 00 00 00 00 00 00 00 00 ................
0040A9D0 00 00 00 00 00 00 00 00 00 00 00 00 00 00 00 00 ................
0040A9E0 00 00 00 00 00 00 00 00 00 00 00 00 00 00 00 00 ................
0040A9F0 00 00 00 00 00 00 00 00 00 00 00 00 00 00 00 00 ................
0040AA00 00 00 00 00 00 00 00 00 00 00 00 00 00 00 00 00 ................
0040AA10 00 00 00 00 00 00 00 00 00 00 00 00 00 00 00 00 ................
0040AA20 00 00 00 00 00 00 00 00 00 00 00 00 00 00 00 00 ................
0040AA30 00 00 00 00 00 00 00 00 00 00 00 00 00 00 00 00 ................
0040AA40 00 00 00 00 00 00 00 00 00 00 00 00 00 00 00 00 ................
0040AA50 00 00 00 00 00 00 00 00 00 00 00 00 00 00 00 00 ................
0040AA60 00 00 00 00 00 00 00 00 00 00 00 00 00 00 00 00 ................
0040AA70 00 00 00 00 00 00 00 00 00 00 00 00 00 00 00 00 ................
0040AA80 00 00 00 00 00 00 00 00 00 00 00 00 00 00 00 00 ................
0040AA90 00 00 00 00 00 00 00 00 00 00 00 00 00 00 00 00 ................
0040AAA0 00 00 00 00 00 00 00 00 00 00 00 00 00 00 00 00 ................
0040AAB0 00 00 00 00 00 00 00 00 00 00 00 00 00 00 00 00 ................
0040AAC0 00 00 00 00 00 00 00 00 00 00 00 00 00 00 00 00 ................
0040AAD0 00 00 00 00 00 00 00 00 00 00 00 00 00 00 00 00 ................
0040AAE0 00 00 00 00 00 00 00 00 00 00 00 00 00 00 00 00 ................
0040AAF0 00 00 00 00 00 00 00 00 00 00 00 00 00 00 00 00 ................
0040AB00 00 00 00 00 00 00 00 00 00 00 00 00 00 00 00 00 ................
0040AB10 00 00 00 00 00 00 00 00 00 00 00 00 00 00 00 00 ................
0040AB20 00 00 00 00 00 00 00 00 00 00 00 00 00 00 00 00 ................
0040AB30 00 00 00 00 00 00 00 00 00 00 00 00 00 00 00 00 ................
0040AB40 00 00 00 00 00 00 00 00 00 00 00 00 00 00 00 00 ................
0040AB50 00 00 00 00 00 00 00 00 00 00 00 00 00 00 00 00 ................
0040AB60 00 00 00 00 00 00 00 00 00 00 00 00 00 00 00 00 ................
0040AB70 00 00 00 00 00 00 00 00 00 00 00 00 00 00 00 00 ................
0040AB80 00 00 00 00 00 00 00 00 00 00 00 00 00 00 00 00 ................
0040AB90 00 00 00 00 00 00 00 00 00 00 00 00 00 00 00 00 ................
0040ABA0 00 00 00 00 00 00 00 00 00 00 00 00 00 00 00 00 ................
0040ABB0 00 00 00 00 00 00 00 00 00 00 00 00 00 00 00 00 ................
0040ABC0 00 00 00 00 00 00 00 00 00 00 00 00 00 00 00 00 ................
0040ABD0 00 00 00 00 00 00 00 00 00 00 00 00 00 00 00 00 ................
0040ABE0 00 00 00 00 00 00 00 00 00 00 00 00 00 00 00 00 ................
0040ABF0 00 00 00 00 00 00 00 00 00 00 00 00 00 00 00 00 ................
0040AC00 00 00 00 00 00 00 00 00 00 00 00 00 00 00 00 00 ................
0040AC10 00 00 00 00 00 00 00 00 00 00 00 00 00 00 00 00 ................
0040AC20 00 00 00 00 00 00 00 00 00 00 00 00 00 00 00 00 ................
0040AC30 00 00 00 00 00 00 00 00 00 00 00 00 00 00 00 00 ................
0040AC40 00 00 00 00 00 00 00 00 00 00 00 00 00 00 00 00 ................
0040AC50 00 00 00 00 00 00 00 00 00 00 00 00 00 00 00 00 ................
0040AC60 00 00 00 00 00 00 00 00 00 00 00 00 00 00 00 00 ................
0040AC70 00 00 00 00 00 00 00 00 00 00 00 00 00 00 00 00 ................
0040AC80 00 00 00 00 00 00 00 00 00 00 00 00 00 00 00 00 ................
0040AC90 00 00 00 00 00 00 00 00 00 00 00 00 00 00 00 00 ................
0040ACA0 00 00 00 00 00 00 00 00 00 00 00 00 00 00 00 00 ................
0040ACB0 00 00 00 00 00 00 00 00 00 00 00 00 00 00 00 00 ................
0040ACC0 00 00 00 00 00 00 00 00 00 00 00 00 00 00 00 00 ................
0040ACD0 00 00 00 00 00 00 00 00 00 00 00 00 00 00 00 00 ................
0040ACE0 00 00 00 00 00 00 00 00 00 00 00 00 00 00 00 00 ................
0040ACF0 00 00 00 00 00 00 00 00 00 00 00 00 00 00 00 00 ................
0040AD00 00 00 00 00 00 00 00 00 00 00 00 00 00 00 00 00 ................
0040AD10 00 00 00 00 00 00 00 00 00 00 00 00 00 00 00 00 ................
0040AD20 00 00 00 00 00 00 00 00 00 00 00 00 00 00 00 00 ................
0040AD30 00 00 00 00 00 00 00 00 00 00 00 00 00 00 00 00 ................
0040AD40 00 00 00 00 00 00 00 00 00 00 00 00 00 00 00 00 ................
0040AD50 00 00 00 00 00 00 00 00 00 00 00 00 00 00 00 00 ................
0040AD60 00 00 00 00 00 00 00 00 00 00 00 00 00 00 00 00 ................
0040AD70 00 00 00 00 00 00 00 00 00 00 00 00 00 00 00 00 ................
0040AD80 00 00 00 00 00 00 00 00 00 00 00 00 00 00 00 00 ................
0040AD90 00 00 00 00 00 00 00 00 00 00 00 00 00 00 00 00 ................
0040ADA0 00 00 00 00 00 00 00 00 00 00 00 00 00 00 00 00 ................
0040ADB0 00 00 00 00 00 00 00 00 00 00 00 00 00 00 00 00 ................
0040ADC0 00 00 00 00 00 00 00 00 00 00 00 00 00 00 00 00 ................
0040ADD0 00 00 00 00 00 00 00 00 00 00 00 00 00 00 00 00 ................
0040ADE0 00 00 00 00 00 00 00 00 00 00 00 00 00 00 00 00 ................
0040ADF0 00 00 00 00 00 00 00 00 00 00 00 00 00 00 00 00 ................
0040AE00 00 00 00 00 00 00 00 00 00 00 00 00 00 00 00 00 ................
0040AE10 00 00 00 00 00 00 00 00 00 00 00 00 00 00 00 00 ................
0040AE20 00 00 00 00 00 00 00 00 00 00 00 00 00 00 00 00 ................
0040AE30 00 00 00 00 00 00 00 00 00 00 00 00 00 00 00 00 ................
0040AE40 00 00 00 00 00 00 00 00 00 00 00 00 00 00 00 00 ................
0040AE50 00 00 00 00 00 00 00 00 00 00 00 00 00 00 00 00 ................
0040AE60 00 00 00 00 00 00 00 00 00 00 00 00 00 00 00 00 ................
0040AE70 00 00 00 00 00 00 00 00 00 00 00 00 00 00 00 00 ................
0040AE80 00 00 00 00 00 00 00 00 00 00 00 00 00 00 00 00 ................
0040AE90 00 00 00 00 00 00 00 00 00 00 00 00 00 00 00 00 ................
0040AEA0 00 00 00 00 00 00 00 00 00 00 00 00 00 00 00 00 ................
0040AEB0 00 00 00 00 00 00 00 00 00 00 00 00 00 00 00 00 ................
0040AEC0 00 00 00 00 00 00 00 00 00 00 00 00 00 00 00 00 ................
0040AED0 00 00 00 00 00 00 00 00 00 00 00 00 00 00 00 00 ................
0040AEE0 00 00 00 00 00 00 00 00 00 00 00 00 00 00 00 00 ................
0040AEF0 00 00 00 00 00 00 00 00 00 00 00 00 00 00 00 00 ................
0040AF00 00 00 00 00 00 00 00 00 00 00 00 00 00 00 00 00 ................
0040AF10 00 00 00 00 00 00 00 00 00 00 00 00 00 00 00 00 ................
0040AF20 00 00 00 00 00 00 00 00 00 00 00 00 00 00 00 00 ................
0040AF30 00 00 00 00 00 00 00 00 00 00 00 00 00 00 00 00 ................
0040AF40 00 00 00 00 00 00 00 00 00 00 00 00 00 00 00 00 ................
0040AF50 00 00 00 00 00 00 00 00 00 00 00 00 00 00 00 00 ................
0040AF60 00 00 00 00 00 00 00 00 00 00 00 00 00 00 00 00 ................
0040AF70 00 00 00 00 00 00 00 00 00 00 00 00 00 00 00 00 ................
0040AF80 00 00 00 00 00 00 00 00 00 00 00 00 00 00 00 00 ................
0040AF90 00 00 00 00 00 00 00 00 00 00 00 00 00 00 00 00 ................
0040AFA0 00 00 00 00 00 00 00 00 00 00 00 00 00 00 00 00 ................
0040AFB0 00 00 00 00 00 00 00 00 00 00 00 00 00 00 00 00 ................
0040AFC0 00 00 00 00 00 00 00 00 00 00 00 00 00 00 00 00 ................
0040AFD0 00 00 00 00 00 00 00 00 00 00 00 00 00 00 00 00 ................
0040AFE0 00 00 00 00 00 00 00 00 00 00 00 00 00 00 00 00 ................
0040AFF0 00 00 00 00 00 00 00 00 00 00 00 00 00 00 00 00 ................
0040B000 00 00 00 00 00 00 00 00 00 00 00 00 00 00 00 00 ................
0040B010 00 00 00 00 00 00 00 00 00 00 00 00 00 00 00 00 ................
0040B020 00 00 00 00 00 00 00 00 00 00 00 00 00 00 00 00 ................
0040B030 00 00 00 00 00 00 00 00 00 00 00 00 00 00 00 00 ................
0040B040 00 00 00 00 00 00 00 00 00 00 00 00 00 00 00 00 ................
0040B050 00 00 00 00 00 00 00 00 00 00 00 00 00 00 00 00 ................
0040B060 00 00 00 00 00 00 00 00 00 00 00 00 00 00 00 00 ................
0040B070 00 00 00 00 00 00 00 00 00 00 00 00 00 00 00 00 ................
0040B080 00 00 00 00 00 00 00 00 00 00 00 00 00 00 00 00 ................
0040B090 00 00 00 00 00 00 00 00 00 00 00 00 00 00 00 00 ................
0040B0A0 00 00 00 00 00 00 00 00 00 00 00 00 00 00 00 00 ................
0040B0B0 00 00 00 00 00 00 00 00 00 00 00 00 00 00 00 00 ................
0040B0C0 00 00 00 00 00 00 00 00 00 00 00 00 00 00 00 00 ................
0040B0D0 00 00 00 00 00 00 00 00 00 00 00 00 00 00 00 00 ................
0040B0E0 00 00 00 00 00 00 00 00 00 00 00 00 00 00 00 00 ................
0040B0F0 00 00 00 00 00 00 00 00 00 00 00 00 00 00 00 00 ................
0040B100 00 00 00 00 00 00 00 00 00 00 00 00 00 00 00 00 ................
0040B110 00 00 00 00 00 00 00 00 00 00 00 00 00 00 00 00 ................
0040B120 00 00 00 00 00 00 00 00 00 00 00 00 00 00 00 00 ................
0040B130 00 00 00 00 00 00 00 00 00 00 00 00 00 00 00 00 ................
0040B140 00 00 00 00 00 00 00 00 00 00 00 00 00 00 00 00 ................
0040B150 00 00 00 00 00 00 00 00 00 00 00 00 00 00 00 00 ................
0040B160 00 00 00 00 00 00 00 00 00 00 00 00 00 00 00 00 ................
0040B170 00 00 00 00 00 00 00 00 00 00 00 00 00 00 00 00 ................
0040B180 00 00 00 00 00 00 00 00 00 00 00 00 00 00 00 00 ................
0040B190 00 00 00 00 00 00 00 00 00 00 00 00 00 00 00 00 ................
0040B1A0 00 00 00 00 00 00 00 00 00 00 00 00 00 00 00 00 ................
0040B1B0 00 00 00 00 00 00 00 00 00 00 00 00 00 00 00 00 ................
0040B1C0 00 00 00 00 00 00 00 00 00 00 00 00 00 00 00 00 ................
0040B1D0 00 00 00 00 00 00 00 00 00 00 00 00 00 00 00 00 ................
0040B1E0 00 00 00 00 00 00 00 00 00 00 00 00 00 00 00 00 ................
0040B1F0 00 00 00 00 00 00 00 00 00 00 00 00 00 00 00 00 ................
0040B200 00 00 00 00 00 00 00 00 00 00 00 00 00 00 00 00 ................
0040B210 00 00 00 00 00 00 00 00 00 00 00 00 00 00 00 00 ................
0040B220 00 00 00 00 00 00 00 00 00 00 00 00 00 00 00 00 ................
0040B230 00 00 00 00 00 00 00 00 00 00 00 00 00 00 00 00 ................
0040B240 00 00 00 00 00 00 00 00 00 00 00 00 00 00 00 00 ................
0040B250 00 00 00 00 00 00 00 00 00 00 00 00 00 00 00 00 ................
0040B260 00 00 00 00 00 00 00 00 00 00 00 00 00 00 00 00 ................
0040B270 00 00 00 00 00 00 00 00 00 00 00 00 00 00 00 00 ................
0040B280 00 00 00 00 00 00 00 00 00 00 00 00 00 00 00 00 ................
0040B290 00 00 00 00 00 00 00 00 00 00 00 00 00 00 00 00 ................
0040B2A0 00 00 00 00 00 00 00 00 00 00 00 00 00 00 00 00 ................
0040B2B0 00 00 00 00 00 00 00 00 00 00 00 00 00 00 00 00 ................
0040B2C0 00 00 00 00 00 00 00 00 00 00 00 00 00 00 00 00 ................
0040B2D0 00 00 00 00 00 00 00 00 00 00 00 00 00 00 00 00 ................
0040B2E0 00 00 00 00 00 00 00 00 00 00 00 00 00 00 00 00 ................
0040B2F0 00 00 00 00 00 00 00 00 00 00 00 00 00 00 00 00 ................
0040B300 00 00 00 00 00 00 00 00 00 00 00 00 00 00 00 00 ................
0040B310 00 00 00 00 00 00 00 00 00 00 00 00 00 00 00 00 ................
0040B320 00 00 00 00 00 00 00 00 00 00 00 00 00 00 00 00 ................
0040B330 00 00 00 00 00 00 00 00 00 00 00 00 00 00 00 00 ................
0040B340 00 00 00 00 00 00 00 00 00 00 00 00 00 00 00 00 ................
0040B350 00 00 00 00 00 00 00 00 00 00 00 00 00 00 00 00 ................
0040B360 00 00 00 00 00 00 00 00 00 00 00 00 00 00 00 00 ................
0040B370 00 00 00 00 00 00 00 00 00 00 00 00 00 00 00 00 ................
0040B380 00 00 00 00 00 00 00 00 00 00 00 00 00 00 00 00 ................
0040B390 00 00 00 00 00 00 00 00 00 00 00 00 00 00 00 00 ................
0040B3A0 00 00 00 00 00 00 00 00 00 00 00 00 00 00 00 00 ................
0040B3B0 00 00 00 00 00 00 00 00 00 00 00 00 00 00 00 00 ................
0040B3C0 00 00 00 00 00 00 00 00 00 00 00 00 00 00 00 00 ................
0040B3D0 00 00 00 00 00 00 00 00 00 00 00 00 00 00 00 00 ................
0040B3E0 00 00 00 00 00 00 00 00 00 00 00 00 00 00 00 00 ................
0040B3F0 00 00 00 00 00 00 00 00 00 00 00 00 00 00 00 00 ................
0040B400 00 00 00 00 00 00 00 00 00 00 00 00 00 00 00 00 ................
0040B410 00 00 00 00 00 00 00 00 00 00 00 00 00 00 00 00 ................
0040B420 00 00 00 00 00 00 00 00 00 00 00 00 00 00 00 00 ................
0040B430 00 00 00 00 00 00 00 00 00 00 00 00 00 00 00 00 ................
0040B440 00 00 00 00 00 00 00 00 00 00 00 00 00 00 00 00 ................
0040B450 00 00 00 00 00 00 00 00 00 00 00 00 00 00 00 00 ................
0040B460 00 00 00 00 00 00 00 00 00 00 00 00 00 00 00 00 ................
0040B470 00 00 00 00 00 00 00 00 00 00 00 00 00 00 00 00 ................
0040B480 00 00 00 00 00 00 00 00 00 00 00 00 00 00 00 00 ................
0040B490 00 00 00 00 00 00 00 00 00 00 00 00 00 00 00 00 ................
0040B4A0 00 00 00 00 00 00 00 00 00 00 00 00 00 00 00 00 ................
0040B4B0 00 00 00 00 00 00 00 00 00 00 00 00 00 00 00 00 ................
0040B4C0 00 00 00 00 00 00 00 00 00 00 00 00 00 00 00 00 ................
0040B4D0 00 00 00 00 00 00 00 00 00 00 00 00 00 00 00 00 ................
0040B4E0 00 00 00 00 00 00 00 00 00 00 00 00 00 00 00 00 ................
0040B4F0 00 00 00 00 00 00 00 00 00 00 00 00 00 00 00 00 ................
0040B500 00 00 00 00 00 00 00 00 00 00 00 00 00 00 00 00 ................
0040B510 00 00 00 00 00 00 00 00 00 00 00 00 00 00 00 00 ................
0040B520 00 00 00 00 00 00 00 00 00 00 00 00 00 00 00 00 ................
0040B530 00 00 00 00 00 00 00 00 00 00 00 00 00 00 00 00 ................
0040B540 00 00 00 00 00 00 00 00 00 00 00 00 00 00 00 00 ................
0040B550 00 00 00 00 00 00 00 00 00 00 00 00 00 00 00 00 ................
0040B560 00 00 00 00 00 00 00 00 00 00 00 00 00 00 00 00 ................
0040B570 00 00 00 00 00 00 00 00 00 00 00 00 00 00 00 00 ................
0040B580 00 00 00 00 00 00 00 00 00 00 00 00 00 00 00 00 ................
0040B590 00 00 00 00 00 00 00 00 00 00 00 00 00 00 00 00 ................
0040B5A0 00 00 00 00 00 00 00 00 00 00 00 00 00 00 00 00 ................
0040B5B0 00 00 00 00 00 00 00 00 00 00 00 00 00 00 00 00 ................
0040B5C0 00 00 00 00 00 00 00 00 00 00 00 00 00 00 00 00 ................
0040B5D0 00 00 00 00 00 00 00 00 00 00 00 00 00 00 00 00 ................
0040B5E0 00 00 00 00 00 00 00 00 00 00 00 00 00 00 00 00 ................
0040B5F0 00 00 00 00 00 00 00 00 00 00 00 00 00 00 00 00 ................
0040B600 00 00 00 00 00 00 00 00 00 00 00 00 00 00 00 00 ................
0040B610 00 00 00 00 00 00 00 00 00 00 00 00 00 00 00 00 ................
0040B620 00 00 00 00 00 00 00 00 00 00 00 00 00 00 00 00 ................
0040B630 00 00 00 00 00 00 00 00 00 00 00 00 00 00 00 00 ................
0040B640 00 00 00 00 00 00 00 00 00 00 00 00 00 00 00 00 ................
0040B650 00 00 00 00 00 00 00 00 00 00 00 00 00 00 00 00 ................
0040B660 00 00 00 00 00 00 00 00 00 00 00 00 00 00 00 00 ................
0040B670 00 00 00 00 00 00 00 00 00 00 00 00 00 00 00 00 ................
0040B680 00 00 00 00 00 00 00 00 00 00 00 00 00 00 00 00 ................
0040B690 00 00 00 00 00 00 00 00 00 00 00 00 00 00 00 00 ................
0040B6A0 00 00 00 00 00 00 00 00 00 00 00 00 00 00 00 00 ................
0040B6B0 00 00 00 00 00 00 00 00 00 00 00 00 00 00 00 00 ................
0040B6C0 00 00 00 00 00 00 00 00 00 00 00 00 00 00 00 00 ................
0040B6D0 00 00 00 00 00 00 00 00 00 00 00 00 00 00 00 00 ................
0040B6E0 00 00 00 00 00 00 00 00 00 00 00 00 00 00 00 00 ................
0040B6F0 00 00 00 00 00 00 00 00 00 00 00 00 00 00 00 00 ................
0040B700 00 00 00 00 00 00 00 00 00 00 00 00 00 00 00 00 ................
0040B710 00 00 00 00 00 00 00 00 00 00 00 00 00 00 00 00 ................
0040B720 00 00 00 00 00 00 00 00 00 00 00 00 00 00 00 00 ................
0040B730 00 00 00 00 00 00 00 00 00 00 00 00 00 00 00 00 ................
0040B740 00 00 00 00 00 00 00 00 00 00 00 00 00 00 00 00 ................
0040B750 00 00 00 00 00 00 00 00 00 00 00 00 00 00 00 00 ................
0040B760 00 00 00 00 00 00 00 00 00 00 00 00 00 00 00 00 ................
0040B770 00 00 00 00 00 00 00 00 00 00 00 00 00 00 00 00 ................
0040B780 00 00 00 00 00 00 00 00 00 00 00 00 00 00 00 00 ................
0040B790 00 00 00 00 00 00 00 00 00 00 00 00 00 00 00 00 ................
0040B7A0 00 00 00 00 00 00 00 00 00 00 00 00 00 00 00 00 ................
0040B7B0 00 00 00 00 00 00 00 00 00 00 00 00 00 00 00 00 ................
0040B7C0 00 00 00 00 00 00 00 00 00 00 00 00 00 00 00 00 ................
0040B7D0 00 00 00 00 00 00 00 00 00 00 00 00 00 00 00 00 ................
0040B7E0 00 00 00 00 00 00 00 00 00 00 00 00 00 00 00 00 ................
0040B7F0 00 00 00 00 00 00 00 00 00 00 00 00 00 00 00 00 ................
0040B800 00 00 00 00 00 00 00 00 00 00 00 00 00 00 00 00 ................
0040B810 00 00 00 00 00 00 00 00 00 00 00 00 00 00 00 00 ................
0040B820 00 00 00 00 00 00 00 00 00 00 00 00 00 00 00 00 ................
0040B830 00 00 00 00 00 00 00 00 00 00 00 00 00 00 00 00 ................
0040B840 00 00 00 00 00 00 00 00 00 00 00 00 00 00 00 00 ................
0040B850 00 00 00 00 00 00 00 00 00 00 00 00 00 00 00 00 ................
0040B860 00 00 00 00 00 00 00 00 00 00 00 00 00 00 00 00 ................
0040B870 00 00 00 00 00 00 00 00 00 00 00 00 00 00 00 00 ................
0040B880 00 00 00 00 00 00 00 00 00 00 00 00 00 00 00 00 ................
0040B890 00 00 00 00 00 00 00 00 00 00 00 00 00 00 00 00 ................
0040B8A0 00 00 00 00 00 00 00 00 00 00 00 00 00 00 00 00 ................
0040B8B0 00 00 00 00 00 00 00 00 00 00 00 00 00 00 00 00 ................
0040B8C0 00 00 00 00 00 00 00 00 00 00 00 00 00 00 00 00 ................
0040B8D0 00 00 00 00 00 00 00 00 00 00 00 00 00 00 00 00 ................
0040B8E0 00 00 00 00 00 00 00 00 00 00 00 00 00 00 00 00 ................
0040B8F0 00 00 00 00 00 00 00 00 00 00 00 00 00 00 00 00 ................
0040B900 00 00 00 00 00 00 00 00 00 00 00 00 00 00 00 00 ................
0040B910 00 00 00 00 00 00 00 00 00 00 00 00 00 00 00 00 ................
0040B920 00 00 00 00 00 00 00 00 00 00 00 00 00 00 00 00 ................
0040B930 00 00 00 00 00 00 00 00 00 00 00 00 00 00 00 00 ................
0040B940 00 00 00 00 00 00 00 00 00 00 00 00 00 00 00 00 ................
0040B950 00 00 00 00 00 00 00 00 00 00 00 00 00 00 00 00 ................
0040B960 00 00 00 00 00 00 00 00 00 00 00 00 00 00 00 00 ................
0040B970 00 00 00 00 00 00 00 00 00 00 00 00 00 00 00 00 ................
0040B980 00 00 00 00 00 00 00 00 00 00 00 00 00 00 00 00 ................
0040B990 00 00 00 00 00 00 00 00 00 00 00 00 00 00 00 00 ................
0040B9A0 00 00 00 00 00 00 00 00 00 00 00 00 00 00 00 00 ................
0040B9B0 00 00 00 00 00 00 00 00 00 00 00 00 00 00 00 00 ................
0040B9C0 00 00 00 00 00 00 00 00 00 00 00 00 00 00 00 00 ................
0040B9D0 00 00 00 00 00 00 00 00 00 00 00 00 00 00 00 00 ................
0040B9E0 00 00 00 00 00 00 00 00 00 00 00 00 00 00 00 00 ................
0040B9F0 00 00 00 00 00 00 00 00 00 00 00 00 00 00 00 00 ................
0040BA00 00 00 00 00 00 00 00 00 00 00 00 00 00 00 00 00 ................
0040BA10 00 00 00 00 00 00 00 00 00 00 00 00 00 00 00 00 ................
0040BA20 00 00 00 00 00 00 00 00 00 00 00 00 00 00 00 00 ................
0040BA30 00 00 00 00 00 00 00 00 00 00 00 00 00 00 00 00 ................
0040BA40 00 00 00 00 00 00 00 00 00 00 00 00 00 00 00 00 ................
0040BA50 00 00 00 00 00 00 00 00 00 00 00 00 00 00 00 00 ................
0040BA60 00 00 00 00 00 00 00 00 00 00 00 00 00 00 00 00 ................
0040BA70 00 00 00 00 00 00 00 00 00 00 00 00 00 00 00 00 ................
0040BA80 00 00 00 00 00 00 00 00 00 00 00 00 00 00 00 00 ................
0040BA90 00 00 00 00 00 00 00 00 00 00 00 00 00 00 00 00 ................
0040BAA0 00 00 00 00 00 00 00 00 00 00 00 00 00 00 00 00 ................
0040BAB0 00 00 00 00 00 00 00 00 00 00 00 00 00 00 00 00 ................
0040BAC0 00 00 00 00 00 00 00 00 00 00 00 00 00 00 00 00 ................
0040BAD0 00 00 00 00 00 00 00 00 00 00 00 00 00 00 00 00 ................
0040BAE0 00 00 00 00 00 00 00 00 00 00 00 00 00 00 00 00 ................
0040BAF0 00 00 00 00 00 00 00 00 00 00 00 00 00 00 00 00 ................
0040BB00 00 00 00 00 00 00 00 00 00 00 00 00 00 00 00 00 ................
0040BB10 00 00 00 00 00 00 00 00 00 00 00 00 00 00 00 00 ................
0040BB20 00 00 00 00 00 00 00 00 00 00 00 00 00 00 00 00 ................
0040BB30 00 00 00 00 00 00 00 00 00 00 00 00 00 00 00 00 ................
0040BB40 00 00 00 00 00 00 00 00 00 00 00 00 00 00 00 00 ................
0040BB50 00 00 00 00 00 00 00 00 00 00 00 00 00 00 00 00 ................
0040BB60 00 00 00 00 00 00 00 00 00 00 00 00 00 00 00 00 ................
0040BB70 00 00 00 00 00 00 00 00 00 00 00 00 00 00 00 00 ................
0040BB80 00 00 00 00 00 00 00 00 00 00 00 00 00 00 00 00 ................
0040BB90 00 00 00 00 00 00 00 00 00 00 00 00 00 00 00 00 ................
0040BBA0 00 00 00 00 00 00 00 00 00 00 00 00 00 00 00 00 ................
0040BBB0 00 00 00 00 00 00 00 00 00 00 00 00 00 00 00 00 ................
0040BBC0 00 00 00 00 00 00 00 00 00 00 00 00 00 00 00 00 ................
0040BBD0 00 00 00 00 00 00 00 00 00 00 00 00 00 00 00 00 ................
0040BBE0 00 00 00 00 00 00 00 00 00 00 00 00 00 00 00 00 ................
0040BBF0 00 00 00 00 00 00 00 00 00 00 00 00 00 00 00 00 ................
0040BC00 00 00 00 00 00 00 00 00 00 00 00 00 00 00 00 00 ................
0040BC10 00 00 00 00 00 00 00 00 00 00 00 00 00 00 00 00 ................
0040BC20 00 00 00 00 00 00 00 00 00 00 00 00 00 00 00 00 ................
0040BC30 00 00 00 00 00 00 00 00 00 00 00 00 00 00 00 00 ................
0040BC40 00 00 00 00 00 00 00 00 00 00 00 00 00 00 00 00 ................
0040BC50 00 00 00 00 00 00 00 00 00 00 00 00 00 00 00 00 ................
0040BC60 00 00 00 00 00 00 00 00 00 00 00 00 00 00 00 00 ................
0040BC70 00 00 00 00 00 00 00 00 00 00 00 00 00 00 00 00 ................
0040BC80 00 00 00 00 00 00 00 00 00 00 00 00 00 00 00 00 ................
0040BC90 00 00 00 00 00 00 00 00 00 00 00 00 00 00 00 00 ................
0040BCA0 00 00 00 00 00 00 00 00 00 00 00 00 00 00 00 00 ................
0040BCB0 00 00 00 00 00 00 00 00 00 00 00 00 00 00 00 00 ................
0040BCC0 00 00 00 00 00 00 00 00 00 00 00 00 00 00 00 00 ................
0040BCD0 00 00 00 00 00 00 00 00 00 00 00 00 00 00 00 00 ................
0040BCE0 00 00 00 00 00 00 00 00 00 00 00 00 00 00 00 00 ................
0040BCF0 00 00 00 00 00 00 00 00 00 00 00 00 00 00 00 00 ................
0040BD00 00 00 00 00 00 00 00 00 00 00 00 00 00 00 00 00 ................
0040BD10 00 00 00 00 00 00 00 00 00 00 00 00 00 00 00 00 ................
0040BD20 00 00 00 00 00 00 00 00 00 00 00 00 00 00 00 00 ................
0040BD30 00 00 00 00 00 00 00 00 00 00 00 00 00 00 00 00 ................
0040BD40 00 00 00 00 00 00 00 00 00 00 00 00 00 00 00 00 ................
0040BD50 00 00 00 00 00 00 00 00 00 00 00 00 00 00 00 00 ................
0040BD60 00 00 00 00 00 00 00 00 00 00 00 00 00 00 00 00 ................
0040BD70 00 00 00 00 00 00 00 00 00 00 00 00 00 00 00 00 ................
0040BD80 00 00 00 00 00 00 00 00 00 00 00 00 00 00 00 00 ................
0040BD90 00 00 00 00 00 00 00 00 00 00 00 00 00 00 00 00 ................
0040BDA0 00 00 00 00 00 00 00 00 00 00 00 00 00 00 00 00 ................
0040BDB0 00 00 00 00 00 00 00 00 00 00 00 00 00 00 00 00 ................
0040BDC0 00 00 00 00 00 00 00 00 00 00 00 00 00 00 00 00 ................
0040BDD0 00 00 00 00 00 00 00 00 00 00 00 00 00 00 00 00 ................
0040BDE0 00 00 00 00 00 00 00 00 00 00 00 00 00 00 00 00 ................
0040BDF0 00 00 00 00 00 00 00 00 00 00 00 00 00 00 00 00 ................
0040BE00 00 00 00 00 00 00 00 00 00 00 00 00 00 00 00 00 ................
0040BE10 00 00 00 00 00 00 00 00 00 00 00 00 00 00 00 00 ................
0040BE20 00 00 00 00 00 00 00 00 00 00 00 00 00 00 00 00 ................
0040BE30 00 00 00 00 00 00 00 00 00 00 00 00 00 00 00 00 ................
0040BE40 00 00 00 00 00 00 00 00 00 00 00 00 00 00 00 00 ................
0040BE50 00 00 00 00 00 00 00 00 00 00 00 00 00 00 00 00 ................
0040BE60 00 00 00 00 00 00 00 00 00 00 00 00 00 00 00 00 ................
0040BE70 00 00 00 00 00 00 00 00 00 00 00 00 00 00 00 00 ................
0040BE80 00 00 00 00 00 00 00 00 00 00 00 00 00 00 00 00 ................
0040BE90 00 00 00 00 00 00 00 00 00 00 00 00 00 00 00 00 ................
0040BEA0 00 00 00 00 00 00 00 00 00 00 00 00 00 00 00 00 ................
0040BEB0 00 00 00 00 00 00 00 00 00 00 00 00 00 00 00 00 ................
0040BEC0 00 00 00 00 00 00 00 00 00 00 00 00 00 00 00 00 ................
0040BED0 00 00 00 00 00 00 00 00 00 00 00 00 00 00 00 00 ................
0040BEE0 00 00 00 00 00 00 00 00 00 00 00 00 00 00 00 00 ................
0040BEF0 00 00 00 00 00 00 00 00 00 00 00 00 00 00 00 00 ................
0040BF00 00 00 00 00 00 00 00 00 00 00 00 00 00 00 00 00 ................
0040BF10 00 00 00 00 00 00 00 00 00 00 00 00 00 00 00 00 ................
0040BF20 00 00 00 00 00 00 00 00 00 00 00 00 00 00 00 00 ................
0040BF30 00 00 00 00 00 00 00 00 00 00 00 00 00 00 00 00 ................
0040BF40 00 00 00 00 00 00 00 00 00 00 00 00 00 00 00 00 ................
0040BF50 00 00 00 00 00 00 00 00 00 00 00 00 00 00 00 00 ................
0040BF60 00 00 00 00 00 00 00 00 00 00 00 00 00 00 00 00 ................
0040BF70 00 00 00 00 00 00 00 00 00 00 00 00 00 00 00 00 ................
0040BF80 00 00 00 00 00 00 00 00 00 00 00 00 00 00 00 00 ................
0040BF90 00 00 00 00 00 00 00 00 00 00 00 00 00 00 00 00 ................
0040BFA0 00 00 00 00 00 00 00 00 00 00 00 00 00 00 00 00 ................
0040BFB0 00 00 00 00 00 00 00 00 00 00 00 00 00 00 00 00 ................
0040BFC0 00 00 00 00 00 00 00 00 00 00 00 00 00 00 00 00 ................
0040BFD0 00 00 00 00 00 00 00 00 00 00 00 00 00 00 00 00 ................
0040BFE0 00 00 00 00 00 00 00 00 00 00 00 00 00 00 00 00 ................
0040BFF0 00 00 00 00 00 00 00 00 00 00 00 00 00 00 00 00 ................
0040C000 00 00 00 00 00 00 00 00 00 00 00 00 00 00 00 00 ................
0040C010 00 00 00 00 00 00 00 00 00 00 00 00 00 00 00 00 ................
0040C020 00 00 00 00 00 00 00 00 00 00 00 00 00 00 00 00 ................
0040C030 00 00 00 00 00 00 00 00 00 00 00 00 00 00 00 00 ................
0040C040 00 00 00 00 00 00 00 00 00 00 00 00 00 00 00 00 ................
0040C050 00 00 00 00 00 00 00 00 00 00 00 00 00 00 00 00 ................
0040C060 00 00 00 00 00 00 00 00 00 00 00 00 00 00 00 00 ................
0040C070 00 00 00 00 00 00 00 00 00 00 00 00 00 00 00 00 ................
0040C080 00 00 00 00 00 00 00 00 00 00 00 00 00 00 00 00 ................
0040C090 00 00 00 00 00 00 00 00 00 00 00 00 00 00 00 00 ................
0040C0A0 00 00 00 00 00 00 00 00 00 00 00 00 00 00 00 00 ................
0040C0B0 00 00 00 00 00 00 00 00 00 00 00 00 00 00 00 00 ................
0040C0C0 00 00 00 00 00 00 00 00 00 00 00 00 00 00 00 00 ................
0040C0D0 00 00 00 00 00 00 00 00 00 00 00 00 00 00 00 00 ................
0040C0E0 00 00 00 00 00 00 00 00 00 00 00 00 00 00 00 00 ................
0040C0F0 00 00 00 00 00 00 00 00 00 00 00 00 00 00 00 00 ................
0040C100 00 00 00 00 00 00 00 00 00 00 00 00 00 00 00 00 ................
0040C110 00 00 00 00 00 00 00 00 00 00 00 00 00 00 00 00 ................
0040C120 00 00 00 00 00 00 00 00 00 00 00 00 00 00 00 00 ................
0040C130 00 00 00 00 00 00 00 00 00 00 00 00 00 00 00 00 ................
0040C140 00 00 00 00 00 00 00 00 00 00 00 00 00 00 00 00 ................
0040C150 00 00 00 00 00 00 00 00 00 00 00 00 00 00 00 00 ................
0040C160 00 00 00 00 00 00 00 00 00 00 00 00 00 00 00 00 ................
0040C170 00 00 00 00 00 00 00 00 00 00 00 00 00 00 00 00 ................
0040C180 00 00 00 00 00 00 00 00 00 00 00 00 00 00 00 00 ................
0040C190 00 00 00 00 00 00 00 00 00 00 00 00 00 00 00 00 ................
0040C1A0 00 00 00 00 00 00 00 00 00 00 00 00 00 00 00 00 ................
0040C1B0 00 00 00 00 00 00 00 00 00 00 00 00 00 00 00 00 ................
0040C1C0 00 00 00 00 00 00 00 00 00 00 00 00 00 00 00 00 ................
0040C1D0 00 00 00 00 00 00 00 00 00 00 00 00 00 00 00 00 ................
0040C1E0 00 00 00 00 00 00 00 00 00 00 00 00 00 00 00 00 ................
0040C1F0 00 00 00 00 00 00 00 00 00 00 00 00 00 00 00 00 ................
0040C200 00 00 00 00 00 00 00 00 00 00 00 00 00 00 00 00 ................
0040C210 00 00 00 00 00 00 00 00 00 00 00 00 00 00 00 00 ................
0040C220 00 00 00 00 00 00 00 00 00 00 00 00 00 00 00 00 ................
0040C230 00 00 00 00 00 00 00 00 00 00 00 00 00 00 00 00 ................
0040C240 00 00 00 00 00 00 00 00 00 00 00 00 00 00 00 00 ................
0040C250 00 00 00 00 00 00 00 00 00 00 00 00 00 00 00 00 ................
0040C260 00 00 00 00 00 00 00 00 00 00 00 00 00 00 00 00 ................
0040C270 00 00 00 00 00 00 00 00 00 00 00 00 00 00 00 00 ................
0040C280 00 00 00 00 00 00 00 00 00 00 00 00 00 00 00 00 ................
0040C290 00 00 00 00 00 00 00 00 00 00 00 00 00 00 00 00 ................
0040C2A0 00 00 00 00 00 00 00 00 00 00 00 00 00 00 00 00 ................
0040C2B0 00 00 00 00 00 00 00 00 00 00 00 00 00 00 00 00 ................
0040C2C0 00 00 00 00 00 00 00 00 00 00 00 00 00 00 00 00 ................
0040C2D0 00 00 00 00 00 00 00 00 00 00 00 00 00 00 00 00 ................
0040C2E0 00 00 00 00 00 00 00 00 00 00 00 00 00 00 00 00 ................
0040C2F0 00 00 00 00 00 00 00 00 00 00 00 00 00 00 00 00 ................
0040C300 00 00 00 00 00 00 00 00 00 00 00 00 00 00 00 00 ................
0040C310 00 00 00 00 00 00 00 00 00 00 00 00 00 00 00 00 ................
0040C320 00 00 00 00 00 00 00 00 00 00 00 00 00 00 00 00 ................
0040C330 00 00 00 00 00 00 00 00 00 00 00 00 00 00 00 00 ................
0040C340 00 00 00 00 00 00 00 00 00 00 00 00 00 00 00 00 ................
0040C350 00 00 00 00 00 00 00 00 00 00 00 00 00 00 00 00 ................
0040C360 00 00 00 00 00 00 00 00 00 00 00 00 00 00 00 00 ................
0040C370 00 00 00 00 00 00 00 00 00 00 00 00 00 00 00 00 ................
0040C380 00 00 00 00 00 00 00 00 00 00 00 00 00 00 00 00 ................
0040C390 00 00 00 00 00 00 00 00 00 00 00 00 00 00 00 00 ................
0040C3A0 00 00 00 00 00 00 00 00 00 00 00 00 00 00 00 00 ................
0040C3B0 00 00 00 00 00 00 00 00 00 00 00 00 00 00 00 00 ................
0040C3C0 00 00 00 00 00 00 00 00 00 00 00 00 00 00 00 00 ................
0040C3D0 00 00 00 00 00 00 00 00 00 00 00 00 00 00 00 00 ................
0040C3E0 00 00 00 00 00 00 00 00 00 00 00 00 00 00 00 00 ................
0040C3F0 00 00 00 00 00 00 00 00 00 00 00 00 00 00 00 00 ................
0040C400 00 00 00 00 00 00 00 00 00 00 00 00 00 00 00 00 ................
0040C410 00 00 00 00 00 00 00 00 00 00 00 00 00 00 00 00 ................
0040C420 00 00 00 00 00 00 00 00 00 00 00 00 00 00 00 00 ................
0040C430 00 00 00 00 00 00 00 00 00 00 00 00 00 00 00 00 ................
0040C440 00 00 00 00 00 00 00 00 00 00 00 00 00 00 00 00 ................
0040C450 00 00 00 00 00 00 00 00 00 00 00 00 00 00 00 00 ................
0040C460 00 00 00 00 00 00 00 00 00 00 00 00 00 00 00 00 ................
0040C470 00 00 00 00 00 00 00 00 00 00 00 00 00 00 00 00 ................
0040C480 00 00 00 00 00 00 00 00 00 00 00 00 00 00 00 00 ................
0040C490 00 00 00 00 00 00 00 00 00 00 00 00 00 00 00 00 ................
0040C4A0 00 00 00 00 00 00 00 00 00 00 00 00 00 00 00 00 ................
0040C4B0 00 00 00 00 00 00 00 00 00 00 00 00 00 00 00 00 ................
0040C4C0 00 00 00 00 00 00 00 00 00 00 00 00 00 00 00 00 ................
0040C4D0 00 00 00 00 00 00 00 00 00 00 00 00 00 00 00 00 ................
0040C4E0 00 00 00 00 00 00 00 00 00 00 00 00 00 00 00 00 ................
0040C4F0 00 00 00 00 00 00 00 00 00 00 00 00 00 00 00 00 ................
0040C500 00 00 00 00 00 00 00 00 00 00 00 00 00 00 00 00 ................
0040C510 00 00 00 00 00 00 00 00 00 00 00 00 00 00 00 00 ................
0040C520 00 00 00 00 00 00 00 00 00 00 00 00 00 00 00 00 ................
0040C530 00 00 00 00 00 00 00 00 00 00 00 00 00 00 00 00 ................
0040C540 00 00 00 00 00 00 00 00 00 00 00 00 00 00 00 00 ................
0040C550 00 00 00 00 00 00 00 00 00 00 00 00 00 00 00 00 ................
0040C560 00 00 00 00 00 00 00 00 00 00 00 00 00 00 00 00 ................
0040C570 00 00 00 00 00 00 00 00 00 00 00 00 00 00 00 00 ................
0040C580 00 00 00 00 00 00 00 00 00 00 00 00 00 00 00 00 ................
0040C590 00 00 00 00 00 00 00 00 00 00 00 00 00 00 00 00 ................
0040C5A0 00 00 00 00 00 00 00 00 00 00 00 00 00 00 00 00 ................
0040C5B0 00 00 00 00 00 00 00 00 00 00 00 00 00 00 00 00 ................
0040C5C0 00 00 00 00 00 00 00 00 00 00 00 00 00 00 00 00 ................
0040C5D0 00 00 00 00 00 00 00 00 00 00 00 00 00 00 00 00 ................
0040C5E0 00 00 00 00 00 00 00 00 00 00 00 00 00 00 00 00 ................
0040C5F0 00 00 00 00 00 00 00 00 00 00 00 00 00 00 00 00 ................
0040C600 00 00 00 00 00 00 00 00 00 00 00 00 00 00 00 00 ................
0040C610 00 00 00 00 00 00 00 00 00 00 00 00 00 00 00 00 ................
0040C620 00 00 00 00 00 00 00 00 00 00 00 00 00 00 00 00 ................
0040C630 00 00 00 00 00 00 00 00 00 00 00 00 00 00 00 00 ................
0040C640 00 00 00 00 00 00 00 00 00 00 00 00 00 00 00 00 ................
0040C650 00 00 00 00 00 00 00 00 00 00 00 00 00 00 00 00 ................
0040C660 00 00 00 00 00 00 00 00 00 00 00 00 00 00 00 00 ................
0040C670 00 00 00 00 00 00 00 00 00 00 00 00 00 00 00 00 ................
0040C680 00 00 00 00 00 00 00 00 00 00 00 00 00 00 00 00 ................
0040C690 00 00 00 00 00 00 00 00 00 00 00 00 00 00 00 00 ................
0040C6A0 00 00 00 00 00 00 00 00 00 00 00 00 00 00 00 00 ................
0040C6B0 00 00 00 00 00 00 00 00 00 00 00 00 00 00 00 00 ................
0040C6C0 00 00 00 00 00 00 00 00 00 00 00 00 00 00 00 00 ................
0040C6D0 00 00 00 00 00 00 00 00 00 00 00 00 00 00 00 00 ................
0040C6E0 00 00 00 00 00 00 00 00 00 00 00 00 00 00 00 00 ................
0040C6F0 00 00 00 00 00 00 00 00 00 00 00 00 00 00 00 00 ................
0040C700 00 00 00 00 00 00 00 00 00 00 00 00 00 00 00 00 ................
0040C710 00 00 00 00 00 00 00 00 00 00 00 00 00 00 00 00 ................
0040C720 00 00 00 00 00 00 00 00 00 00 00 00 00 00 00 00 ................
0040C730 00 00 00 00 00 00 00 00 00 00 00 00 00 00 00 00 ................
0040C740 00 00 00 00 00 00 00 00 00 00 00 00 00 00 00 00 ................
0040C750 00 00 00 00 00 00 00 00 00 00 00 00 00 00 00 00 ................
0040C760 00 00 00 00 00 00 00 00 00 00 00 00 00 00 00 00 ................
0040C770 00 00 00 00 00 00 00 00 00 00 00 00 00 00 00 00 ................
0040C780 00 00 00 00 00 00 00 00 00 00 00 00 00 00 00 00 ................
0040C790 00 00 00 00 00 00 00 00 00 00 00 00 00 00 00 00 ................
0040C7A0 00 00 00 00 00 00 00 00 00 00 00 00 00 00 00 00 ................
0040C7B0 00 00 00 00 00 00 00 00 00 00 00 00 00 00 00 00 ................
0040C7C0 00 00 00 00 00 00 00 00 00 00 00 00 00 00 00 00 ................
0040C7D0 00 00 00 00 00 00 00 00 00 00 00 00 00 00 00 00 ................
0040C7E0 00 00 00 00 00 00 00 00 00 00 00 00 00 00 00 00 ................
0040C7F0 00 00 00 00 00 00 00 00 00 00 00 00 00 00 00 00 ................
0040C800 00 00 00 00 00 00 00 00 00 00 00 00 00 00 00 00 ................
0040C810 00 00 00 00 00 00 00 00 00 00 00 00 00 00 00 00 ................
0040C820 00 00 00 00 00 00 00 00 00 00 00 00 00 00 00 00 ................
0040C830 00 00 00 00 00 00 00 00 00 00 00 00 00 00 00 00 ................
0040C840 00 00 00 00 00 00 00 00 00 00 00 00 00 00 00 00 ................
0040C850 00 00 00 00 00 00 00 00 00 00 00 00 00 00 00 00 ................
0040C860 00 00 00 00 00 00 00 00 00 00 00 00 00 00 00 00 ................
0040C870 00 00 00 00 00 00 00 00 00 00 00 00 00 00 00 00 ................
0040C880 00 00 00 00 00 00 00 00 00 00 00 00 00 00 00 00 ................
0040C890 00 00 00 00 00 00 00 00 00 00 00 00 00 00 00 00 ................
0040C8A0 00 00 00 00 00 00 00 00 00 00 00 00 00 00 00 00 ................
0040C8B0 00 00 00 00 00 00 00 00 00 00 00 00 00 00 00 00 ................
0040C8C0 00 00 00 00 00 00 00 00 00 00 00 00 00 00 00 00 ................
0040C8D0 00 00 00 00 00 00 00 00 00 00 00 00 00 00 00 00 ................
0040C8E0 00 00 00 00 00 00 00 00 00 00 00 00 00 00 00 00 ................
0040C8F0 00 00 00 00 00 00 00 00 00 00 00 00 00 00 00 00 ................
0040C900 00 00 00 00 00 00 00 00 00 00 00 00 00 00 00 00 ................
0040C910 00 00 00 00 00 00 00 00 00 00 00 00 00 00 00 00 ................
0040C920 00 00 00 00 00 00 00 00 00 00 00 00 00 00 00 00 ................
0040C930 00 00 00 00 00 00 00 00 00 00 00 00 00 00 00 00 ................
0040C940 00 00 00 00 00 00 00 00 00 00 00 00 00 00 00 00 ................
0040C950 00 00 00 00 00 00 00 00 00 00 00 00 00 00 00 00 ................
0040C960 00 00 00 00 00 00 00 00 00 00 00 00 00 00 00 00 ................
0040C970 00 00 00 00 00 00 00 00 00 00 00 00 00 00 00 00 ................
0040C980 00 00 00 00 00 00 00 00 00 00 00 00 00 00 00 00 ................
0040C990 00 00 00 00 00 00 00 00 00 00 00 00 00 00 00 00 ................
0040C9A0 00 00 00 00 00 00 00 00 00 00 00 00 00 00 00 00 ................
0040C9B0 00 00 00 00 00 00 00 00 00 00 00 00 00 00 00 00 ................
0040C9C0 00 00 00 00 00 00 00 00 00 00 00 00 00 00 00 00 ................
0040C9D0 00 00 00 00 00 00 00 00 00 00 00 00 00 00 00 00 ................
0040C9E0 00 00 00 00 00 00 00 00 00 00 00 00 00 00 00 00 ................
0040C9F0 00 00 00 00 00 00 00 00 00 00 00 00 00 00 00 00 ................
0040CA00 00 00 00 00 00 00 00 00 00 00 00 00 00 00 00 00 ................
0040CA10 00 00 00 00 00 00 00 00 00 00 00 00 00 00 00 00 ................
0040CA20 00 00 00 00 00 00 00 00 00 00 00 00 00 00 00 00 ................
0040CA30 00 00 00 00 00 00 00 00 00 00 00 00 00 00 00 00 ................
0040CA40 00 00 00 00 00 00 00 00 00 00 00 00 00 00 00 00 ................
0040CA50 00 00 00 00 00 00 00 00 00 00 00 00 00 00 00 00 ................
0040CA60 00 00 00 00 00 00 00 00 00 00 00 00 00 00 00 00 ................
0040CA70 00 00 00 00 00 00 00 00 00 00 00 00 00 00 00 00 ................
0040CA80 00 00 00 00 00 00 00 00 00 00 00 00 00 00 00 00 ................
0040CA90 00 00 00 00 00 00 00 00 00 00 00 00 00 00 00 00 ................
0040CAA0 00 00 00 00 00 00 00 00 00 00 00 00 00 00 00 00 ................
0040CAB0 00 00 00 00 00 00 00 00 00 00 00 00 00 00 00 00 ................
0040CAC0 00 00 00 00 00 00 00 00 00 00 00 00 00 00 00 00 ................
0040CAD0 00 00 00 00 00 00 00 00 00 00 00 00 00 00 00 00 ................
0040CAE0 00 00 00 00 00 00 00 00 00 00 00 00 00 00 00 00 ................
0040CAF0 00 00 00 00 00 00 00 00 00 00 00 00 00 00 00 00 ................
0040CB00 00 00 00 00 00 00 00 00 00 00 00 00 00 00 00 00 ................
0040CB10 00 00 00 00 00 00 00 00 00 00 00 00 00 00 00 00 ................
0040CB20 00 00 00 00 00 00 00 00 00 00 00 00 00 00 00 00 ................
0040CB30 00 00 00 00 00 00 00 00 00 00 00 00 00 00 00 00 ................
0040CB40 00 00 00 00 00 00 00 00 00 00 00 00 00 00 00 00 ................
0040CB50 00 00 00 00 00 00 00 00 00 00 00 00 00 00 00 00 ................
0040CB60 00 00 00 00 00 00 00 00 00 00 00 00 00 00 00 00 ................
0040CB70 00 00 00 00 00 00 00 00 00 00 00 00 00 00 00 00 ................
0040CB80 00 00 00 00 00 00 00 00 00 00 00 00 00 00 00 00 ................
0040CB90 00 00 00 00 00 00 00 00 00 00 00 00 00 00 00 00 ................
0040CBA0 00 00 00 00 00 00 00 00 00 00 00 00 00 00 00 00 ................
0040CBB0 00 00 00 00 00 00 00 00 00 00 00 00 00 00 00 00 ................
0040CBC0 00 00 00 00 00 00 00 00 00 00 00 00 00 00 00 00 ................
0040CBD0 00 00 00 00 00 00 00 00 00 00 00 00 00 00 00 00 ................
0040CBE0 00 00 00 00 00 00 00 00 00 00 00 00 00 00 00 00 ................
0040CBF0 00 00 00 00 00 00 00 00 00 00 00 00 00 00 00 00 ................
0040CC00 00 00 00 00 00 00 00 00 00 00 00 00 00 00 00 00 ................
0040CC10 00 00 00 00 00 00 00 00 00 00 00 00 00 00 00 00 ................
0040CC20 00 00 00 00 00 00 00 00 00 00 00 00 00 00 00 00 ................
0040CC30 00 00 00 00 00 00 00 00 00 00 00 00 00 00 00 00 ................
0040CC40 00 00 00 00 00 00 00 00 00 00 00 00 00 00 00 00 ................
0040CC50 00 00 00 00 00 00 00 00 00 00 00 00 00 00 00 00 ................
0040CC60 00 00 00 00 00 00 00 00 00 00 00 00 00 00 00 00 ................
0040CC70 00 00 00 00 00 00 00 00 00 00 00 00 00 00 00 00 ................
0040CC80 00 00 00 00 00 00 00 00 00 00 00 00 00 00 00 00 ................
0040CC90 00 00 00 00 00 00 00 00 00 00 00 00 00 00 00 00 ................
0040CCA0 00 00 00 00 00 00 00 00 00 00 00 00 00 00 00 00 ................
0040CCB0 00 00 00 00 00 00 00 00 00 00 00 00 00 00 00 00 ................
0040CCC0 00 00 00 00 00 00 00 00 00 00 00 00 00 00 00 00 ................
0040CCD0 00 00 00 00 00 00 00 00 00 00 00 00 00 00 00 00 ................
0040CCE0 00 00 00 00 00 00 00 00 00 00 00 00 00 00 00 00 ................
0040CCF0 00 00 00 00 00 00 00 00 00 00 00 00 00 00 00 00 ................
0040CD00 00 00 00 00 00 00 00 00 00 00 00 00 00 00 00 00 ................
0040CD10 00 00 00 00 00 00 00 00 00 00 00 00 00 00 00 00 ................
0040CD20 00 00 00 00 00 00 00 00 00 00 00 00 00 00 00 00 ................
0040CD30 00 00 00 00 00 00 00 00 00 00 00 00 00 00 00 00 ................
0040CD40 00 00 00 00 00 00 00 00 00 00 00 00 00 00 00 00 ................
0040CD50 00 00 00 00 00 00 00 00 00 00 00 00 00 00 00 00 ................
0040CD60 00 00 00 00 00 00 00 00 00 00 00 00 00 00 00 00 ................
0040CD70 00 00 00 00 00 00 00 00 00 00 00 00 00 00 00 00 ................
0040CD80 00 00 00 00 00 00 00 00 00 00 00 00 00 00 00 00 ................
0040CD90 00 00 00 00 00 00 00 00 00 00 00 00 00 00 00 00 ................
0040CDA0 00 00 00 00 00 00 00 00 00 00 00 00 00 00 00 00 ................
0040CDB0 00 00 00 00 00 00 00 00 00 00 00 00 00 00 00 00 ................
0040CDC0 00 00 00 00 00 00 00 00 00 00 00 00 00 00 00 00 ................
0040CDD0 00 00 00 00 00 00 00 00 00 00 00 00 00 00 00 00 ................
0040CDE0 00 00 00 00 00 00 00 00 00 00 00 00 00 00 00 00 ................
0040CDF0 00 00 00 00 00 00 00 00 00 00 00 00 00 00 00 00 ................
0040CE00 00 00 00 00 00 00 00 00 00 00 00 00 00 00 00 00 ................
0040CE10 00 00 00 00 00 00 00 00 00 00 00 00 00 00 00 00 ................
0040CE20 00 00 00 00 00 00 00 00 00 00 00 00 00 00 00 00 ................
0040CE30 00 00 00 00 00 00 00 00 00 00 00 00 00 00 00 00 ................
0040CE40 00 00 00 00 00 00 00 00 00 00 00 00 00 00 00 00 ................
0040CE50 00 00 00 00 00 00 00 00 00 00 00 00 00 00 00 00 ................
0040CE60 00 00 00 00 00 00 00 00 00 00 00 00 00 00 00 00 ................
0040CE70 00 00 00 00 00 00 00 00 00 00 00 00 00 00 00 00 ................
0040CE80 00 00 00 00 00 00 00 00 00 00 00 00 00 00 00 00 ................
0040CE90 00 00 00 00 00 00 00 00 00 00 00 00 00 00 00 00 ................
0040CEA0 00 00 00 00 00 00 00 00 00 00 00 00 00 00 00 00 ................
0040CEB0 00 00 00 00 00 00 00 00 00 00 00 00 00 00 00 00 ................
0040CEC0 00 00 00 00 00 00 00 00 00 00 00 00 00 00 00 00 ................
0040CED0 00 00 00 00 00 00 00 00 00 00 00 00 00 00 00 00 ................
0040CEE0 00 00 00 00 00 00 00 00 00 00 00 00 00 00 00 00 ................
0040CEF0 00 00 00 00 00 00 00 00 00 00 00 00 00 00 00 00 ................
0040CF00 00 00 00 00 00 00 00 00 00 00 00 00 00 00 00 00 ................
0040CF10 00 00 00 00 00 00 00 00 00 00 00 00 00 00 00 00 ................
0040CF20 00 00 00 00 00 00 00 00 00 00 00 00 00 00 00 00 ................
0040CF30 00 00 00 00 00 00 00 00 00 00 00 00 00 00 00 00 ................
0040CF40 00 00 00 00 00 00 00 00 00 00 00 00 00 00 00 00 ................
0040CF50 00 00 00 00 00 00 00 00 00 00 00 00 00 00 00 00 ................
0040CF60 00 00 00 00 00 00 00 00 00 00 00 00 00 00 00 00 ................
0040CF70 00 00 00 00 00 00 00 00 00 00 00 00 00 00 00 00 ................
0040CF80 00 00 00 00 00 00 00 00 00 00 00 00 00 00 00 00 ................
0040CF90 00 00 00 00 00 00 00 00 00 00 00 00 00 00 00 00 ................
0040CFA0 00 00 00 00 00 00 00 00 00 00 00 00 00 00 00 00 ................
0040CFB0 00 00 00 00 00 00 00 00 00 00 00 00 00 00 00 00 ................
0040CFC0 00 00 00 00 00 00 00 00 00 00 00 00 00 00 00 00 ................
0040CFD0 00 00 00 00 00 00 00 00 00 00 00 00 00 00 00 00 ................
0040CFE0 00 00 00 00 00 00 00 00 00 00 00 00 00 00 00 00 ................
0040CFF0 00 00 00 00 00 00 00 00 00 00 00 00 00 00 00 00 ................
0040D000 00 00 00 00 00 00 00 00 00 00 00 00 00 00 00 00 ................
0040D010 00 00 00 00 00 00 00 00 00 00 00 00 00 00 00 00 ................
0040D020 00 00 00 00 00 00 00 00 00 00 00 00 00 00 00 00 ................
0040D030 00 00 00 00 00 00 00 00 00 00 00 00 00 00 00 00 ................
0040D040 00 00 00 00 00 00 00 00 00 00 00 00 00 00 00 00 ................
0040D050 00 00 00 00 00 00 00 00 00 00 00 00 00 00 00 00 ................
0040D060 00 00 00 00 00 00 00 00 00 00 00 00 00 00 00 00 ................
0040D070 00 00 00 00 00 00 00 00 00 00 00 00 00 00 00 00 ................
0040D080 00 00 00 00 00 00 00 00 00 00 00 00 00 00 00 00 ................
0040D090 00 00 00 00 00 00 00 00 00 00 00 00 00 00 00 00 ................
0040D0A0 00 00 00 00 00 00 00 00 00 00 00 00 00 00 00 00 ................
0040D0B0 00 00 00 00 00 00 00 00 00 00 00 00 00 00 00 00 ................
0040D0C0 00 00 00 00 00 00 00 00 00 00 00 00 00 00 00 00 ................
0040D0D0 00 00 00 00 00 00 00 00 00 00 00 00 00 00 00 00 ................
0040D0E0 00 00 00 00 00 00 00 00 00 00 00 00 00 00 00 00 ................
0040D0F0 00 00 00 00 00 00 00 00 00 00 00 00 00 00 00 00 ................
0040D100 00 00 00 00 00 00 00 00 00 00 00 00 00 00 00 00 ................
0040D110 00 00 00 00 00 00 00 00 00 00 00 00 00 00 00 00 ................
0040D120 00 00 00 00 00 00 00 00 00 00 00 00 00 00 00 00 ................
0040D130 00 00 00 00 00 00 00 00 00 00 00 00 00 00 00 00 ................
0040D140 00 00 00 00 00 00 00 00 00 00 00 00 00 00 00 00 ................
0040D150 00 00 00 00 00 00 00 00 00 00 00 00 00 00 00 00 ................
0040D160 00 00 00 00 00 00 00 00 00 00 00 00 00 00 00 00 ................
0040D170 00 00 00 00 00 00 00 00 00 00 00 00 00 00 00 00 ................
0040D180 00 00 00 00 00 00 00 00 00 00 00 00 00 00 00 00 ................
0040D190 00 00 00 00 00 00 00 00 00 00 00 00 00 00 00 00 ................
0040D1A0 00 00 00 00 00 00 00 00 00 00 00 00 00 00 00 00 ................
0040D1B0 00 00 00 00 00 00 00 00 00 00 00 00 00 00 00 00 ................
0040D1C0 00 00 00 00 00 00 00 00 00 00 00 00 00 00 00 00 ................
0040D1D0 00 00 00 00 00 00 00 00 00 00 00 00 00 00 00 00 ................
0040D1E0 00 00 00 00 00 00 00 00 00 00 00 00 00 00 00 00 ................
0040D1F0 00 00 00 00 00 00 00 00 00 00 00 00 00 00 00 00 ................
0040D200 00 00 00 00 00 00 00 00 00 00 00 00 00 00 00 00 ................
0040D210 00 00 00 00 00 00 00 00 00 00 00 00 00 00 00 00 ................
0040D220 00 00 00 00 00 00 00 00 00 00 00 00 00 00 00 00 ................
0040D230 00 00 00 00 00 00 00 00 00 00 00 00 00 00 00 00 ................
0040D240 00 00 00 00 00 00 00 00 00 00 00 00 00 00 00 00 ................
0040D250 00 00 00 00 00 00 00 00 00 00 00 00 00 00 00 00 ................
0040D260 00 00 00 00 00 00 00 00 00 00 00 00 00 00 00 00 ................
0040D270 00 00 00 00 00 00 00 00 00 00 00 00 00 00 00 00 ................
0040D280 00 00 00 00 00 00 00 00 00 00 00 00 00 00 00 00 ................
0040D290 00 00 00 00 00 00 00 00 00 00 00 00 00 00 00 00 ................
0040D2A0 00 00 00 00 00 00 00 00 00 00 00 00 00 00 00 00 ................
0040D2B0 00 00 00 00 00 00 00 00 00 00 00 00 00 00 00 00 ................
0040D2C0 00 00 00 00 00 00 00 00 00 00 00 00 00 00 00 00 ................
0040D2D0 00 00 00 00 00 00 00 00 00 00 00 00 00 00 00 00 ................
0040D2E0 00 00 00 00 00 00 00 00 00 00 00 00 00 00 00 00 ................
0040D2F0 00 00 00 00 00 00 00 00 00 00 00 00 00 00 00 00 ................
0040D300 00 00 00 00 00 00 00 00 00 00 00 00 00 00 00 00 ................
0040D310 00 00 00 00 00 00 00 00 00 00 00 00 00 00 00 00 ................
0040D320 00 00 00 00 00 00 00 00 00 00 00 00 00 00 00 00 ................
0040D330 00 00 00 00 00 00 00 00 00 00 00 00 00 00 00 00 ................
0040D340 00 00 00 00 00 00 00 00 00 00 00 00 00 00 00 00 ................
0040D350 00 00 00 00 00 00 00 00 00 00 00 00 00 00 00 00 ................
0040D360 00 00 00 00 00 00 00 00 00 00 00 00 00 00 00 00 ................
0040D370 00 00 00 00 00 00 00 00 00 00 00 00 00 00 00 00 ................
0040D380 00 00 00 00 00 00 00 00 00 00 00 00 00 00 00 00 ................
0040D390 00 00 00 00 00 00 00 00 00 00 00 00 00 00 00 00 ................
0040D3A0 00 00 00 00 00 00 00 00 00 00 00 00 00 00 00 00 ................
0040D3B0 00 00 00 00 00 00 00 00 00 00 00 00 00 00 00 00 ................
0040D3C0 00 00 00 00 00 00 00 00 00 00 00 00 00 00 00 00 ................
0040D3D0 00 00 00 00 00 00 00 00 00 00 00 00 00 00 00 00 ................
0040D3E0 00 00 00 00 00 00 00 00 00 00 00 00 00 00 00 00 ................
0040D3F0 00 00 00 00 00 00 00 00 00 00 00 00 00 00 00 00 ................
0040D400 00 00 00 00 00 00 00 00 00 00 00 00 00 00 00 00 ................
0040D410 00 00 00 00 00 00 00 00 00 00 00 00 00 00 00 00 ................
0040D420 00 00 00 00 00 00 00 00 00 00 00 00 00 00 00 00 ................
0040D430 00 00 00 00 00 00 00 00 00 00 00 00 00 00 00 00 ................
0040D440 00 00 00 00 00 00 00 00 00 00 00 00 00 00 00 00 ................
0040D450 00 00 00 00 00 00 00 00 00 00 00 00 00 00 00 00 ................
0040D460 00 00 00 00 00 00 00 00 00 00 00 00 00 00 00 00 ................
0040D470 00 00 00 00 00 00 00 00 00 00 00 00 00 00 00 00 ................
0040D480 00 00 00 00 00 00 00 00 00 00 00 00 00 00 00 00 ................
0040D490 00 00 00 00 00 00 00 00 00 00 00 00 00 00 00 00 ................
0040D4A0 00 00 00 00 00 00 00 00 00 00 00 00 00 00 00 00 ................
0040D4B0 00 00 00 00 00 00 00 00 00 00 00 00 00 00 00 00 ................
0040D4C0 00 00 00 00 00 00 00 00 00 00 00 00 00 00 00 00 ................
0040D4D0 00 00 00 00 00 00 00 00 00 00 00 00 00 00 00 00 ................
0040D4E0 00 00 00 00 00 00 00 00 00 00 00 00 00 00 00 00 ................
0040D4F0 00 00 00 00 00 00 00 00 00 00 00 00 00 00 00 00 ................
0040D500 00 00 00 00 00 00 00 00 00 00 00 00 00 00 00 00 ................
0040D510 00 00 00 00 00 00 00 00 00 00 00 00 00 00 00 00 ................
0040D520 00 00 00 00 00 00 00 00 00 00 00 00 00 00 00 00 ................
0040D530 00 00 00 00 00 00 00 00 00 00 00 00 00 00 00 00 ................
0040D540 00 00 00 00 00 00 00 00 00 00 00 00 00 00 00 00 ................
0040D550 00 00 00 00 00 00 00 00 00 00 00 00 00 00 00 00 ................
0040D560 00 00 00 00 00 00 00 00 00 00 00 00 00 00 00 00 ................
0040D570 00 00 00 00 00 00 00 00 00 00 00 00 00 00 00 00 ................
0040D580 00 00 00 00 00 00 00 00 00 00 00 00 00 00 00 00 ................
0040D590 00 00 00 00 00 00 00 00 00 00 00 00 00 00 00 00 ................
0040D5A0 00 00 00 00 00 00 00 00 00 00 00 00 00 00 00 00 ................
0040D5B0 00 00 00 00 00 00 00 00 00 00 00 00 00 00 00 00 ................
0040D5C0 00 00 00 00 00 00 00 00 00 00 00 00 00 00 00 00 ................
0040D5D0 00 00 00 00 00 00 00 00 00 00 00 00 00 00 00 00 ................
0040D5E0 00 00 00 00 00 00 00 00 00 00 00 00 00 00 00 00 ................
0040D5F0 00 00 00 00 00 00 00 00 00 00 00 00 00 00 00 00 ................
0040D600 00 00 00 00 00 00 00 00 00 00 00 00 00 00 00 00 ................
0040D610 00 00 00 00 00 00 00 00 00 00 00 00 00 00 00 00 ................
0040D620 00 00 00 00 00 00 00 00 00 00 00 00 00 00 00 00 ................
0040D630 00 00 00 00 00 00 00 00 00 00 00 00 00 00 00 00 ................
0040D640 00 00 00 00 00 00 00 00 00 00 00 00 00 00 00 00 ................
0040D650 00 00 00 00 00 00 00 00 00 00 00 00 00 00 00 00 ................
0040D660 00 00 00 00 00 00 00 00 00 00 00 00 00 00 00 00 ................
0040D670 00 00 00 00 00 00 00 00 00 00 00 00 00 00 00 00 ................
0040D680 00 00 00 00 00 00 00 00 00 00 00 00 00 00 00 00 ................
0040D690 00 00 00 00 00 00 00 00 00 00 00 00 00 00 00 00 ................
0040D6A0 00 00 00 00 00 00 00 00 00 00 00 00 00 00 00 00 ................
0040D6B0 00 00 00 00 00 00 00 00 00 00 00 00 00 00 00 00 ................
0040D6C0 00 00 00 00 00 00 00 00 00 00 00 00 00 00 00 00 ................
0040D6D0 00 00 00 00 00 00 00 00 00 00 00 00 00 00 00 00 ................
0040D6E0 00 00 00 00 00 00 00 00 00 00 00 00 00 00 00 00 ................
0040D6F0 00 00 00 00 00 00 00 00 00 00 00 00 00 00 00 00 ................
0040D700 00 00 00 00 00 00 00 00 00 00 00 00 00 00 00 00 ................
0040D710 00 00 00 00 00 00 00 00 00 00 00 00 00 00 00 00 ................
0040D720 00 00 00 00 00 00 00 00 00 00 00 00 00 00 00 00 ................
0040D730 00 00 00 00 00 00 00 00 00 00 00 00 00 00 00 00 ................
0040D740 00 00 00 00 00 00 00 00 00 00 00 00 00 00 00 00 ................
0040D750 00 00 00 00 00 00 00 00 00 00 00 00 00 00 00 00 ................
0040D760 00 00 00 00 00 00 00 00 00 00 00 00 00 00 00 00 ................
0040D770 00 00 00 00 00 00 00 00 00 00 00 00 00 00 00 00 ................
0040D780 00 00 00 00 00 00 00 00 00 00 00 00 00 00 00 00 ................
0040D790 00 00 00 00 00 00 00 00 00 00 00 00 00 00 00 00 ................
0040D7A0 00 00 00 00 00 00 00 00 00 00 00 00 00 00 00 00 ................
0040D7B0 00 00 00 00 00 00 00 00 00 00 00 00 00 00 00 00 ................
0040D7C0 00 00 00 00 00 00 00 00 00 00 00 00 00 00 00 00 ................
0040D7D0 00 00 00 00 00 00 00 00 00 00 00 00 00 00 00 00 ................
0040D7E0 00 00 00 00 00 00 00 00 00 00 00 00 00 00 00 00 ................
0040D7F0 00 00 00 00 00 00 00 00 00 00 00 00 00 00 00 00 ................
0040D800 00 00 00 00 00 00 00 00 00 00 00 00 00 00 00 00 ................
0040D810 00 00 00 00 00 00 00 00 00 00 00 00 00 00 00 00 ................
0040D820 00 00 00 00 00 00 00 00 00 00 00 00 00 00 00 00 ................
0040D830 00 00 00 00 00 00 00 00 00 00 00 00 00 00 00 00 ................
0040D840 00 00 00 00 00 00 00 00 00 00 00 00 00 00 00 00 ................
0040D850 00 00 00 00 00 00 00 00 00 00 00 00 00 00 00 00 ................
0040D860 00 00 00 00 00 00 00 00 00 00 00 00 00 00 00 00 ................
0040D870 00 00 00 00 00 00 00 00 00 00 00 00 00 00 00 00 ................
0040D880 00 00 00 00 00 00 00 00 00 00 00 00 00 00 00 00 ................
0040D890 00 00 00 00 00 00 00 00 00 00 00 00 00 00 00 00 ................
0040D8A0 00 00 00 00 00 00 00 00 00 00 00 00 00 00 00 00 ................
0040D8B0 00 00 00 00 00 00 00 00 00 00 00 00 00 00 00 00 ................
0040D8C0 00 00 00 00 00 00 00 00 00 00 00 00 00 00 00 00 ................
0040D8D0 00 00 00 00 00 00 00 00 00 00 00 00 00 00 00 00 ................
0040D8E0 00 00 00 00 00 00 00 00 00 00 00 00 00 00 00 00 ................
0040D8F0 00 00 00 00 00 00 00 00 00 00 00 00 00 00 00 00 ................
0040D900 00 00 00 00 00 00 00 00 00 00 00 00 00 00 00 00 ................
0040D910 00 00 00 00 00 00 00 00 00 00 00 00 00 00 00 00 ................
0040D920 00 00 00 00 00 00 00 00 00 00 00 00 00 00 00 00 ................
0040D930 00 00 00 00 00 00 00 00 00 00 00 00 00 00 00 00 ................
0040D940 00 00 00 00 00 00 00 00 00 00 00 00 00 00 00 00 ................
0040D950 00 00 00 00 00 00 00 00 00 00 00 00 00 00 00 00 ................
0040D960 00 00 00 00 00 00 00 00 00 00 00 00 00 00 00 00 ................
0040D970 00 00 00 00 00 00 00 00 00 00 00 00 00 00 00 00 ................
0040D980 00 00 00 00 00 00 00 00 00 00 00 00 00 00 00 00 ................
0040D990 00 00 00 00 00 00 00 00 00 00 00 00 00 00 00 00 ................
0040D9A0 00 00 00 00 00 00 00 00 00 00 00 00 00 00 00 00 ................
0040D9B0 00 00 00 00 00 00 00 00 00 00 00 00 00 00 00 00 ................
0040D9C0 00 00 00 00 00 00 00 00 00 00 00 00 00 00 00 00 ................
0040D9D0 00 00 00 00 00 00 00 00 00 00 00 00 00 00 00 00 ................
0040D9E0 00 00 00 00 00 00 00 00 00 00 00 00 00 00 00 00 ................
0040D9F0 00 00 00 00 00 00 00 00 00 00 00 00 00 00 00 00 ................
0040DA00 00 00 00 00 00 00 00 00 00 00 00 00 00 00 00 00 ................
0040DA10 00 00 00 00 00 00 00 00 00 00 00 00 00 00 00 00 ................
0040DA20 00 00 00 00 00 00 00 00 00 00 00 00 00 00 00 00 ................
0040DA30 00 00 00 00 00 00 00 00 00 00 00 00 00 00 00 00 ................
0040DA40 00 00 00 00 00 00 00 00 00 00 00 00 00 00 00 00 ................
0040DA50 00 00 00 00 00 00 00 00 00 00 00 00 00 00 00 00 ................
0040DA60 00 00 00 00 00 00 00 00 00 00 00 00 00 00 00 00 ................
0040DA70 00 00 00 00 00 00 00 00 00 00 00 00 00 00 00 00 ................
0040DA80 00 00 00 00 00 00 00 00 00 00 00 00 00 00 00 00 ................
0040DA90 00 00 00 00 00 00 00 00 00 00 00 00 00 00 00 00 ................
0040DAA0 00 00 00 00 00 00 00 00 00 00 00 00 00 00 00 00 ................
0040DAB0 00 00 00 00 00 00 00 00 00 00 00 00 00 00 00 00 ................
0040DAC0 00 00 00 00 00 00 00 00 00 00 00 00 00 00 00 00 ................
0040DAD0 00 00 00 00 00 00 00 00 00 00 00 00 00 00 00 00 ................
0040DAE0 00 00 00 00 00 00 00 00 00 00 00 00 00 00 00 00 ................
0040DAF0 00 00 00 00 00 00 00 00 00 00 00 00 00 00 00 00 ................
0040DB00 00 00 00 00 00 00 00 00 00 00 00 00 00 00 00 00 ................
0040DB10 00 00 00 00 00 00 00 00 00 00 00 00 00 00 00 00 ................
0040DB20 00 00 00 00 00 00 00 00 00 00 00 00 00 00 00 00 ................
0040DB30 00 00 00 00 00 00 00 00 00 00 00 00 00 00 00 00 ................
0040DB40 00 00 00 00 00 00 00 00 00 00 00 00 00 00 00 00 ................
0040DB50 00 00 00 00 00 00 00 00 00 00 00 00 00 00 00 00 ................
0040DB60 00 00 00 00 00 00 00 00 00 00 00 00 00 00 00 00 ................
0040DB70 00 00 00 00 00 00 00 00 00 00 00 00 00 00 00 00 ................
0040DB80 00 00 00 00 00 00 00 00 00 00 00 00 00 00 00 00 ................
0040DB90 00 00 00 00 00 00 00 00 00 00 00 00 00 00 00 00 ................
0040DBA0 00 00 00 00 00 00 00 00 00 00 00 00 00 00 00 00 ................
0040DBB0 00 00 00 00 00 00 00 00 00 00 00 00 00 00 00 00 ................
0040DBC0 00 00 00 00 00 00 00 00 00 00 00 00 00 00 00 00 ................
0040DBD0 00 00 00 00 00 00 00 00 00 00 00 00 00 00 00 00 ................
0040DBE0 00 00 00 00 00 00 00 00 00 00 00 00 00 00 00 00 ................
0040DBF0 00 00 00 00 00 00 00 00 00 00 00 00 00 00 00 00 ................
0040DC00 00 00 00 00 00 00 00 00 00 00 00 00 00 00 00 00 ................
0040DC10 00 00 00 00 00 00 00 00 00 00 00 00 00 00 00 00 ................
0040DC20 00 00 00 00 00 00 00 00 00 00 00 00 00 00 00 00 ................
0040DC30 00 00 00 00 00 00 00 00 00 00 00 00 00 00 00 00 ................
0040DC40 00 00 00 00 00 00 00 00 00 00 00 00 00 00 00 00 ................
0040DC50 00 00 00 00 00 00 00 00 00 00 00 00 00 00 00 00 ................
0040DC60 00 00 00 00 00 00 00 00 00 00 00 00 00 00 00 00 ................
0040DC70 00 00 00 00 00 00 00 00 00 00 00 00 00 00 00 00 ................
0040DC80 00 00 00 00 00 00 00 00 00 00 00 00 00 00 00 00 ................
0040DC90 00 00 00 00 00 00 00 00 00 00 00 00 00 00 00 00 ................
0040DCA0 00 00 00 00 00 00 00 00 00 00 00 00 00 00 00 00 ................
0040DCB0 00 00 00 00 00 00 00 00 00 00 00 00 00 00 00 00 ................
0040DCC0 00 00 00 00 00 00 00 00 00 00 00 00 00 00 00 00 ................
0040DCD0 00 00 00 00 00 00 00 00 00 00 00 00 00 00 00 00 ................
0040DCE0 00 00 00 00 00 00 00 00 00 00 00 00 00 00 00 00 ................
0040DCF0 00 00 00 00 00 00 00 00 00 00 00 00 00 00 00 00 ................
0040DD00 00 00 00 00 00 00 00 00 00 00 00 00 00 00 00 00 ................
0040DD10 00 00 00 00 00 00 00 00 00 00 00 00 00 00 00 00 ................
0040DD20 00 00 00 00 00 00 00 00 00 00 00 00 00 00 00 00 ................
0040DD30 00 00 00 00 00 00 00 00 00 00 00 00 00 00 00 00 ................
0040DD40 00 00 00 00 00 00 00 00 00 00 00 00 00 00 00 00 ................
0040DD50 00 00 00 00 00 00 00 00 00 00 00 00 00 00 00 00 ................
0040DD60 00 00 00 00 00 00 00 00 00 00 00 00 00 00 00 00 ................
0040DD70 00 00 00 00 00 00 00 00 00 00 00 00 00 00 00 00 ................
0040DD80 00 00 00 00 00 00 00 00 00 00 00 00 00 00 00 00 ................
0040DD90 00 00 00 00 00 00 00 00 00 00 00 00 00 00 00 00 ................
0040DDA0 00 00 00 00 00 00 00 00 00 00 00 00 00 00 00 00 ................
0040DDB0 00 00 00 00 00 00 00 00 00 00 00 00 00 00 00 00 ................
0040DDC0 00 00 00 00 00 00 00 00 00 00 00 00 00 00 00 00 ................
0040DDD0 00 00 00 00 00 00 00 00 00 00 00 00 00 00 00 00 ................
0040DDE0 00 00 00 00 00 00 00 00 00 00 00 00 00 00 00 00 ................
0040DDF0 00 00 00 00 00 00 00 00 00 00 00 00 00 00 00 00 ................
0040DE00 00 00 00 00 00 00 00 00 00 00 00 00 00 00 00 00 ................
0040DE10 00 00 00 00 00 00 00 00 00 00 00 00 00 00 00 00 ................
0040DE20 00 00 00 00 00 00 00 00 00 00 00 00 00 00 00 00 ................
0040DE30 00 00 00 00 00 00 00 00 00 00 00 00 00 00 00 00 ................
0040DE40 00 00 00 00 00 00 00 00 00 00 00 00 00 00 00 00 ................
0040DE50 00 00 00 00 00 00 00 00 00 00 00 00 00 00 00 00 ................
0040DE60 00 00 00 00 00 00 00 00 00 00 00 00 00 00 00 00 ................
0040DE70 00 00 00 00 00 00 00 00 00 00 00 00 00 00 00 00 ................
0040DE80 00 00 00 00 00 00 00 00 00 00 00 00 00 00 00 00 ................
0040DE90 00 00 00 00 00 00 00 00 00 00 00 00 00 00 00 00 ................
0040DEA0 00 00 00 00 00 00 00 00 00 00 00 00 00 00 00 00 ................
0040DEB0 00 00 00 00 00 00 00 00 00 00 00 00 00 00 00 00 ................
0040DEC0 00 00 00 00 00 00 00 00 00 00 00 00 00 00 00 00 ................
0040DED0 00 00 00 00 00 00 00 00 00 00 00 00 00 00 00 00 ................
0040DEE0 00 00 00 00 00 00 00 00 00 00 00 00 00 00 00 00 ................
0040DEF0 00 00 00 00 00 00 00 00 00 00 00 00 00 00 00 00 ................
0040DF00 00 00 00 00 00 00 00 00 00 00 00 00 00 00 00 00 ................
0040DF10 00 00 00 00 00 00 00 00 00 00 00 00 00 00 00 00 ................
0040DF20 00 00 00 00 00 00 00 00 00 00 00 00 00 00 00 00 ................
0040DF30 00 00 00 00 00 00 00 00 00 00 00 00 00 00 00 00 ................
0040DF40 00 00 00 00 00 00 00 00 00 00 00 00 00 00 00 00 ................
0040DF50 00 00 00 00 00 00 00 00 00 00 00 00 00 00 00 00 ................
0040DF60 00 00 00 00 00 00 00 00 00 00 00 00 00 00 00 00 ................
0040DF70 00 00 00 00 00 00 00 00 00 00 00 00 00 00 00 00 ................
0040DF80 00 00 00 00 00 00 00 00 00 00 00 00 00 00 00 00 ................
0040DF90 00 00 00 00 00 00 00 00 00 00 00 00 00 00 00 00 ................
0040DFA0 00 00 00 00 00 00 00 00 00 00 00 00 00 00 00 00 ................
0040DFB0 00 00 00 00 00 00 00 00 00 00 00 00 00 00 00 00 ................
0040DFC0 00 00 00 00 00 00 00 00 00 00 00 00 00 00 00 00 ................
0040DFD0 00 00 00 00 00 00 00 00 00 00 00 00 00 00 00 00 ................
0040DFE0 00 00 00 00 00 00 00 00 00 00 00 00 00 00 00 00 ................
0040DFF0 00 00 00 00 00 00 00 00 00 00 00 00 00 00 00 00 ................
0040E000 00 00 00 00 00 00 00 00 00 00 00 00 00 00 00 00 ................
0040E010 00 00 00 00 00 00 00 00 00 00 00 00 00 00 00 00 ................
0040E020 00 00 00 00 00 00 00 00 00 00 00 00 00 00 00 00 ................
0040E030 00 00 00 00 00 00 00 00 00 00 00 00 00 00 00 00 ................
0040E040 00 00 00 00 00 00 00 00 00 00 00 00 00 00 00 00 ................
0040E050 00 00 00 00 00 00 00 00 00 00 00 00 00 00 00 00 ................
0040E060 00 00 00 00 00 00 00 00 00 00 00 00 00 00 00 00 ................
0040E070 00 00 00 00 00 00 00 00 00 00 00 00 00 00 00 00 ................
0040E080 00 00 00 00 00 00 00 00 00 00 00 00 00 00 00 00 ................
0040E090 00 00 00 00 00 00 00 00 00 00 00 00 00 00 00 00 ................
0040E0A0 00 00 00 00 00 00 00 00 00 00 00 00 00 00 00 00 ................
0040E0B0 00 00 00 00 00 00 00 00 00 00 00 00 00 00 00 00 ................
0040E0C0 00 00 00 00 00 00 00 00 00 00 00 00 00 00 00 00 ................
0040E0D0 00 00 00 00 00 00 00 00 00 00 00 00 00 00 00 00 ................
0040E0E0 00 00 00 00 00 00 00 00 00 00 00 00 00 00 00 00 ................
0040E0F0 00 00 00 00 00 00 00 00 00 00 00 00 00 00 00 00 ................
0040E100 00 00 00 00 00 00 00 00 00 00 00 00 00 00 00 00 ................
0040E110 00 00 00 00 00 00 00 00 00 00 00 00 00 00 00 00 ................
0040E120 00 00 00 00 00 00 00 00 00 00 00 00 00 00 00 00 ................
0040E130 00 00 00 00 00 00 00 00 00 00 00 00 00 00 00 00 ................
0040E140 00 00 00 00 00 00 00 00 00 00 00 00 00 00 00 00 ................
0040E150 00 00 00 00 00 00 00 00 00 00 00 00 00 00 00 00 ................
0040E160 00 00 00 00 00 00 00 00 00 00 00 00 00 00 00 00 ................
0040E170 00 00 00 00 00 00 00 00 00 00 00 00 00 00 00 00 ................
0040E180 00 00 00 00 00 00 00 00 00 00 00 00 00 00 00 00 ................
0040E190 00 00 00 00 00 00 00 00 00 00 00 00 00 00 00 00 ................
0040E1A0 00 00 00 00 00 00 00 00 00 00 00 00 00 00 00 00 ................
0040E1B0 00 00 00 00 00 00 00 00 00 00 00 00 00 00 00 00 ................
0040E1C0 00 00 00 00 00 00 00 00 00 00 00 00 00 00 00 00 ................
0040E1D0 00 00 00 00 00 00 00 00 00 00 00 00 00 00 00 00 ................
0040E1E0 00 00 00 00 00 00 00 00 00 00 00 00 00 00 00 00 ................
0040E1F0 00 00 00 00 00 00 00 00 00 00 00 00 00 00 00 00 ................
0040E200 00 00 00 00 00 00 00 00 00 00 00 00 00 00 00 00 ................
0040E210 00 00 00 00 00 00 00 00 00 00 00 00 00 00 00 00 ................
0040E220 00 00 00 00 00 00 00 00 00 00 00 00 00 00 00 00 ................
0040E230 00 00 00 00 00 00 00 00 00 00 00 00 00 00 00 00 ................
0040E240 00 00 00 00 00 00 00 00 00 00 00 00 00 00 00 00 ................
0040E250 00 00 00 00 00 00 00 00 00 00 00 00 00 00 00 00 ................
0040E260 00 00 00 00 00 00 00 00 00 00 00 00 00 00 00 00 ................
0040E270 00 00 00 00 00 00 00 00 00 00 00 00 00 00 00 00 ................
0040E280 00 00 00 00 00 00 00 00 00 00 00 00 00 00 00 00 ................
0040E290 00 00 00 00 00 00 00 00 00 00 00 00 00 00 00 00 ................
0040E2A0 00 00 00 00 00 00 00 00 00 00 00 00 00 00 00 00 ................
0040E2B0 00 00 00 00 00 00 00 00 00 00 00 00 00 00 00 00 ................
0040E2C0 00 00 00 00 00 00 00 00 00 00 00 00 00 00 00 00 ................
0040E2D0 00 00 00 00 00 00 00 00 00 00 00 00 00 00 00 00 ................
0040E2E0 00 00 00 00 00 00 00 00 00 00 00 00 00 00 00 00 ................
0040E2F0 00 00 00 00 00 00 00 00 00 00 00 00 00 00 00 00 ................
0040E300 00 00 00 00 00 00 00 00 00 00 00 00 00 00 00 00 ................
0040E310 00 00 00 00 00 00 00 00 00 00 00 00 00 00 00 00 ................
0040E320 00 00 00 00 00 00 00 00 00 00 00 00 00 00 00 00 ................
0040E330 00 00 00 00 00 00 00 00 00 00 00 00 00 00 00 00 ................
0040E340 00 00 00 00 00 00 00 00 00 00 00 00 00 00 00 00 ................
0040E350 00 00 00 00 00 00 00 00 00 00 00 00 00 00 00 00 ................
0040E360 00 00 00 00 00 00 00 00 00 00 00 00 00 00 00 00 ................
0040E370 00 00 00 00 00 00 00 00 00 00 00 00 00 00 00 00 ................
0040E380 00 00 00 00 00 00 00 00 00 00 00 00 00 00 00 00 ................
0040E390 00 00 00 00 00 00 00 00 00 00 00 00 00 00 00 00 ................
0040E3A0 00 00 00 00 00 00 00 00 00 00 00 00 00 00 00 00 ................
0040E3B0 00 00 00 00 00 00 00 00 00 00 00 00 00 00 00 00 ................
0040E3C0 00 00 00 00 00 00 00 00 00 00 00 00 00 00 00 00 ................
0040E3D0 00 00 00 00 00 00 00 00 00 00 00 00 00 00 00 00 ................
0040E3E0 00 00 00 00 00 00 00 00 00 00 00 00 00 00 00 00 ................
0040E3F0 00 00 00 00 00 00 00 00 00 00 00 00 00 00 00 00 ................
0040E400 00 00 00 00 00 00 00 00 00 00 00 00 00 00 00 00 ................
0040E410 00 00 00 00 00 00 00 00 00 00 00 00 00 00 00 00 ................
0040E420 00 00 00 00 00 00 00 00 00 00 00 00 00 00 00 00 ................
0040E430 00 00 00 00 00 00 00 00 00 00 00 00 00 00 00 00 ................
0040E440 00 00 00 00 00 00 00 00 00 00 00 00 00 00 00 00 ................
0040E450 00 00 00 00 00 00 00 00 00 00 00 00 00 00 00 00 ................
0040E460 00 00 00 00 00 00 00 00 00 00 00 00 00 00 00 00 ................
0040E470 00 00 00 00 00 00 00 00 00 00 00 00 00 00 00 00 ................
0040E480 00 00 00 00 00 00 00 00 00 00 00 00 00 00 00 00 ................
0040E490 00 00 00 00 00 00 00 00 00 00 00 00 00 00 00 00 ................
0040E4A0 00 00 00 00 00 00 00 00 00 00 00 00 00 00 00 00 ................
0040E4B0 00 00 00 00 00 00 00 00 00 00 00 00 00 00 00 00 ................
0040E4C0 00 00 00 00 00 00 00 00 00 00 00 00 00 00 00 00 ................
0040E4D0 00 00 00 00 00 00 00 00 00 00 00 00 00 00 00 00 ................
0040E4E0 00 00 00 00 00 00 00 00 00 00 00 00 00 00 00 00 ................
0040E4F0 00 00 00 00 00 00 00 00 00 00 00 00 00 00 00 00 ................
0040E500 00 00 00 00 00 00 00 00 00 00 00 00 00 00 00 00 ................
0040E510 00 00 00 00 00 00 00 00 00 00 00 00 00 00 00 00 ................
0040E520 00 00 00 00 00 00 00 00 00 00 00 00 00 00 00 00 ................
0040E530 00 00 00 00 00 00 00 00 00 00 00 00 00 00 00 00 ................
0040E540 00 00 00 00 00 00 00 00 00 00 00 00 00 00 00 00 ................
0040E550 00 00 00 00 00 00 00 00 00 00 00 00 00 00 00 00 ................
0040E560 00 00 00 00 00 00 00 00 00 00 00 00 00 00 00 00 ................
0040E570 00 00 00 00 00 00 00 00 00 00 00 00 00 00 00 00 ................
0040E580 00 00 00 00 00 00 00 00 00 00 00 00 00 00 00 00 ................
0040E590 00 00 00 00 00 00 00 00 00 00 00 00 00 00 00 00 ................
0040E5A0 00 00 00 00 00 00 00 00 00 00 00 00 00 00 00 00 ................
0040E5B0 00 00 00 00 00 00 00 00 00 00 00 00 00 00 00 00 ................
0040E5C0 00 00 00 00 00 00 00 00 00 00 00 00 00 00 00 00 ................
0040E5D0 00 00 00 00 00 00 00 00 00 00 00 00 00 00 00 00 ................
0040E5E0 00 00 00 00 00 00 00 00 00 00 00 00 00 00 00 00 ................
0040E5F0 00 00 00 00 00 00 00 00 00 00 00 00 00 00 00 00 ................
0040E600 00 00 00 00 00 00 00 00 00 00 00 00 00 00 00 00 ................
0040E610 00 00 00 00 00 00 00 00 00 00 00 00 00 00 00 00 ................
0040E620 00 00 00 00 00 00 00 00 00 00 00 00 00 00 00 00 ................
0040E630 00 00 00 00 00 00 00 00 00 00 00 00 00 00 00 00 ................
0040E640 00 00 00 00 00 00 00 00 00 00 00 00 00 00 00 00 ................
0040E650 00 00 00 00 00 00 00 00 00 00 00 00 00 00 00 00 ................
0040E660 00 00 00 00 00 00 00 00 00 00 00 00 00 00 00 00 ................
0040E670 00 00 00 00 00 00 00 00 00 00 00 00 00 00 00 00 ................
0040E680 00 00 00 00 00 00 00 00 00 00 00 00 00 00 00 00 ................
0040E690 00 00 00 00 00 00 00 00 00 00 00 00 00 00 00 00 ................
0040E6A0 00 00 00 00 00 00 00 00 00 00 00 00 00 00 00 00 ................
0040E6B0 00 00 00 00 00 00 00 00 00 00 00 00 00 00 00 00 ................
0040E6C0 00 00 00 00 00 00 00 00 00 00 00 00 00 00 00 00 ................
0040E6D0 00 00 00 00 00 00 00 00 00 00 00 00 00 00 00 00 ................
0040E6E0 00 00 00 00 00 00 00 00 00 00 00 00 00 00 00 00 ................
0040E6F0 00 00 00 00 00 00 00 00 00 00 00 00 00 00 00 00 ................
0040E700 00 00 00 00 00 00 00 00 00 00 00 00 00 00 00 00 ................
0040E710 00 00 00 00 00 00 00 00 00 00 00 00 00 00 00 00 ................
0040E720 00 00 00 00 00 00 00 00 00 00 00 00 00 00 00 00 ................
0040E730 00 00 00 00 00 00 00 00 00 00 00 00 00 00 00 00 ................
0040E740 00 00 00 00 00 00 00 00 00 00 00 00 00 00 00 00 ................
0040E750 00 00 00 00 00 00 00 00 00 00 00 00 00 00 00 00 ................
0040E760 00 00 00 00 00 00 00 00 00 00 00 00 00 00 00 00 ................
0040E770 00 00 00 00 00 00 00 00 00 00 00 00 00 00 00 00 ................
0040E780 00 00 00 00 00 00 00 00 00 00 00 00 00 00 00 00 ................
0040E790 00 00 00 00 00 00 00 00 00 00 00 00 00 00 00 00 ................
0040E7A0 00 00 00 00 00 00 00 00 00 00 00 00 00 00 00 00 ................
0040E7B0 00 00 00 00 00 00 00 00 00 00 00 00 00 00 00 00 ................
0040E7C0 00 00 00 00 00 00 00 00 00 00 00 00 00 00 00 00 ................
0040E7D0 00 00 00 00 00 00 00 00 00 00 00 00 00 00 00 00 ................
0040E7E0 00 00 00 00 00 00 00 00 00 00 00 00 00 00 00 00 ................
0040E7F0 00 00 00 00 00 00 00 00 00 00 00 00 00 00 00 00 ................
0040E800 00 00 00 00 00 00 00 00 00 00 00 00 00 00 00 00 ................
0040E810 00 00 00 00 00 00 00 00 00 00 00 00 00 00 00 00 ................
0040E820 00 00 00 00 00 00 00 00 00 00 00 00 00 00 00 00 ................
0040E830 00 00 00 00 00 00 00 00 00 00 00 00 00 00 00 00 ................
0040E840 00 00 00 00 00 00 00 00 00 00 00 00 00 00 00 00 ................
0040E850 00 00 00 00 00 00 00 00 00 00 00 00 00 00 00 00 ................
0040E860 00 00 00 00 00 00 00 00 00 00 00 00 00 00 00 00 ................
0040E870 00 00 00 00 00 00 00 00 00 00 00 00 00 00 00 00 ................
0040E880 00 00 00 00 00 00 00 00 00 00 00 00 00 00 00 00 ................
0040E890 00 00 00 00 00 00 00 00 00 00 00 00 00 00 00 00 ................
0040E8A0 00 00 00 00 00 00 00 00 00 00 00 00 00 00 00 00 ................
0040E8B0 00 00 00 00 00 00 00 00 00 00 00 00 00 00 00 00 ................
0040E8C0 00 00 00 00 00 00 00 00 00 00 00 00 00 00 00 00 ................
0040E8D0 00 00 00 00 00 00 00 00 00 00 00 00 00 00 00 00 ................
0040E8E0 00 00 00 00 00 00 00 00 00 00 00 00 00 00 00 00 ................
0040E8F0 00 00 00 00 00 00 00 00 00 00 00 00 00 00 00 00 ................
0040E900 00 00 00 00 00 00 00 00 00 00 00 00 00 00 00 00 ................
0040E910 00 00 00 00 00 00 00 00 00 00 00 00 00 00 00 00 ................
0040E920 00 00 00 00 00 00 00 00 00 00 00 00 00 00 00 00 ................
0040E930 00 00 00 00 00 00 00 00 00 00 00 00 00 00 00 00 ................
0040E940 00 00 00 00 00 00 00 00 00 00 00 00 00 00 00 00 ................
0040E950 00 00 00 00 00 00 00 00 00 00 00 00 00 00 00 00 ................
0040E960 00 00 00 00 00 00 00 00 00 00 00 00 00 00 00 00 ................
0040E970 00 00 00 00 00 00 00 00 00 00 00 00 00 00 00 00 ................
0040E980 00 00 00 00 00 00 00 00 00 00 00 00 00 00 00 00 ................
0040E990 00 00 00 00 00 00 00 00 00 00 00 00 00 00 00 00 ................
0040E9A0 00 00 00 00 00 00 00 00 00 00 00 00 00 00 00 00 ................
0040E9B0 00 00 00 00 00 00 00 00 00 00 00 00 00 00 00 00 ................
0040E9C0 00 00 00 00 00 00 00 00 00 00 00 00 00 00 00 00 ................
0040E9D0 00 00 00 00 00 00 00 00 00 00 00 00 00 00 00 00 ................
0040E9E0 00 00 00 00 00 00 00 00 00 00 00 00 00 00 00 00 ................
0040E9F0 00 00 00 00 00 00 00 00 00 00 00 00 00 00 00 00 ................
0040EA00 00 00 00 00 00 00 00 00 00 00 00 00 00 00 00 00 ................
0040EA10 00 00 00 00 00 00 00 00 00 00 00 00 00 00 00 00 ................
0040EA20 00 00 00 00 00 00 00 00 00 00 00 00 00 00 00 00 ................
0040EA30 00 00 00 00 00 00 00 00 00 00 00 00 00 00 00 00 ................
0040EA40 00 00 00 00 00 00 00 00 00 00 00 00 00 00 00 00 ................
0040EA50 00 00 00 00 00 00 00 00 00 00 00 00 00 00 00 00 ................
0040EA60 00 00 00 00 00 00 00 00 00 00 00 00 00 00 00 00 ................
0040EA70 00 00 00 00 00 00 00 00 00 00 00 00 00 00 00 00 ................
0040EA80 00 00 00 00 00 00 00 00 00 00 00 00 00 00 00 00 ................
0040EA90 00 00 00 00 00 00 00 00 00 00 00 00 00 00 00 00 ................
0040EAA0 00 00 00 00 00 00 00 00 00 00 00 00 00 00 00 00 ................
0040EAB0 00 00 00 00 00 00 00 00 00 00 00 00 00 00 00 00 ................
0040EAC0 00 00 00 00 00 00 00 00 00 00 00 00 00 00 00 00 ................
0040EAD0 00 00 00 00 00 00 00 00 00 00 00 00 00 00 00 00 ................
0040EAE0 00 00 00 00 00 00 00 00 00 00 00 00 00 00 00 00 ................
0040EAF0 00 00 00 00 00 00 00 00 00 00 00 00 00 00 00 00 ................
0040EB00 00 00 00 00 00 00 00 00 00 00 00 00 00 00 00 00 ................
0040EB10 00 00 00 00 00 00 00 00 00 00 00 00 00 00 00 00 ................
0040EB20 00 00 00 00 00 00 00 00 00 00 00 00 00 00 00 00 ................
0040EB30 00 00 00 00 00 00 00 00 00 00 00 00 00 00 00 00 ................
0040EB40 00 00 00 00 00 00 00 00 00 00 00 00 00 00 00 00 ................
0040EB50 00 00 00 00 00 00 00 00 00 00 00 00 00 00 00 00 ................
0040EB60 00 00 00 00 00 00 00 00 00 00 00 00 00 00 00 00 ................
0040EB70 00 00 00 00 00 00 00 00 00 00 00 00 00 00 00 00 ................
0040EB80 00 00 00 00 00 00 00 00 00 00 00 00 00 00 00 00 ................
0040EB90 00 00 00 00 00 00 00 00 00 00 00 00 00 00 00 00 ................
0040EBA0 00 00 00 00 00 00 00 00 00 00 00 00 00 00 00 00 ................
0040EBB0 00 00 00 00 00 00 00 00 00 00 00 00 00 00 00 00 ................
0040EBC0 00 00 00 00 00 00 00 00 00 00 00 00 00 00 00 00 ................
0040EBD0 00 00 00 00 00 00 00 00 00 00 00 00 00 00 00 00 ................
0040EBE0 00 00 00 00 00 00 00 00 00 00 00 00 00 00 00 00 ................
0040EBF0 00 00 00 00 00 00 00 00 00 00 00 00 00 00 00 00 ................
0040EC00 00 00 00 00 00 00 00 00 00 00 00 00 00 00 00 00 ................
0040EC10 00 00 00 00 00 00 00 00 00 00 00 00 00 00 00 00 ................
0040EC20 00 00 00 00 00 00 00 00 00 00 00 00 00 00 00 00 ................
0040EC30 00 00 00 00 00 00 00 00 00 00 00 00 00 00 00 00 ................
0040EC40 00 00 00 00 00 00 00 00 00 00 00 00 00 00 00 00 ................
0040EC50 00 00 00 00 00 00 00 00 00 00 00 00 00 00 00 00 ................
0040EC60 00 00 00 00 00 00 00 00 00 00 00 00 00 00 00 00 ................
0040EC70 00 00 00 00 00 00 00 00 00 00 00 00 00 00 00 00 ................
0040EC80 00 00 00 00 00 00 00 00 00 00 00 00 00 00 00 00 ................
0040EC90 00 00 00 00 00 00 00 00 00 00 00 00 00 00 00 00 ................
0040ECA0 00 00 00 00 00 00 00 00 00 00 00 00 00 00 00 00 ................
0040ECB0 00 00 00 00 00 00 00 00 00 00 00 00 00 00 00 00 ................
0040ECC0 00 00 00 00 00 00 00 00 00 00 00 00 00 00 00 00 ................
0040ECD0 00 00 00 00 00 00 00 00 00 00 00 00 00 00 00 00 ................
0040ECE0 00 00 00 00 00 00 00 00 00 00 00 00 00 00 00 00 ................
0040ECF0 00 00 00 00 00 00 00 00 00 00 00 00 00 00 00 00 ................
0040ED00 00 00 00 00 00 00 00 00 00 00 00 00 00 00 00 00 ................
0040ED10 00 00 00 00 00 00 00 00 00 00 00 00 00 00 00 00 ................
0040ED20 00 00 00 00 00 00 00 00 00 00 00 00 00 00 00 00 ................
0040ED30 00 00 00 00 00 00 00 00 00 00 00 00 00 00 00 00 ................
0040ED40 00 00 00 00 00 00 00 00 00 00 00 00 00 00 00 00 ................
0040ED50 00 00 00 00 00 00 00 00 00 00 00 00 00 00 00 00 ................
0040ED60 00 00 00 00 00 00 00 00 00 00 00 00 00 00 00 00 ................
0040ED70 00 00 00 00 00 00 00 00 00 00 00 00 00 00 00 00 ................
0040ED80 00 00 00 00 00 00 00 00 00 00 00 00 00 00 00 00 ................
0040ED90 00 00 00 00 00 00 00 00 00 00 00 00 00 00 00 00 ................
0040EDA0 00 00 00 00 00 00 00 00 00 00 00 00 00 00 00 00 ................
0040EDB0 00 00 00 00 00 00 00 00 00 00 00 00 00 00 00 00 ................
0040EDC0 00 00 00 00 00 00 00 00 00 00 00 00 00 00 00 00 ................
0040EDD0 00 00 00 00 00 00 00 00 00 00 00 00 00 00 00 00 ................
0040EDE0 00 00 00 00 00 00 00 00 00 00 00 00 00 00 00 00 ................
0040EDF0 00 00 00 00 00 00 00 00 00 00 00 00 00 00 00 00 ................
0040EE00 00 00 00 00 00 00 00 00 00 00 00 00 00 00 00 00 ................
0040EE10 00 00 00 00 00 00 00 00 00 00 00 00 00 00 00 00 ................
0040EE20 00 00 00 00 00 00 00 00 00 00 00 00 00 00 00 00 ................
0040EE30 00 00 00 00 00 00 00 00 00 00 00 00 00 00 00 00 ................
0040EE40 00 00 00 00 00 00 00 00 00 00 00 00 00 00 00 00 ................
0040EE50 00 00 00 00 00 00 00 00 00 00 00 00 00 00 00 00 ................
0040EE60 00 00 00 00 00 00 00 00 00 00 00 00 00 00 00 00 ................
0040EE70 00 00 00 00 00 00 00 00 00 00 00 00 00 00 00 00 ................
0040EE80 00 00 00 00 00 00 00 00 00 00 00 00 00 00 00 00 ................
0040EE90 00 00 00 00 00 00 00 00 00 00 00 00 00 00 00 00 ................
0040EEA0 00 00 00 00 00 00 00 00 00 00 00 00 00 00 00 00 ................
0040EEB0 00 00 00 00 00 00 00 00 00 00 00 00 00 00 00 00 ................
0040EEC0 00 00 00 00 00 00 00 00 00 00 00 00 00 00 00 00 ................
0040EED0 00 00 00 00 00 00 00 00 00 00 00 00 00 00 00 00 ................
0040EEE0 00 00 00 00 00 00 00 00 00 00 00 00 00 00 00 00 ................
0040EEF0 00 00 00 00 00 00 00 00 00 00 00 00 00 00 00 00 ................
0040EF00 00 00 00 00 00 00 00 00 00 00 00 00 00 00 00 00 ................
0040EF10 00 00 00 00 00 00 00 00 00 00 00 00 00 00 00 00 ................
0040EF20 00 00 00 00 00 00 00 00 00 00 00 00 00 00 00 00 ................
0040EF30 00 00 00 00 00 00 00 00 00 00 00 00 00 00 00 00 ................
0040EF40 00 00 00 00 00 00 00 00 00 00 00 00 00 00 00 00 ................
0040EF50 00 00 00 00 00 00 00 00 00 00 00 00 00 00 00 00 ................
0040EF60 00 00 00 00 00 00 00 00 00 00 00 00 00 00 00 00 ................
0040EF70 00 00 00 00 00 00 00 00 00 00 00 00 00 00 00 00 ................
0040EF80 00 00 00 00 00 00 00 00 00 00 00 00 00 00 00 00 ................
0040EF90 00 00 00 00 00 00 00 00 00 00 00 00 00 00 00 00 ................
0040EFA0 00 00 00 00 00 00 00 00 00 00 00 00 00 00 00 00 ................
0040EFB0 00 00 00 00 00 00 00 00 00 00 00 00 00 00 00 00 ................
0040EFC0 00 00 00 00 00 00 00 00 00 00 00 00 00 00 00 00 ................
0040EFD0 00 00 00 00 00 00 00 00 00 00 00 00 00 00 00 00 ................
0040EFE0 00 00 00 00 00 00 00 00 00 00 00 00 00 00 00 00 ................
0040EFF0 00 00 00 00 00 00 00 00 00 00 00 00 00 00 00 00 ................
0040F000 10 F2 00 00 1E F2 00 00 2C F2 00 00 38 F2 00 00 ........,...8...
0040F010 48 F2 00 00 5E F2 00 00 6E F2 00 00 80 F2 00 00 H...^...n.......
0040F020 9A F2 00 00 A8 F2 00 00 B8 F2 00 00 C8 F2 00 00 ................
0040F030 DA F2 00 00 E6 F2 00 00 F4 F2 00 00 06 F3 00 00 ................
0040F040 18 F3 00 00 26 F3 00 00 38 F3 00 00 48 F3 00 00 ....&...8...H...
0040F050 66 F3 00 00 76 F3 00 00 8C F3 00 00 A2 F3 00 00 f...v...........
0040F060 B2 F3 00 00 C6 F3 00 00 DE F3 00 00 00 00 00 00 ................
0040F070 02 F4 00 00 0A F4 00 00 18 F4 00 00 24 F4 00 00 ............$...
0040F080 2E F4 00 00 40 F4 00 00 4C F4 00 00 5A F4 00 00 ....@...L...Z...
0040F090 66 F4 00 00 74 F4 00 00 86 F4 00 00 92 F4 00 00 f...t...........
0040F0A0 A4 F4 00 00 AE F4 00 00 BA F4 00 00 C6 F4 00 00 ................
0040F0B0 D6 F4 00 00 E2 F4 00 00 EC F4 00 00 FC F4 00 00 ................
0040F0C0 0E F5 00 00 1C F5 00 00 2E F5 00 00 40 F5 00 00 ............@...
0040F0D0 4C F5 00 00 5E F5 00 00 6C F5 00 00 7C F5 00 00 L...^...l...|...
0040F0E0 8C F5 00 00 00 00 00 00 00 00 00 00 28 F1 00 00 ............(...
0040F0F0 00 00 00 00 00 00 00 00 F4 F3 00 00 00 F0 00 00 ................
0040F100 98 F1 00 00 00 00 00 00 00 00 00 00 9C F5 00 00 ................
0040F110 70 F0 00 00 00 00 00 00 00 00 00 00 00 00 00 00 p...............
0040F120 00 00 00 00 00 00 00 00 10 F2 00 00 1E F2 00 00 ................
0040F130 2C F2 00 00 38 F2 00 00 48 F2 00 00 5E F2 00 00 ,...8...H...^...
0040F140 6E F2 00 00 80 F2 00 00 9A F2 00 00 A8 F2 00 00 n...............
0040F150 B8 F2 00 00 C8 F2 00 00 DA F2 00 00 E6 F2 00 00 ................
0040F160 F4 F2 00 00 06 F3 00 00 18 F3 00 00 26 F3 00 00 ............&...
0040F170 38 F3 00 00 48 F3 00 00 66 F3 00 00 76 F3 00 00 8...H...f...v...
0040F180 8C F3 00 00 A2 F3 00 00 B2 F3 00 00 C6 F3 00 00 ................
0040F190 DE F3 00 00 00 00 00 00 02 F4 00 00 0A F4 00 00 ................
0040F1A0 18 F4 00 00 24 F4 00 00 2E F4 00 00 40 F4 00 00 ....$.......@...
0040F1B0 4C F4 00 00 5A F4 00 00 66 F4 00 00 74 F4 00 00 L...Z...f...t...
0040F1C0 86 F4 00 00 92 F4 00 00 A4 F4 00 00 AE F4 00 00 ................
0040F1D0 BA F4 00 00 C6 F4 00 00 D6 F4 00 00 E2 F4 00 00 ................
0040F1E0 EC F4 00 00 FC F4 00 00 0E F5 00 00 1C F5 00 00 ................
0040F1F0 2E F5 00 00 40 F5 00 00 4C F5 00 00 5E F5 00 00 ....@...L...^...
0040F200 6C F5 00 00 7C F5 00 00 8C F5 00 00 00 00 00 00 l...|...........
0040F210 2C 00 56 69 72 74 75 61 6C 46 72 65 65 00 30 00 ,.VirtualFree.0.
0040F220 48 65 61 70 52 65 41 6C 6C 6F 63 00 34 00 6C 73 HeapReAlloc.4.ls
0040F230 74 72 6C 65 6E 57 00 00 3A 00 56 69 72 74 75 61 trlenW..:.Virtua
0040F240 6C 41 6C 6C 6F 63 00 00 3E 00 57 69 64 65 43 68 lAlloc..>.WideCh
0040F250 61 72 54 6F 4D 75 6C 74 69 42 79 74 65 00 41 00 arToMultiByte.A.
0040F260 47 65 74 56 65 72 73 69 6F 6E 45 78 41 00 45 00 GetVersionExA.E.
0040F270 47 65 74 50 72 6F 63 65 73 73 48 65 61 70 00 00 GetProcessHeap..
0040F280 49 00 47 65 74 53 79 73 74 65 6D 54 69 6D 65 41 I.GetSystemTimeA
0040F290 73 46 69 6C 65 54 69 6D 65 00 4A 00 43 72 65 61 sFileTime.J.Crea
0040F2A0 74 65 46 69 6C 65 57 00 4D 00 56 69 72 74 75 61 teFileW.M.Virtua
0040F2B0 6C 41 6C 6C 6F 63 00 00 4F 00 43 72 65 61 74 65 lAlloc..O.Create
0040F2C0 54 68 72 65 61 64 00 00 53 00 47 65 74 50 72 6F Thread..S.GetPro
0040F2D0 63 65 73 73 48 65 61 70 00 00 55 00 57 72 69 74 cessHeap..U.Writ
0040F2E0 65 46 69 6C 65 00 59 00 56 69 72 74 75 61 6C 46 eFile.Y.VirtualF
0040F2F0 72 65 65 00 5B 00 47 65 74 50 72 6F 63 65 73 73 ree.[.GetProcess
0040F300 48 65 61 70 00 00 60 00 47 65 74 53 74 61 72 74 Heap..`.GetStart
0040F310 75 70 49 6E 66 6F 57 00 65 00 48 65 61 70 52 65 upInfoW.e.HeapRe
0040F320 41 6C 6C 6F 63 00 6A 00 47 65 74 50 72 6F 63 65 Alloc.j.GetProce
0040F330 73 73 48 65 61 70 00 00 6E 00 53 65 74 4C 61 73 ssHeap..n.SetLas
0040F340 74 45 72 72 6F 72 00 00 73 00 53 65 74 55 6E 68 tError..s.SetUnh
0040F350 61 6E 64 6C 65 64 45 78 63 65 70 74 69 6F 6E 46 andledExceptionF
0040F360 69 6C 74 65 72 00 74 00 43 72 65 61 74 65 54 68 ilter.t.CreateTh
0040F370 72 65 61 64 00 00 78 00 47 65 74 43 75 72 72 65 read..x.GetCurre
0040F380 6E 74 50 72 6F 63 65 73 73 49 64 00 7B 00 57 61 ntProcessId.{.Wa
0040F390 69 74 46 6F 72 53 69 6E 67 6C 65 4F 62 6A 65 63 itForSingleObjec
0040F3A0 74 00 80 00 43 72 65 61 74 65 54 68 72 65 61 64 t...CreateThread
0040F3B0 00 00 83 00 54 65 72 6D 69 6E 61 74 65 50 72 6F ....TerminatePro
0040F3C0 63 65 73 73 00 00 87 00 44 65 6C 65 74 65 43 72 cess....DeleteCr
0040F3D0 69 74 69 63 61 6C 53 65 63 74 69 6F 6E 00 8D 00 iticalSection...
0040F3E0 47 65 74 43 75 72 72 65 6E 74 54 68 72 65 61 64 GetCurrentThread
0040F3F0 49 64 00 00 4B 45 52 4E 45 4C 33 32 2E 44 4C 4C Id..KERNEL32.DLL
0040F400 00 00 2B 00 47 65 74 44 43 00 2D 00 4D 65 73 73 ..+.GetDC.-.Mess
0040F410 61 67 65 42 6F 78 41 00 32 00 45 6E 64 44 69 61 ageBoxA.2.EndDia
0040F420 6C 6F 67 00 34 00 53 65 74 52 65 63 74 00 35 00 log.4.SetRect.5.
0040F430 53 65 74 44 6C 67 49 74 65 6D 54 65 78 74 57 00 SetDlgItemTextW.
0040F440 3B 00 49 73 57 69 6E 64 6F 77 00 00 40 00 42 65 ;.IsWindow..@.Be
0040F450 67 69 6E 50 61 69 6E 74 00 00 46 00 53 65 74 43 ginPaint..F.SetC
0040F460 75 72 73 6F 72 00 4B 00 4D 6F 76 65 57 69 6E 64 ursor.K.MoveWind
0040F470 6F 77 00 00 50 00 47 65 74 44 6C 67 49 74 65 6D ow..P.GetDlgItem
0040F480 54 65 78 74 57 00 51 00 57 69 6E 48 65 6C 70 57 TextW.Q.WinHelpW
0040F490 00 00 55 00 4D 61 70 57 69 6E 64 6F 77 50 6F 69 ..U.MapWindowPoi
0040F4A0 6E 74 73 00 5A 00 53 65 74 52 65 63 74 00 5B 00 nts.Z.SetRect.[.
0040F4B0 53 65 74 43 75 72 73 6F 72 00 5C 00 53 65 74 43 SetCursor.\.SetC
0040F4C0 75 72 73 6F 72 00 5F 00 44 65 73 74 72 6F 79 57 ursor._.DestroyW
0040F4D0 69 6E 64 6F 77 00 61 00 50 74 49 6E 52 65 63 74 indow.a.PtInRect
0040F4E0 00 00 67 00 47 65 74 4D 65 6E 75 00 6A 00 44 65 ..g.GetMenu.j.De
0040F4F0 73 74 72 6F 79 57 69 6E 64 6F 77 00 6C 00 47 65 stroyWindow.l.Ge
0040F500 74 57 69 6E 64 6F 77 54 65 78 74 57 00 00 72 00 tWindowTextW..r.
0040F510 4C 6F 61 64 53 74 72 69 6E 67 57 00 73 00 43 72 LoadStringW.s.Cr
0040F520 65 61 74 65 57 69 6E 64 6F 77 45 78 57 00 78 00 eateWindowExW.x.
0040F530 45 6E 61 62 6C 65 4D 65 6E 75 49 74 65 6D 00 00 EnableMenuItem..
0040F540 7B 00 43 68 61 72 4E 65 78 74 57 00 7D 00 52 65 {.CharNextW.}.Re
0040F550 6C 65 61 73 65 43 61 70 74 75 72 65 00 00 82 00 leaseCapture....
0040F560 53 65 74 43 61 70 74 75 72 65 00 00 85 00 53 65 SetCapture....Se
0040F570 74 57 69 6E 64 6F 77 50 6F 73 00 00 87 00 50 65 tWindowPos....Pe
0040F580 65 6B 4D 65 73 73 61 67 65 57 00 00 8B 00 47 65 ekMessageW....Ge
0040F590 74 57 69 6E 64 6F 77 52 65 63 74 00 55 53 45 52 tWindowRect.USER
0040F5A0 33 32 2E 44 4C 4C 00 00 00 00 00 00 00 00 00 00 32.DLL..........
0040F5B0 00 00 00 00 00 00 00 00 00 00 00 00 00 00 00 00 ................
0040F5C0 00 00 00 00 00 00 00 00 00 00 00 00 00 00 00 00 ................
0040F5D0 00 00 00 00 00 00 00 00 00 00 00 00 00 00 00 00 ................
0040F5E0 00 00 00 00 00 00 00 00 00 00 00 00 00 00 00 00 ................
0040F5F0 00 00 00 00 00 00 00 00 00 00 00 00 00 00 00 00 ................
0040F600 00 00 00 00 00 00 00 00 00 00 00 00 00 00 00 00 ................
0040F610 00 00 00 00 00 00 00 00 00 00 00 00 00 00 00 00 ................
0040F620 00 00 00 00 00 00 00 00 00 00 00 00 00 00 00 00 ................
0040F630 00 00 00 00 00 00 00 00 00 00 00 00 00 00 00 00 ................
0040F640 00 00 00 00 00 00 00 00 00 00 00 00 00 00 00 00 ................
0040F650 00 00 00 00 00 00 00 00 00 00 00 00 00 00 00 00 ................
0040F660 00 00 00 00 00 00 00 00 00 00 00 00 00 00 00 00 ................
0040F670 00 00 00 00 00 00 00 00 00 00 00 00 00 00 00 00 ................
0040F680 00 00 00 00 00 00 00 00 00 00 00 00 00 00 00 00 ................
0040F690 00 00 00 00 00 00 00 00 00 00 00 00 00 00 00 00 ................
0040F6A0 00 00 00 00 00 00 00 00 00 00 00 00 00 00 00 00 ................
0040F6B0 00 00 00 00 00 00 00 00 00 00 00 00 00 00 00 00 ................
0040F6C0 00 00 00 00 00 00 00 00 00 00 00 00 00 00 00 00 ................
0040F6D0 00 00 00 00 00 00 00 00 00 00 00 00 00 00 00 00 ................
0040F6E0 00 00 00 00 00 00 00 00 00 00 00 00 00 00 00 00 ................
0040F6F0 00 00 00 00 00 00 00 00 00 00 00 00 00 00 00 00 ................
0040F700 00 00 00 00 00 00 00 00 00 00 00 00 00 00 00 00 ................
0040F710 00 00 00 00 00 00 00 00 00 00 00 00 00 00 00 00 ................
0040F720 00 00 00 00 00 00 00 00 00 00 00 00 00 00 00 00 ................
0040F730 00 00 00 00 00 00 00 00 00 00 00 00 00 00 00 00 ................
0040F740 00 00 00 00 00 00 00 00 00 00 00 00 00 00 00 00 ................
0040F750 00 00 00 00 00 00 00 00 00 00 00 00 00 00 00 00 ................
0040F760 00 00 00 00 00 00 00 00 00 00 00 00 00 00 00 00 ................
0040F770 00 00 00 00 00 00 00 00 00 00 00 00 00 00 00 00 ................
0040F780 00 00 00 00 00 00 00 00 00 00 00 00 00 00 00 00 ................
0040F790 00 00 00 00 00 00 00 00 00 00 00 00 00 00 00 00 ................
0040F7A0 00 00 00 00 00 00 00 00 00 00 00 00 00 00 00 00 ................
0040F7B0 00 00 00 00 00 00 00 00 00 00 00 00 00 00 00 00 ................
0040F7C0 00 00 00 00 00 00 00 00 00 00 00 00 00 00 00 00 ................
0040F7D0 00 00 00 00 00 00 00 00 00 00 00 00 00 00 00 00 ................
0040F7E0 00 00 00 00 00 00 00 00 00 00 00 00 00 00 00 00 ................
0040F7F0 00 00 00 00 00 00 00 00 00 00 00 00 00 00 00 00 ................
0040F800 00 00 00 00 00 00 00 00 00 00 00 00 00 00 00 00 ................
0040F810 00 00 00 00 00 00 00 00 00 00 00 00 00 00 00 00 ................
0040F820 00 00 00 00 00 00 00 00 00 00 00 00 00 00 00 00 ................
0040F830 00 00 00 00 00 00 00 00 00 00 00 00 00 00 00 00 ................
0040F840 00 00 00 00 00 00 00 00 00 00 00 00 00 00 00 00 ................
0040F850 00 00 00 00 00 00 00 00 00 00 00 00 00 00 00 00 ................
0040F860 00 00 00 00 00 00 00 00 00 00 00 00 00 00 00 00 ................
0040F870 00 00 00 00 00 00 00 00 00 00 00 00 00 00 00 00 ................
0040F880 00 00 00 00 00 00 00 00 00 00 00 00 00 00 00 00 ................
0040F890 00 00 00 00 00 00 00 00 00 00 00 00 00 00 00 00 ................
0040F8A0 00 00 00 00 00 00 00 00 00 00 00 00 00 00 00 00 ................
0040F8B0 00 00 00 00 00 00 00 00 00 00 00 00 00 00 00 00 ................
0040F8C0 00 00 00 00 00 00 00 00 00 00 00 00 00 00 00 00 ................
0040F8D0 00 00 00 00 00 00 00 00 00 00 00 00 00 00 00 00 ................
0040F8E0 00 00 00 00 00 00 00 00 00 00 00 00 00 00 00 00 ................
0040F8F0 00 00 00 00 00 00 00 00 00 00 00 00 00 00 00 00 ................
0040F900 00 00 00 00 00 00 00 00 00 00 00 00 00 00 00 00 ................
0040F910 00 00 00 00 00 00 00 00 00 00 00 00 00 00 00 00 ................
0040F920 00 00 00 00 00 00 00 00 00 00 00 00 00 00 00 00 ................
0040F930 00 00 00 00 00 00 00 00 00 00 00 00 00 00 00 00 ................
0040F940 00 00 00 00 00 00 00 00 00 00 00 00 00 00 00 00 ................
0040F950 00 00 00 00 00 00 00 00 00 00 00 00 00 00 00 00 ................
0040F960 00 00 00 00 00 00 00 00 00 00 00 00 00 00 00 00 ................
0040F970 00 00 00 00 00 00 00 00 00 00 00 00 00 00 00 00 ................
0040F980 00 00 00 00 00 00 00 00 00 00 00 00 00 00 00 00 ................
0040F990 00 00 00 00 00 00 00 00 00 00 00 00 00 00 00 00 ................
0040F9A0 00 00 00 00 00 00 00 00 00 00 00 00 00 00 00 00 ................
0040F9B0 00 00 00 00 00 00 00 00 00 00 00 00 00 00 00 00 ................
0040F9C0 00 00 00 00 00 00 00 00 00 00 00 00 00 00 00 00 ................
0040F9D0 00 00 00 00 00 00 00 00 00 00 00 00 00 00 00 00 ................
0040F9E0 00 00 00 00 00 00 00 00 00 00 00 00 00 00 00 00 ................
0040F9F0 00 00 00 00 00 00 00 00 00 00 00 00 00 00 00 00 ................
0040FA00 00 00 00 00 00 00 00 00 00 00 00 00 00 00 00 00 ................
0040FA10 00 00 00 00 00 00 00 00 00 00 00 00 00 00 00 00 ................
0040FA20 00 00 00 00 00 00 00 00 00 00 00 00 00 00 00 00 ................
0040FA30 00 00 00 00 00 00 00 00 00 00 00 00 00 00 00 00 ................
0040FA40 00 00 00 00 00 00 00 00 00 00 00 00 00 00 00 00 ................
0040FA50 00 00 00 00 00 00 00 00 00 00 00 00 00 00 00 00 ................
0040FA60 00 00 00 00 00 00 00 00 00 00 00 00 00 00 00 00 ................
0040FA70 00 00 00 00 00 00 00 00 00 00 00 00 00 00 00 00 ................
0040FA80 00 00 00 00 00 00 00 00 00 00 00 00 00 00 00 00 ................
0040FA90 00 00 00 00 00 00 00 00 00 00 00 00 00 00 00 00 ................
0040FAA0 00 00 00 00 00 00 00 00 00 00 00 00 00 00 00 00 ................
0040FAB0 00 00 00 00 00 00 00 00 00 00 00 00 00 00 00 00 ................
0040FAC0 00 00 00 00 00 00 00 00 00 00 00 00 00 00 00 00 ................
0040FAD0 00 00 00 00 00 00 00 00 00 00 00 00 00 00 00 00 ................
0040FAE0 00 00 00 00 00 00 00 00 00 00 00 00 00 00 00 00 ................
0040FAF0 00 00 00 00 00 00 00 00 00 00 00 00 00 00 00 00 ................
0040FB00 00 00 00 00 00 00 00 00 00 00 00 00 00 00 00 00 ................
0040FB10 00 00 00 00 00 00 00 00 00 00 00 00 00 00 00 00 ................
0040FB20 00 00 00 00 00 00 00 00 00 00 00 00 00 00 00 00 ................
0040FB30 00 00 00 00 00 00 00 00 00 00 00 00 00 00 00 00 ................
0040FB40 00 00 00 00 00 00 00 00 00 00 00 00 00 00 00 00 ................
0040FB50 00 00 00 00 00 00 00 00 00 00 00 00 00 00 00 00 ................
0040FB60 00 00 00 00 00 00 00 00 00 00 00 00 00 00 00 00 ................
0040FB70 00 00 00 00 00 00 00 00 00 00 00 00 00 00 00 00 ................
0040FB80 00 00 00 00 00 00 00 00 00 00 00 00 00 00 00 00 ................
0040FB90 00 00 00 00 00 00 00 00 00 00 00 00 00 00 00 00 ................
0040FBA0 00 00 00 00 00 00 00 00 00 00 00 00 00 00 00 00 ................
0040FBB0 00 00 00 00 00 00 00 00 00 00 00 00 00 00 00 00 ................
0040FBC0 00 00 00 00 00 00 00 00 00 00 00 00 00 00 00 00 ................
0040FBD0 00 00 00 00 00 00 00 00 00 00 00 00 00 00 00 00 ................
0040FBE0 00 00 00 00 00 00 00 00 00 00 00 00 00 00 00 00 ................
0040FBF0 00 00 00 00 00 00 00 00 00 00 00 00 00 00 00 00 ................
0040FC00 00 00 00 00 00 00 00 00 00 00 00 00 00 00 00 00 ................
0040FC10 00 00 00 00 00 00 00 00 00 00 00 00 00 00 00 00 ................
0040FC20 00 00 00 00 00 00 00 00 00 00 00 00 00 00 00 00 ................
0040FC30 00 00 00 00 00 00 00 00 00 00 00 00 00 00 00 00 ................
0040FC40 00 00 00 00 00 00 00 00 00 00 00 00 00 00 00 00 ................
0040FC50 00 00 00 00 00 00 00 00 00 00 00 00 00 00 00 00 ................
0040FC60 00 00 00 00 00 00 00 00 00 00 00 00 00 00 00 00 ................
0040FC70 00 00 00 00 00 00 00 00 00 00 00 00 00 00 00 00 ................
0040FC80 00 00 00 00 00 00 00 00 00 00 00 00 00 00 00 00 ................
0040FC90 00 00 00 00 00 00 00 00 00 00 00 00 00 00 00 00 ................
0040FCA0 00 00 00 00 00 00 00 00 00 00 00 00 00 00 00 00 ................
0040FCB0 00 00 00 00 00 00 00 00 00 00 00 00 00 00 00 00 ................
0040FCC0 00 00 00 00 00 00 00 00 00 00 00 00 00 00 00 00 ................
0040FCD0 00 00 00 00 00 00 00 00 00 00 00 00 00 00 00 00 ................
0040FCE0 00 00 00 00 00 00 00 00 00 00 00 00 00 00 00 00 ................
0040FCF0 00 00 00 00 00 00 00 00 00 00 00 00 00 00 00 00 ................
0040FD00 00 00 00 00 00 00 00 00 00 00 00 00 00 00 00 00 ................
0040FD10 00 00 00 00 00 00 00 00 00 00 00 00 00 00 00 00 ................
0040FD20 00 00 00 00 00 00 00 00 00 00 00 00 00 00 00 00 ................
0040FD30 00 00 00 00 00 00 00 00 00 00 00 00 00 00 00 00 ................
0040FD40 00 00 00 00 00 00 00 00 00 00 00 00 00 00 00 00 ................
0040FD50 00 00 00 00 00 00 00 00 00 00 00 00 00 00 00 00 ................
0040FD60 00 00 00 00 00 00 00 00 00 00 00 00 00 00 00 00 ................
0040FD70 00 00 00 00 00 00 00 00 00 00 00 00 00 00 00 00 ................
0040FD80 00 00 00 00 00 00 00 00 00 00 00 00 00 00 00 00 ................
0040FD90 00 00 00 00 00 00 00 00 00 00 00 00 00 00 00 00 ................
0040FDA0 00 00 00 00 00 00 00 00 00 00 00 00 00 00 00 00 ................
0040FDB0 00 00 00 00 00 00 00 00 00 00 00 00 00 00 00 00 ................
0040FDC0 00 00 00 00 00 00 00 00 00 00 00 00 00 00 00 00 ................
0040FDD0 00 00 00 00 00 00 00 00 00 00 00 00 00 00 00 00 ................
0040FDE0 00 00 00 00 00 00 00 00 00 00 00 00 00 00 00 00 ................
0040FDF0 00 00 00 00 00 00 00 00 00 00 00 00 00 00 00 00 ................
0040FE00 00 00 00 00 00 00 00 00 00 00 00 00 00 00 00 00 ................
0040FE10 00 00 00 00 00 00 00 00 00 00 00 00 00 00 00 00 ................
0040FE20 00 00 00 00 00 00 00 00 00 00 00 00 00 00 00 00 ................
0040FE30 00 00 00 00 00 00 00 00 00 00 00 00 00 00 00 00 ................
0040FE40 00 00 00 00 00 00 00 00 00 00 00 00 00 00 00 00 ................
0040FE50 00 00 00 00 00 00 00 00 00 00 00 00 00 00 00 00 ................
0040FE60 00 00 00 00 00 00 00 00 00 00 00 00 00 00 00 00 ................
0040FE70 00 00 00 00 00 00 00 00 00 00 00 00 00 00 00 00 ................
0040FE80 00 00 00 00 00 00 00 00 00 00 00 00 00 00 00 00 ................
0040FE90 00 00 00 00 00 00 00 00 00 00 00 00 00 00 00 00 ................
0040FEA0 00 00 00 00 00 00 00 00 00 00 00 00 00 00 00 00 ................
0040FEB0 00 00 00 00 00 00 00 00 00 00 00 00 00 00 00 00 ................
0040FEC0 00 00 00 00 00 00 00 00 00 00 00 00 00 00 00 00 ................
0040FED0 00 00 00 00 00 00 00 00 00 00 00 00 00 00 00 00 ................
0040FEE0 00 00 00 00 00 00 00 00 00 00 00 00 00 00 00 00 ................
0040FEF0 00 00 00 00 00 00 00 00 00 00 00 00 00 00 00 00 ................
0040FF00 00 00 00 00 00 00 00 00 00 00 00 00 00 00 00 00 ................
0040FF10 00 00 00 00 00 00 00 00 00 00 00 00 00 00 00 00 ................
0040FF20 00 00 00 00 00 00 00 00 00 00 00 00 00 00 00 00 ................
0040FF30 00 00 00 00 00 00 00 00 00 00 00 00 00 00 00 00 ................
0040FF40 00 00 00 00 00 00 00 00 00 00 00 00 00 00 00 00 ................
0040FF50 00 00 00 00 00 00 00 00 00 00 00 00 00 00 00 00 ................
0040FF60 00 00 00 00 00 00 00 00 00 00 00 00 00 00 00 00 ................
0040FF70 00 00 00 00 00 00 00 00 00 00 00 00 00 00 00 00 ................
0040FF80 00 00 00 00 00 00 00 00 00 00 00 00 00 00 00 00 ................
0040FF90 00 00 00 00 00 00 00 00 00 00 00 00 00 00 00 00 ................
0040FFA0 00 00 00 00 00 00 00 00 00 00 00 00 00 00 00 00 ................
0040FFB0 00 00 00 00 00 00 00 00 00 00 00 00 00 00 00 00 ................
0040FFC0 00 00 00 00 00 00 00 00 00 00 00 00 00 00 00 00 ................
0040FFD0 00 00 00 00 00 00 00 00 00 00 00 00 00 00 00 00 ................
0040FFE0 00 00 00 00 00 00 00 00 00 00 00 00 00 00 00 00 ................
0040FFF0 00 00 00 00 00 00 00 00 00 00 00 00 00 00 00 00 ................
00410000 00 00 00 00 00 00 00 00 00 00 00 00 00 00 03 00 ................
00410010 03 00 00 00 28 00 00 80 0E 00 00 00 40 00 00 80 ....(.......@...
00410020 10 00 00 00 58 00 00 80 00 00 00 00 00 00 00 00 ....X...........
00410030 00 00 00 00 00 00 01 00 01 00 00 00 70 00 00 80 ............p...
00410040 00 00 00 00 00 00 00 00 00 00 00 00 00 00 01 00 ................
00410050 25 50 00 00 88 00 00 80 00 00 00 00 00 00 00 00 %P..............
00410060 00 00 00 00 00 00 01 00 46 D4 00 00 A0 00 00 80 ........F.......
00410070 00 00 00 00 00 00 00 00 00 00 00 00 00 00 01 00 ................
00410080 19 04 00 00 B8 00 00 00 00 00 00 00 00 00 00 00 ................
00410090 00 00 00 00 00 00 01 00 19 04 00 00 C8 00 00 00 ................
004100A0 00 00 00 00 00 00 00 00 00 00 00 00 00 00 01 00 ................
004100B0 19 04 00 00 D8 00 00 00 E8 00 01 00 A8 08 00 00 ................
004100C0 00 00 00 00 00 00 00 00 90 09 01 00 14 00 00 00 ................
004100D0 00 00 00 00 00 00 00 00 A4 09 01 00 08 03 00 00 ................
004100E0 00 00 00 00 00 00 00 00 28 00 00 00 20 00 00 00 ........(... ...
004100F0 40 00 00 00 01 00 08 00 00 00 00 00 00 04 00 00 @...............
00410100 00 00 00 00 00 00 00 00 00 00 00 00 00 00 00 00 ................
00410110 00 00 00 00 00 00 80 00 00 80 00 00 00 80 80 00 ................
00410120 80 00 00 00 80 00 80 00 80 80 00 00 C0 C0 C0 00 ................
00410130 C0 DC C0 00 F0 CA A6 00 00 20 40 00 00 20 60 00 ......... @.. `.
00410140 00 20 80 00 00 20 A0 00 00 20 C0 00 00 20 E0 00 . ... ... ... ..
00410150 00 40 00 00 00 40 20 00 00 40 40 00 00 40 60 00 .@...@ ..@@..@`.
00410160 00 40 80 00 00 40 A0 00 00 40 C0 00 00 40 E0 00 .@...@...@...@..
00410170 00 60 00 00 00 60 20 00 00 60 40 00 00 60 60 00 .`...` ..`@..``.
00410180 00 60 80 00 00 60 A0 00 00 60 C0 00 00 60 E0 00 .`...`...`...`..
00410190 00 80 00 00 00 80 20 00 00 80 40 00 00 80 60 00 ...... ...@...`.
004101A0 00 80 80 00 00 80 A0 00 00 80 C0 00 00 80 E0 00 ................
004101B0 00 A0 00 00 00 A0 20 00 00 A0 40 00 00 A0 60 00 ...... ...@...`.
004101C0 00 A0 80 00 00 A0 A0 00 00 A0 C0 00 00 A0 E0 00 ................
004101D0 00 C0 00 00 00 C0 20 00 00 C0 40 00 00 C0 60 00 ...... ...@...`.
004101E0 00 C0 80 00 00 C0 A0 00 00 C0 C0 00 00 C0 E0 00 ................
004101F0 00 E0 00 00 00 E0 20 00 00 E0 40 00 00 E0 60 00 ...... ...@...`.
00410200 00 E0 80 00 00 E0 A0 00 00 E0 C0 00 00 E0 E0 00 ................
00410210 40 00 00 00 40 00 20 00 40 00 40 00 40 00 60 00 @...@. .@.@.@.`.
00410220 40 00 80 00 40 00 A0 00 40 00 C0 00 40 00 E0 00 @...@...@...@...
00410230 40 20 00 00 40 20 20 00 40 20 40 00 40 20 60 00 @ ..@  .@ @.@ `.
00410240 40 20 80 00 40 20 A0 00 40 20 C0 00 40 20 E0 00 @ ..@ ..@ ..@ ..
00410250 40 40 00 00 40 40 20 00 40 40 40 00 40 40 60 00 @@..@@ .@@@.@@`.
00410260 40 40 80 00 40 40 A0 00 40 40 C0 00 40 40 E0 00 @@..@@..@@..@@..
00410270 40 60 00 00 40 60 20 00 40 60 40 00 40 60 60 00 @`..@` .@`@.@``.
00410280 40 60 80 00 40 60 A0 00 40 60 C0 00 40 60 E0 00 @`..@`..@`..@`..
00410290 40 80 00 00 40 80 20 00 40 80 40 00 40 80 60 00 @...@. .@.@.@.`.
004102A0 40 80 80 00 40 80 A0 00 40 80 C0 00 40 80 E0 00 @...@...@...@...
004102B0 40 A0 00 00 40 A0 20 00 40 A0 40 00 40 A0 60 00 @...@. .@.@.@.`.
004102C0 40 A0 80 00 40 A0 A0 00 40 A0 C0 00 40 A0 E0 00 @...@...@...@...
004102D0 40 C0 00 00 40 C0 20 00 40 C0 40 00 40 C0 60 00 @...@. .@.@.@.`.
004102E0 40 C0 80 00 40 C0 A0 00 40 C0 C0 00 40 C0 E0 00 @...@...@...@...
004102F0 40 E0 00 00 40 E0 20 00 40 E0 40 00 40 E0 60 00 @...@. .@.@.@.`.
00410300 40 E0 80 00 40 E0 A0 00 40 E0 C0 00 40 E0 E0 00 @...@...@...@...
00410310 80 00 00 00 80 00 20 00 80 00 40 00 80 00 60 00 ...... ...@...`.
00410320 80 00 80 00 80 00 A0 00 80 00 C0 00 80 00 E0 00 ................
00410330 80 20 00 00 80 20 20 00 80 20 40 00 80 20 60 00 . ...  .. @.. `.
00410340 80 20 80 00 80 20 A0 00 80 20 C0 00 80 20 E0 00 . ... ... ... ..
00410350 80 40 00 00 80 40 20 00 80 40 40 00 80 40 60 00 .@...@ ..@@..@`.
00410360 80 40 80 00 80 40 A0 00 80 40 C0 00 80 40 E0 00 .@...@...@...@..
00410370 80 60 00 00 80 60 20 00 80 60 40 00 80 60 60 00 .`...` ..`@..``.
00410380 80 60 80 00 80 60 A0 00 80 60 C0 00 80 60 E0 00 .`...`...`...`..
00410390 80 80 00 00 80 80 20 00 80 80 40 00 80 80 60 00 ...... ...@...`.
004103A0 80 80 80 00 80 80 A0 00 80 80 C0 00 80 80 E0 00 ................
004103B0 80 A0 00 00 80 A0 20 00 80 A0 40 00 80 A0 60 00 ...... ...@...`.
004103C0 80 A0 80 00 80 A0 A0 00 80 A0 C0 00 80 A0 E0 00 ................
004103D0 80 C0 00 00 80 C0 20 00 80 C0 40 00 80 C0 60 00 ...... ...@...`.
004103E0 80 C0 80 00 80 C0 A0 00 80 C0 C0 00 80 C0 E0 00 ................
004103F0 80 E0 00 00 80 E0 20 00 80 E0 40 00 80 E0 60 00 ...... ...@...`.
00410400 80 E0 80 00 80 E0 A0 00 80 E0 C0 00 80 E0 E0 00 ................
00410410 C0 00 00 00 C0 00 20 00 C0 00 40 00 C0 00 60 00 ...... ...@...`.
00410420 C0 00 80 00 C0 00 A0 00 C0 00 C0 00 C0 00 E0 00 ................
00410430 C0 20 00 00 C0 20 20 00 C0 20 40 00 C0 20 60 00 . ...  .. @.. `.
00410440 C0 20 80 00 C0 20 A0 00 C0 20 C0 00 C0 20 E0 00 . ... ... ... ..
00410450 C0 40 00 00 C0 40 20 00 C0 40 40 00 C0 40 60 00 .@...@ ..@@..@`.
00410460 C0 40 80 00 C0 40 A0 00 C0 40 C0 00 C0 40 E0 00 .@...@...@...@..
00410470 C0 60 00 00 C0 60 20 00 C0 60 40 00 C0 60 60 00 .`...` ..`@..``.
00410480 C0 60 80 00 C0 60 A0 00 C0 60 C0 00 C0 60 E0 00 .`...`...`...`..
00410490 C0 80 00 00 C0 80 20 00 C0 80 40 00 C0 80 60 00 ...... ...@...`.
004104A0 C0 80 80 00 C0 80 A0 00 C0 80 C0 00 C0 80 E0 00 ................
004104B0 C0 A0 00 00 C0 A0 20 00 C0 A0 40 00 C0 A0 60 00 ...... ...@...`.
004104C0 C0 A0 80 00 C0 A0 A0 00 C0 A0 C0 00 C0 A0 E0 00 ................
004104D0 C0 C0 00 00 C0 C0 20 00 C0 C0 40 00 C0 C0 60 00 ...... ...@...`.
004104E0 C0 C0 80 00 C0 C0 A0 00 F0 FB FF 00 A4 A0 A0 00 ................
004104F0 80 80 80 00 00 00 FF 00 00 FF 00 00 00 FF FF 00 ................
00410500 FF 00 00 00 FF 00 FF 00 FF FF 00 00 FF FF FF 00 ................
00410510 00 00 00 00 00 00 00 00 00 00 00 00 00 00 00 00 ................
00410520 00 00 00 00 00 00 00 00 00 00 00 00 00 00 00 00 ................
00410530 00 00 00 00 00 00 ED A3 9A 9A 92 92 92 92 92 92 ................
00410540 92 92 92 92 92 92 92 92 92 92 92 92 92 92 92 00 ................
00410550 00 00 00 00 00 00 ED F6 07 09 09 09 09 09 09 09 ................
00410560 09 09 EC 09 09 EC EC EC EC EB EB EB EB EB 92 00 ................
00410570 00 00 00 00 00 00 ED F6 F6 F6 F6 F6 F6 F6 F6 F6 ................
00410580 F6 F6 F6 F6 F6 F6 F6 F6 09 09 09 09 09 EB 92 00 ................
00410590 00 00 00 00 00 00 ED F6 F6 F6 F6 F6 F6 F6 F6 F6 ................
004105A0 F6 F6 F6 F6 F6 F6 F6 F6 F6 F6 09 09 09 EB 92 00 ................
004105B0 00 00 00 00 00 00 ED F6 F6 F5 F5 ED ED EC EC EC ................
004105C0 E3 E3 E3 E3 E3 E3 E3 E3 E3 E3 F6 F6 09 EB 92 00 ................
004105D0 00 00 00 00 00 00 ED FF FF F5 FF FF FF F6 EC F6 ................
004105E0 F6 EC FF E3 F6 F6 EC FF E3 F6 F6 F6 F6 EB 92 00 ................
004105F0 00 00 00 00 00 00 ED FF FF F5 FF FF FF FF ED FF ................
00410600 FF EC FF E3 F6 F6 EC FF E3 F6 F6 F6 F6 EC 92 00 ................
00410610 00 00 00 00 00 00 ED FF FF F5 F5 F5 F5 F5 F5 ED ................
00410620 FF EC FF E3 F6 F6 EC FF E3 F6 F6 F6 F6 EC 92 00 ................
00410630 00 00 00 00 00 00 ED FF FF 09 FF FF FF FF F5 FF ................
00410640 FF ED FF E3 EC EC EC FF E3 F6 F6 F6 F6 EC 92 00 ................
00410650 00 00 00 00 00 00 ED FF FF 09 FF FF FF FF F5 FF ................
00410660 FF F5 FF E3 FF FF EC FF E3 F6 F6 F6 F6 EC 92 00 ................
00410670 00 00 00 00 00 00 ED FF FF 09 09 09 09 09 F5 F5 ................
00410680 FF F5 F5 E3 FF FF EC FF E3 F6 F6 F6 F6 EC 92 00 ................
00410690 00 00 00 00 00 00 ED FF FF 09 FF FF FF FF 09 FF ................
004106A0 FF FF FF FF FF FF ED ED E3 F6 F6 F6 F6 09 92 00 ................
004106B0 00 00 00 00 00 00 ED 08 08 ED 07 07 07 ED ED 08 ................
004106C0 FF FF FF F5 FF FF FF FF FF FF F6 F6 F6 09 92 00 ................
004106D0 00 00 00 00 00 00 F7 F7 F5 07 07 08 08 F6 08 ED ................
004106E0 EC 09 F5 F5 F5 F5 F5 F5 ED FF FF F6 F6 EC 92 00 ................
004106F0 00 19 18 AC 08 08 FF FF FF F6 F6 F6 F6 F6 08 07 ................
00410700 F6 FF FF 09 FF FF FF FF F5 FF FF FF F6 09 92 00 ................
00410710 00 19 B5 08 FF FF FF FF F6 F6 B5 1A 1A F6 F6 07 ................
00410720 F6 FF FF 09 FF FF FF FF F5 FF FF FF FF 09 92 00 ................
00410730 00 19 07 AC FF 08 B4 B4 B4 AB 22 1A 6B F6 F6 ED ..........".k...
00410740 F5 09 09 09 09 09 09 F5 F5 FF FF FF FF 09 92 00 ................
00410750 00 19 08 62 FF FF 08 B4 B4 62 1A 6C AB B5 F6 07 ...b.....b.l....
00410760 08 FF FF 09 FF FF FF FF F5 FF FF FF FF 09 92 00 ................
00410770 00 19 08 19 F6 FF FF 08 6B 1A 22 08 FF F6 F6 07 ........k.".....
00410780 08 FF FF 09 FF FF FF FF 09 FF FF FF FF 09 92 00 ................
00410790 00 21 08 19 07 FF FF 08 22 22 6B B4 F5 F6 F6 07 .!......""k.....
004107A0 F5 09 09 09 09 09 09 09 09 FF FF FF FF 09 92 00 ................
004107B0 00 21 08 19 AC FF F6 22 1A B5 F6 B4 B4 B4 F6 08 .!....."........
004107C0 08 FF FF 09 FF FF FF FF 09 FF FF FF FF 09 92 00 ................
004107D0 00 21 08 AC B4 FF 63 62 6C FF FF FF FF FF FF 08 .!....cbl.......
004107E0 08 FF FF 09 FF FF FF FF 07 09 09 09 09 09 92 00 ................
004107F0 00 61 08 B4 B4 FF FF FF FF FF FF FF FF FF FF F6 .a..............
00410800 07 09 09 09 09 09 09 ED A3 A3 9B 9A 9A 9A 92 00 ................
00410810 00 61 08 B5 B4 08 08 08 08 08 08 F5 B5 08 6B FF .a............k.
00410820 FF FF FF FF FF FF FF ED 09 09 09 09 09 92 F6 00 ................
00410830 00 61 B5 F6 B5 B5 B5 B5 B5 B5 B5 B5 B5 F6 61 FF .a............a.
00410840 FF FF FF FF FF FF FF ED F6 F6 09 09 92 F6 F6 00 ................
00410850 00 61 61 08 F6 08 BD BD BD BD BD BD B5 F6 61 F6 .aa...........a.
00410860 09 09 09 FF FF FF FF F5 F6 F6 09 92 F6 F6 00 00 ................
00410870 00 00 61 61 B5 08 F6 F6 F6 F6 F6 F6 F6 F6 61 FF ..aa..........a.
00410880 FF FF FF FF FF FF FF F5 F6 F6 9A F6 F6 00 00 00 ................
00410890 00 00 00 61 61 61 61 61 61 61 61 61 61 61 61 FF ...aaaaaaaaaaaa.
004108A0 FF FF FF FF FF FF FF F5 F6 9B F6 F6 00 00 00 00 ................
004108B0 00 00 00 00 00 00 07 FF FF FF FF FF FF FF FF FF ................
004108C0 FF FF FF FF FF FF FF F5 A4 F6 F6 00 00 00 00 00 ................
004108D0 00 00 00 00 00 00 07 07 07 07 07 F5 F5 F5 F5 F5 ................
004108E0 F5 F5 F5 F5 F5 F5 F5 F5 F6 F6 00 00 00 00 00 00 ................
004108F0 00 00 00 00 00 00 00 00 00 00 00 00 00 00 00 00 ................
00410900 00 00 00 00 00 00 00 00 00 00 00 00 00 00 00 00 ................
00410910 FF FF FF FF FC 00 00 01 FC 00 00 01 FC 00 00 01 ................
00410920 FC 00 00 01 FC 00 00 01 FC 00 00 01 FC 00 00 01 ................
00410930 FC 00 00 01 FC 00 00 01 FC 00 00 01 FC 00 00 01 ................
00410940 FC 00 00 01 C0 00 00 01 C0 00 00 01 80 00 00 01 ................
00410950 80 00 00 01 80 00 00 01 80 00 00 01 80 00 00 01 ................
00410960 80 00 00 01 80 00 00 01 80 00 00 01 80 00 00 01 ................
00410970 80 00 00 01 80 00 00 01 80 00 00 03 C0 00 00 07 ................
00410980 E0 00 00 0F FC 00 00 1F FC 00 00 3F FF FF FF FF ...........?....
00410990 00 00 01 00 01 00 20 20 08 00 00 00 00 00 A8 08 ......  ........
004109A0 00 00 01 00 08 03 34 00 00 00 56 00 53 00 5F 00 ......4...V.S._.
004109B0 56 00 45 00 52 00 53 00 49 00 4F 00 4E 00 5F 00 V.E.R.S.I.O.N._.
004109C0 49 00 4E 00 46 00 4F 00 00 00 00 00 BD 04 EF FE I.N.F.O.........
004109D0 00 00 01 00 EB C2 C2 8D EB C2 C2 8D EB C2 C2 8D ................
004109E0 EB C2 C2 8D EB C2 00 00 00 00 00 00 04 00 04 00 ................
004109F0 01 00 00 00 00 00 00 00 00 00 00 00 00 00 00 00 ................
00410A00 68 02 00 00 00 00 53 00 74 00 72 00 69 00 6E 00 h.....S.t.r.i.n.
00410A10 67 00 46 00 69 00 6C 00 65 00 49 00 6E 00 66 00 g.F.i.l.e.I.n.f.
00410A20 6F 00 00 00 44 02 00 00 00 00 30 00 38 00 30 00 o...D.....0.8.0.
00410A30 30 00 30 00 34 00 42 00 30 00 00 00 48 00 13 00 0.0.4.B.0...H...
00410A40 01 00 43 00 6F 00 6D 00 70 00 61 00 6E 00 79 00 ..C.o.m.p.a.n.y.
00410A50 4E 00 61 00 6D 00 65 00 00 00 00 00 6D 00 74 00 N.a.m.e.....m.t.
00410A60 64 00 74 00 54 00 65 00 6A 00 51 00 44 00 31 00 d.t.T.e.j.Q.D.1.
00410A70 4D 00 49 00 6F 00 33 00 61 00 34 00 33 00 72 00 M.I.o.3.a.4.3.r.
00410A80 00 00 00 00 44 00 0D 00 01 00 46 00 69 00 6C 00 ....D.....F.i.l.
00410A90 65 00 44 00 65 00 73 00 63 00 72 00 69 00 70 00 e.D.e.s.c.r.i.p.
00410AA0 74 00 69 00 6F 00 6E 00 00 00 00 00 67 00 53 00 t.i.o.n.....g.S.
00410AB0 4C 00 71 00 50 00 63 00 6E 00 4C 00 6E 00 43 00 L.q.P.c.n.L.n.C.
00410AC0 74 00 34 00 00 00 00 00 48 00 13 00 01 00 46 00 t.4.....H.....F.
00410AD0 69 00 6C 00 65 00 56 00 65 00 72 00 73 00 69 00 i.l.e.V.e.r.s.i.
00410AE0 6F 00 6E 00 00 00 00 00 50 00 32 00 6B 00 62 00 o.n.....P.2.k.b.
00410AF0 4A 00 6F 00 33 00 50 00 72 00 4E 00 45 00 32 00 J.o.3.P.r.N.E.2.
00410B00 48 00 56 00 6C 00 57 00 49 00 6E 00 00 00 00 00 H.V.l.W.I.n.....
00410B10 48 00 13 00 01 00 49 00 6E 00 74 00 65 00 72 00 H.....I.n.t.e.r.
00410B20 6E 00 61 00 6C 00 4E 00 61 00 6D 00 65 00 00 00 n.a.l.N.a.m.e...
00410B30 4C 00 61 00 58 00 4B 00 33 00 74 00 65 00 42 00 L.a.X.K.3.t.e.B.
00410B40 61 00 62 00 42 00 44 00 54 00 50 00 51 00 45 00 a.b.B.D.T.P.Q.E.
00410B50 4F 00 4F 00 00 00 00 00 40 00 0E 00 01 00 4C 00 O.O.....@.....L.
00410B60 65 00 67 00 61 00 6C 00 43 00 6F 00 70 00 79 00 e.g.a.l.C.o.p.y.
00410B70 72 00 69 00 67 00 68 00 74 00 00 00 66 00 33 00 r.i.g.h.t...f.3.
00410B80 51 00 59 00 53 00 71 00 48 00 51 00 54 00 6B 00 Q.Y.S.q.H.Q.T.k.
00410B90 68 00 32 00 69 00 00 00 4C 00 12 00 01 00 4F 00 h.2.i...L.....O.
00410BA0 72 00 69 00 67 00 69 00 6E 00 61 00 6C 00 46 00 r.i.g.i.n.a.l.F.
00410BB0 69 00 6C 00 65 00 6E 00 61 00 6D 00 65 00 00 00 i.l.e.n.a.m.e...
00410BC0 78 00 52 00 44 00 6B 00 42 00 78 00 44 00 70 00 x.R.D.k.B.x.D.p.
00410BD0 33 00 6D 00 71 00 61 00 70 00 31 00 69 00 56 00 3.m.q.a.p.1.i.V.
00410BE0 53 00 00 00 38 00 0C 00 01 00 50 00 72 00 6F 00 S...8.....P.r.o.
00410BF0 64 00 75 00 63 00 74 00 4E 00 61 00 6D 00 65 00 d.u.c.t.N.a.m.e.
00410C00 00 00 00 00 54 00 62 00 57 00 63 00 50 00 4A 00 ....T.b.W.c.P.J.
00410C10 35 00 41 00 6B 00 65 00 49 00 00 00 4C 00 14 00 5.A.k.e.I...L...
00410C20 01 00 50 00 72 00 6F 00 64 00 75 00 63 00 74 00 ..P.r.o.d.u.c.t.
00410C30 56 00 65 00 72 00 73 00 69 00 6F 00 6E 00 00 00 V.e.r.s.i.o.n...
00410C40 69 00 44 00 79 00 61 00 36 00 52 00 75 00 58 00 i.D.y.a.6.R.u.X.
00410C50 34 00 41 00 4B 00 42 00 49 00 6B 00 64 00 55 00 4.A.K.B.I.k.d.U.
00410C60 57 00 6F 00 42 00 00 00 44 00 00 00 00 00 56 00 W.o.B...D.....V.
00410C70 61 00 72 00 46 00 69 00 6C 00 65 00 49 00 6E 00 a.r.F.i.l.e.I.n.
00410C80 66 00 6F 00 00 00 00 00 24 00 04 00 00 00 54 00 f.o.....$.....T.
00410C90 72 00 61 00 6E 00 73 00 6C 00 61 00 74 00 69 00 r.a.n.s.l.a.t.i.
00410CA0 6F 00 6E 00 00 00 00 00 00 08 B0 04 00 00 00 00 o.n.............
00410CB0 00 00 00 00 00 00 00 00 00 00 00 00 00 00 00 00 ................
00410CC0 00 00 00 00 00 00 00 00 00 00 00 00 00 00 00 00 ................
00410CD0 00 00 00 00 00 00 00 00 00 00 00 00 00 00 00 00 ................
00410CE0 00 00 00 00 00 00 00 00 00 00 00 00 00 00 00 00 ................
00410CF0 00 00 00 00 00 00 00 00 00 00 00 00 00 00 00 00 ................
00410D00 00 00 00 00 00 00 00 00 00 00 00 00 00 00 00 00 ................
00410D10 00 00 00 00 00 00 00 00 00 00 00 00 00 00 00 00 ................
00410D20 00 00 00 00 00 00 00 00 00 00 00 00 00 00 00 00 ................
00410D30 00 00 00 00 00 00 00 00 00 00 00 00 00 00 00 00 ................
00410D40 00 00 00 00 00 00 00 00 00 00 00 00 00 00 00 00 ................
00410D50 00 00 00 00 00 00 00 00 00 00 00 00 00 00 00 00 ................
00410D60 00 00 00 00 00 00 00 00 00 00 00 00 00 00 00 00 ................
00410D70 00 00 00 00 00 00 00 00 00 00 00 00 00 00 00 00 ................
00410D80 00 00 00 00 00 00 00 00 00 00 00 00 00 00 00 00 ................
00410D90 00 00 00 00 00 00 00 00 00 00 00 00 00 00 00 00 ................
00410DA0 00 00 00 00 00 00 00 00 00 00 00 00 00 00 00 00 ................
00410DB0 00 00 00 00 00 00 00 00 00 00 00 00 00 00 00 00 ................
00410DC0 00 00 00 00 00 00 00 00 00 00 00 00 00 00 00 00 ................
00410DD0 00 00 00 00 00 00 00 00 00 00 00 00 00 00 00 00 ................
00410DE0 00 00 00 00 00 00 00 00 00 00 00 00 00 00 00 00 ................
00410DF0 00 00 00 00 00 00 00 00 00 00 00 00 00 00 00 00 ................
00410E00 00 00 00 00 00 00 00 00 00 00 00 00 00 00 00 00 ................
00410E10 00 00 00 00 00 00 00 00 00 00 00 00 00 00 00 00 ................
00410E20 00 00 00 00 00 00 00 00 00 00 00 00 00 00 00 00 ................
00410E30 00 00 00 00 00 00 00 00 00 00 00 00 00 00 00 00 ................
00410E40 00 00 00 00 00 00 00 00 00 00 00 00 00 00 00 00 ................
00410E50 00 00 00 00 00 00 00 00 00 00 00 00 00 00 00 00 ................
00410E60 00 00 00 00 00 00 00 00 00 00 00 00 00 00 00 00 ................
00410E70 00 00 00 00 00 00 00 00 00 00 00 00 00 00 00 00 ................
00410E80 00 00 00 00 00 00 00 00 00 00 00 00 00 00 00 00 ................
00410E90 00 00 00 00 00 00 00 00 00 00 00 00 00 00 00 00 ................
00410EA0 00 00 00 00 00 00 00 00 00 00 00 00 00 00 00 00 ................
00410EB0 00 00 00 00 00 00 00 00 00 00 00 00 00 00 00 00 ................
00410EC0 00 00 00 00 00 00 00 00 00 00 00 00 00 00 00 00 ................
00410ED0 00 00 00 00 00 00 00 00 00 00 00 00 00 00 00 00 ................
00410EE0 00 00 00 00 00 00 00 00 00 00 00 00 00 00 00 00 ................
00410EF0 00 00 00 00 00 00 00 00 00 00 00 00 00 00 00 00 ................
00410F00 00 00 00 00 00 00 00 00 00 00 00 00 00 00 00 00 ................
00410F10 00 00 00 00 00 00 00 00 00 00 00 00 00 00 00 00 ................
00410F20 00 00 00 00 00 00 00 00 00 00 00 00 00 00 00 00 ................
00410F30 00 00 00 00 00 00 00 00 00 00 00 00 00 00 00 00 ................
00410F40 00 00 00 00 00 00 00 00 00 00 00 00 00 00 00 00 ................
00410F50 00 00 00 00 00 00 00 00 00 00 00 00 00 00 00 00 ................
00410F60 00 00 00 00 00 00 00 00 00 00 00 00 00 00 00 00 ................
00410F70 00 00 00 00 00 00 00 00 00 00 00 00 00 00 00 00 ................
00410F80 00 00 00 00 00 00 00 00 00 00 00 00 00 00 00 00 ................
00410F90 00 00 00 00 00 00 00 00 00 00 00 00 00 00 00 00 ................
00410FA0 00 00 00 00 00 00 00 00 00 00 00 00 00 00 00 00 ................
00410FB0 00 00 00 00 00 00 00 00 00 00 00 00 00 00 00 00 ................
00410FC0 00 00 00 00 00 00 00 00 00 00 00 00 00 00 00 00 ................
00410FD0 00 00 00 00 00 00 00 00 00 00 00 00 00 00 00 00 ................
00410FE0 00 00 00 00 00 00 00 00 00 00 00 00 00 00 00 00 ................
00410FF0 00 00 00 00 00 00 00 00 00 00 00 00 00 00 00 00 ................
