00400000 00 00 00 00 00 00 00 00 00 00 00 00 00 00 00 00 ................
00400010 00 00 00 00 00 00 00 00 00 00 00 00 00 00 00 00 ................
00400020 00 00 00 00 00 00 00 00 00 00 00 00 00 00 00 00 ................
00400030 00 00 00 00 00 00 00 00 00 00 00 00 00 00 00 00 ................
00400040 00 00 00 00 00 00 00 00 00 00 00 00 00 00 00 00 ................
00400050 00 00 00 00 00 00 00 00 00 00 00 00 00 00 00 00 ................
00400060 00 00 00 00 00 00 00 00 00 00 00 00 00 00 00 00 ................
00400070 00 00 00 00 00 00 00 00 00 00 00 00 00 00 00 00 ................
00400080 00 00 00 00 00 00 00 00 00 00 00 00 00 00 00 00 ................
00400090 00 00 00 00 00 00 00 00 00 00 00 00 00 00 00 00 ................
004000A0 00 00 00 00 00 00 00 00 00 00 00 00 00 00 00 00 ................
004000B0 00 00 00 00 00 00 00 00 00 00 00 00 00 00 00 00 ................
004000C0 00 00 00 00 00 00 00 00 00 00 00 00 00 00 00 00 ................
004000D0 00 00 00 00 00 00 00 00 00 00 00 00 00 00 00 00 ................
004000E0 00 00 00 00 00 00 00 00 00 00 00 00 00 00 00 00 ................
004000F0 00 00 00 00 00 00 00 00 00 00 00 00 00 00 00 00 ................
00400100 00 00 00 00 00 00 00 00 00 00 00 00 00 00 00 00 ................
00400110 00 00 00 00 00 00 00 00 00 00 00 00 00 00 00 00 ................
00400120 00 00 00 00 00 00 00 00 00 00 00 00 00 00 00 00 ................
00400130 00 00 00 00 00 00 00 00 00 00 00 00 00 00 00 00 ................
00400140 00 00 00 00 00 00 00 00 00 00 00 00 00 00 00 00 ................
00400150 00 00 00 00 00 00 00 00 00 00 00 00 00 00 00 00 ................
00400160 00 00 00 00 00 00 00 00 00 00 00 00 00 00 00 00 ................
00400170 00 00 00 00 00 00 00 00 00 00 00 00 00 00 00 00 ................
00400180 00 00 00 00 00 00 00 00 00 00 00 00 00 00 00 00 ................
00400190 00 00 00 00 00 00 00 00 00 00 00 00 00 00 00 00 ................
004001A0 00 00 00 00 00 00 00 00 00 00 00 00 00 00 00 00 ................
004001B0 00 00 00 00 00 00 00 00 00 00 00 00 00 00 00 00 ................
004001C0 00 00 00 00 00 00 00 00 00 00 00 00 00 00 00 00 ................
004001D0 00 00 00 00 00 00 00 00 00 00 00 00 00 00 00 00 ................
004001E0 00 00 00 00 00 00 00 00 00 00 00 00 00 00 00 00 ................
004001F0 00 00 00 00 00 00 00 00 00 00 00 00 00 00 00 00 ................
00400200 00 00 00 00 00 00 00 00 00 00 00 00 00 00 00 00 ................
00400210 00 00 00 00 00 00 00 00 00 00 00 00 00 00 00 00 ................
00400220 00 00 00 00 00 00 00 00 00 00 00 00 00 00 00 00 ................
00400230 00 00 00 00 00 00 00 00 00 00 00 00 00 00 00 00 ................
00400240 00 00 00 00 00 00 00 00 00 00 00 00 00 00 00 00 ................
00400250 00 00 00 00 00 00 00 00 00 00 00 00 00 00 00 00 ................
00400260 00 00 00 00 00 00 00 00 00 00 00 00 00 00 00 00 ................
00400270 00 00 00 00 00 00 00 00 00 00 00 00 00 00 00 00 ................
00400280 00 00 00 00 00 00 00 00 00 00 00 00 00 00 00 00 ................
00400290 00 00 00 00 00 00 00 00 00 00 00 00 00 00 00 00 ................
004002A0 00 00 00 00 00 00 00 00 00 00 00 00 00 00 00 00 ................
004002B0 00 00 00 00 00 00 00 00 00 00 00 00 00 00 00 00 ................
004002C0 00 00 00 00 00 00 00 00 00 00 00 00 00 00 00 00 ................
004002D0 00 00 00 00 00 00 00 00 00 00 00 00 00 00 00 00 ................
004002E0 00 00 00 00 00 00 00 00 00 00 00 00 00 00 00 00 ................
004002F0 00 00 00 00 00 00 00 00 00 00 00 00 00 00 00 00 ................
00400300 00 00 00 00 00 00 00 00 00 00 00 00 00 00 00 00 ................
00400310 00 00 00 00 00 00 00 00 00 00 00 00 00 00 00 00 ................
00400320 00 00 00 00 00 00 00 00 00 00 00 00 00 00 00 00 ................
00400330 00 00 00 00 00 00 00 00 00 00 00 00 00 00 00 00 ................
00400340 00 00 00 00 00 00 00 00 00 00 00 00 00 00 00 00 ................
00400350 00 00 00 00 00 00 00 00 00 00 00 00 00 00 00 00 ................
00400360 00 00 00 00 00 00 00 00 00 00 00 00 00 00 00 00 ................
00400370 00 00 00 00 00 00 00 00 00 00 00 00 00 00 00 00 ................
00400380 00 00 00 00 00 00 00 00 00 00 00 00 00 00 00 00 ................
00400390 00 00 00 00 00 00 00 00 00 00 00 00 00 00 00 00 ................
004003A0 00 00 00 00 00 00 00 00 00 00 00 00 00 00 00 00 ................
004003B0 00 00 00 00 00 00 00 00 00 00 00 00 00 00 00 00 ................
004003C0 00 00 00 00 00 00 00 00 00 00 00 00 00 00 00 00 ................
004003D0 00 00 00 00 00 00 00 00 00 00 00 00 00 00 00 00 ................
004003E0 00 00 00 00 00 00 00 00 00 00 00 00 00 00 00 00 ................
004003F0 00 00 00 00 00 00 00 00 00 00 00 00 00 00 00 00 ................
00400400 00 00 00 00 00 00 00 00 00 00 00 00 00 00 00 00 ................
00400410 00 00 00 00 00 00 00 00 00 00 00 00 00 00 00 00 ................
00400420 00 00 00 00 00 00 00 00 00 00 00 00 00 00 00 00 ................
00400430 00 00 00 00 00 00 00 00 00 00 00 00 00 00 00 00 ................
00400440 00 00 00 00 00 00 00 00 00 00 00 00 00 00 00 00 ................
00400450 00 00 00 00 00 00 00 00 00 00 00 00 00 00 00 00 ................
00400460 00 00 00 00 00 00 00 00 00 00 00 00 00 00 00 00 ................
00400470 00 00 00 00 00 00 00 00 00 00 00 00 00 00 00 00 ................
00400480 00 00 00 00 00 00 00 00 00 00 00 00 00 00 00 00 ................
00400490 00 00 00 00 00 00 00 00 00 00 00 00 00 00 00 00 ................
004004A0 00 00 00 00 00 00 00 00 00 00 00 00 00 00 00 00 ................
004004B0 00 00 00 00 00 00 00 00 00 00 00 00 00 00 00 00 ................
004004C0 00 00 00 00 00 00 00 00 00 00 00 00 00 00 00 00 ................
004004D0 00 00 00 00 00 00 00 00 00 00 00 00 00 00 00 00 ................
004004E0 00 00 00 00 00 00 00 00 00 00 00 00 00 00 00 00 ................
004004F0 00 00 00 00 00 00 00 00 00 00 00 00 00 00 00 00 ................
00400500 00 00 00 00 00 00 00 00 00 00 00 00 00 00 00 00 ................
00400510 00 00 00 00 00 00 00 00 00 00 00 00 00 00 00 00 ................
00400520 00 00 00 00 00 00 00 00 00 00 00 00 00 00 00 00 ................
00400530 00 00 00 00 00 00 00 00 00 00 00 00 00 00 00 00 ................
00400540 00 00 00 00 00 00 00 00 00 00 00 00 00 00 00 00 ................
00400550 00 00 00 00 00 00 00 00 00 00 00 00 00 00 00 00 ................
00400560 00 00 00 00 00 00 00 00 00 00 00 00 00 00 00 00 ................
00400570 00 00 00 00 00 00 00 00 00 00 00 00 00 00 00 00 ................
00400580 00 00 00 00 00 00 00 00 00 00 00 00 00 00 00 00 ................
00400590 00 00 00 00 00 00 00 00 00 00 00 00 00 00 00 00 ................
004005A0 00 00 00 00 00 00 00 00 00 00 00 00 00 00 00 00 ................
004005B0 00 00 00 00 00 00 00 00 00 00 00 00 00 00 00 00 ................
004005C0 00 00 00 00 00 00 00 00 00 00 00 00 00 00 00 00 ................
004005D0 00 00 00 00 00 00 00 00 00 00 00 00 00 00 00 00 ................
004005E0 00 00 00 00 00 00 00 00 00 00 00 00 00 00 00 00 ................
004005F0 00 00 00 00 00 00 00 00 00 00 00 00 00 00 00 00 ................
00400600 00 00 00 00 00 00 00 00 00 00 00 00 00 00 00 00 ................
00400610 00 00 00 00 00 00 00 00 00 00 00 00 00 00 00 00 ................
00400620 00 00 00 00 00 00 00 00 00 00 00 00 00 00 00 00 ................
00400630 00 00 00 00 00 00 00 00 00 00 00 00 00 00 00 00 ................
00400640 00 00 00 00 00 00 00 00 00 00 00 00 00 00 00 00 ................
00400650 00 00 00 00 00 00 00 00 00 00 00 00 00 00 00 00 ................
00400660 00 00 00 00 00 00 00 00 00 00 00 00 00 00 00 00 ................
00400670 00 00 00 00 00 00 00 00 00 00 00 00 00 00 00 00 ................
00400680 00 00 00 00 00 00 00 00 00 00 00 00 00 00 00 00 ................
00400690 00 00 00 00 00 00 00 00 00 00 00 00 00 00 00 00 ................
004006A0 00 00 00 00 00 00 00 00 00 00 00 00 00 00 00 00 ................
004006B0 00 00 00 00 00 00 00 00 00 00 00 00 00 00 00 00 ................
004006C0 00 00 00 00 00 00 00 00 00 00 00 00 00 00 00 00 ................
004006D0 00 00 00 00 00 00 00 00 00 00 00 00 00 00 00 00 ................
004006E0 00 00 00 00 00 00 00 00 00 00 00 00 00 00 00 00 ................
004006F0 00 00 00 00 00 00 00 00 00 00 00 00 00 00 00 00 ................
00400700 00 00 00 00 00 00 00 00 00 00 00 00 00 00 00 00 ................
00400710 00 00 00 00 00 00 00 00 00 00 00 00 00 00 00 00 ................
00400720 00 00 00 00 00 00 00 00 00 00 00 00 00 00 00 00 ................
00400730 00 00 00 00 00 00 00 00 00 00 00 00 00 00 00 00 ................
00400740 00 00 00 00 00 00 00 00 00 00 00 00 00 00 00 00 ................
00400750 00 00 00 00 00 00 00 00 00 00 00 00 00 00 00 00 ................
00400760 00 00 00 00 00 00 00 00 00 00 00 00 00 00 00 00 ................
00400770 00 00 00 00 00 00 00 00 00 00 00 00 00 00 00 00 ................
00400780 00 00 00 00 00 00 00 00 00 00 00 00 00 00 00 00 ................
00400790 00 00 00 00 00 00 00 00 00 00 00 00 00 00 00 00 ................
004007A0 00 00 00 00 00 00 00 00 00 00 00 00 00 00 00 00 ................
004007B0 00 00 00 00 00 00 00 00 00 00 00 00 00 00 00 00 ................
004007C0 00 00 00 00 00 00 00 00 00 00 00 00 00 00 00 00 ................
004007D0 00 00 00 00 00 00 00 00 00 00 00 00 00 00 00 00 ................
004007E0 00 00 00 00 00 00 00 00 00 00 00 00 00 00 00 00 ................
004007F0 00 00 00 00 00 00 00 00 00 00 00 00 00 00 00 00 ................
00400800 00 00 00 00 00 00 00 00 00 00 00 00 00 00 00 00 ................
00400810 00 00 00 00 00 00 00 00 00 00 00 00 00 00 00 00 ................
00400820 00 00 00 00 00 00 00 00 00 00 00 00 00 00 00 00 ................
00400830 00 00 00 00 00 00 00 00 00 00 00 00 00 00 00 00 ................
00400840 00 00 00 00 00 00 00 00 00 00 00 00 00 00 00 00 ................
00400850 00 00 00 00 00 00 00 00 00 00 00 00 00 00 00 00 ................
00400860 00 00 00 00 00 00 00 00 00 00 00 00 00 00 00 00 ................
00400870 00 00 00 00 00 00 00 00 00 00 00 00 00 00 00 00 ................
00400880 00 00 00 00 00 00 00 00 00 00 00 00 00 00 00 00 ................
00400890 00 00 00 00 00 00 00 00 00 00 00 00 00 00 00 00 ................
004008A0 00 00 00 00 00 00 00 00 00 00 00 00 00 00 00 00 ................
004008B0 00 00 00 00 00 00 00 00 00 00 00 00 00 00 00 00 ................
004008C0 00 00 00 00 00 00 00 00 00 00 00 00 00 00 00 00 ................
004008D0 00 00 00 00 00 00 00 00 00 00 00 00 00 00 00 00 ................
004008E0 00 00 00 00 00 00 00 00 00 00 00 00 00 00 00 00 ................
004008F0 00 00 00 00 00 00 00 00 00 00 00 00 00 00 00 00 ................
00400900 00 00 00 00 00 00 00 00 00 00 00 00 00 00 00 00 ................
00400910 00 00 00 00 00 00 00 00 00 00 00 00 00 00 00 00 ................
00400920 00 00 00 00 00 00 00 00 00 00 00 00 00 00 00 00 ................
00400930 00 00 00 00 00 00 00 00 00 00 00 00 00 00 00 00 ................
00400940 00 00 00 00 00 00 00 00 00 00 00 00 00 00 00 00 ................
00400950 00 00 00 00 00 00 00 00 00 00 00 00 00 00 00 00 ................
00400960 00 00 00 00 00 00 00 00 00 00 00 00 00 00 00 00 ................
00400970 00 00 00 00 00 00 00 00 00 00 00 00 00 00 00 00 ................
00400980 00 00 00 00 00 00 00 00 00 00 00 00 00 00 00 00 ................
00400990 00 00 00 00 00 00 00 00 00 00 00 00 00 00 00 00 ................
004009A0 00 00 00 00 00 00 00 00 00 00 00 00 00 00 00 00 ................
004009B0 00 00 00 00 00 00 00 00 00 00 00 00 00 00 00 00 ................
004009C0 00 00 00 00 00 00 00 00 00 00 00 00 00 00 00 00 ................
004009D0 00 00 00 00 00 00 00 00 00 00 00 00 00 00 00 00 ................
004009E0 00 00 00 00 00 00 00 00 00 00 00 00 00 00 00 00 ................
004009F0 00 00 00 00 00 00 00 00 00 00 00 00 00 00 00 00 ................
00400A00 00 00 00 00 00 00 00 00 00 00 00 00 00 00 00 00 ................
00400A10 00 00 00 00 00 00 00 00 00 00 00 00 00 00 00 00 ................
00400A20 00 00 00 00 00 00 00 00 00 00 00 00 00 00 00 00 ................
00400A30 00 00 00 00 00 00 00 00 00 00 00 00 00 00 00 00 ................
00400A40 00 00 00 00 00 00 00 00 00 00 00 00 00 00 00 00 ................
00400A50 00 00 00 00 00 00 00 00 00 00 00 00 00 00 00 00 ................
00400A60 00 00 00 00 00 00 00 00 00 00 00 00 00 00 00 00 ................
00400A70 00 00 00 00 00 00 00 00 00 00 00 00 00 00 00 00 ................
00400A80 00 00 00 00 00 00 00 00 00 00 00 00 00 00 00 00 ................
00400A90 00 00 00 00 00 00 00 00 00 00 00 00 00 00 00 00 ................
00400AA0 00 00 00 00 00 00 00 00 00 00 00 00 00 00 00 00 ................
00400AB0 00 00 00 00 00 00 00 00 00 00 00 00 00 00 00 00 ................
00400AC0 00 00 00 00 00 00 00 00 00 00 00 00 00 00 00 00 ................
00400AD0 00 00 00 00 00 00 00 00 00 00 00 00 00 00 00 00 ................
00400AE0 00 00 00 00 00 00 00 00 00 00 00 00 00 00 00 00 ................
00400AF0 00 00 00 00 00 00 00 00 00 00 00 00 00 00 00 00 ................
00400B00 00 00 00 00 00 00 00 00 00 00 00 00 00 00 00 00 ................
00400B10 00 00 00 00 00 00 00 00 00 00 00 00 00 00 00 00 ................
00400B20 00 00 00 00 00 00 00 00 00 00 00 00 00 00 00 00 ................
00400B30 00 00 00 00 00 00 00 00 00 00 00 00 00 00 00 00 ................
00400B40 00 00 00 00 00 00 00 00 00 00 00 00 00 00 00 00 ................
00400B50 00 00 00 00 00 00 00 00 00 00 00 00 00 00 00 00 ................
00400B60 00 00 00 00 00 00 00 00 00 00 00 00 00 00 00 00 ................
00400B70 00 00 00 00 00 00 00 00 00 00 00 00 00 00 00 00 ................
00400B80 00 00 00 00 00 00 00 00 00 00 00 00 00 00 00 00 ................
00400B90 00 00 00 00 00 00 00 00 00 00 00 00 00 00 00 00 ................
00400BA0 00 00 00 00 00 00 00 00 00 00 00 00 00 00 00 00 ................
00400BB0 00 00 00 00 00 00 00 00 00 00 00 00 00 00 00 00 ................
00400BC0 00 00 00 00 00 00 00 00 00 00 00 00 00 00 00 00 ................
00400BD0 00 00 00 00 00 00 00 00 00 00 00 00 00 00 00 00 ................
00400BE0 00 00 00 00 00 00 00 00 00 00 00 00 00 00 00 00 ................
00400BF0 00 00 00 00 00 00 00 00 00 00 00 00 00 00 00 00 ................
00400C00 00 00 00 00 00 00 00 00 00 00 00 00 00 00 00 00 ................
00400C10 00 00 00 00 00 00 00 00 00 00 00 00 00 00 00 00 ................
00400C20 00 00 00 00 00 00 00 00 00 00 00 00 00 00 00 00 ................
00400C30 00 00 00 00 00 00 00 00 00 00 00 00 00 00 00 00 ................
00400C40 00 00 00 00 00 00 00 00 00 00 00 00 00 00 00 00 ................
00400C50 00 00 00 00 00 00 00 00 00 00 00 00 00 00 00 00 ................
00400C60 00 00 00 00 00 00 00 00 00 00 00 00 00 00 00 00 ................
00400C70 00 00 00 00 00 00 00 00 00 00 00 00 00 00 00 00 ................
00400C80 00 00 00 00 00 00 00 00 00 00 00 00 00 00 00 00 ................
00400C90 00 00 00 00 00 00 00 00 00 00 00 00 00 00 00 00 ................
00400CA0 00 00 00 00 00 00 00 00 00 00 00 00 00 00 00 00 ................
00400CB0 00 00 00 00 00 00 00 00 00 00 00 00 00 00 00 00 ................
00400CC0 00 00 00 00 00 00 00 00 00 00 00 00 00 00 00 00 ................
00400CD0 00 00 00 00 00 00 00 00 00 00 00 00 00 00 00 00 ................
00400CE0 00 00 00 00 00 00 00 00 00 00 00 00 00 00 00 00 ................
00400CF0 00 00 00 00 00 00 00 00 00 00 00 00 00 00 00 00 ................
00400D00 00 00 00 00 00 00 00 00 00 00 00 00 00 00 00 00 ................
00400D10 00 00 00 00 00 00 00 00 00 00 00 00 00 00 00 00 ................
00400D20 00 00 00 00 00 00 00 00 00 00 00 00 00 00 00 00 ................
00400D30 00 00 00 00 00 00 00 00 00 00 00 00 00 00 00 00 ................
00400D40 00 00 00 00 00 00 00 00 00 00 00 00 00 00 00 00 ................
00400D50 00 00 00 00 00 00 00 00 00 00 00 00 00 00 00 00 ................
00400D60 00 00 00 00 00 00 00 00 00 00 00 00 00 00 00 00 ................
00400D70 00 00 00 00 00 00 00 00 00 00 00 00 00 00 00 00 ................
00400D80 00 00 00 00 00 00 00 00 00 00 00 00 00 00 00 00 ................
00400D90 00 00 00 00 00 00 00 00 00 00 00 00 00 00 00 00 ................
00400DA0 00 00 00 00 00 00 00 00 00 00 00 00 00 00 00 00 ................
00400DB0 00 00 00 00 00 00 00 00 00 00 00 00 00 00 00 00 ................
00400DC0 00 00 00 00 00 00 00 00 00 00 00 00 00 00 00 00 ................
00400DD0 00 00 00 00 00 00 00 00 00 00 00 00 00 00 00 00 ................
00400DE0 00 00 00 00 00 00 00 00 00 00 00 00 00 00 00 00 ................
00400DF0 00 00 00 00 00 00 00 00 00 00 00 00 00 00 00 00 ................
00400E00 00 00 00 00 00 00 00 00 00 00 00 00 00 00 00 00 ................
00400E10 00 00 00 00 00 00 00 00 00 00 00 00 00 00 00 00 ................
00400E20 00 00 00 00 00 00 00 00 00 00 00 00 00 00 00 00 ................
00400E30 00 00 00 00 00 00 00 00 00 00 00 00 00 00 00 00 ................
00400E40 00 00 00 00 00 00 00 00 00 00 00 00 00 00 00 00 ................
00400E50 00 00 00 00 00 00 00 00 00 00 00 00 00 00 00 00 ................
00400E60 00 00 00 00 00 00 00 00 00 00 00 00 00 00 00 00 ................
00400E70 00 00 00 00 00 00 00 00 00 00 00 00 00 00 00 00 ................
00400E80 00 00 00 00 00 00 00 00 00 00 00 00 00 00 00 00 ................
00400E90 00 00 00 00 00 00 00 00 00 00 00 00 00 00 00 00 ................
00400EA0 00 00 00 00 00 00 00 00 00 00 00 00 00 00 00 00 ................
00400EB0 00 00 00 00 00 00 00 00 00 00 00 00 00 00 00 00 ................
00400EC0 00 00 00 00 00 00 00 00 00 00 00 00 00 00 00 00 ................
00400ED0 00 00 00 00 00 00 00 00 00 00 00 00 00 00 00 00 ................
00400EE0 00 00 00 00 00 00 00 00 00 00 00 00 00 00 00 00 ................
00400EF0 00 00 00 00 00 00 00 00 00 00 00 00 00 00 00 00 ................
00400F00 00 00 00 00 00 00 00 00 00 00 00 00 00 00 00 00 ................
00400F10 00 00 00 00 00 00 00 00 00 00 00 00 00 00 00 00 ................
00400F20 00 00 00 00 00 00 00 00 00 00 00 00 00 00 00 00 ................
00400F30 00 00 00 00 00 00 00 00 00 00 00 00 00 00 00 00 ................
00400F40 00 00 00 00 00 00 00 00 00 00 00 00 00 00 00 00 ................
00400F50 00 00 00 00 00 00 00 00 00 00 00 00 00 00 00 00 ................
00400F60 00 00 00 00 00 00 00 00 00 00 00 00 00 00 00 00 ................
00400F70 00 00 00 00 00 00 00 00 00 00 00 00 00 00 00 00 ................
00400F80 00 00 00 00 00 00 00 00 00 00 00 00 00 00 00 00 ................
00400F90 00 00 00 00 00 00 00 00 00 00 00 00 00 00 00 00 ................
00400FA0 00 00 00 00 00 00 00 00 00 00 00 00 00 00 00 00 ................
00400FB0 00 00 00 00 00 00 00 00 00 00 00 00 00 00 00 00 ................
00400FC0 00 00 00 00 00 00 00 00 00 00 00 00 00 00 00 00 ................
00400FD0 00 00 00 00 00 00 00 00 00 00 00 00 00 00 00 00 ................
00400FE0 00 00 00 00 00 00 00 00 00 00 00 00 00 00 00 00 ................
00400FF0 00 00 00 00 00 00 00 00 00 00 00 00 00 00 00 00 ................
00401000 3C 71 6B F9 03 59 0B F3 03 CE 8B F3 4A 40 4E 4B <qk..Y......J@NK
00401010 0B DA 7E 0C F3 66 50 66 58 7F 05 CD 9C D2 02 7D ..~..fPfX......}
00401020 41 40 2B F2 03 CB 8B C1 33 CF 33 CA 8B D9 E9 44 A@+.....3.3....D
00401030 01 00 00 C1 89 24 6C 05 6F 6A                   .....$l.oj     

fn0040103A()
	xchg	[esp],eax
	rep	
	mov	cl,cl
	pop	eax
	or	eax,eax
	jz	00401046
	ret	
	sub	ecx,esi
	or	edx,edi
	xor	edx,eax
	jmp	0040131E
	test	al,E1
	adc	al,DD
	mov	esi,DE034777

fn00401057()
	inc	edi
	add	ebx,esi
	sub	edi,ecx
	inc	ecx
	add	ecx,eax
	sub	edx,ecx
	or	esi,eax
	or	edx,ebx
	jl	0040122D

l0040106B:
	xchg	bh,bh
	mov	bh,bh
	jge	0040122D

l00401075:
	add	[esi+4B],ebx
	mov	edi,1B30FBAD

fn0040107D()
	adc	dh,E7
	neg	dl
	inc	dl
	adc	bh,35
	adc	dl,BB
	dec	ebx
	not	cl
	mov	esi,eax
	sbb	ch,DB
	call	0040119F
	or	esp,esi
	push	esp
	mov	[ebx+ecx*4-29],ebx

fn0040109C()
	mov	edx,edi
	inc	ecx
	xor	ebx,eax
	xor	ebx,ecx
	mov	ebx,edi
	inc	edx
	add	ecx,edx
	jle	004012BF

l004010AE:
	push	di
	pop	di
	jg	004012BF

l004010B8:
	add	bl,dl
	or	[edi],ah
	in	eax,5E

fn004010BE()
	add	ebx,eax
	xor	ebx,eax
	inc	edi
	sub	edi,ebx
	inc	edi
	add	ecx,eax
	dec	edi
	inc	edx
	inc	ebx
	and	eax,EEEEEEEE
	jbe	0040109C

fn004010D2()
	mov	dx,dx
	ja	0040109C

l004010D7:
	adc	al,24
	xchg	eax,esi
	mov	esi,DE3341EE

fn004010DC()
	inc	ecx
	xor	ebx,esi

fn004010DF()
	inc	edx
	dec	ecx
	add	edx,edi
	add	ecx,ebx
	or	edi,eax
	mov	ebx,esi
	mov	eax,fs:[00000030]
	jle	00401057

fn004010F5()
	repne	
	jmp	004010FC
	leave	
	jg	00401057
	push	ebp
	illegal	
	les	esi,edx

fn00401106()
	sub	ch,bl
	adc	ch,91
	add	esi,edi
	xor	ebx,esi
	mov	ecx,edx
	dec	ebx
	mov	dl,EF
	sub	edx,esi
	neg	dl
	jmp	0040135F
0040111D                                        EB 80 D0              ...
00401120 04 03 CF 4A C9 4E 40 2B FB E8 4A 01 00 00 F6 2D ...J.N@+..J....-
00401130 2B E6                                           +.             

l00401132:
	inc	esi
	mov	eax,[eax+08]
	sub	ebx,ecx
	or	ebx,edi
	add	edx,edi
	mov	edi,edx
	sub	edi,esi
	xor	edx,edi
	jl	004010BE

l00401148:
	xchg	al,al
	push	si
	pop	si
	jge	004010BE

l00401154:
	push	8DD4BE21

fn00401158()
	lea	esp,[esp+04]

fn00401159()
	and	al,04
	xor	ebx,esi
	add	esi,edi
	xor	edi,ebx
	dec	ebx
	inc	ebx
	inc	edi
	dec	edi
	mov	ebx,ecx
	xor	edx,esi
	call	0040103A
	pop	ds
	sub	edi,ebp
	out	dx,al
	scasd	
	dec	esp
	mov	cs,bx
	sub	ecx,edx
	inc	edi
	or	eax,ebx
	add	eax,esi
	mov	esi,ebx
	mov	edi,ebx
	mov	edi,ecx
	mov	edx,ecx
	jmp	0040137B

fn0040118B()
	mov	[esp],edi
	rep	
	pop	edi
	add	esi,ecx
	inc	esi
	add	esi,edi
	inc	esi
	jmp	0040120E
	mov	eax,80CF11EE
	jl	00401199

fn0040119F()
	lea	esp,[esp+04]
	dec	dh
	inc	esi
	or	edi,edx
	sbb	cl,A2
	mov	edx,esi
	sub	dh,ah
	mov	dh,bh
	call	0040129C
	pop	es
	ja	0040122D
	les	ebp,[edx+CE0BCA03]

fn004011BB()
	add	ecx,edx
	or	ecx,esi
	xor	esi,edi
	or	ecx,edx
	or	esi,edi
	sub	esi,eax
	jmp	004011EB
004011C9                            AF 02 E9 9B BB 5F D5          ....._.
004011D0 51                                              Q              

fn004011D1()
	sub	esi,ecx
	mov	ecx,edi
	sub	edi,ebx
	sub	esi,edx
	or	esi,ecx
	sub	esi,eax
	sub	ebx,esi
	jo	0040124B

l004011E1:
	lea	si,[esi]
	jno	0040124B

l004011E6:
	push	ecx
	dec	edx
	insd	
	jo	00401233

fn004011EB()
	inc	edi

fn004011EC()
	xor	edx,ebx
	mov	edx,edi
	dec	edx
	add	ebx,ecx
	add	ebx,eax
	dec	edx
	xor	edi,ecx
	add	ecx,edi
	or	esi,edx
	jo	00401132

l00401202:
	xchg	edi,edi
	jno	00401132

l0040120A:
	pop	ds
	and	al,93
	loop	00401212

l0040120F:
	sti	
	mov	ecx,ebx

l00401212:
	add	edi,esi
	or	ecx,eax
	sub	ecx,edx
	mov	edi,edx
	jc	004012DE

l00401220:
	xchg	esi,esi
	rep	
	jnc	004012DE
	jnc	00401233
	ret	036F

fn0040122D()
	add	ebx,edi
	add	edx,ebx
	or	esi,edi

fn00401233()
	add	edi,ebx
	or	ebx,edx
	add	edi,eax
	mov	eax,[eax+00000090]
	dec	ecx
	mov	edi,ecx
	call	0040118B
	and	eax,46B6A069

l0040124B:
	inc	esi

l0040124C:
	add	edx,ecx
	dec	edx
	sub	ecx,edi
	add	edi,ecx
	or	edx,eax
	or	ecx,edi
	add	esi,edi
	or	ecx,esi
	sub	ebx,ecx
	jbe	00401342

l00401263:
	jmp	00401268

l00401268:
	jmp	0040126D

l0040126D:
	ja	00401342

l00401273:
	push	cs
	xchg	eax,ebp
	retf	7C15
00401278                         89 0C 24 66 87 C9 59 03         ..$f..Y.
00401280 CF 41 03 D6 33 DE 43 8B FB 47 0F 84 76 FD FF FF .A..3.C..G..v...
00401290 7A 00 0F 85 6E FD FF FF 9F E2 06 FC             z...n.......   

fn0040129C()
	lea	esp,[esp+04]
	sbb	bh,D1
	sub	dl,al
	sub	ecx,esi
	add	cl,4C
	sub	edi,ebx
	jo	00401106

l004012B2:
	rep	
	lea	ebx,[ebx]
	jno	00401106
	add	esi,[eax+26]
	sub	dword ptr [ebx],8BDA0BCB

fn004012BF()
	sub	ecx,ebx
	or	ebx,edx
	mov	ecx,eax
	or	esi,edx
	xor	edx,ebx
	add	esi,eax
	sub	eax,EEEEEEEE
	sub	esi,eax
	call	00401158
	shl	dword ptr [ebx+85F6CC5F],D4

fn004012DE()
	or	ebx,edi
	add	edx,edi
	xor	esi,ebx
	sub	ecx,esi
	sub	ebx,edi
	mov	esi,edx
	or	ecx,edx
	mov	ebx,eax
	mov	eax,[eax]
	jle	004011BB

l004012F6:
	mov	cl,cl
	jg	004011BB

l004012FE:
	bound	esi,[ecx+esi-2F]

fn00401302()
	push	ebp
	mov	ebp,esp
	or	ebx,ecx
	dec	edi
	sub	edx,edi
	inc	ecx
	mov	esi,edx
	inc	edi
	xor	edx,eax
	or	edi,edx
	sub	edi,edx

fn00401314()
	jmp	004011D1
00401319                            7D 04 EB D1 8C 2B FB          }....+.
00401320 4A 03 D1 0B D9 33 C8 03 FA 46 2B FB 0F 8A EF FD J....3...F+.....
00401330 FF FF 66 8B D2 0F 8B E6 FD FF FF A4 9E 9B F8 86 ..f.............
00401340 71 72                                           qr             

l00401342:
	add	edx,eax
	neg	dl
	mov	bh,68
	add	edx,edi
	neg	cl
	or	dl,cl
	or	ebx,eax
	xor	edx,esi
	sub	ch,ah
	jmp	0040107D
00401359                            13 5F DC AA 32 4D             ._..2M

l0040135F:
	sub	edi,edx
	sbb	dl,A3
	mov	ecx,edi
	mov	ecx,ebx
	mov	ecx,esi
	mov	edx,ecx
	add	esi,ebx
	xor	edi,ebx
	inc	ebx
	jmp	004010DC
00401376                   43 01 81 4A C0                      C..J.    

fn0040137B()
	call	00402705
	jns	00401314

l00401382:
	inc	esp
	f2xm1	st(0),st(0)
	cmpsd	
	jge	00401373
	imul	byte ptr [esp+esi]
	xchg	[ebp+AD5885D0],ebp
	inc	edi
	and	al,34
	xor	al,34
	lodsd	
	xchg	[eax],dh
	retf	
	retf	
	sub	al,34
	xor	al,DE
	stosb	
	adc	al,C8
	xchg	eax,edx
	xor	[edi+34343688],esi
	daa	
	mov	dh,DE
	test	[ebp+1D],ch
	cmc	
	xor	[edi+3434381F],esi
	lodsd	
	jns	004013D1
	xor	eax,A9317BF6
	xor	[ebp+ebp*4+79],ch
	inc	eax
	xor	eax,383FCBF6
	xor	al,34
	xchg	[ecx],dl
	and	dh,[edx+09]
	jcxz	004013BC
	imul	byte ptr [esp+esi]
	xchg	[ebp+898A85D0],ebp
	lodsd	
	pop	edi
	xor	[eax-53],bl
	aas	
	and	al,34
	xor	al,34
	lodsd	
	jge	00401417
	retf	
	and	[EADA3434],dh
	push	cs
	rcl	byte ptr [ecx+0F43ECF3],66
	ror	edx,cl
	dec	eax
	stosd	
	ja	00401440
	and	eax,3067E906
	scasb	
	js	0040143F
	loope	004013B4
	sbb	[esi],bh
	lodsb	
	pop	eax
	cmp	esp,ecx
	lodsb	
	cmp	[esi],bh
	retf	
	mov	esi,5934343A
	fcomp	dword ptr [edi-6A]
	int	03
	stosd	
	xor	esi,[esp+esi]
	loope	00401423
	lodsd	
	ja	0040144E
	jmp	0040141A
	sub	al,34
	xchg	[ebp+B4344CD0],ebp
	xor	al,34
	scasd	
	ja	00401461
	test	bl,cl
	pop	es
	xor	al,34
	xor	al,92
	xlat	
	outsb	
	mov	al,[64E1E3C1]
	sub	[ebp+342BE5CC],al
	xor	al,7D
	wait	
	xor	al,44
	xor	al,34
	lodsd	
	xchg	esp,edi
	retf	
	pop	ebp
	aaa	
	xor	al,34
	add	ah,[ebp+A91599A8]
	or	eax,38F6EB37
	xor	al,87
	lodsd	
	shl	byte ptr [ebp+77AFE8F8],01
	loopne	004013EE
	mov	bl,5F
	xor	cl,ah
	loope	004014A4
	xor	al,CB
	shl	dword ptr [esp+esi],01
	xor	al,E9
	illegal	
	out	dx,al
	pop	ds
	jno	004014B1
	jge	004014B6
	mov	ch,5D
	cmp	[ecx+esi],ch
	mov	ecx,34343741
	add	dword ptr [edx+46CBEB7D],B6343433
	fidivr	word ptr [ebx+ecx*2]
	imul	byte ptr [esp+esi]
	xchg	[ebp+E0F8B5D0],ebp
	scasd	
	ja	00401481
	test	cl,ah
	inc	esp
	retf	
	xor	al,34
	push	esp
	cmpsd	
	jo	0040143F
	mov	cl,7A
	inc	eax
	int	2E
	lodsd	
	sub	bl,[5CB731E6]
	xor	al,34
	add	dword ptr [edx+342E07CB],4410B834
	push	ds
	mov	ebp,CB2CFAB5
	adc	[ecx],bh
	xor	al,34
	xor	[ecx+DCA9313A],ebp
	pop	edx
	mov	bl,D9
	loope	0040150D
	pop	edx
	rep	
	int	03
	xor	[ebp+3ACB35DC],dh
	cmp	[esp+esi],esi
	push	ebx
	cli	
	sbb	edx,ebp
	xchg	eax,esp
	div	byte ptr ds:[eax]
	xor	al,87
	lodsd	
	rcl	byte ptr [ebp+ebp*4+67],01
	xor	[ebp+A6E02C5F],ch
	mov	ah,25
	std	
	retf	
	xchg	eax,esp
	cmp	dh,[esp+esi]
	jo	00401530
	bound	ebx,[esi+eax*4+77AFD293]
	sub	al,84
	dec	esi
	loope	0040155F
	lodsb	
	adc	dword ptr [esp+edx*8-34],E1E1E251
	dec	esp
	lea	ecx,[ebp+esi-18]
	test	ah,cl
	popa	
	xor	al,34
	xor	al,E1
	add	al,EB
	retf	
	pop	edx
	loope	0040150F
	loope	00401513
	push	ecx
	illegal	
	jnz	00401564
	mov	ds,[edx+ecx*4]
	int	03
	cmpsd	
	loope	0040151C
	loope	0040150A
	xor	cl,ah
	fadd	dword ptr [si+67E1]
	or	ah,cl
	pop	dword ptr [ebx]
	xor	al,34
	jmp	3484F5C6
	xor	al,34
	xor	[eax+34342BEC],edi
	loope	004015C0
	aam	CB
	push	eax
	aaa	
	xor	al,34
	cmpsb	
	loop	004015C3
	or	[ebp+2D],edx
	imul	ebp,[esi],4E3067E1
	xor	al,CB
	test	eax,4E34343A
	xor	al,AF
	ja	0040155E
	test	cl,ah
	xor	[si+C3CB],al
	cmp	dh,[esp+esi]
	ficomp	word ptr [esi]
	jle	0040156D
	mov	eax,[edx]
	rep	
	std	
	cmp	[eax],bl
	xor	ebp,ecx
	add	eax,38FDF302
	sbb	[edx],al
	rep	
	xor	ebp,ecx
	rep	
	scasd	
	imul	esi,[ebx],CB
	ja	004015D2
	xor	al,34
	mov	al,[F6099CFB]
	sub	al,34
	xchg	[ebp+E0F8B5D0],ebp
	test	[edx+2C77AD89],ecx
	xor	eax,87AD2074
	sub	al,CB
	cmpsb	
	xor	esi,[esp+esi]
	jnz	0040161E
	div	byte ptr [ebx]
	les	eax,[ecx+C7CCE067]
	loop	004015AB
	loope	00401559
	mov	ch,22
	xor	al,31
	mov	bh,48
	cmp	[esp+esi],esi
	mov	ch,F5
	dec	eax
	mov	ch,5D
	xor	[ecx+esi],dh
	mov	bh,0B
	sub	al,34
	xor	al,81
	retf	
	insd	
	sub	al,34
	xor	al,2B
	pop	ebx
	rep	
	xor	eax,CB55E486
	sbb	[esp+esi],ebp
	xor	al,83
	lodsd	
	xor	dh,[CDF425EE]
	cmp	dh,bl
	hlt	
	cmp	[esi],esp
	xor	esi,[ebx-4C]
	sbb	esi,[ebx+ecx*8]
	mov	esp,09E1E1DF
	out	dx,ax
	int	CB
	inc	ebx
	lodsd	
	jnc	00401634
	lodsd	
	js	0040164A
	or	al,35
	rep	
	stosd	
	ja	0040160D
	lodsd	
	jg	004015F4
	loope	00401689
	lock	
	retf	
	retf	
	cmp	dh,[esp+esi]
	push	ds
	test	dh,bh
	test	eax,03CCB05A
	in	al,dx
	fld	tword ptr [ebp+77ABDC77]
	cld	
	lodsd	
	ja	0040160C
	retf	
	dec	edx
	aaa	
	xor	al,34
	retf	
	adc	esi,[edi]
	xor	al,34
	retf	
	xor	[edi],dh
	xor	al,34
	inc	edi
	shl	ah,22
	jc	004015D7
	dec	esi
	loope	004015D8
	dec	esp
	lodsb	
	adc	dword ptr [esp+edx*8-34],E1E1DF0F
	dec	esp
	lea	ecx,[ebp+esi-18]
	test	bl,cl
	mov	ecx,B834342C
	nop	
	lahf	
	inc	eax
	test	[edi-72],bl
	xor	eax,84E877AF
	dec	esi
	xor	al,4E
	xor	al,4C
	lodsb	
	adc	dword ptr [esp+edx*8-34],E1E1DF2C
	dec	esp
	stosb	
	loope	0040169F
	and	eax,E13CCC84
	loope	0040166F
	retf	
	sub	[esp+esi],ch
	xor	al,59
	illegal	
	sbb	[edi+744ED0AD],eax
	dec	esp
	xor	al,24
	xor	al,34
	scasd	
	ja	004016D4
	test	bl,cl
	mov	ecx,0034343A
	push	esi
	or	ch,[edx-3D]
	mov	bl,F6
	int	03
	illegal	
	illegal	
	loope	00401732
	mov	ch,F5
	or	al,6B
	sub	eax,41B731EB
	aaa	
	xor	al,34
	loope	0040172C
	int	03
	loope	0040172F
	or	ah,cl
	jl	004016AB
	loope	004016AF
	lodsd	
	outsd	
	aam	CB
	sbb	eax,AEE1E1E1
	cmp	eax,ebp
	xchg	eax,edi
	out	AB,al
	scasd	
	ja	0040170F
	test	[edi+4E842C77],ch
	loope	00401733
	lodsb	
	adc	dword ptr [esp+edx*8-34],E1E1E0BD
	dec	esp
	mov	al,[8465FA30]
	retf	
	dec	esi
	aaa	
	xor	al,34
	mov	ax,ss
	wait	
	push	edx
	idiv	byte ptr [ecx+67E12759]
	fadd	dword ptr [ebp+3435A4CC]
	xor	al,E9
	ja	004016EF
	cmp	[esp+esi],dh
	xor	al,31
	mov	eax,E1E1E217
	test	cl,ah
	or	bl,cl
	inc	edi
	loop	00401702
	loope	004016DF
	int	03
	illegal	
	push	esp
	lodsd	
	test	[eax],esi
	lodsd	
	xor	ch,cl
	aaa	
	retf	
	mov	ah,DF
	loope	00401716
	lodsd	
	jpe	00401778
	sbb	eax,65B731F9
	illegal	
	loope	00401722
	sub	al,B1
	jpe	00401782
	loope	004017AF
	inc	esp
	retf	
	push	esp
	illegal	
	loope	004016F4
	pop	ebx
	jc	004016EE
	in	eax,98
	xor	eax,CEB5E067
	jmp	E62EC55D
	cwde	
	retf	
	das	
	xor	al,34
	retf	
	loop	0040179B
	xor	al,34
	shr	dword ptr [edi+26],DD
	dec	esi
	lodsd	
	jz	004017CE
	xor	eax,ADDCADF6
	adc	al,35
	out	AD,al
	insb	
	cmp	al,AB
	outsd	
	loopne	0040172F
	jg	004017B4
	and	eax,E258CBEB
	loope	0040176C
	mov	edx,BC9855CE
	xor	bl,dl
	adc	eax,343607CC
	xor	al,46
	hlt	
	jmp	34DFCED1
	xor	al,34
	mov	cs,bx
	xor	al,38
	xor	al,34
	int	03
	lock	
	xor	al,34
	or	eax,5CB731ED
	xor	eax,7BCB3434
	xor	eax,99B93434
	pop	ss
	xchg	[eax],ch
	test	[ecx-40],dl
	rep	
	hlt	
	cmp	[esi],esp
	xor	esi,[ebp+B55A36F3]
	sbb	esi,[edi]
	out	27,al
	mov	dh,DE
	test	[ebp+1D],ch
	ja	00401804
	xor	[edi+34343709],esi
	retf	
	in	eax,dx
	aaa	
	xor	al,34
	cmp	[esi+38ADF03E],ebx
	lodsb	
	xor	eax,3A25CBF6
	xor	al,34
	int	36
	and	eax,40CB7BF4
	cmp	dh,[esp+esi]
	cmc	
	lodsd	
	test	al,57
	xchg	eax,edi
	mov	[306FADF4],esp
	lodsd	
	pop	edi
	sub	al,E5
	mov	es,[ecx+E1DDA1CB]
	loope	00401884
	mul	dword ptr [ebx]
	aas	
	out	72,al
	push	es
	mov	dl,25
	hlt	
	int	03
	jo	00401855
	xor	al,34
	xor	[ebp+343436EA],esi
	movsd	
	jnc	004017CF
	inc	esp
	retf	
	push	esi
	loope	00401811
	loope	00401892
	daa	
	pop	ebx
	sahf	
	loope	0040189C
	sbb	al,E1
	inc	eax
	loope	004018A2
	sbb	al,E1
	inc	eax
	loope	004018A8
	inc	eax
	int	03
	push	cs
	cmp	[esp+esi],dh
	int	03
	cld	
	illegal	
	loope	0040181A
	sahf	
	cmp	dh,[esp+esi]
	insb	
	and	al,61
	cmc	
	rcr	byte ptr [eax],A2
	mov	dword ptr [ebp+8A33A5F7],E40DE9AD
	in	eax,98
	or	bl,20
	xor	eax,E0CB3434
	xor	esi,[esp+esi]
	mov	ecx,[ebp+D3193FAE]
	push	edi
	in	al,83
	int	03
	pop	esp
	cmp	dh,[esp+esi]
	lodsd	
	jnz	004018B2
	xor	eax,65E1D477
	sbb	cl,ah
	sub	al,84
	retf	
	adc	al,E2
	loope	00401872
	in	eax,dx
	jl	00401880
	cmp	al,36
	inc	esi
	adc	ebp,[ebp+7435D477]
	and	[ebp+6FAB846C],ch
	add	[esi+74],cl
	loope	0040190F
	add	cl,ah
	aam	CC
	illegal	
	loope	00401892
	lodsd	
	ja	00401888
	retf	
	call	A1744CEF
	pop	esp
	xor	al,ch
	jmp	far CC1F:F10B
	neg	esi
	loope	004018A7
	dec	esp
	jmp	849B68D2
	int	03
	pop	es
	loopne	004018B1
	loope	004018B3
	add	al,AD
	ja	004018B6
	jmp	004018CE
	sub	al,34
	retf	
	xor	dword ptr [esi],CEC53434
	call	dword ptr [edx+48DBB35B]
	xchg	eax,edx
	jns	0040191D
	xor	[edi+3434374E],esi
	jl	004018EF
	dec	eax
	sbb	[esp+ebx*4+35],bh
	xor	al,34
	xor	al,25
	push	es
	pop	edx
	mov	dl,CC
	retf	
	or	al,DF
	loope	004018E5
	adc	gs:[esi+3B],dl
	jg	004018F3
	loope	00401910
	dec	esi
	xor	ebp,[edi+AF84DC77]
	ja	004018FD
	test	bl,cl
	cli	
	cmp	dh,[esp+esi]
	xor	eax,F2DDCE55
	xor	eax,F5B3207D
	adc	al,33
	xor	al,34
	lodsd	
	jge	0040195C
	xor	eax,67E1D47F
	shl	cl,01
	fadd	dword ptr [di+CBCC]
	xor	al,34
	xor	al,E9
	ja	0040191E
	sub	al,34
	xor	al,34
	retf	
	pop	ss
	cmp	[esp+esi],dh
	jo	00401992
	mov	edx,9B0F63B3
	xor	al,34
	xor	al,E9
	jcxz	0040198A
	cld	
	xor	eax,ADFE35FB
	out	dx,al
	retf	
	jcxz	0040193E
	loope	00401942
	inc	ecx
	or	ah,dh
	js	004019DA
	hlt	
	popa	
	lodsd	
	outsd	
	xor	ch,ah
	cwde	
	retf	
	xor	esi,[edi]
	xor	al,34
	lodsd	
	ja	00401955
	or	esi,[edi-24]
	mov	ch,F4
	or	esi,cs:[edi+30]
	mov	ch,5F
	xor	[ebx+ecx*8],dh
	fidivr	dword ptr [eax]
	xor	al,34
	dec	esi
	xor	al,[esi-51]
	out	dx,ax
	dec	edx
	jge	004019BC
	std	
	xor	[eax+E1E1DEE6],edi
	sbb	eax,B831306F
	retf	
	fsubrp	st(1),st(0)
	loope	004019D5
	jg	004019CE
	retf	
	or	esi,ebx
	loope	00401988
	lodsd	
	insd	
	cmp	[ebp+E5AD2CCB],dh
	retf	
	inc	edi
	illegal	
	loope	00401A10
	push	ss
	xchg	eax,ebp
	in	eax,dx
	mov	ah,E3
	inc	ebp
	repne	
	push	es
	hlt	
	scasb	
	out	dx,al
	push	es
	in	al,dx
	jpo	00401990
	sub	al,38
	xor	al,34
	xchg	[edx+edx*4+39],ecx
	loop	004019A2
	lodsd	
	ja	004019C2
	jmp	00401981
	call	4C85148E
	xor	al,74
	xor	al,34
	stosd	
	jo	004019F8
	hlt	
	scasd	
	jo	004019FC
	hlt	
	sub	dword ptr [ebx+AFF41888],88
	sbb	ah,dh
	retf	
	jg	004019D1
	loope	004019D4
	stosd	
	fclex	
	fiadd	word ptr [edx+ebp*4-70]
	int	03
	pop	esp
	xor	al,34
	xor	al,1F
	xor	al,5F
	xor	al,34
	xor	dh,gs:[eax+B52E6537]
	fsub	double ptr [ecx+31]
	mov	ecx,E1E1E27A
	jnc	00401A89
	retf	
	and	edx,esp
	loope	004019FC
	das	
	sbb	eax,ED9471EC
	test	byte ptr [esp+esi-79],AD
	rol	byte ptr [ebp+AD306FAD],01
	jg	00401A5A
	int	61
	lodsd	
	ja	00401A77
	daa	
	pop	es
	loope	00401A7D
	daa	
	retf	
	test	al,DB
	loope	00401A1E
	or	al,73
	les	ebx,eax
	mov	bh,[esi+09]
	lodsd	
	sub	al,AD
	loop	00401A7B
	stosb	
	jg	00401A90
	retf	
	adc	cl,ah
	loope	00401A33
	mov	ch,5F
	xor	[esi],ch
	xor	[esi+E1E1E130],esi
	lodsd	
	cmc	
	and	eax,E2CCCB06
	loope	00401A46
	cdq	
	ret	B257
	ret	
	jmp	00401AAB
	push	es
	push	es
	aaa	
	scasb	
	dec	edx
	jpe	00401ABB
	push	es
	cmc	
	and	eax,FFCB73EB
	cmp	[esp+esi],dh
	iret	
	ja	00401AEA
	movsb	
	or	[edx+3434348B],al
	mov	ah,68
	inc	ebp
	daa	
	xor	al,34
	xor	al,B4
	test	cl,ah
	loopne	00401A62
	cli	
	illegal	
	loope	00401A66
	adc	ch,bl
	loope	00401A80
	xor	eax,74AF2C77
	retf	
	cmp	al,DD
	loope	00401A8B
	inc	eax
	xchg	eax,ebp
	xchg	eax,esi
	and	eax,31EB2D6B
	mov	bh,5B
	loope	00401A97
	loope	00401B35
	jmp	00401AB0
	xor	[edi+eax*4],dh
	lodsd	
	ror	byte ptr [edx+0124CD89],01
	adc	[edi+ecx*4],esp
	out	dx,ax
	mov	ebx,95CCBFA4
	xor	esi,[esp+esi]
	loope	00401B39
	add	cl,ah
	aam	CC
	insd	
	illegal	
	loope	00401A89
	jg	00401AE6
	xor	eax,7DAF207D
	cmp	al,E1
	sbb	al,B1
	ja	00401AEA
	retf	
	jpe	00401ACC
	loope	00401AD0
	xchg	eax,ebp
	xchg	eax,esp
	jc	00401B59
	lodsd	
	sub	al,AD
	loop	00401AA6
	outsd	
	xor	[ebp+07CB4487],ch
	xor	al,34
	nop	
	sub	dword ptr [esi+E290CBEE],E1
	loope	00401AF9
	jge	00401AE4
	cmp	edi,D8
	enter	81CC,E1
	loope	00401AF9
	retf	
	and	bl,bh
	loope	00401AFE
	nop	
	add	ecx,esp
	xor	[eax+34343877],edi
	inc	ebp
	jmp	00401AF4
	illegal	
	loope	00401B0E
	ret	
	insb	
	rep	
	aam	2C
	retf	
	mul	dl
	loope	00401B18
	sbb	cl,[edx+6F]
	jmp	far 87B9:9423
	lodsd	
	shl	byte ptr [ebp+8A85DCF8],01
	mov	[ebp+770D3077],ebp
	dec	eax
	retf	
	sbb	bh,[eax]
	xor	al,34
	and	ecx,esp
	add	ebx,[ecx-3B]
	insb	
	rep	
	int	03
	xor	ebx,esi
	aam	31
	xor	[ecx+6FCBB32C],ebp
	jle	00401B9A
	xor	al,2D
	jmp	00401B35
	in	eax,dx
	xor	al,34
	xor	al,BD
	jl	00401B7A
	push	ebx
	mov	eax,77B14C9D
	call	F1310BC9
	lock	
	mov	cl,77
	in	al,4C
	xor	al,2A
	xor	al,34
	mov	cl,77
	int	03
	dec	esp
	xor	al,2A
	xor	al,34
	mov	cl,77
	fmul	dword ptr [eax-20]
	push	15
	mov	cl,77
	ror	bl,01
	fsubrp	st(0),st(0)
	loope	00401B7F
	pop	ss
	jg	00401B6D
	in	al,dx
	out	dx,al
	mov	[ecx],ch
	cwde	
	movsd	
	int	03
	hlt	
	loop	00401B8D
	loope	00401C13
	jmp	far A9CC:EB25
	loop	00401B96
	loope	00401B82
	jg	00401B99
	loope	00401B9C
	leave	
	jpe	00401BBB
	adc	eax,35BB5106
	jge	00401BE5
	loope	00401C2C
	mov	cl,ah
	or	cl,ah
	aam	CC
	sbb	[A9313434],dh
	insd	
	cmp	dh,[ebx+3434DCF5]
	xor	al,CB
	sti	
	fsubrp	st(1),st(0)
	loope	00401B66
	retf	
	dec	esi
	xor	esi,[esp+esi]
	test	eax,724DD2FC
	cmp	eax,1D353967
	xor	eax,49332C5F
	mov	ch,FA
	mov	ch,CB
	sub	eax,F0B731EB
	fsub	st(0),st(1)
	loope	00401BD1
	arpl	sp,bx
	loope	00401BEB
	jpo	00401C3C
	jnz	00401C01
	jno	00401C54
	int	4C
	lodsb	
	adc	dword ptr [esp+edx*8-34],E1E1E964
	dec	esp
	cmp	al,E9
	rol	[esp+ecx*8+E1E1DBB4],cl
	loope	00401C2C
	loope	00401C91
	sub	al,4C
	lodsb	
	adc	dword ptr [esp+edx*8-35],E1E1E0B0
	sub	dh,[edi+esi+3CB73165]
	loope	00401C1F
	loope	00401BEB
	ja	00401C16
	loopne	00401C90
	xor	al,34
	xor	al,34
	mov	cl,77
	loopne	00401C98
	insb	
	sbb	eax,77B19A86
	fmul	double ptr [eax+esi*8-10]
	lock	
	lock	
	retf	
	cmp	esp,ecx
	loope	00401C3E
	xchg	[ebx+FF93EB28],ecx
	pop	ebp
	pop	esp
	int	03
	and	bl,bl
	loope	00401C4B
	loope	00401C70
	lodsd	
	ja	00401C4F
	jmp	00401C67
	xor	[edi+eax*4],dh
	lodsd	
	shl	cl,01
	sub	al,4E
	loope	00401C47
	stosb	
	xor	al,34
	fldcw	word ptr [ebp+7F]
	mov	al,[ADE48773]
	illegal	
	cmc	
	xor	[ebp+46AD3086],ch
	retf	
	adc	eax,AD343433
	outsb	
	and	al,25
	hlt	
	retf	
	push	cs
	illegal	
	loope	00401C6C
	aas	
	illegal	
	loope	00401CD4
	cmp	[edx+45],ecx
	ret	
	mov	ch,D7
	sti	
	lodsd	
	in	al,dx
	xor	eax,74AD2074
	or	al,35
	rep	
	stosd	
	ja	00401CBE
	loope	00401D23
	int	03
	dec	esi
	xor	al,CC
	add	eax,ABE1E1DB
	ja	00401CCF
	lodsd	
	jg	00401C9E
	retf	
	and	eax,E1
	loope	00401C91
	xor	esi,[ebx+esi*4+CD25AD7D]
	xor	eax,354465AD
	sub	al,AD
	pop	ebp
	inc	esp
	xor	eax,D5CB2C5F
	fsub	st(0),st(1)
	loope	00401C79
	retf	
	retf	E1DF
	loope	00401D07
	cmp	al,E4
	mov	cs,[edi+870D05AD]
	xor	[BDAF207D],dh
	xchg	eax,esp
	xor	al,34
	xor	al,AD
	cmp	eax,CB2C6FAD
	mov	dh,E0
	loope	00401CED
	test	al,D4
	mov	[67E1FE43],eax
	add	al,85
	int	03
	sahf	
	jmp	far CC85:E1E1
	bound	esi,[esi]
	xor	al,34
	lodsd	
	cmc	
	xor	eax,45CB2074
	jmp	E172FF0D
	cmp	eax,C68AD7E1
	dec	esi
	xor	al,AF
	ja	00401D62
	test	[esi-1F],cl
	dec	esp
	lodsb	
	adc	dword ptr [esp+edx*8-34],E1E1EA6C
	dec	esp
	pop	edx
	test	[esi],esi
	jbe	00401CCD
	retf	
	out	dx,al
	jmp	far 7843:E1E1
	or	eax,4875AD9F
	xor	eax,6DAD0877
	xor	[65E1D46F],dh
	inc	esp
	test	bl,cl
	inc	esi
	illegal	
	loope	00401CFE
	jo	00401D58
	xchg	eax,esi
	push	eax
	push	E467E146
	loope	00401DDA
	call	86188559
	int	03
	rep	
	illegal	
	loope	00401D29
	ja	00401D58
	loope	00401DE9
	fmul	st(0),st(3)
	pop	ebp
	illegal	
	loope	00401DC6
	jno	00401DD7
	cmp	[CC842C77],dh
	mov	al,[AB343433]
	ja	00401D78
	mov	ch,1D
	xor	al,31
	mov	eax,E1E1E129
	retf	
	adc	ah,cl
	loope	00401D87
	retf	
	pop	ebp
	cmpsb	
	sub	esp,edi
	mov	cl,32
	loope	00401D5C
	jbe	00401DED
	int	32
	int	38
	lodsd	
	inc	esi
	and	eax,31051DF4
	mov	bh,07
	loop	00401DA1
	loope	00401E3F
	jmp	00401DBA
	cmp	[ebx+ecx*8],dh
	lock	
	fsub	st(0),st(1)
	loope	00401D95
	dec	ebp
	rol	[eax+358EFA80],cl
	add	esi,ebx
	div	byte ptr [31EB2D6B]
	mov	bh,15
	illegal	
	loope	00401DAC
	out	dx,al
	xor	esi,[esp+esi]
	or	[ecx],ch
	out	E7,al
	dec	eax
	out	dx,ax
	mov	[ebp+7D352C7F],ebp
	and	[edi+3434B4BD],ch
	xor	al,AD
	cmp	eax,B831FD2D
	add	ecx,ebp
	loope	00401DE4
	xor	eax,EFCB2C7F
	jmp	75EDFFEE
	xor	bl,cl
	pop	ebx
	loope	00401DF3
	loope	00401DEE
	dec	esi
	or	eax,38FAB514
	jnc	00401E39
	outsd	
	loopne	00401E50
	mov	dh,04
	jmp	82C20007
	retf	
	jge	00401E10
	loope	00401E0C
	push	ecx
	xchg	eax,ecx
	push	ecx
	insb	
	inc	edx
	mov	esp,F6EB7D82
	cmp	[edi+eax*4],dh
	lodsd	
	rol	byte ptr [ebp+7FAD898A],01
	sub	al,CB
	pop	edx
	loope	00401E28
	mov	eax,3884C667
	shl	byte ptr [ebx+3434E1D3],01
	xor	al,4E
	xor	ecx,ebx
	scasb	
	fsubrp	st(1),st(0)
	loope	00401E18
	sti	
	add	al,FD
	cmp	[eax],bl
	std	
	cmp	[eax],bl
	retf	
	aas	
	jmp	FD09004B
	pop	esp
	jle	00401E4F
	xor	[edi+E1E1DD01],esi
	lodsd	
	ja	00401E52
	add	dword ptr [edx+96CBEB7D],07E1E1DD
	scasd	
	and	eax,edi
	jpo	00401E33
	shl	byte ptr [ebp+67E1E4F8],01
	sub	al,AF
	ja	00401E6C
	test	[esp+ebp*4-7F],cl
	push	esp
	aam	CC
	in	al,E8
	loope	00401E7C
	dec	esp
	cmp	al,E9
	rol	[esp+ecx*8+E1E1E934],cl
	retf	
	sbb	esi,2E8CE1E1
	cmp	bh,9D
	in	eax,98
	lodsd	
	stc	
	add	dword ptr [edx+3430F6EB],CBD0AD87
	and	bl,bl
	loope	00401EA3
	in	al,A6
	cld	
	rep	
	xchg	eax,esi
	loope	00401ECD
	scasd	
	ja	00401EB4
	test	[esp+ebp*4-7F],cl
	push	esp
	aam	CC
	test	al,E8
	loope	00401EB8
	dec	esp
	rep	
	adc	bh,ah
	jcxz	00401E61
	int	03
	clc	
	jmp	far 04E1:E1E1
	lodsd	
	ja	00401ECB
	retf	
	out	E1,al
	loope	00401F1C
	mov	ch,2D
	mov	ecx,esp
	mov	[84E1E1EA],eax
	cmc	
	xchg	[ebp+AD898AD0],ebp
	outsd	
	inc	esp
	lodsd	
	xor	[di+2C5F],ch
	int	8B
	sbb	eax,A1FEE141
	jl	00401EDA
	mov	bh,E9
	loope	00401EF3
	stosd	
	ja	00401EE9
	pop	eax
	lodsd	
	das	
	and	al,34
	xor	al,34
	stosd	
	jnc	00401F4B
	loope	00401F88
	add	cl,ah
	aam	CC
	les	esp,ecx
	loope	00401F0B
	lodsd	
	jg	00401F35
	retf	
	les	esp,eax
	loope	00401F13
	add	edx,ecx
	push	ds
	illegal	
	dec	esp
	lodsb	
	adc	dword ptr [esp+edx*8-34],E1E1E86D
	dec	esp
	illegal	
	or	eax,CC8407B8
	jge	00401F33
	loope	00401F2C
	loope	00401F51
	jmp	00401F45
	cmp	[edi+eax*4],dh
	retf	
	adc	ah,cl
	loope	00401F38
	jnc	00401F17
	aas	
	jle	00401F08
	int	03
	xor	ch,bl
	loope	00401F42
	inc	ebp
	jmp	00401F30
	aaa	
	illegal	
	loope	00401FCF
	out	F5,al
	or	eax,AB0C1860
	pusha	
	sbb	[eax+53],al
	jmp	00401F6C
	sub	al,34
	stosd	
	ja	00401FAB
	stosd	
	ja	00401F5A
	mov	ah,5F
	inc	esp
	xor	al,31
	mov	eax,E1E1E2CD
	xor	[edx+77AB4477],ebp
	loopne	00401F5B
	movsb	
	fsubrp	st(1),st(0)
	loope	00402003
	sar	esp,cl
	mov	bh,[ebp-15]
	div	byte ptr [eax]
	xor	al,87
	lodsd	
	shl	byte ptr [ebp+8A85E0F8],01
	retf	
	jnc	00401F8B
	loope	00401F8C
	sbb	al,[edx+54]
	daa	
	lodsd	
	ja	00401FDE
	lodsd	
	outsd	
	xor	[ebp+2C234487],ch
	and	eax,[ecx+eax*4-7E]
	jmp	00401F8B
	push	cs
	out	E1,al
	loope	00401FD9
	loop	00401FF5
	stosd	
	rol	byte ptr [edi+F8B5D0AD],01
	lock	
	test	[esi+34],ecx
	xor	[ebx],esp
	lodsd	
	in	al,dx
	retf	
	loop	00401FBB
	loope	00401F67
	adc	eax,02ECC3B0
	dec	esp
	lodsb	
	adc	dword ptr [esp+edx*8-34],E1E1E594
	dec	esp
	inc	ebp
	arpl	[A4CC84A3],bx
	out	E1,al
	loope	00401FD8
	add	al,AF
	ja	00401FDF
	test	bl,cl
	jmp	far A169:E1E1
	xor	eax,ebp
	dec	ecx
	in	eax,95
	repne	
	add	[edx-76],eax

fn0040200B()
	inc	edx
	mov	bh,al
	mov	dh,7E
	sub	bh,bl
	or	edx,esi
	dec	dh
	inc	esi
	jmp	004023C1
0040201C                                     8B 4E E6 D4             .N..
00402020 FD 77 A1 53                                     .w.S           

fn00402024()
	sub	ecx,eax
	sub	edx,esi
	mov	bl,2E
	or	edx,esi
	neg	dh
	inc	ebx
	not	dl
	call	0040203B
	test	al,61
	add	[eax],cl
	wait	
	lea	esp,[esp+04]
	sub	cl,dh
	or	ebx,eax
	mov	dh,bl
	sbb	cl,5B
	mov	dl,dh
	add	bl,5B
	add	dl,C1
	mov	bl,dl
	jl	00402ED0
	mov	bh,bh
	jge	00402ED0
	add	bh,dh
	loop	004020DE

fn00402064()
	neg	bh
	mov	bl,44
	mov	bh,19
	inc	ebx
	neg	bl
	xor	edi,eax
	or	bl,dl
	sub	bl,ah
	inc	bl
	jle	00402A91

l0040207B:
	jno	0040207D

l0040207D:
	jg	00402A91

l00402083:
	jnz	004020ED

l00402085:
	pop	ds
	adc	esi,[edi]

fn00402088()
	pop	dword ptr [esp-10]
	mov	al,cl
	or	esi,edi
	xor	ebx,edx
	adc	ah,D1
	add	eax,ecx
	inc	edi
	push	dword ptr [ecx]
	jle	00402759

l004020A0:
	jnc	004020A2

l004020A2:
	lea	eax,[eax]
	jg	00402759

l004020AA:
	illegal	
	add	[esi],dh
	leave	
	jg	00402098
	jl	004020F3

fn004020B2()
	inc	eax
	mov	dl,cl
	add	dl,B2
	mov	esi,ecx
	sub	edx,esi
	mov	dl,ah
	mov	dh,D7
	dec	dh
	xor	dl,bl
	mov	dl,ah
	jmp	00402AF4
004020CB                                  4F C3 BE 02 5C            O...\
004020D0 C4                                              .              

fn004020D1()
	xchg	[esp],eax
	xchg	di,di
	pop	eax
	or	al,bl
	sub	edx,edi
	add	bh,dh
	xor	ebx,edx
	sub	dh,dl
	call	00402DDF
	jmp	far 98A7:4F06
004020EC                                     51                      Q  

fn004020ED()
	cmpsb	

fn004020EE()
	mov	bl,ch
	add	edi,edx
	dec	bl
	mov	esi,edx
	sub	edi,esi
	xor	eax,FFFFFEC8
	xor	bh,bl
	neg	bh
	sub	esi,ecx
	jmp	00402A02
00402108                         2B F4 EE D1 37 99               +...7. 

fn0040210E()
	or	bh,dl
	add	bh,50
	or	bl,bh
	sbb	bh,8F
	sbb	cl,47
	or	bl,ah
	xor	bh,bl
	call	0040265B
	mov	eax,8620C87D
	retf	C303

fn0040212A()
	add	eax,ebx
0040212C                                     0A DF 0A DE             ....
00402130 80 D3 92 32 F8 46 2A F8 2B DF E8 4F 08 00 00 11 ...2.F*.+..O....
00402140 BD 61 81 A9 77 84 8F                            .a..w..        

fn00402147()
	sbb	dl,38
	mov	esi,edx
	mov	dh,bl
	add	dl,AF
	inc	esi
	inc	edx
	xor	edx,esi
	neg	dl
	mov	dh,3E
	mov	dh,0C
	call	00402EEC
	and	al,1F
	adc	[ebx+D40299C2],edx

fn00402166()
	add	dl,ah

fn00402168()
	sub	bl,bh
	xor	dl,cl
	or	bh,dl
	adc	dh,4F
	add	ah,47
	neg	ah
	or	edx,eax
	xor	edx,esi
	pop	eax
	jc	00402E5A

fn00402181()
	jmp	00402186

l00402186:
	mov	di,di
	jnc	00402E5A

l0040218F:
	adc	[ebx+A3F00CEE],ecx
	illegal	
	cmpsd	

fn00402197()
	add	bh,dh
	sbb	bh,B4
	inc	bh
	sbb	bh,4A
	sub	edi,esi
	sub	bh,ah
	jbe	0040223B

l004021AB:
	mov	dx,dx
	ja	0040223B

l004021B4:
	pop	ebp
	jle	004021D9

l004021B7:
	add	[ebx+64],bl

fn004021BA()
	inc	bl
	adc	bh,66
	or	ebx,edi
	neg	bl
	add	bh,ch
	sub	bh,dl
	jbe	00402C3F

l004021CD:
	mov	ax,ax
	mov	edi,edi
	ja	00402C3F

l004021D8:
	cdq	

fn004021D9()
	sub	ebp,[esi]
	sub	ebx,ebp

fn004021DD()
	or	bl,al
	sub	bh,bl
	add	edx,ecx
	neg	cl
	inc	edi
	add	cl,bh
	jo	0040292E

l004021EE:
	lea	dx,[edx]
	jno	0040292E

l004021F7:
	cwde	
	illegal	
	push	E824448F

fn004021FB()
	pop	dword ptr [esp-18]
	sub	edi,ecx
	adc	dh,29
	xor	ah,cl
	mov	cl,dl
	push	00003000
	add	dh,08
	inc	al
	mov	ah,cl
	dec	ch
	call	0040227B
	dec	esp
	lock	
	adc	eax,49EB3A67

fn00402222()
	sub	ch,dl
	add	cl,A4
	sbb	dl,5D
	add	ah,cl
	or	bh,ah
	inc	al
	dec	edx
	jmp	00402784
00402236                   B8 00 F8 D1 75                      ....u    

fn0040223B()
	sub	bh,dl
	lea	eax,[eax+78]
	sub	esi,ebx
	mov	bh,al
	add	bh,ah
	inc	esi
	or	bh,dl
	jmp	004027D8
0040224E                                           A5 8A               ..
00402250 58 E3 58 AE                                     X.X.           

fn00402254()
	xor	edi,eax
	add	esi,ecx
	neg	bl
	inc	bl
	mov	ebx,edx
	inc	ebx
	mov	esi,edi
	or	bh,ch
	neg	bl
	inc	ebx
	js	00402D44

l0040226C:
	xchg	ah,ah
	push	ecx
	pop	ecx
	jns	00402D44

l00402276:
	jmp	far BE0A:4840

fn0040227B()
	lea	esp,[esp+04]
	not	ah
	dec	bl
	mov	ch,cl
	add	dl,80
	add	cl,FE
	mov	bh,dl
	jpe	004023DF

l00402293:
	rep	
	jpo	004023DF
	cmp	eax,2ABA83E5

fn0040229F()
	sub	ch,cl
	inc	ch
	add	edi,edx
	inc	esi
	or	dh,bh
	add	ebx,edx
	sub	edi,ecx
	js	004022F6

l004022AE:
	jpe	004022B0

l004022B0:
	mov	dl,dl
	jns	004022F6

l004022B4:
	int	03
	illegal	
	in	al,A5
	mov	[B7F381D9],eax

fn004022BA()
	xor	ebx,11331BB7
	adc	ch,83
	xor	dh,al
	mov	cl,dh
	neg	dh
	dec	cl
	xor	cl,al
	sub	dl,bl
	call	00402E39
	lodsd	
	rcr	dword ptr cs:[edx],01

fn004022D8()
	adc	bh,98
	sbb	cl,8A
	not	bl
	sub	cl,bl
	push	eax
	dec	ebx
	sub	cl,dl
	xor	dl,dh
	inc	bh
	inc	esi
	call	004029D8
	inc	esi
	pop	es
	shl	dword ptr [ebp-3A],15

fn004022F6()
	xor	ch,dl
	sub	ch,bh
	sbb	ch,B1
	dec	dh
	inc	bh
	dec	bl
	jmp	004027C3
00402308                         2A 59 E1 DD 72 00 0D            *Y..r..

l0040230F:
	ror	ch,08
	sbb	dh,3A
	neg	dl
	mov	dh,bl
	mov	edx,ebx
	neg	dl
	dec	esi
	jo	00402E03

l00402324:
	mov	esi,esi
	mov	eax,eax
	jno	00402E03

l0040232E:
	inc	edx
	mul	dh
	push	ebx
	mov	bh,0A

l00402333:
	or	ch,bh

fn00402334()
	out	dx,ax
	neg	bl
	xor	ch,ah
	mov	edx,eax
	neg	dl
	or	ecx,edi
	add	ch,cl
	jmp	00402024
00402346                   C5 98 9B F7 8C 17 AD                .......  

fn0040234D()
	xchg	[esp],edi
	mov	bl,bl
	pop	edi
	inc	bh
	inc	bh
	mov	bl,cl
	neg	bh
	call	004024D1
	inc	ebx
	in	al,D9
	add	ebx,[ebp+70]
	fmul	dword ptr [ebx+F6DD8A02]

fn00402367()
	mov	eax,[edx]
	mov	bl,ch
	not	cl

fn0040236C()
	ror	dword ptr [ebx+F6CDFEF2],01
	fisubr	dword ptr [edx]
	int	03
	or	bh,cl
	jo	0040200B

fn0040237D()
	jmp	00402382

l00402382:
	xchg	dh,dh
	jno	0040200B

l0040238A:
	call	far 1663:5DFA

fn0040238F()
	mov	bl,bh
	adc	bh,CE
	mov	bl,BE
	xor	esi,ecx
	not	bh
	mov	bl,2B
	inc	esi
	call	00402461
	wait	
	test	al,46
	cwde	
	into	

fn004023A7()
	not	dl
	inc	esi
	sub	esi,ecx
	dec	dl
	not	dh
	sub	esi,ebx
	xor	dl,dh
	mov	dh,ah
	sub	edx,ecx
	jmp	004020B2
004023BD                                        86 11 80              ...
004023C0 4D                                              M              

fn004023C1()
	add	edi,edx
	mov	bh,ch
	dec	esi
	push	00
	xor	edi,eax
	inc	ecx
	xor	edi,ebx
	add	bl,ch
	mov	edx,ebx
	mov	dl,4A
	jmp	00402B17
004023D8                         79 1C C9 FE 72 A6 3A            y...r.:

l004023DF:
	or	eax,ecx
	inc	cl
	inc	esi
	sbb	ah,C0
	not	cl
	call	004023EE

fn004023EE()
	xor	ecx,edi
	jmp	004028B3
004023F5                7A 77 5E F7                           zw^.      

l004023F9:
	or	dl,bh
	mov	edx,ebx
	inc	esi
	xor	esi,edx
	sub	edx,8E20AA5F
	add	esi,edx
	mov	esi,ecx
	inc	esi
	xor	esi,edi
	js	004025E9

l00402413:
	mov	cx,cx
	jmp	0040241C
0040241B                                  52                        R   

l0040241C:
	jns	004025E9

l00402422:
	and	[ecx+3F],edx
	rep	
	int	19
	illegal	

fn0040242A()
	pop	dword ptr [esp-0C]
	mov	ch,[edi]
	mov	dh,38
	inc	dl
	not	dh
	inc	dl
	jmp	00402147

l0040243D:
	fstcw	word ptr [eax+8978ED38]
	add	al,24
	mov	ah,ah
	pop	eax
	sbb	dl,29
	sbb	dh,F3
	mov	dh,dl
	or	dl,cl
	add	dh,dl
	neg	dh
	jmp	00402972
0040245B                                  70 D2 D8 B9 1B            p....
00402460 25                                              %              

fn00402461()
	lea	esp,[esp+04]
	inc	ebx
	add	eax,ecx
	add	bh,29
	or	edi,ebx
	add	edi,ecx
	inc	edi
	dec	bh
	or	ebx,esi
	jmp	0040252D
00402479                            E5 82 59 8A CC                ..Y.. 

l0040247E:
	or	dl,al
	add	dl,dh
	mov	dh,5B
	dec	edx
	adc	dl,6F
	xor	ch,29
	or	dl,ch
	jle	004028CC

l00402493:
	jns	00402495

l00402495:
	jg	004028CC

l0040249B:
	ja	0040243D

l0040249D:
	xchg	eax,ecx
	sub	edx,esi

fn004024A0()
	mov	dh,cl
	xor	dh,dl
	mov	dl,bh
	xor	edx,eax
	sbb	dl,44
	add	dl,dh
	add	edx,edi
	mov	edx,ecx
	xor	edx,eax
	jo	004023F9

l004024B9:
	jmp	004024BF
004024BE                                           97                  .

l004024BF:
	jmp	004024C5
004024C4             1C                                      .          

l004024C5:
	jno	004023F9

l004024CB:
	adc	eax,BD9716E6
	ret	

fn004024D1()
	pop	dword ptr [esp-14]
	xor	bl,cl
	mov	bh,8B
	inc	bl
	sub	bl,dh
	mov	eax,ecx
	call	00402E79
	bound	esp,[ebx+23]
	and	[eax-42],esi
	dec	ecx
	movsb	

l004024EC:
	mov	edi,ecx
	or	edi,ebx
	add	ebx,edi
	sub	bl,cl
	xor	bh,al
	sub	edx,esi
	dec	bl
	or	edi,ecx
	xor	ebx,ecx
	call	00402914
	inc	esp
	cmp	[eax+48],ah
	das	
	cmpsb	

fn00402509()
	pop	dword ptr [esp-34]
	xor	dh,ch
	sbb	dh,A9
	inc	dh
	add	dl,D5
	or	edx,eax
	or	edx,ebx
	add	dl,dh
	sub	ch,0A
	jmp	004026A5
00402525                13 17 A6 9B BC 45 8A 8F               .....E..  

fn0040252D()
	add	bl,al
	add	bl,dl
	mov	bh,al
	sub	bl,bh
	add	bl,dh
	or	edi,eax
	or	esi,ecx
	dec	ebx
	push	dword ptr [eax+10]
	or	esi,ecx
	jmp	004021BA
00402546                   D5 C1 E5 55 10 47 6C                ...U.Gl  

l0040254D:
	mov	[eax],ch
	sub	dl,ah
	mov	edx,esi
	neg	dh
	sub	esi,edx
	sub	edx,edi
	dec	dl
	jmp	00402635
00402560 18 D5 02 4A C5 0D 89                            ...J...        

fn00402567()
	inc	bl
	adc	bh,12
	or	bl,al
	add	bl,44
	inc	ebx
	inc	ebx
	add	bl,bh
	call	00402CE1
	and	eax,C15CF0A6
	in	al,68

fn00402581()
	or	bl,bh
	sub	ebx,edi
	xor	edi,esi
	neg	bl
	adc	bl,A2
	not	bl
	add	bh,A9

fn00402591()
	inc	bh
	push	dword ptr [edx+08]
	jbe	00402A4A

fn00402597()
	xchg	[esi+E9000004],ch

fn0040259C()
	jmp	004025A1

l004025A1:
	jmp	004025A7
004025A6                   83                                  .        

fn004025A7()
	ja	00402A4A

l004025AD:
	sub	eax,778B4B49
	outsd	

fn004025B3()
	pop	dword ptr [esp-2C]
	mov	bh,18
	mov	edx,esi
	add	ch,bh
	call	eax
	or	ch,cl
	adc	bl,62
	dec	ecx
	call	00402EAD
	inc	edx
	popf	
	jo	00402591

fn004025CE()
	xor	bh,al
	mov	bh,dl
	sub	bl,ah
	neg	bh
	mov	esi,ebx
	mov	edi,ebx
	mov	edi,eax
	call	00402681
	loopne	00402648

l004025E3:
	xchg	eax,esp
	mov	ebx,BB9E4CDC

fn004025E9()
	xor	esi,ebx
	cmp	edx,71DF55A1
	jnz	00402E45

l004025F7:
	or	esi,edi
	not	ch
	neg	bl
	sbb	bl,DF
	js	00402729

l00402606:
	mov	cl,cl
	jle	0040260A

l0040260A:
	jns	00402729

l00402610:
	and	ch,[ebx]
	jns	00402597

l00402614:
	sbb	[edi+FED82444],ecx

fn00402615()
	pop	dword ptr [esp-28]
	inc	ah

fn0040261A()
	les	ecx,[ebx+03BFB1CE]
	shl	dword ptr [edi+B2D1F656],BC
	dec	edi
	call	004021FB

fn0040262D()
	outsb	
	and	byte ptr [edx-1E],79
	add	[edx-64],eax

fn00402635()
	or	esi,ecx
	sbb	dh,BA
	add	dl,B4
	mov	esi,edx
	inc	edi
	mov	edx,ecx
	sbb	dl,C9
	dec	dl
	jz	004023A7

fn00402648()
	test	[edx-03],bl
	illegal	

l0040264D:
	jpo	0040264F

l0040264F:
	jnz	004023A7

l00402655:
	fxtract	st(4),st(0)
	test	[ebx],dh
	pop	edx
	pop	dword ptr ds:[esp-20]

fn0040265B()
	pop	dword ptr [esp-20]
	inc	ebx
	dec	esi
	or	bh,cl
	dec	cl
	xor	bl,cl
	sbb	cl,D3
	jle	00402367

l00402670:
	jmp	00402676
00402675                62                                    b         

l00402676:
	jg	00402367

l0040267C:
	mov	al,[edx+8F8E94B2]

fn00402681()
	pop	dword ptr [esp-34]

fn00402682()
	inc	esp
	and	al,CC
	inc	esi
	inc	ebx
	inc	bh
	sub	ebx,edi
	mov	bl,CC
	jpe	004021DD

l00402693:
	mov	bx,bx
	xchg	ecx,ecx
	jpo	004021DD

l0040269E:
	add	ah,A7
	or	bh,ah
	dec	edx
	add	al,[eax+DA8052D6]

fn004026A5()
	adc	dh,52
	sbb	dl,DF

fn004026AA()
	fild	qword ptr [edx]

fn004026AC()
	rol	[ebx],cl
	xlat	
	or	dl,ah
	xor	dl,ah
	inc	dl
	inc	dh
	call	00402831
	push	esp
	stosb	
	mov	ebx,4F8853A2

fn004026C2()
	dec	edi

fn004026C3()
	sub	esi,ebx
	sub	esi,eax
	add	eax,edx
	mov	edi,eax
	dec	esi
	mov	esi,edx
	xor	edi,edx
	sub	esi,ecx
	jmp	0040212A
004026D7                      EA 4D 78 0D 24 AE                 .Mx.$.  

fn004026DD()
	mov	bl,67
	mov	bh,93
	mov	ebx,ecx
	mov	bh,74
	xor	bl,ch
	sub	ebx,edx
	inc	esi
	jz	00402567

l004026F0:
	jmp	004026F6
004026F5                E1                                    .         

l004026F6:
	mov	ah,ah
	jnz	00402567

l004026FE:
	push	B5
	std	
	stosb	
	illegal	
	sar	esp,cl

fn00402705()
	xor	ecx,eax
	xor	edx,esi
	add	bl,55
	mov	esi,ecx
	mov	ebx,ecx
	sub	ecx,edx
	dec	dl
	sub	edi,ecx
	not	ch
	neg	cl
	mov	edi,ecx
	call	00402E92
	sti	
	lock	
	mov	dl,53
	cmpsd	
	sub	dword ptr [ecx+edx*8],8A

fn00402729()
	mov	ah,dl

fn0040272A()
	loop	004026AC

l0040272C:
	fdiv	st(0),st(0)
	not	ah
	dec	dh
	mov	cl,79
	or	dl,dh
	add	dh,B3
	neg	dl
	adc	al,C2
	sub	eax,edx

l0040273F:
	ret	8C0F

fn00402740()
	jl	00402222

fn00402746()
	xchg	bx,bx
	xchg	bh,bh
	jge	00402222

l00402751:
	pop	es
	push	cs
	in	eax,dx
	cmpsd	
	loop	0040273F

l00402758:
	retf	C380

fn00402759()
	add	bl,F0
0040275B                                  F0 8A F4 33 F8            ...3.
00402760 FE C4 FE CF 4B FE CF 2A FC 0F 8E F7 F9 FF FF    ....K..*.......

l0040276F:
	jmp	00402775
00402774             C6                                      .          

l00402775:
	push	bx
	pop	bx
	jg	00402166

l0040277F:
	mov	dh,05
	push	edi
	cli	
	inc	esi

fn00402784()
	inc	esi

fn00402785()
	inc	ecx
	sub	ch,ah
	sub	edi,esi
	sub	edi,ecx
	add	bh,B7
	jc	00402C19

fn00402795()
	push	esi
	pop	esi
	xchg	ch,ch
	jnc	00402C19

l0040279F:
	mov	al,58
	mov	ah,7E
	test	[24648D68],ch

fn004027A6()
	lea	esp,[esp+04]

fn004027A9()
	add	al,F6
	fdivrp	st(6),st(0)
	illegal	
	ret	
	add	al,82
	xor	edx,ecx
	xor	dl,cl
	inc	al
	call	004020D1
	mov	[esi+3F],edx
	sbb	esp,[eax+CAFEC5FE]

fn004027C3()
	inc	ch
	dec	dl
	mov	bl,E1
	not	ch
	inc	esi
	adc	bh,91
	jmp	00402C90
004027D4             75 B2 D0 60                             u..`       

fn004027D8()
	mov	ebx,edi
	not	bh
	mov	bh,F1
	dec	bh
	or	bh,bl
	mov	edi,ecx
	xor	edi,ebx
	xor	ebx,edi
	sub	bh,bl
	jmp	00402874
004027EF                                              32                2
004027F0 09 AF 93 6B 9C                                  ...k.          

fn004027F5()
	or	bh,cl
	not	eax
	inc	bl
	or	bl,bh
	mov	bh,A4
	add	bl,dh
	xor	ebx,ecx
	dec	ebx
	neg	bl
	mov	bl,dh
	jle	00402813

l0040280A:
	xchg	di,di
	jg	00402813

l0040280F:
	enter	DC4A,93

l00402813:
	sub	bh,dh
	sbb	bl,F4
	mov	esi,edi

fn0040281A()
	or	eax,eax
	jnz	0040291C

fn00402822()
	add	ebx,ecx
	dec	ebx
	add	bh,dh
	call	0040234D
	xor	ah,[edx]
	retf	
0040282F                                              45                E
00402830 FE                                              .              

fn00402831()
	mov	[esp],eax
	repne	
	pop	eax
	sbb	dh,3C
	not	dh
	xor	dh,ah
	or	esi,eax
	xor	esi,edx
	neg	ch
	call	00402442
	jg	0040282A
	mov	edx,C680FD29

fn0040284D()
	add	dh,1E
	sub	ch,cl
	add	cl,5F
	dec	ch
	inc	ch
	not	ch
	xor	dl,al
	add	edx,ebx
	jz	00402CBA

l00402865:
	xchg	si,si
	jnz	00402CBA

l0040286E:
	cmp	al,22
	sbb	eax,B75635BE

fn00402874()
	mov	bh,12

fn00402875()
	adc	dh,dh
	shl	[edx],cl
	dec	byte ptr [ebx]
	fimul	word ptr [edx+E8F10BF9]
	das	
	add	eax,59BD0000

fn00402885()
	mov	ebp,785BC859
	xor	dword ptr [ebp-73],8A042464

fn0040288C()
	lea	esp,[esp+04]

l0040288D:
	and	al,04

fn00402890()
	mov	bl,dl

fn00402891()
	fidiv	dword ptr [ebx]

fn00402892()
	xor	ebx,esi
	xor	bh,cl
	xor	esi,ebx
	mov	ch,42
	add	bl,ch
	jo	004022D8

fn004028A2()
	mov	bx,bx
	jno	004022D8

l004028AB:
	push	cs
	dec	esi
	pushf	
	sar	[esi],cl
	dec	ecx
	shr	ebx,80

fn004028B3()
	adc	cl,C9

fn004028B4()
	ror	ecx,01
	or	eax,edx
	mov	cl,dl
	neg	bl
	inc	esi
	xor	edi,edx
	adc	ah,55
	call	00402A2B

fn004028C7()
	mov	esi,24A29CA9

fn004028CC()
	dec	dh
	neg	dh
	or	dl,dh
	mov	edx,edi
	mov	esi,eax
	inc	dh
	add	dh,cl
	add	edx,ecx
	jl	00402A70

fn004028E2()
	push	si
	pop	si
	jge	00402A70

l004028EC:
	add	al,88
	ja	00402924

l004028F0:
	pop	ecx
	fincstp	st(7),st(0)
	das	

fn004028F4()
	lea	esp,[esp+04]
	dec	dl
	dec	dl
	sub	ebx,esi
	mov	dh,ch
	mov	bh,56
	neg	dl
	movzx	edx,al
	add	bh,bl
	mov	edi,ecx
	jmp	004026DD
00402910 AB 76 04 DC                                     .v..           

fn00402914()
	pop	dword ptr [esp-24]
	neg	bl
	xor	eax,ebx

fn0040291C()
	dec	ecx
	xor	ah,ch
	adc	al,B7
	jmp	00402C78

fn00402924()
	add	eax,[eax]
	add	[edx-69],dh
00402927                      72 97 58 FA 25 2B 1A              r.X.%+. 

l0040292E:
	add	bl,al

fn00402930()
	mov	cl,47
	or	edi,esi
	not	cl
	inc	esi
	sub	bl,dl
	dec	cl
	add	edx,00000004
	jbe	0040210E

fn00402947()
	repne	
	repne	
	ja	0040210E
	inc	eax
	popf	
	les	ebx,[esi]
	pop	dword ptr fs:[esp-24]

fn00402955()
	pop	dword ptr [esp-24]
	neg	ch
	add	bl,ch
	add	dl,ch
	or	bl,ch
	neg	dl
	add	bh,bl
	inc	ebx
	not	bh
	jmp	00402B53
0040296D                                        BE BC 60              ..`
00402970 6A F3                                           j.             

l00402972:
	inc	dl
	not	dl
	inc	esi
	mov	dl,CF
	or	esi,ebx
	add	esi,edx
	dec	dl
	add	esi,eax
	adc	dh,D8
	not	dl
	jmp	004029B7
00402988                         DB 29 52 05 AA 48               .)R..H 

fn0040298E()
	lea	esp,[esp+04]
	sbb	bh,67
	sub	bh,bl
	sub	bh,dl
	adc	bh,00
	or	bl,ah
	or	edi,eax
	mov	bl,bh
	js	004020EE

l004029A8:
	xchg	edi,edi
	lea	di,[edi]
	jns	004020EE

l004029B3:
	test	al,dl
	push	BF

l004029B7:
	mov	dl,cl
	inc	dh
	add	dh,97
	xor	dl,al
	not	ch
	inc	esi
	jc	00402F02

l004029C9:
	repne	
	jnc	00402F02
	cwde	
	std	
	imul	esi,[ebx-21],97
	loope	00402A18

fn004029D8()
	pop	dword ptr [esp-30]
	not	cl
	mov	dl,ch
	mov	ebx,eax
	dec	esi
	mov	dh,al
	neg	cl
	mov	dh,bh
	jc	00402BAB

l004029EF:
	rep	
	push	cx
	pop	cx
	jnc	00402BAB
	push	edx
	xor	eax,0DDD66A4
	cli	
	popf	

fn00402A02()
	inc	bl
	or	ebx,esi
	not	bh
	neg	bh
	mov	bl,bh
	xor	bl,ah
	xor	bl,ch
	mov	bl,cl
	xor	bl,dh
	or	esi,edi
	jbe	004027F5

l00402A1C:
	mov	bx,bx
	repne	
	ja	004027F5
	loop	00402A83
	cmp	[edi+59],ch

fn00402A2B()
	lea	esp,[esp+04]
	sub	ch,cl
	mov	edx,esi
	sub	dh,cl
	mov	edx,ecx
	xor	eax,esi
	or	cl,bl
	mov	dh,67
	adc	ch,82
	call	00402B30
	mov	ch,09
	mov	esp,85B33DD6

fn00402A4A()
	mov	bl,85

fn00402A4C()
	inc	edi
	inc	bl
	inc	esi
	adc	bl,2A
	add	bl,96
	mov	bl,14
	jc	00402197

fn00402A5E()
	jc	00402A60

l00402A60:
	xchg	ecx,ecx
	jnc	00402197

l00402A68:
	mov	ds,[esi]
	in	al,dx
	push	ss
	rcl	edx,02
	mov	edi,4E4AC2FE

fn00402A70()
	inc	dl
	dec	edx
	dec	esi

fn00402A74()
	inc	esi
	xor	esi,edx
	add	dh,dl
	adc	dh,86
	jle	00402F29

fn00402A82()
	jmp	00402A87

l00402A87:
	jg	00402F29

l00402A8D:
	scasb	
	mov	eax,[DE0BD272]

fn00402A91()
	or	ebx,esi

fn00402A93()
	mov	eax,[eax]
	add	bh,dh
	adc	bl,46
	sub	bh,al
	sub	bh,cl
	jz	0040238F

fn00402AA4()
	mov	eax,eax
	jge	00402AA8

l00402AA8:
	jnz	0040238F

l00402AAE:
	mov	ebx,035B5166

l00402AAF:
	push	cx
	pop	ebx

fn00402AB2()
	add	ebx,eax

fn00402AB3()
	fdiv	st(0),st(6)
	fld	tword ptr [ebx]
	retf	
	inc	bh
	neg	bh
	add	esi,eax
	sub	ecx,eax
	call	00402955

fn00402AC5()
	sbb	al,B8
	loopne	00402AAF
	leave	
	test	ch,47

fn00402ACD()
	inc	ch
	adc	ch,30
	sub	cl,bl
	add	edx,ebx
	mov	ecx,eax
	not	dh
	dec	dh
	js	00402BD5

l00402AE2:
	xchg	ecx,ecx
	jg	00402AE6

l00402AE6:
	jns	00402BD5

l00402AEC:
	hlt	
	push	es
	xchg	eax,ecx
	popa	
	pop	es
	or	esi,[ecx+4B]

fn00402AF4()
	dec	dl
	dec	esi
	add	esi,edi
	neg	dl
	dec	ebx
	adc	dl,55
	jbe	004024A0

l00402B05:
	xchg	bl,bl
	jnc	00402B09

l00402B09:
	ja	004024A0

l00402B0F:
	mov	esi,A1D3E160
	dec	esp
	illegal	
	mov	bh,FE

fn00402B17()
	inc	dh
	inc	esi
	or	cl,ah
	inc	ecx
	sub	bl,ch
	sub	esi,edi
	add	bh,cl
	call	004025B3
	inc	dword ptr [edi+49]
	push	edx
	ret	
00402B2E                                           2D ED               -.

fn00402B30()
	pop	dword ptr [esp-10]
	xor	ebx,edx
	not	bh
	or	bh,cl
	add	bl,5E
	pop	ecx
	add	bh,ch
	not	ah
	sub	al,ah
	sub	ah,ch
	jmp	004024EC
00402B4B                                  A7 44 44 D1 1F            .DD..
00402B50 CC DD 4A                                        ..J            

l00402B53:
	sub	edx,ebx
	neg	cl
	add	dh,al
	xor	edx,eax
	sub	bl,bh
	add	ebx,esi
	mov	ch,dh
	not	dl
	call	00402B80
	shl	byte ptr [ebp+338DCD4D],25
	stc	
	mov	ah,bl
	or	ecx,esi
	neg	bh
	add	ebx,ecx
	or	dl,ah
	sub	ecx,edx
	neg	al
	add	cl,dh

fn00402B80()
	pop	dword ptr [esp-20]
	mov	dl,78
	sub	bh,al
	mov	ch,DD
	sbb	ch,B9
	mov	ebx,11331731
	or	ecx,eax
	not	dh
	xor	edx,ebx
	dec	dh
	js	0040284D

l00402BA0:
	repne	
	jns	0040284D
	shr	[edi+edx-63],cl

l00402BAB:
	mov	ecx,edi
	mov	ecx,ebx
	add	dh,7C
	or	esi,ecx
	inc	esi
	or	cl,dh
	not	cl
	add	ch,5B
	sub	eax,00000C49
	add	dl,ch
	jc	00402AB2

l00402BCA:
	rep	
	jnc	00402AB2
	xchg	eax,ebp
	and	[ecx+F6D38B60],ecx

l00402BD5:
	mov	edx,ebx
	neg	ch
	xor	esi,edi
	sbb	ch,13
	add	esi,edi
	mov	esi,ebx
	or	dh,dl
	call	0040242A
	and	[ecx+CFFE409A],ah

l00402BED:
	dec	bh

fn00402BEF()
	or	ebx,eax
	add	bl,dh
	adc	bh,24
	inc	esi
	neg	bh
	lea	edx,[eax+000000F8]
	mov	bh,99
	add	bh,ah
	add	bh,bl
	jz	00402581

fn00402C0B()
	xchg	dl,dl
	jnz	00402581

l00402C13:
	xor	al,2E
	fdivr	double ptr [edi]
	sbb	ebp,[ebx]

l00402C19:
	ret	
00402C1A                               80 DC F3 32 D1 F6           ...2..
00402C20 DE 8A E0 F6 D8 F6 D1 0F 8C 43 FF FF FF 86 C9 87 .........C......
00402C30 C0 0F 8D 39 FF FF FF 45 9B 45 C8 B0 22 C6 2A    ...9...E.E..".*

fn00402C3F()
	mov	bl,ch
	xor	bl,ch
	inc	esi
	add	edi,esi
	adc	bh,F4
	not	bl
	add	bl,dl
	sbb	bl,BF
	pop	edx
	xor	ebx,esi
	jmp	004025CE
00402C58                         77 06 F8 50 AD 06 24 9B         w..P..$.

fn00402C60()
	not	bl
	xor	edi,ecx
	dec	eax
	or	edi,esi
	adc	dh,84
	mov	eax,edi
	jmp	00402D0D
00402C71    02 C6 D9 B8 BD A5 AE                          .......       

fn00402C78()
	neg	ah
	sub	eax,ecx
	xor	ebx,ecx
	sub	edi,esi
	xor	edi,ecx
	mov	dh,E3
	call	004027A6
	illegal	
	movsd	
	mov	al,[2B14B3A1]

fn00402C90()
	sub	ebx,esi
	neg	bl
	sub	dh,ch
	not	bl
	adc	dh,FA
	mov	edx,esi
	pop	edi
	add	dl,bh
	jl	00402333

l00402CA6:
	push	ax
	pop	ax
	jmp	00402CAF

l00402CAF:
	jge	00402333

l00402CB5:
	xchg	eax,ebx
	mov	dword ptr [eax+D980594E],D1DD80A5

fn00402CBA()
	sbb	cl,A5
	sbb	ch,D1
	sub	ch,dh
	sbb	dl,D6

l00402CC5:
	xor	edx,eax
	adc	cl,79
	js	004022BA

l00402CD0:
	mov	ebx,ebx
	xchg	edi,edi
	jns	004022BA

l00402CDA:
	xchg	eax,ecx
	jpe	00402CC5

l00402CDD:
	sub	al,72
	cmp	cl,bl

fn00402CE1()
	mov	[esp],ecx
	mov	edi,edi
	pop	ecx
	add	bl,ah
	sub	bh,cl
	mov	ebx,esi
	or	bh,cl
	movzx	ebx,ah
	mov	esi,edi
	dec	edi
	jc	00402D90

l00402CFB:
	xchg	edi,edi
	jmp	00402D02

l00402D02:
	jnc	00402D90

l00402D08:
	std	
	retf	F5F1
00402D0C                                     1E                      .  

fn00402D0D()
	shl	ecx,0F
	inc	ebx
	adc	bh,CB
	sbb	bh,1C
	mov	bl,dl
	add	ah,4F
	xor	eax,edi
	call	00402088
	pushf	
	clc	
	jo	00402D66

l00402D27:
	fstenv	word ptr [edx]

fn00402D28()
	xor	dh,dl
	xor	ebx,eax
	neg	cl
	or	ecx,eax
	inc	ebx
	add	ch,B7
	add	ebx,esi
	mov	esi,ecx
	call	0040288C
	or	esi,[edx+52]
	mov	ah,81
	in	al,dx
	div	byte ptr [ebx]

fn00402D44()
	xor	edi,esi

l00402D45:
	illegal	
	iret	
	mov	bh,DA
	add	eax,[eax+3C]
	neg	bl
	neg	bl
	add	bl,al
	not	bl
	add	bl,D1
	add	ebx,eax
	jl	00402BED

l00402D60:
	push	si
	pop	si
	xchg	si,si

fn00402D66()
	test	byte ptr [edi],8D
	cmp	dh,FF
	jmp	esi

l00402D6D:
	out	dx,al
00402D6E                                           76 7A               vz

l00402D70:
	sub	[edx],cl

fn00402D71()
	or	cl,dh
	add	ch,7B
	mov	[esp-08],eax
	or	edx,esi
	sbb	ch,DA
	adc	ch,DF
	xor	bh,bl
	jmp	00402E1E
00402D89                            2C 5B A3 8C 56 83 E9          ,[..V..

fn00402D90()
	mov	esi,eax
	xor	edi,ebx
	or	esi,edi
	mov	edi,ebx
	sub	edi,eax
	shr	eax,10
	jle	004026C2

l00402DA3:
	mov	dh,dh
	rep	
	jg	004026C2
	adc	ch,02
	repne	
	pop	ss
	push	esi
	adc	[esi+86241489],dh

fn00402DB4()
	mov	[esp],edx
	xchg	bl,bl
	jmp	00402DBE

l00402DBE:
	pop	edx
	add	eax,08
	adc	bh,1D
	dec	ebx
	sub	ebx,eax
	mov	ebx,esi
	jz	00402064

l00402DD0:
	mov	bh,bh
	jpe	00402DD4

l00402DD4:
	jnz	00402064

l00402DDA:
	and	edx,[eax+873F2515]

fn00402DDF()
	xchg	[esp],eax

fn00402DE0()
	add	al,24
	lea	bx,[ebx]
	pop	eax
	shr	ecx,0F
	sub	edx,eax

fn00402DEA()
	rol	byte ptr [eax+18B684D6],01

fn00402DEB()
	adc	dh,84
	mov	dh,18
	xor	eax,edx
	not	bl
	not	ah
	jmp	00402C60
00402DFB                                  61 7D C8 CF 56            a}..V
00402E00 D8 21 DB                                        .!.            

l00402E03:
	add	esi,edi
	dec	dh
	sbb	dh,2D
	xor	edx,ecx
	inc	esi
	xor	dh,dl
	mov	dl,AE
	call	00402509
	mov	[D26CF445],al
	ret	1F16

l00402E1E:
	adc	ch,9C
	sub	ebx,edx
	inc	ebx
	add	edi,ecx
	or	bh,ch
	mov	dh,bh
	sbb	dh,23
	dec	cl
	jmp	0040229F
00402E34             85 51 B2 35 A4                          .Q.5.      

fn00402E39()
	xchg	[esp],eax
	jle	00402E3E

l00402E3E:
	pop	eax
	not	dl
	add	ch,dl
	sub	dh,bl

fn00402E45()
	mov	esi,ebx
	neg	dh
	neg	ch
	inc	cl
	jmp	00402ACD
00402E52       73 72 BB 16 27 4B D7 4A                     sr..'K.J     

fn00402E5A()
	not	dl
	dec	edx
	mov	dh,BD
	add	edx,edi
	dec	bl
	not	bl
	not	dl
	or	bh,cl
	or	edx,edi
	sbb	bl,33
	call	004028F4
	xor	esi,esi
	jnz	00402E9F

l00402E77:
	push	07

fn00402E79()
	lea	esp,[esp+04]
	xor	bh,ch
	xor	bl,dl
	sub	bl,dh
	inc	esi
	inc	esi
	jmp	00402254
00402E8A                               17 E6 D2 0D 90 D0           ......
00402E90 A8 C5                                           ..             

fn00402E92()
	lea	esp,[esp+04]
	push	40
	sub	edx,eax
	dec	al
	or	al,dl
	mov	al,7B

fn00402E9F()
	jpo	00402ECB

l00402EA1:
	out	dx,ax
	call	00402615

fn00402EA7()
	js	00402F14

fn00402EA9()
	popf	
	xor	ebx,ebx

fn00402EAD()
	pop	dword ptr [esp-34]
	add	dh,E8
	xor	ch,bl
	dec	bh
	or	edi,ebx
	adc	cl,EE
	neg	bh
	or	cl,al
	add	ebx,edi
	jmp	00402D71
00402EC8                         D7 79 38                        .y8    

l00402ECB:
	shr	dword ptr [eax],01
	in	eax,1E
	mov	ebp,[edx]
	enter	FA2A,B3
	push	cs
	add	bh,al
	add	eax,00000C49
	sub	edx,ebx
	jmp	00402D28
00402EE5                4A 05 25 58 1F 49 C0                  J.%X.I.   

fn00402EEC()
	pop	dword ptr [esp-2C]
	not	dh
	add	esi,ebx
	xor	dh,ch
	dec	edx
	dec	dl
	jmp	0040230F
00402EFE                                           8E 03               ..
00402F00 C7 DC                                           ..             

l00402F02:
	dec	esi
	mov	edx,ebx
	neg	dl
	sub	dh,bh
	add	dh,cl
	dec	dl
	sbb	dh,C2
	dec	esi
	add	esi,edx
	jle	0040247E

fn00402F14()
	mov	fs,[ebp-0B]
	illegal	

l00402F19:
	lea	si,[esi]
	jg	0040247E

l00402F22:
	cmp	esi,[ebp+10D9B57F]
	xchg	eax,esp

fn00402F29()
	add	dh,ah
	add	dl,al
	mov	dl,ah
	sub	edx,eax
	xor	edx,edi
	dec	dh
	sub	dh,cl
	add	dh,al
	dec	dh
	or	edx,ebx
	jmp	0040254D
00402F42       84 20 D2 17 76 4A 79 00 00 00 00 00 00 00   . ..vJy.......
00402F50 00 00 00 00 00 00 00 00 00 00 00 00 00 00 00 00 ................
00402F60 00 00 00 00 00 00 00 00 00 00 00 00 00 00 00 00 ................
00402F70 00 00 00 00 00 00 00 00 00 00 00 00 00 00 00 00 ................
00402F80 00 00 00 00 00 00 00 00 00 00 00 00 00 00 00 00 ................
00402F90 00 00 00 00 00 00 00 00 00 00 00 00 00 00 00 00 ................
00402FA0 00 00 00 00 00 00 00 00 00 00 00 00 00 00 00 00 ................
00402FB0 00 00 00 00 00 00 00 00 00 00 00 00 00 00 00 00 ................
00402FC0 00 00 00 00 00 00 00 00 00 00 00 00 00 00 00 00 ................
00402FD0 00 00 00 00 00 00 00 00 00 00 00 00 00 00 00 00 ................
00402FE0 00 00 00 00 00 00 00 00 00 00 00 00 00 00 00 00 ................
00402FF0 00 00 00 00 00 00 00 00 00 00 00 00 00 00 00 00 ................
00403000 84 00 AC 86 53 80 00 5B DB 3A 1F 8B 7A 82 FF EF ....S..[.:..z...
00403010 4B 94 00 C0 FF 21 00 46 07 97 8F C5 96 82 63 63 K....!.F......cc
00403020 50 ED 9F 66 40 08 9B EF 81 46 82 00 57 AC F9 41 P..f@....F..W..A
00403030 D9 93 BD 90 D5 4D 00 E7 C3 7F 78 37 89 54 F6 31 .....M....x7.T.1
00403040 A2 D3 7C 7D FF FC 1D 32 BF FF 49 8B 99 AC 64 6F ..|}...2..I...do
00403050 00 07 31 33 A1 69 00 CF 88 60 E3 03 3A 0C A7 42 ..13.i...`..:..B
00403060 28 1C 2A 75 46 F7 38 00 8D 22 7E B8 C6 1E 14 08 (.*uF.8.."~.....
00403070 D8 9D 71 3D 00 AD 47 AA 2F 27 00 AB 5C 00 00 CB ..q=..G./'..\...
00403080 00 A4 C0 F9 EF 05 4D 07 30 FF 40 00 57 A0 38 DE ......M.0.@.W.8.
00403090 FF FF 29 4E BF 6D 08 13 D7 F3 6E A1 E6 AB 33 32 ..)N.m....n...32
004030A0 87 25 D8 F5 E0 00 66 63 00 3B 23 72 B6 DE 9A 34 .%....fc.;#r...4
004030B0 FF 00 00 2F 1B 6F D3 89 5D F0 40 83 76 A7 1C 4A .../.o..].@.v..J
004030C0 FB 25 00 E7 00 10 0D 00 DC CB 37 89 22 C0 00 BD .%........7."...
004030D0 00 21 FF 8C D9 1B CC 29 00 C0 00 00 00 D4 F3 9D .!.....)........
004030E0 00 F7 00 2A 75 A4 81 14 CA 05 FA 00 7C 61 18 FE ...*u.......|a..
004030F0 00 4B E3 D0 8A 06 00 0F B8 20 06 9E 46 32 A9 FA .K....... ..F2..
00403100 C1 38 8B 28 4F A5 00 F6 B4 FF CC CE 83 49 90 6D .8.(O........I.m
00403110 27 11 FF FB FF 0A 71 85 B3 40 E4 AD 1A 21 00 AE '.....q..@...!..
00403120 72 16 00 E8 14 FA 40 1B 00 9F 74 BC 71 DC 18 FE r.....@...t.q...
00403130 0D 7D B2 FF 3F 58 00 A5 DE C2 1A 64 CF 76 00 FB .}..?X.....d.v..
00403140 E1 00 82 F7 E5 3B 08 24 A5 71 B8 27 44 C3 00 32 .....;.$.q.'D..2
00403150 5A 00 58 F5 4E 4E 07 8E 64 C5 FF E7 FE F4 1A 9B Z.X.NN..d.......
00403160 FF 9C 00 C3 72 BD 28 FF 8E 36 BB 00 00 E0 D7 8C ....r.(..6......
00403170 1A AB 28 EA 6A 64 D8 E8 B7 E2 6B 00 FF 00 00 46 ..(.jd....k....F
00403180 77 00 21 00 6D 83 1B 81 4E 48 70 88 84 1D 00 E6 w.!.m...NHp.....
00403190 71 2D 20 30 14 09 09 2D 7C 4E 00 19 B7 06 5F 58 q- 0...-|N...._X
004031A0 7A 62 00 E6 00 C2 00 6C 26 00 55 3C FF 00 28 06 zb.....l&.U<..(.
004031B0 00 D4 E4 41 3F FC EC E9 2C 20 37 BF F9 F5 28 D0 ...A?..., 7...(.
004031C0 2C 31 00 83 EC B3 00 00 C5 DE 4F 1D 04 16 4A 64 ,1........O...Jd
004031D0 FF E4 00 ED 60 72 E2 BF F0 F2 59 FF FD 08 1E AA ....`r....Y.....
004031E0 52 80 9F 00 45 79 FB FF EF D9 99 3F B0 31 96 6C R...Ey.....?.1.l
004031F0 A2 C7 04 A0 3D B4 1B 00 00 C5 64 F8 55 33 C9 00 ....=.....d.U3..
00403200 00 64 02 24 0F 00 00 AE 73 00 F8 0D 5F 00 E4 0B .d.$....s..._...
00403210 40 FF E1 7A B5 47 18 C7 0A C2 27 FF BF 85 76 00 @..z.G....'...v.
00403220 58 A3 04 BB 61 A1 00 EE FF 83 95 B3 00 98 DF 40 X...a..........@
00403230 FF 4B F6 52 3E 84 95 00 54 0E C8 46 00 0E FE 32 .K.R>...T..F...2
00403240 85 F7 60 AB C9 EB 81 35 4E D1 33 D0 47 B8 B7 00 ..`....5N.3.G...
00403250 81 50 FF 05 C5 CD FE C4 54 B9 1C 8D 22 00 C3 C1 .P......T..."...
00403260 F7 03 D5 B3 00 EF A8 86 82 00 7F BD BE 44 22 9C .............D".
00403270 C0 62 00 00 8F 76 D3 FB 21 BD EF 03 A4 00 A0 F1 .b...v..!.......
00403280 97 4D 86 9D 90 DE D1 00 A1 C3 73 94 76 AC 02 11 .M........s.v...
00403290 00 6C 61 00 FF 06 7F 00 1A A5 20 DB 00 08 2E 5D .la....... ....]
004032A0 00 B9 00 AB E8 7A B3 19 B8 72 C9 00 F4 00 4B BE .....z...r....K.
004032B0 15 78 0B 00 6B C9 FE EF 6D 37 D1 40 61 85 A7 EC .x..k...m7.@a...
004032C0 6D BD FF 14 64 F5 DE 40 FF 85 F6 BB DD 96 47 0C m...d..@......G.
004032D0 B2 40 00 8B A2 A2 87 1D 07 0C 70 E1 36 15 D1 00 .@........p.6...
004032E0 8D 5D DB B7 16 A0 E7 FF 91 97 00 96 B7 D4 3B 14 .]............;.
004032F0 01 FF 5B 00 41 C3 00 DF 00 60 FF F7 00 21 9C F3 ..[.A....`...!..
00403300 34 78 A9 FD D9 18 FF C4 78 00 78 06 04 F8 00 04 4x......x.x.....
00403310 27 33 ED 80 19 5E 6F 83 52 DF FF 72 4B 7E 00 FF '3...^o.R..rK~..
00403320 F3 51 F0 09 D7 29 AD 00 B7 E7 00 60 00 04 3C D3 .Q...).....`..<.
00403330 7B 00 00 60 02 00 F9 91 17 02 DF 23 DE 97 3A 7E {..`.......#..:~
00403340 5D D7 87 00 E9 3E 74 3C 49 97 61 AA 33 D8 EF FF ]....>t<I.a.3...
00403350 F0 CD 41 46 E0 2C C9 80 F0 C9 2E C7 21 67 7B 81 ..AF.,......!g{.
00403360 05 20 BF 2C 10 49 FF F4 35 D9 01 2D B3 00 B0 71 . .,.I..5..-...q
00403370 FF 74 BC EA 44 4D 52 00 D2 80 C7 03 B0 8E 93 85 .t..DMR.........
00403380 91 00 76 99 75 92 F7 7D CD 43 D2 FF 4C D6 99 18 ..v.u..}.C..L...
00403390 EB FF 39 46 E0 00 A6 51 E7 00 69 ED F0 53 FA 2B ..9F...Q..i..S.+
004033A0 A0 16 29 45 0D 60 46 95 89 31 10 0D 0E EF 11 03 ..)E.`F..1......
004033B0 BF 9E 0F 71 C5 BB 86 1A 0A 39 DB 06 8D FB FE 00 ...q.....9......
004033C0 0C 08 FF D3 2C 11 00 66 C0 8E 56 95 E4 F4 00 89 ....,..f..V.....
004033D0 B1 00 7B 03 73 00 AC 0C 00 1C 37 00 00 B3 A4 1C ..{.s.....7.....
004033E0 00 EC 00 E8 FF 3F AF 00 B1 B2 A6 58 FD 56 C3 41 .....?.....X.V.A
004033F0 00 10 D8 00 0F 91 2C 7A B0 20 9E 82 5C 00 BF 02 ......,z. ..\...
00403400 00 F6 0C 94 00 D3 0A 2A D8 00 CC 93 3B D7 B6 AE .......*....;...
00403410 8E E0 1F 21 7D 00 26 00 E3 FF 80 AF 50 D2 D6 DD ...!}.&.....P...
00403420 E2 A6 61 18 AB D9 DE 33 00 14 CD 87 B0 8A 3F B8 ..a....3......?.
00403430 44 53 EB E3 00 9B 00 00 90 00 B4 C0 86 B3 CB 67 DS.............g
00403440 F4 00 8C FA 9A 8F 00 FF 2C 47 66 FE 1F 83 9A F8 ........,Gf.....
00403450 6D FF 0D EA 88 29 01 83 DE 45 4A 93 00 40 4E 80 m....)...EJ..@N.
00403460 7C 00 D1 11 E1 98 49 35 77 00 23 EB 87 E2 57 20 |.....I5w.#...W 
00403470 00 D5 16 AD DB 57 12 53 79 4F 39 4C DE F4 67 78 .....W.SyO9L..gx
00403480 C8 F0 7A 89 23 0B BE D4 7D 00 AD 26 14 C3 46 C9 ..z.#...}..&..F.
00403490 3D 77 11 B9 98 A4 EA 78 14 94 00 DD 0C FF 8A 92 =w.....x........
004034A0 2E 68 4D 75 55 00 0E 1A 75 70 00 FF 2B F7 7D 37 .hMuU...up..+.}7
004034B0 5C 23 62 70 E9 F1 73 9E FF 04 16 6B 89 F5 76 37 \#bp..s....k..v7
004034C0 15 48 FF 44 60 FF 00 28 DC 0C FB FF 09 C0 97 00 .H.D`..(........
004034D0 C7 E4 66 00 2B 00 B8 00 9B 80 09 A0 00 00 32 D8 ..f.+.........2.
004034E0 C6 ED 9C 0A 0C A3 19 8C 3C 4B AB BF A9 5E 47 C9 ........<K...^G.
004034F0 53 61 2B 00 DC A4 7A FB 00 54 7F 7D 19 EB 37 F5 Sa+...z..T.}..7.
00403500 53 FF 00 0D 00 04 68 AF 85 16 1D 1E F1 30 FF F8 S.....h......0..
00403510 B7 C0 04 20 5B 71 0A 00 4A DF 40 AF A0 3C 00 11 ... [q..J.@..<..
00403520 76 43 84 00 EB 9B 9D F2 00 00 35 74 80 00 72 57 vC........5t..rW
00403530 F1 AF F3 FF C8 44 C3 3A 27 99 64 00 75 3C B9 CF .....D.:'.d.u<..
00403540 3F EC EE 01 C3 08 00 80 18 19 03 DF 3A CA 46 00 ?...........:.F.
00403550 11 B2 7F 73 7E C7 57 0A 09 4C 3E 9D 50 D6 7E 36 ...s~.W..L>.P.~6
00403560 E5 CC 75 CD 00 FF 72 FF 57 FF 99 21 B1 92 44 DF ..u...r.W..!..D.
00403570 0A 3E FA 00 66 75 B2 AE 54 23 5B 8D BF 8C 69 5A .>..fu..T#[...iZ
00403580 EE 74 BA 28 FE 15 17 EE 6D 20 93 29 3F F7 C0 EF .t.(....m .)?...
00403590 27 51 7D 0C F7 13 93 91 F2 A3 1C 02 E0 73 EA C5 'Q}..........s..
004035A0 00 FF 61 6F 40 FB E7 62 40 AE 43 91 C8 B1 7E E2 ..ao@..b@.C...~.
004035B0 E4 98 00 0A EA 4C 26 FF 26 0E 42 97 38 E3 07 2B .....L&.&.B.8..+
004035C0 0C 48 9B 02 00 16 C9 56 00 DA FF 00 10 E8 F0 EC .H.....V........
004035D0 D7 3F DF FF D8 A1 DB EA C9 68 BF 00 D3 F9 11 6C .?.......h.....l
004035E0 82 A4 00 58 CE 3D CC 89 68 45 00 91 29 F3 A2 DA ...X.=..hE..)...
004035F0 AF 00 82 90 12 A0 7A 00 7E CF 4B 00 51 E8 79 FF ......z.~.K.Q.y.
00403600 A4 18 E0 32 96 8A 06 10 5A 25 FF 0A 15 67 00 00 ...2....Z%...g..
00403610 71 FC ED F4 D4 85 78 EF 00 00 F3 C6 00 E4 08 DC q.....x.........
00403620 B5 2C 68 2F CE CF 0E 2A 39 D8 20 14 C8 A1 B0 8E .,h/...*9. .....
00403630 00 8F E7 97 B9 30 D4 C8 31 A0 A1 DA FF FC D1 66 .....0..1......f
00403640 EF 42 10 37 02 26 CC F9 34 BB 26 8C 63 BD BA 4B .B.7.&..4.&.c..K
00403650 00 1F A1 1C 8B 1E FF DF 0D 07 13 FE 0D 9E EB EC ................
00403660 0A 82 7A F1 3D 38 00 2A 29 49 17 71 16 ED 00 6C ..z.=8.*)I.q...l
00403670 00 EF 06 00 1C 30 02 F8 E9 5D 57 00 80 AC 72 FF .....0...]W...r.
00403680 D7 73 62 9A 89 8F 46 00 00 9A 43 A1 C8 24 60 00 .sb...F...C..$`.
00403690 5D 05 E3 00 FF F4 CF F8 14 DE 40 06 00 14 30 71 ].........@...0q
004036A0 1B 74 21 7C 52 02 76 F7 4D 7A E7 64 DC C8 FF 33 .t!|R.v.Mz.d...3
004036B0 C1 D6 83 FA 00 73 10 58 67 63 00 71 9A 68 BA 26 .....s.Xgc.q.h.&
004036C0 91 90 03 00 D2 0F 20 FF 48 DC 43 75 DB C3 EA 7D ...... .H.Cu...}
004036D0 00 1D 10 27 34 00 0B E2 25 4D 00 88 FD 02 A6 3E ...'4...%M.....>
004036E0 F4 0E AF 8F 13 39 FB A0 05 06 44 04 EF F6 19 A0 .....9....D.....
004036F0 00 2F FF 19 F7 B5 9D 00 A9 92 00 7C 9A 5A C1 DD ./.........|.Z..
00403700 0A 08 5A AA 9F 82 F2 C4 5F F2 F7 9F 00 AA 5F 06 ..Z....._....._.
00403710 D2 FF 70 D2 17 22 01 80 40 7F FF 9E 8A F6 FE C2 ..p.."..@.......
00403720 87 74 87 F4 0A 00 2C 67 C3 1D 89 BE 70 D9 CF 20 .t....,g....p.. 
00403730 EB C6 00 E4 DA 81 82 54 B3 E6 35 4A 61 4D 0A 26 .......T..5JaM.&
00403740 30 6E 06 5B 25 34 84 75 18 36 00 CA B8 99 61 4C 0n.[%4.u.6....aL
00403750 DE 00 D2 E9 B4 FB C1 FF 07 92 BA EE 86 E7 00 D8 ................
00403760 00 FF 51 F9 FF F3 8E FE 00 0F 10 F3 86 F1 00 10 ..Q.............
00403770 9D 22 E3 FF C6 93 A0 44 D5 B0 C4 4E 9D 57 86 C5 .".....D...N.W..
00403780 06 D1 FF 77 E1 8B D7 E4 8F 41 76 75 22 00 09 F5 ...w.....Avu"...
00403790 2C C0 9E 24 15 31 EE FB 00 C4 70 00 9C 9B 57 00 ,..$.1....p...W.
004037A0 4F 00 9F 31 F1 00 00 6D 02 FF 0B CE FF 9E 02 42 O..1...m.......B
004037B0 FF 00 FF A3 ED 27 00 8F 42 A9 86 20 BF 5A 77 4C .....'..B.. .ZwL
004037C0 D2 E4 C8 BD 53 99 FF 01 30 74 64 D2 53 E9 6D 20 ....S...0td.S.m 
004037D0 FD 46 7D 18 67 E1 E5 E7 96 B4 91 24 B6 C8 50 F7 .F}.g......$..P.
004037E0 EA 00 E7 40 BD DB E6 45 D6 C9 59 F0 03 2C 73 62 ...@...E..Y..,sb
004037F0 FF 00 3D 77 B6 00 00 64 00 18 00 F7 82 C5 1C 81 ..=w...d........
00403800 3E 28 55 00 BA FF CF 91 04 94 00 14 51 4A 19 BD >(U.........QJ..
00403810 E5 3A BB E4 7C 0F 8B 70 61 FF 20 D7 79 35 00 BD .:..|..pa. .y5..
00403820 FB C0 C3 46 E8 F7 44 E1 BB 5C F1 FF 7F 0F 51 45 ...F..D..\....QE
00403830 5F 54 6D 77 10 3F 9C 43 44 7C B4 7F 30 54 CA A7 _Tmw.?.CD|..0T..
00403840 21 E4 E8 99 FF 1C 3A 4E 00 DD 00 72 09 0D 44 FF !.....:N...r..D.
00403850 36 D7 0A FF AC 13 43 62 FF 70 00 07 CB 40 DD 2F 6.....Cb.p...@./
00403860 00 C0 DA B1 03 E7 BD 05 00 C9 B2 24 23 4A C5 17 ...........$#J..
00403870 EC 80 E9 0D 1D FF 51 C4 8F 6F E9 2B 2C D4 C2 61 ......Q..o.+,..a
00403880 22 6D 36 72 A2 92 BF 61 10 26 E7 FB 0C 08 28 00 "m6r...a.&....(.
00403890 5C 5C 03 45 80 AB 98 71 00 FB 00 00 AD 40 66 D1 \\.E...q.....@f.
004038A0 E9 66 64 00 9D 85 F7 40 8A 6C E6 7D 00 D5 C3 BA .fd....@.l.}....
004038B0 F0 00 95 E3 80 58 2B 99 A0 D8 C0 67 6C C7 23 2D .....X+....gl.#-
004038C0 4C 58 DE B4 00 40 C0 4A 3E 98 FF 20 4A AA B6 26 LX...@.J>.. J..&
004038D0 E7 80 7E D6 B8 2D 6E 00 17 02 00 E5 15 80 1E 12 ..~..-n.........
004038E0 00 86 00 7B C3 00 71 81 E7 3A 08 12 FF CF C7 4F ...{..q..:.....O
004038F0 00 0C 9D FF 60 4E 00 FA 48 FF D3 66 E2 0B 76 3F ....`N..H..f..v?
00403900 9E F1 24 F4 31 DF A4 37 CB 61 B4 43 AB E4 D8 C7 ..$.1..7.a.C....
00403910 40 E2 98 D2 4F 75 D5 52 91 7B 00 5E 7E A5 E1 77 @...Ou.R.{.^~..w
00403920 48 AD 92 F2 F1 A9 2D 07 B4 A7 FF 07 ED C0 8B A6 H.....-.........
00403930 DE DE 21 7A 21 00 18 57 00 C7 69 E5 A1 B9 52 2F ..!z!..W..i...R/
00403940 FF 34 FF 48 C6 FF 84 2D 8A 73 18 A7 00 D0 8D BF .4.H...-.s......
00403950 87 9F 00 FF 00 00 00 C2 CB BE 56 4F 0B BB 85 7D ..........VO...}
00403960 FD 33 71 CB 2B 09 F3 AD 2E 00 05 B9 07 83 D9 7A .3q.+..........z
00403970 D5 BA 2D 1E 40 00 63 15 40 3E 40 EA 51 A4 E7 59 ..-.@.c.@>@.Q..Y
00403980 C3 00 76 06 A2 3B 39 C3 A7 62 57 6D DB 8E 21 30 ..v..;9..bWm..!0
00403990 EB 5D FB AF 3D DD E0 7E 35 00 D2 00 14 61 38 5C .]..=..~5....a8\
004039A0 00 2A FF 7E 25 76 A0 CE 83 10 09 66 EF E5 8C 85 .*.~%v.....f....
004039B0 4A 00 3B 21 D7 A0 F9 7C 50 DE 0C 20 82 DD CB 9E J.;!...|P.. ....
004039C0 0F 9D FC 78 B3 90 8C CA 2A 95 A4 9B 6E D8 83 39 ...x....*...n..9
004039D0 D1 46 61 EF 00 6D 00 FF EB EC 63 F9 3E 7E 8C DB .Fa..m....c.>~..
004039E0 6B C7 A5 4A 1B 90 C7 E4 61 11 93 E6 FD 4F 13 47 k..J....a....O.G
004039F0 2A 20 12 B8 87 E1 00 10 61 D3 C4 D5 0B 97 50 B2 * ......a.....P.
00403A00 04 00 FE 34 A5 29 C3 2C 1D DA F7 CF 9A 27 00 79 ...4.).,.....'.y
00403A10 D8 A3 C1 C5 1C E3 8E B0 00 D8 20 63 7C CD 1C 18 .......... c|...
00403A20 D7 0A 8E 7A 06 57 00 86 63 7C E4 C9 34 09 00 08 ...z.W..c|..4...
00403A30 FF EF 2F 54 00 83 FB 11 D0 CD 45 7A 66 E5 A8 31 ../T......Ezf..1
00403A40 8F 2F 20 33 1F E1 95 80 16 FF 50 1C 4C 18 68 E5 ./ 3......P.L.h.
00403A50 21 72 FD 74 C6 00 A3 12 C7 00 86 D6 A1 00 13 1E !r.t............
00403A60 67 28 00 F0 9B BF C9 5A F0 02 00 F3 FF 47 38 9B g(.....Z.....G8.
00403A70 89 00 63 17 A1 A8 09 56 01 FF ED 00 76 D8 A9 32 ..c....V....v..2
00403A80 7A FF 00 D4 6B 92 00 50 8B FF 4B 81 02 00 18 CA z...k..P..K.....
00403A90 D3 E3 A0 5E 23 32 7F A1 9C 00 52 0B C5 21 73 22 ...^#2....R..!s"
00403AA0 F8 C0 30 BF 92 03 7C 06 BB 9C 02 58 00 FA 97 E5 ..0...|....X....
00403AB0 00 1E 11 08 B4 83 D4 93 DB DC 23 E6 EA 66 C6 FF ..........#..f..
00403AC0 00 02 6B 00 FF 49 16 68 19 36 B4 4B AE 00 29 49 ..k..I.h.6.K..)I
00403AD0 4B A9 18 08 6B 12 70 EB 39 0C 59 2E EB 89 8D FF K...k.p.9.Y.....
00403AE0 33 31 7B 4F 3B 00 6E 55 27 3C A4 73 FC 00 8F 00 31{O;.nU'<.s....
00403AF0 70 9A 62 00 EC CD 8A A4 EB 39 4F FF E8 6A 00 00 p.b......9O..j..
00403B00 FF D7 06 00 72 1E AF 64 E8 BD D2 18 EF C3 4C 09 ....r..d......L.
00403B10 00 9A C0 0B 33 08 E8 71 C0 05 51 AE 1F A8 9D C3 ....3..q..Q.....
00403B20 61 E2 7B E5 BF 0F E4 43 F4 1C CF 2D C0 43 EF 69 a.{....C...-.C.i
00403B30 70 0A 93 B4 00 D4 0D 24 C6 00 1B 6F D5 53 23 4A p......$...o.S#J
00403B40 A2 20 7C C2 7C 00 55 C2 54 5C 45 00 93 4B 00 36 . |.|.U.T\E..K.6
00403B50 0B C3 00 27 40 5A E3 BF 4E F5 F5 8E 69 12 C1 84 ...'@Z..N...i...
00403B60 71 DA 00 E6 39 2F 91 96 8C C5 9C 72 21 FF E7 76 q...9/.....r!..v
00403B70 63 E4 36 4F 5C 07 08 F1 F0 CC 1F 0F D3 39 1B A0 c.6O\........9..
00403B80 00 32 17 66 26 00 A3 91 95 3A 00 1D DF 0E F3 D1 .2.f&....:......
00403B90 E8 AB 6D B1 D2 69 FE 59 44 86 F1 CC 3E 1E FC BC ..m..i.YD...>...
00403BA0 40 7C 9E 0D 7E E5 C0 80 A4 AC 9B 2C 03 CE FB 61 @|..~......,...a
00403BB0 35 FD 8C A2 1F 00 CE FE FB AB 5E 89 00 C9 18 1F 5.........^.....
00403BC0 8B FF 00 FF 47 F9 C6 40 39 00 00 6C 00 CD BA F9 ....G..@9..l....
00403BD0 15 00 1B D1 F2 9C BE F6 BF EA 60 07 5F 00 2F D9 ..........`._./.
00403BE0 0D 62 42 62 AA FF 2B 38 3F D0 51 F9 38 B7 2B C2 .bBb..+8?.Q.8.+.
00403BF0 81 D6 00 10 02 68 66 24 65 6F 82 B6 00 0C 00 A8 .....hf$eo......
00403C00 19 07 8E 00 60 E4 29 1C 83 03 00 4F 84 C0 FA 1C ....`.)....O....
00403C10 5E 33 43 B9 00 38 8C F7 FF 9B 6E 11 81 45 A8 1D ^3C..8....n..E..
00403C20 DE FF F6 26 EF 72 3E E7 96 70 D3 FF BD D0 1C 10 ...&.r>..p......
00403C30 D0 2A 44 12 FA C0 92 81 4B 00 6A CA 44 B5 04 2C .*D.....K.j.D..,
00403C40 EB C7 38 74 FF F9 04 9A 00 FF 68 6D C5 CB CA 0A ..8t......hm....
00403C50 00 7D 00 30 F8 64 04 93 C7 AD 98 6F AF 08 19 25 .}.0.d.....o...%
00403C60 04 2D 02 E0 6B 97 60 FA 00 B4 AF 58 FF 09 69 D3 .-..k.`....X..i.
00403C70 97 2D B6 95 43 EB 8D F5 60 7F C5 27 9A 83 2F 43 .-..C...`..'../C
00403C80 F0 E8 4C 3B 07 5E 46 FF 10 FF DD 01 8D 00 76 00 ..L;.^F.......v.
00403C90 F4 94 8B 1B 08 00 88 A2 DB FB 00 37 F7 2B 76 11 ...........7.+v.
00403CA0 C0 95 E1 5F AF 92 00 50 86 0C 29 70 E7 F0 40 5B ..._...P..)p..@[
00403CB0 00 04 DB 02 B9 2C 34 F6 B0 00 01 93 E0 B7 84 00 .....,4.........
00403CC0 38 0E A3 F4 60 D8 3A E8 A4 66 C4 AC DA DB 00 DB 8...`.:..f......
00403CD0 06 B4 3B DD 5C 00 77 FF FF F2 E2 0A CB 00 B3 D5 ..;.\.w.........
00403CE0 2E 24 82 61 CC C8 70 47 00 48 69 0D BE 00 00 5B .$.a..pG.Hi....[
00403CF0 DA F1 CB 9A 29 F3 EC F6 2B 69 CD 00 B4 C0 00 7B ....)...+i.....{
00403D00 3C 00 00 BA 00 03 7D 91 FC 89 D1 DA FB 19 93 B3 <.....}.........
00403D10 A2 01 40 1A 8A FF C8 76 84 03 B6 00 B0 71 D5 FF ..@....v.....q..
00403D20 AE E3 17 51 16 CD C1 BD C3 FF 81 00 E8 B6 BB 4D ...Q...........M
00403D30 F0 CF 66 8D 26 FF 16 81 84 31 5A 21 DF DF 73 93 ..f.&....1Z!..s.
00403D40 00 B1 26 B1 BF CC DE A8 83 FD 81 CB 4E 5C 00 5A ..&.........N\.Z
00403D50 33 CC 00 0B 36 75 11 10 21 8C 61 CF 30 51 00 51 3...6u..!.a.0Q.Q
00403D60 FF AA 40 C4 B2 22 E9 C5 00 A6 73 00 31 26 81 03 ..@.."....s.1&..
00403D70 FF 6E 00 89 B3 71 FF DD AF 38 01 9F D2 FE 1B 45 .n...q...8.....E
00403D80 F9 F8 4E 3D 03 73 31 54 7C E3 67 00 E8 61 30 4B ..N=.s1T|.g..a0K
00403D90 7D 38 D4 76 10 F9 C3 03 6C 16 00 F7 1A 98 55 FF }8.v....l.....U.
00403DA0 F4 E1 62 C4 00 E8 47 DC E2 44 F2 63 CF BC 72 FF ..b...G..D.c..r.
00403DB0 38 18 1C FF EB 00 C8 FA 6C C2 68 F8 8F 48 BC 80 8.......l.h..H..
00403DC0 C6 80 A7 F1 14 92 7D 41 12 9E 55 F3 89 93 FF 9B ......}A..U.....
00403DD0 E9 BE 00 46 07 FB 73 00 0E 62 63 FE 1B A9 2B 71 ...F..s..bc...+q
00403DE0 EB 9B 37 3A CF 00 E0 F1 00 FC 3A 00 0D 19 F0 93 ..7:......:.....
00403DF0 60 04 C3 41 70 95 00 50 0A 59 99 57 3D 81 7A 79 `..Ap..P.Y.W=.zy
00403E00 09 F6 6E 02 D2 E0 01 F6 58 EC 54 92 5C 25 00 1A ..n.....X.T.\%..
00403E10 52 FF 00 75 F0 F7 BD 20 81 51 AB CC A1 BF 22 4C R..u... .Q...."L
00403E20 C4 00 50 A9 0A 9A 37 71 53 07 5C 38 98 74 E8 00 ..P...7qS.\8.t..
00403E30 01 93 90 AC 2E CB 6F 5E EF 60 0C CB F0 FF 0C 53 ......o^.`.....S
00403E40 C4 D1 11 5D 24 A8 AD D6 18 FF 68 00 35 42 14 65 ...]$.....h.5B.e
00403E50 62 64 09 00 64 42 A1 44 00 86 C5 34 71 8C 80 00 bd..dB.D...4q...
00403E60 FF 28 33 C7 96 1B 2B B5 00 1B 9E 45 F8 DC 77 E6 .(3...+....E..w.
00403E70 50 2F 01 81 31 4D 00 72 00 DE 3C 28 2E 04 E3 F8 P/..1M.r..<(....
00403E80 AB 2B C2 F3 3C EA 95 7B 2D D6 B3 D0 FF 01 C6 A1 .+..<..{-.......
00403E90 2F 00 4F 0F 6A C5 59 1F EC 0B 00 72 00 4B FB 4F /.O.j.Y....r.K.O
00403EA0 60 5B 5B BE 35 C2 F7 0C 68 06 49 15 1A B8 AD AF `[[.5...h.I.....
00403EB0 E2 24 C3 FA 00 9F 60 00 28 2B 37 0A CF 83 94 50 .$....`.(+7....P
00403EC0 B2 4C 1A 64 C5 70 00 B8 92 89 FF 44 70 BB 6E 00 .L.d.p.....Dp.n.
00403ED0 0D 7E 9F 81 52 00 EC 91 43 BC B4 E8 00 31 17 D7 .~..R...C....1..
00403EE0 20 13 A7 D5 B3 39 35 5B 64 6B BE 25 7B 84 00 94  ....95[dk.%{...
00403EF0 7B 46 1F E0 D1 F5 31 00 68 C6 5A 00 00 41 76 00 {F....1.h.Z..Av.
00403F00 68 27 D7 1E 17 78 FF D3 78 60 00 66 E6 18 AA C5 h'...x..x`.f....
00403F10 80 41 4A 44 DB 28 85 C4 FF 9D 58 E9 00 E2 63 F2 .AJD.(....X...c.
00403F20 06 F5 B5 37 00 86 CD 86 6E 2A 38 4A 00 80 22 00 ...7....n*8J..".
00403F30 86 06 30 45 83 09 D8 00 6A 19 0E 00 0E 47 1D 01 ..0E....j....G..
00403F40 33 CD B6 68 00 EF D9 E5 95 0A 01 00 5E 79 06 92 3..h........^y..
00403F50 57 C9 D2 22 62 3B 40 00 88 00 1E F6 9A FA 20 F4 W.."b;@....... .
00403F60 86 8F DD C0 B0 38 FF 00 EE 93 A1 8F 19 A1 FF 77 .....8.........w
00403F70 C2 B9 59 7E 23 6E 38 80 31 79 00 E1 3B 55 74 EF ..Y~#n8.1y..;Ut.
00403F80 65 92 FA FF A8 39 00 7F 85 71 58 E7 1C B1 1F E7 e....9...qX.....
00403F90 58 EE B2 FF 31 DF 25 B6 02 AB 68 32 E3 00 00 DE X...1.%...h2....
00403FA0 FA 79 FF 00 DC 98 07 00 F8 7E 63 D9 44 F4 38 42 .y.......~c.D.8B
00403FB0 FF AF 03 00 BE CB A5 00 B2 4D F6 3B AD 9D CE 7A .........M.;...z
00403FC0 2C 00 85 E8 BC D5 0F 00 DF C7 1C 00 27 8F 17 7D ,...........'..}
00403FD0 4E 02 38 00 07 00 BD 3B EA 7B BB 1E 54 CE A1 00 N.8....;.{..T...
00403FE0 5F 00 B7 07 57 3A 2F C8 B2 6F F0 D9 85 34 CC 45 _...W:/..o...4.E
00403FF0 06 00 6C 12 07 86 36 38 DF 6A FF F7 E9 D3 BD CB ..l...68.j......
00404000 72 B7 00 68 74 E1 DE F3 CF 93 04 71 44 93 11 61 r..ht......qD..a
00404010 D9 19 00 4E 00 E5 F6 7B A8 E6 27 CF 05 A9 00 00 ...N...{..'.....
00404020 41 26 D3 64 1C 60 93 00 FF 0A 5D 08 71 DB 21 87 A&.d.`....].q.!.
00404030 40 0C FC 96 1A 4C BC 2A 85 F0 00 D9 FF 00 06 7B @....L.*.......{
00404040 BF ED FF 37 A4 FF 70 F5 F1 50 1E 24 09 0A 04 24 ...7..p..P.$...$
00404050 1F BD 64 B3 26 2D 42 00 0F 3D 85 9F E5 3E D1 18 ..d.&-B..=...>..
00404060 51 82 5B 00 14 50 FF E3 01 FE 70 86 EB 00 6C 41 Q.[..P....p...lA
00404070 75 FF 89 32 95 40 FF 18 E7 1F 4B 5E 84 20 07 E6 u..2.@....K^. ..
00404080 29 9E FF 3B E6 E7 00 0A 00 00 00 00 23 23 89 73 )..;........##.s
00404090 E6 C4 A9 82 36 ED 93 97 5D 9F C6 50 C7 34 37 39 ....6...]..P.479
004040A0 D1 00 F9 37 6F 00 20 A5 48 30 00 50 61 00 E1 FF ...7o. .H0.Pa...
004040B0 FF 0E A0 95 00 08 96 04 ED FB B2 A5 20 0A 00 6B ............ ..k
004040C0 A6 43 E1 00 9E 42 A9 97 0F 00 B8 10 86 41 00 21 .C...B.......A.!
004040D0 00 52 4E EF 54 41 06 E9 9F DB 7A 81 00 FF 00 00 .RN.TA....z.....
004040E0 09 8E 42 00 AB F1 9B 5B A5 73 B1 0F 68 CF C2 2D ..B....[.s..h..-
004040F0 3E FF E7 B2 C0 F1 83 EA 00 FA 49 EB 63 8A 7A B1 >.........I.c.z.
00404100 2A 37 1A 96 CF 00 00 7C 84 FF 1D 42 FE A5 D7 00 *7.....|...B....
00404110 00 00 68 8D 94 00 9E 00 E8 13 99 94 C5 CD F3 0E ..h.............
00404120 CE 0B AC 12 01 D9 F5 52 2A CC D9 18 B2 75 BB 00 .......R*....u..
00404130 00 71 EB A7 DD FF 0D 21 00 65 EF 38 7F 77 33 EC .q.....!.e.8.w3.
00404140 00 72 0C 42 FF 08 00 E7 50 3C 53 E5 51 61 F9 00 .r.B....P<S.Qa..
00404150 97 55 2B 3B 20 00 44 00 23 00 89 1B 0D 02 7A 61 .U+; .D.#.....za
00404160 12 60 EA BB DB 00 B1 47 EE FF 3E 76 E2 1B 85 ED .`.....G..>v....
00404170 13 59 08 A9 17 65 66 13 60 B5 28 B2 30 57 F1 00 .Y...ef.`.(.0W..
00404180 38 CA DB 53 36 C1 E7 00 D5 B3 DB 1A FE 01 FF 05 8..S6...........
00404190 24 3C D0 15 EC 00 A5 D1 78 85 C4 61 4B 64 14 52 $<......x..aKd.R
004041A0 D5 01 41 8B FF 52 F9 82 87 00 5F 0F 87 42 80 BB ..A..R...._..B..
004041B0 FF C0 24 48 7B D9 73 F2 9D 51 31 13 FF 01 00 D4 ..$H{.s..Q1.....
004041C0 00 1D F7 29 A7 B1 E7 C3 99 A6 BD EA 00 DC 00 41 ...)...........A
004041D0 48 9D 00 48 69 CF EA B1 FE FF 60 FF 8B DB B1 A5 H..Hi.....`.....
004041E0 24 41 FD 02 3C FE 9A 84 00 F7 FF FF E2 F8 06 2E $A..<...........
004041F0 3D 00 11 00 1A 11 37 C7 FF 64 6C 00 2D DF 7A C5 =.....7..dl.-.z.
00404200 F0 00 B4 CA D7 D3 4F 47 D0 8D E1 08 AB 00 00 60 ......OG.......`
00404210 9F 2C 58 74 F3 2A DF 2C 0C B0 2D 72 28 F5 BF D4 .,Xt.*.,..-r(...
00404220 21 B0 00 62 9F B3 14 7B BC 03 B8 00 00 68 44 54 !..b...{.....hDT
00404230 00 4C 50 49 D7 FD 29 16 A1 73 89 5D 44 33 99 E1 .LPI..)..s.]D3..
00404240 C0 00 00 A1 EF DE E3 3F BD 8F 00 00 CE 08 18 C3 .......?........
00404250 00 66 89 FF C1 7C 7D 00 04 FF CA D2 2E 00 69 56 .f...|}.......iV
00404260 71 93 B3 F6 C1 4C 0D 91 4D DF D4 00 5B 7B 44 FF q....L..M...[{D.
00404270 00 07 00 05 BE FF 00 FF 00 9C FF 00 D6 00 7E 10 ..............~.
00404280 91 3F FF B1 00 86 96 B8 50 5E 11 31 B5 40 9D A9 .?......P^.1.@..
00404290 07 63 37 C2 3D 20 56 7A DF 52 F8 00 09 5A 8C 2C .c7.= Vz.R...Z.,
004042A0 00 97 50 4D CB 84 FE 00 3D C3 C9 99 1D FF 48 F1 ..PM....=.....H.
004042B0 60 F0 C5 F4 D2 BD D4 66 E8 F7 C0 D3 A2 95 7C CB `......f......|.
004042C0 41 7B C6 0F 3C 18 24 48 14 F8 6E FF 9B 55 00 22 A{..<.$H..n..U."
004042D0 57 88 F6 00 E4 9E E0 FE 43 F8 69 D4 EE DD 00 B6 W.......C.i.....
004042E0 00 93 DB 9E 39 DE 6A C3 62 60 00 F8 29 F2 61 59 ....9.j.b`..).aY
004042F0 00 69 00 47 00 AA AB 56 00 03 50 81 6A 4F 00 FF .i.G...V..P.jO..
00404300 FF 53 74 8E 3D D0 01 E0 00 F7 00 F6 EF 00 DE 00 .St.=...........
00404310 94 62 05 7B A5 6C 1E 03 55 F6 C9 36 B5 42 0C 59 .b.{.l..U..6.B.Y
00404320 9A 88 8D 08 00 49 48 00 0A A3 33 F2 58 F8 80 5F .....IH...3.X.._
00404330 88 2D 3C 41 85 E8 00 67 14 0A 00 14 A5 FF 00 C5 .-<A...g........
00404340 05 A7 99 48 68 46 62 59 13 FF 0F 05 0B D1 11 93 ...HhFbY........
00404350 1D CF 24 27 00 9F 04 DA 89 01 00 08 C9 02 0B 4F ..$'...........O
00404360 4A EC 92 63 9D 7D 40 AE D4 70 18 00 5A 61 17 0E J..c.}@..p..Za..
00404370 B2 E0 44 42 7F 92 2D F1 F8 F9 A3 50 00 99 2D FF ..DB..-....P..-.
00404380 ED FF 72 00 6F 9B 00 08 03 C0 9F C4 00 51 D8 23 ..r.o........Q.#
00404390 43 71 00 00 84 02 86 43 C5 07 90 79 FE F7 56 00 Cq.....C...y..V.
004043A0 7B 02 73 4C 2C A2 2A 25 40 2F 24 28 1A 05 AF 4A {.sL,.*%@/$(...J
004043B0 A7 AB 00 84 B8 48 76 74 E0 04 8C 0C 19 8D B1 AB .....Hvt........
004043C0 91 00 B9 92 F1 70 03 FF C4 C1 00 72 0A 58 50 61 .....p.....r.XPa
004043D0 C3 FF 54 8C A8 05 C4 90 9E 00 A9 00 E2 FD 3C 1B ..T...........<.
004043E0 D1 40 79 F1 72 00 95 59 36 93 CA B4 35 EA E3 21 .@y.r..Y6...5..!
004043F0 00 FF CD AE AF FE C2 0E 05 2C 2E FF 65 FE 83 E8 .........,..e...
00404400 C0 D6 27 12 00 FB 7F 00 00 6F 62 4A A6 1D FF 02 ..'......obJ....
00404410 86 1F 57 00 00 78 22 29 00 3C 06 75 EB 54 FF 30 ..W..x").<.u.T.0
00404420 0C DF A7 0F 10 6B FF 0D 0E DF C1 FE ED 94 58 00 .....k........X.
00404430 00 EC 96 62 78 00 E8 6E 6C 88 6C 21 00 FF 57 8E ...bx..nl.l!..W.
00404440 00 00 3D F2 00 84 F5 8F 2E F7 F1 A8 CC 4E 8A 7B ..=..........N.{
00404450 8E E0 D3 B1 78 04 60 E2 B5 A0 6B 25 0E 00 E6 A8 ....x.`...k%....
00404460 00 89 95 06 9D E5 55 74 91 9C 04 00 B7 4C 4A 00 ......Ut.....LJ.
00404470 F0 E6 55 B8 93 67 00 74 8B 00 26 00 67 00 CC 00 ..U..g.t..&.g...
00404480 E9 08 45 E2 00 70 47 FD FF FD 42 E3 61 88 53 00 ..E..pG...B.a.S.
00404490 87 0C 09 11 FF 83 E3 4D E0 58 79 28 00 43 DB 28 .......M.Xy(.C.(
004044A0 FF 20 47 3F B8 82 4B CF 10 70 40 00 F1 EF FE CD . G?..K..p@.....
004044B0 DC A2 C2 60 D8 A2 00 64 3B 00 18 A3 86 07 F0 4E ...`...d;......N
004044C0 F7 7F 68 7B B2 CE C2 7E 60 E1 3C 86 31 2E 90 10 ..h{...~`.<.1...
004044D0 00 7E E9 AD 06 A4 FF 00 FB 02 B1 F9 C9 8A 0C 40 .~.............@
004044E0 18 C6 77 77 FF BD DC FF 77 8E C0 45 65 A6 04 00 ..ww....w..Ee...
004044F0 8C BF 51 00 99 09 00 C0 10 00 B7 00 BD 64 64 30 ..Q..........dd0
00404500 F6 00 3E 48 33 98 1B A1 88 7E AC C9 07 98 00 B5 ..>H3....~......
00404510 E3 FF 54 00 3B 3C 6D 23 19 9F EF 8A CA AA 00 82 ..T.;<m#........
00404520 1C 87 82 2B A8 79 DD BB AF 0F 00 20 7D C9 F8 01 ...+.y..... }...
00404530 FF 52 00 00 FF 60 E6 00 AD 00 CB 69 FF EC E6 A1 .R...`.....i....
00404540 7F 63 53 00 8A 2E 00 26 00 FD D8 26 81 B3 3D 5D .cS....&...&..=]
00404550 71 6A 4F 5B FF BB 3D D3 DF 56 72 62 0B AD 31 C6 qjO[..=..Vrb..1.
00404560 03 00 D7 00 D4 C9 00 DD 00 3A 00 7A 02 10 D0 00 .........:.z....
00404570 B5 33 FF 9C 9D B1 F2 2A 2D 94 F0 8E 00 07 57 0B .3.....*-.....W.
00404580 00 5F 00 FF FF F0 82 00 64 AC 8A DA 17 77 C1 F1 ._......d....w..
00404590 00 38 1F 00 29 00 F8 84 28 A2 79 20 18 65 4D 98 .8..)...(.y .eM.
004045A0 FF 00 00 D2 00 4A E3 C0 E7 5D CB F6 B8 FE 26 26 .....J...]....&&
004045B0 87 A0 00 06 A2 07 E8 09 FE FF 33 28 1A 1E 00 83 ..........3(....
004045C0 93 FA E4 1C 6A 06 08 81 F9 FF F5 A5 FD 97 36 52 ....j.........6R
004045D0 BB 1A A7 FF 5C 46 00 EB 8D 02 01 BF 3A 00 19 0B ....\F......:...
004045E0 00 FA 47 1D F9 91 17 60 9F 7B 7D 4C 45 06 4F 99 ..G....`.{}LE.O.
004045F0 40 58 00 99 50 00 19 6D 0D 19 98 99 94 30 F0 00 @X..P..m.....0..
00404600 8A 00 7B 65 40 DF 1F 00 24 E3 A0 34 8D 11 98 64 ..{e@...$..4...d
00404610 B4 B2 CC 92 41 D4 86 D2 D0 30 22 26 D0 D2 3C DD ....A....0"&..<.
00404620 10 00 00 7C 91 A2 4D E9 47 14 3D 00 00 69 C1 E8 ...|..M.G.=..i..
00404630 9F 71 00 DA 00 E2 8D 02 FF 8A FE 10 00 E2 F1 00 .q..............
00404640 2D 91 C8 00 73 BA 00 88 00 00 FF 07 79 00 00 28 -...s.......y..(
00404650 24 00 61 66 EC AD 8D 0F CE 8F 16 38 F9 95 53 7A $.af.......8..Sz
00404660 19 9F 77 AA B7 6A 8B 7D 1C 1D 03 00 B4 00 B4 2D ..w..j.}.......-
00404670 AC 00 32 62 41 FD 7E 6D F5 85 00 11 80 7C CC 3D ..2bA.~m.....|.=
00404680 E7 FF C3 AC 80 54 1C 0F 70 7D 70 61 EA FC 19 55 .....T..p}pa...U
00404690 50 C1 8D 60 05 0E C5 6F 19 EB F8 D6 FF 98 38 80 P..`...o......8.
004046A0 EA A2 8F 16 60 64 5F 64 01 A7 45 8B BD 6C 39 87 ....`d_d..E..l9.
004046B0 80 1B 0F 3A 00 FA 31 08 CB 38 00 87 D5 84 00 7C ...:..1..8.....|
004046C0 88 5B 31 40 2C C2 0C FF F3 EE 00 D8 BF FF FC A2 .[1@,...........
004046D0 00 00 06 96 2A 77 91 0B FE 98 00 CE 3B CD 87 5F ....*w......;.._
004046E0 30 67 37 00 12 00 17 D9 00 20 30 E0 06 2F D5 A8 0g7...... 0../..
004046F0 1D FF AC 8F A0 5E 00 14 00 E2 6D 43 FF 1C 9E 00 .....^....mC....
00404700 0C 8D FF DA 00 63 4D 4C F9 46 0F 00 0E 78 0C 00 .....cML.F...x..
00404710 30 7B 83 50 F9 B1 B4 00 B6 C4 FF F2 49 93 44 FF 0{.P........I.D.
00404720 2A FF B6 84 94 BB FF 01 1F FF 52 3E 40 34 FC 9E *.........R>@4..
00404730 85 DD 59 34 2A 79 95 1E 99 DC 68 E0 08 FF 9F 6F ..Y4*y....h....o
00404740 30 63 00 00 00 BD 20 62 C5 D2 8F DC 40 F2 FF D8 0c.... b....@...
00404750 62 D8 15 72 24 7C D3 6F B6 82 58 DF C9 00 76 D9 b..r$|.o..X...v.
00404760 72 00 10 00 1C CB 95 04 D0 09 F6 D3 26 FF 1F 8B r...........&...
00404770 FA E6 34 43 65 7C C7 2C 00 FE 78 1C FF FF 9D CB ..4Ce|.,..x.....
00404780 A7 31 97 73 00 A6 B1 4E F6 00 EE 55 FF 11 F7 98 .1.s...N...U....
00404790 98 00 70 40 20 BF 10 0A F7 00 DF FF 40 C6 AC 5E ..p@ .......@..^
004047A0 E2 91 5A B9 0A A5 43 D6 00 BF DD A2 E3 00 8D 75 ..Z...C........u
004047B0 9A 68 12 6F F1 13 58 E9 D9 80 80 DE 23 DE 33 72 .h.o..X.....#.3r
004047C0 16 B8 E0 85 BA 7C 66 FF C6 B9 00 78 A5 6F 40 12 .....|f....x.o@.
004047D0 00 10 E6 FF E2 A2 7B 8A 00 C9 25 D9 8B 02 91 84 ......{...%.....
004047E0 78 CA 00 08 00 00 36 FF E6 B0 DC 08 36 00 D9 0A x.....6.....6...
004047F0 C8 96 C9 3F F3 75 64 ED 15 33 80 4E 50 AE 95 03 ...?.ud..3.NP...
00404800 AC AA D2 00 B0 00 36 0F 00 F7 4D 3F 20 82 AC A7 ......6...M? ...
00404810 7F 00 F7 60 3B 3B BB B7 3E 04 0C EC 00 46 D0 CF ...`;;..>....F..
00404820 75 EC 15 9A 42 AD 00 AC 96 CE 1F 1C 5C BD 00 C4 u...B.......\...
00404830 33 A2 A0 77 26 07 1B 48 00 00 41 DF E5 00 4A 4E 3..w&..H..A...JN
00404840 E2 D8 FF 00 CB 8C F2 BF BD 32 3E 50 00 C0 0F F7 .........2>P....
00404850 B5 A6 B0 CF 98 12 21 D1 FF 2C 04 79 FF 00 00 DB ......!..,.y....
00404860 80 D5 5B 17 00 CD DB 1C 88 7C 00 81 C0 58 82 44 ..[......|...X.D
00404870 C0 28 8B B6 58 EF 7F 31 00 08 A7 F8 92 A9 32 FE .(..X..1......2.
00404880 8B 0E 9C 43 B3 44 66 E4 58 9F 53 00 EA FF 76 04 ...C.Df.X.S...v.
00404890 21 2D 7E 00 A0 94 77 34 BC 2E E5 B2 D4 00 E9 9B !-~...w4........
004048A0 C3 79 EB 00 89 E3 49 B6 6E 66 10 D1 E1 86 93 DF .y....I.nf......
004048B0 3A 03 06 73 51 05 8A 19 F2 47 43 19 FF CC 7B 06 :..sQ....GC...{.
004048C0 FB 72 00 00 D3 A9 21 AA 00 30 BA 7C D1 DC 00 14 .r....!..0.|....
004048D0 E8 ED 2E B4 00 BF A7 B1 15 17 72 D3 A5 36 00 F7 ..........r..6..
004048E0 E0 78 1C 10 0D 00 F5 35 03 42 CF 0F 4A 31 7F FC .x.....5.B..J1..
004048F0 38 8D FB FD F7 FF 7A 3A 57 FB 3E 40 1F A3 09 3F 8.....z:W.>@...?
00404900 9F D0 1C A9 82 F3 6B 36 CC 83 66 2B 09 00 80 00 ......k6..f+....
00404910 B7 E1 9F FF 10 AC B0 A4 FF B0 00 7F 84 22 08 00 ............."..
00404920 C0 DC 0B E5 6E 38 ED F7 7F 91 2C 7C C9 00 80 75 ....n8....,|...u
00404930 1B CD B0 F3 00 DB FF 34 41 27 94 36 D9 0D 67 0B .......4A'.6..g.
00404940 00 B9 72 0E 12 00 44 B8 00 0F D3 44 E5 D7 6A 25 ..r...D....D..j%
00404950 17 A0 F9 25 67 53 B0 45 94 00 A8 0B 70 5D D2 64 ...%gS.E....p].d
00404960 CF F7 17 70 0E 30 08 60 38 00 85 72 FF CE D3 AD ...p.0.`8..r....
00404970 85 00 1D D7 B0 04 27 53 06 00 00 00 A3 32 B9 BA ......'S.....2..
00404980 00 BB D0 BE B1 33 00 EE 12 82 C4 AB 00 32 75 10 .....3.......2u.
00404990 F0 00 36 00 27 01 FF 25 28 80 84 6A 36 FF DA 00 ..6.'..%(..j6...
004049A0 E0 1A BF 7E 14 FF B3 E9 76 D0 39 B5 9D 35 88 EE ...~....v.9..5..
004049B0 1B 3C F5 00 00 4D 4C 2A BA 06 40 A7 3B B9 30 DB .<...ML*..@.;.0.
004049C0 92 E6 BF B0 22 AA E2 00 40 00 CC 82 66 FF 4E 65 ...."...@...f.Ne
004049D0 8C 00 B5 89 24 0C 36 43 C4 7A 6C 8E 17 FC 00 2B ....$.6C.zl....+
004049E0 FF 00 00 B5 69 95 67 00 5A 94 A1 73 00 E6 00 D9 ....i.g.Z..s....
004049F0 7D 00 1A D0 0E B8 23 00 CE 99 11 AB 3B 2F 68 84 }.....#.....;/h.
00404A00 3B C4 79 66 00 F7 06 FE 41 AB C0 4A 6B 74 5F 63 ;.yf....A..Jkt_c
00404A10 FF 01 4C 69 94 83 09 00 9B 00 FF 91 8B B2 0D 43 ..Li...........C
00404A20 DC 00 34 87 00 E3 A8 07 63 00 DC 2F 78 C6 1B C6 ..4.....c../x...
00404A30 30 00 15 56 38 0D 99 1C 04 85 C7 E6 00 85 EC C7 0..V8...........
00404A40 D8 E4 FF 8C 35 2D EB B0 95 A1 DD 1A 57 5F CA 18 ....5-......W_..
00404A50 00 08 A4 8F CE 14 6A 40 15 00 63 24 92 62 A5 0F ......j@..c$.b..
00404A60 D3 17 B0 A5 A3 FF 00 00 5F D7 4B 07 00 B4 18 09 ........_.K.....
00404A70 A0 FF ED 2F 85 55 B3 57 CF 9E F0 2A 7A 34 00 50 .../.U.W...*z4.P
00404A80 35 23 E9 00 A2 CF BC 92 23 56 AB 8F F9 7F 44 EF 5#......#V....D.
00404A90 B0 00 D2 00 48 05 00 4F F1 00 31 08 D3 82 2A 04 ....H..O..1...*.
00404AA0 00 11 EE F8 00 12 00 0B A1 F2 D2 59 3A FB 04 0B ...........Y:...
00404AB0 C7 00 4D BF 37 F0 01 61 C4 B9 FF 4B 00 00 A0 67 ..M.7..a...K...g
00404AC0 A3 A5 2D 5F 37 94 C1 A5 BD 9A 00 00 DB 60 E1 AF ..-_7........`..
00404AD0 DE 9B 00 AA 65 E3 B1 D8 00 AF 78 7E 74 F7 01 00 ....e.....x~t...
00404AE0 AA C2 E0 E9 DF 00 7D 89 47 15 10 7A 1D 21 FF 06 ......}.G..z.!..
00404AF0 FF 77 BD 9F F9 5A 1F 50 BE 00 E9 71 D1 82 BE 5E .w...Z.P...q...^
00404B00 79 1A 87 8A F1 7C E5 2B CC 93 BA 00 E9 68 F1 54 y....|.+.....h.T
00404B10 CF DD 3E FC F1 75 F6 E2 D3 BB 08 AF 7A 80 19 97 ..>..u......z...
00404B20 3B D1 7B 13 5B 2E 00 9A 00 EA EF 52 FA 5A F9 16 ;.{.[......R.Z..
00404B30 AA 26 68 9F AA 98 00 00 9A 88 33 98 9F F9 09 40 .&h.......3....@
00404B40 2E 30 00 81 74 0F 78 50 67 F0 7C 7F BB A0 87 00 .0..t.xPg.|.....
00404B50 00 85 DA 00 69 DC C8 7F E8 00 98 00 00 E9 00 FF ....i...........
00404B60 7B 21 23 FB 43 FF 44 95 00 4F 00 B0 66 2D 00 4C {!#.C.D..O..f-.L
00404B70 FD 00 07 40 C0 72 B1 1F 81 F0 EA 39 0E C5 B9 02 ...@.r.....9....
00404B80 10 E0 61 8C 00 44 46 4F FF 30 F6 15 08 D9 C4 0B ..a..DFO.0......
00404B90 96 64 ED 98 77 36 12 D5 0A E4 00 B7 00 A7 CA 73 .d..w6.........s
00404BA0 F4 B5 65 BF 8B 4A 7C C0 51 17 FF B9 A9 81 98 EF ..e..J|.Q.......
00404BB0 FF 00 28 98 AC 80 13 BD 00 4A 8A C3 0F 65 00 6A ..(......J...e.j
00404BC0 3A 42 7E 58 5A 6F E1 36 70 00 B7 00 00 00 5B 45 :B~XZo.6p.....[E
00404BD0 A0 EF 37 30 1D 8B 24 88 00 C0 2C C5 90 D9 06 FF ..70..$...,.....
00404BE0 B6 C1 1F 00 CD 0E FF 00 C8 D3 64 3E 67 FF C1 23 ..........d>g..#
00404BF0 4F 00 6D 1F 9F 00 BC E8 16 68 00 00 A0 0D 1F 00 O.m......h......
00404C00 26 E5 CC ED 08 12 1E 75 6A 0B 00 01 FD FF 3C 8E &......uj.....<.
00404C10 9C 2A FC 23 C0 36 1F A6 8D E8 FC B3 DF 80 BA 6F .*.#.6.........o
00404C20 B3 81 00 9C 4D 00 FF F5 7F FF 43 40 7A 75 14 76 ....M.....C@zu.v
00404C30 7F 84 20 3E 45 34 2C 8E 00 B8 EF 4C 00 95 F8 02 .. >E4,....L....
00404C40 81 AE 78 46 14 AE 9B 11 E2 F0 FF 36 C5 F7 12 2A ..xF.......6...*
00404C50 00 5C F3 16 90 09 10 D0 B9 60 FD 47 C0 8C BE 00 .\.......`.G....
00404C60 04 E7 FF 44 00 84 EB 9C C4 5B 22 A5 18 02 74 BF ...D.....["...t.
00404C70 FF A8 9F C0 70 1E D0 9C ED 8F 4D 3A A9 72 39 69 ....p.....M:.r9i
00404C80 40 D5 FF 53 8F 00 28 85 85 5C FF FF 13 DF 76 00 @..S..(..\....v.
00404C90 82 76 DE 04 85 F0 72 4E CC 00 2A C3 A4 91 00 50 .v....rN..*....P
00404CA0 3C B8 04 00 00 70 F8 35 D6 79 85 A9 CD 00 74 FC <....p.5.y....t.
00404CB0 8D 81 0C AA 1B EC 6E A8 D8 00 6B B7 DD 63 EF 3D ......n...k..c.=
00404CC0 FF E4 E3 00 51 05 0F 51 0E BF 63 B4 8B 3B 5C F8 ....Q..Q..c..;\.
00404CD0 00 89 06 5A 70 A6 7A 71 00 52 A6 FB E6 65 00 B7 ...Zp.zq.R...e..
00404CE0 5A 1C 7F D2 0D 07 00 48 2C 0D 80 09 00 58 3E 32 Z......H,....X>2
00404CF0 E9 67 3B 4C 61 8E E0 26 F7 1A B9 90 B3 83 98 00 .g;La..&........
00404D00 BD 28 00 99 02 86 7F 91 E2 00 50 27 50 30 91 BD .(........P'P0..
00404D10 09 03 FD E8 FF C5 53 9F 6D DC A4 D1 00 B4 89 36 ......S.m......6
00404D20 91 1E D0 00 E5 06 24 47 39 22 FF 0E B3 D8 3F 61 ......$G9"....?a
00404D30 4B 02 64 FE 7C 87 61 00 E6 66 FF 2E D1 7B 3C 3F K.d.|.a..f...{<?
00404D40 1B 06 74 07 1A 0E B6 A5 FF 83 F5 16 E1 9F FA 00 ..t.............
00404D50 00 38 00 60 96 7B 63 E4 E0 1C 1B 43 41 00 B2 2E .8.`.{c....CA...
00404D60 5B 60 00 62 E7 49 2F 00 B8 60 7F 9B FF 00 00 00 [`.b.I/..`......
00404D70 F9 7E B0 49 36 5B D2 C5 00 80 19 F6 63 00 EA 96 .~.I6[......c...
00404D80 06 04 00 31 13 00 5E 6A FF FF 00 B0 B0 00 00 FF ...1..^j........
00404D90 52 46 FC 11 00 AF C5 00 9E D1 74 87 00 B9 A3 00 RF........t.....
00404DA0 58 1D 82 00 39 52 42 03 28 4B 33 E3 EB 00 0E BC X...9RB.(K3.....
00404DB0 00 C5 E9 00 52 90 52 32 C5 89 44 F4 C9 19 E0 AE ....R.R2..D.....
00404DC0 21 3A 38 31 E2 2D A6 58 50 91 06 29 00 93 EA 7F !:81.-.XP..)....
00404DD0 87 4F DD E8 80 65 00 EA BD 20 FC 00 00 F5 00 44 .O...e... .....D
00404DE0 7D 37 62 00 48 00 0F 3F B1 DB 81 80 00 70 84 05 }7b.H..?.....p..
00404DF0 CB 98 45 FF 9D 9D 8B A5 00 63 87 F9 79 A0 C7 00 ..E......c..y...
00404E00 4B 00 25 F2 24 68 39 A6 06 0D 4B 00 00 6B 07 B1 K.%.$h9...K..k..
00404E10 3B 1B 45 00 FF C7 CB 0D 39 CE 1B 00 60 81 17 00 ;.E.....9...`...
00404E20 D7 D0 00 56 67 AE 57 CA 01 F4 30 18 FF 01 43 70 ...Vg.W...0...Cp
00404E30 6F 3E 14 BB 00 00 FF 3D 86 3D AD 9B 93 DF 1F D0 o>.....=.=......
00404E40 EF 00 1F 00 F7 FF 70 02 FF FC B9 72 88 35 61 09 ......p....r.5a.
00404E50 A0 00 12 11 D7 4A 04 45 00 B4 91 23 FF 03 00 00 .....J.E...#....
00404E60 31 FF 80 00 00 06 F4 D3 6D 15 83 B9 81 00 0E A0 1.......m.......
00404E70 10 83 9C A8 00 AE 00 19 D0 01 1C 0F 46 53 AE EE ............FS..
00404E80 97 00 D4 BD EF D0 E0 3D FF DC 8A 26 6F A6 AF 1D .......=...&o...
00404E90 FF 81 67 31 A3 00 C8 46 6C 1E 83 D3 2D 00 60 00 ..g1...Fl...-.`.
00404EA0 3F 8C E5 80 03 80 04 6A E0 60 FF B9 8F 32 9F 4A ?......j.`...2.J
00404EB0 DE 90 F8 8A 0B 00 04 9F 5E 41 AD 41 0F 06 00 CF ........^A.A....
00404EC0 18 00 EF 70 40 B1 E2 47 BE EF 96 14 F1 B0 D9 97 ...p@..G........
00404ED0 F4 C3 F8 85 DB DA B0 5B 01 00 72 A0 C8 AD 6D 00 .......[..r...m.
00404EE0 A4 6C FF 1E B5 4F 00 BA 00 DE 78 83 6A C9 63 0C .l...O....x.j.c.
00404EF0 65 B0 00 C9 58 68 0F FF CB 96 F9 00 24 4D 04 24 e...Xh......$M.$
00404F00 73 FF 13 3D 73 0E 25 FF D3 FF 00 AE 00 76 00 32 s..=s.%......v.2
00404F10 91 A1 74 80 00 CF 22 7E B3 83 D3 1F 49 8B 2E C4 ..t..."~....I...
00404F20 C8 1B C9 44 F0 EF 23 18 7E B5 16 40 00 C2 08 38 ...D..#.~..@...8
00404F30 89 D2 81 06 9C 56 97 AF 66 DD AC 10 00 00 08 50 .....V..f......P
00404F40 00 C4 DB E8 A8 00 7F 5C 36 49 C7 BD A7 73 51 ED .......\6I...sQ.
00404F50 B9 20 A8 00 9D AD 09 BF 71 1F F0 0A FB 00 FF 30 . ......q......0
00404F60 61 9F 80 E7 DC 00 EF 00 2E F6 24 07 00 29 00 FF a.........$..)..
00404F70 FF B4 EF EE 07 CB E3 EA 00 62 3F A9 0F A0 E0 00 .........b?.....
00404F80 CD 50 0C 65 00 1A C1 47 16 2C 38 C6 83 13 00 C8 .P.e...G.,8.....
00404F90 DB 00 3E 9A 71 F0 D9 D1 B3 30 00 84 52 6F 02 53 ..>.q....0..Ro.S
00404FA0 C3 66 00 C7 E1 36 00 2F 24 8E CC 38 F7 E7 FD B8 .f...6./$..8....
00404FB0 90 00 94 C6 42 E6 D0 FF 82 00 00 B2 0F 95 02 00 ....B...........
00404FC0 36 71 EE 6C 67 80 7F F2 00 79 98 EE 9E DF 00 87 6q.lg....y......
00404FD0 22 18 00 D1 2D 86 91 AC F9 61 23 E1 FB 75 FD E2 "...-....a#..u..
00404FE0 08 64 A5 FD F5 52 69 A1 FB A0 F1 20 CF 84 00 70 .d...Ri.... ...p
00404FF0 3B 78 00 00 C5 18 9D 16 C3 FB FB A0 DF 00 00 C6 ;x..............
00405000 00 02 FF B4 E4 00 18 18 E8 38 FC 78 00 30 41 B4 .........8.x.0A.
00405010 1F AA 5E 63 00 AD 47 BD 00 27 13 FD 22 FF 62 DC ..^c..G..'..".b.
00405020 8D F7 B4 58 3C 3F 76 BA FF 6E 00 CC EF FF E7 63 ...X<?v..n.....c
00405030 74 C2 D6 35 C3 5A 84 55 73 29 CA D7 E9 93 3B 1A t..5.Z.Us)....;.
00405040 C5 0E E8 33 F9 00 55 01 57 50 68 B7 22 55 3B 43 ...3..U.WPh."U;C
00405050 16 E8 41 FE D3 7C 0D D5 F8 81 81 8B 54 48 01 76 ..A..|......TH.v
00405060 B5 08 F8 91 C2 2E 12 AB 61 FF B7 F7 00 82 26 75 ........a.....&u
00405070 00 00 57 B5 20 92 10 50 00 7A 00 73 B3 29 83 FF ..W. ..P.z.s.)..
00405080 3E 51 54 C9 93 7D 00 00 B5 B6 44 55 FF E5 1E 00 >QT..}....DU....
00405090 40 B5 41 E1 C9 56 11 C2 F4 6B 00 4C BD 50 62 95 @.A..V...k.L.Pb.
004050A0 E5 00 40 74 66 1C 10 00 2F 67 FF 9E DB 33 20 A8 ..@tf.../g...3 .
004050B0 A5 54 D6 00 5B BB 87 15 F8 00 FF FF 85 6D 34 94 .T..[........m4.
004050C0 3A 2B 00 00 7F 20 03 00 16 77 81 CB 00 FE 34 FF :+... ...w....4.
004050D0 49 3F C3 86 99 FA 00 E6 14 CD 00 7D 50 30 00 00 I?.........}P0..
004050E0 8D FF 25 85 B7 00 90 00 5D 00 15 21 D3 72 18 C8 ..%.....]..!.r..
004050F0 C7 00 64 00 84 2D 7F 00 3A CA 00 FF BF FB E1 58 ..d..-..:......X
00405100 12 5C D7 00 1B E3 7C 1A C1 C6 E4 64 F9 1B FF FF .\....|....d....
00405110 99 FF D3 6B B6 77 88 DD 00 11 8C 39 0A 21 C7 8F ...k.w.....9.!..
00405120 FF C0 21 70 16 00 9B 82 38 14 00 FF FE A8 30 3F ..!p....8.....0?
00405130 D1 08 00 01 00 37 6B 04 96 E3 1C B6 F5 EA DF 00 .....7k.........
00405140 A4 A9 FA 00 76 00 FF 59 00 85 05 A2 1C E8 07 02 ....v..Y........
00405150 00 FF 8B 41 2A 7D 33 2F 00 DE 1B A1 82 90 21 75 ...A*}3/......!u
00405160 4F 00 07 DD 00 28 B1 07 27 70 F0 31 F6 CA 91 FF O....(..'p.1....
00405170 B0 69 3E 03 50 00 D3 BD 8C 00 22 96 EE 60 53 9D .i>.P....."..`S.
00405180 00 22 2F 98 20 81 00 67 F0 FF 7E D7 00 22 94 82 ."/. ..g..~.."..
00405190 0C FF 00 71 00 B8 B1 69 44 82 83 36 71 A1 00 8E ...q...iD..6q...
004051A0 00 D2 09 D2 DB E0 E6 76 EF C9 7D FF 54 B1 34 C8 .......v..}.T.4.
004051B0 E0 93 75 AD 00 24 65 16 FA 83 BD 16 AA 20 13 9E ..u..$e...... ..
004051C0 A1 7E 83 78 7F 00 BA 00 49 B4 39 5F 0D 9B 46 3F .~.x....I.9_..F?
004051D0 53 FF B0 C9 D3 EF F8 D8 A0 5F D5 CF 1B BB C3 E4 S........_......
004051E0 A0 BF 00 FB 20 FF 00 E6 ED 00 FF 00 1F EC 8C 5D .... ..........]
004051F0 6E 62 39 75 5E 60 A6 33 9F EC 00 00 83 C7 3E 00 nb9u^`.3......>.
00405200 9E 88 0F 96 55 8B 28 8C 48 A6 7F EF 26 E2 06 BE ....U.(.H...&...
00405210 FF 00 37 E5 FF B8 9D 38 94 D2 00 A3 00 FC 00 00 ..7....8........
00405220 A8 25 95 B0 00 7E B5 CD B4 A6 88 27 F5 00 69 F2 .%...~.....'..i.
00405230 5C B4 8E E0 90 97 28 93 98 FF 00 2A 88 FF EB FF \.....(....*....
00405240 2B F3 5C 8E 00 12 35 C0 73 D7 40 4A 00 32 71 00 +.\...5.s.@J.2q.
00405250 11 8B 42 63 00 47 1E 72 7C 00 39 45 65 66 02 8B ..Bc.G.r|.9Eef..
00405260 D5 40 1B 00 1E CD 52 94 79 DF C8 F8 04 FD 00 CB .@....R.y.......
00405270 C7 14 0F 63 87 7E F3 6D C2 29 1A 83 6B 31 BE 0C ...c.~.m.)..k1..
00405280 D5 00 5C 18 00 0C 10 E6 58 CE FF 0D EF 4C FF 7F ..\.....X....L..
00405290 C0 93 D2 86 3A 5D 66 00 C1 3B 86 0F FF 0D 9C FB ....:]f..;......
004052A0 63 38 00 F2 4F 52 00 FF FF B3 A8 27 4B F7 32 50 c8..OR.....'K.2P
004052B0 8B 00 42 81 00 AC 9D 2E 17 48 BE E7 37 00 C7 00 ..B......H..7...
004052C0 00 18 53 59 63 58 35 3C EB 78 66 47 C2 15 9B 2A ..SYcX5<.xfG...*
004052D0 A1 DA A2 39 51 00 E8 00 00 23 71 00 F3 FF 78 EF ...9Q....#q...x.
004052E0 C7 DE 9E 22 14 01 CC CB 00 94 87 F8 00 C1 ED E6 ..."............
004052F0 B8 C0 8F CA 00 CC FF EE 00 87 FB E4 30 FF 2E 00 ............0...
00405300 25 EF 00 8C 01 07 6B E5 00 CE 15 F0 31 B0 00 FF %.....k.....1...
00405310 65 DF C0 39 DD 09 3E 78 6F BD FF 1B E4 CB CA 00 e..9..>xo.......
00405320 42 38 26 15 46 E5 DD EE 09 AC 10 00 F5 A0 82 34 B8&.F..........4
00405330 AF F7 D2 D8 00 00 B1 AD 87 DB 1D ED 7A 75 FE 5A ............zu.Z
00405340 00 7A 00 20 23 04 2A A5 DE 3D 00 EF FF 34 00 77 .z. #.*..=...4.w
00405350 87 87 2E 42 00 C8 C3 21 88 FF FF 00 95 EE 84 02 ...B...!........
00405360 00 2F 7E 0A 5D 42 AB 1D F9 62 0C 38 5D 80 0C 21 ./~.]B...b.8]..!
00405370 BD CA 18 00 D0 03 7F 3A 93 00 0F 0F 6A 4A DE 63 .......:....jJ.c
00405380 EB 09 C9 56 F5 98 6E BF FB 58 AD B3 1D E9 38 CB ...V..n..X....8.
00405390 FF C9 44 29 F1 0E 28 04 B8 69 FF 8D 8F 1C 85 78 ..D)..(..i.....x
004053A0 66 17 8A B8 C4 40 63 00 0F 4D EB DA 30 5E 7B D7 f....@c..M..0^{.
004053B0 79 AA 00 CD 2F B4 00 40 8B E6 FF AC 40 78 9A 62 y.../..@....@x.b
004053C0 F9 FD 00 61 44 02 C1 0C 1C 4A A1 37 79 01 00 1A ...aD....J.7y...
004053D0 9B 00 0C 6A D3 40 00 72 1F E5 66 00 D3 89 8B EE ...j.@.r..f.....
004053E0 00 70 00 38 00 52 00 5A E8 FF BE 22 C9 40 4C C1 .p.8.R.Z...".@L.
004053F0 08 02 3B D8 C6 D7 39 40 07 5D 22 00 C7 FF FF 3C ..;...9@.]"....<
00405400 47 A4 7D CC 00 F0 FF F1 C8 3E B0 CF 00 41 37 08 G.}......>...A7.
00405410 ED E0 1B 00 9F 87 00 C6 D8 DC 72 E4 27 00 00 C0 ..........r.'...
00405420 FF 0E 8E 39 49 F6 36 AF 12 00 00 82 DD F5 F8 8C ...9I.6.........
00405430 BB 8E 28 15 C5 39 AB 00 60 41 49 51 56 00 36 00 ..(..9..`AIQV.6.
00405440 4C 9D 8D 3D 4E 39 AA 23 CD F3 00 FF 27 6B 1D 38 L..=N9.#....'k.8
00405450 00 17 C3 00 98 02 78 AC C9 00 FD B3 43 D4 01 1F ......x.....C...
00405460 3D 3E D5 82 F6 00 00 2F 41 2C 27 E8 6C F2 85 BA =>...../A,'.l...
00405470 DA DB D7 00 20 53 FE D9 5C 46 00 34 4C 77 A6 43 .... S..\F.4Lw.C
00405480 BF 3C BD B0 DC 20 8D 74 6F 65 4C 00 8F 32 C9 00 .<... .toeL..2..
00405490 7C 84 07 9F F2 9A 26 00 51 00 E8 26 FF 00 B4 80 |.....&.Q..&....
004054A0 B8 39 C1 00 79 A3 FD 96 AD 6C 02 61 2A 61 00 40 .9..y....l.a*a.@
004054B0 C5 FE 03 DB 0F D1 60 FD 00 13 13 00 EA D7 25 F1 ......`.......%.
004054C0 00 00 C4 CC B7 48 DF FF AF 02 69 11 F2 B3 3E 0A .....H....i...>.
004054D0 C0 DB FE 2E B8 23 4E DB DC 7A 9B 26 3A 4A DB F9 .....#N..z.&:J..
004054E0 2D 55 D8 F5 10 21 C4 FE 22 8E 9D C1 E9 C9 7F 36 -U...!.."......6
004054F0 00 05 12 DD 4D A9 F6 86 FF FE 2F 33 36 FF DE B4 ....M...../36...
00405500 BD E1 12 A3 7B 47 FF 28 93 16 F5 49 0E 31 DC E7 ....{G.(...I.1..
00405510 4C 8F 0F 00 8B 83 63 4B CC F2 35 33 F4 44 00 E6 L.....cK..53.D..
00405520 14 00 33 C5 38 62 FB A5 ED 50 17 97 00 FF FE 00 ..3.8b...P......
00405530 DB 0F 91 78 FF C0 00 C3 87 00 B4 7F 00 D8 00 51 ...x...........Q
00405540 4A ED 4F 00 FA 07 00 0E B4 B7 00 AE 95 0C E3 4B J.O............K
00405550 21 DD 51 07 4C 9B FF 8C 00 E2 33 00 3E 75 00 0F !.Q.L.....3.>u..
00405560 00 00 FF FF 92 ED 3A 05 42 A3 26 00 8C FF 7F CB ......:.B.&.....
00405570 72 AF 2D 00 83 00 72 00 0E D6 83 07 6E C4 71 AD r.-...r.....n.q.
00405580 E7 00 7B 49 F8 00 C6 BF FB 3E 84 1F 67 FF 4D B3 ..{I.....>..g.M.
00405590 DD F2 23 CF 9D E6 00 52 F9 3C 98 6F 6C 0B 6E 10 ..#....R.<.ol.n.
004055A0 D3 FF DB 69 5C 33 00 FF 00 C8 B1 00 00 59 00 0D ...i\3.......Y..
004055B0 00 E8 B9 FC 00 99 CB 15 F7 93 FE 46 FE E8 C7 00 ...........F....
004055C0 1D 90 56 00 3A 15 E2 C2 FF E4 5F C8 97 2F 16 34 ..V.:....._../.4
004055D0 00 07 14 00 05 00 45 00 F0 00 46 BA 19 95 2C DF ......E...F...,.
004055E0 FF 0A 63 3F 6B 5D 93 00 42 E3 76 06 00 00 7D 02 ..c?k]..B.v...}.
004055F0 A8 5B 8A BD BD 50 F5 FF B1 C2 90 08 DF 10 0B BE .[...P..........
00405600 00 63 C2 C9 A2 48 C9 56 87 1E EB FF BC AF 93 A8 .c...H.V........
00405610 33 74 00 00 8D BD 7F 94 00 E8 21 62 A0 EB FF C3 3t........!b....
00405620 62 FF 00 5D 66 43 7B 43 27 C1 7A 38 00 E5 00 05 b..]fC{C'.z8....
00405630 FF 00 93 28 3D EE DA 63 C6 A1 0C 22 D9 00 94 0A ...(=..c..."....
00405640 1B CC 4C 4F 00 01 00 9F FA DF C8 A9 BA 6C 07 44 ..LO.........l.D
00405650 FF FF B4 00 3F 87 29 AB 83 08 56 1A 44 85 BD 41 ....?.)...V.D..A
00405660 F1 00 00 5E 30 F0 7C 15 00 1D 43 81 19 66 00 EF ...^0.|...C..f..
00405670 7C 20 BD 48 79 DC 3C 74 41 69 2B 00 22 61 6C 00 | .Hy.<tAi+."al.
00405680 8D 00 00 10 0D 9A 00 2C F2 AE B6 F2 DD 8E 2C 60 .......,......,`
00405690 C5 00 AD 00 08 8F F3 00 02 00 E3 D1 00 38 CF 18 .............8..
004056A0 00 8C 00 DA C9 06 59 00 84 95 CF 36 42 41 00 45 ......Y....6BA.E
004056B0 00 FF 31 AF 10 0A 00 CD 82 88 09 CB F7 11 00 E0 ..1.............
004056C0 D3 DF 31 A0 00 FF 04 50 DF C6 6E FF 56 03 17 A6 ..1....P..n.V...
004056D0 00 B1 66 06 E6 38 19 04 86 54 5C 84 15 41 DB DA ..f..8...T\..A..
004056E0 C6 2F 46 9D AE 1E 00 3C 23 44 00 41 2D 13 85 C3 ./F....<#D.A-...
004056F0 26 DC EC 00 C9 00 DC E3 62 7F DF FA 56 22 20 E5 &.......b...V" .
00405700 07 A9 FF AA 95 5A 6A 18 07 30 E1 8B B3 A6 04 E2 .....Zj..0......
00405710 C2 CD 66 00 A3 7C 2A 63 C7 8E 00 00 F7 4C 4A 5C ..f..|*c.....LJ\
00405720 00 FF FF 88 6C A5 3F FE 00 CD 29 E5 C0 9F 78 25 ....l.?...)...x%
00405730 2F 61 6F 05 78 00 67 C4 5B 90 FF 6B 73 00 60 00 /ao.x.g.[..ks.`.
00405740 0F 70 1C C0 FF 6F 12 EC 9A A4 29 30 E6 07 7D E8 .p...o....)0..}.
00405750 CE 13 C8 54 B7 A6 19 AA C3 5E 2E 89 34 61 A6 4D ...T.....^..4a.M
00405760 48 45 79 85 FC 46 3F CF CB 81 AF 23 30 0A 26 03 HEy..F?....#0.&.
00405770 40 5B F3 00 99 EF 9B 2D 6D A8 F5 8B 1B 54 03 6A @[.....-m....T.j
00405780 00 E9 48 34 1B 88 F0 00 E9 0C 87 26 9E D0 8D 04 ..H4.......&....
00405790 A9 8D BC 6B D7 00 FF A8 BB FB 29 D4 FF C6 98 99 ...k......).....
004057A0 FF 75 A2 A7 F3 E5 46 E4 6A 72 9B 1F B4 40 5E D3 .u....F.jr...@^.
004057B0 B8 5A 55 4E 00 D3 48 F8 37 D4 FF 00 C6 CB 00 F3 .ZUN..H.7.......
004057C0 17 DC 05 03 DE 00 BC 3D 13 EF 9E 00 EB A6 BE C0 .......=........
004057D0 8C A8 EC 13 31 F9 59 98 DC 73 0E 1D FF 20 E9 17 ....1.Y..s... ..
004057E0 61 38 59 D8 39 FD 2E 39 A2 C1 D0 E6 C8 10 57 31 a8Y.9..9......W1
004057F0 EF 20 95 61 08 6D 37 00 00 FF C5 43 20 3C 46 2E . .a.m7....C <F.
00405800 BD 1B FF AD 0E F3 DB 00 F0 D5 A6 00 A7 74 D0 0A .............t..
00405810 CE 20 00 9C FF 8C BD 00 78 5E 4D 8A 9E 00 10 32 . ......x^M....2
00405820 31 AC 69 00 76 76 1F 82 26 00 AC E8 40 5D FF 00 1.i.vv..&...@]..
00405830 A3 75 70 9C E2 F7 99 FC 73 9D D2 A9 80 B2 10 AF .up.....s.......
00405840 B9 96 09 15 1E 06 D1 0D 58 B2 16 87 E3 ED 8E 8A ........X.......
00405850 FF 8B F6 07 FD 87 CA 46 62 F2 E4 00 4C 8B FF C4 .......Fb...L...
00405860 09 FE 3C C1 06 34 11 80 BF 3A 00 3E DE C7 B0 65 ..<..4...:.>...e
00405870 C2 C6 A0 89 07 30 8E CF D4 00 5D 36 06 6A 58 5B .....0....]6.jX[
00405880 64 FF 85 00 FF 14 7E 57 57 60 EB 24 00 E4 00 DC d.....~WW`.$....
00405890 07 C1 E3 39 3A 76 47 FF C4 B8 EA B9 51 85 19 ED ...9:vG.....Q...
004058A0 10 02 44 40 D4 1C A6 06 A4 62 8E B9 FF 8A 05 17 ..D@.....b......
004058B0 00 09 00 FF B3 F1 3D CA EE 1E 36 17 99 C4 58 EA ......=...6...X.
004058C0 4B 13 00 38 9D F2 6D 66 98 81 00 FE 93 B0 0F 36 K..8..mf.......6
004058D0 C5 72 28 17 E8 02 CD D3 00 38 30 6C 08 4C 00 FF .r(......80l.L..
004058E0 00 70 D3 00 20 04 57 D8 00 60 A6 00 51 00 4F FF .p.. .W..`..Q.O.
004058F0 D9 ED 18 01 C9 C2 4C 8E B0 3D A0 37 E7 7E 00 60 ......L..=.7.~.`
00405900 8B 8A 00 68 00 00 FF 00 36 E2 2F 02 D9 FF 01 1E ...h....6./.....
00405910 7D DB B3 D7 36 9F 0B 7C 60 ED 48 4E 88 4A 09 3E }...6..|`.HN.J.>
00405920 04 68 00 58 00 45 00 08 49 B9 56 4A 8F BC 81 17 .h.X.E..I.VJ....
00405930 00 84 1C 54 E7 8D 0C 64 34 88 25 7A C9 86 00 F0 ...T...d4.%z....
00405940 3E 1A 0B 7C 00 C0 3B 6C 00 0E 98 00 00 34 FF 00 >..|..;l.....4..
00405950 85 EB CB 8A 6E 1D C9 5E BB 00 DC 21 24 80 38 B7 ....n..^...!$.8.
00405960 58 24 10 81 11 9E 00 97 78 8E 00 8D A1 1A 00 00 X$......x.......
00405970 89 FF 84 1D F4 00 58 D7 FE BB 6B 4D 00 95 0C B9 ......X...kM....
00405980 FF E3 76 89 ED 3D 00 6D 0F 0E A0 C4 09 05 D1 DF ..v..=.m........
00405990 A9 24 03 89 3D 0B 86 4C E3 2B 00 73 BC D2 5C A3 .$..=..L.+.s..\.
004059A0 B6 A6 28 4A 8F 23 5E 4E 03 C9 13 F3 12 08 00 93 ..(J.#^N........
004059B0 86 02 00 08 06 3C 30 62 26 4B ED 29 C6 96 90 00 .....<0b&K.)....
004059C0 E7 13 76 80 75 0A FD 7B 57 7A 03 AE D9 1A A4 91 ..v.u..{Wz......
004059D0 7E 00 54 00 6C CD 0F B8 05 9B AF 75 78 C1 D1 0C ~.T.l......ux...
004059E0 F0 91 18 2A 27 A6 43 BA 4B 10 1D 20 FF 38 D1 C9 ...*'.C.K.. .8..
004059F0 66 22 2F 5A D0 36 10 71 34 7A FD FD A8 DF DC 00 f"/Z.6.q4z......
00405A00 DD 66 7D 30 24 EE 67 41 B3 74 B4 AE 00 F9 71 D8 .f}0$.gA.t....q.
00405A10 35 11 00 08 C8 8B 1E 2C 00 A1 92 C9 00 77 FF 42 5......,.....w.B
00405A20 00 C4 4F 01 B1 E3 00 8E D7 36 00 A5 00 12 1A 00 ..O......6......
00405A30 00 00 08 06 A8 08 E4 00 00 27 D8 65 51 E6 8F 00 .........'.eQ...
00405A40 80 00 00 00 4A 00 00 1D 60 E2 E5 D0 F9 00 63 A9 ....J...`.....c.
00405A50 00 B6 8C 51 3A 7A 66 02 6A 00 08 FC 21 C6 71 AD ...Q:zf.j...!.q.
00405A60 A9 87 FF F2 00 DE 1C 01 7D C4 99 FF FF AE D8 B6 ........}.......
00405A70 C2 27 A3 C8 27 E3 F7 B8 00 49 EA 2B 00 57 6F 2A .'..'....I.+.Wo*
00405A80 1F E4 83 E9 01 16 20 84 2A 03 BC 6B 1E 00 00 FA ...... .*..k....
00405A90 31 92 43 00 43 3F 00 00 20 1C 57 1F E9 33 00 00 1.C.C?.. .W..3..
00405AA0 C6 61 87 1F 13 45 27 7B D4 2E 5F 82 B6 F2 10 B8 .a...E'{.._.....
00405AB0 65 EA A0 87 7A 00 2D 7B DF 70 8C 6C D5 56 00 7B e...z.-{.p.l.V.{
00405AC0 38 8E 70 FF 10 C6 E2 A3 F2 DD 19 7B 89 C4 3F 10 8.p........{..?.
00405AD0 00 8F 07 6E AD C4 7C 00 12 47 85 BA 50 9F 28 D4 ...n..|..G..P.(.
00405AE0 BC 00 FE E4 FF 33 98 00 02 00 6D 9D 00 00 96 BE .....3....m.....
00405AF0 08 4F 7F 94 84 1C 42 7D 77 29 53 B5 54 88 D9 A6 .O....B}w)S.T...
00405B00 00 30 EF FF EF C7 D6 10 4A A4 6C 90 EC B7 EE 98 .0......J.l.....
00405B10 00 00 50 37 00 3E 7B B3 00 DD 65 61 05 38 4C 79 ..P7.>{...ea.8Ly
00405B20 97 E0 2E 00 52 3E 4B 74 D5 91 A1 CB 6A 04 D2 00 ....R>Kt....j...
00405B30 46 83 B1 7B BC 1E A8 CB 05 D2 48 8C 9D 98 EA 8A F..{......H.....
00405B40 19 3E E8 D8 63 88 68 00 E3 E6 CA 22 DE 7B 00 98 .>..c.h....".{..
00405B50 85 F5 82 00 33 2B 61 00 9E 76 D8 CF 4B 35 AE 00 ....3+a..v..K5..
00405B60 4A 21 C6 34 C3 E8 27 46 89 00 D7 11 E2 30 30 78 J!.4..'F.....00x
00405B70 D8 A0 BF 08 10 00 75 A9 D2 68 8A 00 42 99 2C C5 ......u..h..B.,.
00405B80 1C CA 74 C6 C0 4F FB FF C1 00 5F 85 D3 18 97 B6 ..t..O...._.....
00405B90 1F 59 00 A0 CD 22 30 00 CE 60 7E 0E FF 0B 00 7F .Y..."0..`~.....
00405BA0 58 34 38 35 05 7C 84 E3 E3 00 2A 6E 1C 7C 12 8E X485.|....*n.|..
00405BB0 C1 8B 25 44 C3 C2 03 71 CC F1 00 61 00 FF 82 C9 ..%D...q...a....
00405BC0 4C 00 B1 69 89 00 00 BD 10 2E 00 9B CF 8E 19 03 L..i............
00405BD0 41 B6 A2 0C F6 68 FF 00 F7 E1 23 2E 02 67 B8 AE A....h....#..g..
00405BE0 99 22 6E C8 00 FF BD 6C 00 00 15 9F EA 1A CA 3D ."n....l.......=
00405BF0 C6 25 B9 CB 20 6C B6 25 84 93 D0 D8 85 A3 4C 83 .%.. l.%......L.
00405C00 16 62 2E 21 84 00 87 00 31 39 47 84 C3 8F 00 F0 .b.!....19G.....
00405C10 00 00 4D FF 27 00 FF 97 C3 FF 8C 00 7E 97 46 A6 ..M.'.......~.F.
00405C20 EE 4A 98 82 36 8A DB 8B 3C 00 9D F1 4D 49 00 00 .J..6...<...MI..
00405C30 FD 00 4E 44 FF E5 27 82 03 AA A0 7B 00 00 B0 40 ..ND..'....{...@
00405C40 CC E8 11 70 40 78 CB B3 57 00 2F E5 CC F7 85 B3 ...p@x..W./.....
00405C50 18 DC EE E2 CB 7B 00 F4 FF FF AC 15 00 ED CC 02 .....{..........
00405C60 63 42 1F 00 00 43 04 73 4A C4 62 00 FF F3 40 A1 cB...C.sJ.b...@.
00405C70 80 C6 00 1F 78 E1 FF 37 D8 C4 D9 78 A3 00 DB 21 ....x..7...x...!
00405C80 60 CA 72 B8 CD 8D 68 52 79 D4 1D A9 0E FF B3 0E `.r...hRy.......
00405C90 F8 D3 35 25 06 94 89 15 5C 19 D7 F3 E7 4F 47 7C ..5%....\....OG|
00405CA0 E0 91 35 68 00 4C 16 00 8A F7 3F 00 87 F9 0E C5 ..5h.L....?.....
00405CB0 70 E5 01 FF 9D C9 DD 00 00 80 4C 1E 7A 31 BD C7 p.........L.z1..
00405CC0 16 24 BF 7B 32 A8 BC AB 00 2D E3 9F 00 1D 00 28 .$.{2....-.....(
00405CD0 D1 9A 36 4E C2 FA D2 00 00 FB 74 EF 30 A2 11 96 ..6N......t.0...
00405CE0 F4 D8 00 E5 15 22 00 8B 00 40 23 06 1F 93 C4 C6 ....."...@#.....
00405CF0 80 C5 80 EC A4 6D 00 0C B3 78 E8 97 25 FF FF 3B .....m...x..%..;
00405D00 24 E9 F8 B2 7F 98 05 00 12 23 21 13 4A DF 90 A8 $........#!.J...
00405D10 55 B6 22 34 00 F7 D3 03 14 40 EC 1D 00 BD 00 00 U."4.....@......
00405D20 20 10 85 B2 EB 47 61 FF 9C 79 78 E3 00 87 3C 00  ....Ga..yx...<.
00405D30 40 21 14 9D 00 00 6A E6 18 8D 00 FF 0E 52 0A 00 @!....j......R..
00405D40 4D 27 CB 00 03 2A 0D D1 1F 4D 91 59 FF 25 00 D2 M'...*...M.Y.%..
00405D50 E6 E4 FD 41 38 FF 7D E0 00 F9 09 87 31 97 62 04 ...A8.}.....1.b.
00405D60 BE FD 00 3B 45 2D 05 70 47 37 34 1E 56 0E FF B0 ...;E-.pG74.V...
00405D70 9B 7E 3B C3 46 1F 1B E0 24 3C 5F B3 00 0F 62 88 .~;.F...$<_...b.
00405D80 A0 E1 57 44 1F 6A 50 7E 87 00 43 FF FF 45 00 78 ..WD.jP~..C..E.x
00405D90 8E 6B 82 00 E6 02 38 78 5B 4E 10 00 A7 C7 3A 84 .k....8x[N....:.
00405DA0 20 E3 DC 19 40 C3 40 D4 1C 00 FF 00 00 B1 06 D6  ...@.@.........
00405DB0 8B 03 18 FC 77 00 DB 2B F1 00 00 80 59 4D 0C FC ....w..+....YM..
00405DC0 A6 1B 00 F8 DE 36 ED 48 33 00 21 1A E8 00 5A E9 .....6.H3.!...Z.
00405DD0 E4 D2 F8 6F CB 41 81 40 41 B1 FF FF 00 37 4D 00 ...o.A.@A....7M.
00405DE0 99 01 8A E0 1A E4 E5 8B 89 6A 32 6F 32 00 32 97 .........j2o2.2.
00405DF0 00 FF FE 12 07 E6 7C 12 48 A4 A1 14 03 0E 09 81 ......|.H.......
00405E00 00 C9 00 07 42 C9 40 1C 63 BE C0 FD 09 9D FF 17 ....B.@.c.......
00405E10 BA 7F 48 55 A3 00 2C 80 CE 18 40 3C 6B 6E BD 9E ..HU..,...@<kn..
00405E20 C2 94 6F 54 9E A3 B6 91 B3 73 3A 00 FF A5 88 89 ..oT.....s:.....
00405E30 F8 82 D7 00 7F 10 4A 3A 4C FF D9 9F F8 00 C6 C9 ......J:L.......
00405E40 12 F7 69 2E 55 A4 10 00 F5 DD C6 00 6F BD 00 FF ..i.U.......o...
00405E50 06 0A 00 AE 39 6E FF D3 00 E9 9D 00 FF 6E 8D F9 ....9n.......n..
00405E60 AC CB FF 93 BF 57 91 83 B5 00 00 08 52 E8 00 F7 .....W......R...
00405E70 26 E1 D9 16 91 03 F1 00 00 16 0A 6E A3 07 95 86 &..........n....
00405E80 29 69 3D 14 0F 20 C0 A4 18 C3 D4 CF C2 C9 61 FF )i=.. ........a.
00405E90 FF 86 93 F0 E3 00 0A 1C CA 73 00 00 E9 3A 28 59 .........s...:(Y
00405EA0 62 78 70 9E 86 9C 36 23 7B FF ED C2 05 8B 17 97 bxp...6#{.......
00405EB0 F4 BF 5F 2F A1 D6 C3 26 D2 7D F5 50 C5 95 00 2B .._/...&.}.P...+
00405EC0 00 F8 0F B9 F8 B0 8D 2A 77 00 D4 FF 1B 2E 46 27 .......*w.....F'
00405ED0 91 E7 B7 02 33 9C 91 00 3F 00 00 FE 48 FC BF DE ....3...?...H...
00405EE0 00 C1 1C 00 00 A6 99 A1 92 35 94 1B 00 64 3A 2A .........5...d:*
00405EF0 7D 6E 00 2D 6F 00 3D DD 9B 00 9B D1 0A 4A FF 0A }n.-o.=......J..
00405F00 58 B4 00 F9 A8 FF 44 00 C1 5C 70 13 E8 D0 00 00 X.....D..\p.....
00405F10 5A 6C 4D 00 C5 D2 03 8D 82 B1 6D F0 A1 31 09 00 ZlM.......m..1..
00405F20 FF 68 97 45 01 FF F2 B1 00 57 07 00 31 37 A1 1A .h.E.....W..17..
00405F30 7A 23 E8 CF 00 FF D0 26 2E 3C 6B F9 3F DF 46 00 z#.....&.<k.?.F.
00405F40 9D A6 3E 00 00 3A 4C 31 00 E5 2C 86 89 48 0E C6 ..>..:L1..,..H..
00405F50 00 12 E0 B8 21 B7 FF 28 7E AC 00 00 7C 03 4C 8F ....!..(~...|.L.
00405F60 AF F2 18 FF E8 9C 1D C0 CB 02 EA D2 00 FF 4E F5 ..............N.
00405F70 00 D9 87 FF 7A B6 56 FB 24 00 69 C1 0C F3 0D AC ....z.V.$.i.....
00405F80 1C 00 BF 23 6A C7 0A 11 86 6D 00 A8 7C 56 75 63 ...#j....m..|Vuc
00405F90 C0 33 16 61 F7 00 00 39 4C E6 C5 BB FF 32 44 6F .3.a...9L....2Do
00405FA0 00 90 3C 66 8F CB D9 F1 A1 3A 76 26 5B EB FF 3E ..<f.....:v&[..>
00405FB0 A3 63 E8 48 00 51 9A 07 31 6A 84 88 23 47 F5 13 .c.H.Q..1j..#G..
00405FC0 3E 48 87 7A 82 00 11 D9 00 FC F3 47 00 4E F0 00 >H.z.......G.N..
00405FD0 07 00 00 00 00 F0 8D DE DD 26 DB 47 00 73 77 F5 .........&.G.sw.
00405FE0 2E 37 C1 07 00 FF 83 6F F9 13 A0 47 3F 9F C3 00 .7.....o...G?...
00405FF0 14 0E 00 DE 56 00 C6 6E FC A6 20 3E 00 02 00 3E ....V..n.. >...>
00406000 00 29 1E 06 F8 00 59 20 D7 4A 36 F7 99 1E C3 A7 .)....Y .J6.....
00406010 AE 97 00 85 02 AE 39 FF 5A BE 23 FE 46 08 86 8A ......9.Z.#.F...
00406020 52 B4 46 16 3E 70 00 65 00 00 01 E5 DC 20 C1 FF R.F.>p.e..... ..
00406030 5A FF 05 00 34 78 8F 00 29 08 6F 1B 83 00 16 3C Z...4x..).o....<
00406040 DF 29 A3 9E 0D 26 24 6B 00 82 FF 46 00 0C C5 2D .)...&$k...F...-
00406050 39 FE BA FD F2 00 F7 D3 67 9C D1 ED 50 66 A7 00 9.......g...Pf..
00406060 D2 59 00 87 C4 00 60 22 DC 2E 80 00 1C 80 C9 5D .Y....`".......]
00406070 B2 99 BF D2 F1 18 00 A2 83 B4 6A C5 89 00 11 5A ..........j....Z
00406080 59 1B 04 DD 33 A1 04 3A D7 00 BF 00 00 FF 75 C5 Y...3..:......u.
00406090 10 D7 67 BA 7D B6 E0 08 90 D8 14 B1 1B 69 36 4C ..g.}........i6L
004060A0 1E 52 01 84 00 00 18 3B AF C5 5D 47 CD 84 C9 FF .R.....;..]G....
004060B0 D0 67 F0 C6 3F B7 36 E0 30 6B 56 00 1F 90 50 92 .g..?.6.0kV...P.
004060C0 FE 64 EC 66 73 1B 00 00 C2 CA 16 FF 84 98 1D 80 .d.fs...........
004060D0 02 FF 47 43 D2 67 00 AB 00 00 FF FA B8 98 1B 01 ..GC.g..........
004060E0 0B 7D B4 8A 66 77 00 0F 70 C1 71 12 00 46 FA 6B .}..fw..p.q..F.k
004060F0 0A 3E C9 F4 98 8E 00 5C 00 FF 31 00 60 D8 50 9F .>.....\..1.`.P.
00406100 4B B3 15 FF 8F 5F E5 35 7C BF A9 B8 50 1F 6B 18 K...._.5|...P.k.
00406110 00 81 8C FF 80 04 29 74 CA D1 1C 00 99 A5 5C 20 ......)t......\ 
00406120 79 33 04 74 FF CF FF FF 2D 41 1C 7E 5A 39 93 97 y3.t....-A.~Z9..
00406130 00 DC DF FF 5F 3F B1 00 D1 5C 36 37 37 04 E9 00 ...._?...\677...
00406140 F4 00 00 2C 45 39 F1 FF F0 D4 A7 AD A1 38 20 E3 ...,E9.......8 .
00406150 BB 00 0A 6E 17 98 FF 43 68 74 CA 00 00 E2 00 64 ...n...Cht.....d
00406160 F7 0C F2 9A 00 35 72 83 1F 16 08 E9 D0 64 0B D4 .....5r......d..
00406170 30 00 54 C5 BF 48 A0 00 00 E1 02 52 5F 4E 2D D0 0.T..H.....R_N-.
00406180 0F D9 90 08 6F C3 00 60 00 4C B0 E2 B8 83 23 FF ....o..`.L....#.
00406190 6D 1C 05 8C 5E 73 4A 00 9C C7 24 DB 1C 64 1A DF m...^sJ...$..d..
004061A0 04 1A A8 7D 3A 00 4B 6F 33 FF 45 C1 43 00 3A 7B ...}:.Ko3.E.C.:{
004061B0 99 00 4F 00 F8 E8 E5 22 00 00 00 88 34 83 20 1B ..O...."....4. .
004061C0 60 A5 58 CE E9 38 FF 88 70 00 7F 76 F8 C3 E4 C0 `.X..8..p..v....
004061D0 3E FF FF 18 84 B8 D5 FF BE 00 F7 C1 7F F7 EF 22 >.............."
004061E0 EC EE DD 3F CE 78 B0 9C EA 5C 8D AD 1C 71 9B 33 ...?.x...\...q.3
004061F0 73 DF A6 7E E1 13 A3 6F 58 02 61 8A 74 DD 2F 42 s..~...oX.a.t./B
00406200 3D 99 6F 91 A7 8F 8C 00 16 7F 93 CE 00 00 E2 0E =.o.............
00406210 72 3F 00 00 6C 32 C7 D6 7A DA 00 FF 39 EF B7 84 r?..l2..z...9...
00406220 FF DC 80 2C 20 8F A4 8E B0 F8 CF 00 1F D0 50 BE ..., .........P.
00406230 D8 22 9F 6B 58 73 83 00 06 89 33 70 1C 41 64 3B .".kXs....3p.Ad;
00406240 24 80 47 40 E1 B7 FF 00 81 54 BA 4B 10 A9 84 DD $.G@.....T.K....
00406250 C3 F6 E6 00 00 90 00 D3 75 02 54 44 6F 00 C9 37 ........u.TDo..7
00406260 CD 38 68 08 D7 38 7F 1D BB 5A E2 35 90 80 F5 DF .8h..8...Z.5....
00406270 09 7F 60 34 CD C5 BD DA 5F 87 62 94 16 35 1D 1C ..`4...._.b..5..
00406280 A3 C1 00 FF FC 74 BF 9B 00 19 91 DB 04 74 00 00 .....t.......t..
00406290 3B F8 19 48 8A 92 1C 28 07 90 4B F3 A4 00 BE E5 ;..H...(..K.....
004062A0 D1 40 40 D1 D5 FF DD 74 15 00 4E 38 00 00 0D 06 .@@....t..N8....
004062B0 EA 8F 53 B0 02 87 46 27 82 8F D4 FF FF 00 0E 38 ..S...F'.......8
004062C0 B4 F5 00 3C 84 C7 00 2E 23 00 27 BA E8 AF 63 5B ...<....#.'...c[
004062D0 B3 00 64 DA 6E 10 F6 81 00 63 FF C7 97 F8 00 10 ..d.n....c......
004062E0 A3 3A 04 21 3A 63 40 28 BA 30 64 D4 A4 74 A9 68 .:.!:c@(.0d..t.h
004062F0 BA 21 FF C0 00 D6 4C 00 82 00 AF 00 00 FF F6 1A .!....L.........
00406300 8E 71 B7 D3 C3 00 8E C0 9D BC 91 17 FF 4D 60 22 .q...........M`"
00406310 AE F0 8A F3 F3 44 16 81 01 2B 6F AE F2 00 00 6F .....D...+o....o
00406320 26 9E C9 40 B7 C5 00 EC D9 FF 00 0C 7E 00 19 36 &..@........~..6
00406330 C8 4D FF 28 00 2E FF F2 8F B6 0D 7D 6D 4A 95 45 .M.(.......}mJ.E
00406340 27 FF 00 27 02 80 C5 00 00 72 98 20 EA A9 DE D2 '..'.....r. ....
00406350 FE DF A3 52 1D 85 CF 44 28 61 40 DB 01 00 00 EA ...R...D(a@.....
00406360 2A 3A 3F 61 49 24 83 14 00 5F 53 48 A1 28 80 E4 *:?aI$..._SH.(..
00406370 60 17 16 43 0C 6B 00 B4 FF 57 56 F9 59 00 7E F4 `..C.k...WV.Y.~.
00406380 94 07 15 2D 81 9A 00 BA B4 08 F5 26 44 24 00 8B ...-.......&D$..
00406390 96 00 0C 01 7E C4 FC FF C1 B9 87 0D 34 73 E0 B9 ....~.......4s..
004063A0 A1 09 D1 70 A4 0B 00 6C E1 00 DF B1 84 00 F3 39 ...p...l.......9
004063B0 A0 2E 57 00 FF 50 E2 4F C7 94 00 81 C3 30 0C 2E ..W..P.O.....0..
004063C0 6F 26 FC 00 85 ED F0 B3 47 B7 7F 2C 4E 00 4A 32 o&......G..,N.J2
004063D0 50 FF 89 B1 25 00 AD FF 61 32 00 3F C5 0A CA BA P...%...a2.?....
004063E0 4D 90 81 20 3B 1C B4 C3 C2 9F 49 00 4B 64 2E 12 M.. ;.....I.Kd..
004063F0 E3 B0 5A C6 DF 23 9C E2 00 E7 9F B3 72 C9 00 C4 ..Z..#......r...
00406400 BF 00 83 FB B8 FA 92 68 88 EA FF 0E 8A 0A 5F F3 .......h......_.
00406410 21 97 55 0B 44 6C FF 2E 62 EF 05 72 3E E8 01 02 !.U.Dl..b..r>...
00406420 90 DF E9 96 69 DB FF FF 0F 47 76 00 AE 75 23 E3 ....i....Gv..u#.
00406430 CD 00 60 CB F8 74 10 CD 9F 03 8C FB 30 0E 00 0D ..`..t......0...
00406440 80 B1 F0 7B BD 44 C0 81 70 C1 4F 00 00 DE CF EE ...{.D..p.O.....
00406450 00 18 00 05 12 28 FF 9B 10 B8 1E F6 1F 00 71 8F .....(........q.
00406460 C0 00 A6 47 54 00 8E 4A 44 36 1F 81 B5 00 00 33 ...GT..JD6.....3
00406470 00 7C 51 00 74 E6 2A AC F0 50 54 00 8A C3 EE AE .|Q.t.*..PT.....
00406480 B8 B6 C1 FF FF 8A D9 FF 4B 7D A0 31 E5 00 25 50 ........K}.1..%P
00406490 CD CE 2A 07 78 00 00 1B C1 09 30 E3 B9 DC D0 87 ..*.x.....0.....
004064A0 72 77 2D 77 AD EC EC 13 11 25 7B C1 6D 70 FF FF rw-w.....%{.mp..
004064B0 10 7F B0 2E F7 38 3E B0 8D 3A 81 A6 EE 00 10 38 .....8>..:.....8
004064C0 00 B0 00 C8 98 18 BB 3E C2 0E EF 12 04 24 04 5A .......>.....$.Z
004064D0 02 FF 74 E4 00 84 59 8F FF 9F FF AC 1B DA 5E 00 ..t...Y.......^.
004064E0 F9 56 D4 36 E9 7E 00 73 B1 77 85 CA 26 32 A2 A9 .V.6.~.s.w..&2..
004064F0 40 08 87 02 A4 8D 00 18 00 57 E6 69 B7 68 FF 78 @........W.i.h.x
00406500 1C 6B D7 93 03 C7 07 E5 77 00 93 92 00 41 2C B9 .k......w....A,.
00406510 7A F9 36 C5 D7 9F 00 35 5E 01 5B 96 00 AB F6 00 z.6....5^.[.....
00406520 00 00 1B F2 89 E3 D3 5C 00 00 72 11 FD AC F2 E3 .......\..r.....
00406530 3A FF 89 03 88 85 01 02 F8 00 0F E3 D8 F6 CE 3F :..............?
00406540 D1 53 00 04 AA F5 71 FF 39 00 DE 3F 00 0A 02 00 .S....q.9..?....
00406550 54 3E 00 00 10 EB 0E 74 00 7E 78 9A 00 C1 03 43 T>.....t.~x....C
00406560 00 52 C5 A8 00 48 F7 AA 6D 61 00 47 00 00 22 00 .R...H..ma.G..".
00406570 BB 30 71 F0 12 20 81 42 B5 83 9E E4 DB 00 08 C2 .0q.. .B........
00406580 7B 00 CD C2 63 41 52 5F 00 72 51 BD 58 00 20 DA {...cAR_.rQ.X. .
00406590 B6 91 E6 E0 FC E2 71 02 0C 00 0C C2 80 C5 56 00 ......q.......V.
004065A0 F8 A5 3B E1 8D 64 FF 32 86 67 00 FF F1 78 00 00 ..;..d.2.g...x..
004065B0 0E 30 AB 7E 50 4B 00 FF 3E 00 FE 00 B4 07 A0 9B .0.~PK..>.......
004065C0 F0 19 00 80 D1 00 00 1E 00 0E AB 00 32 A4 38 23 ............2.8#
004065D0 54 57 7F 00 72 50 BF AC 00 00 BE 89 ED EB 44 4B TW..rP........DK
004065E0 89 FF 46 F4 A7 28 4E BA 9D 0A D5 FF 00 70 64 00 ..F..(N......pd.
004065F0 E3 03 F0 23 BF 29 C9 6C AE FF C6 4D F2 7F 2F B7 ...#.).l...M../.
00406600 00 00 00 00 00 00 00 00 00 00 00 00 00 00 00 00 ................
00406610 00 00 00 00 00 00 00 00 00 00 00 00 00 00 00 00 ................
00406620 00 00 00 00 00 00 00 00 00 00 00 00 00 00 00 00 ................
00406630 00 00 00 00 00 00 00 00 00 00 00 00 00 00 00 00 ................
00406640 00 00 00 00 00 00 00 00 00 00 00 00 00 00 00 00 ................
00406650 00 00 00 00 00 00 00 00 00 00 00 00 00 00 00 00 ................
00406660 00 00 00 00 00 00 00 00 00 00 00 00 00 00 00 00 ................
00406670 00 00 00 00 00 00 00 00 00 00 00 00 00 00 00 00 ................
00406680 00 00 00 00 00 00 00 00 00 00 00 00 00 00 00 00 ................
00406690 00 00 00 00 00 00 00 00 00 00 00 00 00 00 00 00 ................
004066A0 00 00 00 00 00 00 00 00 00 00 00 00 00 00 00 00 ................
004066B0 00 00 00 00 00 00 00 00 00 00 00 00 00 00 00 00 ................
004066C0 00 00 00 00 00 00 00 00 00 00 00 00 00 00 00 00 ................
004066D0 00 00 00 00 00 00 00 00 00 00 00 00 00 00 00 00 ................
004066E0 00 00 00 00 00 00 00 00 00 00 00 00 00 00 00 00 ................
004066F0 00 00 00 00 00 00 00 00 00 00 00 00 00 00 00 00 ................
00406700 00 00 00 00 00 00 00 00 00 00 00 00 00 00 00 00 ................
00406710 00 00 00 00 00 00 00 00 00 00 00 00 00 00 00 00 ................
00406720 00 00 00 00 00 00 00 00 00 00 00 00 00 00 00 00 ................
00406730 00 00 00 00 00 00 00 00 00 00 00 00 00 00 00 00 ................
00406740 00 00 00 00 00 00 00 00 00 00 00 00 00 00 00 00 ................
00406750 00 00 00 00 00 00 00 00 00 00 00 00 00 00 00 00 ................
00406760 00 00 00 00 00 00 00 00 00 00 00 00 00 00 00 00 ................
00406770 00 00 00 00 00 00 00 00 00 00 00 00 00 00 00 00 ................
00406780 00 00 00 00 00 00 00 00 00 00 00 00 00 00 00 00 ................
00406790 00 00 00 00 00 00 00 00 00 00 00 00 00 00 00 00 ................
004067A0 00 00 00 00 00 00 00 00 00 00 00 00 00 00 00 00 ................
004067B0 00 00 00 00 00 00 00 00 00 00 00 00 00 00 00 00 ................
004067C0 00 00 00 00 00 00 00 00 00 00 00 00 00 00 00 00 ................
004067D0 00 00 00 00 00 00 00 00 00 00 00 00 00 00 00 00 ................
004067E0 00 00 00 00 00 00 00 00 00 00 00 00 00 00 00 00 ................
004067F0 00 00 00 00 00 00 00 00 00 00 00 00 00 00 00 00 ................
00406800 00 00 00 00 00 00 00 00 00 00 00 00 00 00 00 00 ................
00406810 00 00 00 00 00 00 00 00 00 00 00 00 00 00 00 00 ................
00406820 00 00 00 00 00 00 00 00 00 00 00 00 00 00 00 00 ................
00406830 00 00 00 00 00 00 00 00 00 00 00 00 00 00 00 00 ................
00406840 00 00 00 00 00 00 00 00 00 00 00 00 00 00 00 00 ................
00406850 00 00 00 00 00 00 00 00 00 00 00 00 00 00 00 00 ................
00406860 00 00 00 00 00 00 00 00 00 00 00 00 00 00 00 00 ................
00406870 00 00 00 00 00 00 00 00 00 00 00 00 00 00 00 00 ................
00406880 00 00 00 00 00 00 00 00 00 00 00 00 00 00 00 00 ................
00406890 00 00 00 00 00 00 00 00 00 00 00 00 00 00 00 00 ................
004068A0 00 00 00 00 00 00 00 00 00 00 00 00 00 00 00 00 ................
004068B0 00 00 00 00 00 00 00 00 00 00 00 00 00 00 00 00 ................
004068C0 00 00 00 00 00 00 00 00 00 00 00 00 00 00 00 00 ................
004068D0 00 00 00 00 00 00 00 00 00 00 00 00 00 00 00 00 ................
004068E0 00 00 00 00 00 00 00 00 00 00 00 00 00 00 00 00 ................
004068F0 00 00 00 00 00 00 00 00 00 00 00 00 00 00 00 00 ................
00406900 00 00 00 00 00 00 00 00 00 00 00 00 00 00 00 00 ................
00406910 00 00 00 00 00 00 00 00 00 00 00 00 00 00 00 00 ................
00406920 00 00 00 00 00 00 00 00 00 00 00 00 00 00 00 00 ................
00406930 00 00 00 00 00 00 00 00 00 00 00 00 00 00 00 00 ................
00406940 00 00 00 00 00 00 00 00 00 00 00 00 00 00 00 00 ................
00406950 00 00 00 00 00 00 00 00 00 00 00 00 00 00 00 00 ................
00406960 00 00 00 00 00 00 00 00 00 00 00 00 00 00 00 00 ................
00406970 00 00 00 00 00 00 00 00 00 00 00 00 00 00 00 00 ................
00406980 00 00 00 00 00 00 00 00 00 00 00 00 00 00 00 00 ................
00406990 00 00 00 00 00 00 00 00 00 00 00 00 00 00 00 00 ................
004069A0 00 00 00 00 00 00 00 00 00 00 00 00 00 00 00 00 ................
004069B0 00 00 00 00 00 00 00 00 00 00 00 00 00 00 00 00 ................
004069C0 00 00 00 00 00 00 00 00 00 00 00 00 00 00 00 00 ................
004069D0 00 00 00 00 00 00 00 00 00 00 00 00 00 00 00 00 ................
004069E0 00 00 00 00 00 00 00 00 00 00 00 00 00 00 00 00 ................
004069F0 00 00 00 00 00 00 00 00 00 00 00 00 00 00 00 00 ................
00406A00 00 00 00 00 00 00 00 00 00 00 00 00 00 00 00 00 ................
00406A10 00 00 00 00 00 00 00 00 00 00 00 00 00 00 00 00 ................
00406A20 00 00 00 00 00 00 00 00 00 00 00 00 00 00 00 00 ................
00406A30 00 00 00 00 00 00 00 00 00 00 00 00 00 00 00 00 ................
00406A40 00 00 00 00 00 00 00 00 00 00 00 00 00 00 00 00 ................
00406A50 00 00 00 00 00 00 00 00 00 00 00 00 00 00 00 00 ................
00406A60 00 00 00 00 00 00 00 00 00 00 00 00 00 00 00 00 ................
00406A70 00 00 00 00 00 00 00 00 00 00 00 00 00 00 00 00 ................
00406A80 00 00 00 00 00 00 00 00 00 00 00 00 00 00 00 00 ................
00406A90 00 00 00 00 00 00 00 00 00 00 00 00 00 00 00 00 ................
00406AA0 00 00 00 00 00 00 00 00 00 00 00 00 00 00 00 00 ................
00406AB0 00 00 00 00 00 00 00 00 00 00 00 00 00 00 00 00 ................
00406AC0 00 00 00 00 00 00 00 00 00 00 00 00 00 00 00 00 ................
00406AD0 00 00 00 00 00 00 00 00 00 00 00 00 00 00 00 00 ................
00406AE0 00 00 00 00 00 00 00 00 00 00 00 00 00 00 00 00 ................
00406AF0 00 00 00 00 00 00 00 00 00 00 00 00 00 00 00 00 ................
00406B00 00 00 00 00 00 00 00 00 00 00 00 00 00 00 00 00 ................
00406B10 00 00 00 00 00 00 00 00 00 00 00 00 00 00 00 00 ................
00406B20 00 00 00 00 00 00 00 00 00 00 00 00 00 00 00 00 ................
00406B30 00 00 00 00 00 00 00 00 00 00 00 00 00 00 00 00 ................
00406B40 00 00 00 00 00 00 00 00 00 00 00 00 00 00 00 00 ................
00406B50 00 00 00 00 00 00 00 00 00 00 00 00 00 00 00 00 ................
00406B60 00 00 00 00 00 00 00 00 00 00 00 00 00 00 00 00 ................
00406B70 00 00 00 00 00 00 00 00 00 00 00 00 00 00 00 00 ................
00406B80 00 00 00 00 00 00 00 00 00 00 00 00 00 00 00 00 ................
00406B90 00 00 00 00 00 00 00 00 00 00 00 00 00 00 00 00 ................
00406BA0 00 00 00 00 00 00 00 00 00 00 00 00 00 00 00 00 ................
00406BB0 00 00 00 00 00 00 00 00 00 00 00 00 00 00 00 00 ................
00406BC0 00 00 00 00 00 00 00 00 00 00 00 00 00 00 00 00 ................
00406BD0 00 00 00 00 00 00 00 00 00 00 00 00 00 00 00 00 ................
00406BE0 00 00 00 00 00 00 00 00 00 00 00 00 00 00 00 00 ................
00406BF0 00 00 00 00 00 00 00 00 00 00 00 00 00 00 00 00 ................
00406C00 00 00 00 00 00 00 00 00 00 00 00 00 00 00 00 00 ................
00406C10 00 00 00 00 00 00 00 00 00 00 00 00 00 00 00 00 ................
00406C20 00 00 00 00 00 00 00 00 00 00 00 00 00 00 00 00 ................
00406C30 00 00 00 00 00 00 00 00 00 00 00 00 00 00 00 00 ................
00406C40 00 00 00 00 00 00 00 00 00 00 00 00 00 00 00 00 ................
00406C50 00 00 00 00 00 00 00 00 00 00 00 00 00 00 00 00 ................
00406C60 00 00 00 00 00 00 00 00 00 00 00 00 00 00 00 00 ................
00406C70 00 00 00 00 00 00 00 00 00 00 00 00 00 00 00 00 ................
00406C80 00 00 00 00 00 00 00 00 00 00 00 00 00 00 00 00 ................
00406C90 00 00 00 00 00 00 00 00 00 00 00 00 00 00 00 00 ................
00406CA0 00 00 00 00 00 00 00 00 00 00 00 00 00 00 00 00 ................
00406CB0 00 00 00 00 00 00 00 00 00 00 00 00 00 00 00 00 ................
00406CC0 00 00 00 00 00 00 00 00 00 00 00 00 00 00 00 00 ................
00406CD0 00 00 00 00 00 00 00 00 00 00 00 00 00 00 00 00 ................
00406CE0 00 00 00 00 00 00 00 00 00 00 00 00 00 00 00 00 ................
00406CF0 00 00 00 00 00 00 00 00 00 00 00 00 00 00 00 00 ................
00406D00 00 00 00 00 00 00 00 00 00 00 00 00 00 00 00 00 ................
00406D10 00 00 00 00 00 00 00 00 00 00 00 00 00 00 00 00 ................
00406D20 00 00 00 00 00 00 00 00 00 00 00 00 00 00 00 00 ................
00406D30 00 00 00 00 00 00 00 00 00 00 00 00 00 00 00 00 ................
00406D40 00 00 00 00 00 00 00 00 00 00 00 00 00 00 00 00 ................
00406D50 00 00 00 00 00 00 00 00 00 00 00 00 00 00 00 00 ................
00406D60 00 00 00 00 00 00 00 00 00 00 00 00 00 00 00 00 ................
00406D70 00 00 00 00 00 00 00 00 00 00 00 00 00 00 00 00 ................
00406D80 00 00 00 00 00 00 00 00 00 00 00 00 00 00 00 00 ................
00406D90 00 00 00 00 00 00 00 00 00 00 00 00 00 00 00 00 ................
00406DA0 00 00 00 00 00 00 00 00 00 00 00 00 00 00 00 00 ................
00406DB0 00 00 00 00 00 00 00 00 00 00 00 00 00 00 00 00 ................
00406DC0 00 00 00 00 00 00 00 00 00 00 00 00 00 00 00 00 ................
00406DD0 00 00 00 00 00 00 00 00 00 00 00 00 00 00 00 00 ................
00406DE0 00 00 00 00 00 00 00 00 00 00 00 00 00 00 00 00 ................
00406DF0 00 00 00 00 00 00 00 00 00 00 00 00 00 00 00 00 ................
00406E00 00 00 00 00 00 00 00 00 00 00 00 00 00 00 00 00 ................
00406E10 00 00 00 00 00 00 00 00 00 00 00 00 00 00 00 00 ................
00406E20 00 00 00 00 00 00 00 00 00 00 00 00 00 00 00 00 ................
00406E30 00 00 00 00 00 00 00 00 00 00 00 00 00 00 00 00 ................
00406E40 00 00 00 00 00 00 00 00 00 00 00 00 00 00 00 00 ................
00406E50 00 00 00 00 00 00 00 00 00 00 00 00 00 00 00 00 ................
00406E60 00 00 00 00 00 00 00 00 00 00 00 00 00 00 00 00 ................
00406E70 00 00 00 00 00 00 00 00 00 00 00 00 00 00 00 00 ................
00406E80 00 00 00 00 00 00 00 00 00 00 00 00 00 00 00 00 ................
00406E90 00 00 00 00 00 00 00 00 00 00 00 00 00 00 00 00 ................
00406EA0 00 00 00 00 00 00 00 00 00 00 00 00 00 00 00 00 ................
00406EB0 00 00 00 00 00 00 00 00 00 00 00 00 00 00 00 00 ................
00406EC0 00 00 00 00 00 00 00 00 00 00 00 00 00 00 00 00 ................
00406ED0 00 00 00 00 00 00 00 00 00 00 00 00 00 00 00 00 ................
00406EE0 00 00 00 00 00 00 00 00 00 00 00 00 00 00 00 00 ................
00406EF0 00 00 00 00 00 00 00 00 00 00 00 00 00 00 00 00 ................
00406F00 00 00 00 00 00 00 00 00 00 00 00 00 00 00 00 00 ................
00406F10 00 00 00 00 00 00 00 00 00 00 00 00 00 00 00 00 ................
00406F20 00 00 00 00 00 00 00 00 00 00 00 00 00 00 00 00 ................
00406F30 00 00 00 00 00 00 00 00 00 00 00 00 00 00 00 00 ................
00406F40 00 00 00 00 00 00 00 00 00 00 00 00 00 00 00 00 ................
00406F50 00 00 00 00 00 00 00 00 00 00 00 00 00 00 00 00 ................
00406F60 00 00 00 00 00 00 00 00 00 00 00 00 00 00 00 00 ................
00406F70 00 00 00 00 00 00 00 00 00 00 00 00 00 00 00 00 ................
00406F80 00 00 00 00 00 00 00 00 00 00 00 00 00 00 00 00 ................
00406F90 00 00 00 00 00 00 00 00 00 00 00 00 00 00 00 00 ................
00406FA0 00 00 00 00 00 00 00 00 00 00 00 00 00 00 00 00 ................
00406FB0 00 00 00 00 00 00 00 00 00 00 00 00 00 00 00 00 ................
00406FC0 00 00 00 00 00 00 00 00 00 00 00 00 00 00 00 00 ................
00406FD0 00 00 00 00 00 00 00 00 00 00 00 00 00 00 00 00 ................
00406FE0 00 00 00 00 00 00 00 00 00 00 00 00 00 00 00 00 ................
00406FF0 00 00 00 00 00 00 00 00 00 00 00 00 00 00 00 00 ................
00407000 00 00 00 00 00 00 00 00 00 00 00 00 00 00 00 00 ................
00407010 00 00 00 00 00 00 00 00 00 00 00 00 00 00 00 00 ................
00407020 00 00 00 00 00 00 00 00 00 00 00 00 00 00 00 00 ................
00407030 00 00 00 00 00 00 00 00 00 00 00 00 00 00 00 00 ................
00407040 00 00 00 00 00 00 00 00 00 00 00 00 00 00 00 00 ................
00407050 00 00 00 00 00 00 00 00 00 00 00 00 00 00 00 00 ................
00407060 00 00 00 00 00 00 00 00 00 00 00 00 00 00 00 00 ................
00407070 00 00 00 00 00 00 00 00 00 00 00 00 00 00 00 00 ................
00407080 00 00 00 00 00 00 00 00 00 00 00 00 00 00 00 00 ................
00407090 00 00 00 00 00 00 00 00 00 00 00 00 00 00 00 00 ................
004070A0 00 00 00 00 00 00 00 00 00 00 00 00 00 00 00 00 ................
004070B0 00 00 00 00 00 00 00 00 00 00 00 00 00 00 00 00 ................
004070C0 00 00 00 00 00 00 00 00 00 00 00 00 00 00 00 00 ................
004070D0 00 00 00 00 00 00 00 00 00 00 00 00 00 00 00 00 ................
004070E0 00 00 00 00 00 00 00 00 00 00 00 00 00 00 00 00 ................
004070F0 00 00 00 00 00 00 00 00 00 00 00 00 00 00 00 00 ................
00407100 00 00 00 00 00 00 00 00 00 00 00 00 00 00 00 00 ................
00407110 00 00 00 00 00 00 00 00 00 00 00 00 00 00 00 00 ................
00407120 00 00 00 00 00 00 00 00 00 00 00 00 00 00 00 00 ................
00407130 00 00 00 00 00 00 00 00 00 00 00 00 00 00 00 00 ................
00407140 00 00 00 00 00 00 00 00 00 00 00 00 00 00 00 00 ................
00407150 00 00 00 00 00 00 00 00 00 00 00 00 00 00 00 00 ................
00407160 00 00 00 00 00 00 00 00 00 00 00 00 00 00 00 00 ................
00407170 00 00 00 00 00 00 00 00 00 00 00 00 00 00 00 00 ................
00407180 00 00 00 00 00 00 00 00 00 00 00 00 00 00 00 00 ................
00407190 00 00 00 00 00 00 00 00 00 00 00 00 00 00 00 00 ................
004071A0 00 00 00 00 00 00 00 00 00 00 00 00 00 00 00 00 ................
004071B0 00 00 00 00 00 00 00 00 00 00 00 00 00 00 00 00 ................
004071C0 00 00 00 00 00 00 00 00 00 00 00 00 00 00 00 00 ................
004071D0 00 00 00 00 00 00 00 00 00 00 00 00 00 00 00 00 ................
004071E0 00 00 00 00 00 00 00 00 00 00 00 00 00 00 00 00 ................
004071F0 00 00 00 00 00 00 00 00 00 00 00 00 00 00 00 00 ................
00407200 00 00 00 00 00 00 00 00 00 00 00 00 00 00 00 00 ................
00407210 00 00 00 00 00 00 00 00 00 00 00 00 00 00 00 00 ................
00407220 00 00 00 00 00 00 00 00 00 00 00 00 00 00 00 00 ................
00407230 00 00 00 00 00 00 00 00 00 00 00 00 00 00 00 00 ................
00407240 00 00 00 00 00 00 00 00 00 00 00 00 00 00 00 00 ................
00407250 00 00 00 00 00 00 00 00 00 00 00 00 00 00 00 00 ................
00407260 00 00 00 00 00 00 00 00 00 00 00 00 00 00 00 00 ................
00407270 00 00 00 00 00 00 00 00 00 00 00 00 00 00 00 00 ................
00407280 00 00 00 00 00 00 00 00 00 00 00 00 00 00 00 00 ................
00407290 00 00 00 00 00 00 00 00 00 00 00 00 00 00 00 00 ................
004072A0 00 00 00 00 00 00 00 00 00 00 00 00 00 00 00 00 ................
004072B0 00 00 00 00 00 00 00 00 00 00 00 00 00 00 00 00 ................
004072C0 00 00 00 00 00 00 00 00 00 00 00 00 00 00 00 00 ................
004072D0 00 00 00 00 00 00 00 00 00 00 00 00 00 00 00 00 ................
004072E0 00 00 00 00 00 00 00 00 00 00 00 00 00 00 00 00 ................
004072F0 00 00 00 00 00 00 00 00 00 00 00 00 00 00 00 00 ................
00407300 00 00 00 00 00 00 00 00 00 00 00 00 00 00 00 00 ................
00407310 00 00 00 00 00 00 00 00 00 00 00 00 00 00 00 00 ................
00407320 00 00 00 00 00 00 00 00 00 00 00 00 00 00 00 00 ................
00407330 00 00 00 00 00 00 00 00 00 00 00 00 00 00 00 00 ................
00407340 00 00 00 00 00 00 00 00 00 00 00 00 00 00 00 00 ................
00407350 00 00 00 00 00 00 00 00 00 00 00 00 00 00 00 00 ................
00407360 00 00 00 00 00 00 00 00 00 00 00 00 00 00 00 00 ................
00407370 00 00 00 00 00 00 00 00 00 00 00 00 00 00 00 00 ................
00407380 00 00 00 00 00 00 00 00 00 00 00 00 00 00 00 00 ................
00407390 00 00 00 00 00 00 00 00 00 00 00 00 00 00 00 00 ................
004073A0 00 00 00 00 00 00 00 00 00 00 00 00 00 00 00 00 ................
004073B0 00 00 00 00 00 00 00 00 00 00 00 00 00 00 00 00 ................
004073C0 00 00 00 00 00 00 00 00 00 00 00 00 00 00 00 00 ................
004073D0 00 00 00 00 00 00 00 00 00 00 00 00 00 00 00 00 ................
004073E0 00 00 00 00 00 00 00 00 00 00 00 00 00 00 00 00 ................
004073F0 00 00 00 00 00 00 00 00 00 00 00 00 00 00 00 00 ................
00407400 00 00 00 00 00 00 00 00 00 00 00 00 00 00 00 00 ................
00407410 00 00 00 00 00 00 00 00 00 00 00 00 00 00 00 00 ................
00407420 00 00 00 00 00 00 00 00 00 00 00 00 00 00 00 00 ................
00407430 00 00 00 00 00 00 00 00 00 00 00 00 00 00 00 00 ................
00407440 00 00 00 00 00 00 00 00 00 00 00 00 00 00 00 00 ................
00407450 00 00 00 00 00 00 00 00 00 00 00 00 00 00 00 00 ................
00407460 00 00 00 00 00 00 00 00 00 00 00 00 00 00 00 00 ................
00407470 00 00 00 00 00 00 00 00 00 00 00 00 00 00 00 00 ................
00407480 00 00 00 00 00 00 00 00 00 00 00 00 00 00 00 00 ................
00407490 00 00 00 00 00 00 00 00 00 00 00 00 00 00 00 00 ................
004074A0 00 00 00 00 00 00 00 00 00 00 00 00 00 00 00 00 ................
004074B0 00 00 00 00 00 00 00 00 00 00 00 00 00 00 00 00 ................
004074C0 00 00 00 00 00 00 00 00 00 00 00 00 00 00 00 00 ................
004074D0 00 00 00 00 00 00 00 00 00 00 00 00 00 00 00 00 ................
004074E0 00 00 00 00 00 00 00 00 00 00 00 00 00 00 00 00 ................
004074F0 00 00 00 00 00 00 00 00 00 00 00 00 00 00 00 00 ................
00407500 00 00 00 00 00 00 00 00 00 00 00 00 00 00 00 00 ................
00407510 00 00 00 00 00 00 00 00 00 00 00 00 00 00 00 00 ................
00407520 00 00 00 00 00 00 00 00 00 00 00 00 00 00 00 00 ................
00407530 00 00 00 00 00 00 00 00 00 00 00 00 00 00 00 00 ................
00407540 00 00 00 00 00 00 00 00 00 00 00 00 00 00 00 00 ................
00407550 00 00 00 00 00 00 00 00 00 00 00 00 00 00 00 00 ................
00407560 00 00 00 00 00 00 00 00 00 00 00 00 00 00 00 00 ................
00407570 00 00 00 00 00 00 00 00 00 00 00 00 00 00 00 00 ................
00407580 00 00 00 00 00 00 00 00 00 00 00 00 00 00 00 00 ................
00407590 00 00 00 00 00 00 00 00 00 00 00 00 00 00 00 00 ................
004075A0 00 00 00 00 00 00 00 00 00 00 00 00 00 00 00 00 ................
004075B0 00 00 00 00 00 00 00 00 00 00 00 00 00 00 00 00 ................
004075C0 00 00 00 00 00 00 00 00 00 00 00 00 00 00 00 00 ................
004075D0 00 00 00 00 00 00 00 00 00 00 00 00 00 00 00 00 ................
004075E0 00 00 00 00 00 00 00 00 00 00 00 00 00 00 00 00 ................
004075F0 00 00 00 00 00 00 00 00 00 00 00 00 00 00 00 00 ................
00407600 00 00 00 00 00 00 00 00 00 00 00 00 00 00 00 00 ................
00407610 00 00 00 00 00 00 00 00 00 00 00 00 00 00 00 00 ................
00407620 00 00 00 00 00 00 00 00 00 00 00 00 00 00 00 00 ................
00407630 00 00 00 00 00 00 00 00 00 00 00 00 00 00 00 00 ................
00407640 00 00 00 00 00 00 00 00 00 00 00 00 00 00 00 00 ................
00407650 00 00 00 00 00 00 00 00 00 00 00 00 00 00 00 00 ................
00407660 00 00 00 00 00 00 00 00 00 00 00 00 00 00 00 00 ................
00407670 00 00 00 00 00 00 00 00 00 00 00 00 00 00 00 00 ................
00407680 00 00 00 00 00 00 00 00 00 00 00 00 00 00 00 00 ................
00407690 00 00 00 00 00 00 00 00 00 00 00 00 00 00 00 00 ................
004076A0 00 00 00 00 00 00 00 00 00 00 00 00 00 00 00 00 ................
004076B0 00 00 00 00 00 00 00 00 00 00 00 00 00 00 00 00 ................
004076C0 00 00 00 00 00 00 00 00 00 00 00 00 00 00 00 00 ................
004076D0 00 00 00 00 00 00 00 00 00 00 00 00 00 00 00 00 ................
004076E0 00 00 00 00 00 00 00 00 00 00 00 00 00 00 00 00 ................
004076F0 00 00 00 00 00 00 00 00 00 00 00 00 00 00 00 00 ................
00407700 00 00 00 00 00 00 00 00 00 00 00 00 00 00 00 00 ................
00407710 00 00 00 00 00 00 00 00 00 00 00 00 00 00 00 00 ................
00407720 00 00 00 00 00 00 00 00 00 00 00 00 00 00 00 00 ................
00407730 00 00 00 00 00 00 00 00 00 00 00 00 00 00 00 00 ................
00407740 00 00 00 00 00 00 00 00 00 00 00 00 00 00 00 00 ................
00407750 00 00 00 00 00 00 00 00 00 00 00 00 00 00 00 00 ................
00407760 00 00 00 00 00 00 00 00 00 00 00 00 00 00 00 00 ................
00407770 00 00 00 00 00 00 00 00 00 00 00 00 00 00 00 00 ................
00407780 00 00 00 00 00 00 00 00 00 00 00 00 00 00 00 00 ................
00407790 00 00 00 00 00 00 00 00 00 00 00 00 00 00 00 00 ................
004077A0 00 00 00 00 00 00 00 00 00 00 00 00 00 00 00 00 ................
004077B0 00 00 00 00 00 00 00 00 00 00 00 00 00 00 00 00 ................
004077C0 00 00 00 00 00 00 00 00 00 00 00 00 00 00 00 00 ................
004077D0 00 00 00 00 00 00 00 00 00 00 00 00 00 00 00 00 ................
004077E0 00 00 00 00 00 00 00 00 00 00 00 00 00 00 00 00 ................
004077F0 00 00 00 00 00 00 00 00 00 00 00 00 00 00 00 00 ................
00407800 00 00 00 00 00 00 00 00 00 00 00 00 00 00 00 00 ................
00407810 00 00 00 00 00 00 00 00 00 00 00 00 00 00 00 00 ................
00407820 00 00 00 00 00 00 00 00 00 00 00 00 00 00 00 00 ................
00407830 00 00 00 00 00 00 00 00 00 00 00 00 00 00 00 00 ................
00407840 00 00 00 00 00 00 00 00 00 00 00 00 00 00 00 00 ................
00407850 00 00 00 00 00 00 00 00 00 00 00 00 00 00 00 00 ................
00407860 00 00 00 00 00 00 00 00 00 00 00 00 00 00 00 00 ................
00407870 00 00 00 00 00 00 00 00 00 00 00 00 00 00 00 00 ................
00407880 00 00 00 00 00 00 00 00 00 00 00 00 00 00 00 00 ................
00407890 00 00 00 00 00 00 00 00 00 00 00 00 00 00 00 00 ................
004078A0 00 00 00 00 00 00 00 00 00 00 00 00 00 00 00 00 ................
004078B0 00 00 00 00 00 00 00 00 00 00 00 00 00 00 00 00 ................
004078C0 00 00 00 00 00 00 00 00 00 00 00 00 00 00 00 00 ................
004078D0 00 00 00 00 00 00 00 00 00 00 00 00 00 00 00 00 ................
004078E0 00 00 00 00 00 00 00 00 00 00 00 00 00 00 00 00 ................
004078F0 00 00 00 00 00 00 00 00 00 00 00 00 00 00 00 00 ................
00407900 00 00 00 00 00 00 00 00 00 00 00 00 00 00 00 00 ................
00407910 00 00 00 00 00 00 00 00 00 00 00 00 00 00 00 00 ................
00407920 00 00 00 00 00 00 00 00 00 00 00 00 00 00 00 00 ................
00407930 00 00 00 00 00 00 00 00 00 00 00 00 00 00 00 00 ................
00407940 00 00 00 00 00 00 00 00 00 00 00 00 00 00 00 00 ................
00407950 00 00 00 00 00 00 00 00 00 00 00 00 00 00 00 00 ................
00407960 00 00 00 00 00 00 00 00 00 00 00 00 00 00 00 00 ................
00407970 00 00 00 00 00 00 00 00 00 00 00 00 00 00 00 00 ................
00407980 00 00 00 00 00 00 00 00 00 00 00 00 00 00 00 00 ................
00407990 00 00 00 00 00 00 00 00 00 00 00 00 00 00 00 00 ................
004079A0 00 00 00 00 00 00 00 00 00 00 00 00 00 00 00 00 ................
004079B0 00 00 00 00 00 00 00 00 00 00 00 00 00 00 00 00 ................
004079C0 00 00 00 00 00 00 00 00 00 00 00 00 00 00 00 00 ................
004079D0 00 00 00 00 00 00 00 00 00 00 00 00 00 00 00 00 ................
004079E0 00 00 00 00 00 00 00 00 00 00 00 00 00 00 00 00 ................
004079F0 00 00 00 00 00 00 00 00 00 00 00 00 00 00 00 00 ................
00407A00 00 00 00 00 00 00 00 00 00 00 00 00 00 00 00 00 ................
00407A10 00 00 00 00 00 00 00 00 00 00 00 00 00 00 00 00 ................
00407A20 00 00 00 00 00 00 00 00 00 00 00 00 00 00 00 00 ................
00407A30 00 00 00 00 00 00 00 00 00 00 00 00 00 00 00 00 ................
00407A40 00 00 00 00 00 00 00 00 00 00 00 00 00 00 00 00 ................
00407A50 00 00 00 00 00 00 00 00 00 00 00 00 00 00 00 00 ................
00407A60 00 00 00 00 00 00 00 00 00 00 00 00 00 00 00 00 ................
00407A70 00 00 00 00 00 00 00 00 00 00 00 00 00 00 00 00 ................
00407A80 00 00 00 00 00 00 00 00 00 00 00 00 00 00 00 00 ................
00407A90 00 00 00 00 00 00 00 00 00 00 00 00 00 00 00 00 ................
00407AA0 00 00 00 00 00 00 00 00 00 00 00 00 00 00 00 00 ................
00407AB0 00 00 00 00 00 00 00 00 00 00 00 00 00 00 00 00 ................
00407AC0 00 00 00 00 00 00 00 00 00 00 00 00 00 00 00 00 ................
00407AD0 00 00 00 00 00 00 00 00 00 00 00 00 00 00 00 00 ................
00407AE0 00 00 00 00 00 00 00 00 00 00 00 00 00 00 00 00 ................
00407AF0 00 00 00 00 00 00 00 00 00 00 00 00 00 00 00 00 ................
00407B00 00 00 00 00 00 00 00 00 00 00 00 00 00 00 00 00 ................
00407B10 00 00 00 00 00 00 00 00 00 00 00 00 00 00 00 00 ................
00407B20 00 00 00 00 00 00 00 00 00 00 00 00 00 00 00 00 ................
00407B30 00 00 00 00 00 00 00 00 00 00 00 00 00 00 00 00 ................
00407B40 00 00 00 00 00 00 00 00 00 00 00 00 00 00 00 00 ................
00407B50 00 00 00 00 00 00 00 00 00 00 00 00 00 00 00 00 ................
00407B60 00 00 00 00 00 00 00 00 00 00 00 00 00 00 00 00 ................
00407B70 00 00 00 00 00 00 00 00 00 00 00 00 00 00 00 00 ................
00407B80 00 00 00 00 00 00 00 00 00 00 00 00 00 00 00 00 ................
00407B90 00 00 00 00 00 00 00 00 00 00 00 00 00 00 00 00 ................
00407BA0 00 00 00 00 00 00 00 00 00 00 00 00 00 00 00 00 ................
00407BB0 00 00 00 00 00 00 00 00 00 00 00 00 00 00 00 00 ................
00407BC0 00 00 00 00 00 00 00 00 00 00 00 00 00 00 00 00 ................
00407BD0 00 00 00 00 00 00 00 00 00 00 00 00 00 00 00 00 ................
00407BE0 00 00 00 00 00 00 00 00 00 00 00 00 00 00 00 00 ................
00407BF0 00 00 00 00 00 00 00 00 00 00 00 00 00 00 00 00 ................
00407C00 00 00 00 00 00 00 00 00 00 00 00 00 00 00 00 00 ................
00407C10 00 00 00 00 00 00 00 00 00 00 00 00 00 00 00 00 ................
00407C20 00 00 00 00 00 00 00 00 00 00 00 00 00 00 00 00 ................
00407C30 00 00 00 00 00 00 00 00 00 00 00 00 00 00 00 00 ................
00407C40 00 00 00 00 00 00 00 00 00 00 00 00 00 00 00 00 ................
00407C50 00 00 00 00 00 00 00 00 00 00 00 00 00 00 00 00 ................
00407C60 00 00 00 00 00 00 00 00 00 00 00 00 00 00 00 00 ................
00407C70 00 00 00 00 00 00 00 00 00 00 00 00 00 00 00 00 ................
00407C80 00 00 00 00 00 00 00 00 00 00 00 00 00 00 00 00 ................
00407C90 00 00 00 00 00 00 00 00 00 00 00 00 00 00 00 00 ................
00407CA0 00 00 00 00 00 00 00 00 00 00 00 00 00 00 00 00 ................
00407CB0 00 00 00 00 00 00 00 00 00 00 00 00 00 00 00 00 ................
00407CC0 00 00 00 00 00 00 00 00 00 00 00 00 00 00 00 00 ................
00407CD0 00 00 00 00 00 00 00 00 00 00 00 00 00 00 00 00 ................
00407CE0 00 00 00 00 00 00 00 00 00 00 00 00 00 00 00 00 ................
00407CF0 00 00 00 00 00 00 00 00 00 00 00 00 00 00 00 00 ................
00407D00 00 00 00 00 00 00 00 00 00 00 00 00 00 00 00 00 ................
00407D10 00 00 00 00 00 00 00 00 00 00 00 00 00 00 00 00 ................
00407D20 00 00 00 00 00 00 00 00 00 00 00 00 00 00 00 00 ................
00407D30 00 00 00 00 00 00 00 00 00 00 00 00 00 00 00 00 ................
00407D40 00 00 00 00 00 00 00 00 00 00 00 00 00 00 00 00 ................
00407D50 00 00 00 00 00 00 00 00 00 00 00 00 00 00 00 00 ................
00407D60 00 00 00 00 00 00 00 00 00 00 00 00 00 00 00 00 ................
00407D70 00 00 00 00 00 00 00 00 00 00 00 00 00 00 00 00 ................
00407D80 00 00 00 00 00 00 00 00 00 00 00 00 00 00 00 00 ................
00407D90 00 00 00 00 00 00 00 00 00 00 00 00 00 00 00 00 ................
00407DA0 00 00 00 00 00 00 00 00 00 00 00 00 00 00 00 00 ................
00407DB0 00 00 00 00 00 00 00 00 00 00 00 00 00 00 00 00 ................
00407DC0 00 00 00 00 00 00 00 00 00 00 00 00 00 00 00 00 ................
00407DD0 00 00 00 00 00 00 00 00 00 00 00 00 00 00 00 00 ................
00407DE0 00 00 00 00 00 00 00 00 00 00 00 00 00 00 00 00 ................
00407DF0 00 00 00 00 00 00 00 00 00 00 00 00 00 00 00 00 ................
00407E00 00 00 00 00 00 00 00 00 00 00 00 00 00 00 00 00 ................
00407E10 00 00 00 00 00 00 00 00 00 00 00 00 00 00 00 00 ................
00407E20 00 00 00 00 00 00 00 00 00 00 00 00 00 00 00 00 ................
00407E30 00 00 00 00 00 00 00 00 00 00 00 00 00 00 00 00 ................
00407E40 00 00 00 00 00 00 00 00 00 00 00 00 00 00 00 00 ................
00407E50 00 00 00 00 00 00 00 00 00 00 00 00 00 00 00 00 ................
00407E60 00 00 00 00 00 00 00 00 00 00 00 00 00 00 00 00 ................
00407E70 00 00 00 00 00 00 00 00 00 00 00 00 00 00 00 00 ................
00407E80 00 00 00 00 00 00 00 00 00 00 00 00 00 00 00 00 ................
00407E90 00 00 00 00 00 00 00 00 00 00 00 00 00 00 00 00 ................
00407EA0 00 00 00 00 00 00 00 00 00 00 00 00 00 00 00 00 ................
00407EB0 00 00 00 00 00 00 00 00 00 00 00 00 00 00 00 00 ................
00407EC0 00 00 00 00 00 00 00 00 00 00 00 00 00 00 00 00 ................
00407ED0 00 00 00 00 00 00 00 00 00 00 00 00 00 00 00 00 ................
00407EE0 00 00 00 00 00 00 00 00 00 00 00 00 00 00 00 00 ................
00407EF0 00 00 00 00 00 00 00 00 00 00 00 00 00 00 00 00 ................
00407F00 00 00 00 00 00 00 00 00 00 00 00 00 00 00 00 00 ................
00407F10 00 00 00 00 00 00 00 00 00 00 00 00 00 00 00 00 ................
00407F20 00 00 00 00 00 00 00 00 00 00 00 00 00 00 00 00 ................
00407F30 00 00 00 00 00 00 00 00 00 00 00 00 00 00 00 00 ................
00407F40 00 00 00 00 00 00 00 00 00 00 00 00 00 00 00 00 ................
00407F50 00 00 00 00 00 00 00 00 00 00 00 00 00 00 00 00 ................
00407F60 00 00 00 00 00 00 00 00 00 00 00 00 00 00 00 00 ................
00407F70 00 00 00 00 00 00 00 00 00 00 00 00 00 00 00 00 ................
00407F80 00 00 00 00 00 00 00 00 00 00 00 00 00 00 00 00 ................
00407F90 00 00 00 00 00 00 00 00 00 00 00 00 00 00 00 00 ................
00407FA0 00 00 00 00 00 00 00 00 00 00 00 00 00 00 00 00 ................
00407FB0 00 00 00 00 00 00 00 00 00 00 00 00 00 00 00 00 ................
00407FC0 00 00 00 00 00 00 00 00 00 00 00 00 00 00 00 00 ................
00407FD0 00 00 00 00 00 00 00 00 00 00 00 00 00 00 00 00 ................
00407FE0 00 00 00 00 00 00 00 00 00 00 00 00 00 00 00 00 ................
00407FF0 00 00 00 00 00 00 00 00 00 00 00 00 00 00 00 00 ................
00408000 00 00 00 00 00 00 00 00 00 00 00 00 00 00 00 00 ................
00408010 00 00 00 00 00 00 00 00 00 00 00 00 00 00 00 00 ................
00408020 00 00 00 00 00 00 00 00 00 00 00 00 00 00 00 00 ................
00408030 00 00 00 00 00 00 00 00 00 00 00 00 00 00 00 00 ................
00408040 00 00 00 00 00 00 00 00 00 00 00 00 00 00 00 00 ................
00408050 00 00 00 00 00 00 00 00 00 00 00 00 00 00 00 00 ................
00408060 00 00 00 00 00 00 00 00 00 00 00 00 00 00 00 00 ................
00408070 00 00 00 00 00 00 00 00 00 00 00 00 00 00 00 00 ................
00408080 00 00 00 00 00 00 00 00 00 00 00 00 00 00 00 00 ................
00408090 00 00 00 00 00 00 00 00 00 00 00 00 00 00 00 00 ................
004080A0 00 00 00 00 00 00 00 00 00 00 00 00 00 00 00 00 ................
004080B0 00 00 00 00 00 00 00 00 00 00 00 00 00 00 00 00 ................
004080C0 00 00 00 00 00 00 00 00 00 00 00 00 00 00 00 00 ................
004080D0 00 00 00 00 00 00 00 00 00 00 00 00 00 00 00 00 ................
004080E0 00 00 00 00 00 00 00 00 00 00 00 00 00 00 00 00 ................
004080F0 00 00 00 00 00 00 00 00 00 00 00 00 00 00 00 00 ................
00408100 00 00 00 00 00 00 00 00 00 00 00 00 00 00 00 00 ................
00408110 00 00 00 00 00 00 00 00 00 00 00 00 00 00 00 00 ................
00408120 00 00 00 00 00 00 00 00 00 00 00 00 00 00 00 00 ................
00408130 00 00 00 00 00 00 00 00 00 00 00 00 00 00 00 00 ................
00408140 00 00 00 00 00 00 00 00 00 00 00 00 00 00 00 00 ................
00408150 00 00 00 00 00 00 00 00 00 00 00 00 00 00 00 00 ................
00408160 00 00 00 00 00 00 00 00 00 00 00 00 00 00 00 00 ................
00408170 00 00 00 00 00 00 00 00 00 00 00 00 00 00 00 00 ................
00408180 00 00 00 00 00 00 00 00 00 00 00 00 00 00 00 00 ................
00408190 00 00 00 00 00 00 00 00 00 00 00 00 00 00 00 00 ................
004081A0 00 00 00 00 00 00 00 00 00 00 00 00 00 00 00 00 ................
004081B0 00 00 00 00 00 00 00 00 00 00 00 00 00 00 00 00 ................
004081C0 00 00 00 00 00 00 00 00 00 00 00 00 00 00 00 00 ................
004081D0 00 00 00 00 00 00 00 00 00 00 00 00 00 00 00 00 ................
004081E0 00 00 00 00 00 00 00 00 00 00 00 00 00 00 00 00 ................
004081F0 00 00 00 00 00 00 00 00 00 00 00 00 00 00 00 00 ................
00408200 00 00 00 00 00 00 00 00 00 00 00 00 00 00 00 00 ................
00408210 00 00 00 00 00 00 00 00 00 00 00 00 00 00 00 00 ................
00408220 00 00 00 00 00 00 00 00 00 00 00 00 00 00 00 00 ................
00408230 00 00 00 00 00 00 00 00 00 00 00 00 00 00 00 00 ................
00408240 00 00 00 00 00 00 00 00 00 00 00 00 00 00 00 00 ................
00408250 00 00 00 00 00 00 00 00 00 00 00 00 00 00 00 00 ................
00408260 00 00 00 00 00 00 00 00 00 00 00 00 00 00 00 00 ................
00408270 00 00 00 00 00 00 00 00 00 00 00 00 00 00 00 00 ................
00408280 00 00 00 00 00 00 00 00 00 00 00 00 00 00 00 00 ................
00408290 00 00 00 00 00 00 00 00 00 00 00 00 00 00 00 00 ................
004082A0 00 00 00 00 00 00 00 00 00 00 00 00 00 00 00 00 ................
004082B0 00 00 00 00 00 00 00 00 00 00 00 00 00 00 00 00 ................
004082C0 00 00 00 00 00 00 00 00 00 00 00 00 00 00 00 00 ................
004082D0 00 00 00 00 00 00 00 00 00 00 00 00 00 00 00 00 ................
004082E0 00 00 00 00 00 00 00 00 00 00 00 00 00 00 00 00 ................
004082F0 00 00 00 00 00 00 00 00 00 00 00 00 00 00 00 00 ................
00408300 00 00 00 00 00 00 00 00 00 00 00 00 00 00 00 00 ................
00408310 00 00 00 00 00 00 00 00 00 00 00 00 00 00 00 00 ................
00408320 00 00 00 00 00 00 00 00 00 00 00 00 00 00 00 00 ................
00408330 00 00 00 00 00 00 00 00 00 00 00 00 00 00 00 00 ................
00408340 00 00 00 00 00 00 00 00 00 00 00 00 00 00 00 00 ................
00408350 00 00 00 00 00 00 00 00 00 00 00 00 00 00 00 00 ................
00408360 00 00 00 00 00 00 00 00 00 00 00 00 00 00 00 00 ................
00408370 00 00 00 00 00 00 00 00 00 00 00 00 00 00 00 00 ................
00408380 00 00 00 00 00 00 00 00 00 00 00 00 00 00 00 00 ................
00408390 00 00 00 00 00 00 00 00 00 00 00 00 00 00 00 00 ................
004083A0 00 00 00 00 00 00 00 00 00 00 00 00 00 00 00 00 ................
004083B0 00 00 00 00 00 00 00 00 00 00 00 00 00 00 00 00 ................
004083C0 00 00 00 00 00 00 00 00 00 00 00 00 00 00 00 00 ................
004083D0 00 00 00 00 00 00 00 00 00 00 00 00 00 00 00 00 ................
004083E0 00 00 00 00 00 00 00 00 00 00 00 00 00 00 00 00 ................
004083F0 00 00 00 00 00 00 00 00 00 00 00 00 00 00 00 00 ................
00408400 00 00 00 00 00 00 00 00 00 00 00 00 00 00 00 00 ................
00408410 00 00 00 00 00 00 00 00 00 00 00 00 00 00 00 00 ................
00408420 00 00 00 00 00 00 00 00 00 00 00 00 00 00 00 00 ................
00408430 00 00 00 00 00 00 00 00 00 00 00 00 00 00 00 00 ................
00408440 00 00 00 00 00 00 00 00 00 00 00 00 00 00 00 00 ................
00408450 00 00 00 00 00 00 00 00 00 00 00 00 00 00 00 00 ................
00408460 00 00 00 00 00 00 00 00 00 00 00 00 00 00 00 00 ................
00408470 00 00 00 00 00 00 00 00 00 00 00 00 00 00 00 00 ................
00408480 00 00 00 00 00 00 00 00 00 00 00 00 00 00 00 00 ................
00408490 00 00 00 00 00 00 00 00 00 00 00 00 00 00 00 00 ................
004084A0 00 00 00 00 00 00 00 00 00 00 00 00 00 00 00 00 ................
004084B0 00 00 00 00 00 00 00 00 00 00 00 00 00 00 00 00 ................
004084C0 00 00 00 00 00 00 00 00 00 00 00 00 00 00 00 00 ................
004084D0 00 00 00 00 00 00 00 00 00 00 00 00 00 00 00 00 ................
004084E0 00 00 00 00 00 00 00 00 00 00 00 00 00 00 00 00 ................
004084F0 00 00 00 00 00 00 00 00 00 00 00 00 00 00 00 00 ................
00408500 00 00 00 00 00 00 00 00 00 00 00 00 00 00 00 00 ................
00408510 00 00 00 00 00 00 00 00 00 00 00 00 00 00 00 00 ................
00408520 00 00 00 00 00 00 00 00 00 00 00 00 00 00 00 00 ................
00408530 00 00 00 00 00 00 00 00 00 00 00 00 00 00 00 00 ................
00408540 00 00 00 00 00 00 00 00 00 00 00 00 00 00 00 00 ................
00408550 00 00 00 00 00 00 00 00 00 00 00 00 00 00 00 00 ................
00408560 00 00 00 00 00 00 00 00 00 00 00 00 00 00 00 00 ................
00408570 00 00 00 00 00 00 00 00 00 00 00 00 00 00 00 00 ................
00408580 00 00 00 00 00 00 00 00 00 00 00 00 00 00 00 00 ................
00408590 00 00 00 00 00 00 00 00 00 00 00 00 00 00 00 00 ................
004085A0 00 00 00 00 00 00 00 00 00 00 00 00 00 00 00 00 ................
004085B0 00 00 00 00 00 00 00 00 00 00 00 00 00 00 00 00 ................
004085C0 00 00 00 00 00 00 00 00 00 00 00 00 00 00 00 00 ................
004085D0 00 00 00 00 00 00 00 00 00 00 00 00 00 00 00 00 ................
004085E0 00 00 00 00 00 00 00 00 00 00 00 00 00 00 00 00 ................
004085F0 00 00 00 00 00 00 00 00 00 00 00 00 00 00 00 00 ................
00408600 00 00 00 00 00 00 00 00 00 00 00 00 00 00 00 00 ................
00408610 00 00 00 00 00 00 00 00 00 00 00 00 00 00 00 00 ................
00408620 00 00 00 00 00 00 00 00 00 00 00 00 00 00 00 00 ................
00408630 00 00 00 00 00 00 00 00 00 00 00 00 00 00 00 00 ................
00408640 00 00 00 00 00 00 00 00 00 00 00 00 00 00 00 00 ................
00408650 00 00 00 00 00 00 00 00 00 00 00 00 00 00 00 00 ................
00408660 00 00 00 00 00 00 00 00 00 00 00 00 00 00 00 00 ................
00408670 00 00 00 00 00 00 00 00 00 00 00 00 00 00 00 00 ................
00408680 00 00 00 00 00 00 00 00 00 00 00 00 00 00 00 00 ................
00408690 00 00 00 00 00 00 00 00 00 00 00 00 00 00 00 00 ................
004086A0 00 00 00 00 00 00 00 00 00 00 00 00 00 00 00 00 ................
004086B0 00 00 00 00 00 00 00 00 00 00 00 00 00 00 00 00 ................
004086C0 00 00 00 00 00 00 00 00 00 00 00 00 00 00 00 00 ................
004086D0 00 00 00 00 00 00 00 00 00 00 00 00 00 00 00 00 ................
004086E0 00 00 00 00 00 00 00 00 00 00 00 00 00 00 00 00 ................
004086F0 00 00 00 00 00 00 00 00 00 00 00 00 00 00 00 00 ................
00408700 00 00 00 00 00 00 00 00 00 00 00 00 00 00 00 00 ................
00408710 00 00 00 00 00 00 00 00 00 00 00 00 00 00 00 00 ................
00408720 00 00 00 00 00 00 00 00 00 00 00 00 00 00 00 00 ................
00408730 00 00 00 00 00 00 00 00 00 00 00 00 00 00 00 00 ................
00408740 00 00 00 00 00 00 00 00 00 00 00 00 00 00 00 00 ................
00408750 00 00 00 00 00 00 00 00 00 00 00 00 00 00 00 00 ................
00408760 00 00 00 00 00 00 00 00 00 00 00 00 00 00 00 00 ................
00408770 00 00 00 00 00 00 00 00 00 00 00 00 00 00 00 00 ................
00408780 00 00 00 00 00 00 00 00 00 00 00 00 00 00 00 00 ................
00408790 00 00 00 00 00 00 00 00 00 00 00 00 00 00 00 00 ................
004087A0 00 00 00 00 00 00 00 00 00 00 00 00 00 00 00 00 ................
004087B0 00 00 00 00 00 00 00 00 00 00 00 00 00 00 00 00 ................
004087C0 00 00 00 00 00 00 00 00 00 00 00 00 00 00 00 00 ................
004087D0 00 00 00 00 00 00 00 00 00 00 00 00 00 00 00 00 ................
004087E0 00 00 00 00 00 00 00 00 00 00 00 00 00 00 00 00 ................
004087F0 00 00 00 00 00 00 00 00 00 00 00 00 00 00 00 00 ................
00408800 00 00 00 00 00 00 00 00 00 00 00 00 00 00 00 00 ................
00408810 00 00 00 00 00 00 00 00 00 00 00 00 00 00 00 00 ................
00408820 00 00 00 00 00 00 00 00 00 00 00 00 00 00 00 00 ................
00408830 00 00 00 00 00 00 00 00 00 00 00 00 00 00 00 00 ................
00408840 00 00 00 00 00 00 00 00 00 00 00 00 00 00 00 00 ................
00408850 00 00 00 00 00 00 00 00 00 00 00 00 00 00 00 00 ................
00408860 00 00 00 00 00 00 00 00 00 00 00 00 00 00 00 00 ................
00408870 00 00 00 00 00 00 00 00 00 00 00 00 00 00 00 00 ................
00408880 00 00 00 00 00 00 00 00 00 00 00 00 00 00 00 00 ................
00408890 00 00 00 00 00 00 00 00 00 00 00 00 00 00 00 00 ................
004088A0 00 00 00 00 00 00 00 00 00 00 00 00 00 00 00 00 ................
004088B0 00 00 00 00 00 00 00 00 00 00 00 00 00 00 00 00 ................
004088C0 00 00 00 00 00 00 00 00 00 00 00 00 00 00 00 00 ................
004088D0 00 00 00 00 00 00 00 00 00 00 00 00 00 00 00 00 ................
004088E0 00 00 00 00 00 00 00 00 00 00 00 00 00 00 00 00 ................
004088F0 00 00 00 00 00 00 00 00 00 00 00 00 00 00 00 00 ................
00408900 00 00 00 00 00 00 00 00 00 00 00 00 00 00 00 00 ................
00408910 00 00 00 00 00 00 00 00 00 00 00 00 00 00 00 00 ................
00408920 00 00 00 00 00 00 00 00 00 00 00 00 00 00 00 00 ................
00408930 00 00 00 00 00 00 00 00 00 00 00 00 00 00 00 00 ................
00408940 00 00 00 00 00 00 00 00 00 00 00 00 00 00 00 00 ................
00408950 00 00 00 00 00 00 00 00 00 00 00 00 00 00 00 00 ................
00408960 00 00 00 00 00 00 00 00 00 00 00 00 00 00 00 00 ................
00408970 00 00 00 00 00 00 00 00 00 00 00 00 00 00 00 00 ................
00408980 00 00 00 00 00 00 00 00 00 00 00 00 00 00 00 00 ................
00408990 00 00 00 00 00 00 00 00 00 00 00 00 00 00 00 00 ................
004089A0 00 00 00 00 00 00 00 00 00 00 00 00 00 00 00 00 ................
004089B0 00 00 00 00 00 00 00 00 00 00 00 00 00 00 00 00 ................
004089C0 00 00 00 00 00 00 00 00 00 00 00 00 00 00 00 00 ................
004089D0 00 00 00 00 00 00 00 00 00 00 00 00 00 00 00 00 ................
004089E0 00 00 00 00 00 00 00 00 00 00 00 00 00 00 00 00 ................
004089F0 00 00 00 00 00 00 00 00 00 00 00 00 00 00 00 00 ................
00408A00 00 00 00 00 00 00 00 00 00 00 00 00 00 00 00 00 ................
00408A10 00 00 00 00 00 00 00 00 00 00 00 00 00 00 00 00 ................
00408A20 00 00 00 00 00 00 00 00 00 00 00 00 00 00 00 00 ................
00408A30 00 00 00 00 00 00 00 00 00 00 00 00 00 00 00 00 ................
00408A40 00 00 00 00 00 00 00 00 00 00 00 00 00 00 00 00 ................
00408A50 00 00 00 00 00 00 00 00 00 00 00 00 00 00 00 00 ................
00408A60 00 00 00 00 00 00 00 00 00 00 00 00 00 00 00 00 ................
00408A70 00 00 00 00 00 00 00 00 00 00 00 00 00 00 00 00 ................
00408A80 00 00 00 00 00 00 00 00 00 00 00 00 00 00 00 00 ................
00408A90 00 00 00 00 00 00 00 00 00 00 00 00 00 00 00 00 ................
00408AA0 00 00 00 00 00 00 00 00 00 00 00 00 00 00 00 00 ................
00408AB0 00 00 00 00 00 00 00 00 00 00 00 00 00 00 00 00 ................
00408AC0 00 00 00 00 00 00 00 00 00 00 00 00 00 00 00 00 ................
00408AD0 00 00 00 00 00 00 00 00 00 00 00 00 00 00 00 00 ................
00408AE0 00 00 00 00 00 00 00 00 00 00 00 00 00 00 00 00 ................
00408AF0 00 00 00 00 00 00 00 00 00 00 00 00 00 00 00 00 ................
00408B00 00 00 00 00 00 00 00 00 00 00 00 00 00 00 00 00 ................
00408B10 00 00 00 00 00 00 00 00 00 00 00 00 00 00 00 00 ................
00408B20 00 00 00 00 00 00 00 00 00 00 00 00 00 00 00 00 ................
00408B30 00 00 00 00 00 00 00 00 00 00 00 00 00 00 00 00 ................
00408B40 00 00 00 00 00 00 00 00 00 00 00 00 00 00 00 00 ................
00408B50 00 00 00 00 00 00 00 00 00 00 00 00 00 00 00 00 ................
00408B60 00 00 00 00 00 00 00 00 00 00 00 00 00 00 00 00 ................
00408B70 00 00 00 00 00 00 00 00 00 00 00 00 00 00 00 00 ................
00408B80 00 00 00 00 00 00 00 00 00 00 00 00 00 00 00 00 ................
00408B90 00 00 00 00 00 00 00 00 00 00 00 00 00 00 00 00 ................
00408BA0 00 00 00 00 00 00 00 00 00 00 00 00 00 00 00 00 ................
00408BB0 00 00 00 00 00 00 00 00 00 00 00 00 00 00 00 00 ................
00408BC0 00 00 00 00 00 00 00 00 00 00 00 00 00 00 00 00 ................
00408BD0 00 00 00 00 00 00 00 00 00 00 00 00 00 00 00 00 ................
00408BE0 00 00 00 00 00 00 00 00 00 00 00 00 00 00 00 00 ................
00408BF0 00 00 00 00 00 00 00 00 00 00 00 00 00 00 00 00 ................
00408C00 00 00 00 00 00 00 00 00 00 00 00 00 00 00 00 00 ................
00408C10 00 00 00 00 00 00 00 00 00 00 00 00 00 00 00 00 ................
00408C20 00 00 00 00 00 00 00 00 00 00 00 00 00 00 00 00 ................
00408C30 00 00 00 00 00 00 00 00 00 00 00 00 00 00 00 00 ................
00408C40 00 00 00 00 00 00 00 00 00 00 00 00 00 00 00 00 ................
00408C50 00 00 00 00 00 00 00 00 00 00 00 00 00 00 00 00 ................
00408C60 00 00 00 00 00 00 00 00 00 00 00 00 00 00 00 00 ................
00408C70 00 00 00 00 00 00 00 00 00 00 00 00 00 00 00 00 ................
00408C80 00 00 00 00 00 00 00 00 00 00 00 00 00 00 00 00 ................
00408C90 00 00 00 00 00 00 00 00 00 00 00 00 00 00 00 00 ................
00408CA0 00 00 00 00 00 00 00 00 00 00 00 00 00 00 00 00 ................
00408CB0 00 00 00 00 00 00 00 00 00 00 00 00 00 00 00 00 ................
00408CC0 00 00 00 00 00 00 00 00 00 00 00 00 00 00 00 00 ................
00408CD0 00 00 00 00 00 00 00 00 00 00 00 00 00 00 00 00 ................
00408CE0 00 00 00 00 00 00 00 00 00 00 00 00 00 00 00 00 ................
00408CF0 00 00 00 00 00 00 00 00 00 00 00 00 00 00 00 00 ................
00408D00 00 00 00 00 00 00 00 00 00 00 00 00 00 00 00 00 ................
00408D10 00 00 00 00 00 00 00 00 00 00 00 00 00 00 00 00 ................
00408D20 00 00 00 00 00 00 00 00 00 00 00 00 00 00 00 00 ................
00408D30 00 00 00 00 00 00 00 00 00 00 00 00 00 00 00 00 ................
00408D40 00 00 00 00 00 00 00 00 00 00 00 00 00 00 00 00 ................
00408D50 00 00 00 00 00 00 00 00 00 00 00 00 00 00 00 00 ................
00408D60 00 00 00 00 00 00 00 00 00 00 00 00 00 00 00 00 ................
00408D70 00 00 00 00 00 00 00 00 00 00 00 00 00 00 00 00 ................
00408D80 00 00 00 00 00 00 00 00 00 00 00 00 00 00 00 00 ................
00408D90 00 00 00 00 00 00 00 00 00 00 00 00 00 00 00 00 ................
00408DA0 00 00 00 00 00 00 00 00 00 00 00 00 00 00 00 00 ................
00408DB0 00 00 00 00 00 00 00 00 00 00 00 00 00 00 00 00 ................
00408DC0 00 00 00 00 00 00 00 00 00 00 00 00 00 00 00 00 ................
00408DD0 00 00 00 00 00 00 00 00 00 00 00 00 00 00 00 00 ................
00408DE0 00 00 00 00 00 00 00 00 00 00 00 00 00 00 00 00 ................
00408DF0 00 00 00 00 00 00 00 00 00 00 00 00 00 00 00 00 ................
00408E00 00 00 00 00 00 00 00 00 00 00 00 00 00 00 00 00 ................
00408E10 00 00 00 00 00 00 00 00 00 00 00 00 00 00 00 00 ................
00408E20 00 00 00 00 00 00 00 00 00 00 00 00 00 00 00 00 ................
00408E30 00 00 00 00 00 00 00 00 00 00 00 00 00 00 00 00 ................
00408E40 00 00 00 00 00 00 00 00 00 00 00 00 00 00 00 00 ................
00408E50 00 00 00 00 00 00 00 00 00 00 00 00 00 00 00 00 ................
00408E60 00 00 00 00 00 00 00 00 00 00 00 00 00 00 00 00 ................
00408E70 00 00 00 00 00 00 00 00 00 00 00 00 00 00 00 00 ................
00408E80 00 00 00 00 00 00 00 00 00 00 00 00 00 00 00 00 ................
00408E90 00 00 00 00 00 00 00 00 00 00 00 00 00 00 00 00 ................
00408EA0 00 00 00 00 00 00 00 00 00 00 00 00 00 00 00 00 ................
00408EB0 00 00 00 00 00 00 00 00 00 00 00 00 00 00 00 00 ................
00408EC0 00 00 00 00 00 00 00 00 00 00 00 00 00 00 00 00 ................
00408ED0 00 00 00 00 00 00 00 00 00 00 00 00 00 00 00 00 ................
00408EE0 00 00 00 00 00 00 00 00 00 00 00 00 00 00 00 00 ................
00408EF0 00 00 00 00 00 00 00 00 00 00 00 00 00 00 00 00 ................
00408F00 00 00 00 00 00 00 00 00 00 00 00 00 00 00 00 00 ................
00408F10 00 00 00 00 00 00 00 00 00 00 00 00 00 00 00 00 ................
00408F20 00 00 00 00 00 00 00 00 00 00 00 00 00 00 00 00 ................
00408F30 00 00 00 00 00 00 00 00 00 00 00 00 00 00 00 00 ................
00408F40 00 00 00 00 00 00 00 00 00 00 00 00 00 00 00 00 ................
00408F50 00 00 00 00 00 00 00 00 00 00 00 00 00 00 00 00 ................
00408F60 00 00 00 00 00 00 00 00 00 00 00 00 00 00 00 00 ................
00408F70 00 00 00 00 00 00 00 00 00 00 00 00 00 00 00 00 ................
00408F80 00 00 00 00 00 00 00 00 00 00 00 00 00 00 00 00 ................
00408F90 00 00 00 00 00 00 00 00 00 00 00 00 00 00 00 00 ................
00408FA0 00 00 00 00 00 00 00 00 00 00 00 00 00 00 00 00 ................
00408FB0 00 00 00 00 00 00 00 00 00 00 00 00 00 00 00 00 ................
00408FC0 00 00 00 00 00 00 00 00 00 00 00 00 00 00 00 00 ................
00408FD0 00 00 00 00 00 00 00 00 00 00 00 00 00 00 00 00 ................
00408FE0 00 00 00 00 00 00 00 00 00 00 00 00 00 00 00 00 ................
00408FF0 00 00 00 00 00 00 00 00 00 00 00 00 00 00 00 00 ................
00409000 00 00 00 00 00 00 00 00 00 00 00 00 00 00 00 00 ................
00409010 00 00 00 00 00 00 00 00 00 00 00 00 00 00 00 00 ................
00409020 00 00 00 00 00 00 00 00 00 00 00 00 00 00 00 00 ................
00409030 00 00 00 00 00 00 00 00 00 00 00 00 00 00 00 00 ................
00409040 00 00 00 00 00 00 00 00 00 00 00 00 00 00 00 00 ................
00409050 00 00 00 00 00 00 00 00 00 00 00 00 00 00 00 00 ................
00409060 00 00 00 00 00 00 00 00 00 00 00 00 00 00 00 00 ................
00409070 00 00 00 00 00 00 00 00 00 00 00 00 00 00 00 00 ................
00409080 00 00 00 00 00 00 00 00 00 00 00 00 00 00 00 00 ................
00409090 00 00 00 00 00 00 00 00 00 00 00 00 00 00 00 00 ................
004090A0 00 00 00 00 00 00 00 00 00 00 00 00 00 00 00 00 ................
004090B0 00 00 00 00 00 00 00 00 00 00 00 00 00 00 00 00 ................
004090C0 00 00 00 00 00 00 00 00 00 00 00 00 00 00 00 00 ................
004090D0 00 00 00 00 00 00 00 00 00 00 00 00 00 00 00 00 ................
004090E0 00 00 00 00 00 00 00 00 00 00 00 00 00 00 00 00 ................
004090F0 00 00 00 00 00 00 00 00 00 00 00 00 00 00 00 00 ................
00409100 00 00 00 00 00 00 00 00 00 00 00 00 00 00 00 00 ................
00409110 00 00 00 00 00 00 00 00 00 00 00 00 00 00 00 00 ................
00409120 00 00 00 00 00 00 00 00 00 00 00 00 00 00 00 00 ................
00409130 00 00 00 00 00 00 00 00 00 00 00 00 00 00 00 00 ................
00409140 00 00 00 00 00 00 00 00 00 00 00 00 00 00 00 00 ................
00409150 00 00 00 00 00 00 00 00 00 00 00 00 00 00 00 00 ................
00409160 00 00 00 00 00 00 00 00 00 00 00 00 00 00 00 00 ................
00409170 00 00 00 00 00 00 00 00 00 00 00 00 00 00 00 00 ................
00409180 00 00 00 00 00 00 00 00 00 00 00 00 00 00 00 00 ................
00409190 00 00 00 00 00 00 00 00 00 00 00 00 00 00 00 00 ................
004091A0 00 00 00 00 00 00 00 00 00 00 00 00 00 00 00 00 ................
004091B0 00 00 00 00 00 00 00 00 00 00 00 00 00 00 00 00 ................
004091C0 00 00 00 00 00 00 00 00 00 00 00 00 00 00 00 00 ................
004091D0 00 00 00 00 00 00 00 00 00 00 00 00 00 00 00 00 ................
004091E0 00 00 00 00 00 00 00 00 00 00 00 00 00 00 00 00 ................
004091F0 00 00 00 00 00 00 00 00 00 00 00 00 00 00 00 00 ................
00409200 00 00 00 00 00 00 00 00 00 00 00 00 00 00 00 00 ................
00409210 00 00 00 00 00 00 00 00 00 00 00 00 00 00 00 00 ................
00409220 00 00 00 00 00 00 00 00 00 00 00 00 00 00 00 00 ................
00409230 00 00 00 00 00 00 00 00 00 00 00 00 00 00 00 00 ................
00409240 00 00 00 00 00 00 00 00 00 00 00 00 00 00 00 00 ................
00409250 00 00 00 00 00 00 00 00 00 00 00 00 00 00 00 00 ................
00409260 00 00 00 00 00 00 00 00 00 00 00 00 00 00 00 00 ................
00409270 00 00 00 00 00 00 00 00 00 00 00 00 00 00 00 00 ................
00409280 00 00 00 00 00 00 00 00 00 00 00 00 00 00 00 00 ................
00409290 00 00 00 00 00 00 00 00 00 00 00 00 00 00 00 00 ................
004092A0 00 00 00 00 00 00 00 00 00 00 00 00 00 00 00 00 ................
004092B0 00 00 00 00 00 00 00 00 00 00 00 00 00 00 00 00 ................
004092C0 00 00 00 00 00 00 00 00 00 00 00 00 00 00 00 00 ................
004092D0 00 00 00 00 00 00 00 00 00 00 00 00 00 00 00 00 ................
004092E0 00 00 00 00 00 00 00 00 00 00 00 00 00 00 00 00 ................
004092F0 00 00 00 00 00 00 00 00 00 00 00 00 00 00 00 00 ................
00409300 00 00 00 00 00 00 00 00 00 00 00 00 00 00 00 00 ................
00409310 00 00 00 00 00 00 00 00 00 00 00 00 00 00 00 00 ................
00409320 00 00 00 00 00 00 00 00 00 00 00 00 00 00 00 00 ................
00409330 00 00 00 00 00 00 00 00 00 00 00 00 00 00 00 00 ................
00409340 00 00 00 00 00 00 00 00 00 00 00 00 00 00 00 00 ................
00409350 00 00 00 00 00 00 00 00 00 00 00 00 00 00 00 00 ................
00409360 00 00 00 00 00 00 00 00 00 00 00 00 00 00 00 00 ................
00409370 00 00 00 00 00 00 00 00 00 00 00 00 00 00 00 00 ................
00409380 00 00 00 00 00 00 00 00 00 00 00 00 00 00 00 00 ................
00409390 00 00 00 00 00 00 00 00 00 00 00 00 00 00 00 00 ................
004093A0 00 00 00 00 00 00 00 00 00 00 00 00 00 00 00 00 ................
004093B0 00 00 00 00 00 00 00 00 00 00 00 00 00 00 00 00 ................
004093C0 00 00 00 00 00 00 00 00 00 00 00 00 00 00 00 00 ................
004093D0 00 00 00 00 00 00 00 00 00 00 00 00 00 00 00 00 ................
004093E0 00 00 00 00 00 00 00 00 00 00 00 00 00 00 00 00 ................
004093F0 00 00 00 00 00 00 00 00 00 00 00 00 00 00 00 00 ................
00409400 00 00 00 00 00 00 00 00 00 00 00 00 00 00 00 00 ................
00409410 00 00 00 00 00 00 00 00 00 00 00 00 00 00 00 00 ................
00409420 00 00 00 00 00 00 00 00 00 00 00 00 00 00 00 00 ................
00409430 00 00 00 00 00 00 00 00 00 00 00 00 00 00 00 00 ................
00409440 00 00 00 00 00 00 00 00 00 00 00 00 00 00 00 00 ................
00409450 00 00 00 00 00 00 00 00 00 00 00 00 00 00 00 00 ................
00409460 00 00 00 00 00 00 00 00 00 00 00 00 00 00 00 00 ................
00409470 00 00 00 00 00 00 00 00 00 00 00 00 00 00 00 00 ................
00409480 00 00 00 00 00 00 00 00 00 00 00 00 00 00 00 00 ................
00409490 00 00 00 00 00 00 00 00 00 00 00 00 00 00 00 00 ................
004094A0 00 00 00 00 00 00 00 00 00 00 00 00 00 00 00 00 ................
004094B0 00 00 00 00 00 00 00 00 00 00 00 00 00 00 00 00 ................
004094C0 00 00 00 00 00 00 00 00 00 00 00 00 00 00 00 00 ................
004094D0 00 00 00 00 00 00 00 00 00 00 00 00 00 00 00 00 ................
004094E0 00 00 00 00 00 00 00 00 00 00 00 00 00 00 00 00 ................
004094F0 00 00 00 00 00 00 00 00 00 00 00 00 00 00 00 00 ................
00409500 00 00 00 00 00 00 00 00 00 00 00 00 00 00 00 00 ................
00409510 00 00 00 00 00 00 00 00 00 00 00 00 00 00 00 00 ................
00409520 00 00 00 00 00 00 00 00 00 00 00 00 00 00 00 00 ................
00409530 00 00 00 00 00 00 00 00 00 00 00 00 00 00 00 00 ................
00409540 00 00 00 00 00 00 00 00 00 00 00 00 00 00 00 00 ................
00409550 00 00 00 00 00 00 00 00 00 00 00 00 00 00 00 00 ................
00409560 00 00 00 00 00 00 00 00 00 00 00 00 00 00 00 00 ................
00409570 00 00 00 00 00 00 00 00 00 00 00 00 00 00 00 00 ................
00409580 00 00 00 00 00 00 00 00 00 00 00 00 00 00 00 00 ................
00409590 00 00 00 00 00 00 00 00 00 00 00 00 00 00 00 00 ................
004095A0 00 00 00 00 00 00 00 00 00 00 00 00 00 00 00 00 ................
004095B0 00 00 00 00 00 00 00 00 00 00 00 00 00 00 00 00 ................
004095C0 00 00 00 00 00 00 00 00 00 00 00 00 00 00 00 00 ................
004095D0 00 00 00 00 00 00 00 00 00 00 00 00 00 00 00 00 ................
004095E0 00 00 00 00 00 00 00 00 00 00 00 00 00 00 00 00 ................
004095F0 00 00 00 00 00 00 00 00 00 00 00 00 00 00 00 00 ................
00409600 00 00 00 00 00 00 00 00 00 00 00 00 00 00 00 00 ................
00409610 00 00 00 00 00 00 00 00 00 00 00 00 00 00 00 00 ................
00409620 00 00 00 00 00 00 00 00 00 00 00 00 00 00 00 00 ................
00409630 00 00 00 00 00 00 00 00 00 00 00 00 00 00 00 00 ................
00409640 00 00 00 00 00 00 00 00 00 00 00 00 00 00 00 00 ................
00409650 00 00 00 00 00 00 00 00 00 00 00 00 00 00 00 00 ................
00409660 00 00 00 00 00 00 00 00 00 00 00 00 00 00 00 00 ................
00409670 00 00 00 00 00 00 00 00 00 00 00 00 00 00 00 00 ................
00409680 00 00 00 00 00 00 00 00 00 00 00 00 00 00 00 00 ................
00409690 00 00 00 00 00 00 00 00 00 00 00 00 00 00 00 00 ................
004096A0 00 00 00 00 00 00 00 00 00 00 00 00 00 00 00 00 ................
004096B0 00 00 00 00 00 00 00 00 00 00 00 00 00 00 00 00 ................
004096C0 00 00 00 00 00 00 00 00 00 00 00 00 00 00 00 00 ................
004096D0 00 00 00 00 00 00 00 00 00 00 00 00 00 00 00 00 ................
004096E0 00 00 00 00 00 00 00 00 00 00 00 00 00 00 00 00 ................
004096F0 00 00 00 00 00 00 00 00 00 00 00 00 00 00 00 00 ................
00409700 00 00 00 00 00 00 00 00 00 00 00 00 00 00 00 00 ................
00409710 00 00 00 00 00 00 00 00 00 00 00 00 00 00 00 00 ................
00409720 00 00 00 00 00 00 00 00 00 00 00 00 00 00 00 00 ................
00409730 00 00 00 00 00 00 00 00 00 00 00 00 00 00 00 00 ................
00409740 00 00 00 00 00 00 00 00 00 00 00 00 00 00 00 00 ................
00409750 00 00 00 00 00 00 00 00 00 00 00 00 00 00 00 00 ................
00409760 00 00 00 00 00 00 00 00 00 00 00 00 00 00 00 00 ................
00409770 00 00 00 00 00 00 00 00 00 00 00 00 00 00 00 00 ................
00409780 00 00 00 00 00 00 00 00 00 00 00 00 00 00 00 00 ................
00409790 00 00 00 00 00 00 00 00 00 00 00 00 00 00 00 00 ................
004097A0 00 00 00 00 00 00 00 00 00 00 00 00 00 00 00 00 ................
004097B0 00 00 00 00 00 00 00 00 00 00 00 00 00 00 00 00 ................
004097C0 00 00 00 00 00 00 00 00 00 00 00 00 00 00 00 00 ................
004097D0 00 00 00 00 00 00 00 00 00 00 00 00 00 00 00 00 ................
004097E0 00 00 00 00 00 00 00 00 00 00 00 00 00 00 00 00 ................
004097F0 00 00 00 00 00 00 00 00 00 00 00 00 00 00 00 00 ................
00409800 00 00 00 00 00 00 00 00 00 00 00 00 00 00 00 00 ................
00409810 00 00 00 00 00 00 00 00 00 00 00 00 00 00 00 00 ................
00409820 00 00 00 00 00 00 00 00 00 00 00 00 00 00 00 00 ................
00409830 00 00 00 00 00 00 00 00 00 00 00 00 00 00 00 00 ................
00409840 00 00 00 00 00 00 00 00 00 00 00 00 00 00 00 00 ................
00409850 00 00 00 00 00 00 00 00 00 00 00 00 00 00 00 00 ................
00409860 00 00 00 00 00 00 00 00 00 00 00 00 00 00 00 00 ................
00409870 00 00 00 00 00 00 00 00 00 00 00 00 00 00 00 00 ................
00409880 00 00 00 00 00 00 00 00 00 00 00 00 00 00 00 00 ................
00409890 00 00 00 00 00 00 00 00 00 00 00 00 00 00 00 00 ................
004098A0 00 00 00 00 00 00 00 00 00 00 00 00 00 00 00 00 ................
004098B0 00 00 00 00 00 00 00 00 00 00 00 00 00 00 00 00 ................
004098C0 00 00 00 00 00 00 00 00 00 00 00 00 00 00 00 00 ................
004098D0 00 00 00 00 00 00 00 00 00 00 00 00 00 00 00 00 ................
004098E0 00 00 00 00 00 00 00 00 00 00 00 00 00 00 00 00 ................
004098F0 00 00 00 00 00 00 00 00 00 00 00 00 00 00 00 00 ................
00409900 00 00 00 00 00 00 00 00 00 00 00 00 00 00 00 00 ................
00409910 00 00 00 00 00 00 00 00 00 00 00 00 00 00 00 00 ................
00409920 00 00 00 00 00 00 00 00 00 00 00 00 00 00 00 00 ................
00409930 00 00 00 00 00 00 00 00 00 00 00 00 00 00 00 00 ................
00409940 00 00 00 00 00 00 00 00 00 00 00 00 00 00 00 00 ................
00409950 00 00 00 00 00 00 00 00 00 00 00 00 00 00 00 00 ................
00409960 00 00 00 00 00 00 00 00 00 00 00 00 00 00 00 00 ................
00409970 00 00 00 00 00 00 00 00 00 00 00 00 00 00 00 00 ................
00409980 00 00 00 00 00 00 00 00 00 00 00 00 00 00 00 00 ................
00409990 00 00 00 00 00 00 00 00 00 00 00 00 00 00 00 00 ................
004099A0 00 00 00 00 00 00 00 00 00 00 00 00 00 00 00 00 ................
004099B0 00 00 00 00 00 00 00 00 00 00 00 00 00 00 00 00 ................
004099C0 00 00 00 00 00 00 00 00 00 00 00 00 00 00 00 00 ................
004099D0 00 00 00 00 00 00 00 00 00 00 00 00 00 00 00 00 ................
004099E0 00 00 00 00 00 00 00 00 00 00 00 00 00 00 00 00 ................
004099F0 00 00 00 00 00 00 00 00 00 00 00 00 00 00 00 00 ................
00409A00 00 00 00 00 00 00 00 00 00 00 00 00 00 00 00 00 ................
00409A10 00 00 00 00 00 00 00 00 00 00 00 00 00 00 00 00 ................
00409A20 00 00 00 00 00 00 00 00 00 00 00 00 00 00 00 00 ................
00409A30 00 00 00 00 00 00 00 00 00 00 00 00 00 00 00 00 ................
00409A40 00 00 00 00 00 00 00 00 00 00 00 00 00 00 00 00 ................
00409A50 00 00 00 00 00 00 00 00 00 00 00 00 00 00 00 00 ................
00409A60 00 00 00 00 00 00 00 00 00 00 00 00 00 00 00 00 ................
00409A70 00 00 00 00 00 00 00 00 00 00 00 00 00 00 00 00 ................
00409A80 00 00 00 00 00 00 00 00 00 00 00 00 00 00 00 00 ................
00409A90 00 00 00 00 00 00 00 00 00 00 00 00 00 00 00 00 ................
00409AA0 00 00 00 00 00 00 00 00 00 00 00 00 00 00 00 00 ................
00409AB0 00 00 00 00 00 00 00 00 00 00 00 00 00 00 00 00 ................
00409AC0 00 00 00 00 00 00 00 00 00 00 00 00 00 00 00 00 ................
00409AD0 00 00 00 00 00 00 00 00 00 00 00 00 00 00 00 00 ................
00409AE0 00 00 00 00 00 00 00 00 00 00 00 00 00 00 00 00 ................
00409AF0 00 00 00 00 00 00 00 00 00 00 00 00 00 00 00 00 ................
00409B00 00 00 00 00 00 00 00 00 00 00 00 00 00 00 00 00 ................
00409B10 00 00 00 00 00 00 00 00 00 00 00 00 00 00 00 00 ................
00409B20 00 00 00 00 00 00 00 00 00 00 00 00 00 00 00 00 ................
00409B30 00 00 00 00 00 00 00 00 00 00 00 00 00 00 00 00 ................
00409B40 00 00 00 00 00 00 00 00 00 00 00 00 00 00 00 00 ................
00409B50 00 00 00 00 00 00 00 00 00 00 00 00 00 00 00 00 ................
00409B60 00 00 00 00 00 00 00 00 00 00 00 00 00 00 00 00 ................
00409B70 00 00 00 00 00 00 00 00 00 00 00 00 00 00 00 00 ................
00409B80 00 00 00 00 00 00 00 00 00 00 00 00 00 00 00 00 ................
00409B90 00 00 00 00 00 00 00 00 00 00 00 00 00 00 00 00 ................
00409BA0 00 00 00 00 00 00 00 00 00 00 00 00 00 00 00 00 ................
00409BB0 00 00 00 00 00 00 00 00 00 00 00 00 00 00 00 00 ................
00409BC0 00 00 00 00 00 00 00 00 00 00 00 00 00 00 00 00 ................
00409BD0 00 00 00 00 00 00 00 00 00 00 00 00 00 00 00 00 ................
00409BE0 00 00 00 00 00 00 00 00 00 00 00 00 00 00 00 00 ................
00409BF0 00 00 00 00 00 00 00 00 00 00 00 00 00 00 00 00 ................
00409C00 00 00 00 00 00 00 00 00 00 00 00 00 00 00 00 00 ................
00409C10 00 00 00 00 00 00 00 00 00 00 00 00 00 00 00 00 ................
00409C20 00 00 00 00 00 00 00 00 00 00 00 00 00 00 00 00 ................
00409C30 00 00 00 00 00 00 00 00 00 00 00 00 00 00 00 00 ................
00409C40 00 00 00 00 00 00 00 00 00 00 00 00 00 00 00 00 ................
00409C50 00 00 00 00 00 00 00 00 00 00 00 00 00 00 00 00 ................
00409C60 00 00 00 00 00 00 00 00 00 00 00 00 00 00 00 00 ................
00409C70 00 00 00 00 00 00 00 00 00 00 00 00 00 00 00 00 ................
00409C80 00 00 00 00 00 00 00 00 00 00 00 00 00 00 00 00 ................
00409C90 00 00 00 00 00 00 00 00 00 00 00 00 00 00 00 00 ................
00409CA0 00 00 00 00 00 00 00 00 00 00 00 00 00 00 00 00 ................
00409CB0 00 00 00 00 00 00 00 00 00 00 00 00 00 00 00 00 ................
00409CC0 00 00 00 00 00 00 00 00 00 00 00 00 00 00 00 00 ................
00409CD0 00 00 00 00 00 00 00 00 00 00 00 00 00 00 00 00 ................
00409CE0 00 00 00 00 00 00 00 00 00 00 00 00 00 00 00 00 ................
00409CF0 00 00 00 00 00 00 00 00 00 00 00 00 00 00 00 00 ................
00409D00 00 00 00 00 00 00 00 00 00 00 00 00 00 00 00 00 ................
00409D10 00 00 00 00 00 00 00 00 00 00 00 00 00 00 00 00 ................
00409D20 00 00 00 00 00 00 00 00 00 00 00 00 00 00 00 00 ................
00409D30 00 00 00 00 00 00 00 00 00 00 00 00 00 00 00 00 ................
00409D40 00 00 00 00 00 00 00 00 00 00 00 00 00 00 00 00 ................
00409D50 00 00 00 00 00 00 00 00 00 00 00 00 00 00 00 00 ................
00409D60 00 00 00 00 00 00 00 00 00 00 00 00 00 00 00 00 ................
00409D70 00 00 00 00 00 00 00 00 00 00 00 00 00 00 00 00 ................
00409D80 00 00 00 00 00 00 00 00 00 00 00 00 00 00 00 00 ................
00409D90 00 00 00 00 00 00 00 00 00 00 00 00 00 00 00 00 ................
00409DA0 00 00 00 00 00 00 00 00 00 00 00 00 00 00 00 00 ................
00409DB0 00 00 00 00 00 00 00 00 00 00 00 00 00 00 00 00 ................
00409DC0 00 00 00 00 00 00 00 00 00 00 00 00 00 00 00 00 ................
00409DD0 00 00 00 00 00 00 00 00 00 00 00 00 00 00 00 00 ................
00409DE0 00 00 00 00 00 00 00 00 00 00 00 00 00 00 00 00 ................
00409DF0 00 00 00 00 00 00 00 00 00 00 00 00 00 00 00 00 ................
00409E00 00 00 00 00 00 00 00 00 00 00 00 00 00 00 00 00 ................
00409E10 00 00 00 00 00 00 00 00 00 00 00 00 00 00 00 00 ................
00409E20 00 00 00 00 00 00 00 00 00 00 00 00 00 00 00 00 ................
00409E30 00 00 00 00 00 00 00 00 00 00 00 00 00 00 00 00 ................
00409E40 00 00 00 00 00 00 00 00 00 00 00 00 00 00 00 00 ................
00409E50 00 00 00 00 00 00 00 00 00 00 00 00 00 00 00 00 ................
00409E60 00 00 00 00 00 00 00 00 00 00 00 00 00 00 00 00 ................
00409E70 00 00 00 00 00 00 00 00 00 00 00 00 00 00 00 00 ................
00409E80 00 00 00 00 00 00 00 00 00 00 00 00 00 00 00 00 ................
00409E90 00 00 00 00 00 00 00 00 00 00 00 00 00 00 00 00 ................
00409EA0 00 00 00 00 00 00 00 00 00 00 00 00 00 00 00 00 ................
00409EB0 00 00 00 00 00 00 00 00 00 00 00 00 00 00 00 00 ................
00409EC0 00 00 00 00 00 00 00 00 00 00 00 00 00 00 00 00 ................
00409ED0 00 00 00 00 00 00 00 00 00 00 00 00 00 00 00 00 ................
00409EE0 00 00 00 00 00 00 00 00 00 00 00 00 00 00 00 00 ................
00409EF0 00 00 00 00 00 00 00 00 00 00 00 00 00 00 00 00 ................
00409F00 00 00 00 00 00 00 00 00 00 00 00 00 00 00 00 00 ................
00409F10 00 00 00 00 00 00 00 00 00 00 00 00 00 00 00 00 ................
00409F20 00 00 00 00 00 00 00 00 00 00 00 00 00 00 00 00 ................
00409F30 00 00 00 00 00 00 00 00 00 00 00 00 00 00 00 00 ................
00409F40 00 00 00 00 00 00 00 00 00 00 00 00 00 00 00 00 ................
00409F50 00 00 00 00 00 00 00 00 00 00 00 00 00 00 00 00 ................
00409F60 00 00 00 00 00 00 00 00 00 00 00 00 00 00 00 00 ................
00409F70 00 00 00 00 00 00 00 00 00 00 00 00 00 00 00 00 ................
00409F80 00 00 00 00 00 00 00 00 00 00 00 00 00 00 00 00 ................
00409F90 00 00 00 00 00 00 00 00 00 00 00 00 00 00 00 00 ................
00409FA0 00 00 00 00 00 00 00 00 00 00 00 00 00 00 00 00 ................
00409FB0 00 00 00 00 00 00 00 00 00 00 00 00 00 00 00 00 ................
00409FC0 00 00 00 00 00 00 00 00 00 00 00 00 00 00 00 00 ................
00409FD0 00 00 00 00 00 00 00 00 00 00 00 00 00 00 00 00 ................
00409FE0 00 00 00 00 00 00 00 00 00 00 00 00 00 00 00 00 ................
00409FF0 00 00 00 00 00 00 00 00 00 00 00 00 00 00 00 00 ................
0040A000 00 00 00 00 00 00 00 00 00 00 00 00 00 00 00 00 ................
0040A010 00 00 00 00 00 00 00 00 00 00 00 00 00 00 00 00 ................
0040A020 00 00 00 00 00 00 00 00 00 00 00 00 00 00 00 00 ................
0040A030 00 00 00 00 00 00 00 00 00 00 00 00 00 00 00 00 ................
0040A040 00 00 00 00 00 00 00 00 00 00 00 00 00 00 00 00 ................
0040A050 00 00 00 00 00 00 00 00 00 00 00 00 00 00 00 00 ................
0040A060 00 00 00 00 00 00 00 00 00 00 00 00 00 00 00 00 ................
0040A070 00 00 00 00 00 00 00 00 00 00 00 00 00 00 00 00 ................
0040A080 00 00 00 00 00 00 00 00 00 00 00 00 00 00 00 00 ................
0040A090 00 00 00 00 00 00 00 00 00 00 00 00 00 00 00 00 ................
0040A0A0 00 00 00 00 00 00 00 00 00 00 00 00 00 00 00 00 ................
0040A0B0 00 00 00 00 00 00 00 00 00 00 00 00 00 00 00 00 ................
0040A0C0 00 00 00 00 00 00 00 00 00 00 00 00 00 00 00 00 ................
0040A0D0 00 00 00 00 00 00 00 00 00 00 00 00 00 00 00 00 ................
0040A0E0 00 00 00 00 00 00 00 00 00 00 00 00 00 00 00 00 ................
0040A0F0 00 00 00 00 00 00 00 00 00 00 00 00 00 00 00 00 ................
0040A100 00 00 00 00 00 00 00 00 00 00 00 00 00 00 00 00 ................
0040A110 00 00 00 00 00 00 00 00 00 00 00 00 00 00 00 00 ................
0040A120 00 00 00 00 00 00 00 00 00 00 00 00 00 00 00 00 ................
0040A130 00 00 00 00 00 00 00 00 00 00 00 00 00 00 00 00 ................
0040A140 00 00 00 00 00 00 00 00 00 00 00 00 00 00 00 00 ................
0040A150 00 00 00 00 00 00 00 00 00 00 00 00 00 00 00 00 ................
0040A160 00 00 00 00 00 00 00 00 00 00 00 00 00 00 00 00 ................
0040A170 00 00 00 00 00 00 00 00 00 00 00 00 00 00 00 00 ................
0040A180 00 00 00 00 00 00 00 00 00 00 00 00 00 00 00 00 ................
0040A190 00 00 00 00 00 00 00 00 00 00 00 00 00 00 00 00 ................
0040A1A0 00 00 00 00 00 00 00 00 00 00 00 00 00 00 00 00 ................
0040A1B0 00 00 00 00 00 00 00 00 00 00 00 00 00 00 00 00 ................
0040A1C0 00 00 00 00 00 00 00 00 00 00 00 00 00 00 00 00 ................
0040A1D0 00 00 00 00 00 00 00 00 00 00 00 00 00 00 00 00 ................
0040A1E0 00 00 00 00 00 00 00 00 00 00 00 00 00 00 00 00 ................
0040A1F0 00 00 00 00 00 00 00 00 00 00 00 00 00 00 00 00 ................
0040A200 00 00 00 00 00 00 00 00 00 00 00 00 00 00 00 00 ................
0040A210 00 00 00 00 00 00 00 00 00 00 00 00 00 00 00 00 ................
0040A220 00 00 00 00 00 00 00 00 00 00 00 00 00 00 00 00 ................
0040A230 00 00 00 00 00 00 00 00 00 00 00 00 00 00 00 00 ................
0040A240 00 00 00 00 00 00 00 00 00 00 00 00 00 00 00 00 ................
0040A250 00 00 00 00 00 00 00 00 00 00 00 00 00 00 00 00 ................
0040A260 00 00 00 00 00 00 00 00 00 00 00 00 00 00 00 00 ................
0040A270 00 00 00 00 00 00 00 00 00 00 00 00 00 00 00 00 ................
0040A280 00 00 00 00 00 00 00 00 00 00 00 00 00 00 00 00 ................
0040A290 00 00 00 00 00 00 00 00 00 00 00 00 00 00 00 00 ................
0040A2A0 00 00 00 00 00 00 00 00 00 00 00 00 00 00 00 00 ................
0040A2B0 00 00 00 00 00 00 00 00 00 00 00 00 00 00 00 00 ................
0040A2C0 00 00 00 00 00 00 00 00 00 00 00 00 00 00 00 00 ................
0040A2D0 00 00 00 00 00 00 00 00 00 00 00 00 00 00 00 00 ................
0040A2E0 00 00 00 00 00 00 00 00 00 00 00 00 00 00 00 00 ................
0040A2F0 00 00 00 00 00 00 00 00 00 00 00 00 00 00 00 00 ................
0040A300 00 00 00 00 00 00 00 00 00 00 00 00 00 00 00 00 ................
0040A310 00 00 00 00 00 00 00 00 00 00 00 00 00 00 00 00 ................
0040A320 00 00 00 00 00 00 00 00 00 00 00 00 00 00 00 00 ................
0040A330 00 00 00 00 00 00 00 00 00 00 00 00 00 00 00 00 ................
0040A340 00 00 00 00 00 00 00 00 00 00 00 00 00 00 00 00 ................
0040A350 00 00 00 00 00 00 00 00 00 00 00 00 00 00 00 00 ................
0040A360 00 00 00 00 00 00 00 00 00 00 00 00 00 00 00 00 ................
0040A370 00 00 00 00 00 00 00 00 00 00 00 00 00 00 00 00 ................
0040A380 00 00 00 00 00 00 00 00 00 00 00 00 00 00 00 00 ................
0040A390 00 00 00 00 00 00 00 00 00 00 00 00 00 00 00 00 ................
0040A3A0 00 00 00 00 00 00 00 00 00 00 00 00 00 00 00 00 ................
0040A3B0 00 00 00 00 00 00 00 00 00 00 00 00 00 00 00 00 ................
0040A3C0 00 00 00 00 00 00 00 00 00 00 00 00 00 00 00 00 ................
0040A3D0 00 00 00 00 00 00 00 00 00 00 00 00 00 00 00 00 ................
0040A3E0 00 00 00 00 00 00 00 00 00 00 00 00 00 00 00 00 ................
0040A3F0 00 00 00 00 00 00 00 00 00 00 00 00 00 00 00 00 ................
0040A400 00 00 00 00 00 00 00 00 00 00 00 00 00 00 00 00 ................
0040A410 00 00 00 00 00 00 00 00 00 00 00 00 00 00 00 00 ................
0040A420 00 00 00 00 00 00 00 00 00 00 00 00 00 00 00 00 ................
0040A430 00 00 00 00 00 00 00 00 00 00 00 00 00 00 00 00 ................
0040A440 00 00 00 00 00 00 00 00 00 00 00 00 00 00 00 00 ................
0040A450 00 00 00 00 00 00 00 00 00 00 00 00 00 00 00 00 ................
0040A460 00 00 00 00 00 00 00 00 00 00 00 00 00 00 00 00 ................
0040A470 00 00 00 00 00 00 00 00 00 00 00 00 00 00 00 00 ................
0040A480 00 00 00 00 00 00 00 00 00 00 00 00 00 00 00 00 ................
0040A490 00 00 00 00 00 00 00 00 00 00 00 00 00 00 00 00 ................
0040A4A0 00 00 00 00 00 00 00 00 00 00 00 00 00 00 00 00 ................
0040A4B0 00 00 00 00 00 00 00 00 00 00 00 00 00 00 00 00 ................
0040A4C0 00 00 00 00 00 00 00 00 00 00 00 00 00 00 00 00 ................
0040A4D0 00 00 00 00 00 00 00 00 00 00 00 00 00 00 00 00 ................
0040A4E0 00 00 00 00 00 00 00 00 00 00 00 00 00 00 00 00 ................
0040A4F0 00 00 00 00 00 00 00 00 00 00 00 00 00 00 00 00 ................
0040A500 00 00 00 00 00 00 00 00 00 00 00 00 00 00 00 00 ................
0040A510 00 00 00 00 00 00 00 00 00 00 00 00 00 00 00 00 ................
0040A520 00 00 00 00 00 00 00 00 00 00 00 00 00 00 00 00 ................
0040A530 00 00 00 00 00 00 00 00 00 00 00 00 00 00 00 00 ................
0040A540 00 00 00 00 00 00 00 00 00 00 00 00 00 00 00 00 ................
0040A550 00 00 00 00 00 00 00 00 00 00 00 00 00 00 00 00 ................
0040A560 00 00 00 00 00 00 00 00 00 00 00 00 00 00 00 00 ................
0040A570 00 00 00 00 00 00 00 00 00 00 00 00 00 00 00 00 ................
0040A580 00 00 00 00 00 00 00 00 00 00 00 00 00 00 00 00 ................
0040A590 00 00 00 00 00 00 00 00 00 00 00 00 00 00 00 00 ................
0040A5A0 00 00 00 00 00 00 00 00 00 00 00 00 00 00 00 00 ................
0040A5B0 00 00 00 00 00 00 00 00 00 00 00 00 00 00 00 00 ................
0040A5C0 00 00 00 00 00 00 00 00 00 00 00 00 00 00 00 00 ................
0040A5D0 00 00 00 00 00 00 00 00 00 00 00 00 00 00 00 00 ................
0040A5E0 00 00 00 00 00 00 00 00 00 00 00 00 00 00 00 00 ................
0040A5F0 00 00 00 00 00 00 00 00 00 00 00 00 00 00 00 00 ................
0040A600 00 00 00 00 00 00 00 00 00 00 00 00 00 00 00 00 ................
0040A610 00 00 00 00 00 00 00 00 00 00 00 00 00 00 00 00 ................
0040A620 00 00 00 00 00 00 00 00 00 00 00 00 00 00 00 00 ................
0040A630 00 00 00 00 00 00 00 00 00 00 00 00 00 00 00 00 ................
0040A640 00 00 00 00 00 00 00 00 00 00 00 00 00 00 00 00 ................
0040A650 00 00 00 00 00 00 00 00 00 00 00 00 00 00 00 00 ................
0040A660 00 00 00 00 00 00 00 00 00 00 00 00 00 00 00 00 ................
0040A670 00 00 00 00 00 00 00 00 00 00 00 00 00 00 00 00 ................
0040A680 00 00 00 00 00 00 00 00 00 00 00 00 00 00 00 00 ................
0040A690 00 00 00 00 00 00 00 00 00 00 00 00 00 00 00 00 ................
0040A6A0 00 00 00 00 00 00 00 00 00 00 00 00 00 00 00 00 ................
0040A6B0 00 00 00 00 00 00 00 00 00 00 00 00 00 00 00 00 ................
0040A6C0 00 00 00 00 00 00 00 00 00 00 00 00 00 00 00 00 ................
0040A6D0 00 00 00 00 00 00 00 00 00 00 00 00 00 00 00 00 ................
0040A6E0 00 00 00 00 00 00 00 00 00 00 00 00 00 00 00 00 ................
0040A6F0 00 00 00 00 00 00 00 00 00 00 00 00 00 00 00 00 ................
0040A700 00 00 00 00 00 00 00 00 00 00 00 00 00 00 00 00 ................
0040A710 00 00 00 00 00 00 00 00 00 00 00 00 00 00 00 00 ................
0040A720 00 00 00 00 00 00 00 00 00 00 00 00 00 00 00 00 ................
0040A730 00 00 00 00 00 00 00 00 00 00 00 00 00 00 00 00 ................
0040A740 00 00 00 00 00 00 00 00 00 00 00 00 00 00 00 00 ................
0040A750 00 00 00 00 00 00 00 00 00 00 00 00 00 00 00 00 ................
0040A760 00 00 00 00 00 00 00 00 00 00 00 00 00 00 00 00 ................
0040A770 00 00 00 00 00 00 00 00 00 00 00 00 00 00 00 00 ................
0040A780 00 00 00 00 00 00 00 00 00 00 00 00 00 00 00 00 ................
0040A790 00 00 00 00 00 00 00 00 00 00 00 00 00 00 00 00 ................
0040A7A0 00 00 00 00 00 00 00 00 00 00 00 00 00 00 00 00 ................
0040A7B0 00 00 00 00 00 00 00 00 00 00 00 00 00 00 00 00 ................
0040A7C0 00 00 00 00 00 00 00 00 00 00 00 00 00 00 00 00 ................
0040A7D0 00 00 00 00 00 00 00 00 00 00 00 00 00 00 00 00 ................
0040A7E0 00 00 00 00 00 00 00 00 00 00 00 00 00 00 00 00 ................
0040A7F0 00 00 00 00 00 00 00 00 00 00 00 00 00 00 00 00 ................
0040A800 00 00 00 00 00 00 00 00 00 00 00 00 00 00 00 00 ................
0040A810 00 00 00 00 00 00 00 00 00 00 00 00 00 00 00 00 ................
0040A820 00 00 00 00 00 00 00 00 00 00 00 00 00 00 00 00 ................
0040A830 00 00 00 00 00 00 00 00 00 00 00 00 00 00 00 00 ................
0040A840 00 00 00 00 00 00 00 00 00 00 00 00 00 00 00 00 ................
0040A850 00 00 00 00 00 00 00 00 00 00 00 00 00 00 00 00 ................
0040A860 00 00 00 00 00 00 00 00 00 00 00 00 00 00 00 00 ................
0040A870 00 00 00 00 00 00 00 00 00 00 00 00 00 00 00 00 ................
0040A880 00 00 00 00 00 00 00 00 00 00 00 00 00 00 00 00 ................
0040A890 00 00 00 00 00 00 00 00 00 00 00 00 00 00 00 00 ................
0040A8A0 00 00 00 00 00 00 00 00 00 00 00 00 00 00 00 00 ................
0040A8B0 00 00 00 00 00 00 00 00 00 00 00 00 00 00 00 00 ................
0040A8C0 00 00 00 00 00 00 00 00 00 00 00 00 00 00 00 00 ................
0040A8D0 00 00 00 00 00 00 00 00 00 00 00 00 00 00 00 00 ................
0040A8E0 00 00 00 00 00 00 00 00 00 00 00 00 00 00 00 00 ................
0040A8F0 00 00 00 00 00 00 00 00 00 00 00 00 00 00 00 00 ................
0040A900 00 00 00 00 00 00 00 00 00 00 00 00 00 00 00 00 ................
0040A910 00 00 00 00 00 00 00 00 00 00 00 00 00 00 00 00 ................
0040A920 00 00 00 00 00 00 00 00 00 00 00 00 00 00 00 00 ................
0040A930 00 00 00 00 00 00 00 00 00 00 00 00 00 00 00 00 ................
0040A940 00 00 00 00 00 00 00 00 00 00 00 00 00 00 00 00 ................
0040A950 00 00 00 00 00 00 00 00 00 00 00 00 00 00 00 00 ................
0040A960 00 00 00 00 00 00 00 00 00 00 00 00 00 00 00 00 ................
0040A970 00 00 00 00 00 00 00 00 00 00 00 00 00 00 00 00 ................
0040A980 00 00 00 00 00 00 00 00 00 00 00 00 00 00 00 00 ................
0040A990 00 00 00 00 00 00 00 00 00 00 00 00 00 00 00 00 ................
0040A9A0 00 00 00 00 00 00 00 00 00 00 00 00 00 00 00 00 ................
0040A9B0 00 00 00 00 00 00 00 00 00 00 00 00 00 00 00 00 ................
0040A9C0 00 00 00 00 00 00 00 00 00 00 00 00 00 00 00 00 ................
0040A9D0 00 00 00 00 00 00 00 00 00 00 00 00 00 00 00 00 ................
0040A9E0 00 00 00 00 00 00 00 00 00 00 00 00 00 00 00 00 ................
0040A9F0 00 00 00 00 00 00 00 00 00 00 00 00 00 00 00 00 ................
0040AA00 00 00 00 00 00 00 00 00 00 00 00 00 00 00 00 00 ................
0040AA10 00 00 00 00 00 00 00 00 00 00 00 00 00 00 00 00 ................
0040AA20 00 00 00 00 00 00 00 00 00 00 00 00 00 00 00 00 ................
0040AA30 00 00 00 00 00 00 00 00 00 00 00 00 00 00 00 00 ................
0040AA40 00 00 00 00 00 00 00 00 00 00 00 00 00 00 00 00 ................
0040AA50 00 00 00 00 00 00 00 00 00 00 00 00 00 00 00 00 ................
0040AA60 00 00 00 00 00 00 00 00 00 00 00 00 00 00 00 00 ................
0040AA70 00 00 00 00 00 00 00 00 00 00 00 00 00 00 00 00 ................
0040AA80 00 00 00 00 00 00 00 00 00 00 00 00 00 00 00 00 ................
0040AA90 00 00 00 00 00 00 00 00 00 00 00 00 00 00 00 00 ................
0040AAA0 00 00 00 00 00 00 00 00 00 00 00 00 00 00 00 00 ................
0040AAB0 00 00 00 00 00 00 00 00 00 00 00 00 00 00 00 00 ................
0040AAC0 00 00 00 00 00 00 00 00 00 00 00 00 00 00 00 00 ................
0040AAD0 00 00 00 00 00 00 00 00 00 00 00 00 00 00 00 00 ................
0040AAE0 00 00 00 00 00 00 00 00 00 00 00 00 00 00 00 00 ................
0040AAF0 00 00 00 00 00 00 00 00 00 00 00 00 00 00 00 00 ................
0040AB00 00 00 00 00 00 00 00 00 00 00 00 00 00 00 00 00 ................
0040AB10 00 00 00 00 00 00 00 00 00 00 00 00 00 00 00 00 ................
0040AB20 00 00 00 00 00 00 00 00 00 00 00 00 00 00 00 00 ................
0040AB30 00 00 00 00 00 00 00 00 00 00 00 00 00 00 00 00 ................
0040AB40 00 00 00 00 00 00 00 00 00 00 00 00 00 00 00 00 ................
0040AB50 00 00 00 00 00 00 00 00 00 00 00 00 00 00 00 00 ................
0040AB60 00 00 00 00 00 00 00 00 00 00 00 00 00 00 00 00 ................
0040AB70 00 00 00 00 00 00 00 00 00 00 00 00 00 00 00 00 ................
0040AB80 00 00 00 00 00 00 00 00 00 00 00 00 00 00 00 00 ................
0040AB90 00 00 00 00 00 00 00 00 00 00 00 00 00 00 00 00 ................
0040ABA0 00 00 00 00 00 00 00 00 00 00 00 00 00 00 00 00 ................
0040ABB0 00 00 00 00 00 00 00 00 00 00 00 00 00 00 00 00 ................
0040ABC0 00 00 00 00 00 00 00 00 00 00 00 00 00 00 00 00 ................
0040ABD0 00 00 00 00 00 00 00 00 00 00 00 00 00 00 00 00 ................
0040ABE0 00 00 00 00 00 00 00 00 00 00 00 00 00 00 00 00 ................
0040ABF0 00 00 00 00 00 00 00 00 00 00 00 00 00 00 00 00 ................
0040AC00 00 00 00 00 00 00 00 00 00 00 00 00 00 00 00 00 ................
0040AC10 00 00 00 00 00 00 00 00 00 00 00 00 00 00 00 00 ................
0040AC20 00 00 00 00 00 00 00 00 00 00 00 00 00 00 00 00 ................
0040AC30 00 00 00 00 00 00 00 00 00 00 00 00 00 00 00 00 ................
0040AC40 00 00 00 00 00 00 00 00 00 00 00 00 00 00 00 00 ................
0040AC50 00 00 00 00 00 00 00 00 00 00 00 00 00 00 00 00 ................
0040AC60 00 00 00 00 00 00 00 00 00 00 00 00 00 00 00 00 ................
0040AC70 00 00 00 00 00 00 00 00 00 00 00 00 00 00 00 00 ................
0040AC80 00 00 00 00 00 00 00 00 00 00 00 00 00 00 00 00 ................
0040AC90 00 00 00 00 00 00 00 00 00 00 00 00 00 00 00 00 ................
0040ACA0 00 00 00 00 00 00 00 00 00 00 00 00 00 00 00 00 ................
0040ACB0 00 00 00 00 00 00 00 00 00 00 00 00 00 00 00 00 ................
0040ACC0 00 00 00 00 00 00 00 00 00 00 00 00 00 00 00 00 ................
0040ACD0 00 00 00 00 00 00 00 00 00 00 00 00 00 00 00 00 ................
0040ACE0 00 00 00 00 00 00 00 00 00 00 00 00 00 00 00 00 ................
0040ACF0 00 00 00 00 00 00 00 00 00 00 00 00 00 00 00 00 ................
0040AD00 00 00 00 00 00 00 00 00 00 00 00 00 00 00 00 00 ................
0040AD10 00 00 00 00 00 00 00 00 00 00 00 00 00 00 00 00 ................
0040AD20 00 00 00 00 00 00 00 00 00 00 00 00 00 00 00 00 ................
0040AD30 00 00 00 00 00 00 00 00 00 00 00 00 00 00 00 00 ................
0040AD40 00 00 00 00 00 00 00 00 00 00 00 00 00 00 00 00 ................
0040AD50 00 00 00 00 00 00 00 00 00 00 00 00 00 00 00 00 ................
0040AD60 00 00 00 00 00 00 00 00 00 00 00 00 00 00 00 00 ................
0040AD70 00 00 00 00 00 00 00 00 00 00 00 00 00 00 00 00 ................
0040AD80 00 00 00 00 00 00 00 00 00 00 00 00 00 00 00 00 ................
0040AD90 00 00 00 00 00 00 00 00 00 00 00 00 00 00 00 00 ................
0040ADA0 00 00 00 00 00 00 00 00 00 00 00 00 00 00 00 00 ................
0040ADB0 00 00 00 00 00 00 00 00 00 00 00 00 00 00 00 00 ................
0040ADC0 00 00 00 00 00 00 00 00 00 00 00 00 00 00 00 00 ................
0040ADD0 00 00 00 00 00 00 00 00 00 00 00 00 00 00 00 00 ................
0040ADE0 00 00 00 00 00 00 00 00 00 00 00 00 00 00 00 00 ................
0040ADF0 00 00 00 00 00 00 00 00 00 00 00 00 00 00 00 00 ................
0040AE00 00 00 00 00 00 00 00 00 00 00 00 00 00 00 00 00 ................
0040AE10 00 00 00 00 00 00 00 00 00 00 00 00 00 00 00 00 ................
0040AE20 00 00 00 00 00 00 00 00 00 00 00 00 00 00 00 00 ................
0040AE30 00 00 00 00 00 00 00 00 00 00 00 00 00 00 00 00 ................
0040AE40 00 00 00 00 00 00 00 00 00 00 00 00 00 00 00 00 ................
0040AE50 00 00 00 00 00 00 00 00 00 00 00 00 00 00 00 00 ................
0040AE60 00 00 00 00 00 00 00 00 00 00 00 00 00 00 00 00 ................
0040AE70 00 00 00 00 00 00 00 00 00 00 00 00 00 00 00 00 ................
0040AE80 00 00 00 00 00 00 00 00 00 00 00 00 00 00 00 00 ................
0040AE90 00 00 00 00 00 00 00 00 00 00 00 00 00 00 00 00 ................
0040AEA0 00 00 00 00 00 00 00 00 00 00 00 00 00 00 00 00 ................
0040AEB0 00 00 00 00 00 00 00 00 00 00 00 00 00 00 00 00 ................
0040AEC0 00 00 00 00 00 00 00 00 00 00 00 00 00 00 00 00 ................
0040AED0 00 00 00 00 00 00 00 00 00 00 00 00 00 00 00 00 ................
0040AEE0 00 00 00 00 00 00 00 00 00 00 00 00 00 00 00 00 ................
0040AEF0 00 00 00 00 00 00 00 00 00 00 00 00 00 00 00 00 ................
0040AF00 00 00 00 00 00 00 00 00 00 00 00 00 00 00 00 00 ................
0040AF10 00 00 00 00 00 00 00 00 00 00 00 00 00 00 00 00 ................
0040AF20 00 00 00 00 00 00 00 00 00 00 00 00 00 00 00 00 ................
0040AF30 00 00 00 00 00 00 00 00 00 00 00 00 00 00 00 00 ................
0040AF40 00 00 00 00 00 00 00 00 00 00 00 00 00 00 00 00 ................
0040AF50 00 00 00 00 00 00 00 00 00 00 00 00 00 00 00 00 ................
0040AF60 00 00 00 00 00 00 00 00 00 00 00 00 00 00 00 00 ................
0040AF70 00 00 00 00 00 00 00 00 00 00 00 00 00 00 00 00 ................
0040AF80 00 00 00 00 00 00 00 00 00 00 00 00 00 00 00 00 ................
0040AF90 00 00 00 00 00 00 00 00 00 00 00 00 00 00 00 00 ................
0040AFA0 00 00 00 00 00 00 00 00 00 00 00 00 00 00 00 00 ................
0040AFB0 00 00 00 00 00 00 00 00 00 00 00 00 00 00 00 00 ................
0040AFC0 00 00 00 00 00 00 00 00 00 00 00 00 00 00 00 00 ................
0040AFD0 00 00 00 00 00 00 00 00 00 00 00 00 00 00 00 00 ................
0040AFE0 00 00 00 00 00 00 00 00 00 00 00 00 00 00 00 00 ................
0040AFF0 00 00 00 00 00 00 00 00 00 00 00 00 00 00 00 00 ................
0040B000 00 00 00 00 00 00 00 00 00 00 00 00 00 00 00 00 ................
0040B010 00 00 00 00 00 00 00 00 00 00 00 00 00 00 00 00 ................
0040B020 00 00 00 00 00 00 00 00 00 00 00 00 00 00 00 00 ................
0040B030 00 00 00 00 00 00 00 00 00 00 00 00 00 00 00 00 ................
0040B040 00 00 00 00 00 00 00 00 00 00 00 00 00 00 00 00 ................
0040B050 00 00 00 00 00 00 00 00 00 00 00 00 00 00 00 00 ................
0040B060 00 00 00 00 00 00 00 00 00 00 00 00 00 00 00 00 ................
0040B070 00 00 00 00 00 00 00 00 00 00 00 00 00 00 00 00 ................
0040B080 00 00 00 00 00 00 00 00 00 00 00 00 00 00 00 00 ................
0040B090 00 00 00 00 00 00 00 00 00 00 00 00 00 00 00 00 ................
0040B0A0 00 00 00 00 00 00 00 00 00 00 00 00 00 00 00 00 ................
0040B0B0 00 00 00 00 00 00 00 00 00 00 00 00 00 00 00 00 ................
0040B0C0 00 00 00 00 00 00 00 00 00 00 00 00 00 00 00 00 ................
0040B0D0 00 00 00 00 00 00 00 00 00 00 00 00 00 00 00 00 ................
0040B0E0 00 00 00 00 00 00 00 00 00 00 00 00 00 00 00 00 ................
0040B0F0 00 00 00 00 00 00 00 00 00 00 00 00 00 00 00 00 ................
0040B100 00 00 00 00 00 00 00 00 00 00 00 00 00 00 00 00 ................
0040B110 00 00 00 00 00 00 00 00 00 00 00 00 00 00 00 00 ................
0040B120 00 00 00 00 00 00 00 00 00 00 00 00 00 00 00 00 ................
0040B130 00 00 00 00 00 00 00 00 00 00 00 00 00 00 00 00 ................
0040B140 00 00 00 00 00 00 00 00 00 00 00 00 00 00 00 00 ................
0040B150 00 00 00 00 00 00 00 00 00 00 00 00 00 00 00 00 ................
0040B160 00 00 00 00 00 00 00 00 00 00 00 00 00 00 00 00 ................
0040B170 00 00 00 00 00 00 00 00 00 00 00 00 00 00 00 00 ................
0040B180 00 00 00 00 00 00 00 00 00 00 00 00 00 00 00 00 ................
0040B190 00 00 00 00 00 00 00 00 00 00 00 00 00 00 00 00 ................
0040B1A0 00 00 00 00 00 00 00 00 00 00 00 00 00 00 00 00 ................
0040B1B0 00 00 00 00 00 00 00 00 00 00 00 00 00 00 00 00 ................
0040B1C0 00 00 00 00 00 00 00 00 00 00 00 00 00 00 00 00 ................
0040B1D0 00 00 00 00 00 00 00 00 00 00 00 00 00 00 00 00 ................
0040B1E0 00 00 00 00 00 00 00 00 00 00 00 00 00 00 00 00 ................
0040B1F0 00 00 00 00 00 00 00 00 00 00 00 00 00 00 00 00 ................
0040B200 00 00 00 00 00 00 00 00 00 00 00 00 00 00 00 00 ................
0040B210 00 00 00 00 00 00 00 00 00 00 00 00 00 00 00 00 ................
0040B220 00 00 00 00 00 00 00 00 00 00 00 00 00 00 00 00 ................
0040B230 00 00 00 00 00 00 00 00 00 00 00 00 00 00 00 00 ................
0040B240 00 00 00 00 00 00 00 00 00 00 00 00 00 00 00 00 ................
0040B250 00 00 00 00 00 00 00 00 00 00 00 00 00 00 00 00 ................
0040B260 00 00 00 00 00 00 00 00 00 00 00 00 00 00 00 00 ................
0040B270 00 00 00 00 00 00 00 00 00 00 00 00 00 00 00 00 ................
0040B280 00 00 00 00 00 00 00 00 00 00 00 00 00 00 00 00 ................
0040B290 00 00 00 00 00 00 00 00 00 00 00 00 00 00 00 00 ................
0040B2A0 00 00 00 00 00 00 00 00 00 00 00 00 00 00 00 00 ................
0040B2B0 00 00 00 00 00 00 00 00 00 00 00 00 00 00 00 00 ................
0040B2C0 00 00 00 00 00 00 00 00 00 00 00 00 00 00 00 00 ................
0040B2D0 00 00 00 00 00 00 00 00 00 00 00 00 00 00 00 00 ................
0040B2E0 00 00 00 00 00 00 00 00 00 00 00 00 00 00 00 00 ................
0040B2F0 00 00 00 00 00 00 00 00 00 00 00 00 00 00 00 00 ................
0040B300 00 00 00 00 00 00 00 00 00 00 00 00 00 00 00 00 ................
0040B310 00 00 00 00 00 00 00 00 00 00 00 00 00 00 00 00 ................
0040B320 00 00 00 00 00 00 00 00 00 00 00 00 00 00 00 00 ................
0040B330 00 00 00 00 00 00 00 00 00 00 00 00 00 00 00 00 ................
0040B340 00 00 00 00 00 00 00 00 00 00 00 00 00 00 00 00 ................
0040B350 00 00 00 00 00 00 00 00 00 00 00 00 00 00 00 00 ................
0040B360 00 00 00 00 00 00 00 00 00 00 00 00 00 00 00 00 ................
0040B370 00 00 00 00 00 00 00 00 00 00 00 00 00 00 00 00 ................
0040B380 00 00 00 00 00 00 00 00 00 00 00 00 00 00 00 00 ................
0040B390 00 00 00 00 00 00 00 00 00 00 00 00 00 00 00 00 ................
0040B3A0 00 00 00 00 00 00 00 00 00 00 00 00 00 00 00 00 ................
0040B3B0 00 00 00 00 00 00 00 00 00 00 00 00 00 00 00 00 ................
0040B3C0 00 00 00 00 00 00 00 00 00 00 00 00 00 00 00 00 ................
0040B3D0 00 00 00 00 00 00 00 00 00 00 00 00 00 00 00 00 ................
0040B3E0 00 00 00 00 00 00 00 00 00 00 00 00 00 00 00 00 ................
0040B3F0 00 00 00 00 00 00 00 00 00 00 00 00 00 00 00 00 ................
0040B400 00 00 00 00 00 00 00 00 00 00 00 00 00 00 00 00 ................
0040B410 00 00 00 00 00 00 00 00 00 00 00 00 00 00 00 00 ................
0040B420 00 00 00 00 00 00 00 00 00 00 00 00 00 00 00 00 ................
0040B430 00 00 00 00 00 00 00 00 00 00 00 00 00 00 00 00 ................
0040B440 00 00 00 00 00 00 00 00 00 00 00 00 00 00 00 00 ................
0040B450 00 00 00 00 00 00 00 00 00 00 00 00 00 00 00 00 ................
0040B460 00 00 00 00 00 00 00 00 00 00 00 00 00 00 00 00 ................
0040B470 00 00 00 00 00 00 00 00 00 00 00 00 00 00 00 00 ................
0040B480 00 00 00 00 00 00 00 00 00 00 00 00 00 00 00 00 ................
0040B490 00 00 00 00 00 00 00 00 00 00 00 00 00 00 00 00 ................
0040B4A0 00 00 00 00 00 00 00 00 00 00 00 00 00 00 00 00 ................
0040B4B0 00 00 00 00 00 00 00 00 00 00 00 00 00 00 00 00 ................
0040B4C0 00 00 00 00 00 00 00 00 00 00 00 00 00 00 00 00 ................
0040B4D0 00 00 00 00 00 00 00 00 00 00 00 00 00 00 00 00 ................
0040B4E0 00 00 00 00 00 00 00 00 00 00 00 00 00 00 00 00 ................
0040B4F0 00 00 00 00 00 00 00 00 00 00 00 00 00 00 00 00 ................
0040B500 00 00 00 00 00 00 00 00 00 00 00 00 00 00 00 00 ................
0040B510 00 00 00 00 00 00 00 00 00 00 00 00 00 00 00 00 ................
0040B520 00 00 00 00 00 00 00 00 00 00 00 00 00 00 00 00 ................
0040B530 00 00 00 00 00 00 00 00 00 00 00 00 00 00 00 00 ................
0040B540 00 00 00 00 00 00 00 00 00 00 00 00 00 00 00 00 ................
0040B550 00 00 00 00 00 00 00 00 00 00 00 00 00 00 00 00 ................
0040B560 00 00 00 00 00 00 00 00 00 00 00 00 00 00 00 00 ................
0040B570 00 00 00 00 00 00 00 00 00 00 00 00 00 00 00 00 ................
0040B580 00 00 00 00 00 00 00 00 00 00 00 00 00 00 00 00 ................
0040B590 00 00 00 00 00 00 00 00 00 00 00 00 00 00 00 00 ................
0040B5A0 00 00 00 00 00 00 00 00 00 00 00 00 00 00 00 00 ................
0040B5B0 00 00 00 00 00 00 00 00 00 00 00 00 00 00 00 00 ................
0040B5C0 00 00 00 00 00 00 00 00 00 00 00 00 00 00 00 00 ................
0040B5D0 00 00 00 00 00 00 00 00 00 00 00 00 00 00 00 00 ................
0040B5E0 00 00 00 00 00 00 00 00 00 00 00 00 00 00 00 00 ................
0040B5F0 00 00 00 00 00 00 00 00 00 00 00 00 00 00 00 00 ................
0040B600 00 00 00 00 00 00 00 00 00 00 00 00 00 00 00 00 ................
0040B610 00 00 00 00 00 00 00 00 00 00 00 00 00 00 00 00 ................
0040B620 00 00 00 00 00 00 00 00 00 00 00 00 00 00 00 00 ................
0040B630 00 00 00 00 00 00 00 00 00 00 00 00 00 00 00 00 ................
0040B640 00 00 00 00 00 00 00 00 00 00 00 00 00 00 00 00 ................
0040B650 00 00 00 00 00 00 00 00 00 00 00 00 00 00 00 00 ................
0040B660 00 00 00 00 00 00 00 00 00 00 00 00 00 00 00 00 ................
0040B670 00 00 00 00 00 00 00 00 00 00 00 00 00 00 00 00 ................
0040B680 00 00 00 00 00 00 00 00 00 00 00 00 00 00 00 00 ................
0040B690 00 00 00 00 00 00 00 00 00 00 00 00 00 00 00 00 ................
0040B6A0 00 00 00 00 00 00 00 00 00 00 00 00 00 00 00 00 ................
0040B6B0 00 00 00 00 00 00 00 00 00 00 00 00 00 00 00 00 ................
0040B6C0 00 00 00 00 00 00 00 00 00 00 00 00 00 00 00 00 ................
0040B6D0 00 00 00 00 00 00 00 00 00 00 00 00 00 00 00 00 ................
0040B6E0 00 00 00 00 00 00 00 00 00 00 00 00 00 00 00 00 ................
0040B6F0 00 00 00 00 00 00 00 00 00 00 00 00 00 00 00 00 ................
0040B700 00 00 00 00 00 00 00 00 00 00 00 00 00 00 00 00 ................
0040B710 00 00 00 00 00 00 00 00 00 00 00 00 00 00 00 00 ................
0040B720 00 00 00 00 00 00 00 00 00 00 00 00 00 00 00 00 ................
0040B730 00 00 00 00 00 00 00 00 00 00 00 00 00 00 00 00 ................
0040B740 00 00 00 00 00 00 00 00 00 00 00 00 00 00 00 00 ................
0040B750 00 00 00 00 00 00 00 00 00 00 00 00 00 00 00 00 ................
0040B760 00 00 00 00 00 00 00 00 00 00 00 00 00 00 00 00 ................
0040B770 00 00 00 00 00 00 00 00 00 00 00 00 00 00 00 00 ................
0040B780 00 00 00 00 00 00 00 00 00 00 00 00 00 00 00 00 ................
0040B790 00 00 00 00 00 00 00 00 00 00 00 00 00 00 00 00 ................
0040B7A0 00 00 00 00 00 00 00 00 00 00 00 00 00 00 00 00 ................
0040B7B0 00 00 00 00 00 00 00 00 00 00 00 00 00 00 00 00 ................
0040B7C0 00 00 00 00 00 00 00 00 00 00 00 00 00 00 00 00 ................
0040B7D0 00 00 00 00 00 00 00 00 00 00 00 00 00 00 00 00 ................
0040B7E0 00 00 00 00 00 00 00 00 00 00 00 00 00 00 00 00 ................
0040B7F0 00 00 00 00 00 00 00 00 00 00 00 00 00 00 00 00 ................
0040B800 00 00 00 00 00 00 00 00 00 00 00 00 00 00 00 00 ................
0040B810 00 00 00 00 00 00 00 00 00 00 00 00 00 00 00 00 ................
0040B820 00 00 00 00 00 00 00 00 00 00 00 00 00 00 00 00 ................
0040B830 00 00 00 00 00 00 00 00 00 00 00 00 00 00 00 00 ................
0040B840 00 00 00 00 00 00 00 00 00 00 00 00 00 00 00 00 ................
0040B850 00 00 00 00 00 00 00 00 00 00 00 00 00 00 00 00 ................
0040B860 00 00 00 00 00 00 00 00 00 00 00 00 00 00 00 00 ................
0040B870 00 00 00 00 00 00 00 00 00 00 00 00 00 00 00 00 ................
0040B880 00 00 00 00 00 00 00 00 00 00 00 00 00 00 00 00 ................
0040B890 00 00 00 00 00 00 00 00 00 00 00 00 00 00 00 00 ................
0040B8A0 00 00 00 00 00 00 00 00 00 00 00 00 00 00 00 00 ................
0040B8B0 00 00 00 00 00 00 00 00 00 00 00 00 00 00 00 00 ................
0040B8C0 00 00 00 00 00 00 00 00 00 00 00 00 00 00 00 00 ................
0040B8D0 00 00 00 00 00 00 00 00 00 00 00 00 00 00 00 00 ................
0040B8E0 00 00 00 00 00 00 00 00 00 00 00 00 00 00 00 00 ................
0040B8F0 00 00 00 00 00 00 00 00 00 00 00 00 00 00 00 00 ................
0040B900 00 00 00 00 00 00 00 00 00 00 00 00 00 00 00 00 ................
0040B910 00 00 00 00 00 00 00 00 00 00 00 00 00 00 00 00 ................
0040B920 00 00 00 00 00 00 00 00 00 00 00 00 00 00 00 00 ................
0040B930 00 00 00 00 00 00 00 00 00 00 00 00 00 00 00 00 ................
0040B940 00 00 00 00 00 00 00 00 00 00 00 00 00 00 00 00 ................
0040B950 00 00 00 00 00 00 00 00 00 00 00 00 00 00 00 00 ................
0040B960 00 00 00 00 00 00 00 00 00 00 00 00 00 00 00 00 ................
0040B970 00 00 00 00 00 00 00 00 00 00 00 00 00 00 00 00 ................
0040B980 00 00 00 00 00 00 00 00 00 00 00 00 00 00 00 00 ................
0040B990 00 00 00 00 00 00 00 00 00 00 00 00 00 00 00 00 ................
0040B9A0 00 00 00 00 00 00 00 00 00 00 00 00 00 00 00 00 ................
0040B9B0 00 00 00 00 00 00 00 00 00 00 00 00 00 00 00 00 ................
0040B9C0 00 00 00 00 00 00 00 00 00 00 00 00 00 00 00 00 ................
0040B9D0 00 00 00 00 00 00 00 00 00 00 00 00 00 00 00 00 ................
0040B9E0 00 00 00 00 00 00 00 00 00 00 00 00 00 00 00 00 ................
0040B9F0 00 00 00 00 00 00 00 00 00 00 00 00 00 00 00 00 ................
0040BA00 00 00 00 00 00 00 00 00 00 00 00 00 00 00 00 00 ................
0040BA10 00 00 00 00 00 00 00 00 00 00 00 00 00 00 00 00 ................
0040BA20 00 00 00 00 00 00 00 00 00 00 00 00 00 00 00 00 ................
0040BA30 00 00 00 00 00 00 00 00 00 00 00 00 00 00 00 00 ................
0040BA40 00 00 00 00 00 00 00 00 00 00 00 00 00 00 00 00 ................
0040BA50 00 00 00 00 00 00 00 00 00 00 00 00 00 00 00 00 ................
0040BA60 00 00 00 00 00 00 00 00 00 00 00 00 00 00 00 00 ................
0040BA70 00 00 00 00 00 00 00 00 00 00 00 00 00 00 00 00 ................
0040BA80 00 00 00 00 00 00 00 00 00 00 00 00 00 00 00 00 ................
0040BA90 00 00 00 00 00 00 00 00 00 00 00 00 00 00 00 00 ................
0040BAA0 00 00 00 00 00 00 00 00 00 00 00 00 00 00 00 00 ................
0040BAB0 00 00 00 00 00 00 00 00 00 00 00 00 00 00 00 00 ................
0040BAC0 00 00 00 00 00 00 00 00 00 00 00 00 00 00 00 00 ................
0040BAD0 00 00 00 00 00 00 00 00 00 00 00 00 00 00 00 00 ................
0040BAE0 00 00 00 00 00 00 00 00 00 00 00 00 00 00 00 00 ................
0040BAF0 00 00 00 00 00 00 00 00 00 00 00 00 00 00 00 00 ................
0040BB00 00 00 00 00 00 00 00 00 00 00 00 00 00 00 00 00 ................
0040BB10 00 00 00 00 00 00 00 00 00 00 00 00 00 00 00 00 ................
0040BB20 00 00 00 00 00 00 00 00 00 00 00 00 00 00 00 00 ................
0040BB30 00 00 00 00 00 00 00 00 00 00 00 00 00 00 00 00 ................
0040BB40 00 00 00 00 00 00 00 00 00 00 00 00 00 00 00 00 ................
0040BB50 00 00 00 00 00 00 00 00 00 00 00 00 00 00 00 00 ................
0040BB60 00 00 00 00 00 00 00 00 00 00 00 00 00 00 00 00 ................
0040BB70 00 00 00 00 00 00 00 00 00 00 00 00 00 00 00 00 ................
0040BB80 00 00 00 00 00 00 00 00 00 00 00 00 00 00 00 00 ................
0040BB90 00 00 00 00 00 00 00 00 00 00 00 00 00 00 00 00 ................
0040BBA0 00 00 00 00 00 00 00 00 00 00 00 00 00 00 00 00 ................
0040BBB0 00 00 00 00 00 00 00 00 00 00 00 00 00 00 00 00 ................
0040BBC0 00 00 00 00 00 00 00 00 00 00 00 00 00 00 00 00 ................
0040BBD0 00 00 00 00 00 00 00 00 00 00 00 00 00 00 00 00 ................
0040BBE0 00 00 00 00 00 00 00 00 00 00 00 00 00 00 00 00 ................
0040BBF0 00 00 00 00 00 00 00 00 00 00 00 00 00 00 00 00 ................
0040BC00 00 00 00 00 00 00 00 00 00 00 00 00 00 00 00 00 ................
0040BC10 00 00 00 00 00 00 00 00 00 00 00 00 00 00 00 00 ................
0040BC20 00 00 00 00 00 00 00 00 00 00 00 00 00 00 00 00 ................
0040BC30 00 00 00 00 00 00 00 00 00 00 00 00 00 00 00 00 ................
0040BC40 00 00 00 00 00 00 00 00 00 00 00 00 00 00 00 00 ................
0040BC50 00 00 00 00 00 00 00 00 00 00 00 00 00 00 00 00 ................
0040BC60 00 00 00 00 00 00 00 00 00 00 00 00 00 00 00 00 ................
0040BC70 00 00 00 00 00 00 00 00 00 00 00 00 00 00 00 00 ................
0040BC80 00 00 00 00 00 00 00 00 00 00 00 00 00 00 00 00 ................
0040BC90 00 00 00 00 00 00 00 00 00 00 00 00 00 00 00 00 ................
0040BCA0 00 00 00 00 00 00 00 00 00 00 00 00 00 00 00 00 ................
0040BCB0 00 00 00 00 00 00 00 00 00 00 00 00 00 00 00 00 ................
0040BCC0 00 00 00 00 00 00 00 00 00 00 00 00 00 00 00 00 ................
0040BCD0 00 00 00 00 00 00 00 00 00 00 00 00 00 00 00 00 ................
0040BCE0 00 00 00 00 00 00 00 00 00 00 00 00 00 00 00 00 ................
0040BCF0 00 00 00 00 00 00 00 00 00 00 00 00 00 00 00 00 ................
0040BD00 00 00 00 00 00 00 00 00 00 00 00 00 00 00 00 00 ................
0040BD10 00 00 00 00 00 00 00 00 00 00 00 00 00 00 00 00 ................
0040BD20 00 00 00 00 00 00 00 00 00 00 00 00 00 00 00 00 ................
0040BD30 00 00 00 00 00 00 00 00 00 00 00 00 00 00 00 00 ................
0040BD40 00 00 00 00 00 00 00 00 00 00 00 00 00 00 00 00 ................
0040BD50 00 00 00 00 00 00 00 00 00 00 00 00 00 00 00 00 ................
0040BD60 00 00 00 00 00 00 00 00 00 00 00 00 00 00 00 00 ................
0040BD70 00 00 00 00 00 00 00 00 00 00 00 00 00 00 00 00 ................
0040BD80 00 00 00 00 00 00 00 00 00 00 00 00 00 00 00 00 ................
0040BD90 00 00 00 00 00 00 00 00 00 00 00 00 00 00 00 00 ................
0040BDA0 00 00 00 00 00 00 00 00 00 00 00 00 00 00 00 00 ................
0040BDB0 00 00 00 00 00 00 00 00 00 00 00 00 00 00 00 00 ................
0040BDC0 00 00 00 00 00 00 00 00 00 00 00 00 00 00 00 00 ................
0040BDD0 00 00 00 00 00 00 00 00 00 00 00 00 00 00 00 00 ................
0040BDE0 00 00 00 00 00 00 00 00 00 00 00 00 00 00 00 00 ................
0040BDF0 00 00 00 00 00 00 00 00 00 00 00 00 00 00 00 00 ................
0040BE00 00 00 00 00 00 00 00 00 00 00 00 00 00 00 00 00 ................
0040BE10 00 00 00 00 00 00 00 00 00 00 00 00 00 00 00 00 ................
0040BE20 00 00 00 00 00 00 00 00 00 00 00 00 00 00 00 00 ................
0040BE30 00 00 00 00 00 00 00 00 00 00 00 00 00 00 00 00 ................
0040BE40 00 00 00 00 00 00 00 00 00 00 00 00 00 00 00 00 ................
0040BE50 00 00 00 00 00 00 00 00 00 00 00 00 00 00 00 00 ................
0040BE60 00 00 00 00 00 00 00 00 00 00 00 00 00 00 00 00 ................
0040BE70 00 00 00 00 00 00 00 00 00 00 00 00 00 00 00 00 ................
0040BE80 00 00 00 00 00 00 00 00 00 00 00 00 00 00 00 00 ................
0040BE90 00 00 00 00 00 00 00 00 00 00 00 00 00 00 00 00 ................
0040BEA0 00 00 00 00 00 00 00 00 00 00 00 00 00 00 00 00 ................
0040BEB0 00 00 00 00 00 00 00 00 00 00 00 00 00 00 00 00 ................
0040BEC0 00 00 00 00 00 00 00 00 00 00 00 00 00 00 00 00 ................
0040BED0 00 00 00 00 00 00 00 00 00 00 00 00 00 00 00 00 ................
0040BEE0 00 00 00 00 00 00 00 00 00 00 00 00 00 00 00 00 ................
0040BEF0 00 00 00 00 00 00 00 00 00 00 00 00 00 00 00 00 ................
0040BF00 00 00 00 00 00 00 00 00 00 00 00 00 00 00 00 00 ................
0040BF10 00 00 00 00 00 00 00 00 00 00 00 00 00 00 00 00 ................
0040BF20 00 00 00 00 00 00 00 00 00 00 00 00 00 00 00 00 ................
0040BF30 00 00 00 00 00 00 00 00 00 00 00 00 00 00 00 00 ................
0040BF40 00 00 00 00 00 00 00 00 00 00 00 00 00 00 00 00 ................
0040BF50 00 00 00 00 00 00 00 00 00 00 00 00 00 00 00 00 ................
0040BF60 00 00 00 00 00 00 00 00 00 00 00 00 00 00 00 00 ................
0040BF70 00 00 00 00 00 00 00 00 00 00 00 00 00 00 00 00 ................
0040BF80 00 00 00 00 00 00 00 00 00 00 00 00 00 00 00 00 ................
0040BF90 00 00 00 00 00 00 00 00 00 00 00 00 00 00 00 00 ................
0040BFA0 00 00 00 00 00 00 00 00 00 00 00 00 00 00 00 00 ................
0040BFB0 00 00 00 00 00 00 00 00 00 00 00 00 00 00 00 00 ................
0040BFC0 00 00 00 00 00 00 00 00 00 00 00 00 00 00 00 00 ................
0040BFD0 00 00 00 00 00 00 00 00 00 00 00 00 00 00 00 00 ................
0040BFE0 00 00 00 00 00 00 00 00 00 00 00 00 00 00 00 00 ................
0040BFF0 00 00 00 00 00 00 00 00 00 00 00 00 00 00 00 00 ................
0040C000 00 00 00 00 00 00 00 00 00 00 00 00 00 00 00 00 ................
0040C010 00 00 00 00 00 00 00 00 00 00 00 00 00 00 00 00 ................
0040C020 00 00 00 00 00 00 00 00 00 00 00 00 00 00 00 00 ................
0040C030 00 00 00 00 00 00 00 00 00 00 00 00 00 00 00 00 ................
0040C040 00 00 00 00 00 00 00 00 00 00 00 00 00 00 00 00 ................
0040C050 00 00 00 00 00 00 00 00 00 00 00 00 00 00 00 00 ................
0040C060 00 00 00 00 00 00 00 00 00 00 00 00 00 00 00 00 ................
0040C070 00 00 00 00 00 00 00 00 00 00 00 00 00 00 00 00 ................
0040C080 00 00 00 00 00 00 00 00 00 00 00 00 00 00 00 00 ................
0040C090 00 00 00 00 00 00 00 00 00 00 00 00 00 00 00 00 ................
0040C0A0 00 00 00 00 00 00 00 00 00 00 00 00 00 00 00 00 ................
0040C0B0 00 00 00 00 00 00 00 00 00 00 00 00 00 00 00 00 ................
0040C0C0 00 00 00 00 00 00 00 00 00 00 00 00 00 00 00 00 ................
0040C0D0 00 00 00 00 00 00 00 00 00 00 00 00 00 00 00 00 ................
0040C0E0 00 00 00 00 00 00 00 00 00 00 00 00 00 00 00 00 ................
0040C0F0 00 00 00 00 00 00 00 00 00 00 00 00 00 00 00 00 ................
0040C100 00 00 00 00 00 00 00 00 00 00 00 00 00 00 00 00 ................
0040C110 00 00 00 00 00 00 00 00 00 00 00 00 00 00 00 00 ................
0040C120 00 00 00 00 00 00 00 00 00 00 00 00 00 00 00 00 ................
0040C130 00 00 00 00 00 00 00 00 00 00 00 00 00 00 00 00 ................
0040C140 00 00 00 00 00 00 00 00 00 00 00 00 00 00 00 00 ................
0040C150 00 00 00 00 00 00 00 00 00 00 00 00 00 00 00 00 ................
0040C160 00 00 00 00 00 00 00 00 00 00 00 00 00 00 00 00 ................
0040C170 00 00 00 00 00 00 00 00 00 00 00 00 00 00 00 00 ................
0040C180 00 00 00 00 00 00 00 00 00 00 00 00 00 00 00 00 ................
0040C190 00 00 00 00 00 00 00 00 00 00 00 00 00 00 00 00 ................
0040C1A0 00 00 00 00 00 00 00 00 00 00 00 00 00 00 00 00 ................
0040C1B0 00 00 00 00 00 00 00 00 00 00 00 00 00 00 00 00 ................
0040C1C0 00 00 00 00 00 00 00 00 00 00 00 00 00 00 00 00 ................
0040C1D0 00 00 00 00 00 00 00 00 00 00 00 00 00 00 00 00 ................
0040C1E0 00 00 00 00 00 00 00 00 00 00 00 00 00 00 00 00 ................
0040C1F0 00 00 00 00 00 00 00 00 00 00 00 00 00 00 00 00 ................
0040C200 00 00 00 00 00 00 00 00 00 00 00 00 00 00 00 00 ................
0040C210 00 00 00 00 00 00 00 00 00 00 00 00 00 00 00 00 ................
0040C220 00 00 00 00 00 00 00 00 00 00 00 00 00 00 00 00 ................
0040C230 00 00 00 00 00 00 00 00 00 00 00 00 00 00 00 00 ................
0040C240 00 00 00 00 00 00 00 00 00 00 00 00 00 00 00 00 ................
0040C250 00 00 00 00 00 00 00 00 00 00 00 00 00 00 00 00 ................
0040C260 00 00 00 00 00 00 00 00 00 00 00 00 00 00 00 00 ................
0040C270 00 00 00 00 00 00 00 00 00 00 00 00 00 00 00 00 ................
0040C280 00 00 00 00 00 00 00 00 00 00 00 00 00 00 00 00 ................
0040C290 00 00 00 00 00 00 00 00 00 00 00 00 00 00 00 00 ................
0040C2A0 00 00 00 00 00 00 00 00 00 00 00 00 00 00 00 00 ................
0040C2B0 00 00 00 00 00 00 00 00 00 00 00 00 00 00 00 00 ................
0040C2C0 00 00 00 00 00 00 00 00 00 00 00 00 00 00 00 00 ................
0040C2D0 00 00 00 00 00 00 00 00 00 00 00 00 00 00 00 00 ................
0040C2E0 00 00 00 00 00 00 00 00 00 00 00 00 00 00 00 00 ................
0040C2F0 00 00 00 00 00 00 00 00 00 00 00 00 00 00 00 00 ................
0040C300 00 00 00 00 00 00 00 00 00 00 00 00 00 00 00 00 ................
0040C310 00 00 00 00 00 00 00 00 00 00 00 00 00 00 00 00 ................
0040C320 00 00 00 00 00 00 00 00 00 00 00 00 00 00 00 00 ................
0040C330 00 00 00 00 00 00 00 00 00 00 00 00 00 00 00 00 ................
0040C340 00 00 00 00 00 00 00 00 00 00 00 00 00 00 00 00 ................
0040C350 00 00 00 00 00 00 00 00 00 00 00 00 00 00 00 00 ................
0040C360 00 00 00 00 00 00 00 00 00 00 00 00 00 00 00 00 ................
0040C370 00 00 00 00 00 00 00 00 00 00 00 00 00 00 00 00 ................
0040C380 00 00 00 00 00 00 00 00 00 00 00 00 00 00 00 00 ................
0040C390 00 00 00 00 00 00 00 00 00 00 00 00 00 00 00 00 ................
0040C3A0 00 00 00 00 00 00 00 00 00 00 00 00 00 00 00 00 ................
0040C3B0 00 00 00 00 00 00 00 00 00 00 00 00 00 00 00 00 ................
0040C3C0 00 00 00 00 00 00 00 00 00 00 00 00 00 00 00 00 ................
0040C3D0 00 00 00 00 00 00 00 00 00 00 00 00 00 00 00 00 ................
0040C3E0 00 00 00 00 00 00 00 00 00 00 00 00 00 00 00 00 ................
0040C3F0 00 00 00 00 00 00 00 00 00 00 00 00 00 00 00 00 ................
0040C400 00 00 00 00 00 00 00 00 00 00 00 00 00 00 00 00 ................
0040C410 00 00 00 00 00 00 00 00 00 00 00 00 00 00 00 00 ................
0040C420 00 00 00 00 00 00 00 00 00 00 00 00 00 00 00 00 ................
0040C430 00 00 00 00 00 00 00 00 00 00 00 00 00 00 00 00 ................
0040C440 00 00 00 00 00 00 00 00 00 00 00 00 00 00 00 00 ................
0040C450 00 00 00 00 00 00 00 00 00 00 00 00 00 00 00 00 ................
0040C460 00 00 00 00 00 00 00 00 00 00 00 00 00 00 00 00 ................
0040C470 00 00 00 00 00 00 00 00 00 00 00 00 00 00 00 00 ................
0040C480 00 00 00 00 00 00 00 00 00 00 00 00 00 00 00 00 ................
0040C490 00 00 00 00 00 00 00 00 00 00 00 00 00 00 00 00 ................
0040C4A0 00 00 00 00 00 00 00 00 00 00 00 00 00 00 00 00 ................
0040C4B0 00 00 00 00 00 00 00 00 00 00 00 00 00 00 00 00 ................
0040C4C0 00 00 00 00 00 00 00 00 00 00 00 00 00 00 00 00 ................
0040C4D0 00 00 00 00 00 00 00 00 00 00 00 00 00 00 00 00 ................
0040C4E0 00 00 00 00 00 00 00 00 00 00 00 00 00 00 00 00 ................
0040C4F0 00 00 00 00 00 00 00 00 00 00 00 00 00 00 00 00 ................
0040C500 00 00 00 00 00 00 00 00 00 00 00 00 00 00 00 00 ................
0040C510 00 00 00 00 00 00 00 00 00 00 00 00 00 00 00 00 ................
0040C520 00 00 00 00 00 00 00 00 00 00 00 00 00 00 00 00 ................
0040C530 00 00 00 00 00 00 00 00 00 00 00 00 00 00 00 00 ................
0040C540 00 00 00 00 00 00 00 00 00 00 00 00 00 00 00 00 ................
0040C550 00 00 00 00 00 00 00 00 00 00 00 00 00 00 00 00 ................
0040C560 00 00 00 00 00 00 00 00 00 00 00 00 00 00 00 00 ................
0040C570 00 00 00 00 00 00 00 00 00 00 00 00 00 00 00 00 ................
0040C580 00 00 00 00 00 00 00 00 00 00 00 00 00 00 00 00 ................
0040C590 00 00 00 00 00 00 00 00 00 00 00 00 00 00 00 00 ................
0040C5A0 00 00 00 00 00 00 00 00 00 00 00 00 00 00 00 00 ................
0040C5B0 00 00 00 00 00 00 00 00 00 00 00 00 00 00 00 00 ................
0040C5C0 00 00 00 00 00 00 00 00 00 00 00 00 00 00 00 00 ................
0040C5D0 00 00 00 00 00 00 00 00 00 00 00 00 00 00 00 00 ................
0040C5E0 00 00 00 00 00 00 00 00 00 00 00 00 00 00 00 00 ................
0040C5F0 00 00 00 00 00 00 00 00 00 00 00 00 00 00 00 00 ................
0040C600 00 00 00 00 00 00 00 00 00 00 00 00 00 00 00 00 ................
0040C610 00 00 00 00 00 00 00 00 00 00 00 00 00 00 00 00 ................
0040C620 00 00 00 00 00 00 00 00 00 00 00 00 00 00 00 00 ................
0040C630 00 00 00 00 00 00 00 00 00 00 00 00 00 00 00 00 ................
0040C640 00 00 00 00 00 00 00 00 00 00 00 00 00 00 00 00 ................
0040C650 00 00 00 00 00 00 00 00 00 00 00 00 00 00 00 00 ................
0040C660 00 00 00 00 00 00 00 00 00 00 00 00 00 00 00 00 ................
0040C670 00 00 00 00 00 00 00 00 00 00 00 00 00 00 00 00 ................
0040C680 00 00 00 00 00 00 00 00 00 00 00 00 00 00 00 00 ................
0040C690 00 00 00 00 00 00 00 00 00 00 00 00 00 00 00 00 ................
0040C6A0 00 00 00 00 00 00 00 00 00 00 00 00 00 00 00 00 ................
0040C6B0 00 00 00 00 00 00 00 00 00 00 00 00 00 00 00 00 ................
0040C6C0 00 00 00 00 00 00 00 00 00 00 00 00 00 00 00 00 ................
0040C6D0 00 00 00 00 00 00 00 00 00 00 00 00 00 00 00 00 ................
0040C6E0 00 00 00 00 00 00 00 00 00 00 00 00 00 00 00 00 ................
0040C6F0 00 00 00 00 00 00 00 00 00 00 00 00 00 00 00 00 ................
0040C700 00 00 00 00 00 00 00 00 00 00 00 00 00 00 00 00 ................
0040C710 00 00 00 00 00 00 00 00 00 00 00 00 00 00 00 00 ................
0040C720 00 00 00 00 00 00 00 00 00 00 00 00 00 00 00 00 ................
0040C730 00 00 00 00 00 00 00 00 00 00 00 00 00 00 00 00 ................
0040C740 00 00 00 00 00 00 00 00 00 00 00 00 00 00 00 00 ................
0040C750 00 00 00 00 00 00 00 00 00 00 00 00 00 00 00 00 ................
0040C760 00 00 00 00 00 00 00 00 00 00 00 00 00 00 00 00 ................
0040C770 00 00 00 00 00 00 00 00 00 00 00 00 00 00 00 00 ................
0040C780 00 00 00 00 00 00 00 00 00 00 00 00 00 00 00 00 ................
0040C790 00 00 00 00 00 00 00 00 00 00 00 00 00 00 00 00 ................
0040C7A0 00 00 00 00 00 00 00 00 00 00 00 00 00 00 00 00 ................
0040C7B0 00 00 00 00 00 00 00 00 00 00 00 00 00 00 00 00 ................
0040C7C0 00 00 00 00 00 00 00 00 00 00 00 00 00 00 00 00 ................
0040C7D0 00 00 00 00 00 00 00 00 00 00 00 00 00 00 00 00 ................
0040C7E0 00 00 00 00 00 00 00 00 00 00 00 00 00 00 00 00 ................
0040C7F0 00 00 00 00 00 00 00 00 00 00 00 00 00 00 00 00 ................
0040C800 00 00 00 00 00 00 00 00 00 00 00 00 00 00 00 00 ................
0040C810 00 00 00 00 00 00 00 00 00 00 00 00 00 00 00 00 ................
0040C820 00 00 00 00 00 00 00 00 00 00 00 00 00 00 00 00 ................
0040C830 00 00 00 00 00 00 00 00 00 00 00 00 00 00 00 00 ................
0040C840 00 00 00 00 00 00 00 00 00 00 00 00 00 00 00 00 ................
0040C850 00 00 00 00 00 00 00 00 00 00 00 00 00 00 00 00 ................
0040C860 00 00 00 00 00 00 00 00 00 00 00 00 00 00 00 00 ................
0040C870 00 00 00 00 00 00 00 00 00 00 00 00 00 00 00 00 ................
0040C880 00 00 00 00 00 00 00 00 00 00 00 00 00 00 00 00 ................
0040C890 00 00 00 00 00 00 00 00 00 00 00 00 00 00 00 00 ................
0040C8A0 00 00 00 00 00 00 00 00 00 00 00 00 00 00 00 00 ................
0040C8B0 00 00 00 00 00 00 00 00 00 00 00 00 00 00 00 00 ................
0040C8C0 00 00 00 00 00 00 00 00 00 00 00 00 00 00 00 00 ................
0040C8D0 00 00 00 00 00 00 00 00 00 00 00 00 00 00 00 00 ................
0040C8E0 00 00 00 00 00 00 00 00 00 00 00 00 00 00 00 00 ................
0040C8F0 00 00 00 00 00 00 00 00 00 00 00 00 00 00 00 00 ................
0040C900 00 00 00 00 00 00 00 00 00 00 00 00 00 00 00 00 ................
0040C910 00 00 00 00 00 00 00 00 00 00 00 00 00 00 00 00 ................
0040C920 00 00 00 00 00 00 00 00 00 00 00 00 00 00 00 00 ................
0040C930 00 00 00 00 00 00 00 00 00 00 00 00 00 00 00 00 ................
0040C940 00 00 00 00 00 00 00 00 00 00 00 00 00 00 00 00 ................
0040C950 00 00 00 00 00 00 00 00 00 00 00 00 00 00 00 00 ................
0040C960 00 00 00 00 00 00 00 00 00 00 00 00 00 00 00 00 ................
0040C970 00 00 00 00 00 00 00 00 00 00 00 00 00 00 00 00 ................
0040C980 00 00 00 00 00 00 00 00 00 00 00 00 00 00 00 00 ................
0040C990 00 00 00 00 00 00 00 00 00 00 00 00 00 00 00 00 ................
0040C9A0 00 00 00 00 00 00 00 00 00 00 00 00 00 00 00 00 ................
0040C9B0 00 00 00 00 00 00 00 00 00 00 00 00 00 00 00 00 ................
0040C9C0 00 00 00 00 00 00 00 00 00 00 00 00 00 00 00 00 ................
0040C9D0 00 00 00 00 00 00 00 00 00 00 00 00 00 00 00 00 ................
0040C9E0 00 00 00 00 00 00 00 00 00 00 00 00 00 00 00 00 ................
0040C9F0 00 00 00 00 00 00 00 00 00 00 00 00 00 00 00 00 ................
0040CA00 00 00 00 00 00 00 00 00 00 00 00 00 00 00 00 00 ................
0040CA10 00 00 00 00 00 00 00 00 00 00 00 00 00 00 00 00 ................
0040CA20 00 00 00 00 00 00 00 00 00 00 00 00 00 00 00 00 ................
0040CA30 00 00 00 00 00 00 00 00 00 00 00 00 00 00 00 00 ................
0040CA40 00 00 00 00 00 00 00 00 00 00 00 00 00 00 00 00 ................
0040CA50 00 00 00 00 00 00 00 00 00 00 00 00 00 00 00 00 ................
0040CA60 00 00 00 00 00 00 00 00 00 00 00 00 00 00 00 00 ................
0040CA70 00 00 00 00 00 00 00 00 00 00 00 00 00 00 00 00 ................
0040CA80 00 00 00 00 00 00 00 00 00 00 00 00 00 00 00 00 ................
0040CA90 00 00 00 00 00 00 00 00 00 00 00 00 00 00 00 00 ................
0040CAA0 00 00 00 00 00 00 00 00 00 00 00 00 00 00 00 00 ................
0040CAB0 00 00 00 00 00 00 00 00 00 00 00 00 00 00 00 00 ................
0040CAC0 00 00 00 00 00 00 00 00 00 00 00 00 00 00 00 00 ................
0040CAD0 00 00 00 00 00 00 00 00 00 00 00 00 00 00 00 00 ................
0040CAE0 00 00 00 00 00 00 00 00 00 00 00 00 00 00 00 00 ................
0040CAF0 00 00 00 00 00 00 00 00 00 00 00 00 00 00 00 00 ................
0040CB00 00 00 00 00 00 00 00 00 00 00 00 00 00 00 00 00 ................
0040CB10 00 00 00 00 00 00 00 00 00 00 00 00 00 00 00 00 ................
0040CB20 00 00 00 00 00 00 00 00 00 00 00 00 00 00 00 00 ................
0040CB30 00 00 00 00 00 00 00 00 00 00 00 00 00 00 00 00 ................
0040CB40 00 00 00 00 00 00 00 00 00 00 00 00 00 00 00 00 ................
0040CB50 00 00 00 00 00 00 00 00 00 00 00 00 00 00 00 00 ................
0040CB60 00 00 00 00 00 00 00 00 00 00 00 00 00 00 00 00 ................
0040CB70 00 00 00 00 00 00 00 00 00 00 00 00 00 00 00 00 ................
0040CB80 00 00 00 00 00 00 00 00 00 00 00 00 00 00 00 00 ................
0040CB90 00 00 00 00 00 00 00 00 00 00 00 00 00 00 00 00 ................
0040CBA0 00 00 00 00 00 00 00 00 00 00 00 00 00 00 00 00 ................
0040CBB0 00 00 00 00 00 00 00 00 00 00 00 00 00 00 00 00 ................
0040CBC0 00 00 00 00 00 00 00 00 00 00 00 00 00 00 00 00 ................
0040CBD0 00 00 00 00 00 00 00 00 00 00 00 00 00 00 00 00 ................
0040CBE0 00 00 00 00 00 00 00 00 00 00 00 00 00 00 00 00 ................
0040CBF0 00 00 00 00 00 00 00 00 00 00 00 00 00 00 00 00 ................
0040CC00 00 00 00 00 00 00 00 00 00 00 00 00 00 00 00 00 ................
0040CC10 00 00 00 00 00 00 00 00 00 00 00 00 00 00 00 00 ................
0040CC20 00 00 00 00 00 00 00 00 00 00 00 00 00 00 00 00 ................
0040CC30 00 00 00 00 00 00 00 00 00 00 00 00 00 00 00 00 ................
0040CC40 00 00 00 00 00 00 00 00 00 00 00 00 00 00 00 00 ................
0040CC50 00 00 00 00 00 00 00 00 00 00 00 00 00 00 00 00 ................
0040CC60 00 00 00 00 00 00 00 00 00 00 00 00 00 00 00 00 ................
0040CC70 00 00 00 00 00 00 00 00 00 00 00 00 00 00 00 00 ................
0040CC80 00 00 00 00 00 00 00 00 00 00 00 00 00 00 00 00 ................
0040CC90 00 00 00 00 00 00 00 00 00 00 00 00 00 00 00 00 ................
0040CCA0 00 00 00 00 00 00 00 00 00 00 00 00 00 00 00 00 ................
0040CCB0 00 00 00 00 00 00 00 00 00 00 00 00 00 00 00 00 ................
0040CCC0 00 00 00 00 00 00 00 00 00 00 00 00 00 00 00 00 ................
0040CCD0 00 00 00 00 00 00 00 00 00 00 00 00 00 00 00 00 ................
0040CCE0 00 00 00 00 00 00 00 00 00 00 00 00 00 00 00 00 ................
0040CCF0 00 00 00 00 00 00 00 00 00 00 00 00 00 00 00 00 ................
0040CD00 00 00 00 00 00 00 00 00 00 00 00 00 00 00 00 00 ................
0040CD10 00 00 00 00 00 00 00 00 00 00 00 00 00 00 00 00 ................
0040CD20 00 00 00 00 00 00 00 00 00 00 00 00 00 00 00 00 ................
0040CD30 00 00 00 00 00 00 00 00 00 00 00 00 00 00 00 00 ................
0040CD40 00 00 00 00 00 00 00 00 00 00 00 00 00 00 00 00 ................
0040CD50 00 00 00 00 00 00 00 00 00 00 00 00 00 00 00 00 ................
0040CD60 00 00 00 00 00 00 00 00 00 00 00 00 00 00 00 00 ................
0040CD70 00 00 00 00 00 00 00 00 00 00 00 00 00 00 00 00 ................
0040CD80 00 00 00 00 00 00 00 00 00 00 00 00 00 00 00 00 ................
0040CD90 00 00 00 00 00 00 00 00 00 00 00 00 00 00 00 00 ................
0040CDA0 00 00 00 00 00 00 00 00 00 00 00 00 00 00 00 00 ................
0040CDB0 00 00 00 00 00 00 00 00 00 00 00 00 00 00 00 00 ................
0040CDC0 00 00 00 00 00 00 00 00 00 00 00 00 00 00 00 00 ................
0040CDD0 00 00 00 00 00 00 00 00 00 00 00 00 00 00 00 00 ................
0040CDE0 00 00 00 00 00 00 00 00 00 00 00 00 00 00 00 00 ................
0040CDF0 00 00 00 00 00 00 00 00 00 00 00 00 00 00 00 00 ................
0040CE00 00 00 00 00 00 00 00 00 00 00 00 00 00 00 00 00 ................
0040CE10 00 00 00 00 00 00 00 00 00 00 00 00 00 00 00 00 ................
0040CE20 00 00 00 00 00 00 00 00 00 00 00 00 00 00 00 00 ................
0040CE30 00 00 00 00 00 00 00 00 00 00 00 00 00 00 00 00 ................
0040CE40 00 00 00 00 00 00 00 00 00 00 00 00 00 00 00 00 ................
0040CE50 00 00 00 00 00 00 00 00 00 00 00 00 00 00 00 00 ................
0040CE60 00 00 00 00 00 00 00 00 00 00 00 00 00 00 00 00 ................
0040CE70 00 00 00 00 00 00 00 00 00 00 00 00 00 00 00 00 ................
0040CE80 00 00 00 00 00 00 00 00 00 00 00 00 00 00 00 00 ................
0040CE90 00 00 00 00 00 00 00 00 00 00 00 00 00 00 00 00 ................
0040CEA0 00 00 00 00 00 00 00 00 00 00 00 00 00 00 00 00 ................
0040CEB0 00 00 00 00 00 00 00 00 00 00 00 00 00 00 00 00 ................
0040CEC0 00 00 00 00 00 00 00 00 00 00 00 00 00 00 00 00 ................
0040CED0 00 00 00 00 00 00 00 00 00 00 00 00 00 00 00 00 ................
0040CEE0 00 00 00 00 00 00 00 00 00 00 00 00 00 00 00 00 ................
0040CEF0 00 00 00 00 00 00 00 00 00 00 00 00 00 00 00 00 ................
0040CF00 00 00 00 00 00 00 00 00 00 00 00 00 00 00 00 00 ................
0040CF10 00 00 00 00 00 00 00 00 00 00 00 00 00 00 00 00 ................
0040CF20 00 00 00 00 00 00 00 00 00 00 00 00 00 00 00 00 ................
0040CF30 00 00 00 00 00 00 00 00 00 00 00 00 00 00 00 00 ................
0040CF40 00 00 00 00 00 00 00 00 00 00 00 00 00 00 00 00 ................
0040CF50 00 00 00 00 00 00 00 00 00 00 00 00 00 00 00 00 ................
0040CF60 00 00 00 00 00 00 00 00 00 00 00 00 00 00 00 00 ................
0040CF70 00 00 00 00 00 00 00 00 00 00 00 00 00 00 00 00 ................
0040CF80 00 00 00 00 00 00 00 00 00 00 00 00 00 00 00 00 ................
0040CF90 00 00 00 00 00 00 00 00 00 00 00 00 00 00 00 00 ................
0040CFA0 00 00 00 00 00 00 00 00 00 00 00 00 00 00 00 00 ................
0040CFB0 00 00 00 00 00 00 00 00 00 00 00 00 00 00 00 00 ................
0040CFC0 00 00 00 00 00 00 00 00 00 00 00 00 00 00 00 00 ................
0040CFD0 00 00 00 00 00 00 00 00 00 00 00 00 00 00 00 00 ................
0040CFE0 00 00 00 00 00 00 00 00 00 00 00 00 00 00 00 00 ................
0040CFF0 00 00 00 00 00 00 00 00 00 00 00 00 00 00 00 00 ................
0040D000 00 00 00 00 00 00 00 00 00 00 00 00 00 00 00 00 ................
0040D010 00 00 00 00 00 00 00 00 00 00 00 00 00 00 00 00 ................
0040D020 00 00 00 00 00 00 00 00 00 00 00 00 00 00 00 00 ................
0040D030 00 00 00 00 00 00 00 00 00 00 00 00 00 00 00 00 ................
0040D040 00 00 00 00 00 00 00 00 00 00 00 00 00 00 00 00 ................
0040D050 00 00 00 00 00 00 00 00 00 00 00 00 00 00 00 00 ................
0040D060 00 00 00 00 00 00 00 00 00 00 00 00 00 00 00 00 ................
0040D070 00 00 00 00 00 00 00 00 00 00 00 00 00 00 00 00 ................
0040D080 00 00 00 00 00 00 00 00 00 00 00 00 00 00 00 00 ................
0040D090 00 00 00 00 00 00 00 00 00 00 00 00 00 00 00 00 ................
0040D0A0 00 00 00 00 00 00 00 00 00 00 00 00 00 00 00 00 ................
0040D0B0 00 00 00 00 00 00 00 00 00 00 00 00 00 00 00 00 ................
0040D0C0 00 00 00 00 00 00 00 00 00 00 00 00 00 00 00 00 ................
0040D0D0 00 00 00 00 00 00 00 00 00 00 00 00 00 00 00 00 ................
0040D0E0 00 00 00 00 00 00 00 00 00 00 00 00 00 00 00 00 ................
0040D0F0 00 00 00 00 00 00 00 00 00 00 00 00 00 00 00 00 ................
0040D100 00 00 00 00 00 00 00 00 00 00 00 00 00 00 00 00 ................
0040D110 00 00 00 00 00 00 00 00 00 00 00 00 00 00 00 00 ................
0040D120 00 00 00 00 00 00 00 00 00 00 00 00 00 00 00 00 ................
0040D130 00 00 00 00 00 00 00 00 00 00 00 00 00 00 00 00 ................
0040D140 00 00 00 00 00 00 00 00 00 00 00 00 00 00 00 00 ................
0040D150 00 00 00 00 00 00 00 00 00 00 00 00 00 00 00 00 ................
0040D160 00 00 00 00 00 00 00 00 00 00 00 00 00 00 00 00 ................
0040D170 00 00 00 00 00 00 00 00 00 00 00 00 00 00 00 00 ................
0040D180 00 00 00 00 00 00 00 00 00 00 00 00 00 00 00 00 ................
0040D190 00 00 00 00 00 00 00 00 00 00 00 00 00 00 00 00 ................
0040D1A0 00 00 00 00 00 00 00 00 00 00 00 00 00 00 00 00 ................
0040D1B0 00 00 00 00 00 00 00 00 00 00 00 00 00 00 00 00 ................
0040D1C0 00 00 00 00 00 00 00 00 00 00 00 00 00 00 00 00 ................
0040D1D0 00 00 00 00 00 00 00 00 00 00 00 00 00 00 00 00 ................
0040D1E0 00 00 00 00 00 00 00 00 00 00 00 00 00 00 00 00 ................
0040D1F0 00 00 00 00 00 00 00 00 00 00 00 00 00 00 00 00 ................
0040D200 00 00 00 00 00 00 00 00 00 00 00 00 00 00 00 00 ................
0040D210 00 00 00 00 00 00 00 00 00 00 00 00 00 00 00 00 ................
0040D220 00 00 00 00 00 00 00 00 00 00 00 00 00 00 00 00 ................
0040D230 00 00 00 00 00 00 00 00 00 00 00 00 00 00 00 00 ................
0040D240 00 00 00 00 00 00 00 00 00 00 00 00 00 00 00 00 ................
0040D250 00 00 00 00 00 00 00 00 00 00 00 00 00 00 00 00 ................
0040D260 00 00 00 00 00 00 00 00 00 00 00 00 00 00 00 00 ................
0040D270 00 00 00 00 00 00 00 00 00 00 00 00 00 00 00 00 ................
0040D280 00 00 00 00 00 00 00 00 00 00 00 00 00 00 00 00 ................
0040D290 00 00 00 00 00 00 00 00 00 00 00 00 00 00 00 00 ................
0040D2A0 00 00 00 00 00 00 00 00 00 00 00 00 00 00 00 00 ................
0040D2B0 00 00 00 00 00 00 00 00 00 00 00 00 00 00 00 00 ................
0040D2C0 00 00 00 00 00 00 00 00 00 00 00 00 00 00 00 00 ................
0040D2D0 00 00 00 00 00 00 00 00 00 00 00 00 00 00 00 00 ................
0040D2E0 00 00 00 00 00 00 00 00 00 00 00 00 00 00 00 00 ................
0040D2F0 00 00 00 00 00 00 00 00 00 00 00 00 00 00 00 00 ................
0040D300 00 00 00 00 00 00 00 00 00 00 00 00 00 00 00 00 ................
0040D310 00 00 00 00 00 00 00 00 00 00 00 00 00 00 00 00 ................
0040D320 00 00 00 00 00 00 00 00 00 00 00 00 00 00 00 00 ................
0040D330 00 00 00 00 00 00 00 00 00 00 00 00 00 00 00 00 ................
0040D340 00 00 00 00 00 00 00 00 00 00 00 00 00 00 00 00 ................
0040D350 00 00 00 00 00 00 00 00 00 00 00 00 00 00 00 00 ................
0040D360 00 00 00 00 00 00 00 00 00 00 00 00 00 00 00 00 ................
0040D370 00 00 00 00 00 00 00 00 00 00 00 00 00 00 00 00 ................
0040D380 00 00 00 00 00 00 00 00 00 00 00 00 00 00 00 00 ................
0040D390 00 00 00 00 00 00 00 00 00 00 00 00 00 00 00 00 ................
0040D3A0 00 00 00 00 00 00 00 00 00 00 00 00 00 00 00 00 ................
0040D3B0 00 00 00 00 00 00 00 00 00 00 00 00 00 00 00 00 ................
0040D3C0 00 00 00 00 00 00 00 00 00 00 00 00 00 00 00 00 ................
0040D3D0 00 00 00 00 00 00 00 00 00 00 00 00 00 00 00 00 ................
0040D3E0 00 00 00 00 00 00 00 00 00 00 00 00 00 00 00 00 ................
0040D3F0 00 00 00 00 00 00 00 00 00 00 00 00 00 00 00 00 ................
0040D400 00 00 00 00 00 00 00 00 00 00 00 00 00 00 00 00 ................
0040D410 00 00 00 00 00 00 00 00 00 00 00 00 00 00 00 00 ................
0040D420 00 00 00 00 00 00 00 00 00 00 00 00 00 00 00 00 ................
0040D430 00 00 00 00 00 00 00 00 00 00 00 00 00 00 00 00 ................
0040D440 00 00 00 00 00 00 00 00 00 00 00 00 00 00 00 00 ................
0040D450 00 00 00 00 00 00 00 00 00 00 00 00 00 00 00 00 ................
0040D460 00 00 00 00 00 00 00 00 00 00 00 00 00 00 00 00 ................
0040D470 00 00 00 00 00 00 00 00 00 00 00 00 00 00 00 00 ................
0040D480 00 00 00 00 00 00 00 00 00 00 00 00 00 00 00 00 ................
0040D490 00 00 00 00 00 00 00 00 00 00 00 00 00 00 00 00 ................
0040D4A0 00 00 00 00 00 00 00 00 00 00 00 00 00 00 00 00 ................
0040D4B0 00 00 00 00 00 00 00 00 00 00 00 00 00 00 00 00 ................
0040D4C0 00 00 00 00 00 00 00 00 00 00 00 00 00 00 00 00 ................
0040D4D0 00 00 00 00 00 00 00 00 00 00 00 00 00 00 00 00 ................
0040D4E0 00 00 00 00 00 00 00 00 00 00 00 00 00 00 00 00 ................
0040D4F0 00 00 00 00 00 00 00 00 00 00 00 00 00 00 00 00 ................
0040D500 00 00 00 00 00 00 00 00 00 00 00 00 00 00 00 00 ................
0040D510 00 00 00 00 00 00 00 00 00 00 00 00 00 00 00 00 ................
0040D520 00 00 00 00 00 00 00 00 00 00 00 00 00 00 00 00 ................
0040D530 00 00 00 00 00 00 00 00 00 00 00 00 00 00 00 00 ................
0040D540 00 00 00 00 00 00 00 00 00 00 00 00 00 00 00 00 ................
0040D550 00 00 00 00 00 00 00 00 00 00 00 00 00 00 00 00 ................
0040D560 00 00 00 00 00 00 00 00 00 00 00 00 00 00 00 00 ................
0040D570 00 00 00 00 00 00 00 00 00 00 00 00 00 00 00 00 ................
0040D580 00 00 00 00 00 00 00 00 00 00 00 00 00 00 00 00 ................
0040D590 00 00 00 00 00 00 00 00 00 00 00 00 00 00 00 00 ................
0040D5A0 00 00 00 00 00 00 00 00 00 00 00 00 00 00 00 00 ................
0040D5B0 00 00 00 00 00 00 00 00 00 00 00 00 00 00 00 00 ................
0040D5C0 00 00 00 00 00 00 00 00 00 00 00 00 00 00 00 00 ................
0040D5D0 00 00 00 00 00 00 00 00 00 00 00 00 00 00 00 00 ................
0040D5E0 00 00 00 00 00 00 00 00 00 00 00 00 00 00 00 00 ................
0040D5F0 00 00 00 00 00 00 00 00 00 00 00 00 00 00 00 00 ................
0040D600 00 00 00 00 00 00 00 00 00 00 00 00 00 00 00 00 ................
0040D610 00 00 00 00 00 00 00 00 00 00 00 00 00 00 00 00 ................
0040D620 00 00 00 00 00 00 00 00 00 00 00 00 00 00 00 00 ................
0040D630 00 00 00 00 00 00 00 00 00 00 00 00 00 00 00 00 ................
0040D640 00 00 00 00 00 00 00 00 00 00 00 00 00 00 00 00 ................
0040D650 00 00 00 00 00 00 00 00 00 00 00 00 00 00 00 00 ................
0040D660 00 00 00 00 00 00 00 00 00 00 00 00 00 00 00 00 ................
0040D670 00 00 00 00 00 00 00 00 00 00 00 00 00 00 00 00 ................
0040D680 00 00 00 00 00 00 00 00 00 00 00 00 00 00 00 00 ................
0040D690 00 00 00 00 00 00 00 00 00 00 00 00 00 00 00 00 ................
0040D6A0 00 00 00 00 00 00 00 00 00 00 00 00 00 00 00 00 ................
0040D6B0 00 00 00 00 00 00 00 00 00 00 00 00 00 00 00 00 ................
0040D6C0 00 00 00 00 00 00 00 00 00 00 00 00 00 00 00 00 ................
0040D6D0 00 00 00 00 00 00 00 00 00 00 00 00 00 00 00 00 ................
0040D6E0 00 00 00 00 00 00 00 00 00 00 00 00 00 00 00 00 ................
0040D6F0 00 00 00 00 00 00 00 00 00 00 00 00 00 00 00 00 ................
0040D700 00 00 00 00 00 00 00 00 00 00 00 00 00 00 00 00 ................
0040D710 00 00 00 00 00 00 00 00 00 00 00 00 00 00 00 00 ................
0040D720 00 00 00 00 00 00 00 00 00 00 00 00 00 00 00 00 ................
0040D730 00 00 00 00 00 00 00 00 00 00 00 00 00 00 00 00 ................
0040D740 00 00 00 00 00 00 00 00 00 00 00 00 00 00 00 00 ................
0040D750 00 00 00 00 00 00 00 00 00 00 00 00 00 00 00 00 ................
0040D760 00 00 00 00 00 00 00 00 00 00 00 00 00 00 00 00 ................
0040D770 00 00 00 00 00 00 00 00 00 00 00 00 00 00 00 00 ................
0040D780 00 00 00 00 00 00 00 00 00 00 00 00 00 00 00 00 ................
0040D790 00 00 00 00 00 00 00 00 00 00 00 00 00 00 00 00 ................
0040D7A0 00 00 00 00 00 00 00 00 00 00 00 00 00 00 00 00 ................
0040D7B0 00 00 00 00 00 00 00 00 00 00 00 00 00 00 00 00 ................
0040D7C0 00 00 00 00 00 00 00 00 00 00 00 00 00 00 00 00 ................
0040D7D0 00 00 00 00 00 00 00 00 00 00 00 00 00 00 00 00 ................
0040D7E0 00 00 00 00 00 00 00 00 00 00 00 00 00 00 00 00 ................
0040D7F0 00 00 00 00 00 00 00 00 00 00 00 00 00 00 00 00 ................
0040D800 00 00 00 00 00 00 00 00 00 00 00 00 00 00 00 00 ................
0040D810 00 00 00 00 00 00 00 00 00 00 00 00 00 00 00 00 ................
0040D820 00 00 00 00 00 00 00 00 00 00 00 00 00 00 00 00 ................
0040D830 00 00 00 00 00 00 00 00 00 00 00 00 00 00 00 00 ................
0040D840 00 00 00 00 00 00 00 00 00 00 00 00 00 00 00 00 ................
0040D850 00 00 00 00 00 00 00 00 00 00 00 00 00 00 00 00 ................
0040D860 00 00 00 00 00 00 00 00 00 00 00 00 00 00 00 00 ................
0040D870 00 00 00 00 00 00 00 00 00 00 00 00 00 00 00 00 ................
0040D880 00 00 00 00 00 00 00 00 00 00 00 00 00 00 00 00 ................
0040D890 00 00 00 00 00 00 00 00 00 00 00 00 00 00 00 00 ................
0040D8A0 00 00 00 00 00 00 00 00 00 00 00 00 00 00 00 00 ................
0040D8B0 00 00 00 00 00 00 00 00 00 00 00 00 00 00 00 00 ................
0040D8C0 00 00 00 00 00 00 00 00 00 00 00 00 00 00 00 00 ................
0040D8D0 00 00 00 00 00 00 00 00 00 00 00 00 00 00 00 00 ................
0040D8E0 00 00 00 00 00 00 00 00 00 00 00 00 00 00 00 00 ................
0040D8F0 00 00 00 00 00 00 00 00 00 00 00 00 00 00 00 00 ................
0040D900 00 00 00 00 00 00 00 00 00 00 00 00 00 00 00 00 ................
0040D910 00 00 00 00 00 00 00 00 00 00 00 00 00 00 00 00 ................
0040D920 00 00 00 00 00 00 00 00 00 00 00 00 00 00 00 00 ................
0040D930 00 00 00 00 00 00 00 00 00 00 00 00 00 00 00 00 ................
0040D940 00 00 00 00 00 00 00 00 00 00 00 00 00 00 00 00 ................
0040D950 00 00 00 00 00 00 00 00 00 00 00 00 00 00 00 00 ................
0040D960 00 00 00 00 00 00 00 00 00 00 00 00 00 00 00 00 ................
0040D970 00 00 00 00 00 00 00 00 00 00 00 00 00 00 00 00 ................
0040D980 00 00 00 00 00 00 00 00 00 00 00 00 00 00 00 00 ................
0040D990 00 00 00 00 00 00 00 00 00 00 00 00 00 00 00 00 ................
0040D9A0 00 00 00 00 00 00 00 00 00 00 00 00 00 00 00 00 ................
0040D9B0 00 00 00 00 00 00 00 00 00 00 00 00 00 00 00 00 ................
0040D9C0 00 00 00 00 00 00 00 00 00 00 00 00 00 00 00 00 ................
0040D9D0 00 00 00 00 00 00 00 00 00 00 00 00 00 00 00 00 ................
0040D9E0 00 00 00 00 00 00 00 00 00 00 00 00 00 00 00 00 ................
0040D9F0 00 00 00 00 00 00 00 00 00 00 00 00 00 00 00 00 ................
0040DA00 00 00 00 00 00 00 00 00 00 00 00 00 00 00 00 00 ................
0040DA10 00 00 00 00 00 00 00 00 00 00 00 00 00 00 00 00 ................
0040DA20 00 00 00 00 00 00 00 00 00 00 00 00 00 00 00 00 ................
0040DA30 00 00 00 00 00 00 00 00 00 00 00 00 00 00 00 00 ................
0040DA40 00 00 00 00 00 00 00 00 00 00 00 00 00 00 00 00 ................
0040DA50 00 00 00 00 00 00 00 00 00 00 00 00 00 00 00 00 ................
0040DA60 00 00 00 00 00 00 00 00 00 00 00 00 00 00 00 00 ................
0040DA70 00 00 00 00 00 00 00 00 00 00 00 00 00 00 00 00 ................
0040DA80 00 00 00 00 00 00 00 00 00 00 00 00 00 00 00 00 ................
0040DA90 00 00 00 00 00 00 00 00 00 00 00 00 00 00 00 00 ................
0040DAA0 00 00 00 00 00 00 00 00 00 00 00 00 00 00 00 00 ................
0040DAB0 00 00 00 00 00 00 00 00 00 00 00 00 00 00 00 00 ................
0040DAC0 00 00 00 00 00 00 00 00 00 00 00 00 00 00 00 00 ................
0040DAD0 00 00 00 00 00 00 00 00 00 00 00 00 00 00 00 00 ................
0040DAE0 00 00 00 00 00 00 00 00 00 00 00 00 00 00 00 00 ................
0040DAF0 00 00 00 00 00 00 00 00 00 00 00 00 00 00 00 00 ................
0040DB00 00 00 00 00 00 00 00 00 00 00 00 00 00 00 00 00 ................
0040DB10 00 00 00 00 00 00 00 00 00 00 00 00 00 00 00 00 ................
0040DB20 00 00 00 00 00 00 00 00 00 00 00 00 00 00 00 00 ................
0040DB30 00 00 00 00 00 00 00 00 00 00 00 00 00 00 00 00 ................
0040DB40 00 00 00 00 00 00 00 00 00 00 00 00 00 00 00 00 ................
0040DB50 00 00 00 00 00 00 00 00 00 00 00 00 00 00 00 00 ................
0040DB60 00 00 00 00 00 00 00 00 00 00 00 00 00 00 00 00 ................
0040DB70 00 00 00 00 00 00 00 00 00 00 00 00 00 00 00 00 ................
0040DB80 00 00 00 00 00 00 00 00 00 00 00 00 00 00 00 00 ................
0040DB90 00 00 00 00 00 00 00 00 00 00 00 00 00 00 00 00 ................
0040DBA0 00 00 00 00 00 00 00 00 00 00 00 00 00 00 00 00 ................
0040DBB0 00 00 00 00 00 00 00 00 00 00 00 00 00 00 00 00 ................
0040DBC0 00 00 00 00 00 00 00 00 00 00 00 00 00 00 00 00 ................
0040DBD0 00 00 00 00 00 00 00 00 00 00 00 00 00 00 00 00 ................
0040DBE0 00 00 00 00 00 00 00 00 00 00 00 00 00 00 00 00 ................
0040DBF0 00 00 00 00 00 00 00 00 00 00 00 00 00 00 00 00 ................
0040DC00 00 00 00 00 00 00 00 00 00 00 00 00 00 00 00 00 ................
0040DC10 00 00 00 00 00 00 00 00 00 00 00 00 00 00 00 00 ................
0040DC20 00 00 00 00 00 00 00 00 00 00 00 00 00 00 00 00 ................
0040DC30 00 00 00 00 00 00 00 00 00 00 00 00 00 00 00 00 ................
0040DC40 00 00 00 00 00 00 00 00 00 00 00 00 00 00 00 00 ................
0040DC50 00 00 00 00 00 00 00 00 00 00 00 00 00 00 00 00 ................
0040DC60 00 00 00 00 00 00 00 00 00 00 00 00 00 00 00 00 ................
0040DC70 00 00 00 00 00 00 00 00 00 00 00 00 00 00 00 00 ................
0040DC80 00 00 00 00 00 00 00 00 00 00 00 00 00 00 00 00 ................
0040DC90 00 00 00 00 00 00 00 00 00 00 00 00 00 00 00 00 ................
0040DCA0 00 00 00 00 00 00 00 00 00 00 00 00 00 00 00 00 ................
0040DCB0 00 00 00 00 00 00 00 00 00 00 00 00 00 00 00 00 ................
0040DCC0 00 00 00 00 00 00 00 00 00 00 00 00 00 00 00 00 ................
0040DCD0 00 00 00 00 00 00 00 00 00 00 00 00 00 00 00 00 ................
0040DCE0 00 00 00 00 00 00 00 00 00 00 00 00 00 00 00 00 ................
0040DCF0 00 00 00 00 00 00 00 00 00 00 00 00 00 00 00 00 ................
0040DD00 00 00 00 00 00 00 00 00 00 00 00 00 00 00 00 00 ................
0040DD10 00 00 00 00 00 00 00 00 00 00 00 00 00 00 00 00 ................
0040DD20 00 00 00 00 00 00 00 00 00 00 00 00 00 00 00 00 ................
0040DD30 00 00 00 00 00 00 00 00 00 00 00 00 00 00 00 00 ................
0040DD40 00 00 00 00 00 00 00 00 00 00 00 00 00 00 00 00 ................
0040DD50 00 00 00 00 00 00 00 00 00 00 00 00 00 00 00 00 ................
0040DD60 00 00 00 00 00 00 00 00 00 00 00 00 00 00 00 00 ................
0040DD70 00 00 00 00 00 00 00 00 00 00 00 00 00 00 00 00 ................
0040DD80 00 00 00 00 00 00 00 00 00 00 00 00 00 00 00 00 ................
0040DD90 00 00 00 00 00 00 00 00 00 00 00 00 00 00 00 00 ................
0040DDA0 00 00 00 00 00 00 00 00 00 00 00 00 00 00 00 00 ................
0040DDB0 00 00 00 00 00 00 00 00 00 00 00 00 00 00 00 00 ................
0040DDC0 00 00 00 00 00 00 00 00 00 00 00 00 00 00 00 00 ................
0040DDD0 00 00 00 00 00 00 00 00 00 00 00 00 00 00 00 00 ................
0040DDE0 00 00 00 00 00 00 00 00 00 00 00 00 00 00 00 00 ................
0040DDF0 00 00 00 00 00 00 00 00 00 00 00 00 00 00 00 00 ................
0040DE00 00 00 00 00 00 00 00 00 00 00 00 00 00 00 00 00 ................
0040DE10 00 00 00 00 00 00 00 00 00 00 00 00 00 00 00 00 ................
0040DE20 00 00 00 00 00 00 00 00 00 00 00 00 00 00 00 00 ................
0040DE30 00 00 00 00 00 00 00 00 00 00 00 00 00 00 00 00 ................
0040DE40 00 00 00 00 00 00 00 00 00 00 00 00 00 00 00 00 ................
0040DE50 00 00 00 00 00 00 00 00 00 00 00 00 00 00 00 00 ................
0040DE60 00 00 00 00 00 00 00 00 00 00 00 00 00 00 00 00 ................
0040DE70 00 00 00 00 00 00 00 00 00 00 00 00 00 00 00 00 ................
0040DE80 00 00 00 00 00 00 00 00 00 00 00 00 00 00 00 00 ................
0040DE90 00 00 00 00 00 00 00 00 00 00 00 00 00 00 00 00 ................
0040DEA0 00 00 00 00 00 00 00 00 00 00 00 00 00 00 00 00 ................
0040DEB0 00 00 00 00 00 00 00 00 00 00 00 00 00 00 00 00 ................
0040DEC0 00 00 00 00 00 00 00 00 00 00 00 00 00 00 00 00 ................
0040DED0 00 00 00 00 00 00 00 00 00 00 00 00 00 00 00 00 ................
0040DEE0 00 00 00 00 00 00 00 00 00 00 00 00 00 00 00 00 ................
0040DEF0 00 00 00 00 00 00 00 00 00 00 00 00 00 00 00 00 ................
0040DF00 00 00 00 00 00 00 00 00 00 00 00 00 00 00 00 00 ................
0040DF10 00 00 00 00 00 00 00 00 00 00 00 00 00 00 00 00 ................
0040DF20 00 00 00 00 00 00 00 00 00 00 00 00 00 00 00 00 ................
0040DF30 00 00 00 00 00 00 00 00 00 00 00 00 00 00 00 00 ................
0040DF40 00 00 00 00 00 00 00 00 00 00 00 00 00 00 00 00 ................
0040DF50 00 00 00 00 00 00 00 00 00 00 00 00 00 00 00 00 ................
0040DF60 00 00 00 00 00 00 00 00 00 00 00 00 00 00 00 00 ................
0040DF70 00 00 00 00 00 00 00 00 00 00 00 00 00 00 00 00 ................
0040DF80 00 00 00 00 00 00 00 00 00 00 00 00 00 00 00 00 ................
0040DF90 00 00 00 00 00 00 00 00 00 00 00 00 00 00 00 00 ................
0040DFA0 00 00 00 00 00 00 00 00 00 00 00 00 00 00 00 00 ................
0040DFB0 00 00 00 00 00 00 00 00 00 00 00 00 00 00 00 00 ................
0040DFC0 00 00 00 00 00 00 00 00 00 00 00 00 00 00 00 00 ................
0040DFD0 00 00 00 00 00 00 00 00 00 00 00 00 00 00 00 00 ................
0040DFE0 00 00 00 00 00 00 00 00 00 00 00 00 00 00 00 00 ................
0040DFF0 00 00 00 00 00 00 00 00 00 00 00 00 00 00 00 00 ................
0040E000 00 00 00 00 00 00 00 00 00 00 00 00 00 00 00 00 ................
0040E010 00 00 00 00 00 00 00 00 00 00 00 00 00 00 00 00 ................
0040E020 00 00 00 00 00 00 00 00 00 00 00 00 00 00 00 00 ................
0040E030 00 00 00 00 00 00 00 00 00 00 00 00 00 00 00 00 ................
0040E040 00 00 00 00 00 00 00 00 00 00 00 00 00 00 00 00 ................
0040E050 00 00 00 00 00 00 00 00 00 00 00 00 00 00 00 00 ................
0040E060 00 00 00 00 00 00 00 00 00 00 00 00 00 00 00 00 ................
0040E070 00 00 00 00 00 00 00 00 00 00 00 00 00 00 00 00 ................
0040E080 00 00 00 00 00 00 00 00 00 00 00 00 00 00 00 00 ................
0040E090 00 00 00 00 00 00 00 00 00 00 00 00 00 00 00 00 ................
0040E0A0 00 00 00 00 00 00 00 00 00 00 00 00 00 00 00 00 ................
0040E0B0 00 00 00 00 00 00 00 00 00 00 00 00 00 00 00 00 ................
0040E0C0 00 00 00 00 00 00 00 00 00 00 00 00 00 00 00 00 ................
0040E0D0 00 00 00 00 00 00 00 00 00 00 00 00 00 00 00 00 ................
0040E0E0 00 00 00 00 00 00 00 00 00 00 00 00 00 00 00 00 ................
0040E0F0 00 00 00 00 00 00 00 00 00 00 00 00 00 00 00 00 ................
0040E100 00 00 00 00 00 00 00 00 00 00 00 00 00 00 00 00 ................
0040E110 00 00 00 00 00 00 00 00 00 00 00 00 00 00 00 00 ................
0040E120 00 00 00 00 00 00 00 00 00 00 00 00 00 00 00 00 ................
0040E130 00 00 00 00 00 00 00 00 00 00 00 00 00 00 00 00 ................
0040E140 00 00 00 00 00 00 00 00 00 00 00 00 00 00 00 00 ................
0040E150 00 00 00 00 00 00 00 00 00 00 00 00 00 00 00 00 ................
0040E160 00 00 00 00 00 00 00 00 00 00 00 00 00 00 00 00 ................
0040E170 00 00 00 00 00 00 00 00 00 00 00 00 00 00 00 00 ................
0040E180 00 00 00 00 00 00 00 00 00 00 00 00 00 00 00 00 ................
0040E190 00 00 00 00 00 00 00 00 00 00 00 00 00 00 00 00 ................
0040E1A0 00 00 00 00 00 00 00 00 00 00 00 00 00 00 00 00 ................
0040E1B0 00 00 00 00 00 00 00 00 00 00 00 00 00 00 00 00 ................
0040E1C0 00 00 00 00 00 00 00 00 00 00 00 00 00 00 00 00 ................
0040E1D0 00 00 00 00 00 00 00 00 00 00 00 00 00 00 00 00 ................
0040E1E0 00 00 00 00 00 00 00 00 00 00 00 00 00 00 00 00 ................
0040E1F0 00 00 00 00 00 00 00 00 00 00 00 00 00 00 00 00 ................
0040E200 00 00 00 00 00 00 00 00 00 00 00 00 00 00 00 00 ................
0040E210 00 00 00 00 00 00 00 00 00 00 00 00 00 00 00 00 ................
0040E220 00 00 00 00 00 00 00 00 00 00 00 00 00 00 00 00 ................
0040E230 00 00 00 00 00 00 00 00 00 00 00 00 00 00 00 00 ................
0040E240 00 00 00 00 00 00 00 00 00 00 00 00 00 00 00 00 ................
0040E250 00 00 00 00 00 00 00 00 00 00 00 00 00 00 00 00 ................
0040E260 00 00 00 00 00 00 00 00 00 00 00 00 00 00 00 00 ................
0040E270 00 00 00 00 00 00 00 00 00 00 00 00 00 00 00 00 ................
0040E280 00 00 00 00 00 00 00 00 00 00 00 00 00 00 00 00 ................
0040E290 00 00 00 00 00 00 00 00 00 00 00 00 00 00 00 00 ................
0040E2A0 00 00 00 00 00 00 00 00 00 00 00 00 00 00 00 00 ................
0040E2B0 00 00 00 00 00 00 00 00 00 00 00 00 00 00 00 00 ................
0040E2C0 00 00 00 00 00 00 00 00 00 00 00 00 00 00 00 00 ................
0040E2D0 00 00 00 00 00 00 00 00 00 00 00 00 00 00 00 00 ................
0040E2E0 00 00 00 00 00 00 00 00 00 00 00 00 00 00 00 00 ................
0040E2F0 00 00 00 00 00 00 00 00 00 00 00 00 00 00 00 00 ................
0040E300 00 00 00 00 00 00 00 00 00 00 00 00 00 00 00 00 ................
0040E310 00 00 00 00 00 00 00 00 00 00 00 00 00 00 00 00 ................
0040E320 00 00 00 00 00 00 00 00 00 00 00 00 00 00 00 00 ................
0040E330 00 00 00 00 00 00 00 00 00 00 00 00 00 00 00 00 ................
0040E340 00 00 00 00 00 00 00 00 00 00 00 00 00 00 00 00 ................
0040E350 00 00 00 00 00 00 00 00 00 00 00 00 00 00 00 00 ................
0040E360 00 00 00 00 00 00 00 00 00 00 00 00 00 00 00 00 ................
0040E370 00 00 00 00 00 00 00 00 00 00 00 00 00 00 00 00 ................
0040E380 00 00 00 00 00 00 00 00 00 00 00 00 00 00 00 00 ................
0040E390 00 00 00 00 00 00 00 00 00 00 00 00 00 00 00 00 ................
0040E3A0 00 00 00 00 00 00 00 00 00 00 00 00 00 00 00 00 ................
0040E3B0 00 00 00 00 00 00 00 00 00 00 00 00 00 00 00 00 ................
0040E3C0 00 00 00 00 00 00 00 00 00 00 00 00 00 00 00 00 ................
0040E3D0 00 00 00 00 00 00 00 00 00 00 00 00 00 00 00 00 ................
0040E3E0 00 00 00 00 00 00 00 00 00 00 00 00 00 00 00 00 ................
0040E3F0 00 00 00 00 00 00 00 00 00 00 00 00 00 00 00 00 ................
0040E400 00 00 00 00 00 00 00 00 00 00 00 00 00 00 00 00 ................
0040E410 00 00 00 00 00 00 00 00 00 00 00 00 00 00 00 00 ................
0040E420 00 00 00 00 00 00 00 00 00 00 00 00 00 00 00 00 ................
0040E430 00 00 00 00 00 00 00 00 00 00 00 00 00 00 00 00 ................
0040E440 00 00 00 00 00 00 00 00 00 00 00 00 00 00 00 00 ................
0040E450 00 00 00 00 00 00 00 00 00 00 00 00 00 00 00 00 ................
0040E460 00 00 00 00 00 00 00 00 00 00 00 00 00 00 00 00 ................
0040E470 00 00 00 00 00 00 00 00 00 00 00 00 00 00 00 00 ................
0040E480 00 00 00 00 00 00 00 00 00 00 00 00 00 00 00 00 ................
0040E490 00 00 00 00 00 00 00 00 00 00 00 00 00 00 00 00 ................
0040E4A0 00 00 00 00 00 00 00 00 00 00 00 00 00 00 00 00 ................
0040E4B0 00 00 00 00 00 00 00 00 00 00 00 00 00 00 00 00 ................
0040E4C0 00 00 00 00 00 00 00 00 00 00 00 00 00 00 00 00 ................
0040E4D0 00 00 00 00 00 00 00 00 00 00 00 00 00 00 00 00 ................
0040E4E0 00 00 00 00 00 00 00 00 00 00 00 00 00 00 00 00 ................
0040E4F0 00 00 00 00 00 00 00 00 00 00 00 00 00 00 00 00 ................
0040E500 00 00 00 00 00 00 00 00 00 00 00 00 00 00 00 00 ................
0040E510 00 00 00 00 00 00 00 00 00 00 00 00 00 00 00 00 ................
0040E520 00 00 00 00 00 00 00 00 00 00 00 00 00 00 00 00 ................
0040E530 00 00 00 00 00 00 00 00 00 00 00 00 00 00 00 00 ................
0040E540 00 00 00 00 00 00 00 00 00 00 00 00 00 00 00 00 ................
0040E550 00 00 00 00 00 00 00 00 00 00 00 00 00 00 00 00 ................
0040E560 00 00 00 00 00 00 00 00 00 00 00 00 00 00 00 00 ................
0040E570 00 00 00 00 00 00 00 00 00 00 00 00 00 00 00 00 ................
0040E580 00 00 00 00 00 00 00 00 00 00 00 00 00 00 00 00 ................
0040E590 00 00 00 00 00 00 00 00 00 00 00 00 00 00 00 00 ................
0040E5A0 00 00 00 00 00 00 00 00 00 00 00 00 00 00 00 00 ................
0040E5B0 00 00 00 00 00 00 00 00 00 00 00 00 00 00 00 00 ................
0040E5C0 00 00 00 00 00 00 00 00 00 00 00 00 00 00 00 00 ................
0040E5D0 00 00 00 00 00 00 00 00 00 00 00 00 00 00 00 00 ................
0040E5E0 00 00 00 00 00 00 00 00 00 00 00 00 00 00 00 00 ................
0040E5F0 00 00 00 00 00 00 00 00 00 00 00 00 00 00 00 00 ................
0040E600 00 00 00 00 00 00 00 00 00 00 00 00 00 00 00 00 ................
0040E610 00 00 00 00 00 00 00 00 00 00 00 00 00 00 00 00 ................
0040E620 00 00 00 00 00 00 00 00 00 00 00 00 00 00 00 00 ................
0040E630 00 00 00 00 00 00 00 00 00 00 00 00 00 00 00 00 ................
0040E640 00 00 00 00 00 00 00 00 00 00 00 00 00 00 00 00 ................
0040E650 00 00 00 00 00 00 00 00 00 00 00 00 00 00 00 00 ................
0040E660 00 00 00 00 00 00 00 00 00 00 00 00 00 00 00 00 ................
0040E670 00 00 00 00 00 00 00 00 00 00 00 00 00 00 00 00 ................
0040E680 00 00 00 00 00 00 00 00 00 00 00 00 00 00 00 00 ................
0040E690 00 00 00 00 00 00 00 00 00 00 00 00 00 00 00 00 ................
0040E6A0 00 00 00 00 00 00 00 00 00 00 00 00 00 00 00 00 ................
0040E6B0 00 00 00 00 00 00 00 00 00 00 00 00 00 00 00 00 ................
0040E6C0 00 00 00 00 00 00 00 00 00 00 00 00 00 00 00 00 ................
0040E6D0 00 00 00 00 00 00 00 00 00 00 00 00 00 00 00 00 ................
0040E6E0 00 00 00 00 00 00 00 00 00 00 00 00 00 00 00 00 ................
0040E6F0 00 00 00 00 00 00 00 00 00 00 00 00 00 00 00 00 ................
0040E700 00 00 00 00 00 00 00 00 00 00 00 00 00 00 00 00 ................
0040E710 00 00 00 00 00 00 00 00 00 00 00 00 00 00 00 00 ................
0040E720 00 00 00 00 00 00 00 00 00 00 00 00 00 00 00 00 ................
0040E730 00 00 00 00 00 00 00 00 00 00 00 00 00 00 00 00 ................
0040E740 00 00 00 00 00 00 00 00 00 00 00 00 00 00 00 00 ................
0040E750 00 00 00 00 00 00 00 00 00 00 00 00 00 00 00 00 ................
0040E760 00 00 00 00 00 00 00 00 00 00 00 00 00 00 00 00 ................
0040E770 00 00 00 00 00 00 00 00 00 00 00 00 00 00 00 00 ................
0040E780 00 00 00 00 00 00 00 00 00 00 00 00 00 00 00 00 ................
0040E790 00 00 00 00 00 00 00 00 00 00 00 00 00 00 00 00 ................
0040E7A0 00 00 00 00 00 00 00 00 00 00 00 00 00 00 00 00 ................
0040E7B0 00 00 00 00 00 00 00 00 00 00 00 00 00 00 00 00 ................
0040E7C0 00 00 00 00 00 00 00 00 00 00 00 00 00 00 00 00 ................
0040E7D0 00 00 00 00 00 00 00 00 00 00 00 00 00 00 00 00 ................
0040E7E0 00 00 00 00 00 00 00 00 00 00 00 00 00 00 00 00 ................
0040E7F0 00 00 00 00 00 00 00 00 00 00 00 00 00 00 00 00 ................
0040E800 00 00 00 00 00 00 00 00 00 00 00 00 00 00 00 00 ................
0040E810 00 00 00 00 00 00 00 00 00 00 00 00 00 00 00 00 ................
0040E820 00 00 00 00 00 00 00 00 00 00 00 00 00 00 00 00 ................
0040E830 00 00 00 00 00 00 00 00 00 00 00 00 00 00 00 00 ................
0040E840 00 00 00 00 00 00 00 00 00 00 00 00 00 00 00 00 ................
0040E850 00 00 00 00 00 00 00 00 00 00 00 00 00 00 00 00 ................
0040E860 00 00 00 00 00 00 00 00 00 00 00 00 00 00 00 00 ................
0040E870 00 00 00 00 00 00 00 00 00 00 00 00 00 00 00 00 ................
0040E880 00 00 00 00 00 00 00 00 00 00 00 00 00 00 00 00 ................
0040E890 00 00 00 00 00 00 00 00 00 00 00 00 00 00 00 00 ................
0040E8A0 00 00 00 00 00 00 00 00 00 00 00 00 00 00 00 00 ................
0040E8B0 00 00 00 00 00 00 00 00 00 00 00 00 00 00 00 00 ................
0040E8C0 00 00 00 00 00 00 00 00 00 00 00 00 00 00 00 00 ................
0040E8D0 00 00 00 00 00 00 00 00 00 00 00 00 00 00 00 00 ................
0040E8E0 00 00 00 00 00 00 00 00 00 00 00 00 00 00 00 00 ................
0040E8F0 00 00 00 00 00 00 00 00 00 00 00 00 00 00 00 00 ................
0040E900 00 00 00 00 00 00 00 00 00 00 00 00 00 00 00 00 ................
0040E910 00 00 00 00 00 00 00 00 00 00 00 00 00 00 00 00 ................
0040E920 00 00 00 00 00 00 00 00 00 00 00 00 00 00 00 00 ................
0040E930 00 00 00 00 00 00 00 00 00 00 00 00 00 00 00 00 ................
0040E940 00 00 00 00 00 00 00 00 00 00 00 00 00 00 00 00 ................
0040E950 00 00 00 00 00 00 00 00 00 00 00 00 00 00 00 00 ................
0040E960 00 00 00 00 00 00 00 00 00 00 00 00 00 00 00 00 ................
0040E970 00 00 00 00 00 00 00 00 00 00 00 00 00 00 00 00 ................
0040E980 00 00 00 00 00 00 00 00 00 00 00 00 00 00 00 00 ................
0040E990 00 00 00 00 00 00 00 00 00 00 00 00 00 00 00 00 ................
0040E9A0 00 00 00 00 00 00 00 00 00 00 00 00 00 00 00 00 ................
0040E9B0 00 00 00 00 00 00 00 00 00 00 00 00 00 00 00 00 ................
0040E9C0 00 00 00 00 00 00 00 00 00 00 00 00 00 00 00 00 ................
0040E9D0 00 00 00 00 00 00 00 00 00 00 00 00 00 00 00 00 ................
0040E9E0 00 00 00 00 00 00 00 00 00 00 00 00 00 00 00 00 ................
0040E9F0 00 00 00 00 00 00 00 00 00 00 00 00 00 00 00 00 ................
0040EA00 00 00 00 00 00 00 00 00 00 00 00 00 00 00 00 00 ................
0040EA10 00 00 00 00 00 00 00 00 00 00 00 00 00 00 00 00 ................
0040EA20 00 00 00 00 00 00 00 00 00 00 00 00 00 00 00 00 ................
0040EA30 00 00 00 00 00 00 00 00 00 00 00 00 00 00 00 00 ................
0040EA40 00 00 00 00 00 00 00 00 00 00 00 00 00 00 00 00 ................
0040EA50 00 00 00 00 00 00 00 00 00 00 00 00 00 00 00 00 ................
0040EA60 00 00 00 00 00 00 00 00 00 00 00 00 00 00 00 00 ................
0040EA70 00 00 00 00 00 00 00 00 00 00 00 00 00 00 00 00 ................
0040EA80 00 00 00 00 00 00 00 00 00 00 00 00 00 00 00 00 ................
0040EA90 00 00 00 00 00 00 00 00 00 00 00 00 00 00 00 00 ................
0040EAA0 00 00 00 00 00 00 00 00 00 00 00 00 00 00 00 00 ................
0040EAB0 00 00 00 00 00 00 00 00 00 00 00 00 00 00 00 00 ................
0040EAC0 00 00 00 00 00 00 00 00 00 00 00 00 00 00 00 00 ................
0040EAD0 00 00 00 00 00 00 00 00 00 00 00 00 00 00 00 00 ................
0040EAE0 00 00 00 00 00 00 00 00 00 00 00 00 00 00 00 00 ................
0040EAF0 00 00 00 00 00 00 00 00 00 00 00 00 00 00 00 00 ................
0040EB00 00 00 00 00 00 00 00 00 00 00 00 00 00 00 00 00 ................
0040EB10 00 00 00 00 00 00 00 00 00 00 00 00 00 00 00 00 ................
0040EB20 00 00 00 00 00 00 00 00 00 00 00 00 00 00 00 00 ................
0040EB30 00 00 00 00 00 00 00 00 00 00 00 00 00 00 00 00 ................
0040EB40 00 00 00 00 00 00 00 00 00 00 00 00 00 00 00 00 ................
0040EB50 00 00 00 00 00 00 00 00 00 00 00 00 00 00 00 00 ................
0040EB60 00 00 00 00 00 00 00 00 00 00 00 00 00 00 00 00 ................
0040EB70 00 00 00 00 00 00 00 00 00 00 00 00 00 00 00 00 ................
0040EB80 00 00 00 00 00 00 00 00 00 00 00 00 00 00 00 00 ................
0040EB90 00 00 00 00 00 00 00 00 00 00 00 00 00 00 00 00 ................
0040EBA0 00 00 00 00 00 00 00 00 00 00 00 00 00 00 00 00 ................
0040EBB0 00 00 00 00 00 00 00 00 00 00 00 00 00 00 00 00 ................
0040EBC0 00 00 00 00 00 00 00 00 00 00 00 00 00 00 00 00 ................
0040EBD0 00 00 00 00 00 00 00 00 00 00 00 00 00 00 00 00 ................
0040EBE0 00 00 00 00 00 00 00 00 00 00 00 00 00 00 00 00 ................
0040EBF0 00 00 00 00 00 00 00 00 00 00 00 00 00 00 00 00 ................
0040EC00 00 00 00 00 00 00 00 00 00 00 00 00 00 00 00 00 ................
0040EC10 00 00 00 00 00 00 00 00 00 00 00 00 00 00 00 00 ................
0040EC20 00 00 00 00 00 00 00 00 00 00 00 00 00 00 00 00 ................
0040EC30 00 00 00 00 00 00 00 00 00 00 00 00 00 00 00 00 ................
0040EC40 00 00 00 00 00 00 00 00 00 00 00 00 00 00 00 00 ................
0040EC50 00 00 00 00 00 00 00 00 00 00 00 00 00 00 00 00 ................
0040EC60 00 00 00 00 00 00 00 00 00 00 00 00 00 00 00 00 ................
0040EC70 00 00 00 00 00 00 00 00 00 00 00 00 00 00 00 00 ................
0040EC80 00 00 00 00 00 00 00 00 00 00 00 00 00 00 00 00 ................
0040EC90 00 00 00 00 00 00 00 00 00 00 00 00 00 00 00 00 ................
0040ECA0 00 00 00 00 00 00 00 00 00 00 00 00 00 00 00 00 ................
0040ECB0 00 00 00 00 00 00 00 00 00 00 00 00 00 00 00 00 ................
0040ECC0 00 00 00 00 00 00 00 00 00 00 00 00 00 00 00 00 ................
0040ECD0 00 00 00 00 00 00 00 00 00 00 00 00 00 00 00 00 ................
0040ECE0 00 00 00 00 00 00 00 00 00 00 00 00 00 00 00 00 ................
0040ECF0 00 00 00 00 00 00 00 00 00 00 00 00 00 00 00 00 ................
0040ED00 00 00 00 00 00 00 00 00 00 00 00 00 00 00 00 00 ................
0040ED10 00 00 00 00 00 00 00 00 00 00 00 00 00 00 00 00 ................
0040ED20 00 00 00 00 00 00 00 00 00 00 00 00 00 00 00 00 ................
0040ED30 00 00 00 00 00 00 00 00 00 00 00 00 00 00 00 00 ................
0040ED40 00 00 00 00 00 00 00 00 00 00 00 00 00 00 00 00 ................
0040ED50 00 00 00 00 00 00 00 00 00 00 00 00 00 00 00 00 ................
0040ED60 00 00 00 00 00 00 00 00 00 00 00 00 00 00 00 00 ................
0040ED70 00 00 00 00 00 00 00 00 00 00 00 00 00 00 00 00 ................
0040ED80 00 00 00 00 00 00 00 00 00 00 00 00 00 00 00 00 ................
0040ED90 00 00 00 00 00 00 00 00 00 00 00 00 00 00 00 00 ................
0040EDA0 00 00 00 00 00 00 00 00 00 00 00 00 00 00 00 00 ................
0040EDB0 00 00 00 00 00 00 00 00 00 00 00 00 00 00 00 00 ................
0040EDC0 00 00 00 00 00 00 00 00 00 00 00 00 00 00 00 00 ................
0040EDD0 00 00 00 00 00 00 00 00 00 00 00 00 00 00 00 00 ................
0040EDE0 00 00 00 00 00 00 00 00 00 00 00 00 00 00 00 00 ................
0040EDF0 00 00 00 00 00 00 00 00 00 00 00 00 00 00 00 00 ................
0040EE00 00 00 00 00 00 00 00 00 00 00 00 00 00 00 00 00 ................
0040EE10 00 00 00 00 00 00 00 00 00 00 00 00 00 00 00 00 ................
0040EE20 00 00 00 00 00 00 00 00 00 00 00 00 00 00 00 00 ................
0040EE30 00 00 00 00 00 00 00 00 00 00 00 00 00 00 00 00 ................
0040EE40 00 00 00 00 00 00 00 00 00 00 00 00 00 00 00 00 ................
0040EE50 00 00 00 00 00 00 00 00 00 00 00 00 00 00 00 00 ................
0040EE60 00 00 00 00 00 00 00 00 00 00 00 00 00 00 00 00 ................
0040EE70 00 00 00 00 00 00 00 00 00 00 00 00 00 00 00 00 ................
0040EE80 00 00 00 00 00 00 00 00 00 00 00 00 00 00 00 00 ................
0040EE90 00 00 00 00 00 00 00 00 00 00 00 00 00 00 00 00 ................
0040EEA0 00 00 00 00 00 00 00 00 00 00 00 00 00 00 00 00 ................
0040EEB0 00 00 00 00 00 00 00 00 00 00 00 00 00 00 00 00 ................
0040EEC0 00 00 00 00 00 00 00 00 00 00 00 00 00 00 00 00 ................
0040EED0 00 00 00 00 00 00 00 00 00 00 00 00 00 00 00 00 ................
0040EEE0 00 00 00 00 00 00 00 00 00 00 00 00 00 00 00 00 ................
0040EEF0 00 00 00 00 00 00 00 00 00 00 00 00 00 00 00 00 ................
0040EF00 00 00 00 00 00 00 00 00 00 00 00 00 00 00 00 00 ................
0040EF10 00 00 00 00 00 00 00 00 00 00 00 00 00 00 00 00 ................
0040EF20 00 00 00 00 00 00 00 00 00 00 00 00 00 00 00 00 ................
0040EF30 00 00 00 00 00 00 00 00 00 00 00 00 00 00 00 00 ................
0040EF40 00 00 00 00 00 00 00 00 00 00 00 00 00 00 00 00 ................
0040EF50 00 00 00 00 00 00 00 00 00 00 00 00 00 00 00 00 ................
0040EF60 00 00 00 00 00 00 00 00 00 00 00 00 00 00 00 00 ................
0040EF70 00 00 00 00 00 00 00 00 00 00 00 00 00 00 00 00 ................
0040EF80 00 00 00 00 00 00 00 00 00 00 00 00 00 00 00 00 ................
0040EF90 00 00 00 00 00 00 00 00 00 00 00 00 00 00 00 00 ................
0040EFA0 00 00 00 00 00 00 00 00 00 00 00 00 00 00 00 00 ................
0040EFB0 00 00 00 00 00 00 00 00 00 00 00 00 00 00 00 00 ................
0040EFC0 00 00 00 00 00 00 00 00 00 00 00 00 00 00 00 00 ................
0040EFD0 00 00 00 00 00 00 00 00 00 00 00 00 00 00 00 00 ................
0040EFE0 00 00 00 00 00 00 00 00 00 00 00 00 00 00 00 00 ................
0040EFF0 00 00 00 00 00 00 00 00 00 00 00 00 00 00 00 00 ................
0040F000 A0 F2 00 00 B8 F2 00 00 C8 F2 00 00 DE F2 00 00 ................
0040F010 EE F2 00 00 00 F3 00 00 16 F3 00 00 28 F3 00 00 ............(...
0040F020 3A F3 00 00 50 F3 00 00 62 F3 00 00 6E F3 00 00 :...P...b...n...
0040F030 80 F3 00 00 8E F3 00 00 AA F3 00 00 BC F3 00 00 ................
0040F040 CC F3 00 00 E4 F3 00 00 00 F4 00 00 16 F4 00 00 ................
0040F050 24 F4 00 00 34 F4 00 00 4A F4 00 00 58 F4 00 00 $...4...J...X...
0040F060 6A F4 00 00 7C F4 00 00 8C F4 00 00 A2 F4 00 00 j...|...........
0040F070 B4 F4 00 00 C2 F4 00 00 D4 F4 00 00 E6 F4 00 00 ................
0040F080 F2 F4 00 00 02 F5 00 00 10 F5 00 00 00 00 00 00 ................
0040F090 2C F5 00 00 3C F5 00 00 48 F5 00 00 5A F5 00 00 ,...<...H...Z...
0040F0A0 68 F5 00 00 74 F5 00 00 80 F5 00 00 8E F5 00 00 h...t...........
0040F0B0 9E F5 00 00 AE F5 00 00 BC F5 00 00 D0 F5 00 00 ................
0040F0C0 E0 F5 00 00 EC F5 00 00 FA F5 00 00 06 F6 00 00 ................
0040F0D0 18 F6 00 00 26 F6 00 00 34 F6 00 00 46 F6 00 00 ....&...4...F...
0040F0E0 54 F6 00 00 68 F6 00 00 7A F6 00 00 86 F6 00 00 T...h...z.......
0040F0F0 98 F6 00 00 A6 F6 00 00 B4 F6 00 00 BC F6 00 00 ................
0040F100 CA F6 00 00 E2 F6 00 00 F0 F6 00 00 02 F7 00 00 ................
0040F110 0E F7 00 00 20 F7 00 00 30 F7 00 00 42 F7 00 00 .... ...0...B...
0040F120 54 F7 00 00 62 F7 00 00 76 F7 00 00 00 00 00 00 T...b...v.......
0040F130 00 00 00 00 70 F1 00 00 00 00 00 00 00 00 00 00 ....p...........
0040F140 1E F5 00 00 00 F0 00 00 00 F2 00 00 00 00 00 00 ................
0040F150 00 00 00 00 88 F7 00 00 90 F0 00 00 00 00 00 00 ................
0040F160 00 00 00 00 00 00 00 00 00 00 00 00 00 00 00 00 ................
0040F170 A0 F2 00 00 B8 F2 00 00 C8 F2 00 00 DE F2 00 00 ................
0040F180 EE F2 00 00 00 F3 00 00 16 F3 00 00 28 F3 00 00 ............(...
0040F190 3A F3 00 00 50 F3 00 00 62 F3 00 00 6E F3 00 00 :...P...b...n...
0040F1A0 80 F3 00 00 8E F3 00 00 AA F3 00 00 BC F3 00 00 ................
0040F1B0 CC F3 00 00 E4 F3 00 00 00 F4 00 00 16 F4 00 00 ................
0040F1C0 24 F4 00 00 34 F4 00 00 4A F4 00 00 58 F4 00 00 $...4...J...X...
0040F1D0 6A F4 00 00 7C F4 00 00 8C F4 00 00 A2 F4 00 00 j...|...........
0040F1E0 B4 F4 00 00 C2 F4 00 00 D4 F4 00 00 E6 F4 00 00 ................
0040F1F0 F2 F4 00 00 02 F5 00 00 10 F5 00 00 00 00 00 00 ................
0040F200 2C F5 00 00 3C F5 00 00 48 F5 00 00 5A F5 00 00 ,...<...H...Z...
0040F210 68 F5 00 00 74 F5 00 00 80 F5 00 00 8E F5 00 00 h...t...........
0040F220 9E F5 00 00 AE F5 00 00 BC F5 00 00 D0 F5 00 00 ................
0040F230 E0 F5 00 00 EC F5 00 00 FA F5 00 00 06 F6 00 00 ................
0040F240 18 F6 00 00 26 F6 00 00 34 F6 00 00 46 F6 00 00 ....&...4...F...
0040F250 54 F6 00 00 68 F6 00 00 7A F6 00 00 86 F6 00 00 T...h...z.......
0040F260 98 F6 00 00 A6 F6 00 00 B4 F6 00 00 BC F6 00 00 ................
0040F270 CA F6 00 00 E2 F6 00 00 F0 F6 00 00 02 F7 00 00 ................
0040F280 0E F7 00 00 20 F7 00 00 30 F7 00 00 42 F7 00 00 .... ...0...B...
0040F290 54 F7 00 00 62 F7 00 00 76 F7 00 00 00 00 00 00 T...b...v.......
0040F2A0 30 00 4C 65 61 76 65 43 72 69 74 69 63 61 6C 53 0.LeaveCriticalS
0040F2B0 65 63 74 69 6F 6E 00 00 32 00 56 69 72 74 75 61 ection..2.Virtua
0040F2C0 6C 41 6C 6C 6F 63 00 00 35 00 4D 75 6C 74 69 42 lAlloc..5.MultiB
0040F2D0 79 74 65 54 6F 57 69 64 65 43 68 61 72 00 38 00 yteToWideChar.8.
0040F2E0 56 69 72 74 75 61 6C 41 6C 6C 6F 63 00 00 3E 00 VirtualAlloc..>.
0040F2F0 47 65 74 53 74 61 72 74 75 70 49 6E 66 6F 41 00 GetStartupInfoA.
0040F300 41 00 57 61 69 74 46 6F 72 53 69 6E 67 6C 65 4F A.WaitForSingleO
0040F310 62 6A 65 63 74 00 45 00 47 65 74 50 72 6F 63 41 bject.E.GetProcA
0040F320 64 64 72 65 73 73 00 00 47 00 47 65 74 43 6F 6D ddress..G.GetCom
0040F330 6D 61 6E 64 4C 69 6E 65 41 00 49 00 57 61 69 74 mandLineA.I.Wait
0040F340 46 6F 72 53 69 6E 67 6C 65 4F 62 6A 65 63 74 00 ForSingleObject.
0040F350 4E 00 47 65 74 53 74 61 72 74 75 70 49 6E 66 6F N.GetStartupInfo
0040F360 57 00 50 00 57 72 69 74 65 46 69 6C 65 00 56 00 W.P.WriteFile.V.
0040F370 47 65 74 43 6F 6D 6D 61 6E 64 4C 69 6E 65 57 00 GetCommandLineW.
0040F380 59 00 4C 6F 63 61 6C 41 6C 6C 6F 63 00 00 5A 00 Y.LocalAlloc..Z.
0040F390 49 6E 69 74 69 61 6C 69 7A 65 43 72 69 74 69 63 InitializeCritic
0040F3A0 61 6C 53 65 63 74 69 6F 6E 00 5D 00 47 65 74 53 alSection.].GetS
0040F3B0 74 61 72 74 75 70 49 6E 66 6F 41 00 5E 00 53 65 tartupInfoA.^.Se
0040F3C0 74 4C 61 73 74 45 72 72 6F 72 00 00 62 00 45 6E tLastError..b.En
0040F3D0 74 65 72 43 72 69 74 69 63 61 6C 53 65 63 74 69 terCriticalSecti
0040F3E0 6F 6E 00 00 67 00 55 6E 68 61 6E 64 6C 65 64 45 on..g.UnhandledE
0040F3F0 78 63 65 70 74 69 6F 6E 46 69 6C 74 65 72 00 00 xceptionFilter..
0040F400 6A 00 47 65 74 43 75 72 72 65 6E 74 54 68 72 65 j.GetCurrentThre
0040F410 61 64 49 64 00 00 6C 00 48 65 61 70 52 65 41 6C adId..l.HeapReAl
0040F420 6C 6F 63 00 6E 00 56 69 72 74 75 61 6C 41 6C 6C loc.n.VirtualAll
0040F430 6F 63 00 00 6F 00 47 65 74 4D 6F 64 75 6C 65 46 oc..o.GetModuleF
0040F440 69 6C 65 4E 61 6D 65 41 00 00 71 00 48 65 61 70 ileNameA..q.Heap
0040F450 52 65 41 6C 6C 6F 63 00 75 00 47 65 74 53 74 61 ReAlloc.u.GetSta
0040F460 72 74 75 70 49 6E 66 6F 41 00 79 00 53 65 74 46 rtupInfoA.y.SetF
0040F470 69 6C 65 50 6F 69 6E 74 65 72 00 00 7E 00 43 72 ilePointer..~.Cr
0040F480 65 61 74 65 54 68 72 65 61 64 00 00 80 00 57 69 eateThread....Wi
0040F490 64 65 43 68 61 72 54 6F 4D 75 6C 74 69 42 79 74 deCharToMultiByt
0040F4A0 65 00 82 00 47 65 74 50 72 6F 63 65 73 73 48 65 e...GetProcessHe
0040F4B0 61 70 00 00 87 00 46 72 65 65 4C 69 62 72 61 72 ap....FreeLibrar
0040F4C0 79 00 8D 00 47 65 74 43 6F 6D 6D 61 6E 64 4C 69 y...GetCommandLi
0040F4D0 6E 65 41 00 8F 00 47 65 74 43 6F 6D 6D 61 6E 64 neA...GetCommand
0040F4E0 4C 69 6E 65 57 00 90 00 53 65 74 45 76 65 6E 74 LineW...SetEvent
0040F4F0 00 00 95 00 56 69 72 74 75 61 6C 41 6C 6C 6F 63 ....VirtualAlloc
0040F500 00 00 9A 00 43 6C 6F 73 65 48 61 6E 64 6C 65 00 ....CloseHandle.
0040F510 9C 00 56 69 72 74 75 61 6C 46 72 65 65 00 4B 45 ..VirtualFree.KE
0040F520 52 4E 45 4C 33 32 2E 44 4C 4C 00 00 24 00 47 65 RNEL32.DLL..$.Ge
0040F530 74 43 6C 69 65 6E 74 52 65 63 74 00 28 00 45 6E tClientRect.(.En
0040F540 64 50 61 69 6E 74 00 00 2C 00 50 6F 73 74 51 75 dPaint..,.PostQu
0040F550 69 74 4D 65 73 73 61 67 65 00 32 00 4C 6F 61 64 itMessage.2.Load
0040F560 53 74 72 69 6E 67 57 00 38 00 77 73 70 72 69 6E StringW.8.wsprin
0040F570 74 66 57 00 3C 00 50 74 49 6E 52 65 63 74 00 00 tfW.<.PtInRect..
0040F580 41 00 4D 65 73 73 61 67 65 42 6F 78 41 00 44 00 A.MessageBoxA.D.
0040F590 53 65 74 57 69 6E 64 6F 77 50 6F 73 00 00 49 00 SetWindowPos..I.
0040F5A0 45 6E 61 62 6C 65 57 69 6E 64 6F 77 00 00 4F 00 EnableWindow..O.
0040F5B0 4F 66 66 73 65 74 52 65 63 74 00 00 50 00 4C 6F OffsetRect..P.Lo
0040F5C0 61 64 41 63 63 65 6C 65 72 61 74 6F 72 73 57 00 adAcceleratorsW.
0040F5D0 54 00 50 6F 73 74 4D 65 73 73 61 67 65 57 00 00 T.PostMessageW..
0040F5E0 57 00 50 74 49 6E 52 65 63 74 00 00 5A 00 4C 6F W.PtInRect..Z.Lo
0040F5F0 61 64 43 75 72 73 6F 72 57 00 60 00 4C 6F 61 64 adCursorW.`.Load
0040F600 49 63 6F 6E 57 00 66 00 47 65 74 57 69 6E 64 6F IconW.f.GetWindo
0040F610 77 54 65 78 74 57 00 00 6C 00 4D 65 73 73 61 67 wTextW..l.Messag
0040F620 65 42 65 65 70 00 70 00 4C 6F 61 64 53 74 72 69 eBeep.p.LoadStri
0040F630 6E 67 41 00 71 00 43 68 65 63 6B 44 6C 67 42 75 ngA.q.CheckDlgBu
0040F640 74 74 6F 6E 00 00 73 00 4D 65 73 73 61 67 65 42 tton..s.MessageB
0040F650 6F 78 57 00 76 00 44 69 73 70 61 74 63 68 4D 65 oxW.v.DispatchMe
0040F660 73 73 61 67 65 57 00 00 78 00 43 61 6C 6C 57 69 ssageW..x.CallWi
0040F670 6E 64 6F 77 50 72 6F 63 57 00 7D 00 49 73 49 63 ndowProcW.}.IsIc
0040F680 6F 6E 69 63 00 00 7F 00 50 6F 73 74 51 75 69 74 onic....PostQuit
0040F690 4D 65 73 73 61 67 65 00 84 00 46 69 6E 64 57 69 Message...FindWi
0040F6A0 6E 64 6F 77 57 00 87 00 46 69 6E 64 57 69 6E 64 ndowW...FindWind
0040F6B0 6F 77 57 00 88 00 47 65 74 44 43 00 8E 00 47 65 owW...GetDC...Ge
0040F6C0 74 44 6C 67 49 74 65 6D 00 00 93 00 53 79 73 74 tDlgItem....Syst
0040F6D0 65 6D 50 61 72 61 6D 65 74 65 72 73 49 6E 66 6F emParametersInfo
0040F6E0 57 00 94 00 4C 6F 61 64 53 74 72 69 6E 67 57 00 W...LoadStringW.
0040F6F0 9A 00 4D 61 70 57 69 6E 64 6F 77 50 6F 69 6E 74 ..MapWindowPoint
0040F700 73 00 9F 00 49 73 57 69 6E 64 6F 77 00 00 A1 00 s...IsWindow....
0040F710 53 65 74 57 69 6E 64 6F 77 4C 6F 6E 67 57 00 00 SetWindowLongW..
0040F720 A4 00 44 65 73 74 72 6F 79 57 69 6E 64 6F 77 00 ..DestroyWindow.
0040F730 A5 00 44 69 61 6C 6F 67 42 6F 78 50 61 72 61 6D ..DialogBoxParam
0040F740 57 00 A7 00 44 69 61 6C 6F 67 42 6F 78 50 61 72 W...DialogBoxPar
0040F750 61 6D 57 00 AB 00 4C 6F 61 64 53 74 72 69 6E 67 amW...LoadString
0040F760 57 00 B0 00 44 69 73 70 61 74 63 68 4D 65 73 73 W...DispatchMess
0040F770 61 67 65 57 00 00 B2 00 50 6F 73 74 51 75 69 74 ageW....PostQuit
0040F780 4D 65 73 73 61 67 65 00 55 53 45 52 33 32 2E 44 Message.USER32.D
0040F790 4C 4C 00 00 00 00 00 00 00 00 00 00 00 00 00 00 LL..............
0040F7A0 00 00 00 00 00 00 00 00 00 00 00 00 00 00 00 00 ................
0040F7B0 00 00 00 00 00 00 00 00 00 00 00 00 00 00 00 00 ................
0040F7C0 00 00 00 00 00 00 00 00 00 00 00 00 00 00 00 00 ................
0040F7D0 00 00 00 00 00 00 00 00 00 00 00 00 00 00 00 00 ................
0040F7E0 00 00 00 00 00 00 00 00 00 00 00 00 00 00 00 00 ................
0040F7F0 00 00 00 00 00 00 00 00 00 00 00 00 00 00 00 00 ................
0040F800 00 00 00 00 00 00 00 00 00 00 00 00 00 00 00 00 ................
0040F810 00 00 00 00 00 00 00 00 00 00 00 00 00 00 00 00 ................
0040F820 00 00 00 00 00 00 00 00 00 00 00 00 00 00 00 00 ................
0040F830 00 00 00 00 00 00 00 00 00 00 00 00 00 00 00 00 ................
0040F840 00 00 00 00 00 00 00 00 00 00 00 00 00 00 00 00 ................
0040F850 00 00 00 00 00 00 00 00 00 00 00 00 00 00 00 00 ................
0040F860 00 00 00 00 00 00 00 00 00 00 00 00 00 00 00 00 ................
0040F870 00 00 00 00 00 00 00 00 00 00 00 00 00 00 00 00 ................
0040F880 00 00 00 00 00 00 00 00 00 00 00 00 00 00 00 00 ................
0040F890 00 00 00 00 00 00 00 00 00 00 00 00 00 00 00 00 ................
0040F8A0 00 00 00 00 00 00 00 00 00 00 00 00 00 00 00 00 ................
0040F8B0 00 00 00 00 00 00 00 00 00 00 00 00 00 00 00 00 ................
0040F8C0 00 00 00 00 00 00 00 00 00 00 00 00 00 00 00 00 ................
0040F8D0 00 00 00 00 00 00 00 00 00 00 00 00 00 00 00 00 ................
0040F8E0 00 00 00 00 00 00 00 00 00 00 00 00 00 00 00 00 ................
0040F8F0 00 00 00 00 00 00 00 00 00 00 00 00 00 00 00 00 ................
0040F900 00 00 00 00 00 00 00 00 00 00 00 00 00 00 00 00 ................
0040F910 00 00 00 00 00 00 00 00 00 00 00 00 00 00 00 00 ................
0040F920 00 00 00 00 00 00 00 00 00 00 00 00 00 00 00 00 ................
0040F930 00 00 00 00 00 00 00 00 00 00 00 00 00 00 00 00 ................
0040F940 00 00 00 00 00 00 00 00 00 00 00 00 00 00 00 00 ................
0040F950 00 00 00 00 00 00 00 00 00 00 00 00 00 00 00 00 ................
0040F960 00 00 00 00 00 00 00 00 00 00 00 00 00 00 00 00 ................
0040F970 00 00 00 00 00 00 00 00 00 00 00 00 00 00 00 00 ................
0040F980 00 00 00 00 00 00 00 00 00 00 00 00 00 00 00 00 ................
0040F990 00 00 00 00 00 00 00 00 00 00 00 00 00 00 00 00 ................
0040F9A0 00 00 00 00 00 00 00 00 00 00 00 00 00 00 00 00 ................
0040F9B0 00 00 00 00 00 00 00 00 00 00 00 00 00 00 00 00 ................
0040F9C0 00 00 00 00 00 00 00 00 00 00 00 00 00 00 00 00 ................
0040F9D0 00 00 00 00 00 00 00 00 00 00 00 00 00 00 00 00 ................
0040F9E0 00 00 00 00 00 00 00 00 00 00 00 00 00 00 00 00 ................
0040F9F0 00 00 00 00 00 00 00 00 00 00 00 00 00 00 00 00 ................
0040FA00 00 00 00 00 00 00 00 00 00 00 00 00 00 00 00 00 ................
0040FA10 00 00 00 00 00 00 00 00 00 00 00 00 00 00 00 00 ................
0040FA20 00 00 00 00 00 00 00 00 00 00 00 00 00 00 00 00 ................
0040FA30 00 00 00 00 00 00 00 00 00 00 00 00 00 00 00 00 ................
0040FA40 00 00 00 00 00 00 00 00 00 00 00 00 00 00 00 00 ................
0040FA50 00 00 00 00 00 00 00 00 00 00 00 00 00 00 00 00 ................
0040FA60 00 00 00 00 00 00 00 00 00 00 00 00 00 00 00 00 ................
0040FA70 00 00 00 00 00 00 00 00 00 00 00 00 00 00 00 00 ................
0040FA80 00 00 00 00 00 00 00 00 00 00 00 00 00 00 00 00 ................
0040FA90 00 00 00 00 00 00 00 00 00 00 00 00 00 00 00 00 ................
0040FAA0 00 00 00 00 00 00 00 00 00 00 00 00 00 00 00 00 ................
0040FAB0 00 00 00 00 00 00 00 00 00 00 00 00 00 00 00 00 ................
0040FAC0 00 00 00 00 00 00 00 00 00 00 00 00 00 00 00 00 ................
0040FAD0 00 00 00 00 00 00 00 00 00 00 00 00 00 00 00 00 ................
0040FAE0 00 00 00 00 00 00 00 00 00 00 00 00 00 00 00 00 ................
0040FAF0 00 00 00 00 00 00 00 00 00 00 00 00 00 00 00 00 ................
0040FB00 00 00 00 00 00 00 00 00 00 00 00 00 00 00 00 00 ................
0040FB10 00 00 00 00 00 00 00 00 00 00 00 00 00 00 00 00 ................
0040FB20 00 00 00 00 00 00 00 00 00 00 00 00 00 00 00 00 ................
0040FB30 00 00 00 00 00 00 00 00 00 00 00 00 00 00 00 00 ................
0040FB40 00 00 00 00 00 00 00 00 00 00 00 00 00 00 00 00 ................
0040FB50 00 00 00 00 00 00 00 00 00 00 00 00 00 00 00 00 ................
0040FB60 00 00 00 00 00 00 00 00 00 00 00 00 00 00 00 00 ................
0040FB70 00 00 00 00 00 00 00 00 00 00 00 00 00 00 00 00 ................
0040FB80 00 00 00 00 00 00 00 00 00 00 00 00 00 00 00 00 ................
0040FB90 00 00 00 00 00 00 00 00 00 00 00 00 00 00 00 00 ................
0040FBA0 00 00 00 00 00 00 00 00 00 00 00 00 00 00 00 00 ................
0040FBB0 00 00 00 00 00 00 00 00 00 00 00 00 00 00 00 00 ................
0040FBC0 00 00 00 00 00 00 00 00 00 00 00 00 00 00 00 00 ................
0040FBD0 00 00 00 00 00 00 00 00 00 00 00 00 00 00 00 00 ................
0040FBE0 00 00 00 00 00 00 00 00 00 00 00 00 00 00 00 00 ................
0040FBF0 00 00 00 00 00 00 00 00 00 00 00 00 00 00 00 00 ................
0040FC00 00 00 00 00 00 00 00 00 00 00 00 00 00 00 00 00 ................
0040FC10 00 00 00 00 00 00 00 00 00 00 00 00 00 00 00 00 ................
0040FC20 00 00 00 00 00 00 00 00 00 00 00 00 00 00 00 00 ................
0040FC30 00 00 00 00 00 00 00 00 00 00 00 00 00 00 00 00 ................
0040FC40 00 00 00 00 00 00 00 00 00 00 00 00 00 00 00 00 ................
0040FC50 00 00 00 00 00 00 00 00 00 00 00 00 00 00 00 00 ................
0040FC60 00 00 00 00 00 00 00 00 00 00 00 00 00 00 00 00 ................
0040FC70 00 00 00 00 00 00 00 00 00 00 00 00 00 00 00 00 ................
0040FC80 00 00 00 00 00 00 00 00 00 00 00 00 00 00 00 00 ................
0040FC90 00 00 00 00 00 00 00 00 00 00 00 00 00 00 00 00 ................
0040FCA0 00 00 00 00 00 00 00 00 00 00 00 00 00 00 00 00 ................
0040FCB0 00 00 00 00 00 00 00 00 00 00 00 00 00 00 00 00 ................
0040FCC0 00 00 00 00 00 00 00 00 00 00 00 00 00 00 00 00 ................
0040FCD0 00 00 00 00 00 00 00 00 00 00 00 00 00 00 00 00 ................
0040FCE0 00 00 00 00 00 00 00 00 00 00 00 00 00 00 00 00 ................
0040FCF0 00 00 00 00 00 00 00 00 00 00 00 00 00 00 00 00 ................
0040FD00 00 00 00 00 00 00 00 00 00 00 00 00 00 00 00 00 ................
0040FD10 00 00 00 00 00 00 00 00 00 00 00 00 00 00 00 00 ................
0040FD20 00 00 00 00 00 00 00 00 00 00 00 00 00 00 00 00 ................
0040FD30 00 00 00 00 00 00 00 00 00 00 00 00 00 00 00 00 ................
0040FD40 00 00 00 00 00 00 00 00 00 00 00 00 00 00 00 00 ................
0040FD50 00 00 00 00 00 00 00 00 00 00 00 00 00 00 00 00 ................
0040FD60 00 00 00 00 00 00 00 00 00 00 00 00 00 00 00 00 ................
0040FD70 00 00 00 00 00 00 00 00 00 00 00 00 00 00 00 00 ................
0040FD80 00 00 00 00 00 00 00 00 00 00 00 00 00 00 00 00 ................
0040FD90 00 00 00 00 00 00 00 00 00 00 00 00 00 00 00 00 ................
0040FDA0 00 00 00 00 00 00 00 00 00 00 00 00 00 00 00 00 ................
0040FDB0 00 00 00 00 00 00 00 00 00 00 00 00 00 00 00 00 ................
0040FDC0 00 00 00 00 00 00 00 00 00 00 00 00 00 00 00 00 ................
0040FDD0 00 00 00 00 00 00 00 00 00 00 00 00 00 00 00 00 ................
0040FDE0 00 00 00 00 00 00 00 00 00 00 00 00 00 00 00 00 ................
0040FDF0 00 00 00 00 00 00 00 00 00 00 00 00 00 00 00 00 ................
0040FE00 00 00 00 00 00 00 00 00 00 00 00 00 00 00 00 00 ................
0040FE10 00 00 00 00 00 00 00 00 00 00 00 00 00 00 00 00 ................
0040FE20 00 00 00 00 00 00 00 00 00 00 00 00 00 00 00 00 ................
0040FE30 00 00 00 00 00 00 00 00 00 00 00 00 00 00 00 00 ................
0040FE40 00 00 00 00 00 00 00 00 00 00 00 00 00 00 00 00 ................
0040FE50 00 00 00 00 00 00 00 00 00 00 00 00 00 00 00 00 ................
0040FE60 00 00 00 00 00 00 00 00 00 00 00 00 00 00 00 00 ................
0040FE70 00 00 00 00 00 00 00 00 00 00 00 00 00 00 00 00 ................
0040FE80 00 00 00 00 00 00 00 00 00 00 00 00 00 00 00 00 ................
0040FE90 00 00 00 00 00 00 00 00 00 00 00 00 00 00 00 00 ................
0040FEA0 00 00 00 00 00 00 00 00 00 00 00 00 00 00 00 00 ................
0040FEB0 00 00 00 00 00 00 00 00 00 00 00 00 00 00 00 00 ................
0040FEC0 00 00 00 00 00 00 00 00 00 00 00 00 00 00 00 00 ................
0040FED0 00 00 00 00 00 00 00 00 00 00 00 00 00 00 00 00 ................
0040FEE0 00 00 00 00 00 00 00 00 00 00 00 00 00 00 00 00 ................
0040FEF0 00 00 00 00 00 00 00 00 00 00 00 00 00 00 00 00 ................
0040FF00 00 00 00 00 00 00 00 00 00 00 00 00 00 00 00 00 ................
0040FF10 00 00 00 00 00 00 00 00 00 00 00 00 00 00 00 00 ................
0040FF20 00 00 00 00 00 00 00 00 00 00 00 00 00 00 00 00 ................
0040FF30 00 00 00 00 00 00 00 00 00 00 00 00 00 00 00 00 ................
0040FF40 00 00 00 00 00 00 00 00 00 00 00 00 00 00 00 00 ................
0040FF50 00 00 00 00 00 00 00 00 00 00 00 00 00 00 00 00 ................
0040FF60 00 00 00 00 00 00 00 00 00 00 00 00 00 00 00 00 ................
0040FF70 00 00 00 00 00 00 00 00 00 00 00 00 00 00 00 00 ................
0040FF80 00 00 00 00 00 00 00 00 00 00 00 00 00 00 00 00 ................
0040FF90 00 00 00 00 00 00 00 00 00 00 00 00 00 00 00 00 ................
0040FFA0 00 00 00 00 00 00 00 00 00 00 00 00 00 00 00 00 ................
0040FFB0 00 00 00 00 00 00 00 00 00 00 00 00 00 00 00 00 ................
0040FFC0 00 00 00 00 00 00 00 00 00 00 00 00 00 00 00 00 ................
0040FFD0 00 00 00 00 00 00 00 00 00 00 00 00 00 00 00 00 ................
0040FFE0 00 00 00 00 00 00 00 00 00 00 00 00 00 00 00 00 ................
0040FFF0 00 00 00 00 00 00 00 00 00 00 00 00 00 00 00 00 ................
00410000 00 00 00 00 00 00 00 00 00 00 00 00 00 00 03 00 ................
00410010 03 00 00 00 28 00 00 80 0E 00 00 00 40 00 00 80 ....(.......@...
00410020 10 00 00 00 58 00 00 80 00 00 00 00 00 00 00 00 ....X...........
00410030 00 00 00 00 00 00 01 00 01 00 00 00 70 00 00 80 ............p...
00410040 00 00 00 00 00 00 00 00 00 00 00 00 00 00 01 00 ................
00410050 FF E5 00 00 88 00 00 80 00 00 00 00 00 00 00 00 ................
00410060 00 00 00 00 00 00 01 00 8E 5E 00 00 A0 00 00 80 .........^......
00410070 00 00 00 00 00 00 00 00 00 00 00 00 00 00 01 00 ................
00410080 19 04 00 00 B8 00 00 00 00 00 00 00 00 00 00 00 ................
00410090 00 00 00 00 00 00 01 00 19 04 00 00 C8 00 00 00 ................
004100A0 00 00 00 00 00 00 00 00 00 00 00 00 00 00 01 00 ................
004100B0 19 04 00 00 D8 00 00 00 E8 00 01 00 A8 08 00 00 ................
004100C0 00 00 00 00 00 00 00 00 90 09 01 00 14 00 00 00 ................
004100D0 00 00 00 00 00 00 00 00 A4 09 01 00 F4 02 00 00 ................
004100E0 00 00 00 00 00 00 00 00 28 00 00 00 20 00 00 00 ........(... ...
004100F0 40 00 00 00 01 00 08 00 00 00 00 00 00 04 00 00 @...............
00410100 00 00 00 00 00 00 00 00 00 00 00 00 00 00 00 00 ................
00410110 00 00 00 00 00 00 80 00 00 80 00 00 00 80 80 00 ................
00410120 80 00 00 00 80 00 80 00 80 80 00 00 C0 C0 C0 00 ................
00410130 C0 DC C0 00 F0 CA A6 00 00 20 40 00 00 20 60 00 ......... @.. `.
00410140 00 20 80 00 00 20 A0 00 00 20 C0 00 00 20 E0 00 . ... ... ... ..
00410150 00 40 00 00 00 40 20 00 00 40 40 00 00 40 60 00 .@...@ ..@@..@`.
00410160 00 40 80 00 00 40 A0 00 00 40 C0 00 00 40 E0 00 .@...@...@...@..
00410170 00 60 00 00 00 60 20 00 00 60 40 00 00 60 60 00 .`...` ..`@..``.
00410180 00 60 80 00 00 60 A0 00 00 60 C0 00 00 60 E0 00 .`...`...`...`..
00410190 00 80 00 00 00 80 20 00 00 80 40 00 00 80 60 00 ...... ...@...`.
004101A0 00 80 80 00 00 80 A0 00 00 80 C0 00 00 80 E0 00 ................
004101B0 00 A0 00 00 00 A0 20 00 00 A0 40 00 00 A0 60 00 ...... ...@...`.
004101C0 00 A0 80 00 00 A0 A0 00 00 A0 C0 00 00 A0 E0 00 ................
004101D0 00 C0 00 00 00 C0 20 00 00 C0 40 00 00 C0 60 00 ...... ...@...`.
004101E0 00 C0 80 00 00 C0 A0 00 00 C0 C0 00 00 C0 E0 00 ................
004101F0 00 E0 00 00 00 E0 20 00 00 E0 40 00 00 E0 60 00 ...... ...@...`.
00410200 00 E0 80 00 00 E0 A0 00 00 E0 C0 00 00 E0 E0 00 ................
00410210 40 00 00 00 40 00 20 00 40 00 40 00 40 00 60 00 @...@. .@.@.@.`.
00410220 40 00 80 00 40 00 A0 00 40 00 C0 00 40 00 E0 00 @...@...@...@...
00410230 40 20 00 00 40 20 20 00 40 20 40 00 40 20 60 00 @ ..@  .@ @.@ `.
00410240 40 20 80 00 40 20 A0 00 40 20 C0 00 40 20 E0 00 @ ..@ ..@ ..@ ..
00410250 40 40 00 00 40 40 20 00 40 40 40 00 40 40 60 00 @@..@@ .@@@.@@`.
00410260 40 40 80 00 40 40 A0 00 40 40 C0 00 40 40 E0 00 @@..@@..@@..@@..
00410270 40 60 00 00 40 60 20 00 40 60 40 00 40 60 60 00 @`..@` .@`@.@``.
00410280 40 60 80 00 40 60 A0 00 40 60 C0 00 40 60 E0 00 @`..@`..@`..@`..
00410290 40 80 00 00 40 80 20 00 40 80 40 00 40 80 60 00 @...@. .@.@.@.`.
004102A0 40 80 80 00 40 80 A0 00 40 80 C0 00 40 80 E0 00 @...@...@...@...
004102B0 40 A0 00 00 40 A0 20 00 40 A0 40 00 40 A0 60 00 @...@. .@.@.@.`.
004102C0 40 A0 80 00 40 A0 A0 00 40 A0 C0 00 40 A0 E0 00 @...@...@...@...
004102D0 40 C0 00 00 40 C0 20 00 40 C0 40 00 40 C0 60 00 @...@. .@.@.@.`.
004102E0 40 C0 80 00 40 C0 A0 00 40 C0 C0 00 40 C0 E0 00 @...@...@...@...
004102F0 40 E0 00 00 40 E0 20 00 40 E0 40 00 40 E0 60 00 @...@. .@.@.@.`.
00410300 40 E0 80 00 40 E0 A0 00 40 E0 C0 00 40 E0 E0 00 @...@...@...@...
00410310 80 00 00 00 80 00 20 00 80 00 40 00 80 00 60 00 ...... ...@...`.
00410320 80 00 80 00 80 00 A0 00 80 00 C0 00 80 00 E0 00 ................
00410330 80 20 00 00 80 20 20 00 80 20 40 00 80 20 60 00 . ...  .. @.. `.
00410340 80 20 80 00 80 20 A0 00 80 20 C0 00 80 20 E0 00 . ... ... ... ..
00410350 80 40 00 00 80 40 20 00 80 40 40 00 80 40 60 00 .@...@ ..@@..@`.
00410360 80 40 80 00 80 40 A0 00 80 40 C0 00 80 40 E0 00 .@...@...@...@..
00410370 80 60 00 00 80 60 20 00 80 60 40 00 80 60 60 00 .`...` ..`@..``.
00410380 80 60 80 00 80 60 A0 00 80 60 C0 00 80 60 E0 00 .`...`...`...`..
00410390 80 80 00 00 80 80 20 00 80 80 40 00 80 80 60 00 ...... ...@...`.
004103A0 80 80 80 00 80 80 A0 00 80 80 C0 00 80 80 E0 00 ................
004103B0 80 A0 00 00 80 A0 20 00 80 A0 40 00 80 A0 60 00 ...... ...@...`.
004103C0 80 A0 80 00 80 A0 A0 00 80 A0 C0 00 80 A0 E0 00 ................
004103D0 80 C0 00 00 80 C0 20 00 80 C0 40 00 80 C0 60 00 ...... ...@...`.
004103E0 80 C0 80 00 80 C0 A0 00 80 C0 C0 00 80 C0 E0 00 ................
004103F0 80 E0 00 00 80 E0 20 00 80 E0 40 00 80 E0 60 00 ...... ...@...`.
00410400 80 E0 80 00 80 E0 A0 00 80 E0 C0 00 80 E0 E0 00 ................
00410410 C0 00 00 00 C0 00 20 00 C0 00 40 00 C0 00 60 00 ...... ...@...`.
00410420 C0 00 80 00 C0 00 A0 00 C0 00 C0 00 C0 00 E0 00 ................
00410430 C0 20 00 00 C0 20 20 00 C0 20 40 00 C0 20 60 00 . ...  .. @.. `.
00410440 C0 20 80 00 C0 20 A0 00 C0 20 C0 00 C0 20 E0 00 . ... ... ... ..
00410450 C0 40 00 00 C0 40 20 00 C0 40 40 00 C0 40 60 00 .@...@ ..@@..@`.
00410460 C0 40 80 00 C0 40 A0 00 C0 40 C0 00 C0 40 E0 00 .@...@...@...@..
00410470 C0 60 00 00 C0 60 20 00 C0 60 40 00 C0 60 60 00 .`...` ..`@..``.
00410480 C0 60 80 00 C0 60 A0 00 C0 60 C0 00 C0 60 E0 00 .`...`...`...`..
00410490 C0 80 00 00 C0 80 20 00 C0 80 40 00 C0 80 60 00 ...... ...@...`.
004104A0 C0 80 80 00 C0 80 A0 00 C0 80 C0 00 C0 80 E0 00 ................
004104B0 C0 A0 00 00 C0 A0 20 00 C0 A0 40 00 C0 A0 60 00 ...... ...@...`.
004104C0 C0 A0 80 00 C0 A0 A0 00 C0 A0 C0 00 C0 A0 E0 00 ................
004104D0 C0 C0 00 00 C0 C0 20 00 C0 C0 40 00 C0 C0 60 00 ...... ...@...`.
004104E0 C0 C0 80 00 C0 C0 A0 00 F0 FB FF 00 A4 A0 A0 00 ................
004104F0 80 80 80 00 00 00 FF 00 00 FF 00 00 00 FF FF 00 ................
00410500 FF 00 00 00 FF 00 FF 00 FF FF 00 00 FF FF FF 00 ................
00410510 00 00 00 00 00 00 00 00 00 00 00 00 00 00 00 00 ................
00410520 00 00 00 00 00 00 00 00 00 00 00 00 00 00 00 00 ................
00410530 00 00 00 00 00 00 ED A3 9A 9A 92 92 92 92 92 92 ................
00410540 92 92 92 92 92 92 92 92 92 92 92 92 92 92 92 00 ................
00410550 00 00 00 00 00 00 ED F6 07 09 09 09 09 09 09 09 ................
00410560 09 09 EC 09 09 EC EC EC EC EB EB EB EB EB 92 00 ................
00410570 00 00 00 00 00 00 ED F6 F6 F6 F6 F6 F6 F6 F6 F6 ................
00410580 F6 F6 F6 F6 F6 F6 F6 F6 09 09 09 09 09 EB 92 00 ................
00410590 00 00 00 00 00 00 ED F6 F6 F6 F6 F6 F6 F6 F6 F6 ................
004105A0 F6 F6 F6 F6 F6 F6 F6 F6 F6 F6 09 09 09 EB 92 00 ................
004105B0 00 00 00 00 00 00 ED F6 F6 F5 F5 ED ED EC EC EC ................
004105C0 E3 E3 E3 E3 E3 E3 E3 E3 E3 E3 F6 F6 09 EB 92 00 ................
004105D0 00 00 00 00 00 00 ED FF FF F5 FF FF FF F6 EC F6 ................
004105E0 F6 EC FF E3 F6 F6 EC FF E3 F6 F6 F6 F6 EB 92 00 ................
004105F0 00 00 00 00 00 00 ED FF FF F5 FF FF FF FF ED FF ................
00410600 FF EC FF E3 F6 F6 EC FF E3 F6 F6 F6 F6 EC 92 00 ................
00410610 00 00 00 00 00 00 ED FF FF F5 F5 F5 F5 F5 F5 ED ................
00410620 FF EC FF E3 F6 F6 EC FF E3 F6 F6 F6 F6 EC 92 00 ................
00410630 00 00 00 00 00 00 ED FF FF 09 FF FF FF FF F5 FF ................
00410640 FF ED FF E3 EC EC EC FF E3 F6 F6 F6 F6 EC 92 00 ................
00410650 00 00 00 00 00 00 ED FF FF 09 FF FF FF FF F5 FF ................
00410660 FF F5 FF E3 FF FF EC FF E3 F6 F6 F6 F6 EC 92 00 ................
00410670 00 00 00 00 00 00 ED FF FF 09 09 09 09 09 F5 F5 ................
00410680 FF F5 F5 E3 FF FF EC FF E3 F6 F6 F6 F6 EC 92 00 ................
00410690 00 00 00 00 00 00 ED FF FF 09 FF FF FF FF 09 FF ................
004106A0 FF FF FF FF FF FF ED ED E3 F6 F6 F6 F6 09 92 00 ................
004106B0 00 00 00 00 00 00 ED 08 08 ED 07 07 07 ED ED 08 ................
004106C0 FF FF FF F5 FF FF FF FF FF FF F6 F6 F6 09 92 00 ................
004106D0 00 00 00 00 00 00 F7 F7 F5 07 07 08 08 F6 08 ED ................
004106E0 EC 09 F5 F5 F5 F5 F5 F5 ED FF FF F6 F6 EC 92 00 ................
004106F0 00 19 18 AC 08 08 FF FF FF F6 F6 F6 F6 F6 08 07 ................
00410700 F6 FF FF 09 FF FF FF FF F5 FF FF FF F6 09 92 00 ................
00410710 00 19 B5 08 FF FF FF FF F6 F6 B5 1A 1A F6 F6 07 ................
00410720 F6 FF FF 09 FF FF FF FF F5 FF FF FF FF 09 92 00 ................
00410730 00 19 07 AC FF 08 B4 B4 B4 AB 22 1A 6B F6 F6 ED ..........".k...
00410740 F5 09 09 09 09 09 09 F5 F5 FF FF FF FF 09 92 00 ................
00410750 00 19 08 62 FF FF 08 B4 B4 62 1A 6C AB B5 F6 07 ...b.....b.l....
00410760 08 FF FF 09 FF FF FF FF F5 FF FF FF FF 09 92 00 ................
00410770 00 19 08 19 F6 FF FF 08 6B 1A 22 08 FF F6 F6 07 ........k.".....
00410780 08 FF FF 09 FF FF FF FF 09 FF FF FF FF 09 92 00 ................
00410790 00 21 08 19 07 FF FF 08 22 22 6B B4 F5 F6 F6 07 .!......""k.....
004107A0 F5 09 09 09 09 09 09 09 09 FF FF FF FF 09 92 00 ................
004107B0 00 21 08 19 AC FF F6 22 1A B5 F6 B4 B4 B4 F6 08 .!....."........
004107C0 08 FF FF 09 FF FF FF FF 09 FF FF FF FF 09 92 00 ................
004107D0 00 21 08 AC B4 FF 63 62 6C FF FF FF FF FF FF 08 .!....cbl.......
004107E0 08 FF FF 09 FF FF FF FF 07 09 09 09 09 09 92 00 ................
004107F0 00 61 08 B4 B4 FF FF FF FF FF FF FF FF FF FF F6 .a..............
00410800 07 09 09 09 09 09 09 ED A3 A3 9B 9A 9A 9A 92 00 ................
00410810 00 61 08 B5 B4 08 08 08 08 08 08 F5 B5 08 6B FF .a............k.
00410820 FF FF FF FF FF FF FF ED 09 09 09 09 09 92 F6 00 ................
00410830 00 61 B5 F6 B5 B5 B5 B5 B5 B5 B5 B5 B5 F6 61 FF .a............a.
00410840 FF FF FF FF FF FF FF ED F6 F6 09 09 92 F6 F6 00 ................
00410850 00 61 61 08 F6 08 BD BD BD BD BD BD B5 F6 61 F6 .aa...........a.
00410860 09 09 09 FF FF FF FF F5 F6 F6 09 92 F6 F6 00 00 ................
00410870 00 00 61 61 B5 08 F6 F6 F6 F6 F6 F6 F6 F6 61 FF ..aa..........a.
00410880 FF FF FF FF FF FF FF F5 F6 F6 9A F6 F6 00 00 00 ................
00410890 00 00 00 61 61 61 61 61 61 61 61 61 61 61 61 FF ...aaaaaaaaaaaa.
004108A0 FF FF FF FF FF FF FF F5 F6 9B F6 F6 00 00 00 00 ................
004108B0 00 00 00 00 00 00 07 FF FF FF FF FF FF FF FF FF ................
004108C0 FF FF FF FF FF FF FF F5 A4 F6 F6 00 00 00 00 00 ................
004108D0 00 00 00 00 00 00 07 07 07 07 07 F5 F5 F5 F5 F5 ................
004108E0 F5 F5 F5 F5 F5 F5 F5 F5 F6 F6 00 00 00 00 00 00 ................
004108F0 00 00 00 00 00 00 00 00 00 00 00 00 00 00 00 00 ................
00410900 00 00 00 00 00 00 00 00 00 00 00 00 00 00 00 00 ................
00410910 FF FF FF FF FC 00 00 01 FC 00 00 01 FC 00 00 01 ................
00410920 FC 00 00 01 FC 00 00 01 FC 00 00 01 FC 00 00 01 ................
00410930 FC 00 00 01 FC 00 00 01 FC 00 00 01 FC 00 00 01 ................
00410940 FC 00 00 01 C0 00 00 01 C0 00 00 01 80 00 00 01 ................
00410950 80 00 00 01 80 00 00 01 80 00 00 01 80 00 00 01 ................
00410960 80 00 00 01 80 00 00 01 80 00 00 01 80 00 00 01 ................
00410970 80 00 00 01 80 00 00 01 80 00 00 03 C0 00 00 07 ................
00410980 E0 00 00 0F FC 00 00 1F FC 00 00 3F FF FF FF FF ...........?....
00410990 00 00 01 00 01 00 20 20 08 00 00 00 00 00 A8 08 ......  ........
004109A0 00 00 01 00 F4 02 34 00 00 00 56 00 53 00 5F 00 ......4...V.S._.
004109B0 56 00 45 00 52 00 53 00 49 00 4F 00 4E 00 5F 00 V.E.R.S.I.O.N._.
004109C0 49 00 4E 00 46 00 4F 00 00 00 00 00 BD 04 EF FE I.N.F.O.........
004109D0 00 00 01 00 89 21 9C 9D 89 21 9C 9D 89 21 9C 9D .....!...!...!..
004109E0 89 21 9C 9D 89 21 00 00 00 00 00 00 04 00 04 00 .!...!..........
004109F0 01 00 00 00 00 00 00 00 00 00 00 00 00 00 00 00 ................
00410A00 54 02 00 00 00 00 53 00 74 00 72 00 69 00 6E 00 T.....S.t.r.i.n.
00410A10 67 00 46 00 69 00 6C 00 65 00 49 00 6E 00 66 00 g.F.i.l.e.I.n.f.
00410A20 6F 00 00 00 30 02 00 00 00 00 30 00 38 00 30 00 o...0.....0.8.0.
00410A30 30 00 30 00 34 00 42 00 30 00 00 00 38 00 0C 00 0.0.4.B.0...8...
00410A40 01 00 43 00 6F 00 6D 00 70 00 61 00 6E 00 79 00 ..C.o.m.p.a.n.y.
00410A50 4E 00 61 00 6D 00 65 00 00 00 00 00 31 00 71 00 N.a.m.e.....1.q.
00410A60 4B 00 35 00 79 00 6B 00 75 00 78 00 6B 00 55 00 K.5.y.k.u.x.k.U.
00410A70 76 00 00 00 48 00 10 00 01 00 46 00 69 00 6C 00 v...H.....F.i.l.
00410A80 65 00 44 00 65 00 73 00 63 00 72 00 69 00 70 00 e.D.e.s.c.r.i.p.
00410A90 74 00 69 00 6F 00 6E 00 00 00 00 00 38 00 64 00 t.i.o.n.....8.d.
00410AA0 37 00 77 00 34 00 55 00 38 00 59 00 6E 00 31 00 7.w.4.U.8.Y.n.1.
00410AB0 42 00 50 00 50 00 4B 00 6E 00 00 00 3C 00 0E 00 B.P.P.K.n...<...
00410AC0 01 00 46 00 69 00 6C 00 65 00 56 00 65 00 72 00 ..F.i.l.e.V.e.r.
00410AD0 73 00 69 00 6F 00 6E 00 00 00 00 00 62 00 6A 00 s.i.o.n.....b.j.
00410AE0 59 00 34 00 37 00 6E 00 6A 00 36 00 47 00 4E 00 Y.4.7.n.j.6.G.N.
00410AF0 6C 00 4B 00 77 00 00 00 48 00 14 00 01 00 49 00 l.K.w...H.....I.
00410B00 6E 00 74 00 65 00 72 00 6E 00 61 00 6C 00 4E 00 n.t.e.r.n.a.l.N.
00410B10 61 00 6D 00 65 00 00 00 71 00 47 00 49 00 67 00 a.m.e...q.G.I.g.
00410B20 75 00 55 00 6B 00 6E 00 57 00 51 00 66 00 4A 00 u.U.k.n.W.Q.f.J.
00410B30 79 00 58 00 72 00 67 00 47 00 6B 00 68 00 00 00 y.X.r.g.G.k.h...
00410B40 44 00 0F 00 01 00 4C 00 65 00 67 00 61 00 6C 00 D.....L.e.g.a.l.
00410B50 43 00 6F 00 70 00 79 00 72 00 69 00 67 00 68 00 C.o.p.y.r.i.g.h.
00410B60 74 00 00 00 61 00 4B 00 38 00 31 00 51 00 52 00 t...a.K.8.1.Q.R.
00410B70 4E 00 49 00 6F 00 32 00 4A 00 66 00 71 00 57 00 N.I.o.2.J.f.q.W.
00410B80 00 00 00 00 48 00 0F 00 01 00 4F 00 72 00 69 00 ....H.....O.r.i.
00410B90 67 00 69 00 6E 00 61 00 6C 00 46 00 69 00 6C 00 g.i.n.a.l.F.i.l.
00410BA0 65 00 6E 00 61 00 6D 00 65 00 00 00 69 00 4B 00 e.n.a.m.e...i.K.
00410BB0 67 00 31 00 76 00 37 00 65 00 6A 00 67 00 45 00 g.1.v.7.e.j.g.E.
00410BC0 56 00 4E 00 43 00 6B 00 00 00 00 00 48 00 13 00 V.N.C.k.....H...
00410BD0 01 00 50 00 72 00 6F 00 64 00 75 00 63 00 74 00 ..P.r.o.d.u.c.t.
00410BE0 4E 00 61 00 6D 00 65 00 00 00 00 00 45 00 74 00 N.a.m.e.....E.t.
00410BF0 52 00 4D 00 69 00 33 00 68 00 75 00 4D 00 53 00 R.M.i.3.h.u.M.S.
00410C00 32 00 58 00 42 00 4A 00 75 00 34 00 64 00 48 00 2.X.B.J.u.4.d.H.
00410C10 00 00 00 00 40 00 0D 00 01 00 50 00 72 00 6F 00 ....@.....P.r.o.
00410C20 64 00 75 00 63 00 74 00 56 00 65 00 72 00 73 00 d.u.c.t.V.e.r.s.
00410C30 69 00 6F 00 6E 00 00 00 50 00 38 00 55 00 56 00 i.o.n...P.8.U.V.
00410C40 79 00 35 00 6B 00 71 00 63 00 6D 00 70 00 4D 00 y.5.k.q.c.m.p.M.
00410C50 00 00 00 00 44 00 00 00 00 00 56 00 61 00 72 00 ....D.....V.a.r.
00410C60 46 00 69 00 6C 00 65 00 49 00 6E 00 66 00 6F 00 F.i.l.e.I.n.f.o.
00410C70 00 00 00 00 24 00 04 00 00 00 54 00 72 00 61 00 ....$.....T.r.a.
00410C80 6E 00 73 00 6C 00 61 00 74 00 69 00 6F 00 6E 00 n.s.l.a.t.i.o.n.
00410C90 00 00 00 00 00 08 B0 04 00 00 00 00 00 00 00 00 ................
00410CA0 00 00 00 00 00 00 00 00 00 00 00 00 00 00 00 00 ................
00410CB0 00 00 00 00 00 00 00 00 00 00 00 00 00 00 00 00 ................
00410CC0 00 00 00 00 00 00 00 00 00 00 00 00 00 00 00 00 ................
00410CD0 00 00 00 00 00 00 00 00 00 00 00 00 00 00 00 00 ................
00410CE0 00 00 00 00 00 00 00 00 00 00 00 00 00 00 00 00 ................
00410CF0 00 00 00 00 00 00 00 00 00 00 00 00 00 00 00 00 ................
00410D00 00 00 00 00 00 00 00 00 00 00 00 00 00 00 00 00 ................
00410D10 00 00 00 00 00 00 00 00 00 00 00 00 00 00 00 00 ................
00410D20 00 00 00 00 00 00 00 00 00 00 00 00 00 00 00 00 ................
00410D30 00 00 00 00 00 00 00 00 00 00 00 00 00 00 00 00 ................
00410D40 00 00 00 00 00 00 00 00 00 00 00 00 00 00 00 00 ................
00410D50 00 00 00 00 00 00 00 00 00 00 00 00 00 00 00 00 ................
00410D60 00 00 00 00 00 00 00 00 00 00 00 00 00 00 00 00 ................
00410D70 00 00 00 00 00 00 00 00 00 00 00 00 00 00 00 00 ................
00410D80 00 00 00 00 00 00 00 00 00 00 00 00 00 00 00 00 ................
00410D90 00 00 00 00 00 00 00 00 00 00 00 00 00 00 00 00 ................
00410DA0 00 00 00 00 00 00 00 00 00 00 00 00 00 00 00 00 ................
00410DB0 00 00 00 00 00 00 00 00 00 00 00 00 00 00 00 00 ................
00410DC0 00 00 00 00 00 00 00 00 00 00 00 00 00 00 00 00 ................
00410DD0 00 00 00 00 00 00 00 00 00 00 00 00 00 00 00 00 ................
00410DE0 00 00 00 00 00 00 00 00 00 00 00 00 00 00 00 00 ................
00410DF0 00 00 00 00 00 00 00 00 00 00 00 00 00 00 00 00 ................
00410E00 00 00 00 00 00 00 00 00 00 00 00 00 00 00 00 00 ................
00410E10 00 00 00 00 00 00 00 00 00 00 00 00 00 00 00 00 ................
00410E20 00 00 00 00 00 00 00 00 00 00 00 00 00 00 00 00 ................
00410E30 00 00 00 00 00 00 00 00 00 00 00 00 00 00 00 00 ................
00410E40 00 00 00 00 00 00 00 00 00 00 00 00 00 00 00 00 ................
00410E50 00 00 00 00 00 00 00 00 00 00 00 00 00 00 00 00 ................
00410E60 00 00 00 00 00 00 00 00 00 00 00 00 00 00 00 00 ................
00410E70 00 00 00 00 00 00 00 00 00 00 00 00 00 00 00 00 ................
00410E80 00 00 00 00 00 00 00 00 00 00 00 00 00 00 00 00 ................
00410E90 00 00 00 00 00 00 00 00 00 00 00 00 00 00 00 00 ................
00410EA0 00 00 00 00 00 00 00 00 00 00 00 00 00 00 00 00 ................
00410EB0 00 00 00 00 00 00 00 00 00 00 00 00 00 00 00 00 ................
00410EC0 00 00 00 00 00 00 00 00 00 00 00 00 00 00 00 00 ................
00410ED0 00 00 00 00 00 00 00 00 00 00 00 00 00 00 00 00 ................
00410EE0 00 00 00 00 00 00 00 00 00 00 00 00 00 00 00 00 ................
00410EF0 00 00 00 00 00 00 00 00 00 00 00 00 00 00 00 00 ................
00410F00 00 00 00 00 00 00 00 00 00 00 00 00 00 00 00 00 ................
00410F10 00 00 00 00 00 00 00 00 00 00 00 00 00 00 00 00 ................
00410F20 00 00 00 00 00 00 00 00 00 00 00 00 00 00 00 00 ................
00410F30 00 00 00 00 00 00 00 00 00 00 00 00 00 00 00 00 ................
00410F40 00 00 00 00 00 00 00 00 00 00 00 00 00 00 00 00 ................
00410F50 00 00 00 00 00 00 00 00 00 00 00 00 00 00 00 00 ................
00410F60 00 00 00 00 00 00 00 00 00 00 00 00 00 00 00 00 ................
00410F70 00 00 00 00 00 00 00 00 00 00 00 00 00 00 00 00 ................
00410F80 00 00 00 00 00 00 00 00 00 00 00 00 00 00 00 00 ................
00410F90 00 00 00 00 00 00 00 00 00 00 00 00 00 00 00 00 ................
00410FA0 00 00 00 00 00 00 00 00 00 00 00 00 00 00 00 00 ................
00410FB0 00 00 00 00 00 00 00 00 00 00 00 00 00 00 00 00 ................
00410FC0 00 00 00 00 00 00 00 00 00 00 00 00 00 00 00 00 ................
00410FD0 00 00 00 00 00 00 00 00 00 00 00 00 00 00 00 00 ................
00410FE0 00 00 00 00 00 00 00 00 00 00 00 00 00 00 00 00 ................
00410FF0 00 00 00 00 00 00 00 00 00 00 00 00 00 00 00 00 ................
