00400000 00 00 00 00 00 00 00 00 00 00 00 00 00 00 00 00 ................
00400010 00 00 00 00 00 00 00 00 00 00 00 00 00 00 00 00 ................
00400020 00 00 00 00 00 00 00 00 00 00 00 00 00 00 00 00 ................
00400030 00 00 00 00 00 00 00 00 00 00 00 00 00 00 00 00 ................
00400040 00 00 00 00 00 00 00 00 00 00 00 00 00 00 00 00 ................
00400050 00 00 00 00 00 00 00 00 00 00 00 00 00 00 00 00 ................
00400060 00 00 00 00 00 00 00 00 00 00 00 00 00 00 00 00 ................
00400070 00 00 00 00 00 00 00 00 00 00 00 00 00 00 00 00 ................
00400080 00 00 00 00 00 00 00 00 00 00 00 00 00 00 00 00 ................
00400090 00 00 00 00 00 00 00 00 00 00 00 00 00 00 00 00 ................
004000A0 00 00 00 00 00 00 00 00 00 00 00 00 00 00 00 00 ................
004000B0 00 00 00 00 00 00 00 00 00 00 00 00 00 00 00 00 ................
004000C0 00 00 00 00 00 00 00 00 00 00 00 00 00 00 00 00 ................
004000D0 00 00 00 00 00 00 00 00 00 00 00 00 00 00 00 00 ................
004000E0 00 00 00 00 00 00 00 00 00 00 00 00 00 00 00 00 ................
004000F0 00 00 00 00 00 00 00 00 00 00 00 00 00 00 00 00 ................
00400100 00 00 00 00 00 00 00 00 00 00 00 00 00 00 00 00 ................
00400110 00 00 00 00 00 00 00 00 00 00 00 00 00 00 00 00 ................
00400120 00 00 00 00 00 00 00 00 00 00 00 00 00 00 00 00 ................
00400130 00 00 00 00 00 00 00 00 00 00 00 00 00 00 00 00 ................
00400140 00 00 00 00 00 00 00 00 00 00 00 00 00 00 00 00 ................
00400150 00 00 00 00 00 00 00 00 00 00 00 00 00 00 00 00 ................
00400160 00 00 00 00 00 00 00 00 00 00 00 00 00 00 00 00 ................
00400170 00 00 00 00 00 00 00 00 00 00 00 00 00 00 00 00 ................
00400180 00 00 00 00 00 00 00 00 00 00 00 00 00 00 00 00 ................
00400190 00 00 00 00 00 00 00 00 00 00 00 00 00 00 00 00 ................
004001A0 00 00 00 00 00 00 00 00 00 00 00 00 00 00 00 00 ................
004001B0 00 00 00 00 00 00 00 00 00 00 00 00 00 00 00 00 ................
004001C0 00 00 00 00 00 00 00 00 00 00 00 00 00 00 00 00 ................
004001D0 00 00 00 00 00 00 00 00 00 00 00 00 00 00 00 00 ................
004001E0 00 00 00 00 00 00 00 00 00 00 00 00 00 00 00 00 ................
004001F0 00 00 00 00 00 00 00 00 00 00 00 00 00 00 00 00 ................
00400200 00 00 00 00 00 00 00 00 00 00 00 00 00 00 00 00 ................
00400210 00 00 00 00 00 00 00 00 00 00 00 00 00 00 00 00 ................
00400220 00 00 00 00 00 00 00 00 00 00 00 00 00 00 00 00 ................
00400230 00 00 00 00 00 00 00 00 00 00 00 00 00 00 00 00 ................
00400240 00 00 00 00 00 00 00 00 00 00 00 00 00 00 00 00 ................
00400250 00 00 00 00 00 00 00 00 00 00 00 00 00 00 00 00 ................
00400260 00 00 00 00 00 00 00 00 00 00 00 00 00 00 00 00 ................
00400270 00 00 00 00 00 00 00 00 00 00 00 00 00 00 00 00 ................
00400280 00 00 00 00 00 00 00 00 00 00 00 00 00 00 00 00 ................
00400290 00 00 00 00 00 00 00 00 00 00 00 00 00 00 00 00 ................
004002A0 00 00 00 00 00 00 00 00 00 00 00 00 00 00 00 00 ................
004002B0 00 00 00 00 00 00 00 00 00 00 00 00 00 00 00 00 ................
004002C0 00 00 00 00 00 00 00 00 00 00 00 00 00 00 00 00 ................
004002D0 00 00 00 00 00 00 00 00 00 00 00 00 00 00 00 00 ................
004002E0 00 00 00 00 00 00 00 00 00 00 00 00 00 00 00 00 ................
004002F0 00 00 00 00 00 00 00 00 00 00 00 00 00 00 00 00 ................
00400300 00 00 00 00 00 00 00 00 00 00 00 00 00 00 00 00 ................
00400310 00 00 00 00 00 00 00 00 00 00 00 00 00 00 00 00 ................
00400320 00 00 00 00 00 00 00 00 00 00 00 00 00 00 00 00 ................
00400330 00 00 00 00 00 00 00 00 00 00 00 00 00 00 00 00 ................
00400340 00 00 00 00 00 00 00 00 00 00 00 00 00 00 00 00 ................
00400350 00 00 00 00 00 00 00 00 00 00 00 00 00 00 00 00 ................
00400360 00 00 00 00 00 00 00 00 00 00 00 00 00 00 00 00 ................
00400370 00 00 00 00 00 00 00 00 00 00 00 00 00 00 00 00 ................
00400380 00 00 00 00 00 00 00 00 00 00 00 00 00 00 00 00 ................
00400390 00 00 00 00 00 00 00 00 00 00 00 00 00 00 00 00 ................
004003A0 00 00 00 00 00 00 00 00 00 00 00 00 00 00 00 00 ................
004003B0 00 00 00 00 00 00 00 00 00 00 00 00 00 00 00 00 ................
004003C0 00 00 00 00 00 00 00 00 00 00 00 00 00 00 00 00 ................
004003D0 00 00 00 00 00 00 00 00 00 00 00 00 00 00 00 00 ................
004003E0 00 00 00 00 00 00 00 00 00 00 00 00 00 00 00 00 ................
004003F0 00 00 00 00 00 00 00 00 00 00 00 00 00 00 00 00 ................
00400400 00 00 00 00 00 00 00 00 00 00 00 00 00 00 00 00 ................
00400410 00 00 00 00 00 00 00 00 00 00 00 00 00 00 00 00 ................
00400420 00 00 00 00 00 00 00 00 00 00 00 00 00 00 00 00 ................
00400430 00 00 00 00 00 00 00 00 00 00 00 00 00 00 00 00 ................
00400440 00 00 00 00 00 00 00 00 00 00 00 00 00 00 00 00 ................
00400450 00 00 00 00 00 00 00 00 00 00 00 00 00 00 00 00 ................
00400460 00 00 00 00 00 00 00 00 00 00 00 00 00 00 00 00 ................
00400470 00 00 00 00 00 00 00 00 00 00 00 00 00 00 00 00 ................
00400480 00 00 00 00 00 00 00 00 00 00 00 00 00 00 00 00 ................
00400490 00 00 00 00 00 00 00 00 00 00 00 00 00 00 00 00 ................
004004A0 00 00 00 00 00 00 00 00 00 00 00 00 00 00 00 00 ................
004004B0 00 00 00 00 00 00 00 00 00 00 00 00 00 00 00 00 ................
004004C0 00 00 00 00 00 00 00 00 00 00 00 00 00 00 00 00 ................
004004D0 00 00 00 00 00 00 00 00 00 00 00 00 00 00 00 00 ................
004004E0 00 00 00 00 00 00 00 00 00 00 00 00 00 00 00 00 ................
004004F0 00 00 00 00 00 00 00 00 00 00 00 00 00 00 00 00 ................
00400500 00 00 00 00 00 00 00 00 00 00 00 00 00 00 00 00 ................
00400510 00 00 00 00 00 00 00 00 00 00 00 00 00 00 00 00 ................
00400520 00 00 00 00 00 00 00 00 00 00 00 00 00 00 00 00 ................
00400530 00 00 00 00 00 00 00 00 00 00 00 00 00 00 00 00 ................
00400540 00 00 00 00 00 00 00 00 00 00 00 00 00 00 00 00 ................
00400550 00 00 00 00 00 00 00 00 00 00 00 00 00 00 00 00 ................
00400560 00 00 00 00 00 00 00 00 00 00 00 00 00 00 00 00 ................
00400570 00 00 00 00 00 00 00 00 00 00 00 00 00 00 00 00 ................
00400580 00 00 00 00 00 00 00 00 00 00 00 00 00 00 00 00 ................
00400590 00 00 00 00 00 00 00 00 00 00 00 00 00 00 00 00 ................
004005A0 00 00 00 00 00 00 00 00 00 00 00 00 00 00 00 00 ................
004005B0 00 00 00 00 00 00 00 00 00 00 00 00 00 00 00 00 ................
004005C0 00 00 00 00 00 00 00 00 00 00 00 00 00 00 00 00 ................
004005D0 00 00 00 00 00 00 00 00 00 00 00 00 00 00 00 00 ................
004005E0 00 00 00 00 00 00 00 00 00 00 00 00 00 00 00 00 ................
004005F0 00 00 00 00 00 00 00 00 00 00 00 00 00 00 00 00 ................
00400600 00 00 00 00 00 00 00 00 00 00 00 00 00 00 00 00 ................
00400610 00 00 00 00 00 00 00 00 00 00 00 00 00 00 00 00 ................
00400620 00 00 00 00 00 00 00 00 00 00 00 00 00 00 00 00 ................
00400630 00 00 00 00 00 00 00 00 00 00 00 00 00 00 00 00 ................
00400640 00 00 00 00 00 00 00 00 00 00 00 00 00 00 00 00 ................
00400650 00 00 00 00 00 00 00 00 00 00 00 00 00 00 00 00 ................
00400660 00 00 00 00 00 00 00 00 00 00 00 00 00 00 00 00 ................
00400670 00 00 00 00 00 00 00 00 00 00 00 00 00 00 00 00 ................
00400680 00 00 00 00 00 00 00 00 00 00 00 00 00 00 00 00 ................
00400690 00 00 00 00 00 00 00 00 00 00 00 00 00 00 00 00 ................
004006A0 00 00 00 00 00 00 00 00 00 00 00 00 00 00 00 00 ................
004006B0 00 00 00 00 00 00 00 00 00 00 00 00 00 00 00 00 ................
004006C0 00 00 00 00 00 00 00 00 00 00 00 00 00 00 00 00 ................
004006D0 00 00 00 00 00 00 00 00 00 00 00 00 00 00 00 00 ................
004006E0 00 00 00 00 00 00 00 00 00 00 00 00 00 00 00 00 ................
004006F0 00 00 00 00 00 00 00 00 00 00 00 00 00 00 00 00 ................
00400700 00 00 00 00 00 00 00 00 00 00 00 00 00 00 00 00 ................
00400710 00 00 00 00 00 00 00 00 00 00 00 00 00 00 00 00 ................
00400720 00 00 00 00 00 00 00 00 00 00 00 00 00 00 00 00 ................
00400730 00 00 00 00 00 00 00 00 00 00 00 00 00 00 00 00 ................
00400740 00 00 00 00 00 00 00 00 00 00 00 00 00 00 00 00 ................
00400750 00 00 00 00 00 00 00 00 00 00 00 00 00 00 00 00 ................
00400760 00 00 00 00 00 00 00 00 00 00 00 00 00 00 00 00 ................
00400770 00 00 00 00 00 00 00 00 00 00 00 00 00 00 00 00 ................
00400780 00 00 00 00 00 00 00 00 00 00 00 00 00 00 00 00 ................
00400790 00 00 00 00 00 00 00 00 00 00 00 00 00 00 00 00 ................
004007A0 00 00 00 00 00 00 00 00 00 00 00 00 00 00 00 00 ................
004007B0 00 00 00 00 00 00 00 00 00 00 00 00 00 00 00 00 ................
004007C0 00 00 00 00 00 00 00 00 00 00 00 00 00 00 00 00 ................
004007D0 00 00 00 00 00 00 00 00 00 00 00 00 00 00 00 00 ................
004007E0 00 00 00 00 00 00 00 00 00 00 00 00 00 00 00 00 ................
004007F0 00 00 00 00 00 00 00 00 00 00 00 00 00 00 00 00 ................
00400800 00 00 00 00 00 00 00 00 00 00 00 00 00 00 00 00 ................
00400810 00 00 00 00 00 00 00 00 00 00 00 00 00 00 00 00 ................
00400820 00 00 00 00 00 00 00 00 00 00 00 00 00 00 00 00 ................
00400830 00 00 00 00 00 00 00 00 00 00 00 00 00 00 00 00 ................
00400840 00 00 00 00 00 00 00 00 00 00 00 00 00 00 00 00 ................
00400850 00 00 00 00 00 00 00 00 00 00 00 00 00 00 00 00 ................
00400860 00 00 00 00 00 00 00 00 00 00 00 00 00 00 00 00 ................
00400870 00 00 00 00 00 00 00 00 00 00 00 00 00 00 00 00 ................
00400880 00 00 00 00 00 00 00 00 00 00 00 00 00 00 00 00 ................
00400890 00 00 00 00 00 00 00 00 00 00 00 00 00 00 00 00 ................
004008A0 00 00 00 00 00 00 00 00 00 00 00 00 00 00 00 00 ................
004008B0 00 00 00 00 00 00 00 00 00 00 00 00 00 00 00 00 ................
004008C0 00 00 00 00 00 00 00 00 00 00 00 00 00 00 00 00 ................
004008D0 00 00 00 00 00 00 00 00 00 00 00 00 00 00 00 00 ................
004008E0 00 00 00 00 00 00 00 00 00 00 00 00 00 00 00 00 ................
004008F0 00 00 00 00 00 00 00 00 00 00 00 00 00 00 00 00 ................
00400900 00 00 00 00 00 00 00 00 00 00 00 00 00 00 00 00 ................
00400910 00 00 00 00 00 00 00 00 00 00 00 00 00 00 00 00 ................
00400920 00 00 00 00 00 00 00 00 00 00 00 00 00 00 00 00 ................
00400930 00 00 00 00 00 00 00 00 00 00 00 00 00 00 00 00 ................
00400940 00 00 00 00 00 00 00 00 00 00 00 00 00 00 00 00 ................
00400950 00 00 00 00 00 00 00 00 00 00 00 00 00 00 00 00 ................
00400960 00 00 00 00 00 00 00 00 00 00 00 00 00 00 00 00 ................
00400970 00 00 00 00 00 00 00 00 00 00 00 00 00 00 00 00 ................
00400980 00 00 00 00 00 00 00 00 00 00 00 00 00 00 00 00 ................
00400990 00 00 00 00 00 00 00 00 00 00 00 00 00 00 00 00 ................
004009A0 00 00 00 00 00 00 00 00 00 00 00 00 00 00 00 00 ................
004009B0 00 00 00 00 00 00 00 00 00 00 00 00 00 00 00 00 ................
004009C0 00 00 00 00 00 00 00 00 00 00 00 00 00 00 00 00 ................
004009D0 00 00 00 00 00 00 00 00 00 00 00 00 00 00 00 00 ................
004009E0 00 00 00 00 00 00 00 00 00 00 00 00 00 00 00 00 ................
004009F0 00 00 00 00 00 00 00 00 00 00 00 00 00 00 00 00 ................
00400A00 00 00 00 00 00 00 00 00 00 00 00 00 00 00 00 00 ................
00400A10 00 00 00 00 00 00 00 00 00 00 00 00 00 00 00 00 ................
00400A20 00 00 00 00 00 00 00 00 00 00 00 00 00 00 00 00 ................
00400A30 00 00 00 00 00 00 00 00 00 00 00 00 00 00 00 00 ................
00400A40 00 00 00 00 00 00 00 00 00 00 00 00 00 00 00 00 ................
00400A50 00 00 00 00 00 00 00 00 00 00 00 00 00 00 00 00 ................
00400A60 00 00 00 00 00 00 00 00 00 00 00 00 00 00 00 00 ................
00400A70 00 00 00 00 00 00 00 00 00 00 00 00 00 00 00 00 ................
00400A80 00 00 00 00 00 00 00 00 00 00 00 00 00 00 00 00 ................
00400A90 00 00 00 00 00 00 00 00 00 00 00 00 00 00 00 00 ................
00400AA0 00 00 00 00 00 00 00 00 00 00 00 00 00 00 00 00 ................
00400AB0 00 00 00 00 00 00 00 00 00 00 00 00 00 00 00 00 ................
00400AC0 00 00 00 00 00 00 00 00 00 00 00 00 00 00 00 00 ................
00400AD0 00 00 00 00 00 00 00 00 00 00 00 00 00 00 00 00 ................
00400AE0 00 00 00 00 00 00 00 00 00 00 00 00 00 00 00 00 ................
00400AF0 00 00 00 00 00 00 00 00 00 00 00 00 00 00 00 00 ................
00400B00 00 00 00 00 00 00 00 00 00 00 00 00 00 00 00 00 ................
00400B10 00 00 00 00 00 00 00 00 00 00 00 00 00 00 00 00 ................
00400B20 00 00 00 00 00 00 00 00 00 00 00 00 00 00 00 00 ................
00400B30 00 00 00 00 00 00 00 00 00 00 00 00 00 00 00 00 ................
00400B40 00 00 00 00 00 00 00 00 00 00 00 00 00 00 00 00 ................
00400B50 00 00 00 00 00 00 00 00 00 00 00 00 00 00 00 00 ................
00400B60 00 00 00 00 00 00 00 00 00 00 00 00 00 00 00 00 ................
00400B70 00 00 00 00 00 00 00 00 00 00 00 00 00 00 00 00 ................
00400B80 00 00 00 00 00 00 00 00 00 00 00 00 00 00 00 00 ................
00400B90 00 00 00 00 00 00 00 00 00 00 00 00 00 00 00 00 ................
00400BA0 00 00 00 00 00 00 00 00 00 00 00 00 00 00 00 00 ................
00400BB0 00 00 00 00 00 00 00 00 00 00 00 00 00 00 00 00 ................
00400BC0 00 00 00 00 00 00 00 00 00 00 00 00 00 00 00 00 ................
00400BD0 00 00 00 00 00 00 00 00 00 00 00 00 00 00 00 00 ................
00400BE0 00 00 00 00 00 00 00 00 00 00 00 00 00 00 00 00 ................
00400BF0 00 00 00 00 00 00 00 00 00 00 00 00 00 00 00 00 ................
00400C00 00 00 00 00 00 00 00 00 00 00 00 00 00 00 00 00 ................
00400C10 00 00 00 00 00 00 00 00 00 00 00 00 00 00 00 00 ................
00400C20 00 00 00 00 00 00 00 00 00 00 00 00 00 00 00 00 ................
00400C30 00 00 00 00 00 00 00 00 00 00 00 00 00 00 00 00 ................
00400C40 00 00 00 00 00 00 00 00 00 00 00 00 00 00 00 00 ................
00400C50 00 00 00 00 00 00 00 00 00 00 00 00 00 00 00 00 ................
00400C60 00 00 00 00 00 00 00 00 00 00 00 00 00 00 00 00 ................
00400C70 00 00 00 00 00 00 00 00 00 00 00 00 00 00 00 00 ................
00400C80 00 00 00 00 00 00 00 00 00 00 00 00 00 00 00 00 ................
00400C90 00 00 00 00 00 00 00 00 00 00 00 00 00 00 00 00 ................
00400CA0 00 00 00 00 00 00 00 00 00 00 00 00 00 00 00 00 ................
00400CB0 00 00 00 00 00 00 00 00 00 00 00 00 00 00 00 00 ................
00400CC0 00 00 00 00 00 00 00 00 00 00 00 00 00 00 00 00 ................
00400CD0 00 00 00 00 00 00 00 00 00 00 00 00 00 00 00 00 ................
00400CE0 00 00 00 00 00 00 00 00 00 00 00 00 00 00 00 00 ................
00400CF0 00 00 00 00 00 00 00 00 00 00 00 00 00 00 00 00 ................
00400D00 00 00 00 00 00 00 00 00 00 00 00 00 00 00 00 00 ................
00400D10 00 00 00 00 00 00 00 00 00 00 00 00 00 00 00 00 ................
00400D20 00 00 00 00 00 00 00 00 00 00 00 00 00 00 00 00 ................
00400D30 00 00 00 00 00 00 00 00 00 00 00 00 00 00 00 00 ................
00400D40 00 00 00 00 00 00 00 00 00 00 00 00 00 00 00 00 ................
00400D50 00 00 00 00 00 00 00 00 00 00 00 00 00 00 00 00 ................
00400D60 00 00 00 00 00 00 00 00 00 00 00 00 00 00 00 00 ................
00400D70 00 00 00 00 00 00 00 00 00 00 00 00 00 00 00 00 ................
00400D80 00 00 00 00 00 00 00 00 00 00 00 00 00 00 00 00 ................
00400D90 00 00 00 00 00 00 00 00 00 00 00 00 00 00 00 00 ................
00400DA0 00 00 00 00 00 00 00 00 00 00 00 00 00 00 00 00 ................
00400DB0 00 00 00 00 00 00 00 00 00 00 00 00 00 00 00 00 ................
00400DC0 00 00 00 00 00 00 00 00 00 00 00 00 00 00 00 00 ................
00400DD0 00 00 00 00 00 00 00 00 00 00 00 00 00 00 00 00 ................
00400DE0 00 00 00 00 00 00 00 00 00 00 00 00 00 00 00 00 ................
00400DF0 00 00 00 00 00 00 00 00 00 00 00 00 00 00 00 00 ................
00400E00 00 00 00 00 00 00 00 00 00 00 00 00 00 00 00 00 ................
00400E10 00 00 00 00 00 00 00 00 00 00 00 00 00 00 00 00 ................
00400E20 00 00 00 00 00 00 00 00 00 00 00 00 00 00 00 00 ................
00400E30 00 00 00 00 00 00 00 00 00 00 00 00 00 00 00 00 ................
00400E40 00 00 00 00 00 00 00 00 00 00 00 00 00 00 00 00 ................
00400E50 00 00 00 00 00 00 00 00 00 00 00 00 00 00 00 00 ................
00400E60 00 00 00 00 00 00 00 00 00 00 00 00 00 00 00 00 ................
00400E70 00 00 00 00 00 00 00 00 00 00 00 00 00 00 00 00 ................
00400E80 00 00 00 00 00 00 00 00 00 00 00 00 00 00 00 00 ................
00400E90 00 00 00 00 00 00 00 00 00 00 00 00 00 00 00 00 ................
00400EA0 00 00 00 00 00 00 00 00 00 00 00 00 00 00 00 00 ................
00400EB0 00 00 00 00 00 00 00 00 00 00 00 00 00 00 00 00 ................
00400EC0 00 00 00 00 00 00 00 00 00 00 00 00 00 00 00 00 ................
00400ED0 00 00 00 00 00 00 00 00 00 00 00 00 00 00 00 00 ................
00400EE0 00 00 00 00 00 00 00 00 00 00 00 00 00 00 00 00 ................
00400EF0 00 00 00 00 00 00 00 00 00 00 00 00 00 00 00 00 ................
00400F00 00 00 00 00 00 00 00 00 00 00 00 00 00 00 00 00 ................
00400F10 00 00 00 00 00 00 00 00 00 00 00 00 00 00 00 00 ................
00400F20 00 00 00 00 00 00 00 00 00 00 00 00 00 00 00 00 ................
00400F30 00 00 00 00 00 00 00 00 00 00 00 00 00 00 00 00 ................
00400F40 00 00 00 00 00 00 00 00 00 00 00 00 00 00 00 00 ................
00400F50 00 00 00 00 00 00 00 00 00 00 00 00 00 00 00 00 ................
00400F60 00 00 00 00 00 00 00 00 00 00 00 00 00 00 00 00 ................
00400F70 00 00 00 00 00 00 00 00 00 00 00 00 00 00 00 00 ................
00400F80 00 00 00 00 00 00 00 00 00 00 00 00 00 00 00 00 ................
00400F90 00 00 00 00 00 00 00 00 00 00 00 00 00 00 00 00 ................
00400FA0 00 00 00 00 00 00 00 00 00 00 00 00 00 00 00 00 ................
00400FB0 00 00 00 00 00 00 00 00 00 00 00 00 00 00 00 00 ................
00400FC0 00 00 00 00 00 00 00 00 00 00 00 00 00 00 00 00 ................
00400FD0 00 00 00 00 00 00 00 00 00 00 00 00 00 00 00 00 ................
00400FE0 00 00 00 00 00 00 00 00 00 00 00 00 00 00 00 00 ................
00400FF0 00 00 00 00 00 00 00 00 00 00 00 00 00 00 00 00 ................
00401000 CE 36 9A 55 62 6C                               .6.Ubl         

l00401006:
	mov	esi,edi
	inc	ebx
	dec	edi
	xor	dl,bh
	xor	ecx,edx
	inc	ecx
	mov	dl,bh
	add	ecx,ebx
	dec	ch
	jmp	004010EF
0040101A                               41 C6 14 43 22 39           A..C"9

fn00401020()
	push	ebp
	mov	ebp,esp
	or	edx,eax
	sub	ebx,eax
	dec	ecx
	dec	edi
	xor	ecx,edx
	sub	ebx,esi
	dec	ecx
	xor	edx,ecx
	jmp	0040140D
00401035                77 5B 8A 7B F3                        w[.{.     

l0040103A:
	xor	esi,edi
	xor	edx,eax
	or	edi,esi
	xor	esi,edi
	inc	ecx
	mov	esi,eax
	jmp	00401436
0040104A                               1F D2 AF 33                 ...3 

fn0040104E()
	add	edi,ecx
	pop	eax
	inc	edi
	xor	ebx,edx
	or	ecx,edi
	dec	ecx
	sub	ebx,edx
	jpe	0040117D

l0040105F:
	xchg	dl,dl
	jpo	0040117D

l00401067:
	out	dx,al
	mov	cl,F5
	lea	ecx,[ecx+8B66240C]

fn0040106B()
	mov	[esp],ecx
	mov	bx,bx

fn00401070()
	fistp	dword ptr [ecx+32]
	rep	
	sub	ecx,ebx
	sbb	bh,6E
	sub	bl,dh
	or	edi,esi
	xor	ebx,eax
	inc	ebx
	jbe	0040135A

l00401086:
	repne	
	jmp	0040108D
	jpe	0040109D
	xchg	edi,eax
	add	al,[eax]
	add	[ebx+62],dh
	sub	[edx+0C607C36],esp

fn0040109B()
	dec	edx
	inc	ebx
	add	edx,edi
	add	ecx,eax
	mov	ecx,edx
	or	edi,esi
	sub	ebx,edi
	sub	edx,ebx
	jmp	00401006
004010AE                                           A7 15               ..
004010B0 AF 46 31 84                                     .F1.           

fn004010B4()
	lea	esp,[esp+04]
	dec	bh
	inc	esi
	inc	ebx
	not	bl
	mov	dl,ch
	call	0040106B
	mov	al,[ebp+3D]
	loope	004010F5

fn004010C9()
	sub	ecx,esi

l004010CA:
	into	
	or	esi,edx
	dec	ecx
	dec	ebx
	xor	edi,eax
	add	ecx,edi
	xor	esi,eax
	add	ecx,esi
	jz	0040146D

l004010DD:
	jle	004010DF

l004010DF:
	push	edx
	pop	edx
	jnz	0040146D

l004010E7:
	in	eax,57
	inc	ecx
	and	eax,02EF7527

l004010EF:
	add	ch,dl

fn004010F0()
	jmp	far CB02:DA2A

l004010F5:
	sub	ebx,ecx
	or	bh,cl
	or	dl,dh
	sbb	ch,F0
	xor	edi,eax
	inc	esi
	jmp	0040122C
00401106                   E3 19 A4 61 63                      ...ac    

fn0040110B()
	mov	[esp],ebx
	mov	al,al
	pop	ebx
	xor	edi,eax
	xor	ecx,edi
	add	esi,edx
	xor	edi,edx
	inc	esi
	mov	ebx,esi
	or	ecx,esi
	jc	0040112A

l00401120:
	jnc	00401122

l00401122:
	jnc	0040112A

l00401124:
	jpe	0040112A

l00401126:
	mov	ebp,42CB9F1A

l0040112A:
	inc	edx

l0040112B:
	sub	eax,EEEEEEEE
	inc	ebx
	inc	ecx
	sub	edx,esi
	xor	edi,ecx
	mov	edx,esi
	inc	ebx
	call	0040132B
	or	eax,11D268A6
	xor	eax,41F80B9A

l00401145:
	or	edi,eax
	inc	ecx

fn00401148()
	mov	esi,ebx
	inc	edi
	dec	ecx
	mov	esi,eax
	or	edx,edi
	inc	esi
	jle	0040104E

fn00401157()
	rep	
	mov	ax,ax
	jg	0040104E
	and	[edi+5E],dl
	rol	edi,01
	add	ebx,ecx
	or	edi,ecx
	add	esi,edx
	sub	edx,ecx
	xor	edi,esi
	inc	edi
	mov	esi,eax
	inc	edx
	jmp	004012BA
	outsd	
	insd	
	mov	cl,8E

l0040117D:
	add	ecx,esi
	xor	ecx,ebx
	dec	ebx
	xor	esi,eax
	inc	ebx
	dec	esi
	push	dword ptr [eax+30]
	xor	edi,esi
	sub	ebx,ecx
	jz	00401455

l00401193:
	xchg	dh,dh
	xchg	cl,cl
	jnz	00401455

l0040119D:
	mov	edi,462708EA
	xchg	[ebx],dh
	fldcw	word ptr [ebx]
	ror	[ebx],cl
	illegal	
	inc	edi
	or	ebx,ecx
	xor	esi,edx
	push	dword ptr [eax+08]
	jmp	004011B9
	arpl	[esi],bx
	daa	
	stosd	
	dec	ebx
	xor	ebx,edi
	sub	ebx,esi
	mov	esi,ebx
	or	edi,edx
	sub	edi,ecx
	mov	ecx,esi
	call	00401377
	sar	bh,DA
	push	edx

fn004011CF()
	lea	esp,[esp+04]
	sub	edx,esi
	mov	ecx,edi
	mov	ebx,ecx
	mov	edi,edx
	mov	edi,esi
	jmp	004012F3
004011E2       59 43 F7 81 D2 2D 44 D4 0B CB 49 8B D1 8B   YC...-D...I...
004011F0 F9 2B C8 33 D3 43 7A AC F3 7B A9 1A 1E C6 62 E1 .+.3.Cz..{....b.
00401200 88                                              .              

fn00401201()
	inc	edi
	dec	ebx
	sub	edx,edi
	inc	edx
	inc	edi
	inc	edx
	xor	ebx,eax
	call	004013EE
	sbb	eax,[eax-1C]
	and	al,E3
	illegal	

fn00401215()
	or	edx,eax
	or	ebx,edx
	or	edx,esi
	or	ecx,eax
	sub	edi,ebx
	sub	edi,edx
	call	0040110B
	div	byte ptr [esi+43EFCA9D]

fn0040122C()
	mov	dl,bh
	sub	edx,ebx
	inc	esi
	add	dl,cl
	mov	ecx,ebx
	adc	dl,50
	not	dl
	call	004013D7
	mov	ebx,89E3AA75
	sbb	al,24
	xchg	bh,bh
	jge	0040124A

l0040124A:
	pop	ebx
	inc	esi
	mov	edi,eax
	sub	edi,edx
	mov	ecx,esi
	add	edx,ecx
	and	eax,EEEEEEEE
	jmp	00401215
0040125B                                  A4 02 22 CA C4            .."..
00401260 2E 68 33 D7 4B 33 F1 4E 33 D6 03 DA 8B C7 8B F1 .h3.K3.N3.......
00401270 E8 08 00 00 00 AA 27 BC 52 62 51 0D 5E 8F 44 24 ......'.RbQ.^.D$
00401280 DC 0B CA 33 C8 33 F1 46 8B C8 41 49 4F 33 D0 7C ...3.3.F..AIO3.|
00401290 50 8A FF 8D 12 7D 4A 45 D2 B9 85 7F 14 7B 66 FF P....}JE.....{f.
004012A0 30 33 D8 03 FB 33 F7 8B F8 8B D7 46 8B F3 E9 B3 03...3.....F....
004012B0 FE FF FF B0 AF 82 7E 4D 55 D8 33 FB 0B F9 33 FA ......~MU.3...3.
004012C0 4A 4E 58 8B D7 0B F3 0B F3 4B 0F 88 1A FF FF FF JNX......K......
004012D0 8B D2 87 FF 0F 89 10 FF FF FF BF 0A 45 C4 82 4F ............E..O
004012E0 19 8B C7 47 8B C3 4E 2B DE 8B FA 4E 8B F8 E9 9C ...G..N+...N....
004012F0 01 00 00                                        ...            

fn004012F3()
	mov	ebx,eax
	sub	esi,edi
	or	ecx,edi
	pop	eax
	inc	ebx
	mov	edi,ebx
	jle	004010C9

l00401303:
	xchg	si,si
	jg	004010C9

l0040130C:
	pop	edi
	fst	double ptr [ebx+17]
	lodsd	
	xchg	eax,esp

fn00401312()
	or	ecx,esi
	inc	edx
	push	dword ptr fs:[00000018]
	dec	ecx
	inc	ecx
	inc	edi
	inc	ecx
	jmp	00401145
00401325                F3 03 1D 10 DE 97                     ......    

fn0040132B()
	mov	[esp],edx
	repne	
	pop	edx
	inc	esi
	add	edx,edi
	inc	edi
	xor	ecx,ebx
	or	eax,eax
	jmp	004013C2
	mov	cl,D1
	scasd	
	repne	
	add	eax,[ebx+C88BC82B]
	mov	esi,edx
	pop	eax
	or	edx,edi
	sub	edi,eax
	add	edx,ecx
	jmp	004013AA
	dec	edx
	jz	00401375
	add	cl,al
	jno	00401321
	illegal	

fn0040135A()
	add	esi,eax
	sub	ebx,esi
	sub	ebx,eax
	sub	edi,ecx
	mov	edi,ebx
	dec	ecx
	or	esi,ebx
	xor	ebx,ecx
	js	00401312
	jmp	00401371
	mov	ah,79
	lahf	
	mov	ebx,8FBDA3AE
	inc	esp
	and	al,D4
	sub	edx,eax
	sub	ebx,edx
	or	edi,edx
	or	edx,edi
	mov	edx,edi
	or	esi,eax
	mov	esi,ecx
	jmp	00401343
	sbb	[ecx+3457F2C9],bh
	insb	

fn00401392()
	dec	esi
	xor	ecx,esi
	sub	edx,ecx
	xor	edx,eax
	sub	esi,edi
	inc	edi
	or	edx,esi
	jmp	0040103A
004013A3          29 67 61 90 32 93 91 4B 8B F7 0B F0 8B    )ga.2..K.....
004013B0 CF 4B 33 F1 2B FA 4E 33 F0 E8 85 FE FF FF 9F 5B .K3.+.N3.......[
004013C0 CE F2 74 01 C3 C9 41 42 2B D8 33 FB E9 91 FE FF ..t...AB+.3.....
004013D0 FF C9 98 5E CC C1 B4                            ...^...        

fn004013D7()
	pop	dword ptr [esp-34]
	inc	edx
	adc	ch,AD
	mov	esi,eax
	mov	bl,46
	not	dl
	call	004010B4
	inc	edx
	xor	[edi+D424448F],esi

fn004013EE()
	pop	dword ptr [esp-2C]

fn004013F2()
	sub	edx,ebx
	or	edx,edi
	sub	edx,esi
	pop	eax
	sub	esi,eax
	dec	ecx
	or	edi,esi
	js	00401392

fn00401400()
	mov	cx,cx
	jns	00401392

l00401405:
	pop	ebp
	pop	ecx
	das	
	call	esi
	adc	al,17
	mov	[CE33F12B],al

l0040140D:
	sub	esi,ecx
	xor	ecx,esi

fn00401411()
	mov	edx,ebx
	mov	esi,ecx
	inc	ebx
	mov	ebx,eax
	add	ebx,edx
	mov	ebx,esi
	mov	ebx,edx
	jo	0040109B

fn00401424()
	push	ecx
	pop	ecx
	mov	dl,dl
	jno	0040109B

l0040142E:
	push	edx
	aas	
	jg	004013D9
	in	eax,dx
	adc	[ebx+03F2335C],edi

fn00401436()
	xor	esi,edx
	add	ebx,edi
	push	dword ptr [eax+00000090]
	sub	esi,ebx
	add	ecx,edi
	or	esi,eax
	mov	ebx,edx
	mov	ecx,eax
	call	004011CF
	aam	8F
	sub	eax,336A82B5

fn00401455()
	xor	ecx,edx

fn00401456()
	retf	DA33
00401459                            0B FE 03 D0 4A 0B F9          ....J..
00401460 E9 9C FD FF FF                                  .....          
00401465                BE 44 62 C2 BC 44 07 B6               .Db..D..  

l0040146D:
	mov	edx,eax
	inc	edi
	dec	esi
	mov	ebx,edi
	xor	edx,ecx
	or	edi,esi
	jo	0040129F
	lea	ecx,[ecx]
	xchg	esi,esi
	jno	0040129F
	mov	bh,9C
	adc	cl,bl
	fimul	word ptr [ebx+2AE8CBE3]
	adc	[eax],al
	add	[ecx-38],bh
	push	es
	pop	edi
	mov	bh,EF
	mov	al,8A
	fiadd	dword ptr [edx+91DA37AA]
	push	4C
	sbb	edi,[esi+116A6A6B]
	mov	edx,D1D374A9
	adc	ebp,[ebx+4C]
	sbb	esi,[ebp+4B]
	push	6A
	illegal	
	insd	
	xchg	ebp,esi
	dec	ebx
	push	6A
	xchg	[ebx+ecx*2+6A],edx
	push	87
	xor	ecx,[ebx+6A]
	push	98
	rep	
	illegal	
	mov	ebx,DB6A6A0B
	push	ss
	in	al,CA
	illegal	
	illegal	
	sbb	al,D5
	insd	
	dec	edx
	fdiv	dword ptr [ecx+5C]
	adc	esp,ebp
	dec	edx
	fdiv	dword ptr [ecx+4A]
	fsubr	st(0),st(5)
	xchg	[ecx+D86A6AAB],esi
	cmp	[edx+5B2118AC],al
	dec	esp
	cli	
	jmp	far CA6A:6A4B
	push	ss
	imul	eax,[edi+6A6AEB54],DB
	shr	edx,cl
	fiadd	dword ptr [edi+DAC8DB6B]
	and	ebp,[ebx-79]
	lock	
	jmp	0040157A
	push	87
	loop	0040157E
	push	6A
	xor	[eax+D5309FFE],dl
	sub	dword ptr [edx+6C],15DB6A6A
	fist	dword ptr gs:[ebx]
	jcxz	004014AB
	illegal	
	fisub	dword ptr [ebx]
	insb	
	ja	00401599
	jc	0040159B
	push	9B
	rep	
	out	dx,al
	bound	eax,[edi+6A6ACA51]
	inc	esi
	jle	00401576
	xor	byte ptr [ebx+DB39C180],15
	imul	ebx,ebx,72
	jns	00401514
	mov	[78DB69DB],al
	outsb	
	retf	87A8
	retf	
	push	6A
	xchg	[ecx-6B],dh
	pop	ds
	add	[esi+6B194A78],esp
	ja	004015DE
	push	esi
	jbe	004015CC
	mov	dl,cl
	push	6A
	ja	004015B6
	movsb	
	neg	dword ptr [ecx+CA6D6774]
	push	6A
	dec	edx
	fist	dword ptr fs:[ebx]
	jmp	0B8C9D02
	push	6A
	xchg	eax,esi
	call	A3FBED27
	ret	DB15
	out	35,al
	push	ebp
	fist	dword ptr [esp+ebp*2]
	xchg	edi,ebp
	mov	ch,[edx+6A]
	rep	
	cmp	al,B3
	imul	ebp,[edi],139B30DB
	in	al,DB
	push	ss
	retf	F1D5
	call	far 6A8A:6EC2
	push	DB
	illegal	
	jmp	00401579
	push	ss
	dec	dx
	sbb	edi,esp
	xchg	[ebx+ebp*4+6CDE6A6A],ebx
	illegal	
	mov	di,ds
	add	eax,esi
	mov	edx,4C6AEB1A
	sbb	ebx,[edx+ebp*4]
	push	6A
	fist	dword ptr [ebx]
	imul	edx,[esi+36],8B4B87D5
	push	6A
	push	esi
	add	eax,414CCF3D
	sub	ecx,[ecx+eax*2+69]
	aaa	
	call	far 374C:4A47
	and	byte ptr [edi-15],DA
	imul	ecx,edx,CB141B4C
	push	6A
	retf	CAD1
	sbb	ch,[ebx-79]
	xchg	eax,edx
	retf	
	push	6A
	pushf	
	cmp	[ebx+AB596E6B],esp
	dec	edx
	sbb	ebx,ebp
	mov	bh,6A
	xchg	[edx+ecx*2+6AB74A4A],edx
	sbb	al,13
	call	EB59608A
	jz	0040159F
	push	esp
	or	ebp,[edx+6A]
	mov	bl,12
	rcr	esp,cl
	add	eax,E7DB1542
	xor	eax,6B19DB55
	fld	tword ptr [edx]
	fist	dword ptr [ebx+ebp*8]
	fist	dword ptr [0BAD876C]
	push	6A
	xchg	[ecx],ecx
	mov	ch,[edx+6A]
	adc	esi,eax
	push	esi
	pushf	
	inc	ebx
	mov	eax,[6AAB81D2]
	push	6A
	dec	ecx
	mov	dl,cl
	retf	CA85
	movsd	
	illegal	
	xchg	ecx,eax
	mov	ch,[edx+6A]
	shr	[esi+73],cl
	add	[esi+83D551B3],cl
	mov	[DB156AEB],al
	out	DA,al
	loop	00401652
	aam	35
	push	ebp
	xchg	ecx,esi
	imul	ebp,[edx+6A],5B
	popa	
	popf	
	add	cl,dl
	adc	esp,[esi+4A]
	fsubr	st(0),st(6)
	dec	edx
	fsubr	dword ptr [ebx+74]
	hlt	
	sub	ebp,[edx+6A]
	xchg	eax,ebp
	xchg	ecx,edi
	dec	ebx
	push	6A
	sbb	[esi+66828C72],edi
	imul	edi,edi,67
	fldl2e	
	push	6A
	adc	ch,[edx+1A]
	push	6A
	dec	esp
	fimul	dword ptr [ecx+4B]
	push	6A
	jpe	0040168D
	or	ecx,[edx+ebx*8+48]
	dec	ebx
	push	6A
	fisubr	dword ptr [ecx+5A]
	dec	esp
	pop	ebx
	inc	edi
	dec	ebx
	push	6A
	xchg	[esi+4B],esp
	push	6A
	dec	ebx
	dec	esp
	repne	
	xlat	
	push	edx
	jle	0040164C
	inc	eax
	fistp	dword ptr [ecx]
	jmp	004016A0
	sbb	ch,[ebx-38]
	illegal	
	inc	ebx
	push	esi
	and	dword ptr ss:[edx+87156AEB],D2
	mov	ebp,[edx+6A]
	lock	
	push	ecx
	and	bh,fs:[ebx]
	mov	dword ptr [edi+6AAAE887],EACF676A
	push	6A
	iret	
	ret	
	dec	esp
	sbb	esp,esp
	or	ebp,[edx+6A]
	in	eax,dx
	jmp	far 9E87:6A6A
	dec	ebx
	push	6A
	inc	dword ptr [edi+6A6A0B01]
	stc	
	xchg	eax,edi
	lds	esi,[ebx]
	pop	ds
	cmp	[edx+6B19CA0E],bh
	illegal	
	insb	
	retf	6B1A
	xchg	[edx],edi
	imul	ebp,[edx+6A],00
	lahf	
	push	6A
	push	7A
	dec	esp
	cli	
	aaa	
	stosb	
	push	6A
	adc	[edx+6A],ebp
	push	7A
	jz	004016B1
	xchg	eax,esp
	stosb	
	push	6A
	lodsd	
	xchg	eax,esi
	xlat	
	lodsb	
	dec	edx
	sbb	[esp+edx*8+67],esp
	pop	ebp
	retf	6A6A
	aam	67
	scasb	
	dec	edx
	dec	edx
	dec	edx
	illegal	
	retf	F172
	dec	edx
	js	00401739
	aam	67
	in	eax,8B
	push	6A
	xchg	[ebx+0A],eax
	dec	edx
	dec	edx
	add	ch,bh
	sbb	ah,ch
	insd	
	sbb	ebx,13CFEB13
	in	al,dx
	wait	
	adc	ebp,ebx
	wait	
	adc	ebp,[ecx+7A]
	sbb	ch,[edx+ebp*2+4C]
	cli	
	illegal	
	sub	cl,[edx+4A]
	dec	esp
	and	[ebx],edx
	insb	
	wait	
	adc	ebp,ecx
	fistp	dword ptr [ecx]
	imul	eax,[edi+6A6A6A24],97
	jz	004017F2
	in	al,A6
	dec	eax
	push	ebx
	illegal	
	dec	edx
	sbb	[ebx-49],ebp
	dec	edx
	ja	0040180A
	push	esi
	jbe	004017F8
	add	ecx,[bp+si+6A6A]
	ja	0040175F
	iret	
	cli	
	add	eax,6AE76774
	push	6A
	dec	edx
	add	dword ptr fs:[edi+6A6AEA04],45
	shl	ch,E7
	ret	F9CF
	out	dx,al
	outsd	
	wait	
	stc	
	out	dx,al
	in	eax,dx
	xchg	eax,esi
	and	dword ptr [edx+14CA6A6B],66
	dec	edx
	fsubr	dword ptr [esp+esi*2-6C]
	inc	edx
	or	cl,[edx+4A]
	illegal	
	jmp	00401754
	illegal	
	dec	edx
	dec	edx
	jcxz	004017D2
	pop	ds
	pusha	
	adc	eax,E2DAE7DB
	call	75292AFB
	call	far 4A4A:EB1A
	push	6A
	xchg	[1F4A4A2A],ebp
	retf	
	mov	ecx,EE3A7BF5
	fist	dword ptr [edx+8AF2DBF1]
	outsd	
	retf	9B82
	adc	esp,ebx
	fist	dword ptr [esi]
	dec	dx
	sbb	ebx,esp
	xchg	[edi+4A],ebp
	dec	edx
	dec	edx
	fidivr	dword ptr gs:[eax]
	insd	
	jbe	0040187B
	jge	004017FF
	enter	CAFE,19
	jmp	49EBBFF5
	movsd	
	illegal	
	enter	87FE,8C
	retf	6A6A
	xchg	[edx+426A6ACA],ebp
	pop	ebp
	push	esp
	cmpsb	
	jbe	0040183F
	push	eax
	call	dword ptr [ebx+edi*4+CC887AA3]
	stosb	
	and	al,A4
	bound	edi,[ebx+9563A4A3]
	mov	edi,6ACAEA87
	push	CE
	add	al,8E
	cdq	
	or	eax,[ecx-25]
	sub	cl,[ecx+16]
	mov	[edi+4A4A0A97],es
	ficomp	dword ptr [edx]
	jmp	00401807
	dec	esp
	mov	edx,6A6AAAA3
	illegal	
	shl	byte ptr [edi+eax*4+4A4A0A65],01
	jz	004018A3
	inc	esp
	mov	[1CA24E83],al
	rep	
	out	dx,al
	bound	edx,[ebx+ebx*4+1C62EEF4]
	hlt	
	out	dx,al
	bound	esi,[edi+esi*4+8787744A]
	mov	ch,[edx+6A]
	test	al,84
	cmpsd	
	mov	edi,DB15A873
	out	DA,al
	loop	0040187D
	aam	35
	push	ebp
	fist	dword ptr [ebx]
	imul	ecx,edx,72
	illegal	
	xchg	[esi+494A4AE9],ebx
	xor	[edx-04],edi
	mov	esi,C868CF5B
	illegal	
	xchg	[edi],ebp
	mov	ch,[edx+6A]
	stosb	
	movsb	
	dec	esp
	sbb	edx,[ebp-56]
	push	6A
	mov	ebx,AA14872D
	push	6A
	xchg	[edx-70],bh
	fiadd	dword ptr [edi]
	xchg	eax,ebx
	retf	
	or	dword ptr [ebx+ebx-72],2B
	push	6A
	illegal	
	and	dword ptr [edx+93876AEB],0A
	dec	edx
	dec	edx
	or	ch,[esi+2ADC6015]
	illegal	
	and	ebp,edx
	xchg	eax,edx
	rcl	dword ptr [ecx+ebp*8],01
	dec	esp
	mov	edx,6A6A4B7D
	push	esi
	illegal	
	add	edi,37
	jmp	7479EC51
	ja	00401975
	push	esi
	jbe	00401963
	mov	ch,6A
	push	6A
	ja	004018D0
	cwde	
	retf	
	xor	byte ptr [edi-66],4A
	dec	edx
	dec	edx
	dec	edx
	xchg	fs:[esi+2B],esp
	push	6A
	jl	00401956
	adc	[eax+9B6913DB],bh
	adc	esp,[ebp-25]
	adc	esp,edi
	mov	dword ptr [ebx],6A4B0787
	push	73
	and	byte ptr [edi+4C],87
	dec	ebx
	push	6A
	mov	eax,77BF6452
	jpo	0040198E
	jbe	004019A0
	push	cs
	push	6A
	push	77
	aaa	
	aam	AA
	mov	dl,74
	repne	
	dec	edx
	dec	edx
	dec	edx
	dec	edx
	fist	dword ptr fs:[ebx]
	imul	eax,[edi+6A6A8AEA],FF
	xchg	eax,edx
	illegal	
	nop	
	jc	004018FC
	imul	ebp,[edx+15],DB
	out	D4,al
	neg	bl
	or	eax,6A6A6A70
	illegal	
	jmp	00401946
	movsd	
	illegal	
	jmp	0040194B
	mov	ah,EB
	xchg	edx,eax
	retf	6A6A
	mov	ch,C6
	mov	dword ptr [ebp+7CE3AD82],67E9194A
	xor	al,2A
	dec	edx
	dec	edx
	mov	dword ptr [edx+ecx*8+13],AA721C6B
	jz	004019DB
	sbb	ecx,ebp
	adc	ch,[bp+si]
	dec	edx
	dec	edx
	fild	word ptr [edi+6A6A0B49]
	pop	edx
	ret	E0BE
	stosb	
	ja	00401A10
	push	6A
	push	5C
	adc	ebp,ecx
	ja	0040197B
	scasb	
	cmp	eax,edx
	pop	esp
	adc	ebp,[ecx+77]
	jcxz	0040199A
	jcxz	0040199C
	pop	esp
	adc	ebp,eax
	ja	004019A1
	jcxz	004019A3
	jcxz	00401A1E
	adc	ebp,[eax-79]
	pop	ebx
	jmp	far FB41:6A6A
	and	[edi-25],dl
	sbb	ch,[ebx-17]
	mov	al,[FEC5D07A]
	shr	byte ptr [edx+4A2A0567],4A
	fsubr	dword ptr [ecx]
	xchg	[ebx],esp
	mov	ch,[edx+6A]
	and	al,D8
	in	al,dx
	cmpsd	
	sub	al,8F
	neg	bl
	push	cs
	jo	00401A59
	push	6A
	illegal	
	jmp	004019D0
	aam	EB
	illegal	
	jmp	004019C2
	or	eax,[edi+6A6ACAA8]
	illegal	
	in	eax,dx
	rol	dword ptr [ebx+4C],01
	sbb	eax,[edi]
	retf	6A6A
	dec	edx
	sbb	[ebx-79],ebp
	movsb	
	retf	6A6A
	daa	
	mov	dh,ch
	inc	esi
	test	[edi-7E],dh
	xor	[ebp-78],ah
	jz	00401A87
	mov	bh,2A
	dec	edx
	dec	edx
	dec	edx
	fist	dword ptr fs:[ebx]
	push	6AEAA283
	xchg	esi,ebx
	or	cl,[edx+4A]
	add	edi,[esi]
	pop	esi
	out	dx,ax
	daa	
	pop	ebx
	adc	eax,6C60923F
	js	00401A6A
	dec	edx
	dec	edx
	lodsb	
	bound	ebx,eax
	dec	ecx
	dec	esp
	sbb	esi,esp
	jmp	far 87BF:6A6A
	sbb	al,E9
	dec	edx
	dec	edx
	popa	
	add	eax,6E9AB46B
	and	dword ptr [edx+DB156A6B],E7
	ja	00401ACB
	jpe	00401ACD
	push	1C
	adc	ebp,ebx
	jz	00401A30
	sbb	cl,bh
	inc	ebp
	add	eax,555B25C1
	ja	00401AEE
	push	esi
	jbe	00401ADC
	xchg	[bp+si],ch
	dec	edx
	dec	edx
	ja	00401A5C
	ja	00401A49
	call	2AAB81F8
	dec	edx
	dec	edx
	jz	00401A0F
	leave	
	test	eax,778D4A4A
	dec	ebp
	call	far 156A:6BA2
	illegal	
	illegal	
	imul	edx,esp,81875535
	jmp	822364ED
	push	es
	sbb	ebx,[edx+DAE7DB15]
	loop	00401A8F
	aam	B7
	push	4C
	nop	
	illegal	
	call	far 6A6A:4A86
	push	B7
	mov	al,[edi+6A6ACA42]
	fld	double ptr [edi+6A6A0BEB]
	test	[edi+272329C4],ch
	jnz	00401B24
	and	dword ptr [edx+DB156A6B],E7
	aam	35
	push	ebp
	fistp	dword ptr [edx]
	jmp	00401A63
	stosd	
	dec	edx
	dec	edx
	dec	edx
	or	cl,dl
	sti	
	illegal	
	into	
	mov	ebp,6B131CCB
	jz	00401AA3
	dec	edx
	ja	00401B6A
	push	esi
	jbe	00401B58
	pop	ss
	sub	cl,[edx+4A]
	ja	00401AD8
	ja	00401AC5
	call	0B3B8274
	dec	edx
	dec	edx
	xchg	ebx,eax
	mov	ch,[edx+6A]
	and	edx,edi
	retf	
	cmc	
	hlt	
	retf	
	call	far C2A4:AC33
	rol	byte ptr [ebx+0A7D6792],01
	dec	edx
	dec	edx
	int	03
	and	dword ptr [edi-64],0A
	dec	edx
	dec	edx
	mov	eax,E93B87A8
	dec	edx
	dec	edx
	jmp	far DB8E:8D6F
	adc	al,EB
	enter	87FE,1D
	test	eax,13DB4A4A
	jmp	DAA92ECC
	bound	ebp,[ebx+87EB138F]
	mov	ecx,5C4A4AA9
	pop	eax
	mov	ah,9F
	retf	8284
	mov	[83CB93CA],al
	dec	esp
	sbb	esp,[ebp-17]
	dec	edx
	dec	edx
	fist	dword ptr [ebx]
	imul	ebx,ebx,14
	jmp	00401B3B
	adc	eax,EA54876C
	push	6A
	leave	
	illegal	
	xor	al,77
	jpo	00401BC4
	jbe	00401BD6
	inc	edi
	or	cl,[edx+4A]
	ja	00401BAD
	loop	00401BC2
	sub	[edi+2C],dh
	or	cl,[edx+4A]
	dec	edx
	xchg	fs:[ebp-77],eax
	dec	edx
	dec	edx
	dec	esi
	illegal	
	add	edi,[ebx+67]
	dec	esp
	illegal	
	jpo	00401B5D
	mov	[4A0AF487],al
	dec	edx
	mov	dword ptr [edx+879562D0],4A4A0A12
	fsubr	double ptr [esi+E44C46FB]
	test	eax,8A6783D0
	or	cl,[edx+4A]
	dec	esp
	ficom	dword ptr [eax]
	leave	
	dec	edx
	dec	edx
	shl	byte ptr [edx+67],01
	call	4C8A66A8
	ficom	dword ptr [ecx-37]
	dec	edx
	dec	edx
	shr	byte ptr [edx+4A2A5887],4A
	illegal	
	cdq	
	outsd	
	sub	[edx+B8108C63],eax
	xchg	[6C139BEC],bh
	shl	byte ptr [ecx+ecx*2+F2BBEB19],01
	lea	ecx,[edx-45]
	out	dx,al
	lodsd	
	jpo	00401BDF
	lea	ecx,[edx+7B]
	jmp	far E9C4:87AD
	dec	edx
	dec	edx
	in	al,41
	inc	eax
	in	eax,dx
	dec	esp
	pop	ebx
	jmp	far 564A:4A89
	illegal	
	and	dword ptr [edx+1B876A6B],E9
	dec	edx
	dec	edx
	jo	00401BCD
	sbb	bl,70
	jg	00401BEB
	lodsb	
	shl	byte ptr [edx-2F],01
	les	ecx,[ebx+ebx+2F]
	mov	ch,[edx+6A]
	illegal	
	and	dword ptr [edx+DB156AEA],E7
	xchg	edi,edx
	jmp	far F947:6A6A
	retf	
	illegal	
	jl	00401BB6
	pop	ds
	push	6A
	push	DB
	adc	esp,[esi-25]
	arpl	dx,bx
	jc	00401C2C
	illegal	
	outsd	
	retf	9B82
	adc	esp,[edx+ecx*2+19]
	mov	bh,6A
	les	ecx,[bp+si+4A]
	dec	edx
	xchg	[ebx+C84A4A89],esi
	or	al,CB
	mov	cl,7A
	sub	esi,[23EBE177]
	fdiv	dword ptr [edi-51]
	jmp	648A66B0
	fist	dword ptr [ebx]
	jmp	6B2BBEF0
	adc	eax,4AC9CC87
	dec	edx
	mov	dword ptr [ecx+79],6AEAA259
	adc	eax,E2DAE7DB
	push	1C6B194A
	adc	ebp,[ecx+74]
	mov	dword ptr [edi],4E73A68B
	shr	al,cl
	xlat	
	fbld	tword ptr [edi+0A]
	or	cl,[edx+4A]
	wait	
	adc	esp,esi
	dec	edx
	sbb	[ecx+4A],ebp
	sbb	esi,esp
	aam	67
	sbb	cl,[ecx+13494A4A]
	jmp	6AAA8796
	clc	
	pop	ecx
	jz	00401C77
	mov	bh,AB
	int	FC
	cdq	
	lahf	
	test	[edi+4C],ah
	cli	
	mov	[ecx+83CC4A4A],ch
	xchg	esp,esp
	mov	ch,[edx+6A]
	pushf	
	jnc	00401C4F
	mov	[1B4A4A89],al
	lodsd	
	sbb	dword ptr [edx-7F],83644A8D
	mov	[DB156A6B],al
	out	DA,al
	loop	00401CC7
	sbb	al,13
	jmp	6AEA956C
	push	FA
	jl	00401D68
	imul	ebx,es:[esi-53],07
	ja	00401D6B
	push	esi
	jbe	00401D59
	imul	cl
	dec	edx
	dec	edx
	ja	00401D30
	loop	00401D45
	sub	[edi-25],dh
	leave	
	dec	edx
	dec	edx
	dec	edx
	mov	bh,8A
	sbb	al,13
	imul	esi,[esp+ebx+13],C9E687E8
	dec	edx
	dec	edx
	mov	cl,EE
	mov	[ebp-72],edi
	inc	esp
	illegal	
	dec	edx
	sbb	esp,esp
	push	ds
	stosb	
	push	6A
	mov	dword ptr [esi+74E6194A],67E4194A
	push	ebp
	imul	ecx,[edx+4A],784AD4C7
	illegal	
	mov	cl,16
	fcomp	dword ptr [ebx]
	fld	tword ptr [edi+eax*4+4A4A2AA4]
	illegal	
	jo	00401D15
	bound	eax,[edi+4A4A49F4]
	and	byte ptr [edx+4B],87
	push	ebx
	dec	ecx
	dec	edx
	dec	edx
	or	al,4C
	and	eax,edx
	and	eax,16DB1FC7
	imul	ebx,ebx,C4
	iret	
	adc	eax,F1D5CAEB
	sbb	al,DD
	jle	00401DD3
	push	6A
	illegal	
	fist	dword ptr [ebx+ebp*2]
	retf	
	lds	ecx,[edx+edi*8+1B]
	sub	cl,[edx+4A]
	rcl	dword ptr [ebx+ebp*8],01
	xchg	eax,ebx
	dec	ecx
	dec	edx
	dec	edx
	xchg	eax,edi
	mov	edx,9CE9DB61
	dec	ecx
	adc	ebp,ecx
	insb	
	push	6A
	push	4C
	cli	
	popa	
	mov	ch,[edx+6A]
	dec	edx
	sbb	[esi+67],esp
	movsb	
	sub	cl,[edx+4A]
	dec	edx
	sbb	ebp,esp
	dec	edx
	sbb	[esi-79],esp
	dec	edi
	dec	ecx
	dec	edx
	dec	edx
	adc	al,03
	xchg	[edi+74],esi
	mov	[4A2A],eax
	dec	edx
	wait	
	adc	ebp,ecx
	illegal	
	push	F8
	dec	ebx
	illegal	
	xchg	[ebx+DB4A4A89],esi
	fsubr	dword ptr [edi+eax*4-4E]
	mov	[edx+4A],ecx
	call	CB034FD1
	jc	00401DBF
	illegal	
	jz	00401D6D
	adc	al,E5
	mov	bh,72
	dec	edx
	sbb	ebp,esp
	dec	edx
	sbb	[esi-79],esp
	adc	al,2A
	dec	edx
	dec	edx
	imul	edx,eax,94
	mov	ah,AF
	pop	esp
	xor	ebp,[ebp+4A]
	sbb	[esp+ebx*2+33],ebp
	in	eax,dx
	mov	dword ptr [ebx+A8D131DB],E92B1B4C
	dec	edx
	dec	edx
	push	esi
	xchg	ebp,esi
	imul	ecx,[edx+4A],C695F948
	illegal	
	outsd	
	xchg	eax,ebx
	retf	
	sbb	dword ptr [ecx],CF
	dec	edx
	sbb	[edi+4A],esp
	sbb	esp,esp
	shr	cl,cl
	dec	edx
	dec	edx
	fist	dword ptr [esi]
	xchg	[ecx+ecx*4+E9BB4A4A],esp
	pop	es
	adc	[edx+19],cl
	illegal	
	dec	ecx
	dec	edx
	dec	edx
	dec	esp
	inc	ecx
	shr	[ebx],cl
	call	far 6A6A:69C2
	push	C7
	test	[ebx+ebx*8+13CAECD2],dl
	in	al,DB
	shr	ebx,cl
	xchg	eax,edi
	mov	[edx+4A],ecx
	add	ebp,esp
	cmp	[edx+D30C0FC5],ch
	ja	00401EBC
	xor	[edx+6A],ebp
	pop	esp
	adc	esp,[edi+77]
	push	31
	push	6A
	pop	esp
	adc	esp,esi
	ja	00401EAD
	sub	al,30
	lahf	
	pop	esp
	adc	esp,edi
	fist	dword ptr [ebx]
	xchg	bp,dx
	dec	edx
	dec	edx
	dec	edx
	aaa	
	sub	[edx-75],bh
	mov	bh,EA
	mov	ecx,C74C8226
	sbb	byte ptr [ebx+edx*4],8A
	call	far E067:CD89
	mov	cl,[ebx+ebx+11]
	jmp	C5B568D7
	in	al,dx
	out	dx,al
	xchg	[esi-56],ecx
	push	6A
	nop	
	sbb	[edx-18],ebp
	setc	byte ptr [edx+C003DB1D]
	mov	dh,[6A8749DB]
	test	eax,977A4A4A
	enter	B62E,DB
	push	ss
	imul	ecx,edx,D5
	illegal	
	sbb	al,DD
	jpe	00401F21
	push	6A
	illegal	
	retf	
	lds	ecx,[edx+edi*8+67]
	push	6A
	push	CA
	push	ss
	imul	eax,[edi+6A6A6A25],DB
	shr	bl,cl
	retf	6B13
	xchg	esp,esp
	sub	cl,[edx+4A]
	scasb	
	cwde	
	mov	eax,AA58B0DF
	and	dword ptr [edx+DB156A6C],E7
	aam	DB
	adc	al,EB
	fist	dword ptr [esi]
	imul	eax,[edi+4A4A8945],DB
	adc	ebp,[ecx+edx+05]
	dec	edx
	lodsb	
	adc	[edi+4A4AE9C4],eax
	test	al,13
	push	ebx
	imul	ebx,[eax+0C],5D
	pop	ds
	cli	
	mov	[edx+4A],ecx
	dec	edx
	sbb	al,13
	call	56BB9687
	jbe	00401F7B
	mov	dl,A9
	dec	edx
	dec	edx
	xchg	[ecx+F94A4AA9],ebp
	mov	esp,22A001E2
	or	byte ptr [edx-28],71
	dec	edx
	fsubr	st(0),st(5)
	dec	edx
	fsubr	st(0),st(5)
	xchg	eax,ecx
	or	cl,[edx+4A]
	into	
	leave	
	dec	edx
	dec	edx
	cmpsb	
	jmp	13DB698A
	neg	bl
	or	al,70
	push	6A
	push	9B
	xchg	eax,edx
	imul	ecx,[edx+19],E5
	mov	dword ptr [edi+7A],C6DBC370
	cmp	dh,[edx+ecx*2+19]
	insb	
	sbb	al,13
	jmp	00401FD2
	sbb	al,13
	imul	esi,[edi+esi*4+4A],77
	jpo	00401FBD
	jbe	00401FCF
	sub	[bx+di+4A4A],cl
	xchg	[edi],esp
	jmp	5AF669BF
	inc	esi
	jbe	00401FF5
	dec	edx
	sbb	[esi+67],esp
	xchg	eax,esp
	dec	ecx
	dec	edx
	dec	edx
	fist	dword ptr [esi]
	in	al,CA
	illegal	
	illegal	
	dec	edx
	fdiv	st(0),st(4)
	dec	edx
	sbb	esp,esp
	xchg	esp,edi
	sub	cl,[edx+4A]
	das	
	outsd	
	push	3C
	fidiv	dword ptr [edx]
	push	4C
	sbb	ebx,[ecx+DA4A4A49]
	ret	DAEC
	fldpi	
	push	4C
	sbb	ebp,[esi+4A]
	dec	edx
	dec	edx
	push	esi
	xchg	eax,edi
	mov	ch,[edx+6A]
	jg	00401FDD
	call	ebp
	nop	
	imul	edx,[eax+8336566C],A2
	jmp	0040202A
	adc	eax,DB76E7DB
	sbb	ebx,ebp
	xchg	[edx+9E4A4AA9],ecx
	sbb	ch,[ecx]
	in	eax,8A
	adc	al,85
	lds	ebp,edx
	out	dx,al
	lds	ebp,edx
	out	dx,al
	add	ch,EA
	out	dx,al
	dec	esp
	mov	esp,EAC58226
	out	dx,al
	xchg	ebx,ebx
	sub	cl,[edx+4A]
	rcr	cs:[edx+D8E42B79],cl
	sub	[ebx+edx],bl
	push	E8131C74
	jz	00401FB4
	push	B7
	push	77
	jpo	00402059
	jbe	0040206B
	mov	ah,89
	dec	edx
	dec	edx
	ja	0040202D
	dec	edx
	out	dx,al
	shl	byte ptr [edi+eax*4+68],01
	sub	cl,[edx+4A]
	sbb	dword ptr [edi+DB627255],62D055E7
	fist	dword ptr [ebx+ebp*8]
	fistp	dword ptr [edx]
	imul	ecx,eax,BF
	xchg	[esi+9A4A4AA9],ebx
	ja	00402000
	sbb	ebx,[ecx+77]
	shl	byte ptr [edx-39],01
	sub	eax,[edx+8AB04B62]
	xchg	eax,edx
	jpe	00401FCF
	push	87
	cmp	al,6A
	push	6A
	in	eax,53
	sahf	
	imul	edx,[esi+ebp*2+4A],67D4E619
	cmp	al,2A
	dec	edx
	dec	edx
	dec	ecx
	adc	ebp,ecx
	imul	ebp,[edx+6A],6A
	dec	esp
	cli	
	xchg	eax,ecx
	jmp	198A6AAC
	push	4AE8194A
	sbb	esi,esp
	aam	87
	scasb	
	jmp	481E6ABB
	pop	eax
	pop	ebp
	jle	00402051
	jnc	004020E5
	wait	
	adc	al,E9
	fist	dword ptr [esi]
	jmp	0040204F
	add	dword ptr [edi+4A4A6956],94
	fld	tword ptr [edx+ecx*8]
	mov	[F95F3FC7],eax
	mov	al,32
	jmp	far 72B7:3199
	ja	00402101
	jo	00402103
	push	1C
	adc	ebp,ebx
	jz	00402056
	push	1C
	adc	ebp,[ebx+74]
	mov	bh,4A
	xchg	[ebx+464A4A69],edi
	mov	ch,BE
	int	9C
	add	[edi+esi*8+6ACA6175],ecx
	push	6A
	shl	byte ptr [edi+esi+FB37673C],01
	test	[bp+di-48],ah
	mov	[edi+4A4A6934],eax
	or	al,A2
	jns	00402109
	pop	ebp
	jl	004020A1
	xchg	eax,ecx
	dec	esp
	sbb	esi,[esi]
	dec	edx
	dec	edx
	dec	edx
	adc	[edx+D1D374A9],edi
	ret	1B4C
	and	[ecx+53DB4A4A],ebp
	out	dx,al
	retf	95A2
	dec	esp
	inc	ecx
	jmp	00402162
	fist	dword ptr [ebx-13]
	retf	87A2
	cmp	eax,0E4A4AA9
	scasb	
	xchg	[ebp+5622AD0B],edi
	and	byte ptr [esi+4C],4C
	inc	ecx
	imul	ebx,[edx+6AB51487],6A
	retf	
	or	dword ptr [ebx+ebx-34],69
	dec	edx
	dec	edx
	wait	
	adc	esp,[esi-17]
	xchg	[ebx],edi
	imul	ecx,[edx+4A],F3ABD40E
	jpe	0040210B
	sti	
	popa	
	illegal	
	and	dword ptr [edx+DB156AEA],E7
	aam	35
	push	ebp
	xchg	esi,ebp
	jmp	73F36B82
	sub	bh,[edi]
	jcxz	004021B5
	jns	004020C8
	dec	ebp
	fisub	dword ptr [ebx]
	stosb	
	fiadd	dword ptr [edi+4C83CBAA]
	sbb	ebx,[eax+ebp*8]
	dec	edx
	dec	edx
	retf	EAD5
	illegal	
	jmp	far A93E:876B
	dec	edx
	dec	edx
	fdivr	dword ptr [edx-14]
	or	[bp+si],edx
	pop	ecx
	adc	[edx+8F205710],dh
	inc	esp
	and	al,D8
	or	edi,ebx
	xor	esi,ecx
	sbb	dl,9B
	or	esi,eax
	push	dword ptr [ecx]
	jpe	0040232C
	mov	bh,bh
	jpo	0040232C
	pop	esp
	in	eax,dx
	into	
	xchg	eax,esp
	xor	ebx,edi
	mov	ebx,edx
	pop	esi
	dec	eax
	add	edi,ebx
	sub	bl,bh
	inc	cl
	mov	eax,esi
	inc	ah
	dec	ebx
	jmp	00402833
	sub	cl,[eax]
	dec	edi
	mov	eax,[8BD5F6FE]
	iret	
	xor	ebx,esi
	neg	bh
	neg	cl
	mov	ebx,ecx
	or	ecx,edx
	sbb	ch,8B
	add	bl,00
	mov	cl,al
	jo	004023AB
	repne	
	jno	004023AB
	rol	dword ptr [ebx+2133C544],01
	dec	edi
	or	dh,cl
	adc	dh,29
	mov	esi,eax
	xor	dl,ah
	sbb	bl,6B
	dec	bh
	js	0040256B
	repne	
	mov	di,di
	jns	0040256B
	mov	[edi-6D],ss
	pop	ebp
	cmp	dh,dh
	illegal	
	or	bl,ch
	inc	dl
	mov	edx,ebx
	inc	ebx
	xor	dh,bl
	jmp	004022B2
	rep	
	ficom	dword ptr [eax]
	push	esp
	xchg	eax,ecx
	stosb	
	not	bl
	sub	bl,dl
	add	bh,dl
	xor	bl,bh
	inc	bh
	add	bl,ah
	inc	edi
	dec	bl
	sub	bh,ah
	sbb	bh,3B
	call	004024A7
	out	dx,al
	sbb	byte ptr [ebp-09],0F
	push	ds
	xor	edi,esi
	cmp	ebx,4DD35873
	jnz	00402BC0
	add	ch,BF
	inc	ebx
	mov	al,63
	call	00402C56
	lahf	
	jcxz	0040222D
	mov	ah,AC
	inc	edx
	or	bh,al
	sub	bh,ah
	not	bl
	sub	bh,dl
	mov	bh,77
	sub	esi,ecx
	call	00402524
	mov	[edi+79CDAD92],ds
	dec	ebx
	mov	ebx,eax
	add	bl,ch
	inc	edx
	neg	bl
	dec	bl
	mov	bh,56
	call	00402782
	inc	edi
	mov	al,[AF83D0C1]
	add	eax,08C08360
	dec	bl
	not	bl
	mov	esi,ecx
	adc	bl,67
	sub	bl,ah
	or	edi,edx
	xor	bl,bh
	js	0040264C
	xchg	bh,bh
	mov	esi,esi
	jns	0040264C
	stosb	
	xchg	eax,ecx
	push	eax
	mov	[ebp+0ACA8B7C],eax
	fiadd	dword ptr [eax+C0FEEAD1]
	adc	bh,6F
	dec	eax
	call	00402869
	nop	
	push	88
	cmp	dh,[edx+0A]
	out	B4,al
	cmp	esi,esi
	faddp	st(3),st(0)
	add	ah,dh
	not	ch
	sub	ch,cl
	not	dl
	call	00402BF0
	mov	dl,74
	push	ecx
	out	dx,al
	jc	00402257
	pop	ebp
	or	cl,ch
	dec	ebx
	dec	ecx
	or	eax,ecx
	mov	ebx,eax
	inc	eax
	or	dl,bl
	not	bl
	not	dh
	call	00402937
	xor	[edx+D703BC61],ebp
	mov	edx,eax
	or	bh,dh
	or	esi,eax
	sbb	ch,80
	sub	ah,cl
	mov	ah,01
	or	esi,ebx
	adc	bl,0D
	jmp	00402A46
	push	ds
	sahf	
	or	bh,[ebx+30]
	push	809DC780
	shl	ecx,cl
	dec	edi
	lea	eax,[eax+78]
	sub	bh,ah
	mov	bh,ah
	or	bh,ah
	dec	bh
	jo	00402468
	mov	bx,bx
	jno	00402468
	cmp	eax,5732122F
	illegal	
	dec	esp
	mov	al,8D
	mov	ah,C7
	mov	edi,edx
	sub	edi,esi
	mov	dh,AE
	mov	esi,eax
	sub	edi,ecx
	add	eax,ebx
	jl	00402CCB
	rep	
	jge	00402CCB
	sbb	ebp,[ecx]
	out	dx,al
	sub	bl,0D
	inc	eax
	or	edi,ecx
	sub	al,cl
	inc	eax
	sub	esi,ecx
	dec	ah
	sub	ebx,ecx
	adc	bl,31
	mov	ebx,eax
	xor	eax,ecx
	call	00402165
	clc	
	stosb	
	xor	eax,D3804059
	fild	dword ptr [eax+D8F688D4]
	neg	dl
	mov	eax,ebx
	sub	esi,edx
	add	ah,AB
	call	00402445
	and	[ebx+CCFE280F],dh
	pop	edx
	pop	dword ptr [esp-20]
	inc	ebx
	or	ebx,ecx
	dec	edi
	mov	ebx,eax
	dec	edi
	dec	edi
	js	0040279F
	rep	
	mov	ecx,ecx
	jns	0040279F
	jbe	00402338
	xchg	eax,esi
	xchg	eax,ebp
	pop	edx
	jge	00402399
	xor	esi,ecx
	sub	bh,bl
	mov	edi,esi
	sub	cl,dh
	call	eax
	add	edi,esi
	mov	ecx,eax
	mov	bh,dh
	mov	cl,69
	call	00402752
	xor	dl,[edx+87C6950F]
	or	al,24
	push	ebx
	pop	ebx
	mov	eax,eax
	pop	ecx
	mov	bh,dl
	not	eax
	inc	edi
	call	004028A5
	xchg	[edi],ebx
	fistp	qword ptr [esi+27]
	sbb	[esi],eax
	xchg	[esp],edi
	mov	ah,ah
	xchg	ch,ch
	pop	edi
	sbb	bh,7D
	or	edi,ecx
	or	bh,ah
	add	cl,AC
	jmp	00402EEB
	or	bl,[ebx+8F6FC590]
	inc	esp
	and	al,F4
	sbb	bl,ED
	not	bl
	dec	bh
	add	bh,02
	xor	edi,esi
	or	bh,cl
	add	bh,C8
	call	00402C95
	sub	dl,[ecx-27]
	jpo	0040242E
	inc	edi
	sub	esi,eax
	shr	eax,10
	mov	edi,esi
	add	esi,ecx
	inc	edi
	or	edi,ecx
	add	esi,ebx
	sub	edi,esi
	add	eax,edx
	add	edi,ebx
	jbe	004024DB
	push	ebx
	pop	ebx
	ja	004024DB
	illegal	
	sbb	al,CD
	sub	bl,dh
	wait	
	aam	87
	cmp	al,24
	rep	
	pop	edi
	or	ebx,edx
	or	al,dl
	shr	ecx,0F
	jpe	00402B7E
	push	cx
	pop	cx
	xchg	esi,esi
	jpo	00402B7E
	fdiv	dword ptr [ecx+803BD4FD]
	shl	[edx+02],cl
	fsave	word ptr [ebx+C3FE4EA5]
	dec	edi
	mov	ebx,esi
	call	00402548
	inc	esp
	loopne	0040243B
	xchg	eax,esp
	jz	00402464
	mov	eax,24648DD8
	add	al,80
	rcl	[edx+03],cl
	test	dword ptr [edx],2ACFFEDF
	fmul	dword ptr [edi]
	cmp	cl,05
	add	[eax],al
	rep	
	push	si
	pop	si
	jnc	00402A90
	inc	ebx
	xor	eax,[edi]
	fadd	dword ptr [ecx-71]
	inc	esp
	and	al,D8
	or	edi,ecx
	rol	cl,1B
	mov	edi,edx
	inc	ebx
	dec	edi
	call	004023FC
	and	bh,[edi+4687A0BF]
	sub	bh,bl
	inc	ch
	sub	bl,ah
	sub	al,ah
	not	dh
	mov	edi,ecx
	sub	ch,al
	mov	bh,dl
	add	cl,F0
	jmp	00402670
	illegal	
	ror	[edi+ebx],cl
	mov	edi,ecx
	add	eax,ebx
	sbb	bl,F1
	not	bl
	add	bh,7E
	dec	bh
	not	bh
	sub	ebx,eax
	xor	bl,dl
	jo	004024F9
	mov	al,al
	jno	004024F9
	xchg	eax,esi
	mov	[F932AB8A],eax
	inc	bl
	mov	ebx,edi
	dec	bl
	dec	bh
	mov	bl,al
	xor	bl,cl
	or	edi,ecx
	mov	bl,AF
	adc	bl,70
	jl	00402D83
	jpo	00402516
	jge	00402D83
	inc	esi
	dec	ebx
	dec	eax
	mov	edi,81404AD7
	pop	dword ptr [esp-1C]
	not	bh
	mov	bl,08
	sbb	bl,A6
	sbb	bl,D9
	add	eax,[eax+3C]
	sbb	bh,F0
	or	bh,cl
	dec	edi
	jmp	004026A0
	cmp	al,D2
	movsd	
	mov	bl,39
	or	[edx-71],esp
	inc	esp
	and	al,D0
	not	bl
	or	edi,ebx
	mov	bl,dl
	mov	bl,24
	xor	bl,cl
	jz	00402273
	xchg	bh,bh
	jnz	00402273
	sub	eax,A320B40B
	arpl	[edx-80],bx
	illegal	
	adc	dl,D8
	dec	bl
	or	dl,cl
	mov	dh,89
	inc	edx
	mov	edx,esi
	adc	bl,A2
	movzx	edx,al
	jl	00402D25
	jmp	0040258C
	inc	eax
	jge	00402D25
	and	ebp,[edi+648DFAFB]
	and	al,04
	add	bh,ch
	inc	bl
	add	bh,bl
	neg	bh
	not	bh
	adc	bh,24
	inc	bh
	jmp	0040225A
	sub	[edi+3AC9F2B6],bl
	pop	ebx
	mov	bh,dl
	mov	ebx,eax
	add	esi,eax
	inc	bl
	or	bl,ah
	mov	bl,dh
	add	esi,ecx
	add	bh,ch
	xor	bh,ch
	call	004023C7
	fsub	st(0),st(2)
	mov	dh,[ebx+3367CAD1]
	sti	
	not	bl
	add	bl,EB
	add	edi,esi
	mov	bh,dh
	neg	bh
	call	00402ABF
	add	al,09
	dec	esi
	and	al,30
	dec	ecx
	scasd	
	add	bh,48
	sub	bl,ch
	sbb	bh,D7
	sub	bh,bl
	push	dword ptr [edx+08]
	or	bl,ah
	add	bh,7B
	mov	ebx,ecx
	sub	ebx,edx
	inc	bl
	call	004027F3
	dec	esi
	xchg	eax,esi
	dec	edx
	cld	
	xchg	eax,ebx
	pop	ecx
	push	esp
	lea	esp,[esp+04]
	xor	edi,eax
	inc	bl
	adc	bl,99
	dec	bl
	inc	ebx
	adc	bl,92
	call	004023E0
	and	dh,[8130BECF]
	mov	eax,[FA8BEA2A]
	sub	cl,al
	add	cl,CB
	xor	cl,dl
	or	edx,ebx
	dec	eax
	push	00003000
	jmp	004022CD
	shl	dword ptr [esi+CFF62B10],55
	inc	ebx
	add	bl,C9
	inc	bl
	inc	bl
	adc	bl,D6
	adc	bl,04
	dec	edi
	inc	bl
	jbe	004027BA
	xchg	dh,dh
	ja	004027BA
	sub	al,01
	add	ecx,[edi]
	illegal	
	sar	esi,cl
	les	esi,esi
	aam	02
	int	03
	push	40
	add	cl,24
	or	al,bl
	not	bl
	sub	al,ch
	jmp	0040262D
	mov	ah,C8
	out	dx,ax
	adc	esi,esi
	rol	byte ptr [ebx],01
	stc	
	adc	bh,1E
	or	eax,edx
	add	ecx,eax
	mov	ecx,ebx
	dec	ebx
	jmp	0040291B
	aas	
	test	[ebp+50],ecx
	xor	edi,ebx
	inc	bl
	dec	ebx
	neg	bl
	inc	bh
	adc	bh,DA
	adc	bh,E4
	add	ebx,eax
	xor	edi,edx
	sub	bl,al
	jmp	004029F9
	pop	edx
	test	al,1B
	retf	
	pop	dword ptr [esp-0C]
	sub	ebx,eax
	or	edi,edx
	sbb	bh,9A
	xor	edi,esi
	neg	bh
	or	eax,eax
	jnz	00402723
	or	bh,dl
	call	004029B2
	stosb	
	inc	edx
	wait	
	rcr	[edx],cl
	sub	bl,ch
	inc	bl
	inc	bl
	dec	eax
	mov	bl,24
	xor	edi,eax
	xor	bl,bh
	call	004028C4
	adc	[edi-13],cl
	pop	dword ptr [ecx+24048788]
	mov	ch,ch
	pop	eax
	neg	cl
	not	cl
	or	edi,edx
	dec	edi
	add	ah,F3
	jmp	00402E12
	xor	esi,[edx+AE52B991]
	add	eax,D402ABB0
	mov	bl,dh
	or	bl,bh
	xor	edi,edx
	add	dh,4E
	add	eax,ebx
	dec	al
	dec	ecx
	not	bh
	jmp	0040236B
	jcxz	004026AD
	pop	esp
	loope	004026B7
	lea	esp,[esp+04]
	add	bl,dl
	sub	eax,esi
	adc	al,3B
	mov	al,ch
	sub	edx,00000612
	xor	ch,dh
	call	004026F6
	hlt	
	dec	ebx
	sti	
	mov	[8F2CD30C],cs
	inc	esp
	and	al,EC
	add	ch,dh
	adc	cl,DD
	not	cl
	sbb	ch,4E
	xor	dl,ch
	inc	ecx
	add	ecx,edi
	or	cl,ah
	mov	[esp-08],eax
	jc	00402B02
	push	ecx
	pop	ecx
	rep	
	jnc	00402B02
	dec	eax
	xor	edi,edi
	stosd	
	bound	edi,[ebp+1487D62D]
	and	al,8A
	in	al,F3
	pop	edx
	xor	edi,ecx
	add	ebx,eax
	dec	bl
	sbb	bl,7B
	call	00402999
	cmp	eax,B5AE6EBF
	xchg	eax,ecx
	adc	esi,0B
	stc	
	add	edi,esi
	mov	edi,edx
	sub	ebx,B22CA78D
	inc	edi
	inc	edi
	jmp	00402224
	mov	dh,9C
	illegal	
	js	004027F2
	nop	
	enter	0B46,F3
	mov	eax,[eax]
	inc	bl
	xor	bh,ch
	mov	bh,dh
	not	bl
	mov	bl,68
	add	esi,edi
	add	bh,ch
	call	00402B44
	mov	ebx,92E4FD46
	dec	ebx
	mov	[03C3FE7E],eax
	retf	EB8A
	add	ch,ah
	add	eax,ebx
	inc	ch
	call	00402730
	adc	bh,[ebp+1BC47BD9]
	pop	ss
	push	ds
	xchg	[esp],ebx
	xchg	di,di
	pop	ebx
	sbb	bh,65
	dec	ebx
	add	bh,B7
	sub	esi,edx
	jz	00402304
	xchg	cx,cx
	xchg	bl,bl
	jnz	00402304
	rol	esi,01
	mov	edi,580A2024
	xor	[ebx+1EC180A9],dh
	inc	edi
	add	bh,AF
	xor	esi,edi
	inc	esi
	jmp	00402E90
	xor	ecx,[ebx+47]
	insb	
	mov	cl,DE
	mov	cl,ch
	dec	edi
	inc	ch
	dec	ch
	or	ecx,ebx
	sub	cl,dl
	add	ebx,esi
	dec	al
	mov	eax,edi
	jmp	00402C37
	mov	ch,6E
	inc	esi
	lock	
	bound	ebx,edx
	lea	esp,[esp+04]
	sub	bh,ch
	mov	bh,bl
	xor	bh,dh
	dec	esi
	add	edi,esi
	xor	bl,ah
	mov	bl,89
	jmp	004025EC
	out	5B,al
	das	
	jpe	004027F9
	inc	esp
	and	al,D0
	add	ecx,edi
	dec	eax
	neg	ah
	or	edi,eax
	add	al,48
	add	ch,15
	neg	bl
	xor	bh,ah
	jmp	00402C6F
	illegal	
	dec	esp
	lock	
	add	[edi+CC24448F],eax
	neg	dl
	inc	bl
	sub	ebx,esi
	sub	bh,cl
	shl	ecx,0F
	xor	esi,eax
	jmp	0040234F
	or	ch,dl
	adc	eax,8D994BC0
	and	al,04
	xor	bl,dl
	mov	bh,cl
	dec	ebx
	add	bh,C9
	dec	edi
	dec	bh
	mov	bh,61
	or	edi,esi
	xor	bl,ch
	call	004026BF
	nop	
	call	8D6BA230
	and	al,04
	not	bl
	adc	bl,42
	xor	bh,dl
	add	edi,esi
	neg	bl
	call	00402389
	insd	
	mov	ebp,C7804305
	xchg	eax,edx
	inc	ch
	add	cl,ch
	inc	ecx
	mov	bl,96
	mov	cl,dh
	not	bl
	mov	eax,[edx]
	dec	esi
	jmp	00402D43
	nop	
	pop	edi
	mov	ah,[esi+75]
	add	ebx,esi
	xor	cl,dl
	add	bl,55
	add	ch,ah
	neg	bl
	mov	ebx,ecx
	xor	edi,ecx
	not	bh
	jz	00402A26
	jpo	00402911
	jnz	00402A26
	outsw	
	out	dx,al
	xor	edi,esi
	adc	bl,E8
	sub	eax,esi
	push	edx
	dec	ah
	add	cl,88
	mov	edi,esi
	jmp	004027DA
	rol	byte ptr [edx],B4
	enter	741E,EB
	xchg	[edi+80DC2444],cl
	fisubr	word ptr [eax-18]
	add	[eax],al
	add	[eax],al
	adc	dh,BD
	mov	al,D6
	xor	eax,esi
	xor	ecx,edx
	mov	cl,5D
	mov	dh,40
	add	cl,A5
	jmp	00402973
	movsb	
	illegal	
	stosd	
	and	al,80
	illegal	
	inc	edi
	add	edx,00000612
	or	bl,al
	add	cl,22
	inc	edi
	jmp	00402689
	cmp	[esi],al
	pushf	
	xor	eax,C60BCE0B
	xor	edi,ebx
	sub	ecx,edi
	pop	ecx
	mov	bh,29
	add	dl,34
	or	ebx,esi
	neg	bh
	inc	edx
	jo	00402712
	rep	
	xchg	dl,dl
	jno	00402712
	jl	004029F0
	idiv	dword ptr [esi-73]
	and	al,04
	mov	bh,92
	inc	edi
	xor	bh,ch
	xor	bl,ah
	or	bh,dh
	neg	bl
	jmp	004026DE
	sub	bl,[ecx+875A1532]
	cmp	al,24
	rep	
	repne	
	pop	edi
	mov	bl,44
	inc	edi
	add	esi,edi
	not	bh
	call	00402DCD
	daa	
	add	eax,85E92643
	loope	004029CE
	clc	
	push	dword ptr [eax+10]
	not	bl
	neg	bl
	adc	bl,9B
	neg	bh
	mov	bl,al
	mov	bh,73
	not	bl
	jbe	00402B98
	rep	
	jmp	004029EC
	pop	esi
	ja	00402B98
	rcl	byte ptr [ebx+C953956A],D5
	add	edi,ecx
	mov	bl,dh
	add	bl,dh
	add	bh,al
	add	bh,ch
	sbb	bh,3C
	not	bh
	lea	edx,[eax+000000F8]
	dec	bl
	jz	00402E39
	xchg	dh,dh
	rep	
	jnz	00402E39
	imul	esi,[DC16D080],DBF0816D
	neg	dword ptr [esi]
	xchg	eax,esp
	not	bh
	dec	ecx
	mov	edi,esi
	mov	cl,dl
	not	bh
	xor	bl,dh
	add	bh,BF
	sub	ebx,edx
	call	00402BB8
	mov	al,E9
	pop	ebx
	movsd	
	les	ebp,[ebx]
	mov	dword ptr [edx+F6FA32E9],80C68BD3
	shr	[F72D820F],cl
	illegal	
	push	ebx
	pop	ebx
	jmp	00402A60
	jnc	00402186
	mov	esp,4FDF6BBA
	or	[edi+2BDC2444],ecx
	fstenv	word ptr [edx]
	stc	
	add	ebx,edx
	add	bh,dl
	xor	ebx,edi
	not	bh
	inc	edi
	js	00402205
	mov	bx,bx
	jns	00402205
	faddp	st(7),st(0)
	std	
	nop	
	inc	edi
	add	bh,ah
	movzx	ebx,ah
	inc	esi
	mov	esi,edi
	add	esi,eax
	inc	esi
	jmp	0040241C
	std	
	mov	ds,di
	int	03
	add	ah,1C
	neg	bh
	pop	eax
	dec	esi
	add	dh,3C
	mov	edx,ebx
	sub	dh,ch
	jmp	004021CA
	popf	
	xchg	[eax+eax*2+874E9B85],esp
	or	al,24
	mov	edi,edi
	pop	ecx
	dec	bh
	inc	bl
	adc	bl,97
	mov	ch,cl
	mov	bh,dh
	add	bh,CE
	call	00402B19
	pushf	
	fstp	double ptr [edi+edi*4+1E]
	push	eax
	dec	edi
	not	bh
	inc	ebx
	inc	ch
	inc	bl
	add	ecx,edi
	add	bh,ah
	jc	004028DC
	jo	00402AF3
	jno	00402AF5
	jnc	004028DC
	cmp	[eax],bl
	clc	
	push	ebp
	cmpsb	
	cwde	
	retf	8049
	mov	byte ptr [esi+02],EF
	dec	ch
	sub	dh,al
	or	esi,eax
	inc	ch
	call	00402EBF
	add	al,F9
	lodsd	
	mov	cs,[edi+0BF42444]
	sti	
	add	ebx,ecx
	dec	ebx
	inc	bh
	mov	ebx,edi
	dec	bh
	add	ebx,edx
	neg	bh
	inc	ebx
	jl	00402F0C
	xchg	cx,cx
	repne	
	jge	00402F0C
	xor	[eax+05],bh
	mov	al,12
	xchg	eax,edi
	lea	esp,[esp+04]
	mov	esi,edi
	dec	edi
	mov	bh,ch
	add	bh,ch
	mov	bh,dh
	dec	edi
	add	eax,ecx
	jmp	00402B5D
	hlt	
	cmpsd	
	enter	1A2B,F9
	dec	ecx
	adc	bl,77
	sbb	bh,41
	mov	bl,cl
	xor	bh,ah
	inc	esi
	inc	esi
	mov	bl,9E
	adc	bh,33
	xor	ebx,esi
	sub	bl,al
	call	00402BD6
	sar	dword ptr [esi+A2D1BB6F],98
	sub	dl,ch
	add	bl,11
	mov	edi,edx
	mov	ebx,eax
	dec	bh
	inc	al
	sbb	dl,D5
	call	00402889
	inc	eax
	adc	[ebx+ecx-1D],esi
	xor	bh,bl
	add	ebx,esi
	mov	ebx,edi
	pop	edx
	not	bl
	sbb	bl,99
	xor	esi,ebx
	xor	bl,dh
	add	esi,ecx
	xor	bh,ch
	call	00402CE8
	stosd	
	sub	eax,5E700EAB
	retf	
	pop	dword ptr [esp-1C]
	neg	bh
	xor	bl,cl
	or	cl,al
	neg	cl
	sbb	bh,5D
	inc	edi
	sub	ch,cl
	call	00402D65
	loop	00402BDC
	cmpsd	
	scasd	
	sub	edx,[eax+240487A2]
	mov	edx,edx
	pop	eax
	dec	edi
	mov	bh,cl
	sbb	bh,47
	dec	bh
	add	bh,ch
	jmp	004029CB
	xor	al,E9
	std	
	cmp	esp,[eax+EC24448F]
	sbb	cl,DD
	mov	ebx,edi
	or	edx,eax
	dec	edi
	mov	edi,edx
	add	edx,ecx
	or	bl,cl
	dec	eax
	jmp	00402E07
	wait	
	cmp	ch,bl
	shr	dword ptr [eax+80FD8AFE],C3
	rol	[ebx],cl
	fimul	word ptr [edx+2AD833FB]
	fild	word ptr [edi-0A]
	illegal	
	std	
	mov	ebx,esi
	jbe	00402DE8
	xchg	bh,bh
	ja	00402DE8
	add	[eax+CBA4C886],esi
	xlat	
	mov	eax,ebx
	mov	ebx,ecx
	neg	ah
	add	ah,01
	mov	eax,ebx
	sbb	al,BD
	add	eax,esi
	neg	cl
	dec	eax
	mov	ecx,edx
	jmp	0040295A
	pop	es
	fcomp	dword ptr [ebp-58]
	pop	dword ptr [esp-18]
	add	edi,esi
	or	al,dh
	add	cl,ah
	xor	ah,bl
	add	bh,ah
	call	00402E70
	and	eax,[edx]
	jmp	00402CCD
	push	03
	sbb	ch,3E
	mov	ch,E4
	inc	edi
	mov	eax,941EFB16
	sub	ecx,ebx
	neg	cl
	add	cl,52
	adc	bh,DE
	mov	edi,eax
	mov	ch,5F
	jmp	004028F8
	pop	eax
	and	eax,25787CB5
	push	24448F83
	in	al,02
	std	
	mov	bl,ah
	dec	bh
	mov	bl,7B
	not	cl
	add	ebx,edx
	inc	edi
	dec	bl
	jmp	00402C0E
	xchg	eax,esp
	jge	00402C48
	std	
	rep	
	jcxz	00402CF0
	dec	bh
	mov	edi,eax
	mov	bl,00
	mov	eax,ecx
	add	edi,ecx
	mov	ebx,edx
	jmp	00402243
	adc	eax,D595A652
	push	F6
	sar	dh,cl
	into	
	sub	edx,ecx
	xor	bl,ch
	mov	ah,1F
	inc	esi
	jpe	00402AA5
	repne	
	jpo	00402AA5
	dec	ebp
	or	al,31
	xor	[esi+0424648D],edi
	not	bh
	xor	edi,edx
	adc	bl,09
	sub	bl,dl
	xor	ebx,ecx
	or	bh,al
	add	edx,ecx
	jle	0040281C
	xchg	ebx,ebx
	jg	0040281C
	cmp	[eax-0A],cl
	pop	ecx
	inc	eax
	pop	ebp
	iret	
	cmp	dh,dh
	illegal	
	push	00
	xor	dh,ch
	inc	bl
	add	ebx,edi
	jmp	004021A1
	lea	eax,[ebx+CFFE508B]
	sub	bh,al
	add	bh,ah
	xor	bl,al
	dec	esi
	sub	edi,esi
	xor	bl,bh
	inc	bl
	add	bl,FF
	dec	bl
	call	00402482
	cmp	eax,5FE50A71
	xor	edi,ebx
	neg	cl
	not	bh
	neg	dl
	mov	esi,ebx
	or	ecx,ebx
	or	esi,edi
	mov	bl,EE
	inc	esi
	jle	00402D11
	push	di
	pop	di
	push	esi
	pop	esi
	jg	00402D11
	das	
	jo	00402D18
	leave	
	push	ss
	scasb	
	pop	dword ptr [esp-24]
	mov	cl,CB
	mov	ecx,edx
	add	bh,0C
	mov	bl,al
	add	cl,dl
	mov	cl,[esi]
	or	edi,edx
	xor	bh,al
	call	00402A6C
	dec	esp
	or	ebp,eax
	std	
	xor	eax,FFFFFEC8
	xor	esi,edx
	mov	bl,cl
	dec	ebx
	adc	bl,FD
	add	bh,ah
	adc	bh,91
	xor	ebx,eax
	jmp	004025B5
	in	eax,5D
	retf	
	inc	eax
	scasd	
	xor	al,86
	arpl	[edi+FF872414],bx
	pop	edx
	add	ebx,edi
	inc	bh
	add	ebx,ecx
	add	dh,19
	not	ah
	jbe	004021EE
	rep	
	xchg	bx,bx
	ja	004021EE
	inc	ecx
	mov	al,32
	xor	cl,[ecx]
	push	esi
	ret	0C89
	and	al,8B
	fild	dword ptr [esi+DBF659ED]
	add	esi,eax
	dec	bh
	inc	esi
	sbb	bh,D1
	jmp	00402CB4
	popa	
	pop	ebx
	xor	eax,55DF80E2
	sub	edi,ecx
	mov	bl,bh
	neg	cl
	or	bl,al
	sbb	bh,33
	mov	bl,C5
	add	bl,dh
	call	00402610
	mov	ebp,D4726CAC
	call	F27350EF
	add	dl,AF
	adc	ch,71
	inc	ebx
	mov	dh,cl
	add	bl,dh
	dec	bl
	dec	bh
	not	al
	sub	ebx,edx
	sbb	ah,85
	add	bh,bl
	neg	bl
	js	0040229B
	push	si
	pop	si
	rep	
	jns	0040229B
	sbb	esi,eax
	fbstp	tword ptr [ebp+ecx*4+2A]
	fsubr	double ptr [ebx]
	fadd	dword ptr [eax+F70BEBD7]
	add	ebx,eax
	add	bh,bl
	call	0040284F
	fsubp	st(3),st(0)
	shl	byte ptr [ebx+35],B9
	movsd	
	imul	eax,[edx],43DA32DE
	add	bl,ah
	dec	ebx
	sub	bl,ch
	dec	bh
	inc	esi
	neg	bh
	sub	edi,eax
	call	00402596
	stosb	
	rep	
	dec	ebp
	illegal	
	mov	ebx,24648D32
	add	al,2B
	ret	
	sbb	dh,E5
	mov	bh,dh
	add	dl,dh
	sub	bl,dl
	neg	dl
	neg	bl
	xor	ch,cl
	dec	al
	call	00402DA4
	out	F6,al
	adc	ecx,F6
	rol	[eax+D903DADF],cl
	add	ch,dl
	neg	cl
	not	bh
	neg	ch
	mov	bl,ah
	add	edx,00000014
	sbb	cl,F9
	js	00402ADF
	xchg	ch,ch
	lea	ax,[eax]
	jns	00402ADF
	aas	
	push	esi
	sbb	[66240C89],ecx
	push	edi
	pop	di
	mov	ecx,ecx
	pop	ecx
	mov	ch,bh
	sbb	cl,89
	xor	ebx,edi
	mov	ebx,edi
	inc	edi
	inc	cl
	jle	004022E5
	mov	al,al
	jg	004022E5
	movsd	
	illegal	
	cdq	
	add	[ebp-1E],esi
	leave	
	xor	bl,bh
	sbb	bh,17
	xor	edi,eax
	mov	bl,2F
	add	bl,al
	neg	bh
	adc	bl,50
	add	ebx,edi
	sub	bh,bl
	or	ebx,ecx
	jmp	004025D3
	sbb	eax,DF60D657
	shr	[ebx],cl
	fidiv	word ptr [ebx]
	fimul	dword ptr [eax+43DA032A]
	inc	bh
	add	edi,edx
	add	ebx,ecx
	or	bh,dl
	jl	00402E53
	jmp	00402F28
	jge	00402E53
	neg	bh
	rep	
	sbb	eax,00A802AD
	add	[eax],al
	add	[eax],al
	add	[eax],al
	add	[eax],al
	add	[eax],al
	add	[eax],al
	add	[eax],al
	add	[eax],al
	add	[eax],al
	add	[eax],al
	add	[eax],al
	add	[eax],al
	add	[eax],al
	add	[eax],al
	add	[eax],al
	add	[eax],al
	add	[eax],al
	add	[eax],al
	add	[eax],al
	add	[eax],al
	add	[eax],al
	add	[eax],al
	add	[eax],al
	add	[eax],al
	add	[eax],al
	add	[eax],al
	add	[eax],al
	add	[eax],al
	add	[eax],al
	add	[eax],al
	add	[eax],al
	add	[eax],al
	add	[eax],al
	add	[eax],al
	add	[eax],al
	add	[eax],al
	add	[eax],al
	add	[eax],al
	add	[eax],al
	add	[eax],al
	add	[eax],al
	add	[eax],al
	add	[eax],al
	add	[eax],al
	add	[eax],al
	add	[eax],al
	add	[eax],al
	add	[eax],al
	add	[eax],al
	add	[eax],al
	add	[eax],al
	add	[eax],al
	add	[eax],al
	add	[eax],al
	add	[eax],al
	add	[eax],al
	add	[eax],al
	add	[eax],al
	add	[eax],al
	add	[eax],al
	add	[eax],al
	add	[eax],al
	add	[eax],al
	add	[eax],al
	add	[eax],al
	add	[eax],al
	add	[eax],al
	add	[eax],al
	add	[eax],al
	add	[eax],al
	add	[eax],al
	add	[eax],al
	add	[eax],al
	add	[eax],al
	add	[eax],al
	add	[eax],al
	add	[eax],al
	add	[eax],al
	add	[eax],al
	add	[eax],al
	add	[eax],al
	add	[eax],al
	add	[eax],al
	add	[eax],al
	add	[eax],al
	add	[eax],al
	add	[eax],al
	add	[eax],al
	add	[eax],al
	add	[eax],al
	add	[eax],al
	add	[eax],al
	add	[eax],al
	add	[eax],al
	add	[eax],al
	add	[eax],al
	add	[eax],al
	add	[eax],al
	add	[eax],al
	add	[eax],al
	add	[edi],bl
00403000 1F 46 51 6E 9D EF 00 D5 69 B8 EF 4E 64 C1 2A 00 .FQn....i..Nd.*.
00403010 0A DF 33 94 BA 00 2F 00 FF 4B 19 E1 C6 02 C5 00 ..3.../..K......
00403020 00 07 00 00 F4 87 4E EE 15 76 E0 18 00 06 B8 A7 ......N..v......
00403030 51 FF B2 57 00 0F AE DA BF A0 FF 88 40 B4 2B 74 Q..W........@.+t
00403040 C2 9F 23 B9 5B C3 FC AD 2E 00 78 00 A5 A7 35 5A ..#.[.....x...5Z
00403050 5C 43 B9 02 00 D2 41 42 B1 00 FB 37 FF 28 2C 47 \C....AB...7.(,G
00403060 9E 98 14 C0 2F 99 FF 9E 1F 7C 38 00 34 D7 E7 A3 ..../....|8.4...
00403070 83 01 B0 C2 A8 E6 AF F7 3F 18 EA A6 EC 39 EF 16 ........?....9..
00403080 5A EA EE 00 34 FF F7 8D D5 3D B7 CD 8F FF A7 50 Z...4....=.....P
00403090 4F B6 00 34 8B F7 FF 6A A5 49 00 10 80 32 00 71 O..4...j.I...2.q
004030A0 01 96 FF 2E E7 FB 34 78 CB BB 00 91 39 A7 33 47 ......4x....9.3G
004030B0 37 43 A7 45 EF 81 92 A3 00 D6 82 00 00 7E EB 5C 7C.E.........~.\
004030C0 36 FD D7 61 00 83 C4 D5 34 66 AF 86 DA 88 DA 53 6..a....4f.....S
004030D0 00 35 D1 50 01 56 44 FF F8 00 1C 3E 98 41 54 FF .5.P.VD....>.AT.
004030E0 E0 84 4C 00 08 4D DA 70 42 DC E3 C4 9B BE 00 08 ..L..M.pB.......
004030F0 29 E3 E1 03 54 00 28 28 4F C8 00 B6 06 C5 6A E3 )...T.((O.....j.
00403100 00 58 6C C6 34 FF D0 31 6F 15 DC 9A 11 0E AE AC .Xl.4..1o.......
00403110 00 01 69 60 EC E4 00 C4 7D 00 0F FF 9F 57 C1 3F ..i`....}....W.?
00403120 25 28 93 F2 09 31 00 66 40 76 BD 2E 7A 00 08 6B %(...1.f@v..z..k
00403130 08 39 4E 58 5D 00 97 00 80 D8 18 68 1B 00 4B 41 .9NX]......h..KA
00403140 D9 1B 7B C9 47 00 AD 87 E6 02 F1 FF 4F 36 C2 E8 ..{.G.......O6..
00403150 93 24 11 14 4B B6 30 30 7D 99 C5 00 3D 00 F5 00 .$..K.00}...=...
00403160 27 20 BF E0 7A DE 68 C1 FF 3E 53 58 27 8F 28 BB ' ..z.h..>SX'.(.
00403170 5B 9C 5C 98 28 C7 FF 07 60 88 30 A3 00 F3 A2 3A [.\.(...`.0....:
00403180 14 4C F2 FB 0F 54 98 00 5D E1 33 14 00 D5 11 0E .L...T..].3.....
00403190 4F 52 1A 23 35 BD A8 DC 0B B5 82 53 00 DC AF D3 OR.#5......S....
004031A0 06 A8 FF 23 02 4E F1 C3 37 E5 5C 2E 01 69 03 E9 ...#.N..7.\..i..
004031B0 5A 4C 00 28 0C E4 7C 93 FF 4D BD B8 00 00 00 21 ZL.(..|..M.....!
004031C0 61 E1 CC 04 66 6D D9 36 F8 CB 27 E0 9E 6C 00 12 a...fm.6..'..l..
004031D0 84 FF C3 45 0E 00 35 0E 99 29 FF C3 4C 14 E5 4A ...E..5..)..L..J
004031E0 D6 42 84 F2 3D 79 00 A4 F9 80 B8 70 FD 62 00 AE .B..=y.....p.b..
004031F0 88 F2 5B 85 00 CF C1 A6 50 C0 93 0C C8 0A 34 56 ..[.....P.....4V
00403200 B0 97 00 1C FF E1 00 00 08 22 FF 97 42 FF 00 BF ........."..B...
00403210 3E B1 00 4E EF 43 00 C9 00 1B FC 94 01 34 E3 36 >..N.C.......4.6
00403220 00 21 10 A2 E0 4E CF F0 16 64 EC 00 CD F6 FE DF .!...N...d......
00403230 EB 97 C1 81 89 FF 25 00 89 45 54 BB 41 36 FF 00 ......%..ET.A6..
00403240 44 9B 17 2F 00 85 FF 63 81 A7 CA 94 C6 B1 14 14 D../...c........
00403250 9D 21 30 00 6E 05 FC 67 FD 00 80 39 58 E8 D4 78 .!0.n..g...9X..x
00403260 D0 81 50 5B 66 26 E3 FF C7 7C 1A 3F C2 00 97 00 ..P[f&...|.?....
00403270 75 DE F4 5A 0C 83 BC 4C FA 8C FE 6F F5 E5 FF 37 u..Z...L...o...7
00403280 C6 E8 84 8D 5F 75 30 00 B1 31 87 44 F2 A6 90 FF ...._u0..1.D....
00403290 2C 1A 60 A0 0F 10 51 6C 1A B0 48 59 00 CC 9E 60 ,.`...Ql..HY...`
004032A0 00 9B 21 36 A3 42 27 6F 75 9F 14 10 C0 00 CC 7E ..!6.B'ou......~
004032B0 55 F4 3E FF 8B 72 CA C8 58 9B 3F C0 8D 36 D1 0E U.>..r..X.?..6..
004032C0 2D 16 1B 72 00 45 00 21 0C A0 A6 D1 EF 15 D9 E4 -..r.E.!........
004032D0 6C 5B 29 FF 26 25 51 ED 79 00 58 C0 AE B8 B5 24 l[).&%Q.y.X....$
004032E0 DC 9A D2 FE D8 72 00 C8 00 77 E0 27 62 BC C9 8D .....r...w.'b...
004032F0 83 04 66 42 E8 D5 92 71 9C FE F2 30 91 1B AE 16 ..fB...q...0....
00403300 DF D1 52 00 23 52 08 5A 37 21 BB 8D 76 33 28 00 ..R.#R.Z7!..v3(.
00403310 E9 7B DC F2 F5 68 4F 18 80 07 50 ED FF CE 35 E7 .{...hO...P...5.
00403320 12 C6 A3 CB 6A 1C 88 FF 00 FF A5 2D 00 1F 28 EE ....j......-..(.
00403330 D8 87 E0 87 2C 00 3C 4E 81 40 14 74 7F 20 19 17 ....,.<N.@.t. ..
00403340 99 E0 E2 00 FF F7 74 00 C5 01 0D 8B 8B 00 00 3F ......t........?
00403350 F3 7E 00 2F B3 B2 FF 1B FF 6A 4F 47 DE 4D A2 85 .~./.....jOG.M..
00403360 E0 4E 2B 1A F1 00 41 D5 F4 3B D7 97 32 41 DE 2A .N+...A..;..2A.*
00403370 21 54 AB 07 00 BF C5 BA 86 62 96 70 FF F5 05 4C !T.......b.p...L
00403380 D9 00 40 DC FF 00 6F 3E C8 03 1B 0F 39 00 05 DC ..@...o>....9...
00403390 B1 63 65 AC 0A 46 AC 00 EC 39 0F 21 E6 CE 00 9C .ce..F...9.!....
004033A0 2F A9 2F 13 1A E8 12 FA F5 D3 00 32 CC 00 37 11 /./........2..7.
004033B0 7C CD B7 62 F2 BB D2 A8 20 93 03 3E 6D D6 0D CC |..b.... ..>m...
004033C0 68 80 FF F6 5C E8 BA 15 42 FB 14 BE 0E 35 0F 83 h...\...B....5..
004033D0 F7 FF FF 4A 41 12 B0 57 00 B7 3E 79 0C E8 94 39 ...JA..W..>y...9
004033E0 C1 81 72 DE 00 D1 A0 A5 A9 FF 04 29 DA E5 00 55 ..r........)...U
004033F0 1B 00 96 2C 2F E9 01 A4 7A 00 FF 00 04 FC 30 F0 ...,/...z.....0.
00403400 40 00 81 D2 E2 57 C8 32 F8 90 84 32 00 42 B2 20 @....W.2...2.B. 
00403410 6C 60 2A 00 E0 B0 3F 04 B1 76 CC 6F AC D3 A1 FE l`*...?..v.o....
00403420 FF 00 FF 30 DE 86 FC 82 09 A9 90 FB FF 47 B2 C6 ...0.........G..
00403430 C5 C1 20 7E E3 73 50 FB 0A E1 25 9C F0 82 42 89 .. ~.sP...%...B.
00403440 70 20 00 7E 00 02 ED 82 9B 7A 57 E2 8B F1 27 C9 p .~.....zW...'.
00403450 D4 24 F4 04 19 C1 B3 83 1F CE DE D1 F7 33 20 1D .$...........3 .
00403460 FA D7 D3 82 A5 00 19 02 67 8F 1E FB 4D D5 C4 00 ........g...M...
00403470 8D CF FF 1D 26 00 D0 B8 1F A0 50 55 99 C6 CF F6 ....&.....PU....
00403480 29 34 0E 53 28 1E 76 58 2A 72 CF D0 FF 22 3B E8 )4.S(.vX*r...";.
00403490 74 3A 4D 8E 00 00 8C 88 1C F4 CF 07 96 A5 40 36 t:M...........@6
004034A0 97 10 FB 5C 87 0E 63 3C 23 51 00 C4 AE FF F1 A3 ...\..c<#Q......
004034B0 FF 00 01 90 2D 1F DD D7 3B 80 9E 90 9D 64 D8 5C ....-...;....d.\
004034C0 06 54 7F A3 FF F4 3D 5C 4B 00 FF F8 4B F4 4A 75 .T....=\K...K.Ju
004034D0 12 69 3E 00 C1 8E 91 00 FF 82 00 30 77 68 79 29 .i>........0why)
004034E0 FD 43 95 00 31 82 53 94 38 45 C0 B8 7D F7 B8 F3 .C..1.S.8E..}...
004034F0 4C 39 FF 19 F4 DC 93 39 5B 07 9F 8A B5 9E CC 8C L9.....9[.......
00403500 60 33 84 B4 62 00 94 A9 1F 00 12 59 02 86 E0 45 `3..b......Y...E
00403510 00 00 60 80 31 54 00 69 0A 4B 2A 00 00 0B 74 E5 ..`.1T.i.K*...t.
00403520 79 00 26 46 CA 3F 40 A5 C4 C1 E1 64 53 2B 3B 89 y.&F.?@....dS+;.
00403530 68 D5 06 18 EA D0 AC 81 B4 FE 00 26 00 CF 45 00 h..........&..E.
00403540 62 A1 00 00 00 04 17 DF 68 EF 30 1F CA 42 DE 0D b.......h.0..B..
00403550 94 F2 E7 FE 5F 88 8F 39 B1 00 54 00 00 0F 30 14 ...._..9..T...0.
00403560 9F 50 C5 00 FF B3 19 BF 00 AC 38 AC 94 62 00 FD .P........8..b..
00403570 68 9D 9D 04 59 B2 52 DE 1E CB 00 6F 66 00 45 7B h...Y.R....of.E{
00403580 72 F3 40 69 A6 FF C1 2D 16 9D 53 38 00 90 18 93 r.@i...-..S8....
00403590 FF F1 C7 00 40 13 C7 A6 1E 00 13 5D 1B 00 E9 D7 ....@......]....
004035A0 DD 0C A3 61 00 04 80 E3 6F 81 32 31 07 5B 32 16 ...a....o.21.[2.
004035B0 43 00 9F 07 DB C8 B1 5A DB DC F1 12 FF A4 CF 00 C......Z........
004035C0 17 45 00 01 F6 9B E2 7A 4C C8 57 00 D5 BD EB 76 .E.....zL.W....v
004035D0 C7 5C C7 A8 00 F9 1F 16 06 F2 6F 8F 18 60 4E AC .\........o..`N.
004035E0 2A C0 80 3D 7E A0 21 31 00 A7 9C 00 CD 32 D7 B3 *..=~.!1.....2..
004035F0 04 9E 31 0C F5 F6 1A E0 C4 5C E7 83 55 30 00 38 ..1......\..U0.8
00403600 21 70 55 4F 7D BD 1E 88 1B 02 2D 7A 00 9B AD 72 !pUO}.....-z...r
00403610 37 C9 EA 00 63 2D E3 73 D6 2A FF 00 41 FF FF E4 7...c-.s.*..A...
00403620 D7 3C C3 5D F7 00 C7 FD 4B E7 19 A7 85 3F 85 29 .<.]....K....?.)
00403630 1D 1D 78 0F D4 00 67 09 02 2E FF 8B AF D9 99 68 ..x...g........h
00403640 1E 7F 0A 38 86 C2 28 58 3A 10 9E 53 F7 FF 80 12 ...8..(X:..S....
00403650 00 44 3D 17 1D 9B 7E FF 28 E9 50 12 6E AB 61 F4 .D=...~.(.P.n.a.
00403660 2E 50 8E 34 D1 C8 00 98 30 BD 76 79 C3 EB FF 1B .P.4....0.vy....
00403670 C6 F0 61 6F B5 00 00 6E A8 5E 78 B1 BE 1E 3F 0F ..ao...n.^x...?.
00403680 17 DB 53 00 DF 1D 02 FF 02 ED BD 85 F3 BE 80 2A ..S............*
00403690 69 6A 50 87 FC 2A 45 00 7B A1 05 00 60 00 4C 00 ijP..*E.{...`.L.
004036A0 F8 75 68 EF 82 4A 2E 14 00 FF 33 B8 00 9A 12 9C .uh..J....3.....
004036B0 00 A1 60 CF 00 41 00 BC E0 FF 59 6E 0A FF 4E 71 ..`..A....Yn..Nq
004036C0 C9 1D 00 00 47 78 66 FC 00 00 C7 81 E0 FF 70 80 ....Gxf.......p.
004036D0 79 A4 98 A9 2D 8C 6E 05 F7 99 9F 0D DA 2A 39 26 y...-.n......*9&
004036E0 01 CD DB 10 87 C7 83 D8 8A 1F 9F CC CA C4 A3 95 ................
004036F0 9A DF 98 2F 46 8A 13 FD 6E FF 43 9C A4 5A A5 27 .../F...n.C..Z.'
00403700 FF FF 27 4C 00 82 74 AC BD 00 E3 FF 6F 7A 00 60 ..'L..t.....oz.`
00403710 70 9D 3D 95 5B FF C1 00 AE 00 DF 00 32 35 B2 00 p.=.[.......25..
00403720 85 D8 F1 F3 00 4D 76 D8 D4 AE A9 A3 00 84 81 7D .....Mv........}
00403730 00 62 7B 50 83 B5 37 FF 10 FF 04 20 8B 00 0B 86 .b{P..7.... ....
00403740 44 31 3B 12 AD 54 2A BF 00 09 00 80 49 ED 27 1C D1;..T*.....I.'.
00403750 38 94 A0 83 C8 85 CE D1 00 EE 43 E1 FC 0D 3B D3 8.........C...;.
00403760 FF 6F E3 00 99 86 B9 27 00 20 E8 0E 00 00 00 30 .o.....'. .....0
00403770 EC 3E AE 80 72 6F 70 50 F4 D3 DC 00 12 8D 00 3C .>..ropP.......<
00403780 08 70 F8 C7 00 F2 C8 12 10 A3 AE D8 83 88 FB C6 .p..............
00403790 C3 FC 23 FF 62 95 23 BC DC 76 CD 0F E8 5D 13 0B ..#.b.#..v...]..
004037A0 27 51 00 77 00 A2 FF 15 83 49 EF 00 88 05 1E 3D 'Q.w.....I.....=
004037B0 32 9F CB 5B 57 68 0C D7 FB 73 BC 0C 7B 22 7F 32 2..[Wh...s..{".2
004037C0 58 85 56 00 D1 F0 D2 0F 89 FA 44 F7 7F 41 43 85 X.V.......D..AC.
004037D0 26 9E 30 03 ED DB 3D 00 F4 C8 00 03 2C 68 FA 7C &.0...=.....,h.|
004037E0 40 73 D8 DE 7A 39 1D 7F D5 E9 63 89 00 A5 C5 D8 @s..z9....c.....
004037F0 6F 83 66 AD 1D 9E 93 75 C5 FB C2 AD AF 10 00 54 o.f....u.......T
00403800 00 D2 00 1B 00 B8 CE 3F 16 E1 AC 00 00 00 A3 7D .......?.......}
00403810 00 FB B8 3A BF 77 44 90 00 7A FF 7C 42 46 F7 D8 ...:.wD..z.|BF..
00403820 94 23 30 DC 00 63 6D FF ED FF 00 A1 0A 8E CB 34 .#0..cm........4
00403830 A1 B0 FF EF C2 38 30 00 66 81 9B 3F 00 58 4B 6C .....80.f..?.XKl
00403840 20 00 4F 22 9E FF 14 58 C1 71 43 00 AE 59 3F 80  .O"...X.qC..Y?.
00403850 19 5C F3 65 80 14 82 F1 DB 40 B7 C3 F7 1D 00 99 .\.e.....@......
00403860 51 30 38 59 7F 00 6B 97 7B 28 5A 01 59 00 1D 75 Q08Y..k.{(Z.Y..u
00403870 00 A4 AB 2F 00 E5 D7 5A 49 F4 B3 64 76 DC FE AB .../...ZI..dv...
00403880 D8 7F DF A5 66 1C 00 66 DC 25 0D 4E FA B1 4A 00 ....f..f.%.N..J.
00403890 B8 8D E4 FF 4C D3 C4 C6 6F 70 84 AD 78 1C 63 FF ....L...op..x.c.
004038A0 0F 01 18 B4 49 7A 20 0D 00 88 05 00 32 2B 7F 80 ....Iz .....2+..
004038B0 67 12 3E 84 2F 79 00 FF F6 CB 92 B3 02 61 01 36 g.>./y.......a.6
004038C0 48 4D 2D 6E 99 44 C4 19 38 A6 00 2F FF FF FF BD HM-n.D..8../....
004038D0 6C A4 61 01 E1 CE 84 06 00 94 CE 00 70 00 1B 9E l.a.........p...
004038E0 18 00 E5 E2 0A 9B 00 41 59 9E 1E C0 93 00 62 B1 .......AY.....b.
004038F0 00 24 AB 79 06 8D E1 57 38 91 D4 0F 70 D2 00 06 .$.y...W8...p...
00403900 7A F0 0C F2 EB 00 E7 44 0F 99 AB 91 18 36 83 DA z......D.....6..
00403910 0E 00 24 FC 3E FF 00 1C EB 22 B9 D4 FE 3A FF 00 ..$.>...."...:..
00403920 2F 6F 3D 2E A1 32 00 15 8F 90 41 FF 84 A8 8F 82 /o=..2....A.....
00403930 66 76 FF 2E 04 3A 32 00 00 F6 83 D6 79 9C 77 D8 fv...:2.....y.w.
00403940 D2 04 00 9C E1 02 E2 41 00 0A A1 18 30 5A 13 91 .......A....0Z..
00403950 D0 C6 1A 00 35 FF 97 AF 3C 50 00 5C C0 66 1C 0C ....5...<P.\.f..
00403960 D5 2D 0F ED E0 DA 11 71 7C FE 57 42 A3 EF 93 E0 .-.....q|.WB....
00403970 67 11 65 AD 0E 8C 00 26 65 FF FA 68 55 DC 97 B9 g.e....&e..hU...
00403980 07 83 C5 BB 13 1B 7C C2 8C 00 46 1B D6 09 39 13 ......|...F...9.
00403990 C4 AE 98 E2 FF F0 24 80 D9 42 7B 81 A3 00 93 9E ......$..B{.....
004039A0 1A A2 88 F0 98 6F 13 F5 27 D8 17 14 9A 0A A9 2E .....o..'.......
004039B0 1D FB 7E 70 00 0D A6 71 57 74 EB 40 53 59 21 04 ..~p...qWt.@SY!.
004039C0 00 FF EB 2D 26 C6 32 BD EB 0A 00 37 DF 62 00 29 ...-&.2....7.b.)
004039D0 FF BD BC E2 00 56 8C 55 B5 DE 16 98 EC B7 D8 00 .....V.U........
004039E0 B3 9F B9 4C 2C 8E 1B 0E 3A 5D B4 F5 08 DD FF BF ...L,...:]......
004039F0 26 08 CC 78 96 FF CF 00 0C CC 3E 14 CD FF 2B 1D &..x......>...+.
00403A00 82 08 FB D6 EC 73 DF A0 F8 00 14 E8 00 17 35 A7 .....s........5.
00403A10 28 64 F5 57 C2 33 88 00 21 FA AF 78 DC F6 7E 7D (d.W.3..!..x..~}
00403A20 78 9E 10 06 3F 7F 97 19 F6 8D 0F AC 04 00 C4 86 x...?...........
00403A30 B2 E6 C6 0F B5 0F 53 00 AF 21 E8 7F 07 49 3A 3A ......S..!...I::
00403A40 8A 00 73 BD F8 00 74 DE 00 6A E3 80 FF 08 80 42 ..s...t..j.....B
00403A50 00 39 04 CC 00 2C 74 24 53 BB 1D 45 27 BE 5D 8F .9...,t$S..E'.].
00403A60 9B 00 E0 00 42 4A 00 FF 51 D9 69 3D 00 74 96 00 ....BJ..Q.i=.t..
00403A70 84 C3 FE D1 3A BA B7 10 C8 AE B4 37 3D EC 00 03 ....:......7=...
00403A80 D2 DF 04 08 CA 6C 79 FF 97 48 06 A0 F5 2E F3 E9 .....ly..H......
00403A90 E1 00 1A 39 3F C2 72 00 00 34 01 81 00 00 92 60 ...9?.r..4.....`
00403AA0 EF 22 B9 47 A3 54 3E 4B 8D DD 89 F0 D5 25 3E 3F .".G.T>K.....%>?
00403AB0 E9 20 CE A7 50 67 00 00 BA 25 42 CF 68 43 FF 3E . ..Pg...%B.hC.>
00403AC0 09 00 F7 7A 00 A6 6D 59 FF 2F 00 C0 00 AE 00 00 ...z..mY./......
00403AD0 FC 0E 63 78 60 FE 7A 34 10 DE D6 E0 A9 13 CE 00 ..cx`.z4........
00403AE0 DB BA FE 45 7A C1 A8 00 93 11 52 06 09 F6 A1 7E ...Ez.....R....~
00403AF0 E3 0F A6 B8 F4 2F 03 F7 FF FF 16 A8 68 20 0D 16 ...../......h ..
00403B00 FD EE 19 1D 00 A9 00 00 30 40 4E 87 41 C6 A4 78 ........0@N.A..x
00403B10 E3 D0 88 00 A1 DD 36 47 2E 38 BE 30 91 E8 BD 3A ......6G.8.0...:
00403B20 00 15 FF D1 00 9D BD 58 1B B9 FF 34 CF 14 7A 00 .......X...4..z.
00403B30 27 7F 42 CB 24 89 28 3A 66 E7 C7 00 7E 34 88 F7 '.B.$.(:f...~4..
00403B40 29 01 5F 71 FE D4 62 68 FD 02 DE 2C 9C D5 8D 00 )._q..bh...,....
00403B50 52 AD 1F 1D 30 BA DB 0F 7B 15 00 E1 04 1F 8B A8 R...0...{.......
00403B60 C2 29 FF 7F 6E BA C8 4C DA 78 0D 57 20 9F F7 66 .)..n..L.x.W ..f
00403B70 C1 A2 26 15 12 4B 14 C2 1C 1C DF 13 8B 7C AC 43 ..&..K.......|.C
00403B80 E0 FE 5B 6D DF 7A 1A 00 AE DC D8 FE D4 11 00 F1 ..[m.z..........
00403B90 00 4C 8B 29 00 B0 EE FA 85 CE 00 00 2D 72 B0 E0 .L.)........-r..
00403BA0 C4 73 85 BE 81 CD 00 11 89 B4 06 C5 E2 24 65 DC .s...........$e.
00403BB0 EF F8 51 D7 1F A0 9A B6 BF 81 A2 12 DA 95 00 84 ..Q.............
00403BC0 FF C4 FD 3F 9E F3 00 00 6D 00 E0 1F BD D8 89 1A ...?....m.......
00403BD0 83 00 0E 21 51 23 C6 71 CA 0A 1C 28 2E 16 C0 2E ...!Q#.q...(....
00403BE0 43 06 14 4C 41 02 99 10 02 62 08 FF DC B9 01 52 C..LA....b.....R
00403BF0 C0 05 4F 3A 81 58 29 0E 53 C1 F6 00 00 30 8A 0D ..O:.X).S....0..
00403C00 00 7E C9 44 FD 47 60 2A 22 D1 84 60 81 41 0A 80 .~.D.G`*"..`.A..
00403C10 D6 E1 33 00 A2 02 00 8E A9 A1 EE 00 01 B8 00 00 ..3.............
00403C20 54 FB C3 00 EC BA 7D A8 D1 00 00 00 31 E4 12 83 T.....}.....1...
00403C30 22 42 00 E4 9B F9 C6 AB B2 00 F8 10 DA FB E1 2B "B.............+
00403C40 D8 A5 8A 21 00 DF 07 00 B0 E0 0E 00 00 00 D2 AA ...!............
00403C50 D2 C4 FC 00 20 B3 8C 62 6E 00 1F DC B1 80 00 54 .... ..bn......T
00403C60 33 41 64 D8 39 60 C0 4C 06 D0 00 C6 00 1E CD D1 3Ad.9`.L........
00403C70 92 AA E4 00 C1 A3 F2 30 FF 00 08 4A 7E 00 23 C6 .......0...J~.#.
00403C80 FF 5C 8A 00 44 C6 11 37 25 DF 9C BD 0C E3 D6 48 .\..D..7%......H
00403C90 16 99 4C 00 64 44 9E 70 45 41 30 C8 B9 72 C2 C0 ..L.dD.pEA0..r..
00403CA0 8F FA D7 B1 DB B8 28 31 6E D8 FF E6 50 37 F1 DC ......(1n...P7..
00403CB0 9A 00 00 8D C4 00 F9 93 49 12 4F 5A 23 F0 6A 96 ........I.OZ#.j.
00403CC0 47 DD 60 A2 77 1B 34 1D 71 FF EA 72 DC 58 B0 C8 G.`.w.4.q..r.X..
00403CD0 D5 6F BD E4 C7 9C 00 74 6A EC F7 3C 9F 11 49 00 .o.....tj..<..I.
00403CE0 00 4B EB C4 3C 38 1D A4 EC 03 BC 9A A8 0A 47 72 .K..<8........Gr
00403CF0 58 D4 00 92 E1 FF 00 39 05 FF 8E FF 3F 00 EE 62 X......9....?..b
00403D00 8F F3 83 33 FF 00 75 00 00 60 D2 C8 17 21 AF FF ...3..u..`...!..
00403D10 4C 34 DC 1F 41 BD 93 3C 32 83 30 49 A5 F5 B2 07 L4..A..<2.0I....
00403D20 00 1B AD 2C E9 14 7B 00 C0 6E 24 73 00 ED 98 91 ...,..{..n$s....
00403D30 7F E7 FF B9 04 04 DC CB C3 46 20 FF 27 9E 28 82 .........F .'.(.
00403D40 7E 01 00 3B 3E 2C 87 74 4B 9E CD 87 7C 4C 00 2B ~..;>,.tK...|L.+
00403D50 3E 00 55 24 8F 46 FE 66 9F 34 0D 6D B1 49 26 C8 >.U$.F.f.4.m.I&.
00403D60 68 F5 28 00 0B 85 08 89 00 8F BF 00 FF 7B 18 A3 h.(..........{..
00403D70 C4 FB 98 EF 00 B9 90 D2 04 14 36 70 59 B2 07 EC ..........6pY...
00403D80 00 6E E4 11 A4 8B 2E B8 D4 9B B3 60 2F 1B 79 55 .n.........`/.yU
00403D90 DA 9F 18 02 C8 0E 00 7F 9F F0 9D 31 04 FF E9 36 ...........1...6
00403DA0 CA 16 DF A8 B2 00 00 00 39 20 66 34 1E 24 D5 33 ........9 f4.$.3
00403DB0 E1 34 F0 60 18 F8 EF 6C F5 AE 0D 17 FE 0F B1 33 .4.`...l.......3
00403DC0 BF 97 E3 CD 3A B1 26 AF F8 12 80 00 00 D0 2E FE ....:.&.........
00403DD0 71 D2 00 E5 00 3E 00 D8 00 F6 20 52 DA 02 72 AF q....>.... R..r.
00403DE0 E5 62 00 5F F1 40 B0 E9 6C 5D 96 FA 4E 08 55 D9 .b._.@..l]..N.U.
00403DF0 00 C0 38 00 00 1D C3 00 64 58 41 8E 4D E7 A3 89 ..8.....dXA.M...
00403E00 52 0A EB FF AF 33 29 0C C2 2F DE 0B FF 75 E3 20 R....3)../...u. 
00403E10 66 84 D9 E4 1A 94 E1 E5 D6 9E E0 17 44 28 00 00 f...........D(..
00403E20 C9 04 42 3D 42 9C DC 4E 0C 72 66 7E FC C2 97 51 ..B=B..N.rf~...Q
00403E30 D0 E5 43 44 C5 FF 3C 9B 00 6E 00 D3 E6 8F 00 1A ..CD..<..n......
00403E40 61 00 C2 2F F7 F5 F5 5E 42 65 F3 75 2E 00 00 80 a../...^Be.u....
00403E50 B6 FF 5E 90 00 C2 8D 35 60 FF F5 FF 03 02 13 DC ..^....5`.......
00403E60 00 00 E7 03 E2 71 3C 00 83 BB 00 B1 9D 90 00 34 .....q<........4
00403E70 6E 70 E8 73 00 21 2E F2 64 D9 3B 09 00 8A D4 D0 np.s.!..d.;.....
00403E80 0E 04 69 00 8F 97 B4 62 01 3E 1D 74 7F 8C 00 89 ..i....b.>.t....
00403E90 20 B7 39 6B C9 91 84 F0 87 00 3B CB B0 B7 F4 08  .9k......;.....
00403EA0 FF F3 3D 71 E2 61 C6 38 FF C9 2D 2A 41 A1 00 9B ..=q.a.8..-*A...
00403EB0 00 0F FF B1 EF 21 5C 63 95 1E 87 03 1D 82 44 DE .....!\c......D.
00403EC0 FD FB C8 B9 0D D8 46 BC D3 00 F3 C1 AA 04 6C BE ......F.......l.
00403ED0 12 39 5A E8 84 83 C5 81 8E 0E A2 63 00 94 00 FF .9Z........c....
00403EE0 CB 64 66 59 AD 00 60 00 A5 00 91 AF 00 00 23 00 .dfY..`.......#.
00403EF0 80 72 1E 83 C0 5D C4 E5 9B DE 62 EA 1A 04 1E 58 .r...]....b....X
00403F00 26 D0 E3 C8 AF C0 52 66 4A 0B 5F 44 55 82 C6 05 &.....RfJ._DU...
00403F10 C6 00 00 89 00 48 00 00 B3 07 6C 36 56 35 81 C9 .....H....l6V5..
00403F20 92 9A 06 3B 00 FF 4E 7E 3D FF 40 FF 4E 31 38 0F ...;..N~=.@.N18.
00403F30 88 00 00 32 44 FF 62 B3 BD 70 09 A7 6F 84 69 51 ...2D.b..p..o.iQ
00403F40 76 FB 0E FF 4F E7 4F B0 C8 F3 CF 52 0E 00 E3 C8 v...O.O....R....
00403F50 43 61 43 84 E4 EF 21 33 BF 40 D4 B1 68 7F 2B B6 CaC...!3.@..h.+.
00403F60 2E D3 A9 79 19 C3 FA 7F E2 54 DD 7F 00 17 45 DC ...y.....T....E.
00403F70 00 DF 98 35 C3 C5 ED E6 F5 61 00 24 C3 13 B8 7F ...5.....a.$....
00403F80 C8 74 61 3B E0 FF 49 BD 00 00 29 B1 2C 00 B8 F1 .ta;..I...).,...
00403F90 3B 90 47 D5 B3 CA C6 24 8D 58 7F 37 8D DC AD F5 ;.G....$.X.7....
00403FA0 27 C6 A9 AD 44 03 10 43 CE 83 34 FA 00 83 FF E3 '...D..C..4.....
00403FB0 2A 81 29 29 A7 3C 37 F6 39 00 00 FF 42 1C 00 0D *.)).<7.9...B...
00403FC0 A4 FF 02 A0 22 00 E2 ED BB 01 62 FF 56 19 01 CB ....".....b.V...
00403FD0 FF 91 D6 42 CF 59 9D 32 E4 00 A1 84 37 EE 50 B0 ...B.Y.2....7.P.
00403FE0 00 02 CA 47 A9 44 6A CF 66 01 D2 08 7E DE BF 18 ...G.Dj.f...~...
00403FF0 82 9F 5C 00 12 CA 20 14 FF 45 40 5B 4B F1 90 47 ..\... ..E@[K..G
00404000 05 84 27 44 91 DF FF 63 F0 30 00 BD BD C8 B3 77 ..'D...c.0.....w
00404010 FF BE FF C7 9B CA DD 77 CF 14 8C CC 48 3E 70 47 .......w....H>pG
00404020 CA FF 41 54 53 8C 92 CF 33 98 80 00 00 00 FF 72 ..ATS...3......r
00404030 A0 09 49 FF 95 67 E1 28 C4 D2 67 00 37 25 27 F8 ..I..g.(..g.7%'.
00404040 F8 FA F1 F7 2A FF 11 05 8F 3D 9B 18 BC 4E A5 00 ....*....=...N..
00404050 88 73 8F 65 44 66 0B FF A3 00 80 21 00 7C 42 21 .s.eDf.....!.|B!
00404060 36 8C A4 00 8B 24 00 2F 64 95 FF 9D 91 EE DF 6F 6....$./d......o
00404070 26 54 5C 1F 9E C8 52 C8 03 13 00 C8 49 C6 F0 91 &T\...R.....I...
00404080 0F 8F 8B 34 00 06 C2 1E B2 8C FF BC 9E 15 21 A1 ...4..........!.
00404090 00 00 FF F9 63 E1 FF E0 8B 1F 7B 9A B7 BD 60 FF ....c.....{...`.
004040A0 A4 23 62 F1 76 BD 02 EC 1B FF 40 33 36 AB 3A EE .#b.v.....@36.:.
004040B0 00 1A 4F A1 7B FF 16 55 5B 94 66 AF 54 4A 42 B7 ..O.{..U[.f.TJB.
004040C0 FC 1D 19 00 26 B6 FF A5 00 91 58 FF 41 4E 2C 92 ....&.....X.AN,.
004040D0 06 69 1B 00 A2 00 24 F9 10 00 08 E4 FF F4 C2 0C .i....$.........
004040E0 F7 56 03 8F 00 F9 80 CD 22 20 5B 99 07 1D 09 61 .V......" [....a
004040F0 00 8B 00 21 8B 03 1A 22 61 AE 37 33 DB C2 F1 C1 ...!..."a.73....
00404100 40 FA 27 3F 3F EF C6 00 00 16 32 03 FF 3E FF 03 @.'??.....2..>..
00404110 B7 16 7D 3E 08 EC 45 2E A5 FF E4 4B 28 FF DC 00 ..}>..E....K(...
00404120 1B FF 00 20 05 D8 C0 3F A8 B2 9E 8B 00 33 F5 41 ... ...?.....3.A
00404130 00 FD D3 34 80 69 00 78 04 DC 24 D0 47 00 CF FE ...4.i.x..$.G...
00404140 00 08 7E E8 FF 38 DF 00 3D E2 07 FD BD 1C 87 00 ..~..8..=.......
00404150 42 81 D8 55 7F DA C1 5D 38 7C 7F 89 CF 00 26 15 B..U...]8|....&.
00404160 B3 10 B1 47 DE 00 41 41 8F F1 13 00 00 98 FF 00 ...G..AA........
00404170 F9 72 22 8F 16 FC 5B 38 BE 04 2C A8 60 3C A7 F5 .r"...[8..,.`<..
00404180 22 00 46 02 08 C7 C2 F2 D7 00 D2 23 9F 94 17 00 ".F........#....
00404190 A9 2A 00 4C 07 B7 CA 5B FF 25 E7 28 BF 32 00 31 .*.L...[.%.(.2.1
004041A0 DB 8B 54 66 C9 E3 6D E4 8E A3 F7 58 FF FE C4 93 ..Tf..m....X....
004041B0 71 FB 79 D9 7C E7 A0 74 00 BC D0 F1 00 C5 E2 DC q.y.|..t........
004041C0 D7 98 DC 38 00 00 B7 C2 D9 0B 06 17 00 83 79 8A ...8..........y.
004041D0 2B 3B 4A FF 15 3C D5 4F 7E FE 06 4C EC DC 67 80 +;J..<.O~..L..g.
004041E0 08 72 2F 00 00 9B 31 3C 3C F1 86 00 7A FF 30 EF .r/...1<<...z.0.
004041F0 00 3F 00 F0 6F 0B 00 CC 00 F6 15 B1 39 7F CE FF .?..o.......9...
00404200 57 C9 83 D7 00 66 E8 00 02 FF ED A9 F7 7D 2F 00 W....f.......}/.
00404210 31 00 02 5D 20 48 C7 AA 1F 29 3E D7 00 00 70 15 1..] H...)>...p.
00404220 EF FD 5E E6 C5 7B 00 C6 CB 00 00 B5 74 F0 38 BB ..^..{......t.8.
00404230 2F 1D 00 FF CC A6 4D 54 EE 0C 63 E3 FF E4 67 FE /.....MT..c...g.
00404240 8F 00 EC 43 A6 1E 71 87 19 08 00 C6 00 2D 4D 04 ...C..q......-M.
00404250 E2 6A ED 7E 4B FE 8B 80 48 F5 EF F2 1C 97 1E 0A .j.~K...H.......
00404260 CC FF F7 76 80 15 E1 FF F0 72 00 86 45 02 8B E7 ...v.....r..E...
00404270 00 18 B1 91 00 C2 10 08 76 24 5B EC 02 EB 48 04 ........v$[...H.
00404280 13 00 00 00 00 00 9E 33 21 71 08 FF 28 8A 98 DF .......3!q..(...
00404290 00 B5 40 3E 28 1C F6 53 03 DB 5F E0 7F 3D CE 30 ..@>(..S.._..=.0
004042A0 B2 38 00 00 F3 E7 DF 8B 5F 4E 93 46 61 00 C1 43 .8......_N.Fa..C
004042B0 C4 3E F7 A1 26 FA FF 5C 3E 65 10 EF 00 00 78 FF .>..&..\>e....x.
004042C0 4A 1C 07 00 2E F9 00 93 F4 C4 FF FD 88 9B B1 D2 J...............
004042D0 6F C7 28 25 3A CB 3C D9 2C 20 3D 00 16 E7 C2 00 o.(%:.<., =.....
004042E0 96 54 B7 00 03 7E 7E 6C 28 2F 00 87 00 00 04 BB .T...~~l(/......
004042F0 08 C5 5B 38 00 BA 40 00 00 27 A1 F7 00 FE 03 08 ..[8..@..'......
00404300 F0 4F 00 FF 03 80 F5 C9 57 16 3C 52 76 A1 2F 64 .O......W.<Rv./d
00404310 7A 11 FF 0B 87 28 6B 70 F2 86 C3 36 B0 00 FF C5 z....(kp...6....
00404320 E7 77 8A 44 04 87 00 1F E4 DC 0A 00 43 D2 A6 80 .w.D........C...
00404330 5B A3 F8 18 70 19 BC E6 F0 93 99 CF 08 61 64 44 [...p........adD
00404340 A2 D1 63 CD 78 08 00 8C 88 A4 01 8E 6E 84 B3 38 ..c.x.......n..8
00404350 23 4E 28 A8 0B 17 CF 6D E2 84 FF 59 77 63 00 B9 #N(....m...Ywc..
00404360 D7 00 2E 6F 00 64 27 9C A8 BA 83 A7 96 CB DE CA ...o.d'.........
00404370 93 FC 66 7A 72 03 74 27 64 8A 00 3A 51 D6 FF B8 ..fzr.t'd..:Q...
00404380 00 84 FF 98 0D 98 44 3B 8D 79 74 6D 4A 35 D7 61 ......D;.ytmJ5.a
00404390 B0 FD 00 5F 00 78 74 52 11 47 0A 9A 00 1C FE BF ..._.xtR.G......
004043A0 90 8E 5D FF 94 19 DB 1A BE 11 F6 FF C8 3B 00 9F ..]..........;..
004043B0 81 2D EF 30 40 20 FC BF F4 E3 A0 41 95 4C F3 BB .-.0@ .....A.L..
004043C0 FB 62 FF E1 85 73 16 E0 06 2E 3E 5B 74 3C AB 44 .b...s....>[t<.D
004043D0 CB CF 72 3C 8E B4 F1 68 30 91 00 88 00 3E FF FF ..r<...h0....>..
004043E0 41 B3 EE FF 09 00 33 79 76 C3 9C 96 AC BA E2 3C A.....3yv......<
004043F0 E5 00 1A 9A FF 50 EB 10 C0 FF E2 6F C5 58 00 16 .....P.....o.X..
00404400 00 51 8B 05 31 FD D5 95 9C 4C FA C3 D0 AB A9 DA .Q..1....L......
00404410 B0 78 0A BA E7 7F BF 79 83 B9 0C 65 93 0C 87 A8 .x.....y...e....
00404420 F0 FF 28 5F 88 FE C0 F0 00 A5 00 FE B9 A6 10 E5 ..(_............
00404430 5D C0 00 96 6B B5 05 5A 78 8A 40 C0 68 C1 3D 14 ]...k..Zx.@.h.=.
00404440 04 40 00 4B 89 74 13 31 9A 94 25 00 E5 08 89 13 .@.K.t.1..%.....
00404450 B0 AB 13 E8 64 51 21 BD 03 24 60 A7 A6 5E C6 78 ....dQ!..$`..^.x
00404460 C7 64 C8 5F 13 E2 00 7F C1 C1 F4 30 30 9E 18 97 .d._.......00...
00404470 A3 4D 39 DD 65 A0 A6 CC E2 EA 38 10 71 00 05 6E .M9.e.....8.q..n
00404480 00 00 2D A1 99 78 FF 6E 3D 00 43 48 B6 BD 00 0B ..-..x.n=.CH....
00404490 8F 01 06 98 DF 04 40 DC EE D8 01 D6 6C C7 CE 93 ......@.....l...
004044A0 61 00 AE E5 FF 22 4B 02 9F 4A 02 2C 86 3B 21 9E a...."K..J.,.;!.
004044B0 29 EB 00 74 26 2C 3A FF 72 FB 7F A8 AB 00 9F DE )..t&,:.r.......
004044C0 03 6A AB 1B FF 22 8F 08 F9 41 B0 00 64 49 3A 00 .j..."...A..dI:.
004044D0 28 00 FF 00 B6 00 98 6F 27 B7 42 9C 48 83 9E 1D (......o'.B.H...
004044E0 2A AA BD 45 DE 95 42 B7 76 6D CC 42 2A 95 8E DD *..E..B.vm.B*...
004044F0 71 5C 20 C1 00 BD 23 59 E3 F0 03 75 71 C9 78 F3 q\ ...#Y...uq.x.
00404500 81 FF 3D BB 86 48 47 40 D7 15 12 20 7B 00 7C A3 ..=..HG@... {.|.
00404510 00 E4 0A 78 11 F0 F6 00 A6 2A 98 63 7A ED 63 14 ...x.....*.cz.c.
00404520 FF F0 10 CA 1D 0D 94 00 D1 B2 D5 40 00 DD 44 C2 ...........@..D.
00404530 2D 41 F8 FF 02 32 FA 90 81 04 9D E4 00 3C 00 EB -A...2.......<..
00404540 01 2B 40 2B 52 30 F1 C4 03 81 F9 1F F6 C6 76 DB .+@+R0........v.
00404550 00 AA 15 FE 3C 7F 00 3E 55 80 00 BD 91 EC 7D B2 ....<..>U.....}.
00404560 DB 14 C3 00 8A 22 00 5B C6 38 5F 05 E1 99 3B FF .....".[.8_...;.
00404570 70 F0 56 FF 24 B0 50 9D 47 E1 00 49 03 FC FF 76 p.V.$.P.G..I...v
00404580 50 FF 00 3F BF F6 00 78 1E 4A 17 69 20 82 A2 F7 P..?...x.J.i ...
00404590 00 B1 06 A8 B6 0C 00 A5 A0 8F 00 95 7B D7 FF 00 ............{...
004045A0 88 52 41 BD 73 8D C4 33 00 69 FA FF 26 46 D8 5D .RA.s..3.i..&F.]
004045B0 20 87 F8 BC D9 EF AF 46 D7 A1 8C 18 07 84 91 2C  ......F.......,
004045C0 00 0A 35 00 5C 6A 8F FA 00 00 D5 2C FF 70 72 EC ..5.\j.....,.pr.
004045D0 1C 72 43 A5 EF 6C 70 60 8D E7 00 FF C2 52 00 6C .rC..lp`.....R.l
004045E0 7F 1E 5E BB 5A 00 11 C2 FF 7B BE 2C 0B FF EF 87 ..^.Z....{.,....
004045F0 00 4D FF D2 7E 21 CD 4F 7F D6 20 81 2D E1 E5 89 .M..~!.O.. .-...
00404600 82 20 ED 81 DA 6C 00 FB 47 A1 FE 45 00 FE 00 23 . ...l..G..E...#
00404610 9B 38 D8 90 FB 0E E6 A3 09 1B F7 00 00 37 B6 FF .8...........7..
00404620 E7 A0 AE 86 3D BE CD 0C 1B 0D C9 86 00 A6 88 3D ....=..........=
00404630 1F 22 28 BD E8 17 33 29 0C 6D FE 14 00 47 10 D2 ."(...3).m...G..
00404640 64 FA 34 5C 00 D0 EC A8 8E BE 82 33 17 73 26 CF d.4\.......3.s&.
00404650 4A 02 D6 1F 73 1F 03 16 1C 00 DE 7F AD 0A 00 2C J...s..........,
00404660 FF A8 A1 F5 95 1A 7E 00 44 81 FF 00 01 00 21 FF ......~.D.....!.
00404670 33 66 4D C6 11 FF 05 00 0E C6 DD 81 FF 3E 40 B7 3fM..........>@.
00404680 FF 1F 9E E0 0A 38 09 63 FF FA EB 00 00 9A F7 D7 .....8.c........
00404690 6B 00 00 0B ED 00 6D 5A 3C 00 FF 00 00 D0 2D E6 k.....mZ<.....-.
004046A0 25 86 00 22 CE AF B3 B9 21 40 AE D3 B3 5B 85 2E %.."....!@...[..
004046B0 74 5C 68 17 85 D6 00 5E 03 FF C0 00 00 10 40 43 t\h....^......@C
004046C0 06 22 15 29 00 BF 9F 10 71 CA C2 00 10 38 FF DF .".)....q....8..
004046D0 00 B1 0B 20 39 FF 95 00 77 13 F7 00 5E 9C 02 BF ... 9...w...^...
004046E0 02 DC F1 F2 E5 FF 0A C6 CD 9E 08 34 13 11 FB 2A ...........4...*
004046F0 01 DA 00 27 00 3C 92 23 FF 00 34 46 49 54 37 C0 ...'.<.#..4FIT7.
00404700 D8 E2 16 D4 42 96 00 6C 9B B9 1F C4 FF DE 11 41 ....B..l.......A
00404710 FF F1 00 00 00 E6 53 00 A4 00 00 7B 18 FF 95 00 ......S....{....
00404720 00 35 11 CF 7A 00 83 00 F4 C4 00 27 FD 1C 65 FF .5..z......'..e.
00404730 DF D9 A5 C2 83 D2 24 05 49 C6 4E 71 35 7C 4C 94 ......$.I.Nq5|L.
00404740 B5 00 05 00 0B 56 B1 CD 1B 17 40 5E 70 DB 26 00 .....V....@^p.&.
00404750 87 1E 38 AE A3 95 5A B1 91 E4 4A 2F 64 6A C5 E2 ..8...Z...J/dj..
00404760 44 9F 20 E0 11 FD F3 00 16 3D 0A FF 01 F9 13 6B D. ......=.....k
00404770 0E 15 34 50 53 B6 3E 18 00 00 7D DA 02 C6 25 00 ..4PS.>...}...%.
00404780 2B C2 99 76 30 91 56 00 D2 00 45 4D C7 FF C0 16 +..v0.V...EM....
00404790 68 FF 2F E0 18 3A 1A 13 AE 5D 6A 9A 21 00 7F 00 h./..:...]j.!...
004047A0 FF 72 FD FF 84 00 00 20 00 0E 2A FF B0 01 8C 7C .r..... ..*....|
004047B0 B9 49 EE 1E E7 8B FF 90 61 C3 E0 89 0D 00 06 8E .I......a.......
004047C0 F8 00 EA 75 28 49 29 3D 9B 74 00 AA FF 00 CA 4E ...u(I)=.t.....N
004047D0 B0 80 00 81 FF AC 47 49 63 A3 D5 FF 91 BC 46 0D ......GIc.....F.
004047E0 C2 1A 19 B9 5C CF 18 00 30 F0 00 C4 06 25 1C 21 ....\...0....%.!
004047F0 2D 04 00 A1 0E 7C 2C 00 5A 00 D4 A4 30 6E 07 59 -....|,.Z...0n.Y
00404800 62 00 7E 11 01 D4 4F 65 13 81 00 88 8B 58 FF 3A b.~...Oe.....X.:
00404810 3E 39 35 00 F1 79 FF FE F3 2E 18 4B F8 37 55 00 >95..y.....K.7U.
00404820 5B 0C 52 01 80 00 28 60 5C 00 C9 5F FF CC 00 D6 [.R...(`\.._....
00404830 B7 6F B0 E3 23 A4 00 D5 E5 FF E1 F7 A9 D6 DE 4C .o..#..........L
00404840 59 98 85 00 FF D3 0B CC 00 9F 9B 10 F3 4A 50 00 Y............JP.
00404850 02 68 C7 C2 39 08 29 DF F8 ED 2E 88 73 23 DA 00 .h..9.).....s#..
00404860 CF AB 19 61 F9 F7 10 2E 8E 07 25 E0 02 47 00 67 ...a......%..G.g
00404870 B5 25 00 00 C7 62 5F 8E 00 04 A3 33 20 0A F6 30 .%...b_....3 ..0
00404880 80 30 00 89 FF 8A 46 A4 00 00 69 0D 5D B3 0B 06 .0....F...i.]...
00404890 87 00 00 4A F7 4D 00 A6 AB 07 4C 27 EB C6 9B 55 ...J.M....L'...U
004048A0 D2 BD 63 68 59 55 A7 37 52 F0 00 03 FF 00 00 91 ..chYU.7R.......
004048B0 13 30 0C CC F0 C8 4F D8 1D 00 FC 7A 58 B8 C1 00 .0....O....zX...
004048C0 E4 25 5E FF C9 D6 00 AD 22 07 CE 9D E7 18 D6 8D .%^.....".......
004048D0 65 91 2C 00 52 C9 EF EB D8 EE 97 1E FF 30 A3 09 e.,.R........0..
004048E0 D9 5D 00 90 9C 08 E7 3D F2 2C F8 5C 00 98 A0 88 .].....=.,.\....
004048F0 00 86 07 96 B1 00 C8 4D 99 B6 61 C9 00 71 9D BA .......M..a..q..
00404900 6F 87 EC 00 00 45 B2 2C E0 E0 00 CA 00 F1 4C 54 o....E.,......LT
00404910 FF F0 D5 EB A2 C1 16 2E 36 3C FF C4 BC C2 80 31 ........6<.....1
00404920 6E 9B CE 94 00 6D CF AA 58 E5 50 BE 76 50 E6 26 n....m..X.P.vP.&
00404930 FF 77 FF A3 9A FF E4 00 CF FB 7D 00 9B AB 00 0F .w........}.....
00404940 5F 24 B5 D6 7C 2A A2 8F B9 94 27 FF A8 12 2B 4D _$..|*....'...+M
00404950 0B 41 20 AB 00 FE DE F7 00 6F CC 00 7B 43 78 BA .A ......o..{Cx.
00404960 FF 2C A5 FF 00 0F 69 AF 00 0F 87 9E 09 3C 0E D8 .,....i......<..
00404970 63 87 49 8F 58 B6 19 49 71 5A AD 8E EA 71 C9 CB c.I.X..IqZ...q..
00404980 7B 87 AE 36 FA 9A E7 0F 0E 3A 14 85 0F E1 B4 31 {..6.....:.....1
00404990 EC 63 C9 29 02 A8 82 00 94 1B AF 27 FF 33 53 AF .c.).......'.3S.
004049A0 37 C2 EF B3 75 FF 12 0D 48 00 E3 C4 87 B1 95 21 7...u...H......!
004049B0 5F 2B E0 A8 95 99 13 BF 61 C3 91 00 F9 6D 28 D9 _+......a....m(.
004049C0 96 85 22 14 5C 8F 00 4A 00 DE AC 17 2C 77 74 07 ..".\..J....,wt.
004049D0 D0 46 13 0E 07 72 E5 B3 FF 7B 86 D3 D8 12 1A A2 .F...r...{......
004049E0 FF 07 00 93 7E 5F 12 7D 00 E3 98 22 48 F2 BD 73 ....~_.}..."H..s
004049F0 4B 03 10 B6 A4 E3 44 20 45 F8 76 90 29 00 8A 64 K.....D E.v.)..d
00404A00 4D CF 6C 71 EF 61 56 4D 34 9E C8 ED 8B 0F 38 F1 M.lq.aVM4.....8.
00404A10 23 28 92 00 F8 90 99 7D 77 00 2B F9 5D A2 FC 60 #(.....}w.+.]..`
00404A20 59 82 07 FF 18 D6 00 29 7C FF C8 6F 8C B0 3E C6 Y......)|..o..>.
00404A30 01 1A 00 77 9B C1 68 64 35 05 E9 C9 84 8F 96 F2 ...w..hd5.......
00404A40 A4 00 00 E0 9C E1 60 C0 FF 32 84 B3 66 8D 1B 3E ......`..2..f..>
00404A50 1C D8 00 80 87 00 06 06 00 00 30 36 FA 22 FE 00 ..........06."..
00404A60 00 23 03 A5 00 65 B8 00 3A 00 00 D5 96 33 0F 44 .#...e..:....3.D
00404A70 00 0E 08 18 41 4D 00 42 ED 00 00 D8 AA 16 00 11 ....AM.B........
00404A80 74 78 B1 3B 0E A7 00 44 AF 12 8F A3 30 27 78 53 tx.;...D....0'xS
00404A90 07 BC 00 E0 8E 07 1B 43 00 D4 43 C4 B7 81 89 1F .......C..C.....
00404AA0 81 72 00 CD 00 77 2F 00 7D D1 F5 4B E8 4B A0 00 .r...w/.}..K.K..
00404AB0 0B 9A 44 5A 00 00 00 C3 02 E7 D6 2E FF 85 CF 24 ..DZ...........$
00404AC0 F1 3B 79 4F 62 00 24 B4 40 28 65 3D FF 74 B3 E2 .;yOb.$.@(e=.t..
00404AD0 A6 90 40 00 25 00 34 DD 81 75 FF 1E BE FF 03 8C ..@.%.4..u......
00404AE0 48 FF 08 6F 76 11 FF AB CF FF 24 A9 DD 61 A6 D9 H..ov.....$..a..
00404AF0 6A 6C 63 EE 87 60 A1 01 E3 F1 64 02 3E 00 00 C5 jlc..`....d.>...
00404B00 00 E5 34 D9 EC A3 00 04 1C 10 1D 9B 3C FE 75 00 ..4.........<.u.
00404B10 68 0F 33 DF 99 16 34 00 99 C4 11 BB D3 00 02 FF h.3...4.........
00404B20 01 00 5A A4 FF 00 00 25 C6 00 F9 2D 16 FF 2C 58 ..Z....%...-..,X
00404B30 FF D7 00 9B A1 29 3A FF 00 7A 00 CB 00 8D 89 49 .....):..z.....I
00404B40 42 51 1F 07 00 E9 8D 4E 38 FE 00 AC 1A 80 0E FF BQ.....N8.......
00404B50 72 F0 7E 83 00 FF 0C 22 BD 00 DE 04 1A 8B BD 65 r.~....".......e
00404B60 CC 00 93 2C A2 51 49 00 B7 00 00 13 27 FF 9C 9B ...,.QI.....'...
00404B70 51 70 00 B2 87 A4 D9 00 D3 EB 31 00 A5 77 A8 35 Qp........1..w.5
00404B80 1B 59 4F 69 FF 70 69 BE 82 2A 3D 94 00 80 FF 3C .YOi.pi..*=....<
00404B90 00 87 00 A2 CA F8 C3 DB 32 A0 C0 39 DC C4 D0 00 ........2..9....
00404BA0 7E F2 4C F3 87 0B BC A6 40 00 9B D5 77 93 60 70 ~.L.....@...w.`p
00404BB0 56 07 EB 3E 8A 8C 7E FF 00 2C 00 00 E2 EA 09 FE V..>..~..,......
00404BC0 A9 24 00 46 77 00 EF FF EB 1D 70 1F 66 00 00 21 .$.Fw.....p.f..!
00404BD0 00 00 00 B4 8F BE 77 71 89 97 A9 77 FF 96 57 45 ......wq...w..WE
00404BE0 00 1D AB 4D 37 2F 19 83 E1 12 4C 00 FA 18 EC 37 ...M7/....L....7
00404BF0 2B AC 21 00 2A 60 3E 00 68 C0 88 24 40 BE 8E 9E +.!.*`>.h..$@...
00404C00 38 19 8A B9 45 22 CD FE 3C 77 5D 00 94 53 84 08 8...E"..<w]..S..
00404C10 AD 21 C4 AD 4D F1 F0 61 9B 25 B0 7C 01 6F 2C C0 .!..M..a.%.|.o,.
00404C20 D2 00 B3 13 3E A8 A8 00 64 EF 1F 2C 73 00 EF 24 ....>...d..,s..$
00404C30 86 ED 04 DA 7B B8 CD 00 93 06 E4 7C A7 2E 38 67 ....{......|..8g
00404C40 0E 39 A4 F5 42 00 4B 8B 66 08 D9 EE 00 A1 8D 2C .9..B.K.f......,
00404C50 3C CA 03 27 92 8E 02 66 C1 05 21 FE C7 32 00 CD <..'...f..!..2..
00404C60 57 A0 36 DF AA 1E FD 68 F7 74 88 00 67 7D 13 E0 W.6....h.t..g}..
00404C70 F0 F2 19 21 D6 6C 95 00 34 00 68 C0 5E A1 8E 14 ...!.l..4.h.^...
00404C80 0B EE 24 99 4B F0 7B 00 2E FD 14 9B 4C FD 73 BA ..$.K.{.....L.s.
00404C90 A1 0C A3 00 92 48 31 3E 5A 61 9F FA 19 25 E8 00 .....H1>Za...%..
00404CA0 89 00 CA 00 F6 F7 27 50 8B FF ED 19 0C 36 2D 53 ......'P.....6-S
00404CB0 37 36 50 64 DD 63 C7 00 79 3B 00 6C 5D 00 AE 00 76Pd.c..y;.l]...
00404CC0 60 00 D7 00 00 00 05 00 46 FC 93 85 20 81 BA AF `.......F... ...
00404CD0 CB F2 F7 2F 72 0A 41 00 00 1D AE 75 AC 54 E0 B7 .../r.A....u.T..
00404CE0 CF D6 B7 4C FF 84 6A FA 70 00 42 B5 00 95 8D 08 ...L..j.p.B.....
00404CF0 46 60 CB 92 00 10 21 63 21 AB 08 D8 55 41 00 55 F`....!c!...UA.U
00404D00 B8 14 87 CF D7 91 FE 88 D8 5D E0 48 DD 00 00 1F .........].H....
00404D10 56 FF 71 CE AC 56 E7 9A 9B A5 0E 8B 48 08 44 D0 V.q..V......H.D.
00404D20 8D 44 18 0D 3C F7 93 95 3B 2E 00 52 00 00 EF 20 .D..<...;..R... 
00404D30 00 7C E7 E6 FF D8 56 51 16 A1 BF 6A 32 50 9F 5A .|....VQ...j2P.Z
00404D40 45 F6 06 00 2A A6 5D DD 0C 3C 11 2B E7 22 00 12 E...*.]..<.+."..
00404D50 70 E1 B4 C7 00 07 D4 B6 5C F9 00 CE 2D 15 50 15 p.......\...-.P.
00404D60 00 8E 00 C4 B7 6B 06 E7 00 36 00 CF 00 BF 82 00 .....k...6......
00404D70 A7 50 DE 70 10 76 00 E7 CA 00 BD 7F 91 01 00 C1 .P.p.v..........
00404D80 3B 17 FD 25 00 F7 00 61 4B 00 13 E6 17 D8 26 D4 ;..%...aK.....&.
00404D90 FF 00 D7 33 98 0D 00 BD 00 05 F6 D2 79 3F FF E7 ...3........y?..
00404DA0 24 20 A8 E3 FF 4E 93 05 58 00 A5 E0 25 FF CE 00 $ ...N..X...%...
00404DB0 D2 62 FF 13 17 E1 20 A7 DE 2E 8E 6A 1F 05 42 8A .b.... ....j..B.
00404DC0 74 81 82 69 7E 19 00 00 D0 D0 00 6F 9A 45 D6 20 t..i~......o.E. 
00404DD0 DE 7C 90 17 18 02 17 FF 02 FE 52 36 00 EF C4 BB .|........R6....
00404DE0 13 24 41 87 A0 FF 3C 43 00 A8 FF 89 F4 D3 79 81 .$A...<C......y.
00404DF0 CF 79 00 03 42 33 BD F1 9C 03 CD FF 00 7B 7E 6A .y..B3.......{~j
00404E00 71 00 4C 20 14 7F FF 5B BE 6B 00 B8 81 0E 51 1D q.L ...[.k....Q.
00404E10 4F 00 0D C8 E3 BF 22 30 68 6A 00 1C 0F 89 00 3F O....."0hj.....?
00404E20 FF FF 00 E9 91 56 FA 17 08 F4 FF B0 00 96 FD 60 .....V.........`
00404E30 AB 00 80 83 0D 10 DC 54 8A FF BC 00 61 F8 92 00 .......T....a...
00404E40 7C 00 60 00 BC B9 A8 43 97 84 55 5C 00 00 A3 0C |.`....C..U\....
00404E50 00 4C 22 21 28 B8 E6 DF FF 85 83 3D 8C 86 5A 3A .L"!(......=..Z:
00404E60 89 CB A5 1B 30 1A 7D FF FE AA 08 BC 42 8B 05 11 ....0.}.....B...
00404E70 15 9B 89 63 8D 1F 00 CF 47 CE F8 E9 B7 9E 31 7F ...c....G.....1.
00404E80 97 FF A5 D3 D0 EA C6 A5 D2 0A D5 C0 F2 84 BD CB ................
00404E90 01 94 CE 1A B5 6A 00 13 CF 5B CB 41 10 00 18 F6 .....j...[.A....
00404EA0 98 27 B1 C8 DE 89 00 DF 0E F0 C0 2F 00 54 00 65 .'........./.T.e
00404EB0 4E 00 D1 06 15 2A D9 00 F5 00 7E BA C7 08 FF A2 N....*....~.....
00404EC0 00 E9 A6 2F 68 00 F7 33 E5 D4 B5 00 5D 7F FF C0 .../h..3....]...
00404ED0 00 A2 00 FC 38 B5 34 80 F3 20 B8 00 00 8E 2F D6 ....8.4.. ..../.
00404EE0 69 93 00 8D F8 91 B4 00 E2 BF 53 9B 21 7C 12 D2 i.........S.!|..
00404EF0 00 4A 00 E1 69 9A C6 FF FE BA 4D 20 1B 28 00 00 .J..i.....M .(..
00404F00 00 39 03 B4 83 00 1D BC 6F 00 7B C5 52 92 22 96 .9......o.{.R.".
00404F10 E1 9D 70 87 8F 2E 17 0D 00 00 20 7E 1E F9 20 7A ..p....... ~.. z
00404F20 00 00 D1 00 66 34 81 71 DC 98 B5 00 0A 00 BB 45 ....f4.q.......E
00404F30 23 63 36 B0 00 EE 6E 57 D4 39 FF 00 EC 00 5C BF #c6...nW.9....\.
00404F40 27 5A D8 F9 90 4A DF 85 7E 34 72 9C 00 82 58 2F 'Z...J..~4r...X/
00404F50 8E 00 07 78 BE DF D0 36 00 13 A2 3B F8 7A F0 19 ...x...6...;.z..
00404F60 18 46 C0 1B 00 30 6A 00 D8 85 84 4B 76 26 59 D0 .F...0j....Kv&Y.
00404F70 7C 7F 73 7F ED 62 00 4A A0 90 05 95 A2 CD D9 1A |.s..b.J........
00404F80 D7 DB 2A 01 57 5C DB 00 3C 78 35 5C 9D 46 00 F6 ..*.W\..<x5\.F..
00404F90 AF 23 E6 0B C5 6C 10 88 EF 54 60 F7 43 8F 50 00 .#...l...T`.C.P.
00404FA0 99 00 00 55 0E C3 24 28 5A 83 8F 0B 3D 56 F8 00 ...U..$(Z...=V..
00404FB0 00 84 10 DE F4 D4 34 94 22 55 07 55 A5 00 C4 D3 ......4."U.U....
00404FC0 B9 5E 00 1B E2 1C D8 D9 04 BA 00 F5 BD 42 8C 00 .^...........B..
00404FD0 20 87 E5 FD 0D AA 00 00 00 1D 75 FF 40 A7 C1 5B  .........u.@..[
00404FE0 48 54 8E 29 00 69 EE 00 B9 A5 80 C3 32 73 D1 71 HT.).i......2s.q
00404FF0 4E CD C1 FF EB 05 66 B9 F5 47 26 95 9F 81 1E 00 N.....f..G&.....
00405000 6C 6F 66 FF 12 E9 CC 00 DA D1 70 00 AE 74 2D 4A lof.......p..t-J
00405010 04 C2 7A 7A 00 7B 8D B2 71 E0 8F 9A 00 B3 9C 3D ..zz.{..q......=
00405020 A8 18 D2 20 8C 27 8F 9F 05 C7 EB 91 6D 8C 1B DA ... .'......m...
00405030 35 8B 42 ED D7 AB 9D 40 B9 3D DC A3 5F 3D 1A 32 5.B....@.=.._=.2
00405040 04 06 CD 6C 2D 0B 6E 35 00 3D 47 5C 08 11 2C DF ...l-.n5.=G\..,.
00405050 14 14 00 C1 64 00 34 77 0A EF 40 00 0D 00 6E FF ....d.4w..@...n.
00405060 FF 90 B3 45 02 56 86 DC ED 39 DE 68 8D 00 EE FF ...E.V...9.h....
00405070 01 0D C0 1E 64 01 9B 00 39 A0 FF FF D0 7A 2C 70 ....d...9....z,p
00405080 0F 27 57 50 41 38 F0 00 80 6C F5 27 1E EB 00 2C .'WPA8...l.'...,
00405090 D6 EE E4 00 E1 00 5B 56 EA 00 EB 6A 88 6F 60 93 ......[V...j.o`.
004050A0 00 DE 84 1C 40 95 C6 95 6B A5 2C AA F2 D4 36 54 ....@...k.,...6T
004050B0 09 00 FC 00 0C A3 35 BE FF 10 3B 30 BE 55 DB 87 ......5...;0.U..
004050C0 DD D2 64 05 9A C7 B9 88 A1 E8 F0 00 EC DF FE 00 ..d.............
004050D0 26 E5 7F 59 8F 7C F5 D2 B9 34 0F 48 5F EC 57 F9 &..Y.|...4.H_.W.
004050E0 2E FF F0 3D CC 2E 58 03 62 28 18 59 3D 6B 10 8A ...=..X.b(.Y=k..
004050F0 DC 7E 7D C1 02 A3 FF F7 00 50 DE B3 00 BE 54 84 .~}......P....T.
00405100 1C A8 00 41 00 E1 FF 6A A5 5D FC E1 C4 00 5A 00 ...A...j.]....Z.
00405110 28 00 C1 00 00 9A 00 FF 7E 0C FF 24 7A FF FF 8C (.......~..$z...
00405120 83 00 30 3D 17 F3 E4 3F 07 1A 9C E3 E2 F7 93 31 ..0=...?.......1
00405130 42 00 E2 3B 85 00 00 80 DE B1 72 82 A7 42 EB 27 B..;......r..B.'
00405140 31 86 E7 B2 2E E5 FE BC 5B 6F C4 2D C2 59 DE 8A 1.......[o.-.Y..
00405150 3C E7 DF 31 00 FB 6E 5D 00 22 89 7D 49 B9 D3 FF <..1..n].".}I...
00405160 28 CA 2E AC F9 9D 54 4F FF 73 FB 57 8B 00 4F 34 (.....TO.s.W..O4
00405170 C5 6E 8C C3 A5 00 52 87 00 00 E5 EA 28 E4 B6 63 .n....R.....(..c
00405180 17 13 20 32 A5 81 38 4D 20 EB 00 08 CE B1 4F E1 .. 2..8M .....O.
00405190 43 C1 CC 00 8B E4 44 51 CE 66 00 C2 1F 4C F6 1C C.....DQ.f...L..
004051A0 3B C4 1C E3 F7 FF D7 BF A1 05 7A 3E 2E 62 FF 2A ;.........z>.b.*
004051B0 82 E3 00 85 FF 8E A9 40 16 0C 7F 5C 3B 01 00 9A .......@...\;...
004051C0 40 00 28 B7 95 F0 D8 36 6B F5 00 42 B0 1E E5 C7 @.(....6k..B....
004051D0 16 FB 86 97 C7 A0 00 31 E9 00 00 F9 99 35 22 46 .......1.....5"F
004051E0 EF FF 00 FF 00 62 00 00 8C 14 D1 3B BA 00 37 2C .....b.....;..7,
004051F0 4A 15 DA 5F 1C 71 97 1C 63 57 00 1C FF 0C 0E 00 J.._.q..cW......
00405200 28 00 54 44 41 EF 40 4F 8F 00 43 00 17 A4 FF AC (.TDA.@O..C.....
00405210 0E 19 E7 84 32 18 66 A7 00 EB FF A7 06 C9 FF 24 ....2.f........$
00405220 E0 00 8B C0 7F 5E FB 67 00 FA CD DB FF 01 25 E3 .....^.g......%.
00405230 D6 67 00 00 AB 79 42 9F 3B 72 17 4C 73 00 FF 16 .g...yB.;r.Ls...
00405240 00 10 01 D2 B6 1C 91 61 00 93 00 47 D1 52 00 E2 .......a...G.R..
00405250 40 CC FF C0 7C 43 12 8F 96 FF 75 50 A1 FD 2D 58 @...|C....uP..-X
00405260 3F FF 0E DF C1 14 72 D8 ED BE 00 05 00 C8 5E D8 ?.....r.......^.
00405270 E5 10 FF EC 99 53 B4 44 DC 65 0D 5E 0C 99 AC 00 .....S.D.e.^....
00405280 7B 86 F3 08 7A 91 78 CF AF A4 6A 1C D0 00 00 BC {...z.x...j.....
00405290 10 4F 39 24 FF 20 E0 DB 6C 4A 2E FE 26 51 06 2B .O9$. ..lJ..&Q.+
004052A0 00 48 D1 C7 11 40 CE 00 E1 00 00 87 16 B0 2F 0E .H...@......../.
004052B0 55 B8 F8 DA 43 3B 81 1D A1 80 74 00 00 24 7E 6D U...C;....t..$~m
004052C0 A9 FF 8C 0A A3 58 C6 A9 40 7A FF 93 96 11 40 96 .....X..@z....@.
004052D0 C9 B0 0B 3D 80 00 D2 AE F2 96 DD 00 C0 00 3E 00 ...=..........>.
004052E0 4B CF 04 02 4B 1F C8 DF 5A E6 FF E1 9E 3C 00 66 K...K...Z....<.f
004052F0 C2 AD C6 87 83 D6 39 04 B4 1F 4E C4 D1 96 23 36 ......9...N...#6
00405300 12 FF FF 4E F5 39 1E A5 C9 1F 49 35 62 F8 8D 6F ...N.9....I5b..o
00405310 EF 1B 66 0A 14 61 3F 00 18 00 BF 03 C3 96 32 B5 ..f..a?.......2.
00405320 E7 00 C8 55 67 1A 9A 0E 84 4B 78 48 D4 0E C8 6C ...Ug....KxH...l
00405330 E3 91 D3 76 E4 8B 28 B8 28 83 EE 00 5D 00 1F 83 ...v..(.(...]...
00405340 71 23 5A 9B 41 4F D9 52 DE 00 86 2E 00 58 AC 9A q#Z.AO.R.....X..
00405350 56 C0 DA F4 00 11 A4 94 00 8F 2C 10 C0 34 2A 7A V.........,..4*z
00405360 0B 8B 00 43 AE 00 63 EE FF 05 CF E4 1C 03 07 77 ...C..c........w
00405370 61 D2 2C 7F FF FF 30 37 0E FF CB 70 09 89 59 31 a.,...07...p..Y1
00405380 52 02 FF 42 D7 AB 91 1E DB 7B 44 04 A2 00 F1 B7 R..B.....{D.....
00405390 3F 95 8A D5 1C 59 D0 00 6F 55 E9 4A C8 E5 64 FE ?....Y..oU.J..d.
004053A0 00 18 B4 76 0E 27 00 5B 47 BA E3 A9 BE 36 FC 78 ...v.'.[G....6.x
004053B0 14 D4 00 DF 00 E6 EB A6 EC 6C 56 00 1F 59 00 6A .........lV..Y.j
004053C0 00 29 19 B1 4C 77 31 90 00 63 2A C1 ED 57 00 00 .)..Lw1..c*..W..
004053D0 E8 5A 8E D0 E8 DC 26 D4 D7 00 A1 47 93 00 3B 2E .Z....&....G..;.
004053E0 78 69 FF E9 FF 9D A2 3B 60 40 B4 B8 19 17 11 CD xi.....;`@......
004053F0 36 91 74 E5 FF BF 66 6C 61 BD 07 38 C1 83 AE 4B 6.t...fla..8...K
00405400 38 67 00 9D 83 5C D7 28 EF DC 36 14 4B 80 2C 38 8g...\.(..6.K.,8
00405410 94 00 00 C2 00 F9 E0 0C 00 F0 00 28 BB D3 00 6F ...........(...o
00405420 A1 CE F8 EE 98 DD 7C A3 FF 4F 23 12 F2 94 60 DF ......|..O#...`.
00405430 34 CE 4A 3B 6F E7 64 B0 63 FF CD CD 00 04 D2 2E 4.J;o.d.c.......
00405440 5F 0B E2 77 54 2F 36 00 0F FF CC 34 00 AA 00 BB _..wT/6....4....
00405450 00 A9 B4 29 20 D6 B0 F6 75 D1 EF 73 80 F1 D4 FF ...) ...u..s....
00405460 00 BF 00 39 89 60 00 10 CA 3F A4 7F F9 6E FE 00 ...9.`...?...n..
00405470 7A 02 80 AF 07 3F 00 89 FF DD 00 FF 01 E5 2E 26 z....?.........&
00405480 85 C2 6C 26 00 40 00 27 C9 7A 1F 50 13 E8 75 53 ..l&.@.'.z.P..uS
00405490 77 22 00 1C C6 6B 47 B6 E4 08 66 6C 90 EF 15 39 w"...kG...fl...9
004054A0 C2 15 B3 2A 20 F1 0E 7B C5 C3 94 FF 00 DC 00 03 ...* ..{........
004054B0 7D 12 00 32 02 EE DE 61 50 7B 4A 7B 00 CE 45 51 }..2...aP{J{..EQ
004054C0 7D FF 00 C4 00 FA 7E 64 CA 51 EA FF C4 16 00 FF }.....~d.Q......
004054D0 C8 00 5F 15 06 93 49 9D 15 00 00 36 14 00 7F 6D .._...I....6...m
004054E0 A9 CD AE 38 D1 19 20 4B 3F 22 B5 C1 9E 08 9F 13 ...8.. K?"......
004054F0 A6 7C 7B 00 FF A5 FF 4E 30 4C 3B 89 BF 09 F7 00 .|{....N0L;.....
00405500 4A B9 00 6C E5 FA 1D 4C B9 ED 00 02 93 BE FE 9F J..l...L........
00405510 92 1A 38 00 3B 7E 00 FD 54 2C 14 FD 86 E6 27 00 ..8.;~..T,....'.
00405520 3E 30 0C F2 10 6D 0B 9A 13 7F 66 B3 63 CE 3E B7 >0...m....f.c.>.
00405530 3E 38 50 D8 20 18 5E 00 A9 B0 00 29 5B E1 00 27 >8P. .^....)[..'
00405540 06 74 8B 10 00 00 00 10 FD 4F A2 24 C0 69 92 5C .t.......O.$.i.\
00405550 DF 00 DD 47 EC 07 40 03 4B 02 A6 75 E3 DE 0E 00 ...G..@.K..u....
00405560 05 F4 00 97 C5 00 B9 5A 67 FC 1C BA 94 33 00 82 .......Zg....3..
00405570 D8 03 27 18 FF 34 45 00 80 FA C7 A7 0C 09 87 C9 ..'..4E.........
00405580 00 DE 62 EE C5 00 31 E2 B5 60 00 48 4E FB D7 8E ..b...1..`.HN...
00405590 8C 18 00 75 CE 98 FF 93 00 15 00 1A 25 FF 8A 76 ...u........%..v
004055A0 91 00 22 17 00 47 0E C4 00 E3 10 10 00 51 21 00 .."..G.......Q!.
004055B0 00 A3 C0 D3 31 38 C0 50 23 20 A7 87 00 84 42 AA ....18.P# ....B.
004055C0 F7 E2 9A 81 60 BA 8D E1 4E A3 EE 8C AD F1 E7 35 ....`...N......5
004055D0 00 07 37 35 AD 00 23 9E 1E 87 18 77 FF B3 0F 13 ..75..#....w....
004055E0 CB 95 00 07 75 00 0E 62 9C 75 C9 87 6A C1 95 69 ....u..b.u..j..i
004055F0 FF A3 A4 4B 27 40 00 1B 58 75 41 67 00 67 C3 02 ...K'@..XuAg.g..
00405600 79 74 CA 0F EE 00 A0 47 0D 25 DD 85 7C 37 EF C1 yt.....G.%..|7..
00405610 00 8B 00 A7 09 00 BE BF C4 3E 83 FF 00 9B 3F 00 .........>....?.
00405620 96 68 84 00 5C 08 F0 17 06 55 57 00 4F 5D 81 00 .h..\....UW.O]..
00405630 00 6A 68 75 A1 2F DB A1 6C 8F 00 A8 34 BA 40 00 .jhu./..l...4.@.
00405640 C6 AE B7 88 A5 D7 FF 4E 00 9D 3D 00 39 58 FF E1 .......N..=.9X..
00405650 00 A3 39 00 00 1B 38 A9 31 7B 85 4F 30 ED 00 FF ..9...8.1{.O0...
00405660 8A FF 12 E4 06 75 DC 26 78 CC C2 C9 FF 30 4E 2C .....u.&x....0N,
00405670 08 82 DF 7E 00 86 BB FF FF 00 CD EC CE 9E 48 4F ...~..........HO
00405680 80 CF B0 FF 60 C6 C8 28 01 E1 2C FF C7 BD 13 16 ....`..(..,.....
00405690 33 73 81 1E 28 64 00 F1 10 5C 45 64 81 00 1A 72 3s..(d...\Ed...r
004056A0 64 C8 FF C7 69 CE D8 0C CC 49 D1 79 C4 BE 72 A1 d...i....I.y..r.
004056B0 3C 41 00 13 99 CD 6B A8 FF D1 DF 18 00 07 CE CC <A....k.........
004056C0 13 E5 28 EA FF F0 87 A6 87 E5 98 00 33 FB FF C3 ..(.........3...
004056D0 20 8F FB 00 D6 FF 7C FF FF 74 88 00 FB D8 6F 78  .....|..t....ox
004056E0 49 A7 61 8A B9 9F 02 F1 62 B8 2D 39 26 4C 54 CA I.a.....b.-9&LT.
004056F0 00 0E B3 B4 04 3B 71 FF 49 00 17 00 00 9E 92 19 .....;q.I.......
00405700 B0 CB 92 7B 88 DC 61 5E 79 FF 2D 58 00 1E C6 11 ...{..a^y.-X....
00405710 34 7A 40 51 25 8C 00 00 D7 72 47 06 30 86 37 2B 4z@Q%....rG.0.7+
00405720 26 80 DE D3 E6 7E AA DE CC 85 B1 8B 41 C7 00 7C &....~......A..|
00405730 22 30 D8 40 A9 00 80 BD 8F 0C CB 96 EA 10 0C 00 "0.@............
00405740 00 0F 05 EF 1C 13 C3 73 FF 90 CF F6 9F 00 E1 DB .......s........
00405750 6E 17 E4 0F C4 87 00 0C 6E 00 C6 AA F8 75 8A 5B n.......n....u.[
00405760 00 00 E1 00 7F EC 23 FF 00 E7 82 FF 00 A5 79 C1 ......#.......y.
00405770 82 00 00 78 CE 50 00 B5 78 2A CA 98 EF EF CE A0 ...x.P..x*......
00405780 40 5F 78 1F FF DA 00 9D 00 84 41 4B 28 34 90 4E @_x.......AK(4.N
00405790 AC 8B 4F FC 89 77 C0 C2 2F 61 53 A7 00 AD 00 2D ..O..w../aS....-
004057A0 E5 7A DC C6 3C D4 9B 00 D7 DB EB 9E 18 B0 80 23 .z..<..........#
004057B0 C0 56 5C 29 B9 2F A4 83 02 71 32 7F 07 84 DD D6 .V\)./...q2.....
004057C0 41 D1 F7 76 C0 E5 00 8C 00 28 03 00 00 00 5D 1E A..v.....(....].
004057D0 EE 94 03 6C 3C D1 89 59 85 AF 00 00 F0 89 C9 E7 ...l<..Y........
004057E0 B3 B4 C3 35 82 1C 00 3E BC 00 02 90 3D 0E 00 8A ...5...>....=...
004057F0 EE 14 F9 24 9C 83 57 00 C4 00 E1 8A 74 3B 00 01 ...$..W.....t;..
00405800 82 FD 83 FF E6 FC B4 52 9D 96 E3 00 95 08 00 20 .......R....... 
00405810 00 24 DD 14 3E A2 CA 8E A9 97 B8 98 EC C2 7D F8 .$..>.........}.
00405820 D1 FC 8B E7 C3 8F D1 FF D5 F1 70 FF 7A 93 62 E4 ..........p.z.b.
00405830 FA BD E0 46 4B EC 00 00 66 00 00 5B 1D 45 00 F9 ...FK...f..[.E..
00405840 55 B3 12 E2 36 3E 77 FF 04 00 B7 19 6C 72 A5 ED U...6>w.....lr..
00405850 49 77 DF 85 F7 FD FF 68 13 B7 67 00 00 C5 18 C6 Iw.....h..g.....
00405860 10 74 F2 52 BF 83 C1 E0 38 75 A8 62 C2 2F B0 84 .t.R....8u.b./..
00405870 7B 9A E2 6C 3E 53 00 EC 7B FF 9D DC 0E FF 00 FF {..l>S..{.......
00405880 08 88 E7 6C 12 56 AC 08 00 F2 65 13 E9 2D 00 26 ...l.V....e..-.&
00405890 E1 6C 7C 00 04 A8 F3 DB E6 02 52 1D 41 05 BA 65 .l|.......R.A..e
004058A0 F1 4F A1 C2 DE 92 8B EE 83 C0 0F 5B 5E 3A 38 C7 .O.........[^:8.
004058B0 27 00 37 00 28 46 00 81 8D 50 BB 64 00 8B 75 EB '.7.(F...P.d..u.
004058C0 B7 5E 76 81 61 55 77 4A 27 1B 00 10 30 00 87 FF .^v.aUwJ'...0...
004058D0 2C C0 25 39 2E 59 FC 00 E0 2E 00 3F AC 41 11 C8 ,.%9.Y.....?.A..
004058E0 30 0C A9 D9 AC 23 E7 01 E4 28 00 00 DB FD 09 4E 0....#...(.....N
004058F0 D5 4E 8B 5C A3 F3 00 1D FD 7C 1C 3B F3 9A 00 00 .N.\.....|.;....
00405900 66 6F B5 DF A2 83 33 04 39 3C F4 5E 00 00 E5 AC fo....3.9<.^....
00405910 0C F8 4D AE AB 00 29 27 A0 ED D7 8E F3 E8 39 52 ..M...)'......9R
00405920 00 7E D4 00 2C 0D 00 00 7C 0A 1C 53 00 7C 91 00 .~..,...|..S.|..
00405930 64 37 88 35 F0 B1 3A 7E 84 FF 86 C4 7C 43 88 24 d7.5..:~....|C.$
00405940 45 10 ED 2A 00 5E 8A C0 14 10 34 F1 95 C5 00 0C E..*.^....4.....
00405950 44 F4 B5 9C 70 00 FF 58 02 CE A9 E4 C5 00 00 3C D...p..X.......<
00405960 FF C8 18 00 EF 3E BB 54 58 C0 81 DB 18 00 28 62 .....>.TX.....(b
00405970 68 27 60 5D 2F FF AB 32 44 38 14 F7 00 A5 04 F3 h'`]/..2D8......
00405980 00 EF FF 86 5D 05 FF 6F EF 86 1C 0D 5B A5 42 78 ....]..o....[.Bx
00405990 93 A0 92 D5 43 FF 94 00 06 2C 91 5C 78 39 E8 6F ....C....,.\x9.o
004059A0 90 00 1F 0C E3 5E E8 00 06 0A 77 92 FF 30 E0 87 .....^....w..0..
004059B0 00 00 93 73 00 30 36 C2 48 00 A7 FF 49 96 F4 0F ...s.06.H...I...
004059C0 7F C8 47 63 BF 7A E1 C1 00 25 59 62 54 C0 F0 00 ..Gc.z...%YbT...
004059D0 BB 0A DE 72 C1 92 B0 09 FF 53 F6 70 00 20 3E 00 ...r.....S.p. >.
004059E0 3B 91 00 00 24 86 44 0C 33 00 B8 00 DA 4D 00 D4 ;...$.D.3....M..
004059F0 2D 3D 56 F9 2C FF CE 54 00 5A 00 D1 9E C8 E0 E3 -=V.,..T.Z......
00405A00 2E FF 00 77 FF 8E C1 96 AE FF 5C 62 71 13 42 33 ...w......\bq.B3
00405A10 5E 5D 76 65 C1 80 00 F1 D2 00 CE 00 0E 0B 44 12 ^]ve..........D.
00405A20 90 E7 77 42 66 18 00 81 94 15 CE 71 DE 86 C2 81 ..wBf......q....
00405A30 B5 00 81 CE FD 1B 43 00 00 D0 A9 00 48 00 07 69 ......C.....H..i
00405A40 86 ED B3 F3 5E 5B A8 CF BA 00 63 00 FB 00 FF BC ....^[....c.....
00405A50 FF 06 E7 1E FF 00 54 3A 91 00 00 4B 3C 0D DE 00 ......T:...K<...
00405A60 C0 C9 65 CA 78 08 CD 59 2A 90 E0 C0 00 85 31 E5 ..e.x..Y*.....1.
00405A70 E0 D5 00 5B 21 E7 FF 42 89 24 76 A0 00 FF 8D F1 ...[!..B.$v.....
00405A80 16 05 BF 1C 34 73 D4 FF E9 00 00 E6 69 BE C2 4B ....4s......i..K
00405A90 90 C4 78 24 A1 DB 23 1F 01 13 FB 06 00 2E 00 CF ..x$..#.........
00405AA0 47 AA 27 CA A3 FF 14 F7 DD 00 F3 00 07 E8 A3 32 G.'............2
00405AB0 F3 AF D6 00 F8 BC 10 C8 8F 43 08 21 91 80 70 5C .........C.!..p\
00405AC0 FF 42 40 75 00 73 04 57 07 31 42 9B EF 11 10 5C .B@u.s.W.1B....\
00405AD0 40 B6 14 41 BF 1B BF 00 D7 7B 1C 2D 0C 59 D7 C1 @..A.....{.-.Y..
00405AE0 B5 92 27 00 00 08 E0 17 D8 B7 CD CB BC 76 31 02 ..'..........v1.
00405AF0 09 66 FE 6A 12 9A 1A F6 CE DC 17 B7 FB FF 00 ED .f.j............
00405B00 FF FF E7 B1 96 01 C4 D4 72 93 00 FF 90 80 A7 11 ........r.......
00405B10 E0 19 E1 36 67 59 74 48 00 10 00 5F 34 D0 50 03 ...6gYtH..._4.P.
00405B20 FB 01 42 C5 0F 1A 8B 4E 28 E1 84 6E 27 5F 76 FA ..B....N(..n'_v.
00405B30 23 B5 00 49 83 31 94 23 00 6E 9E 49 02 55 74 45 #..I.1.#.n.I.UtE
00405B40 00 CB 00 00 AE 94 05 00 10 00 C1 BB 73 5C 86 53 ............s\.S
00405B50 18 FF 3D 3B C2 74 B6 CA 63 00 A1 75 4C 01 00 58 ..=;.t..c..uL..X
00405B60 79 FF 10 82 5F 5B 61 E7 82 6B 8F A9 C0 4F 3C 00 y..._[a..k...O<.
00405B70 FB 7D 00 00 C9 3F EF 7C D3 7E 5F E0 20 00 62 3D .}...?.|.~_. .b=
00405B80 B7 C0 BC 00 DC 62 07 45 DC 00 F1 F9 69 81 28 89 .....b.E....i.(.
00405B90 67 30 8B B3 2F 08 00 FB 47 C2 3E 41 7D 56 CF DC g0../...G.>A}V..
00405BA0 63 D1 E5 8F 55 1D AC 57 97 62 80 6F 3B 77 99 69 c...U..W.b.o;w.i
00405BB0 08 DB 00 BC 06 3E AB 15 50 07 6A 2D B8 BE 00 9C .....>..P.j-....
00405BC0 4C 90 7E 3A 41 32 B1 00 FF 00 BF 98 00 BD 84 C0 L.~:A2..........
00405BD0 00 D2 00 B6 A2 9D D5 54 63 47 6F 72 16 8F 8B C0 .......TcGor....
00405BE0 FB 41 6F 8F F6 D9 26 00 3B FC 9E 94 96 00 0C 00 .Ao...&.;.......
00405BF0 E9 14 F4 0C F8 22 FF C9 AE 4C E2 7E 00 00 0D B3 ....."...L.~....
00405C00 3A AC 8E D7 79 5D D7 12 5C F0 41 BF 44 00 BE 3B :...y]..\.A.D..;
00405C10 DB E9 14 F7 00 01 00 14 77 2F FF 76 5D 00 BD 24 ........w/.v]..$
00405C20 7F FD F2 00 83 0C 39 C1 47 14 F6 06 0A 9C C8 E7 ......9.G.......
00405C30 C3 FF 97 9C CC 06 EB 00 D9 35 17 23 16 1C 1B 80 .........5.#....
00405C40 4B DB D7 88 5B 5F 80 21 28 1F 69 8B 00 43 00 FF K...[_.!(.i..C..
00405C50 14 8A 01 36 B8 FF 14 C5 E4 56 E6 B5 CA 78 6F FF ...6.....V...xo.
00405C60 DC 98 86 2E DF 3D 00 EF D1 00 C9 00 42 D1 00 AA .....=......B...
00405C70 0D A5 01 7E 6C D8 E5 A8 A8 01 85 CD AA 00 28 8F ...~l.........(.
00405C80 F0 00 00 3D B1 D4 F0 3E 94 80 10 1E 0E BB AC D3 ...=...>........
00405C90 B2 1E 1A 97 AA 89 71 B6 AB 89 23 82 FF 3A B6 91 ......q...#..:..
00405CA0 B9 1A 6B 61 80 39 67 5E 19 48 42 AF F5 61 12 63 ..ka.9g^.HB..a.c
00405CB0 18 23 E2 3B 9C 00 F2 50 63 05 46 00 DD FF FB E6 .#.;...Pc.F.....
00405CC0 85 00 69 20 5C A4 2C 56 BE 00 BD 72 1E 32 E1 5C ..i \.,V...r.2.\
00405CD0 0E 00 32 42 00 AB 12 EA 9D E6 29 FA 4F 62 44 16 ..2B......).ObD.
00405CE0 7C 6F 83 0E 00 00 60 FD C1 00 8B C5 FF 00 30 3B |o....`.......0;
00405CF0 20 2E 72 FA C5 A6 56 58 84 00 E3 FF 02 E2 67 05  .r...VX......g.
00405D00 9E 5F 58 E1 00 00 00 40 54 00 8E B0 6C 14 00 00 ._X....@T...l...
00405D10 F7 84 3B 15 F4 40 00 26 F3 1D 63 10 9B 94 21 6D ..;..@.&..c...!m
00405D20 00 00 8C 00 F3 FF 9B FF D1 8C B0 DF C2 00 8C 0B ................
00405D30 00 CB A2 06 76 0C 48 E9 FF 0F 30 A0 2E FF 3D DD ....v.H...0...=.
00405D40 95 04 0B FC 16 64 BD 31 8A 7F D8 BD 18 9D 18 29 .....d.1.......)
00405D50 80 EE 5F 99 00 10 0C 64 40 70 85 17 00 CF FF 1F .._....d@p......
00405D60 23 8E B0 CE C4 FF 00 E7 76 08 E3 D5 36 3A 34 2C #.......v...6:4,
00405D70 9B FF 7E 00 C0 FE 03 00 74 18 F4 EA AE 00 5E 09 ..~.....t.....^.
00405D80 E6 26 AD 98 99 D5 52 C5 80 64 FA 27 B4 DF AF 12 .&....R..d.'....
00405D90 6D 7C 56 20 2B 74 12 E3 00 69 FF BF FD 64 00 8D m|V +t...i...d..
00405DA0 78 00 83 00 DF 2D 00 50 F1 00 DE 46 05 18 00 00 x....-.P...F....
00405DB0 75 05 FF 46 F8 00 CF D8 38 22 00 27 82 F3 FF 00 u..F....8".'....
00405DC0 93 7C 00 00 00 13 27 2D 9D 4E 79 FC 81 D2 2A 6E .|....'-.Ny...*n
00405DD0 81 CE 33 62 FF BA 71 AA 00 23 FF 9D 21 CB DC 96 ..3b..q..#..!...
00405DE0 7C 74 6E 00 F4 02 2A E8 23 02 40 00 7F 40 00 9F |tn...*.#.@..@..
00405DF0 DE F8 0A 11 1C E2 00 FF 44 0F BF D2 37 87 FC FD ........D...7...
00405E00 BE DE B4 22 EA 2E 00 7A 43 63 9D DD FF 40 9F 50 ..."...zCc...@.P
00405E10 FF A1 2F FF 56 1F 51 F4 30 96 76 FF 4B A4 FD 0B ../.V.Q.0.v.K...
00405E20 EE 00 00 00 65 5D 00 C9 E6 91 C6 FF 49 60 AF 00 ....e]......I`..
00405E30 1D 6B 60 E0 DF EF B1 5E 39 DF 00 83 60 00 00 00 .k`....^9...`...
00405E40 50 DF 45 5A A9 CD 58 C4 04 E5 F3 00 FF FF 26 61 P.EZ..X.......&a
00405E50 5E F9 2F 00 26 38 C9 EB FC 17 30 FE D1 59 31 B4 ^./.&8....0..Y1.
00405E60 EE 3E C2 6E 04 B9 D7 0E F5 B7 88 00 00 3C 6C 50 .>.n.........<lP
00405E70 94 40 68 6C 3C 00 56 F7 C8 00 B2 73 C9 45 D3 51 .@hl<.V....s.E.Q
00405E80 16 CF 75 86 81 2D 63 D0 8E 7B 64 FF E0 46 C4 61 ..u..-c..{d..F.a
00405E90 83 6D 1F 37 B2 75 8C 00 00 CE DE E7 00 97 5B 16 .m.7.u........[.
00405EA0 9C C7 47 1A 00 44 00 42 70 C8 B4 DB A4 17 13 77 ..G..D.Bp......w
00405EB0 DF A0 C7 00 00 00 F7 00 E8 3A E4 83 3A 51 C5 00 .........:..:Q..
00405EC0 80 E0 00 FB FF 0E 03 9B 58 35 A6 A3 DF C3 ED 22 ........X5....."
00405ED0 2C 70 40 70 84 0E 16 B6 E0 C1 0A BF FF 00 2F E1 ,p@p........../.
00405EE0 54 00 BF FF 9E E6 FB D1 B7 C0 72 B8 45 29 FE 1F T.........r.E)..
00405EF0 D5 19 D3 80 FC 4D 17 F3 6E 3F 00 F4 DB 00 3D 47 .....M..n?....=G
00405F00 03 D0 2E 74 B7 78 54 2A E8 D2 1D 04 76 DE 46 00 ...t.xT*....v.F.
00405F10 00 5E 00 B1 DA 0C F3 43 03 22 FF 60 6C 73 E7 3C .^.....C.".`ls.<
00405F20 D3 8E 28 F9 32 3A 02 81 00 BE 00 22 3A 3A 40 00 ..(.2:....."::@.
00405F30 2D 26 00 C0 92 98 BF A0 C3 00 00 B7 CF C2 1F 9C -&..............
00405F40 00 FF F9 D3 1C 00 FC 7F AE 00 00 61 00 FA 00 C1 ...........a....
00405F50 02 5E A8 E9 07 AA 00 FF 01 4A 9B 35 6A 22 0C 8F .^.......J.5j"..
00405F60 6C D5 CD 85 23 DD 1E 38 00 40 EB 2A CF EF 3A 77 l...#..8.@.*..:w
00405F70 00 85 32 C7 0B 00 2D 00 30 81 C1 20 00 2D 6A 8C ..2...-.0.. .-j.
00405F80 00 6A 00 FF 00 74 F0 00 13 41 00 30 07 91 A2 00 .j...t...A.0....
00405F90 93 00 1E A1 65 05 11 0F 4C 01 E1 D5 A7 0A 84 11 ....e...L.......
00405FA0 F4 D9 8F EF CF CB 28 FF F7 00 D9 FB 88 C0 2C 10 ......(.......,.
00405FB0 CB FF 00 FA 9C E0 BD 1C 36 4E C7 65 88 53 00 5A ........6N.e.S.Z
00405FC0 64 BA 18 0D EF 3B 0B 00 1A 00 00 00 F0 63 AC D2 d....;.......c..
00405FD0 62 9E 48 E3 00 FA DB 00 98 4C 87 FD 05 7E 40 95 b.H......L...~@.
00405FE0 03 52 8F 84 FF E5 6F 00 20 00 06 00 1C A7 99 BB .R....o. .......
00405FF0 B4 82 BE FF 1C CE B6 FF 87 4D 00 00 00 1D 71 53 .........M....qS
00406000 FC 30 B1 7F 44 8B 03 10 8D 01 00 44 49 3C 00 0A .0..D......DI<..
00406010 5A 7B A0 69 00 90 F0 5B 00 19 A4 56 16 7B 89 01 Z{.i...[...V.{..
00406020 B0 00 00 BB A7 00 04 36 57 65 00 00 0F 13 FF 72 .......6We.....r
00406030 31 C3 00 64 D3 ED 80 74 FA D1 00 01 82 02 01 40 1..d...t.......@
00406040 DA DF 93 88 54 EB 10 4A AD 00 C1 D9 40 0F AC 00 ....T..J....@...
00406050 00 00 49 F4 C7 75 BA 73 67 19 D2 FF D9 03 F3 00 ..I..u.sg.......
00406060 1C C8 04 DE 40 FF 7E 96 27 A0 00 6B FD 7F 09 B0 ....@.~.'..k....
00406070 48 BA FA F9 FC 50 19 9A 00 C6 2E 24 00 68 20 18 H....P.....$.h .
00406080 0F 00 00 DC 4E 07 68 00 00 1A 00 A0 72 EE 00 6C ....N.h.....r..l
00406090 7D 1F 7B 99 87 DA 29 91 34 90 B8 1D 00 3E 70 14 }.{...).4....>p.
004060A0 6C 4D 93 B5 D1 67 C5 AB 00 C3 39 30 00 06 8D FF lM...g....90....
004060B0 C3 90 9A 07 11 FE B3 5A 49 F6 00 75 F6 A1 7F DF .......ZI..u....
004060C0 06 75 06 D1 A4 6A 7D 11 FF 13 FF 91 FF 00 0D 1B .u...j}.........
004060D0 BE 21 8D 40 5C 4C A8 19 00 F1 6A 24 15 11 9D C9 .!.@\L....j$....
004060E0 DF 22 E7 FB 7D 03 88 00 60 24 52 07 B1 F3 83 41 ."..}...`$R....A
004060F0 A6 69 C0 BA 3E 46 27 F6 45 FF E6 FC F3 FF FE DC .i..>F'.E.......
00406100 83 00 AF 45 D1 35 E1 07 00 3F 00 EE 90 F8 00 00 ...E.5...?......
00406110 AE 00 BE 1B 02 25 00 41 00 42 A7 67 61 F2 00 74 .....%.A.B.ga..t
00406120 50 4D 5C FF 4A C0 00 5E FC 00 9F 37 4B D6 49 A9 PM\.J..^...7K.I.
00406130 B4 8B 9D D1 34 88 CA 10 67 5B 38 63 0D 00 79 00 ....4...g[8c..y.
00406140 B3 19 86 BF DE 7B FF 52 FF D8 A5 2F 36 00 E7 E3 .....{.R.../6...
00406150 B7 F8 83 AC C4 03 CE F8 24 08 74 66 C9 DE 78 2C ........$.tf..x,
00406160 B7 FA D0 C5 00 E1 5B AB C9 FF C1 D1 00 86 00 35 ......[........5
00406170 0A 05 0A 90 3C DC 48 F9 BD 00 7F 9B 87 24 DC 2B ....<.H......$.+
00406180 F3 D3 FD 04 FD 74 CC D0 10 00 88 BE 17 B8 66 C9 .....t........f.
00406190 0F C1 9C CB E8 67 52 00 96 00 FF 81 9D AE 11 F4 .....gR.........
004061A0 3D 6D 40 77 0C D1 16 1B 16 07 4E 69 F8 FE 00 E1 =m@w......Ni....
004061B0 BA FF B6 85 30 98 B5 C0 6E 21 71 F6 F7 3A BA C1 ....0...n!q..:..
004061C0 AE 00 E9 B6 D6 93 A9 20 E0 00 80 99 00 F7 08 20 ....... ....... 
004061D0 84 00 6F 00 80 3A 89 00 F8 FF 00 14 50 FA F3 83 ..o..:......P...
004061E0 73 ED B0 3F 82 97 74 00 C8 63 E8 58 80 94 FD 00 s..?..t..c.X....
004061F0 00 5C 1C 39 70 00 4E FF 00 26 7D 40 01 02 8D 8B .\.9p.N..&}@....
00406200 6E FF DC 7C 1F 06 00 00 FF 53 00 00 39 3D FF 55 n..|.....S..9=.U
00406210 88 B6 CE 8A AC 00 F4 06 04 10 60 9E BD 17 47 C0 ..........`...G.
00406220 FF 52 5F 4F 08 BF 00 D4 00 78 78 79 10 91 47 42 .R_O.....xxy..GB
00406230 00 18 FE F7 0F 00 00 74 A5 00 C0 8A 8B 87 F3 F0 .......t........
00406240 02 58 60 00 6C 69 38 52 E1 8F 20 62 EF 2F 00 E2 .X`.li8R.. b./..
00406250 68 3A C3 8D 99 00 F7 7E 00 60 07 65 75 99 51 28 h:.....~.`.eu.Q(
00406260 00 7F 88 46 FF 38 6D 5B A3 C8 C4 65 58 0E 6C BB ...F.8m[...eX.l.
00406270 A8 03 03 D2 6B A8 99 06 51 8A 00 1A FF 00 AE 59 ....k...Q......Y
00406280 31 B1 83 D5 16 FF 6E 0E 73 C9 24 09 80 00 3E 00 1.....n.s.$...>.
00406290 00 FF 71 8C 2E D5 74 46 4B 01 68 C3 BF B4 FF 8B ..q...tFK.h.....
004062A0 8C 00 0B 40 82 6D DE 01 FF 3D E5 F7 E3 63 4E D1 ...@.m...=...cN.
004062B0 8D 64 B7 2D E9 20 39 80 FB 33 03 2F 00 7A AC 9B .d.-. 9..3./.z..
004062C0 08 00 2C 6F 93 48 33 00 46 BB 6E F5 C0 00 10 93 ..,o.H3.F.n.....
004062D0 00 48 00 2C 99 F5 7E 2F 1E E8 1D 01 BD 81 22 9C .H.,..~/......".
004062E0 8D 71 9F 00 00 00 26 79 00 D4 DD 7D 27 91 CA CC .q....&y...}'...
004062F0 7C FC 14 01 DE 66 44 90 5D E1 F6 6A 00 63 86 47 |....fD.]..j.c.G
00406300 EB 83 5F 9E 46 6C 3E 90 00 FF 40 00 00 00 27 58 .._.Fl>...@...'X
00406310 45 89 7C 00 FF 5C 00 FA 76 DE 8B FC 00 01 C0 0E E.|..\..v.......
00406320 0D AD 37 FF 31 C7 A4 60 DB E8 AD B1 00 EB C1 FF ..7.1..`........
00406330 E2 FF 50 0D ED 68 2E 3A 13 AF 21 B5 A4 8B 33 05 ..P..h.:..!...3.
00406340 18 01 E1 9C A5 1B 06 F0 BF AD 01 A5 DE 00 F9 00 ................
00406350 0E FF 3B 9C EF 91 66 76 F2 F6 92 01 E8 30 5F FF ..;...fv.....0_.
00406360 F7 A4 50 08 56 7B 5E E8 E9 5C 65 B4 A3 8B D3 AB ..P.V{^..\e.....
00406370 6D E4 3D 3C 43 5C 00 AC 07 00 36 33 07 30 3E 90 m.=<C\....63.0>.
00406380 D0 FF 00 75 A4 CC 33 29 A4 3A 00 2F CC 96 82 28 ...u..3).:./...(
00406390 A4 96 2A 00 00 37 04 4C 00 30 DE 23 06 47 BF 00 ..*..7.L.0.#.G..
004063A0 00 00 DD D5 00 0A 4B 48 C7 58 DE 00 18 5D AB 63 ......KH.X...].c
004063B0 00 3F 1D 7C C0 CB CA 7A 76 95 D0 CD EF 6F 6B 74 .?.|...zv....okt
004063C0 4A D6 00 36 00 6E 00 5E 66 C0 DD FF FF 39 E7 33 J..6.n.^f....9.3
004063D0 08 00 54 BC B2 34 6A EC 18 E8 00 FF 01 6D C7 0F ..T..4j......m..
004063E0 67 00 0F 1A 2A FF 00 62 00 08 73 A9 2B C0 20 3C g...*..b..s.+. <
004063F0 A2 00 BD 00 D6 01 83 F2 00 07 2B 00 0E 02 F8 0E ..........+.....
00406400 4B 00 1F 9B C4 90 81 E0 FE A7 EF FE E6 2C 0B 22 K............,."
00406410 B9 48 19 FF BC 7E B3 62 00 19 E3 FE 00 63 77 64 .H...~.b.....cwd
00406420 0A 87 0D 53 19 06 00 9B 3D 7B BD 06 BF CB 08 AD ...S....={......
00406430 A3 6E C1 98 8C 00 DA B0 28 5F FF ED FF 76 1F FD .n......(_...v..
00406440 7F FE C6 04 98 13 69 00 F3 2F 13 4F 00 34 00 E2 ......i../.O.4..
00406450 60 92 23 CC D8 94 10 58 C0 00 00 A6 0F BA 00 1A `.#....X........
00406460 61 85 90 C5 75 4C AF FB 57 C8 FF 00 09 60 61 7C a...uL..W....`a|
00406470 00 00 57 2C 2A 0B 90 6D 3A B5 F2 9F 82 9F 00 60 ..W,*..m:......`
00406480 4E 5E D2 69 0B C0 00 28 DA EF 89 89 9A 1E 8B 04 N^.i...(........
00406490 00 31 3D 60 57 9D 00 0B 00 39 E7 C7 47 F6 11 00 .1=`W....9..G...
004064A0 1F 46 A1 2C B6 05 00 00 00 34 00 3B 65 00 B2 CF .F.,.....4.;e...
004064B0 B8 7C A4 8B 20 83 FF EF 10 53 76 EF 00 5F 66 B7 .|.. ....Sv.._f.
004064C0 80 30 00 F8 DD A9 AF 08 92 E7 BF F8 38 04 DA A8 .0..........8...
004064D0 3B 38 BF CC 18 B1 FF D8 5B 10 FF 7E A3 64 4D 40 ;8......[..~.dM@
004064E0 00 31 01 67 00 F1 00 FA 0E 0B E3 BB 00 A0 1A 0A .1.g............
004064F0 C4 00 87 77 DD B3 6D 2C A9 EE FE 80 19 FF 01 15 ...w..m,........
00406500 B5 0F 84 5B 99 00 32 CC F2 00 85 EB 77 BF 1D 83 ...[..2.....w...
00406510 3A 00 FF 53 01 65 02 00 CE C8 8F F0 00 FD 80 D0 :..S.e..........
00406520 8E DC BD D8 40 1F BD A6 7A 34 FF 8F FE 01 D8 B8 ....@...z4......
00406530 00 FF 1F 0D D7 48 E7 2E E3 00 00 EB A9 77 99 B5 .....H.......w..
00406540 FF B4 9A 00 80 3C 58 00 A3 95 D9 D5 06 3E 8A 00 .....<X......>..
00406550 91 D0 00 00 EF 5A 69 23 00 00 DF 00 2C 00 90 00 .....Zi#....,...
00406560 00 8B 1E 16 27 B9 E4 00 3A CE 2D 56 98 F2 00 91 ....'...:.-V....
00406570 4D 00 9C 7B DD 00 50 00 E4 47 D7 7C 6F 7F CA F2 M..{..P..G.|o...
00406580 00 5D ED 00 58 86 8A 00 22 81 D0 E3 B8 84 DC CD .]..X...".......
00406590 E7 7A 89 7A CF EB FF E8 FB 4E EF 0D 05 9D 03 42 .z.z.....N.....B
004065A0 7B E2 00 04 6C 00 E5 D3 76 4D 24 E1 93 00 78 7B {...l...vM$...x{
004065B0 5B CA 79 15 62 8D 7E 52 4B 15 BB 35 AB 7E FF FF [.y.b.~RK..5.~..
004065C0 C1 93 48 1A 50 3F BD 9E E4 32 B0 AA 96 40 52 39 ..H.P?...2...@R9
004065D0 00 9A C7 6A AF B1 30 C4 D5 FF B0 CF 0E FF 5F 47 ...j..0......._G
004065E0 3D 61 00 EA 9C 80 BC 7C 00 93 33 E8 40 C0 31 C1 =a.....|..3.@.1.
004065F0 63 8C 43 49 38 1E B0 0F E8 C6 62 F3 02 02 00 36 c.CI8.....b....6
00406600 00 00 00 00 00 00 00 00 00 00 00 00 00 00 00 00 ................
00406610 00 00 00 00 00 00 00 00 00 00 00 00 00 00 00 00 ................
00406620 00 00 00 00 00 00 00 00 00 00 00 00 00 00 00 00 ................
00406630 00 00 00 00 00 00 00 00 00 00 00 00 00 00 00 00 ................
00406640 00 00 00 00 00 00 00 00 00 00 00 00 00 00 00 00 ................
00406650 00 00 00 00 00 00 00 00 00 00 00 00 00 00 00 00 ................
00406660 00 00 00 00 00 00 00 00 00 00 00 00 00 00 00 00 ................
00406670 00 00 00 00 00 00 00 00 00 00 00 00 00 00 00 00 ................
00406680 00 00 00 00 00 00 00 00 00 00 00 00 00 00 00 00 ................
00406690 00 00 00 00 00 00 00 00 00 00 00 00 00 00 00 00 ................
004066A0 00 00 00 00 00 00 00 00 00 00 00 00 00 00 00 00 ................
004066B0 00 00 00 00 00 00 00 00 00 00 00 00 00 00 00 00 ................
004066C0 00 00 00 00 00 00 00 00 00 00 00 00 00 00 00 00 ................
004066D0 00 00 00 00 00 00 00 00 00 00 00 00 00 00 00 00 ................
004066E0 00 00 00 00 00 00 00 00 00 00 00 00 00 00 00 00 ................
004066F0 00 00 00 00 00 00 00 00 00 00 00 00 00 00 00 00 ................
00406700 00 00 00 00 00 00 00 00 00 00 00 00 00 00 00 00 ................
00406710 00 00 00 00 00 00 00 00 00 00 00 00 00 00 00 00 ................
00406720 00 00 00 00 00 00 00 00 00 00 00 00 00 00 00 00 ................
00406730 00 00 00 00 00 00 00 00 00 00 00 00 00 00 00 00 ................
00406740 00 00 00 00 00 00 00 00 00 00 00 00 00 00 00 00 ................
00406750 00 00 00 00 00 00 00 00 00 00 00 00 00 00 00 00 ................
00406760 00 00 00 00 00 00 00 00 00 00 00 00 00 00 00 00 ................
00406770 00 00 00 00 00 00 00 00 00 00 00 00 00 00 00 00 ................
00406780 00 00 00 00 00 00 00 00 00 00 00 00 00 00 00 00 ................
00406790 00 00 00 00 00 00 00 00 00 00 00 00 00 00 00 00 ................
004067A0 00 00 00 00 00 00 00 00 00 00 00 00 00 00 00 00 ................
004067B0 00 00 00 00 00 00 00 00 00 00 00 00 00 00 00 00 ................
004067C0 00 00 00 00 00 00 00 00 00 00 00 00 00 00 00 00 ................
004067D0 00 00 00 00 00 00 00 00 00 00 00 00 00 00 00 00 ................
004067E0 00 00 00 00 00 00 00 00 00 00 00 00 00 00 00 00 ................
004067F0 00 00 00 00 00 00 00 00 00 00 00 00 00 00 00 00 ................
00406800 00 00 00 00 00 00 00 00 00 00 00 00 00 00 00 00 ................
00406810 00 00 00 00 00 00 00 00 00 00 00 00 00 00 00 00 ................
00406820 00 00 00 00 00 00 00 00 00 00 00 00 00 00 00 00 ................
00406830 00 00 00 00 00 00 00 00 00 00 00 00 00 00 00 00 ................
00406840 00 00 00 00 00 00 00 00 00 00 00 00 00 00 00 00 ................
00406850 00 00 00 00 00 00 00 00 00 00 00 00 00 00 00 00 ................
00406860 00 00 00 00 00 00 00 00 00 00 00 00 00 00 00 00 ................
00406870 00 00 00 00 00 00 00 00 00 00 00 00 00 00 00 00 ................
00406880 00 00 00 00 00 00 00 00 00 00 00 00 00 00 00 00 ................
00406890 00 00 00 00 00 00 00 00 00 00 00 00 00 00 00 00 ................
004068A0 00 00 00 00 00 00 00 00 00 00 00 00 00 00 00 00 ................
004068B0 00 00 00 00 00 00 00 00 00 00 00 00 00 00 00 00 ................
004068C0 00 00 00 00 00 00 00 00 00 00 00 00 00 00 00 00 ................
004068D0 00 00 00 00 00 00 00 00 00 00 00 00 00 00 00 00 ................
004068E0 00 00 00 00 00 00 00 00 00 00 00 00 00 00 00 00 ................
004068F0 00 00 00 00 00 00 00 00 00 00 00 00 00 00 00 00 ................
00406900 00 00 00 00 00 00 00 00 00 00 00 00 00 00 00 00 ................
00406910 00 00 00 00 00 00 00 00 00 00 00 00 00 00 00 00 ................
00406920 00 00 00 00 00 00 00 00 00 00 00 00 00 00 00 00 ................
00406930 00 00 00 00 00 00 00 00 00 00 00 00 00 00 00 00 ................
00406940 00 00 00 00 00 00 00 00 00 00 00 00 00 00 00 00 ................
00406950 00 00 00 00 00 00 00 00 00 00 00 00 00 00 00 00 ................
00406960 00 00 00 00 00 00 00 00 00 00 00 00 00 00 00 00 ................
00406970 00 00 00 00 00 00 00 00 00 00 00 00 00 00 00 00 ................
00406980 00 00 00 00 00 00 00 00 00 00 00 00 00 00 00 00 ................
00406990 00 00 00 00 00 00 00 00 00 00 00 00 00 00 00 00 ................
004069A0 00 00 00 00 00 00 00 00 00 00 00 00 00 00 00 00 ................
004069B0 00 00 00 00 00 00 00 00 00 00 00 00 00 00 00 00 ................
004069C0 00 00 00 00 00 00 00 00 00 00 00 00 00 00 00 00 ................
004069D0 00 00 00 00 00 00 00 00 00 00 00 00 00 00 00 00 ................
004069E0 00 00 00 00 00 00 00 00 00 00 00 00 00 00 00 00 ................
004069F0 00 00 00 00 00 00 00 00 00 00 00 00 00 00 00 00 ................
00406A00 00 00 00 00 00 00 00 00 00 00 00 00 00 00 00 00 ................
00406A10 00 00 00 00 00 00 00 00 00 00 00 00 00 00 00 00 ................
00406A20 00 00 00 00 00 00 00 00 00 00 00 00 00 00 00 00 ................
00406A30 00 00 00 00 00 00 00 00 00 00 00 00 00 00 00 00 ................
00406A40 00 00 00 00 00 00 00 00 00 00 00 00 00 00 00 00 ................
00406A50 00 00 00 00 00 00 00 00 00 00 00 00 00 00 00 00 ................
00406A60 00 00 00 00 00 00 00 00 00 00 00 00 00 00 00 00 ................
00406A70 00 00 00 00 00 00 00 00 00 00 00 00 00 00 00 00 ................
00406A80 00 00 00 00 00 00 00 00 00 00 00 00 00 00 00 00 ................
00406A90 00 00 00 00 00 00 00 00 00 00 00 00 00 00 00 00 ................
00406AA0 00 00 00 00 00 00 00 00 00 00 00 00 00 00 00 00 ................
00406AB0 00 00 00 00 00 00 00 00 00 00 00 00 00 00 00 00 ................
00406AC0 00 00 00 00 00 00 00 00 00 00 00 00 00 00 00 00 ................
00406AD0 00 00 00 00 00 00 00 00 00 00 00 00 00 00 00 00 ................
00406AE0 00 00 00 00 00 00 00 00 00 00 00 00 00 00 00 00 ................
00406AF0 00 00 00 00 00 00 00 00 00 00 00 00 00 00 00 00 ................
00406B00 00 00 00 00 00 00 00 00 00 00 00 00 00 00 00 00 ................
00406B10 00 00 00 00 00 00 00 00 00 00 00 00 00 00 00 00 ................
00406B20 00 00 00 00 00 00 00 00 00 00 00 00 00 00 00 00 ................
00406B30 00 00 00 00 00 00 00 00 00 00 00 00 00 00 00 00 ................
00406B40 00 00 00 00 00 00 00 00 00 00 00 00 00 00 00 00 ................
00406B50 00 00 00 00 00 00 00 00 00 00 00 00 00 00 00 00 ................
00406B60 00 00 00 00 00 00 00 00 00 00 00 00 00 00 00 00 ................
00406B70 00 00 00 00 00 00 00 00 00 00 00 00 00 00 00 00 ................
00406B80 00 00 00 00 00 00 00 00 00 00 00 00 00 00 00 00 ................
00406B90 00 00 00 00 00 00 00 00 00 00 00 00 00 00 00 00 ................
00406BA0 00 00 00 00 00 00 00 00 00 00 00 00 00 00 00 00 ................
00406BB0 00 00 00 00 00 00 00 00 00 00 00 00 00 00 00 00 ................
00406BC0 00 00 00 00 00 00 00 00 00 00 00 00 00 00 00 00 ................
00406BD0 00 00 00 00 00 00 00 00 00 00 00 00 00 00 00 00 ................
00406BE0 00 00 00 00 00 00 00 00 00 00 00 00 00 00 00 00 ................
00406BF0 00 00 00 00 00 00 00 00 00 00 00 00 00 00 00 00 ................
00406C00 00 00 00 00 00 00 00 00 00 00 00 00 00 00 00 00 ................
00406C10 00 00 00 00 00 00 00 00 00 00 00 00 00 00 00 00 ................
00406C20 00 00 00 00 00 00 00 00 00 00 00 00 00 00 00 00 ................
00406C30 00 00 00 00 00 00 00 00 00 00 00 00 00 00 00 00 ................
00406C40 00 00 00 00 00 00 00 00 00 00 00 00 00 00 00 00 ................
00406C50 00 00 00 00 00 00 00 00 00 00 00 00 00 00 00 00 ................
00406C60 00 00 00 00 00 00 00 00 00 00 00 00 00 00 00 00 ................
00406C70 00 00 00 00 00 00 00 00 00 00 00 00 00 00 00 00 ................
00406C80 00 00 00 00 00 00 00 00 00 00 00 00 00 00 00 00 ................
00406C90 00 00 00 00 00 00 00 00 00 00 00 00 00 00 00 00 ................
00406CA0 00 00 00 00 00 00 00 00 00 00 00 00 00 00 00 00 ................
00406CB0 00 00 00 00 00 00 00 00 00 00 00 00 00 00 00 00 ................
00406CC0 00 00 00 00 00 00 00 00 00 00 00 00 00 00 00 00 ................
00406CD0 00 00 00 00 00 00 00 00 00 00 00 00 00 00 00 00 ................
00406CE0 00 00 00 00 00 00 00 00 00 00 00 00 00 00 00 00 ................
00406CF0 00 00 00 00 00 00 00 00 00 00 00 00 00 00 00 00 ................
00406D00 00 00 00 00 00 00 00 00 00 00 00 00 00 00 00 00 ................
00406D10 00 00 00 00 00 00 00 00 00 00 00 00 00 00 00 00 ................
00406D20 00 00 00 00 00 00 00 00 00 00 00 00 00 00 00 00 ................
00406D30 00 00 00 00 00 00 00 00 00 00 00 00 00 00 00 00 ................
00406D40 00 00 00 00 00 00 00 00 00 00 00 00 00 00 00 00 ................
00406D50 00 00 00 00 00 00 00 00 00 00 00 00 00 00 00 00 ................
00406D60 00 00 00 00 00 00 00 00 00 00 00 00 00 00 00 00 ................
00406D70 00 00 00 00 00 00 00 00 00 00 00 00 00 00 00 00 ................
00406D80 00 00 00 00 00 00 00 00 00 00 00 00 00 00 00 00 ................
00406D90 00 00 00 00 00 00 00 00 00 00 00 00 00 00 00 00 ................
00406DA0 00 00 00 00 00 00 00 00 00 00 00 00 00 00 00 00 ................
00406DB0 00 00 00 00 00 00 00 00 00 00 00 00 00 00 00 00 ................
00406DC0 00 00 00 00 00 00 00 00 00 00 00 00 00 00 00 00 ................
00406DD0 00 00 00 00 00 00 00 00 00 00 00 00 00 00 00 00 ................
00406DE0 00 00 00 00 00 00 00 00 00 00 00 00 00 00 00 00 ................
00406DF0 00 00 00 00 00 00 00 00 00 00 00 00 00 00 00 00 ................
00406E00 00 00 00 00 00 00 00 00 00 00 00 00 00 00 00 00 ................
00406E10 00 00 00 00 00 00 00 00 00 00 00 00 00 00 00 00 ................
00406E20 00 00 00 00 00 00 00 00 00 00 00 00 00 00 00 00 ................
00406E30 00 00 00 00 00 00 00 00 00 00 00 00 00 00 00 00 ................
00406E40 00 00 00 00 00 00 00 00 00 00 00 00 00 00 00 00 ................
00406E50 00 00 00 00 00 00 00 00 00 00 00 00 00 00 00 00 ................
00406E60 00 00 00 00 00 00 00 00 00 00 00 00 00 00 00 00 ................
00406E70 00 00 00 00 00 00 00 00 00 00 00 00 00 00 00 00 ................
00406E80 00 00 00 00 00 00 00 00 00 00 00 00 00 00 00 00 ................
00406E90 00 00 00 00 00 00 00 00 00 00 00 00 00 00 00 00 ................
00406EA0 00 00 00 00 00 00 00 00 00 00 00 00 00 00 00 00 ................
00406EB0 00 00 00 00 00 00 00 00 00 00 00 00 00 00 00 00 ................
00406EC0 00 00 00 00 00 00 00 00 00 00 00 00 00 00 00 00 ................
00406ED0 00 00 00 00 00 00 00 00 00 00 00 00 00 00 00 00 ................
00406EE0 00 00 00 00 00 00 00 00 00 00 00 00 00 00 00 00 ................
00406EF0 00 00 00 00 00 00 00 00 00 00 00 00 00 00 00 00 ................
00406F00 00 00 00 00 00 00 00 00 00 00 00 00 00 00 00 00 ................
00406F10 00 00 00 00 00 00 00 00 00 00 00 00 00 00 00 00 ................
00406F20 00 00 00 00 00 00 00 00 00 00 00 00 00 00 00 00 ................
00406F30 00 00 00 00 00 00 00 00 00 00 00 00 00 00 00 00 ................
00406F40 00 00 00 00 00 00 00 00 00 00 00 00 00 00 00 00 ................
00406F50 00 00 00 00 00 00 00 00 00 00 00 00 00 00 00 00 ................
00406F60 00 00 00 00 00 00 00 00 00 00 00 00 00 00 00 00 ................
00406F70 00 00 00 00 00 00 00 00 00 00 00 00 00 00 00 00 ................
00406F80 00 00 00 00 00 00 00 00 00 00 00 00 00 00 00 00 ................
00406F90 00 00 00 00 00 00 00 00 00 00 00 00 00 00 00 00 ................
00406FA0 00 00 00 00 00 00 00 00 00 00 00 00 00 00 00 00 ................
00406FB0 00 00 00 00 00 00 00 00 00 00 00 00 00 00 00 00 ................
00406FC0 00 00 00 00 00 00 00 00 00 00 00 00 00 00 00 00 ................
00406FD0 00 00 00 00 00 00 00 00 00 00 00 00 00 00 00 00 ................
00406FE0 00 00 00 00 00 00 00 00 00 00 00 00 00 00 00 00 ................
00406FF0 00 00 00 00 00 00 00 00 00 00 00 00 00 00 00 00 ................
00407000 00 00 00 00 00 00 00 00 00 00 00 00 00 00 00 00 ................
00407010 00 00 00 00 00 00 00 00 00 00 00 00 00 00 00 00 ................
00407020 00 00 00 00 00 00 00 00 00 00 00 00 00 00 00 00 ................
00407030 00 00 00 00 00 00 00 00 00 00 00 00 00 00 00 00 ................
00407040 00 00 00 00 00 00 00 00 00 00 00 00 00 00 00 00 ................
00407050 00 00 00 00 00 00 00 00 00 00 00 00 00 00 00 00 ................
00407060 00 00 00 00 00 00 00 00 00 00 00 00 00 00 00 00 ................
00407070 00 00 00 00 00 00 00 00 00 00 00 00 00 00 00 00 ................
00407080 00 00 00 00 00 00 00 00 00 00 00 00 00 00 00 00 ................
00407090 00 00 00 00 00 00 00 00 00 00 00 00 00 00 00 00 ................
004070A0 00 00 00 00 00 00 00 00 00 00 00 00 00 00 00 00 ................
004070B0 00 00 00 00 00 00 00 00 00 00 00 00 00 00 00 00 ................
004070C0 00 00 00 00 00 00 00 00 00 00 00 00 00 00 00 00 ................
004070D0 00 00 00 00 00 00 00 00 00 00 00 00 00 00 00 00 ................
004070E0 00 00 00 00 00 00 00 00 00 00 00 00 00 00 00 00 ................
004070F0 00 00 00 00 00 00 00 00 00 00 00 00 00 00 00 00 ................
00407100 00 00 00 00 00 00 00 00 00 00 00 00 00 00 00 00 ................
00407110 00 00 00 00 00 00 00 00 00 00 00 00 00 00 00 00 ................
00407120 00 00 00 00 00 00 00 00 00 00 00 00 00 00 00 00 ................
00407130 00 00 00 00 00 00 00 00 00 00 00 00 00 00 00 00 ................
00407140 00 00 00 00 00 00 00 00 00 00 00 00 00 00 00 00 ................
00407150 00 00 00 00 00 00 00 00 00 00 00 00 00 00 00 00 ................
00407160 00 00 00 00 00 00 00 00 00 00 00 00 00 00 00 00 ................
00407170 00 00 00 00 00 00 00 00 00 00 00 00 00 00 00 00 ................
00407180 00 00 00 00 00 00 00 00 00 00 00 00 00 00 00 00 ................
00407190 00 00 00 00 00 00 00 00 00 00 00 00 00 00 00 00 ................
004071A0 00 00 00 00 00 00 00 00 00 00 00 00 00 00 00 00 ................
004071B0 00 00 00 00 00 00 00 00 00 00 00 00 00 00 00 00 ................
004071C0 00 00 00 00 00 00 00 00 00 00 00 00 00 00 00 00 ................
004071D0 00 00 00 00 00 00 00 00 00 00 00 00 00 00 00 00 ................
004071E0 00 00 00 00 00 00 00 00 00 00 00 00 00 00 00 00 ................
004071F0 00 00 00 00 00 00 00 00 00 00 00 00 00 00 00 00 ................
00407200 00 00 00 00 00 00 00 00 00 00 00 00 00 00 00 00 ................
00407210 00 00 00 00 00 00 00 00 00 00 00 00 00 00 00 00 ................
00407220 00 00 00 00 00 00 00 00 00 00 00 00 00 00 00 00 ................
00407230 00 00 00 00 00 00 00 00 00 00 00 00 00 00 00 00 ................
00407240 00 00 00 00 00 00 00 00 00 00 00 00 00 00 00 00 ................
00407250 00 00 00 00 00 00 00 00 00 00 00 00 00 00 00 00 ................
00407260 00 00 00 00 00 00 00 00 00 00 00 00 00 00 00 00 ................
00407270 00 00 00 00 00 00 00 00 00 00 00 00 00 00 00 00 ................
00407280 00 00 00 00 00 00 00 00 00 00 00 00 00 00 00 00 ................
00407290 00 00 00 00 00 00 00 00 00 00 00 00 00 00 00 00 ................
004072A0 00 00 00 00 00 00 00 00 00 00 00 00 00 00 00 00 ................
004072B0 00 00 00 00 00 00 00 00 00 00 00 00 00 00 00 00 ................
004072C0 00 00 00 00 00 00 00 00 00 00 00 00 00 00 00 00 ................
004072D0 00 00 00 00 00 00 00 00 00 00 00 00 00 00 00 00 ................
004072E0 00 00 00 00 00 00 00 00 00 00 00 00 00 00 00 00 ................
004072F0 00 00 00 00 00 00 00 00 00 00 00 00 00 00 00 00 ................
00407300 00 00 00 00 00 00 00 00 00 00 00 00 00 00 00 00 ................
00407310 00 00 00 00 00 00 00 00 00 00 00 00 00 00 00 00 ................
00407320 00 00 00 00 00 00 00 00 00 00 00 00 00 00 00 00 ................
00407330 00 00 00 00 00 00 00 00 00 00 00 00 00 00 00 00 ................
00407340 00 00 00 00 00 00 00 00 00 00 00 00 00 00 00 00 ................
00407350 00 00 00 00 00 00 00 00 00 00 00 00 00 00 00 00 ................
00407360 00 00 00 00 00 00 00 00 00 00 00 00 00 00 00 00 ................
00407370 00 00 00 00 00 00 00 00 00 00 00 00 00 00 00 00 ................
00407380 00 00 00 00 00 00 00 00 00 00 00 00 00 00 00 00 ................
00407390 00 00 00 00 00 00 00 00 00 00 00 00 00 00 00 00 ................
004073A0 00 00 00 00 00 00 00 00 00 00 00 00 00 00 00 00 ................
004073B0 00 00 00 00 00 00 00 00 00 00 00 00 00 00 00 00 ................
004073C0 00 00 00 00 00 00 00 00 00 00 00 00 00 00 00 00 ................
004073D0 00 00 00 00 00 00 00 00 00 00 00 00 00 00 00 00 ................
004073E0 00 00 00 00 00 00 00 00 00 00 00 00 00 00 00 00 ................
004073F0 00 00 00 00 00 00 00 00 00 00 00 00 00 00 00 00 ................
00407400 00 00 00 00 00 00 00 00 00 00 00 00 00 00 00 00 ................
00407410 00 00 00 00 00 00 00 00 00 00 00 00 00 00 00 00 ................
00407420 00 00 00 00 00 00 00 00 00 00 00 00 00 00 00 00 ................
00407430 00 00 00 00 00 00 00 00 00 00 00 00 00 00 00 00 ................
00407440 00 00 00 00 00 00 00 00 00 00 00 00 00 00 00 00 ................
00407450 00 00 00 00 00 00 00 00 00 00 00 00 00 00 00 00 ................
00407460 00 00 00 00 00 00 00 00 00 00 00 00 00 00 00 00 ................
00407470 00 00 00 00 00 00 00 00 00 00 00 00 00 00 00 00 ................
00407480 00 00 00 00 00 00 00 00 00 00 00 00 00 00 00 00 ................
00407490 00 00 00 00 00 00 00 00 00 00 00 00 00 00 00 00 ................
004074A0 00 00 00 00 00 00 00 00 00 00 00 00 00 00 00 00 ................
004074B0 00 00 00 00 00 00 00 00 00 00 00 00 00 00 00 00 ................
004074C0 00 00 00 00 00 00 00 00 00 00 00 00 00 00 00 00 ................
004074D0 00 00 00 00 00 00 00 00 00 00 00 00 00 00 00 00 ................
004074E0 00 00 00 00 00 00 00 00 00 00 00 00 00 00 00 00 ................
004074F0 00 00 00 00 00 00 00 00 00 00 00 00 00 00 00 00 ................
00407500 00 00 00 00 00 00 00 00 00 00 00 00 00 00 00 00 ................
00407510 00 00 00 00 00 00 00 00 00 00 00 00 00 00 00 00 ................
00407520 00 00 00 00 00 00 00 00 00 00 00 00 00 00 00 00 ................
00407530 00 00 00 00 00 00 00 00 00 00 00 00 00 00 00 00 ................
00407540 00 00 00 00 00 00 00 00 00 00 00 00 00 00 00 00 ................
00407550 00 00 00 00 00 00 00 00 00 00 00 00 00 00 00 00 ................
00407560 00 00 00 00 00 00 00 00 00 00 00 00 00 00 00 00 ................
00407570 00 00 00 00 00 00 00 00 00 00 00 00 00 00 00 00 ................
00407580 00 00 00 00 00 00 00 00 00 00 00 00 00 00 00 00 ................
00407590 00 00 00 00 00 00 00 00 00 00 00 00 00 00 00 00 ................
004075A0 00 00 00 00 00 00 00 00 00 00 00 00 00 00 00 00 ................
004075B0 00 00 00 00 00 00 00 00 00 00 00 00 00 00 00 00 ................
004075C0 00 00 00 00 00 00 00 00 00 00 00 00 00 00 00 00 ................
004075D0 00 00 00 00 00 00 00 00 00 00 00 00 00 00 00 00 ................
004075E0 00 00 00 00 00 00 00 00 00 00 00 00 00 00 00 00 ................
004075F0 00 00 00 00 00 00 00 00 00 00 00 00 00 00 00 00 ................
00407600 00 00 00 00 00 00 00 00 00 00 00 00 00 00 00 00 ................
00407610 00 00 00 00 00 00 00 00 00 00 00 00 00 00 00 00 ................
00407620 00 00 00 00 00 00 00 00 00 00 00 00 00 00 00 00 ................
00407630 00 00 00 00 00 00 00 00 00 00 00 00 00 00 00 00 ................
00407640 00 00 00 00 00 00 00 00 00 00 00 00 00 00 00 00 ................
00407650 00 00 00 00 00 00 00 00 00 00 00 00 00 00 00 00 ................
00407660 00 00 00 00 00 00 00 00 00 00 00 00 00 00 00 00 ................
00407670 00 00 00 00 00 00 00 00 00 00 00 00 00 00 00 00 ................
00407680 00 00 00 00 00 00 00 00 00 00 00 00 00 00 00 00 ................
00407690 00 00 00 00 00 00 00 00 00 00 00 00 00 00 00 00 ................
004076A0 00 00 00 00 00 00 00 00 00 00 00 00 00 00 00 00 ................
004076B0 00 00 00 00 00 00 00 00 00 00 00 00 00 00 00 00 ................
004076C0 00 00 00 00 00 00 00 00 00 00 00 00 00 00 00 00 ................
004076D0 00 00 00 00 00 00 00 00 00 00 00 00 00 00 00 00 ................
004076E0 00 00 00 00 00 00 00 00 00 00 00 00 00 00 00 00 ................
004076F0 00 00 00 00 00 00 00 00 00 00 00 00 00 00 00 00 ................
00407700 00 00 00 00 00 00 00 00 00 00 00 00 00 00 00 00 ................
00407710 00 00 00 00 00 00 00 00 00 00 00 00 00 00 00 00 ................
00407720 00 00 00 00 00 00 00 00 00 00 00 00 00 00 00 00 ................
00407730 00 00 00 00 00 00 00 00 00 00 00 00 00 00 00 00 ................
00407740 00 00 00 00 00 00 00 00 00 00 00 00 00 00 00 00 ................
00407750 00 00 00 00 00 00 00 00 00 00 00 00 00 00 00 00 ................
00407760 00 00 00 00 00 00 00 00 00 00 00 00 00 00 00 00 ................
00407770 00 00 00 00 00 00 00 00 00 00 00 00 00 00 00 00 ................
00407780 00 00 00 00 00 00 00 00 00 00 00 00 00 00 00 00 ................
00407790 00 00 00 00 00 00 00 00 00 00 00 00 00 00 00 00 ................
004077A0 00 00 00 00 00 00 00 00 00 00 00 00 00 00 00 00 ................
004077B0 00 00 00 00 00 00 00 00 00 00 00 00 00 00 00 00 ................
004077C0 00 00 00 00 00 00 00 00 00 00 00 00 00 00 00 00 ................
004077D0 00 00 00 00 00 00 00 00 00 00 00 00 00 00 00 00 ................
004077E0 00 00 00 00 00 00 00 00 00 00 00 00 00 00 00 00 ................
004077F0 00 00 00 00 00 00 00 00 00 00 00 00 00 00 00 00 ................
00407800 00 00 00 00 00 00 00 00 00 00 00 00 00 00 00 00 ................
00407810 00 00 00 00 00 00 00 00 00 00 00 00 00 00 00 00 ................
00407820 00 00 00 00 00 00 00 00 00 00 00 00 00 00 00 00 ................
00407830 00 00 00 00 00 00 00 00 00 00 00 00 00 00 00 00 ................
00407840 00 00 00 00 00 00 00 00 00 00 00 00 00 00 00 00 ................
00407850 00 00 00 00 00 00 00 00 00 00 00 00 00 00 00 00 ................
00407860 00 00 00 00 00 00 00 00 00 00 00 00 00 00 00 00 ................
00407870 00 00 00 00 00 00 00 00 00 00 00 00 00 00 00 00 ................
00407880 00 00 00 00 00 00 00 00 00 00 00 00 00 00 00 00 ................
00407890 00 00 00 00 00 00 00 00 00 00 00 00 00 00 00 00 ................
004078A0 00 00 00 00 00 00 00 00 00 00 00 00 00 00 00 00 ................
004078B0 00 00 00 00 00 00 00 00 00 00 00 00 00 00 00 00 ................
004078C0 00 00 00 00 00 00 00 00 00 00 00 00 00 00 00 00 ................
004078D0 00 00 00 00 00 00 00 00 00 00 00 00 00 00 00 00 ................
004078E0 00 00 00 00 00 00 00 00 00 00 00 00 00 00 00 00 ................
004078F0 00 00 00 00 00 00 00 00 00 00 00 00 00 00 00 00 ................
00407900 00 00 00 00 00 00 00 00 00 00 00 00 00 00 00 00 ................
00407910 00 00 00 00 00 00 00 00 00 00 00 00 00 00 00 00 ................
00407920 00 00 00 00 00 00 00 00 00 00 00 00 00 00 00 00 ................
00407930 00 00 00 00 00 00 00 00 00 00 00 00 00 00 00 00 ................
00407940 00 00 00 00 00 00 00 00 00 00 00 00 00 00 00 00 ................
00407950 00 00 00 00 00 00 00 00 00 00 00 00 00 00 00 00 ................
00407960 00 00 00 00 00 00 00 00 00 00 00 00 00 00 00 00 ................
00407970 00 00 00 00 00 00 00 00 00 00 00 00 00 00 00 00 ................
00407980 00 00 00 00 00 00 00 00 00 00 00 00 00 00 00 00 ................
00407990 00 00 00 00 00 00 00 00 00 00 00 00 00 00 00 00 ................
004079A0 00 00 00 00 00 00 00 00 00 00 00 00 00 00 00 00 ................
004079B0 00 00 00 00 00 00 00 00 00 00 00 00 00 00 00 00 ................
004079C0 00 00 00 00 00 00 00 00 00 00 00 00 00 00 00 00 ................
004079D0 00 00 00 00 00 00 00 00 00 00 00 00 00 00 00 00 ................
004079E0 00 00 00 00 00 00 00 00 00 00 00 00 00 00 00 00 ................
004079F0 00 00 00 00 00 00 00 00 00 00 00 00 00 00 00 00 ................
00407A00 00 00 00 00 00 00 00 00 00 00 00 00 00 00 00 00 ................
00407A10 00 00 00 00 00 00 00 00 00 00 00 00 00 00 00 00 ................
00407A20 00 00 00 00 00 00 00 00 00 00 00 00 00 00 00 00 ................
00407A30 00 00 00 00 00 00 00 00 00 00 00 00 00 00 00 00 ................
00407A40 00 00 00 00 00 00 00 00 00 00 00 00 00 00 00 00 ................
00407A50 00 00 00 00 00 00 00 00 00 00 00 00 00 00 00 00 ................
00407A60 00 00 00 00 00 00 00 00 00 00 00 00 00 00 00 00 ................
00407A70 00 00 00 00 00 00 00 00 00 00 00 00 00 00 00 00 ................
00407A80 00 00 00 00 00 00 00 00 00 00 00 00 00 00 00 00 ................
00407A90 00 00 00 00 00 00 00 00 00 00 00 00 00 00 00 00 ................
00407AA0 00 00 00 00 00 00 00 00 00 00 00 00 00 00 00 00 ................
00407AB0 00 00 00 00 00 00 00 00 00 00 00 00 00 00 00 00 ................
00407AC0 00 00 00 00 00 00 00 00 00 00 00 00 00 00 00 00 ................
00407AD0 00 00 00 00 00 00 00 00 00 00 00 00 00 00 00 00 ................
00407AE0 00 00 00 00 00 00 00 00 00 00 00 00 00 00 00 00 ................
00407AF0 00 00 00 00 00 00 00 00 00 00 00 00 00 00 00 00 ................
00407B00 00 00 00 00 00 00 00 00 00 00 00 00 00 00 00 00 ................
00407B10 00 00 00 00 00 00 00 00 00 00 00 00 00 00 00 00 ................
00407B20 00 00 00 00 00 00 00 00 00 00 00 00 00 00 00 00 ................
00407B30 00 00 00 00 00 00 00 00 00 00 00 00 00 00 00 00 ................
00407B40 00 00 00 00 00 00 00 00 00 00 00 00 00 00 00 00 ................
00407B50 00 00 00 00 00 00 00 00 00 00 00 00 00 00 00 00 ................
00407B60 00 00 00 00 00 00 00 00 00 00 00 00 00 00 00 00 ................
00407B70 00 00 00 00 00 00 00 00 00 00 00 00 00 00 00 00 ................
00407B80 00 00 00 00 00 00 00 00 00 00 00 00 00 00 00 00 ................
00407B90 00 00 00 00 00 00 00 00 00 00 00 00 00 00 00 00 ................
00407BA0 00 00 00 00 00 00 00 00 00 00 00 00 00 00 00 00 ................
00407BB0 00 00 00 00 00 00 00 00 00 00 00 00 00 00 00 00 ................
00407BC0 00 00 00 00 00 00 00 00 00 00 00 00 00 00 00 00 ................
00407BD0 00 00 00 00 00 00 00 00 00 00 00 00 00 00 00 00 ................
00407BE0 00 00 00 00 00 00 00 00 00 00 00 00 00 00 00 00 ................
00407BF0 00 00 00 00 00 00 00 00 00 00 00 00 00 00 00 00 ................
00407C00 00 00 00 00 00 00 00 00 00 00 00 00 00 00 00 00 ................
00407C10 00 00 00 00 00 00 00 00 00 00 00 00 00 00 00 00 ................
00407C20 00 00 00 00 00 00 00 00 00 00 00 00 00 00 00 00 ................
00407C30 00 00 00 00 00 00 00 00 00 00 00 00 00 00 00 00 ................
00407C40 00 00 00 00 00 00 00 00 00 00 00 00 00 00 00 00 ................
00407C50 00 00 00 00 00 00 00 00 00 00 00 00 00 00 00 00 ................
00407C60 00 00 00 00 00 00 00 00 00 00 00 00 00 00 00 00 ................
00407C70 00 00 00 00 00 00 00 00 00 00 00 00 00 00 00 00 ................
00407C80 00 00 00 00 00 00 00 00 00 00 00 00 00 00 00 00 ................
00407C90 00 00 00 00 00 00 00 00 00 00 00 00 00 00 00 00 ................
00407CA0 00 00 00 00 00 00 00 00 00 00 00 00 00 00 00 00 ................
00407CB0 00 00 00 00 00 00 00 00 00 00 00 00 00 00 00 00 ................
00407CC0 00 00 00 00 00 00 00 00 00 00 00 00 00 00 00 00 ................
00407CD0 00 00 00 00 00 00 00 00 00 00 00 00 00 00 00 00 ................
00407CE0 00 00 00 00 00 00 00 00 00 00 00 00 00 00 00 00 ................
00407CF0 00 00 00 00 00 00 00 00 00 00 00 00 00 00 00 00 ................
00407D00 00 00 00 00 00 00 00 00 00 00 00 00 00 00 00 00 ................
00407D10 00 00 00 00 00 00 00 00 00 00 00 00 00 00 00 00 ................
00407D20 00 00 00 00 00 00 00 00 00 00 00 00 00 00 00 00 ................
00407D30 00 00 00 00 00 00 00 00 00 00 00 00 00 00 00 00 ................
00407D40 00 00 00 00 00 00 00 00 00 00 00 00 00 00 00 00 ................
00407D50 00 00 00 00 00 00 00 00 00 00 00 00 00 00 00 00 ................
00407D60 00 00 00 00 00 00 00 00 00 00 00 00 00 00 00 00 ................
00407D70 00 00 00 00 00 00 00 00 00 00 00 00 00 00 00 00 ................
00407D80 00 00 00 00 00 00 00 00 00 00 00 00 00 00 00 00 ................
00407D90 00 00 00 00 00 00 00 00 00 00 00 00 00 00 00 00 ................
00407DA0 00 00 00 00 00 00 00 00 00 00 00 00 00 00 00 00 ................
00407DB0 00 00 00 00 00 00 00 00 00 00 00 00 00 00 00 00 ................
00407DC0 00 00 00 00 00 00 00 00 00 00 00 00 00 00 00 00 ................
00407DD0 00 00 00 00 00 00 00 00 00 00 00 00 00 00 00 00 ................
00407DE0 00 00 00 00 00 00 00 00 00 00 00 00 00 00 00 00 ................
00407DF0 00 00 00 00 00 00 00 00 00 00 00 00 00 00 00 00 ................
00407E00 00 00 00 00 00 00 00 00 00 00 00 00 00 00 00 00 ................
00407E10 00 00 00 00 00 00 00 00 00 00 00 00 00 00 00 00 ................
00407E20 00 00 00 00 00 00 00 00 00 00 00 00 00 00 00 00 ................
00407E30 00 00 00 00 00 00 00 00 00 00 00 00 00 00 00 00 ................
00407E40 00 00 00 00 00 00 00 00 00 00 00 00 00 00 00 00 ................
00407E50 00 00 00 00 00 00 00 00 00 00 00 00 00 00 00 00 ................
00407E60 00 00 00 00 00 00 00 00 00 00 00 00 00 00 00 00 ................
00407E70 00 00 00 00 00 00 00 00 00 00 00 00 00 00 00 00 ................
00407E80 00 00 00 00 00 00 00 00 00 00 00 00 00 00 00 00 ................
00407E90 00 00 00 00 00 00 00 00 00 00 00 00 00 00 00 00 ................
00407EA0 00 00 00 00 00 00 00 00 00 00 00 00 00 00 00 00 ................
00407EB0 00 00 00 00 00 00 00 00 00 00 00 00 00 00 00 00 ................
00407EC0 00 00 00 00 00 00 00 00 00 00 00 00 00 00 00 00 ................
00407ED0 00 00 00 00 00 00 00 00 00 00 00 00 00 00 00 00 ................
00407EE0 00 00 00 00 00 00 00 00 00 00 00 00 00 00 00 00 ................
00407EF0 00 00 00 00 00 00 00 00 00 00 00 00 00 00 00 00 ................
00407F00 00 00 00 00 00 00 00 00 00 00 00 00 00 00 00 00 ................
00407F10 00 00 00 00 00 00 00 00 00 00 00 00 00 00 00 00 ................
00407F20 00 00 00 00 00 00 00 00 00 00 00 00 00 00 00 00 ................
00407F30 00 00 00 00 00 00 00 00 00 00 00 00 00 00 00 00 ................
00407F40 00 00 00 00 00 00 00 00 00 00 00 00 00 00 00 00 ................
00407F50 00 00 00 00 00 00 00 00 00 00 00 00 00 00 00 00 ................
00407F60 00 00 00 00 00 00 00 00 00 00 00 00 00 00 00 00 ................
00407F70 00 00 00 00 00 00 00 00 00 00 00 00 00 00 00 00 ................
00407F80 00 00 00 00 00 00 00 00 00 00 00 00 00 00 00 00 ................
00407F90 00 00 00 00 00 00 00 00 00 00 00 00 00 00 00 00 ................
00407FA0 00 00 00 00 00 00 00 00 00 00 00 00 00 00 00 00 ................
00407FB0 00 00 00 00 00 00 00 00 00 00 00 00 00 00 00 00 ................
00407FC0 00 00 00 00 00 00 00 00 00 00 00 00 00 00 00 00 ................
00407FD0 00 00 00 00 00 00 00 00 00 00 00 00 00 00 00 00 ................
00407FE0 00 00 00 00 00 00 00 00 00 00 00 00 00 00 00 00 ................
00407FF0 00 00 00 00 00 00 00 00 00 00 00 00 00 00 00 00 ................
00408000 00 00 00 00 00 00 00 00 00 00 00 00 00 00 00 00 ................
00408010 00 00 00 00 00 00 00 00 00 00 00 00 00 00 00 00 ................
00408020 00 00 00 00 00 00 00 00 00 00 00 00 00 00 00 00 ................
00408030 00 00 00 00 00 00 00 00 00 00 00 00 00 00 00 00 ................
00408040 00 00 00 00 00 00 00 00 00 00 00 00 00 00 00 00 ................
00408050 00 00 00 00 00 00 00 00 00 00 00 00 00 00 00 00 ................
00408060 00 00 00 00 00 00 00 00 00 00 00 00 00 00 00 00 ................
00408070 00 00 00 00 00 00 00 00 00 00 00 00 00 00 00 00 ................
00408080 00 00 00 00 00 00 00 00 00 00 00 00 00 00 00 00 ................
00408090 00 00 00 00 00 00 00 00 00 00 00 00 00 00 00 00 ................
004080A0 00 00 00 00 00 00 00 00 00 00 00 00 00 00 00 00 ................
004080B0 00 00 00 00 00 00 00 00 00 00 00 00 00 00 00 00 ................
004080C0 00 00 00 00 00 00 00 00 00 00 00 00 00 00 00 00 ................
004080D0 00 00 00 00 00 00 00 00 00 00 00 00 00 00 00 00 ................
004080E0 00 00 00 00 00 00 00 00 00 00 00 00 00 00 00 00 ................
004080F0 00 00 00 00 00 00 00 00 00 00 00 00 00 00 00 00 ................
00408100 00 00 00 00 00 00 00 00 00 00 00 00 00 00 00 00 ................
00408110 00 00 00 00 00 00 00 00 00 00 00 00 00 00 00 00 ................
00408120 00 00 00 00 00 00 00 00 00 00 00 00 00 00 00 00 ................
00408130 00 00 00 00 00 00 00 00 00 00 00 00 00 00 00 00 ................
00408140 00 00 00 00 00 00 00 00 00 00 00 00 00 00 00 00 ................
00408150 00 00 00 00 00 00 00 00 00 00 00 00 00 00 00 00 ................
00408160 00 00 00 00 00 00 00 00 00 00 00 00 00 00 00 00 ................
00408170 00 00 00 00 00 00 00 00 00 00 00 00 00 00 00 00 ................
00408180 00 00 00 00 00 00 00 00 00 00 00 00 00 00 00 00 ................
00408190 00 00 00 00 00 00 00 00 00 00 00 00 00 00 00 00 ................
004081A0 00 00 00 00 00 00 00 00 00 00 00 00 00 00 00 00 ................
004081B0 00 00 00 00 00 00 00 00 00 00 00 00 00 00 00 00 ................
004081C0 00 00 00 00 00 00 00 00 00 00 00 00 00 00 00 00 ................
004081D0 00 00 00 00 00 00 00 00 00 00 00 00 00 00 00 00 ................
004081E0 00 00 00 00 00 00 00 00 00 00 00 00 00 00 00 00 ................
004081F0 00 00 00 00 00 00 00 00 00 00 00 00 00 00 00 00 ................
00408200 00 00 00 00 00 00 00 00 00 00 00 00 00 00 00 00 ................
00408210 00 00 00 00 00 00 00 00 00 00 00 00 00 00 00 00 ................
00408220 00 00 00 00 00 00 00 00 00 00 00 00 00 00 00 00 ................
00408230 00 00 00 00 00 00 00 00 00 00 00 00 00 00 00 00 ................
00408240 00 00 00 00 00 00 00 00 00 00 00 00 00 00 00 00 ................
00408250 00 00 00 00 00 00 00 00 00 00 00 00 00 00 00 00 ................
00408260 00 00 00 00 00 00 00 00 00 00 00 00 00 00 00 00 ................
00408270 00 00 00 00 00 00 00 00 00 00 00 00 00 00 00 00 ................
00408280 00 00 00 00 00 00 00 00 00 00 00 00 00 00 00 00 ................
00408290 00 00 00 00 00 00 00 00 00 00 00 00 00 00 00 00 ................
004082A0 00 00 00 00 00 00 00 00 00 00 00 00 00 00 00 00 ................
004082B0 00 00 00 00 00 00 00 00 00 00 00 00 00 00 00 00 ................
004082C0 00 00 00 00 00 00 00 00 00 00 00 00 00 00 00 00 ................
004082D0 00 00 00 00 00 00 00 00 00 00 00 00 00 00 00 00 ................
004082E0 00 00 00 00 00 00 00 00 00 00 00 00 00 00 00 00 ................
004082F0 00 00 00 00 00 00 00 00 00 00 00 00 00 00 00 00 ................
00408300 00 00 00 00 00 00 00 00 00 00 00 00 00 00 00 00 ................
00408310 00 00 00 00 00 00 00 00 00 00 00 00 00 00 00 00 ................
00408320 00 00 00 00 00 00 00 00 00 00 00 00 00 00 00 00 ................
00408330 00 00 00 00 00 00 00 00 00 00 00 00 00 00 00 00 ................
00408340 00 00 00 00 00 00 00 00 00 00 00 00 00 00 00 00 ................
00408350 00 00 00 00 00 00 00 00 00 00 00 00 00 00 00 00 ................
00408360 00 00 00 00 00 00 00 00 00 00 00 00 00 00 00 00 ................
00408370 00 00 00 00 00 00 00 00 00 00 00 00 00 00 00 00 ................
00408380 00 00 00 00 00 00 00 00 00 00 00 00 00 00 00 00 ................
00408390 00 00 00 00 00 00 00 00 00 00 00 00 00 00 00 00 ................
004083A0 00 00 00 00 00 00 00 00 00 00 00 00 00 00 00 00 ................
004083B0 00 00 00 00 00 00 00 00 00 00 00 00 00 00 00 00 ................
004083C0 00 00 00 00 00 00 00 00 00 00 00 00 00 00 00 00 ................
004083D0 00 00 00 00 00 00 00 00 00 00 00 00 00 00 00 00 ................
004083E0 00 00 00 00 00 00 00 00 00 00 00 00 00 00 00 00 ................
004083F0 00 00 00 00 00 00 00 00 00 00 00 00 00 00 00 00 ................
00408400 00 00 00 00 00 00 00 00 00 00 00 00 00 00 00 00 ................
00408410 00 00 00 00 00 00 00 00 00 00 00 00 00 00 00 00 ................
00408420 00 00 00 00 00 00 00 00 00 00 00 00 00 00 00 00 ................
00408430 00 00 00 00 00 00 00 00 00 00 00 00 00 00 00 00 ................
00408440 00 00 00 00 00 00 00 00 00 00 00 00 00 00 00 00 ................
00408450 00 00 00 00 00 00 00 00 00 00 00 00 00 00 00 00 ................
00408460 00 00 00 00 00 00 00 00 00 00 00 00 00 00 00 00 ................
00408470 00 00 00 00 00 00 00 00 00 00 00 00 00 00 00 00 ................
00408480 00 00 00 00 00 00 00 00 00 00 00 00 00 00 00 00 ................
00408490 00 00 00 00 00 00 00 00 00 00 00 00 00 00 00 00 ................
004084A0 00 00 00 00 00 00 00 00 00 00 00 00 00 00 00 00 ................
004084B0 00 00 00 00 00 00 00 00 00 00 00 00 00 00 00 00 ................
004084C0 00 00 00 00 00 00 00 00 00 00 00 00 00 00 00 00 ................
004084D0 00 00 00 00 00 00 00 00 00 00 00 00 00 00 00 00 ................
004084E0 00 00 00 00 00 00 00 00 00 00 00 00 00 00 00 00 ................
004084F0 00 00 00 00 00 00 00 00 00 00 00 00 00 00 00 00 ................
00408500 00 00 00 00 00 00 00 00 00 00 00 00 00 00 00 00 ................
00408510 00 00 00 00 00 00 00 00 00 00 00 00 00 00 00 00 ................
00408520 00 00 00 00 00 00 00 00 00 00 00 00 00 00 00 00 ................
00408530 00 00 00 00 00 00 00 00 00 00 00 00 00 00 00 00 ................
00408540 00 00 00 00 00 00 00 00 00 00 00 00 00 00 00 00 ................
00408550 00 00 00 00 00 00 00 00 00 00 00 00 00 00 00 00 ................
00408560 00 00 00 00 00 00 00 00 00 00 00 00 00 00 00 00 ................
00408570 00 00 00 00 00 00 00 00 00 00 00 00 00 00 00 00 ................
00408580 00 00 00 00 00 00 00 00 00 00 00 00 00 00 00 00 ................
00408590 00 00 00 00 00 00 00 00 00 00 00 00 00 00 00 00 ................
004085A0 00 00 00 00 00 00 00 00 00 00 00 00 00 00 00 00 ................
004085B0 00 00 00 00 00 00 00 00 00 00 00 00 00 00 00 00 ................
004085C0 00 00 00 00 00 00 00 00 00 00 00 00 00 00 00 00 ................
004085D0 00 00 00 00 00 00 00 00 00 00 00 00 00 00 00 00 ................
004085E0 00 00 00 00 00 00 00 00 00 00 00 00 00 00 00 00 ................
004085F0 00 00 00 00 00 00 00 00 00 00 00 00 00 00 00 00 ................
00408600 00 00 00 00 00 00 00 00 00 00 00 00 00 00 00 00 ................
00408610 00 00 00 00 00 00 00 00 00 00 00 00 00 00 00 00 ................
00408620 00 00 00 00 00 00 00 00 00 00 00 00 00 00 00 00 ................
00408630 00 00 00 00 00 00 00 00 00 00 00 00 00 00 00 00 ................
00408640 00 00 00 00 00 00 00 00 00 00 00 00 00 00 00 00 ................
00408650 00 00 00 00 00 00 00 00 00 00 00 00 00 00 00 00 ................
00408660 00 00 00 00 00 00 00 00 00 00 00 00 00 00 00 00 ................
00408670 00 00 00 00 00 00 00 00 00 00 00 00 00 00 00 00 ................
00408680 00 00 00 00 00 00 00 00 00 00 00 00 00 00 00 00 ................
00408690 00 00 00 00 00 00 00 00 00 00 00 00 00 00 00 00 ................
004086A0 00 00 00 00 00 00 00 00 00 00 00 00 00 00 00 00 ................
004086B0 00 00 00 00 00 00 00 00 00 00 00 00 00 00 00 00 ................
004086C0 00 00 00 00 00 00 00 00 00 00 00 00 00 00 00 00 ................
004086D0 00 00 00 00 00 00 00 00 00 00 00 00 00 00 00 00 ................
004086E0 00 00 00 00 00 00 00 00 00 00 00 00 00 00 00 00 ................
004086F0 00 00 00 00 00 00 00 00 00 00 00 00 00 00 00 00 ................
00408700 00 00 00 00 00 00 00 00 00 00 00 00 00 00 00 00 ................
00408710 00 00 00 00 00 00 00 00 00 00 00 00 00 00 00 00 ................
00408720 00 00 00 00 00 00 00 00 00 00 00 00 00 00 00 00 ................
00408730 00 00 00 00 00 00 00 00 00 00 00 00 00 00 00 00 ................
00408740 00 00 00 00 00 00 00 00 00 00 00 00 00 00 00 00 ................
00408750 00 00 00 00 00 00 00 00 00 00 00 00 00 00 00 00 ................
00408760 00 00 00 00 00 00 00 00 00 00 00 00 00 00 00 00 ................
00408770 00 00 00 00 00 00 00 00 00 00 00 00 00 00 00 00 ................
00408780 00 00 00 00 00 00 00 00 00 00 00 00 00 00 00 00 ................
00408790 00 00 00 00 00 00 00 00 00 00 00 00 00 00 00 00 ................
004087A0 00 00 00 00 00 00 00 00 00 00 00 00 00 00 00 00 ................
004087B0 00 00 00 00 00 00 00 00 00 00 00 00 00 00 00 00 ................
004087C0 00 00 00 00 00 00 00 00 00 00 00 00 00 00 00 00 ................
004087D0 00 00 00 00 00 00 00 00 00 00 00 00 00 00 00 00 ................
004087E0 00 00 00 00 00 00 00 00 00 00 00 00 00 00 00 00 ................
004087F0 00 00 00 00 00 00 00 00 00 00 00 00 00 00 00 00 ................
00408800 00 00 00 00 00 00 00 00 00 00 00 00 00 00 00 00 ................
00408810 00 00 00 00 00 00 00 00 00 00 00 00 00 00 00 00 ................
00408820 00 00 00 00 00 00 00 00 00 00 00 00 00 00 00 00 ................
00408830 00 00 00 00 00 00 00 00 00 00 00 00 00 00 00 00 ................
00408840 00 00 00 00 00 00 00 00 00 00 00 00 00 00 00 00 ................
00408850 00 00 00 00 00 00 00 00 00 00 00 00 00 00 00 00 ................
00408860 00 00 00 00 00 00 00 00 00 00 00 00 00 00 00 00 ................
00408870 00 00 00 00 00 00 00 00 00 00 00 00 00 00 00 00 ................
00408880 00 00 00 00 00 00 00 00 00 00 00 00 00 00 00 00 ................
00408890 00 00 00 00 00 00 00 00 00 00 00 00 00 00 00 00 ................
004088A0 00 00 00 00 00 00 00 00 00 00 00 00 00 00 00 00 ................
004088B0 00 00 00 00 00 00 00 00 00 00 00 00 00 00 00 00 ................
004088C0 00 00 00 00 00 00 00 00 00 00 00 00 00 00 00 00 ................
004088D0 00 00 00 00 00 00 00 00 00 00 00 00 00 00 00 00 ................
004088E0 00 00 00 00 00 00 00 00 00 00 00 00 00 00 00 00 ................
004088F0 00 00 00 00 00 00 00 00 00 00 00 00 00 00 00 00 ................
00408900 00 00 00 00 00 00 00 00 00 00 00 00 00 00 00 00 ................
00408910 00 00 00 00 00 00 00 00 00 00 00 00 00 00 00 00 ................
00408920 00 00 00 00 00 00 00 00 00 00 00 00 00 00 00 00 ................
00408930 00 00 00 00 00 00 00 00 00 00 00 00 00 00 00 00 ................
00408940 00 00 00 00 00 00 00 00 00 00 00 00 00 00 00 00 ................
00408950 00 00 00 00 00 00 00 00 00 00 00 00 00 00 00 00 ................
00408960 00 00 00 00 00 00 00 00 00 00 00 00 00 00 00 00 ................
00408970 00 00 00 00 00 00 00 00 00 00 00 00 00 00 00 00 ................
00408980 00 00 00 00 00 00 00 00 00 00 00 00 00 00 00 00 ................
00408990 00 00 00 00 00 00 00 00 00 00 00 00 00 00 00 00 ................
004089A0 00 00 00 00 00 00 00 00 00 00 00 00 00 00 00 00 ................
004089B0 00 00 00 00 00 00 00 00 00 00 00 00 00 00 00 00 ................
004089C0 00 00 00 00 00 00 00 00 00 00 00 00 00 00 00 00 ................
004089D0 00 00 00 00 00 00 00 00 00 00 00 00 00 00 00 00 ................
004089E0 00 00 00 00 00 00 00 00 00 00 00 00 00 00 00 00 ................
004089F0 00 00 00 00 00 00 00 00 00 00 00 00 00 00 00 00 ................
00408A00 00 00 00 00 00 00 00 00 00 00 00 00 00 00 00 00 ................
00408A10 00 00 00 00 00 00 00 00 00 00 00 00 00 00 00 00 ................
00408A20 00 00 00 00 00 00 00 00 00 00 00 00 00 00 00 00 ................
00408A30 00 00 00 00 00 00 00 00 00 00 00 00 00 00 00 00 ................
00408A40 00 00 00 00 00 00 00 00 00 00 00 00 00 00 00 00 ................
00408A50 00 00 00 00 00 00 00 00 00 00 00 00 00 00 00 00 ................
00408A60 00 00 00 00 00 00 00 00 00 00 00 00 00 00 00 00 ................
00408A70 00 00 00 00 00 00 00 00 00 00 00 00 00 00 00 00 ................
00408A80 00 00 00 00 00 00 00 00 00 00 00 00 00 00 00 00 ................
00408A90 00 00 00 00 00 00 00 00 00 00 00 00 00 00 00 00 ................
00408AA0 00 00 00 00 00 00 00 00 00 00 00 00 00 00 00 00 ................
00408AB0 00 00 00 00 00 00 00 00 00 00 00 00 00 00 00 00 ................
00408AC0 00 00 00 00 00 00 00 00 00 00 00 00 00 00 00 00 ................
00408AD0 00 00 00 00 00 00 00 00 00 00 00 00 00 00 00 00 ................
00408AE0 00 00 00 00 00 00 00 00 00 00 00 00 00 00 00 00 ................
00408AF0 00 00 00 00 00 00 00 00 00 00 00 00 00 00 00 00 ................
00408B00 00 00 00 00 00 00 00 00 00 00 00 00 00 00 00 00 ................
00408B10 00 00 00 00 00 00 00 00 00 00 00 00 00 00 00 00 ................
00408B20 00 00 00 00 00 00 00 00 00 00 00 00 00 00 00 00 ................
00408B30 00 00 00 00 00 00 00 00 00 00 00 00 00 00 00 00 ................
00408B40 00 00 00 00 00 00 00 00 00 00 00 00 00 00 00 00 ................
00408B50 00 00 00 00 00 00 00 00 00 00 00 00 00 00 00 00 ................
00408B60 00 00 00 00 00 00 00 00 00 00 00 00 00 00 00 00 ................
00408B70 00 00 00 00 00 00 00 00 00 00 00 00 00 00 00 00 ................
00408B80 00 00 00 00 00 00 00 00 00 00 00 00 00 00 00 00 ................
00408B90 00 00 00 00 00 00 00 00 00 00 00 00 00 00 00 00 ................
00408BA0 00 00 00 00 00 00 00 00 00 00 00 00 00 00 00 00 ................
00408BB0 00 00 00 00 00 00 00 00 00 00 00 00 00 00 00 00 ................
00408BC0 00 00 00 00 00 00 00 00 00 00 00 00 00 00 00 00 ................
00408BD0 00 00 00 00 00 00 00 00 00 00 00 00 00 00 00 00 ................
00408BE0 00 00 00 00 00 00 00 00 00 00 00 00 00 00 00 00 ................
00408BF0 00 00 00 00 00 00 00 00 00 00 00 00 00 00 00 00 ................
00408C00 00 00 00 00 00 00 00 00 00 00 00 00 00 00 00 00 ................
00408C10 00 00 00 00 00 00 00 00 00 00 00 00 00 00 00 00 ................
00408C20 00 00 00 00 00 00 00 00 00 00 00 00 00 00 00 00 ................
00408C30 00 00 00 00 00 00 00 00 00 00 00 00 00 00 00 00 ................
00408C40 00 00 00 00 00 00 00 00 00 00 00 00 00 00 00 00 ................
00408C50 00 00 00 00 00 00 00 00 00 00 00 00 00 00 00 00 ................
00408C60 00 00 00 00 00 00 00 00 00 00 00 00 00 00 00 00 ................
00408C70 00 00 00 00 00 00 00 00 00 00 00 00 00 00 00 00 ................
00408C80 00 00 00 00 00 00 00 00 00 00 00 00 00 00 00 00 ................
00408C90 00 00 00 00 00 00 00 00 00 00 00 00 00 00 00 00 ................
00408CA0 00 00 00 00 00 00 00 00 00 00 00 00 00 00 00 00 ................
00408CB0 00 00 00 00 00 00 00 00 00 00 00 00 00 00 00 00 ................
00408CC0 00 00 00 00 00 00 00 00 00 00 00 00 00 00 00 00 ................
00408CD0 00 00 00 00 00 00 00 00 00 00 00 00 00 00 00 00 ................
00408CE0 00 00 00 00 00 00 00 00 00 00 00 00 00 00 00 00 ................
00408CF0 00 00 00 00 00 00 00 00 00 00 00 00 00 00 00 00 ................
00408D00 00 00 00 00 00 00 00 00 00 00 00 00 00 00 00 00 ................
00408D10 00 00 00 00 00 00 00 00 00 00 00 00 00 00 00 00 ................
00408D20 00 00 00 00 00 00 00 00 00 00 00 00 00 00 00 00 ................
00408D30 00 00 00 00 00 00 00 00 00 00 00 00 00 00 00 00 ................
00408D40 00 00 00 00 00 00 00 00 00 00 00 00 00 00 00 00 ................
00408D50 00 00 00 00 00 00 00 00 00 00 00 00 00 00 00 00 ................
00408D60 00 00 00 00 00 00 00 00 00 00 00 00 00 00 00 00 ................
00408D70 00 00 00 00 00 00 00 00 00 00 00 00 00 00 00 00 ................
00408D80 00 00 00 00 00 00 00 00 00 00 00 00 00 00 00 00 ................
00408D90 00 00 00 00 00 00 00 00 00 00 00 00 00 00 00 00 ................
00408DA0 00 00 00 00 00 00 00 00 00 00 00 00 00 00 00 00 ................
00408DB0 00 00 00 00 00 00 00 00 00 00 00 00 00 00 00 00 ................
00408DC0 00 00 00 00 00 00 00 00 00 00 00 00 00 00 00 00 ................
00408DD0 00 00 00 00 00 00 00 00 00 00 00 00 00 00 00 00 ................
00408DE0 00 00 00 00 00 00 00 00 00 00 00 00 00 00 00 00 ................
00408DF0 00 00 00 00 00 00 00 00 00 00 00 00 00 00 00 00 ................
00408E00 00 00 00 00 00 00 00 00 00 00 00 00 00 00 00 00 ................
00408E10 00 00 00 00 00 00 00 00 00 00 00 00 00 00 00 00 ................
00408E20 00 00 00 00 00 00 00 00 00 00 00 00 00 00 00 00 ................
00408E30 00 00 00 00 00 00 00 00 00 00 00 00 00 00 00 00 ................
00408E40 00 00 00 00 00 00 00 00 00 00 00 00 00 00 00 00 ................
00408E50 00 00 00 00 00 00 00 00 00 00 00 00 00 00 00 00 ................
00408E60 00 00 00 00 00 00 00 00 00 00 00 00 00 00 00 00 ................
00408E70 00 00 00 00 00 00 00 00 00 00 00 00 00 00 00 00 ................
00408E80 00 00 00 00 00 00 00 00 00 00 00 00 00 00 00 00 ................
00408E90 00 00 00 00 00 00 00 00 00 00 00 00 00 00 00 00 ................
00408EA0 00 00 00 00 00 00 00 00 00 00 00 00 00 00 00 00 ................
00408EB0 00 00 00 00 00 00 00 00 00 00 00 00 00 00 00 00 ................
00408EC0 00 00 00 00 00 00 00 00 00 00 00 00 00 00 00 00 ................
00408ED0 00 00 00 00 00 00 00 00 00 00 00 00 00 00 00 00 ................
00408EE0 00 00 00 00 00 00 00 00 00 00 00 00 00 00 00 00 ................
00408EF0 00 00 00 00 00 00 00 00 00 00 00 00 00 00 00 00 ................
00408F00 00 00 00 00 00 00 00 00 00 00 00 00 00 00 00 00 ................
00408F10 00 00 00 00 00 00 00 00 00 00 00 00 00 00 00 00 ................
00408F20 00 00 00 00 00 00 00 00 00 00 00 00 00 00 00 00 ................
00408F30 00 00 00 00 00 00 00 00 00 00 00 00 00 00 00 00 ................
00408F40 00 00 00 00 00 00 00 00 00 00 00 00 00 00 00 00 ................
00408F50 00 00 00 00 00 00 00 00 00 00 00 00 00 00 00 00 ................
00408F60 00 00 00 00 00 00 00 00 00 00 00 00 00 00 00 00 ................
00408F70 00 00 00 00 00 00 00 00 00 00 00 00 00 00 00 00 ................
00408F80 00 00 00 00 00 00 00 00 00 00 00 00 00 00 00 00 ................
00408F90 00 00 00 00 00 00 00 00 00 00 00 00 00 00 00 00 ................
00408FA0 00 00 00 00 00 00 00 00 00 00 00 00 00 00 00 00 ................
00408FB0 00 00 00 00 00 00 00 00 00 00 00 00 00 00 00 00 ................
00408FC0 00 00 00 00 00 00 00 00 00 00 00 00 00 00 00 00 ................
00408FD0 00 00 00 00 00 00 00 00 00 00 00 00 00 00 00 00 ................
00408FE0 00 00 00 00 00 00 00 00 00 00 00 00 00 00 00 00 ................
00408FF0 00 00 00 00 00 00 00 00 00 00 00 00 00 00 00 00 ................
00409000 00 00 00 00 00 00 00 00 00 00 00 00 00 00 00 00 ................
00409010 00 00 00 00 00 00 00 00 00 00 00 00 00 00 00 00 ................
00409020 00 00 00 00 00 00 00 00 00 00 00 00 00 00 00 00 ................
00409030 00 00 00 00 00 00 00 00 00 00 00 00 00 00 00 00 ................
00409040 00 00 00 00 00 00 00 00 00 00 00 00 00 00 00 00 ................
00409050 00 00 00 00 00 00 00 00 00 00 00 00 00 00 00 00 ................
00409060 00 00 00 00 00 00 00 00 00 00 00 00 00 00 00 00 ................
00409070 00 00 00 00 00 00 00 00 00 00 00 00 00 00 00 00 ................
00409080 00 00 00 00 00 00 00 00 00 00 00 00 00 00 00 00 ................
00409090 00 00 00 00 00 00 00 00 00 00 00 00 00 00 00 00 ................
004090A0 00 00 00 00 00 00 00 00 00 00 00 00 00 00 00 00 ................
004090B0 00 00 00 00 00 00 00 00 00 00 00 00 00 00 00 00 ................
004090C0 00 00 00 00 00 00 00 00 00 00 00 00 00 00 00 00 ................
004090D0 00 00 00 00 00 00 00 00 00 00 00 00 00 00 00 00 ................
004090E0 00 00 00 00 00 00 00 00 00 00 00 00 00 00 00 00 ................
004090F0 00 00 00 00 00 00 00 00 00 00 00 00 00 00 00 00 ................
00409100 00 00 00 00 00 00 00 00 00 00 00 00 00 00 00 00 ................
00409110 00 00 00 00 00 00 00 00 00 00 00 00 00 00 00 00 ................
00409120 00 00 00 00 00 00 00 00 00 00 00 00 00 00 00 00 ................
00409130 00 00 00 00 00 00 00 00 00 00 00 00 00 00 00 00 ................
00409140 00 00 00 00 00 00 00 00 00 00 00 00 00 00 00 00 ................
00409150 00 00 00 00 00 00 00 00 00 00 00 00 00 00 00 00 ................
00409160 00 00 00 00 00 00 00 00 00 00 00 00 00 00 00 00 ................
00409170 00 00 00 00 00 00 00 00 00 00 00 00 00 00 00 00 ................
00409180 00 00 00 00 00 00 00 00 00 00 00 00 00 00 00 00 ................
00409190 00 00 00 00 00 00 00 00 00 00 00 00 00 00 00 00 ................
004091A0 00 00 00 00 00 00 00 00 00 00 00 00 00 00 00 00 ................
004091B0 00 00 00 00 00 00 00 00 00 00 00 00 00 00 00 00 ................
004091C0 00 00 00 00 00 00 00 00 00 00 00 00 00 00 00 00 ................
004091D0 00 00 00 00 00 00 00 00 00 00 00 00 00 00 00 00 ................
004091E0 00 00 00 00 00 00 00 00 00 00 00 00 00 00 00 00 ................
004091F0 00 00 00 00 00 00 00 00 00 00 00 00 00 00 00 00 ................
00409200 00 00 00 00 00 00 00 00 00 00 00 00 00 00 00 00 ................
00409210 00 00 00 00 00 00 00 00 00 00 00 00 00 00 00 00 ................
00409220 00 00 00 00 00 00 00 00 00 00 00 00 00 00 00 00 ................
00409230 00 00 00 00 00 00 00 00 00 00 00 00 00 00 00 00 ................
00409240 00 00 00 00 00 00 00 00 00 00 00 00 00 00 00 00 ................
00409250 00 00 00 00 00 00 00 00 00 00 00 00 00 00 00 00 ................
00409260 00 00 00 00 00 00 00 00 00 00 00 00 00 00 00 00 ................
00409270 00 00 00 00 00 00 00 00 00 00 00 00 00 00 00 00 ................
00409280 00 00 00 00 00 00 00 00 00 00 00 00 00 00 00 00 ................
00409290 00 00 00 00 00 00 00 00 00 00 00 00 00 00 00 00 ................
004092A0 00 00 00 00 00 00 00 00 00 00 00 00 00 00 00 00 ................
004092B0 00 00 00 00 00 00 00 00 00 00 00 00 00 00 00 00 ................
004092C0 00 00 00 00 00 00 00 00 00 00 00 00 00 00 00 00 ................
004092D0 00 00 00 00 00 00 00 00 00 00 00 00 00 00 00 00 ................
004092E0 00 00 00 00 00 00 00 00 00 00 00 00 00 00 00 00 ................
004092F0 00 00 00 00 00 00 00 00 00 00 00 00 00 00 00 00 ................
00409300 00 00 00 00 00 00 00 00 00 00 00 00 00 00 00 00 ................
00409310 00 00 00 00 00 00 00 00 00 00 00 00 00 00 00 00 ................
00409320 00 00 00 00 00 00 00 00 00 00 00 00 00 00 00 00 ................
00409330 00 00 00 00 00 00 00 00 00 00 00 00 00 00 00 00 ................
00409340 00 00 00 00 00 00 00 00 00 00 00 00 00 00 00 00 ................
00409350 00 00 00 00 00 00 00 00 00 00 00 00 00 00 00 00 ................
00409360 00 00 00 00 00 00 00 00 00 00 00 00 00 00 00 00 ................
00409370 00 00 00 00 00 00 00 00 00 00 00 00 00 00 00 00 ................
00409380 00 00 00 00 00 00 00 00 00 00 00 00 00 00 00 00 ................
00409390 00 00 00 00 00 00 00 00 00 00 00 00 00 00 00 00 ................
004093A0 00 00 00 00 00 00 00 00 00 00 00 00 00 00 00 00 ................
004093B0 00 00 00 00 00 00 00 00 00 00 00 00 00 00 00 00 ................
004093C0 00 00 00 00 00 00 00 00 00 00 00 00 00 00 00 00 ................
004093D0 00 00 00 00 00 00 00 00 00 00 00 00 00 00 00 00 ................
004093E0 00 00 00 00 00 00 00 00 00 00 00 00 00 00 00 00 ................
004093F0 00 00 00 00 00 00 00 00 00 00 00 00 00 00 00 00 ................
00409400 00 00 00 00 00 00 00 00 00 00 00 00 00 00 00 00 ................
00409410 00 00 00 00 00 00 00 00 00 00 00 00 00 00 00 00 ................
00409420 00 00 00 00 00 00 00 00 00 00 00 00 00 00 00 00 ................
00409430 00 00 00 00 00 00 00 00 00 00 00 00 00 00 00 00 ................
00409440 00 00 00 00 00 00 00 00 00 00 00 00 00 00 00 00 ................
00409450 00 00 00 00 00 00 00 00 00 00 00 00 00 00 00 00 ................
00409460 00 00 00 00 00 00 00 00 00 00 00 00 00 00 00 00 ................
00409470 00 00 00 00 00 00 00 00 00 00 00 00 00 00 00 00 ................
00409480 00 00 00 00 00 00 00 00 00 00 00 00 00 00 00 00 ................
00409490 00 00 00 00 00 00 00 00 00 00 00 00 00 00 00 00 ................
004094A0 00 00 00 00 00 00 00 00 00 00 00 00 00 00 00 00 ................
004094B0 00 00 00 00 00 00 00 00 00 00 00 00 00 00 00 00 ................
004094C0 00 00 00 00 00 00 00 00 00 00 00 00 00 00 00 00 ................
004094D0 00 00 00 00 00 00 00 00 00 00 00 00 00 00 00 00 ................
004094E0 00 00 00 00 00 00 00 00 00 00 00 00 00 00 00 00 ................
004094F0 00 00 00 00 00 00 00 00 00 00 00 00 00 00 00 00 ................
00409500 00 00 00 00 00 00 00 00 00 00 00 00 00 00 00 00 ................
00409510 00 00 00 00 00 00 00 00 00 00 00 00 00 00 00 00 ................
00409520 00 00 00 00 00 00 00 00 00 00 00 00 00 00 00 00 ................
00409530 00 00 00 00 00 00 00 00 00 00 00 00 00 00 00 00 ................
00409540 00 00 00 00 00 00 00 00 00 00 00 00 00 00 00 00 ................
00409550 00 00 00 00 00 00 00 00 00 00 00 00 00 00 00 00 ................
00409560 00 00 00 00 00 00 00 00 00 00 00 00 00 00 00 00 ................
00409570 00 00 00 00 00 00 00 00 00 00 00 00 00 00 00 00 ................
00409580 00 00 00 00 00 00 00 00 00 00 00 00 00 00 00 00 ................
00409590 00 00 00 00 00 00 00 00 00 00 00 00 00 00 00 00 ................
004095A0 00 00 00 00 00 00 00 00 00 00 00 00 00 00 00 00 ................
004095B0 00 00 00 00 00 00 00 00 00 00 00 00 00 00 00 00 ................
004095C0 00 00 00 00 00 00 00 00 00 00 00 00 00 00 00 00 ................
004095D0 00 00 00 00 00 00 00 00 00 00 00 00 00 00 00 00 ................
004095E0 00 00 00 00 00 00 00 00 00 00 00 00 00 00 00 00 ................
004095F0 00 00 00 00 00 00 00 00 00 00 00 00 00 00 00 00 ................
00409600 00 00 00 00 00 00 00 00 00 00 00 00 00 00 00 00 ................
00409610 00 00 00 00 00 00 00 00 00 00 00 00 00 00 00 00 ................
00409620 00 00 00 00 00 00 00 00 00 00 00 00 00 00 00 00 ................
00409630 00 00 00 00 00 00 00 00 00 00 00 00 00 00 00 00 ................
00409640 00 00 00 00 00 00 00 00 00 00 00 00 00 00 00 00 ................
00409650 00 00 00 00 00 00 00 00 00 00 00 00 00 00 00 00 ................
00409660 00 00 00 00 00 00 00 00 00 00 00 00 00 00 00 00 ................
00409670 00 00 00 00 00 00 00 00 00 00 00 00 00 00 00 00 ................
00409680 00 00 00 00 00 00 00 00 00 00 00 00 00 00 00 00 ................
00409690 00 00 00 00 00 00 00 00 00 00 00 00 00 00 00 00 ................
004096A0 00 00 00 00 00 00 00 00 00 00 00 00 00 00 00 00 ................
004096B0 00 00 00 00 00 00 00 00 00 00 00 00 00 00 00 00 ................
004096C0 00 00 00 00 00 00 00 00 00 00 00 00 00 00 00 00 ................
004096D0 00 00 00 00 00 00 00 00 00 00 00 00 00 00 00 00 ................
004096E0 00 00 00 00 00 00 00 00 00 00 00 00 00 00 00 00 ................
004096F0 00 00 00 00 00 00 00 00 00 00 00 00 00 00 00 00 ................
00409700 00 00 00 00 00 00 00 00 00 00 00 00 00 00 00 00 ................
00409710 00 00 00 00 00 00 00 00 00 00 00 00 00 00 00 00 ................
00409720 00 00 00 00 00 00 00 00 00 00 00 00 00 00 00 00 ................
00409730 00 00 00 00 00 00 00 00 00 00 00 00 00 00 00 00 ................
00409740 00 00 00 00 00 00 00 00 00 00 00 00 00 00 00 00 ................
00409750 00 00 00 00 00 00 00 00 00 00 00 00 00 00 00 00 ................
00409760 00 00 00 00 00 00 00 00 00 00 00 00 00 00 00 00 ................
00409770 00 00 00 00 00 00 00 00 00 00 00 00 00 00 00 00 ................
00409780 00 00 00 00 00 00 00 00 00 00 00 00 00 00 00 00 ................
00409790 00 00 00 00 00 00 00 00 00 00 00 00 00 00 00 00 ................
004097A0 00 00 00 00 00 00 00 00 00 00 00 00 00 00 00 00 ................
004097B0 00 00 00 00 00 00 00 00 00 00 00 00 00 00 00 00 ................
004097C0 00 00 00 00 00 00 00 00 00 00 00 00 00 00 00 00 ................
004097D0 00 00 00 00 00 00 00 00 00 00 00 00 00 00 00 00 ................
004097E0 00 00 00 00 00 00 00 00 00 00 00 00 00 00 00 00 ................
004097F0 00 00 00 00 00 00 00 00 00 00 00 00 00 00 00 00 ................
00409800 00 00 00 00 00 00 00 00 00 00 00 00 00 00 00 00 ................
00409810 00 00 00 00 00 00 00 00 00 00 00 00 00 00 00 00 ................
00409820 00 00 00 00 00 00 00 00 00 00 00 00 00 00 00 00 ................
00409830 00 00 00 00 00 00 00 00 00 00 00 00 00 00 00 00 ................
00409840 00 00 00 00 00 00 00 00 00 00 00 00 00 00 00 00 ................
00409850 00 00 00 00 00 00 00 00 00 00 00 00 00 00 00 00 ................
00409860 00 00 00 00 00 00 00 00 00 00 00 00 00 00 00 00 ................
00409870 00 00 00 00 00 00 00 00 00 00 00 00 00 00 00 00 ................
00409880 00 00 00 00 00 00 00 00 00 00 00 00 00 00 00 00 ................
00409890 00 00 00 00 00 00 00 00 00 00 00 00 00 00 00 00 ................
004098A0 00 00 00 00 00 00 00 00 00 00 00 00 00 00 00 00 ................
004098B0 00 00 00 00 00 00 00 00 00 00 00 00 00 00 00 00 ................
004098C0 00 00 00 00 00 00 00 00 00 00 00 00 00 00 00 00 ................
004098D0 00 00 00 00 00 00 00 00 00 00 00 00 00 00 00 00 ................
004098E0 00 00 00 00 00 00 00 00 00 00 00 00 00 00 00 00 ................
004098F0 00 00 00 00 00 00 00 00 00 00 00 00 00 00 00 00 ................
00409900 00 00 00 00 00 00 00 00 00 00 00 00 00 00 00 00 ................
00409910 00 00 00 00 00 00 00 00 00 00 00 00 00 00 00 00 ................
00409920 00 00 00 00 00 00 00 00 00 00 00 00 00 00 00 00 ................
00409930 00 00 00 00 00 00 00 00 00 00 00 00 00 00 00 00 ................
00409940 00 00 00 00 00 00 00 00 00 00 00 00 00 00 00 00 ................
00409950 00 00 00 00 00 00 00 00 00 00 00 00 00 00 00 00 ................
00409960 00 00 00 00 00 00 00 00 00 00 00 00 00 00 00 00 ................
00409970 00 00 00 00 00 00 00 00 00 00 00 00 00 00 00 00 ................
00409980 00 00 00 00 00 00 00 00 00 00 00 00 00 00 00 00 ................
00409990 00 00 00 00 00 00 00 00 00 00 00 00 00 00 00 00 ................
004099A0 00 00 00 00 00 00 00 00 00 00 00 00 00 00 00 00 ................
004099B0 00 00 00 00 00 00 00 00 00 00 00 00 00 00 00 00 ................
004099C0 00 00 00 00 00 00 00 00 00 00 00 00 00 00 00 00 ................
004099D0 00 00 00 00 00 00 00 00 00 00 00 00 00 00 00 00 ................
004099E0 00 00 00 00 00 00 00 00 00 00 00 00 00 00 00 00 ................
004099F0 00 00 00 00 00 00 00 00 00 00 00 00 00 00 00 00 ................
00409A00 00 00 00 00 00 00 00 00 00 00 00 00 00 00 00 00 ................
00409A10 00 00 00 00 00 00 00 00 00 00 00 00 00 00 00 00 ................
00409A20 00 00 00 00 00 00 00 00 00 00 00 00 00 00 00 00 ................
00409A30 00 00 00 00 00 00 00 00 00 00 00 00 00 00 00 00 ................
00409A40 00 00 00 00 00 00 00 00 00 00 00 00 00 00 00 00 ................
00409A50 00 00 00 00 00 00 00 00 00 00 00 00 00 00 00 00 ................
00409A60 00 00 00 00 00 00 00 00 00 00 00 00 00 00 00 00 ................
00409A70 00 00 00 00 00 00 00 00 00 00 00 00 00 00 00 00 ................
00409A80 00 00 00 00 00 00 00 00 00 00 00 00 00 00 00 00 ................
00409A90 00 00 00 00 00 00 00 00 00 00 00 00 00 00 00 00 ................
00409AA0 00 00 00 00 00 00 00 00 00 00 00 00 00 00 00 00 ................
00409AB0 00 00 00 00 00 00 00 00 00 00 00 00 00 00 00 00 ................
00409AC0 00 00 00 00 00 00 00 00 00 00 00 00 00 00 00 00 ................
00409AD0 00 00 00 00 00 00 00 00 00 00 00 00 00 00 00 00 ................
00409AE0 00 00 00 00 00 00 00 00 00 00 00 00 00 00 00 00 ................
00409AF0 00 00 00 00 00 00 00 00 00 00 00 00 00 00 00 00 ................
00409B00 00 00 00 00 00 00 00 00 00 00 00 00 00 00 00 00 ................
00409B10 00 00 00 00 00 00 00 00 00 00 00 00 00 00 00 00 ................
00409B20 00 00 00 00 00 00 00 00 00 00 00 00 00 00 00 00 ................
00409B30 00 00 00 00 00 00 00 00 00 00 00 00 00 00 00 00 ................
00409B40 00 00 00 00 00 00 00 00 00 00 00 00 00 00 00 00 ................
00409B50 00 00 00 00 00 00 00 00 00 00 00 00 00 00 00 00 ................
00409B60 00 00 00 00 00 00 00 00 00 00 00 00 00 00 00 00 ................
00409B70 00 00 00 00 00 00 00 00 00 00 00 00 00 00 00 00 ................
00409B80 00 00 00 00 00 00 00 00 00 00 00 00 00 00 00 00 ................
00409B90 00 00 00 00 00 00 00 00 00 00 00 00 00 00 00 00 ................
00409BA0 00 00 00 00 00 00 00 00 00 00 00 00 00 00 00 00 ................
00409BB0 00 00 00 00 00 00 00 00 00 00 00 00 00 00 00 00 ................
00409BC0 00 00 00 00 00 00 00 00 00 00 00 00 00 00 00 00 ................
00409BD0 00 00 00 00 00 00 00 00 00 00 00 00 00 00 00 00 ................
00409BE0 00 00 00 00 00 00 00 00 00 00 00 00 00 00 00 00 ................
00409BF0 00 00 00 00 00 00 00 00 00 00 00 00 00 00 00 00 ................
00409C00 00 00 00 00 00 00 00 00 00 00 00 00 00 00 00 00 ................
00409C10 00 00 00 00 00 00 00 00 00 00 00 00 00 00 00 00 ................
00409C20 00 00 00 00 00 00 00 00 00 00 00 00 00 00 00 00 ................
00409C30 00 00 00 00 00 00 00 00 00 00 00 00 00 00 00 00 ................
00409C40 00 00 00 00 00 00 00 00 00 00 00 00 00 00 00 00 ................
00409C50 00 00 00 00 00 00 00 00 00 00 00 00 00 00 00 00 ................
00409C60 00 00 00 00 00 00 00 00 00 00 00 00 00 00 00 00 ................
00409C70 00 00 00 00 00 00 00 00 00 00 00 00 00 00 00 00 ................
00409C80 00 00 00 00 00 00 00 00 00 00 00 00 00 00 00 00 ................
00409C90 00 00 00 00 00 00 00 00 00 00 00 00 00 00 00 00 ................
00409CA0 00 00 00 00 00 00 00 00 00 00 00 00 00 00 00 00 ................
00409CB0 00 00 00 00 00 00 00 00 00 00 00 00 00 00 00 00 ................
00409CC0 00 00 00 00 00 00 00 00 00 00 00 00 00 00 00 00 ................
00409CD0 00 00 00 00 00 00 00 00 00 00 00 00 00 00 00 00 ................
00409CE0 00 00 00 00 00 00 00 00 00 00 00 00 00 00 00 00 ................
00409CF0 00 00 00 00 00 00 00 00 00 00 00 00 00 00 00 00 ................
00409D00 00 00 00 00 00 00 00 00 00 00 00 00 00 00 00 00 ................
00409D10 00 00 00 00 00 00 00 00 00 00 00 00 00 00 00 00 ................
00409D20 00 00 00 00 00 00 00 00 00 00 00 00 00 00 00 00 ................
00409D30 00 00 00 00 00 00 00 00 00 00 00 00 00 00 00 00 ................
00409D40 00 00 00 00 00 00 00 00 00 00 00 00 00 00 00 00 ................
00409D50 00 00 00 00 00 00 00 00 00 00 00 00 00 00 00 00 ................
00409D60 00 00 00 00 00 00 00 00 00 00 00 00 00 00 00 00 ................
00409D70 00 00 00 00 00 00 00 00 00 00 00 00 00 00 00 00 ................
00409D80 00 00 00 00 00 00 00 00 00 00 00 00 00 00 00 00 ................
00409D90 00 00 00 00 00 00 00 00 00 00 00 00 00 00 00 00 ................
00409DA0 00 00 00 00 00 00 00 00 00 00 00 00 00 00 00 00 ................
00409DB0 00 00 00 00 00 00 00 00 00 00 00 00 00 00 00 00 ................
00409DC0 00 00 00 00 00 00 00 00 00 00 00 00 00 00 00 00 ................
00409DD0 00 00 00 00 00 00 00 00 00 00 00 00 00 00 00 00 ................
00409DE0 00 00 00 00 00 00 00 00 00 00 00 00 00 00 00 00 ................
00409DF0 00 00 00 00 00 00 00 00 00 00 00 00 00 00 00 00 ................
00409E00 00 00 00 00 00 00 00 00 00 00 00 00 00 00 00 00 ................
00409E10 00 00 00 00 00 00 00 00 00 00 00 00 00 00 00 00 ................
00409E20 00 00 00 00 00 00 00 00 00 00 00 00 00 00 00 00 ................
00409E30 00 00 00 00 00 00 00 00 00 00 00 00 00 00 00 00 ................
00409E40 00 00 00 00 00 00 00 00 00 00 00 00 00 00 00 00 ................
00409E50 00 00 00 00 00 00 00 00 00 00 00 00 00 00 00 00 ................
00409E60 00 00 00 00 00 00 00 00 00 00 00 00 00 00 00 00 ................
00409E70 00 00 00 00 00 00 00 00 00 00 00 00 00 00 00 00 ................
00409E80 00 00 00 00 00 00 00 00 00 00 00 00 00 00 00 00 ................
00409E90 00 00 00 00 00 00 00 00 00 00 00 00 00 00 00 00 ................
00409EA0 00 00 00 00 00 00 00 00 00 00 00 00 00 00 00 00 ................
00409EB0 00 00 00 00 00 00 00 00 00 00 00 00 00 00 00 00 ................
00409EC0 00 00 00 00 00 00 00 00 00 00 00 00 00 00 00 00 ................
00409ED0 00 00 00 00 00 00 00 00 00 00 00 00 00 00 00 00 ................
00409EE0 00 00 00 00 00 00 00 00 00 00 00 00 00 00 00 00 ................
00409EF0 00 00 00 00 00 00 00 00 00 00 00 00 00 00 00 00 ................
00409F00 00 00 00 00 00 00 00 00 00 00 00 00 00 00 00 00 ................
00409F10 00 00 00 00 00 00 00 00 00 00 00 00 00 00 00 00 ................
00409F20 00 00 00 00 00 00 00 00 00 00 00 00 00 00 00 00 ................
00409F30 00 00 00 00 00 00 00 00 00 00 00 00 00 00 00 00 ................
00409F40 00 00 00 00 00 00 00 00 00 00 00 00 00 00 00 00 ................
00409F50 00 00 00 00 00 00 00 00 00 00 00 00 00 00 00 00 ................
00409F60 00 00 00 00 00 00 00 00 00 00 00 00 00 00 00 00 ................
00409F70 00 00 00 00 00 00 00 00 00 00 00 00 00 00 00 00 ................
00409F80 00 00 00 00 00 00 00 00 00 00 00 00 00 00 00 00 ................
00409F90 00 00 00 00 00 00 00 00 00 00 00 00 00 00 00 00 ................
00409FA0 00 00 00 00 00 00 00 00 00 00 00 00 00 00 00 00 ................
00409FB0 00 00 00 00 00 00 00 00 00 00 00 00 00 00 00 00 ................
00409FC0 00 00 00 00 00 00 00 00 00 00 00 00 00 00 00 00 ................
00409FD0 00 00 00 00 00 00 00 00 00 00 00 00 00 00 00 00 ................
00409FE0 00 00 00 00 00 00 00 00 00 00 00 00 00 00 00 00 ................
00409FF0 00 00 00 00 00 00 00 00 00 00 00 00 00 00 00 00 ................
0040A000 00 00 00 00 00 00 00 00 00 00 00 00 00 00 00 00 ................
0040A010 00 00 00 00 00 00 00 00 00 00 00 00 00 00 00 00 ................
0040A020 00 00 00 00 00 00 00 00 00 00 00 00 00 00 00 00 ................
0040A030 00 00 00 00 00 00 00 00 00 00 00 00 00 00 00 00 ................
0040A040 00 00 00 00 00 00 00 00 00 00 00 00 00 00 00 00 ................
0040A050 00 00 00 00 00 00 00 00 00 00 00 00 00 00 00 00 ................
0040A060 00 00 00 00 00 00 00 00 00 00 00 00 00 00 00 00 ................
0040A070 00 00 00 00 00 00 00 00 00 00 00 00 00 00 00 00 ................
0040A080 00 00 00 00 00 00 00 00 00 00 00 00 00 00 00 00 ................
0040A090 00 00 00 00 00 00 00 00 00 00 00 00 00 00 00 00 ................
0040A0A0 00 00 00 00 00 00 00 00 00 00 00 00 00 00 00 00 ................
0040A0B0 00 00 00 00 00 00 00 00 00 00 00 00 00 00 00 00 ................
0040A0C0 00 00 00 00 00 00 00 00 00 00 00 00 00 00 00 00 ................
0040A0D0 00 00 00 00 00 00 00 00 00 00 00 00 00 00 00 00 ................
0040A0E0 00 00 00 00 00 00 00 00 00 00 00 00 00 00 00 00 ................
0040A0F0 00 00 00 00 00 00 00 00 00 00 00 00 00 00 00 00 ................
0040A100 00 00 00 00 00 00 00 00 00 00 00 00 00 00 00 00 ................
0040A110 00 00 00 00 00 00 00 00 00 00 00 00 00 00 00 00 ................
0040A120 00 00 00 00 00 00 00 00 00 00 00 00 00 00 00 00 ................
0040A130 00 00 00 00 00 00 00 00 00 00 00 00 00 00 00 00 ................
0040A140 00 00 00 00 00 00 00 00 00 00 00 00 00 00 00 00 ................
0040A150 00 00 00 00 00 00 00 00 00 00 00 00 00 00 00 00 ................
0040A160 00 00 00 00 00 00 00 00 00 00 00 00 00 00 00 00 ................
0040A170 00 00 00 00 00 00 00 00 00 00 00 00 00 00 00 00 ................
0040A180 00 00 00 00 00 00 00 00 00 00 00 00 00 00 00 00 ................
0040A190 00 00 00 00 00 00 00 00 00 00 00 00 00 00 00 00 ................
0040A1A0 00 00 00 00 00 00 00 00 00 00 00 00 00 00 00 00 ................
0040A1B0 00 00 00 00 00 00 00 00 00 00 00 00 00 00 00 00 ................
0040A1C0 00 00 00 00 00 00 00 00 00 00 00 00 00 00 00 00 ................
0040A1D0 00 00 00 00 00 00 00 00 00 00 00 00 00 00 00 00 ................
0040A1E0 00 00 00 00 00 00 00 00 00 00 00 00 00 00 00 00 ................
0040A1F0 00 00 00 00 00 00 00 00 00 00 00 00 00 00 00 00 ................
0040A200 00 00 00 00 00 00 00 00 00 00 00 00 00 00 00 00 ................
0040A210 00 00 00 00 00 00 00 00 00 00 00 00 00 00 00 00 ................
0040A220 00 00 00 00 00 00 00 00 00 00 00 00 00 00 00 00 ................
0040A230 00 00 00 00 00 00 00 00 00 00 00 00 00 00 00 00 ................
0040A240 00 00 00 00 00 00 00 00 00 00 00 00 00 00 00 00 ................
0040A250 00 00 00 00 00 00 00 00 00 00 00 00 00 00 00 00 ................
0040A260 00 00 00 00 00 00 00 00 00 00 00 00 00 00 00 00 ................
0040A270 00 00 00 00 00 00 00 00 00 00 00 00 00 00 00 00 ................
0040A280 00 00 00 00 00 00 00 00 00 00 00 00 00 00 00 00 ................
0040A290 00 00 00 00 00 00 00 00 00 00 00 00 00 00 00 00 ................
0040A2A0 00 00 00 00 00 00 00 00 00 00 00 00 00 00 00 00 ................
0040A2B0 00 00 00 00 00 00 00 00 00 00 00 00 00 00 00 00 ................
0040A2C0 00 00 00 00 00 00 00 00 00 00 00 00 00 00 00 00 ................
0040A2D0 00 00 00 00 00 00 00 00 00 00 00 00 00 00 00 00 ................
0040A2E0 00 00 00 00 00 00 00 00 00 00 00 00 00 00 00 00 ................
0040A2F0 00 00 00 00 00 00 00 00 00 00 00 00 00 00 00 00 ................
0040A300 00 00 00 00 00 00 00 00 00 00 00 00 00 00 00 00 ................
0040A310 00 00 00 00 00 00 00 00 00 00 00 00 00 00 00 00 ................
0040A320 00 00 00 00 00 00 00 00 00 00 00 00 00 00 00 00 ................
0040A330 00 00 00 00 00 00 00 00 00 00 00 00 00 00 00 00 ................
0040A340 00 00 00 00 00 00 00 00 00 00 00 00 00 00 00 00 ................
0040A350 00 00 00 00 00 00 00 00 00 00 00 00 00 00 00 00 ................
0040A360 00 00 00 00 00 00 00 00 00 00 00 00 00 00 00 00 ................
0040A370 00 00 00 00 00 00 00 00 00 00 00 00 00 00 00 00 ................
0040A380 00 00 00 00 00 00 00 00 00 00 00 00 00 00 00 00 ................
0040A390 00 00 00 00 00 00 00 00 00 00 00 00 00 00 00 00 ................
0040A3A0 00 00 00 00 00 00 00 00 00 00 00 00 00 00 00 00 ................
0040A3B0 00 00 00 00 00 00 00 00 00 00 00 00 00 00 00 00 ................
0040A3C0 00 00 00 00 00 00 00 00 00 00 00 00 00 00 00 00 ................
0040A3D0 00 00 00 00 00 00 00 00 00 00 00 00 00 00 00 00 ................
0040A3E0 00 00 00 00 00 00 00 00 00 00 00 00 00 00 00 00 ................
0040A3F0 00 00 00 00 00 00 00 00 00 00 00 00 00 00 00 00 ................
0040A400 00 00 00 00 00 00 00 00 00 00 00 00 00 00 00 00 ................
0040A410 00 00 00 00 00 00 00 00 00 00 00 00 00 00 00 00 ................
0040A420 00 00 00 00 00 00 00 00 00 00 00 00 00 00 00 00 ................
0040A430 00 00 00 00 00 00 00 00 00 00 00 00 00 00 00 00 ................
0040A440 00 00 00 00 00 00 00 00 00 00 00 00 00 00 00 00 ................
0040A450 00 00 00 00 00 00 00 00 00 00 00 00 00 00 00 00 ................
0040A460 00 00 00 00 00 00 00 00 00 00 00 00 00 00 00 00 ................
0040A470 00 00 00 00 00 00 00 00 00 00 00 00 00 00 00 00 ................
0040A480 00 00 00 00 00 00 00 00 00 00 00 00 00 00 00 00 ................
0040A490 00 00 00 00 00 00 00 00 00 00 00 00 00 00 00 00 ................
0040A4A0 00 00 00 00 00 00 00 00 00 00 00 00 00 00 00 00 ................
0040A4B0 00 00 00 00 00 00 00 00 00 00 00 00 00 00 00 00 ................
0040A4C0 00 00 00 00 00 00 00 00 00 00 00 00 00 00 00 00 ................
0040A4D0 00 00 00 00 00 00 00 00 00 00 00 00 00 00 00 00 ................
0040A4E0 00 00 00 00 00 00 00 00 00 00 00 00 00 00 00 00 ................
0040A4F0 00 00 00 00 00 00 00 00 00 00 00 00 00 00 00 00 ................
0040A500 00 00 00 00 00 00 00 00 00 00 00 00 00 00 00 00 ................
0040A510 00 00 00 00 00 00 00 00 00 00 00 00 00 00 00 00 ................
0040A520 00 00 00 00 00 00 00 00 00 00 00 00 00 00 00 00 ................
0040A530 00 00 00 00 00 00 00 00 00 00 00 00 00 00 00 00 ................
0040A540 00 00 00 00 00 00 00 00 00 00 00 00 00 00 00 00 ................
0040A550 00 00 00 00 00 00 00 00 00 00 00 00 00 00 00 00 ................
0040A560 00 00 00 00 00 00 00 00 00 00 00 00 00 00 00 00 ................
0040A570 00 00 00 00 00 00 00 00 00 00 00 00 00 00 00 00 ................
0040A580 00 00 00 00 00 00 00 00 00 00 00 00 00 00 00 00 ................
0040A590 00 00 00 00 00 00 00 00 00 00 00 00 00 00 00 00 ................
0040A5A0 00 00 00 00 00 00 00 00 00 00 00 00 00 00 00 00 ................
0040A5B0 00 00 00 00 00 00 00 00 00 00 00 00 00 00 00 00 ................
0040A5C0 00 00 00 00 00 00 00 00 00 00 00 00 00 00 00 00 ................
0040A5D0 00 00 00 00 00 00 00 00 00 00 00 00 00 00 00 00 ................
0040A5E0 00 00 00 00 00 00 00 00 00 00 00 00 00 00 00 00 ................
0040A5F0 00 00 00 00 00 00 00 00 00 00 00 00 00 00 00 00 ................
0040A600 00 00 00 00 00 00 00 00 00 00 00 00 00 00 00 00 ................
0040A610 00 00 00 00 00 00 00 00 00 00 00 00 00 00 00 00 ................
0040A620 00 00 00 00 00 00 00 00 00 00 00 00 00 00 00 00 ................
0040A630 00 00 00 00 00 00 00 00 00 00 00 00 00 00 00 00 ................
0040A640 00 00 00 00 00 00 00 00 00 00 00 00 00 00 00 00 ................
0040A650 00 00 00 00 00 00 00 00 00 00 00 00 00 00 00 00 ................
0040A660 00 00 00 00 00 00 00 00 00 00 00 00 00 00 00 00 ................
0040A670 00 00 00 00 00 00 00 00 00 00 00 00 00 00 00 00 ................
0040A680 00 00 00 00 00 00 00 00 00 00 00 00 00 00 00 00 ................
0040A690 00 00 00 00 00 00 00 00 00 00 00 00 00 00 00 00 ................
0040A6A0 00 00 00 00 00 00 00 00 00 00 00 00 00 00 00 00 ................
0040A6B0 00 00 00 00 00 00 00 00 00 00 00 00 00 00 00 00 ................
0040A6C0 00 00 00 00 00 00 00 00 00 00 00 00 00 00 00 00 ................
0040A6D0 00 00 00 00 00 00 00 00 00 00 00 00 00 00 00 00 ................
0040A6E0 00 00 00 00 00 00 00 00 00 00 00 00 00 00 00 00 ................
0040A6F0 00 00 00 00 00 00 00 00 00 00 00 00 00 00 00 00 ................
0040A700 00 00 00 00 00 00 00 00 00 00 00 00 00 00 00 00 ................
0040A710 00 00 00 00 00 00 00 00 00 00 00 00 00 00 00 00 ................
0040A720 00 00 00 00 00 00 00 00 00 00 00 00 00 00 00 00 ................
0040A730 00 00 00 00 00 00 00 00 00 00 00 00 00 00 00 00 ................
0040A740 00 00 00 00 00 00 00 00 00 00 00 00 00 00 00 00 ................
0040A750 00 00 00 00 00 00 00 00 00 00 00 00 00 00 00 00 ................
0040A760 00 00 00 00 00 00 00 00 00 00 00 00 00 00 00 00 ................
0040A770 00 00 00 00 00 00 00 00 00 00 00 00 00 00 00 00 ................
0040A780 00 00 00 00 00 00 00 00 00 00 00 00 00 00 00 00 ................
0040A790 00 00 00 00 00 00 00 00 00 00 00 00 00 00 00 00 ................
0040A7A0 00 00 00 00 00 00 00 00 00 00 00 00 00 00 00 00 ................
0040A7B0 00 00 00 00 00 00 00 00 00 00 00 00 00 00 00 00 ................
0040A7C0 00 00 00 00 00 00 00 00 00 00 00 00 00 00 00 00 ................
0040A7D0 00 00 00 00 00 00 00 00 00 00 00 00 00 00 00 00 ................
0040A7E0 00 00 00 00 00 00 00 00 00 00 00 00 00 00 00 00 ................
0040A7F0 00 00 00 00 00 00 00 00 00 00 00 00 00 00 00 00 ................
0040A800 00 00 00 00 00 00 00 00 00 00 00 00 00 00 00 00 ................
0040A810 00 00 00 00 00 00 00 00 00 00 00 00 00 00 00 00 ................
0040A820 00 00 00 00 00 00 00 00 00 00 00 00 00 00 00 00 ................
0040A830 00 00 00 00 00 00 00 00 00 00 00 00 00 00 00 00 ................
0040A840 00 00 00 00 00 00 00 00 00 00 00 00 00 00 00 00 ................
0040A850 00 00 00 00 00 00 00 00 00 00 00 00 00 00 00 00 ................
0040A860 00 00 00 00 00 00 00 00 00 00 00 00 00 00 00 00 ................
0040A870 00 00 00 00 00 00 00 00 00 00 00 00 00 00 00 00 ................
0040A880 00 00 00 00 00 00 00 00 00 00 00 00 00 00 00 00 ................
0040A890 00 00 00 00 00 00 00 00 00 00 00 00 00 00 00 00 ................
0040A8A0 00 00 00 00 00 00 00 00 00 00 00 00 00 00 00 00 ................
0040A8B0 00 00 00 00 00 00 00 00 00 00 00 00 00 00 00 00 ................
0040A8C0 00 00 00 00 00 00 00 00 00 00 00 00 00 00 00 00 ................
0040A8D0 00 00 00 00 00 00 00 00 00 00 00 00 00 00 00 00 ................
0040A8E0 00 00 00 00 00 00 00 00 00 00 00 00 00 00 00 00 ................
0040A8F0 00 00 00 00 00 00 00 00 00 00 00 00 00 00 00 00 ................
0040A900 00 00 00 00 00 00 00 00 00 00 00 00 00 00 00 00 ................
0040A910 00 00 00 00 00 00 00 00 00 00 00 00 00 00 00 00 ................
0040A920 00 00 00 00 00 00 00 00 00 00 00 00 00 00 00 00 ................
0040A930 00 00 00 00 00 00 00 00 00 00 00 00 00 00 00 00 ................
0040A940 00 00 00 00 00 00 00 00 00 00 00 00 00 00 00 00 ................
0040A950 00 00 00 00 00 00 00 00 00 00 00 00 00 00 00 00 ................
0040A960 00 00 00 00 00 00 00 00 00 00 00 00 00 00 00 00 ................
0040A970 00 00 00 00 00 00 00 00 00 00 00 00 00 00 00 00 ................
0040A980 00 00 00 00 00 00 00 00 00 00 00 00 00 00 00 00 ................
0040A990 00 00 00 00 00 00 00 00 00 00 00 00 00 00 00 00 ................
0040A9A0 00 00 00 00 00 00 00 00 00 00 00 00 00 00 00 00 ................
0040A9B0 00 00 00 00 00 00 00 00 00 00 00 00 00 00 00 00 ................
0040A9C0 00 00 00 00 00 00 00 00 00 00 00 00 00 00 00 00 ................
0040A9D0 00 00 00 00 00 00 00 00 00 00 00 00 00 00 00 00 ................
0040A9E0 00 00 00 00 00 00 00 00 00 00 00 00 00 00 00 00 ................
0040A9F0 00 00 00 00 00 00 00 00 00 00 00 00 00 00 00 00 ................
0040AA00 00 00 00 00 00 00 00 00 00 00 00 00 00 00 00 00 ................
0040AA10 00 00 00 00 00 00 00 00 00 00 00 00 00 00 00 00 ................
0040AA20 00 00 00 00 00 00 00 00 00 00 00 00 00 00 00 00 ................
0040AA30 00 00 00 00 00 00 00 00 00 00 00 00 00 00 00 00 ................
0040AA40 00 00 00 00 00 00 00 00 00 00 00 00 00 00 00 00 ................
0040AA50 00 00 00 00 00 00 00 00 00 00 00 00 00 00 00 00 ................
0040AA60 00 00 00 00 00 00 00 00 00 00 00 00 00 00 00 00 ................
0040AA70 00 00 00 00 00 00 00 00 00 00 00 00 00 00 00 00 ................
0040AA80 00 00 00 00 00 00 00 00 00 00 00 00 00 00 00 00 ................
0040AA90 00 00 00 00 00 00 00 00 00 00 00 00 00 00 00 00 ................
0040AAA0 00 00 00 00 00 00 00 00 00 00 00 00 00 00 00 00 ................
0040AAB0 00 00 00 00 00 00 00 00 00 00 00 00 00 00 00 00 ................
0040AAC0 00 00 00 00 00 00 00 00 00 00 00 00 00 00 00 00 ................
0040AAD0 00 00 00 00 00 00 00 00 00 00 00 00 00 00 00 00 ................
0040AAE0 00 00 00 00 00 00 00 00 00 00 00 00 00 00 00 00 ................
0040AAF0 00 00 00 00 00 00 00 00 00 00 00 00 00 00 00 00 ................
0040AB00 00 00 00 00 00 00 00 00 00 00 00 00 00 00 00 00 ................
0040AB10 00 00 00 00 00 00 00 00 00 00 00 00 00 00 00 00 ................
0040AB20 00 00 00 00 00 00 00 00 00 00 00 00 00 00 00 00 ................
0040AB30 00 00 00 00 00 00 00 00 00 00 00 00 00 00 00 00 ................
0040AB40 00 00 00 00 00 00 00 00 00 00 00 00 00 00 00 00 ................
0040AB50 00 00 00 00 00 00 00 00 00 00 00 00 00 00 00 00 ................
0040AB60 00 00 00 00 00 00 00 00 00 00 00 00 00 00 00 00 ................
0040AB70 00 00 00 00 00 00 00 00 00 00 00 00 00 00 00 00 ................
0040AB80 00 00 00 00 00 00 00 00 00 00 00 00 00 00 00 00 ................
0040AB90 00 00 00 00 00 00 00 00 00 00 00 00 00 00 00 00 ................
0040ABA0 00 00 00 00 00 00 00 00 00 00 00 00 00 00 00 00 ................
0040ABB0 00 00 00 00 00 00 00 00 00 00 00 00 00 00 00 00 ................
0040ABC0 00 00 00 00 00 00 00 00 00 00 00 00 00 00 00 00 ................
0040ABD0 00 00 00 00 00 00 00 00 00 00 00 00 00 00 00 00 ................
0040ABE0 00 00 00 00 00 00 00 00 00 00 00 00 00 00 00 00 ................
0040ABF0 00 00 00 00 00 00 00 00 00 00 00 00 00 00 00 00 ................
0040AC00 00 00 00 00 00 00 00 00 00 00 00 00 00 00 00 00 ................
0040AC10 00 00 00 00 00 00 00 00 00 00 00 00 00 00 00 00 ................
0040AC20 00 00 00 00 00 00 00 00 00 00 00 00 00 00 00 00 ................
0040AC30 00 00 00 00 00 00 00 00 00 00 00 00 00 00 00 00 ................
0040AC40 00 00 00 00 00 00 00 00 00 00 00 00 00 00 00 00 ................
0040AC50 00 00 00 00 00 00 00 00 00 00 00 00 00 00 00 00 ................
0040AC60 00 00 00 00 00 00 00 00 00 00 00 00 00 00 00 00 ................
0040AC70 00 00 00 00 00 00 00 00 00 00 00 00 00 00 00 00 ................
0040AC80 00 00 00 00 00 00 00 00 00 00 00 00 00 00 00 00 ................
0040AC90 00 00 00 00 00 00 00 00 00 00 00 00 00 00 00 00 ................
0040ACA0 00 00 00 00 00 00 00 00 00 00 00 00 00 00 00 00 ................
0040ACB0 00 00 00 00 00 00 00 00 00 00 00 00 00 00 00 00 ................
0040ACC0 00 00 00 00 00 00 00 00 00 00 00 00 00 00 00 00 ................
0040ACD0 00 00 00 00 00 00 00 00 00 00 00 00 00 00 00 00 ................
0040ACE0 00 00 00 00 00 00 00 00 00 00 00 00 00 00 00 00 ................
0040ACF0 00 00 00 00 00 00 00 00 00 00 00 00 00 00 00 00 ................
0040AD00 00 00 00 00 00 00 00 00 00 00 00 00 00 00 00 00 ................
0040AD10 00 00 00 00 00 00 00 00 00 00 00 00 00 00 00 00 ................
0040AD20 00 00 00 00 00 00 00 00 00 00 00 00 00 00 00 00 ................
0040AD30 00 00 00 00 00 00 00 00 00 00 00 00 00 00 00 00 ................
0040AD40 00 00 00 00 00 00 00 00 00 00 00 00 00 00 00 00 ................
0040AD50 00 00 00 00 00 00 00 00 00 00 00 00 00 00 00 00 ................
0040AD60 00 00 00 00 00 00 00 00 00 00 00 00 00 00 00 00 ................
0040AD70 00 00 00 00 00 00 00 00 00 00 00 00 00 00 00 00 ................
0040AD80 00 00 00 00 00 00 00 00 00 00 00 00 00 00 00 00 ................
0040AD90 00 00 00 00 00 00 00 00 00 00 00 00 00 00 00 00 ................
0040ADA0 00 00 00 00 00 00 00 00 00 00 00 00 00 00 00 00 ................
0040ADB0 00 00 00 00 00 00 00 00 00 00 00 00 00 00 00 00 ................
0040ADC0 00 00 00 00 00 00 00 00 00 00 00 00 00 00 00 00 ................
0040ADD0 00 00 00 00 00 00 00 00 00 00 00 00 00 00 00 00 ................
0040ADE0 00 00 00 00 00 00 00 00 00 00 00 00 00 00 00 00 ................
0040ADF0 00 00 00 00 00 00 00 00 00 00 00 00 00 00 00 00 ................
0040AE00 00 00 00 00 00 00 00 00 00 00 00 00 00 00 00 00 ................
0040AE10 00 00 00 00 00 00 00 00 00 00 00 00 00 00 00 00 ................
0040AE20 00 00 00 00 00 00 00 00 00 00 00 00 00 00 00 00 ................
0040AE30 00 00 00 00 00 00 00 00 00 00 00 00 00 00 00 00 ................
0040AE40 00 00 00 00 00 00 00 00 00 00 00 00 00 00 00 00 ................
0040AE50 00 00 00 00 00 00 00 00 00 00 00 00 00 00 00 00 ................
0040AE60 00 00 00 00 00 00 00 00 00 00 00 00 00 00 00 00 ................
0040AE70 00 00 00 00 00 00 00 00 00 00 00 00 00 00 00 00 ................
0040AE80 00 00 00 00 00 00 00 00 00 00 00 00 00 00 00 00 ................
0040AE90 00 00 00 00 00 00 00 00 00 00 00 00 00 00 00 00 ................
0040AEA0 00 00 00 00 00 00 00 00 00 00 00 00 00 00 00 00 ................
0040AEB0 00 00 00 00 00 00 00 00 00 00 00 00 00 00 00 00 ................
0040AEC0 00 00 00 00 00 00 00 00 00 00 00 00 00 00 00 00 ................
0040AED0 00 00 00 00 00 00 00 00 00 00 00 00 00 00 00 00 ................
0040AEE0 00 00 00 00 00 00 00 00 00 00 00 00 00 00 00 00 ................
0040AEF0 00 00 00 00 00 00 00 00 00 00 00 00 00 00 00 00 ................
0040AF00 00 00 00 00 00 00 00 00 00 00 00 00 00 00 00 00 ................
0040AF10 00 00 00 00 00 00 00 00 00 00 00 00 00 00 00 00 ................
0040AF20 00 00 00 00 00 00 00 00 00 00 00 00 00 00 00 00 ................
0040AF30 00 00 00 00 00 00 00 00 00 00 00 00 00 00 00 00 ................
0040AF40 00 00 00 00 00 00 00 00 00 00 00 00 00 00 00 00 ................
0040AF50 00 00 00 00 00 00 00 00 00 00 00 00 00 00 00 00 ................
0040AF60 00 00 00 00 00 00 00 00 00 00 00 00 00 00 00 00 ................
0040AF70 00 00 00 00 00 00 00 00 00 00 00 00 00 00 00 00 ................
0040AF80 00 00 00 00 00 00 00 00 00 00 00 00 00 00 00 00 ................
0040AF90 00 00 00 00 00 00 00 00 00 00 00 00 00 00 00 00 ................
0040AFA0 00 00 00 00 00 00 00 00 00 00 00 00 00 00 00 00 ................
0040AFB0 00 00 00 00 00 00 00 00 00 00 00 00 00 00 00 00 ................
0040AFC0 00 00 00 00 00 00 00 00 00 00 00 00 00 00 00 00 ................
0040AFD0 00 00 00 00 00 00 00 00 00 00 00 00 00 00 00 00 ................
0040AFE0 00 00 00 00 00 00 00 00 00 00 00 00 00 00 00 00 ................
0040AFF0 00 00 00 00 00 00 00 00 00 00 00 00 00 00 00 00 ................
0040B000 00 00 00 00 00 00 00 00 00 00 00 00 00 00 00 00 ................
0040B010 00 00 00 00 00 00 00 00 00 00 00 00 00 00 00 00 ................
0040B020 00 00 00 00 00 00 00 00 00 00 00 00 00 00 00 00 ................
0040B030 00 00 00 00 00 00 00 00 00 00 00 00 00 00 00 00 ................
0040B040 00 00 00 00 00 00 00 00 00 00 00 00 00 00 00 00 ................
0040B050 00 00 00 00 00 00 00 00 00 00 00 00 00 00 00 00 ................
0040B060 00 00 00 00 00 00 00 00 00 00 00 00 00 00 00 00 ................
0040B070 00 00 00 00 00 00 00 00 00 00 00 00 00 00 00 00 ................
0040B080 00 00 00 00 00 00 00 00 00 00 00 00 00 00 00 00 ................
0040B090 00 00 00 00 00 00 00 00 00 00 00 00 00 00 00 00 ................
0040B0A0 00 00 00 00 00 00 00 00 00 00 00 00 00 00 00 00 ................
0040B0B0 00 00 00 00 00 00 00 00 00 00 00 00 00 00 00 00 ................
0040B0C0 00 00 00 00 00 00 00 00 00 00 00 00 00 00 00 00 ................
0040B0D0 00 00 00 00 00 00 00 00 00 00 00 00 00 00 00 00 ................
0040B0E0 00 00 00 00 00 00 00 00 00 00 00 00 00 00 00 00 ................
0040B0F0 00 00 00 00 00 00 00 00 00 00 00 00 00 00 00 00 ................
0040B100 00 00 00 00 00 00 00 00 00 00 00 00 00 00 00 00 ................
0040B110 00 00 00 00 00 00 00 00 00 00 00 00 00 00 00 00 ................
0040B120 00 00 00 00 00 00 00 00 00 00 00 00 00 00 00 00 ................
0040B130 00 00 00 00 00 00 00 00 00 00 00 00 00 00 00 00 ................
0040B140 00 00 00 00 00 00 00 00 00 00 00 00 00 00 00 00 ................
0040B150 00 00 00 00 00 00 00 00 00 00 00 00 00 00 00 00 ................
0040B160 00 00 00 00 00 00 00 00 00 00 00 00 00 00 00 00 ................
0040B170 00 00 00 00 00 00 00 00 00 00 00 00 00 00 00 00 ................
0040B180 00 00 00 00 00 00 00 00 00 00 00 00 00 00 00 00 ................
0040B190 00 00 00 00 00 00 00 00 00 00 00 00 00 00 00 00 ................
0040B1A0 00 00 00 00 00 00 00 00 00 00 00 00 00 00 00 00 ................
0040B1B0 00 00 00 00 00 00 00 00 00 00 00 00 00 00 00 00 ................
0040B1C0 00 00 00 00 00 00 00 00 00 00 00 00 00 00 00 00 ................
0040B1D0 00 00 00 00 00 00 00 00 00 00 00 00 00 00 00 00 ................
0040B1E0 00 00 00 00 00 00 00 00 00 00 00 00 00 00 00 00 ................
0040B1F0 00 00 00 00 00 00 00 00 00 00 00 00 00 00 00 00 ................
0040B200 00 00 00 00 00 00 00 00 00 00 00 00 00 00 00 00 ................
0040B210 00 00 00 00 00 00 00 00 00 00 00 00 00 00 00 00 ................
0040B220 00 00 00 00 00 00 00 00 00 00 00 00 00 00 00 00 ................
0040B230 00 00 00 00 00 00 00 00 00 00 00 00 00 00 00 00 ................
0040B240 00 00 00 00 00 00 00 00 00 00 00 00 00 00 00 00 ................
0040B250 00 00 00 00 00 00 00 00 00 00 00 00 00 00 00 00 ................
0040B260 00 00 00 00 00 00 00 00 00 00 00 00 00 00 00 00 ................
0040B270 00 00 00 00 00 00 00 00 00 00 00 00 00 00 00 00 ................
0040B280 00 00 00 00 00 00 00 00 00 00 00 00 00 00 00 00 ................
0040B290 00 00 00 00 00 00 00 00 00 00 00 00 00 00 00 00 ................
0040B2A0 00 00 00 00 00 00 00 00 00 00 00 00 00 00 00 00 ................
0040B2B0 00 00 00 00 00 00 00 00 00 00 00 00 00 00 00 00 ................
0040B2C0 00 00 00 00 00 00 00 00 00 00 00 00 00 00 00 00 ................
0040B2D0 00 00 00 00 00 00 00 00 00 00 00 00 00 00 00 00 ................
0040B2E0 00 00 00 00 00 00 00 00 00 00 00 00 00 00 00 00 ................
0040B2F0 00 00 00 00 00 00 00 00 00 00 00 00 00 00 00 00 ................
0040B300 00 00 00 00 00 00 00 00 00 00 00 00 00 00 00 00 ................
0040B310 00 00 00 00 00 00 00 00 00 00 00 00 00 00 00 00 ................
0040B320 00 00 00 00 00 00 00 00 00 00 00 00 00 00 00 00 ................
0040B330 00 00 00 00 00 00 00 00 00 00 00 00 00 00 00 00 ................
0040B340 00 00 00 00 00 00 00 00 00 00 00 00 00 00 00 00 ................
0040B350 00 00 00 00 00 00 00 00 00 00 00 00 00 00 00 00 ................
0040B360 00 00 00 00 00 00 00 00 00 00 00 00 00 00 00 00 ................
0040B370 00 00 00 00 00 00 00 00 00 00 00 00 00 00 00 00 ................
0040B380 00 00 00 00 00 00 00 00 00 00 00 00 00 00 00 00 ................
0040B390 00 00 00 00 00 00 00 00 00 00 00 00 00 00 00 00 ................
0040B3A0 00 00 00 00 00 00 00 00 00 00 00 00 00 00 00 00 ................
0040B3B0 00 00 00 00 00 00 00 00 00 00 00 00 00 00 00 00 ................
0040B3C0 00 00 00 00 00 00 00 00 00 00 00 00 00 00 00 00 ................
0040B3D0 00 00 00 00 00 00 00 00 00 00 00 00 00 00 00 00 ................
0040B3E0 00 00 00 00 00 00 00 00 00 00 00 00 00 00 00 00 ................
0040B3F0 00 00 00 00 00 00 00 00 00 00 00 00 00 00 00 00 ................
0040B400 00 00 00 00 00 00 00 00 00 00 00 00 00 00 00 00 ................
0040B410 00 00 00 00 00 00 00 00 00 00 00 00 00 00 00 00 ................
0040B420 00 00 00 00 00 00 00 00 00 00 00 00 00 00 00 00 ................
0040B430 00 00 00 00 00 00 00 00 00 00 00 00 00 00 00 00 ................
0040B440 00 00 00 00 00 00 00 00 00 00 00 00 00 00 00 00 ................
0040B450 00 00 00 00 00 00 00 00 00 00 00 00 00 00 00 00 ................
0040B460 00 00 00 00 00 00 00 00 00 00 00 00 00 00 00 00 ................
0040B470 00 00 00 00 00 00 00 00 00 00 00 00 00 00 00 00 ................
0040B480 00 00 00 00 00 00 00 00 00 00 00 00 00 00 00 00 ................
0040B490 00 00 00 00 00 00 00 00 00 00 00 00 00 00 00 00 ................
0040B4A0 00 00 00 00 00 00 00 00 00 00 00 00 00 00 00 00 ................
0040B4B0 00 00 00 00 00 00 00 00 00 00 00 00 00 00 00 00 ................
0040B4C0 00 00 00 00 00 00 00 00 00 00 00 00 00 00 00 00 ................
0040B4D0 00 00 00 00 00 00 00 00 00 00 00 00 00 00 00 00 ................
0040B4E0 00 00 00 00 00 00 00 00 00 00 00 00 00 00 00 00 ................
0040B4F0 00 00 00 00 00 00 00 00 00 00 00 00 00 00 00 00 ................
0040B500 00 00 00 00 00 00 00 00 00 00 00 00 00 00 00 00 ................
0040B510 00 00 00 00 00 00 00 00 00 00 00 00 00 00 00 00 ................
0040B520 00 00 00 00 00 00 00 00 00 00 00 00 00 00 00 00 ................
0040B530 00 00 00 00 00 00 00 00 00 00 00 00 00 00 00 00 ................
0040B540 00 00 00 00 00 00 00 00 00 00 00 00 00 00 00 00 ................
0040B550 00 00 00 00 00 00 00 00 00 00 00 00 00 00 00 00 ................
0040B560 00 00 00 00 00 00 00 00 00 00 00 00 00 00 00 00 ................
0040B570 00 00 00 00 00 00 00 00 00 00 00 00 00 00 00 00 ................
0040B580 00 00 00 00 00 00 00 00 00 00 00 00 00 00 00 00 ................
0040B590 00 00 00 00 00 00 00 00 00 00 00 00 00 00 00 00 ................
0040B5A0 00 00 00 00 00 00 00 00 00 00 00 00 00 00 00 00 ................
0040B5B0 00 00 00 00 00 00 00 00 00 00 00 00 00 00 00 00 ................
0040B5C0 00 00 00 00 00 00 00 00 00 00 00 00 00 00 00 00 ................
0040B5D0 00 00 00 00 00 00 00 00 00 00 00 00 00 00 00 00 ................
0040B5E0 00 00 00 00 00 00 00 00 00 00 00 00 00 00 00 00 ................
0040B5F0 00 00 00 00 00 00 00 00 00 00 00 00 00 00 00 00 ................
0040B600 00 00 00 00 00 00 00 00 00 00 00 00 00 00 00 00 ................
0040B610 00 00 00 00 00 00 00 00 00 00 00 00 00 00 00 00 ................
0040B620 00 00 00 00 00 00 00 00 00 00 00 00 00 00 00 00 ................
0040B630 00 00 00 00 00 00 00 00 00 00 00 00 00 00 00 00 ................
0040B640 00 00 00 00 00 00 00 00 00 00 00 00 00 00 00 00 ................
0040B650 00 00 00 00 00 00 00 00 00 00 00 00 00 00 00 00 ................
0040B660 00 00 00 00 00 00 00 00 00 00 00 00 00 00 00 00 ................
0040B670 00 00 00 00 00 00 00 00 00 00 00 00 00 00 00 00 ................
0040B680 00 00 00 00 00 00 00 00 00 00 00 00 00 00 00 00 ................
0040B690 00 00 00 00 00 00 00 00 00 00 00 00 00 00 00 00 ................
0040B6A0 00 00 00 00 00 00 00 00 00 00 00 00 00 00 00 00 ................
0040B6B0 00 00 00 00 00 00 00 00 00 00 00 00 00 00 00 00 ................
0040B6C0 00 00 00 00 00 00 00 00 00 00 00 00 00 00 00 00 ................
0040B6D0 00 00 00 00 00 00 00 00 00 00 00 00 00 00 00 00 ................
0040B6E0 00 00 00 00 00 00 00 00 00 00 00 00 00 00 00 00 ................
0040B6F0 00 00 00 00 00 00 00 00 00 00 00 00 00 00 00 00 ................
0040B700 00 00 00 00 00 00 00 00 00 00 00 00 00 00 00 00 ................
0040B710 00 00 00 00 00 00 00 00 00 00 00 00 00 00 00 00 ................
0040B720 00 00 00 00 00 00 00 00 00 00 00 00 00 00 00 00 ................
0040B730 00 00 00 00 00 00 00 00 00 00 00 00 00 00 00 00 ................
0040B740 00 00 00 00 00 00 00 00 00 00 00 00 00 00 00 00 ................
0040B750 00 00 00 00 00 00 00 00 00 00 00 00 00 00 00 00 ................
0040B760 00 00 00 00 00 00 00 00 00 00 00 00 00 00 00 00 ................
0040B770 00 00 00 00 00 00 00 00 00 00 00 00 00 00 00 00 ................
0040B780 00 00 00 00 00 00 00 00 00 00 00 00 00 00 00 00 ................
0040B790 00 00 00 00 00 00 00 00 00 00 00 00 00 00 00 00 ................
0040B7A0 00 00 00 00 00 00 00 00 00 00 00 00 00 00 00 00 ................
0040B7B0 00 00 00 00 00 00 00 00 00 00 00 00 00 00 00 00 ................
0040B7C0 00 00 00 00 00 00 00 00 00 00 00 00 00 00 00 00 ................
0040B7D0 00 00 00 00 00 00 00 00 00 00 00 00 00 00 00 00 ................
0040B7E0 00 00 00 00 00 00 00 00 00 00 00 00 00 00 00 00 ................
0040B7F0 00 00 00 00 00 00 00 00 00 00 00 00 00 00 00 00 ................
0040B800 00 00 00 00 00 00 00 00 00 00 00 00 00 00 00 00 ................
0040B810 00 00 00 00 00 00 00 00 00 00 00 00 00 00 00 00 ................
0040B820 00 00 00 00 00 00 00 00 00 00 00 00 00 00 00 00 ................
0040B830 00 00 00 00 00 00 00 00 00 00 00 00 00 00 00 00 ................
0040B840 00 00 00 00 00 00 00 00 00 00 00 00 00 00 00 00 ................
0040B850 00 00 00 00 00 00 00 00 00 00 00 00 00 00 00 00 ................
0040B860 00 00 00 00 00 00 00 00 00 00 00 00 00 00 00 00 ................
0040B870 00 00 00 00 00 00 00 00 00 00 00 00 00 00 00 00 ................
0040B880 00 00 00 00 00 00 00 00 00 00 00 00 00 00 00 00 ................
0040B890 00 00 00 00 00 00 00 00 00 00 00 00 00 00 00 00 ................
0040B8A0 00 00 00 00 00 00 00 00 00 00 00 00 00 00 00 00 ................
0040B8B0 00 00 00 00 00 00 00 00 00 00 00 00 00 00 00 00 ................
0040B8C0 00 00 00 00 00 00 00 00 00 00 00 00 00 00 00 00 ................
0040B8D0 00 00 00 00 00 00 00 00 00 00 00 00 00 00 00 00 ................
0040B8E0 00 00 00 00 00 00 00 00 00 00 00 00 00 00 00 00 ................
0040B8F0 00 00 00 00 00 00 00 00 00 00 00 00 00 00 00 00 ................
0040B900 00 00 00 00 00 00 00 00 00 00 00 00 00 00 00 00 ................
0040B910 00 00 00 00 00 00 00 00 00 00 00 00 00 00 00 00 ................
0040B920 00 00 00 00 00 00 00 00 00 00 00 00 00 00 00 00 ................
0040B930 00 00 00 00 00 00 00 00 00 00 00 00 00 00 00 00 ................
0040B940 00 00 00 00 00 00 00 00 00 00 00 00 00 00 00 00 ................
0040B950 00 00 00 00 00 00 00 00 00 00 00 00 00 00 00 00 ................
0040B960 00 00 00 00 00 00 00 00 00 00 00 00 00 00 00 00 ................
0040B970 00 00 00 00 00 00 00 00 00 00 00 00 00 00 00 00 ................
0040B980 00 00 00 00 00 00 00 00 00 00 00 00 00 00 00 00 ................
0040B990 00 00 00 00 00 00 00 00 00 00 00 00 00 00 00 00 ................
0040B9A0 00 00 00 00 00 00 00 00 00 00 00 00 00 00 00 00 ................
0040B9B0 00 00 00 00 00 00 00 00 00 00 00 00 00 00 00 00 ................
0040B9C0 00 00 00 00 00 00 00 00 00 00 00 00 00 00 00 00 ................
0040B9D0 00 00 00 00 00 00 00 00 00 00 00 00 00 00 00 00 ................
0040B9E0 00 00 00 00 00 00 00 00 00 00 00 00 00 00 00 00 ................
0040B9F0 00 00 00 00 00 00 00 00 00 00 00 00 00 00 00 00 ................
0040BA00 00 00 00 00 00 00 00 00 00 00 00 00 00 00 00 00 ................
0040BA10 00 00 00 00 00 00 00 00 00 00 00 00 00 00 00 00 ................
0040BA20 00 00 00 00 00 00 00 00 00 00 00 00 00 00 00 00 ................
0040BA30 00 00 00 00 00 00 00 00 00 00 00 00 00 00 00 00 ................
0040BA40 00 00 00 00 00 00 00 00 00 00 00 00 00 00 00 00 ................
0040BA50 00 00 00 00 00 00 00 00 00 00 00 00 00 00 00 00 ................
0040BA60 00 00 00 00 00 00 00 00 00 00 00 00 00 00 00 00 ................
0040BA70 00 00 00 00 00 00 00 00 00 00 00 00 00 00 00 00 ................
0040BA80 00 00 00 00 00 00 00 00 00 00 00 00 00 00 00 00 ................
0040BA90 00 00 00 00 00 00 00 00 00 00 00 00 00 00 00 00 ................
0040BAA0 00 00 00 00 00 00 00 00 00 00 00 00 00 00 00 00 ................
0040BAB0 00 00 00 00 00 00 00 00 00 00 00 00 00 00 00 00 ................
0040BAC0 00 00 00 00 00 00 00 00 00 00 00 00 00 00 00 00 ................
0040BAD0 00 00 00 00 00 00 00 00 00 00 00 00 00 00 00 00 ................
0040BAE0 00 00 00 00 00 00 00 00 00 00 00 00 00 00 00 00 ................
0040BAF0 00 00 00 00 00 00 00 00 00 00 00 00 00 00 00 00 ................
0040BB00 00 00 00 00 00 00 00 00 00 00 00 00 00 00 00 00 ................
0040BB10 00 00 00 00 00 00 00 00 00 00 00 00 00 00 00 00 ................
0040BB20 00 00 00 00 00 00 00 00 00 00 00 00 00 00 00 00 ................
0040BB30 00 00 00 00 00 00 00 00 00 00 00 00 00 00 00 00 ................
0040BB40 00 00 00 00 00 00 00 00 00 00 00 00 00 00 00 00 ................
0040BB50 00 00 00 00 00 00 00 00 00 00 00 00 00 00 00 00 ................
0040BB60 00 00 00 00 00 00 00 00 00 00 00 00 00 00 00 00 ................
0040BB70 00 00 00 00 00 00 00 00 00 00 00 00 00 00 00 00 ................
0040BB80 00 00 00 00 00 00 00 00 00 00 00 00 00 00 00 00 ................
0040BB90 00 00 00 00 00 00 00 00 00 00 00 00 00 00 00 00 ................
0040BBA0 00 00 00 00 00 00 00 00 00 00 00 00 00 00 00 00 ................
0040BBB0 00 00 00 00 00 00 00 00 00 00 00 00 00 00 00 00 ................
0040BBC0 00 00 00 00 00 00 00 00 00 00 00 00 00 00 00 00 ................
0040BBD0 00 00 00 00 00 00 00 00 00 00 00 00 00 00 00 00 ................
0040BBE0 00 00 00 00 00 00 00 00 00 00 00 00 00 00 00 00 ................
0040BBF0 00 00 00 00 00 00 00 00 00 00 00 00 00 00 00 00 ................
0040BC00 00 00 00 00 00 00 00 00 00 00 00 00 00 00 00 00 ................
0040BC10 00 00 00 00 00 00 00 00 00 00 00 00 00 00 00 00 ................
0040BC20 00 00 00 00 00 00 00 00 00 00 00 00 00 00 00 00 ................
0040BC30 00 00 00 00 00 00 00 00 00 00 00 00 00 00 00 00 ................
0040BC40 00 00 00 00 00 00 00 00 00 00 00 00 00 00 00 00 ................
0040BC50 00 00 00 00 00 00 00 00 00 00 00 00 00 00 00 00 ................
0040BC60 00 00 00 00 00 00 00 00 00 00 00 00 00 00 00 00 ................
0040BC70 00 00 00 00 00 00 00 00 00 00 00 00 00 00 00 00 ................
0040BC80 00 00 00 00 00 00 00 00 00 00 00 00 00 00 00 00 ................
0040BC90 00 00 00 00 00 00 00 00 00 00 00 00 00 00 00 00 ................
0040BCA0 00 00 00 00 00 00 00 00 00 00 00 00 00 00 00 00 ................
0040BCB0 00 00 00 00 00 00 00 00 00 00 00 00 00 00 00 00 ................
0040BCC0 00 00 00 00 00 00 00 00 00 00 00 00 00 00 00 00 ................
0040BCD0 00 00 00 00 00 00 00 00 00 00 00 00 00 00 00 00 ................
0040BCE0 00 00 00 00 00 00 00 00 00 00 00 00 00 00 00 00 ................
0040BCF0 00 00 00 00 00 00 00 00 00 00 00 00 00 00 00 00 ................
0040BD00 00 00 00 00 00 00 00 00 00 00 00 00 00 00 00 00 ................
0040BD10 00 00 00 00 00 00 00 00 00 00 00 00 00 00 00 00 ................
0040BD20 00 00 00 00 00 00 00 00 00 00 00 00 00 00 00 00 ................
0040BD30 00 00 00 00 00 00 00 00 00 00 00 00 00 00 00 00 ................
0040BD40 00 00 00 00 00 00 00 00 00 00 00 00 00 00 00 00 ................
0040BD50 00 00 00 00 00 00 00 00 00 00 00 00 00 00 00 00 ................
0040BD60 00 00 00 00 00 00 00 00 00 00 00 00 00 00 00 00 ................
0040BD70 00 00 00 00 00 00 00 00 00 00 00 00 00 00 00 00 ................
0040BD80 00 00 00 00 00 00 00 00 00 00 00 00 00 00 00 00 ................
0040BD90 00 00 00 00 00 00 00 00 00 00 00 00 00 00 00 00 ................
0040BDA0 00 00 00 00 00 00 00 00 00 00 00 00 00 00 00 00 ................
0040BDB0 00 00 00 00 00 00 00 00 00 00 00 00 00 00 00 00 ................
0040BDC0 00 00 00 00 00 00 00 00 00 00 00 00 00 00 00 00 ................
0040BDD0 00 00 00 00 00 00 00 00 00 00 00 00 00 00 00 00 ................
0040BDE0 00 00 00 00 00 00 00 00 00 00 00 00 00 00 00 00 ................
0040BDF0 00 00 00 00 00 00 00 00 00 00 00 00 00 00 00 00 ................
0040BE00 00 00 00 00 00 00 00 00 00 00 00 00 00 00 00 00 ................
0040BE10 00 00 00 00 00 00 00 00 00 00 00 00 00 00 00 00 ................
0040BE20 00 00 00 00 00 00 00 00 00 00 00 00 00 00 00 00 ................
0040BE30 00 00 00 00 00 00 00 00 00 00 00 00 00 00 00 00 ................
0040BE40 00 00 00 00 00 00 00 00 00 00 00 00 00 00 00 00 ................
0040BE50 00 00 00 00 00 00 00 00 00 00 00 00 00 00 00 00 ................
0040BE60 00 00 00 00 00 00 00 00 00 00 00 00 00 00 00 00 ................
0040BE70 00 00 00 00 00 00 00 00 00 00 00 00 00 00 00 00 ................
0040BE80 00 00 00 00 00 00 00 00 00 00 00 00 00 00 00 00 ................
0040BE90 00 00 00 00 00 00 00 00 00 00 00 00 00 00 00 00 ................
0040BEA0 00 00 00 00 00 00 00 00 00 00 00 00 00 00 00 00 ................
0040BEB0 00 00 00 00 00 00 00 00 00 00 00 00 00 00 00 00 ................
0040BEC0 00 00 00 00 00 00 00 00 00 00 00 00 00 00 00 00 ................
0040BED0 00 00 00 00 00 00 00 00 00 00 00 00 00 00 00 00 ................
0040BEE0 00 00 00 00 00 00 00 00 00 00 00 00 00 00 00 00 ................
0040BEF0 00 00 00 00 00 00 00 00 00 00 00 00 00 00 00 00 ................
0040BF00 00 00 00 00 00 00 00 00 00 00 00 00 00 00 00 00 ................
0040BF10 00 00 00 00 00 00 00 00 00 00 00 00 00 00 00 00 ................
0040BF20 00 00 00 00 00 00 00 00 00 00 00 00 00 00 00 00 ................
0040BF30 00 00 00 00 00 00 00 00 00 00 00 00 00 00 00 00 ................
0040BF40 00 00 00 00 00 00 00 00 00 00 00 00 00 00 00 00 ................
0040BF50 00 00 00 00 00 00 00 00 00 00 00 00 00 00 00 00 ................
0040BF60 00 00 00 00 00 00 00 00 00 00 00 00 00 00 00 00 ................
0040BF70 00 00 00 00 00 00 00 00 00 00 00 00 00 00 00 00 ................
0040BF80 00 00 00 00 00 00 00 00 00 00 00 00 00 00 00 00 ................
0040BF90 00 00 00 00 00 00 00 00 00 00 00 00 00 00 00 00 ................
0040BFA0 00 00 00 00 00 00 00 00 00 00 00 00 00 00 00 00 ................
0040BFB0 00 00 00 00 00 00 00 00 00 00 00 00 00 00 00 00 ................
0040BFC0 00 00 00 00 00 00 00 00 00 00 00 00 00 00 00 00 ................
0040BFD0 00 00 00 00 00 00 00 00 00 00 00 00 00 00 00 00 ................
0040BFE0 00 00 00 00 00 00 00 00 00 00 00 00 00 00 00 00 ................
0040BFF0 00 00 00 00 00 00 00 00 00 00 00 00 00 00 00 00 ................
0040C000 00 00 00 00 00 00 00 00 00 00 00 00 00 00 00 00 ................
0040C010 00 00 00 00 00 00 00 00 00 00 00 00 00 00 00 00 ................
0040C020 00 00 00 00 00 00 00 00 00 00 00 00 00 00 00 00 ................
0040C030 00 00 00 00 00 00 00 00 00 00 00 00 00 00 00 00 ................
0040C040 00 00 00 00 00 00 00 00 00 00 00 00 00 00 00 00 ................
0040C050 00 00 00 00 00 00 00 00 00 00 00 00 00 00 00 00 ................
0040C060 00 00 00 00 00 00 00 00 00 00 00 00 00 00 00 00 ................
0040C070 00 00 00 00 00 00 00 00 00 00 00 00 00 00 00 00 ................
0040C080 00 00 00 00 00 00 00 00 00 00 00 00 00 00 00 00 ................
0040C090 00 00 00 00 00 00 00 00 00 00 00 00 00 00 00 00 ................
0040C0A0 00 00 00 00 00 00 00 00 00 00 00 00 00 00 00 00 ................
0040C0B0 00 00 00 00 00 00 00 00 00 00 00 00 00 00 00 00 ................
0040C0C0 00 00 00 00 00 00 00 00 00 00 00 00 00 00 00 00 ................
0040C0D0 00 00 00 00 00 00 00 00 00 00 00 00 00 00 00 00 ................
0040C0E0 00 00 00 00 00 00 00 00 00 00 00 00 00 00 00 00 ................
0040C0F0 00 00 00 00 00 00 00 00 00 00 00 00 00 00 00 00 ................
0040C100 00 00 00 00 00 00 00 00 00 00 00 00 00 00 00 00 ................
0040C110 00 00 00 00 00 00 00 00 00 00 00 00 00 00 00 00 ................
0040C120 00 00 00 00 00 00 00 00 00 00 00 00 00 00 00 00 ................
0040C130 00 00 00 00 00 00 00 00 00 00 00 00 00 00 00 00 ................
0040C140 00 00 00 00 00 00 00 00 00 00 00 00 00 00 00 00 ................
0040C150 00 00 00 00 00 00 00 00 00 00 00 00 00 00 00 00 ................
0040C160 00 00 00 00 00 00 00 00 00 00 00 00 00 00 00 00 ................
0040C170 00 00 00 00 00 00 00 00 00 00 00 00 00 00 00 00 ................
0040C180 00 00 00 00 00 00 00 00 00 00 00 00 00 00 00 00 ................
0040C190 00 00 00 00 00 00 00 00 00 00 00 00 00 00 00 00 ................
0040C1A0 00 00 00 00 00 00 00 00 00 00 00 00 00 00 00 00 ................
0040C1B0 00 00 00 00 00 00 00 00 00 00 00 00 00 00 00 00 ................
0040C1C0 00 00 00 00 00 00 00 00 00 00 00 00 00 00 00 00 ................
0040C1D0 00 00 00 00 00 00 00 00 00 00 00 00 00 00 00 00 ................
0040C1E0 00 00 00 00 00 00 00 00 00 00 00 00 00 00 00 00 ................
0040C1F0 00 00 00 00 00 00 00 00 00 00 00 00 00 00 00 00 ................
0040C200 00 00 00 00 00 00 00 00 00 00 00 00 00 00 00 00 ................
0040C210 00 00 00 00 00 00 00 00 00 00 00 00 00 00 00 00 ................
0040C220 00 00 00 00 00 00 00 00 00 00 00 00 00 00 00 00 ................
0040C230 00 00 00 00 00 00 00 00 00 00 00 00 00 00 00 00 ................
0040C240 00 00 00 00 00 00 00 00 00 00 00 00 00 00 00 00 ................
0040C250 00 00 00 00 00 00 00 00 00 00 00 00 00 00 00 00 ................
0040C260 00 00 00 00 00 00 00 00 00 00 00 00 00 00 00 00 ................
0040C270 00 00 00 00 00 00 00 00 00 00 00 00 00 00 00 00 ................
0040C280 00 00 00 00 00 00 00 00 00 00 00 00 00 00 00 00 ................
0040C290 00 00 00 00 00 00 00 00 00 00 00 00 00 00 00 00 ................
0040C2A0 00 00 00 00 00 00 00 00 00 00 00 00 00 00 00 00 ................
0040C2B0 00 00 00 00 00 00 00 00 00 00 00 00 00 00 00 00 ................
0040C2C0 00 00 00 00 00 00 00 00 00 00 00 00 00 00 00 00 ................
0040C2D0 00 00 00 00 00 00 00 00 00 00 00 00 00 00 00 00 ................
0040C2E0 00 00 00 00 00 00 00 00 00 00 00 00 00 00 00 00 ................
0040C2F0 00 00 00 00 00 00 00 00 00 00 00 00 00 00 00 00 ................
0040C300 00 00 00 00 00 00 00 00 00 00 00 00 00 00 00 00 ................
0040C310 00 00 00 00 00 00 00 00 00 00 00 00 00 00 00 00 ................
0040C320 00 00 00 00 00 00 00 00 00 00 00 00 00 00 00 00 ................
0040C330 00 00 00 00 00 00 00 00 00 00 00 00 00 00 00 00 ................
0040C340 00 00 00 00 00 00 00 00 00 00 00 00 00 00 00 00 ................
0040C350 00 00 00 00 00 00 00 00 00 00 00 00 00 00 00 00 ................
0040C360 00 00 00 00 00 00 00 00 00 00 00 00 00 00 00 00 ................
0040C370 00 00 00 00 00 00 00 00 00 00 00 00 00 00 00 00 ................
0040C380 00 00 00 00 00 00 00 00 00 00 00 00 00 00 00 00 ................
0040C390 00 00 00 00 00 00 00 00 00 00 00 00 00 00 00 00 ................
0040C3A0 00 00 00 00 00 00 00 00 00 00 00 00 00 00 00 00 ................
0040C3B0 00 00 00 00 00 00 00 00 00 00 00 00 00 00 00 00 ................
0040C3C0 00 00 00 00 00 00 00 00 00 00 00 00 00 00 00 00 ................
0040C3D0 00 00 00 00 00 00 00 00 00 00 00 00 00 00 00 00 ................
0040C3E0 00 00 00 00 00 00 00 00 00 00 00 00 00 00 00 00 ................
0040C3F0 00 00 00 00 00 00 00 00 00 00 00 00 00 00 00 00 ................
0040C400 00 00 00 00 00 00 00 00 00 00 00 00 00 00 00 00 ................
0040C410 00 00 00 00 00 00 00 00 00 00 00 00 00 00 00 00 ................
0040C420 00 00 00 00 00 00 00 00 00 00 00 00 00 00 00 00 ................
0040C430 00 00 00 00 00 00 00 00 00 00 00 00 00 00 00 00 ................
0040C440 00 00 00 00 00 00 00 00 00 00 00 00 00 00 00 00 ................
0040C450 00 00 00 00 00 00 00 00 00 00 00 00 00 00 00 00 ................
0040C460 00 00 00 00 00 00 00 00 00 00 00 00 00 00 00 00 ................
0040C470 00 00 00 00 00 00 00 00 00 00 00 00 00 00 00 00 ................
0040C480 00 00 00 00 00 00 00 00 00 00 00 00 00 00 00 00 ................
0040C490 00 00 00 00 00 00 00 00 00 00 00 00 00 00 00 00 ................
0040C4A0 00 00 00 00 00 00 00 00 00 00 00 00 00 00 00 00 ................
0040C4B0 00 00 00 00 00 00 00 00 00 00 00 00 00 00 00 00 ................
0040C4C0 00 00 00 00 00 00 00 00 00 00 00 00 00 00 00 00 ................
0040C4D0 00 00 00 00 00 00 00 00 00 00 00 00 00 00 00 00 ................
0040C4E0 00 00 00 00 00 00 00 00 00 00 00 00 00 00 00 00 ................
0040C4F0 00 00 00 00 00 00 00 00 00 00 00 00 00 00 00 00 ................
0040C500 00 00 00 00 00 00 00 00 00 00 00 00 00 00 00 00 ................
0040C510 00 00 00 00 00 00 00 00 00 00 00 00 00 00 00 00 ................
0040C520 00 00 00 00 00 00 00 00 00 00 00 00 00 00 00 00 ................
0040C530 00 00 00 00 00 00 00 00 00 00 00 00 00 00 00 00 ................
0040C540 00 00 00 00 00 00 00 00 00 00 00 00 00 00 00 00 ................
0040C550 00 00 00 00 00 00 00 00 00 00 00 00 00 00 00 00 ................
0040C560 00 00 00 00 00 00 00 00 00 00 00 00 00 00 00 00 ................
0040C570 00 00 00 00 00 00 00 00 00 00 00 00 00 00 00 00 ................
0040C580 00 00 00 00 00 00 00 00 00 00 00 00 00 00 00 00 ................
0040C590 00 00 00 00 00 00 00 00 00 00 00 00 00 00 00 00 ................
0040C5A0 00 00 00 00 00 00 00 00 00 00 00 00 00 00 00 00 ................
0040C5B0 00 00 00 00 00 00 00 00 00 00 00 00 00 00 00 00 ................
0040C5C0 00 00 00 00 00 00 00 00 00 00 00 00 00 00 00 00 ................
0040C5D0 00 00 00 00 00 00 00 00 00 00 00 00 00 00 00 00 ................
0040C5E0 00 00 00 00 00 00 00 00 00 00 00 00 00 00 00 00 ................
0040C5F0 00 00 00 00 00 00 00 00 00 00 00 00 00 00 00 00 ................
0040C600 00 00 00 00 00 00 00 00 00 00 00 00 00 00 00 00 ................
0040C610 00 00 00 00 00 00 00 00 00 00 00 00 00 00 00 00 ................
0040C620 00 00 00 00 00 00 00 00 00 00 00 00 00 00 00 00 ................
0040C630 00 00 00 00 00 00 00 00 00 00 00 00 00 00 00 00 ................
0040C640 00 00 00 00 00 00 00 00 00 00 00 00 00 00 00 00 ................
0040C650 00 00 00 00 00 00 00 00 00 00 00 00 00 00 00 00 ................
0040C660 00 00 00 00 00 00 00 00 00 00 00 00 00 00 00 00 ................
0040C670 00 00 00 00 00 00 00 00 00 00 00 00 00 00 00 00 ................
0040C680 00 00 00 00 00 00 00 00 00 00 00 00 00 00 00 00 ................
0040C690 00 00 00 00 00 00 00 00 00 00 00 00 00 00 00 00 ................
0040C6A0 00 00 00 00 00 00 00 00 00 00 00 00 00 00 00 00 ................
0040C6B0 00 00 00 00 00 00 00 00 00 00 00 00 00 00 00 00 ................
0040C6C0 00 00 00 00 00 00 00 00 00 00 00 00 00 00 00 00 ................
0040C6D0 00 00 00 00 00 00 00 00 00 00 00 00 00 00 00 00 ................
0040C6E0 00 00 00 00 00 00 00 00 00 00 00 00 00 00 00 00 ................
0040C6F0 00 00 00 00 00 00 00 00 00 00 00 00 00 00 00 00 ................
0040C700 00 00 00 00 00 00 00 00 00 00 00 00 00 00 00 00 ................
0040C710 00 00 00 00 00 00 00 00 00 00 00 00 00 00 00 00 ................
0040C720 00 00 00 00 00 00 00 00 00 00 00 00 00 00 00 00 ................
0040C730 00 00 00 00 00 00 00 00 00 00 00 00 00 00 00 00 ................
0040C740 00 00 00 00 00 00 00 00 00 00 00 00 00 00 00 00 ................
0040C750 00 00 00 00 00 00 00 00 00 00 00 00 00 00 00 00 ................
0040C760 00 00 00 00 00 00 00 00 00 00 00 00 00 00 00 00 ................
0040C770 00 00 00 00 00 00 00 00 00 00 00 00 00 00 00 00 ................
0040C780 00 00 00 00 00 00 00 00 00 00 00 00 00 00 00 00 ................
0040C790 00 00 00 00 00 00 00 00 00 00 00 00 00 00 00 00 ................
0040C7A0 00 00 00 00 00 00 00 00 00 00 00 00 00 00 00 00 ................
0040C7B0 00 00 00 00 00 00 00 00 00 00 00 00 00 00 00 00 ................
0040C7C0 00 00 00 00 00 00 00 00 00 00 00 00 00 00 00 00 ................
0040C7D0 00 00 00 00 00 00 00 00 00 00 00 00 00 00 00 00 ................
0040C7E0 00 00 00 00 00 00 00 00 00 00 00 00 00 00 00 00 ................
0040C7F0 00 00 00 00 00 00 00 00 00 00 00 00 00 00 00 00 ................
0040C800 00 00 00 00 00 00 00 00 00 00 00 00 00 00 00 00 ................
0040C810 00 00 00 00 00 00 00 00 00 00 00 00 00 00 00 00 ................
0040C820 00 00 00 00 00 00 00 00 00 00 00 00 00 00 00 00 ................
0040C830 00 00 00 00 00 00 00 00 00 00 00 00 00 00 00 00 ................
0040C840 00 00 00 00 00 00 00 00 00 00 00 00 00 00 00 00 ................
0040C850 00 00 00 00 00 00 00 00 00 00 00 00 00 00 00 00 ................
0040C860 00 00 00 00 00 00 00 00 00 00 00 00 00 00 00 00 ................
0040C870 00 00 00 00 00 00 00 00 00 00 00 00 00 00 00 00 ................
0040C880 00 00 00 00 00 00 00 00 00 00 00 00 00 00 00 00 ................
0040C890 00 00 00 00 00 00 00 00 00 00 00 00 00 00 00 00 ................
0040C8A0 00 00 00 00 00 00 00 00 00 00 00 00 00 00 00 00 ................
0040C8B0 00 00 00 00 00 00 00 00 00 00 00 00 00 00 00 00 ................
0040C8C0 00 00 00 00 00 00 00 00 00 00 00 00 00 00 00 00 ................
0040C8D0 00 00 00 00 00 00 00 00 00 00 00 00 00 00 00 00 ................
0040C8E0 00 00 00 00 00 00 00 00 00 00 00 00 00 00 00 00 ................
0040C8F0 00 00 00 00 00 00 00 00 00 00 00 00 00 00 00 00 ................
0040C900 00 00 00 00 00 00 00 00 00 00 00 00 00 00 00 00 ................
0040C910 00 00 00 00 00 00 00 00 00 00 00 00 00 00 00 00 ................
0040C920 00 00 00 00 00 00 00 00 00 00 00 00 00 00 00 00 ................
0040C930 00 00 00 00 00 00 00 00 00 00 00 00 00 00 00 00 ................
0040C940 00 00 00 00 00 00 00 00 00 00 00 00 00 00 00 00 ................
0040C950 00 00 00 00 00 00 00 00 00 00 00 00 00 00 00 00 ................
0040C960 00 00 00 00 00 00 00 00 00 00 00 00 00 00 00 00 ................
0040C970 00 00 00 00 00 00 00 00 00 00 00 00 00 00 00 00 ................
0040C980 00 00 00 00 00 00 00 00 00 00 00 00 00 00 00 00 ................
0040C990 00 00 00 00 00 00 00 00 00 00 00 00 00 00 00 00 ................
0040C9A0 00 00 00 00 00 00 00 00 00 00 00 00 00 00 00 00 ................
0040C9B0 00 00 00 00 00 00 00 00 00 00 00 00 00 00 00 00 ................
0040C9C0 00 00 00 00 00 00 00 00 00 00 00 00 00 00 00 00 ................
0040C9D0 00 00 00 00 00 00 00 00 00 00 00 00 00 00 00 00 ................
0040C9E0 00 00 00 00 00 00 00 00 00 00 00 00 00 00 00 00 ................
0040C9F0 00 00 00 00 00 00 00 00 00 00 00 00 00 00 00 00 ................
0040CA00 00 00 00 00 00 00 00 00 00 00 00 00 00 00 00 00 ................
0040CA10 00 00 00 00 00 00 00 00 00 00 00 00 00 00 00 00 ................
0040CA20 00 00 00 00 00 00 00 00 00 00 00 00 00 00 00 00 ................
0040CA30 00 00 00 00 00 00 00 00 00 00 00 00 00 00 00 00 ................
0040CA40 00 00 00 00 00 00 00 00 00 00 00 00 00 00 00 00 ................
0040CA50 00 00 00 00 00 00 00 00 00 00 00 00 00 00 00 00 ................
0040CA60 00 00 00 00 00 00 00 00 00 00 00 00 00 00 00 00 ................
0040CA70 00 00 00 00 00 00 00 00 00 00 00 00 00 00 00 00 ................
0040CA80 00 00 00 00 00 00 00 00 00 00 00 00 00 00 00 00 ................
0040CA90 00 00 00 00 00 00 00 00 00 00 00 00 00 00 00 00 ................
0040CAA0 00 00 00 00 00 00 00 00 00 00 00 00 00 00 00 00 ................
0040CAB0 00 00 00 00 00 00 00 00 00 00 00 00 00 00 00 00 ................
0040CAC0 00 00 00 00 00 00 00 00 00 00 00 00 00 00 00 00 ................
0040CAD0 00 00 00 00 00 00 00 00 00 00 00 00 00 00 00 00 ................
0040CAE0 00 00 00 00 00 00 00 00 00 00 00 00 00 00 00 00 ................
0040CAF0 00 00 00 00 00 00 00 00 00 00 00 00 00 00 00 00 ................
0040CB00 00 00 00 00 00 00 00 00 00 00 00 00 00 00 00 00 ................
0040CB10 00 00 00 00 00 00 00 00 00 00 00 00 00 00 00 00 ................
0040CB20 00 00 00 00 00 00 00 00 00 00 00 00 00 00 00 00 ................
0040CB30 00 00 00 00 00 00 00 00 00 00 00 00 00 00 00 00 ................
0040CB40 00 00 00 00 00 00 00 00 00 00 00 00 00 00 00 00 ................
0040CB50 00 00 00 00 00 00 00 00 00 00 00 00 00 00 00 00 ................
0040CB60 00 00 00 00 00 00 00 00 00 00 00 00 00 00 00 00 ................
0040CB70 00 00 00 00 00 00 00 00 00 00 00 00 00 00 00 00 ................
0040CB80 00 00 00 00 00 00 00 00 00 00 00 00 00 00 00 00 ................
0040CB90 00 00 00 00 00 00 00 00 00 00 00 00 00 00 00 00 ................
0040CBA0 00 00 00 00 00 00 00 00 00 00 00 00 00 00 00 00 ................
0040CBB0 00 00 00 00 00 00 00 00 00 00 00 00 00 00 00 00 ................
0040CBC0 00 00 00 00 00 00 00 00 00 00 00 00 00 00 00 00 ................
0040CBD0 00 00 00 00 00 00 00 00 00 00 00 00 00 00 00 00 ................
0040CBE0 00 00 00 00 00 00 00 00 00 00 00 00 00 00 00 00 ................
0040CBF0 00 00 00 00 00 00 00 00 00 00 00 00 00 00 00 00 ................
0040CC00 00 00 00 00 00 00 00 00 00 00 00 00 00 00 00 00 ................
0040CC10 00 00 00 00 00 00 00 00 00 00 00 00 00 00 00 00 ................
0040CC20 00 00 00 00 00 00 00 00 00 00 00 00 00 00 00 00 ................
0040CC30 00 00 00 00 00 00 00 00 00 00 00 00 00 00 00 00 ................
0040CC40 00 00 00 00 00 00 00 00 00 00 00 00 00 00 00 00 ................
0040CC50 00 00 00 00 00 00 00 00 00 00 00 00 00 00 00 00 ................
0040CC60 00 00 00 00 00 00 00 00 00 00 00 00 00 00 00 00 ................
0040CC70 00 00 00 00 00 00 00 00 00 00 00 00 00 00 00 00 ................
0040CC80 00 00 00 00 00 00 00 00 00 00 00 00 00 00 00 00 ................
0040CC90 00 00 00 00 00 00 00 00 00 00 00 00 00 00 00 00 ................
0040CCA0 00 00 00 00 00 00 00 00 00 00 00 00 00 00 00 00 ................
0040CCB0 00 00 00 00 00 00 00 00 00 00 00 00 00 00 00 00 ................
0040CCC0 00 00 00 00 00 00 00 00 00 00 00 00 00 00 00 00 ................
0040CCD0 00 00 00 00 00 00 00 00 00 00 00 00 00 00 00 00 ................
0040CCE0 00 00 00 00 00 00 00 00 00 00 00 00 00 00 00 00 ................
0040CCF0 00 00 00 00 00 00 00 00 00 00 00 00 00 00 00 00 ................
0040CD00 00 00 00 00 00 00 00 00 00 00 00 00 00 00 00 00 ................
0040CD10 00 00 00 00 00 00 00 00 00 00 00 00 00 00 00 00 ................
0040CD20 00 00 00 00 00 00 00 00 00 00 00 00 00 00 00 00 ................
0040CD30 00 00 00 00 00 00 00 00 00 00 00 00 00 00 00 00 ................
0040CD40 00 00 00 00 00 00 00 00 00 00 00 00 00 00 00 00 ................
0040CD50 00 00 00 00 00 00 00 00 00 00 00 00 00 00 00 00 ................
0040CD60 00 00 00 00 00 00 00 00 00 00 00 00 00 00 00 00 ................
0040CD70 00 00 00 00 00 00 00 00 00 00 00 00 00 00 00 00 ................
0040CD80 00 00 00 00 00 00 00 00 00 00 00 00 00 00 00 00 ................
0040CD90 00 00 00 00 00 00 00 00 00 00 00 00 00 00 00 00 ................
0040CDA0 00 00 00 00 00 00 00 00 00 00 00 00 00 00 00 00 ................
0040CDB0 00 00 00 00 00 00 00 00 00 00 00 00 00 00 00 00 ................
0040CDC0 00 00 00 00 00 00 00 00 00 00 00 00 00 00 00 00 ................
0040CDD0 00 00 00 00 00 00 00 00 00 00 00 00 00 00 00 00 ................
0040CDE0 00 00 00 00 00 00 00 00 00 00 00 00 00 00 00 00 ................
0040CDF0 00 00 00 00 00 00 00 00 00 00 00 00 00 00 00 00 ................
0040CE00 00 00 00 00 00 00 00 00 00 00 00 00 00 00 00 00 ................
0040CE10 00 00 00 00 00 00 00 00 00 00 00 00 00 00 00 00 ................
0040CE20 00 00 00 00 00 00 00 00 00 00 00 00 00 00 00 00 ................
0040CE30 00 00 00 00 00 00 00 00 00 00 00 00 00 00 00 00 ................
0040CE40 00 00 00 00 00 00 00 00 00 00 00 00 00 00 00 00 ................
0040CE50 00 00 00 00 00 00 00 00 00 00 00 00 00 00 00 00 ................
0040CE60 00 00 00 00 00 00 00 00 00 00 00 00 00 00 00 00 ................
0040CE70 00 00 00 00 00 00 00 00 00 00 00 00 00 00 00 00 ................
0040CE80 00 00 00 00 00 00 00 00 00 00 00 00 00 00 00 00 ................
0040CE90 00 00 00 00 00 00 00 00 00 00 00 00 00 00 00 00 ................
0040CEA0 00 00 00 00 00 00 00 00 00 00 00 00 00 00 00 00 ................
0040CEB0 00 00 00 00 00 00 00 00 00 00 00 00 00 00 00 00 ................
0040CEC0 00 00 00 00 00 00 00 00 00 00 00 00 00 00 00 00 ................
0040CED0 00 00 00 00 00 00 00 00 00 00 00 00 00 00 00 00 ................
0040CEE0 00 00 00 00 00 00 00 00 00 00 00 00 00 00 00 00 ................
0040CEF0 00 00 00 00 00 00 00 00 00 00 00 00 00 00 00 00 ................
0040CF00 00 00 00 00 00 00 00 00 00 00 00 00 00 00 00 00 ................
0040CF10 00 00 00 00 00 00 00 00 00 00 00 00 00 00 00 00 ................
0040CF20 00 00 00 00 00 00 00 00 00 00 00 00 00 00 00 00 ................
0040CF30 00 00 00 00 00 00 00 00 00 00 00 00 00 00 00 00 ................
0040CF40 00 00 00 00 00 00 00 00 00 00 00 00 00 00 00 00 ................
0040CF50 00 00 00 00 00 00 00 00 00 00 00 00 00 00 00 00 ................
0040CF60 00 00 00 00 00 00 00 00 00 00 00 00 00 00 00 00 ................
0040CF70 00 00 00 00 00 00 00 00 00 00 00 00 00 00 00 00 ................
0040CF80 00 00 00 00 00 00 00 00 00 00 00 00 00 00 00 00 ................
0040CF90 00 00 00 00 00 00 00 00 00 00 00 00 00 00 00 00 ................
0040CFA0 00 00 00 00 00 00 00 00 00 00 00 00 00 00 00 00 ................
0040CFB0 00 00 00 00 00 00 00 00 00 00 00 00 00 00 00 00 ................
0040CFC0 00 00 00 00 00 00 00 00 00 00 00 00 00 00 00 00 ................
0040CFD0 00 00 00 00 00 00 00 00 00 00 00 00 00 00 00 00 ................
0040CFE0 00 00 00 00 00 00 00 00 00 00 00 00 00 00 00 00 ................
0040CFF0 00 00 00 00 00 00 00 00 00 00 00 00 00 00 00 00 ................
0040D000 00 00 00 00 00 00 00 00 00 00 00 00 00 00 00 00 ................
0040D010 00 00 00 00 00 00 00 00 00 00 00 00 00 00 00 00 ................
0040D020 00 00 00 00 00 00 00 00 00 00 00 00 00 00 00 00 ................
0040D030 00 00 00 00 00 00 00 00 00 00 00 00 00 00 00 00 ................
0040D040 00 00 00 00 00 00 00 00 00 00 00 00 00 00 00 00 ................
0040D050 00 00 00 00 00 00 00 00 00 00 00 00 00 00 00 00 ................
0040D060 00 00 00 00 00 00 00 00 00 00 00 00 00 00 00 00 ................
0040D070 00 00 00 00 00 00 00 00 00 00 00 00 00 00 00 00 ................
0040D080 00 00 00 00 00 00 00 00 00 00 00 00 00 00 00 00 ................
0040D090 00 00 00 00 00 00 00 00 00 00 00 00 00 00 00 00 ................
0040D0A0 00 00 00 00 00 00 00 00 00 00 00 00 00 00 00 00 ................
0040D0B0 00 00 00 00 00 00 00 00 00 00 00 00 00 00 00 00 ................
0040D0C0 00 00 00 00 00 00 00 00 00 00 00 00 00 00 00 00 ................
0040D0D0 00 00 00 00 00 00 00 00 00 00 00 00 00 00 00 00 ................
0040D0E0 00 00 00 00 00 00 00 00 00 00 00 00 00 00 00 00 ................
0040D0F0 00 00 00 00 00 00 00 00 00 00 00 00 00 00 00 00 ................
0040D100 00 00 00 00 00 00 00 00 00 00 00 00 00 00 00 00 ................
0040D110 00 00 00 00 00 00 00 00 00 00 00 00 00 00 00 00 ................
0040D120 00 00 00 00 00 00 00 00 00 00 00 00 00 00 00 00 ................
0040D130 00 00 00 00 00 00 00 00 00 00 00 00 00 00 00 00 ................
0040D140 00 00 00 00 00 00 00 00 00 00 00 00 00 00 00 00 ................
0040D150 00 00 00 00 00 00 00 00 00 00 00 00 00 00 00 00 ................
0040D160 00 00 00 00 00 00 00 00 00 00 00 00 00 00 00 00 ................
0040D170 00 00 00 00 00 00 00 00 00 00 00 00 00 00 00 00 ................
0040D180 00 00 00 00 00 00 00 00 00 00 00 00 00 00 00 00 ................
0040D190 00 00 00 00 00 00 00 00 00 00 00 00 00 00 00 00 ................
0040D1A0 00 00 00 00 00 00 00 00 00 00 00 00 00 00 00 00 ................
0040D1B0 00 00 00 00 00 00 00 00 00 00 00 00 00 00 00 00 ................
0040D1C0 00 00 00 00 00 00 00 00 00 00 00 00 00 00 00 00 ................
0040D1D0 00 00 00 00 00 00 00 00 00 00 00 00 00 00 00 00 ................
0040D1E0 00 00 00 00 00 00 00 00 00 00 00 00 00 00 00 00 ................
0040D1F0 00 00 00 00 00 00 00 00 00 00 00 00 00 00 00 00 ................
0040D200 00 00 00 00 00 00 00 00 00 00 00 00 00 00 00 00 ................
0040D210 00 00 00 00 00 00 00 00 00 00 00 00 00 00 00 00 ................
0040D220 00 00 00 00 00 00 00 00 00 00 00 00 00 00 00 00 ................
0040D230 00 00 00 00 00 00 00 00 00 00 00 00 00 00 00 00 ................
0040D240 00 00 00 00 00 00 00 00 00 00 00 00 00 00 00 00 ................
0040D250 00 00 00 00 00 00 00 00 00 00 00 00 00 00 00 00 ................
0040D260 00 00 00 00 00 00 00 00 00 00 00 00 00 00 00 00 ................
0040D270 00 00 00 00 00 00 00 00 00 00 00 00 00 00 00 00 ................
0040D280 00 00 00 00 00 00 00 00 00 00 00 00 00 00 00 00 ................
0040D290 00 00 00 00 00 00 00 00 00 00 00 00 00 00 00 00 ................
0040D2A0 00 00 00 00 00 00 00 00 00 00 00 00 00 00 00 00 ................
0040D2B0 00 00 00 00 00 00 00 00 00 00 00 00 00 00 00 00 ................
0040D2C0 00 00 00 00 00 00 00 00 00 00 00 00 00 00 00 00 ................
0040D2D0 00 00 00 00 00 00 00 00 00 00 00 00 00 00 00 00 ................
0040D2E0 00 00 00 00 00 00 00 00 00 00 00 00 00 00 00 00 ................
0040D2F0 00 00 00 00 00 00 00 00 00 00 00 00 00 00 00 00 ................
0040D300 00 00 00 00 00 00 00 00 00 00 00 00 00 00 00 00 ................
0040D310 00 00 00 00 00 00 00 00 00 00 00 00 00 00 00 00 ................
0040D320 00 00 00 00 00 00 00 00 00 00 00 00 00 00 00 00 ................
0040D330 00 00 00 00 00 00 00 00 00 00 00 00 00 00 00 00 ................
0040D340 00 00 00 00 00 00 00 00 00 00 00 00 00 00 00 00 ................
0040D350 00 00 00 00 00 00 00 00 00 00 00 00 00 00 00 00 ................
0040D360 00 00 00 00 00 00 00 00 00 00 00 00 00 00 00 00 ................
0040D370 00 00 00 00 00 00 00 00 00 00 00 00 00 00 00 00 ................
0040D380 00 00 00 00 00 00 00 00 00 00 00 00 00 00 00 00 ................
0040D390 00 00 00 00 00 00 00 00 00 00 00 00 00 00 00 00 ................
0040D3A0 00 00 00 00 00 00 00 00 00 00 00 00 00 00 00 00 ................
0040D3B0 00 00 00 00 00 00 00 00 00 00 00 00 00 00 00 00 ................
0040D3C0 00 00 00 00 00 00 00 00 00 00 00 00 00 00 00 00 ................
0040D3D0 00 00 00 00 00 00 00 00 00 00 00 00 00 00 00 00 ................
0040D3E0 00 00 00 00 00 00 00 00 00 00 00 00 00 00 00 00 ................
0040D3F0 00 00 00 00 00 00 00 00 00 00 00 00 00 00 00 00 ................
0040D400 00 00 00 00 00 00 00 00 00 00 00 00 00 00 00 00 ................
0040D410 00 00 00 00 00 00 00 00 00 00 00 00 00 00 00 00 ................
0040D420 00 00 00 00 00 00 00 00 00 00 00 00 00 00 00 00 ................
0040D430 00 00 00 00 00 00 00 00 00 00 00 00 00 00 00 00 ................
0040D440 00 00 00 00 00 00 00 00 00 00 00 00 00 00 00 00 ................
0040D450 00 00 00 00 00 00 00 00 00 00 00 00 00 00 00 00 ................
0040D460 00 00 00 00 00 00 00 00 00 00 00 00 00 00 00 00 ................
0040D470 00 00 00 00 00 00 00 00 00 00 00 00 00 00 00 00 ................
0040D480 00 00 00 00 00 00 00 00 00 00 00 00 00 00 00 00 ................
0040D490 00 00 00 00 00 00 00 00 00 00 00 00 00 00 00 00 ................
0040D4A0 00 00 00 00 00 00 00 00 00 00 00 00 00 00 00 00 ................
0040D4B0 00 00 00 00 00 00 00 00 00 00 00 00 00 00 00 00 ................
0040D4C0 00 00 00 00 00 00 00 00 00 00 00 00 00 00 00 00 ................
0040D4D0 00 00 00 00 00 00 00 00 00 00 00 00 00 00 00 00 ................
0040D4E0 00 00 00 00 00 00 00 00 00 00 00 00 00 00 00 00 ................
0040D4F0 00 00 00 00 00 00 00 00 00 00 00 00 00 00 00 00 ................
0040D500 00 00 00 00 00 00 00 00 00 00 00 00 00 00 00 00 ................
0040D510 00 00 00 00 00 00 00 00 00 00 00 00 00 00 00 00 ................
0040D520 00 00 00 00 00 00 00 00 00 00 00 00 00 00 00 00 ................
0040D530 00 00 00 00 00 00 00 00 00 00 00 00 00 00 00 00 ................
0040D540 00 00 00 00 00 00 00 00 00 00 00 00 00 00 00 00 ................
0040D550 00 00 00 00 00 00 00 00 00 00 00 00 00 00 00 00 ................
0040D560 00 00 00 00 00 00 00 00 00 00 00 00 00 00 00 00 ................
0040D570 00 00 00 00 00 00 00 00 00 00 00 00 00 00 00 00 ................
0040D580 00 00 00 00 00 00 00 00 00 00 00 00 00 00 00 00 ................
0040D590 00 00 00 00 00 00 00 00 00 00 00 00 00 00 00 00 ................
0040D5A0 00 00 00 00 00 00 00 00 00 00 00 00 00 00 00 00 ................
0040D5B0 00 00 00 00 00 00 00 00 00 00 00 00 00 00 00 00 ................
0040D5C0 00 00 00 00 00 00 00 00 00 00 00 00 00 00 00 00 ................
0040D5D0 00 00 00 00 00 00 00 00 00 00 00 00 00 00 00 00 ................
0040D5E0 00 00 00 00 00 00 00 00 00 00 00 00 00 00 00 00 ................
0040D5F0 00 00 00 00 00 00 00 00 00 00 00 00 00 00 00 00 ................
0040D600 00 00 00 00 00 00 00 00 00 00 00 00 00 00 00 00 ................
0040D610 00 00 00 00 00 00 00 00 00 00 00 00 00 00 00 00 ................
0040D620 00 00 00 00 00 00 00 00 00 00 00 00 00 00 00 00 ................
0040D630 00 00 00 00 00 00 00 00 00 00 00 00 00 00 00 00 ................
0040D640 00 00 00 00 00 00 00 00 00 00 00 00 00 00 00 00 ................
0040D650 00 00 00 00 00 00 00 00 00 00 00 00 00 00 00 00 ................
0040D660 00 00 00 00 00 00 00 00 00 00 00 00 00 00 00 00 ................
0040D670 00 00 00 00 00 00 00 00 00 00 00 00 00 00 00 00 ................
0040D680 00 00 00 00 00 00 00 00 00 00 00 00 00 00 00 00 ................
0040D690 00 00 00 00 00 00 00 00 00 00 00 00 00 00 00 00 ................
0040D6A0 00 00 00 00 00 00 00 00 00 00 00 00 00 00 00 00 ................
0040D6B0 00 00 00 00 00 00 00 00 00 00 00 00 00 00 00 00 ................
0040D6C0 00 00 00 00 00 00 00 00 00 00 00 00 00 00 00 00 ................
0040D6D0 00 00 00 00 00 00 00 00 00 00 00 00 00 00 00 00 ................
0040D6E0 00 00 00 00 00 00 00 00 00 00 00 00 00 00 00 00 ................
0040D6F0 00 00 00 00 00 00 00 00 00 00 00 00 00 00 00 00 ................
0040D700 00 00 00 00 00 00 00 00 00 00 00 00 00 00 00 00 ................
0040D710 00 00 00 00 00 00 00 00 00 00 00 00 00 00 00 00 ................
0040D720 00 00 00 00 00 00 00 00 00 00 00 00 00 00 00 00 ................
0040D730 00 00 00 00 00 00 00 00 00 00 00 00 00 00 00 00 ................
0040D740 00 00 00 00 00 00 00 00 00 00 00 00 00 00 00 00 ................
0040D750 00 00 00 00 00 00 00 00 00 00 00 00 00 00 00 00 ................
0040D760 00 00 00 00 00 00 00 00 00 00 00 00 00 00 00 00 ................
0040D770 00 00 00 00 00 00 00 00 00 00 00 00 00 00 00 00 ................
0040D780 00 00 00 00 00 00 00 00 00 00 00 00 00 00 00 00 ................
0040D790 00 00 00 00 00 00 00 00 00 00 00 00 00 00 00 00 ................
0040D7A0 00 00 00 00 00 00 00 00 00 00 00 00 00 00 00 00 ................
0040D7B0 00 00 00 00 00 00 00 00 00 00 00 00 00 00 00 00 ................
0040D7C0 00 00 00 00 00 00 00 00 00 00 00 00 00 00 00 00 ................
0040D7D0 00 00 00 00 00 00 00 00 00 00 00 00 00 00 00 00 ................
0040D7E0 00 00 00 00 00 00 00 00 00 00 00 00 00 00 00 00 ................
0040D7F0 00 00 00 00 00 00 00 00 00 00 00 00 00 00 00 00 ................
0040D800 00 00 00 00 00 00 00 00 00 00 00 00 00 00 00 00 ................
0040D810 00 00 00 00 00 00 00 00 00 00 00 00 00 00 00 00 ................
0040D820 00 00 00 00 00 00 00 00 00 00 00 00 00 00 00 00 ................
0040D830 00 00 00 00 00 00 00 00 00 00 00 00 00 00 00 00 ................
0040D840 00 00 00 00 00 00 00 00 00 00 00 00 00 00 00 00 ................
0040D850 00 00 00 00 00 00 00 00 00 00 00 00 00 00 00 00 ................
0040D860 00 00 00 00 00 00 00 00 00 00 00 00 00 00 00 00 ................
0040D870 00 00 00 00 00 00 00 00 00 00 00 00 00 00 00 00 ................
0040D880 00 00 00 00 00 00 00 00 00 00 00 00 00 00 00 00 ................
0040D890 00 00 00 00 00 00 00 00 00 00 00 00 00 00 00 00 ................
0040D8A0 00 00 00 00 00 00 00 00 00 00 00 00 00 00 00 00 ................
0040D8B0 00 00 00 00 00 00 00 00 00 00 00 00 00 00 00 00 ................
0040D8C0 00 00 00 00 00 00 00 00 00 00 00 00 00 00 00 00 ................
0040D8D0 00 00 00 00 00 00 00 00 00 00 00 00 00 00 00 00 ................
0040D8E0 00 00 00 00 00 00 00 00 00 00 00 00 00 00 00 00 ................
0040D8F0 00 00 00 00 00 00 00 00 00 00 00 00 00 00 00 00 ................
0040D900 00 00 00 00 00 00 00 00 00 00 00 00 00 00 00 00 ................
0040D910 00 00 00 00 00 00 00 00 00 00 00 00 00 00 00 00 ................
0040D920 00 00 00 00 00 00 00 00 00 00 00 00 00 00 00 00 ................
0040D930 00 00 00 00 00 00 00 00 00 00 00 00 00 00 00 00 ................
0040D940 00 00 00 00 00 00 00 00 00 00 00 00 00 00 00 00 ................
0040D950 00 00 00 00 00 00 00 00 00 00 00 00 00 00 00 00 ................
0040D960 00 00 00 00 00 00 00 00 00 00 00 00 00 00 00 00 ................
0040D970 00 00 00 00 00 00 00 00 00 00 00 00 00 00 00 00 ................
0040D980 00 00 00 00 00 00 00 00 00 00 00 00 00 00 00 00 ................
0040D990 00 00 00 00 00 00 00 00 00 00 00 00 00 00 00 00 ................
0040D9A0 00 00 00 00 00 00 00 00 00 00 00 00 00 00 00 00 ................
0040D9B0 00 00 00 00 00 00 00 00 00 00 00 00 00 00 00 00 ................
0040D9C0 00 00 00 00 00 00 00 00 00 00 00 00 00 00 00 00 ................
0040D9D0 00 00 00 00 00 00 00 00 00 00 00 00 00 00 00 00 ................
0040D9E0 00 00 00 00 00 00 00 00 00 00 00 00 00 00 00 00 ................
0040D9F0 00 00 00 00 00 00 00 00 00 00 00 00 00 00 00 00 ................
0040DA00 00 00 00 00 00 00 00 00 00 00 00 00 00 00 00 00 ................
0040DA10 00 00 00 00 00 00 00 00 00 00 00 00 00 00 00 00 ................
0040DA20 00 00 00 00 00 00 00 00 00 00 00 00 00 00 00 00 ................
0040DA30 00 00 00 00 00 00 00 00 00 00 00 00 00 00 00 00 ................
0040DA40 00 00 00 00 00 00 00 00 00 00 00 00 00 00 00 00 ................
0040DA50 00 00 00 00 00 00 00 00 00 00 00 00 00 00 00 00 ................
0040DA60 00 00 00 00 00 00 00 00 00 00 00 00 00 00 00 00 ................
0040DA70 00 00 00 00 00 00 00 00 00 00 00 00 00 00 00 00 ................
0040DA80 00 00 00 00 00 00 00 00 00 00 00 00 00 00 00 00 ................
0040DA90 00 00 00 00 00 00 00 00 00 00 00 00 00 00 00 00 ................
0040DAA0 00 00 00 00 00 00 00 00 00 00 00 00 00 00 00 00 ................
0040DAB0 00 00 00 00 00 00 00 00 00 00 00 00 00 00 00 00 ................
0040DAC0 00 00 00 00 00 00 00 00 00 00 00 00 00 00 00 00 ................
0040DAD0 00 00 00 00 00 00 00 00 00 00 00 00 00 00 00 00 ................
0040DAE0 00 00 00 00 00 00 00 00 00 00 00 00 00 00 00 00 ................
0040DAF0 00 00 00 00 00 00 00 00 00 00 00 00 00 00 00 00 ................
0040DB00 00 00 00 00 00 00 00 00 00 00 00 00 00 00 00 00 ................
0040DB10 00 00 00 00 00 00 00 00 00 00 00 00 00 00 00 00 ................
0040DB20 00 00 00 00 00 00 00 00 00 00 00 00 00 00 00 00 ................
0040DB30 00 00 00 00 00 00 00 00 00 00 00 00 00 00 00 00 ................
0040DB40 00 00 00 00 00 00 00 00 00 00 00 00 00 00 00 00 ................
0040DB50 00 00 00 00 00 00 00 00 00 00 00 00 00 00 00 00 ................
0040DB60 00 00 00 00 00 00 00 00 00 00 00 00 00 00 00 00 ................
0040DB70 00 00 00 00 00 00 00 00 00 00 00 00 00 00 00 00 ................
0040DB80 00 00 00 00 00 00 00 00 00 00 00 00 00 00 00 00 ................
0040DB90 00 00 00 00 00 00 00 00 00 00 00 00 00 00 00 00 ................
0040DBA0 00 00 00 00 00 00 00 00 00 00 00 00 00 00 00 00 ................
0040DBB0 00 00 00 00 00 00 00 00 00 00 00 00 00 00 00 00 ................
0040DBC0 00 00 00 00 00 00 00 00 00 00 00 00 00 00 00 00 ................
0040DBD0 00 00 00 00 00 00 00 00 00 00 00 00 00 00 00 00 ................
0040DBE0 00 00 00 00 00 00 00 00 00 00 00 00 00 00 00 00 ................
0040DBF0 00 00 00 00 00 00 00 00 00 00 00 00 00 00 00 00 ................
0040DC00 00 00 00 00 00 00 00 00 00 00 00 00 00 00 00 00 ................
0040DC10 00 00 00 00 00 00 00 00 00 00 00 00 00 00 00 00 ................
0040DC20 00 00 00 00 00 00 00 00 00 00 00 00 00 00 00 00 ................
0040DC30 00 00 00 00 00 00 00 00 00 00 00 00 00 00 00 00 ................
0040DC40 00 00 00 00 00 00 00 00 00 00 00 00 00 00 00 00 ................
0040DC50 00 00 00 00 00 00 00 00 00 00 00 00 00 00 00 00 ................
0040DC60 00 00 00 00 00 00 00 00 00 00 00 00 00 00 00 00 ................
0040DC70 00 00 00 00 00 00 00 00 00 00 00 00 00 00 00 00 ................
0040DC80 00 00 00 00 00 00 00 00 00 00 00 00 00 00 00 00 ................
0040DC90 00 00 00 00 00 00 00 00 00 00 00 00 00 00 00 00 ................
0040DCA0 00 00 00 00 00 00 00 00 00 00 00 00 00 00 00 00 ................
0040DCB0 00 00 00 00 00 00 00 00 00 00 00 00 00 00 00 00 ................
0040DCC0 00 00 00 00 00 00 00 00 00 00 00 00 00 00 00 00 ................
0040DCD0 00 00 00 00 00 00 00 00 00 00 00 00 00 00 00 00 ................
0040DCE0 00 00 00 00 00 00 00 00 00 00 00 00 00 00 00 00 ................
0040DCF0 00 00 00 00 00 00 00 00 00 00 00 00 00 00 00 00 ................
0040DD00 00 00 00 00 00 00 00 00 00 00 00 00 00 00 00 00 ................
0040DD10 00 00 00 00 00 00 00 00 00 00 00 00 00 00 00 00 ................
0040DD20 00 00 00 00 00 00 00 00 00 00 00 00 00 00 00 00 ................
0040DD30 00 00 00 00 00 00 00 00 00 00 00 00 00 00 00 00 ................
0040DD40 00 00 00 00 00 00 00 00 00 00 00 00 00 00 00 00 ................
0040DD50 00 00 00 00 00 00 00 00 00 00 00 00 00 00 00 00 ................
0040DD60 00 00 00 00 00 00 00 00 00 00 00 00 00 00 00 00 ................
0040DD70 00 00 00 00 00 00 00 00 00 00 00 00 00 00 00 00 ................
0040DD80 00 00 00 00 00 00 00 00 00 00 00 00 00 00 00 00 ................
0040DD90 00 00 00 00 00 00 00 00 00 00 00 00 00 00 00 00 ................
0040DDA0 00 00 00 00 00 00 00 00 00 00 00 00 00 00 00 00 ................
0040DDB0 00 00 00 00 00 00 00 00 00 00 00 00 00 00 00 00 ................
0040DDC0 00 00 00 00 00 00 00 00 00 00 00 00 00 00 00 00 ................
0040DDD0 00 00 00 00 00 00 00 00 00 00 00 00 00 00 00 00 ................
0040DDE0 00 00 00 00 00 00 00 00 00 00 00 00 00 00 00 00 ................
0040DDF0 00 00 00 00 00 00 00 00 00 00 00 00 00 00 00 00 ................
0040DE00 00 00 00 00 00 00 00 00 00 00 00 00 00 00 00 00 ................
0040DE10 00 00 00 00 00 00 00 00 00 00 00 00 00 00 00 00 ................
0040DE20 00 00 00 00 00 00 00 00 00 00 00 00 00 00 00 00 ................
0040DE30 00 00 00 00 00 00 00 00 00 00 00 00 00 00 00 00 ................
0040DE40 00 00 00 00 00 00 00 00 00 00 00 00 00 00 00 00 ................
0040DE50 00 00 00 00 00 00 00 00 00 00 00 00 00 00 00 00 ................
0040DE60 00 00 00 00 00 00 00 00 00 00 00 00 00 00 00 00 ................
0040DE70 00 00 00 00 00 00 00 00 00 00 00 00 00 00 00 00 ................
0040DE80 00 00 00 00 00 00 00 00 00 00 00 00 00 00 00 00 ................
0040DE90 00 00 00 00 00 00 00 00 00 00 00 00 00 00 00 00 ................
0040DEA0 00 00 00 00 00 00 00 00 00 00 00 00 00 00 00 00 ................
0040DEB0 00 00 00 00 00 00 00 00 00 00 00 00 00 00 00 00 ................
0040DEC0 00 00 00 00 00 00 00 00 00 00 00 00 00 00 00 00 ................
0040DED0 00 00 00 00 00 00 00 00 00 00 00 00 00 00 00 00 ................
0040DEE0 00 00 00 00 00 00 00 00 00 00 00 00 00 00 00 00 ................
0040DEF0 00 00 00 00 00 00 00 00 00 00 00 00 00 00 00 00 ................
0040DF00 00 00 00 00 00 00 00 00 00 00 00 00 00 00 00 00 ................
0040DF10 00 00 00 00 00 00 00 00 00 00 00 00 00 00 00 00 ................
0040DF20 00 00 00 00 00 00 00 00 00 00 00 00 00 00 00 00 ................
0040DF30 00 00 00 00 00 00 00 00 00 00 00 00 00 00 00 00 ................
0040DF40 00 00 00 00 00 00 00 00 00 00 00 00 00 00 00 00 ................
0040DF50 00 00 00 00 00 00 00 00 00 00 00 00 00 00 00 00 ................
0040DF60 00 00 00 00 00 00 00 00 00 00 00 00 00 00 00 00 ................
0040DF70 00 00 00 00 00 00 00 00 00 00 00 00 00 00 00 00 ................
0040DF80 00 00 00 00 00 00 00 00 00 00 00 00 00 00 00 00 ................
0040DF90 00 00 00 00 00 00 00 00 00 00 00 00 00 00 00 00 ................
0040DFA0 00 00 00 00 00 00 00 00 00 00 00 00 00 00 00 00 ................
0040DFB0 00 00 00 00 00 00 00 00 00 00 00 00 00 00 00 00 ................
0040DFC0 00 00 00 00 00 00 00 00 00 00 00 00 00 00 00 00 ................
0040DFD0 00 00 00 00 00 00 00 00 00 00 00 00 00 00 00 00 ................
0040DFE0 00 00 00 00 00 00 00 00 00 00 00 00 00 00 00 00 ................
0040DFF0 00 00 00 00 00 00 00 00 00 00 00 00 00 00 00 00 ................
0040E000 00 00 00 00 00 00 00 00 00 00 00 00 00 00 00 00 ................
0040E010 00 00 00 00 00 00 00 00 00 00 00 00 00 00 00 00 ................
0040E020 00 00 00 00 00 00 00 00 00 00 00 00 00 00 00 00 ................
0040E030 00 00 00 00 00 00 00 00 00 00 00 00 00 00 00 00 ................
0040E040 00 00 00 00 00 00 00 00 00 00 00 00 00 00 00 00 ................
0040E050 00 00 00 00 00 00 00 00 00 00 00 00 00 00 00 00 ................
0040E060 00 00 00 00 00 00 00 00 00 00 00 00 00 00 00 00 ................
0040E070 00 00 00 00 00 00 00 00 00 00 00 00 00 00 00 00 ................
0040E080 00 00 00 00 00 00 00 00 00 00 00 00 00 00 00 00 ................
0040E090 00 00 00 00 00 00 00 00 00 00 00 00 00 00 00 00 ................
0040E0A0 00 00 00 00 00 00 00 00 00 00 00 00 00 00 00 00 ................
0040E0B0 00 00 00 00 00 00 00 00 00 00 00 00 00 00 00 00 ................
0040E0C0 00 00 00 00 00 00 00 00 00 00 00 00 00 00 00 00 ................
0040E0D0 00 00 00 00 00 00 00 00 00 00 00 00 00 00 00 00 ................
0040E0E0 00 00 00 00 00 00 00 00 00 00 00 00 00 00 00 00 ................
0040E0F0 00 00 00 00 00 00 00 00 00 00 00 00 00 00 00 00 ................
0040E100 00 00 00 00 00 00 00 00 00 00 00 00 00 00 00 00 ................
0040E110 00 00 00 00 00 00 00 00 00 00 00 00 00 00 00 00 ................
0040E120 00 00 00 00 00 00 00 00 00 00 00 00 00 00 00 00 ................
0040E130 00 00 00 00 00 00 00 00 00 00 00 00 00 00 00 00 ................
0040E140 00 00 00 00 00 00 00 00 00 00 00 00 00 00 00 00 ................
0040E150 00 00 00 00 00 00 00 00 00 00 00 00 00 00 00 00 ................
0040E160 00 00 00 00 00 00 00 00 00 00 00 00 00 00 00 00 ................
0040E170 00 00 00 00 00 00 00 00 00 00 00 00 00 00 00 00 ................
0040E180 00 00 00 00 00 00 00 00 00 00 00 00 00 00 00 00 ................
0040E190 00 00 00 00 00 00 00 00 00 00 00 00 00 00 00 00 ................
0040E1A0 00 00 00 00 00 00 00 00 00 00 00 00 00 00 00 00 ................
0040E1B0 00 00 00 00 00 00 00 00 00 00 00 00 00 00 00 00 ................
0040E1C0 00 00 00 00 00 00 00 00 00 00 00 00 00 00 00 00 ................
0040E1D0 00 00 00 00 00 00 00 00 00 00 00 00 00 00 00 00 ................
0040E1E0 00 00 00 00 00 00 00 00 00 00 00 00 00 00 00 00 ................
0040E1F0 00 00 00 00 00 00 00 00 00 00 00 00 00 00 00 00 ................
0040E200 00 00 00 00 00 00 00 00 00 00 00 00 00 00 00 00 ................
0040E210 00 00 00 00 00 00 00 00 00 00 00 00 00 00 00 00 ................
0040E220 00 00 00 00 00 00 00 00 00 00 00 00 00 00 00 00 ................
0040E230 00 00 00 00 00 00 00 00 00 00 00 00 00 00 00 00 ................
0040E240 00 00 00 00 00 00 00 00 00 00 00 00 00 00 00 00 ................
0040E250 00 00 00 00 00 00 00 00 00 00 00 00 00 00 00 00 ................
0040E260 00 00 00 00 00 00 00 00 00 00 00 00 00 00 00 00 ................
0040E270 00 00 00 00 00 00 00 00 00 00 00 00 00 00 00 00 ................
0040E280 00 00 00 00 00 00 00 00 00 00 00 00 00 00 00 00 ................
0040E290 00 00 00 00 00 00 00 00 00 00 00 00 00 00 00 00 ................
0040E2A0 00 00 00 00 00 00 00 00 00 00 00 00 00 00 00 00 ................
0040E2B0 00 00 00 00 00 00 00 00 00 00 00 00 00 00 00 00 ................
0040E2C0 00 00 00 00 00 00 00 00 00 00 00 00 00 00 00 00 ................
0040E2D0 00 00 00 00 00 00 00 00 00 00 00 00 00 00 00 00 ................
0040E2E0 00 00 00 00 00 00 00 00 00 00 00 00 00 00 00 00 ................
0040E2F0 00 00 00 00 00 00 00 00 00 00 00 00 00 00 00 00 ................
0040E300 00 00 00 00 00 00 00 00 00 00 00 00 00 00 00 00 ................
0040E310 00 00 00 00 00 00 00 00 00 00 00 00 00 00 00 00 ................
0040E320 00 00 00 00 00 00 00 00 00 00 00 00 00 00 00 00 ................
0040E330 00 00 00 00 00 00 00 00 00 00 00 00 00 00 00 00 ................
0040E340 00 00 00 00 00 00 00 00 00 00 00 00 00 00 00 00 ................
0040E350 00 00 00 00 00 00 00 00 00 00 00 00 00 00 00 00 ................
0040E360 00 00 00 00 00 00 00 00 00 00 00 00 00 00 00 00 ................
0040E370 00 00 00 00 00 00 00 00 00 00 00 00 00 00 00 00 ................
0040E380 00 00 00 00 00 00 00 00 00 00 00 00 00 00 00 00 ................
0040E390 00 00 00 00 00 00 00 00 00 00 00 00 00 00 00 00 ................
0040E3A0 00 00 00 00 00 00 00 00 00 00 00 00 00 00 00 00 ................
0040E3B0 00 00 00 00 00 00 00 00 00 00 00 00 00 00 00 00 ................
0040E3C0 00 00 00 00 00 00 00 00 00 00 00 00 00 00 00 00 ................
0040E3D0 00 00 00 00 00 00 00 00 00 00 00 00 00 00 00 00 ................
0040E3E0 00 00 00 00 00 00 00 00 00 00 00 00 00 00 00 00 ................
0040E3F0 00 00 00 00 00 00 00 00 00 00 00 00 00 00 00 00 ................
0040E400 00 00 00 00 00 00 00 00 00 00 00 00 00 00 00 00 ................
0040E410 00 00 00 00 00 00 00 00 00 00 00 00 00 00 00 00 ................
0040E420 00 00 00 00 00 00 00 00 00 00 00 00 00 00 00 00 ................
0040E430 00 00 00 00 00 00 00 00 00 00 00 00 00 00 00 00 ................
0040E440 00 00 00 00 00 00 00 00 00 00 00 00 00 00 00 00 ................
0040E450 00 00 00 00 00 00 00 00 00 00 00 00 00 00 00 00 ................
0040E460 00 00 00 00 00 00 00 00 00 00 00 00 00 00 00 00 ................
0040E470 00 00 00 00 00 00 00 00 00 00 00 00 00 00 00 00 ................
0040E480 00 00 00 00 00 00 00 00 00 00 00 00 00 00 00 00 ................
0040E490 00 00 00 00 00 00 00 00 00 00 00 00 00 00 00 00 ................
0040E4A0 00 00 00 00 00 00 00 00 00 00 00 00 00 00 00 00 ................
0040E4B0 00 00 00 00 00 00 00 00 00 00 00 00 00 00 00 00 ................
0040E4C0 00 00 00 00 00 00 00 00 00 00 00 00 00 00 00 00 ................
0040E4D0 00 00 00 00 00 00 00 00 00 00 00 00 00 00 00 00 ................
0040E4E0 00 00 00 00 00 00 00 00 00 00 00 00 00 00 00 00 ................
0040E4F0 00 00 00 00 00 00 00 00 00 00 00 00 00 00 00 00 ................
0040E500 00 00 00 00 00 00 00 00 00 00 00 00 00 00 00 00 ................
0040E510 00 00 00 00 00 00 00 00 00 00 00 00 00 00 00 00 ................
0040E520 00 00 00 00 00 00 00 00 00 00 00 00 00 00 00 00 ................
0040E530 00 00 00 00 00 00 00 00 00 00 00 00 00 00 00 00 ................
0040E540 00 00 00 00 00 00 00 00 00 00 00 00 00 00 00 00 ................
0040E550 00 00 00 00 00 00 00 00 00 00 00 00 00 00 00 00 ................
0040E560 00 00 00 00 00 00 00 00 00 00 00 00 00 00 00 00 ................
0040E570 00 00 00 00 00 00 00 00 00 00 00 00 00 00 00 00 ................
0040E580 00 00 00 00 00 00 00 00 00 00 00 00 00 00 00 00 ................
0040E590 00 00 00 00 00 00 00 00 00 00 00 00 00 00 00 00 ................
0040E5A0 00 00 00 00 00 00 00 00 00 00 00 00 00 00 00 00 ................
0040E5B0 00 00 00 00 00 00 00 00 00 00 00 00 00 00 00 00 ................
0040E5C0 00 00 00 00 00 00 00 00 00 00 00 00 00 00 00 00 ................
0040E5D0 00 00 00 00 00 00 00 00 00 00 00 00 00 00 00 00 ................
0040E5E0 00 00 00 00 00 00 00 00 00 00 00 00 00 00 00 00 ................
0040E5F0 00 00 00 00 00 00 00 00 00 00 00 00 00 00 00 00 ................
0040E600 00 00 00 00 00 00 00 00 00 00 00 00 00 00 00 00 ................
0040E610 00 00 00 00 00 00 00 00 00 00 00 00 00 00 00 00 ................
0040E620 00 00 00 00 00 00 00 00 00 00 00 00 00 00 00 00 ................
0040E630 00 00 00 00 00 00 00 00 00 00 00 00 00 00 00 00 ................
0040E640 00 00 00 00 00 00 00 00 00 00 00 00 00 00 00 00 ................
0040E650 00 00 00 00 00 00 00 00 00 00 00 00 00 00 00 00 ................
0040E660 00 00 00 00 00 00 00 00 00 00 00 00 00 00 00 00 ................
0040E670 00 00 00 00 00 00 00 00 00 00 00 00 00 00 00 00 ................
0040E680 00 00 00 00 00 00 00 00 00 00 00 00 00 00 00 00 ................
0040E690 00 00 00 00 00 00 00 00 00 00 00 00 00 00 00 00 ................
0040E6A0 00 00 00 00 00 00 00 00 00 00 00 00 00 00 00 00 ................
0040E6B0 00 00 00 00 00 00 00 00 00 00 00 00 00 00 00 00 ................
0040E6C0 00 00 00 00 00 00 00 00 00 00 00 00 00 00 00 00 ................
0040E6D0 00 00 00 00 00 00 00 00 00 00 00 00 00 00 00 00 ................
0040E6E0 00 00 00 00 00 00 00 00 00 00 00 00 00 00 00 00 ................
0040E6F0 00 00 00 00 00 00 00 00 00 00 00 00 00 00 00 00 ................
0040E700 00 00 00 00 00 00 00 00 00 00 00 00 00 00 00 00 ................
0040E710 00 00 00 00 00 00 00 00 00 00 00 00 00 00 00 00 ................
0040E720 00 00 00 00 00 00 00 00 00 00 00 00 00 00 00 00 ................
0040E730 00 00 00 00 00 00 00 00 00 00 00 00 00 00 00 00 ................
0040E740 00 00 00 00 00 00 00 00 00 00 00 00 00 00 00 00 ................
0040E750 00 00 00 00 00 00 00 00 00 00 00 00 00 00 00 00 ................
0040E760 00 00 00 00 00 00 00 00 00 00 00 00 00 00 00 00 ................
0040E770 00 00 00 00 00 00 00 00 00 00 00 00 00 00 00 00 ................
0040E780 00 00 00 00 00 00 00 00 00 00 00 00 00 00 00 00 ................
0040E790 00 00 00 00 00 00 00 00 00 00 00 00 00 00 00 00 ................
0040E7A0 00 00 00 00 00 00 00 00 00 00 00 00 00 00 00 00 ................
0040E7B0 00 00 00 00 00 00 00 00 00 00 00 00 00 00 00 00 ................
0040E7C0 00 00 00 00 00 00 00 00 00 00 00 00 00 00 00 00 ................
0040E7D0 00 00 00 00 00 00 00 00 00 00 00 00 00 00 00 00 ................
0040E7E0 00 00 00 00 00 00 00 00 00 00 00 00 00 00 00 00 ................
0040E7F0 00 00 00 00 00 00 00 00 00 00 00 00 00 00 00 00 ................
0040E800 00 00 00 00 00 00 00 00 00 00 00 00 00 00 00 00 ................
0040E810 00 00 00 00 00 00 00 00 00 00 00 00 00 00 00 00 ................
0040E820 00 00 00 00 00 00 00 00 00 00 00 00 00 00 00 00 ................
0040E830 00 00 00 00 00 00 00 00 00 00 00 00 00 00 00 00 ................
0040E840 00 00 00 00 00 00 00 00 00 00 00 00 00 00 00 00 ................
0040E850 00 00 00 00 00 00 00 00 00 00 00 00 00 00 00 00 ................
0040E860 00 00 00 00 00 00 00 00 00 00 00 00 00 00 00 00 ................
0040E870 00 00 00 00 00 00 00 00 00 00 00 00 00 00 00 00 ................
0040E880 00 00 00 00 00 00 00 00 00 00 00 00 00 00 00 00 ................
0040E890 00 00 00 00 00 00 00 00 00 00 00 00 00 00 00 00 ................
0040E8A0 00 00 00 00 00 00 00 00 00 00 00 00 00 00 00 00 ................
0040E8B0 00 00 00 00 00 00 00 00 00 00 00 00 00 00 00 00 ................
0040E8C0 00 00 00 00 00 00 00 00 00 00 00 00 00 00 00 00 ................
0040E8D0 00 00 00 00 00 00 00 00 00 00 00 00 00 00 00 00 ................
0040E8E0 00 00 00 00 00 00 00 00 00 00 00 00 00 00 00 00 ................
0040E8F0 00 00 00 00 00 00 00 00 00 00 00 00 00 00 00 00 ................
0040E900 00 00 00 00 00 00 00 00 00 00 00 00 00 00 00 00 ................
0040E910 00 00 00 00 00 00 00 00 00 00 00 00 00 00 00 00 ................
0040E920 00 00 00 00 00 00 00 00 00 00 00 00 00 00 00 00 ................
0040E930 00 00 00 00 00 00 00 00 00 00 00 00 00 00 00 00 ................
0040E940 00 00 00 00 00 00 00 00 00 00 00 00 00 00 00 00 ................
0040E950 00 00 00 00 00 00 00 00 00 00 00 00 00 00 00 00 ................
0040E960 00 00 00 00 00 00 00 00 00 00 00 00 00 00 00 00 ................
0040E970 00 00 00 00 00 00 00 00 00 00 00 00 00 00 00 00 ................
0040E980 00 00 00 00 00 00 00 00 00 00 00 00 00 00 00 00 ................
0040E990 00 00 00 00 00 00 00 00 00 00 00 00 00 00 00 00 ................
0040E9A0 00 00 00 00 00 00 00 00 00 00 00 00 00 00 00 00 ................
0040E9B0 00 00 00 00 00 00 00 00 00 00 00 00 00 00 00 00 ................
0040E9C0 00 00 00 00 00 00 00 00 00 00 00 00 00 00 00 00 ................
0040E9D0 00 00 00 00 00 00 00 00 00 00 00 00 00 00 00 00 ................
0040E9E0 00 00 00 00 00 00 00 00 00 00 00 00 00 00 00 00 ................
0040E9F0 00 00 00 00 00 00 00 00 00 00 00 00 00 00 00 00 ................
0040EA00 00 00 00 00 00 00 00 00 00 00 00 00 00 00 00 00 ................
0040EA10 00 00 00 00 00 00 00 00 00 00 00 00 00 00 00 00 ................
0040EA20 00 00 00 00 00 00 00 00 00 00 00 00 00 00 00 00 ................
0040EA30 00 00 00 00 00 00 00 00 00 00 00 00 00 00 00 00 ................
0040EA40 00 00 00 00 00 00 00 00 00 00 00 00 00 00 00 00 ................
0040EA50 00 00 00 00 00 00 00 00 00 00 00 00 00 00 00 00 ................
0040EA60 00 00 00 00 00 00 00 00 00 00 00 00 00 00 00 00 ................
0040EA70 00 00 00 00 00 00 00 00 00 00 00 00 00 00 00 00 ................
0040EA80 00 00 00 00 00 00 00 00 00 00 00 00 00 00 00 00 ................
0040EA90 00 00 00 00 00 00 00 00 00 00 00 00 00 00 00 00 ................
0040EAA0 00 00 00 00 00 00 00 00 00 00 00 00 00 00 00 00 ................
0040EAB0 00 00 00 00 00 00 00 00 00 00 00 00 00 00 00 00 ................
0040EAC0 00 00 00 00 00 00 00 00 00 00 00 00 00 00 00 00 ................
0040EAD0 00 00 00 00 00 00 00 00 00 00 00 00 00 00 00 00 ................
0040EAE0 00 00 00 00 00 00 00 00 00 00 00 00 00 00 00 00 ................
0040EAF0 00 00 00 00 00 00 00 00 00 00 00 00 00 00 00 00 ................
0040EB00 00 00 00 00 00 00 00 00 00 00 00 00 00 00 00 00 ................
0040EB10 00 00 00 00 00 00 00 00 00 00 00 00 00 00 00 00 ................
0040EB20 00 00 00 00 00 00 00 00 00 00 00 00 00 00 00 00 ................
0040EB30 00 00 00 00 00 00 00 00 00 00 00 00 00 00 00 00 ................
0040EB40 00 00 00 00 00 00 00 00 00 00 00 00 00 00 00 00 ................
0040EB50 00 00 00 00 00 00 00 00 00 00 00 00 00 00 00 00 ................
0040EB60 00 00 00 00 00 00 00 00 00 00 00 00 00 00 00 00 ................
0040EB70 00 00 00 00 00 00 00 00 00 00 00 00 00 00 00 00 ................
0040EB80 00 00 00 00 00 00 00 00 00 00 00 00 00 00 00 00 ................
0040EB90 00 00 00 00 00 00 00 00 00 00 00 00 00 00 00 00 ................
0040EBA0 00 00 00 00 00 00 00 00 00 00 00 00 00 00 00 00 ................
0040EBB0 00 00 00 00 00 00 00 00 00 00 00 00 00 00 00 00 ................
0040EBC0 00 00 00 00 00 00 00 00 00 00 00 00 00 00 00 00 ................
0040EBD0 00 00 00 00 00 00 00 00 00 00 00 00 00 00 00 00 ................
0040EBE0 00 00 00 00 00 00 00 00 00 00 00 00 00 00 00 00 ................
0040EBF0 00 00 00 00 00 00 00 00 00 00 00 00 00 00 00 00 ................
0040EC00 00 00 00 00 00 00 00 00 00 00 00 00 00 00 00 00 ................
0040EC10 00 00 00 00 00 00 00 00 00 00 00 00 00 00 00 00 ................
0040EC20 00 00 00 00 00 00 00 00 00 00 00 00 00 00 00 00 ................
0040EC30 00 00 00 00 00 00 00 00 00 00 00 00 00 00 00 00 ................
0040EC40 00 00 00 00 00 00 00 00 00 00 00 00 00 00 00 00 ................
0040EC50 00 00 00 00 00 00 00 00 00 00 00 00 00 00 00 00 ................
0040EC60 00 00 00 00 00 00 00 00 00 00 00 00 00 00 00 00 ................
0040EC70 00 00 00 00 00 00 00 00 00 00 00 00 00 00 00 00 ................
0040EC80 00 00 00 00 00 00 00 00 00 00 00 00 00 00 00 00 ................
0040EC90 00 00 00 00 00 00 00 00 00 00 00 00 00 00 00 00 ................
0040ECA0 00 00 00 00 00 00 00 00 00 00 00 00 00 00 00 00 ................
0040ECB0 00 00 00 00 00 00 00 00 00 00 00 00 00 00 00 00 ................
0040ECC0 00 00 00 00 00 00 00 00 00 00 00 00 00 00 00 00 ................
0040ECD0 00 00 00 00 00 00 00 00 00 00 00 00 00 00 00 00 ................
0040ECE0 00 00 00 00 00 00 00 00 00 00 00 00 00 00 00 00 ................
0040ECF0 00 00 00 00 00 00 00 00 00 00 00 00 00 00 00 00 ................
0040ED00 00 00 00 00 00 00 00 00 00 00 00 00 00 00 00 00 ................
0040ED10 00 00 00 00 00 00 00 00 00 00 00 00 00 00 00 00 ................
0040ED20 00 00 00 00 00 00 00 00 00 00 00 00 00 00 00 00 ................
0040ED30 00 00 00 00 00 00 00 00 00 00 00 00 00 00 00 00 ................
0040ED40 00 00 00 00 00 00 00 00 00 00 00 00 00 00 00 00 ................
0040ED50 00 00 00 00 00 00 00 00 00 00 00 00 00 00 00 00 ................
0040ED60 00 00 00 00 00 00 00 00 00 00 00 00 00 00 00 00 ................
0040ED70 00 00 00 00 00 00 00 00 00 00 00 00 00 00 00 00 ................
0040ED80 00 00 00 00 00 00 00 00 00 00 00 00 00 00 00 00 ................
0040ED90 00 00 00 00 00 00 00 00 00 00 00 00 00 00 00 00 ................
0040EDA0 00 00 00 00 00 00 00 00 00 00 00 00 00 00 00 00 ................
0040EDB0 00 00 00 00 00 00 00 00 00 00 00 00 00 00 00 00 ................
0040EDC0 00 00 00 00 00 00 00 00 00 00 00 00 00 00 00 00 ................
0040EDD0 00 00 00 00 00 00 00 00 00 00 00 00 00 00 00 00 ................
0040EDE0 00 00 00 00 00 00 00 00 00 00 00 00 00 00 00 00 ................
0040EDF0 00 00 00 00 00 00 00 00 00 00 00 00 00 00 00 00 ................
0040EE00 00 00 00 00 00 00 00 00 00 00 00 00 00 00 00 00 ................
0040EE10 00 00 00 00 00 00 00 00 00 00 00 00 00 00 00 00 ................
0040EE20 00 00 00 00 00 00 00 00 00 00 00 00 00 00 00 00 ................
0040EE30 00 00 00 00 00 00 00 00 00 00 00 00 00 00 00 00 ................
0040EE40 00 00 00 00 00 00 00 00 00 00 00 00 00 00 00 00 ................
0040EE50 00 00 00 00 00 00 00 00 00 00 00 00 00 00 00 00 ................
0040EE60 00 00 00 00 00 00 00 00 00 00 00 00 00 00 00 00 ................
0040EE70 00 00 00 00 00 00 00 00 00 00 00 00 00 00 00 00 ................
0040EE80 00 00 00 00 00 00 00 00 00 00 00 00 00 00 00 00 ................
0040EE90 00 00 00 00 00 00 00 00 00 00 00 00 00 00 00 00 ................
0040EEA0 00 00 00 00 00 00 00 00 00 00 00 00 00 00 00 00 ................
0040EEB0 00 00 00 00 00 00 00 00 00 00 00 00 00 00 00 00 ................
0040EEC0 00 00 00 00 00 00 00 00 00 00 00 00 00 00 00 00 ................
0040EED0 00 00 00 00 00 00 00 00 00 00 00 00 00 00 00 00 ................
0040EEE0 00 00 00 00 00 00 00 00 00 00 00 00 00 00 00 00 ................
0040EEF0 00 00 00 00 00 00 00 00 00 00 00 00 00 00 00 00 ................
0040EF00 00 00 00 00 00 00 00 00 00 00 00 00 00 00 00 00 ................
0040EF10 00 00 00 00 00 00 00 00 00 00 00 00 00 00 00 00 ................
0040EF20 00 00 00 00 00 00 00 00 00 00 00 00 00 00 00 00 ................
0040EF30 00 00 00 00 00 00 00 00 00 00 00 00 00 00 00 00 ................
0040EF40 00 00 00 00 00 00 00 00 00 00 00 00 00 00 00 00 ................
0040EF50 00 00 00 00 00 00 00 00 00 00 00 00 00 00 00 00 ................
0040EF60 00 00 00 00 00 00 00 00 00 00 00 00 00 00 00 00 ................
0040EF70 00 00 00 00 00 00 00 00 00 00 00 00 00 00 00 00 ................
0040EF80 00 00 00 00 00 00 00 00 00 00 00 00 00 00 00 00 ................
0040EF90 00 00 00 00 00 00 00 00 00 00 00 00 00 00 00 00 ................
0040EFA0 00 00 00 00 00 00 00 00 00 00 00 00 00 00 00 00 ................
0040EFB0 00 00 00 00 00 00 00 00 00 00 00 00 00 00 00 00 ................
0040EFC0 00 00 00 00 00 00 00 00 00 00 00 00 00 00 00 00 ................
0040EFD0 00 00 00 00 00 00 00 00 00 00 00 00 00 00 00 00 ................
0040EFE0 00 00 00 00 00 00 00 00 00 00 00 00 00 00 00 00 ................
0040EFF0 00 00 00 00 00 00 00 00 00 00 00 00 00 00 00 00 ................
0040F000 00 00 00 00 00 00 00 00 00 00 00 00 00 00 00 00 ................
0040F010 00 00 00 00 00 00 00 00 00 00 00 00 00 00 00 00 ................
0040F020 00 00 00 00 00 00 00 00 00 00 00 00 00 00 00 00 ................
0040F030 00 00 00 00 00 00 00 00 00 00 00 00 00 00 00 00 ................
0040F040 00 00 00 00 00 00 00 00 00 00 00 00 00 00 00 00 ................
0040F050 00 00 00 00 00 00 00 00 00 00 00 00 00 00 00 00 ................
0040F060 00 00 00 00 00 00 00 00 00 00 00 00 00 00 00 00 ................
0040F070 00 00 00 00 00 00 00 00 00 00 00 00 00 00 00 00 ................
0040F080 00 00 00 00 00 00 00 00 00 00 00 00 00 00 00 00 ................
0040F090 00 00 00 00 00 00 00 00 00 00 00 00 00 00 00 00 ................
0040F0A0 00 00 00 00 00 00 00 00 00 00 00 00 00 00 00 00 ................
0040F0B0 00 00 00 00 00 00 00 00 00 00 00 00 00 00 00 00 ................
0040F0C0 00 00 00 00 00 00 00 00 00 00 00 00 00 00 00 00 ................
0040F0D0 00 00 00 00 00 00 00 00 00 00 00 00 00 00 00 00 ................
0040F0E0 00 00 00 00 00 00 00 00 00 00 00 00 00 00 00 00 ................
0040F0F0 00 00 00 00 00 00 00 00 00 00 00 00 00 00 00 00 ................
0040F100 00 00 00 00 00 00 00 00 00 00 00 00 00 00 00 00 ................
0040F110 00 00 00 00 00 00 00 00 00 00 00 00 00 00 00 00 ................
0040F120 00 00 00 00 00 00 00 00 00 00 00 00 00 00 00 00 ................
0040F130 00 00 00 00 00 00 00 00 00 00 00 00 00 00 00 00 ................
0040F140 00 00 00 00 00 00 00 00 00 00 00 00 00 00 00 00 ................
0040F150 00 00 00 00 00 00 00 00 00 00 00 00 00 00 00 00 ................
0040F160 00 00 00 00 00 00 00 00 00 00 00 00 00 00 00 00 ................
0040F170 00 00 00 00 00 00 00 00 00 00 00 00 00 00 00 00 ................
0040F180 00 00 00 00 00 00 00 00 00 00 00 00 00 00 00 00 ................
0040F190 00 00 00 00 00 00 00 00 00 00 00 00 00 00 00 00 ................
0040F1A0 00 00 00 00 00 00 00 00 00 00 00 00 00 00 00 00 ................
0040F1B0 00 00 00 00 00 00 00 00 00 00 00 00 00 00 00 00 ................
0040F1C0 00 00 00 00 00 00 00 00 00 00 00 00 00 00 00 00 ................
0040F1D0 00 00 00 00 00 00 00 00 00 00 00 00 00 00 00 00 ................
0040F1E0 00 00 00 00 00 00 00 00 00 00 00 00 00 00 00 00 ................
0040F1F0 00 00 00 00 00 00 00 00 00 00 00 00 00 00 00 00 ................
0040F200 00 00 00 00 00 00 00 00 00 00 00 00 00 00 00 00 ................
0040F210 00 00 00 00 00 00 00 00 00 00 00 00 00 00 00 00 ................
0040F220 00 00 00 00 00 00 00 00 00 00 00 00 00 00 00 00 ................
0040F230 00 00 00 00 00 00 00 00 00 00 00 00 00 00 00 00 ................
0040F240 00 00 00 00 00 00 00 00 00 00 00 00 00 00 00 00 ................
0040F250 00 00 00 00 00 00 00 00 00 00 00 00 00 00 00 00 ................
0040F260 00 00 00 00 00 00 00 00 00 00 00 00 00 00 00 00 ................
0040F270 00 00 00 00 00 00 00 00 00 00 00 00 00 00 00 00 ................
0040F280 00 00 00 00 00 00 00 00 00 00 00 00 00 00 00 00 ................
0040F290 00 00 00 00 00 00 00 00 00 00 00 00 00 00 00 00 ................
0040F2A0 00 00 00 00 00 00 00 00 00 00 00 00 00 00 00 00 ................
0040F2B0 00 00 00 00 00 00 00 00 00 00 00 00 00 00 00 00 ................
0040F2C0 00 00 00 00 00 00 00 00 00 00 00 00 00 00 00 00 ................
0040F2D0 00 00 00 00 00 00 00 00 00 00 00 00 00 00 00 00 ................
0040F2E0 00 00 00 00 00 00 00 00 00 00 00 00 00 00 00 00 ................
0040F2F0 00 00 00 00 00 00 00 00 00 00 00 00 00 00 00 00 ................
0040F300 00 00 00 00 00 00 00 00 00 00 00 00 00 00 00 00 ................
0040F310 00 00 00 00 00 00 00 00 00 00 00 00 00 00 00 00 ................
0040F320 00 00 00 00 00 00 00 00 00 00 00 00 00 00 00 00 ................
0040F330 00 00 00 00 00 00 00 00 00 00 00 00 00 00 00 00 ................
0040F340 00 00 00 00 00 00 00 00 00 00 00 00 00 00 00 00 ................
0040F350 00 00 00 00 00 00 00 00 00 00 00 00 00 00 00 00 ................
0040F360 00 00 00 00 00 00 00 00 00 00 00 00 00 00 00 00 ................
0040F370 00 00 00 00 00 00 00 00 00 00 00 00 00 00 00 00 ................
0040F380 00 00 00 00 00 00 00 00 00 00 00 00 00 00 00 00 ................
0040F390 00 00 00 00 00 00 00 00 00 00 00 00 00 00 00 00 ................
0040F3A0 00 00 00 00 00 00 00 00 00 00 00 00 00 00 00 00 ................
0040F3B0 00 00 00 00 00 00 00 00 00 00 00 00 00 00 00 00 ................
0040F3C0 00 00 00 00 00 00 00 00 00 00 00 00 00 00 00 00 ................
0040F3D0 00 00 00 00 00 00 00 00 00 00 00 00 00 00 00 00 ................
0040F3E0 00 00 00 00 00 00 00 00 00 00 00 00 00 00 00 00 ................
0040F3F0 00 00 00 00 00 00 00 00 00 00 00 00 00 00 00 00 ................
0040F400 00 00 00 00 00 00 00 00 00 00 00 00 00 00 00 00 ................
0040F410 00 00 00 00 00 00 00 00 00 00 00 00 00 00 00 00 ................
0040F420 00 00 00 00 00 00 00 00 00 00 00 00 00 00 00 00 ................
0040F430 00 00 00 00 00 00 00 00 00 00 00 00 00 00 00 00 ................
0040F440 00 00 00 00 00 00 00 00 00 00 00 00 00 00 00 00 ................
0040F450 00 00 00 00 00 00 00 00 00 00 00 00 00 00 00 00 ................
0040F460 00 00 00 00 00 00 00 00 00 00 00 00 00 00 00 00 ................
0040F470 00 00 00 00 00 00 00 00 00 00 00 00 00 00 00 00 ................
0040F480 00 00 00 00 00 00 00 00 00 00 00 00 00 00 00 00 ................
0040F490 00 00 00 00 00 00 00 00 00 00 00 00 00 00 00 00 ................
0040F4A0 00 00 00 00 00 00 00 00 00 00 00 00 00 00 00 00 ................
0040F4B0 00 00 00 00 00 00 00 00 00 00 00 00 00 00 00 00 ................
0040F4C0 00 00 00 00 00 00 00 00 00 00 00 00 00 00 00 00 ................
0040F4D0 00 00 00 00 00 00 00 00 00 00 00 00 00 00 00 00 ................
0040F4E0 00 00 00 00 00 00 00 00 00 00 00 00 00 00 00 00 ................
0040F4F0 00 00 00 00 00 00 00 00 00 00 00 00 00 00 00 00 ................
0040F500 00 00 00 00 00 00 00 00 00 00 00 00 00 00 00 00 ................
0040F510 00 00 00 00 00 00 00 00 00 00 00 00 00 00 00 00 ................
0040F520 00 00 00 00 00 00 00 00 00 00 00 00 00 00 00 00 ................
0040F530 00 00 00 00 00 00 00 00 00 00 00 00 00 00 00 00 ................
0040F540 00 00 00 00 00 00 00 00 00 00 00 00 00 00 00 00 ................
0040F550 00 00 00 00 00 00 00 00 00 00 00 00 00 00 00 00 ................
0040F560 00 00 00 00 00 00 00 00 00 00 00 00 00 00 00 00 ................
0040F570 00 00 00 00 00 00 00 00 00 00 00 00 00 00 00 00 ................
0040F580 00 00 00 00 00 00 00 00 00 00 00 00 00 00 00 00 ................
0040F590 00 00 00 00 00 00 00 00 00 00 00 00 00 00 00 00 ................
0040F5A0 00 00 00 00 00 00 00 00 00 00 00 00 00 00 00 00 ................
0040F5B0 00 00 00 00 00 00 00 00 00 00 00 00 00 00 00 00 ................
0040F5C0 00 00 00 00 00 00 00 00 00 00 00 00 00 00 00 00 ................
0040F5D0 00 00 00 00 00 00 00 00 00 00 00 00 00 00 00 00 ................
0040F5E0 00 00 00 00 00 00 00 00 00 00 00 00 00 00 00 00 ................
0040F5F0 00 00 00 00 00 00 00 00 00 00 00 00 00 00 00 00 ................
0040F600 00 00 00 00 00 00 00 00 00 00 00 00 00 00 00 00 ................
0040F610 00 00 00 00 00 00 00 00 00 00 00 00 00 00 00 00 ................
0040F620 00 00 00 00 00 00 00 00 00 00 00 00 00 00 00 00 ................
0040F630 00 00 00 00 00 00 00 00 00 00 00 00 00 00 00 00 ................
0040F640 00 00 00 00 00 00 00 00 00 00 00 00 00 00 00 00 ................
0040F650 00 00 00 00 00 00 00 00 00 00 00 00 00 00 00 00 ................
0040F660 00 00 00 00 00 00 00 00 00 00 00 00 00 00 00 00 ................
0040F670 00 00 00 00 00 00 00 00 00 00 00 00 00 00 00 00 ................
0040F680 00 00 00 00 00 00 00 00 00 00 00 00 00 00 00 00 ................
0040F690 00 00 00 00 00 00 00 00 00 00 00 00 00 00 00 00 ................
0040F6A0 00 00 00 00 00 00 00 00 00 00 00 00 00 00 00 00 ................
0040F6B0 00 00 00 00 00 00 00 00 00 00 00 00 00 00 00 00 ................
0040F6C0 00 00 00 00 00 00 00 00 00 00 00 00 00 00 00 00 ................
0040F6D0 00 00 00 00 00 00 00 00 00 00 00 00 00 00 00 00 ................
0040F6E0 00 00 00 00 00 00 00 00 00 00 00 00 00 00 00 00 ................
0040F6F0 00 00 00 00 00 00 00 00 00 00 00 00 00 00 00 00 ................
0040F700 00 00 00 00 00 00 00 00 00 00 00 00 00 00 00 00 ................
0040F710 00 00 00 00 00 00 00 00 00 00 00 00 00 00 00 00 ................
0040F720 00 00 00 00 00 00 00 00 00 00 00 00 00 00 00 00 ................
0040F730 00 00 00 00 00 00 00 00 00 00 00 00 00 00 00 00 ................
0040F740 00 00 00 00 00 00 00 00 00 00 00 00 00 00 00 00 ................
0040F750 00 00 00 00 00 00 00 00 00 00 00 00 00 00 00 00 ................
0040F760 00 00 00 00 00 00 00 00 00 00 00 00 00 00 00 00 ................
0040F770 00 00 00 00 00 00 00 00 00 00 00 00 00 00 00 00 ................
0040F780 00 00 00 00 00 00 00 00 00 00 00 00 00 00 00 00 ................
0040F790 00 00 00 00 00 00 00 00 00 00 00 00 00 00 00 00 ................
0040F7A0 00 00 00 00 00 00 00 00 00 00 00 00 00 00 00 00 ................
0040F7B0 00 00 00 00 00 00 00 00 00 00 00 00 00 00 00 00 ................
0040F7C0 00 00 00 00 00 00 00 00 00 00 00 00 00 00 00 00 ................
0040F7D0 00 00 00 00 00 00 00 00 00 00 00 00 00 00 00 00 ................
0040F7E0 00 00 00 00 00 00 00 00 00 00 00 00 00 00 00 00 ................
0040F7F0 00 00 00 00 00 00 00 00 00 00 00 00 00 00 00 00 ................
0040F800 00 00 00 00 00 00 00 00 00 00 00 00 00 00 00 00 ................
0040F810 00 00 00 00 00 00 00 00 00 00 00 00 00 00 00 00 ................
0040F820 00 00 00 00 00 00 00 00 00 00 00 00 00 00 00 00 ................
0040F830 00 00 00 00 00 00 00 00 00 00 00 00 00 00 00 00 ................
0040F840 00 00 00 00 00 00 00 00 00 00 00 00 00 00 00 00 ................
0040F850 00 00 00 00 00 00 00 00 00 00 00 00 00 00 00 00 ................
0040F860 00 00 00 00 00 00 00 00 00 00 00 00 00 00 00 00 ................
0040F870 00 00 00 00 00 00 00 00 00 00 00 00 00 00 00 00 ................
0040F880 00 00 00 00 00 00 00 00 00 00 00 00 00 00 00 00 ................
0040F890 00 00 00 00 00 00 00 00 00 00 00 00 00 00 00 00 ................
0040F8A0 00 00 00 00 00 00 00 00 00 00 00 00 00 00 00 00 ................
0040F8B0 00 00 00 00 00 00 00 00 00 00 00 00 00 00 00 00 ................
0040F8C0 00 00 00 00 00 00 00 00 00 00 00 00 00 00 00 00 ................
0040F8D0 00 00 00 00 00 00 00 00 00 00 00 00 00 00 00 00 ................
0040F8E0 00 00 00 00 00 00 00 00 00 00 00 00 00 00 00 00 ................
0040F8F0 00 00 00 00 00 00 00 00 00 00 00 00 00 00 00 00 ................
0040F900 00 00 00 00 00 00 00 00 00 00 00 00 00 00 00 00 ................
0040F910 00 00 00 00 00 00 00 00 00 00 00 00 00 00 00 00 ................
0040F920 00 00 00 00 00 00 00 00 00 00 00 00 00 00 00 00 ................
0040F930 00 00 00 00 00 00 00 00 00 00 00 00 00 00 00 00 ................
0040F940 00 00 00 00 00 00 00 00 00 00 00 00 00 00 00 00 ................
0040F950 00 00 00 00 00 00 00 00 00 00 00 00 00 00 00 00 ................
0040F960 00 00 00 00 00 00 00 00 00 00 00 00 00 00 00 00 ................
0040F970 00 00 00 00 00 00 00 00 00 00 00 00 00 00 00 00 ................
0040F980 00 00 00 00 00 00 00 00 00 00 00 00 00 00 00 00 ................
0040F990 00 00 00 00 00 00 00 00 00 00 00 00 00 00 00 00 ................
0040F9A0 00 00 00 00 00 00 00 00 00 00 00 00 00 00 00 00 ................
0040F9B0 00 00 00 00 00 00 00 00 00 00 00 00 00 00 00 00 ................
0040F9C0 00 00 00 00 00 00 00 00 00 00 00 00 00 00 00 00 ................
0040F9D0 00 00 00 00 00 00 00 00 00 00 00 00 00 00 00 00 ................
0040F9E0 00 00 00 00 00 00 00 00 00 00 00 00 00 00 00 00 ................
0040F9F0 00 00 00 00 00 00 00 00 00 00 00 00 00 00 00 00 ................
0040FA00 00 00 00 00 00 00 00 00 00 00 00 00 00 00 00 00 ................
0040FA10 00 00 00 00 00 00 00 00 00 00 00 00 00 00 00 00 ................
0040FA20 00 00 00 00 00 00 00 00 00 00 00 00 00 00 00 00 ................
0040FA30 00 00 00 00 00 00 00 00 00 00 00 00 00 00 00 00 ................
0040FA40 00 00 00 00 00 00 00 00 00 00 00 00 00 00 00 00 ................
0040FA50 00 00 00 00 00 00 00 00 00 00 00 00 00 00 00 00 ................
0040FA60 00 00 00 00 00 00 00 00 00 00 00 00 00 00 00 00 ................
0040FA70 00 00 00 00 00 00 00 00 00 00 00 00 00 00 00 00 ................
0040FA80 00 00 00 00 00 00 00 00 00 00 00 00 00 00 00 00 ................
0040FA90 00 00 00 00 00 00 00 00 00 00 00 00 00 00 00 00 ................
0040FAA0 00 00 00 00 00 00 00 00 00 00 00 00 00 00 00 00 ................
0040FAB0 00 00 00 00 00 00 00 00 00 00 00 00 00 00 00 00 ................
0040FAC0 00 00 00 00 00 00 00 00 00 00 00 00 00 00 00 00 ................
0040FAD0 00 00 00 00 00 00 00 00 00 00 00 00 00 00 00 00 ................
0040FAE0 00 00 00 00 00 00 00 00 00 00 00 00 00 00 00 00 ................
0040FAF0 00 00 00 00 00 00 00 00 00 00 00 00 00 00 00 00 ................
0040FB00 00 00 00 00 00 00 00 00 00 00 00 00 00 00 00 00 ................
0040FB10 00 00 00 00 00 00 00 00 00 00 00 00 00 00 00 00 ................
0040FB20 00 00 00 00 00 00 00 00 00 00 00 00 00 00 00 00 ................
0040FB30 00 00 00 00 00 00 00 00 00 00 00 00 00 00 00 00 ................
0040FB40 00 00 00 00 00 00 00 00 00 00 00 00 00 00 00 00 ................
0040FB50 00 00 00 00 00 00 00 00 00 00 00 00 00 00 00 00 ................
0040FB60 00 00 00 00 00 00 00 00 00 00 00 00 00 00 00 00 ................
0040FB70 00 00 00 00 00 00 00 00 00 00 00 00 00 00 00 00 ................
0040FB80 00 00 00 00 00 00 00 00 00 00 00 00 00 00 00 00 ................
0040FB90 00 00 00 00 00 00 00 00 00 00 00 00 00 00 00 00 ................
0040FBA0 00 00 00 00 00 00 00 00 00 00 00 00 00 00 00 00 ................
0040FBB0 00 00 00 00 00 00 00 00 00 00 00 00 00 00 00 00 ................
0040FBC0 00 00 00 00 00 00 00 00 00 00 00 00 00 00 00 00 ................
0040FBD0 00 00 00 00 00 00 00 00 00 00 00 00 00 00 00 00 ................
0040FBE0 00 00 00 00 00 00 00 00 00 00 00 00 00 00 00 00 ................
0040FBF0 00 00 00 00 00 00 00 00 00 00 00 00 00 00 00 00 ................
0040FC00 00 00 00 00 00 00 00 00 00 00 00 00 00 00 00 00 ................
0040FC10 00 00 00 00 00 00 00 00 00 00 00 00 00 00 00 00 ................
0040FC20 00 00 00 00 00 00 00 00 00 00 00 00 00 00 00 00 ................
0040FC30 00 00 00 00 00 00 00 00 00 00 00 00 00 00 00 00 ................
0040FC40 00 00 00 00 00 00 00 00 00 00 00 00 00 00 00 00 ................
0040FC50 00 00 00 00 00 00 00 00 00 00 00 00 00 00 00 00 ................
0040FC60 00 00 00 00 00 00 00 00 00 00 00 00 00 00 00 00 ................
0040FC70 00 00 00 00 00 00 00 00 00 00 00 00 00 00 00 00 ................
0040FC80 00 00 00 00 00 00 00 00 00 00 00 00 00 00 00 00 ................
0040FC90 00 00 00 00 00 00 00 00 00 00 00 00 00 00 00 00 ................
0040FCA0 00 00 00 00 00 00 00 00 00 00 00 00 00 00 00 00 ................
0040FCB0 00 00 00 00 00 00 00 00 00 00 00 00 00 00 00 00 ................
0040FCC0 00 00 00 00 00 00 00 00 00 00 00 00 00 00 00 00 ................
0040FCD0 00 00 00 00 00 00 00 00 00 00 00 00 00 00 00 00 ................
0040FCE0 00 00 00 00 00 00 00 00 00 00 00 00 00 00 00 00 ................
0040FCF0 00 00 00 00 00 00 00 00 00 00 00 00 00 00 00 00 ................
0040FD00 00 00 00 00 00 00 00 00 00 00 00 00 00 00 00 00 ................
0040FD10 00 00 00 00 00 00 00 00 00 00 00 00 00 00 00 00 ................
0040FD20 00 00 00 00 00 00 00 00 00 00 00 00 00 00 00 00 ................
0040FD30 00 00 00 00 00 00 00 00 00 00 00 00 00 00 00 00 ................
0040FD40 00 00 00 00 00 00 00 00 00 00 00 00 00 00 00 00 ................
0040FD50 00 00 00 00 00 00 00 00 00 00 00 00 00 00 00 00 ................
0040FD60 00 00 00 00 00 00 00 00 00 00 00 00 00 00 00 00 ................
0040FD70 00 00 00 00 00 00 00 00 00 00 00 00 00 00 00 00 ................
0040FD80 00 00 00 00 00 00 00 00 00 00 00 00 00 00 00 00 ................
0040FD90 00 00 00 00 00 00 00 00 00 00 00 00 00 00 00 00 ................
0040FDA0 00 00 00 00 00 00 00 00 00 00 00 00 00 00 00 00 ................
0040FDB0 00 00 00 00 00 00 00 00 00 00 00 00 00 00 00 00 ................
0040FDC0 00 00 00 00 00 00 00 00 00 00 00 00 00 00 00 00 ................
0040FDD0 00 00 00 00 00 00 00 00 00 00 00 00 00 00 00 00 ................
0040FDE0 00 00 00 00 00 00 00 00 00 00 00 00 00 00 00 00 ................
0040FDF0 00 00 00 00 00 00 00 00 00 00 00 00 00 00 00 00 ................
0040FE00 00 00 00 00 00 00 00 00 00 00 00 00 00 00 00 00 ................
0040FE10 00 00 00 00 00 00 00 00 00 00 00 00 00 00 00 00 ................
0040FE20 00 00 00 00 00 00 00 00 00 00 00 00 00 00 00 00 ................
0040FE30 00 00 00 00 00 00 00 00 00 00 00 00 00 00 00 00 ................
0040FE40 00 00 00 00 00 00 00 00 00 00 00 00 00 00 00 00 ................
0040FE50 00 00 00 00 00 00 00 00 00 00 00 00 00 00 00 00 ................
0040FE60 00 00 00 00 00 00 00 00 00 00 00 00 00 00 00 00 ................
0040FE70 00 00 00 00 00 00 00 00 00 00 00 00 00 00 00 00 ................
0040FE80 00 00 00 00 00 00 00 00 00 00 00 00 00 00 00 00 ................
0040FE90 00 00 00 00 00 00 00 00 00 00 00 00 00 00 00 00 ................
0040FEA0 00 00 00 00 00 00 00 00 00 00 00 00 00 00 00 00 ................
0040FEB0 00 00 00 00 00 00 00 00 00 00 00 00 00 00 00 00 ................
0040FEC0 00 00 00 00 00 00 00 00 00 00 00 00 00 00 00 00 ................
0040FED0 00 00 00 00 00 00 00 00 00 00 00 00 00 00 00 00 ................
0040FEE0 00 00 00 00 00 00 00 00 00 00 00 00 00 00 00 00 ................
0040FEF0 00 00 00 00 00 00 00 00 00 00 00 00 00 00 00 00 ................
0040FF00 00 00 00 00 00 00 00 00 00 00 00 00 00 00 00 00 ................
0040FF10 00 00 00 00 00 00 00 00 00 00 00 00 00 00 00 00 ................
0040FF20 00 00 00 00 00 00 00 00 00 00 00 00 00 00 00 00 ................
0040FF30 00 00 00 00 00 00 00 00 00 00 00 00 00 00 00 00 ................
0040FF40 00 00 00 00 00 00 00 00 00 00 00 00 00 00 00 00 ................
0040FF50 00 00 00 00 00 00 00 00 00 00 00 00 00 00 00 00 ................
0040FF60 00 00 00 00 00 00 00 00 00 00 00 00 00 00 00 00 ................
0040FF70 00 00 00 00 00 00 00 00 00 00 00 00 00 00 00 00 ................
0040FF80 00 00 00 00 00 00 00 00 00 00 00 00 00 00 00 00 ................
0040FF90 00 00 00 00 00 00 00 00 00 00 00 00 00 00 00 00 ................
0040FFA0 00 00 00 00 00 00 00 00 00 00 00 00 00 00 00 00 ................
0040FFB0 00 00 00 00 00 00 00 00 00 00 00 00 00 00 00 00 ................
0040FFC0 00 00 00 00 00 00 00 00 00 00 00 00 00 00 00 00 ................
0040FFD0 00 00 00 00 00 00 00 00 00 00 00 00 00 00 00 00 ................
0040FFE0 00 00 00 00 00 00 00 00 00 00 00 00 00 00 00 00 ................
0040FFF0 00 00 00 00 00 00 00 00 00 00 00 00 00 00 00 00 ................
00410000 50 02 01 00 5E 02 01 00 78 02 01 00 8E 02 01 00 P...^...x.......
00410010 9E 02 01 00 AA 02 01 00 BA 02 01 00 CC 02 01 00 ................
00410020 D8 02 01 00 E6 02 01 00 FA 02 01 00 0E 03 01 00 ................
00410030 26 03 01 00 32 03 01 00 42 03 01 00 5E 03 01 00 &...2...B...^...
00410040 6C 03 01 00 7E 03 01 00 8A 03 01 00 A6 03 01 00 l...~...........
00410050 B8 03 01 00 C6 03 01 00 E2 03 01 00 F2 03 01 00 ................
00410060 04 04 01 00 0E 04 01 00 1C 04 01 00 00 00 00 00 ................
00410070 38 04 01 00 48 04 01 00 54 04 01 00 64 04 01 00 8...H...T...d...
00410080 72 04 01 00 84 04 01 00 94 04 01 00 A2 04 01 00 r...............
00410090 B4 04 01 00 C2 04 01 00 D6 04 01 00 EE 04 01 00 ................
004100A0 FA 04 01 00 0C 05 01 00 1C 05 01 00 2C 05 01 00 ............,...
004100B0 38 05 01 00 48 05 01 00 58 05 01 00 66 05 01 00 8...H...X...f...
004100C0 76 05 01 00 88 05 01 00 94 05 01 00 A0 05 01 00 v...............
004100D0 AC 05 01 00 B8 05 01 00 C8 05 01 00 D6 05 01 00 ................
004100E0 E8 05 01 00 FE 05 01 00 0A 06 01 00 16 06 01 00 ................
004100F0 24 06 01 00 30 06 01 00 40 06 01 00 50 06 01 00 $...0...@...P...
00410100 60 06 01 00 00 00 00 00 00 00 00 00 48 01 01 00 `...........H...
00410110 00 00 00 00 00 00 00 00 2A 04 01 00 00 00 01 00 ........*.......
00410120 B8 01 01 00 00 00 00 00 00 00 00 00 6C 06 01 00 ............l...
00410130 70 00 01 00 00 00 00 00 00 00 00 00 00 00 00 00 p...............
00410140 00 00 00 00 00 00 00 00 50 02 01 00 5E 02 01 00 ........P...^...
00410150 78 02 01 00 8E 02 01 00 9E 02 01 00 AA 02 01 00 x...............
00410160 BA 02 01 00 CC 02 01 00 D8 02 01 00 E6 02 01 00 ................
00410170 FA 02 01 00 0E 03 01 00 26 03 01 00 32 03 01 00 ........&...2...
00410180 42 03 01 00 5E 03 01 00 6C 03 01 00 7E 03 01 00 B...^...l...~...
00410190 8A 03 01 00 A6 03 01 00 B8 03 01 00 C6 03 01 00 ................
004101A0 E2 03 01 00 F2 03 01 00 04 04 01 00 0E 04 01 00 ................
004101B0 1C 04 01 00 00 00 00 00 38 04 01 00 48 04 01 00 ........8...H...
004101C0 54 04 01 00 64 04 01 00 72 04 01 00 84 04 01 00 T...d...r.......
004101D0 94 04 01 00 A2 04 01 00 B4 04 01 00 C2 04 01 00 ................
004101E0 D6 04 01 00 EE 04 01 00 FA 04 01 00 0C 05 01 00 ................
004101F0 1C 05 01 00 2C 05 01 00 38 05 01 00 48 05 01 00 ....,...8...H...
00410200 58 05 01 00 66 05 01 00 76 05 01 00 88 05 01 00 X...f...v.......
00410210 94 05 01 00 A0 05 01 00 AC 05 01 00 B8 05 01 00 ................
00410220 C8 05 01 00 D6 05 01 00 E8 05 01 00 FE 05 01 00 ................
00410230 0A 06 01 00 16 06 01 00 24 06 01 00 30 06 01 00 ........$...0...
00410240 40 06 01 00 50 06 01 00 60 06 01 00 00 00 00 00 @...P...`.......
00410250 23 00 46 72 65 65 4C 69 62 72 61 72 79 00 28 00 #.FreeLibrary.(.
00410260 51 75 65 72 79 50 65 72 66 6F 72 6D 61 6E 63 65 QueryPerformance
00410270 43 6F 75 6E 74 65 72 00 2C 00 57 61 69 74 46 6F Counter.,.WaitFo
00410280 72 53 69 6E 67 6C 65 4F 62 6A 65 63 74 00 31 00 rSingleObject.1.
00410290 47 65 74 54 69 63 6B 43 6F 75 6E 74 00 00 36 00 GetTickCount..6.
004102A0 4C 6F 63 61 6C 46 72 65 65 00 3A 00 56 69 72 74 LocalFree.:.Virt
004102B0 75 61 6C 41 6C 6C 6F 63 00 00 3E 00 47 65 74 50 ualAlloc..>.GetP
004102C0 72 6F 63 41 64 64 72 65 73 73 00 00 44 00 6C 73 rocAddress..D.ls
004102D0 74 72 6C 65 6E 57 00 00 46 00 48 65 61 70 52 65 trlenW..F.HeapRe
004102E0 41 6C 6C 6F 63 00 49 00 47 65 74 4D 6F 64 75 6C Alloc.I.GetModul
004102F0 65 48 61 6E 64 6C 65 57 00 00 4A 00 47 65 74 43 eHandleW..J.GetC
00410300 75 72 72 65 6E 74 50 72 6F 63 65 73 73 00 4C 00 urrentProcess.L.
00410310 4C 65 61 76 65 43 72 69 74 69 63 61 6C 53 65 63 LeaveCriticalSec
00410320 74 69 6F 6E 00 00 50 00 53 65 74 45 76 65 6E 74 tion..P.SetEvent
00410330 00 00 53 00 53 65 74 4C 61 73 74 45 72 72 6F 72 ..S.SetLastError
00410340 00 00 58 00 49 6E 69 74 69 61 6C 69 7A 65 43 72 ..X.InitializeCr
00410350 69 74 69 63 61 6C 53 65 63 74 69 6F 6E 00 5A 00 iticalSection.Z.
00410360 46 72 65 65 4C 69 62 72 61 72 79 00 5D 00 47 65 FreeLibrary.].Ge
00410370 74 50 72 6F 63 65 73 73 48 65 61 70 00 00 63 00 tProcessHeap..c.
00410380 6C 73 74 72 63 6D 70 69 57 00 68 00 49 6E 69 74 lstrcmpiW.h.Init
00410390 69 61 6C 69 7A 65 43 72 69 74 69 63 61 6C 53 65 ializeCriticalSe
004103A0 63 74 69 6F 6E 00 6D 00 47 65 74 53 74 61 72 74 ction.m.GetStart
004103B0 75 70 49 6E 66 6F 57 00 6F 00 4C 6F 63 61 6C 41 upInfoW.o.LocalA
004103C0 6C 6C 6F 63 00 00 74 00 55 6E 68 61 6E 64 6C 65 lloc..t.Unhandle
004103D0 64 45 78 63 65 70 74 69 6F 6E 46 69 6C 74 65 72 dExceptionFilter
004103E0 00 00 77 00 56 69 72 74 75 61 6C 41 6C 6C 6F 63 ..w.VirtualAlloc
004103F0 00 00 7C 00 47 65 74 53 74 61 72 74 75 70 49 6E ..|.GetStartupIn
00410400 66 6F 57 00 82 00 47 65 74 41 43 50 00 00 87 00 foW...GetACP....
00410410 45 78 69 74 50 72 6F 63 65 73 73 00 8D 00 43 72 ExitProcess...Cr
00410420 65 61 74 65 46 69 6C 65 57 00 4B 45 52 4E 45 4C eateFileW.KERNEL
00410430 33 32 2E 44 4C 4C 00 00 1E 00 53 65 74 57 69 6E 32.DLL....SetWin
00410440 64 6F 77 50 6F 73 00 00 21 00 47 65 74 50 61 72 dowPos..!.GetPar
00410450 65 6E 74 00 24 00 47 65 74 57 69 6E 64 6F 77 52 ent.$.GetWindowR
00410460 65 63 74 00 28 00 47 65 74 44 6C 67 49 74 65 6D ect.(.GetDlgItem
00410470 00 00 2D 00 49 6E 76 61 6C 69 64 61 74 65 52 65 ..-.InvalidateRe
00410480 63 74 00 00 32 00 45 6E 61 62 6C 65 57 69 6E 64 ct..2.EnableWind
00410490 6F 77 00 00 37 00 4D 65 73 73 61 67 65 42 6F 78 ow..7.MessageBox
004104A0 41 00 3A 00 43 61 6C 6C 57 69 6E 64 6F 77 50 72 A.:.CallWindowPr
004104B0 6F 63 57 00 3E 00 4D 6F 76 65 57 69 6E 64 6F 77 ocW.>.MoveWindow
004104C0 00 00 42 00 4C 6F 61 64 41 63 63 65 6C 65 72 61 ..B.LoadAccelera
004104D0 74 6F 72 73 57 00 47 00 53 79 73 74 65 6D 50 61 torsW.G.SystemPa
004104E0 72 61 6D 65 74 65 72 73 49 6E 66 6F 57 00 4B 00 rametersInfoW.K.
004104F0 49 73 57 69 6E 64 6F 77 00 00 51 00 4D 61 70 57 IsWindow..Q.MapW
00410500 69 6E 64 6F 77 50 6F 69 6E 74 73 00 56 00 47 65 indowPoints.V.Ge
00410510 74 44 6C 67 43 74 72 6C 49 44 00 00 58 00 55 70 tDlgCtrlID..X.Up
00410520 64 61 74 65 57 69 6E 64 6F 77 00 00 5A 00 45 6E dateWindow..Z.En
00410530 64 50 61 69 6E 74 00 00 5E 00 45 6E 61 62 6C 65 dPaint..^.Enable
00410540 57 69 6E 64 6F 77 00 00 61 00 44 65 73 74 72 6F Window..a.Destro
00410550 79 57 69 6E 64 6F 77 00 62 00 47 65 74 44 6C 67 yWindow.b.GetDlg
00410560 49 74 65 6D 00 00 64 00 53 65 74 57 69 6E 64 6F Item..d.SetWindo
00410570 77 50 6F 73 00 00 6A 00 47 65 74 57 69 6E 64 6F wPos..j.GetWindo
00410580 77 4C 6F 6E 67 57 00 00 6E 00 4C 6F 61 64 49 63 wLongW..n.LoadIc
00410590 6F 6E 57 00 74 00 4C 6F 61 64 49 63 6F 6E 57 00 onW.t.LoadIconW.
004105A0 76 00 46 69 6C 6C 52 65 63 74 00 00 79 00 43 6F v.FillRect..y.Co
004105B0 70 79 52 65 63 74 00 00 7C 00 53 65 6E 64 4D 65 pyRect..|.SendMe
004105C0 73 73 61 67 65 57 00 00 7E 00 44 65 73 74 72 6F ssageW..~.Destro
004105D0 79 49 63 6F 6E 00 84 00 47 65 74 44 6C 67 49 74 yIcon...GetDlgIt
004105E0 65 6D 54 65 78 74 57 00 88 00 53 65 74 46 6F 72 emTextW...SetFor
004105F0 65 67 72 6F 75 6E 64 57 69 6E 64 6F 77 00 89 00 egroundWindow...
00410600 52 65 6C 65 61 73 65 44 43 00 8B 00 49 73 49 63 ReleaseDC...IsIc
00410610 6F 6E 69 63 00 00 8F 00 4D 6F 76 65 57 69 6E 64 onic....MoveWind
00410620 6F 77 00 00 94 00 47 65 74 57 69 6E 64 6F 77 00 ow....GetWindow.
00410630 95 00 47 65 74 44 6C 67 43 74 72 6C 49 44 00 00 ..GetDlgCtrlID..
00410640 99 00 50 6F 73 74 4D 65 73 73 61 67 65 57 00 00 ..PostMessageW..
00410650 9E 00 47 65 74 53 79 73 74 65 6D 4D 65 6E 75 00 ..GetSystemMenu.
00410660 A2 00 49 73 49 63 6F 6E 69 63 00 00 55 53 45 52 ..IsIconic..USER
00410670 33 32 2E 44 4C 4C 00 00 00 00 00 00 00 00 00 00 32.DLL..........
00410680 00 00 00 00 00 00 00 00 00 00 00 00 00 00 00 00 ................
00410690 00 00 00 00 00 00 00 00 00 00 00 00 00 00 00 00 ................
004106A0 00 00 00 00 00 00 00 00 00 00 00 00 00 00 00 00 ................
004106B0 00 00 00 00 00 00 00 00 00 00 00 00 00 00 00 00 ................
004106C0 00 00 00 00 00 00 00 00 00 00 00 00 00 00 00 00 ................
004106D0 00 00 00 00 00 00 00 00 00 00 00 00 00 00 00 00 ................
004106E0 00 00 00 00 00 00 00 00 00 00 00 00 00 00 00 00 ................
004106F0 00 00 00 00 00 00 00 00 00 00 00 00 00 00 00 00 ................
00410700 00 00 00 00 00 00 00 00 00 00 00 00 00 00 00 00 ................
00410710 00 00 00 00 00 00 00 00 00 00 00 00 00 00 00 00 ................
00410720 00 00 00 00 00 00 00 00 00 00 00 00 00 00 00 00 ................
00410730 00 00 00 00 00 00 00 00 00 00 00 00 00 00 00 00 ................
00410740 00 00 00 00 00 00 00 00 00 00 00 00 00 00 00 00 ................
00410750 00 00 00 00 00 00 00 00 00 00 00 00 00 00 00 00 ................
00410760 00 00 00 00 00 00 00 00 00 00 00 00 00 00 00 00 ................
00410770 00 00 00 00 00 00 00 00 00 00 00 00 00 00 00 00 ................
00410780 00 00 00 00 00 00 00 00 00 00 00 00 00 00 00 00 ................
00410790 00 00 00 00 00 00 00 00 00 00 00 00 00 00 00 00 ................
004107A0 00 00 00 00 00 00 00 00 00 00 00 00 00 00 00 00 ................
004107B0 00 00 00 00 00 00 00 00 00 00 00 00 00 00 00 00 ................
004107C0 00 00 00 00 00 00 00 00 00 00 00 00 00 00 00 00 ................
004107D0 00 00 00 00 00 00 00 00 00 00 00 00 00 00 00 00 ................
004107E0 00 00 00 00 00 00 00 00 00 00 00 00 00 00 00 00 ................
004107F0 00 00 00 00 00 00 00 00 00 00 00 00 00 00 00 00 ................
00410800 00 00 00 00 00 00 00 00 00 00 00 00 00 00 00 00 ................
00410810 00 00 00 00 00 00 00 00 00 00 00 00 00 00 00 00 ................
00410820 00 00 00 00 00 00 00 00 00 00 00 00 00 00 00 00 ................
00410830 00 00 00 00 00 00 00 00 00 00 00 00 00 00 00 00 ................
00410840 00 00 00 00 00 00 00 00 00 00 00 00 00 00 00 00 ................
00410850 00 00 00 00 00 00 00 00 00 00 00 00 00 00 00 00 ................
00410860 00 00 00 00 00 00 00 00 00 00 00 00 00 00 00 00 ................
00410870 00 00 00 00 00 00 00 00 00 00 00 00 00 00 00 00 ................
00410880 00 00 00 00 00 00 00 00 00 00 00 00 00 00 00 00 ................
00410890 00 00 00 00 00 00 00 00 00 00 00 00 00 00 00 00 ................
004108A0 00 00 00 00 00 00 00 00 00 00 00 00 00 00 00 00 ................
004108B0 00 00 00 00 00 00 00 00 00 00 00 00 00 00 00 00 ................
004108C0 00 00 00 00 00 00 00 00 00 00 00 00 00 00 00 00 ................
004108D0 00 00 00 00 00 00 00 00 00 00 00 00 00 00 00 00 ................
004108E0 00 00 00 00 00 00 00 00 00 00 00 00 00 00 00 00 ................
004108F0 00 00 00 00 00 00 00 00 00 00 00 00 00 00 00 00 ................
00410900 00 00 00 00 00 00 00 00 00 00 00 00 00 00 00 00 ................
00410910 00 00 00 00 00 00 00 00 00 00 00 00 00 00 00 00 ................
00410920 00 00 00 00 00 00 00 00 00 00 00 00 00 00 00 00 ................
00410930 00 00 00 00 00 00 00 00 00 00 00 00 00 00 00 00 ................
00410940 00 00 00 00 00 00 00 00 00 00 00 00 00 00 00 00 ................
00410950 00 00 00 00 00 00 00 00 00 00 00 00 00 00 00 00 ................
00410960 00 00 00 00 00 00 00 00 00 00 00 00 00 00 00 00 ................
00410970 00 00 00 00 00 00 00 00 00 00 00 00 00 00 00 00 ................
00410980 00 00 00 00 00 00 00 00 00 00 00 00 00 00 00 00 ................
00410990 00 00 00 00 00 00 00 00 00 00 00 00 00 00 00 00 ................
004109A0 00 00 00 00 00 00 00 00 00 00 00 00 00 00 00 00 ................
004109B0 00 00 00 00 00 00 00 00 00 00 00 00 00 00 00 00 ................
004109C0 00 00 00 00 00 00 00 00 00 00 00 00 00 00 00 00 ................
004109D0 00 00 00 00 00 00 00 00 00 00 00 00 00 00 00 00 ................
004109E0 00 00 00 00 00 00 00 00 00 00 00 00 00 00 00 00 ................
004109F0 00 00 00 00 00 00 00 00 00 00 00 00 00 00 00 00 ................
00410A00 00 00 00 00 00 00 00 00 00 00 00 00 00 00 00 00 ................
00410A10 00 00 00 00 00 00 00 00 00 00 00 00 00 00 00 00 ................
00410A20 00 00 00 00 00 00 00 00 00 00 00 00 00 00 00 00 ................
00410A30 00 00 00 00 00 00 00 00 00 00 00 00 00 00 00 00 ................
00410A40 00 00 00 00 00 00 00 00 00 00 00 00 00 00 00 00 ................
00410A50 00 00 00 00 00 00 00 00 00 00 00 00 00 00 00 00 ................
00410A60 00 00 00 00 00 00 00 00 00 00 00 00 00 00 00 00 ................
00410A70 00 00 00 00 00 00 00 00 00 00 00 00 00 00 00 00 ................
00410A80 00 00 00 00 00 00 00 00 00 00 00 00 00 00 00 00 ................
00410A90 00 00 00 00 00 00 00 00 00 00 00 00 00 00 00 00 ................
00410AA0 00 00 00 00 00 00 00 00 00 00 00 00 00 00 00 00 ................
00410AB0 00 00 00 00 00 00 00 00 00 00 00 00 00 00 00 00 ................
00410AC0 00 00 00 00 00 00 00 00 00 00 00 00 00 00 00 00 ................
00410AD0 00 00 00 00 00 00 00 00 00 00 00 00 00 00 00 00 ................
00410AE0 00 00 00 00 00 00 00 00 00 00 00 00 00 00 00 00 ................
00410AF0 00 00 00 00 00 00 00 00 00 00 00 00 00 00 00 00 ................
00410B00 00 00 00 00 00 00 00 00 00 00 00 00 00 00 00 00 ................
00410B10 00 00 00 00 00 00 00 00 00 00 00 00 00 00 00 00 ................
00410B20 00 00 00 00 00 00 00 00 00 00 00 00 00 00 00 00 ................
00410B30 00 00 00 00 00 00 00 00 00 00 00 00 00 00 00 00 ................
00410B40 00 00 00 00 00 00 00 00 00 00 00 00 00 00 00 00 ................
00410B50 00 00 00 00 00 00 00 00 00 00 00 00 00 00 00 00 ................
00410B60 00 00 00 00 00 00 00 00 00 00 00 00 00 00 00 00 ................
00410B70 00 00 00 00 00 00 00 00 00 00 00 00 00 00 00 00 ................
00410B80 00 00 00 00 00 00 00 00 00 00 00 00 00 00 00 00 ................
00410B90 00 00 00 00 00 00 00 00 00 00 00 00 00 00 00 00 ................
00410BA0 00 00 00 00 00 00 00 00 00 00 00 00 00 00 00 00 ................
00410BB0 00 00 00 00 00 00 00 00 00 00 00 00 00 00 00 00 ................
00410BC0 00 00 00 00 00 00 00 00 00 00 00 00 00 00 00 00 ................
00410BD0 00 00 00 00 00 00 00 00 00 00 00 00 00 00 00 00 ................
00410BE0 00 00 00 00 00 00 00 00 00 00 00 00 00 00 00 00 ................
00410BF0 00 00 00 00 00 00 00 00 00 00 00 00 00 00 00 00 ................
00410C00 00 00 00 00 00 00 00 00 00 00 00 00 00 00 00 00 ................
00410C10 00 00 00 00 00 00 00 00 00 00 00 00 00 00 00 00 ................
00410C20 00 00 00 00 00 00 00 00 00 00 00 00 00 00 00 00 ................
00410C30 00 00 00 00 00 00 00 00 00 00 00 00 00 00 00 00 ................
00410C40 00 00 00 00 00 00 00 00 00 00 00 00 00 00 00 00 ................
00410C50 00 00 00 00 00 00 00 00 00 00 00 00 00 00 00 00 ................
00410C60 00 00 00 00 00 00 00 00 00 00 00 00 00 00 00 00 ................
00410C70 00 00 00 00 00 00 00 00 00 00 00 00 00 00 00 00 ................
00410C80 00 00 00 00 00 00 00 00 00 00 00 00 00 00 00 00 ................
00410C90 00 00 00 00 00 00 00 00 00 00 00 00 00 00 00 00 ................
00410CA0 00 00 00 00 00 00 00 00 00 00 00 00 00 00 00 00 ................
00410CB0 00 00 00 00 00 00 00 00 00 00 00 00 00 00 00 00 ................
00410CC0 00 00 00 00 00 00 00 00 00 00 00 00 00 00 00 00 ................
00410CD0 00 00 00 00 00 00 00 00 00 00 00 00 00 00 00 00 ................
00410CE0 00 00 00 00 00 00 00 00 00 00 00 00 00 00 00 00 ................
00410CF0 00 00 00 00 00 00 00 00 00 00 00 00 00 00 00 00 ................
00410D00 00 00 00 00 00 00 00 00 00 00 00 00 00 00 00 00 ................
00410D10 00 00 00 00 00 00 00 00 00 00 00 00 00 00 00 00 ................
00410D20 00 00 00 00 00 00 00 00 00 00 00 00 00 00 00 00 ................
00410D30 00 00 00 00 00 00 00 00 00 00 00 00 00 00 00 00 ................
00410D40 00 00 00 00 00 00 00 00 00 00 00 00 00 00 00 00 ................
00410D50 00 00 00 00 00 00 00 00 00 00 00 00 00 00 00 00 ................
00410D60 00 00 00 00 00 00 00 00 00 00 00 00 00 00 00 00 ................
00410D70 00 00 00 00 00 00 00 00 00 00 00 00 00 00 00 00 ................
00410D80 00 00 00 00 00 00 00 00 00 00 00 00 00 00 00 00 ................
00410D90 00 00 00 00 00 00 00 00 00 00 00 00 00 00 00 00 ................
00410DA0 00 00 00 00 00 00 00 00 00 00 00 00 00 00 00 00 ................
00410DB0 00 00 00 00 00 00 00 00 00 00 00 00 00 00 00 00 ................
00410DC0 00 00 00 00 00 00 00 00 00 00 00 00 00 00 00 00 ................
00410DD0 00 00 00 00 00 00 00 00 00 00 00 00 00 00 00 00 ................
00410DE0 00 00 00 00 00 00 00 00 00 00 00 00 00 00 00 00 ................
00410DF0 00 00 00 00 00 00 00 00 00 00 00 00 00 00 00 00 ................
00410E00 00 00 00 00 00 00 00 00 00 00 00 00 00 00 00 00 ................
00410E10 00 00 00 00 00 00 00 00 00 00 00 00 00 00 00 00 ................
00410E20 00 00 00 00 00 00 00 00 00 00 00 00 00 00 00 00 ................
00410E30 00 00 00 00 00 00 00 00 00 00 00 00 00 00 00 00 ................
00410E40 00 00 00 00 00 00 00 00 00 00 00 00 00 00 00 00 ................
00410E50 00 00 00 00 00 00 00 00 00 00 00 00 00 00 00 00 ................
00410E60 00 00 00 00 00 00 00 00 00 00 00 00 00 00 00 00 ................
00410E70 00 00 00 00 00 00 00 00 00 00 00 00 00 00 00 00 ................
00410E80 00 00 00 00 00 00 00 00 00 00 00 00 00 00 00 00 ................
00410E90 00 00 00 00 00 00 00 00 00 00 00 00 00 00 00 00 ................
00410EA0 00 00 00 00 00 00 00 00 00 00 00 00 00 00 00 00 ................
00410EB0 00 00 00 00 00 00 00 00 00 00 00 00 00 00 00 00 ................
00410EC0 00 00 00 00 00 00 00 00 00 00 00 00 00 00 00 00 ................
00410ED0 00 00 00 00 00 00 00 00 00 00 00 00 00 00 00 00 ................
00410EE0 00 00 00 00 00 00 00 00 00 00 00 00 00 00 00 00 ................
00410EF0 00 00 00 00 00 00 00 00 00 00 00 00 00 00 00 00 ................
00410F00 00 00 00 00 00 00 00 00 00 00 00 00 00 00 00 00 ................
00410F10 00 00 00 00 00 00 00 00 00 00 00 00 00 00 00 00 ................
00410F20 00 00 00 00 00 00 00 00 00 00 00 00 00 00 00 00 ................
00410F30 00 00 00 00 00 00 00 00 00 00 00 00 00 00 00 00 ................
00410F40 00 00 00 00 00 00 00 00 00 00 00 00 00 00 00 00 ................
00410F50 00 00 00 00 00 00 00 00 00 00 00 00 00 00 00 00 ................
00410F60 00 00 00 00 00 00 00 00 00 00 00 00 00 00 00 00 ................
00410F70 00 00 00 00 00 00 00 00 00 00 00 00 00 00 00 00 ................
00410F80 00 00 00 00 00 00 00 00 00 00 00 00 00 00 00 00 ................
00410F90 00 00 00 00 00 00 00 00 00 00 00 00 00 00 00 00 ................
00410FA0 00 00 00 00 00 00 00 00 00 00 00 00 00 00 00 00 ................
00410FB0 00 00 00 00 00 00 00 00 00 00 00 00 00 00 00 00 ................
00410FC0 00 00 00 00 00 00 00 00 00 00 00 00 00 00 00 00 ................
00410FD0 00 00 00 00 00 00 00 00 00 00 00 00 00 00 00 00 ................
00410FE0 00 00 00 00 00 00 00 00 00 00 00 00 00 00 00 00 ................
00410FF0 00 00 00 00 00 00 00 00 00 00 00 00 00 00 00 00 ................
00411000 00 00 00 00 00 00 00 00 00 00 00 00 00 00 03 00 ................
00411010 03 00 00 00 28 00 00 80 0E 00 00 00 40 00 00 80 ....(.......@...
00411020 10 00 00 00 58 00 00 80 00 00 00 00 00 00 00 00 ....X...........
00411030 00 00 00 00 00 00 01 00 01 00 00 00 70 00 00 80 ............p...
00411040 00 00 00 00 00 00 00 00 00 00 00 00 00 00 01 00 ................
00411050 DD 8B 00 00 88 00 00 80 00 00 00 00 00 00 00 00 ................
00411060 00 00 00 00 00 00 01 00 0E CD 00 00 A0 00 00 80 ................
00411070 00 00 00 00 00 00 00 00 00 00 00 00 00 00 01 00 ................
00411080 19 04 00 00 B8 00 00 00 00 00 00 00 00 00 00 00 ................
00411090 00 00 00 00 00 00 01 00 19 04 00 00 C8 00 00 00 ................
004110A0 00 00 00 00 00 00 00 00 00 00 00 00 00 00 01 00 ................
004110B0 19 04 00 00 D8 00 00 00 E8 10 01 00 A8 08 00 00 ................
004110C0 00 00 00 00 00 00 00 00 90 19 01 00 14 00 00 00 ................
004110D0 00 00 00 00 00 00 00 00 A4 19 01 00 00 03 00 00 ................
004110E0 00 00 00 00 00 00 00 00 28 00 00 00 20 00 00 00 ........(... ...
004110F0 40 00 00 00 01 00 08 00 00 00 00 00 00 04 00 00 @...............
00411100 00 00 00 00 00 00 00 00 00 00 00 00 00 00 00 00 ................
00411110 00 00 00 00 00 00 80 00 00 80 00 00 00 80 80 00 ................
00411120 80 00 00 00 80 00 80 00 80 80 00 00 C0 C0 C0 00 ................
00411130 C0 DC C0 00 F0 CA A6 00 00 20 40 00 00 20 60 00 ......... @.. `.
00411140 00 20 80 00 00 20 A0 00 00 20 C0 00 00 20 E0 00 . ... ... ... ..
00411150 00 40 00 00 00 40 20 00 00 40 40 00 00 40 60 00 .@...@ ..@@..@`.
00411160 00 40 80 00 00 40 A0 00 00 40 C0 00 00 40 E0 00 .@...@...@...@..
00411170 00 60 00 00 00 60 20 00 00 60 40 00 00 60 60 00 .`...` ..`@..``.
00411180 00 60 80 00 00 60 A0 00 00 60 C0 00 00 60 E0 00 .`...`...`...`..
00411190 00 80 00 00 00 80 20 00 00 80 40 00 00 80 60 00 ...... ...@...`.
004111A0 00 80 80 00 00 80 A0 00 00 80 C0 00 00 80 E0 00 ................
004111B0 00 A0 00 00 00 A0 20 00 00 A0 40 00 00 A0 60 00 ...... ...@...`.
004111C0 00 A0 80 00 00 A0 A0 00 00 A0 C0 00 00 A0 E0 00 ................
004111D0 00 C0 00 00 00 C0 20 00 00 C0 40 00 00 C0 60 00 ...... ...@...`.
004111E0 00 C0 80 00 00 C0 A0 00 00 C0 C0 00 00 C0 E0 00 ................
004111F0 00 E0 00 00 00 E0 20 00 00 E0 40 00 00 E0 60 00 ...... ...@...`.
00411200 00 E0 80 00 00 E0 A0 00 00 E0 C0 00 00 E0 E0 00 ................
00411210 40 00 00 00 40 00 20 00 40 00 40 00 40 00 60 00 @...@. .@.@.@.`.
00411220 40 00 80 00 40 00 A0 00 40 00 C0 00 40 00 E0 00 @...@...@...@...
00411230 40 20 00 00 40 20 20 00 40 20 40 00 40 20 60 00 @ ..@  .@ @.@ `.
00411240 40 20 80 00 40 20 A0 00 40 20 C0 00 40 20 E0 00 @ ..@ ..@ ..@ ..
00411250 40 40 00 00 40 40 20 00 40 40 40 00 40 40 60 00 @@..@@ .@@@.@@`.
00411260 40 40 80 00 40 40 A0 00 40 40 C0 00 40 40 E0 00 @@..@@..@@..@@..
00411270 40 60 00 00 40 60 20 00 40 60 40 00 40 60 60 00 @`..@` .@`@.@``.
00411280 40 60 80 00 40 60 A0 00 40 60 C0 00 40 60 E0 00 @`..@`..@`..@`..
00411290 40 80 00 00 40 80 20 00 40 80 40 00 40 80 60 00 @...@. .@.@.@.`.
004112A0 40 80 80 00 40 80 A0 00 40 80 C0 00 40 80 E0 00 @...@...@...@...
004112B0 40 A0 00 00 40 A0 20 00 40 A0 40 00 40 A0 60 00 @...@. .@.@.@.`.
004112C0 40 A0 80 00 40 A0 A0 00 40 A0 C0 00 40 A0 E0 00 @...@...@...@...
004112D0 40 C0 00 00 40 C0 20 00 40 C0 40 00 40 C0 60 00 @...@. .@.@.@.`.
004112E0 40 C0 80 00 40 C0 A0 00 40 C0 C0 00 40 C0 E0 00 @...@...@...@...
004112F0 40 E0 00 00 40 E0 20 00 40 E0 40 00 40 E0 60 00 @...@. .@.@.@.`.
00411300 40 E0 80 00 40 E0 A0 00 40 E0 C0 00 40 E0 E0 00 @...@...@...@...
00411310 80 00 00 00 80 00 20 00 80 00 40 00 80 00 60 00 ...... ...@...`.
00411320 80 00 80 00 80 00 A0 00 80 00 C0 00 80 00 E0 00 ................
00411330 80 20 00 00 80 20 20 00 80 20 40 00 80 20 60 00 . ...  .. @.. `.
00411340 80 20 80 00 80 20 A0 00 80 20 C0 00 80 20 E0 00 . ... ... ... ..
00411350 80 40 00 00 80 40 20 00 80 40 40 00 80 40 60 00 .@...@ ..@@..@`.
00411360 80 40 80 00 80 40 A0 00 80 40 C0 00 80 40 E0 00 .@...@...@...@..
00411370 80 60 00 00 80 60 20 00 80 60 40 00 80 60 60 00 .`...` ..`@..``.
00411380 80 60 80 00 80 60 A0 00 80 60 C0 00 80 60 E0 00 .`...`...`...`..
00411390 80 80 00 00 80 80 20 00 80 80 40 00 80 80 60 00 ...... ...@...`.
004113A0 80 80 80 00 80 80 A0 00 80 80 C0 00 80 80 E0 00 ................
004113B0 80 A0 00 00 80 A0 20 00 80 A0 40 00 80 A0 60 00 ...... ...@...`.
004113C0 80 A0 80 00 80 A0 A0 00 80 A0 C0 00 80 A0 E0 00 ................
004113D0 80 C0 00 00 80 C0 20 00 80 C0 40 00 80 C0 60 00 ...... ...@...`.
004113E0 80 C0 80 00 80 C0 A0 00 80 C0 C0 00 80 C0 E0 00 ................
004113F0 80 E0 00 00 80 E0 20 00 80 E0 40 00 80 E0 60 00 ...... ...@...`.
00411400 80 E0 80 00 80 E0 A0 00 80 E0 C0 00 80 E0 E0 00 ................
00411410 C0 00 00 00 C0 00 20 00 C0 00 40 00 C0 00 60 00 ...... ...@...`.
00411420 C0 00 80 00 C0 00 A0 00 C0 00 C0 00 C0 00 E0 00 ................
00411430 C0 20 00 00 C0 20 20 00 C0 20 40 00 C0 20 60 00 . ...  .. @.. `.
00411440 C0 20 80 00 C0 20 A0 00 C0 20 C0 00 C0 20 E0 00 . ... ... ... ..
00411450 C0 40 00 00 C0 40 20 00 C0 40 40 00 C0 40 60 00 .@...@ ..@@..@`.
00411460 C0 40 80 00 C0 40 A0 00 C0 40 C0 00 C0 40 E0 00 .@...@...@...@..
00411470 C0 60 00 00 C0 60 20 00 C0 60 40 00 C0 60 60 00 .`...` ..`@..``.
00411480 C0 60 80 00 C0 60 A0 00 C0 60 C0 00 C0 60 E0 00 .`...`...`...`..
00411490 C0 80 00 00 C0 80 20 00 C0 80 40 00 C0 80 60 00 ...... ...@...`.
004114A0 C0 80 80 00 C0 80 A0 00 C0 80 C0 00 C0 80 E0 00 ................
004114B0 C0 A0 00 00 C0 A0 20 00 C0 A0 40 00 C0 A0 60 00 ...... ...@...`.
004114C0 C0 A0 80 00 C0 A0 A0 00 C0 A0 C0 00 C0 A0 E0 00 ................
004114D0 C0 C0 00 00 C0 C0 20 00 C0 C0 40 00 C0 C0 60 00 ...... ...@...`.
004114E0 C0 C0 80 00 C0 C0 A0 00 F0 FB FF 00 A4 A0 A0 00 ................
004114F0 80 80 80 00 00 00 FF 00 00 FF 00 00 00 FF FF 00 ................
00411500 FF 00 00 00 FF 00 FF 00 FF FF 00 00 FF FF FF 00 ................
00411510 00 00 00 00 00 00 00 00 00 00 00 00 00 00 00 00 ................
00411520 00 00 00 00 00 00 00 00 00 00 00 00 00 00 00 00 ................
00411530 00 00 00 00 00 00 ED A3 9A 9A 92 92 92 92 92 92 ................
00411540 92 92 92 92 92 92 92 92 92 92 92 92 92 92 92 00 ................
00411550 00 00 00 00 00 00 ED F6 07 09 09 09 09 09 09 09 ................
00411560 09 09 EC 09 09 EC EC EC EC EB EB EB EB EB 92 00 ................
00411570 00 00 00 00 00 00 ED F6 F6 F6 F6 F6 F6 F6 F6 F6 ................
00411580 F6 F6 F6 F6 F6 F6 F6 F6 09 09 09 09 09 EB 92 00 ................
00411590 00 00 00 00 00 00 ED F6 F6 F6 F6 F6 F6 F6 F6 F6 ................
004115A0 F6 F6 F6 F6 F6 F6 F6 F6 F6 F6 09 09 09 EB 92 00 ................
004115B0 00 00 00 00 00 00 ED F6 F6 F5 F5 ED ED EC EC EC ................
004115C0 E3 E3 E3 E3 E3 E3 E3 E3 E3 E3 F6 F6 09 EB 92 00 ................
004115D0 00 00 00 00 00 00 ED FF FF F5 FF FF FF F6 EC F6 ................
004115E0 F6 EC FF E3 F6 F6 EC FF E3 F6 F6 F6 F6 EB 92 00 ................
004115F0 00 00 00 00 00 00 ED FF FF F5 FF FF FF FF ED FF ................
00411600 FF EC FF E3 F6 F6 EC FF E3 F6 F6 F6 F6 EC 92 00 ................
00411610 00 00 00 00 00 00 ED FF FF F5 F5 F5 F5 F5 F5 ED ................
00411620 FF EC FF E3 F6 F6 EC FF E3 F6 F6 F6 F6 EC 92 00 ................
00411630 00 00 00 00 00 00 ED FF FF 09 FF FF FF FF F5 FF ................
00411640 FF ED FF E3 EC EC EC FF E3 F6 F6 F6 F6 EC 92 00 ................
00411650 00 00 00 00 00 00 ED FF FF 09 FF FF FF FF F5 FF ................
00411660 FF F5 FF E3 FF FF EC FF E3 F6 F6 F6 F6 EC 92 00 ................
00411670 00 00 00 00 00 00 ED FF FF 09 09 09 09 09 F5 F5 ................
00411680 FF F5 F5 E3 FF FF EC FF E3 F6 F6 F6 F6 EC 92 00 ................
00411690 00 00 00 00 00 00 ED FF FF 09 FF FF FF FF 09 FF ................
004116A0 FF FF FF FF FF FF ED ED E3 F6 F6 F6 F6 09 92 00 ................
004116B0 00 00 00 00 00 00 ED 08 08 ED 07 07 07 ED ED 08 ................
004116C0 FF FF FF F5 FF FF FF FF FF FF F6 F6 F6 09 92 00 ................
004116D0 00 00 00 00 00 00 F7 F7 F5 07 07 08 08 F6 08 ED ................
004116E0 EC 09 F5 F5 F5 F5 F5 F5 ED FF FF F6 F6 EC 92 00 ................
004116F0 00 19 18 AC 08 08 FF FF FF F6 F6 F6 F6 F6 08 07 ................
00411700 F6 FF FF 09 FF FF FF FF F5 FF FF FF F6 09 92 00 ................
00411710 00 19 B5 08 FF FF FF FF F6 F6 B5 1A 1A F6 F6 07 ................
00411720 F6 FF FF 09 FF FF FF FF F5 FF FF FF FF 09 92 00 ................
00411730 00 19 07 AC FF 08 B4 B4 B4 AB 22 1A 6B F6 F6 ED ..........".k...
00411740 F5 09 09 09 09 09 09 F5 F5 FF FF FF FF 09 92 00 ................
00411750 00 19 08 62 FF FF 08 B4 B4 62 1A 6C AB B5 F6 07 ...b.....b.l....
00411760 08 FF FF 09 FF FF FF FF F5 FF FF FF FF 09 92 00 ................
00411770 00 19 08 19 F6 FF FF 08 6B 1A 22 08 FF F6 F6 07 ........k.".....
00411780 08 FF FF 09 FF FF FF FF 09 FF FF FF FF 09 92 00 ................
00411790 00 21 08 19 07 FF FF 08 22 22 6B B4 F5 F6 F6 07 .!......""k.....
004117A0 F5 09 09 09 09 09 09 09 09 FF FF FF FF 09 92 00 ................
004117B0 00 21 08 19 AC FF F6 22 1A B5 F6 B4 B4 B4 F6 08 .!....."........
004117C0 08 FF FF 09 FF FF FF FF 09 FF FF FF FF 09 92 00 ................
004117D0 00 21 08 AC B4 FF 63 62 6C FF FF FF FF FF FF 08 .!....cbl.......
004117E0 08 FF FF 09 FF FF FF FF 07 09 09 09 09 09 92 00 ................
004117F0 00 61 08 B4 B4 FF FF FF FF FF FF FF FF FF FF F6 .a..............
00411800 07 09 09 09 09 09 09 ED A3 A3 9B 9A 9A 9A 92 00 ................
00411810 00 61 08 B5 B4 08 08 08 08 08 08 F5 B5 08 6B FF .a............k.
00411820 FF FF FF FF FF FF FF ED 09 09 09 09 09 92 F6 00 ................
00411830 00 61 B5 F6 B5 B5 B5 B5 B5 B5 B5 B5 B5 F6 61 FF .a............a.
00411840 FF FF FF FF FF FF FF ED F6 F6 09 09 92 F6 F6 00 ................
00411850 00 61 61 08 F6 08 BD BD BD BD BD BD B5 F6 61 F6 .aa...........a.
00411860 09 09 09 FF FF FF FF F5 F6 F6 09 92 F6 F6 00 00 ................
00411870 00 00 61 61 B5 08 F6 F6 F6 F6 F6 F6 F6 F6 61 FF ..aa..........a.
00411880 FF FF FF FF FF FF FF F5 F6 F6 9A F6 F6 00 00 00 ................
00411890 00 00 00 61 61 61 61 61 61 61 61 61 61 61 61 FF ...aaaaaaaaaaaa.
004118A0 FF FF FF FF FF FF FF F5 F6 9B F6 F6 00 00 00 00 ................
004118B0 00 00 00 00 00 00 07 FF FF FF FF FF FF FF FF FF ................
004118C0 FF FF FF FF FF FF FF F5 A4 F6 F6 00 00 00 00 00 ................
004118D0 00 00 00 00 00 00 07 07 07 07 07 F5 F5 F5 F5 F5 ................
004118E0 F5 F5 F5 F5 F5 F5 F5 F5 F6 F6 00 00 00 00 00 00 ................
004118F0 00 00 00 00 00 00 00 00 00 00 00 00 00 00 00 00 ................
00411900 00 00 00 00 00 00 00 00 00 00 00 00 00 00 00 00 ................
00411910 FF FF FF FF FC 00 00 01 FC 00 00 01 FC 00 00 01 ................
00411920 FC 00 00 01 FC 00 00 01 FC 00 00 01 FC 00 00 01 ................
00411930 FC 00 00 01 FC 00 00 01 FC 00 00 01 FC 00 00 01 ................
00411940 FC 00 00 01 C0 00 00 01 C0 00 00 01 80 00 00 01 ................
00411950 80 00 00 01 80 00 00 01 80 00 00 01 80 00 00 01 ................
00411960 80 00 00 01 80 00 00 01 80 00 00 01 80 00 00 01 ................
00411970 80 00 00 01 80 00 00 01 80 00 00 03 C0 00 00 07 ................
00411980 E0 00 00 0F FC 00 00 1F FC 00 00 3F FF FF FF FF ...........?....
00411990 00 00 01 00 01 00 20 20 08 00 00 00 00 00 A8 08 ......  ........
004119A0 00 00 01 00 00 03 34 00 00 00 56 00 53 00 5F 00 ......4...V.S._.
004119B0 56 00 45 00 52 00 53 00 49 00 4F 00 4E 00 5F 00 V.E.R.S.I.O.N._.
004119C0 49 00 4E 00 46 00 4F 00 00 00 00 00 BD 04 EF FE I.N.F.O.........
004119D0 00 00 01 00 0F 7D 5D AC 0F 7D 5D AC 0F 7D 5D AC .....}]..}]..}].
004119E0 0F 7D 5D AC 0F 7D 00 00 00 00 00 00 04 00 04 00 .}]..}..........
004119F0 01 00 00 00 00 00 00 00 00 00 00 00 00 00 00 00 ................
00411A00 60 02 00 00 00 00 53 00 74 00 72 00 69 00 6E 00 `.....S.t.r.i.n.
00411A10 67 00 46 00 69 00 6C 00 65 00 49 00 6E 00 66 00 g.F.i.l.e.I.n.f.
00411A20 6F 00 00 00 3C 02 00 00 00 00 30 00 38 00 30 00 o...<.....0.8.0.
00411A30 30 00 30 00 34 00 42 00 30 00 00 00 3C 00 0E 00 0.0.4.B.0...<...
00411A40 01 00 43 00 6F 00 6D 00 70 00 61 00 6E 00 79 00 ..C.o.m.p.a.n.y.
00411A50 4E 00 61 00 6D 00 65 00 00 00 00 00 48 00 76 00 N.a.m.e.....H.v.
00411A60 48 00 42 00 44 00 4B 00 38 00 63 00 4C 00 48 00 H.B.D.K.8.c.L.H.
00411A70 70 00 74 00 62 00 00 00 50 00 13 00 01 00 46 00 p.t.b...P.....F.
00411A80 69 00 6C 00 65 00 44 00 65 00 73 00 63 00 72 00 i.l.e.D.e.s.c.r.
00411A90 69 00 70 00 74 00 69 00 6F 00 6E 00 00 00 00 00 i.p.t.i.o.n.....
00411AA0 65 00 68 00 69 00 31 00 73 00 53 00 36 00 54 00 e.h.i.1.s.S.6.T.
00411AB0 78 00 34 00 33 00 79 00 37 00 4D 00 74 00 36 00 x.4.3.y.7.M.t.6.
00411AC0 62 00 53 00 00 00 00 00 48 00 13 00 01 00 46 00 b.S.....H.....F.
00411AD0 69 00 6C 00 65 00 56 00 65 00 72 00 73 00 69 00 i.l.e.V.e.r.s.i.
00411AE0 6F 00 6E 00 00 00 00 00 45 00 48 00 46 00 32 00 o.n.....E.H.F.2.
00411AF0 79 00 4E 00 79 00 72 00 6A 00 65 00 79 00 50 00 y.N.y.r.j.e.y.P.
00411B00 33 00 45 00 50 00 56 00 68 00 79 00 00 00 00 00 3.E.P.V.h.y.....
00411B10 40 00 10 00 01 00 49 00 6E 00 74 00 65 00 72 00 @.....I.n.t.e.r.
00411B20 6E 00 61 00 6C 00 4E 00 61 00 6D 00 65 00 00 00 n.a.l.N.a.m.e...
00411B30 57 00 37 00 50 00 73 00 76 00 75 00 4C 00 75 00 W.7.P.s.v.u.L.u.
00411B40 34 00 72 00 37 00 63 00 69 00 43 00 62 00 00 00 4.r.7.c.i.C.b...
00411B50 48 00 11 00 01 00 4C 00 65 00 67 00 61 00 6C 00 H.....L.e.g.a.l.
00411B60 43 00 6F 00 70 00 79 00 72 00 69 00 67 00 68 00 C.o.p.y.r.i.g.h.
00411B70 74 00 00 00 55 00 58 00 46 00 75 00 56 00 63 00 t...U.X.F.u.V.c.
00411B80 73 00 75 00 54 00 62 00 4C 00 57 00 36 00 6F 00 s.u.T.b.L.W.6.o.
00411B90 54 00 73 00 00 00 00 00 48 00 10 00 01 00 4F 00 T.s.....H.....O.
00411BA0 72 00 69 00 67 00 69 00 6E 00 61 00 6C 00 46 00 r.i.g.i.n.a.l.F.
00411BB0 69 00 6C 00 65 00 6E 00 61 00 6D 00 65 00 00 00 i.l.e.n.a.m.e...
00411BC0 75 00 4B 00 6B 00 44 00 61 00 34 00 79 00 41 00 u.K.k.D.a.4.y.A.
00411BD0 65 00 35 00 69 00 4A 00 43 00 6E 00 63 00 00 00 e.5.i.J.C.n.c...
00411BE0 40 00 0F 00 01 00 50 00 72 00 6F 00 64 00 75 00 @.....P.r.o.d.u.
00411BF0 63 00 74 00 4E 00 61 00 6D 00 65 00 00 00 00 00 c.t.N.a.m.e.....
00411C00 6F 00 72 00 57 00 73 00 36 00 43 00 46 00 79 00 o.r.W.s.6.C.F.y.
00411C10 58 00 69 00 4B 00 4F 00 48 00 6F 00 00 00 00 00 X.i.K.O.H.o.....
00411C20 40 00 0D 00 01 00 50 00 72 00 6F 00 64 00 75 00 @.....P.r.o.d.u.
00411C30 63 00 74 00 56 00 65 00 72 00 73 00 69 00 6F 00 c.t.V.e.r.s.i.o.
00411C40 6E 00 00 00 51 00 4E 00 78 00 70 00 74 00 49 00 n...Q.N.x.p.t.I.
00411C50 71 00 43 00 77 00 77 00 65 00 6D 00 00 00 00 00 q.C.w.w.e.m.....
00411C60 44 00 00 00 00 00 56 00 61 00 72 00 46 00 69 00 D.....V.a.r.F.i.
00411C70 6C 00 65 00 49 00 6E 00 66 00 6F 00 00 00 00 00 l.e.I.n.f.o.....
00411C80 24 00 04 00 00 00 54 00 72 00 61 00 6E 00 73 00 $.....T.r.a.n.s.
00411C90 6C 00 61 00 74 00 69 00 6F 00 6E 00 00 00 00 00 l.a.t.i.o.n.....
00411CA0 00 08 B0 04 00 00 00 00 00 00 00 00 00 00 00 00 ................
00411CB0 00 00 00 00 00 00 00 00 00 00 00 00 00 00 00 00 ................
00411CC0 00 00 00 00 00 00 00 00 00 00 00 00 00 00 00 00 ................
00411CD0 00 00 00 00 00 00 00 00 00 00 00 00 00 00 00 00 ................
00411CE0 00 00 00 00 00 00 00 00 00 00 00 00 00 00 00 00 ................
00411CF0 00 00 00 00 00 00 00 00 00 00 00 00 00 00 00 00 ................
00411D00 00 00 00 00 00 00 00 00 00 00 00 00 00 00 00 00 ................
00411D10 00 00 00 00 00 00 00 00 00 00 00 00 00 00 00 00 ................
00411D20 00 00 00 00 00 00 00 00 00 00 00 00 00 00 00 00 ................
00411D30 00 00 00 00 00 00 00 00 00 00 00 00 00 00 00 00 ................
00411D40 00 00 00 00 00 00 00 00 00 00 00 00 00 00 00 00 ................
00411D50 00 00 00 00 00 00 00 00 00 00 00 00 00 00 00 00 ................
00411D60 00 00 00 00 00 00 00 00 00 00 00 00 00 00 00 00 ................
00411D70 00 00 00 00 00 00 00 00 00 00 00 00 00 00 00 00 ................
00411D80 00 00 00 00 00 00 00 00 00 00 00 00 00 00 00 00 ................
00411D90 00 00 00 00 00 00 00 00 00 00 00 00 00 00 00 00 ................
00411DA0 00 00 00 00 00 00 00 00 00 00 00 00 00 00 00 00 ................
00411DB0 00 00 00 00 00 00 00 00 00 00 00 00 00 00 00 00 ................
00411DC0 00 00 00 00 00 00 00 00 00 00 00 00 00 00 00 00 ................
00411DD0 00 00 00 00 00 00 00 00 00 00 00 00 00 00 00 00 ................
00411DE0 00 00 00 00 00 00 00 00 00 00 00 00 00 00 00 00 ................
00411DF0 00 00 00 00 00 00 00 00 00 00 00 00 00 00 00 00 ................
00411E00 00 00 00 00 00 00 00 00 00 00 00 00 00 00 00 00 ................
00411E10 00 00 00 00 00 00 00 00 00 00 00 00 00 00 00 00 ................
00411E20 00 00 00 00 00 00 00 00 00 00 00 00 00 00 00 00 ................
00411E30 00 00 00 00 00 00 00 00 00 00 00 00 00 00 00 00 ................
00411E40 00 00 00 00 00 00 00 00 00 00 00 00 00 00 00 00 ................
00411E50 00 00 00 00 00 00 00 00 00 00 00 00 00 00 00 00 ................
00411E60 00 00 00 00 00 00 00 00 00 00 00 00 00 00 00 00 ................
00411E70 00 00 00 00 00 00 00 00 00 00 00 00 00 00 00 00 ................
00411E80 00 00 00 00 00 00 00 00 00 00 00 00 00 00 00 00 ................
00411E90 00 00 00 00 00 00 00 00 00 00 00 00 00 00 00 00 ................
00411EA0 00 00 00 00 00 00 00 00 00 00 00 00 00 00 00 00 ................
00411EB0 00 00 00 00 00 00 00 00 00 00 00 00 00 00 00 00 ................
00411EC0 00 00 00 00 00 00 00 00 00 00 00 00 00 00 00 00 ................
00411ED0 00 00 00 00 00 00 00 00 00 00 00 00 00 00 00 00 ................
00411EE0 00 00 00 00 00 00 00 00 00 00 00 00 00 00 00 00 ................
00411EF0 00 00 00 00 00 00 00 00 00 00 00 00 00 00 00 00 ................
00411F00 00 00 00 00 00 00 00 00 00 00 00 00 00 00 00 00 ................
00411F10 00 00 00 00 00 00 00 00 00 00 00 00 00 00 00 00 ................
00411F20 00 00 00 00 00 00 00 00 00 00 00 00 00 00 00 00 ................
00411F30 00 00 00 00 00 00 00 00 00 00 00 00 00 00 00 00 ................
00411F40 00 00 00 00 00 00 00 00 00 00 00 00 00 00 00 00 ................
00411F50 00 00 00 00 00 00 00 00 00 00 00 00 00 00 00 00 ................
00411F60 00 00 00 00 00 00 00 00 00 00 00 00 00 00 00 00 ................
00411F70 00 00 00 00 00 00 00 00 00 00 00 00 00 00 00 00 ................
00411F80 00 00 00 00 00 00 00 00 00 00 00 00 00 00 00 00 ................
00411F90 00 00 00 00 00 00 00 00 00 00 00 00 00 00 00 00 ................
00411FA0 00 00 00 00 00 00 00 00 00 00 00 00 00 00 00 00 ................
00411FB0 00 00 00 00 00 00 00 00 00 00 00 00 00 00 00 00 ................
00411FC0 00 00 00 00 00 00 00 00 00 00 00 00 00 00 00 00 ................
00411FD0 00 00 00 00 00 00 00 00 00 00 00 00 00 00 00 00 ................
00411FE0 00 00 00 00 00 00 00 00 00 00 00 00 00 00 00 00 ................
00411FF0 00 00 00 00 00 00 00 00 00 00 00 00 00 00 00 00 ................
